
malware_samples/stealer/349d21d4479dbaed53f98df40704afdb7159f4495f82c1a1c8410eebcbab061b.exe:     file format pei-x86-64


Disassembly of section .text:

0000000140001000 <.text>:
   140001000:	48 83 ec 28          	sub    $0x28,%rsp
   140001004:	48 8d 0d 25 78 05 00 	lea    0x57825(%rip),%rcx        # 0x140058830
   14000100b:	e8 ec 8d 01 00       	call   0x140019dfc
   140001010:	48 8d 0d e9 ec 03 00 	lea    0x3ece9(%rip),%rcx        # 0x14003fd00
   140001017:	48 83 c4 28          	add    $0x28,%rsp
   14000101b:	e9 b4 b2 01 00       	jmp    0x14001c2d4
   140001020:	48 8d 0d e5 ec 03 00 	lea    0x3ece5(%rip),%rcx        # 0x14003fd0c
   140001027:	e9 a8 b2 01 00       	jmp    0x14001c2d4
   14000102c:	48 8d 0d 31 ed 03 00 	lea    0x3ed31(%rip),%rcx        # 0x14003fd64
   140001033:	e9 9c b2 01 00       	jmp    0x14001c2d4
   140001038:	48 8d 0d 65 ed 03 00 	lea    0x3ed65(%rip),%rcx        # 0x14003fda4
   14000103f:	e9 90 b2 01 00       	jmp    0x14001c2d4
   140001044:	48 83 ec 28          	sub    $0x28,%rsp
   140001048:	48 8d 0d 91 7d 05 00 	lea    0x57d91(%rip),%rcx        # 0x140058de0
   14000104f:	e8 a8 8d 01 00       	call   0x140019dfc
   140001054:	48 8d 0d 89 ed 03 00 	lea    0x3ed89(%rip),%rcx        # 0x14003fde4
   14000105b:	48 83 c4 28          	add    $0x28,%rsp
   14000105f:	e9 70 b2 01 00       	jmp    0x14001c2d4
   140001064:	cc                   	int3
   140001065:	cc                   	int3
   140001066:	cc                   	int3
   140001067:	cc                   	int3
   140001068:	cc                   	int3
   140001069:	cc                   	int3
   14000106a:	cc                   	int3
   14000106b:	cc                   	int3
   14000106c:	cc                   	int3
   14000106d:	cc                   	int3
   14000106e:	cc                   	int3
   14000106f:	cc                   	int3
   140001070:	48 89 5c 24 18       	mov    %rbx,0x18(%rsp)
   140001075:	57                   	push   %rdi
   140001076:	48 81 ec 50 01 00 00 	sub    $0x150,%rsp
   14000107d:	48 8b 05 7c 60 05 00 	mov    0x5607c(%rip),%rax        # 0x140057100
   140001084:	48 33 c4             	xor    %rsp,%rax
   140001087:	48 89 84 24 40 01 00 	mov    %rax,0x140(%rsp)
   14000108e:	00 
   14000108f:	0f b7 fa             	movzwl %dx,%edi
   140001092:	41 b8 00 01 00 00    	mov    $0x100,%r8d
   140001098:	0f b7 d9             	movzwl %cx,%ebx
   14000109b:	33 d2                	xor    %edx,%edx
   14000109d:	48 8d 4c 24 34       	lea    0x34(%rsp),%rcx
   1400010a2:	c7 44 24 20 1c 01 00 	movl   $0x11c,0x20(%rsp)
   1400010a9:	00 
   1400010aa:	48 c7 44 24 2c 00 00 	movq   $0x0,0x2c(%rsp)
   1400010b1:	00 00 
   1400010b3:	e8 b8 cc 03 00       	call   0x14003dd70
   1400010b8:	33 c0                	xor    %eax,%eax
   1400010ba:	41 b0 03             	mov    $0x3,%r8b
   1400010bd:	ba 02 00 00 00       	mov    $0x2,%edx
   1400010c2:	66 89 84 24 36 01 00 	mov    %ax,0x136(%rsp)
   1400010c9:	00 
   1400010ca:	33 c9                	xor    %ecx,%ecx
   1400010cc:	89 84 24 38 01 00 00 	mov    %eax,0x138(%rsp)
   1400010d3:	ff 15 8f ef 03 00    	call   *0x3ef8f(%rip)        # 0x140040068
   1400010d9:	41 b0 03             	mov    $0x3,%r8b
   1400010dc:	ba 01 00 00 00       	mov    $0x1,%edx
   1400010e1:	48 8b c8             	mov    %rax,%rcx
   1400010e4:	ff 15 7e ef 03 00    	call   *0x3ef7e(%rip)        # 0x140040068
   1400010ea:	41 b0 03             	mov    $0x3,%r8b
   1400010ed:	ba 20 00 00 00       	mov    $0x20,%edx
   1400010f2:	48 8b c8             	mov    %rax,%rcx
   1400010f5:	ff 15 6d ef 03 00    	call   *0x3ef6d(%rip)        # 0x140040068
   1400010fb:	33 c9                	xor    %ecx,%ecx
   1400010fd:	89 5c 24 24          	mov    %ebx,0x24(%rsp)
   140001101:	66 89 8c 24 34 01 00 	mov    %cx,0x134(%rsp)
   140001108:	00 
   140001109:	4c 8b c0             	mov    %rax,%r8
   14000110c:	48 8d 4c 24 20       	lea    0x20(%rsp),%rcx
   140001111:	89 7c 24 28          	mov    %edi,0x28(%rsp)
   140001115:	ba 23 00 00 00       	mov    $0x23,%edx
   14000111a:	ff 15 58 ef 03 00    	call   *0x3ef58(%rip)        # 0x140040078
   140001120:	85 c0                	test   %eax,%eax
   140001122:	0f 95 c0             	setne  %al
   140001125:	48 8b 8c 24 40 01 00 	mov    0x140(%rsp),%rcx
   14000112c:	00 
   14000112d:	48 33 cc             	xor    %rsp,%rcx
   140001130:	e8 7b a8 01 00       	call   0x14001b9b0
   140001135:	48 8b 9c 24 70 01 00 	mov    0x170(%rsp),%rbx
   14000113c:	00 
   14000113d:	48 81 c4 50 01 00 00 	add    $0x150,%rsp
   140001144:	5f                   	pop    %rdi
   140001145:	c3                   	ret
   140001146:	cc                   	int3
   140001147:	cc                   	int3
   140001148:	cc                   	int3
   140001149:	cc                   	int3
   14000114a:	cc                   	int3
   14000114b:	cc                   	int3
   14000114c:	cc                   	int3
   14000114d:	cc                   	int3
   14000114e:	cc                   	int3
   14000114f:	cc                   	int3
   140001150:	48 8d 05 09 8a 05 00 	lea    0x58a09(%rip),%rax        # 0x140059b60
   140001157:	c3                   	ret
   140001158:	cc                   	int3
   140001159:	cc                   	int3
   14000115a:	cc                   	int3
   14000115b:	cc                   	int3
   14000115c:	cc                   	int3
   14000115d:	cc                   	int3
   14000115e:	cc                   	int3
   14000115f:	cc                   	int3
   140001160:	4c 89 44 24 18       	mov    %r8,0x18(%rsp)
   140001165:	4c 89 4c 24 20       	mov    %r9,0x20(%rsp)
   14000116a:	53                   	push   %rbx
   14000116b:	55                   	push   %rbp
   14000116c:	56                   	push   %rsi
   14000116d:	57                   	push   %rdi
   14000116e:	48 83 ec 38          	sub    $0x38,%rsp
   140001172:	49 8b f0             	mov    %r8,%rsi
   140001175:	48 8d 6c 24 78       	lea    0x78(%rsp),%rbp
   14000117a:	48 8b fa             	mov    %rdx,%rdi
   14000117d:	48 8b d9             	mov    %rcx,%rbx
   140001180:	e8 cb ff ff ff       	call   0x140001150
   140001185:	48 89 6c 24 28       	mov    %rbp,0x28(%rsp)
   14000118a:	4c 8b ce             	mov    %rsi,%r9
   14000118d:	4c 8b c7             	mov    %rdi,%r8
   140001190:	48 c7 44 24 20 00 00 	movq   $0x0,0x20(%rsp)
   140001197:	00 00 
   140001199:	48 8b d3             	mov    %rbx,%rdx
   14000119c:	48 8b 08             	mov    (%rax),%rcx
   14000119f:	e8 38 2e 02 00       	call   0x140023fdc
   1400011a4:	85 c0                	test   %eax,%eax
   1400011a6:	b9 ff ff ff ff       	mov    $0xffffffff,%ecx
   1400011ab:	0f 48 c1             	cmovs  %ecx,%eax
   1400011ae:	48 83 c4 38          	add    $0x38,%rsp
   1400011b2:	5f                   	pop    %rdi
   1400011b3:	5e                   	pop    %rsi
   1400011b4:	5d                   	pop    %rbp
   1400011b5:	5b                   	pop    %rbx
   1400011b6:	c3                   	ret
   1400011b7:	cc                   	int3
   1400011b8:	cc                   	int3
   1400011b9:	cc                   	int3
   1400011ba:	cc                   	int3
   1400011bb:	cc                   	int3
   1400011bc:	cc                   	int3
   1400011bd:	cc                   	int3
   1400011be:	cc                   	int3
   1400011bf:	cc                   	int3
   1400011c0:	40 53                	rex push %rbx
   1400011c2:	48 83 ec 20          	sub    $0x20,%rsp
   1400011c6:	48 8b d9             	mov    %rcx,%rbx
   1400011c9:	48 8b c2             	mov    %rdx,%rax
   1400011cc:	48 8d 0d fd 19 04 00 	lea    0x419fd(%rip),%rcx        # 0x140042bd0
   1400011d3:	0f 57 c0             	xorps  %xmm0,%xmm0
   1400011d6:	48 8d 53 08          	lea    0x8(%rbx),%rdx
   1400011da:	48 89 0b             	mov    %rcx,(%rbx)
   1400011dd:	48 8d 48 08          	lea    0x8(%rax),%rcx
   1400011e1:	0f 11 02             	movups %xmm0,(%rdx)
   1400011e4:	e8 9f c1 01 00       	call   0x14001d388
   1400011e9:	48 8b c3             	mov    %rbx,%rax
   1400011ec:	48 83 c4 20          	add    $0x20,%rsp
   1400011f0:	5b                   	pop    %rbx
   1400011f1:	c3                   	ret
   1400011f2:	cc                   	int3
   1400011f3:	cc                   	int3
   1400011f4:	cc                   	int3
   1400011f5:	cc                   	int3
   1400011f6:	cc                   	int3
   1400011f7:	cc                   	int3
   1400011f8:	cc                   	int3
   1400011f9:	cc                   	int3
   1400011fa:	cc                   	int3
   1400011fb:	cc                   	int3
   1400011fc:	cc                   	int3
   1400011fd:	cc                   	int3
   1400011fe:	cc                   	int3
   1400011ff:	cc                   	int3
   140001200:	48 8b 51 08          	mov    0x8(%rcx),%rdx
   140001204:	48 8d 05 5d cd 04 00 	lea    0x4cd5d(%rip),%rax        # 0x14004df68
   14000120b:	48 85 d2             	test   %rdx,%rdx
   14000120e:	48 0f 45 c2          	cmovne %rdx,%rax
   140001212:	c3                   	ret
   140001213:	cc                   	int3
   140001214:	cc                   	int3
   140001215:	cc                   	int3
   140001216:	cc                   	int3
   140001217:	cc                   	int3
   140001218:	cc                   	int3
   140001219:	cc                   	int3
   14000121a:	cc                   	int3
   14000121b:	cc                   	int3
   14000121c:	cc                   	int3
   14000121d:	cc                   	int3
   14000121e:	cc                   	int3
   14000121f:	cc                   	int3
   140001220:	48 89 5c 24 08       	mov    %rbx,0x8(%rsp)
   140001225:	57                   	push   %rdi
   140001226:	48 83 ec 20          	sub    $0x20,%rsp
   14000122a:	48 8d 05 9f 19 04 00 	lea    0x4199f(%rip),%rax        # 0x140042bd0
   140001231:	48 8b f9             	mov    %rcx,%rdi
   140001234:	48 89 01             	mov    %rax,(%rcx)
   140001237:	8b da                	mov    %edx,%ebx
   140001239:	48 83 c1 08          	add    $0x8,%rcx
   14000123d:	e8 ce c1 01 00       	call   0x14001d410
   140001242:	f6 c3 01             	test   $0x1,%bl
   140001245:	74 0d                	je     0x140001254
   140001247:	ba 18 00 00 00       	mov    $0x18,%edx
   14000124c:	48 8b cf             	mov    %rdi,%rcx
   14000124f:	e8 7c a7 01 00       	call   0x14001b9d0
   140001254:	48 8b 5c 24 30       	mov    0x30(%rsp),%rbx
   140001259:	48 8b c7             	mov    %rdi,%rax
   14000125c:	48 83 c4 20          	add    $0x20,%rsp
   140001260:	5f                   	pop    %rdi
   140001261:	c3                   	ret
   140001262:	cc                   	int3
   140001263:	cc                   	int3
   140001264:	cc                   	int3
   140001265:	cc                   	int3
   140001266:	cc                   	int3
   140001267:	cc                   	int3
   140001268:	cc                   	int3
   140001269:	cc                   	int3
   14000126a:	cc                   	int3
   14000126b:	cc                   	int3
   14000126c:	cc                   	int3
   14000126d:	cc                   	int3
   14000126e:	cc                   	int3
   14000126f:	cc                   	int3
   140001270:	48 8d 05 59 19 04 00 	lea    0x41959(%rip),%rax        # 0x140042bd0
   140001277:	48 89 01             	mov    %rax,(%rcx)
   14000127a:	48 83 c1 08          	add    $0x8,%rcx
   14000127e:	e9 8d c1 01 00       	jmp    0x14001d410
   140001283:	cc                   	int3
   140001284:	cc                   	int3
   140001285:	cc                   	int3
   140001286:	cc                   	int3
   140001287:	cc                   	int3
   140001288:	cc                   	int3
   140001289:	cc                   	int3
   14000128a:	cc                   	int3
   14000128b:	cc                   	int3
   14000128c:	cc                   	int3
   14000128d:	cc                   	int3
   14000128e:	cc                   	int3
   14000128f:	cc                   	int3
   140001290:	48 8d 05 e9 cc 04 00 	lea    0x4cce9(%rip),%rax        # 0x14004df80
   140001297:	48 c7 41 10 00 00 00 	movq   $0x0,0x10(%rcx)
   14000129e:	00 
   14000129f:	48 89 41 08          	mov    %rax,0x8(%rcx)
   1400012a3:	48 8d 05 56 19 04 00 	lea    0x41956(%rip),%rax        # 0x140042c00
   1400012aa:	48 89 01             	mov    %rax,(%rcx)
   1400012ad:	48 8b c1             	mov    %rcx,%rax
   1400012b0:	c3                   	ret
   1400012b1:	cc                   	int3
   1400012b2:	cc                   	int3
   1400012b3:	cc                   	int3
   1400012b4:	cc                   	int3
   1400012b5:	cc                   	int3
   1400012b6:	cc                   	int3
   1400012b7:	cc                   	int3
   1400012b8:	cc                   	int3
   1400012b9:	cc                   	int3
   1400012ba:	cc                   	int3
   1400012bb:	cc                   	int3
   1400012bc:	cc                   	int3
   1400012bd:	cc                   	int3
   1400012be:	cc                   	int3
   1400012bf:	cc                   	int3
   1400012c0:	48 83 ec 48          	sub    $0x48,%rsp
   1400012c4:	48 8d 4c 24 20       	lea    0x20(%rsp),%rcx
   1400012c9:	e8 c2 ff ff ff       	call   0x140001290
   1400012ce:	48 8d 15 5b 4d 05 00 	lea    0x54d5b(%rip),%rdx        # 0x140056030
   1400012d5:	48 8d 4c 24 20       	lea    0x20(%rsp),%rcx
   1400012da:	e8 f1 c4 01 00       	call   0x14001d7d0
   1400012df:	cc                   	int3
   1400012e0:	40 53                	rex push %rbx
   1400012e2:	48 83 ec 20          	sub    $0x20,%rsp
   1400012e6:	48 8b d9             	mov    %rcx,%rbx
   1400012e9:	48 8b c2             	mov    %rdx,%rax
   1400012ec:	48 8d 0d dd 18 04 00 	lea    0x418dd(%rip),%rcx        # 0x140042bd0
   1400012f3:	0f 57 c0             	xorps  %xmm0,%xmm0
   1400012f6:	48 8d 53 08          	lea    0x8(%rbx),%rdx
   1400012fa:	48 89 0b             	mov    %rcx,(%rbx)
   1400012fd:	48 8d 48 08          	lea    0x8(%rax),%rcx
   140001301:	0f 11 02             	movups %xmm0,(%rdx)
   140001304:	e8 7f c0 01 00       	call   0x14001d388
   140001309:	48 8d 05 f0 18 04 00 	lea    0x418f0(%rip),%rax        # 0x140042c00
   140001310:	48 89 03             	mov    %rax,(%rbx)
   140001313:	48 8b c3             	mov    %rbx,%rax
   140001316:	48 83 c4 20          	add    $0x20,%rsp
   14000131a:	5b                   	pop    %rbx
   14000131b:	c3                   	ret
   14000131c:	cc                   	int3
   14000131d:	cc                   	int3
   14000131e:	cc                   	int3
   14000131f:	cc                   	int3
   140001320:	40 53                	rex push %rbx
   140001322:	48 83 ec 20          	sub    $0x20,%rsp
   140001326:	48 8b d9             	mov    %rcx,%rbx
   140001329:	48 8b c2             	mov    %rdx,%rax
   14000132c:	48 8d 0d 9d 18 04 00 	lea    0x4189d(%rip),%rcx        # 0x140042bd0
   140001333:	0f 57 c0             	xorps  %xmm0,%xmm0
   140001336:	48 8d 53 08          	lea    0x8(%rbx),%rdx
   14000133a:	48 89 0b             	mov    %rcx,(%rbx)
   14000133d:	48 8d 48 08          	lea    0x8(%rax),%rcx
   140001341:	0f 11 02             	movups %xmm0,(%rdx)
   140001344:	e8 3f c0 01 00       	call   0x14001d388
   140001349:	48 8d 05 98 18 04 00 	lea    0x41898(%rip),%rax        # 0x140042be8
   140001350:	48 89 03             	mov    %rax,(%rbx)
   140001353:	48 8b c3             	mov    %rbx,%rax
   140001356:	48 83 c4 20          	add    $0x20,%rsp
   14000135a:	5b                   	pop    %rbx
   14000135b:	c3                   	ret
   14000135c:	cc                   	int3
   14000135d:	cc                   	int3
   14000135e:	cc                   	int3
   14000135f:	cc                   	int3
   140001360:	48 83 ec 28          	sub    $0x28,%rsp
   140001364:	48 8d 0d 2d cc 04 00 	lea    0x4cc2d(%rip),%rcx        # 0x14004df98
   14000136b:	e8 d8 90 01 00       	call   0x14001a448
   140001370:	cc                   	int3
   140001371:	cc                   	int3
   140001372:	cc                   	int3
   140001373:	cc                   	int3
   140001374:	cc                   	int3
   140001375:	cc                   	int3
   140001376:	cc                   	int3
   140001377:	cc                   	int3
   140001378:	cc                   	int3
   140001379:	cc                   	int3
   14000137a:	cc                   	int3
   14000137b:	cc                   	int3
   14000137c:	cc                   	int3
   14000137d:	cc                   	int3
   14000137e:	cc                   	int3
   14000137f:	cc                   	int3
   140001380:	40 53                	rex push %rbx
   140001382:	48 83 ec 20          	sub    $0x20,%rsp
   140001386:	48 8b d9             	mov    %rcx,%rbx
   140001389:	48 8b c2             	mov    %rdx,%rax
   14000138c:	48 8d 0d 3d 18 04 00 	lea    0x4183d(%rip),%rcx        # 0x140042bd0
   140001393:	0f 57 c0             	xorps  %xmm0,%xmm0
   140001396:	48 8d 53 08          	lea    0x8(%rbx),%rdx
   14000139a:	48 89 0b             	mov    %rcx,(%rbx)
   14000139d:	48 8d 48 08          	lea    0x8(%rax),%rcx
   1400013a1:	0f 11 02             	movups %xmm0,(%rdx)
   1400013a4:	e8 df bf 01 00       	call   0x14001d388
   1400013a9:	48 8d 05 68 18 04 00 	lea    0x41868(%rip),%rax        # 0x140042c18
   1400013b0:	48 89 03             	mov    %rax,(%rbx)
   1400013b3:	48 8b c3             	mov    %rbx,%rax
   1400013b6:	48 83 c4 20          	add    $0x20,%rsp
   1400013ba:	5b                   	pop    %rbx
   1400013bb:	c3                   	ret
   1400013bc:	cc                   	int3
   1400013bd:	cc                   	int3
   1400013be:	cc                   	int3
   1400013bf:	cc                   	int3
   1400013c0:	44 89 02             	mov    %r8d,(%rdx)
   1400013c3:	48 8b c2             	mov    %rdx,%rax
   1400013c6:	48 89 4a 08          	mov    %rcx,0x8(%rdx)
   1400013ca:	c3                   	ret
   1400013cb:	cc                   	int3
   1400013cc:	cc                   	int3
   1400013cd:	cc                   	int3
   1400013ce:	cc                   	int3
   1400013cf:	cc                   	int3
   1400013d0:	40 53                	rex push %rbx
   1400013d2:	48 83 ec 30          	sub    $0x30,%rsp
   1400013d6:	48 8b 01             	mov    (%rcx),%rax
   1400013d9:	49 8b d8             	mov    %r8,%rbx
   1400013dc:	44 8b c2             	mov    %edx,%r8d
   1400013df:	48 8d 54 24 20       	lea    0x20(%rsp),%rdx
   1400013e4:	ff 50 18             	call   *0x18(%rax)
   1400013e7:	48 8b 4b 08          	mov    0x8(%rbx),%rcx
   1400013eb:	4c 8b 48 08          	mov    0x8(%rax),%r9
   1400013ef:	48 8b 51 08          	mov    0x8(%rcx),%rdx
   1400013f3:	49 39 51 08          	cmp    %rdx,0x8(%r9)
   1400013f7:	75 0e                	jne    0x140001407
   1400013f9:	8b 0b                	mov    (%rbx),%ecx
   1400013fb:	39 08                	cmp    %ecx,(%rax)
   1400013fd:	75 08                	jne    0x140001407
   1400013ff:	b0 01                	mov    $0x1,%al
   140001401:	48 83 c4 30          	add    $0x30,%rsp
   140001405:	5b                   	pop    %rbx
   140001406:	c3                   	ret
   140001407:	32 c0                	xor    %al,%al
   140001409:	48 83 c4 30          	add    $0x30,%rsp
   14000140d:	5b                   	pop    %rbx
   14000140e:	c3                   	ret
   14000140f:	cc                   	int3
   140001410:	48 8b 42 08          	mov    0x8(%rdx),%rax
   140001414:	4c 8b 48 08          	mov    0x8(%rax),%r9
   140001418:	4c 39 49 08          	cmp    %r9,0x8(%rcx)
   14000141c:	75 08                	jne    0x140001426
   14000141e:	44 39 02             	cmp    %r8d,(%rdx)
   140001421:	75 03                	jne    0x140001426
   140001423:	b0 01                	mov    $0x1,%al
   140001425:	c3                   	ret
   140001426:	32 c0                	xor    %al,%al
   140001428:	c3                   	ret
   140001429:	cc                   	int3
   14000142a:	cc                   	int3
   14000142b:	cc                   	int3
   14000142c:	cc                   	int3
   14000142d:	cc                   	int3
   14000142e:	cc                   	int3
   14000142f:	cc                   	int3
   140001430:	48 8d 05 09 69 05 00 	lea    0x56909(%rip),%rax        # 0x140057d40
   140001437:	89 11                	mov    %edx,(%rcx)
   140001439:	48 89 41 08          	mov    %rax,0x8(%rcx)
   14000143d:	48 8b c1             	mov    %rcx,%rax
   140001440:	c3                   	ret
   140001441:	cc                   	int3
   140001442:	cc                   	int3
   140001443:	cc                   	int3
   140001444:	cc                   	int3
   140001445:	cc                   	int3
   140001446:	cc                   	int3
   140001447:	cc                   	int3
   140001448:	cc                   	int3
   140001449:	cc                   	int3
   14000144a:	cc                   	int3
   14000144b:	cc                   	int3
   14000144c:	cc                   	int3
   14000144d:	cc                   	int3
   14000144e:	cc                   	int3
   14000144f:	cc                   	int3
   140001450:	48 89 5c 24 20       	mov    %rbx,0x20(%rsp)
   140001455:	55                   	push   %rbp
   140001456:	56                   	push   %rsi
   140001457:	57                   	push   %rdi
   140001458:	41 56                	push   %r14
   14000145a:	41 57                	push   %r15
   14000145c:	48 8d 6c 24 c9       	lea    -0x37(%rsp),%rbp
   140001461:	48 81 ec a0 00 00 00 	sub    $0xa0,%rsp
   140001468:	48 8b 05 91 5c 05 00 	mov    0x55c91(%rip),%rax        # 0x140057100
   14000146f:	48 33 c4             	xor    %rsp,%rax
   140001472:	48 89 45 27          	mov    %rax,0x27(%rbp)
   140001476:	48 8b f2             	mov    %rdx,%rsi
   140001479:	48 8b d9             	mov    %rcx,%rbx
   14000147c:	48 89 4d 17          	mov    %rcx,0x17(%rbp)
   140001480:	45 33 ff             	xor    %r15d,%r15d
   140001483:	49 8b d0             	mov    %r8,%rdx
   140001486:	48 8d 4d f7          	lea    -0x9(%rbp),%rcx
   14000148a:	e8 41 87 00 00       	call   0x140009bd0
   14000148f:	48 8b f8             	mov    %rax,%rdi
   140001492:	48 89 45 17          	mov    %rax,0x17(%rbp)
   140001496:	4c 8b 76 08          	mov    0x8(%rsi),%r14
   14000149a:	4c 39 78 10          	cmp    %r15,0x10(%rax)
   14000149e:	74 15                	je     0x1400014b5
   1400014a0:	41 b8 02 00 00 00    	mov    $0x2,%r8d
   1400014a6:	48 8d 15 fb ca 04 00 	lea    0x4cafb(%rip),%rdx        # 0x14004dfa8
   1400014ad:	48 8b c8             	mov    %rax,%rcx
   1400014b0:	e8 eb b5 00 00       	call   0x14000caa0
   1400014b5:	49 8b 06             	mov    (%r14),%rax
   1400014b8:	44 8b 06             	mov    (%rsi),%r8d
   1400014bb:	48 8d 55 d7          	lea    -0x29(%rbp),%rdx
   1400014bf:	49 8b ce             	mov    %r14,%rcx
   1400014c2:	ff 50 10             	call   *0x10(%rax)
   1400014c5:	90                   	nop
   1400014c6:	48 8d 55 d7          	lea    -0x29(%rbp),%rdx
   1400014ca:	48 83 7d ef 0f       	cmpq   $0xf,-0x11(%rbp)
   1400014cf:	48 0f 47 55 d7       	cmova  -0x29(%rbp),%rdx
   1400014d4:	4c 8b 45 e7          	mov    -0x19(%rbp),%r8
   1400014d8:	48 8b cf             	mov    %rdi,%rcx
   1400014db:	e8 c0 b5 00 00       	call   0x14000caa0
   1400014e0:	90                   	nop
   1400014e1:	48 8b 55 ef          	mov    -0x11(%rbp),%rdx
   1400014e5:	48 83 fa 0f          	cmp    $0xf,%rdx
   1400014e9:	76 36                	jbe    0x140001521
   1400014eb:	48 8b 45 d7          	mov    -0x29(%rbp),%rax
   1400014ef:	48 ff c2             	inc    %rdx
   1400014f2:	48 81 fa 00 10 00 00 	cmp    $0x1000,%rdx
   1400014f9:	72 1e                	jb     0x140001519
   1400014fb:	48 8b 48 f8          	mov    -0x8(%rax),%rcx
   1400014ff:	48 2b c1             	sub    %rcx,%rax
   140001502:	48 83 e8 08          	sub    $0x8,%rax
   140001506:	48 83 f8 1f          	cmp    $0x1f,%rax
   14000150a:	77 06                	ja     0x140001512
   14000150c:	48 83 c2 27          	add    $0x27,%rdx
   140001510:	eb 0a                	jmp    0x14000151c
   140001512:	b9 05 00 00 00       	mov    $0x5,%ecx
   140001517:	cd 29                	int    $0x29
   140001519:	48 8b c8             	mov    %rax,%rcx
   14000151c:	e8 af a4 01 00       	call   0x14001b9d0
   140001521:	0f 57 c0             	xorps  %xmm0,%xmm0
   140001524:	0f 11 45 b7          	movups %xmm0,-0x49(%rbp)
   140001528:	4c 89 7d c7          	mov    %r15,-0x39(%rbp)
   14000152c:	4c 89 7d cf          	mov    %r15,-0x31(%rbp)
   140001530:	0f 10 07             	movups (%rdi),%xmm0
   140001533:	0f 11 45 b7          	movups %xmm0,-0x49(%rbp)
   140001537:	0f 10 4f 10          	movups 0x10(%rdi),%xmm1
   14000153b:	0f 11 4d c7          	movups %xmm1,-0x39(%rbp)
   14000153f:	48 c7 47 18 0f 00 00 	movq   $0xf,0x18(%rdi)
   140001546:	00 
   140001547:	c6 07 00             	movb   $0x0,(%rdi)
   14000154a:	4c 89 7f 10          	mov    %r15,0x10(%rdi)
   14000154e:	48 c7 47 18 0f 00 00 	movq   $0xf,0x18(%rdi)
   140001555:	00 
   140001556:	c6 07 00             	movb   $0x0,(%rdi)
   140001559:	48 8d 45 b7          	lea    -0x49(%rbp),%rax
   14000155d:	48 83 7d cf 0f       	cmpq   $0xf,-0x31(%rbp)
   140001562:	48 0f 47 45 b7       	cmova  -0x49(%rbp),%rax
   140001567:	48 8d 0d 62 16 04 00 	lea    0x41662(%rip),%rcx        # 0x140042bd0
   14000156e:	48 89 0b             	mov    %rcx,(%rbx)
   140001571:	48 8d 53 08          	lea    0x8(%rbx),%rdx
   140001575:	0f 57 c0             	xorps  %xmm0,%xmm0
   140001578:	0f 11 02             	movups %xmm0,(%rdx)
   14000157b:	48 89 45 17          	mov    %rax,0x17(%rbp)
   14000157f:	c6 45 1f 01          	movb   $0x1,0x1f(%rbp)
   140001583:	48 8d 4d 17          	lea    0x17(%rbp),%rcx
   140001587:	e8 fc bd 01 00       	call   0x14001d388
   14000158c:	48 8d 05 85 16 04 00 	lea    0x41685(%rip),%rax        # 0x140042c18
   140001593:	48 89 03             	mov    %rax,(%rbx)
   140001596:	48 8b 55 cf          	mov    -0x31(%rbp),%rdx
   14000159a:	48 83 fa 0f          	cmp    $0xf,%rdx
   14000159e:	76 36                	jbe    0x1400015d6
   1400015a0:	48 8b 45 b7          	mov    -0x49(%rbp),%rax
   1400015a4:	48 ff c2             	inc    %rdx
   1400015a7:	48 81 fa 00 10 00 00 	cmp    $0x1000,%rdx
   1400015ae:	72 1e                	jb     0x1400015ce
   1400015b0:	48 8b 48 f8          	mov    -0x8(%rax),%rcx
   1400015b4:	48 2b c1             	sub    %rcx,%rax
   1400015b7:	48 83 e8 08          	sub    $0x8,%rax
   1400015bb:	48 83 f8 1f          	cmp    $0x1f,%rax
   1400015bf:	77 06                	ja     0x1400015c7
   1400015c1:	48 83 c2 27          	add    $0x27,%rdx
   1400015c5:	eb 0a                	jmp    0x1400015d1
   1400015c7:	b9 05 00 00 00       	mov    $0x5,%ecx
   1400015cc:	cd 29                	int    $0x29
   1400015ce:	48 8b c8             	mov    %rax,%rcx
   1400015d1:	e8 fa a3 01 00       	call   0x14001b9d0
   1400015d6:	48 8d 05 53 16 04 00 	lea    0x41653(%rip),%rax        # 0x140042c30
   1400015dd:	48 89 03             	mov    %rax,(%rbx)
   1400015e0:	0f 10 06             	movups (%rsi),%xmm0
   1400015e3:	0f 11 43 18          	movups %xmm0,0x18(%rbx)
   1400015e7:	48 8b c3             	mov    %rbx,%rax
   1400015ea:	48 8b 4d 27          	mov    0x27(%rbp),%rcx
   1400015ee:	48 33 cc             	xor    %rsp,%rcx
   1400015f1:	e8 ba a3 01 00       	call   0x14001b9b0
   1400015f6:	48 8b 9c 24 e8 00 00 	mov    0xe8(%rsp),%rbx
   1400015fd:	00 
   1400015fe:	48 81 c4 a0 00 00 00 	add    $0xa0,%rsp
   140001605:	41 5f                	pop    %r15
   140001607:	41 5e                	pop    %r14
   140001609:	5f                   	pop    %rdi
   14000160a:	5e                   	pop    %rsi
   14000160b:	5d                   	pop    %rbp
   14000160c:	c3                   	ret
   14000160d:	cc                   	int3
   14000160e:	cc                   	int3
   14000160f:	cc                   	int3
   140001610:	48 89 5c 24 08       	mov    %rbx,0x8(%rsp)
   140001615:	57                   	push   %rdi
   140001616:	48 83 ec 20          	sub    $0x20,%rsp
   14000161a:	48 8d 05 af 15 04 00 	lea    0x415af(%rip),%rax        # 0x140042bd0
   140001621:	48 8b f9             	mov    %rcx,%rdi
   140001624:	48 89 01             	mov    %rax,(%rcx)
   140001627:	8b da                	mov    %edx,%ebx
   140001629:	48 83 c1 08          	add    $0x8,%rcx
   14000162d:	e8 de bd 01 00       	call   0x14001d410
   140001632:	f6 c3 01             	test   $0x1,%bl
   140001635:	74 0d                	je     0x140001644
   140001637:	ba 28 00 00 00       	mov    $0x28,%edx
   14000163c:	48 8b cf             	mov    %rdi,%rcx
   14000163f:	e8 8c a3 01 00       	call   0x14001b9d0
   140001644:	48 8b 5c 24 30       	mov    0x30(%rsp),%rbx
   140001649:	48 8b c7             	mov    %rdi,%rax
   14000164c:	48 83 c4 20          	add    $0x20,%rsp
   140001650:	5f                   	pop    %rdi
   140001651:	c3                   	ret
   140001652:	cc                   	int3
   140001653:	cc                   	int3
   140001654:	cc                   	int3
   140001655:	cc                   	int3
   140001656:	cc                   	int3
   140001657:	cc                   	int3
   140001658:	cc                   	int3
   140001659:	cc                   	int3
   14000165a:	cc                   	int3
   14000165b:	cc                   	int3
   14000165c:	cc                   	int3
   14000165d:	cc                   	int3
   14000165e:	cc                   	int3
   14000165f:	cc                   	int3
   140001660:	48 89 5c 24 08       	mov    %rbx,0x8(%rsp)
   140001665:	57                   	push   %rdi
   140001666:	48 83 ec 20          	sub    $0x20,%rsp
   14000166a:	48 8b da             	mov    %rdx,%rbx
   14000166d:	48 8d 05 5c 15 04 00 	lea    0x4155c(%rip),%rax        # 0x140042bd0
   140001674:	48 89 01             	mov    %rax,(%rcx)
   140001677:	48 8d 51 08          	lea    0x8(%rcx),%rdx
   14000167b:	48 8b f9             	mov    %rcx,%rdi
   14000167e:	0f 57 c0             	xorps  %xmm0,%xmm0
   140001681:	0f 11 02             	movups %xmm0,(%rdx)
   140001684:	48 8d 4b 08          	lea    0x8(%rbx),%rcx
   140001688:	e8 fb bc 01 00       	call   0x14001d388
   14000168d:	48 8d 05 9c 15 04 00 	lea    0x4159c(%rip),%rax        # 0x140042c30
   140001694:	48 89 07             	mov    %rax,(%rdi)
   140001697:	48 8d 05 aa 15 04 00 	lea    0x415aa(%rip),%rax        # 0x140042c48
   14000169e:	0f 10 43 18          	movups 0x18(%rbx),%xmm0
   1400016a2:	48 8b 5c 24 30       	mov    0x30(%rsp),%rbx
   1400016a7:	48 89 07             	mov    %rax,(%rdi)
   1400016aa:	48 8b c7             	mov    %rdi,%rax
   1400016ad:	0f 11 47 18          	movups %xmm0,0x18(%rdi)
   1400016b1:	48 83 c4 20          	add    $0x20,%rsp
   1400016b5:	5f                   	pop    %rdi
   1400016b6:	c3                   	ret
   1400016b7:	cc                   	int3
   1400016b8:	cc                   	int3
   1400016b9:	cc                   	int3
   1400016ba:	cc                   	int3
   1400016bb:	cc                   	int3
   1400016bc:	cc                   	int3
   1400016bd:	cc                   	int3
   1400016be:	cc                   	int3
   1400016bf:	cc                   	int3
   1400016c0:	48 89 5c 24 08       	mov    %rbx,0x8(%rsp)
   1400016c5:	57                   	push   %rdi
   1400016c6:	48 83 ec 20          	sub    $0x20,%rsp
   1400016ca:	48 8b da             	mov    %rdx,%rbx
   1400016cd:	48 8d 05 fc 14 04 00 	lea    0x414fc(%rip),%rax        # 0x140042bd0
   1400016d4:	48 89 01             	mov    %rax,(%rcx)
   1400016d7:	48 8d 51 08          	lea    0x8(%rcx),%rdx
   1400016db:	48 8b f9             	mov    %rcx,%rdi
   1400016de:	0f 57 c0             	xorps  %xmm0,%xmm0
   1400016e1:	0f 11 02             	movups %xmm0,(%rdx)
   1400016e4:	48 8d 4b 08          	lea    0x8(%rbx),%rcx
   1400016e8:	e8 9b bc 01 00       	call   0x14001d388
   1400016ed:	48 8d 05 3c 15 04 00 	lea    0x4153c(%rip),%rax        # 0x140042c30
   1400016f4:	48 89 07             	mov    %rax,(%rdi)
   1400016f7:	48 8b c7             	mov    %rdi,%rax
   1400016fa:	0f 10 43 18          	movups 0x18(%rbx),%xmm0
   1400016fe:	48 8b 5c 24 30       	mov    0x30(%rsp),%rbx
   140001703:	0f 11 47 18          	movups %xmm0,0x18(%rdi)
   140001707:	48 83 c4 20          	add    $0x20,%rsp
   14000170b:	5f                   	pop    %rdi
   14000170c:	c3                   	ret
   14000170d:	cc                   	int3
   14000170e:	cc                   	int3
   14000170f:	cc                   	int3
   140001710:	48 8d 05 99 c8 04 00 	lea    0x4c899(%rip),%rax        # 0x14004dfb0
   140001717:	c3                   	ret
   140001718:	cc                   	int3
   140001719:	cc                   	int3
   14000171a:	cc                   	int3
   14000171b:	cc                   	int3
   14000171c:	cc                   	int3
   14000171d:	cc                   	int3
   14000171e:	cc                   	int3
   14000171f:	cc                   	int3
   140001720:	48 89 74 24 10       	mov    %rsi,0x10(%rsp)
   140001725:	57                   	push   %rdi
   140001726:	48 83 ec 30          	sub    $0x30,%rsp
   14000172a:	33 f6                	xor    %esi,%esi
   14000172c:	48 8b fa             	mov    %rdx,%rdi
   14000172f:	41 83 f8 01          	cmp    $0x1,%r8d
   140001733:	75 31                	jne    0x140001766
   140001735:	0f 57 c0             	xorps  %xmm0,%xmm0
   140001738:	41 b8 15 00 00 00    	mov    $0x15,%r8d
   14000173e:	0f 11 02             	movups %xmm0,(%rdx)
   140001741:	48 89 72 10          	mov    %rsi,0x10(%rdx)
   140001745:	48 8b cf             	mov    %rdi,%rcx
   140001748:	48 89 72 18          	mov    %rsi,0x18(%rdx)
   14000174c:	48 8d 15 d5 d6 04 00 	lea    0x4d6d5(%rip),%rdx        # 0x14004ee28
   140001753:	e8 28 a9 00 00       	call   0x14000c080
   140001758:	48 8b c7             	mov    %rdi,%rax
   14000175b:	48 8b 74 24 48       	mov    0x48(%rsp),%rsi
   140001760:	48 83 c4 30          	add    $0x30,%rsp
   140001764:	5f                   	pop    %rdi
   140001765:	c3                   	ret
   140001766:	41 8b c8             	mov    %r8d,%ecx
   140001769:	48 89 5c 24 40       	mov    %rbx,0x40(%rsp)
   14000176e:	e8 f5 92 01 00       	call   0x14001aa68
   140001773:	0f 57 c0             	xorps  %xmm0,%xmm0
   140001776:	48 8b c8             	mov    %rax,%rcx
   140001779:	0f 11 07             	movups %xmm0,(%rdi)
   14000177c:	48 89 77 10          	mov    %rsi,0x10(%rdi)
   140001780:	48 8b d8             	mov    %rax,%rbx
   140001783:	48 89 77 18          	mov    %rsi,0x18(%rdi)
   140001787:	e8 14 ca 03 00       	call   0x14003e1a0
   14000178c:	4c 8b c0             	mov    %rax,%r8
   14000178f:	48 8b d3             	mov    %rbx,%rdx
   140001792:	48 8b cf             	mov    %rdi,%rcx
   140001795:	e8 e6 a8 00 00       	call   0x14000c080
   14000179a:	48 8b 5c 24 40       	mov    0x40(%rsp),%rbx
   14000179f:	48 8b c7             	mov    %rdi,%rax
   1400017a2:	48 8b 74 24 48       	mov    0x48(%rsp),%rsi
   1400017a7:	48 83 c4 30          	add    $0x30,%rsp
   1400017ab:	5f                   	pop    %rdi
   1400017ac:	c3                   	ret
   1400017ad:	cc                   	int3
   1400017ae:	cc                   	int3
   1400017af:	cc                   	int3
   1400017b0:	40 53                	rex push %rbx
   1400017b2:	48 83 ec 20          	sub    $0x20,%rsp
   1400017b6:	48 8b d9             	mov    %rcx,%rbx
   1400017b9:	f6 c2 01             	test   $0x1,%dl
   1400017bc:	74 0a                	je     0x1400017c8
   1400017be:	ba 10 00 00 00       	mov    $0x10,%edx
   1400017c3:	e8 08 a2 01 00       	call   0x14001b9d0
   1400017c8:	48 8b c3             	mov    %rbx,%rax
   1400017cb:	48 83 c4 20          	add    $0x20,%rsp
   1400017cf:	5b                   	pop    %rbx
   1400017d0:	c3                   	ret
   1400017d1:	cc                   	int3
   1400017d2:	cc                   	int3
   1400017d3:	cc                   	int3
   1400017d4:	cc                   	int3
   1400017d5:	cc                   	int3
   1400017d6:	cc                   	int3
   1400017d7:	cc                   	int3
   1400017d8:	cc                   	int3
   1400017d9:	cc                   	int3
   1400017da:	cc                   	int3
   1400017db:	cc                   	int3
   1400017dc:	cc                   	int3
   1400017dd:	cc                   	int3
   1400017de:	cc                   	int3
   1400017df:	cc                   	int3
   1400017e0:	48 8d 05 d9 c7 04 00 	lea    0x4c7d9(%rip),%rax        # 0x14004dfc0
   1400017e7:	48 c7 41 10 00 00 00 	movq   $0x0,0x10(%rcx)
   1400017ee:	00 
   1400017ef:	48 89 41 08          	mov    %rax,0x8(%rcx)
   1400017f3:	48 8d 05 86 29 04 00 	lea    0x42986(%rip),%rax        # 0x140044180
   1400017fa:	48 89 01             	mov    %rax,(%rcx)
   1400017fd:	48 8b c1             	mov    %rcx,%rax
   140001800:	c3                   	ret
   140001801:	cc                   	int3
   140001802:	cc                   	int3
   140001803:	cc                   	int3
   140001804:	cc                   	int3
   140001805:	cc                   	int3
   140001806:	cc                   	int3
   140001807:	cc                   	int3
   140001808:	cc                   	int3
   140001809:	cc                   	int3
   14000180a:	cc                   	int3
   14000180b:	cc                   	int3
   14000180c:	cc                   	int3
   14000180d:	cc                   	int3
   14000180e:	cc                   	int3
   14000180f:	cc                   	int3
   140001810:	48 83 ec 48          	sub    $0x48,%rsp
   140001814:	48 8d 4c 24 20       	lea    0x20(%rsp),%rcx
   140001819:	e8 c2 ff ff ff       	call   0x1400017e0
   14000181e:	48 8d 15 83 46 05 00 	lea    0x54683(%rip),%rdx        # 0x140055ea8
   140001825:	48 8d 4c 24 20       	lea    0x20(%rsp),%rcx
   14000182a:	e8 a1 bf 01 00       	call   0x14001d7d0
   14000182f:	cc                   	int3
   140001830:	40 53                	rex push %rbx
   140001832:	48 83 ec 20          	sub    $0x20,%rsp
   140001836:	48 8b d9             	mov    %rcx,%rbx
   140001839:	48 8b c2             	mov    %rdx,%rax
   14000183c:	48 8d 0d 8d 13 04 00 	lea    0x4138d(%rip),%rcx        # 0x140042bd0
   140001843:	0f 57 c0             	xorps  %xmm0,%xmm0
   140001846:	48 8d 53 08          	lea    0x8(%rbx),%rdx
   14000184a:	48 89 0b             	mov    %rcx,(%rbx)
   14000184d:	48 8d 48 08          	lea    0x8(%rax),%rcx
   140001851:	0f 11 02             	movups %xmm0,(%rdx)
   140001854:	e8 2f bb 01 00       	call   0x14001d388
   140001859:	48 8d 05 20 29 04 00 	lea    0x42920(%rip),%rax        # 0x140044180
   140001860:	48 89 03             	mov    %rax,(%rbx)
   140001863:	48 8b c3             	mov    %rbx,%rax
   140001866:	48 83 c4 20          	add    $0x20,%rsp
   14000186a:	5b                   	pop    %rbx
   14000186b:	c3                   	ret
   14000186c:	cc                   	int3
   14000186d:	cc                   	int3
   14000186e:	cc                   	int3
   14000186f:	cc                   	int3
   140001870:	40 53                	rex push %rbx
   140001872:	48 83 ec 20          	sub    $0x20,%rsp
   140001876:	48 8d 05 13 1a 04 00 	lea    0x41a13(%rip),%rax        # 0x140043290
   14000187d:	48 8b d9             	mov    %rcx,%rbx
   140001880:	48 89 01             	mov    %rax,(%rcx)
   140001883:	f6 c2 01             	test   $0x1,%dl
   140001886:	74 0a                	je     0x140001892
   140001888:	ba 08 00 00 00       	mov    $0x8,%edx
   14000188d:	e8 3e a1 01 00       	call   0x14001b9d0
   140001892:	48 8b c3             	mov    %rbx,%rax
   140001895:	48 83 c4 20          	add    $0x20,%rsp
   140001899:	5b                   	pop    %rbx
   14000189a:	c3                   	ret
   14000189b:	cc                   	int3
   14000189c:	cc                   	int3
   14000189d:	cc                   	int3
   14000189e:	cc                   	int3
   14000189f:	cc                   	int3
   1400018a0:	48 89 5c 24 08       	mov    %rbx,0x8(%rsp)
   1400018a5:	57                   	push   %rdi
   1400018a6:	48 83 ec 20          	sub    $0x20,%rsp
   1400018aa:	48 8b d9             	mov    %rcx,%rbx
   1400018ad:	e8 d2 8e 01 00       	call   0x14001a784
   1400018b2:	48 8b 4b 58          	mov    0x58(%rbx),%rcx
   1400018b6:	48 85 c9             	test   %rcx,%rcx
   1400018b9:	74 05                	je     0x1400018c0
   1400018bb:	e8 00 33 02 00       	call   0x140024bc0
   1400018c0:	33 ff                	xor    %edi,%edi
   1400018c2:	48 89 7b 58          	mov    %rdi,0x58(%rbx)
   1400018c6:	48 8b 4b 48          	mov    0x48(%rbx),%rcx
   1400018ca:	48 85 c9             	test   %rcx,%rcx
   1400018cd:	74 05                	je     0x1400018d4
   1400018cf:	e8 ec 32 02 00       	call   0x140024bc0
   1400018d4:	48 89 7b 48          	mov    %rdi,0x48(%rbx)
   1400018d8:	48 8b 4b 38          	mov    0x38(%rbx),%rcx
   1400018dc:	48 85 c9             	test   %rcx,%rcx
   1400018df:	74 05                	je     0x1400018e6
   1400018e1:	e8 da 32 02 00       	call   0x140024bc0
   1400018e6:	48 89 7b 38          	mov    %rdi,0x38(%rbx)
   1400018ea:	48 8b 4b 28          	mov    0x28(%rbx),%rcx
   1400018ee:	48 85 c9             	test   %rcx,%rcx
   1400018f1:	74 05                	je     0x1400018f8
   1400018f3:	e8 c8 32 02 00       	call   0x140024bc0
   1400018f8:	48 89 7b 28          	mov    %rdi,0x28(%rbx)
   1400018fc:	48 8b 4b 18          	mov    0x18(%rbx),%rcx
   140001900:	48 85 c9             	test   %rcx,%rcx
   140001903:	74 05                	je     0x14000190a
   140001905:	e8 b6 32 02 00       	call   0x140024bc0
   14000190a:	48 89 7b 18          	mov    %rdi,0x18(%rbx)
   14000190e:	48 8b 4b 08          	mov    0x8(%rbx),%rcx
   140001912:	48 85 c9             	test   %rcx,%rcx
   140001915:	74 05                	je     0x14000191c
   140001917:	e8 a4 32 02 00       	call   0x140024bc0
   14000191c:	48 89 7b 08          	mov    %rdi,0x8(%rbx)
   140001920:	48 8b cb             	mov    %rbx,%rcx
   140001923:	48 8b 5c 24 30       	mov    0x30(%rsp),%rbx
   140001928:	48 83 c4 20          	add    $0x20,%rsp
   14000192c:	5f                   	pop    %rdi
   14000192d:	e9 86 85 01 00       	jmp    0x140019eb8
   140001932:	cc                   	int3
   140001933:	cc                   	int3
   140001934:	cc                   	int3
   140001935:	cc                   	int3
   140001936:	cc                   	int3
   140001937:	cc                   	int3
   140001938:	cc                   	int3
   140001939:	cc                   	int3
   14000193a:	cc                   	int3
   14000193b:	cc                   	int3
   14000193c:	cc                   	int3
   14000193d:	cc                   	int3
   14000193e:	cc                   	int3
   14000193f:	cc                   	int3
   140001940:	f0 ff 41 08          	lock incl 0x8(%rcx)
   140001944:	c3                   	ret
   140001945:	cc                   	int3
   140001946:	cc                   	int3
   140001947:	cc                   	int3
   140001948:	cc                   	int3
   140001949:	cc                   	int3
   14000194a:	cc                   	int3
   14000194b:	cc                   	int3
   14000194c:	cc                   	int3
   14000194d:	cc                   	int3
   14000194e:	cc                   	int3
   14000194f:	cc                   	int3
   140001950:	f0 83 41 08 ff       	lock addl $0xffffffff,0x8(%rcx)
   140001955:	b8 00 00 00 00       	mov    $0x0,%eax
   14000195a:	48 0f 44 c1          	cmove  %rcx,%rax
   14000195e:	c3                   	ret
   14000195f:	cc                   	int3
   140001960:	48 8d 05 29 19 04 00 	lea    0x41929(%rip),%rax        # 0x140043290
   140001967:	48 89 01             	mov    %rax,(%rcx)
   14000196a:	c3                   	ret
   14000196b:	cc                   	int3
   14000196c:	cc                   	int3
   14000196d:	cc                   	int3
   14000196e:	cc                   	int3
   14000196f:	cc                   	int3
   140001970:	48 83 ec 28          	sub    $0x28,%rsp
   140001974:	48 8b 49 08          	mov    0x8(%rcx),%rcx
   140001978:	48 85 c9             	test   %rcx,%rcx
   14000197b:	74 1d                	je     0x14000199a
   14000197d:	48 8b 01             	mov    (%rcx),%rax
   140001980:	ff 50 10             	call   *0x10(%rax)
   140001983:	48 85 c0             	test   %rax,%rax
   140001986:	74 12                	je     0x14000199a
   140001988:	4c 8b 00             	mov    (%rax),%r8
   14000198b:	ba 01 00 00 00       	mov    $0x1,%edx
   140001990:	48 8b c8             	mov    %rax,%rcx
   140001993:	48 83 c4 28          	add    $0x28,%rsp
   140001997:	49 ff 20             	rex.WB jmp *(%r8)
   14000199a:	48 83 c4 28          	add    $0x28,%rsp
   14000199e:	c3                   	ret
   14000199f:	cc                   	int3
   1400019a0:	48 89 5c 24 18       	mov    %rbx,0x18(%rsp)
   1400019a5:	48 89 74 24 20       	mov    %rsi,0x20(%rsp)
   1400019aa:	57                   	push   %rdi
   1400019ab:	48 83 ec 70          	sub    $0x70,%rsp
   1400019af:	48 8b 41 08          	mov    0x8(%rcx),%rax
   1400019b3:	33 f6                	xor    %esi,%esi
   1400019b5:	48 89 54 24 68       	mov    %rdx,0x68(%rsp)
   1400019ba:	48 8b fa             	mov    %rdx,%rdi
   1400019bd:	89 74 24 20          	mov    %esi,0x20(%rsp)
   1400019c1:	48 85 c0             	test   %rax,%rax
   1400019c4:	74 43                	je     0x140001a09
   1400019c6:	48 8b 58 28          	mov    0x28(%rax),%rbx
   1400019ca:	48 85 db             	test   %rbx,%rbx
   1400019cd:	75 04                	jne    0x1400019d3
   1400019cf:	48 8d 58 30          	lea    0x30(%rax),%rbx
   1400019d3:	0f 57 c0             	xorps  %xmm0,%xmm0
   1400019d6:	48 89 74 24 58       	mov    %rsi,0x58(%rsp)
   1400019db:	48 8b cb             	mov    %rbx,%rcx
   1400019de:	48 89 74 24 60       	mov    %rsi,0x60(%rsp)
   1400019e3:	0f 11 44 24 48       	movups %xmm0,0x48(%rsp)
   1400019e8:	e8 b3 c7 03 00       	call   0x14003e1a0
   1400019ed:	4c 8b c0             	mov    %rax,%r8
   1400019f0:	48 8d 4c 24 48       	lea    0x48(%rsp),%rcx
   1400019f5:	48 8b d3             	mov    %rbx,%rdx
   1400019f8:	e8 83 a6 00 00       	call   0x14000c080
   1400019fd:	48 8d 44 24 48       	lea    0x48(%rsp),%rax
   140001a02:	bb 05 00 00 00       	mov    $0x5,%ebx
   140001a07:	eb 25                	jmp    0x140001a2e
   140001a09:	0f 57 c0             	xorps  %xmm0,%xmm0
   140001a0c:	48 89 74 24 38       	mov    %rsi,0x38(%rsp)
   140001a11:	0f 11 44 24 28       	movups %xmm0,0x28(%rsp)
   140001a16:	40 88 74 24 28       	mov    %sil,0x28(%rsp)
   140001a1b:	48 8d 44 24 28       	lea    0x28(%rsp),%rax
   140001a20:	48 c7 44 24 40 0f 00 	movq   $0xf,0x40(%rsp)
   140001a27:	00 00 
   140001a29:	bb 06 00 00 00       	mov    $0x6,%ebx
   140001a2e:	0f 10 00             	movups (%rax),%xmm0
   140001a31:	0f 10 48 10          	movups 0x10(%rax),%xmm1
   140001a35:	48 89 70 10          	mov    %rsi,0x10(%rax)
   140001a39:	48 c7 40 18 0f 00 00 	movq   $0xf,0x18(%rax)
   140001a40:	00 
   140001a41:	40 88 30             	mov    %sil,(%rax)
   140001a44:	0f 11 07             	movups %xmm0,(%rdi)
   140001a47:	0f 11 4f 10          	movups %xmm1,0x10(%rdi)
   140001a4b:	f6 c3 02             	test   $0x2,%bl
   140001a4e:	74 3e                	je     0x140001a8e
   140001a50:	48 8b 54 24 40       	mov    0x40(%rsp),%rdx
   140001a55:	83 e3 fd             	and    $0xfffffffd,%ebx
   140001a58:	48 83 fa 0f          	cmp    $0xf,%rdx
   140001a5c:	76 30                	jbe    0x140001a8e
   140001a5e:	48 8b 44 24 28       	mov    0x28(%rsp),%rax
   140001a63:	48 ff c2             	inc    %rdx
   140001a66:	48 81 fa 00 10 00 00 	cmp    $0x1000,%rdx
   140001a6d:	72 17                	jb     0x140001a86
   140001a6f:	48 8b 48 f8          	mov    -0x8(%rax),%rcx
   140001a73:	48 2b c1             	sub    %rcx,%rax
   140001a76:	48 83 e8 08          	sub    $0x8,%rax
   140001a7a:	48 83 f8 1f          	cmp    $0x1f,%rax
   140001a7e:	77 46                	ja     0x140001ac6
   140001a80:	48 83 c2 27          	add    $0x27,%rdx
   140001a84:	eb 03                	jmp    0x140001a89
   140001a86:	48 8b c8             	mov    %rax,%rcx
   140001a89:	e8 42 9f 01 00       	call   0x14001b9d0
   140001a8e:	f6 c3 01             	test   $0x1,%bl
   140001a91:	74 42                	je     0x140001ad5
   140001a93:	48 8b 54 24 60       	mov    0x60(%rsp),%rdx
   140001a98:	48 83 fa 0f          	cmp    $0xf,%rdx
   140001a9c:	76 37                	jbe    0x140001ad5
   140001a9e:	48 8b 44 24 48       	mov    0x48(%rsp),%rax
   140001aa3:	48 ff c2             	inc    %rdx
   140001aa6:	48 81 fa 00 10 00 00 	cmp    $0x1000,%rdx
   140001aad:	72 1e                	jb     0x140001acd
   140001aaf:	48 8b 48 f8          	mov    -0x8(%rax),%rcx
   140001ab3:	48 2b c1             	sub    %rcx,%rax
   140001ab6:	48 83 e8 08          	sub    $0x8,%rax
   140001aba:	48 83 f8 1f          	cmp    $0x1f,%rax
   140001abe:	77 06                	ja     0x140001ac6
   140001ac0:	48 83 c2 27          	add    $0x27,%rdx
   140001ac4:	eb 0a                	jmp    0x140001ad0
   140001ac6:	b9 05 00 00 00       	mov    $0x5,%ecx
   140001acb:	cd 29                	int    $0x29
   140001acd:	48 8b c8             	mov    %rax,%rcx
   140001ad0:	e8 fb 9e 01 00       	call   0x14001b9d0
   140001ad5:	4c 8d 5c 24 70       	lea    0x70(%rsp),%r11
   140001ada:	48 8b c7             	mov    %rdi,%rax
   140001add:	49 8b 5b 20          	mov    0x20(%r11),%rbx
   140001ae1:	49 8b 73 28          	mov    0x28(%r11),%rsi
   140001ae5:	49 8b e3             	mov    %r11,%rsp
   140001ae8:	5f                   	pop    %rdi
   140001ae9:	c3                   	ret
   140001aea:	cc                   	int3
   140001aeb:	cc                   	int3
   140001aec:	cc                   	int3
   140001aed:	cc                   	int3
   140001aee:	cc                   	int3
   140001aef:	cc                   	int3
   140001af0:	b8 01 00 00 00       	mov    $0x1,%eax
   140001af5:	c3                   	ret
   140001af6:	cc                   	int3
   140001af7:	cc                   	int3
   140001af8:	cc                   	int3
   140001af9:	cc                   	int3
   140001afa:	cc                   	int3
   140001afb:	cc                   	int3
   140001afc:	cc                   	int3
   140001afd:	cc                   	int3
   140001afe:	cc                   	int3
   140001aff:	cc                   	int3
   140001b00:	48 89 5c 24 10       	mov    %rbx,0x10(%rsp)
   140001b05:	48 89 74 24 18       	mov    %rsi,0x18(%rsp)
   140001b0a:	55                   	push   %rbp
   140001b0b:	57                   	push   %rdi
   140001b0c:	41 56                	push   %r14
   140001b0e:	48 8d 6c 24 b9       	lea    -0x47(%rsp),%rbp
   140001b13:	48 81 ec b0 00 00 00 	sub    $0xb0,%rsp
   140001b1a:	48 8b da             	mov    %rdx,%rbx
   140001b1d:	48 8b f9             	mov    %rcx,%rdi
   140001b20:	45 33 f6             	xor    %r14d,%r14d
   140001b23:	48 85 c9             	test   %rcx,%rcx
   140001b26:	0f 84 35 01 00 00    	je     0x140001c61
   140001b2c:	4c 39 31             	cmp    %r14,(%rcx)
   140001b2f:	0f 85 2c 01 00 00    	jne    0x140001c61
   140001b35:	b9 30 00 00 00       	mov    $0x30,%ecx
   140001b3a:	e8 a9 9e 01 00       	call   0x14001b9e8
   140001b3f:	48 8b f0             	mov    %rax,%rsi
   140001b42:	48 89 45 67          	mov    %rax,0x67(%rbp)
   140001b46:	48 8b 4b 08          	mov    0x8(%rbx),%rcx
   140001b4a:	48 85 c9             	test   %rcx,%rcx
   140001b4d:	74 0f                	je     0x140001b5e
   140001b4f:	48 8b 59 28          	mov    0x28(%rcx),%rbx
   140001b53:	48 85 db             	test   %rbx,%rbx
   140001b56:	75 0d                	jne    0x140001b65
   140001b58:	48 8d 59 30          	lea    0x30(%rcx),%rbx
   140001b5c:	eb 07                	jmp    0x140001b65
   140001b5e:	48 8d 1d 88 c4 04 00 	lea    0x4c488(%rip),%rbx        # 0x14004dfed
   140001b65:	33 d2                	xor    %edx,%edx
   140001b67:	48 8d 4d b7          	lea    -0x49(%rbp),%rcx
   140001b6b:	e8 d0 82 01 00       	call   0x140019e40
   140001b70:	90                   	nop
   140001b71:	4c 89 75 bf          	mov    %r14,-0x41(%rbp)
   140001b75:	c6 45 c7 00          	movb   $0x0,-0x39(%rbp)
   140001b79:	4c 89 75 cf          	mov    %r14,-0x31(%rbp)
   140001b7d:	c6 45 d7 00          	movb   $0x0,-0x29(%rbp)
   140001b81:	4c 89 75 df          	mov    %r14,-0x21(%rbp)
   140001b85:	66 44 89 75 e7       	mov    %r14w,-0x19(%rbp)
   140001b8a:	4c 89 75 ef          	mov    %r14,-0x11(%rbp)
   140001b8e:	66 44 89 75 f7       	mov    %r14w,-0x9(%rbp)
   140001b93:	4c 89 75 ff          	mov    %r14,-0x1(%rbp)
   140001b97:	c6 45 07 00          	movb   $0x0,0x7(%rbp)
   140001b9b:	4c 89 75 0f          	mov    %r14,0xf(%rbp)
   140001b9f:	c6 45 17 00          	movb   $0x0,0x17(%rbp)
   140001ba3:	48 85 db             	test   %rbx,%rbx
   140001ba6:	0f 84 d2 00 00 00    	je     0x140001c7e
   140001bac:	48 8b d3             	mov    %rbx,%rdx
   140001baf:	48 8d 4d b7          	lea    -0x49(%rbp),%rcx
   140001bb3:	e8 60 8b 01 00       	call   0x14001a718
   140001bb8:	90                   	nop
   140001bb9:	44 89 76 08          	mov    %r14d,0x8(%rsi)
   140001bbd:	48 8d 05 d4 25 04 00 	lea    0x425d4(%rip),%rax        # 0x140044198
   140001bc4:	48 89 06             	mov    %rax,(%rsi)
   140001bc7:	48 8d 4d 1f          	lea    0x1f(%rbp),%rcx
   140001bcb:	e8 c0 8e 01 00       	call   0x14001aa90
   140001bd0:	0f 10 00             	movups (%rax),%xmm0
   140001bd3:	0f 10 48 10          	movups 0x10(%rax),%xmm1
   140001bd7:	0f 11 46 10          	movups %xmm0,0x10(%rsi)
   140001bdb:	0f 11 4e 20          	movups %xmm1,0x20(%rsi)
   140001bdf:	48 89 37             	mov    %rsi,(%rdi)
   140001be2:	48 8d 4d b7          	lea    -0x49(%rbp),%rcx
   140001be6:	e8 99 8b 01 00       	call   0x14001a784
   140001beb:	48 8b 4d 0f          	mov    0xf(%rbp),%rcx
   140001bef:	48 85 c9             	test   %rcx,%rcx
   140001bf2:	74 05                	je     0x140001bf9
   140001bf4:	e8 c7 2f 02 00       	call   0x140024bc0
   140001bf9:	4c 89 75 0f          	mov    %r14,0xf(%rbp)
   140001bfd:	48 8b 4d ff          	mov    -0x1(%rbp),%rcx
   140001c01:	48 85 c9             	test   %rcx,%rcx
   140001c04:	74 05                	je     0x140001c0b
   140001c06:	e8 b5 2f 02 00       	call   0x140024bc0
   140001c0b:	4c 89 75 ff          	mov    %r14,-0x1(%rbp)
   140001c0f:	48 8b 4d ef          	mov    -0x11(%rbp),%rcx
   140001c13:	48 85 c9             	test   %rcx,%rcx
   140001c16:	74 05                	je     0x140001c1d
   140001c18:	e8 a3 2f 02 00       	call   0x140024bc0
   140001c1d:	4c 89 75 ef          	mov    %r14,-0x11(%rbp)
   140001c21:	48 8b 4d df          	mov    -0x21(%rbp),%rcx
   140001c25:	48 85 c9             	test   %rcx,%rcx
   140001c28:	74 05                	je     0x140001c2f
   140001c2a:	e8 91 2f 02 00       	call   0x140024bc0
   140001c2f:	4c 89 75 df          	mov    %r14,-0x21(%rbp)
   140001c33:	48 8b 4d cf          	mov    -0x31(%rbp),%rcx
   140001c37:	48 85 c9             	test   %rcx,%rcx
   140001c3a:	74 05                	je     0x140001c41
   140001c3c:	e8 7f 2f 02 00       	call   0x140024bc0
   140001c41:	4c 89 75 cf          	mov    %r14,-0x31(%rbp)
   140001c45:	48 8b 4d bf          	mov    -0x41(%rbp),%rcx
   140001c49:	48 85 c9             	test   %rcx,%rcx
   140001c4c:	74 05                	je     0x140001c53
   140001c4e:	e8 6d 2f 02 00       	call   0x140024bc0
   140001c53:	4c 89 75 bf          	mov    %r14,-0x41(%rbp)
   140001c57:	48 8d 4d b7          	lea    -0x49(%rbp),%rcx
   140001c5b:	e8 58 82 01 00       	call   0x140019eb8
   140001c60:	90                   	nop
   140001c61:	b8 02 00 00 00       	mov    $0x2,%eax
   140001c66:	4c 8d 9c 24 b0 00 00 	lea    0xb0(%rsp),%r11
   140001c6d:	00 
   140001c6e:	49 8b 5b 28          	mov    0x28(%r11),%rbx
   140001c72:	49 8b 73 30          	mov    0x30(%r11),%rsi
   140001c76:	49 8b e3             	mov    %r11,%rsp
   140001c79:	41 5e                	pop    %r14
   140001c7b:	5f                   	pop    %rdi
   140001c7c:	5d                   	pop    %rbp
   140001c7d:	c3                   	ret
   140001c7e:	48 8d 0d 4b c3 04 00 	lea    0x4c34b(%rip),%rcx        # 0x14004dfd0
   140001c85:	e8 2a 88 01 00       	call   0x14001a4b4
   140001c8a:	cc                   	int3
   140001c8b:	cc                   	int3
   140001c8c:	cc                   	int3
   140001c8d:	cc                   	int3
   140001c8e:	cc                   	int3
   140001c8f:	cc                   	int3
   140001c90:	0f b6 c2             	movzbl %dl,%eax
   140001c93:	48 8d 51 10          	lea    0x10(%rcx),%rdx
   140001c97:	8b c8                	mov    %eax,%ecx
   140001c99:	e9 ba 8e 01 00       	jmp    0x14001ab58
   140001c9e:	cc                   	int3
   140001c9f:	cc                   	int3
   140001ca0:	48 89 5c 24 20       	mov    %rbx,0x20(%rsp)
   140001ca5:	56                   	push   %rsi
   140001ca6:	48 83 ec 20          	sub    $0x20,%rsp
   140001caa:	49 8b f0             	mov    %r8,%rsi
   140001cad:	48 8b da             	mov    %rdx,%rbx
   140001cb0:	49 3b d0             	cmp    %r8,%rdx
   140001cb3:	74 25                	je     0x140001cda
   140001cb5:	48 89 7c 24 40       	mov    %rdi,0x40(%rsp)
   140001cba:	48 8d 79 10          	lea    0x10(%rcx),%rdi
   140001cbe:	66 90                	xchg   %ax,%ax
   140001cc0:	0f b6 0b             	movzbl (%rbx),%ecx
   140001cc3:	48 8b d7             	mov    %rdi,%rdx
   140001cc6:	e8 8d 8e 01 00       	call   0x14001ab58
   140001ccb:	88 03                	mov    %al,(%rbx)
   140001ccd:	48 ff c3             	inc    %rbx
   140001cd0:	48 3b de             	cmp    %rsi,%rbx
   140001cd3:	75 eb                	jne    0x140001cc0
   140001cd5:	48 8b 7c 24 40       	mov    0x40(%rsp),%rdi
   140001cda:	48 8b c3             	mov    %rbx,%rax
   140001cdd:	48 8b 5c 24 48       	mov    0x48(%rsp),%rbx
   140001ce2:	48 83 c4 20          	add    $0x20,%rsp
   140001ce6:	5e                   	pop    %rsi
   140001ce7:	c3                   	ret
   140001ce8:	cc                   	int3
   140001ce9:	cc                   	int3
   140001cea:	cc                   	int3
   140001ceb:	cc                   	int3
   140001cec:	cc                   	int3
   140001ced:	cc                   	int3
   140001cee:	cc                   	int3
   140001cef:	cc                   	int3
   140001cf0:	0f b6 c2             	movzbl %dl,%eax
   140001cf3:	48 8d 51 10          	lea    0x10(%rcx),%rdx
   140001cf7:	8b c8                	mov    %eax,%ecx
   140001cf9:	e9 16 92 01 00       	jmp    0x14001af14
   140001cfe:	cc                   	int3
   140001cff:	cc                   	int3
   140001d00:	48 89 5c 24 20       	mov    %rbx,0x20(%rsp)
   140001d05:	56                   	push   %rsi
   140001d06:	48 83 ec 20          	sub    $0x20,%rsp
   140001d0a:	49 8b f0             	mov    %r8,%rsi
   140001d0d:	48 8b da             	mov    %rdx,%rbx
   140001d10:	49 3b d0             	cmp    %r8,%rdx
   140001d13:	74 25                	je     0x140001d3a
   140001d15:	48 89 7c 24 40       	mov    %rdi,0x40(%rsp)
   140001d1a:	48 8d 79 10          	lea    0x10(%rcx),%rdi
   140001d1e:	66 90                	xchg   %ax,%ax
   140001d20:	0f b6 0b             	movzbl (%rbx),%ecx
   140001d23:	48 8b d7             	mov    %rdi,%rdx
   140001d26:	e8 e9 91 01 00       	call   0x14001af14
   140001d2b:	88 03                	mov    %al,(%rbx)
   140001d2d:	48 ff c3             	inc    %rbx
   140001d30:	48 3b de             	cmp    %rsi,%rbx
   140001d33:	75 eb                	jne    0x140001d20
   140001d35:	48 8b 7c 24 40       	mov    0x40(%rsp),%rdi
   140001d3a:	48 8b c3             	mov    %rbx,%rax
   140001d3d:	48 8b 5c 24 48       	mov    0x48(%rsp),%rbx
   140001d42:	48 83 c4 20          	add    $0x20,%rsp
   140001d46:	5e                   	pop    %rsi
   140001d47:	c3                   	ret
   140001d48:	cc                   	int3
   140001d49:	cc                   	int3
   140001d4a:	cc                   	int3
   140001d4b:	cc                   	int3
   140001d4c:	cc                   	int3
   140001d4d:	cc                   	int3
   140001d4e:	cc                   	int3
   140001d4f:	cc                   	int3
   140001d50:	0f b6 c2             	movzbl %dl,%eax
   140001d53:	c3                   	ret
   140001d54:	cc                   	int3
   140001d55:	cc                   	int3
   140001d56:	cc                   	int3
   140001d57:	cc                   	int3
   140001d58:	cc                   	int3
   140001d59:	cc                   	int3
   140001d5a:	cc                   	int3
   140001d5b:	cc                   	int3
   140001d5c:	cc                   	int3
   140001d5d:	cc                   	int3
   140001d5e:	cc                   	int3
   140001d5f:	cc                   	int3
   140001d60:	40 53                	rex push %rbx
   140001d62:	48 83 ec 20          	sub    $0x20,%rsp
   140001d66:	49 8b d8             	mov    %r8,%rbx
   140001d69:	49 8b c9             	mov    %r9,%rcx
   140001d6c:	4c 2b c2             	sub    %rdx,%r8
   140001d6f:	e8 5c b8 03 00       	call   0x14003d5d0
   140001d74:	48 8b c3             	mov    %rbx,%rax
   140001d77:	48 83 c4 20          	add    $0x20,%rsp
   140001d7b:	5b                   	pop    %rbx
   140001d7c:	c3                   	ret
   140001d7d:	cc                   	int3
   140001d7e:	cc                   	int3
   140001d7f:	cc                   	int3
   140001d80:	40 53                	rex push %rbx
   140001d82:	48 83 ec 20          	sub    $0x20,%rsp
   140001d86:	48 8b 4c 24 50       	mov    0x50(%rsp),%rcx
   140001d8b:	49 8b d8             	mov    %r8,%rbx
   140001d8e:	4c 2b c2             	sub    %rdx,%r8
   140001d91:	e8 3a b8 03 00       	call   0x14003d5d0
   140001d96:	48 8b c3             	mov    %rbx,%rax
   140001d99:	48 83 c4 20          	add    $0x20,%rsp
   140001d9d:	5b                   	pop    %rbx
   140001d9e:	c3                   	ret
   140001d9f:	cc                   	int3
   140001da0:	48 89 5c 24 08       	mov    %rbx,0x8(%rsp)
   140001da5:	57                   	push   %rdi
   140001da6:	48 83 ec 20          	sub    $0x20,%rsp
   140001daa:	48 8d 05 e7 23 04 00 	lea    0x423e7(%rip),%rax        # 0x140044198
   140001db1:	8b fa                	mov    %edx,%edi
   140001db3:	48 89 01             	mov    %rax,(%rcx)
   140001db6:	48 8b d9             	mov    %rcx,%rbx
   140001db9:	8b 41 20             	mov    0x20(%rcx),%eax
   140001dbc:	85 c0                	test   %eax,%eax
   140001dbe:	7e 0b                	jle    0x140001dcb
   140001dc0:	48 8b 49 18          	mov    0x18(%rcx),%rcx
   140001dc4:	e8 f7 2d 02 00       	call   0x140024bc0
   140001dc9:	eb 0b                	jmp    0x140001dd6
   140001dcb:	79 09                	jns    0x140001dd6
   140001dcd:	48 8b 49 18          	mov    0x18(%rcx),%rcx
   140001dd1:	e8 fa 9b 01 00       	call   0x14001b9d0
   140001dd6:	48 8b 4b 28          	mov    0x28(%rbx),%rcx
   140001dda:	e8 e1 2d 02 00       	call   0x140024bc0
   140001ddf:	48 8d 05 aa 14 04 00 	lea    0x414aa(%rip),%rax        # 0x140043290
   140001de6:	48 89 03             	mov    %rax,(%rbx)
   140001de9:	40 f6 c7 01          	test   $0x1,%dil
   140001ded:	74 0d                	je     0x140001dfc
   140001def:	ba 30 00 00 00       	mov    $0x30,%edx
   140001df4:	48 8b cb             	mov    %rbx,%rcx
   140001df7:	e8 d4 9b 01 00       	call   0x14001b9d0
   140001dfc:	48 8b c3             	mov    %rbx,%rax
   140001dff:	48 8b 5c 24 30       	mov    0x30(%rsp),%rbx
   140001e04:	48 83 c4 20          	add    $0x20,%rsp
   140001e08:	5f                   	pop    %rdi
   140001e09:	c3                   	ret
   140001e0a:	cc                   	int3
   140001e0b:	cc                   	int3
   140001e0c:	cc                   	int3
   140001e0d:	cc                   	int3
   140001e0e:	cc                   	int3
   140001e0f:	cc                   	int3
   140001e10:	48 89 5c 24 20       	mov    %rbx,0x20(%rsp)
   140001e15:	57                   	push   %rdi
   140001e16:	48 83 ec 60          	sub    $0x60,%rsp
   140001e1a:	0f 29 74 24 50       	movaps %xmm6,0x50(%rsp)
   140001e1f:	48 8b da             	mov    %rdx,%rbx
   140001e22:	48 8b f9             	mov    %rcx,%rdi
   140001e25:	48 89 4c 24 40       	mov    %rcx,0x40(%rsp)
   140001e2a:	41 0f 10 30          	movups (%r8),%xmm6
   140001e2e:	0f 57 c0             	xorps  %xmm0,%xmm0
   140001e31:	0f 11 44 24 20       	movups %xmm0,0x20(%rsp)
   140001e36:	33 c0                	xor    %eax,%eax
   140001e38:	48 89 44 24 30       	mov    %rax,0x30(%rsp)
   140001e3d:	48 89 44 24 38       	mov    %rax,0x38(%rsp)
   140001e42:	48 8b ca             	mov    %rdx,%rcx
   140001e45:	e8 56 c3 03 00       	call   0x14003e1a0
   140001e4a:	4c 8b c0             	mov    %rax,%r8
   140001e4d:	48 8b d3             	mov    %rbx,%rdx
   140001e50:	48 8d 4c 24 20       	lea    0x20(%rsp),%rcx
   140001e55:	e8 26 a2 00 00       	call   0x14000c080
   140001e5a:	90                   	nop
   140001e5b:	66 0f 7f 74 24 40    	movdqa %xmm6,0x40(%rsp)
   140001e61:	4c 8d 44 24 20       	lea    0x20(%rsp),%r8
   140001e66:	48 8d 54 24 40       	lea    0x40(%rsp),%rdx
   140001e6b:	48 8b cf             	mov    %rdi,%rcx
   140001e6e:	e8 dd f5 ff ff       	call   0x140001450
   140001e73:	90                   	nop
   140001e74:	48 8b 54 24 38       	mov    0x38(%rsp),%rdx
   140001e79:	48 83 fa 0f          	cmp    $0xf,%rdx
   140001e7d:	76 37                	jbe    0x140001eb6
   140001e7f:	48 8b 44 24 20       	mov    0x20(%rsp),%rax
   140001e84:	48 ff c2             	inc    %rdx
   140001e87:	48 81 fa 00 10 00 00 	cmp    $0x1000,%rdx
   140001e8e:	72 1e                	jb     0x140001eae
   140001e90:	48 8b 48 f8          	mov    -0x8(%rax),%rcx
   140001e94:	48 2b c1             	sub    %rcx,%rax
   140001e97:	48 83 e8 08          	sub    $0x8,%rax
   140001e9b:	48 83 f8 1f          	cmp    $0x1f,%rax
   140001e9f:	77 06                	ja     0x140001ea7
   140001ea1:	48 83 c2 27          	add    $0x27,%rdx
   140001ea5:	eb 0a                	jmp    0x140001eb1
   140001ea7:	b9 05 00 00 00       	mov    $0x5,%ecx
   140001eac:	cd 29                	int    $0x29
   140001eae:	48 8b c8             	mov    %rax,%rcx
   140001eb1:	e8 1a 9b 01 00       	call   0x14001b9d0
   140001eb6:	48 8d 05 7b 25 04 00 	lea    0x4257b(%rip),%rax        # 0x140044438
   140001ebd:	48 89 07             	mov    %rax,(%rdi)
   140001ec0:	48 8b c7             	mov    %rdi,%rax
   140001ec3:	48 8b 9c 24 88 00 00 	mov    0x88(%rsp),%rbx
   140001eca:	00 
   140001ecb:	0f 28 74 24 50       	movaps 0x50(%rsp),%xmm6
   140001ed0:	48 83 c4 60          	add    $0x60,%rsp
   140001ed4:	5f                   	pop    %rdi
   140001ed5:	c3                   	ret
   140001ed6:	cc                   	int3
   140001ed7:	cc                   	int3
   140001ed8:	cc                   	int3
   140001ed9:	cc                   	int3
   140001eda:	cc                   	int3
   140001edb:	cc                   	int3
   140001edc:	cc                   	int3
   140001edd:	cc                   	int3
   140001ede:	cc                   	int3
   140001edf:	cc                   	int3
   140001ee0:	48 89 5c 24 08       	mov    %rbx,0x8(%rsp)
   140001ee5:	57                   	push   %rdi
   140001ee6:	48 83 ec 20          	sub    $0x20,%rsp
   140001eea:	48 8b da             	mov    %rdx,%rbx
   140001eed:	48 8d 05 dc 0c 04 00 	lea    0x40cdc(%rip),%rax        # 0x140042bd0
   140001ef4:	48 89 01             	mov    %rax,(%rcx)
   140001ef7:	48 8d 51 08          	lea    0x8(%rcx),%rdx
   140001efb:	48 8b f9             	mov    %rcx,%rdi
   140001efe:	0f 57 c0             	xorps  %xmm0,%xmm0
   140001f01:	0f 11 02             	movups %xmm0,(%rdx)
   140001f04:	48 8d 4b 08          	lea    0x8(%rbx),%rcx
   140001f08:	e8 7b b4 01 00       	call   0x14001d388
   140001f0d:	48 8d 05 1c 0d 04 00 	lea    0x40d1c(%rip),%rax        # 0x140042c30
   140001f14:	48 89 07             	mov    %rax,(%rdi)
   140001f17:	48 8d 05 1a 25 04 00 	lea    0x4251a(%rip),%rax        # 0x140044438
   140001f1e:	0f 10 43 18          	movups 0x18(%rbx),%xmm0
   140001f22:	48 8b 5c 24 30       	mov    0x30(%rsp),%rbx
   140001f27:	48 89 07             	mov    %rax,(%rdi)
   140001f2a:	48 8b c7             	mov    %rdi,%rax
   140001f2d:	0f 11 47 18          	movups %xmm0,0x18(%rdi)
   140001f31:	48 83 c4 20          	add    $0x20,%rsp
   140001f35:	5f                   	pop    %rdi
   140001f36:	c3                   	ret
   140001f37:	cc                   	int3
   140001f38:	cc                   	int3
   140001f39:	cc                   	int3
   140001f3a:	cc                   	int3
   140001f3b:	cc                   	int3
   140001f3c:	cc                   	int3
   140001f3d:	cc                   	int3
   140001f3e:	cc                   	int3
   140001f3f:	cc                   	int3
   140001f40:	48 89 5c 24 08       	mov    %rbx,0x8(%rsp)
   140001f45:	57                   	push   %rdi
   140001f46:	48 83 ec 20          	sub    $0x20,%rsp
   140001f4a:	8b da                	mov    %edx,%ebx
   140001f4c:	48 8b f9             	mov    %rcx,%rdi
   140001f4f:	48 8d 05 d2 cb 04 00 	lea    0x4cbd2(%rip),%rax        # 0x14004eb28
   140001f56:	48 89 01             	mov    %rax,(%rcx)
   140001f59:	e8 5a 89 01 00       	call   0x14001a8b8
   140001f5e:	90                   	nop
   140001f5f:	f6 c3 01             	test   $0x1,%bl
   140001f62:	74 0d                	je     0x140001f71
   140001f64:	ba 48 00 00 00       	mov    $0x48,%edx
   140001f69:	48 8b cf             	mov    %rdi,%rcx
   140001f6c:	e8 5f 9a 01 00       	call   0x14001b9d0
   140001f71:	48 8b c7             	mov    %rdi,%rax
   140001f74:	48 8b 5c 24 30       	mov    0x30(%rsp),%rbx
   140001f79:	48 83 c4 20          	add    $0x20,%rsp
   140001f7d:	5f                   	pop    %rdi
   140001f7e:	c3                   	ret
   140001f7f:	cc                   	int3
   140001f80:	48 83 ec 28          	sub    $0x28,%rsp
   140001f84:	83 79 08 00          	cmpl   $0x0,0x8(%rcx)
   140001f88:	75 05                	jne    0x140001f8f
   140001f8a:	48 83 c4 28          	add    $0x28,%rsp
   140001f8e:	c3                   	ret
   140001f8f:	e8 b4 22 02 00       	call   0x140024248
   140001f94:	cc                   	int3
   140001f95:	cc                   	int3
   140001f96:	cc                   	int3
   140001f97:	cc                   	int3
   140001f98:	cc                   	int3
   140001f99:	cc                   	int3
   140001f9a:	cc                   	int3
   140001f9b:	cc                   	int3
   140001f9c:	cc                   	int3
   140001f9d:	cc                   	int3
   140001f9e:	cc                   	int3
   140001f9f:	cc                   	int3
   140001fa0:	40 53                	rex push %rbx
   140001fa2:	48 83 ec 20          	sub    $0x20,%rsp
   140001fa6:	48 8d 05 73 ce 04 00 	lea    0x4ce73(%rip),%rax        # 0x14004ee20
   140001fad:	48 8b d9             	mov    %rcx,%rbx
   140001fb0:	48 89 01             	mov    %rax,(%rcx)
   140001fb3:	f6 c2 01             	test   $0x1,%dl
   140001fb6:	74 0a                	je     0x140001fc2
   140001fb8:	ba 20 00 00 00       	mov    $0x20,%edx
   140001fbd:	e8 0e 9a 01 00       	call   0x14001b9d0
   140001fc2:	48 8b c3             	mov    %rbx,%rax
   140001fc5:	48 83 c4 20          	add    $0x20,%rsp
   140001fc9:	5b                   	pop    %rbx
   140001fca:	c3                   	ret
   140001fcb:	cc                   	int3
   140001fcc:	cc                   	int3
   140001fcd:	cc                   	int3
   140001fce:	cc                   	int3
   140001fcf:	cc                   	int3
   140001fd0:	40 53                	rex push %rbx
   140001fd2:	48 83 ec 20          	sub    $0x20,%rsp
   140001fd6:	48 8d 05 43 ce 04 00 	lea    0x4ce43(%rip),%rax        # 0x14004ee20
   140001fdd:	48 8b d9             	mov    %rcx,%rbx
   140001fe0:	48 89 01             	mov    %rax,(%rcx)
   140001fe3:	f6 c2 01             	test   $0x1,%dl
   140001fe6:	74 0a                	je     0x140001ff2
   140001fe8:	ba 30 00 00 00       	mov    $0x30,%edx
   140001fed:	e8 de 99 01 00       	call   0x14001b9d0
   140001ff2:	48 8b c3             	mov    %rbx,%rax
   140001ff5:	48 83 c4 20          	add    $0x20,%rsp
   140001ff9:	5b                   	pop    %rbx
   140001ffa:	c3                   	ret
   140001ffb:	cc                   	int3
   140001ffc:	cc                   	int3
   140001ffd:	cc                   	int3
   140001ffe:	cc                   	int3
   140001fff:	cc                   	int3
   140002000:	40 53                	rex push %rbx
   140002002:	48 83 ec 20          	sub    $0x20,%rsp
   140002006:	48 8d 05 13 ce 04 00 	lea    0x4ce13(%rip),%rax        # 0x14004ee20
   14000200d:	48 8b d9             	mov    %rcx,%rbx
   140002010:	48 89 01             	mov    %rax,(%rcx)
   140002013:	f6 c2 01             	test   $0x1,%dl
   140002016:	74 0a                	je     0x140002022
   140002018:	ba 28 00 00 00       	mov    $0x28,%edx
   14000201d:	e8 ae 99 01 00       	call   0x14001b9d0
   140002022:	48 8b c3             	mov    %rbx,%rax
   140002025:	48 83 c4 20          	add    $0x20,%rsp
   140002029:	5b                   	pop    %rbx
   14000202a:	c3                   	ret
   14000202b:	cc                   	int3
   14000202c:	cc                   	int3
   14000202d:	cc                   	int3
   14000202e:	cc                   	int3
   14000202f:	cc                   	int3
   140002030:	40 57                	rex push %rdi
   140002032:	48 83 ec 20          	sub    $0x20,%rsp
   140002036:	48 89 5c 24 30       	mov    %rbx,0x30(%rsp)
   14000203b:	48 8d 05 46 c9 04 00 	lea    0x4c946(%rip),%rax        # 0x14004e988
   140002042:	48 8b 59 20          	mov    0x20(%rcx),%rbx
   140002046:	48 8b f9             	mov    %rcx,%rdi
   140002049:	48 89 74 24 40       	mov    %rsi,0x40(%rsp)
   14000204e:	8b f2                	mov    %edx,%esi
   140002050:	48 89 01             	mov    %rax,(%rcx)
   140002053:	48 85 db             	test   %rbx,%rbx
   140002056:	74 29                	je     0x140002081
   140002058:	48 89 6c 24 38       	mov    %rbp,0x38(%rsp)
   14000205d:	33 ed                	xor    %ebp,%ebp
   14000205f:	90                   	nop
   140002060:	48 8d 43 10          	lea    0x10(%rbx),%rax
   140002064:	48 8b cb             	mov    %rbx,%rcx
   140002067:	48 8b 18             	mov    (%rax),%rbx
   14000206a:	ba 01 00 00 00       	mov    $0x1,%edx
   14000206f:	48 89 28             	mov    %rbp,(%rax)
   140002072:	48 8b 01             	mov    (%rcx),%rax
   140002075:	ff 10                	call   *(%rax)
   140002077:	48 85 db             	test   %rbx,%rbx
   14000207a:	75 e4                	jne    0x140002060
   14000207c:	48 8b 6c 24 38       	mov    0x38(%rsp),%rbp
   140002081:	48 8b 5c 24 30       	mov    0x30(%rsp),%rbx
   140002086:	48 8d 05 93 cd 04 00 	lea    0x4cd93(%rip),%rax        # 0x14004ee20
   14000208d:	40 f6 c6 01          	test   $0x1,%sil
   140002091:	48 89 07             	mov    %rax,(%rdi)
   140002094:	48 8b 74 24 40       	mov    0x40(%rsp),%rsi
   140002099:	74 0d                	je     0x1400020a8
   14000209b:	ba 28 00 00 00       	mov    $0x28,%edx
   1400020a0:	48 8b cf             	mov    %rdi,%rcx
   1400020a3:	e8 28 99 01 00       	call   0x14001b9d0
   1400020a8:	48 8b c7             	mov    %rdi,%rax
   1400020ab:	48 83 c4 20          	add    $0x20,%rsp
   1400020af:	5f                   	pop    %rdi
   1400020b0:	c3                   	ret
   1400020b1:	cc                   	int3
   1400020b2:	cc                   	int3
   1400020b3:	cc                   	int3
   1400020b4:	cc                   	int3
   1400020b5:	cc                   	int3
   1400020b6:	cc                   	int3
   1400020b7:	cc                   	int3
   1400020b8:	cc                   	int3
   1400020b9:	cc                   	int3
   1400020ba:	cc                   	int3
   1400020bb:	cc                   	int3
   1400020bc:	cc                   	int3
   1400020bd:	cc                   	int3
   1400020be:	cc                   	int3
   1400020bf:	cc                   	int3
   1400020c0:	41 56                	push   %r14
   1400020c2:	48 83 ec 30          	sub    $0x30,%rsp
   1400020c6:	48 89 6c 24 48       	mov    %rbp,0x48(%rsp)
   1400020cb:	48 8d 05 2e cb 04 00 	lea    0x4cb2e(%rip),%rax        # 0x14004ec00
   1400020d2:	48 89 74 24 50       	mov    %rsi,0x50(%rsp)
   1400020d7:	8b ea                	mov    %edx,%ebp
   1400020d9:	48 8b 71 28          	mov    0x28(%rcx),%rsi
   1400020dd:	4c 8b f1             	mov    %rcx,%r14
   1400020e0:	48 89 01             	mov    %rax,(%rcx)
   1400020e3:	48 85 f6             	test   %rsi,%rsi
   1400020e6:	74 63                	je     0x14000214b
   1400020e8:	48 89 5c 24 40       	mov    %rbx,0x40(%rsp)
   1400020ed:	48 89 7c 24 28       	mov    %rdi,0x28(%rsp)
   1400020f2:	4c 89 7c 24 20       	mov    %r15,0x20(%rsp)
   1400020f7:	45 33 ff             	xor    %r15d,%r15d
   1400020fa:	66 0f 1f 44 00 00    	nopw   0x0(%rax,%rax,1)
   140002100:	48 8d 46 28          	lea    0x28(%rsi),%rax
   140002104:	48 8b de             	mov    %rsi,%rbx
   140002107:	48 8b 30             	mov    (%rax),%rsi
   14000210a:	4c 89 38             	mov    %r15,(%rax)
   14000210d:	49 8b 7e 20          	mov    0x20(%r14),%rdi
   140002111:	48 3b df             	cmp    %rdi,%rbx
   140002114:	74 21                	je     0x140002137
   140002116:	48 85 db             	test   %rbx,%rbx
   140002119:	74 1c                	je     0x140002137
   14000211b:	48 8d 43 10          	lea    0x10(%rbx),%rax
   14000211f:	48 8b cb             	mov    %rbx,%rcx
   140002122:	48 8b 18             	mov    (%rax),%rbx
   140002125:	ba 01 00 00 00       	mov    $0x1,%edx
   14000212a:	4c 89 38             	mov    %r15,(%rax)
   14000212d:	48 8b 01             	mov    (%rcx),%rax
   140002130:	ff 10                	call   *(%rax)
   140002132:	48 3b df             	cmp    %rdi,%rbx
   140002135:	75 df                	jne    0x140002116
   140002137:	48 85 f6             	test   %rsi,%rsi
   14000213a:	75 c4                	jne    0x140002100
   14000213c:	4c 8b 7c 24 20       	mov    0x20(%rsp),%r15
   140002141:	48 8b 7c 24 28       	mov    0x28(%rsp),%rdi
   140002146:	48 8b 5c 24 40       	mov    0x40(%rsp),%rbx
   14000214b:	48 8b 74 24 50       	mov    0x50(%rsp),%rsi
   140002150:	48 8d 05 c9 cc 04 00 	lea    0x4ccc9(%rip),%rax        # 0x14004ee20
   140002157:	40 f6 c5 01          	test   $0x1,%bpl
   14000215b:	49 89 06             	mov    %rax,(%r14)
   14000215e:	48 8b 6c 24 48       	mov    0x48(%rsp),%rbp
   140002163:	74 0d                	je     0x140002172
   140002165:	ba 30 00 00 00       	mov    $0x30,%edx
   14000216a:	49 8b ce             	mov    %r14,%rcx
   14000216d:	e8 5e 98 01 00       	call   0x14001b9d0
   140002172:	49 8b c6             	mov    %r14,%rax
   140002175:	48 83 c4 30          	add    $0x30,%rsp
   140002179:	41 5e                	pop    %r14
   14000217b:	c3                   	ret
   14000217c:	cc                   	int3
   14000217d:	cc                   	int3
   14000217e:	cc                   	int3
   14000217f:	cc                   	int3
   140002180:	40 53                	rex push %rbx
   140002182:	48 83 ec 20          	sub    $0x20,%rsp
   140002186:	48 8d 05 93 cc 04 00 	lea    0x4cc93(%rip),%rax        # 0x14004ee20
   14000218d:	48 8b d9             	mov    %rcx,%rbx
   140002190:	48 89 01             	mov    %rax,(%rcx)
   140002193:	f6 c2 01             	test   $0x1,%dl
   140002196:	74 0a                	je     0x1400021a2
   140002198:	ba 38 00 00 00       	mov    $0x38,%edx
   14000219d:	e8 2e 98 01 00       	call   0x14001b9d0
   1400021a2:	48 8b c3             	mov    %rbx,%rax
   1400021a5:	48 83 c4 20          	add    $0x20,%rsp
   1400021a9:	5b                   	pop    %rbx
   1400021aa:	c3                   	ret
   1400021ab:	cc                   	int3
   1400021ac:	cc                   	int3
   1400021ad:	cc                   	int3
   1400021ae:	cc                   	int3
   1400021af:	cc                   	int3
   1400021b0:	48 8b c4             	mov    %rsp,%rax
   1400021b3:	48 89 58 10          	mov    %rbx,0x10(%rax)
   1400021b7:	48 89 70 18          	mov    %rsi,0x18(%rax)
   1400021bb:	55                   	push   %rbp
   1400021bc:	57                   	push   %rdi
   1400021bd:	41 54                	push   %r12
   1400021bf:	41 56                	push   %r14
   1400021c1:	41 57                	push   %r15
   1400021c3:	48 8d a8 98 fe ff ff 	lea    -0x168(%rax),%rbp
   1400021ca:	48 81 ec 40 02 00 00 	sub    $0x240,%rsp
   1400021d1:	0f 29 70 c8          	movaps %xmm6,-0x38(%rax)
   1400021d5:	0f 29 78 b8          	movaps %xmm7,-0x48(%rax)
   1400021d9:	48 8b 05 20 4f 05 00 	mov    0x54f20(%rip),%rax        # 0x140057100
   1400021e0:	48 33 c4             	xor    %rsp,%rax
   1400021e3:	48 89 85 10 01 00 00 	mov    %rax,0x110(%rbp)
   1400021ea:	4c 8b f9             	mov    %rcx,%r15
   1400021ed:	48 89 4d a0          	mov    %rcx,-0x60(%rbp)
   1400021f1:	45 33 e4             	xor    %r12d,%r12d
   1400021f4:	0f 57 c0             	xorps  %xmm0,%xmm0
   1400021f7:	0f 11 01             	movups %xmm0,(%rcx)
   1400021fa:	4c 89 61 10          	mov    %r12,0x10(%rcx)
   1400021fe:	4c 89 61 18          	mov    %r12,0x18(%rcx)
   140002202:	41 b8 05 00 00 00    	mov    $0x5,%r8d
   140002208:	48 8d 15 35 be 04 00 	lea    0x4be35(%rip),%rdx        # 0x14004e044
   14000220f:	e8 6c 9e 00 00       	call   0x14000c080
   140002214:	90                   	nop
   140002215:	49 8d 4f 20          	lea    0x20(%r15),%rcx
   140002219:	0f 57 c0             	xorps  %xmm0,%xmm0
   14000221c:	0f 11 01             	movups %xmm0,(%rcx)
   14000221f:	4c 89 61 10          	mov    %r12,0x10(%rcx)
   140002223:	4c 89 61 18          	mov    %r12,0x18(%rcx)
   140002227:	41 b8 07 00 00 00    	mov    $0x7,%r8d
   14000222d:	48 8d 15 1c be 04 00 	lea    0x4be1c(%rip),%rdx        # 0x14004e050
   140002234:	e8 47 9e 00 00       	call   0x14000c080
   140002239:	90                   	nop
   14000223a:	49 8d 4f 40          	lea    0x40(%r15),%rcx
   14000223e:	0f 57 c0             	xorps  %xmm0,%xmm0
   140002241:	0f 11 01             	movups %xmm0,(%rcx)
   140002244:	4c 89 61 10          	mov    %r12,0x10(%rcx)
   140002248:	4c 89 61 18          	mov    %r12,0x18(%rcx)
   14000224c:	41 b8 09 00 00 00    	mov    $0x9,%r8d
   140002252:	48 8d 15 ff bd 04 00 	lea    0x4bdff(%rip),%rdx        # 0x14004e058
   140002259:	e8 22 9e 00 00       	call   0x14000c080
   14000225e:	90                   	nop
   14000225f:	49 8d 4f 60          	lea    0x60(%r15),%rcx
   140002263:	0f 57 c0             	xorps  %xmm0,%xmm0
   140002266:	0f 11 01             	movups %xmm0,(%rcx)
   140002269:	4c 89 61 10          	mov    %r12,0x10(%rcx)
   14000226d:	4c 89 61 18          	mov    %r12,0x18(%rcx)
   140002271:	41 b8 40 00 00 00    	mov    $0x40,%r8d
   140002277:	48 8d 15 f2 bd 04 00 	lea    0x4bdf2(%rip),%rdx        # 0x14004e070
   14000227e:	e8 fd 9d 00 00       	call   0x14000c080
   140002283:	90                   	nop
   140002284:	49 8d 8f 80 00 00 00 	lea    0x80(%r15),%rcx
   14000228b:	0f 57 c0             	xorps  %xmm0,%xmm0
   14000228e:	0f 11 01             	movups %xmm0,(%rcx)
   140002291:	4c 89 61 10          	mov    %r12,0x10(%rcx)
   140002295:	4c 89 61 18          	mov    %r12,0x18(%rcx)
   140002299:	41 b8 10 00 00 00    	mov    $0x10,%r8d
   14000229f:	48 8d 15 12 be 04 00 	lea    0x4be12(%rip),%rdx        # 0x14004e0b8
   1400022a6:	e8 d5 9d 00 00       	call   0x14000c080
   1400022ab:	90                   	nop
   1400022ac:	49 8d 8f a0 00 00 00 	lea    0xa0(%r15),%rcx
   1400022b3:	0f 57 c0             	xorps  %xmm0,%xmm0
   1400022b6:	0f 11 01             	movups %xmm0,(%rcx)
   1400022b9:	4c 89 61 10          	mov    %r12,0x10(%rcx)
   1400022bd:	4c 89 61 18          	mov    %r12,0x18(%rcx)
   1400022c1:	41 b8 03 00 00 00    	mov    $0x3,%r8d
   1400022c7:	48 8d 15 fe bd 04 00 	lea    0x4bdfe(%rip),%rdx        # 0x14004e0cc
   1400022ce:	e8 ad 9d 00 00       	call   0x14000c080
   1400022d3:	90                   	nop
   1400022d4:	49 8d 8f c0 00 00 00 	lea    0xc0(%r15),%rcx
   1400022db:	0f 57 c0             	xorps  %xmm0,%xmm0
   1400022de:	0f 11 01             	movups %xmm0,(%rcx)
   1400022e1:	4c 89 61 10          	mov    %r12,0x10(%rcx)
   1400022e5:	4c 89 61 18          	mov    %r12,0x18(%rcx)
   1400022e9:	41 b8 53 00 00 00    	mov    $0x53,%r8d
   1400022ef:	48 8d 15 da bd 04 00 	lea    0x4bdda(%rip),%rdx        # 0x14004e0d0
   1400022f6:	e8 85 9d 00 00       	call   0x14000c080
   1400022fb:	90                   	nop
   1400022fc:	49 8d bf e0 00 00 00 	lea    0xe0(%r15),%rdi
   140002303:	0f 57 c0             	xorps  %xmm0,%xmm0
   140002306:	0f 11 07             	movups %xmm0,(%rdi)
   140002309:	4c 89 67 10          	mov    %r12,0x10(%rdi)
   14000230d:	48 c7 47 18 0f 00 00 	movq   $0xf,0x18(%rdi)
   140002314:	00 
   140002315:	44 88 27             	mov    %r12b,(%rdi)
   140002318:	49 8d 8f 00 01 00 00 	lea    0x100(%r15),%rcx
   14000231f:	0f 11 01             	movups %xmm0,(%rcx)
   140002322:	4c 89 61 10          	mov    %r12,0x10(%rcx)
   140002326:	4c 89 61 18          	mov    %r12,0x18(%rcx)
   14000232a:	41 b8 17 00 00 00    	mov    $0x17,%r8d
   140002330:	48 8d 15 f1 bd 04 00 	lea    0x4bdf1(%rip),%rdx        # 0x14004e128
   140002337:	e8 44 9d 00 00       	call   0x14000c080
   14000233c:	90                   	nop
   14000233d:	41 c7 87 20 01 00 00 	movl   $0x1e,0x120(%r15)
   140002344:	1e 00 00 00 
   140002348:	49 8d b7 28 01 00 00 	lea    0x128(%r15),%rsi
   14000234f:	0f 57 c0             	xorps  %xmm0,%xmm0
   140002352:	0f 11 06             	movups %xmm0,(%rsi)
   140002355:	4c 89 66 10          	mov    %r12,0x10(%rsi)
   140002359:	48 c7 46 18 0f 00 00 	movq   $0xf,0x18(%rsi)
   140002360:	00 
   140002361:	44 88 26             	mov    %r12b,(%rsi)
   140002364:	41 c6 87 48 01 00 00 	movb   $0x1,0x148(%r15)
   14000236b:	01 
   14000236c:	41 0f 11 87 68 01 00 	movups %xmm0,0x168(%r15)
   140002373:	00 
   140002374:	41 0f 11 87 78 01 00 	movups %xmm0,0x178(%r15)
   14000237b:	00 
   14000237c:	41 0f 11 87 88 01 00 	movups %xmm0,0x188(%r15)
   140002383:	00 
   140002384:	4d 89 a7 58 01 00 00 	mov    %r12,0x158(%r15)
   14000238b:	4d 89 a7 60 01 00 00 	mov    %r12,0x160(%r15)
   140002392:	41 c7 87 98 01 00 00 	movl   $0xffffffff,0x198(%r15)
   140002399:	ff ff ff ff 
   14000239d:	41 c7 87 50 01 00 00 	movl   $0x2,0x150(%r15)
   1400023a4:	02 00 00 00 
   1400023a8:	45 89 a7 9c 01 00 00 	mov    %r12d,0x19c(%r15)
   1400023af:	c7 45 b4 10 00 00 00 	movl   $0x10,-0x4c(%rbp)
   1400023b6:	48 8d 55 b4          	lea    -0x4c(%rbp),%rdx
   1400023ba:	48 8d 4d f8          	lea    -0x8(%rbp),%rcx
   1400023be:	ff 15 cc dc 03 00    	call   *0x3dccc(%rip)        # 0x140040090
   1400023c4:	c7 45 b0 00 01 00 00 	movl   $0x100,-0x50(%rbp)
   1400023cb:	48 8d 55 b0          	lea    -0x50(%rbp),%rdx
   1400023cf:	48 8d 4d 10          	lea    0x10(%rbp),%rcx
   1400023d3:	ff 15 2f dc 03 00    	call   *0x3dc2f(%rip)        # 0x140040008
   1400023d9:	0f 57 c0             	xorps  %xmm0,%xmm0
   1400023dc:	0f 11 44 24 20       	movups %xmm0,0x20(%rsp)
   1400023e1:	4c 89 64 24 30       	mov    %r12,0x30(%rsp)
   1400023e6:	4c 89 64 24 38       	mov    %r12,0x38(%rsp)
   1400023eb:	48 8d 4d f8          	lea    -0x8(%rbp),%rcx
   1400023ef:	e8 ac bd 03 00       	call   0x14003e1a0
   1400023f4:	4c 8b c0             	mov    %rax,%r8
   1400023f7:	48 8d 55 f8          	lea    -0x8(%rbp),%rdx
   1400023fb:	48 8d 4c 24 20       	lea    0x20(%rsp),%rcx
   140002400:	e8 7b 9c 00 00       	call   0x14000c080
   140002405:	90                   	nop
   140002406:	48 8d 4d 10          	lea    0x10(%rbp),%rcx
   14000240a:	e8 91 bd 03 00       	call   0x14003e1a0
   14000240f:	4c 8b c0             	mov    %rax,%r8
   140002412:	48 8d 55 10          	lea    0x10(%rbp),%rdx
   140002416:	48 8d 4c 24 20       	lea    0x20(%rsp),%rcx
   14000241b:	e8 80 a6 00 00       	call   0x14000caa0
   140002420:	0f 10 38             	movups (%rax),%xmm7
   140002423:	0f 11 7d b8          	movups %xmm7,-0x48(%rbp)
   140002427:	0f 10 70 10          	movups 0x10(%rax),%xmm6
   14000242b:	0f 11 75 c8          	movups %xmm6,-0x38(%rbp)
   14000242f:	4c 89 60 10          	mov    %r12,0x10(%rax)
   140002433:	48 c7 40 18 0f 00 00 	movq   $0xf,0x18(%rax)
   14000243a:	00 
   14000243b:	44 88 20             	mov    %r12b,(%rax)
   14000243e:	48 8b 54 24 38       	mov    0x38(%rsp),%rdx
   140002443:	48 83 fa 0f          	cmp    $0xf,%rdx
   140002447:	76 32                	jbe    0x14000247b
   140002449:	48 ff c2             	inc    %rdx
   14000244c:	48 8b 4c 24 20       	mov    0x20(%rsp),%rcx
   140002451:	48 81 fa 00 10 00 00 	cmp    $0x1000,%rdx
   140002458:	72 1c                	jb     0x140002476
   14000245a:	48 8b 41 f8          	mov    -0x8(%rcx),%rax
   14000245e:	48 2b c8             	sub    %rax,%rcx
   140002461:	48 83 e9 08          	sub    $0x8,%rcx
   140002465:	48 83 f9 1f          	cmp    $0x1f,%rcx
   140002469:	0f 87 a6 03 00 00    	ja     0x140002815
   14000246f:	48 83 c2 27          	add    $0x27,%rdx
   140002473:	48 8b c8             	mov    %rax,%rcx
   140002476:	e8 55 95 01 00       	call   0x14001b9d0
   14000247b:	4c 89 64 24 30       	mov    %r12,0x30(%rsp)
   140002480:	48 c7 44 24 38 0f 00 	movq   $0xf,0x38(%rsp)
   140002487:	00 00 
   140002489:	c6 44 24 20 00       	movb   $0x0,0x20(%rsp)
   14000248e:	66 49 0f 7e f1       	movq   %xmm6,%r9
   140002493:	4c 8d 45 b8          	lea    -0x48(%rbp),%r8
   140002497:	66 48 0f 7e fb       	movq   %xmm7,%rbx
   14000249c:	66 0f 73 de 08       	psrldq $0x8,%xmm6
   1400024a1:	66 49 0f 7e f6       	movq   %xmm6,%r14
   1400024a6:	49 83 fe 0f          	cmp    $0xf,%r14
   1400024aa:	4c 0f 47 c3          	cmova  %rbx,%r8
   1400024ae:	48 b9 25 23 22 84 e4 	movabs $0xcbf29ce484222325,%rcx
   1400024b5:	9c f2 cb 
   1400024b8:	49 8b d4             	mov    %r12,%rdx
   1400024bb:	4d 85 c9             	test   %r9,%r9
   1400024be:	74 24                	je     0x1400024e4
   1400024c0:	49 ba b3 01 00 00 00 	movabs $0x100000001b3,%r10
   1400024c7:	01 00 00 
   1400024ca:	66 0f 1f 44 00 00    	nopw   0x0(%rax,%rax,1)
   1400024d0:	42 0f b6 04 02       	movzbl (%rdx,%r8,1),%eax
   1400024d5:	48 33 c8             	xor    %rax,%rcx
   1400024d8:	49 0f af ca          	imul   %r10,%rcx
   1400024dc:	48 ff c2             	inc    %rdx
   1400024df:	49 3b d1             	cmp    %r9,%rdx
   1400024e2:	72 ec                	jb     0x1400024d0
   1400024e4:	4c 8d 4d ed          	lea    -0x13(%rbp),%r9
   1400024e8:	48 b8 2f 4b 69 6d 82 	movabs $0x12e0be826d694b2f,%rax
   1400024ef:	be e0 12 
   1400024f2:	48 f7 e1             	mul    %rcx
   1400024f5:	48 8b c1             	mov    %rcx,%rax
   1400024f8:	48 2b c2             	sub    %rdx,%rax
   1400024fb:	48 d1 e8             	shr    $1,%rax
   1400024fe:	48 03 c2             	add    %rdx,%rax
   140002501:	48 c1 e8 1d          	shr    $0x1d,%rax
   140002505:	48 69 c0 00 ca 9a 3b 	imul   $0x3b9aca00,%rax,%rax
   14000250c:	48 2b c8             	sub    %rax,%rcx
   14000250f:	49 ba cd cc cc cc cc 	movabs $0xcccccccccccccccd,%r10
   140002516:	cc cc cc 
   140002519:	0f 1f 80 00 00 00 00 	nopl   0x0(%rax)
   140002520:	49 ff c9             	dec    %r9
   140002523:	49 8b c2             	mov    %r10,%rax
   140002526:	48 f7 e1             	mul    %rcx
   140002529:	48 c1 ea 03          	shr    $0x3,%rdx
   14000252d:	0f b6 c2             	movzbl %dl,%eax
   140002530:	c0 e0 02             	shl    $0x2,%al
   140002533:	44 8d 04 10          	lea    (%rax,%rdx,1),%r8d
   140002537:	45 02 c0             	add    %r8b,%r8b
   14000253a:	41 2a c8             	sub    %r8b,%cl
   14000253d:	80 c1 30             	add    $0x30,%cl
   140002540:	41 88 09             	mov    %cl,(%r9)
   140002543:	48 8b ca             	mov    %rdx,%rcx
   140002546:	48 85 d2             	test   %rdx,%rdx
   140002549:	75 d5                	jne    0x140002520
   14000254b:	4c 8d 45 ed          	lea    -0x13(%rbp),%r8
   14000254f:	49 8b d1             	mov    %r9,%rdx
   140002552:	48 8d 4c 24 60       	lea    0x60(%rsp),%rcx
   140002557:	e8 f4 99 00 00       	call   0x14000bf50
   14000255c:	48 8d 44 24 60       	lea    0x60(%rsp),%rax
   140002561:	48 3b f0             	cmp    %rax,%rsi
   140002564:	74 4f                	je     0x1400025b5
   140002566:	48 8b 56 18          	mov    0x18(%rsi),%rdx
   14000256a:	48 83 fa 0f          	cmp    $0xf,%rdx
   14000256e:	76 32                	jbe    0x1400025a2
   140002570:	48 8b 06             	mov    (%rsi),%rax
   140002573:	48 ff c2             	inc    %rdx
   140002576:	48 81 fa 00 10 00 00 	cmp    $0x1000,%rdx
   14000257d:	72 1b                	jb     0x14000259a
   14000257f:	48 8b 48 f8          	mov    -0x8(%rax),%rcx
   140002583:	48 2b c1             	sub    %rcx,%rax
   140002586:	48 83 e8 08          	sub    $0x8,%rax
   14000258a:	48 83 f8 1f          	cmp    $0x1f,%rax
   14000258e:	0f 87 81 02 00 00    	ja     0x140002815
   140002594:	48 83 c2 27          	add    $0x27,%rdx
   140002598:	eb 03                	jmp    0x14000259d
   14000259a:	48 8b c8             	mov    %rax,%rcx
   14000259d:	e8 2e 94 01 00       	call   0x14001b9d0
   1400025a2:	0f 10 44 24 60       	movups 0x60(%rsp),%xmm0
   1400025a7:	0f 11 06             	movups %xmm0,(%rsi)
   1400025aa:	0f 10 4c 24 70       	movups 0x70(%rsp),%xmm1
   1400025af:	0f 11 4e 10          	movups %xmm1,0x10(%rsi)
   1400025b3:	eb 3d                	jmp    0x1400025f2
   1400025b5:	48 8b 54 24 78       	mov    0x78(%rsp),%rdx
   1400025ba:	48 83 fa 0f          	cmp    $0xf,%rdx
   1400025be:	76 32                	jbe    0x1400025f2
   1400025c0:	48 ff c2             	inc    %rdx
   1400025c3:	48 8b 4c 24 60       	mov    0x60(%rsp),%rcx
   1400025c8:	48 81 fa 00 10 00 00 	cmp    $0x1000,%rdx
   1400025cf:	72 1c                	jb     0x1400025ed
   1400025d1:	48 8b 41 f8          	mov    -0x8(%rcx),%rax
   1400025d5:	48 2b c8             	sub    %rax,%rcx
   1400025d8:	48 83 e9 08          	sub    $0x8,%rcx
   1400025dc:	48 83 f9 1f          	cmp    $0x1f,%rcx
   1400025e0:	0f 87 2f 02 00 00    	ja     0x140002815
   1400025e6:	48 83 c2 27          	add    $0x27,%rdx
   1400025ea:	48 8b c8             	mov    %rax,%rcx
   1400025ed:	e8 de 93 01 00       	call   0x14001b9d0
   1400025f2:	0f 57 c0             	xorps  %xmm0,%xmm0
   1400025f5:	0f 11 44 24 40       	movups %xmm0,0x40(%rsp)
   1400025fa:	4c 89 64 24 50       	mov    %r12,0x50(%rsp)
   1400025ff:	4c 89 64 24 58       	mov    %r12,0x58(%rsp)
   140002604:	45 33 c0             	xor    %r8d,%r8d
   140002607:	48 8d 15 df b9 04 00 	lea    0x4b9df(%rip),%rdx        # 0x14004dfed
   14000260e:	48 8d 4c 24 40       	lea    0x40(%rsp),%rcx
   140002613:	e8 68 9a 00 00       	call   0x14000c080
   140002618:	90                   	nop
   140002619:	0f 57 c0             	xorps  %xmm0,%xmm0
   14000261c:	0f 11 45 d8          	movups %xmm0,-0x28(%rbp)
   140002620:	4c 89 65 e8          	mov    %r12,-0x18(%rbp)
   140002624:	4c 89 65 f0          	mov    %r12,-0x10(%rbp)
   140002628:	41 b8 28 00 00 00    	mov    $0x28,%r8d
   14000262e:	48 8d 15 0b bb 04 00 	lea    0x4bb0b(%rip),%rdx        # 0x14004e140
   140002635:	48 8d 4d d8          	lea    -0x28(%rbp),%rcx
   140002639:	e8 42 9a 00 00       	call   0x14000c080
   14000263e:	90                   	nop
   14000263f:	4c 8d 4c 24 40       	lea    0x40(%rsp),%r9
   140002644:	4c 8d 45 d8          	lea    -0x28(%rbp),%r8
   140002648:	48 8d 55 80          	lea    -0x80(%rbp),%rdx
   14000264c:	49 8b cf             	mov    %r15,%rcx
   14000264f:	e8 dc 01 00 00       	call   0x140002830
   140002654:	48 8b f0             	mov    %rax,%rsi
   140002657:	48 3b f8             	cmp    %rax,%rdi
   14000265a:	74 6b                	je     0x1400026c7
   14000265c:	48 8b 57 18          	mov    0x18(%rdi),%rdx
   140002660:	48 83 fa 0f          	cmp    $0xf,%rdx
   140002664:	76 35                	jbe    0x14000269b
   140002666:	48 8b 0f             	mov    (%rdi),%rcx
   140002669:	48 ff c2             	inc    %rdx
   14000266c:	48 81 fa 00 10 00 00 	cmp    $0x1000,%rdx
   140002673:	72 1b                	jb     0x140002690
   140002675:	48 8b 41 f8          	mov    -0x8(%rcx),%rax
   140002679:	48 2b c8             	sub    %rax,%rcx
   14000267c:	48 83 e9 08          	sub    $0x8,%rcx
   140002680:	48 83 f9 1f          	cmp    $0x1f,%rcx
   140002684:	0f 87 7d 01 00 00    	ja     0x140002807
   14000268a:	48 83 c2 27          	add    $0x27,%rdx
   14000268e:	eb 03                	jmp    0x140002693
   140002690:	48 8b c1             	mov    %rcx,%rax
   140002693:	48 8b c8             	mov    %rax,%rcx
   140002696:	e8 35 93 01 00       	call   0x14001b9d0
   14000269b:	4c 89 67 10          	mov    %r12,0x10(%rdi)
   14000269f:	48 c7 47 18 0f 00 00 	movq   $0xf,0x18(%rdi)
   1400026a6:	00 
   1400026a7:	c6 07 00             	movb   $0x0,(%rdi)
   1400026aa:	0f 10 06             	movups (%rsi),%xmm0
   1400026ad:	0f 11 07             	movups %xmm0,(%rdi)
   1400026b0:	0f 10 4e 10          	movups 0x10(%rsi),%xmm1
   1400026b4:	0f 11 4f 10          	movups %xmm1,0x10(%rdi)
   1400026b8:	4c 89 66 10          	mov    %r12,0x10(%rsi)
   1400026bc:	48 c7 46 18 0f 00 00 	movq   $0xf,0x18(%rsi)
   1400026c3:	00 
   1400026c4:	c6 06 00             	movb   $0x0,(%rsi)
   1400026c7:	48 8b 55 98          	mov    -0x68(%rbp),%rdx
   1400026cb:	48 83 fa 0f          	cmp    $0xf,%rdx
   1400026cf:	76 31                	jbe    0x140002702
   1400026d1:	48 ff c2             	inc    %rdx
   1400026d4:	48 8b 4d 80          	mov    -0x80(%rbp),%rcx
   1400026d8:	48 81 fa 00 10 00 00 	cmp    $0x1000,%rdx
   1400026df:	72 1c                	jb     0x1400026fd
   1400026e1:	48 8b 41 f8          	mov    -0x8(%rcx),%rax
   1400026e5:	48 2b c8             	sub    %rax,%rcx
   1400026e8:	48 83 e9 08          	sub    $0x8,%rcx
   1400026ec:	48 83 f9 1f          	cmp    $0x1f,%rcx
   1400026f0:	0f 87 11 01 00 00    	ja     0x140002807
   1400026f6:	48 83 c2 27          	add    $0x27,%rdx
   1400026fa:	48 8b c8             	mov    %rax,%rcx
   1400026fd:	e8 ce 92 01 00       	call   0x14001b9d0
   140002702:	4c 89 65 90          	mov    %r12,-0x70(%rbp)
   140002706:	48 c7 45 98 0f 00 00 	movq   $0xf,-0x68(%rbp)
   14000270d:	00 
   14000270e:	c6 45 80 00          	movb   $0x0,-0x80(%rbp)
   140002712:	48 8b 55 f0          	mov    -0x10(%rbp),%rdx
   140002716:	48 83 fa 0f          	cmp    $0xf,%rdx
   14000271a:	76 31                	jbe    0x14000274d
   14000271c:	48 ff c2             	inc    %rdx
   14000271f:	48 8b 4d d8          	mov    -0x28(%rbp),%rcx
   140002723:	48 81 fa 00 10 00 00 	cmp    $0x1000,%rdx
   14000272a:	72 1c                	jb     0x140002748
   14000272c:	48 8b 41 f8          	mov    -0x8(%rcx),%rax
   140002730:	48 2b c8             	sub    %rax,%rcx
   140002733:	48 83 e9 08          	sub    $0x8,%rcx
   140002737:	48 83 f9 1f          	cmp    $0x1f,%rcx
   14000273b:	0f 87 cd 00 00 00    	ja     0x14000280e
   140002741:	48 83 c2 27          	add    $0x27,%rdx
   140002745:	48 8b c8             	mov    %rax,%rcx
   140002748:	e8 83 92 01 00       	call   0x14001b9d0
   14000274d:	4c 89 65 e8          	mov    %r12,-0x18(%rbp)
   140002751:	48 c7 45 f0 0f 00 00 	movq   $0xf,-0x10(%rbp)
   140002758:	00 
   140002759:	c6 45 d8 00          	movb   $0x0,-0x28(%rbp)
   14000275d:	48 8b 54 24 58       	mov    0x58(%rsp),%rdx
   140002762:	48 83 fa 0f          	cmp    $0xf,%rdx
   140002766:	76 33                	jbe    0x14000279b
   140002768:	48 ff c2             	inc    %rdx
   14000276b:	48 8b 4c 24 40       	mov    0x40(%rsp),%rcx
   140002770:	48 81 fa 00 10 00 00 	cmp    $0x1000,%rdx
   140002777:	72 1c                	jb     0x140002795
   140002779:	48 8b 41 f8          	mov    -0x8(%rcx),%rax
   14000277d:	48 2b c8             	sub    %rax,%rcx
   140002780:	48 83 e9 08          	sub    $0x8,%rcx
   140002784:	48 83 f9 1f          	cmp    $0x1f,%rcx
   140002788:	0f 87 87 00 00 00    	ja     0x140002815
   14000278e:	48 83 c2 27          	add    $0x27,%rdx
   140002792:	48 8b c8             	mov    %rax,%rcx
   140002795:	e8 36 92 01 00       	call   0x14001b9d0
   14000279a:	90                   	nop
   14000279b:	49 83 fe 0f          	cmp    $0xf,%r14
   14000279f:	76 2e                	jbe    0x1400027cf
   1400027a1:	49 8d 56 01          	lea    0x1(%r14),%rdx
   1400027a5:	48 81 fa 00 10 00 00 	cmp    $0x1000,%rdx
   1400027ac:	72 18                	jb     0x1400027c6
   1400027ae:	48 8b 43 f8          	mov    -0x8(%rbx),%rax
   1400027b2:	48 2b d8             	sub    %rax,%rbx
   1400027b5:	48 83 eb 08          	sub    $0x8,%rbx
   1400027b9:	48 83 fb 1f          	cmp    $0x1f,%rbx
   1400027bd:	77 5d                	ja     0x14000281c
   1400027bf:	48 83 c2 27          	add    $0x27,%rdx
   1400027c3:	48 8b d8             	mov    %rax,%rbx
   1400027c6:	48 8b cb             	mov    %rbx,%rcx
   1400027c9:	e8 02 92 01 00       	call   0x14001b9d0
   1400027ce:	90                   	nop
   1400027cf:	49 8b c7             	mov    %r15,%rax
   1400027d2:	48 8b 8d 10 01 00 00 	mov    0x110(%rbp),%rcx
   1400027d9:	48 33 cc             	xor    %rsp,%rcx
   1400027dc:	e8 cf 91 01 00       	call   0x14001b9b0
   1400027e1:	4c 8d 9c 24 40 02 00 	lea    0x240(%rsp),%r11
   1400027e8:	00 
   1400027e9:	49 8b 5b 38          	mov    0x38(%r11),%rbx
   1400027ed:	49 8b 73 40          	mov    0x40(%r11),%rsi
   1400027f1:	41 0f 28 73 f0       	movaps -0x10(%r11),%xmm6
   1400027f6:	41 0f 28 7b e0       	movaps -0x20(%r11),%xmm7
   1400027fb:	49 8b e3             	mov    %r11,%rsp
   1400027fe:	41 5f                	pop    %r15
   140002800:	41 5e                	pop    %r14
   140002802:	41 5c                	pop    %r12
   140002804:	5f                   	pop    %rdi
   140002805:	5d                   	pop    %rbp
   140002806:	c3                   	ret
   140002807:	b9 05 00 00 00       	mov    $0x5,%ecx
   14000280c:	cd 29                	int    $0x29
   14000280e:	b9 05 00 00 00       	mov    $0x5,%ecx
   140002813:	cd 29                	int    $0x29
   140002815:	b9 05 00 00 00       	mov    $0x5,%ecx
   14000281a:	cd 29                	int    $0x29
   14000281c:	b9 05 00 00 00       	mov    $0x5,%ecx
   140002821:	cd 29                	int    $0x29
   140002823:	cc                   	int3
   140002824:	cc                   	int3
   140002825:	cc                   	int3
   140002826:	cc                   	int3
   140002827:	cc                   	int3
   140002828:	cc                   	int3
   140002829:	cc                   	int3
   14000282a:	cc                   	int3
   14000282b:	cc                   	int3
   14000282c:	cc                   	int3
   14000282d:	cc                   	int3
   14000282e:	cc                   	int3
   14000282f:	cc                   	int3
   140002830:	40 55                	rex push %rbp
   140002832:	53                   	push   %rbx
   140002833:	56                   	push   %rsi
   140002834:	57                   	push   %rdi
   140002835:	41 54                	push   %r12
   140002837:	41 55                	push   %r13
   140002839:	41 56                	push   %r14
   14000283b:	41 57                	push   %r15
   14000283d:	48 8d 6c 24 e1       	lea    -0x1f(%rsp),%rbp
   140002842:	48 81 ec a8 00 00 00 	sub    $0xa8,%rsp
   140002849:	48 8b 05 b0 48 05 00 	mov    0x548b0(%rip),%rax        # 0x140057100
   140002850:	48 33 c4             	xor    %rsp,%rax
   140002853:	48 89 45 07          	mov    %rax,0x7(%rbp)
   140002857:	4d 8b f0             	mov    %r8,%r14
   14000285a:	48 8b fa             	mov    %rdx,%rdi
   14000285d:	48 89 55 bf          	mov    %rdx,-0x41(%rbp)
   140002861:	45 33 ed             	xor    %r13d,%r13d
   140002864:	44 89 6d bb          	mov    %r13d,-0x45(%rbp)
   140002868:	4d 39 69 10          	cmp    %r13,0x10(%r9)
   14000286c:	49 0f 45 c9          	cmovne %r9,%rcx
   140002870:	48 8b d1             	mov    %rcx,%rdx
   140002873:	48 8d 4d e7          	lea    -0x19(%rbp),%rcx
   140002877:	e8 54 73 00 00       	call   0x140009bd0
   14000287c:	90                   	nop
   14000287d:	0f 57 c0             	xorps  %xmm0,%xmm0
   140002880:	0f 11 07             	movups %xmm0,(%rdi)
   140002883:	4c 89 6f 10          	mov    %r13,0x10(%rdi)
   140002887:	48 c7 47 18 0f 00 00 	movq   $0xf,0x18(%rdi)
   14000288e:	00 
   14000288f:	44 88 2f             	mov    %r13b,(%rdi)
   140002892:	c7 45 bb 01 00 00 00 	movl   $0x1,-0x45(%rbp)
   140002899:	44 89 6d c7          	mov    %r13d,-0x39(%rbp)
   14000289d:	49 8b ce             	mov    %r14,%rcx
   1400028a0:	49 83 7e 18 0f       	cmpq   $0xf,0x18(%r14)
   1400028a5:	76 03                	jbe    0x1400028aa
   1400028a7:	49 8b 0e             	mov    (%r14),%rcx
   1400028aa:	4c 89 6c 24 30       	mov    %r13,0x30(%rsp)
   1400028af:	4c 89 6c 24 28       	mov    %r13,0x28(%rsp)
   1400028b4:	48 8d 45 c7          	lea    -0x39(%rbp),%rax
   1400028b8:	48 89 44 24 20       	mov    %rax,0x20(%rsp)
   1400028bd:	45 33 c9             	xor    %r9d,%r9d
   1400028c0:	33 d2                	xor    %edx,%edx
   1400028c2:	41 b8 01 00 00 00    	mov    $0x1,%r8d
   1400028c8:	ff 15 5a d7 03 00    	call   *0x3d75a(%rip)        # 0x140040028
   1400028ce:	0f 57 c0             	xorps  %xmm0,%xmm0
   1400028d1:	8b 75 c7             	mov    -0x39(%rbp),%esi
   1400028d4:	f3 0f 7f 45 cf       	movdqu %xmm0,-0x31(%rbp)
   1400028d9:	4c 89 6d df          	mov    %r13,-0x21(%rbp)
   1400028dd:	48 85 f6             	test   %rsi,%rsi
   1400028e0:	74 5a                	je     0x14000293c
   1400028e2:	48 81 fe 00 10 00 00 	cmp    $0x1000,%rsi
   1400028e9:	72 2c                	jb     0x140002917
   1400028eb:	48 8d 4e 27          	lea    0x27(%rsi),%rcx
   1400028ef:	48 3b ce             	cmp    %rsi,%rcx
   1400028f2:	0f 86 b6 01 00 00    	jbe    0x140002aae
   1400028f8:	e8 eb 90 01 00       	call   0x14001b9e8
   1400028fd:	48 8b c8             	mov    %rax,%rcx
   140002900:	48 85 c0             	test   %rax,%rax
   140002903:	0f 84 2b 01 00 00    	je     0x140002a34
   140002909:	48 83 c0 27          	add    $0x27,%rax
   14000290d:	48 83 e0 e0          	and    $0xffffffffffffffe0,%rax
   140002911:	48 89 48 f8          	mov    %rcx,-0x8(%rax)
   140002915:	eb 08                	jmp    0x14000291f
   140002917:	48 8b ce             	mov    %rsi,%rcx
   14000291a:	e8 c9 90 01 00       	call   0x14001b9e8
   14000291f:	48 89 45 cf          	mov    %rax,-0x31(%rbp)
   140002923:	48 8d 1c 06          	lea    (%rsi,%rax,1),%rbx
   140002927:	48 89 5d df          	mov    %rbx,-0x21(%rbp)
   14000292b:	4c 8b c6             	mov    %rsi,%r8
   14000292e:	33 d2                	xor    %edx,%edx
   140002930:	48 8b c8             	mov    %rax,%rcx
   140002933:	e8 38 b4 03 00       	call   0x14003dd70
   140002938:	48 89 5d d7          	mov    %rbx,-0x29(%rbp)
   14000293c:	49 83 7e 18 0f       	cmpq   $0xf,0x18(%r14)
   140002941:	76 03                	jbe    0x140002946
   140002943:	4d 8b 36             	mov    (%r14),%r14
   140002946:	4c 89 6c 24 30       	mov    %r13,0x30(%rsp)
   14000294b:	4c 89 6c 24 28       	mov    %r13,0x28(%rsp)
   140002950:	48 8d 45 c7          	lea    -0x39(%rbp),%rax
   140002954:	48 89 44 24 20       	mov    %rax,0x20(%rsp)
   140002959:	4c 8b 4d cf          	mov    -0x31(%rbp),%r9
   14000295d:	33 d2                	xor    %edx,%edx
   14000295f:	41 b8 01 00 00 00    	mov    $0x1,%r8d
   140002965:	49 8b ce             	mov    %r14,%rcx
   140002968:	ff 15 ba d6 03 00    	call   *0x3d6ba(%rip)        # 0x140040028
   14000296e:	4c 8b 7d ff          	mov    -0x1(%rbp),%r15
   140002972:	4c 8b 75 e7          	mov    -0x19(%rbp),%r14
   140002976:	48 8b 4d cf          	mov    -0x31(%rbp),%rcx
   14000297a:	48 39 4d d7          	cmp    %rcx,-0x29(%rbp)
   14000297e:	0f 84 84 00 00 00    	je     0x140002a08
   140002984:	49 8b f5             	mov    %r13,%rsi
   140002987:	4c 8b 65 f7          	mov    -0x9(%rbp),%r12
   14000298b:	0f b6 5d b7          	movzbl -0x49(%rbp),%ebx
   14000298f:	90                   	nop
   140002990:	44 0f b6 0c 31       	movzbl (%rcx,%rsi,1),%r9d
   140002995:	48 8d 4d e7          	lea    -0x19(%rbp),%rcx
   140002999:	49 83 ff 0f          	cmp    $0xf,%r15
   14000299d:	49 0f 47 ce          	cmova  %r14,%rcx
   1400029a1:	33 d2                	xor    %edx,%edx
   1400029a3:	48 8b c6             	mov    %rsi,%rax
   1400029a6:	49 f7 f4             	div    %r12
   1400029a9:	44 32 0c 0a          	xor    (%rdx,%rcx,1),%r9b
   1400029ad:	48 8b 4f 10          	mov    0x10(%rdi),%rcx
   1400029b1:	48 8b 57 18          	mov    0x18(%rdi),%rdx
   1400029b5:	48 3b ca             	cmp    %rdx,%rcx
   1400029b8:	73 2a                	jae    0x1400029e4
   1400029ba:	48 8d 41 01          	lea    0x1(%rcx),%rax
   1400029be:	48 89 47 10          	mov    %rax,0x10(%rdi)
   1400029c2:	48 83 fa 0f          	cmp    $0xf,%rdx
   1400029c6:	76 0e                	jbe    0x1400029d6
   1400029c8:	48 8b 07             	mov    (%rdi),%rax
   1400029cb:	44 88 0c 01          	mov    %r9b,(%rcx,%rax,1)
   1400029cf:	c6 44 01 01 00       	movb   $0x0,0x1(%rcx,%rax,1)
   1400029d4:	eb 1f                	jmp    0x1400029f5
   1400029d6:	48 8b c7             	mov    %rdi,%rax
   1400029d9:	44 88 0c 01          	mov    %r9b,(%rcx,%rax,1)
   1400029dd:	c6 44 01 01 00       	movb   $0x0,0x1(%rcx,%rax,1)
   1400029e2:	eb 11                	jmp    0x1400029f5
   1400029e4:	44 0f b6 c3          	movzbl %bl,%r8d
   1400029e8:	ba 01 00 00 00       	mov    $0x1,%edx
   1400029ed:	48 8b cf             	mov    %rdi,%rcx
   1400029f0:	e8 5b c9 00 00       	call   0x14000f350
   1400029f5:	48 ff c6             	inc    %rsi
   1400029f8:	48 8b 45 d7          	mov    -0x29(%rbp),%rax
   1400029fc:	48 8b 4d cf          	mov    -0x31(%rbp),%rcx
   140002a00:	48 2b c1             	sub    %rcx,%rax
   140002a03:	48 3b f0             	cmp    %rax,%rsi
   140002a06:	72 88                	jb     0x140002990
   140002a08:	48 85 c9             	test   %rcx,%rcx
   140002a0b:	74 45                	je     0x140002a52
   140002a0d:	48 8b 55 df          	mov    -0x21(%rbp),%rdx
   140002a11:	48 2b d1             	sub    %rcx,%rdx
   140002a14:	48 81 fa 00 10 00 00 	cmp    $0x1000,%rdx
   140002a1b:	72 1e                	jb     0x140002a3b
   140002a1d:	48 8b 41 f8          	mov    -0x8(%rcx),%rax
   140002a21:	48 2b c8             	sub    %rax,%rcx
   140002a24:	48 83 e9 08          	sub    $0x8,%rcx
   140002a28:	48 83 f9 1f          	cmp    $0x1f,%rcx
   140002a2c:	77 06                	ja     0x140002a34
   140002a2e:	48 83 c2 27          	add    $0x27,%rdx
   140002a32:	eb 0a                	jmp    0x140002a3e
   140002a34:	b9 05 00 00 00       	mov    $0x5,%ecx
   140002a39:	cd 29                	int    $0x29
   140002a3b:	48 8b c1             	mov    %rcx,%rax
   140002a3e:	48 8b c8             	mov    %rax,%rcx
   140002a41:	e8 8a 8f 01 00       	call   0x14001b9d0
   140002a46:	0f 57 c0             	xorps  %xmm0,%xmm0
   140002a49:	f3 0f 7f 45 cf       	movdqu %xmm0,-0x31(%rbp)
   140002a4e:	4c 89 6d df          	mov    %r13,-0x21(%rbp)
   140002a52:	49 83 ff 0f          	cmp    $0xf,%r15
   140002a56:	76 33                	jbe    0x140002a8b
   140002a58:	49 8d 57 01          	lea    0x1(%r15),%rdx
   140002a5c:	48 81 fa 00 10 00 00 	cmp    $0x1000,%rdx
   140002a63:	72 1e                	jb     0x140002a83
   140002a65:	49 8b 4e f8          	mov    -0x8(%r14),%rcx
   140002a69:	4c 2b f1             	sub    %rcx,%r14
   140002a6c:	49 83 ee 08          	sub    $0x8,%r14
   140002a70:	49 83 fe 1f          	cmp    $0x1f,%r14
   140002a74:	77 06                	ja     0x140002a7c
   140002a76:	48 83 c2 27          	add    $0x27,%rdx
   140002a7a:	eb 0a                	jmp    0x140002a86
   140002a7c:	b9 05 00 00 00       	mov    $0x5,%ecx
   140002a81:	cd 29                	int    $0x29
   140002a83:	49 8b ce             	mov    %r14,%rcx
   140002a86:	e8 45 8f 01 00       	call   0x14001b9d0
   140002a8b:	48 8b c7             	mov    %rdi,%rax
   140002a8e:	48 8b 4d 07          	mov    0x7(%rbp),%rcx
   140002a92:	48 33 cc             	xor    %rsp,%rcx
   140002a95:	e8 16 8f 01 00       	call   0x14001b9b0
   140002a9a:	48 81 c4 a8 00 00 00 	add    $0xa8,%rsp
   140002aa1:	41 5f                	pop    %r15
   140002aa3:	41 5e                	pop    %r14
   140002aa5:	41 5d                	pop    %r13
   140002aa7:	41 5c                	pop    %r12
   140002aa9:	5f                   	pop    %rdi
   140002aaa:	5e                   	pop    %rsi
   140002aab:	5b                   	pop    %rbx
   140002aac:	5d                   	pop    %rbp
   140002aad:	c3                   	ret
   140002aae:	e8 0d e8 ff ff       	call   0x1400012c0
   140002ab3:	cc                   	int3
   140002ab4:	cc                   	int3
   140002ab5:	cc                   	int3
   140002ab6:	cc                   	int3
   140002ab7:	cc                   	int3
   140002ab8:	cc                   	int3
   140002ab9:	cc                   	int3
   140002aba:	cc                   	int3
   140002abb:	cc                   	int3
   140002abc:	cc                   	int3
   140002abd:	cc                   	int3
   140002abe:	cc                   	int3
   140002abf:	cc                   	int3
   140002ac0:	48 89 5c 24 08       	mov    %rbx,0x8(%rsp)
   140002ac5:	48 89 74 24 18       	mov    %rsi,0x18(%rsp)
   140002aca:	57                   	push   %rdi
   140002acb:	41 56                	push   %r14
   140002acd:	41 57                	push   %r15
   140002acf:	48 83 ec 30          	sub    $0x30,%rsp
   140002ad3:	4d 8b f9             	mov    %r9,%r15
   140002ad6:	4d 8b f0             	mov    %r8,%r14
   140002ad9:	48 8b fa             	mov    %rdx,%rdi
   140002adc:	48 89 54 24 28       	mov    %rdx,0x28(%rsp)
   140002ae1:	33 f6                	xor    %esi,%esi
   140002ae3:	89 74 24 24          	mov    %esi,0x24(%rsp)
   140002ae7:	0f 57 c0             	xorps  %xmm0,%xmm0
   140002aea:	0f 11 02             	movups %xmm0,(%rdx)
   140002aed:	48 89 72 10          	mov    %rsi,0x10(%rdx)
   140002af1:	48 c7 42 18 0f 00 00 	movq   $0xf,0x18(%rdx)
   140002af8:	00 
   140002af9:	40 88 32             	mov    %sil,(%rdx)
   140002afc:	c7 44 24 24 01 00 00 	movl   $0x1,0x24(%rsp)
   140002b03:	00 
   140002b04:	49 39 70 10          	cmp    %rsi,0x10(%r8)
   140002b08:	0f 86 8a 00 00 00    	jbe    0x140002b98
   140002b0e:	0f b6 5c 24 20       	movzbl 0x20(%rsp),%ebx
   140002b13:	49 83 7e 18 0f       	cmpq   $0xf,0x18(%r14)
   140002b18:	76 05                	jbe    0x140002b1f
   140002b1a:	49 8b 06             	mov    (%r14),%rax
   140002b1d:	eb 03                	jmp    0x140002b22
   140002b1f:	49 8b c6             	mov    %r14,%rax
   140002b22:	44 0f b6 0c 30       	movzbl (%rax,%rsi,1),%r9d
   140002b27:	49 83 7f 18 0f       	cmpq   $0xf,0x18(%r15)
   140002b2c:	76 05                	jbe    0x140002b33
   140002b2e:	49 8b 0f             	mov    (%r15),%rcx
   140002b31:	eb 03                	jmp    0x140002b36
   140002b33:	49 8b cf             	mov    %r15,%rcx
   140002b36:	33 d2                	xor    %edx,%edx
   140002b38:	48 8b c6             	mov    %rsi,%rax
   140002b3b:	49 f7 77 10          	divq   0x10(%r15)
   140002b3f:	44 32 0c 0a          	xor    (%rdx,%rcx,1),%r9b
   140002b43:	48 8b 4f 10          	mov    0x10(%rdi),%rcx
   140002b47:	48 8b 57 18          	mov    0x18(%rdi),%rdx
   140002b4b:	48 3b ca             	cmp    %rdx,%rcx
   140002b4e:	73 2a                	jae    0x140002b7a
   140002b50:	48 8d 41 01          	lea    0x1(%rcx),%rax
   140002b54:	48 89 47 10          	mov    %rax,0x10(%rdi)
   140002b58:	48 83 fa 0f          	cmp    $0xf,%rdx
   140002b5c:	76 0e                	jbe    0x140002b6c
   140002b5e:	48 8b 07             	mov    (%rdi),%rax
   140002b61:	44 88 0c 01          	mov    %r9b,(%rcx,%rax,1)
   140002b65:	c6 44 01 01 00       	movb   $0x0,0x1(%rcx,%rax,1)
   140002b6a:	eb 1f                	jmp    0x140002b8b
   140002b6c:	48 8b c7             	mov    %rdi,%rax
   140002b6f:	44 88 0c 01          	mov    %r9b,(%rcx,%rax,1)
   140002b73:	c6 44 01 01 00       	movb   $0x0,0x1(%rcx,%rax,1)
   140002b78:	eb 11                	jmp    0x140002b8b
   140002b7a:	44 0f b6 c3          	movzbl %bl,%r8d
   140002b7e:	ba 01 00 00 00       	mov    $0x1,%edx
   140002b83:	48 8b cf             	mov    %rdi,%rcx
   140002b86:	e8 c5 c7 00 00       	call   0x14000f350
   140002b8b:	48 ff c6             	inc    %rsi
   140002b8e:	49 3b 76 10          	cmp    0x10(%r14),%rsi
   140002b92:	0f 82 7b ff ff ff    	jb     0x140002b13
   140002b98:	48 8b c7             	mov    %rdi,%rax
   140002b9b:	48 8b 5c 24 50       	mov    0x50(%rsp),%rbx
   140002ba0:	48 8b 74 24 60       	mov    0x60(%rsp),%rsi
   140002ba5:	48 83 c4 30          	add    $0x30,%rsp
   140002ba9:	41 5f                	pop    %r15
   140002bab:	41 5e                	pop    %r14
   140002bad:	5f                   	pop    %rdi
   140002bae:	c3                   	ret
   140002baf:	cc                   	int3
   140002bb0:	48 89 5c 24 08       	mov    %rbx,0x8(%rsp)
   140002bb5:	48 89 74 24 10       	mov    %rsi,0x10(%rsp)
   140002bba:	57                   	push   %rdi
   140002bbb:	48 81 ec 60 03 00 00 	sub    $0x360,%rsp
   140002bc2:	48 8b 05 37 45 05 00 	mov    0x54537(%rip),%rax        # 0x140057100
   140002bc9:	48 33 c4             	xor    %rsp,%rax
   140002bcc:	48 89 84 24 50 03 00 	mov    %rax,0x350(%rsp)
   140002bd3:	00 
   140002bd4:	33 f6                	xor    %esi,%esi
   140002bd6:	48 8d 84 24 40 02 00 	lea    0x240(%rsp),%rax
   140002bdd:	00 
   140002bde:	48 89 44 24 20       	mov    %rax,0x20(%rsp)
   140002be3:	45 33 c9             	xor    %r9d,%r9d
   140002be6:	45 33 c0             	xor    %r8d,%r8d
   140002be9:	ba 1a 00 00 00       	mov    $0x1a,%edx
   140002bee:	33 c9                	xor    %ecx,%ecx
   140002bf0:	ff 15 ba d7 03 00    	call   *0x3d7ba(%rip)        # 0x1400403b0
   140002bf6:	0f 57 c0             	xorps  %xmm0,%xmm0
   140002bf9:	0f 11 44 24 58       	movups %xmm0,0x58(%rsp)
   140002bfe:	48 89 74 24 68       	mov    %rsi,0x68(%rsp)
   140002c03:	48 89 74 24 70       	mov    %rsi,0x70(%rsp)
   140002c08:	48 8d 8c 24 40 02 00 	lea    0x240(%rsp),%rcx
   140002c0f:	00 
   140002c10:	e8 8b b5 03 00       	call   0x14003e1a0
   140002c15:	4c 8b c0             	mov    %rax,%r8
   140002c18:	48 8d 94 24 40 02 00 	lea    0x240(%rsp),%rdx
   140002c1f:	00 
   140002c20:	48 8d 4c 24 58       	lea    0x58(%rsp),%rcx
   140002c25:	e8 56 94 00 00       	call   0x14000c080
   140002c2a:	90                   	nop
   140002c2b:	41 b8 10 00 00 00    	mov    $0x10,%r8d
   140002c31:	48 8d 15 38 b5 04 00 	lea    0x4b538(%rip),%rdx        # 0x14004e170
   140002c38:	48 8d 4c 24 58       	lea    0x58(%rsp),%rcx
   140002c3d:	e8 5e 9e 00 00       	call   0x14000caa0
   140002c42:	0f 57 c0             	xorps  %xmm0,%xmm0
   140002c45:	0f 11 44 24 78       	movups %xmm0,0x78(%rsp)
   140002c4a:	48 89 b4 24 88 00 00 	mov    %rsi,0x88(%rsp)
   140002c51:	00 
   140002c52:	48 89 b4 24 90 00 00 	mov    %rsi,0x90(%rsp)
   140002c59:	00 
   140002c5a:	0f 10 00             	movups (%rax),%xmm0
   140002c5d:	0f 11 44 24 78       	movups %xmm0,0x78(%rsp)
   140002c62:	0f 10 48 10          	movups 0x10(%rax),%xmm1
   140002c66:	0f 11 8c 24 88 00 00 	movups %xmm1,0x88(%rsp)
   140002c6d:	00 
   140002c6e:	48 89 70 10          	mov    %rsi,0x10(%rax)
   140002c72:	48 c7 40 18 0f 00 00 	movq   $0xf,0x18(%rax)
   140002c79:	00 
   140002c7a:	40 88 30             	mov    %sil,(%rax)
   140002c7d:	48 8b 54 24 70       	mov    0x70(%rsp),%rdx
   140002c82:	48 83 fa 0f          	cmp    $0xf,%rdx
   140002c86:	76 34                	jbe    0x140002cbc
   140002c88:	48 8b 44 24 58       	mov    0x58(%rsp),%rax
   140002c8d:	48 ff c2             	inc    %rdx
   140002c90:	48 81 fa 00 10 00 00 	cmp    $0x1000,%rdx
   140002c97:	72 1b                	jb     0x140002cb4
   140002c99:	48 8b 48 f8          	mov    -0x8(%rax),%rcx
   140002c9d:	48 2b c1             	sub    %rcx,%rax
   140002ca0:	48 83 e8 08          	sub    $0x8,%rax
   140002ca4:	48 83 f8 1f          	cmp    $0x1f,%rax
   140002ca8:	0f 87 2f 01 00 00    	ja     0x140002ddd
   140002cae:	48 83 c2 27          	add    $0x27,%rdx
   140002cb2:	eb 03                	jmp    0x140002cb7
   140002cb4:	48 8b c8             	mov    %rax,%rcx
   140002cb7:	e8 14 8d 01 00       	call   0x14001b9d0
   140002cbc:	48 89 74 24 68       	mov    %rsi,0x68(%rsp)
   140002cc1:	48 c7 44 24 70 0f 00 	movq   $0xf,0x70(%rsp)
   140002cc8:	00 00 
   140002cca:	c6 44 24 58 00       	movb   $0x0,0x58(%rsp)
   140002ccf:	48 8d 4c 24 78       	lea    0x78(%rsp),%rcx
   140002cd4:	48 83 bc 24 90 00 00 	cmpq   $0xf,0x90(%rsp)
   140002cdb:	00 0f 
   140002cdd:	48 0f 47 4c 24 78    	cmova  0x78(%rsp),%rcx
   140002ce3:	33 d2                	xor    %edx,%edx
   140002ce5:	ff 15 9d d3 03 00    	call   *0x3d39d(%rip)        # 0x140040088
   140002ceb:	48 8b 8c 24 88 00 00 	mov    0x88(%rsp),%rcx
   140002cf2:	00 
   140002cf3:	48 b8 ff ff ff ff ff 	movabs $0x7fffffffffffffff,%rax
   140002cfa:	ff ff 7f 
   140002cfd:	48 2b c1             	sub    %rcx,%rax
   140002d00:	48 83 f8 0c          	cmp    $0xc,%rax
   140002d04:	0f 82 2e 02 00 00    	jb     0x140002f38
   140002d0a:	4c 8d 4c 24 78       	lea    0x78(%rsp),%r9
   140002d0f:	48 83 bc 24 90 00 00 	cmpq   $0xf,0x90(%rsp)
   140002d16:	00 0f 
   140002d18:	4c 0f 47 4c 24 78    	cmova  0x78(%rsp),%r9
   140002d1e:	48 c7 44 24 30 0c 00 	movq   $0xc,0x30(%rsp)
   140002d25:	00 00 
   140002d27:	48 8d 05 5a b4 04 00 	lea    0x4b45a(%rip),%rax        # 0x14004e188
   140002d2e:	48 89 44 24 28       	mov    %rax,0x28(%rsp)
   140002d33:	48 89 4c 24 20       	mov    %rcx,0x20(%rsp)
   140002d38:	48 8d 8c 24 98 00 00 	lea    0x98(%rsp),%rcx
   140002d3f:	00 
   140002d40:	e8 3b af 00 00       	call   0x14000dc80
   140002d45:	41 b8 04 01 00 00    	mov    $0x104,%r8d
   140002d4b:	48 8d 94 24 30 01 00 	lea    0x130(%rsp),%rdx
   140002d52:	00 
   140002d53:	33 c9                	xor    %ecx,%ecx
   140002d55:	ff 15 fd d3 03 00    	call   *0x3d3fd(%rip)        # 0x140040158
   140002d5b:	48 8d 8c 24 30 01 00 	lea    0x130(%rsp),%rcx
   140002d62:	00 
   140002d63:	e8 38 b4 03 00       	call   0x14003e1a0
   140002d68:	4c 8b 84 24 a8 00 00 	mov    0xa8(%rsp),%r8
   140002d6f:	00 
   140002d70:	48 8b bc 24 b0 00 00 	mov    0xb0(%rsp),%rdi
   140002d77:	00 
   140002d78:	48 8d 8c 24 98 00 00 	lea    0x98(%rsp),%rcx
   140002d7f:	00 
   140002d80:	48 8b 9c 24 98 00 00 	mov    0x98(%rsp),%rbx
   140002d87:	00 
   140002d88:	48 83 ff 0f          	cmp    $0xf,%rdi
   140002d8c:	48 0f 47 cb          	cmova  %rbx,%rcx
   140002d90:	4c 3b c0             	cmp    %rax,%r8
   140002d93:	0f 85 da 00 00 00    	jne    0x140002e73
   140002d99:	4d 85 c0             	test   %r8,%r8
   140002d9c:	74 15                	je     0x140002db3
   140002d9e:	48 8d 94 24 30 01 00 	lea    0x130(%rsp),%rdx
   140002da5:	00 
   140002da6:	e8 c5 ae 03 00       	call   0x14003dc70
   140002dab:	85 c0                	test   %eax,%eax
   140002dad:	0f 85 c0 00 00 00    	jne    0x140002e73
   140002db3:	48 83 ff 0f          	cmp    $0xf,%rdi
   140002db7:	76 33                	jbe    0x140002dec
   140002db9:	48 8d 57 01          	lea    0x1(%rdi),%rdx
   140002dbd:	48 81 fa 00 10 00 00 	cmp    $0x1000,%rdx
   140002dc4:	72 1e                	jb     0x140002de4
   140002dc6:	48 8b 4b f8          	mov    -0x8(%rbx),%rcx
   140002dca:	48 2b d9             	sub    %rcx,%rbx
   140002dcd:	48 83 eb 08          	sub    $0x8,%rbx
   140002dd1:	48 83 fb 1f          	cmp    $0x1f,%rbx
   140002dd5:	77 06                	ja     0x140002ddd
   140002dd7:	48 83 c2 27          	add    $0x27,%rdx
   140002ddb:	eb 0a                	jmp    0x140002de7
   140002ddd:	b9 05 00 00 00       	mov    $0x5,%ecx
   140002de2:	cd 29                	int    $0x29
   140002de4:	48 8b cb             	mov    %rbx,%rcx
   140002de7:	e8 e4 8b 01 00       	call   0x14001b9d0
   140002dec:	48 89 b4 24 a8 00 00 	mov    %rsi,0xa8(%rsp)
   140002df3:	00 
   140002df4:	48 c7 84 24 b0 00 00 	movq   $0xf,0xb0(%rsp)
   140002dfb:	00 0f 00 00 00 
   140002e00:	c6 84 24 98 00 00 00 	movb   $0x0,0x98(%rsp)
   140002e07:	00 
   140002e08:	48 8b 94 24 90 00 00 	mov    0x90(%rsp),%rdx
   140002e0f:	00 
   140002e10:	48 83 fa 0f          	cmp    $0xf,%rdx
   140002e14:	76 38                	jbe    0x140002e4e
   140002e16:	48 8b 44 24 78       	mov    0x78(%rsp),%rax
   140002e1b:	48 ff c2             	inc    %rdx
   140002e1e:	48 81 fa 00 10 00 00 	cmp    $0x1000,%rdx
   140002e25:	72 1e                	jb     0x140002e45
   140002e27:	48 8b 48 f8          	mov    -0x8(%rax),%rcx
   140002e2b:	48 2b c1             	sub    %rcx,%rax
   140002e2e:	48 83 e8 08          	sub    $0x8,%rax
   140002e32:	48 83 f8 1f          	cmp    $0x1f,%rax
   140002e36:	77 06                	ja     0x140002e3e
   140002e38:	48 83 c2 27          	add    $0x27,%rdx
   140002e3c:	eb 0a                	jmp    0x140002e48
   140002e3e:	b9 05 00 00 00       	mov    $0x5,%ecx
   140002e43:	cd 29                	int    $0x29
   140002e45:	48 8b c8             	mov    %rax,%rcx
   140002e48:	e8 83 8b 01 00       	call   0x14001b9d0
   140002e4d:	90                   	nop
   140002e4e:	48 8b 8c 24 50 03 00 	mov    0x350(%rsp),%rcx
   140002e55:	00 
   140002e56:	48 33 cc             	xor    %rsp,%rcx
   140002e59:	e8 52 8b 01 00       	call   0x14001b9b0
   140002e5e:	4c 8d 9c 24 60 03 00 	lea    0x360(%rsp),%r11
   140002e65:	00 
   140002e66:	49 8b 5b 10          	mov    0x10(%r11),%rbx
   140002e6a:	49 8b 73 18          	mov    0x18(%r11),%rsi
   140002e6e:	49 8b e3             	mov    %r11,%rsp
   140002e71:	5f                   	pop    %rdi
   140002e72:	c3                   	ret
   140002e73:	48 8d 8c 24 98 00 00 	lea    0x98(%rsp),%rcx
   140002e7a:	00 
   140002e7b:	e8 c0 6b 00 00       	call   0x140009a40
   140002e80:	48 8b d0             	mov    %rax,%rdx
   140002e83:	45 33 c0             	xor    %r8d,%r8d
   140002e86:	48 8d 8c 24 30 01 00 	lea    0x130(%rsp),%rcx
   140002e8d:	00 
   140002e8e:	ff 15 24 d2 03 00    	call   *0x3d224(%rip)        # 0x1400400b8
   140002e94:	c7 84 24 c0 00 00 00 	movl   $0x68,0xc0(%rsp)
   140002e9b:	68 00 00 00 
   140002e9f:	0f 57 c0             	xorps  %xmm0,%xmm0
   140002ea2:	0f 11 84 24 c8 00 00 	movups %xmm0,0xc8(%rsp)
   140002ea9:	00 
   140002eaa:	0f 11 84 24 d8 00 00 	movups %xmm0,0xd8(%rsp)
   140002eb1:	00 
   140002eb2:	0f 11 84 24 e8 00 00 	movups %xmm0,0xe8(%rsp)
   140002eb9:	00 
   140002eba:	0f 11 84 24 f8 00 00 	movups %xmm0,0xf8(%rsp)
   140002ec1:	00 
   140002ec2:	0f 11 84 24 08 01 00 	movups %xmm0,0x108(%rsp)
   140002ec9:	00 
   140002eca:	0f 11 84 24 18 01 00 	movups %xmm0,0x118(%rsp)
   140002ed1:	00 
   140002ed2:	48 8d 8c 24 98 00 00 	lea    0x98(%rsp),%rcx
   140002ed9:	00 
   140002eda:	e8 61 6b 00 00       	call   0x140009a40
   140002edf:	48 8b c8             	mov    %rax,%rcx
   140002ee2:	48 8d 44 24 58       	lea    0x58(%rsp),%rax
   140002ee7:	48 89 44 24 48       	mov    %rax,0x48(%rsp)
   140002eec:	48 8d 84 24 c0 00 00 	lea    0xc0(%rsp),%rax
   140002ef3:	00 
   140002ef4:	48 89 44 24 40       	mov    %rax,0x40(%rsp)
   140002ef9:	48 89 74 24 38       	mov    %rsi,0x38(%rsp)
   140002efe:	48 89 74 24 30       	mov    %rsi,0x30(%rsp)
   140002f03:	89 74 24 28          	mov    %esi,0x28(%rsp)
   140002f07:	89 74 24 20          	mov    %esi,0x20(%rsp)
   140002f0b:	45 33 c9             	xor    %r9d,%r9d
   140002f0e:	45 33 c0             	xor    %r8d,%r8d
   140002f11:	33 d2                	xor    %edx,%edx
   140002f13:	ff 15 67 d1 03 00    	call   *0x3d167(%rip)        # 0x140040080
   140002f19:	48 8b 4c 24 58       	mov    0x58(%rsp),%rcx
   140002f1e:	ff 15 24 d1 03 00    	call   *0x3d124(%rip)        # 0x140040048
   140002f24:	48 8b 4c 24 60       	mov    0x60(%rsp),%rcx
   140002f29:	ff 15 19 d1 03 00    	call   *0x3d119(%rip)        # 0x140040048
   140002f2f:	33 c9                	xor    %ecx,%ecx
   140002f31:	ff 15 29 d1 03 00    	call   *0x3d129(%rip)        # 0x140040060
   140002f37:	cc                   	int3
   140002f38:	e8 23 e4 ff ff       	call   0x140001360
   140002f3d:	cc                   	int3
   140002f3e:	cc                   	int3
   140002f3f:	cc                   	int3
   140002f40:	48 89 5c 24 20       	mov    %rbx,0x20(%rsp)
   140002f45:	55                   	push   %rbp
   140002f46:	56                   	push   %rsi
   140002f47:	57                   	push   %rdi
   140002f48:	41 54                	push   %r12
   140002f4a:	41 55                	push   %r13
   140002f4c:	41 56                	push   %r14
   140002f4e:	41 57                	push   %r15
   140002f50:	48 8d ac 24 30 fe ff 	lea    -0x1d0(%rsp),%rbp
   140002f57:	ff 
   140002f58:	48 81 ec d0 02 00 00 	sub    $0x2d0,%rsp
   140002f5f:	48 8b 05 9a 41 05 00 	mov    0x5419a(%rip),%rax        # 0x140057100
   140002f66:	48 33 c4             	xor    %rsp,%rax
   140002f69:	48 89 85 c0 01 00 00 	mov    %rax,0x1c0(%rbp)
   140002f70:	49 8b d8             	mov    %r8,%rbx
   140002f73:	48 8b f2             	mov    %rdx,%rsi
   140002f76:	4c 8b f9             	mov    %rcx,%r15
   140002f79:	48 89 55 a0          	mov    %rdx,-0x60(%rbp)
   140002f7d:	45 33 e4             	xor    %r12d,%r12d
   140002f80:	44 89 64 24 50       	mov    %r12d,0x50(%rsp)
   140002f85:	49 8b 48 10          	mov    0x10(%r8),%rcx
   140002f89:	49 be ff ff ff ff ff 	movabs $0x7fffffffffffffff,%r14
   140002f90:	ff ff 7f 
   140002f93:	49 8b c6             	mov    %r14,%rax
   140002f96:	48 2b c1             	sub    %rcx,%rax
   140002f99:	48 83 f8 16          	cmp    $0x16,%rax
   140002f9d:	0f 82 25 06 00 00    	jb     0x1400035c8
   140002fa3:	4c 8b cb             	mov    %rbx,%r9
   140002fa6:	49 83 78 18 0f       	cmpq   $0xf,0x18(%r8)
   140002fab:	76 03                	jbe    0x140002fb0
   140002fad:	4d 8b 08             	mov    (%r8),%r9
   140002fb0:	48 c7 44 24 30 16 00 	movq   $0x16,0x30(%rsp)
   140002fb7:	00 00 
   140002fb9:	48 8d 05 18 b2 04 00 	lea    0x4b218(%rip),%rax        # 0x14004e1d8
   140002fc0:	48 89 44 24 28       	mov    %rax,0x28(%rsp)
   140002fc5:	48 89 4c 24 20       	mov    %rcx,0x20(%rsp)
   140002fca:	48 8d 4d 00          	lea    0x0(%rbp),%rcx
   140002fce:	e8 ad ac 00 00       	call   0x14000dc80
   140002fd3:	41 bd 02 00 00 00    	mov    $0x2,%r13d
   140002fd9:	44 89 6c 24 50       	mov    %r13d,0x50(%rsp)
   140002fde:	48 8b 4b 10          	mov    0x10(%rbx),%rcx
   140002fe2:	49 8b c6             	mov    %r14,%rax
   140002fe5:	48 2b c1             	sub    %rcx,%rax
   140002fe8:	48 83 f8 0e          	cmp    $0xe,%rax
   140002fec:	0f 82 dc 05 00 00    	jb     0x1400035ce
   140002ff2:	4c 8b cb             	mov    %rbx,%r9
   140002ff5:	48 83 7b 18 0f       	cmpq   $0xf,0x18(%rbx)
   140002ffa:	76 03                	jbe    0x140002fff
   140002ffc:	4c 8b 0b             	mov    (%rbx),%r9
   140002fff:	48 c7 44 24 30 0e 00 	movq   $0xe,0x30(%rsp)
   140003006:	00 00 
   140003008:	48 8d 05 e1 b1 04 00 	lea    0x4b1e1(%rip),%rax        # 0x14004e1f0
   14000300f:	48 89 44 24 28       	mov    %rax,0x28(%rsp)
   140003014:	48 89 4c 24 20       	mov    %rcx,0x20(%rsp)
   140003019:	48 8d 4d 20          	lea    0x20(%rbp),%rcx
   14000301d:	e8 5e ac 00 00       	call   0x14000dc80
   140003022:	bf 06 00 00 00       	mov    $0x6,%edi
   140003027:	89 7c 24 50          	mov    %edi,0x50(%rsp)
   14000302b:	48 8b 4b 10          	mov    0x10(%rbx),%rcx
   14000302f:	49 8b c6             	mov    %r14,%rax
   140003032:	48 2b c1             	sub    %rcx,%rax
   140003035:	48 83 f8 07          	cmp    $0x7,%rax
   140003039:	0f 82 95 05 00 00    	jb     0x1400035d4
   14000303f:	48 83 7b 18 0f       	cmpq   $0xf,0x18(%rbx)
   140003044:	76 03                	jbe    0x140003049
   140003046:	48 8b 1b             	mov    (%rbx),%rbx
   140003049:	48 c7 44 24 30 07 00 	movq   $0x7,0x30(%rsp)
   140003050:	00 00 
   140003052:	48 8d 05 a7 b1 04 00 	lea    0x4b1a7(%rip),%rax        # 0x14004e200
   140003059:	48 89 44 24 28       	mov    %rax,0x28(%rsp)
   14000305e:	48 89 4c 24 20       	mov    %rcx,0x20(%rsp)
   140003063:	4c 8b cb             	mov    %rbx,%r9
   140003066:	48 8b ce             	mov    %rsi,%rcx
   140003069:	e8 12 ac 00 00       	call   0x14000dc80
   14000306e:	c7 44 24 50 0f 00 00 	movl   $0xf,0x50(%rsp)
   140003075:	00 
   140003076:	33 d2                	xor    %edx,%edx
   140003078:	41 b8 08 01 00 00    	mov    $0x108,%r8d
   14000307e:	48 8d 8d b0 00 00 00 	lea    0xb0(%rbp),%rcx
   140003085:	e8 e6 ac 03 00       	call   0x14003dd70
   14000308a:	41 b8 20 00 00 00    	mov    $0x20,%r8d
   140003090:	48 8d 55 00          	lea    0x0(%rbp),%rdx
   140003094:	48 8d 8d b0 00 00 00 	lea    0xb0(%rbp),%rcx
   14000309b:	e8 50 6c 00 00       	call   0x140009cf0
   1400030a0:	90                   	nop
   1400030a1:	0f 57 c9             	xorps  %xmm1,%xmm1
   1400030a4:	f3 0f 7f 4d c8       	movdqu %xmm1,-0x38(%rbp)
   1400030a9:	4c 89 65 d8          	mov    %r12,-0x28(%rbp)
   1400030ad:	44 89 65 c0          	mov    %r12d,-0x40(%rbp)
   1400030b1:	49 8d 9f a0 00 00 00 	lea    0xa0(%r15),%rbx
   1400030b8:	48 8b cb             	mov    %rbx,%rcx
   1400030bb:	48 83 7b 18 0f       	cmpq   $0xf,0x18(%rbx)
   1400030c0:	76 03                	jbe    0x1400030c5
   1400030c2:	48 8b 0b             	mov    (%rbx),%rcx
   1400030c5:	4c 89 64 24 30       	mov    %r12,0x30(%rsp)
   1400030ca:	4c 89 64 24 28       	mov    %r12,0x28(%rsp)
   1400030cf:	48 8d 45 c0          	lea    -0x40(%rbp),%rax
   1400030d3:	48 89 44 24 20       	mov    %rax,0x20(%rsp)
   1400030d8:	45 33 c9             	xor    %r9d,%r9d
   1400030db:	33 d2                	xor    %edx,%edx
   1400030dd:	41 b8 01 00 00 00    	mov    $0x1,%r8d
   1400030e3:	ff 15 3f cf 03 00    	call   *0x3cf3f(%rip)        # 0x140040028
   1400030e9:	8b 55 c0             	mov    -0x40(%rbp),%edx
   1400030ec:	48 8d 4d c8          	lea    -0x38(%rbp),%rcx
   1400030f0:	e8 1b 98 00 00       	call   0x14000c910
   1400030f5:	48 83 7b 18 0f       	cmpq   $0xf,0x18(%rbx)
   1400030fa:	76 03                	jbe    0x1400030ff
   1400030fc:	48 8b 1b             	mov    (%rbx),%rbx
   1400030ff:	4c 89 64 24 30       	mov    %r12,0x30(%rsp)
   140003104:	4c 89 64 24 28       	mov    %r12,0x28(%rsp)
   140003109:	48 8d 45 c0          	lea    -0x40(%rbp),%rax
   14000310d:	48 89 44 24 20       	mov    %rax,0x20(%rsp)
   140003112:	4c 8b 4d c8          	mov    -0x38(%rbp),%r9
   140003116:	33 d2                	xor    %edx,%edx
   140003118:	41 b8 01 00 00 00    	mov    $0x1,%r8d
   14000311e:	48 8b cb             	mov    %rbx,%rcx
   140003121:	ff 15 01 cf 03 00    	call   *0x3cf01(%rip)        # 0x140040028
   140003127:	4c 8b 45 d0          	mov    -0x30(%rbp),%r8
   14000312b:	48 8b 55 c8          	mov    -0x38(%rbp),%rdx
   14000312f:	4c 2b c2             	sub    %rdx,%r8
   140003132:	48 8d 8d b0 00 00 00 	lea    0xb0(%rbp),%rcx
   140003139:	e8 f2 82 00 00       	call   0x14000b430
   14000313e:	48 8d 8d b8 00 00 00 	lea    0xb8(%rbp),%rcx
   140003145:	e8 c6 ae 00 00       	call   0x14000e010
   14000314a:	48 85 c0             	test   %rax,%rax
   14000314d:	75 36                	jne    0x140003185
   14000314f:	48 8b 85 b0 00 00 00 	mov    0xb0(%rbp),%rax
   140003156:	48 63 48 04          	movslq 0x4(%rax),%rcx
   14000315a:	48 83 bc 0d f8 00 00 	cmpq   $0x0,0xf8(%rbp,%rcx,1)
   140003161:	00 00 
   140003163:	41 0f 45 fd          	cmovne %r13d,%edi
   140003167:	0b bc 0d c0 00 00 00 	or     0xc0(%rbp,%rcx,1),%edi
   14000316e:	83 e7 17             	and    $0x17,%edi
   140003171:	89 bc 0d c0 00 00 00 	mov    %edi,0xc0(%rbp,%rcx,1)
   140003178:	23 bc 0d c4 00 00 00 	and    0xc4(%rbp,%rcx,1),%edi
   14000317f:	0f 85 55 04 00 00    	jne    0x1400035da
   140003185:	48 8b ce             	mov    %rsi,%rcx
   140003188:	48 83 7e 18 0f       	cmpq   $0xf,0x18(%rsi)
   14000318d:	76 03                	jbe    0x140003192
   14000318f:	48 8b 0e             	mov    (%rsi),%rcx
   140003192:	33 d2                	xor    %edx,%edx
   140003194:	ff 15 ee ce 03 00    	call   *0x3ceee(%rip)        # 0x140040088
   14000319a:	c7 45 40 68 00 00 00 	movl   $0x68,0x40(%rbp)
   1400031a1:	0f 57 c0             	xorps  %xmm0,%xmm0
   1400031a4:	0f 11 45 48          	movups %xmm0,0x48(%rbp)
   1400031a8:	0f 11 45 58          	movups %xmm0,0x58(%rbp)
   1400031ac:	0f 11 45 68          	movups %xmm0,0x68(%rbp)
   1400031b0:	0f 11 45 78          	movups %xmm0,0x78(%rbp)
   1400031b4:	0f 11 85 88 00 00 00 	movups %xmm0,0x88(%rbp)
   1400031bb:	0f 11 85 98 00 00 00 	movups %xmm0,0x98(%rbp)
   1400031c2:	c7 45 7c 01 00 00 00 	movl   $0x1,0x7c(%rbp)
   1400031c9:	66 44 89 a5 80 00 00 	mov    %r12w,0x80(%rbp)
   1400031d0:	00 
   1400031d1:	48 8b 45 10          	mov    0x10(%rbp),%rax
   1400031d5:	4c 2b f0             	sub    %rax,%r14
   1400031d8:	49 83 fe 0f          	cmp    $0xf,%r14
   1400031dc:	0f 82 e0 03 00 00    	jb     0x1400035c2
   1400031e2:	4c 8d 4d 00          	lea    0x0(%rbp),%r9
   1400031e6:	48 83 7d 18 0f       	cmpq   $0xf,0x18(%rbp)
   1400031eb:	4c 0f 47 4d 00       	cmova  0x0(%rbp),%r9
   1400031f0:	48 c7 44 24 30 0f 00 	movq   $0xf,0x30(%rsp)
   1400031f7:	00 00 
   1400031f9:	48 8d 0d 10 b0 04 00 	lea    0x4b010(%rip),%rcx        # 0x14004e210
   140003200:	48 89 4c 24 28       	mov    %rcx,0x28(%rsp)
   140003205:	48 89 44 24 20       	mov    %rax,0x20(%rsp)
   14000320a:	48 8d 4c 24 78       	lea    0x78(%rsp),%rcx
   14000320f:	e8 6c aa 00 00       	call   0x14000dc80
   140003214:	c7 44 24 50 1f 00 00 	movl   $0x1f,0x50(%rsp)
   14000321b:	00 
   14000321c:	48 83 7e 18 0f       	cmpq   $0xf,0x18(%rsi)
   140003221:	76 05                	jbe    0x140003228
   140003223:	48 8b 16             	mov    (%rsi),%rdx
   140003226:	eb 03                	jmp    0x14000322b
   140003228:	48 8b d6             	mov    %rsi,%rdx
   14000322b:	4c 8b 46 10          	mov    0x10(%rsi),%r8
   14000322f:	48 8d 4c 24 78       	lea    0x78(%rsp),%rcx
   140003234:	e8 67 98 00 00       	call   0x14000caa0
   140003239:	0f 57 c0             	xorps  %xmm0,%xmm0
   14000323c:	0f 11 44 24 58       	movups %xmm0,0x58(%rsp)
   140003241:	4c 89 64 24 68       	mov    %r12,0x68(%rsp)
   140003246:	4c 89 64 24 70       	mov    %r12,0x70(%rsp)
   14000324b:	0f 10 00             	movups (%rax),%xmm0
   14000324e:	0f 11 44 24 58       	movups %xmm0,0x58(%rsp)
   140003253:	0f 10 48 10          	movups 0x10(%rax),%xmm1
   140003257:	0f 11 4c 24 68       	movups %xmm1,0x68(%rsp)
   14000325c:	4c 89 60 10          	mov    %r12,0x10(%rax)
   140003260:	48 c7 40 18 0f 00 00 	movq   $0xf,0x18(%rax)
   140003267:	00 
   140003268:	c6 00 00             	movb   $0x0,(%rax)
   14000326b:	c7 44 24 50 3f 00 00 	movl   $0x3f,0x50(%rsp)
   140003272:	00 
   140003273:	41 b8 01 00 00 00    	mov    $0x1,%r8d
   140003279:	48 8d 15 88 af 04 00 	lea    0x4af88(%rip),%rdx        # 0x14004e208
   140003280:	48 8d 4c 24 58       	lea    0x58(%rsp),%rcx
   140003285:	e8 16 98 00 00       	call   0x14000caa0
   14000328a:	0f 57 c0             	xorps  %xmm0,%xmm0
   14000328d:	0f 11 45 e0          	movups %xmm0,-0x20(%rbp)
   140003291:	4c 89 65 f0          	mov    %r12,-0x10(%rbp)
   140003295:	4c 89 65 f8          	mov    %r12,-0x8(%rbp)
   140003299:	0f 10 00             	movups (%rax),%xmm0
   14000329c:	0f 11 45 e0          	movups %xmm0,-0x20(%rbp)
   1400032a0:	0f 10 48 10          	movups 0x10(%rax),%xmm1
   1400032a4:	0f 11 4d f0          	movups %xmm1,-0x10(%rbp)
   1400032a8:	4c 89 60 10          	mov    %r12,0x10(%rax)
   1400032ac:	48 c7 40 18 0f 00 00 	movq   $0xf,0x18(%rax)
   1400032b3:	00 
   1400032b4:	c6 00 00             	movb   $0x0,(%rax)
   1400032b7:	c7 44 24 50 7f 00 00 	movl   $0x7f,0x50(%rsp)
   1400032be:	00 
   1400032bf:	48 8b 54 24 70       	mov    0x70(%rsp),%rdx
   1400032c4:	48 83 fa 0f          	cmp    $0xf,%rdx
   1400032c8:	76 37                	jbe    0x140003301
   1400032ca:	48 8b 44 24 58       	mov    0x58(%rsp),%rax
   1400032cf:	48 ff c2             	inc    %rdx
   1400032d2:	48 81 fa 00 10 00 00 	cmp    $0x1000,%rdx
   1400032d9:	72 1e                	jb     0x1400032f9
   1400032db:	48 8b 48 f8          	mov    -0x8(%rax),%rcx
   1400032df:	48 2b c1             	sub    %rcx,%rax
   1400032e2:	48 83 e8 08          	sub    $0x8,%rax
   1400032e6:	48 83 f8 1f          	cmp    $0x1f,%rax
   1400032ea:	77 06                	ja     0x1400032f2
   1400032ec:	48 83 c2 27          	add    $0x27,%rdx
   1400032f0:	eb 0a                	jmp    0x1400032fc
   1400032f2:	b9 05 00 00 00       	mov    $0x5,%ecx
   1400032f7:	cd 29                	int    $0x29
   1400032f9:	48 8b c8             	mov    %rax,%rcx
   1400032fc:	e8 cf 86 01 00       	call   0x14001b9d0
   140003301:	4c 89 64 24 68       	mov    %r12,0x68(%rsp)
   140003306:	48 c7 44 24 70 0f 00 	movq   $0xf,0x70(%rsp)
   14000330d:	00 00 
   14000330f:	c6 44 24 58 00       	movb   $0x0,0x58(%rsp)
   140003314:	48 8b 55 90          	mov    -0x70(%rbp),%rdx
   140003318:	48 83 fa 0f          	cmp    $0xf,%rdx
   14000331c:	76 34                	jbe    0x140003352
   14000331e:	48 8b 44 24 78       	mov    0x78(%rsp),%rax
   140003323:	48 ff c2             	inc    %rdx
   140003326:	48 81 fa 00 10 00 00 	cmp    $0x1000,%rdx
   14000332d:	72 1b                	jb     0x14000334a
   14000332f:	48 8b 48 f8          	mov    -0x8(%rax),%rcx
   140003333:	48 2b c1             	sub    %rcx,%rax
   140003336:	48 83 e8 08          	sub    $0x8,%rax
   14000333a:	48 83 f8 1f          	cmp    $0x1f,%rax
   14000333e:	0f 87 cf 00 00 00    	ja     0x140003413
   140003344:	48 83 c2 27          	add    $0x27,%rdx
   140003348:	eb 03                	jmp    0x14000334d
   14000334a:	48 8b c8             	mov    %rax,%rcx
   14000334d:	e8 7e 86 01 00       	call   0x14001b9d0
   140003352:	48 8d 55 e0          	lea    -0x20(%rbp),%rdx
   140003356:	48 83 7d f8 0f       	cmpq   $0xf,-0x8(%rbp)
   14000335b:	48 0f 47 55 e0       	cmova  -0x20(%rbp),%rdx
   140003360:	48 8d 45 a8          	lea    -0x58(%rbp),%rax
   140003364:	48 89 44 24 48       	mov    %rax,0x48(%rsp)
   140003369:	48 8d 45 40          	lea    0x40(%rbp),%rax
   14000336d:	48 89 44 24 40       	mov    %rax,0x40(%rsp)
   140003372:	4c 89 64 24 38       	mov    %r12,0x38(%rsp)
   140003377:	4c 89 64 24 30       	mov    %r12,0x30(%rsp)
   14000337c:	c7 44 24 28 00 00 00 	movl   $0x8000000,0x28(%rsp)
   140003383:	08 
   140003384:	44 89 64 24 20       	mov    %r12d,0x20(%rsp)
   140003389:	45 33 c9             	xor    %r9d,%r9d
   14000338c:	45 33 c0             	xor    %r8d,%r8d
   14000338f:	33 c9                	xor    %ecx,%ecx
   140003391:	ff 15 e9 cc 03 00    	call   *0x3cce9(%rip)        # 0x140040080
   140003397:	ba 60 ea 00 00       	mov    $0xea60,%edx
   14000339c:	48 8b 4d a8          	mov    -0x58(%rbp),%rcx
   1400033a0:	ff 15 2a cd 03 00    	call   *0x3cd2a(%rip)        # 0x1400400d0
   1400033a6:	48 8b 4d a8          	mov    -0x58(%rbp),%rcx
   1400033aa:	ff 15 98 cc 03 00    	call   *0x3cc98(%rip)        # 0x140040048
   1400033b0:	48 8b 4d b0          	mov    -0x50(%rbp),%rcx
   1400033b4:	ff 15 8e cc 03 00    	call   *0x3cc8e(%rip)        # 0x140040048
   1400033ba:	48 8d 4d 00          	lea    0x0(%rbp),%rcx
   1400033be:	48 83 7d 18 0f       	cmpq   $0xf,0x18(%rbp)
   1400033c3:	48 0f 47 4d 00       	cmova  0x0(%rbp),%rcx
   1400033c8:	ff 15 e2 cc 03 00    	call   *0x3cce2(%rip)        # 0x1400400b0
   1400033ce:	48 8d 4d 20          	lea    0x20(%rbp),%rcx
   1400033d2:	48 83 7d 38 0f       	cmpq   $0xf,0x38(%rbp)
   1400033d7:	48 0f 47 4d 20       	cmova  0x20(%rbp),%rcx
   1400033dc:	ff 15 ce cc 03 00    	call   *0x3ccce(%rip)        # 0x1400400b0
   1400033e2:	48 8b 55 f8          	mov    -0x8(%rbp),%rdx
   1400033e6:	48 83 fa 0f          	cmp    $0xf,%rdx
   1400033ea:	76 36                	jbe    0x140003422
   1400033ec:	48 8b 45 e0          	mov    -0x20(%rbp),%rax
   1400033f0:	48 ff c2             	inc    %rdx
   1400033f3:	48 81 fa 00 10 00 00 	cmp    $0x1000,%rdx
   1400033fa:	72 1e                	jb     0x14000341a
   1400033fc:	48 8b 48 f8          	mov    -0x8(%rax),%rcx
   140003400:	48 2b c1             	sub    %rcx,%rax
   140003403:	48 83 e8 08          	sub    $0x8,%rax
   140003407:	48 83 f8 1f          	cmp    $0x1f,%rax
   14000340b:	77 06                	ja     0x140003413
   14000340d:	48 83 c2 27          	add    $0x27,%rdx
   140003411:	eb 0a                	jmp    0x14000341d
   140003413:	b9 05 00 00 00       	mov    $0x5,%ecx
   140003418:	cd 29                	int    $0x29
   14000341a:	48 8b c8             	mov    %rax,%rcx
   14000341d:	e8 ae 85 01 00       	call   0x14001b9d0
   140003422:	4c 89 65 f0          	mov    %r12,-0x10(%rbp)
   140003426:	48 c7 45 f8 0f 00 00 	movq   $0xf,-0x8(%rbp)
   14000342d:	00 
   14000342e:	c6 45 e0 00          	movb   $0x0,-0x20(%rbp)
   140003432:	48 8b 45 c8          	mov    -0x38(%rbp),%rax
   140003436:	48 85 c0             	test   %rax,%rax
   140003439:	74 42                	je     0x14000347d
   14000343b:	48 8b 55 d8          	mov    -0x28(%rbp),%rdx
   14000343f:	48 2b d0             	sub    %rax,%rdx
   140003442:	48 81 fa 00 10 00 00 	cmp    $0x1000,%rdx
   140003449:	72 1e                	jb     0x140003469
   14000344b:	48 8b 48 f8          	mov    -0x8(%rax),%rcx
   14000344f:	48 2b c1             	sub    %rcx,%rax
   140003452:	48 83 e8 08          	sub    $0x8,%rax
   140003456:	48 83 f8 1f          	cmp    $0x1f,%rax
   14000345a:	77 06                	ja     0x140003462
   14000345c:	48 83 c2 27          	add    $0x27,%rdx
   140003460:	eb 0a                	jmp    0x14000346c
   140003462:	b9 05 00 00 00       	mov    $0x5,%ecx
   140003467:	cd 29                	int    $0x29
   140003469:	48 8b c8             	mov    %rax,%rcx
   14000346c:	e8 5f 85 01 00       	call   0x14001b9d0
   140003471:	0f 57 c0             	xorps  %xmm0,%xmm0
   140003474:	f3 0f 7f 45 c8       	movdqu %xmm0,-0x38(%rbp)
   140003479:	4c 89 65 d8          	mov    %r12,-0x28(%rbp)
   14000347d:	48 8b 85 b0 00 00 00 	mov    0xb0(%rbp),%rax
   140003484:	48 63 48 04          	movslq 0x4(%rax),%rcx
   140003488:	48 8d 05 61 b7 04 00 	lea    0x4b761(%rip),%rax        # 0x14004ebf0
   14000348f:	48 89 84 0d b0 00 00 	mov    %rax,0xb0(%rbp,%rcx,1)
   140003496:	00 
   140003497:	48 8b 85 b0 00 00 00 	mov    0xb0(%rbp),%rax
   14000349e:	48 63 48 04          	movslq 0x4(%rax),%rcx
   1400034a2:	8d 91 58 ff ff ff    	lea    -0xa8(%rcx),%edx
   1400034a8:	89 94 0d ac 00 00 00 	mov    %edx,0xac(%rbp,%rcx,1)
   1400034af:	48 8d 8d b8 00 00 00 	lea    0xb8(%rbp),%rcx
   1400034b6:	e8 b5 77 00 00       	call   0x14000ac70
   1400034bb:	48 8b 85 b0 00 00 00 	mov    0xb0(%rbp),%rax
   1400034c2:	48 63 48 04          	movslq 0x4(%rax),%rcx
   1400034c6:	48 8d 05 bb b9 04 00 	lea    0x4b9bb(%rip),%rax        # 0x14004ee88
   1400034cd:	48 89 84 0d b0 00 00 	mov    %rax,0xb0(%rbp,%rcx,1)
   1400034d4:	00 
   1400034d5:	48 8b 85 b0 00 00 00 	mov    0xb0(%rbp),%rax
   1400034dc:	48 63 48 04          	movslq 0x4(%rax),%rcx
   1400034e0:	8d 51 f0             	lea    -0x10(%rcx),%edx
   1400034e3:	89 94 0d ac 00 00 00 	mov    %edx,0xac(%rbp,%rcx,1)
   1400034ea:	48 8d 05 37 b6 04 00 	lea    0x4b637(%rip),%rax        # 0x14004eb28
   1400034f1:	48 89 85 58 01 00 00 	mov    %rax,0x158(%rbp)
   1400034f8:	48 8d 8d 58 01 00 00 	lea    0x158(%rbp),%rcx
   1400034ff:	e8 b4 73 01 00       	call   0x14001a8b8
   140003504:	90                   	nop
   140003505:	48 8b 55 38          	mov    0x38(%rbp),%rdx
   140003509:	48 83 fa 0f          	cmp    $0xf,%rdx
   14000350d:	76 36                	jbe    0x140003545
   14000350f:	48 8b 45 20          	mov    0x20(%rbp),%rax
   140003513:	48 ff c2             	inc    %rdx
   140003516:	48 81 fa 00 10 00 00 	cmp    $0x1000,%rdx
   14000351d:	72 1e                	jb     0x14000353d
   14000351f:	48 8b 48 f8          	mov    -0x8(%rax),%rcx
   140003523:	48 2b c1             	sub    %rcx,%rax
   140003526:	48 83 e8 08          	sub    $0x8,%rax
   14000352a:	48 83 f8 1f          	cmp    $0x1f,%rax
   14000352e:	77 06                	ja     0x140003536
   140003530:	48 83 c2 27          	add    $0x27,%rdx
   140003534:	eb 0a                	jmp    0x140003540
   140003536:	b9 05 00 00 00       	mov    $0x5,%ecx
   14000353b:	cd 29                	int    $0x29
   14000353d:	48 8b c8             	mov    %rax,%rcx
   140003540:	e8 8b 84 01 00       	call   0x14001b9d0
   140003545:	4c 89 65 30          	mov    %r12,0x30(%rbp)
   140003549:	48 c7 45 38 0f 00 00 	movq   $0xf,0x38(%rbp)
   140003550:	00 
   140003551:	c6 45 20 00          	movb   $0x0,0x20(%rbp)
   140003555:	48 8b 55 18          	mov    0x18(%rbp),%rdx
   140003559:	48 83 fa 0f          	cmp    $0xf,%rdx
   14000355d:	76 36                	jbe    0x140003595
   14000355f:	48 8b 45 00          	mov    0x0(%rbp),%rax
   140003563:	48 ff c2             	inc    %rdx
   140003566:	48 81 fa 00 10 00 00 	cmp    $0x1000,%rdx
   14000356d:	72 1e                	jb     0x14000358d
   14000356f:	48 8b 48 f8          	mov    -0x8(%rax),%rcx
   140003573:	48 2b c1             	sub    %rcx,%rax
   140003576:	48 83 e8 08          	sub    $0x8,%rax
   14000357a:	48 83 f8 1f          	cmp    $0x1f,%rax
   14000357e:	77 06                	ja     0x140003586
   140003580:	48 83 c2 27          	add    $0x27,%rdx
   140003584:	eb 0a                	jmp    0x140003590
   140003586:	b9 05 00 00 00       	mov    $0x5,%ecx
   14000358b:	cd 29                	int    $0x29
   14000358d:	48 8b c8             	mov    %rax,%rcx
   140003590:	e8 3b 84 01 00       	call   0x14001b9d0
   140003595:	48 8b c6             	mov    %rsi,%rax
   140003598:	48 8b 8d c0 01 00 00 	mov    0x1c0(%rbp),%rcx
   14000359f:	48 33 cc             	xor    %rsp,%rcx
   1400035a2:	e8 09 84 01 00       	call   0x14001b9b0
   1400035a7:	48 8b 9c 24 28 03 00 	mov    0x328(%rsp),%rbx
   1400035ae:	00 
   1400035af:	48 81 c4 d0 02 00 00 	add    $0x2d0,%rsp
   1400035b6:	41 5f                	pop    %r15
   1400035b8:	41 5e                	pop    %r14
   1400035ba:	41 5d                	pop    %r13
   1400035bc:	41 5c                	pop    %r12
   1400035be:	5f                   	pop    %rdi
   1400035bf:	5e                   	pop    %rsi
   1400035c0:	5d                   	pop    %rbp
   1400035c1:	c3                   	ret
   1400035c2:	e8 99 dd ff ff       	call   0x140001360
   1400035c7:	90                   	nop
   1400035c8:	e8 93 dd ff ff       	call   0x140001360
   1400035cd:	90                   	nop
   1400035ce:	e8 8d dd ff ff       	call   0x140001360
   1400035d3:	90                   	nop
   1400035d4:	e8 87 dd ff ff       	call   0x140001360
   1400035d9:	90                   	nop
   1400035da:	40 f6 c7 04          	test   $0x4,%dil
   1400035de:	74 09                	je     0x1400035e9
   1400035e0:	48 8d 1d 09 aa 04 00 	lea    0x4aa09(%rip),%rbx        # 0x14004dff0
   1400035e7:	eb 16                	jmp    0x1400035ff
   1400035e9:	40 f6 c7 02          	test   $0x2,%dil
   1400035ed:	48 8d 1d 14 aa 04 00 	lea    0x4aa14(%rip),%rbx        # 0x14004e008
   1400035f4:	48 8d 05 25 aa 04 00 	lea    0x4aa25(%rip),%rax        # 0x14004e020
   1400035fb:	48 0f 44 d8          	cmove  %rax,%rbx
   1400035ff:	ba 01 00 00 00       	mov    $0x1,%edx
   140003604:	48 8d 4c 24 58       	lea    0x58(%rsp),%rcx
   140003609:	e8 22 de ff ff       	call   0x140001430
   14000360e:	4c 8b c0             	mov    %rax,%r8
   140003611:	48 8b d3             	mov    %rbx,%rdx
   140003614:	48 8d 4c 24 78       	lea    0x78(%rsp),%rcx
   140003619:	e8 f2 e7 ff ff       	call   0x140001e10
   14000361e:	48 8d 15 a3 28 05 00 	lea    0x528a3(%rip),%rdx        # 0x140055ec8
   140003625:	48 8d 4c 24 78       	lea    0x78(%rsp),%rcx
   14000362a:	e8 a1 a1 01 00       	call   0x14001d7d0
   14000362f:	cc                   	int3
   140003630:	48 8b c4             	mov    %rsp,%rax
   140003633:	48 89 58 08          	mov    %rbx,0x8(%rax)
   140003637:	48 89 70 18          	mov    %rsi,0x18(%rax)
   14000363b:	55                   	push   %rbp
   14000363c:	57                   	push   %rdi
   14000363d:	41 54                	push   %r12
   14000363f:	41 56                	push   %r14
   140003641:	41 57                	push   %r15
   140003643:	48 8d a8 88 fd ff ff 	lea    -0x278(%rax),%rbp
   14000364a:	48 81 ec 50 03 00 00 	sub    $0x350,%rsp
   140003651:	0f 29 70 c8          	movaps %xmm6,-0x38(%rax)
   140003655:	48 8b 05 a4 3a 05 00 	mov    0x53aa4(%rip),%rax        # 0x140057100
   14000365c:	48 33 c4             	xor    %rsp,%rax
   14000365f:	48 89 85 30 02 00 00 	mov    %rax,0x230(%rbp)
   140003666:	48 8b f2             	mov    %rdx,%rsi
   140003669:	48 89 55 88          	mov    %rdx,-0x78(%rbp)
   14000366d:	45 33 e4             	xor    %r12d,%r12d
   140003670:	44 89 64 24 40       	mov    %r12d,0x40(%rsp)
   140003675:	0f 57 c0             	xorps  %xmm0,%xmm0
   140003678:	0f 11 02             	movups %xmm0,(%rdx)
   14000367b:	4c 89 22             	mov    %r12,(%rdx)
   14000367e:	4c 89 62 08          	mov    %r12,0x8(%rdx)
   140003682:	4c 89 62 10          	mov    %r12,0x10(%rdx)
   140003686:	c7 44 24 40 01 00 00 	movl   $0x1,0x40(%rsp)
   14000368d:	00 
   14000368e:	48 8d 85 20 01 00 00 	lea    0x120(%rbp),%rax
   140003695:	48 89 44 24 20       	mov    %rax,0x20(%rsp)
   14000369a:	45 33 c9             	xor    %r9d,%r9d
   14000369d:	45 33 c0             	xor    %r8d,%r8d
   1400036a0:	ba 1c 00 00 00       	mov    $0x1c,%edx
   1400036a5:	33 c9                	xor    %ecx,%ecx
   1400036a7:	ff 15 03 cd 03 00    	call   *0x3cd03(%rip)        # 0x1400403b0
   1400036ad:	0f 57 c0             	xorps  %xmm0,%xmm0
   1400036b0:	0f 11 44 24 48       	movups %xmm0,0x48(%rsp)
   1400036b5:	4c 89 64 24 58       	mov    %r12,0x58(%rsp)
   1400036ba:	4c 89 64 24 60       	mov    %r12,0x60(%rsp)
   1400036bf:	48 8d 8d 20 01 00 00 	lea    0x120(%rbp),%rcx
   1400036c6:	e8 d5 aa 03 00       	call   0x14003e1a0
   1400036cb:	4c 8b c0             	mov    %rax,%r8
   1400036ce:	48 8d 95 20 01 00 00 	lea    0x120(%rbp),%rdx
   1400036d5:	48 8d 4c 24 48       	lea    0x48(%rsp),%rcx
   1400036da:	e8 a1 89 00 00       	call   0x14000c080
   1400036df:	90                   	nop
   1400036e0:	41 b8 18 00 00 00    	mov    $0x18,%r8d
   1400036e6:	48 8d 15 33 ab 04 00 	lea    0x4ab33(%rip),%rdx        # 0x14004e220
   1400036ed:	48 8d 4c 24 48       	lea    0x48(%rsp),%rcx
   1400036f2:	e8 a9 93 00 00       	call   0x14000caa0
   1400036f7:	0f 10 00             	movups (%rax),%xmm0
   1400036fa:	0f 11 45 b8          	movups %xmm0,-0x48(%rbp)
   1400036fe:	0f 10 70 10          	movups 0x10(%rax),%xmm6
   140003702:	0f 11 75 c8          	movups %xmm6,-0x38(%rbp)
   140003706:	4c 89 60 10          	mov    %r12,0x10(%rax)
   14000370a:	48 c7 40 18 0f 00 00 	movq   $0xf,0x18(%rax)
   140003711:	00 
   140003712:	44 88 20             	mov    %r12b,(%rax)
   140003715:	c7 44 24 40 03 00 00 	movl   $0x3,0x40(%rsp)
   14000371c:	00 
   14000371d:	48 8b 54 24 60       	mov    0x60(%rsp),%rdx
   140003722:	48 83 fa 0f          	cmp    $0xf,%rdx
   140003726:	76 34                	jbe    0x14000375c
   140003728:	48 8b 44 24 48       	mov    0x48(%rsp),%rax
   14000372d:	48 ff c2             	inc    %rdx
   140003730:	48 81 fa 00 10 00 00 	cmp    $0x1000,%rdx
   140003737:	72 1b                	jb     0x140003754
   140003739:	48 8b 48 f8          	mov    -0x8(%rax),%rcx
   14000373d:	48 2b c1             	sub    %rcx,%rax
   140003740:	48 83 e8 08          	sub    $0x8,%rax
   140003744:	48 83 f8 1f          	cmp    $0x1f,%rax
   140003748:	0f 87 40 02 00 00    	ja     0x14000398e
   14000374e:	48 83 c2 27          	add    $0x27,%rdx
   140003752:	eb 03                	jmp    0x140003757
   140003754:	48 8b c8             	mov    %rax,%rcx
   140003757:	e8 74 82 01 00       	call   0x14001b9d0
   14000375c:	4c 89 64 24 58       	mov    %r12,0x58(%rsp)
   140003761:	48 c7 44 24 60 0f 00 	movq   $0xf,0x60(%rsp)
   140003768:	00 00 
   14000376a:	c6 44 24 48 00       	movb   $0x0,0x48(%rsp)
   14000376f:	66 48 0f 7e f1       	movq   %xmm6,%rcx
   140003774:	48 b8 ff ff ff ff ff 	movabs $0x7fffffffffffffff,%rax
   14000377b:	ff ff 7f 
   14000377e:	48 2b c1             	sub    %rcx,%rax
   140003781:	48 83 f8 02          	cmp    $0x2,%rax
   140003785:	0f 82 4c 02 00 00    	jb     0x1400039d7
   14000378b:	4c 8d 4d b8          	lea    -0x48(%rbp),%r9
   14000378f:	48 83 7d d0 0f       	cmpq   $0xf,-0x30(%rbp)
   140003794:	4c 0f 47 4d b8       	cmova  -0x48(%rbp),%r9
   140003799:	48 c7 44 24 30 02 00 	movq   $0x2,0x30(%rsp)
   1400037a0:	00 00 
   1400037a2:	48 8d 05 93 aa 04 00 	lea    0x4aa93(%rip),%rax        # 0x14004e23c
   1400037a9:	48 89 44 24 28       	mov    %rax,0x28(%rsp)
   1400037ae:	48 89 4c 24 20       	mov    %rcx,0x20(%rsp)
   1400037b3:	48 8d 4c 24 68       	lea    0x68(%rsp),%rcx
   1400037b8:	e8 c3 a4 00 00       	call   0x14000dc80
   1400037bd:	c7 44 24 40 07 00 00 	movl   $0x7,0x40(%rsp)
   1400037c4:	00 
   1400037c5:	48 8d 4c 24 68       	lea    0x68(%rsp),%rcx
   1400037ca:	48 83 7d 80 0f       	cmpq   $0xf,-0x80(%rbp)
   1400037cf:	48 0f 47 4c 24 68    	cmova  0x68(%rsp),%rcx
   1400037d5:	48 8d 55 e0          	lea    -0x20(%rbp),%rdx
   1400037d9:	ff 15 71 c9 03 00    	call   *0x3c971(%rip)        # 0x140040150
   1400037df:	4c 8b f8             	mov    %rax,%r15
   1400037e2:	48 8b 55 80          	mov    -0x80(%rbp),%rdx
   1400037e6:	48 83 fa 0f          	cmp    $0xf,%rdx
   1400037ea:	76 34                	jbe    0x140003820
   1400037ec:	48 8b 44 24 68       	mov    0x68(%rsp),%rax
   1400037f1:	48 ff c2             	inc    %rdx
   1400037f4:	48 81 fa 00 10 00 00 	cmp    $0x1000,%rdx
   1400037fb:	72 1b                	jb     0x140003818
   1400037fd:	48 8b 48 f8          	mov    -0x8(%rax),%rcx
   140003801:	48 2b c1             	sub    %rcx,%rax
   140003804:	48 83 e8 08          	sub    $0x8,%rax
   140003808:	48 83 f8 1f          	cmp    $0x1f,%rax
   14000380c:	0f 87 7c 01 00 00    	ja     0x14000398e
   140003812:	48 83 c2 27          	add    $0x27,%rdx
   140003816:	eb 03                	jmp    0x14000381b
   140003818:	48 8b c8             	mov    %rax,%rcx
   14000381b:	e8 b0 81 01 00       	call   0x14001b9d0
   140003820:	4c 89 64 24 78       	mov    %r12,0x78(%rsp)
   140003825:	48 c7 45 80 0f 00 00 	movq   $0xf,-0x80(%rbp)
   14000382c:	00 
   14000382d:	c6 44 24 68 00       	movb   $0x0,0x68(%rsp)
   140003832:	49 83 ff ff          	cmp    $0xffffffffffffffff,%r15
   140003836:	0f 84 21 01 00 00    	je     0x14000395d
   14000383c:	0f 1f 40 00          	nopl   0x0(%rax)
   140003840:	f6 45 e0 10          	testb  $0x10,-0x20(%rbp)
   140003844:	0f 84 f4 00 00 00    	je     0x14000393e
   14000384a:	0f 57 c0             	xorps  %xmm0,%xmm0
   14000384d:	0f 11 45 98          	movups %xmm0,-0x68(%rbp)
   140003851:	4c 89 65 a8          	mov    %r12,-0x58(%rbp)
   140003855:	4c 89 65 b0          	mov    %r12,-0x50(%rbp)
   140003859:	48 8d 4d 0c          	lea    0xc(%rbp),%rcx
   14000385d:	e8 3e a9 03 00       	call   0x14003e1a0
   140003862:	4c 8b c0             	mov    %rax,%r8
   140003865:	48 8d 55 0c          	lea    0xc(%rbp),%rdx
   140003869:	48 8d 4d 98          	lea    -0x68(%rbp),%rcx
   14000386d:	e8 0e 88 00 00       	call   0x14000c080
   140003872:	90                   	nop
   140003873:	4c 8b 75 a8          	mov    -0x58(%rbp),%r14
   140003877:	48 8d 4d 98          	lea    -0x68(%rbp),%rcx
   14000387b:	48 8b 5d b0          	mov    -0x50(%rbp),%rbx
   14000387f:	48 83 fb 0f          	cmp    $0xf,%rbx
   140003883:	48 0f 47 4d 98       	cmova  -0x68(%rbp),%rcx
   140003888:	49 83 fe 07          	cmp    $0x7,%r14
   14000388c:	75 13                	jne    0x1400038a1
   14000388e:	4d 8b c6             	mov    %r14,%r8
   140003891:	48 8d 15 a8 a9 04 00 	lea    0x4a9a8(%rip),%rdx        # 0x14004e240
   140003898:	e8 d3 a3 03 00       	call   0x14003dc70
   14000389d:	85 c0                	test   %eax,%eax
   14000389f:	74 39                	je     0x1400038da
   1400038a1:	48 8d 7d 98          	lea    -0x68(%rbp),%rdi
   1400038a5:	48 83 fb 0f          	cmp    $0xf,%rbx
   1400038a9:	48 0f 47 7d 98       	cmova  -0x68(%rbp),%rdi
   1400038ae:	49 83 fe 07          	cmp    $0x7,%r14
   1400038b2:	72 56                	jb     0x14000390a
   1400038b4:	4a 8d 1c 37          	lea    (%rdi,%r14,1),%rbx
   1400038b8:	41 b9 07 00 00 00    	mov    $0x7,%r9d
   1400038be:	4c 8d 05 83 a9 04 00 	lea    0x4a983(%rip),%r8        # 0x14004e248
   1400038c5:	48 8b d3             	mov    %rbx,%rdx
   1400038c8:	48 8b cf             	mov    %rdi,%rcx
   1400038cb:	e8 20 64 01 00       	call   0x140019cf0
   1400038d0:	48 3b c3             	cmp    %rbx,%rax
   1400038d3:	74 31                	je     0x140003906
   1400038d5:	48 3b c7             	cmp    %rdi,%rax
   1400038d8:	75 2c                	jne    0x140003906
   1400038da:	48 8b 46 08          	mov    0x8(%rsi),%rax
   1400038de:	48 3b 46 10          	cmp    0x10(%rsi),%rax
   1400038e2:	74 13                	je     0x1400038f7
   1400038e4:	48 8d 55 98          	lea    -0x68(%rbp),%rdx
   1400038e8:	48 8b c8             	mov    %rax,%rcx
   1400038eb:	e8 e0 62 00 00       	call   0x140009bd0
   1400038f0:	48 83 46 08 20       	addq   $0x20,0x8(%rsi)
   1400038f5:	eb 0f                	jmp    0x140003906
   1400038f7:	4c 8d 45 98          	lea    -0x68(%rbp),%r8
   1400038fb:	48 8b d0             	mov    %rax,%rdx
   1400038fe:	48 8b ce             	mov    %rsi,%rcx
   140003901:	e8 ba ad 00 00       	call   0x14000e6c0
   140003906:	48 8b 5d b0          	mov    -0x50(%rbp),%rbx
   14000390a:	48 83 fb 0f          	cmp    $0xf,%rbx
   14000390e:	76 2e                	jbe    0x14000393e
   140003910:	48 8d 53 01          	lea    0x1(%rbx),%rdx
   140003914:	48 8b 4d 98          	mov    -0x68(%rbp),%rcx
   140003918:	48 81 fa 00 10 00 00 	cmp    $0x1000,%rdx
   14000391f:	72 18                	jb     0x140003939
   140003921:	48 8b 41 f8          	mov    -0x8(%rcx),%rax
   140003925:	48 2b c8             	sub    %rax,%rcx
   140003928:	48 83 e9 08          	sub    $0x8,%rcx
   14000392c:	48 83 f9 1f          	cmp    $0x1f,%rcx
   140003930:	77 5c                	ja     0x14000398e
   140003932:	48 83 c2 27          	add    $0x27,%rdx
   140003936:	48 8b c8             	mov    %rax,%rcx
   140003939:	e8 92 80 01 00       	call   0x14001b9d0
   14000393e:	48 8d 55 e0          	lea    -0x20(%rbp),%rdx
   140003942:	49 8b cf             	mov    %r15,%rcx
   140003945:	ff 15 fd c7 03 00    	call   *0x3c7fd(%rip)        # 0x140040148
   14000394b:	85 c0                	test   %eax,%eax
   14000394d:	0f 85 ed fe ff ff    	jne    0x140003840
   140003953:	49 8b cf             	mov    %r15,%rcx
   140003956:	ff 15 e4 c7 03 00    	call   *0x3c7e4(%rip)        # 0x140040140
   14000395c:	90                   	nop
   14000395d:	48 8b 55 d0          	mov    -0x30(%rbp),%rdx
   140003961:	48 83 fa 0f          	cmp    $0xf,%rdx
   140003965:	76 3d                	jbe    0x1400039a4
   140003967:	48 8b 45 b8          	mov    -0x48(%rbp),%rax
   14000396b:	48 ff c2             	inc    %rdx
   14000396e:	48 81 fa 00 10 00 00 	cmp    $0x1000,%rdx
   140003975:	72 25                	jb     0x14000399c
   140003977:	48 8b 48 f8          	mov    -0x8(%rax),%rcx
   14000397b:	48 2b c1             	sub    %rcx,%rax
   14000397e:	48 83 e8 08          	sub    $0x8,%rax
   140003982:	48 83 f8 1f          	cmp    $0x1f,%rax
   140003986:	77 0d                	ja     0x140003995
   140003988:	48 83 c2 27          	add    $0x27,%rdx
   14000398c:	eb 11                	jmp    0x14000399f
   14000398e:	b9 05 00 00 00       	mov    $0x5,%ecx
   140003993:	cd 29                	int    $0x29
   140003995:	b9 05 00 00 00       	mov    $0x5,%ecx
   14000399a:	cd 29                	int    $0x29
   14000399c:	48 8b c8             	mov    %rax,%rcx
   14000399f:	e8 2c 80 01 00       	call   0x14001b9d0
   1400039a4:	48 8b c6             	mov    %rsi,%rax
   1400039a7:	48 8b 8d 30 02 00 00 	mov    0x230(%rbp),%rcx
   1400039ae:	48 33 cc             	xor    %rsp,%rcx
   1400039b1:	e8 fa 7f 01 00       	call   0x14001b9b0
   1400039b6:	4c 8d 9c 24 50 03 00 	lea    0x350(%rsp),%r11
   1400039bd:	00 
   1400039be:	49 8b 5b 30          	mov    0x30(%r11),%rbx
   1400039c2:	49 8b 73 40          	mov    0x40(%r11),%rsi
   1400039c6:	41 0f 28 73 f0       	movaps -0x10(%r11),%xmm6
   1400039cb:	49 8b e3             	mov    %r11,%rsp
   1400039ce:	41 5f                	pop    %r15
   1400039d0:	41 5e                	pop    %r14
   1400039d2:	41 5c                	pop    %r12
   1400039d4:	5f                   	pop    %rdi
   1400039d5:	5d                   	pop    %rbp
   1400039d6:	c3                   	ret
   1400039d7:	e8 84 d9 ff ff       	call   0x140001360
   1400039dc:	cc                   	int3
   1400039dd:	cc                   	int3
   1400039de:	cc                   	int3
   1400039df:	cc                   	int3
   1400039e0:	48 89 5c 24 08       	mov    %rbx,0x8(%rsp)
   1400039e5:	55                   	push   %rbp
   1400039e6:	56                   	push   %rsi
   1400039e7:	57                   	push   %rdi
   1400039e8:	41 54                	push   %r12
   1400039ea:	41 55                	push   %r13
   1400039ec:	41 56                	push   %r14
   1400039ee:	41 57                	push   %r15
   1400039f0:	48 8d 6c 24 80       	lea    -0x80(%rsp),%rbp
   1400039f5:	48 81 ec 80 01 00 00 	sub    $0x180,%rsp
   1400039fc:	48 8b 05 fd 36 05 00 	mov    0x536fd(%rip),%rax        # 0x140057100
   140003a03:	48 33 c4             	xor    %rsp,%rax
   140003a06:	48 89 45 70          	mov    %rax,0x70(%rbp)
   140003a0a:	4d 8b f0             	mov    %r8,%r14
   140003a0d:	48 8b f2             	mov    %rdx,%rsi
   140003a10:	48 89 55 80          	mov    %rdx,-0x80(%rbp)
   140003a14:	45 33 e4             	xor    %r12d,%r12d
   140003a17:	49 8b 48 08          	mov    0x8(%r8),%rcx
   140003a1b:	49 8b 10             	mov    (%r8),%rdx
   140003a1e:	4c 8b c1             	mov    %rcx,%r8
   140003a21:	4c 2b c2             	sub    %rdx,%r8
   140003a24:	49 83 f8 03          	cmp    $0x3,%r8
   140003a28:	0f 82 4d 02 00 00    	jb     0x140003c7b
   140003a2e:	80 3a 76             	cmpb   $0x76,(%rdx)
   140003a31:	0f 85 44 02 00 00    	jne    0x140003c7b
   140003a37:	80 7a 01 31          	cmpb   $0x31,0x1(%rdx)
   140003a3b:	0f 85 3a 02 00 00    	jne    0x140003c7b
   140003a41:	0f b6 42 02          	movzbl 0x2(%rdx),%eax
   140003a45:	2c 30                	sub    $0x30,%al
   140003a47:	3c 01                	cmp    $0x1,%al
   140003a49:	0f 87 2c 02 00 00    	ja     0x140003c7b
   140003a4f:	0f 57 c0             	xorps  %xmm0,%xmm0
   140003a52:	49 83 f8 0f          	cmp    $0xf,%r8
   140003a56:	0f 82 f3 04 00 00    	jb     0x140003f4f
   140003a5c:	48 8d 7a 03          	lea    0x3(%rdx),%rdi
   140003a60:	f3 0f 7f 45 80       	movdqu %xmm0,-0x80(%rbp)
   140003a65:	4c 89 65 90          	mov    %r12,-0x70(%rbp)
   140003a69:	b9 0c 00 00 00       	mov    $0xc,%ecx
   140003a6e:	e8 75 7f 01 00       	call   0x14001b9e8
   140003a73:	48 89 45 80          	mov    %rax,-0x80(%rbp)
   140003a77:	48 89 45 88          	mov    %rax,-0x78(%rbp)
   140003a7b:	48 8d 58 0c          	lea    0xc(%rax),%rbx
   140003a7f:	48 89 5d 90          	mov    %rbx,-0x70(%rbp)
   140003a83:	41 b8 0c 00 00 00    	mov    $0xc,%r8d
   140003a89:	48 8b d7             	mov    %rdi,%rdx
   140003a8c:	48 8b c8             	mov    %rax,%rcx
   140003a8f:	e8 3c 9b 03 00       	call   0x14003d5d0
   140003a94:	48 89 5d 88          	mov    %rbx,-0x78(%rbp)
   140003a98:	0f 57 c0             	xorps  %xmm0,%xmm0
   140003a9b:	49 8b 7e 08          	mov    0x8(%r14),%rdi
   140003a9f:	48 83 c7 f0          	add    $0xfffffffffffffff0,%rdi
   140003aa3:	4d 8b 3e             	mov    (%r14),%r15
   140003aa6:	49 83 c7 0f          	add    $0xf,%r15
   140003aaa:	f3 0f 7f 44 24 68    	movdqu %xmm0,0x68(%rsp)
   140003ab0:	4c 89 64 24 78       	mov    %r12,0x78(%rsp)
   140003ab5:	49 2b ff             	sub    %r15,%rdi
   140003ab8:	74 76                	je     0x140003b30
   140003aba:	48 b8 ff ff ff ff ff 	movabs $0x7fffffffffffffff,%rax
   140003ac1:	ff ff 7f 
   140003ac4:	48 3b f8             	cmp    %rax,%rdi
   140003ac7:	0f 87 cf 04 00 00    	ja     0x140003f9c
   140003acd:	48 81 ff 00 10 00 00 	cmp    $0x1000,%rdi
   140003ad4:	72 2c                	jb     0x140003b02
   140003ad6:	48 8d 4f 27          	lea    0x27(%rdi),%rcx
   140003ada:	48 3b cf             	cmp    %rdi,%rcx
   140003add:	0f 86 b3 04 00 00    	jbe    0x140003f96
   140003ae3:	e8 00 7f 01 00       	call   0x14001b9e8
   140003ae8:	48 8b c8             	mov    %rax,%rcx
   140003aeb:	48 85 c0             	test   %rax,%rax
   140003aee:	0f 84 1d 01 00 00    	je     0x140003c11
   140003af4:	48 83 c0 27          	add    $0x27,%rax
   140003af8:	48 83 e0 e0          	and    $0xffffffffffffffe0,%rax
   140003afc:	48 89 48 f8          	mov    %rcx,-0x8(%rax)
   140003b00:	eb 08                	jmp    0x140003b0a
   140003b02:	48 8b cf             	mov    %rdi,%rcx
   140003b05:	e8 de 7e 01 00       	call   0x14001b9e8
   140003b0a:	48 89 44 24 68       	mov    %rax,0x68(%rsp)
   140003b0f:	48 89 44 24 70       	mov    %rax,0x70(%rsp)
   140003b14:	48 8d 1c 38          	lea    (%rax,%rdi,1),%rbx
   140003b18:	48 89 5c 24 78       	mov    %rbx,0x78(%rsp)
   140003b1d:	4c 8b c7             	mov    %rdi,%r8
   140003b20:	49 8b d7             	mov    %r15,%rdx
   140003b23:	48 8b c8             	mov    %rax,%rcx
   140003b26:	e8 a5 9a 03 00       	call   0x14003d5d0
   140003b2b:	48 89 5c 24 70       	mov    %rbx,0x70(%rsp)
   140003b30:	0f 57 c0             	xorps  %xmm0,%xmm0
   140003b33:	49 8b 7e 08          	mov    0x8(%r14),%rdi
   140003b37:	f3 0f 7f 45 98       	movdqu %xmm0,-0x68(%rbp)
   140003b3c:	4c 89 65 a8          	mov    %r12,-0x58(%rbp)
   140003b40:	b9 10 00 00 00       	mov    $0x10,%ecx
   140003b45:	e8 9e 7e 01 00       	call   0x14001b9e8
   140003b4a:	48 89 45 98          	mov    %rax,-0x68(%rbp)
   140003b4e:	48 89 45 a0          	mov    %rax,-0x60(%rbp)
   140003b52:	48 8d 58 10          	lea    0x10(%rax),%rbx
   140003b56:	48 89 5d a8          	mov    %rbx,-0x58(%rbp)
   140003b5a:	41 b8 10 00 00 00    	mov    $0x10,%r8d
   140003b60:	48 8d 57 f0          	lea    -0x10(%rdi),%rdx
   140003b64:	48 8b c8             	mov    %rax,%rcx
   140003b67:	e8 64 9a 03 00       	call   0x14003d5d0
   140003b6c:	48 89 5d a0          	mov    %rbx,-0x60(%rbp)
   140003b70:	0f 57 c0             	xorps  %xmm0,%xmm0
   140003b73:	0f 11 06             	movups %xmm0,(%rsi)
   140003b76:	4c 89 66 10          	mov    %r12,0x10(%rsi)
   140003b7a:	4c 89 66 18          	mov    %r12,0x18(%rsi)
   140003b7e:	41 b8 13 00 00 00    	mov    $0x13,%r8d
   140003b84:	48 8d 15 c5 a6 04 00 	lea    0x4a6c5(%rip),%rdx        # 0x14004e250
   140003b8b:	48 8b ce             	mov    %rsi,%rcx
   140003b8e:	e8 ed 84 00 00       	call   0x14000c080
   140003b93:	90                   	nop
   140003b94:	48 8b 45 98          	mov    -0x68(%rbp),%rax
   140003b98:	48 85 c0             	test   %rax,%rax
   140003b9b:	74 42                	je     0x140003bdf
   140003b9d:	48 8b 55 a8          	mov    -0x58(%rbp),%rdx
   140003ba1:	48 2b d0             	sub    %rax,%rdx
   140003ba4:	48 81 fa 00 10 00 00 	cmp    $0x1000,%rdx
   140003bab:	72 1e                	jb     0x140003bcb
   140003bad:	48 8b 48 f8          	mov    -0x8(%rax),%rcx
   140003bb1:	48 2b c1             	sub    %rcx,%rax
   140003bb4:	48 83 e8 08          	sub    $0x8,%rax
   140003bb8:	48 83 f8 1f          	cmp    $0x1f,%rax
   140003bbc:	77 06                	ja     0x140003bc4
   140003bbe:	48 83 c2 27          	add    $0x27,%rdx
   140003bc2:	eb 0a                	jmp    0x140003bce
   140003bc4:	b9 05 00 00 00       	mov    $0x5,%ecx
   140003bc9:	cd 29                	int    $0x29
   140003bcb:	48 8b c8             	mov    %rax,%rcx
   140003bce:	e8 fd 7d 01 00       	call   0x14001b9d0
   140003bd3:	0f 57 c0             	xorps  %xmm0,%xmm0
   140003bd6:	f3 0f 7f 45 98       	movdqu %xmm0,-0x68(%rbp)
   140003bdb:	4c 89 65 a8          	mov    %r12,-0x58(%rbp)
   140003bdf:	48 8b 44 24 68       	mov    0x68(%rsp),%rax
   140003be4:	48 85 c0             	test   %rax,%rax
   140003be7:	74 45                	je     0x140003c2e
   140003be9:	48 8b 54 24 78       	mov    0x78(%rsp),%rdx
   140003bee:	48 2b d0             	sub    %rax,%rdx
   140003bf1:	48 81 fa 00 10 00 00 	cmp    $0x1000,%rdx
   140003bf8:	72 1e                	jb     0x140003c18
   140003bfa:	48 8b 48 f8          	mov    -0x8(%rax),%rcx
   140003bfe:	48 2b c1             	sub    %rcx,%rax
   140003c01:	48 83 e8 08          	sub    $0x8,%rax
   140003c05:	48 83 f8 1f          	cmp    $0x1f,%rax
   140003c09:	77 06                	ja     0x140003c11
   140003c0b:	48 83 c2 27          	add    $0x27,%rdx
   140003c0f:	eb 0a                	jmp    0x140003c1b
   140003c11:	b9 05 00 00 00       	mov    $0x5,%ecx
   140003c16:	cd 29                	int    $0x29
   140003c18:	48 8b c8             	mov    %rax,%rcx
   140003c1b:	e8 b0 7d 01 00       	call   0x14001b9d0
   140003c20:	0f 57 c0             	xorps  %xmm0,%xmm0
   140003c23:	f3 0f 7f 44 24 68    	movdqu %xmm0,0x68(%rsp)
   140003c29:	4c 89 64 24 78       	mov    %r12,0x78(%rsp)
   140003c2e:	48 8b 45 80          	mov    -0x80(%rbp),%rax
   140003c32:	48 85 c0             	test   %rax,%rax
   140003c35:	0f 84 31 03 00 00    	je     0x140003f6c
   140003c3b:	48 8b 55 90          	mov    -0x70(%rbp),%rdx
   140003c3f:	48 2b d0             	sub    %rax,%rdx
   140003c42:	48 81 fa 00 10 00 00 	cmp    $0x1000,%rdx
   140003c49:	72 23                	jb     0x140003c6e
   140003c4b:	48 8b 48 f8          	mov    -0x8(%rax),%rcx
   140003c4f:	48 2b c1             	sub    %rcx,%rax
   140003c52:	48 83 e8 08          	sub    $0x8,%rax
   140003c56:	48 83 f8 1f          	cmp    $0x1f,%rax
   140003c5a:	0f 87 de 02 00 00    	ja     0x140003f3e
   140003c60:	48 83 c2 27          	add    $0x27,%rdx
   140003c64:	e8 67 7d 01 00       	call   0x14001b9d0
   140003c69:	e9 fe 02 00 00       	jmp    0x140003f6c
   140003c6e:	48 8b c8             	mov    %rax,%rcx
   140003c71:	e8 5a 7d 01 00       	call   0x14001b9d0
   140003c76:	e9 f1 02 00 00       	jmp    0x140003f6c
   140003c7b:	8b c2                	mov    %edx,%eax
   140003c7d:	48 89 55 a0          	mov    %rdx,-0x60(%rbp)
   140003c81:	2b ca                	sub    %edx,%ecx
   140003c83:	89 4d 98             	mov    %ecx,-0x68(%rbp)
   140003c86:	48 8d 45 80          	lea    -0x80(%rbp),%rax
   140003c8a:	48 89 44 24 30       	mov    %rax,0x30(%rsp)
   140003c8f:	44 89 64 24 28       	mov    %r12d,0x28(%rsp)
   140003c94:	4c 89 64 24 20       	mov    %r12,0x20(%rsp)
   140003c99:	45 33 c9             	xor    %r9d,%r9d
   140003c9c:	45 33 c0             	xor    %r8d,%r8d
   140003c9f:	33 d2                	xor    %edx,%edx
   140003ca1:	48 8d 4d 98          	lea    -0x68(%rbp),%rcx
   140003ca5:	ff 15 8d c3 03 00    	call   *0x3c38d(%rip)        # 0x140040038
   140003cab:	0f 57 c0             	xorps  %xmm0,%xmm0
   140003cae:	85 c0                	test   %eax,%eax
   140003cb0:	0f 84 99 02 00 00    	je     0x140003f4f
   140003cb6:	0f 11 45 b0          	movups %xmm0,-0x50(%rbp)
   140003cba:	4c 89 65 c0          	mov    %r12,-0x40(%rbp)
   140003cbe:	4c 89 65 c8          	mov    %r12,-0x38(%rbp)
   140003cc2:	44 8b 45 80          	mov    -0x80(%rbp),%r8d
   140003cc6:	48 8b 55 88          	mov    -0x78(%rbp),%rdx
   140003cca:	48 8d 4d b0          	lea    -0x50(%rbp),%rcx
   140003cce:	e8 ad 83 00 00       	call   0x14000c080
   140003cd3:	90                   	nop
   140003cd4:	48 8b 4d 88          	mov    -0x78(%rbp),%rcx
   140003cd8:	ff 15 7a c3 03 00    	call   *0x3c37a(%rip)        # 0x140040058
   140003cde:	0f 57 c0             	xorps  %xmm0,%xmm0
   140003ce1:	0f 11 44 24 48       	movups %xmm0,0x48(%rsp)
   140003ce6:	4c 89 64 24 58       	mov    %r12,0x58(%rsp)
   140003ceb:	b9 0f 00 00 00       	mov    $0xf,%ecx
   140003cf0:	48 89 4c 24 60       	mov    %rcx,0x60(%rsp)
   140003cf5:	c6 44 24 48 00       	movb   $0x0,0x48(%rsp)
   140003cfa:	4c 8b 6d c8          	mov    -0x38(%rbp),%r13
   140003cfe:	4c 8b 75 b0          	mov    -0x50(%rbp),%r14
   140003d02:	4c 3b e9             	cmp    %rcx,%r13
   140003d05:	76 0b                	jbe    0x140003d12
   140003d07:	49 8b d6             	mov    %r14,%rdx
   140003d0a:	4d 8b c6             	mov    %r14,%r8
   140003d0d:	49 8b fe             	mov    %r14,%rdi
   140003d10:	eb 0b                	jmp    0x140003d1d
   140003d12:	48 8d 55 b0          	lea    -0x50(%rbp),%rdx
   140003d16:	48 8b fa             	mov    %rdx,%rdi
   140003d19:	4c 8d 45 b0          	lea    -0x50(%rbp),%r8
   140003d1d:	4c 8b 7d c0          	mov    -0x40(%rbp),%r15
   140003d21:	4d 03 f8             	add    %r8,%r15
   140003d24:	49 3b d7             	cmp    %r15,%rdx
   140003d27:	74 60                	je     0x140003d89
   140003d29:	0f b6 5c 24 40       	movzbl 0x40(%rsp),%ebx
   140003d2e:	66 90                	xchg   %ax,%ax
   140003d30:	44 0f b6 0f          	movzbl (%rdi),%r9d
   140003d34:	41 8d 41 e0          	lea    -0x20(%r9),%eax
   140003d38:	3c 5e                	cmp    $0x5e,%al
   140003d3a:	77 45                	ja     0x140003d81
   140003d3c:	48 8b 54 24 58       	mov    0x58(%rsp),%rdx
   140003d41:	48 3b d1             	cmp    %rcx,%rdx
   140003d44:	73 23                	jae    0x140003d69
   140003d46:	48 8d 42 01          	lea    0x1(%rdx),%rax
   140003d4a:	48 89 44 24 58       	mov    %rax,0x58(%rsp)
   140003d4f:	48 8d 44 24 48       	lea    0x48(%rsp),%rax
   140003d54:	48 83 f9 0f          	cmp    $0xf,%rcx
   140003d58:	48 0f 47 44 24 48    	cmova  0x48(%rsp),%rax
   140003d5e:	44 88 0c 10          	mov    %r9b,(%rax,%rdx,1)
   140003d62:	c6 44 10 01 00       	movb   $0x0,0x1(%rax,%rdx,1)
   140003d67:	eb 13                	jmp    0x140003d7c
   140003d69:	44 0f b6 c3          	movzbl %bl,%r8d
   140003d6d:	ba 01 00 00 00       	mov    $0x1,%edx
   140003d72:	48 8d 4c 24 48       	lea    0x48(%rsp),%rcx
   140003d77:	e8 d4 b5 00 00       	call   0x14000f350
   140003d7c:	48 8b 4c 24 60       	mov    0x60(%rsp),%rcx
   140003d81:	48 ff c7             	inc    %rdi
   140003d84:	49 3b ff             	cmp    %r15,%rdi
   140003d87:	75 a7                	jne    0x140003d30
   140003d89:	0f 57 c0             	xorps  %xmm0,%xmm0
   140003d8c:	33 c0                	xor    %eax,%eax
   140003d8e:	0f 11 45 d0          	movups %xmm0,-0x30(%rbp)
   140003d92:	0f 11 45 e0          	movups %xmm0,-0x20(%rbp)
   140003d96:	48 89 45 f0          	mov    %rax,-0x10(%rbp)
   140003d9a:	48 8d 4d d0          	lea    -0x30(%rbp),%rcx
   140003d9e:	e8 bd 59 00 00       	call   0x140009760
   140003da3:	90                   	nop
   140003da4:	0f 57 c0             	xorps  %xmm0,%xmm0
   140003da7:	0f 11 45 00          	movups %xmm0,0x0(%rbp)
   140003dab:	0f 11 45 30          	movups %xmm0,0x30(%rbp)
   140003daf:	0f 11 45 50          	movups %xmm0,0x50(%rbp)
   140003db3:	0f 11 45 60          	movups %xmm0,0x60(%rbp)
   140003db7:	4c 89 65 00          	mov    %r12,0x0(%rbp)
   140003dbb:	c6 45 08 00          	movb   $0x0,0x8(%rbp)
   140003dbf:	66 0f 7f 45 10       	movdqa %xmm0,0x10(%rbp)
   140003dc4:	0f 57 c9             	xorps  %xmm1,%xmm1
   140003dc7:	66 0f 7f 4d 20       	movdqa %xmm1,0x20(%rbp)
   140003dcc:	4c 89 65 30          	mov    %r12,0x30(%rbp)
   140003dd0:	c6 45 38 00          	movb   $0x0,0x38(%rbp)
   140003dd4:	66 0f 7f 45 40       	movdqa %xmm0,0x40(%rbp)
   140003dd9:	c6 45 50 00          	movb   $0x0,0x50(%rbp)
   140003ddd:	4c 89 65 58          	mov    %r12,0x58(%rbp)
   140003de1:	4c 89 65 60          	mov    %r12,0x60(%rbp)
   140003de5:	c6 45 68 00          	movb   $0x0,0x68(%rbp)
   140003de9:	4c 8d 45 d0          	lea    -0x30(%rbp),%r8
   140003ded:	48 8d 55 00          	lea    0x0(%rbp),%rdx
   140003df1:	48 8d 4c 24 48       	lea    0x48(%rsp),%rcx
   140003df6:	e8 95 53 00 00       	call   0x140009190
   140003dfb:	84 c0                	test   %al,%al
   140003dfd:	74 61                	je     0x140003e60
   140003dff:	48 8b 45 18          	mov    0x18(%rbp),%rax
   140003e03:	48 3b 45 10          	cmp    0x10(%rbp),%rax
   140003e07:	48 8d 55 58          	lea    0x58(%rbp),%rdx
   140003e0b:	48 0f 45 55 10       	cmovne 0x10(%rbp),%rdx
   140003e10:	80 7a 10 00          	cmpb   $0x0,0x10(%rdx)
   140003e14:	74 0a                	je     0x140003e20
   140003e16:	0f 10 02             	movups (%rdx),%xmm0
   140003e19:	0f 11 44 24 68       	movups %xmm0,0x68(%rsp)
   140003e1e:	eb 09                	jmp    0x140003e29
   140003e20:	0f 57 c0             	xorps  %xmm0,%xmm0
   140003e23:	f3 0f 7f 44 24 68    	movdqu %xmm0,0x68(%rsp)
   140003e29:	0f 57 c0             	xorps  %xmm0,%xmm0
   140003e2c:	0f 11 06             	movups %xmm0,(%rsi)
   140003e2f:	4c 89 66 10          	mov    %r12,0x10(%rsi)
   140003e33:	4c 89 66 18          	mov    %r12,0x18(%rsi)
   140003e37:	48 8b 54 24 68       	mov    0x68(%rsp),%rdx
   140003e3c:	4c 8b 44 24 70       	mov    0x70(%rsp),%r8
   140003e41:	49 3b d0             	cmp    %r8,%rdx
   140003e44:	75 0d                	jne    0x140003e53
   140003e46:	48 c7 46 18 0f 00 00 	movq   $0xf,0x18(%rsi)
   140003e4d:	00 
   140003e4e:	c6 06 00             	movb   $0x0,(%rsi)
   140003e51:	eb 31                	jmp    0x140003e84
   140003e53:	4c 2b c2             	sub    %rdx,%r8
   140003e56:	48 8b ce             	mov    %rsi,%rcx
   140003e59:	e8 22 82 00 00       	call   0x14000c080
   140003e5e:	eb 24                	jmp    0x140003e84
   140003e60:	0f 10 44 24 48       	movups 0x48(%rsp),%xmm0
   140003e65:	0f 11 06             	movups %xmm0,(%rsi)
   140003e68:	0f 10 4c 24 58       	movups 0x58(%rsp),%xmm1
   140003e6d:	0f 11 4e 10          	movups %xmm1,0x10(%rsi)
   140003e71:	4c 89 64 24 58       	mov    %r12,0x58(%rsp)
   140003e76:	48 c7 44 24 60 0f 00 	movq   $0xf,0x60(%rsp)
   140003e7d:	00 00 
   140003e7f:	c6 44 24 48 00       	movb   $0x0,0x48(%rsp)
   140003e84:	48 8d 4d 10          	lea    0x10(%rbp),%rcx
   140003e88:	e8 83 56 00 00       	call   0x140009510
   140003e8d:	90                   	nop
   140003e8e:	48 8d 4d d0          	lea    -0x30(%rbp),%rcx
   140003e92:	e8 99 8e 00 00       	call   0x14000cd30
   140003e97:	48 8b 4d f0          	mov    -0x10(%rbp),%rcx
   140003e9b:	48 85 c9             	test   %rcx,%rcx
   140003e9e:	74 1a                	je     0x140003eba
   140003ea0:	48 8b 01             	mov    (%rcx),%rax
   140003ea3:	ff 50 10             	call   *0x10(%rax)
   140003ea6:	48 85 c0             	test   %rax,%rax
   140003ea9:	74 0f                	je     0x140003eba
   140003eab:	4c 8b 00             	mov    (%rax),%r8
   140003eae:	ba 01 00 00 00       	mov    $0x1,%edx
   140003eb3:	48 8b c8             	mov    %rax,%rcx
   140003eb6:	41 ff 10             	call   *(%r8)
   140003eb9:	90                   	nop
   140003eba:	48 8b 54 24 60       	mov    0x60(%rsp),%rdx
   140003ebf:	48 83 fa 0f          	cmp    $0xf,%rdx
   140003ec3:	76 37                	jbe    0x140003efc
   140003ec5:	48 8b 44 24 48       	mov    0x48(%rsp),%rax
   140003eca:	48 ff c2             	inc    %rdx
   140003ecd:	48 81 fa 00 10 00 00 	cmp    $0x1000,%rdx
   140003ed4:	72 1e                	jb     0x140003ef4
   140003ed6:	48 8b 48 f8          	mov    -0x8(%rax),%rcx
   140003eda:	48 2b c1             	sub    %rcx,%rax
   140003edd:	48 83 e8 08          	sub    $0x8,%rax
   140003ee1:	48 83 f8 1f          	cmp    $0x1f,%rax
   140003ee5:	77 06                	ja     0x140003eed
   140003ee7:	48 83 c2 27          	add    $0x27,%rdx
   140003eeb:	eb 0a                	jmp    0x140003ef7
   140003eed:	b9 05 00 00 00       	mov    $0x5,%ecx
   140003ef2:	cd 29                	int    $0x29
   140003ef4:	48 8b c8             	mov    %rax,%rcx
   140003ef7:	e8 d4 7a 01 00       	call   0x14001b9d0
   140003efc:	4c 89 64 24 58       	mov    %r12,0x58(%rsp)
   140003f01:	48 c7 44 24 60 0f 00 	movq   $0xf,0x60(%rsp)
   140003f08:	00 00 
   140003f0a:	c6 44 24 48 00       	movb   $0x0,0x48(%rsp)
   140003f0f:	49 83 fd 0f          	cmp    $0xf,%r13
   140003f13:	76 57                	jbe    0x140003f6c
   140003f15:	49 8d 55 01          	lea    0x1(%r13),%rdx
   140003f19:	48 81 fa 00 10 00 00 	cmp    $0x1000,%rdx
   140003f20:	72 23                	jb     0x140003f45
   140003f22:	49 8b 4e f8          	mov    -0x8(%r14),%rcx
   140003f26:	4c 2b f1             	sub    %rcx,%r14
   140003f29:	49 83 ee 08          	sub    $0x8,%r14
   140003f2d:	49 83 fe 1f          	cmp    $0x1f,%r14
   140003f31:	77 0b                	ja     0x140003f3e
   140003f33:	48 83 c2 27          	add    $0x27,%rdx
   140003f37:	e8 94 7a 01 00       	call   0x14001b9d0
   140003f3c:	eb 2e                	jmp    0x140003f6c
   140003f3e:	b9 05 00 00 00       	mov    $0x5,%ecx
   140003f43:	cd 29                	int    $0x29
   140003f45:	49 8b ce             	mov    %r14,%rcx
   140003f48:	e8 83 7a 01 00       	call   0x14001b9d0
   140003f4d:	eb 1d                	jmp    0x140003f6c
   140003f4f:	0f 11 06             	movups %xmm0,(%rsi)
   140003f52:	4c 89 66 10          	mov    %r12,0x10(%rsi)
   140003f56:	4c 89 66 18          	mov    %r12,0x18(%rsi)
   140003f5a:	45 33 c0             	xor    %r8d,%r8d
   140003f5d:	48 8d 15 89 a0 04 00 	lea    0x4a089(%rip),%rdx        # 0x14004dfed
   140003f64:	48 8b ce             	mov    %rsi,%rcx
   140003f67:	e8 14 81 00 00       	call   0x14000c080
   140003f6c:	48 8b c6             	mov    %rsi,%rax
   140003f6f:	48 8b 4d 70          	mov    0x70(%rbp),%rcx
   140003f73:	48 33 cc             	xor    %rsp,%rcx
   140003f76:	e8 35 7a 01 00       	call   0x14001b9b0
   140003f7b:	48 8b 9c 24 c0 01 00 	mov    0x1c0(%rsp),%rbx
   140003f82:	00 
   140003f83:	48 81 c4 80 01 00 00 	add    $0x180,%rsp
   140003f8a:	41 5f                	pop    %r15
   140003f8c:	41 5e                	pop    %r14
   140003f8e:	41 5d                	pop    %r13
   140003f90:	41 5c                	pop    %r12
   140003f92:	5f                   	pop    %rdi
   140003f93:	5e                   	pop    %rsi
   140003f94:	5d                   	pop    %rbp
   140003f95:	c3                   	ret
   140003f96:	e8 25 d3 ff ff       	call   0x1400012c0
   140003f9b:	90                   	nop
   140003f9c:	e8 5f e7 00 00       	call   0x140012700
   140003fa1:	cc                   	int3
   140003fa2:	cc                   	int3
   140003fa3:	cc                   	int3
   140003fa4:	cc                   	int3
   140003fa5:	cc                   	int3
   140003fa6:	cc                   	int3
   140003fa7:	cc                   	int3
   140003fa8:	cc                   	int3
   140003fa9:	cc                   	int3
   140003faa:	cc                   	int3
   140003fab:	cc                   	int3
   140003fac:	cc                   	int3
   140003fad:	cc                   	int3
   140003fae:	cc                   	int3
   140003faf:	cc                   	int3
   140003fb0:	40 55                	rex push %rbp
   140003fb2:	53                   	push   %rbx
   140003fb3:	56                   	push   %rsi
   140003fb4:	57                   	push   %rdi
   140003fb5:	41 54                	push   %r12
   140003fb7:	41 55                	push   %r13
   140003fb9:	41 56                	push   %r14
   140003fbb:	41 57                	push   %r15
   140003fbd:	48 8d ac 24 18 fc ff 	lea    -0x3e8(%rsp),%rbp
   140003fc4:	ff 
   140003fc5:	48 81 ec e8 04 00 00 	sub    $0x4e8,%rsp
   140003fcc:	0f 29 b4 24 d0 04 00 	movaps %xmm6,0x4d0(%rsp)
   140003fd3:	00 
   140003fd4:	48 8b 05 25 31 05 00 	mov    0x53125(%rip),%rax        # 0x140057100
   140003fdb:	48 33 c4             	xor    %rsp,%rax
   140003fde:	48 89 85 c0 03 00 00 	mov    %rax,0x3c0(%rbp)
   140003fe5:	48 8b da             	mov    %rdx,%rbx
   140003fe8:	45 33 ff             	xor    %r15d,%r15d
   140003feb:	48 8d 85 a0 01 00 00 	lea    0x1a0(%rbp),%rax
   140003ff2:	48 89 44 24 20       	mov    %rax,0x20(%rsp)
   140003ff7:	45 33 c9             	xor    %r9d,%r9d
   140003ffa:	45 33 c0             	xor    %r8d,%r8d
   140003ffd:	ba 1c 00 00 00       	mov    $0x1c,%edx
   140004002:	33 c9                	xor    %ecx,%ecx
   140004004:	ff 15 a6 c3 03 00    	call   *0x3c3a6(%rip)        # 0x1400403b0
   14000400a:	0f 57 c0             	xorps  %xmm0,%xmm0
   14000400d:	0f 11 44 24 40       	movups %xmm0,0x40(%rsp)
   140004012:	4c 89 7c 24 50       	mov    %r15,0x50(%rsp)
   140004017:	4c 89 7c 24 58       	mov    %r15,0x58(%rsp)
   14000401c:	48 8d 8d a0 01 00 00 	lea    0x1a0(%rbp),%rcx
   140004023:	e8 78 a1 03 00       	call   0x14003e1a0
   140004028:	4c 8b c0             	mov    %rax,%r8
   14000402b:	48 8d 95 a0 01 00 00 	lea    0x1a0(%rbp),%rdx
   140004032:	48 8d 4c 24 40       	lea    0x40(%rsp),%rcx
   140004037:	e8 44 80 00 00       	call   0x14000c080
   14000403c:	90                   	nop
   14000403d:	41 b8 18 00 00 00    	mov    $0x18,%r8d
   140004043:	48 8d 15 d6 a1 04 00 	lea    0x4a1d6(%rip),%rdx        # 0x14004e220
   14000404a:	48 8d 4c 24 40       	lea    0x40(%rsp),%rcx
   14000404f:	e8 4c 8a 00 00       	call   0x14000caa0
   140004054:	0f 10 00             	movups (%rax),%xmm0
   140004057:	0f 11 45 f8          	movups %xmm0,-0x8(%rbp)
   14000405b:	0f 10 70 10          	movups 0x10(%rax),%xmm6
   14000405f:	0f 11 75 08          	movups %xmm6,0x8(%rbp)
   140004063:	4c 89 78 10          	mov    %r15,0x10(%rax)
   140004067:	48 c7 40 18 0f 00 00 	movq   $0xf,0x18(%rax)
   14000406e:	00 
   14000406f:	44 88 38             	mov    %r15b,(%rax)
   140004072:	48 8b 54 24 58       	mov    0x58(%rsp),%rdx
   140004077:	48 83 fa 0f          	cmp    $0xf,%rdx
   14000407b:	76 34                	jbe    0x1400040b1
   14000407d:	48 8b 44 24 40       	mov    0x40(%rsp),%rax
   140004082:	48 ff c2             	inc    %rdx
   140004085:	48 81 fa 00 10 00 00 	cmp    $0x1000,%rdx
   14000408c:	72 1b                	jb     0x1400040a9
   14000408e:	48 8b 48 f8          	mov    -0x8(%rax),%rcx
   140004092:	48 2b c1             	sub    %rcx,%rax
   140004095:	48 83 e8 08          	sub    $0x8,%rax
   140004099:	48 83 f8 1f          	cmp    $0x1f,%rax
   14000409d:	0f 87 41 0a 00 00    	ja     0x140004ae4
   1400040a3:	48 83 c2 27          	add    $0x27,%rdx
   1400040a7:	eb 03                	jmp    0x1400040ac
   1400040a9:	48 8b c8             	mov    %rax,%rcx
   1400040ac:	e8 1f 79 01 00       	call   0x14001b9d0
   1400040b1:	4c 89 7c 24 50       	mov    %r15,0x50(%rsp)
   1400040b6:	48 c7 44 24 58 0f 00 	movq   $0xf,0x58(%rsp)
   1400040bd:	00 00 
   1400040bf:	c6 44 24 40 00       	movb   $0x0,0x40(%rsp)
   1400040c4:	66 48 0f 7e f1       	movq   %xmm6,%rcx
   1400040c9:	48 bf ff ff ff ff ff 	movabs $0x7fffffffffffffff,%rdi
   1400040d0:	ff ff 7f 
   1400040d3:	48 8b c7             	mov    %rdi,%rax
   1400040d6:	48 2b c1             	sub    %rcx,%rax
   1400040d9:	48 83 f8 0c          	cmp    $0xc,%rax
   1400040dd:	0f 82 82 0a 00 00    	jb     0x140004b65
   1400040e3:	4c 8d 4d f8          	lea    -0x8(%rbp),%r9
   1400040e7:	48 83 7d 10 0f       	cmpq   $0xf,0x10(%rbp)
   1400040ec:	4c 0f 47 4d f8       	cmova  -0x8(%rbp),%r9
   1400040f1:	48 c7 44 24 30 0c 00 	movq   $0xc,0x30(%rsp)
   1400040f8:	00 00 
   1400040fa:	48 8d 05 7f a1 04 00 	lea    0x4a17f(%rip),%rax        # 0x14004e280
   140004101:	48 89 44 24 28       	mov    %rax,0x28(%rsp)
   140004106:	48 89 4c 24 20       	mov    %rcx,0x20(%rsp)
   14000410b:	48 8d 4d 68          	lea    0x68(%rbp),%rcx
   14000410f:	e8 6c 9b 00 00       	call   0x14000dc80
   140004114:	90                   	nop
   140004115:	0f 57 c0             	xorps  %xmm0,%xmm0
   140004118:	33 c0                	xor    %eax,%eax
   14000411a:	0f 11 45 38          	movups %xmm0,0x38(%rbp)
   14000411e:	48 89 45 48          	mov    %rax,0x48(%rbp)
   140004122:	0f 11 45 98          	movups %xmm0,-0x68(%rbp)
   140004126:	4c 89 7d a8          	mov    %r15,-0x58(%rbp)
   14000412a:	4c 89 7d b0          	mov    %r15,-0x50(%rbp)
   14000412e:	41 b8 06 00 00 00    	mov    $0x6,%r8d
   140004134:	48 8d 15 55 a1 04 00 	lea    0x4a155(%rip),%rdx        # 0x14004e290
   14000413b:	48 8d 4d 98          	lea    -0x68(%rbp),%rcx
   14000413f:	e8 3c 7f 00 00       	call   0x14000c080
   140004144:	90                   	nop
   140004145:	4c 8d 4d f8          	lea    -0x8(%rbp),%r9
   140004149:	48 8d 55 38          	lea    0x38(%rbp),%rdx
   14000414d:	e8 0e 15 00 00       	call   0x140005660
   140004152:	90                   	nop
   140004153:	48 8b 55 b0          	mov    -0x50(%rbp),%rdx
   140004157:	48 83 fa 0f          	cmp    $0xf,%rdx
   14000415b:	76 36                	jbe    0x140004193
   14000415d:	48 8b 45 98          	mov    -0x68(%rbp),%rax
   140004161:	48 ff c2             	inc    %rdx
   140004164:	48 81 fa 00 10 00 00 	cmp    $0x1000,%rdx
   14000416b:	72 1e                	jb     0x14000418b
   14000416d:	48 8b 48 f8          	mov    -0x8(%rax),%rcx
   140004171:	48 2b c1             	sub    %rcx,%rax
   140004174:	48 83 e8 08          	sub    $0x8,%rax
   140004178:	48 83 f8 1f          	cmp    $0x1f,%rax
   14000417c:	77 06                	ja     0x140004184
   14000417e:	48 83 c2 27          	add    $0x27,%rdx
   140004182:	eb 0a                	jmp    0x14000418e
   140004184:	b9 05 00 00 00       	mov    $0x5,%ecx
   140004189:	cd 29                	int    $0x29
   14000418b:	48 8b c8             	mov    %rax,%rcx
   14000418e:	e8 3d 78 01 00       	call   0x14001b9d0
   140004193:	33 d2                	xor    %edx,%edx
   140004195:	41 b8 08 01 00 00    	mov    $0x108,%r8d
   14000419b:	48 8d 8d 90 00 00 00 	lea    0x90(%rbp),%rcx
   1400041a2:	e8 c9 9b 03 00       	call   0x14003dd70
   1400041a7:	41 b8 02 00 00 00    	mov    $0x2,%r8d
   1400041ad:	48 8b d3             	mov    %rbx,%rdx
   1400041b0:	48 8d 8d 90 00 00 00 	lea    0x90(%rbp),%rcx
   1400041b7:	e8 34 5b 00 00       	call   0x140009cf0
   1400041bc:	90                   	nop
   1400041bd:	48 8d 15 d4 a0 04 00 	lea    0x4a0d4(%rip),%rdx        # 0x14004e298
   1400041c4:	48 8d 8d 90 00 00 00 	lea    0x90(%rbp),%rcx
   1400041cb:	e8 e0 4c 00 00       	call   0x140008eb0
   1400041d0:	48 8d 15 e1 a0 04 00 	lea    0x4a0e1(%rip),%rdx        # 0x14004e2b8
   1400041d7:	48 8d 8d 90 00 00 00 	lea    0x90(%rbp),%rcx
   1400041de:	e8 cd 4c 00 00       	call   0x140008eb0
   1400041e3:	0f 57 c0             	xorps  %xmm0,%xmm0
   1400041e6:	33 c0                	xor    %eax,%eax
   1400041e8:	0f 11 45 50          	movups %xmm0,0x50(%rbp)
   1400041ec:	48 89 45 60          	mov    %rax,0x60(%rbp)
   1400041f0:	48 8d 55 50          	lea    0x50(%rbp),%rdx
   1400041f4:	e8 37 f4 ff ff       	call   0x140003630
   1400041f9:	90                   	nop
   1400041fa:	4c 8b 65 50          	mov    0x50(%rbp),%r12
   1400041fe:	48 8b 5d 58          	mov    0x58(%rbp),%rbx
   140004202:	48 89 5c 24 60       	mov    %rbx,0x60(%rsp)
   140004207:	4c 3b e3             	cmp    %rbx,%r12
   14000420a:	0f 84 c3 07 00 00    	je     0x1400049d3
   140004210:	48 8d 15 d5 a0 04 00 	lea    0x4a0d5(%rip),%rdx        # 0x14004e2ec
   140004217:	48 8b 4d 08          	mov    0x8(%rbp),%rcx
   14000421b:	48 8b c7             	mov    %rdi,%rax
   14000421e:	48 2b c1             	sub    %rcx,%rax
   140004221:	48 83 f8 01          	cmp    $0x1,%rax
   140004225:	0f 82 34 09 00 00    	jb     0x140004b5f
   14000422b:	4c 8d 4d f8          	lea    -0x8(%rbp),%r9
   14000422f:	48 83 7d 10 0f       	cmpq   $0xf,0x10(%rbp)
   140004234:	4c 0f 47 4d f8       	cmova  -0x8(%rbp),%r9
   140004239:	48 c7 44 24 30 01 00 	movq   $0x1,0x30(%rsp)
   140004240:	00 00 
   140004242:	48 89 54 24 28       	mov    %rdx,0x28(%rsp)
   140004247:	48 89 4c 24 20       	mov    %rcx,0x20(%rsp)
   14000424c:	48 8d 4d 98          	lea    -0x68(%rbp),%rcx
   140004250:	e8 2b 9a 00 00       	call   0x14000dc80
   140004255:	90                   	nop
   140004256:	49 8b d4             	mov    %r12,%rdx
   140004259:	49 83 7c 24 18 0f    	cmpq   $0xf,0x18(%r12)
   14000425f:	76 04                	jbe    0x140004265
   140004261:	49 8b 14 24          	mov    (%r12),%rdx
   140004265:	4d 8b 44 24 10       	mov    0x10(%r12),%r8
   14000426a:	48 8d 4d 98          	lea    -0x68(%rbp),%rcx
   14000426e:	e8 2d 88 00 00       	call   0x14000caa0
   140004273:	0f 57 c0             	xorps  %xmm0,%xmm0
   140004276:	0f 11 44 24 78       	movups %xmm0,0x78(%rsp)
   14000427b:	4c 89 7d 88          	mov    %r15,-0x78(%rbp)
   14000427f:	4c 89 7d 90          	mov    %r15,-0x70(%rbp)
   140004283:	0f 10 00             	movups (%rax),%xmm0
   140004286:	0f 11 44 24 78       	movups %xmm0,0x78(%rsp)
   14000428b:	0f 10 48 10          	movups 0x10(%rax),%xmm1
   14000428f:	0f 11 4d 88          	movups %xmm1,-0x78(%rbp)
   140004293:	4c 89 78 10          	mov    %r15,0x10(%rax)
   140004297:	48 c7 40 18 0f 00 00 	movq   $0xf,0x18(%rax)
   14000429e:	00 
   14000429f:	c6 00 00             	movb   $0x0,(%rax)
   1400042a2:	41 b8 10 00 00 00    	mov    $0x10,%r8d
   1400042a8:	48 8d 15 29 a0 04 00 	lea    0x4a029(%rip),%rdx        # 0x14004e2d8
   1400042af:	48 8d 4c 24 78       	lea    0x78(%rsp),%rcx
   1400042b4:	e8 e7 87 00 00       	call   0x14000caa0
   1400042b9:	0f 57 c0             	xorps  %xmm0,%xmm0
   1400042bc:	0f 11 45 18          	movups %xmm0,0x18(%rbp)
   1400042c0:	4c 89 7d 28          	mov    %r15,0x28(%rbp)
   1400042c4:	4c 89 7d 30          	mov    %r15,0x30(%rbp)
   1400042c8:	0f 10 00             	movups (%rax),%xmm0
   1400042cb:	0f 11 45 18          	movups %xmm0,0x18(%rbp)
   1400042cf:	0f 10 48 10          	movups 0x10(%rax),%xmm1
   1400042d3:	0f 11 4d 28          	movups %xmm1,0x28(%rbp)
   1400042d7:	4c 89 78 10          	mov    %r15,0x10(%rax)
   1400042db:	48 c7 40 18 0f 00 00 	movq   $0xf,0x18(%rax)
   1400042e2:	00 
   1400042e3:	c6 00 00             	movb   $0x0,(%rax)
   1400042e6:	48 8b 55 90          	mov    -0x70(%rbp),%rdx
   1400042ea:	48 83 fa 0f          	cmp    $0xf,%rdx
   1400042ee:	76 32                	jbe    0x140004322
   1400042f0:	48 ff c2             	inc    %rdx
   1400042f3:	48 8b 4c 24 78       	mov    0x78(%rsp),%rcx
   1400042f8:	48 81 fa 00 10 00 00 	cmp    $0x1000,%rdx
   1400042ff:	72 1c                	jb     0x14000431d
   140004301:	48 8b 41 f8          	mov    -0x8(%rcx),%rax
   140004305:	48 2b c8             	sub    %rax,%rcx
   140004308:	48 83 e9 08          	sub    $0x8,%rcx
   14000430c:	48 83 f9 1f          	cmp    $0x1f,%rcx
   140004310:	0f 87 8c 06 00 00    	ja     0x1400049a2
   140004316:	48 83 c2 27          	add    $0x27,%rdx
   14000431a:	48 8b c8             	mov    %rax,%rcx
   14000431d:	e8 ae 76 01 00       	call   0x14001b9d0
   140004322:	4c 89 7d 88          	mov    %r15,-0x78(%rbp)
   140004326:	48 c7 45 90 0f 00 00 	movq   $0xf,-0x70(%rbp)
   14000432d:	00 
   14000432e:	c6 44 24 78 00       	movb   $0x0,0x78(%rsp)
   140004333:	48 8b 55 b0          	mov    -0x50(%rbp),%rdx
   140004337:	48 83 fa 0f          	cmp    $0xf,%rdx
   14000433b:	76 31                	jbe    0x14000436e
   14000433d:	48 ff c2             	inc    %rdx
   140004340:	48 8b 4d 98          	mov    -0x68(%rbp),%rcx
   140004344:	48 81 fa 00 10 00 00 	cmp    $0x1000,%rdx
   14000434b:	72 1c                	jb     0x140004369
   14000434d:	48 8b 41 f8          	mov    -0x8(%rcx),%rax
   140004351:	48 2b c8             	sub    %rax,%rcx
   140004354:	48 83 e9 08          	sub    $0x8,%rcx
   140004358:	48 83 f9 1f          	cmp    $0x1f,%rcx
   14000435c:	0f 87 63 06 00 00    	ja     0x1400049c5
   140004362:	48 83 c2 27          	add    $0x27,%rdx
   140004366:	48 8b c8             	mov    %rax,%rcx
   140004369:	e8 62 76 01 00       	call   0x14001b9d0
   14000436e:	4c 89 7d a8          	mov    %r15,-0x58(%rbp)
   140004372:	48 c7 45 b0 0f 00 00 	movq   $0xf,-0x50(%rbp)
   140004379:	00 
   14000437a:	c6 45 98 00          	movb   $0x0,-0x68(%rbp)
   14000437e:	48 8d 95 b0 02 00 00 	lea    0x2b0(%rbp),%rdx
   140004385:	b9 04 01 00 00       	mov    $0x104,%ecx
   14000438a:	ff 15 30 bd 03 00    	call   *0x3bd30(%rip)        # 0x1400400c0
   140004390:	0f 57 c0             	xorps  %xmm0,%xmm0
   140004393:	0f 11 45 b8          	movups %xmm0,-0x48(%rbp)
   140004397:	4c 89 7d c8          	mov    %r15,-0x38(%rbp)
   14000439b:	4c 89 7d d0          	mov    %r15,-0x30(%rbp)
   14000439f:	48 8d 8d b0 02 00 00 	lea    0x2b0(%rbp),%rcx
   1400043a6:	e8 f5 9d 03 00       	call   0x14003e1a0
   1400043ab:	4c 8b c0             	mov    %rax,%r8
   1400043ae:	48 8d 95 b0 02 00 00 	lea    0x2b0(%rbp),%rdx
   1400043b5:	48 8d 4d b8          	lea    -0x48(%rbp),%rcx
   1400043b9:	e8 c2 7c 00 00       	call   0x14000c080
   1400043be:	90                   	nop
   1400043bf:	49 83 7c 24 18 0f    	cmpq   $0xf,0x18(%r12)
   1400043c5:	76 06                	jbe    0x1400043cd
   1400043c7:	49 8b 14 24          	mov    (%r12),%rdx
   1400043cb:	eb 03                	jmp    0x1400043d0
   1400043cd:	49 8b d4             	mov    %r12,%rdx
   1400043d0:	4d 8b 44 24 10       	mov    0x10(%r12),%r8
   1400043d5:	48 8d 4d b8          	lea    -0x48(%rbp),%rcx
   1400043d9:	e8 c2 86 00 00       	call   0x14000caa0
   1400043de:	0f 57 c0             	xorps  %xmm0,%xmm0
   1400043e1:	0f 11 44 24 40       	movups %xmm0,0x40(%rsp)
   1400043e6:	4c 89 7c 24 50       	mov    %r15,0x50(%rsp)
   1400043eb:	4c 89 7c 24 58       	mov    %r15,0x58(%rsp)
   1400043f0:	0f 10 00             	movups (%rax),%xmm0
   1400043f3:	0f 11 44 24 40       	movups %xmm0,0x40(%rsp)
   1400043f8:	0f 10 48 10          	movups 0x10(%rax),%xmm1
   1400043fc:	0f 11 4c 24 50       	movups %xmm1,0x50(%rsp)
   140004401:	4c 89 78 10          	mov    %r15,0x10(%rax)
   140004405:	48 c7 40 18 0f 00 00 	movq   $0xf,0x18(%rax)
   14000440c:	00 
   14000440d:	c6 00 00             	movb   $0x0,(%rax)
   140004410:	41 b8 0c 00 00 00    	mov    $0xc,%r8d
   140004416:	48 8d 15 d3 9e 04 00 	lea    0x49ed3(%rip),%rdx        # 0x14004e2f0
   14000441d:	48 8d 4c 24 40       	lea    0x40(%rsp),%rcx
   140004422:	e8 79 86 00 00       	call   0x14000caa0
   140004427:	0f 57 c0             	xorps  %xmm0,%xmm0
   14000442a:	0f 11 45 d8          	movups %xmm0,-0x28(%rbp)
   14000442e:	4c 89 7d e8          	mov    %r15,-0x18(%rbp)
   140004432:	4c 89 7d f0          	mov    %r15,-0x10(%rbp)
   140004436:	0f 10 00             	movups (%rax),%xmm0
   140004439:	0f 11 45 d8          	movups %xmm0,-0x28(%rbp)
   14000443d:	0f 10 48 10          	movups 0x10(%rax),%xmm1
   140004441:	0f 11 4d e8          	movups %xmm1,-0x18(%rbp)
   140004445:	4c 89 78 10          	mov    %r15,0x10(%rax)
   140004449:	48 c7 40 18 0f 00 00 	movq   $0xf,0x18(%rax)
   140004450:	00 
   140004451:	c6 00 00             	movb   $0x0,(%rax)
   140004454:	48 8b 54 24 58       	mov    0x58(%rsp),%rdx
   140004459:	48 83 fa 0f          	cmp    $0xf,%rdx
   14000445d:	76 32                	jbe    0x140004491
   14000445f:	48 ff c2             	inc    %rdx
   140004462:	48 8b 4c 24 40       	mov    0x40(%rsp),%rcx
   140004467:	48 81 fa 00 10 00 00 	cmp    $0x1000,%rdx
   14000446e:	72 1c                	jb     0x14000448c
   140004470:	48 8b 41 f8          	mov    -0x8(%rcx),%rax
   140004474:	48 2b c8             	sub    %rax,%rcx
   140004477:	48 83 e9 08          	sub    $0x8,%rcx
   14000447b:	48 83 f9 1f          	cmp    $0x1f,%rcx
   14000447f:	0f 87 24 05 00 00    	ja     0x1400049a9
   140004485:	48 83 c2 27          	add    $0x27,%rdx
   140004489:	48 8b c8             	mov    %rax,%rcx
   14000448c:	e8 3f 75 01 00       	call   0x14001b9d0
   140004491:	4c 89 7c 24 50       	mov    %r15,0x50(%rsp)
   140004496:	48 c7 44 24 58 0f 00 	movq   $0xf,0x58(%rsp)
   14000449d:	00 00 
   14000449f:	c6 44 24 40 00       	movb   $0x0,0x40(%rsp)
   1400044a4:	48 8b 55 d0          	mov    -0x30(%rbp),%rdx
   1400044a8:	48 83 fa 0f          	cmp    $0xf,%rdx
   1400044ac:	76 31                	jbe    0x1400044df
   1400044ae:	48 ff c2             	inc    %rdx
   1400044b1:	48 8b 4d b8          	mov    -0x48(%rbp),%rcx
   1400044b5:	48 81 fa 00 10 00 00 	cmp    $0x1000,%rdx
   1400044bc:	72 1c                	jb     0x1400044da
   1400044be:	48 8b 41 f8          	mov    -0x8(%rcx),%rax
   1400044c2:	48 2b c8             	sub    %rax,%rcx
   1400044c5:	48 83 e9 08          	sub    $0x8,%rcx
   1400044c9:	48 83 f9 1f          	cmp    $0x1f,%rcx
   1400044cd:	0f 87 eb 04 00 00    	ja     0x1400049be
   1400044d3:	48 83 c2 27          	add    $0x27,%rdx
   1400044d7:	48 8b c8             	mov    %rax,%rcx
   1400044da:	e8 f1 74 01 00       	call   0x14001b9d0
   1400044df:	4c 89 7d c8          	mov    %r15,-0x38(%rbp)
   1400044e3:	48 c7 45 d0 0f 00 00 	movq   $0xf,-0x30(%rbp)
   1400044ea:	00 
   1400044eb:	c6 45 b8 00          	movb   $0x0,-0x48(%rbp)
   1400044ef:	48 8d 55 d8          	lea    -0x28(%rbp),%rdx
   1400044f3:	48 83 7d f0 0f       	cmpq   $0xf,-0x10(%rbp)
   1400044f8:	48 0f 47 55 d8       	cmova  -0x28(%rbp),%rdx
   1400044fd:	48 8d 4d 18          	lea    0x18(%rbp),%rcx
   140004501:	48 83 7d 30 0f       	cmpq   $0xf,0x30(%rbp)
   140004506:	48 0f 47 4d 18       	cmova  0x18(%rbp),%rcx
   14000450b:	45 33 c0             	xor    %r8d,%r8d
   14000450e:	ff 15 a4 bb 03 00    	call   *0x3bba4(%rip)        # 0x1400400b8
   140004514:	48 8d 4d d8          	lea    -0x28(%rbp),%rcx
   140004518:	48 83 7d f0 0f       	cmpq   $0xf,-0x10(%rbp)
   14000451d:	48 0f 47 4d d8       	cmova  -0x28(%rbp),%rcx
   140004522:	48 8d 54 24 70       	lea    0x70(%rsp),%rdx
   140004527:	ff 15 fb be 03 00    	call   *0x3befb(%rip)        # 0x140040428
   14000452d:	85 c0                	test   %eax,%eax
   14000452f:	0f 85 cd 03 00 00    	jne    0x140004902
   140004535:	0f 57 c0             	xorps  %xmm0,%xmm0
   140004538:	0f 11 45 98          	movups %xmm0,-0x68(%rbp)
   14000453c:	4c 89 7d a8          	mov    %r15,-0x58(%rbp)
   140004540:	4c 89 7d b0          	mov    %r15,-0x50(%rbp)
   140004544:	41 b8 51 00 00 00    	mov    $0x51,%r8d
   14000454a:	48 8d 15 af 9d 04 00 	lea    0x49daf(%rip),%rdx        # 0x14004e300
   140004551:	48 8d 4d 98          	lea    -0x68(%rbp),%rcx
   140004555:	e8 26 7b 00 00       	call   0x14000c080
   14000455a:	90                   	nop
   14000455b:	48 8d 55 98          	lea    -0x68(%rbp),%rdx
   14000455f:	48 83 7d b0 0f       	cmpq   $0xf,-0x50(%rbp)
   140004564:	48 0f 47 55 98       	cmova  -0x68(%rbp),%rdx
   140004569:	4c 89 7c 24 20       	mov    %r15,0x20(%rsp)
   14000456e:	4c 8d 4c 24 68       	lea    0x68(%rsp),%r9
   140004573:	41 b8 ff ff ff ff    	mov    $0xffffffff,%r8d
   140004579:	48 8b 4c 24 70       	mov    0x70(%rsp),%rcx
   14000457e:	ff 15 8c be 03 00    	call   *0x3be8c(%rip)        # 0x140040410
   140004584:	85 c0                	test   %eax,%eax
   140004586:	0f 85 2f 03 00 00    	jne    0x1400048bb
   14000458c:	48 8b 4c 24 68       	mov    0x68(%rsp),%rcx
   140004591:	ff 15 a1 be 03 00    	call   *0x3bea1(%rip)        # 0x140040438
   140004597:	83 f8 64             	cmp    $0x64,%eax
   14000459a:	0f 85 10 03 00 00    	jne    0x1400048b0
   1400045a0:	33 d2                	xor    %edx,%edx
   1400045a2:	48 8b 4c 24 68       	mov    0x68(%rsp),%rcx
   1400045a7:	ff 15 73 be 03 00    	call   *0x3be73(%rip)        # 0x140040420
   1400045ad:	48 8b f0             	mov    %rax,%rsi
   1400045b0:	ba 01 00 00 00       	mov    $0x1,%edx
   1400045b5:	48 8b 4c 24 68       	mov    0x68(%rsp),%rcx
   1400045ba:	ff 15 60 be 03 00    	call   *0x3be60(%rip)        # 0x140040420
   1400045c0:	4c 8b e8             	mov    %rax,%r13
   1400045c3:	ba 02 00 00 00       	mov    $0x2,%edx
   1400045c8:	48 8b 4c 24 68       	mov    0x68(%rsp),%rcx
   1400045cd:	ff 15 6d be 03 00    	call   *0x3be6d(%rip)        # 0x140040440
   1400045d3:	4c 8b f0             	mov    %rax,%r14
   1400045d6:	ba 02 00 00 00       	mov    $0x2,%edx
   1400045db:	48 8b 4c 24 68       	mov    0x68(%rsp),%rcx
   1400045e0:	ff 15 4a be 03 00    	call   *0x3be4a(%rip)        # 0x140040430
   1400045e6:	0f 57 c0             	xorps  %xmm0,%xmm0
   1400045e9:	48 63 f8             	movslq %eax,%rdi
   1400045ec:	f3 0f 7f 44 24 78    	movdqu %xmm0,0x78(%rsp)
   1400045f2:	4c 89 7d 88          	mov    %r15,-0x78(%rbp)
   1400045f6:	85 c0                	test   %eax,%eax
   1400045f8:	74 73                	je     0x14000466d
   1400045fa:	48 b8 ff ff ff ff ff 	movabs $0x7fffffffffffffff,%rax
   140004601:	ff ff 7f 
   140004604:	48 3b f8             	cmp    %rax,%rdi
   140004607:	0f 87 64 05 00 00    	ja     0x140004b71
   14000460d:	48 81 ff 00 10 00 00 	cmp    $0x1000,%rdi
   140004614:	72 2c                	jb     0x140004642
   140004616:	48 8d 4f 27          	lea    0x27(%rdi),%rcx
   14000461a:	48 3b cf             	cmp    %rdi,%rcx
   14000461d:	0f 86 48 05 00 00    	jbe    0x140004b6b
   140004623:	e8 c0 73 01 00       	call   0x14001b9e8
   140004628:	48 8b c8             	mov    %rax,%rcx
   14000462b:	48 85 c0             	test   %rax,%rax
   14000462e:	0f 84 83 03 00 00    	je     0x1400049b7
   140004634:	48 83 c0 27          	add    $0x27,%rax
   140004638:	48 83 e0 e0          	and    $0xffffffffffffffe0,%rax
   14000463c:	48 89 48 f8          	mov    %rcx,-0x8(%rax)
   140004640:	eb 08                	jmp    0x14000464a
   140004642:	48 8b cf             	mov    %rdi,%rcx
   140004645:	e8 9e 73 01 00       	call   0x14001b9e8
   14000464a:	48 89 44 24 78       	mov    %rax,0x78(%rsp)
   14000464f:	48 89 45 80          	mov    %rax,-0x80(%rbp)
   140004653:	48 8d 1c 38          	lea    (%rax,%rdi,1),%rbx
   140004657:	48 89 5d 88          	mov    %rbx,-0x78(%rbp)
   14000465b:	4c 8b c7             	mov    %rdi,%r8
   14000465e:	49 8b d6             	mov    %r14,%rdx
   140004661:	48 8b c8             	mov    %rax,%rcx
   140004664:	e8 67 8f 03 00       	call   0x14003d5d0
   140004669:	48 89 5d 80          	mov    %rbx,-0x80(%rbp)
   14000466d:	4c 8d 44 24 78       	lea    0x78(%rsp),%r8
   140004672:	48 8d 55 b8          	lea    -0x48(%rbp),%rdx
   140004676:	e8 65 f3 ff ff       	call   0x1400039e0
   14000467b:	90                   	nop
   14000467c:	ba 03 00 00 00       	mov    $0x3,%edx
   140004681:	48 8b 4c 24 68       	mov    0x68(%rsp),%rcx
   140004686:	ff 15 94 bd 03 00    	call   *0x3bd94(%rip)        # 0x140040420
   14000468c:	4c 8b f8             	mov    %rax,%r15
   14000468f:	ba 04 00 00 00       	mov    $0x4,%edx
   140004694:	48 8b 4c 24 68       	mov    0x68(%rsp),%rcx
   140004699:	ff 15 a9 bd 03 00    	call   *0x3bda9(%rip)        # 0x140040448
   14000469f:	8b d8                	mov    %eax,%ebx
   1400046a1:	ba 05 00 00 00       	mov    $0x5,%edx
   1400046a6:	48 8b 4c 24 68       	mov    0x68(%rsp),%rcx
   1400046ab:	ff 15 9f bd 03 00    	call   *0x3bd9f(%rip)        # 0x140040450
   1400046b1:	48 8b c8             	mov    %rax,%rcx
   1400046b4:	48 b8 db 34 b6 d7 82 	movabs $0x431bde82d7b634db,%rax
   1400046bb:	de 1b 43 
   1400046be:	48 f7 e9             	imul   %rcx
   1400046c1:	48 c1 fa 12          	sar    $0x12,%rdx
   1400046c5:	4c 8b c2             	mov    %rdx,%r8
   1400046c8:	49 c1 e8 3f          	shr    $0x3f,%r8
   1400046cc:	48 b8 00 6f ef 49 fd 	movabs $0xfffffffd49ef6f00,%rax
   1400046d3:	ff ff ff 
   1400046d6:	48 03 c2             	add    %rdx,%rax
   1400046d9:	45 33 f6             	xor    %r14d,%r14d
   1400046dc:	49 03 c0             	add    %r8,%rax
   1400046df:	4c 0f 49 f0          	cmovns %rax,%r14
   1400046e3:	48 8d 15 03 99 04 00 	lea    0x49903(%rip),%rdx        # 0x14004dfed
   1400046ea:	48 85 f6             	test   %rsi,%rsi
   1400046ed:	48 0f 45 d6          	cmovne %rsi,%rdx
   1400046f1:	48 8d 8d 90 00 00 00 	lea    0x90(%rbp),%rcx
   1400046f8:	e8 b3 47 00 00       	call   0x140008eb0
   1400046fd:	48 8b c8             	mov    %rax,%rcx
   140004700:	48 8d 15 4d 9c 04 00 	lea    0x49c4d(%rip),%rdx        # 0x14004e354
   140004707:	e8 a4 47 00 00       	call   0x140008eb0
   14000470c:	48 85 f6             	test   %rsi,%rsi
   14000470f:	74 11                	je     0x140004722
   140004711:	80 3e 2e             	cmpb   $0x2e,(%rsi)
   140004714:	75 0c                	jne    0x140004722
   140004716:	48 8d 0d 3b 9c 04 00 	lea    0x49c3b(%rip),%rcx        # 0x14004e358
   14000471d:	48 8b d1             	mov    %rcx,%rdx
   140004720:	eb 0e                	jmp    0x140004730
   140004722:	48 8d 15 37 9c 04 00 	lea    0x49c37(%rip),%rdx        # 0x14004e360
   140004729:	48 8d 0d 28 9c 04 00 	lea    0x49c28(%rip),%rcx        # 0x14004e358
   140004730:	48 8d 3d 29 9c 04 00 	lea    0x49c29(%rip),%rdi        # 0x14004e360
   140004737:	85 db                	test   %ebx,%ebx
   140004739:	48 0f 45 f9          	cmovne %rcx,%rdi
   14000473d:	48 8d 1d a9 98 04 00 	lea    0x498a9(%rip),%rbx        # 0x14004dfed
   140004744:	4d 85 ff             	test   %r15,%r15
   140004747:	49 0f 45 df          	cmovne %r15,%rbx
   14000474b:	48 8b c8             	mov    %rax,%rcx
   14000474e:	e8 5d 47 00 00       	call   0x140008eb0
   140004753:	48 8b c8             	mov    %rax,%rcx
   140004756:	48 8d 15 f7 9b 04 00 	lea    0x49bf7(%rip),%rdx        # 0x14004e354
   14000475d:	e8 4e 47 00 00       	call   0x140008eb0
   140004762:	48 8b c8             	mov    %rax,%rcx
   140004765:	48 8b d3             	mov    %rbx,%rdx
   140004768:	e8 43 47 00 00       	call   0x140008eb0
   14000476d:	48 8b c8             	mov    %rax,%rcx
   140004770:	48 8d 15 dd 9b 04 00 	lea    0x49bdd(%rip),%rdx        # 0x14004e354
   140004777:	e8 34 47 00 00       	call   0x140008eb0
   14000477c:	48 8b c8             	mov    %rax,%rcx
   14000477f:	48 8b d7             	mov    %rdi,%rdx
   140004782:	e8 29 47 00 00       	call   0x140008eb0
   140004787:	48 8b c8             	mov    %rax,%rcx
   14000478a:	48 8d 15 c3 9b 04 00 	lea    0x49bc3(%rip),%rdx        # 0x14004e354
   140004791:	e8 1a 47 00 00       	call   0x140008eb0
   140004796:	48 8d 1d 50 98 04 00 	lea    0x49850(%rip),%rbx        # 0x14004dfed
   14000479d:	4d 85 ed             	test   %r13,%r13
   1400047a0:	49 0f 45 dd          	cmovne %r13,%rbx
   1400047a4:	49 8b d6             	mov    %r14,%rdx
   1400047a7:	48 8b c8             	mov    %rax,%rcx
   1400047aa:	e8 21 6e 00 00       	call   0x14000b5d0
   1400047af:	48 8b c8             	mov    %rax,%rcx
   1400047b2:	48 8d 15 9b 9b 04 00 	lea    0x49b9b(%rip),%rdx        # 0x14004e354
   1400047b9:	e8 f2 46 00 00       	call   0x140008eb0
   1400047be:	48 8b c8             	mov    %rax,%rcx
   1400047c1:	48 8b d3             	mov    %rbx,%rdx
   1400047c4:	e8 e7 46 00 00       	call   0x140008eb0
   1400047c9:	48 8b c8             	mov    %rax,%rcx
   1400047cc:	48 8d 15 81 9b 04 00 	lea    0x49b81(%rip),%rdx        # 0x14004e354
   1400047d3:	e8 d8 46 00 00       	call   0x140008eb0
   1400047d8:	48 8d 55 b8          	lea    -0x48(%rbp),%rdx
   1400047dc:	48 83 7d d0 0f       	cmpq   $0xf,-0x30(%rbp)
   1400047e1:	48 0f 47 55 b8       	cmova  -0x48(%rbp),%rdx
   1400047e6:	4c 8b 45 c8          	mov    -0x38(%rbp),%r8
   1400047ea:	48 8b c8             	mov    %rax,%rcx
   1400047ed:	e8 8e 79 00 00       	call   0x14000c180
   1400047f2:	48 8d 15 73 99 04 00 	lea    0x49973(%rip),%rdx        # 0x14004e16c
   1400047f9:	48 8b c8             	mov    %rax,%rcx
   1400047fc:	e8 af 46 00 00       	call   0x140008eb0
   140004801:	90                   	nop
   140004802:	48 8b 55 d0          	mov    -0x30(%rbp),%rdx
   140004806:	48 83 fa 0f          	cmp    $0xf,%rdx
   14000480a:	76 31                	jbe    0x14000483d
   14000480c:	48 ff c2             	inc    %rdx
   14000480f:	48 8b 4d b8          	mov    -0x48(%rbp),%rcx
   140004813:	48 81 fa 00 10 00 00 	cmp    $0x1000,%rdx
   14000481a:	72 1c                	jb     0x140004838
   14000481c:	48 8b 41 f8          	mov    -0x8(%rcx),%rax
   140004820:	48 2b c8             	sub    %rax,%rcx
   140004823:	48 83 e9 08          	sub    $0x8,%rcx
   140004827:	48 83 f9 1f          	cmp    $0x1f,%rcx
   14000482b:	0f 87 7f 01 00 00    	ja     0x1400049b0
   140004831:	48 83 c2 27          	add    $0x27,%rdx
   140004835:	48 8b c8             	mov    %rax,%rcx
   140004838:	e8 93 71 01 00       	call   0x14001b9d0
   14000483d:	45 33 ff             	xor    %r15d,%r15d
   140004840:	4c 89 7d c8          	mov    %r15,-0x38(%rbp)
   140004844:	48 c7 45 d0 0f 00 00 	movq   $0xf,-0x30(%rbp)
   14000484b:	00 
   14000484c:	44 88 7d b8          	mov    %r15b,-0x48(%rbp)
   140004850:	48 8b 44 24 78       	mov    0x78(%rsp),%rax
   140004855:	48 85 c0             	test   %rax,%rax
   140004858:	74 33                	je     0x14000488d
   14000485a:	48 8b 55 88          	mov    -0x78(%rbp),%rdx
   14000485e:	48 2b d0             	sub    %rax,%rdx
   140004861:	48 81 fa 00 10 00 00 	cmp    $0x1000,%rdx
   140004868:	72 1b                	jb     0x140004885
   14000486a:	48 8b 48 f8          	mov    -0x8(%rax),%rcx
   14000486e:	48 2b c1             	sub    %rcx,%rax
   140004871:	48 83 e8 08          	sub    $0x8,%rax
   140004875:	48 83 f8 1f          	cmp    $0x1f,%rax
   140004879:	0f 87 38 01 00 00    	ja     0x1400049b7
   14000487f:	48 83 c2 27          	add    $0x27,%rdx
   140004883:	eb 03                	jmp    0x140004888
   140004885:	48 8b c8             	mov    %rax,%rcx
   140004888:	e8 43 71 01 00       	call   0x14001b9d0
   14000488d:	48 8b 4c 24 68       	mov    0x68(%rsp),%rcx
   140004892:	ff 15 a0 bb 03 00    	call   *0x3bba0(%rip)        # 0x140040438
   140004898:	83 f8 64             	cmp    $0x64,%eax
   14000489b:	0f 84 ff fc ff ff    	je     0x1400045a0
   1400048a1:	48 8b 5c 24 60       	mov    0x60(%rsp),%rbx
   1400048a6:	48 bf ff ff ff ff ff 	movabs $0x7fffffffffffffff,%rdi
   1400048ad:	ff ff 7f 
   1400048b0:	48 8b 4c 24 68       	mov    0x68(%rsp),%rcx
   1400048b5:	ff 15 5d bb 03 00    	call   *0x3bb5d(%rip)        # 0x140040418
   1400048bb:	48 8b 4c 24 70       	mov    0x70(%rsp),%rcx
   1400048c0:	ff 15 42 bb 03 00    	call   *0x3bb42(%rip)        # 0x140040408
   1400048c6:	90                   	nop
   1400048c7:	48 8b 55 b0          	mov    -0x50(%rbp),%rdx
   1400048cb:	48 83 fa 0f          	cmp    $0xf,%rdx
   1400048cf:	76 31                	jbe    0x140004902
   1400048d1:	48 ff c2             	inc    %rdx
   1400048d4:	48 8b 4d 98          	mov    -0x68(%rbp),%rcx
   1400048d8:	48 81 fa 00 10 00 00 	cmp    $0x1000,%rdx
   1400048df:	72 1c                	jb     0x1400048fd
   1400048e1:	48 8b 41 f8          	mov    -0x8(%rcx),%rax
   1400048e5:	48 2b c8             	sub    %rax,%rcx
   1400048e8:	48 83 e9 08          	sub    $0x8,%rcx
   1400048ec:	48 83 f9 1f          	cmp    $0x1f,%rcx
   1400048f0:	0f 87 c8 00 00 00    	ja     0x1400049be
   1400048f6:	48 83 c2 27          	add    $0x27,%rdx
   1400048fa:	48 8b c8             	mov    %rax,%rcx
   1400048fd:	e8 ce 70 01 00       	call   0x14001b9d0
   140004902:	48 8d 4d d8          	lea    -0x28(%rbp),%rcx
   140004906:	48 83 7d f0 0f       	cmpq   $0xf,-0x10(%rbp)
   14000490b:	48 0f 47 4d d8       	cmova  -0x28(%rbp),%rcx
   140004910:	ff 15 9a b7 03 00    	call   *0x3b79a(%rip)        # 0x1400400b0
   140004916:	90                   	nop
   140004917:	48 8b 55 f0          	mov    -0x10(%rbp),%rdx
   14000491b:	48 83 fa 0f          	cmp    $0xf,%rdx
   14000491f:	76 31                	jbe    0x140004952
   140004921:	48 ff c2             	inc    %rdx
   140004924:	48 8b 4d d8          	mov    -0x28(%rbp),%rcx
   140004928:	48 81 fa 00 10 00 00 	cmp    $0x1000,%rdx
   14000492f:	72 1c                	jb     0x14000494d
   140004931:	48 8b 41 f8          	mov    -0x8(%rcx),%rax
   140004935:	48 2b c8             	sub    %rax,%rcx
   140004938:	48 83 e9 08          	sub    $0x8,%rcx
   14000493c:	48 83 f9 1f          	cmp    $0x1f,%rcx
   140004940:	0f 87 7f 00 00 00    	ja     0x1400049c5
   140004946:	48 83 c2 27          	add    $0x27,%rdx
   14000494a:	48 8b c8             	mov    %rax,%rcx
   14000494d:	e8 7e 70 01 00       	call   0x14001b9d0
   140004952:	4c 89 7d e8          	mov    %r15,-0x18(%rbp)
   140004956:	48 c7 45 f0 0f 00 00 	movq   $0xf,-0x10(%rbp)
   14000495d:	00 
   14000495e:	c6 45 d8 00          	movb   $0x0,-0x28(%rbp)
   140004962:	48 8b 55 30          	mov    0x30(%rbp),%rdx
   140004966:	48 83 fa 0f          	cmp    $0xf,%rdx
   14000496a:	76 2d                	jbe    0x140004999
   14000496c:	48 ff c2             	inc    %rdx
   14000496f:	48 8b 4d 18          	mov    0x18(%rbp),%rcx
   140004973:	48 81 fa 00 10 00 00 	cmp    $0x1000,%rdx
   14000497a:	72 18                	jb     0x140004994
   14000497c:	48 8b 41 f8          	mov    -0x8(%rcx),%rax
   140004980:	48 2b c8             	sub    %rax,%rcx
   140004983:	48 83 e9 08          	sub    $0x8,%rcx
   140004987:	48 83 f9 1f          	cmp    $0x1f,%rcx
   14000498b:	77 3f                	ja     0x1400049cc
   14000498d:	48 83 c2 27          	add    $0x27,%rdx
   140004991:	48 8b c8             	mov    %rax,%rcx
   140004994:	e8 37 70 01 00       	call   0x14001b9d0
   140004999:	49 83 c4 20          	add    $0x20,%r12
   14000499d:	e9 65 f8 ff ff       	jmp    0x140004207
   1400049a2:	b9 05 00 00 00       	mov    $0x5,%ecx
   1400049a7:	cd 29                	int    $0x29
   1400049a9:	b9 05 00 00 00       	mov    $0x5,%ecx
   1400049ae:	cd 29                	int    $0x29
   1400049b0:	b9 05 00 00 00       	mov    $0x5,%ecx
   1400049b5:	cd 29                	int    $0x29
   1400049b7:	b9 05 00 00 00       	mov    $0x5,%ecx
   1400049bc:	cd 29                	int    $0x29
   1400049be:	b9 05 00 00 00       	mov    $0x5,%ecx
   1400049c3:	cd 29                	int    $0x29
   1400049c5:	b9 05 00 00 00       	mov    $0x5,%ecx
   1400049ca:	cd 29                	int    $0x29
   1400049cc:	b9 05 00 00 00       	mov    $0x5,%ecx
   1400049d1:	cd 29                	int    $0x29
   1400049d3:	48 8d 4d 50          	lea    0x50(%rbp),%rcx
   1400049d7:	e8 e4 82 00 00       	call   0x14000ccc0
   1400049dc:	90                   	nop
   1400049dd:	48 8b 85 90 00 00 00 	mov    0x90(%rbp),%rax
   1400049e4:	48 63 48 04          	movslq 0x4(%rax),%rcx
   1400049e8:	48 8d 05 01 a2 04 00 	lea    0x4a201(%rip),%rax        # 0x14004ebf0
   1400049ef:	48 89 84 0d 90 00 00 	mov    %rax,0x90(%rbp,%rcx,1)
   1400049f6:	00 
   1400049f7:	48 8b 85 90 00 00 00 	mov    0x90(%rbp),%rax
   1400049fe:	48 63 48 04          	movslq 0x4(%rax),%rcx
   140004a02:	8d 91 58 ff ff ff    	lea    -0xa8(%rcx),%edx
   140004a08:	89 94 0d 8c 00 00 00 	mov    %edx,0x8c(%rbp,%rcx,1)
   140004a0f:	48 8d 8d 98 00 00 00 	lea    0x98(%rbp),%rcx
   140004a16:	e8 55 62 00 00       	call   0x14000ac70
   140004a1b:	48 8b 85 90 00 00 00 	mov    0x90(%rbp),%rax
   140004a22:	48 63 48 04          	movslq 0x4(%rax),%rcx
   140004a26:	48 8d 05 5b a4 04 00 	lea    0x4a45b(%rip),%rax        # 0x14004ee88
   140004a2d:	48 89 84 0d 90 00 00 	mov    %rax,0x90(%rbp,%rcx,1)
   140004a34:	00 
   140004a35:	48 8b 85 90 00 00 00 	mov    0x90(%rbp),%rax
   140004a3c:	48 63 48 04          	movslq 0x4(%rax),%rcx
   140004a40:	8d 51 f0             	lea    -0x10(%rcx),%edx
   140004a43:	89 94 0d 8c 00 00 00 	mov    %edx,0x8c(%rbp,%rcx,1)
   140004a4a:	48 8d 05 d7 a0 04 00 	lea    0x4a0d7(%rip),%rax        # 0x14004eb28
   140004a51:	48 89 85 38 01 00 00 	mov    %rax,0x138(%rbp)
   140004a58:	48 8d 8d 38 01 00 00 	lea    0x138(%rbp),%rcx
   140004a5f:	e8 54 5e 01 00       	call   0x14001a8b8
   140004a64:	90                   	nop
   140004a65:	48 8b 45 38          	mov    0x38(%rbp),%rax
   140004a69:	48 85 c0             	test   %rax,%rax
   140004a6c:	74 42                	je     0x140004ab0
   140004a6e:	48 8b 55 48          	mov    0x48(%rbp),%rdx
   140004a72:	48 2b d0             	sub    %rax,%rdx
   140004a75:	48 81 fa 00 10 00 00 	cmp    $0x1000,%rdx
   140004a7c:	72 1e                	jb     0x140004a9c
   140004a7e:	48 8b 48 f8          	mov    -0x8(%rax),%rcx
   140004a82:	48 2b c1             	sub    %rcx,%rax
   140004a85:	48 83 e8 08          	sub    $0x8,%rax
   140004a89:	48 83 f8 1f          	cmp    $0x1f,%rax
   140004a8d:	77 06                	ja     0x140004a95
   140004a8f:	48 83 c2 27          	add    $0x27,%rdx
   140004a93:	eb 0a                	jmp    0x140004a9f
   140004a95:	b9 05 00 00 00       	mov    $0x5,%ecx
   140004a9a:	cd 29                	int    $0x29
   140004a9c:	48 8b c8             	mov    %rax,%rcx
   140004a9f:	e8 2c 6f 01 00       	call   0x14001b9d0
   140004aa4:	0f 57 c0             	xorps  %xmm0,%xmm0
   140004aa7:	f3 0f 7f 45 38       	movdqu %xmm0,0x38(%rbp)
   140004aac:	4c 89 7d 48          	mov    %r15,0x48(%rbp)
   140004ab0:	48 8b 95 80 00 00 00 	mov    0x80(%rbp),%rdx
   140004ab7:	48 83 fa 0f          	cmp    $0xf,%rdx
   140004abb:	76 37                	jbe    0x140004af4
   140004abd:	48 8b 45 68          	mov    0x68(%rbp),%rax
   140004ac1:	48 ff c2             	inc    %rdx
   140004ac4:	48 81 fa 00 10 00 00 	cmp    $0x1000,%rdx
   140004acb:	72 1e                	jb     0x140004aeb
   140004acd:	48 8b 48 f8          	mov    -0x8(%rax),%rcx
   140004ad1:	48 2b c1             	sub    %rcx,%rax
   140004ad4:	48 83 e8 08          	sub    $0x8,%rax
   140004ad8:	48 83 f8 1f          	cmp    $0x1f,%rax
   140004adc:	77 06                	ja     0x140004ae4
   140004ade:	48 83 c2 27          	add    $0x27,%rdx
   140004ae2:	eb 0a                	jmp    0x140004aee
   140004ae4:	b9 05 00 00 00       	mov    $0x5,%ecx
   140004ae9:	cd 29                	int    $0x29
   140004aeb:	48 8b c8             	mov    %rax,%rcx
   140004aee:	e8 dd 6e 01 00       	call   0x14001b9d0
   140004af3:	90                   	nop
   140004af4:	48 8b 55 10          	mov    0x10(%rbp),%rdx
   140004af8:	48 83 fa 0f          	cmp    $0xf,%rdx
   140004afc:	76 36                	jbe    0x140004b34
   140004afe:	48 8b 45 f8          	mov    -0x8(%rbp),%rax
   140004b02:	48 ff c2             	inc    %rdx
   140004b05:	48 81 fa 00 10 00 00 	cmp    $0x1000,%rdx
   140004b0c:	72 1e                	jb     0x140004b2c
   140004b0e:	48 8b 48 f8          	mov    -0x8(%rax),%rcx
   140004b12:	48 2b c1             	sub    %rcx,%rax
   140004b15:	48 83 e8 08          	sub    $0x8,%rax
   140004b19:	48 83 f8 1f          	cmp    $0x1f,%rax
   140004b1d:	77 06                	ja     0x140004b25
   140004b1f:	48 83 c2 27          	add    $0x27,%rdx
   140004b23:	eb 0a                	jmp    0x140004b2f
   140004b25:	b9 05 00 00 00       	mov    $0x5,%ecx
   140004b2a:	cd 29                	int    $0x29
   140004b2c:	48 8b c8             	mov    %rax,%rcx
   140004b2f:	e8 9c 6e 01 00       	call   0x14001b9d0
   140004b34:	48 8b 8d c0 03 00 00 	mov    0x3c0(%rbp),%rcx
   140004b3b:	48 33 cc             	xor    %rsp,%rcx
   140004b3e:	e8 6d 6e 01 00       	call   0x14001b9b0
   140004b43:	0f 28 b4 24 d0 04 00 	movaps 0x4d0(%rsp),%xmm6
   140004b4a:	00 
   140004b4b:	48 81 c4 e8 04 00 00 	add    $0x4e8,%rsp
   140004b52:	41 5f                	pop    %r15
   140004b54:	41 5e                	pop    %r14
   140004b56:	41 5d                	pop    %r13
   140004b58:	41 5c                	pop    %r12
   140004b5a:	5f                   	pop    %rdi
   140004b5b:	5e                   	pop    %rsi
   140004b5c:	5b                   	pop    %rbx
   140004b5d:	5d                   	pop    %rbp
   140004b5e:	c3                   	ret
   140004b5f:	e8 fc c7 ff ff       	call   0x140001360
   140004b64:	90                   	nop
   140004b65:	e8 f6 c7 ff ff       	call   0x140001360
   140004b6a:	90                   	nop
   140004b6b:	e8 50 c7 ff ff       	call   0x1400012c0
   140004b70:	cc                   	int3
   140004b71:	e8 8a db 00 00       	call   0x140012700
   140004b76:	cc                   	int3
   140004b77:	cc                   	int3
   140004b78:	cc                   	int3
   140004b79:	cc                   	int3
   140004b7a:	cc                   	int3
   140004b7b:	cc                   	int3
   140004b7c:	cc                   	int3
   140004b7d:	cc                   	int3
   140004b7e:	cc                   	int3
   140004b7f:	cc                   	int3
   140004b80:	40 55                	rex push %rbp
   140004b82:	53                   	push   %rbx
   140004b83:	56                   	push   %rsi
   140004b84:	57                   	push   %rdi
   140004b85:	41 54                	push   %r12
   140004b87:	41 55                	push   %r13
   140004b89:	41 56                	push   %r14
   140004b8b:	41 57                	push   %r15
   140004b8d:	48 8d ac 24 28 fc ff 	lea    -0x3d8(%rsp),%rbp
   140004b94:	ff 
   140004b95:	48 81 ec d8 04 00 00 	sub    $0x4d8,%rsp
   140004b9c:	0f 29 b4 24 c0 04 00 	movaps %xmm6,0x4c0(%rsp)
   140004ba3:	00 
   140004ba4:	48 8b 05 55 25 05 00 	mov    0x52555(%rip),%rax        # 0x140057100
   140004bab:	48 33 c4             	xor    %rsp,%rax
   140004bae:	48 89 85 b0 03 00 00 	mov    %rax,0x3b0(%rbp)
   140004bb5:	48 8b da             	mov    %rdx,%rbx
   140004bb8:	33 ff                	xor    %edi,%edi
   140004bba:	48 8d 85 90 01 00 00 	lea    0x190(%rbp),%rax
   140004bc1:	48 89 44 24 20       	mov    %rax,0x20(%rsp)
   140004bc6:	45 33 c9             	xor    %r9d,%r9d
   140004bc9:	45 33 c0             	xor    %r8d,%r8d
   140004bcc:	ba 1c 00 00 00       	mov    $0x1c,%edx
   140004bd1:	33 c9                	xor    %ecx,%ecx
   140004bd3:	ff 15 d7 b7 03 00    	call   *0x3b7d7(%rip)        # 0x1400403b0
   140004bd9:	0f 57 c0             	xorps  %xmm0,%xmm0
   140004bdc:	0f 11 44 24 40       	movups %xmm0,0x40(%rsp)
   140004be1:	48 89 7c 24 50       	mov    %rdi,0x50(%rsp)
   140004be6:	48 89 7c 24 58       	mov    %rdi,0x58(%rsp)
   140004beb:	48 8d 8d 90 01 00 00 	lea    0x190(%rbp),%rcx
   140004bf2:	e8 a9 95 03 00       	call   0x14003e1a0
   140004bf7:	4c 8b c0             	mov    %rax,%r8
   140004bfa:	48 8d 95 90 01 00 00 	lea    0x190(%rbp),%rdx
   140004c01:	48 8d 4c 24 40       	lea    0x40(%rsp),%rcx
   140004c06:	e8 75 74 00 00       	call   0x14000c080
   140004c0b:	90                   	nop
   140004c0c:	41 b8 18 00 00 00    	mov    $0x18,%r8d
   140004c12:	48 8d 15 07 96 04 00 	lea    0x49607(%rip),%rdx        # 0x14004e220
   140004c19:	48 8d 4c 24 40       	lea    0x40(%rsp),%rcx
   140004c1e:	e8 7d 7e 00 00       	call   0x14000caa0
   140004c23:	0f 10 00             	movups (%rax),%xmm0
   140004c26:	0f 11 45 f0          	movups %xmm0,-0x10(%rbp)
   140004c2a:	0f 10 70 10          	movups 0x10(%rax),%xmm6
   140004c2e:	0f 11 75 00          	movups %xmm6,0x0(%rbp)
   140004c32:	48 89 78 10          	mov    %rdi,0x10(%rax)
   140004c36:	48 c7 40 18 0f 00 00 	movq   $0xf,0x18(%rax)
   140004c3d:	00 
   140004c3e:	40 88 38             	mov    %dil,(%rax)
   140004c41:	48 8b 54 24 58       	mov    0x58(%rsp),%rdx
   140004c46:	48 83 fa 0f          	cmp    $0xf,%rdx
   140004c4a:	76 34                	jbe    0x140004c80
   140004c4c:	48 8b 44 24 40       	mov    0x40(%rsp),%rax
   140004c51:	48 ff c2             	inc    %rdx
   140004c54:	48 81 fa 00 10 00 00 	cmp    $0x1000,%rdx
   140004c5b:	72 1b                	jb     0x140004c78
   140004c5d:	48 8b 48 f8          	mov    -0x8(%rax),%rcx
   140004c61:	48 2b c1             	sub    %rcx,%rax
   140004c64:	48 83 e8 08          	sub    $0x8,%rax
   140004c68:	48 83 f8 1f          	cmp    $0x1f,%rax
   140004c6c:	0f 87 50 09 00 00    	ja     0x1400055c2
   140004c72:	48 83 c2 27          	add    $0x27,%rdx
   140004c76:	eb 03                	jmp    0x140004c7b
   140004c78:	48 8b c8             	mov    %rax,%rcx
   140004c7b:	e8 50 6d 01 00       	call   0x14001b9d0
   140004c80:	48 89 7c 24 50       	mov    %rdi,0x50(%rsp)
   140004c85:	48 c7 44 24 58 0f 00 	movq   $0xf,0x58(%rsp)
   140004c8c:	00 00 
   140004c8e:	c6 44 24 40 00       	movb   $0x0,0x40(%rsp)
   140004c93:	66 48 0f 7e f1       	movq   %xmm6,%rcx
   140004c98:	48 be ff ff ff ff ff 	movabs $0x7fffffffffffffff,%rsi
   140004c9f:	ff ff 7f 
   140004ca2:	48 8b c6             	mov    %rsi,%rax
   140004ca5:	48 2b c1             	sub    %rcx,%rax
   140004ca8:	48 83 f8 0c          	cmp    $0xc,%rax
   140004cac:	0f 82 91 09 00 00    	jb     0x140005643
   140004cb2:	4c 8d 4d f0          	lea    -0x10(%rbp),%r9
   140004cb6:	48 83 7d 08 0f       	cmpq   $0xf,0x8(%rbp)
   140004cbb:	4c 0f 47 4d f0       	cmova  -0x10(%rbp),%r9
   140004cc0:	48 c7 44 24 30 0c 00 	movq   $0xc,0x30(%rsp)
   140004cc7:	00 00 
   140004cc9:	48 8d 05 b0 95 04 00 	lea    0x495b0(%rip),%rax        # 0x14004e280
   140004cd0:	48 89 44 24 28       	mov    %rax,0x28(%rsp)
   140004cd5:	48 89 4c 24 20       	mov    %rcx,0x20(%rsp)
   140004cda:	48 8d 4d 60          	lea    0x60(%rbp),%rcx
   140004cde:	e8 9d 8f 00 00       	call   0x14000dc80
   140004ce3:	90                   	nop
   140004ce4:	0f 57 c0             	xorps  %xmm0,%xmm0
   140004ce7:	33 c0                	xor    %eax,%eax
   140004ce9:	0f 11 45 30          	movups %xmm0,0x30(%rbp)
   140004ced:	48 89 45 40          	mov    %rax,0x40(%rbp)
   140004cf1:	0f 11 45 90          	movups %xmm0,-0x70(%rbp)
   140004cf5:	48 89 7d a0          	mov    %rdi,-0x60(%rbp)
   140004cf9:	48 89 7d a8          	mov    %rdi,-0x58(%rbp)
   140004cfd:	41 b8 06 00 00 00    	mov    $0x6,%r8d
   140004d03:	48 8d 15 86 95 04 00 	lea    0x49586(%rip),%rdx        # 0x14004e290
   140004d0a:	48 8d 4d 90          	lea    -0x70(%rbp),%rcx
   140004d0e:	e8 6d 73 00 00       	call   0x14000c080
   140004d13:	90                   	nop
   140004d14:	4c 8d 4d f0          	lea    -0x10(%rbp),%r9
   140004d18:	48 8d 55 30          	lea    0x30(%rbp),%rdx
   140004d1c:	e8 3f 09 00 00       	call   0x140005660
   140004d21:	90                   	nop
   140004d22:	48 8b 55 a8          	mov    -0x58(%rbp),%rdx
   140004d26:	48 83 fa 0f          	cmp    $0xf,%rdx
   140004d2a:	76 36                	jbe    0x140004d62
   140004d2c:	48 8b 45 90          	mov    -0x70(%rbp),%rax
   140004d30:	48 ff c2             	inc    %rdx
   140004d33:	48 81 fa 00 10 00 00 	cmp    $0x1000,%rdx
   140004d3a:	72 1e                	jb     0x140004d5a
   140004d3c:	48 8b 48 f8          	mov    -0x8(%rax),%rcx
   140004d40:	48 2b c1             	sub    %rcx,%rax
   140004d43:	48 83 e8 08          	sub    $0x8,%rax
   140004d47:	48 83 f8 1f          	cmp    $0x1f,%rax
   140004d4b:	77 06                	ja     0x140004d53
   140004d4d:	48 83 c2 27          	add    $0x27,%rdx
   140004d51:	eb 0a                	jmp    0x140004d5d
   140004d53:	b9 05 00 00 00       	mov    $0x5,%ecx
   140004d58:	cd 29                	int    $0x29
   140004d5a:	48 8b c8             	mov    %rax,%rcx
   140004d5d:	e8 6e 6c 01 00       	call   0x14001b9d0
   140004d62:	33 d2                	xor    %edx,%edx
   140004d64:	41 b8 08 01 00 00    	mov    $0x108,%r8d
   140004d6a:	48 8d 8d 80 00 00 00 	lea    0x80(%rbp),%rcx
   140004d71:	e8 fa 8f 03 00       	call   0x14003dd70
   140004d76:	41 b8 02 00 00 00    	mov    $0x2,%r8d
   140004d7c:	48 8b d3             	mov    %rbx,%rdx
   140004d7f:	48 8d 8d 80 00 00 00 	lea    0x80(%rbp),%rcx
   140004d86:	e8 65 4f 00 00       	call   0x140009cf0
   140004d8b:	90                   	nop
   140004d8c:	0f 57 c0             	xorps  %xmm0,%xmm0
   140004d8f:	33 c0                	xor    %eax,%eax
   140004d91:	0f 11 45 48          	movups %xmm0,0x48(%rbp)
   140004d95:	48 89 45 58          	mov    %rax,0x58(%rbp)
   140004d99:	48 8d 55 48          	lea    0x48(%rbp),%rdx
   140004d9d:	e8 8e e8 ff ff       	call   0x140003630
   140004da2:	90                   	nop
   140004da3:	4c 8b 65 48          	mov    0x48(%rbp),%r12
   140004da7:	4c 8b 6d 50          	mov    0x50(%rbp),%r13
   140004dab:	33 db                	xor    %ebx,%ebx
   140004dad:	4d 3b e5             	cmp    %r13,%r12
   140004db0:	0f 84 04 07 00 00    	je     0x1400054ba
   140004db6:	48 8d 15 2f 95 04 00 	lea    0x4952f(%rip),%rdx        # 0x14004e2ec
   140004dbd:	48 8b 4d 00          	mov    0x0(%rbp),%rcx
   140004dc1:	48 8b c6             	mov    %rsi,%rax
   140004dc4:	48 2b c1             	sub    %rcx,%rax
   140004dc7:	48 83 f8 01          	cmp    $0x1,%rax
   140004dcb:	0f 82 6c 08 00 00    	jb     0x14000563d
   140004dd1:	4c 8d 4d f0          	lea    -0x10(%rbp),%r9
   140004dd5:	48 83 7d 08 0f       	cmpq   $0xf,0x8(%rbp)
   140004dda:	4c 0f 47 4d f0       	cmova  -0x10(%rbp),%r9
   140004ddf:	48 c7 44 24 30 01 00 	movq   $0x1,0x30(%rsp)
   140004de6:	00 00 
   140004de8:	48 89 54 24 28       	mov    %rdx,0x28(%rsp)
   140004ded:	48 89 4c 24 20       	mov    %rcx,0x20(%rsp)
   140004df2:	48 8d 4d 90          	lea    -0x70(%rbp),%rcx
   140004df6:	e8 85 8e 00 00       	call   0x14000dc80
   140004dfb:	90                   	nop
   140004dfc:	49 8b d4             	mov    %r12,%rdx
   140004dff:	49 83 7c 24 18 0f    	cmpq   $0xf,0x18(%r12)
   140004e05:	76 04                	jbe    0x140004e0b
   140004e07:	49 8b 14 24          	mov    (%r12),%rdx
   140004e0b:	4d 8b 44 24 10       	mov    0x10(%r12),%r8
   140004e10:	48 8d 4d 90          	lea    -0x70(%rbp),%rcx
   140004e14:	e8 87 7c 00 00       	call   0x14000caa0
   140004e19:	0f 57 c0             	xorps  %xmm0,%xmm0
   140004e1c:	0f 11 44 24 70       	movups %xmm0,0x70(%rsp)
   140004e21:	48 89 5d 80          	mov    %rbx,-0x80(%rbp)
   140004e25:	48 89 5d 88          	mov    %rbx,-0x78(%rbp)
   140004e29:	0f 10 00             	movups (%rax),%xmm0
   140004e2c:	0f 11 44 24 70       	movups %xmm0,0x70(%rsp)
   140004e31:	0f 10 48 10          	movups 0x10(%rax),%xmm1
   140004e35:	0f 11 4d 80          	movups %xmm1,-0x80(%rbp)
   140004e39:	48 89 58 10          	mov    %rbx,0x10(%rax)
   140004e3d:	48 c7 40 18 0f 00 00 	movq   $0xf,0x18(%rax)
   140004e44:	00 
   140004e45:	c6 00 00             	movb   $0x0,(%rax)
   140004e48:	41 b8 0b 00 00 00    	mov    $0xb,%r8d
   140004e4e:	48 8d 15 13 95 04 00 	lea    0x49513(%rip),%rdx        # 0x14004e368
   140004e55:	48 8d 4c 24 70       	lea    0x70(%rsp),%rcx
   140004e5a:	e8 41 7c 00 00       	call   0x14000caa0
   140004e5f:	0f 57 c0             	xorps  %xmm0,%xmm0
   140004e62:	0f 11 45 10          	movups %xmm0,0x10(%rbp)
   140004e66:	48 89 5d 20          	mov    %rbx,0x20(%rbp)
   140004e6a:	48 89 5d 28          	mov    %rbx,0x28(%rbp)
   140004e6e:	0f 10 00             	movups (%rax),%xmm0
   140004e71:	0f 11 45 10          	movups %xmm0,0x10(%rbp)
   140004e75:	0f 10 48 10          	movups 0x10(%rax),%xmm1
   140004e79:	0f 11 4d 20          	movups %xmm1,0x20(%rbp)
   140004e7d:	48 89 58 10          	mov    %rbx,0x10(%rax)
   140004e81:	48 c7 40 18 0f 00 00 	movq   $0xf,0x18(%rax)
   140004e88:	00 
   140004e89:	c6 00 00             	movb   $0x0,(%rax)
   140004e8c:	48 8b 55 88          	mov    -0x78(%rbp),%rdx
   140004e90:	48 83 fa 0f          	cmp    $0xf,%rdx
   140004e94:	76 32                	jbe    0x140004ec8
   140004e96:	48 ff c2             	inc    %rdx
   140004e99:	48 8b 4c 24 70       	mov    0x70(%rsp),%rcx
   140004e9e:	48 81 fa 00 10 00 00 	cmp    $0x1000,%rdx
   140004ea5:	72 1c                	jb     0x140004ec3
   140004ea7:	48 8b 41 f8          	mov    -0x8(%rcx),%rax
   140004eab:	48 2b c8             	sub    %rax,%rcx
   140004eae:	48 83 e9 08          	sub    $0x8,%rcx
   140004eb2:	48 83 f9 1f          	cmp    $0x1f,%rcx
   140004eb6:	0f 87 cd 05 00 00    	ja     0x140005489
   140004ebc:	48 83 c2 27          	add    $0x27,%rdx
   140004ec0:	48 8b c8             	mov    %rax,%rcx
   140004ec3:	e8 08 6b 01 00       	call   0x14001b9d0
   140004ec8:	48 89 5d 80          	mov    %rbx,-0x80(%rbp)
   140004ecc:	48 c7 45 88 0f 00 00 	movq   $0xf,-0x78(%rbp)
   140004ed3:	00 
   140004ed4:	c6 44 24 70 00       	movb   $0x0,0x70(%rsp)
   140004ed9:	48 8b 55 a8          	mov    -0x58(%rbp),%rdx
   140004edd:	48 83 fa 0f          	cmp    $0xf,%rdx
   140004ee1:	76 31                	jbe    0x140004f14
   140004ee3:	48 ff c2             	inc    %rdx
   140004ee6:	48 8b 4d 90          	mov    -0x70(%rbp),%rcx
   140004eea:	48 81 fa 00 10 00 00 	cmp    $0x1000,%rdx
   140004ef1:	72 1c                	jb     0x140004f0f
   140004ef3:	48 8b 41 f8          	mov    -0x8(%rcx),%rax
   140004ef7:	48 2b c8             	sub    %rax,%rcx
   140004efa:	48 83 e9 08          	sub    $0x8,%rcx
   140004efe:	48 83 f9 1f          	cmp    $0x1f,%rcx
   140004f02:	0f 87 a4 05 00 00    	ja     0x1400054ac
   140004f08:	48 83 c2 27          	add    $0x27,%rdx
   140004f0c:	48 8b c8             	mov    %rax,%rcx
   140004f0f:	e8 bc 6a 01 00       	call   0x14001b9d0
   140004f14:	48 89 5d a0          	mov    %rbx,-0x60(%rbp)
   140004f18:	48 c7 45 a8 0f 00 00 	movq   $0xf,-0x58(%rbp)
   140004f1f:	00 
   140004f20:	c6 45 90 00          	movb   $0x0,-0x70(%rbp)
   140004f24:	48 8d 95 a0 02 00 00 	lea    0x2a0(%rbp),%rdx
   140004f2b:	b9 04 01 00 00       	mov    $0x104,%ecx
   140004f30:	ff 15 8a b1 03 00    	call   *0x3b18a(%rip)        # 0x1400400c0
   140004f36:	0f 57 c0             	xorps  %xmm0,%xmm0
   140004f39:	0f 11 45 b0          	movups %xmm0,-0x50(%rbp)
   140004f3d:	48 89 5d c0          	mov    %rbx,-0x40(%rbp)
   140004f41:	48 89 5d c8          	mov    %rbx,-0x38(%rbp)
   140004f45:	48 8d 8d a0 02 00 00 	lea    0x2a0(%rbp),%rcx
   140004f4c:	e8 4f 92 03 00       	call   0x14003e1a0
   140004f51:	4c 8b c0             	mov    %rax,%r8
   140004f54:	48 8d 95 a0 02 00 00 	lea    0x2a0(%rbp),%rdx
   140004f5b:	48 8d 4d b0          	lea    -0x50(%rbp),%rcx
   140004f5f:	e8 1c 71 00 00       	call   0x14000c080
   140004f64:	90                   	nop
   140004f65:	49 83 7c 24 18 0f    	cmpq   $0xf,0x18(%r12)
   140004f6b:	76 06                	jbe    0x140004f73
   140004f6d:	49 8b 14 24          	mov    (%r12),%rdx
   140004f71:	eb 03                	jmp    0x140004f76
   140004f73:	49 8b d4             	mov    %r12,%rdx
   140004f76:	4d 8b 44 24 10       	mov    0x10(%r12),%r8
   140004f7b:	48 8d 4d b0          	lea    -0x50(%rbp),%rcx
   140004f7f:	e8 1c 7b 00 00       	call   0x14000caa0
   140004f84:	0f 57 c0             	xorps  %xmm0,%xmm0
   140004f87:	0f 11 44 24 40       	movups %xmm0,0x40(%rsp)
   140004f8c:	48 89 5c 24 50       	mov    %rbx,0x50(%rsp)
   140004f91:	48 89 5c 24 58       	mov    %rbx,0x58(%rsp)
   140004f96:	0f 10 00             	movups (%rax),%xmm0
   140004f99:	0f 11 44 24 40       	movups %xmm0,0x40(%rsp)
   140004f9e:	0f 10 48 10          	movups 0x10(%rax),%xmm1
   140004fa2:	0f 11 4c 24 50       	movups %xmm1,0x50(%rsp)
   140004fa7:	48 89 58 10          	mov    %rbx,0x10(%rax)
   140004fab:	48 c7 40 18 0f 00 00 	movq   $0xf,0x18(%rax)
   140004fb2:	00 
   140004fb3:	c6 00 00             	movb   $0x0,(%rax)
   140004fb6:	41 b8 0b 00 00 00    	mov    $0xb,%r8d
   140004fbc:	48 8d 15 b5 93 04 00 	lea    0x493b5(%rip),%rdx        # 0x14004e378
   140004fc3:	48 8d 4c 24 40       	lea    0x40(%rsp),%rcx
   140004fc8:	e8 d3 7a 00 00       	call   0x14000caa0
   140004fcd:	0f 57 c0             	xorps  %xmm0,%xmm0
   140004fd0:	0f 11 45 d0          	movups %xmm0,-0x30(%rbp)
   140004fd4:	48 89 5d e0          	mov    %rbx,-0x20(%rbp)
   140004fd8:	48 89 5d e8          	mov    %rbx,-0x18(%rbp)
   140004fdc:	0f 10 00             	movups (%rax),%xmm0
   140004fdf:	0f 11 45 d0          	movups %xmm0,-0x30(%rbp)
   140004fe3:	0f 10 48 10          	movups 0x10(%rax),%xmm1
   140004fe7:	0f 11 4d e0          	movups %xmm1,-0x20(%rbp)
   140004feb:	48 89 58 10          	mov    %rbx,0x10(%rax)
   140004fef:	48 c7 40 18 0f 00 00 	movq   $0xf,0x18(%rax)
   140004ff6:	00 
   140004ff7:	c6 00 00             	movb   $0x0,(%rax)
   140004ffa:	48 8b 54 24 58       	mov    0x58(%rsp),%rdx
   140004fff:	48 83 fa 0f          	cmp    $0xf,%rdx
   140005003:	76 32                	jbe    0x140005037
   140005005:	48 ff c2             	inc    %rdx
   140005008:	48 8b 4c 24 40       	mov    0x40(%rsp),%rcx
   14000500d:	48 81 fa 00 10 00 00 	cmp    $0x1000,%rdx
   140005014:	72 1c                	jb     0x140005032
   140005016:	48 8b 41 f8          	mov    -0x8(%rcx),%rax
   14000501a:	48 2b c8             	sub    %rax,%rcx
   14000501d:	48 83 e9 08          	sub    $0x8,%rcx
   140005021:	48 83 f9 1f          	cmp    $0x1f,%rcx
   140005025:	0f 87 65 04 00 00    	ja     0x140005490
   14000502b:	48 83 c2 27          	add    $0x27,%rdx
   14000502f:	48 8b c8             	mov    %rax,%rcx
   140005032:	e8 99 69 01 00       	call   0x14001b9d0
   140005037:	48 89 5c 24 50       	mov    %rbx,0x50(%rsp)
   14000503c:	48 c7 44 24 58 0f 00 	movq   $0xf,0x58(%rsp)
   140005043:	00 00 
   140005045:	c6 44 24 40 00       	movb   $0x0,0x40(%rsp)
   14000504a:	48 8b 55 c8          	mov    -0x38(%rbp),%rdx
   14000504e:	48 83 fa 0f          	cmp    $0xf,%rdx
   140005052:	76 31                	jbe    0x140005085
   140005054:	48 ff c2             	inc    %rdx
   140005057:	48 8b 4d b0          	mov    -0x50(%rbp),%rcx
   14000505b:	48 81 fa 00 10 00 00 	cmp    $0x1000,%rdx
   140005062:	72 1c                	jb     0x140005080
   140005064:	48 8b 41 f8          	mov    -0x8(%rcx),%rax
   140005068:	48 2b c8             	sub    %rax,%rcx
   14000506b:	48 83 e9 08          	sub    $0x8,%rcx
   14000506f:	48 83 f9 1f          	cmp    $0x1f,%rcx
   140005073:	0f 87 2c 04 00 00    	ja     0x1400054a5
   140005079:	48 83 c2 27          	add    $0x27,%rdx
   14000507d:	48 8b c8             	mov    %rax,%rcx
   140005080:	e8 4b 69 01 00       	call   0x14001b9d0
   140005085:	48 89 5d c0          	mov    %rbx,-0x40(%rbp)
   140005089:	48 c7 45 c8 0f 00 00 	movq   $0xf,-0x38(%rbp)
   140005090:	00 
   140005091:	c6 45 b0 00          	movb   $0x0,-0x50(%rbp)
   140005095:	48 8d 55 d0          	lea    -0x30(%rbp),%rdx
   140005099:	48 83 7d e8 0f       	cmpq   $0xf,-0x18(%rbp)
   14000509e:	48 0f 47 55 d0       	cmova  -0x30(%rbp),%rdx
   1400050a3:	48 8d 4d 10          	lea    0x10(%rbp),%rcx
   1400050a7:	48 83 7d 28 0f       	cmpq   $0xf,0x28(%rbp)
   1400050ac:	48 0f 47 4d 10       	cmova  0x10(%rbp),%rcx
   1400050b1:	45 33 c0             	xor    %r8d,%r8d
   1400050b4:	ff 15 fe af 03 00    	call   *0x3affe(%rip)        # 0x1400400b8
   1400050ba:	48 8d 4d d0          	lea    -0x30(%rbp),%rcx
   1400050be:	48 83 7d e8 0f       	cmpq   $0xf,-0x18(%rbp)
   1400050c3:	48 0f 47 4d d0       	cmova  -0x30(%rbp),%rcx
   1400050c8:	48 8d 54 24 68       	lea    0x68(%rsp),%rdx
   1400050cd:	ff 15 55 b3 03 00    	call   *0x3b355(%rip)        # 0x140040428
   1400050d3:	85 c0                	test   %eax,%eax
   1400050d5:	0f 85 12 03 00 00    	jne    0x1400053ed
   1400050db:	0f 57 c0             	xorps  %xmm0,%xmm0
   1400050de:	0f 11 45 90          	movups %xmm0,-0x70(%rbp)
   1400050e2:	48 89 5d a0          	mov    %rbx,-0x60(%rbp)
   1400050e6:	48 89 5d a8          	mov    %rbx,-0x58(%rbp)
   1400050ea:	41 b8 3d 00 00 00    	mov    $0x3d,%r8d
   1400050f0:	48 8d 15 91 92 04 00 	lea    0x49291(%rip),%rdx        # 0x14004e388
   1400050f7:	48 8d 4d 90          	lea    -0x70(%rbp),%rcx
   1400050fb:	e8 80 6f 00 00       	call   0x14000c080
   140005100:	90                   	nop
   140005101:	48 8d 55 90          	lea    -0x70(%rbp),%rdx
   140005105:	48 83 7d a8 0f       	cmpq   $0xf,-0x58(%rbp)
   14000510a:	48 0f 47 55 90       	cmova  -0x70(%rbp),%rdx
   14000510f:	48 89 5c 24 20       	mov    %rbx,0x20(%rsp)
   140005114:	4c 8d 4c 24 60       	lea    0x60(%rsp),%r9
   140005119:	41 b8 ff ff ff ff    	mov    $0xffffffff,%r8d
   14000511f:	48 8b 4c 24 68       	mov    0x68(%rsp),%rcx
   140005124:	ff 15 e6 b2 03 00    	call   *0x3b2e6(%rip)        # 0x140040410
   14000512a:	85 c0                	test   %eax,%eax
   14000512c:	0f 85 74 02 00 00    	jne    0x1400053a6
   140005132:	48 8b 4c 24 60       	mov    0x60(%rsp),%rcx
   140005137:	ff 15 fb b2 03 00    	call   *0x3b2fb(%rip)        # 0x140040438
   14000513d:	83 f8 64             	cmp    $0x64,%eax
   140005140:	0f 85 55 02 00 00    	jne    0x14000539b
   140005146:	66 66 0f 1f 84 00 00 	data16 nopw 0x0(%rax,%rax,1)
   14000514d:	00 00 00 
   140005150:	33 d2                	xor    %edx,%edx
   140005152:	48 8b 4c 24 60       	mov    0x60(%rsp),%rcx
   140005157:	ff 15 c3 b2 03 00    	call   *0x3b2c3(%rip)        # 0x140040420
   14000515d:	4c 8b f0             	mov    %rax,%r14
   140005160:	ba 01 00 00 00       	mov    $0x1,%edx
   140005165:	48 8b 4c 24 60       	mov    0x60(%rsp),%rcx
   14000516a:	ff 15 b0 b2 03 00    	call   *0x3b2b0(%rip)        # 0x140040420
   140005170:	4c 8b f8             	mov    %rax,%r15
   140005173:	ba 02 00 00 00       	mov    $0x2,%edx
   140005178:	48 8b 4c 24 60       	mov    0x60(%rsp),%rcx
   14000517d:	ff 15 bd b2 03 00    	call   *0x3b2bd(%rip)        # 0x140040440
   140005183:	48 8b f0             	mov    %rax,%rsi
   140005186:	ba 02 00 00 00       	mov    $0x2,%edx
   14000518b:	48 8b 4c 24 60       	mov    0x60(%rsp),%rcx
   140005190:	ff 15 9a b2 03 00    	call   *0x3b29a(%rip)        # 0x140040430
   140005196:	0f 57 c0             	xorps  %xmm0,%xmm0
   140005199:	48 63 f8             	movslq %eax,%rdi
